ARM GAS  /tmp/ccVId19z.s 			page 1


   1              		.syntax unified
   2              		.cpu cortex-m4
   3              		.eabi_attribute 27, 1
   4              		.eabi_attribute 28, 1
   5              		.fpu fpv4-sp-d16
   6              		.eabi_attribute 20, 1
   7              		.eabi_attribute 21, 1
   8              		.eabi_attribute 23, 3
   9              		.eabi_attribute 24, 1
  10              		.eabi_attribute 25, 1
  11              		.eabi_attribute 26, 1
  12              		.eabi_attribute 30, 2
  13              		.eabi_attribute 34, 1
  14              		.eabi_attribute 18, 4
  15              		.thumb
  16              		.file	"adc_lld.c"
  17              		.text
  18              	.Ltext0:
  19              		.cfi_sections	.debug_frame
  20              		.align	2
  21              		.p2align 4,,15
  22              		.global	adc_lld_init
  23              		.thumb
  24              		.thumb_func
  25              		.type	adc_lld_init, %function
  26              	adc_lld_init:
  27              	.LFB132:
  28              		.file 1 "/home/sbcu/Dropbox/pcb-layouts/axo-on-discovery-board/axoloti/platform_linux/../chibios/o
  29              		.loc 1 171 0
  30              		.cfi_startproc
  31              		@ args = 0, pretend = 0, frame = 0
  32              		@ frame_needed = 0, uses_anonymous_args = 0
  33 0000 10B5     		push	{r4, lr}
  34              		.cfi_def_cfa_offset 8
  35              		.cfi_offset 4, -8
  36              		.cfi_offset 14, -4
  37              		.loc 1 175 0
  38 0002 084C     		ldr	r4, .L3
  39 0004 2046     		mov	r0, r4
  40 0006 FFF7FEFF 		bl	adcObjectInit
  41              	.LVL0:
  42              		.loc 1 176 0
  43 000a 0749     		ldr	r1, .L3+4
  44              		.loc 1 177 0
  45 000c 074A     		ldr	r2, .L3+8
  46              		.loc 1 178 0
  47 000e 084B     		ldr	r3, .L3+12
  48              		.loc 1 176 0
  49 0010 A162     		str	r1, [r4, #40]
  50              		.loc 1 177 0
  51 0012 E262     		str	r2, [r4, #44]
  52              		.loc 1 178 0
  53 0014 2363     		str	r3, [r4, #48]
  54              		.loc 1 214 0
  55 0016 1220     		movs	r0, #18
  56 0018 6021     		movs	r1, #96
  57              		.loc 1 215 0
ARM GAS  /tmp/ccVId19z.s 			page 2


  58 001a BDE81040 		pop	{r4, lr}
  59              		.cfi_restore 14
  60              		.cfi_restore 4
  61              		.cfi_def_cfa_offset 0
  62              		.loc 1 214 0
  63 001e FFF7FEBF 		b	nvicEnableVector
  64              	.LVL1:
  65              	.L4:
  66 0022 00BF     		.align	2
  67              	.L3:
  68 0024 00000000 		.word	ADCD1
  69 0028 00200140 		.word	1073815552
  70 002c 90000000 		.word	_stm32_dma_streams+144
  71 0030 162C0200 		.word	142358
  72              		.cfi_endproc
  73              	.LFE132:
  74              		.size	adc_lld_init, .-adc_lld_init
  75              		.align	2
  76 0034 AFF30080 		.p2align 4,,15
  76      AFF30080 
  76      AFF30080 
  77              		.global	adc_lld_start
  78              		.thumb
  79              		.thumb_func
  80              		.type	adc_lld_start, %function
  81              	adc_lld_start:
  82              	.LFB133:
  83              		.loc 1 224 0
  84              		.cfi_startproc
  85              		@ args = 0, pretend = 0, frame = 0
  86              		@ frame_needed = 0, uses_anonymous_args = 0
  87              	.LVL2:
  88              		.loc 1 227 0
  89 0040 0378     		ldrb	r3, [r0]	@ zero_extendqisi2
  90 0042 012B     		cmp	r3, #1
  91 0044 00D0     		beq	.L11
  92 0046 7047     		bx	lr
  93              	.L11:
  94              		.loc 1 229 0
  95 0048 114B     		ldr	r3, .L13
  96 004a 9842     		cmp	r0, r3
  97              		.loc 1 224 0
  98 004c 10B5     		push	{r4, lr}
  99              		.cfi_def_cfa_offset 8
 100              		.cfi_offset 4, -8
 101              		.cfi_offset 14, -4
 102 004e 0446     		mov	r4, r0
 103              		.loc 1 229 0
 104 0050 0DD0     		beq	.L12
 105              	.LVL3:
 106              	.L7:
 107              		.loc 1 269 0
 108 0052 1048     		ldr	r0, .L13+4
 109              		.loc 1 274 0
 110 0054 A26A     		ldr	r2, [r4, #40]
 111              		.loc 1 269 0
 112 0056 4368     		ldr	r3, [r0, #4]
ARM GAS  /tmp/ccVId19z.s 			page 3


 113 0058 03F44003 		and	r3, r3, #12582912
 114              		.loc 1 274 0
 115 005c 0021     		movs	r1, #0
 116              		.loc 1 269 0
 117 005e 43F48033 		orr	r3, r3, #65536
 118              		.loc 1 276 0
 119 0062 0124     		movs	r4, #1
 120              	.LVL4:
 121              		.loc 1 269 0
 122 0064 4360     		str	r3, [r0, #4]
 123              		.loc 1 274 0
 124 0066 5160     		str	r1, [r2, #4]
 125              		.loc 1 275 0
 126 0068 9160     		str	r1, [r2, #8]
 127              		.loc 1 276 0
 128 006a 9460     		str	r4, [r2, #8]
 129 006c 10BD     		pop	{r4, pc}
 130              	.LVL5:
 131              	.L12:
 132              	.LBB2:
 133              		.loc 1 231 0
 134 006e 0A4A     		ldr	r2, .L13+8
 135 0070 C06A     		ldr	r0, [r0, #44]
 136              	.LVL6:
 137 0072 0621     		movs	r1, #6
 138 0074 2346     		mov	r3, r4
 139 0076 FFF7FEFF 		bl	dmaStreamAllocate
 140              	.LVL7:
 141              		.loc 1 236 0
 142 007a E36A     		ldr	r3, [r4, #44]
 143              		.loc 1 237 0
 144 007c 074A     		ldr	r2, .L13+12
 145              		.loc 1 236 0
 146 007e 1B68     		ldr	r3, [r3]
 147 0080 0749     		ldr	r1, .L13+16
 148 0082 9960     		str	r1, [r3, #8]
 149              		.loc 1 237 0
 150 0084 536C     		ldr	r3, [r2, #68]
 151 0086 43F48073 		orr	r3, r3, #256
 152 008a 5364     		str	r3, [r2, #68]
 153 008c E1E7     		b	.L7
 154              	.L14:
 155 008e 00BF     		.align	2
 156              	.L13:
 157 0090 00000000 		.word	ADCD1
 158 0094 00230140 		.word	1073816320
 159 0098 00000000 		.word	adc_lld_serve_rx_interrupt
 160 009c 00380240 		.word	1073887232
 161 00a0 4C200140 		.word	1073815628
 162              	.LBE2:
 163              		.cfi_endproc
 164              	.LFE133:
 165              		.size	adc_lld_start, .-adc_lld_start
 166              		.align	2
 167 00a4 AFF30080 		.p2align 4,,15
 167      AFF30080 
 167      AFF30080 
ARM GAS  /tmp/ccVId19z.s 			page 4


 168              		.global	adc_lld_stop
 169              		.thumb
 170              		.thumb_func
 171              		.type	adc_lld_stop, %function
 172              	adc_lld_stop:
 173              	.LFB134:
 174              		.loc 1 287 0
 175              		.cfi_startproc
 176              		@ args = 0, pretend = 0, frame = 0
 177              		@ frame_needed = 0, uses_anonymous_args = 0
 178              	.LVL8:
 179              		.loc 1 290 0
 180 00b0 0378     		ldrb	r3, [r0]	@ zero_extendqisi2
 181 00b2 022B     		cmp	r3, #2
 182 00b4 00D0     		beq	.L21
 183 00b6 7047     		bx	lr
 184              	.L21:
 185              		.loc 1 287 0
 186 00b8 10B5     		push	{r4, lr}
 187              		.cfi_def_cfa_offset 8
 188              		.cfi_offset 4, -8
 189              		.cfi_offset 14, -4
 190 00ba 0446     		mov	r4, r0
 191              		.loc 1 291 0
 192 00bc C06A     		ldr	r0, [r0, #44]
 193              	.LVL9:
 194 00be FFF7FEFF 		bl	dmaStreamRelease
 195              	.LVL10:
 196              		.loc 1 296 0
 197 00c2 0749     		ldr	r1, .L23
 198              		.loc 1 292 0
 199 00c4 A36A     		ldr	r3, [r4, #40]
 200 00c6 0022     		movs	r2, #0
 201              		.loc 1 296 0
 202 00c8 8C42     		cmp	r4, r1
 203              		.loc 1 292 0
 204 00ca 5A60     		str	r2, [r3, #4]
 205              		.loc 1 293 0
 206 00cc 9A60     		str	r2, [r3, #8]
 207              		.loc 1 296 0
 208 00ce 00D0     		beq	.L22
 209              	.L15:
 210 00d0 10BD     		pop	{r4, pc}
 211              	.LVL11:
 212              	.L22:
 213              		.loc 1 297 0
 214 00d2 044A     		ldr	r2, .L23+4
 215 00d4 536C     		ldr	r3, [r2, #68]
 216 00d6 23F48073 		bic	r3, r3, #256
 217 00da 5364     		str	r3, [r2, #68]
 218 00dc F8E7     		b	.L15
 219              	.L24:
 220 00de 00BF     		.align	2
 221              	.L23:
 222 00e0 00000000 		.word	ADCD1
 223 00e4 00380240 		.word	1073887232
 224              		.cfi_endproc
ARM GAS  /tmp/ccVId19z.s 			page 5


 225              	.LFE134:
 226              		.size	adc_lld_stop, .-adc_lld_stop
 227              		.align	2
 228 00e8 AFF30080 		.p2align 4,,15
 228      AFF30080 
 229              		.global	adc_lld_start_conversion
 230              		.thumb
 231              		.thumb_func
 232              		.type	adc_lld_start_conversion, %function
 233              	adc_lld_start_conversion:
 234              	.LFB135:
 235              		.loc 1 319 0
 236              		.cfi_startproc
 237              		@ args = 0, pretend = 0, frame = 0
 238              		@ frame_needed = 0, uses_anonymous_args = 0
 239              	.LVL12:
 240              		.loc 1 322 0
 241 00f0 0369     		ldr	r3, [r0, #16]
 242              	.LVL13:
 243              		.loc 1 325 0
 244 00f2 016B     		ldr	r1, [r0, #48]
 245              	.LVL14:
 246              		.loc 1 326 0
 247 00f4 1A78     		ldrb	r2, [r3]	@ zero_extendqisi2
 248              		.loc 1 319 0
 249 00f6 2DE9F043 		push	{r4, r5, r6, r7, r8, r9, lr}
 250              		.cfi_def_cfa_offset 28
 251              		.cfi_offset 4, -28
 252              		.cfi_offset 5, -24
 253              		.cfi_offset 6, -20
 254              		.cfi_offset 7, -16
 255              		.cfi_offset 8, -12
 256              		.cfi_offset 9, -8
 257              		.cfi_offset 14, -4
 258              		.loc 1 328 0
 259 00fa C468     		ldr	r4, [r0, #12]
 260              		.loc 1 326 0
 261 00fc 2AB1     		cbz	r2, .L27
 262              	.LVL15:
 263              		.loc 1 328 0
 264 00fe 012C     		cmp	r4, #1
 265              		.loc 1 327 0
 266 0100 94BF     		ite	ls
 267 0102 41F48071 		orrls	r1, r1, #256
 268              	.LVL16:
 269              		.loc 1 331 0
 270 0106 41F48471 		orrhi	r1, r1, #264
 271              	.LVL17:
 272              	.L27:
 273              		.loc 1 334 0
 274 010a C56A     		ldr	r5, [r0, #44]
 275              		.loc 1 335 0
 276 010c 5A88     		ldrh	r2, [r3, #2]
 277              		.loc 1 334 0
 278 010e 2D68     		ldr	r5, [r5]
 279 0110 8668     		ldr	r6, [r0, #8]
 280 0112 EE60     		str	r6, [r5, #12]
ARM GAS  /tmp/ccVId19z.s 			page 6


 281              		.loc 1 335 0
 282 0114 02FB04F2 		mul	r2, r2, r4
 283              		.loc 1 345 0
 284 0118 03F11808 		add	r8, r3, #24
 285              		.loc 1 335 0
 286 011c 6A60     		str	r2, [r5, #4]
 287              		.loc 1 349 0
 288 011e DC68     		ldr	r4, [r3, #12]
 289              		.loc 1 337 0
 290 0120 2960     		str	r1, [r5]
 291              		.loc 1 345 0
 292 0122 98E80051 		ldmia	r8, {r8, ip, lr}
 293              		.loc 1 338 0
 294 0126 2E68     		ldr	r6, [r5]
 295              		.loc 1 352 0
 296 0128 1969     		ldr	r1, [r3, #16]
 297              	.LVL18:
 298              		.loc 1 341 0
 299 012a 826A     		ldr	r2, [r0, #40]
 300              		.loc 1 342 0
 301 012c D3F81490 		ldr	r9, [r3, #20]
 302              		.loc 1 346 0
 303 0130 5F6A     		ldr	r7, [r3, #36]
 304              		.loc 1 349 0
 305 0132 44F08063 		orr	r3, r4, #67108864
 306              	.LVL19:
 307 0136 43F48073 		orr	r3, r3, #256
 308              		.loc 1 338 0
 309 013a 46F00100 		orr	r0, r6, #1
 310              	.LVL20:
 311              		.loc 1 341 0
 312 013e 0024     		movs	r4, #0
 313              		.loc 1 338 0
 314 0140 2860     		str	r0, [r5]
 315              	.LVL21:
 316              		.loc 1 341 0
 317 0142 1460     		str	r4, [r2]
 318              		.loc 1 342 0
 319 0144 C2F80C90 		str	r9, [r2, #12]
 320              		.loc 1 343 0
 321 0148 C2F81080 		str	r8, [r2, #16]
 322              		.loc 1 344 0
 323 014c C2F82CC0 		str	ip, [r2, #44]
 324              		.loc 1 345 0
 325 0150 C2F830E0 		str	lr, [r2, #48]
 326              		.loc 1 346 0
 327 0154 5763     		str	r7, [r2, #52]
 328              		.loc 1 349 0
 329 0156 5360     		str	r3, [r2, #4]
 330              		.loc 1 356 0
 331 0158 4B00     		lsls	r3, r1, #1
 332 015a 06D4     		bmi	.L32
 333              		.loc 1 352 0
 334 015c 41F44071 		orr	r1, r1, #768
 335              	.LVL22:
 336 0160 41F00101 		orr	r1, r1, #1
 337              		.loc 1 364 0
ARM GAS  /tmp/ccVId19z.s 			page 7


 338 0164 9160     		str	r1, [r2, #8]
 339              	.LVL23:
 340 0166 BDE8F083 		pop	{r4, r5, r6, r7, r8, r9, pc}
 341              	.LVL24:
 342              	.L32:
 343              		.loc 1 358 0
 344 016a 21F08043 		bic	r3, r1, #1073741824
 345 016e 23F00203 		bic	r3, r3, #2
 346 0172 43F44073 		orr	r3, r3, #768
 347              		.loc 1 361 0
 348 0176 41F44071 		orr	r1, r1, #768
 349              	.LVL25:
 350              		.loc 1 358 0
 351 017a 43F00303 		orr	r3, r3, #3
 352              		.loc 1 361 0
 353 017e 41F00301 		orr	r1, r1, #3
 354              		.loc 1 358 0
 355 0182 9360     		str	r3, [r2, #8]
 356              		.loc 1 361 0
 357 0184 9160     		str	r1, [r2, #8]
 358              	.LVL26:
 359 0186 BDE8F083 		pop	{r4, r5, r6, r7, r8, r9, pc}
 360              		.cfi_endproc
 361              	.LFE135:
 362              		.size	adc_lld_start_conversion, .-adc_lld_start_conversion
 363 018a 00BF     		.align	2
 364 018c AFF30080 		.p2align 4,,15
 365              		.global	adc_lld_stop_conversion
 366              		.thumb
 367              		.thumb_func
 368              		.type	adc_lld_stop_conversion, %function
 369              	adc_lld_stop_conversion:
 370              	.LFB136:
 371              		.loc 1 374 0
 372              		.cfi_startproc
 373              		@ args = 0, pretend = 0, frame = 0
 374              		@ frame_needed = 0, uses_anonymous_args = 0
 375              		@ link register save eliminated.
 376              	.LVL27:
 377              		.loc 1 376 0
 378 0190 C16A     		ldr	r1, [r0, #44]
 379 0192 0A68     		ldr	r2, [r1]
 380 0194 1368     		ldr	r3, [r2]
 381 0196 23F01F03 		bic	r3, r3, #31
 382 019a 1360     		str	r3, [r2]
 383              	.L34:
 384              		.loc 1 376 0 is_stmt 0 discriminator 2
 385 019c 1368     		ldr	r3, [r2]
 386 019e 13F00103 		ands	r3, r3, #1
 387 01a2 FBD1     		bne	.L34
 388              		.loc 1 374 0 is_stmt 1 discriminator 3
 389 01a4 30B4     		push	{r4, r5}
 390              		.cfi_def_cfa_offset 8
 391              		.cfi_offset 4, -8
 392              		.cfi_offset 5, -4
 393              		.loc 1 376 0 discriminator 3
 394 01a6 0D7A     		ldrb	r5, [r1, #8]	@ zero_extendqisi2
ARM GAS  /tmp/ccVId19z.s 			page 8


 395 01a8 4C68     		ldr	r4, [r1, #4]
 396              		.loc 1 377 0 discriminator 3
 397 01aa 826A     		ldr	r2, [r0, #40]
 398              		.loc 1 376 0 discriminator 3
 399 01ac 3D21     		movs	r1, #61
 400 01ae A940     		lsls	r1, r1, r5
 401              		.loc 1 379 0 discriminator 3
 402 01b0 0120     		movs	r0, #1
 403              	.LVL28:
 404              		.loc 1 376 0 discriminator 3
 405 01b2 2160     		str	r1, [r4]
 406              		.loc 1 377 0 discriminator 3
 407 01b4 5360     		str	r3, [r2, #4]
 408              		.loc 1 380 0 discriminator 3
 409 01b6 30BC     		pop	{r4, r5}
 410              		.cfi_restore 5
 411              		.cfi_restore 4
 412              		.cfi_def_cfa_offset 0
 413              		.loc 1 378 0 discriminator 3
 414 01b8 9360     		str	r3, [r2, #8]
 415              		.loc 1 379 0 discriminator 3
 416 01ba 9060     		str	r0, [r2, #8]
 417              		.loc 1 380 0 discriminator 3
 418 01bc 7047     		bx	lr
 419              		.cfi_endproc
 420              	.LFE136:
 421              		.size	adc_lld_stop_conversion, .-adc_lld_stop_conversion
 422 01be 00BF     		.align	2
 423              		.p2align 4,,15
 424              		.global	Vector88
 425              		.thumb
 426              		.thumb_func
 427              		.type	Vector88, %function
 428              	Vector88:
 429              	.LFB131:
 430              		.loc 1 111 0
 431              		.cfi_startproc
 432              		@ args = 0, pretend = 0, frame = 0
 433              		@ frame_needed = 0, uses_anonymous_args = 0
 434              		.loc 1 117 0
 435 01c0 1A4B     		ldr	r3, .L57
 436 01c2 1A68     		ldr	r2, [r3]
 437              	.LVL29:
 438              		.loc 1 118 0
 439 01c4 0021     		movs	r1, #0
 440 01c6 1960     		str	r1, [r3]
 441              		.loc 1 121 0
 442 01c8 9306     		lsls	r3, r2, #26
 443 01ca 2CD5     		bpl	.L56
 444              		.loc 1 111 0 discriminator 1
 445 01cc 10B5     		push	{r4, lr}
 446              		.cfi_def_cfa_offset 8
 447              		.cfi_offset 4, -8
 448              		.cfi_offset 14, -4
 449              		.loc 1 121 0 discriminator 1
 450 01ce 184C     		ldr	r4, .L57+4
 451 01d0 E36A     		ldr	r3, [r4, #44]
ARM GAS  /tmp/ccVId19z.s 			page 9


 452 01d2 1B68     		ldr	r3, [r3]
 453 01d4 5B68     		ldr	r3, [r3, #4]
 454 01d6 13B3     		cbz	r3, .L38
 455              		.loc 1 124 0
 456 01d8 2369     		ldr	r3, [r4, #16]
 457 01da 03B3     		cbz	r3, .L38
 458              		.loc 1 125 0
 459 01dc 2046     		mov	r0, r4
 460 01de FFF7FEFF 		bl	adc_lld_stop_conversion
 461              	.LVL30:
 462 01e2 2369     		ldr	r3, [r4, #16]
 463 01e4 9B68     		ldr	r3, [r3, #8]
 464 01e6 4BB1     		cbz	r3, .L40
 465              		.loc 1 125 0 is_stmt 0 discriminator 1
 466 01e8 0522     		movs	r2, #5
 467 01ea 2270     		strb	r2, [r4]
 468 01ec 2046     		mov	r0, r4
 469 01ee 0121     		movs	r1, #1
 470 01f0 9847     		blx	r3
 471              	.LVL31:
 472 01f2 2378     		ldrb	r3, [r4]	@ zero_extendqisi2
 473 01f4 052B     		cmp	r3, #5
 474 01f6 04BF     		itt	eq
 475 01f8 0223     		moveq	r3, #2
 476 01fa 2370     		strbeq	r3, [r4]
 477              	.L40:
 478              		.loc 1 125 0 discriminator 5
 479 01fc 0022     		movs	r2, #0
 480 01fe 2261     		str	r2, [r4, #16]
 481 0200 0B49     		ldr	r1, .L57+4
 482              	.LBB3:
 483 0202 2023     		movs	r3, #32
 484              	@ 125 "/home/sbcu/Dropbox/pcb-layouts/axo-on-discovery-board/axoloti/platform_linux/../chibios/os/h
 485 0204 83F31188 		msr     BASEPRI, r3
 486              	@ 0 "" 2
 487              		.thumb
 488              	.LBE3:
 489 0208 6069     		ldr	r0, [r4, #20]
 490 020a 28B1     		cbz	r0, .L42
 491              	.LVL32:
 492              	.LBB4:
 493              		.loc 1 125 0 discriminator 6
 494 020c 4FF0FF33 		mov	r3, #-1
 495 0210 0362     		str	r3, [r0, #32]
 496 0212 4A61     		str	r2, [r1, #20]
 497 0214 FFF7FEFF 		bl	chSchReadyI
 498              	.LVL33:
 499              	.L42:
 500              	.LBE4:
 501              	.LBB5:
 502              		.loc 1 125 0 discriminator 8
 503 0218 0023     		movs	r3, #0
 504              	@ 125 "/home/sbcu/Dropbox/pcb-layouts/axo-on-discovery-board/axoloti/platform_linux/../chibios/os/h
 505 021a 83F31188 		msr     BASEPRI, r3
 506              	@ 0 "" 2
 507              		.thumb
 508              	.L38:
ARM GAS  /tmp/ccVId19z.s 			page 10


 509              	.LBE5:
 510              		.loc 1 159 0 is_stmt 1
 511 021e BDE81040 		pop	{r4, lr}
 512              		.cfi_restore 14
 513              		.cfi_restore 4
 514              		.cfi_def_cfa_offset 0
 515              		.loc 1 158 0
 516 0222 FFF7FEBF 		b	_port_irq_epilogue
 517              	.LVL34:
 518              	.L56:
 519 0226 FFF7FEBF 		b	_port_irq_epilogue
 520              	.LVL35:
 521              	.L58:
 522 022a 00BF     		.align	2
 523              	.L57:
 524 022c 00200140 		.word	1073815552
 525 0230 00000000 		.word	ADCD1
 526              		.cfi_endproc
 527              	.LFE131:
 528              		.size	Vector88, .-Vector88
 529              		.align	2
 530 0234 AFF30080 		.p2align 4,,15
 530      AFF30080 
 530      AFF30080 
 531              		.thumb
 532              		.thumb_func
 533              		.type	adc_lld_serve_rx_interrupt, %function
 534              	adc_lld_serve_rx_interrupt:
 535              	.LFB130:
 536              		.loc 1 76 0
 537              		.cfi_startproc
 538              		@ args = 0, pretend = 0, frame = 0
 539              		@ frame_needed = 0, uses_anonymous_args = 0
 540              	.LVL36:
 541              		.loc 1 79 0
 542 0240 11F00C0F 		tst	r1, #12
 543              		.loc 1 76 0
 544 0244 70B5     		push	{r4, r5, r6, lr}
 545              		.cfi_def_cfa_offset 16
 546              		.cfi_offset 4, -16
 547              		.cfi_offset 5, -12
 548              		.cfi_offset 6, -8
 549              		.cfi_offset 14, -4
 550              		.loc 1 76 0
 551 0246 0446     		mov	r4, r0
 552              		.loc 1 79 0
 553 0248 19D1     		bne	.L94
 554              		.loc 1 87 0
 555 024a 0369     		ldr	r3, [r0, #16]
 556 024c B3B1     		cbz	r3, .L59
 557              		.loc 1 88 0
 558 024e 8D06     		lsls	r5, r1, #26
 559 0250 12D5     		bpl	.L66
 560              		.loc 1 90 0
 561 0252 1A78     		ldrb	r2, [r3]	@ zero_extendqisi2
 562 0254 002A     		cmp	r2, #0
 563 0256 41D0     		beq	.L67
ARM GAS  /tmp/ccVId19z.s 			page 11


 564              		.loc 1 90 0 is_stmt 0 discriminator 1
 565 0258 5D68     		ldr	r5, [r3, #4]
 566 025a 7DB1     		cbz	r5, .L59
 567              		.loc 1 90 0 discriminator 3
 568 025c C268     		ldr	r2, [r0, #12]
 569 025e 012A     		cmp	r2, #1
 570 0260 37D9     		bls	.L68
 571              	.LBB6:
 572              		.loc 1 90 0 discriminator 4
 573 0262 5B88     		ldrh	r3, [r3, #2]
 574 0264 8168     		ldr	r1, [r0, #8]
 575              	.LVL37:
 576 0266 5208     		lsrs	r2, r2, #1
 577              	.LVL38:
 578 0268 03FB02F3 		mul	r3, r3, r2
 579 026c 01EB4301 		add	r1, r1, r3, lsl #1
 580 0270 2B46     		mov	r3, r5
 581              	.LBE6:
 582              		.loc 1 98 0 is_stmt 1 discriminator 4
 583 0272 BDE87040 		pop	{r4, r5, r6, lr}
 584              		.cfi_remember_state
 585              		.cfi_restore 14
 586              		.cfi_restore 6
 587              		.cfi_restore 5
 588              		.cfi_restore 4
 589              		.cfi_def_cfa_offset 0
 590              	.LBB7:
 591              		.loc 1 90 0 discriminator 4
 592 0276 1847     		bx	r3	@ indirect register sibling call
 593              	.LVL39:
 594              	.L66:
 595              		.cfi_restore_state
 596              	.LBE7:
 597              		.loc 1 92 0
 598 0278 CA06     		lsls	r2, r1, #27
 599 027a 21D4     		bmi	.L95
 600              	.L59:
 601 027c 70BD     		pop	{r4, r5, r6, pc}
 602              	.L94:
 603              		.loc 1 82 0
 604 027e FFF7FEFF 		bl	adc_lld_stop_conversion
 605              	.LVL40:
 606 0282 2369     		ldr	r3, [r4, #16]
 607 0284 9B68     		ldr	r3, [r3, #8]
 608 0286 4BB1     		cbz	r3, .L62
 609              		.loc 1 82 0 is_stmt 0 discriminator 1
 610 0288 0522     		movs	r2, #5
 611 028a 2270     		strb	r2, [r4]
 612 028c 2046     		mov	r0, r4
 613 028e 0021     		movs	r1, #0
 614 0290 9847     		blx	r3
 615              	.LVL41:
 616 0292 2378     		ldrb	r3, [r4]	@ zero_extendqisi2
 617 0294 052B     		cmp	r3, #5
 618 0296 04BF     		itt	eq
 619 0298 0223     		moveq	r3, #2
 620 029a 2370     		strbeq	r3, [r4]
ARM GAS  /tmp/ccVId19z.s 			page 12


 621              	.L62:
 622              		.loc 1 82 0 discriminator 5
 623 029c 0022     		movs	r2, #0
 624 029e 2261     		str	r2, [r4, #16]
 625              	.LBB8:
 626 02a0 2023     		movs	r3, #32
 627              	@ 82 "/home/sbcu/Dropbox/pcb-layouts/axo-on-discovery-board/axoloti/platform_linux/../chibios/os/ha
 628 02a2 83F31188 		msr     BASEPRI, r3
 629              	@ 0 "" 2
 630              		.thumb
 631              	.LBE8:
 632 02a6 6369     		ldr	r3, [r4, #20]
 633 02a8 33B1     		cbz	r3, .L71
 634              	.LVL42:
 635              	.LBB9:
 636              		.loc 1 82 0 discriminator 6
 637 02aa 4FF0FF31 		mov	r1, #-1
 638 02ae 6261     		str	r2, [r4, #20]
 639 02b0 1846     		mov	r0, r3
 640 02b2 1962     		str	r1, [r3, #32]
 641 02b4 FFF7FEFF 		bl	chSchReadyI
 642              	.LVL43:
 643              	.L71:
 644              	.LBE9:
 645              	.LBB10:
 646              		.loc 1 90 0 is_stmt 1 discriminator 12
 647 02b8 0023     		movs	r3, #0
 648              	@ 90 "/home/sbcu/Dropbox/pcb-layouts/axo-on-discovery-board/axoloti/platform_linux/../chibios/os/ha
 649 02ba 83F31188 		msr     BASEPRI, r3
 650              	@ 0 "" 2
 651              		.thumb
 652 02be 70BD     		pop	{r4, r5, r6, pc}
 653              	.LVL44:
 654              	.L95:
 655              	.LBE10:
 656              		.loc 1 94 0
 657 02c0 5B68     		ldr	r3, [r3, #4]
 658 02c2 002B     		cmp	r3, #0
 659 02c4 DAD0     		beq	.L59
 660              		.loc 1 94 0 is_stmt 0 discriminator 1
 661 02c6 C268     		ldr	r2, [r0, #12]
 662 02c8 8168     		ldr	r1, [r0, #8]
 663              	.LVL45:
 664 02ca 5208     		lsrs	r2, r2, #1
 665              		.loc 1 98 0 is_stmt 1 discriminator 1
 666 02cc BDE87040 		pop	{r4, r5, r6, lr}
 667              		.cfi_remember_state
 668              		.cfi_restore 14
 669              		.cfi_restore 6
 670              		.cfi_restore 5
 671              		.cfi_restore 4
 672              		.cfi_def_cfa_offset 0
 673              		.loc 1 94 0 discriminator 1
 674 02d0 1847     		bx	r3	@ indirect register sibling call
 675              	.LVL46:
 676              	.L68:
 677              		.cfi_restore_state
ARM GAS  /tmp/ccVId19z.s 			page 13


 678              		.loc 1 90 0 discriminator 5
 679 02d2 2B46     		mov	r3, r5
 680 02d4 8168     		ldr	r1, [r0, #8]
 681              	.LVL47:
 682              		.loc 1 98 0 discriminator 5
 683 02d6 BDE87040 		pop	{r4, r5, r6, lr}
 684              		.cfi_remember_state
 685              		.cfi_restore 14
 686              		.cfi_restore 6
 687              		.cfi_restore 5
 688              		.cfi_restore 4
 689              		.cfi_def_cfa_offset 0
 690              		.loc 1 90 0 discriminator 5
 691 02da 1847     		bx	r3	@ indirect register sibling call
 692              	.LVL48:
 693              	.L67:
 694              		.cfi_restore_state
 695              		.loc 1 90 0 is_stmt 0 discriminator 2
 696 02dc FFF7FEFF 		bl	adc_lld_stop_conversion
 697              	.LVL49:
 698 02e0 2369     		ldr	r3, [r4, #16]
 699 02e2 5B68     		ldr	r3, [r3, #4]
 700 02e4 ABB1     		cbz	r3, .L69
 701              		.loc 1 90 0 discriminator 6
 702 02e6 0422     		movs	r2, #4
 703 02e8 2270     		strb	r2, [r4]
 704 02ea 2046     		mov	r0, r4
 705 02ec A168     		ldr	r1, [r4, #8]
 706 02ee E268     		ldr	r2, [r4, #12]
 707 02f0 9847     		blx	r3
 708              	.LVL50:
 709 02f2 2378     		ldrb	r3, [r4]	@ zero_extendqisi2
 710 02f4 042B     		cmp	r3, #4
 711 02f6 0CD0     		beq	.L69
 712              	.L70:
 713              	.LBB11:
 714              		.loc 1 90 0 discriminator 9
 715 02f8 2023     		movs	r3, #32
 716              	@ 90 "/home/sbcu/Dropbox/pcb-layouts/axo-on-discovery-board/axoloti/platform_linux/../chibios/os/ha
 717 02fa 83F31188 		msr     BASEPRI, r3
 718              	@ 0 "" 2
 719              		.thumb
 720              	.LBE11:
 721 02fe 6369     		ldr	r3, [r4, #20]
 722 0300 002B     		cmp	r3, #0
 723 0302 D9D0     		beq	.L71
 724              	.LVL51:
 725              	.LBB12:
 726              		.loc 1 90 0 discriminator 10
 727 0304 0022     		movs	r2, #0
 728 0306 6261     		str	r2, [r4, #20]
 729 0308 1846     		mov	r0, r3
 730 030a 1A62     		str	r2, [r3, #32]
 731 030c FFF7FEFF 		bl	chSchReadyI
 732              	.LVL52:
 733 0310 D2E7     		b	.L71
 734              	.L69:
ARM GAS  /tmp/ccVId19z.s 			page 14


 735              	.LBE12:
 736              		.loc 1 90 0 discriminator 8
 737 0312 0222     		movs	r2, #2
 738 0314 0023     		movs	r3, #0
 739 0316 2270     		strb	r2, [r4]
 740 0318 2361     		str	r3, [r4, #16]
 741 031a EDE7     		b	.L70
 742              		.cfi_endproc
 743              	.LFE130:
 744              		.size	adc_lld_serve_rx_interrupt, .-adc_lld_serve_rx_interrupt
 745              		.align	2
 746 031c AFF30080 		.p2align 4,,15
 747              		.global	adcSTM32EnableTSVREFE
 748              		.thumb
 749              		.thumb_func
 750              		.type	adcSTM32EnableTSVREFE, %function
 751              	adcSTM32EnableTSVREFE:
 752              	.LFB137:
 753              		.loc 1 388 0 is_stmt 1
 754              		.cfi_startproc
 755              		@ args = 0, pretend = 0, frame = 0
 756              		@ frame_needed = 0, uses_anonymous_args = 0
 757              		@ link register save eliminated.
 758              		.loc 1 390 0
 759 0320 024A     		ldr	r2, .L97
 760 0322 5368     		ldr	r3, [r2, #4]
 761 0324 43F40003 		orr	r3, r3, #8388608
 762 0328 5360     		str	r3, [r2, #4]
 763 032a 7047     		bx	lr
 764              	.L98:
 765              		.align	2
 766              	.L97:
 767 032c 00230140 		.word	1073816320
 768              		.cfi_endproc
 769              	.LFE137:
 770              		.size	adcSTM32EnableTSVREFE, .-adcSTM32EnableTSVREFE
 771              		.align	2
 772              		.p2align 4,,15
 773              		.global	adcSTM32DisableTSVREFE
 774              		.thumb
 775              		.thumb_func
 776              		.type	adcSTM32DisableTSVREFE, %function
 777              	adcSTM32DisableTSVREFE:
 778              	.LFB138:
 779              		.loc 1 399 0
 780              		.cfi_startproc
 781              		@ args = 0, pretend = 0, frame = 0
 782              		@ frame_needed = 0, uses_anonymous_args = 0
 783              		@ link register save eliminated.
 784              		.loc 1 401 0
 785 0330 024A     		ldr	r2, .L100
 786 0332 5368     		ldr	r3, [r2, #4]
 787 0334 23F40003 		bic	r3, r3, #8388608
 788 0338 5360     		str	r3, [r2, #4]
 789 033a 7047     		bx	lr
 790              	.L101:
 791              		.align	2
ARM GAS  /tmp/ccVId19z.s 			page 15


 792              	.L100:
 793 033c 00230140 		.word	1073816320
 794              		.cfi_endproc
 795              	.LFE138:
 796              		.size	adcSTM32DisableTSVREFE, .-adcSTM32DisableTSVREFE
 797              		.align	2
 798              		.p2align 4,,15
 799              		.global	adcSTM32EnableVBATE
 800              		.thumb
 801              		.thumb_func
 802              		.type	adcSTM32EnableVBATE, %function
 803              	adcSTM32EnableVBATE:
 804              	.LFB139:
 805              		.loc 1 410 0
 806              		.cfi_startproc
 807              		@ args = 0, pretend = 0, frame = 0
 808              		@ frame_needed = 0, uses_anonymous_args = 0
 809              		@ link register save eliminated.
 810              		.loc 1 412 0
 811 0340 024A     		ldr	r2, .L103
 812 0342 5368     		ldr	r3, [r2, #4]
 813 0344 43F48003 		orr	r3, r3, #4194304
 814 0348 5360     		str	r3, [r2, #4]
 815 034a 7047     		bx	lr
 816              	.L104:
 817              		.align	2
 818              	.L103:
 819 034c 00230140 		.word	1073816320
 820              		.cfi_endproc
 821              	.LFE139:
 822              		.size	adcSTM32EnableVBATE, .-adcSTM32EnableVBATE
 823              		.align	2
 824              		.p2align 4,,15
 825              		.global	adcSTM32DisableVBATE
 826              		.thumb
 827              		.thumb_func
 828              		.type	adcSTM32DisableVBATE, %function
 829              	adcSTM32DisableVBATE:
 830              	.LFB140:
 831              		.loc 1 421 0
 832              		.cfi_startproc
 833              		@ args = 0, pretend = 0, frame = 0
 834              		@ frame_needed = 0, uses_anonymous_args = 0
 835              		@ link register save eliminated.
 836              		.loc 1 423 0
 837 0350 024A     		ldr	r2, .L106
 838 0352 5368     		ldr	r3, [r2, #4]
 839 0354 23F48003 		bic	r3, r3, #4194304
 840 0358 5360     		str	r3, [r2, #4]
 841 035a 7047     		bx	lr
 842              	.L107:
 843              		.align	2
 844              	.L106:
 845 035c 00230140 		.word	1073816320
 846              		.cfi_endproc
 847              	.LFE140:
 848              		.size	adcSTM32DisableVBATE, .-adcSTM32DisableVBATE
ARM GAS  /tmp/ccVId19z.s 			page 16


 849              		.comm	ADCD1,52,4
 850              	.Letext0:
 851              		.file 2 "/home/sbcu/Dropbox/pcb-layouts/axo-on-discovery-board/axoloti/platform_linux/lib/gcc/arm-
 852              		.file 3 "/home/sbcu/Dropbox/pcb-layouts/axo-on-discovery-board/axoloti/platform_linux/arm-none-eab
 853              		.file 4 "/home/sbcu/Dropbox/pcb-layouts/axo-on-discovery-board/axoloti/platform_linux/arm-none-eab
 854              		.file 5 "/home/sbcu/Dropbox/pcb-layouts/axo-on-discovery-board/axoloti/platform_linux/../chibios/o
 855              		.file 6 "/home/sbcu/Dropbox/pcb-layouts/axo-on-discovery-board/axoloti/platform_linux/../chibios/o
 856              		.file 7 "/home/sbcu/Dropbox/pcb-layouts/axo-on-discovery-board/axoloti/platform_linux/../chibios/o
 857              		.file 8 "/home/sbcu/Dropbox/pcb-layouts/axo-on-discovery-board/axoloti/platform_linux/../chibios/o
 858              		.file 9 "/home/sbcu/Dropbox/pcb-layouts/axo-on-discovery-board/axoloti/platform_linux/../chibios/o
 859              		.file 10 "/home/sbcu/Dropbox/pcb-layouts/axo-on-discovery-board/axoloti/platform_linux/../chibios/
 860              		.file 11 "/home/sbcu/Dropbox/pcb-layouts/axo-on-discovery-board/axoloti/platform_linux/../chibios/
 861              		.file 12 "/home/sbcu/Dropbox/pcb-layouts/axo-on-discovery-board/axoloti/platform_linux/../chibios/
 862              		.file 13 "/home/sbcu/Dropbox/pcb-layouts/axo-on-discovery-board/axoloti/platform_linux/../chibios/
 863              		.file 14 "/home/sbcu/Dropbox/pcb-layouts/axo-on-discovery-board/axoloti/platform_linux/../CMSIS//I
 864              		.file 15 "/home/sbcu/Dropbox/pcb-layouts/axo-on-discovery-board/axoloti/platform_linux/../chibios/
 865              		.file 16 "/home/sbcu/Dropbox/pcb-layouts/axo-on-discovery-board/axoloti/platform_linux/../chibios/