ARM GAS  /tmp/cc29KpfF.s 			page 1


   1              		.syntax unified
   2              		.cpu cortex-m4
   3              		.eabi_attribute 27, 1
   4              		.eabi_attribute 28, 1
   5              		.fpu fpv4-sp-d16
   6              		.eabi_attribute 20, 1
   7              		.eabi_attribute 21, 1
   8              		.eabi_attribute 23, 3
   9              		.eabi_attribute 24, 1
  10              		.eabi_attribute 25, 1
  11              		.eabi_attribute 26, 1
  12              		.eabi_attribute 30, 2
  13              		.eabi_attribute 34, 1
  14              		.eabi_attribute 18, 4
  15              		.thumb
  16              		.file	"arm_mult_q15.c"
  17              		.text
  18              	.Ltext0:
  19              		.cfi_sections	.debug_frame
  20              		.align	2
  21              		.p2align 4,,15
  22              		.global	arm_mult_q15
  23              		.thumb
  24              		.thumb_func
  25              		.type	arm_mult_q15, %function
  26              	arm_mult_q15:
  27              	.LFB135:
  28              		.file 1 "/home/sbcu/Dropbox/pcb-layouts/axo-on-discovery-board/axoloti/platform_linux/../CMSIS//DS
  29              		.loc 1 72 0
  30              		.cfi_startproc
  31              		@ args = 0, pretend = 0, frame = 0
  32              		@ frame_needed = 0, uses_anonymous_args = 0
  33              	.LVL0:
  34 0000 2DE9F04F 		push	{r4, r5, r6, r7, r8, r9, r10, fp, lr}
  35              		.cfi_def_cfa_offset 36
  36              		.cfi_offset 4, -36
  37              		.cfi_offset 5, -32
  38              		.cfi_offset 6, -28
  39              		.cfi_offset 7, -24
  40              		.cfi_offset 8, -20
  41              		.cfi_offset 9, -16
  42              		.cfi_offset 10, -12
  43              		.cfi_offset 11, -8
  44              		.cfi_offset 14, -4
  45              		.loc 1 87 0
  46 0004 5FEA9309 		lsrs	r9, r3, #2
  47              	.LVL1:
  48 0008 3BD0     		beq	.L2
  49 000a 00F1080C 		add	ip, r0, #8
  50 000e 01F1080E 		add	lr, r1, #8
  51 0012 02F10807 		add	r7, r2, #8
  52 0016 C846     		mov	r8, r9
  53              	.LVL2:
  54              	.L3:
  55              		.loc 1 92 0
  56 0018 5EF8084C 		ldr	r4, [lr, #-8]
  57              		.loc 1 90 0
ARM GAS  /tmp/cc29KpfF.s 			page 2


  58 001c 5CF808AC 		ldr	r10, [ip, #-8]
  59              	.LVL3:
  60              		.loc 1 94 0
  61 0020 5CF804BC 		ldr	fp, [ip, #-4]
  62              	.LVL4:
  63              		.loc 1 96 0
  64 0024 5EF8046C 		ldr	r6, [lr, #-4]
  65              	.LVL5:
  66              		.loc 1 100 0
  67 0028 1AFB04F5 		smulbb	r5, r10, r4
  68              	.LVL6:
  69              		.loc 1 99 0
  70 002c 1AFB34FA 		smultt	r10, r10, r4
  71              	.LVL7:
  72              		.loc 1 102 0
  73 0030 1BFB06F4 		smulbb	r4, fp, r6
  74              	.LVL8:
  75              	.LBB2:
  76              		.loc 1 106 0
  77 0034 ED13     		asrs	r5, r5, #15
  78              	.LVL9:
  79              	.LBE2:
  80              	.LBB3:
  81              		.loc 1 108 0
  82 0036 E413     		asrs	r4, r4, #15
  83              	.LVL10:
  84              	.LBE3:
  85              	.LBB4:
  86              		.loc 1 106 0
  87              	@ 106 "/home/sbcu/Dropbox/pcb-layouts/axo-on-discovery-board/axoloti/platform_linux/../CMSIS//DSP_L
  88 0038 05F30F05 		ssat r5, #16, r5
  89              	@ 0 "" 2
  90              		.thumb
  91              	.LBE4:
  92              	.LBB5:
  93              		.loc 1 108 0
  94              	@ 108 "/home/sbcu/Dropbox/pcb-layouts/axo-on-discovery-board/axoloti/platform_linux/../CMSIS//DSP_L
  95 003c 04F30F04 		ssat r4, #16, r4
  96              	@ 0 "" 2
  97              		.thumb
  98              	.LBE5:
  99              		.loc 1 113 0
 100 0040 ADB2     		uxth	r5, r5
 101              		.loc 1 101 0
 102 0042 1BFB36F6 		smultt	r6, fp, r6
 103              	.LVL11:
 104              		.loc 1 114 0
 105 0046 A4B2     		uxth	r4, r4
 106              	.LBB6:
 107              		.loc 1 105 0
 108 0048 4FEAEA3A 		asr	r10, r10, #15
 109              	.LBE6:
 110              	.LBB7:
 111              		.loc 1 107 0
 112 004c F613     		asrs	r6, r6, #15
 113              	.LBE7:
 114              	.LBB8:
ARM GAS  /tmp/cc29KpfF.s 			page 3


 115              		.loc 1 105 0
 116              	@ 105 "/home/sbcu/Dropbox/pcb-layouts/axo-on-discovery-board/axoloti/platform_linux/../CMSIS//DSP_L
 117 004e 0AF30F0A 		ssat r10, #16, r10
 118              	@ 0 "" 2
 119              	.LVL12:
 120              		.thumb
 121              	.LBE8:
 122              	.LBB9:
 123              		.loc 1 107 0
 124              	@ 107 "/home/sbcu/Dropbox/pcb-layouts/axo-on-discovery-board/axoloti/platform_linux/../CMSIS//DSP_L
 125 0052 06F30F06 		ssat r6, #16, r6
 126              	@ 0 "" 2
 127              	.LVL13:
 128              		.thumb
 129              	.LBE9:
 130              		.loc 1 113 0
 131 0056 45EA0A45 		orr	r5, r5, r10, lsl #16
 132              		.loc 1 114 0
 133 005a 44EA0644 		orr	r4, r4, r6, lsl #16
 134              		.loc 1 87 0
 135 005e B8F10108 		subs	r8, r8, #1
 136              	.LVL14:
 137              		.loc 1 113 0
 138 0062 47F8085C 		str	r5, [r7, #-8]
 139              	.LVL15:
 140              		.loc 1 114 0
 141 0066 47F8044C 		str	r4, [r7, #-4]
 142 006a 0CF1080C 		add	ip, ip, #8
 143              	.LVL16:
 144 006e 0EF1080E 		add	lr, lr, #8
 145 0072 07F10807 		add	r7, r7, #8
 146              		.loc 1 87 0
 147 0076 CFD1     		bne	.L3
 148 0078 4FEAC909 		lsl	r9, r9, #3
 149 007c 4844     		add	r0, r0, r9
 150 007e 4944     		add	r1, r1, r9
 151 0080 4A44     		add	r2, r2, r9
 152              	.LVL17:
 153              	.L2:
 154              		.loc 1 141 0
 155 0082 13F00303 		ands	r3, r3, #3
 156              	.LVL18:
 157 0086 0ED0     		beq	.L1
 158 0088 023A     		subs	r2, r2, #2
 159              	.LVL19:
 160              	.L5:
 161              	.LBB10:
 162              		.loc 1 145 0
 163 008a 30F8025B 		ldrh	r5, [r0], #2
 164              	.LVL20:
 165 008e 31F8024B 		ldrh	r4, [r1], #2
 166              	.LVL21:
 167              	.LBE10:
 168              		.loc 1 141 0
 169 0092 013B     		subs	r3, r3, #1
 170              	.LVL22:
 171              	.LBB11:
ARM GAS  /tmp/cc29KpfF.s 			page 4


 172              		.loc 1 145 0
 173 0094 15FB04F4 		smulbb	r4, r5, r4
 174              	.LVL23:
 175 0098 4FEAE434 		asr	r4, r4, #15
 176              	.LVL24:
 177              	@ 145 "/home/sbcu/Dropbox/pcb-layouts/axo-on-discovery-board/axoloti/platform_linux/../CMSIS//DSP_L
 178 009c 04F30F04 		ssat r4, #16, r4
 179              	@ 0 "" 2
 180              	.LVL25:
 181              		.thumb
 182              	.LBE11:
 183 00a0 22F8024F 		strh	r4, [r2, #2]!	@ movhi
 184              	.LVL26:
 185              		.loc 1 141 0
 186 00a4 F1D1     		bne	.L5
 187              	.LVL27:
 188              	.L1:
 189 00a6 BDE8F08F 		pop	{r4, r5, r6, r7, r8, r9, r10, fp, pc}
 190              		.cfi_endproc
 191              	.LFE135:
 192              		.size	arm_mult_q15, .-arm_mult_q15
 193              	.Letext0:
 194              		.file 2 "/home/sbcu/Dropbox/pcb-layouts/axo-on-discovery-board/axoloti/platform_linux/arm-none-eab
 195              		.file 3 "/home/sbcu/Dropbox/pcb-layouts/axo-on-discovery-board/axoloti/platform_linux/arm-none-eab
 196              		.file 4 "/home/sbcu/Dropbox/pcb-layouts/axo-on-discovery-board/axoloti/platform_linux/../CMSIS//DS
 197 00aa 00BF     		.section	.debug_info,"",%progbits
 198              	.Ldebug_info0:
 199 0000 A8020000 		.4byte	0x2a8
 200 0004 0400     		.2byte	0x4
 201 0006 00000000 		.4byte	.Ldebug_abbrev0
 202 000a 04       		.byte	0x4
 203 000b 01       		.uleb128 0x1
 204 000c 0E000000 		.4byte	.LASF41
 205 0010 01       		.byte	0x1
 206 0011 36020000 		.4byte	.LASF42
 207 0015 00000000 		.4byte	.Ltext0
 208 0019 AA000000 		.4byte	.Letext0-.Ltext0
 209 001d 00000000 		.4byte	.Ldebug_line0
 210 0021 02       		.uleb128 0x2
 211 0022 01       		.byte	0x1
 212 0023 06       		.byte	0x6
 213 0024 DC020000 		.4byte	.LASF0
 214 0028 02       		.uleb128 0x2
 215 0029 01       		.byte	0x1
 216 002a 08       		.byte	0x8
 217 002b 5C010000 		.4byte	.LASF1
 218 002f 03       		.uleb128 0x3
 219 0030 07010000 		.4byte	.LASF4
 220 0034 02       		.byte	0x2
 221 0035 29       		.byte	0x29
 222 0036 3A000000 		.4byte	0x3a
 223 003a 02       		.uleb128 0x2
 224 003b 02       		.byte	0x2
 225 003c 05       		.byte	0x5
 226 003d 2C020000 		.4byte	.LASF2
 227 0041 02       		.uleb128 0x2
 228 0042 02       		.byte	0x2
ARM GAS  /tmp/cc29KpfF.s 			page 5


 229 0043 07       		.byte	0x7
 230 0044 83010000 		.4byte	.LASF3
 231 0048 03       		.uleb128 0x3
 232 0049 1D010000 		.4byte	.LASF5
 233 004d 02       		.byte	0x2
 234 004e 3F       		.byte	0x3f
 235 004f 53000000 		.4byte	0x53
 236 0053 02       		.uleb128 0x2
 237 0054 04       		.byte	0x4
 238 0055 05       		.byte	0x5
 239 0056 C7020000 		.4byte	.LASF6
 240 005a 03       		.uleb128 0x3
 241 005b B6010000 		.4byte	.LASF7
 242 005f 02       		.byte	0x2
 243 0060 41       		.byte	0x41
 244 0061 65000000 		.4byte	0x65
 245 0065 02       		.uleb128 0x2
 246 0066 04       		.byte	0x4
 247 0067 07       		.byte	0x7
 248 0068 71010000 		.4byte	.LASF8
 249 006c 02       		.uleb128 0x2
 250 006d 08       		.byte	0x8
 251 006e 05       		.byte	0x5
 252 006f 00000000 		.4byte	.LASF9
 253 0073 02       		.uleb128 0x2
 254 0074 08       		.byte	0x8
 255 0075 07       		.byte	0x7
 256 0076 E7010000 		.4byte	.LASF10
 257 007a 04       		.uleb128 0x4
 258 007b 04       		.byte	0x4
 259 007c 05       		.byte	0x5
 260 007d 696E7400 		.ascii	"int\000"
 261 0081 02       		.uleb128 0x2
 262 0082 04       		.byte	0x4
 263 0083 07       		.byte	0x7
 264 0084 DA010000 		.4byte	.LASF11
 265 0088 03       		.uleb128 0x3
 266 0089 FE010000 		.4byte	.LASF12
 267 008d 03       		.byte	0x3
 268 008e 19       		.byte	0x19
 269 008f 2F000000 		.4byte	0x2f
 270 0093 03       		.uleb128 0x3
 271 0094 06020000 		.4byte	.LASF13
 272 0098 03       		.byte	0x3
 273 0099 1F       		.byte	0x1f
 274 009a 48000000 		.4byte	0x48
 275 009e 03       		.uleb128 0x3
 276 009f BE020000 		.4byte	.LASF14
 277 00a3 03       		.byte	0x3
 278 00a4 20       		.byte	0x20
 279 00a5 5A000000 		.4byte	0x5a
 280 00a9 02       		.uleb128 0x2
 281 00aa 04       		.byte	0x4
 282 00ab 07       		.byte	0x7
 283 00ac 0E020000 		.4byte	.LASF15
 284 00b0 02       		.uleb128 0x2
 285 00b1 01       		.byte	0x1
ARM GAS  /tmp/cc29KpfF.s 			page 6


 286 00b2 08       		.byte	0x8
 287 00b3 27020000 		.4byte	.LASF16
 288 00b7 02       		.uleb128 0x2
 289 00b8 08       		.byte	0x8
 290 00b9 04       		.byte	0x4
 291 00ba AF010000 		.4byte	.LASF17
 292 00be 02       		.uleb128 0x2
 293 00bf 04       		.byte	0x4
 294 00c0 04       		.byte	0x4
 295 00c1 4B010000 		.4byte	.LASF18
 296 00c5 02       		.uleb128 0x2
 297 00c6 08       		.byte	0x8
 298 00c7 04       		.byte	0x4
 299 00c8 D0020000 		.4byte	.LASF19
 300 00cc 05       		.uleb128 0x5
 301 00cd 45010000 		.4byte	.LASF20
 302 00d1 04       		.byte	0x4
 303 00d2 9B01     		.2byte	0x19b
 304 00d4 88000000 		.4byte	0x88
 305 00d8 05       		.uleb128 0x5
 306 00d9 56010000 		.4byte	.LASF21
 307 00dd 04       		.byte	0x4
 308 00de A001     		.2byte	0x1a0
 309 00e0 93000000 		.4byte	0x93
 310 00e4 06       		.uleb128 0x6
 311 00e5 04       		.byte	0x4
 312 00e6 CC000000 		.4byte	0xcc
 313 00ea 07       		.uleb128 0x7
 314 00eb A2010000 		.4byte	.LASF43
 315 00ef 01       		.byte	0x1
 316 00f0 43       		.byte	0x43
 317 00f1 00000000 		.4byte	.LFB135
 318 00f5 AA000000 		.4byte	.LFE135-.LFB135
 319 00f9 01       		.uleb128 0x1
 320 00fa 9C       		.byte	0x9c
 321 00fb 08       		.uleb128 0x8
 322 00fc 11010000 		.4byte	.LASF22
 323 0100 01       		.byte	0x1
 324 0101 44       		.byte	0x44
 325 0102 E4000000 		.4byte	0xe4
 326 0106 00000000 		.4byte	.LLST0
 327 010a 08       		.uleb128 0x8
 328 010b 17010000 		.4byte	.LASF23
 329 010f 01       		.byte	0x1
 330 0110 45       		.byte	0x45
 331 0111 E4000000 		.4byte	0xe4
 332 0115 5B000000 		.4byte	.LLST1
 333 0119 08       		.uleb128 0x8
 334 011a 9D010000 		.4byte	.LASF24
 335 011e 01       		.byte	0x1
 336 011f 46       		.byte	0x46
 337 0120 E4000000 		.4byte	0xe4
 338 0124 91000000 		.4byte	.LLST2
 339 0128 08       		.uleb128 0x8
 340 0129 1D020000 		.4byte	.LASF25
 341 012d 01       		.byte	0x1
 342 012e 47       		.byte	0x47
ARM GAS  /tmp/cc29KpfF.s 			page 7


 343 012f 9E000000 		.4byte	0x9e
 344 0133 AF000000 		.4byte	.LLST3
 345 0137 09       		.uleb128 0x9
 346 0138 6A010000 		.4byte	.LASF26
 347 013c 01       		.byte	0x1
 348 013d 49       		.byte	0x49
 349 013e 9E000000 		.4byte	0x9e
 350 0142 D0000000 		.4byte	.LLST4
 351 0146 09       		.uleb128 0x9
 352 0147 D5010000 		.4byte	.LASF27
 353 014b 01       		.byte	0x1
 354 014c 4E       		.byte	0x4e
 355 014d D8000000 		.4byte	0xd8
 356 0151 31010000 		.4byte	.LLST5
 357 0155 09       		.uleb128 0x9
 358 0156 27010000 		.4byte	.LASF28
 359 015a 01       		.byte	0x1
 360 015b 4E       		.byte	0x4e
 361 015c D8000000 		.4byte	0xd8
 362 0160 50010000 		.4byte	.LLST6
 363 0164 09       		.uleb128 0x9
 364 0165 51010000 		.4byte	.LASF29
 365 0169 01       		.byte	0x1
 366 016a 4E       		.byte	0x4e
 367 016b D8000000 		.4byte	0xd8
 368 016f 63010000 		.4byte	.LLST7
 369 0173 09       		.uleb128 0x9
 370 0174 40010000 		.4byte	.LASF30
 371 0178 01       		.byte	0x1
 372 0179 4E       		.byte	0x4e
 373 017a D8000000 		.4byte	0xd8
 374 017e 82010000 		.4byte	.LLST8
 375 0182 09       		.uleb128 0x9
 376 0183 2C010000 		.4byte	.LASF31
 377 0187 01       		.byte	0x1
 378 0188 4F       		.byte	0x4f
 379 0189 CC000000 		.4byte	0xcc
 380 018d A1010000 		.4byte	.LLST9
 381 0191 0A       		.uleb128 0xa
 382 0192 31010000 		.4byte	.LASF33
 383 0196 01       		.byte	0x1
 384 0197 4F       		.byte	0x4f
 385 0198 CC000000 		.4byte	0xcc
 386 019c 09       		.uleb128 0x9
 387 019d 36010000 		.4byte	.LASF32
 388 01a1 01       		.byte	0x1
 389 01a2 4F       		.byte	0x4f
 390 01a3 CC000000 		.4byte	0xcc
 391 01a7 B4010000 		.4byte	.LLST10
 392 01ab 0A       		.uleb128 0xa
 393 01ac 3B010000 		.4byte	.LASF34
 394 01b0 01       		.byte	0x1
 395 01b1 4F       		.byte	0x4f
 396 01b2 CC000000 		.4byte	0xcc
 397 01b6 09       		.uleb128 0x9
 398 01b7 C1010000 		.4byte	.LASF35
 399 01bb 01       		.byte	0x1
ARM GAS  /tmp/cc29KpfF.s 			page 8


 400 01bc 50       		.byte	0x50
 401 01bd D8000000 		.4byte	0xd8
 402 01c1 C7010000 		.4byte	.LLST11
 403 01c5 09       		.uleb128 0x9
 404 01c6 C6010000 		.4byte	.LASF36
 405 01ca 01       		.byte	0x1
 406 01cb 50       		.byte	0x50
 407 01cc D8000000 		.4byte	0xd8
 408 01d0 23020000 		.4byte	.LLST12
 409 01d4 09       		.uleb128 0x9
 410 01d5 CB010000 		.4byte	.LASF37
 411 01d9 01       		.byte	0x1
 412 01da 50       		.byte	0x50
 413 01db D8000000 		.4byte	0xd8
 414 01df 6A020000 		.4byte	.LLST13
 415 01e3 09       		.uleb128 0x9
 416 01e4 D0010000 		.4byte	.LASF38
 417 01e8 01       		.byte	0x1
 418 01e9 50       		.byte	0x50
 419 01ea D8000000 		.4byte	0xd8
 420 01ee AA020000 		.4byte	.LLST14
 421 01f2 0B       		.uleb128 0xb
 422 01f3 00000000 		.4byte	.Ldebug_ranges0+0
 423 01f7 12020000 		.4byte	0x212
 424 01fb 0A       		.uleb128 0xa
 425 01fc 17020000 		.4byte	.LASF39
 426 0200 01       		.byte	0x1
 427 0201 6A       		.byte	0x6a
 428 0202 93000000 		.4byte	0x93
 429 0206 0A       		.uleb128 0xa
 430 0207 96010000 		.4byte	.LASF40
 431 020b 01       		.byte	0x1
 432 020c 6A       		.byte	0x6a
 433 020d 93000000 		.4byte	0x93
 434 0211 00       		.byte	0
 435 0212 0B       		.uleb128 0xb
 436 0213 18000000 		.4byte	.Ldebug_ranges0+0x18
 437 0217 36020000 		.4byte	0x236
 438 021b 0A       		.uleb128 0xa
 439 021c 17020000 		.4byte	.LASF39
 440 0220 01       		.byte	0x1
 441 0221 6C       		.byte	0x6c
 442 0222 93000000 		.4byte	0x93
 443 0226 09       		.uleb128 0x9
 444 0227 96010000 		.4byte	.LASF40
 445 022b 01       		.byte	0x1
 446 022c 6C       		.byte	0x6c
 447 022d 93000000 		.4byte	0x93
 448 0231 07030000 		.4byte	.LLST15
 449 0235 00       		.byte	0
 450 0236 0B       		.uleb128 0xb
 451 0237 30000000 		.4byte	.Ldebug_ranges0+0x30
 452 023b 5E020000 		.4byte	0x25e
 453 023f 09       		.uleb128 0x9
 454 0240 17020000 		.4byte	.LASF39
 455 0244 01       		.byte	0x1
 456 0245 69       		.byte	0x69
ARM GAS  /tmp/cc29KpfF.s 			page 9


 457 0246 93000000 		.4byte	0x93
 458 024a A1010000 		.4byte	.LLST9
 459 024e 09       		.uleb128 0x9
 460 024f 96010000 		.4byte	.LASF40
 461 0253 01       		.byte	0x1
 462 0254 69       		.byte	0x69
 463 0255 93000000 		.4byte	0x93
 464 0259 2B030000 		.4byte	.LLST17
 465 025d 00       		.byte	0
 466 025e 0B       		.uleb128 0xb
 467 025f 48000000 		.4byte	.Ldebug_ranges0+0x48
 468 0263 86020000 		.4byte	0x286
 469 0267 09       		.uleb128 0x9
 470 0268 17020000 		.4byte	.LASF39
 471 026c 01       		.byte	0x1
 472 026d 6B       		.byte	0x6b
 473 026e 93000000 		.4byte	0x93
 474 0272 B4010000 		.4byte	.LLST10
 475 0276 09       		.uleb128 0x9
 476 0277 96010000 		.4byte	.LASF40
 477 027b 01       		.byte	0x1
 478 027c 6B       		.byte	0x6b
 479 027d 93000000 		.4byte	0x93
 480 0281 8D030000 		.4byte	.LLST19
 481 0285 00       		.byte	0
 482 0286 0C       		.uleb128 0xc
 483 0287 60000000 		.4byte	.Ldebug_ranges0+0x60
 484 028b 09       		.uleb128 0x9
 485 028c 17020000 		.4byte	.LASF39
 486 0290 01       		.byte	0x1
 487 0291 91       		.byte	0x91
 488 0292 93000000 		.4byte	0x93
 489 0296 B3030000 		.4byte	.LLST20
 490 029a 09       		.uleb128 0x9
 491 029b 96010000 		.4byte	.LASF40
 492 029f 01       		.byte	0x1
 493 02a0 91       		.byte	0x91
 494 02a1 93000000 		.4byte	0x93
 495 02a5 C6030000 		.4byte	.LLST21
 496 02a9 00       		.byte	0
 497 02aa 00       		.byte	0
 498 02ab 00       		.byte	0
 499              		.section	.debug_abbrev,"",%progbits
 500              	.Ldebug_abbrev0:
 501 0000 01       		.uleb128 0x1
 502 0001 11       		.uleb128 0x11
 503 0002 01       		.byte	0x1
 504 0003 25       		.uleb128 0x25
 505 0004 0E       		.uleb128 0xe
 506 0005 13       		.uleb128 0x13
 507 0006 0B       		.uleb128 0xb
 508 0007 03       		.uleb128 0x3
 509 0008 0E       		.uleb128 0xe
 510 0009 11       		.uleb128 0x11
 511 000a 01       		.uleb128 0x1
 512 000b 12       		.uleb128 0x12
 513 000c 06       		.uleb128 0x6
ARM GAS  /tmp/cc29KpfF.s 			page 10


 514 000d 10       		.uleb128 0x10
 515 000e 17       		.uleb128 0x17
 516 000f 00       		.byte	0
 517 0010 00       		.byte	0
 518 0011 02       		.uleb128 0x2
 519 0012 24       		.uleb128 0x24
 520 0013 00       		.byte	0
 521 0014 0B       		.uleb128 0xb
 522 0015 0B       		.uleb128 0xb
 523 0016 3E       		.uleb128 0x3e
 524 0017 0B       		.uleb128 0xb
 525 0018 03       		.uleb128 0x3
 526 0019 0E       		.uleb128 0xe
 527 001a 00       		.byte	0
 528 001b 00       		.byte	0
 529 001c 03       		.uleb128 0x3
 530 001d 16       		.uleb128 0x16
 531 001e 00       		.byte	0
 532 001f 03       		.uleb128 0x3
 533 0020 0E       		.uleb128 0xe
 534 0021 3A       		.uleb128 0x3a
 535 0022 0B       		.uleb128 0xb
 536 0023 3B       		.uleb128 0x3b
 537 0024 0B       		.uleb128 0xb
 538 0025 49       		.uleb128 0x49
 539 0026 13       		.uleb128 0x13
 540 0027 00       		.byte	0
 541 0028 00       		.byte	0
 542 0029 04       		.uleb128 0x4
 543 002a 24       		.uleb128 0x24
 544 002b 00       		.byte	0
 545 002c 0B       		.uleb128 0xb
 546 002d 0B       		.uleb128 0xb
 547 002e 3E       		.uleb128 0x3e
 548 002f 0B       		.uleb128 0xb
 549 0030 03       		.uleb128 0x3
 550 0031 08       		.uleb128 0x8
 551 0032 00       		.byte	0
 552 0033 00       		.byte	0
 553 0034 05       		.uleb128 0x5
 554 0035 16       		.uleb128 0x16
 555 0036 00       		.byte	0
 556 0037 03       		.uleb128 0x3
 557 0038 0E       		.uleb128 0xe
 558 0039 3A       		.uleb128 0x3a
 559 003a 0B       		.uleb128 0xb
 560 003b 3B       		.uleb128 0x3b
 561 003c 05       		.uleb128 0x5
 562 003d 49       		.uleb128 0x49
 563 003e 13       		.uleb128 0x13
 564 003f 00       		.byte	0
 565 0040 00       		.byte	0
 566 0041 06       		.uleb128 0x6
 567 0042 0F       		.uleb128 0xf
 568 0043 00       		.byte	0
 569 0044 0B       		.uleb128 0xb
 570 0045 0B       		.uleb128 0xb
ARM GAS  /tmp/cc29KpfF.s 			page 11


 571 0046 49       		.uleb128 0x49
 572 0047 13       		.uleb128 0x13
 573 0048 00       		.byte	0
 574 0049 00       		.byte	0
 575 004a 07       		.uleb128 0x7
 576 004b 2E       		.uleb128 0x2e
 577 004c 01       		.byte	0x1
 578 004d 3F       		.uleb128 0x3f
 579 004e 19       		.uleb128 0x19
 580 004f 03       		.uleb128 0x3
 581 0050 0E       		.uleb128 0xe
 582 0051 3A       		.uleb128 0x3a
 583 0052 0B       		.uleb128 0xb
 584 0053 3B       		.uleb128 0x3b
 585 0054 0B       		.uleb128 0xb
 586 0055 27       		.uleb128 0x27
 587 0056 19       		.uleb128 0x19
 588 0057 11       		.uleb128 0x11
 589 0058 01       		.uleb128 0x1
 590 0059 12       		.uleb128 0x12
 591 005a 06       		.uleb128 0x6
 592 005b 40       		.uleb128 0x40
 593 005c 18       		.uleb128 0x18
 594 005d 9742     		.uleb128 0x2117
 595 005f 19       		.uleb128 0x19
 596 0060 00       		.byte	0
 597 0061 00       		.byte	0
 598 0062 08       		.uleb128 0x8
 599 0063 05       		.uleb128 0x5
 600 0064 00       		.byte	0
 601 0065 03       		.uleb128 0x3
 602 0066 0E       		.uleb128 0xe
 603 0067 3A       		.uleb128 0x3a
 604 0068 0B       		.uleb128 0xb
 605 0069 3B       		.uleb128 0x3b
 606 006a 0B       		.uleb128 0xb
 607 006b 49       		.uleb128 0x49
 608 006c 13       		.uleb128 0x13
 609 006d 02       		.uleb128 0x2
 610 006e 17       		.uleb128 0x17
 611 006f 00       		.byte	0
 612 0070 00       		.byte	0
 613 0071 09       		.uleb128 0x9
 614 0072 34       		.uleb128 0x34
 615 0073 00       		.byte	0
 616 0074 03       		.uleb128 0x3
 617 0075 0E       		.uleb128 0xe
 618 0076 3A       		.uleb128 0x3a
 619 0077 0B       		.uleb128 0xb
 620 0078 3B       		.uleb128 0x3b
 621 0079 0B       		.uleb128 0xb
 622 007a 49       		.uleb128 0x49
 623 007b 13       		.uleb128 0x13
 624 007c 02       		.uleb128 0x2
 625 007d 17       		.uleb128 0x17
 626 007e 00       		.byte	0
 627 007f 00       		.byte	0
ARM GAS  /tmp/cc29KpfF.s 			page 12


 628 0080 0A       		.uleb128 0xa
 629 0081 34       		.uleb128 0x34
 630 0082 00       		.byte	0
 631 0083 03       		.uleb128 0x3
 632 0084 0E       		.uleb128 0xe
 633 0085 3A       		.uleb128 0x3a
 634 0086 0B       		.uleb128 0xb
 635 0087 3B       		.uleb128 0x3b
 636 0088 0B       		.uleb128 0xb
 637 0089 49       		.uleb128 0x49
 638 008a 13       		.uleb128 0x13
 639 008b 00       		.byte	0
 640 008c 00       		.byte	0
 641 008d 0B       		.uleb128 0xb
 642 008e 0B       		.uleb128 0xb
 643 008f 01       		.byte	0x1
 644 0090 55       		.uleb128 0x55
 645 0091 17       		.uleb128 0x17
 646 0092 01       		.uleb128 0x1
 647 0093 13       		.uleb128 0x13
 648 0094 00       		.byte	0
 649 0095 00       		.byte	0
 650 0096 0C       		.uleb128 0xc
 651 0097 0B       		.uleb128 0xb
 652 0098 01       		.byte	0x1
 653 0099 55       		.uleb128 0x55
 654 009a 17       		.uleb128 0x17
 655 009b 00       		.byte	0
 656 009c 00       		.byte	0
 657 009d 00       		.byte	0
 658              		.section	.debug_loc,"",%progbits
 659              	.Ldebug_loc0:
 660              	.LLST0:
 661 0000 00000000 		.4byte	.LVL0-.Ltext0
 662 0004 18000000 		.4byte	.LVL2-.Ltext0
 663 0008 0100     		.2byte	0x1
 664 000a 50       		.byte	0x50
 665 000b 18000000 		.4byte	.LVL2-.Ltext0
 666 000f 20000000 		.4byte	.LVL3-.Ltext0
 667 0013 0300     		.2byte	0x3
 668 0015 7C       		.byte	0x7c
 669 0016 7C       		.sleb128 -4
 670 0017 9F       		.byte	0x9f
 671 0018 20000000 		.4byte	.LVL3-.Ltext0
 672 001c 6E000000 		.4byte	.LVL16-.Ltext0
 673 0020 0100     		.2byte	0x1
 674 0022 5C       		.byte	0x5c
 675 0023 6E000000 		.4byte	.LVL16-.Ltext0
 676 0027 82000000 		.4byte	.LVL17-.Ltext0
 677 002b 0300     		.2byte	0x3
 678 002d 7C       		.byte	0x7c
 679 002e 78       		.sleb128 -8
 680 002f 9F       		.byte	0x9f
 681 0030 82000000 		.4byte	.LVL17-.Ltext0
 682 0034 8E000000 		.4byte	.LVL20-.Ltext0
 683 0038 0100     		.2byte	0x1
 684 003a 50       		.byte	0x50
ARM GAS  /tmp/cc29KpfF.s 			page 13


 685 003b 8E000000 		.4byte	.LVL20-.Ltext0
 686 003f A0000000 		.4byte	.LVL25-.Ltext0
 687 0043 0300     		.2byte	0x3
 688 0045 70       		.byte	0x70
 689 0046 7E       		.sleb128 -2
 690 0047 9F       		.byte	0x9f
 691 0048 A0000000 		.4byte	.LVL25-.Ltext0
 692 004c AA000000 		.4byte	.LFE135-.Ltext0
 693 0050 0100     		.2byte	0x1
 694 0052 50       		.byte	0x50
 695 0053 00000000 		.4byte	0
 696 0057 00000000 		.4byte	0
 697              	.LLST1:
 698 005b 00000000 		.4byte	.LVL0-.Ltext0
 699 005f 18000000 		.4byte	.LVL2-.Ltext0
 700 0063 0100     		.2byte	0x1
 701 0065 51       		.byte	0x51
 702 0066 82000000 		.4byte	.LVL17-.Ltext0
 703 006a 92000000 		.4byte	.LVL21-.Ltext0
 704 006e 0100     		.2byte	0x1
 705 0070 51       		.byte	0x51
 706 0071 92000000 		.4byte	.LVL21-.Ltext0
 707 0075 A0000000 		.4byte	.LVL25-.Ltext0
 708 0079 0300     		.2byte	0x3
 709 007b 71       		.byte	0x71
 710 007c 7E       		.sleb128 -2
 711 007d 9F       		.byte	0x9f
 712 007e A0000000 		.4byte	.LVL25-.Ltext0
 713 0082 AA000000 		.4byte	.LFE135-.Ltext0
 714 0086 0100     		.2byte	0x1
 715 0088 51       		.byte	0x51
 716 0089 00000000 		.4byte	0
 717 008d 00000000 		.4byte	0
 718              	.LLST2:
 719 0091 00000000 		.4byte	.LVL0-.Ltext0
 720 0095 18000000 		.4byte	.LVL2-.Ltext0
 721 0099 0100     		.2byte	0x1
 722 009b 52       		.byte	0x52
 723 009c 82000000 		.4byte	.LVL17-.Ltext0
 724 00a0 8A000000 		.4byte	.LVL19-.Ltext0
 725 00a4 0100     		.2byte	0x1
 726 00a6 52       		.byte	0x52
 727 00a7 00000000 		.4byte	0
 728 00ab 00000000 		.4byte	0
 729              	.LLST3:
 730 00af 00000000 		.4byte	.LVL0-.Ltext0
 731 00b3 86000000 		.4byte	.LVL18-.Ltext0
 732 00b7 0100     		.2byte	0x1
 733 00b9 53       		.byte	0x53
 734 00ba 86000000 		.4byte	.LVL18-.Ltext0
 735 00be AA000000 		.4byte	.LFE135-.Ltext0
 736 00c2 0400     		.2byte	0x4
 737 00c4 F3       		.byte	0xf3
 738 00c5 01       		.uleb128 0x1
 739 00c6 53       		.byte	0x53
 740 00c7 9F       		.byte	0x9f
 741 00c8 00000000 		.4byte	0
ARM GAS  /tmp/cc29KpfF.s 			page 14


 742 00cc 00000000 		.4byte	0
 743              	.LLST4:
 744 00d0 00000000 		.4byte	.LVL0-.Ltext0
 745 00d4 08000000 		.4byte	.LVL1-.Ltext0
 746 00d8 0500     		.2byte	0x5
 747 00da 73       		.byte	0x73
 748 00db 00       		.sleb128 0
 749 00dc 32       		.byte	0x32
 750 00dd 25       		.byte	0x25
 751 00de 9F       		.byte	0x9f
 752 00df 08000000 		.4byte	.LVL1-.Ltext0
 753 00e3 18000000 		.4byte	.LVL2-.Ltext0
 754 00e7 0100     		.2byte	0x1
 755 00e9 59       		.byte	0x59
 756 00ea 18000000 		.4byte	.LVL2-.Ltext0
 757 00ee 62000000 		.4byte	.LVL14-.Ltext0
 758 00f2 0100     		.2byte	0x1
 759 00f4 58       		.byte	0x58
 760 00f5 62000000 		.4byte	.LVL14-.Ltext0
 761 00f9 66000000 		.4byte	.LVL15-.Ltext0
 762 00fd 0300     		.2byte	0x3
 763 00ff 78       		.byte	0x78
 764 0100 01       		.sleb128 1
 765 0101 9F       		.byte	0x9f
 766 0102 82000000 		.4byte	.LVL17-.Ltext0
 767 0106 86000000 		.4byte	.LVL18-.Ltext0
 768 010a 0500     		.2byte	0x5
 769 010c 73       		.byte	0x73
 770 010d 00       		.sleb128 0
 771 010e 33       		.byte	0x33
 772 010f 1A       		.byte	0x1a
 773 0110 9F       		.byte	0x9f
 774 0111 86000000 		.4byte	.LVL18-.Ltext0
 775 0115 94000000 		.4byte	.LVL22-.Ltext0
 776 0119 0100     		.2byte	0x1
 777 011b 53       		.byte	0x53
 778 011c 94000000 		.4byte	.LVL22-.Ltext0
 779 0120 A0000000 		.4byte	.LVL25-.Ltext0
 780 0124 0300     		.2byte	0x3
 781 0126 73       		.byte	0x73
 782 0127 01       		.sleb128 1
 783 0128 9F       		.byte	0x9f
 784 0129 00000000 		.4byte	0
 785 012d 00000000 		.4byte	0
 786              	.LLST5:
 787 0131 20000000 		.4byte	.LVL3-.Ltext0
 788 0135 30000000 		.4byte	.LVL7-.Ltext0
 789 0139 0100     		.2byte	0x1
 790 013b 5A       		.byte	0x5a
 791 013c 30000000 		.4byte	.LVL7-.Ltext0
 792 0140 66000000 		.4byte	.LVL15-.Ltext0
 793 0144 0200     		.2byte	0x2
 794 0146 7C       		.byte	0x7c
 795 0147 78       		.sleb128 -8
 796 0148 00000000 		.4byte	0
 797 014c 00000000 		.4byte	0
 798              	.LLST6:
ARM GAS  /tmp/cc29KpfF.s 			page 15


 799 0150 24000000 		.4byte	.LVL4-.Ltext0
 800 0154 82000000 		.4byte	.LVL17-.Ltext0
 801 0158 0100     		.2byte	0x1
 802 015a 5B       		.byte	0x5b
 803 015b 00000000 		.4byte	0
 804 015f 00000000 		.4byte	0
 805              	.LLST7:
 806 0163 20000000 		.4byte	.LVL3-.Ltext0
 807 0167 34000000 		.4byte	.LVL8-.Ltext0
 808 016b 0100     		.2byte	0x1
 809 016d 54       		.byte	0x54
 810 016e 34000000 		.4byte	.LVL8-.Ltext0
 811 0172 66000000 		.4byte	.LVL15-.Ltext0
 812 0176 0200     		.2byte	0x2
 813 0178 7E       		.byte	0x7e
 814 0179 78       		.sleb128 -8
 815 017a 00000000 		.4byte	0
 816 017e 00000000 		.4byte	0
 817              	.LLST8:
 818 0182 28000000 		.4byte	.LVL5-.Ltext0
 819 0186 46000000 		.4byte	.LVL11-.Ltext0
 820 018a 0100     		.2byte	0x1
 821 018c 56       		.byte	0x56
 822 018d 46000000 		.4byte	.LVL11-.Ltext0
 823 0191 66000000 		.4byte	.LVL15-.Ltext0
 824 0195 0200     		.2byte	0x2
 825 0197 7E       		.byte	0x7e
 826 0198 7C       		.sleb128 -4
 827 0199 00000000 		.4byte	0
 828 019d 00000000 		.4byte	0
 829              	.LLST9:
 830 01a1 52000000 		.4byte	.LVL12-.Ltext0
 831 01a5 82000000 		.4byte	.LVL17-.Ltext0
 832 01a9 0100     		.2byte	0x1
 833 01ab 5A       		.byte	0x5a
 834 01ac 00000000 		.4byte	0
 835 01b0 00000000 		.4byte	0
 836              	.LLST10:
 837 01b4 56000000 		.4byte	.LVL13-.Ltext0
 838 01b8 82000000 		.4byte	.LVL17-.Ltext0
 839 01bc 0100     		.2byte	0x1
 840 01be 56       		.byte	0x56
 841 01bf 00000000 		.4byte	0
 842 01c3 00000000 		.4byte	0
 843              	.LLST11:
 844 01c7 28000000 		.4byte	.LVL5-.Ltext0
 845 01cb 30000000 		.4byte	.LVL7-.Ltext0
 846 01cf 1200     		.2byte	0x12
 847 01d1 7A       		.byte	0x7a
 848 01d2 00       		.sleb128 0
 849 01d3 40       		.byte	0x40
 850 01d4 25       		.byte	0x25
 851 01d5 40       		.byte	0x40
 852 01d6 24       		.byte	0x24
 853 01d7 40       		.byte	0x40
 854 01d8 26       		.byte	0x26
 855 01d9 74       		.byte	0x74
ARM GAS  /tmp/cc29KpfF.s 			page 16


 856 01da 00       		.sleb128 0
 857 01db 40       		.byte	0x40
 858 01dc 25       		.byte	0x25
 859 01dd 40       		.byte	0x40
 860 01de 24       		.byte	0x24
 861 01df 40       		.byte	0x40
 862 01e0 26       		.byte	0x26
 863 01e1 1E       		.byte	0x1e
 864 01e2 9F       		.byte	0x9f
 865 01e3 30000000 		.4byte	.LVL7-.Ltext0
 866 01e7 34000000 		.4byte	.LVL8-.Ltext0
 867 01eb 1200     		.2byte	0x12
 868 01ed 7C       		.byte	0x7c
 869 01ee 7A       		.sleb128 -6
 870 01ef 94       		.byte	0x94
 871 01f0 02       		.byte	0x2
 872 01f1 40       		.byte	0x40
 873 01f2 24       		.byte	0x24
 874 01f3 40       		.byte	0x40
 875 01f4 26       		.byte	0x26
 876 01f5 74       		.byte	0x74
 877 01f6 00       		.sleb128 0
 878 01f7 40       		.byte	0x40
 879 01f8 25       		.byte	0x25
 880 01f9 40       		.byte	0x40
 881 01fa 24       		.byte	0x24
 882 01fb 40       		.byte	0x40
 883 01fc 26       		.byte	0x26
 884 01fd 1E       		.byte	0x1e
 885 01fe 9F       		.byte	0x9f
 886 01ff 34000000 		.4byte	.LVL8-.Ltext0
 887 0203 66000000 		.4byte	.LVL15-.Ltext0
 888 0207 1200     		.2byte	0x12
 889 0209 7C       		.byte	0x7c
 890 020a 7A       		.sleb128 -6
 891 020b 94       		.byte	0x94
 892 020c 02       		.byte	0x2
 893 020d 40       		.byte	0x40
 894 020e 24       		.byte	0x24
 895 020f 40       		.byte	0x40
 896 0210 26       		.byte	0x26
 897 0211 7E       		.byte	0x7e
 898 0212 7A       		.sleb128 -6
 899 0213 94       		.byte	0x94
 900 0214 02       		.byte	0x2
 901 0215 40       		.byte	0x40
 902 0216 24       		.byte	0x24
 903 0217 40       		.byte	0x40
 904 0218 26       		.byte	0x26
 905 0219 1E       		.byte	0x1e
 906 021a 9F       		.byte	0x9f
 907 021b 00000000 		.4byte	0
 908 021f 00000000 		.4byte	0
 909              	.LLST12:
 910 0223 28000000 		.4byte	.LVL5-.Ltext0
 911 0227 2C000000 		.4byte	.LVL6-.Ltext0
 912 022b 0E00     		.2byte	0xe
ARM GAS  /tmp/cc29KpfF.s 			page 17


 913 022d 7A       		.byte	0x7a
 914 022e 00       		.sleb128 0
 915 022f 40       		.byte	0x40
 916 0230 24       		.byte	0x24
 917 0231 40       		.byte	0x40
 918 0232 26       		.byte	0x26
 919 0233 74       		.byte	0x74
 920 0234 00       		.sleb128 0
 921 0235 40       		.byte	0x40
 922 0236 24       		.byte	0x24
 923 0237 40       		.byte	0x40
 924 0238 26       		.byte	0x26
 925 0239 1E       		.byte	0x1e
 926 023a 9F       		.byte	0x9f
 927 023b 2C000000 		.4byte	.LVL6-.Ltext0
 928 023f 36000000 		.4byte	.LVL9-.Ltext0
 929 0243 0100     		.2byte	0x1
 930 0245 55       		.byte	0x55
 931 0246 36000000 		.4byte	.LVL9-.Ltext0
 932 024a 66000000 		.4byte	.LVL15-.Ltext0
 933 024e 1200     		.2byte	0x12
 934 0250 7C       		.byte	0x7c
 935 0251 78       		.sleb128 -8
 936 0252 94       		.byte	0x94
 937 0253 02       		.byte	0x2
 938 0254 40       		.byte	0x40
 939 0255 24       		.byte	0x24
 940 0256 40       		.byte	0x40
 941 0257 26       		.byte	0x26
 942 0258 7E       		.byte	0x7e
 943 0259 78       		.sleb128 -8
 944 025a 94       		.byte	0x94
 945 025b 02       		.byte	0x2
 946 025c 40       		.byte	0x40
 947 025d 24       		.byte	0x24
 948 025e 40       		.byte	0x40
 949 025f 26       		.byte	0x26
 950 0260 1E       		.byte	0x1e
 951 0261 9F       		.byte	0x9f
 952 0262 00000000 		.4byte	0
 953 0266 00000000 		.4byte	0
 954              	.LLST13:
 955 026a 28000000 		.4byte	.LVL5-.Ltext0
 956 026e 46000000 		.4byte	.LVL11-.Ltext0
 957 0272 1200     		.2byte	0x12
 958 0274 7B       		.byte	0x7b
 959 0275 00       		.sleb128 0
 960 0276 40       		.byte	0x40
 961 0277 25       		.byte	0x25
 962 0278 40       		.byte	0x40
 963 0279 24       		.byte	0x24
 964 027a 40       		.byte	0x40
 965 027b 26       		.byte	0x26
 966 027c 76       		.byte	0x76
 967 027d 00       		.sleb128 0
 968 027e 40       		.byte	0x40
 969 027f 25       		.byte	0x25
ARM GAS  /tmp/cc29KpfF.s 			page 18


 970 0280 40       		.byte	0x40
 971 0281 24       		.byte	0x24
 972 0282 40       		.byte	0x40
 973 0283 26       		.byte	0x26
 974 0284 1E       		.byte	0x1e
 975 0285 9F       		.byte	0x9f
 976 0286 46000000 		.4byte	.LVL11-.Ltext0
 977 028a 66000000 		.4byte	.LVL15-.Ltext0
 978 028e 1200     		.2byte	0x12
 979 0290 7B       		.byte	0x7b
 980 0291 00       		.sleb128 0
 981 0292 40       		.byte	0x40
 982 0293 25       		.byte	0x25
 983 0294 40       		.byte	0x40
 984 0295 24       		.byte	0x24
 985 0296 40       		.byte	0x40
 986 0297 26       		.byte	0x26
 987 0298 7E       		.byte	0x7e
 988 0299 7E       		.sleb128 -2
 989 029a 94       		.byte	0x94
 990 029b 02       		.byte	0x2
 991 029c 40       		.byte	0x40
 992 029d 24       		.byte	0x24
 993 029e 40       		.byte	0x40
 994 029f 26       		.byte	0x26
 995 02a0 1E       		.byte	0x1e
 996 02a1 9F       		.byte	0x9f
 997 02a2 00000000 		.4byte	0
 998 02a6 00000000 		.4byte	0
 999              	.LLST14:
 1000 02aa 28000000 		.4byte	.LVL5-.Ltext0
 1001 02ae 34000000 		.4byte	.LVL8-.Ltext0
 1002 02b2 0E00     		.2byte	0xe
 1003 02b4 7B       		.byte	0x7b
 1004 02b5 00       		.sleb128 0
 1005 02b6 40       		.byte	0x40
 1006 02b7 24       		.byte	0x24
 1007 02b8 40       		.byte	0x40
 1008 02b9 26       		.byte	0x26
 1009 02ba 76       		.byte	0x76
 1010 02bb 00       		.sleb128 0
 1011 02bc 40       		.byte	0x40
 1012 02bd 24       		.byte	0x24
 1013 02be 40       		.byte	0x40
 1014 02bf 26       		.byte	0x26
 1015 02c0 1E       		.byte	0x1e
 1016 02c1 9F       		.byte	0x9f
 1017 02c2 34000000 		.4byte	.LVL8-.Ltext0
 1018 02c6 38000000 		.4byte	.LVL10-.Ltext0
 1019 02ca 0100     		.2byte	0x1
 1020 02cc 54       		.byte	0x54
 1021 02cd 38000000 		.4byte	.LVL10-.Ltext0
 1022 02d1 46000000 		.4byte	.LVL11-.Ltext0
 1023 02d5 0E00     		.2byte	0xe
 1024 02d7 7B       		.byte	0x7b
 1025 02d8 00       		.sleb128 0
 1026 02d9 40       		.byte	0x40
ARM GAS  /tmp/cc29KpfF.s 			page 19


 1027 02da 24       		.byte	0x24
 1028 02db 40       		.byte	0x40
 1029 02dc 26       		.byte	0x26
 1030 02dd 76       		.byte	0x76
 1031 02de 00       		.sleb128 0
 1032 02df 40       		.byte	0x40
 1033 02e0 24       		.byte	0x24
 1034 02e1 40       		.byte	0x40
 1035 02e2 26       		.byte	0x26
 1036 02e3 1E       		.byte	0x1e
 1037 02e4 9F       		.byte	0x9f
 1038 02e5 46000000 		.4byte	.LVL11-.Ltext0
 1039 02e9 66000000 		.4byte	.LVL15-.Ltext0
 1040 02ed 1000     		.2byte	0x10
 1041 02ef 7B       		.byte	0x7b
 1042 02f0 00       		.sleb128 0
 1043 02f1 40       		.byte	0x40
 1044 02f2 24       		.byte	0x24
 1045 02f3 40       		.byte	0x40
 1046 02f4 26       		.byte	0x26
 1047 02f5 7E       		.byte	0x7e
 1048 02f6 7C       		.sleb128 -4
 1049 02f7 94       		.byte	0x94
 1050 02f8 02       		.byte	0x2
 1051 02f9 40       		.byte	0x40
 1052 02fa 24       		.byte	0x24
 1053 02fb 40       		.byte	0x40
 1054 02fc 26       		.byte	0x26
 1055 02fd 1E       		.byte	0x1e
 1056 02fe 9F       		.byte	0x9f
 1057 02ff 00000000 		.4byte	0
 1058 0303 00000000 		.4byte	0
 1059              	.LLST15:
 1060 0307 56000000 		.4byte	.LVL13-.Ltext0
 1061 030b 66000000 		.4byte	.LVL15-.Ltext0
 1062 030f 1200     		.2byte	0x12
 1063 0311 7B       		.byte	0x7b
 1064 0312 00       		.sleb128 0
 1065 0313 40       		.byte	0x40
 1066 0314 24       		.byte	0x24
 1067 0315 40       		.byte	0x40
 1068 0316 26       		.byte	0x26
 1069 0317 7E       		.byte	0x7e
 1070 0318 7C       		.sleb128 -4
 1071 0319 94       		.byte	0x94
 1072 031a 02       		.byte	0x2
 1073 031b 40       		.byte	0x40
 1074 031c 24       		.byte	0x24
 1075 031d 40       		.byte	0x40
 1076 031e 26       		.byte	0x26
 1077 031f 1E       		.byte	0x1e
 1078 0320 3F       		.byte	0x3f
 1079 0321 26       		.byte	0x26
 1080 0322 9F       		.byte	0x9f
 1081 0323 00000000 		.4byte	0
 1082 0327 00000000 		.4byte	0
 1083              	.LLST17:
ARM GAS  /tmp/cc29KpfF.s 			page 20


 1084 032b 28000000 		.4byte	.LVL5-.Ltext0
 1085 032f 30000000 		.4byte	.LVL7-.Ltext0
 1086 0333 1400     		.2byte	0x14
 1087 0335 7A       		.byte	0x7a
 1088 0336 00       		.sleb128 0
 1089 0337 40       		.byte	0x40
 1090 0338 25       		.byte	0x25
 1091 0339 40       		.byte	0x40
 1092 033a 24       		.byte	0x24
 1093 033b 40       		.byte	0x40
 1094 033c 26       		.byte	0x26
 1095 033d 74       		.byte	0x74
 1096 033e 00       		.sleb128 0
 1097 033f 40       		.byte	0x40
 1098 0340 25       		.byte	0x25
 1099 0341 40       		.byte	0x40
 1100 0342 24       		.byte	0x24
 1101 0343 40       		.byte	0x40
 1102 0344 26       		.byte	0x26
 1103 0345 1E       		.byte	0x1e
 1104 0346 3F       		.byte	0x3f
 1105 0347 26       		.byte	0x26
 1106 0348 9F       		.byte	0x9f
 1107 0349 30000000 		.4byte	.LVL7-.Ltext0
 1108 034d 34000000 		.4byte	.LVL8-.Ltext0
 1109 0351 1400     		.2byte	0x14
 1110 0353 7C       		.byte	0x7c
 1111 0354 7A       		.sleb128 -6
 1112 0355 94       		.byte	0x94
 1113 0356 02       		.byte	0x2
 1114 0357 40       		.byte	0x40
 1115 0358 24       		.byte	0x24
 1116 0359 40       		.byte	0x40
 1117 035a 26       		.byte	0x26
 1118 035b 74       		.byte	0x74
 1119 035c 00       		.sleb128 0
 1120 035d 40       		.byte	0x40
 1121 035e 25       		.byte	0x25
 1122 035f 40       		.byte	0x40
 1123 0360 24       		.byte	0x24
 1124 0361 40       		.byte	0x40
 1125 0362 26       		.byte	0x26
 1126 0363 1E       		.byte	0x1e
 1127 0364 3F       		.byte	0x3f
 1128 0365 26       		.byte	0x26
 1129 0366 9F       		.byte	0x9f
 1130 0367 34000000 		.4byte	.LVL8-.Ltext0
 1131 036b 66000000 		.4byte	.LVL15-.Ltext0
 1132 036f 1400     		.2byte	0x14
 1133 0371 7C       		.byte	0x7c
 1134 0372 7A       		.sleb128 -6
 1135 0373 94       		.byte	0x94
 1136 0374 02       		.byte	0x2
 1137 0375 40       		.byte	0x40
 1138 0376 24       		.byte	0x24
 1139 0377 40       		.byte	0x40
 1140 0378 26       		.byte	0x26
ARM GAS  /tmp/cc29KpfF.s 			page 21


 1141 0379 7E       		.byte	0x7e
 1142 037a 7A       		.sleb128 -6
 1143 037b 94       		.byte	0x94
 1144 037c 02       		.byte	0x2
 1145 037d 40       		.byte	0x40
 1146 037e 24       		.byte	0x24
 1147 037f 40       		.byte	0x40
 1148 0380 26       		.byte	0x26
 1149 0381 1E       		.byte	0x1e
 1150 0382 3F       		.byte	0x3f
 1151 0383 26       		.byte	0x26
 1152 0384 9F       		.byte	0x9f
 1153 0385 00000000 		.4byte	0
 1154 0389 00000000 		.4byte	0
 1155              	.LLST19:
 1156 038d 52000000 		.4byte	.LVL12-.Ltext0
 1157 0391 66000000 		.4byte	.LVL15-.Ltext0
 1158 0395 1400     		.2byte	0x14
 1159 0397 7B       		.byte	0x7b
 1160 0398 00       		.sleb128 0
 1161 0399 40       		.byte	0x40
 1162 039a 25       		.byte	0x25
 1163 039b 40       		.byte	0x40
 1164 039c 24       		.byte	0x24
 1165 039d 40       		.byte	0x40
 1166 039e 26       		.byte	0x26
 1167 039f 7E       		.byte	0x7e
 1168 03a0 7E       		.sleb128 -2
 1169 03a1 94       		.byte	0x94
 1170 03a2 02       		.byte	0x2
 1171 03a3 40       		.byte	0x40
 1172 03a4 24       		.byte	0x24
 1173 03a5 40       		.byte	0x40
 1174 03a6 26       		.byte	0x26
 1175 03a7 1E       		.byte	0x1e
 1176 03a8 3F       		.byte	0x3f
 1177 03a9 26       		.byte	0x26
 1178 03aa 9F       		.byte	0x9f
 1179 03ab 00000000 		.4byte	0
 1180 03af 00000000 		.4byte	0
 1181              	.LLST20:
 1182 03b3 A0000000 		.4byte	.LVL25-.Ltext0
 1183 03b7 A6000000 		.4byte	.LVL27-.Ltext0
 1184 03bb 0100     		.2byte	0x1
 1185 03bd 54       		.byte	0x54
 1186 03be 00000000 		.4byte	0
 1187 03c2 00000000 		.4byte	0
 1188              	.LLST21:
 1189 03c6 92000000 		.4byte	.LVL21-.Ltext0
 1190 03ca 98000000 		.4byte	.LVL23-.Ltext0
 1191 03ce 1000     		.2byte	0x10
 1192 03d0 75       		.byte	0x75
 1193 03d1 00       		.sleb128 0
 1194 03d2 40       		.byte	0x40
 1195 03d3 24       		.byte	0x24
 1196 03d4 40       		.byte	0x40
 1197 03d5 26       		.byte	0x26
ARM GAS  /tmp/cc29KpfF.s 			page 22


 1198 03d6 74       		.byte	0x74
 1199 03d7 00       		.sleb128 0
 1200 03d8 40       		.byte	0x40
 1201 03d9 24       		.byte	0x24
 1202 03da 40       		.byte	0x40
 1203 03db 26       		.byte	0x26
 1204 03dc 1E       		.byte	0x1e
 1205 03dd 3F       		.byte	0x3f
 1206 03de 26       		.byte	0x26
 1207 03df 9F       		.byte	0x9f
 1208 03e0 98000000 		.4byte	.LVL23-.Ltext0
 1209 03e4 9C000000 		.4byte	.LVL24-.Ltext0
 1210 03e8 1200     		.2byte	0x12
 1211 03ea 75       		.byte	0x75
 1212 03eb 00       		.sleb128 0
 1213 03ec 40       		.byte	0x40
 1214 03ed 24       		.byte	0x24
 1215 03ee 40       		.byte	0x40
 1216 03ef 26       		.byte	0x26
 1217 03f0 71       		.byte	0x71
 1218 03f1 7E       		.sleb128 -2
 1219 03f2 94       		.byte	0x94
 1220 03f3 02       		.byte	0x2
 1221 03f4 40       		.byte	0x40
 1222 03f5 24       		.byte	0x24
 1223 03f6 40       		.byte	0x40
 1224 03f7 26       		.byte	0x26
 1225 03f8 1E       		.byte	0x1e
 1226 03f9 3F       		.byte	0x3f
 1227 03fa 26       		.byte	0x26
 1228 03fb 9F       		.byte	0x9f
 1229 03fc 9C000000 		.4byte	.LVL24-.Ltext0
 1230 0400 A0000000 		.4byte	.LVL25-.Ltext0
 1231 0404 0100     		.2byte	0x1
 1232 0406 54       		.byte	0x54
 1233 0407 A0000000 		.4byte	.LVL25-.Ltext0
 1234 040b A4000000 		.4byte	.LVL26-.Ltext0
 1235 040f 1200     		.2byte	0x12
 1236 0411 75       		.byte	0x75
 1237 0412 00       		.sleb128 0
 1238 0413 40       		.byte	0x40
 1239 0414 24       		.byte	0x24
 1240 0415 40       		.byte	0x40
 1241 0416 26       		.byte	0x26
 1242 0417 71       		.byte	0x71
 1243 0418 7E       		.sleb128 -2
 1244 0419 94       		.byte	0x94
 1245 041a 02       		.byte	0x2
 1246 041b 40       		.byte	0x40
 1247 041c 24       		.byte	0x24
 1248 041d 40       		.byte	0x40
 1249 041e 26       		.byte	0x26
 1250 041f 1E       		.byte	0x1e
 1251 0420 3F       		.byte	0x3f
 1252 0421 26       		.byte	0x26
 1253 0422 9F       		.byte	0x9f
 1254 0423 00000000 		.4byte	0
ARM GAS  /tmp/cc29KpfF.s 			page 23


 1255 0427 00000000 		.4byte	0
 1256              		.section	.debug_aranges,"",%progbits
 1257 0000 1C000000 		.4byte	0x1c
 1258 0004 0200     		.2byte	0x2
 1259 0006 00000000 		.4byte	.Ldebug_info0
 1260 000a 04       		.byte	0x4
 1261 000b 00       		.byte	0
 1262 000c 0000     		.2byte	0
 1263 000e 0000     		.2byte	0
 1264 0010 00000000 		.4byte	.Ltext0
 1265 0014 AA000000 		.4byte	.Letext0-.Ltext0
 1266 0018 00000000 		.4byte	0
 1267 001c 00000000 		.4byte	0
 1268              		.section	.debug_ranges,"",%progbits
 1269              	.Ldebug_ranges0:
 1270 0000 34000000 		.4byte	.LBB2-.Ltext0
 1271 0004 36000000 		.4byte	.LBE2-.Ltext0
 1272 0008 38000000 		.4byte	.LBB4-.Ltext0
 1273 000c 3C000000 		.4byte	.LBE4-.Ltext0
 1274 0010 00000000 		.4byte	0
 1275 0014 00000000 		.4byte	0
 1276 0018 36000000 		.4byte	.LBB3-.Ltext0
 1277 001c 38000000 		.4byte	.LBE3-.Ltext0
 1278 0020 3C000000 		.4byte	.LBB5-.Ltext0
 1279 0024 40000000 		.4byte	.LBE5-.Ltext0
 1280 0028 00000000 		.4byte	0
 1281 002c 00000000 		.4byte	0
 1282 0030 48000000 		.4byte	.LBB6-.Ltext0
 1283 0034 4C000000 		.4byte	.LBE6-.Ltext0
 1284 0038 4E000000 		.4byte	.LBB8-.Ltext0
 1285 003c 52000000 		.4byte	.LBE8-.Ltext0
 1286 0040 00000000 		.4byte	0
 1287 0044 00000000 		.4byte	0
 1288 0048 4C000000 		.4byte	.LBB7-.Ltext0
 1289 004c 4E000000 		.4byte	.LBE7-.Ltext0
 1290 0050 52000000 		.4byte	.LBB9-.Ltext0
 1291 0054 56000000 		.4byte	.LBE9-.Ltext0
 1292 0058 00000000 		.4byte	0
 1293 005c 00000000 		.4byte	0
 1294 0060 8A000000 		.4byte	.LBB10-.Ltext0
 1295 0064 92000000 		.4byte	.LBE10-.Ltext0
 1296 0068 94000000 		.4byte	.LBB11-.Ltext0
 1297 006c A0000000 		.4byte	.LBE11-.Ltext0
 1298 0070 00000000 		.4byte	0
 1299 0074 00000000 		.4byte	0
 1300              		.section	.debug_line,"",%progbits
 1301              	.Ldebug_line0:
 1302 0000 4A020000 		.section	.debug_str,"MS",%progbits,1
 1302      02000602 
 1302      00000201 
 1302      FB0E0D00 
 1302      01010101 
 1303              	.LASF9:
 1304 0000 6C6F6E67 		.ascii	"long long int\000"
 1304      206C6F6E 
 1304      6720696E 
 1304      7400
ARM GAS  /tmp/cc29KpfF.s 			page 24


 1305              	.LASF41:
 1306 000e 474E5520 		.ascii	"GNU C 4.9.3 20150529 (release) [ARM/embedded-4_9-br"
 1306      4320342E 
 1306      392E3320 
 1306      32303135 
 1306      30353239 
 1307 0041 616E6368 		.ascii	"anch revision 224288] -mcpu=cortex-m4 -mfloat-abi=h"
 1307      20726576 
 1307      6973696F 
 1307      6E203232 
 1307      34323838 
 1308 0074 61726420 		.ascii	"ard -mfpu=fpv4-sp-d16 -mno-thumb-interwork -mthumb "
 1308      2D6D6670 
 1308      753D6670 
 1308      76342D73 
 1308      702D6431 
 1309 00a7 2D676764 		.ascii	"-ggdb -O2 -fomit-frame-pointer -falign-functions=16"
 1309      62202D4F 
 1309      32202D66 
 1309      6F6D6974 
 1309      2D667261 
 1310 00da 202D666E 		.ascii	" -fno-math-errno -fsingle-precision-constant\000"
 1310      6F2D6D61 
 1310      74682D65 
 1310      72726E6F 
 1310      202D6673 
 1311              	.LASF4:
 1312 0107 5F5F696E 		.ascii	"__int16_t\000"
 1312      7431365F 
 1312      7400
 1313              	.LASF22:
 1314 0111 70537263 		.ascii	"pSrcA\000"
 1314      4100
 1315              	.LASF23:
 1316 0117 70537263 		.ascii	"pSrcB\000"
 1316      4200
 1317              	.LASF5:
 1318 011d 5F5F696E 		.ascii	"__int32_t\000"
 1318      7433325F 
 1318      7400
 1319              	.LASF28:
 1320 0127 696E4132 		.ascii	"inA2\000"
 1320      00
 1321              	.LASF31:
 1322 012c 6F757431 		.ascii	"out1\000"
 1322      00
 1323              	.LASF33:
 1324 0131 6F757432 		.ascii	"out2\000"
 1324      00
 1325              	.LASF32:
 1326 0136 6F757433 		.ascii	"out3\000"
 1326      00
 1327              	.LASF34:
 1328 013b 6F757434 		.ascii	"out4\000"
 1328      00
 1329              	.LASF30:
 1330 0140 696E4232 		.ascii	"inB2\000"
ARM GAS  /tmp/cc29KpfF.s 			page 25


 1330      00
 1331              	.LASF20:
 1332 0145 7131355F 		.ascii	"q15_t\000"
 1332      7400
 1333              	.LASF18:
 1334 014b 666C6F61 		.ascii	"float\000"
 1334      7400
 1335              	.LASF29:
 1336 0151 696E4231 		.ascii	"inB1\000"
 1336      00
 1337              	.LASF21:
 1338 0156 7133315F 		.ascii	"q31_t\000"
 1338      7400
 1339              	.LASF1:
 1340 015c 756E7369 		.ascii	"unsigned char\000"
 1340      676E6564 
 1340      20636861 
 1340      7200
 1341              	.LASF26:
 1342 016a 626C6B43 		.ascii	"blkCnt\000"
 1342      6E7400
 1343              	.LASF8:
 1344 0171 6C6F6E67 		.ascii	"long unsigned int\000"
 1344      20756E73 
 1344      69676E65 
 1344      6420696E 
 1344      7400
 1345              	.LASF3:
 1346 0183 73686F72 		.ascii	"short unsigned int\000"
 1346      7420756E 
 1346      7369676E 
 1346      65642069 
 1346      6E7400
 1347              	.LASF40:
 1348 0196 5F5F4152 		.ascii	"__ARG1\000"
 1348      473100
 1349              	.LASF24:
 1350 019d 70447374 		.ascii	"pDst\000"
 1350      00
 1351              	.LASF43:
 1352 01a2 61726D5F 		.ascii	"arm_mult_q15\000"
 1352      6D756C74 
 1352      5F713135 
 1352      00
 1353              	.LASF17:
 1354 01af 646F7562 		.ascii	"double\000"
 1354      6C6500
 1355              	.LASF7:
 1356 01b6 5F5F7569 		.ascii	"__uint32_t\000"
 1356      6E743332 
 1356      5F7400
 1357              	.LASF35:
 1358 01c1 6D756C31 		.ascii	"mul1\000"
 1358      00
 1359              	.LASF36:
 1360 01c6 6D756C32 		.ascii	"mul2\000"
 1360      00
ARM GAS  /tmp/cc29KpfF.s 			page 26


 1361              	.LASF37:
 1362 01cb 6D756C33 		.ascii	"mul3\000"
 1362      00
 1363              	.LASF38:
 1364 01d0 6D756C34 		.ascii	"mul4\000"
 1364      00
 1365              	.LASF27:
 1366 01d5 696E4131 		.ascii	"inA1\000"
 1366      00
 1367              	.LASF11:
 1368 01da 756E7369 		.ascii	"unsigned int\000"
 1368      676E6564 
 1368      20696E74 
 1368      00
 1369              	.LASF10:
 1370 01e7 6C6F6E67 		.ascii	"long long unsigned int\000"
 1370      206C6F6E 
 1370      6720756E 
 1370      7369676E 
 1370      65642069 
 1371              	.LASF12:
 1372 01fe 696E7431 		.ascii	"int16_t\000"
 1372      365F7400 
 1373              	.LASF13:
 1374 0206 696E7433 		.ascii	"int32_t\000"
 1374      325F7400 
 1375              	.LASF15:
 1376 020e 73697A65 		.ascii	"sizetype\000"
 1376      74797065 
 1376      00
 1377              	.LASF39:
 1378 0217 5F5F5245 		.ascii	"__RES\000"
 1378      5300
 1379              	.LASF25:
 1380 021d 626C6F63 		.ascii	"blockSize\000"
 1380      6B53697A 
 1380      6500
 1381              	.LASF16:
 1382 0227 63686172 		.ascii	"char\000"
 1382      00
 1383              	.LASF2:
 1384 022c 73686F72 		.ascii	"short int\000"
 1384      7420696E 
 1384      7400
 1385              	.LASF42:
 1386 0236 2F686F6D 		.ascii	"/home/sbcu/Dropbox/pcb-layouts/axo-on-discovery-boa"
 1386      652F7362 
 1386      63752F44 
 1386      726F7062 
 1386      6F782F70 
 1387 0269 72642F61 		.ascii	"rd/axoloti/platform_linux/../CMSIS//DSP_Lib/Source/"
 1387      786F6C6F 
 1387      74692F70 
 1387      6C617466 
 1387      6F726D5F 
 1388 029c 42617369 		.ascii	"BasicMathFunctions/arm_mult_q15.c\000"
 1388      634D6174 
ARM GAS  /tmp/cc29KpfF.s 			page 27


 1388      6846756E 
 1388      6374696F 
 1388      6E732F61 
 1389              	.LASF14:
 1390 02be 75696E74 		.ascii	"uint32_t\000"
 1390      33325F74 
 1390      00
 1391              	.LASF6:
 1392 02c7 6C6F6E67 		.ascii	"long int\000"
 1392      20696E74 
 1392      00
 1393              	.LASF19:
 1394 02d0 6C6F6E67 		.ascii	"long double\000"
 1394      20646F75 
 1394      626C6500 
 1395              	.LASF0:
 1396 02dc 7369676E 		.ascii	"signed char\000"
 1396      65642063 
 1396      68617200 
 1397              		.ident	"GCC: (GNU Tools for ARM Embedded Processors) 4.9.3 20150529 (release) [ARM/embedded-4_9-br
ARM GAS  /tmp/cc29KpfF.s 			page 28


DEFINED SYMBOLS
                            *ABS*:00000000 arm_mult_q15.c
     /tmp/cc29KpfF.s:20     .text:00000000 $t
     /tmp/cc29KpfF.s:26     .text:00000000 arm_mult_q15
                     .debug_frame:00000010 $d

NO UNDEFINED SYMBOLS
