ARM GAS  /tmp/ccAY9sSr.s 			page 1


   1              		.syntax unified
   2              		.cpu cortex-m4
   3              		.eabi_attribute 27, 1
   4              		.eabi_attribute 28, 1
   5              		.fpu fpv4-sp-d16
   6              		.eabi_attribute 20, 1
   7              		.eabi_attribute 21, 1
   8              		.eabi_attribute 23, 3
   9              		.eabi_attribute 24, 1
  10              		.eabi_attribute 25, 1
  11              		.eabi_attribute 26, 1
  12              		.eabi_attribute 30, 2
  13              		.eabi_attribute 34, 1
  14              		.eabi_attribute 18, 4
  15              		.thumb
  16              		.file	"arm_fir_lattice_q31.c"
  17              		.text
  18              	.Ltext0:
  19              		.cfi_sections	.debug_frame
  20              		.align	2
  21              		.p2align 4,,15
  22              		.global	arm_fir_lattice_q31
  23              		.thumb
  24              		.thumb_func
  25              		.type	arm_fir_lattice_q31, %function
  26              	arm_fir_lattice_q31:
  27              	.LFB135:
  28              		.file 1 "/d_drive/axoloti/platform_linux/../CMSIS//DSP_Lib/Source/FilteringFunctions/arm_fir_latti
  29              		.loc 1 75 0
  30              		.cfi_startproc
  31              		@ args = 0, pretend = 0, frame = 56
  32              		@ frame_needed = 0, uses_anonymous_args = 0
  33              	.LVL0:
  34 0000 2DE9F04F 		push	{r4, r5, r6, r7, r8, r9, r10, fp, lr}
  35              		.cfi_def_cfa_offset 36
  36              		.cfi_offset 4, -36
  37              		.cfi_offset 5, -32
  38              		.cfi_offset 6, -28
  39              		.cfi_offset 7, -24
  40              		.cfi_offset 8, -20
  41              		.cfi_offset 9, -16
  42              		.cfi_offset 10, -12
  43              		.cfi_offset 11, -8
  44              		.cfi_offset 14, -4
  45 0004 8FB0     		sub	sp, sp, #60
  46              		.cfi_def_cfa_offset 96
  47              		.loc 1 77 0
  48 0006 8468     		ldr	r4, [r0, #8]
  49              		.loc 1 82 0
  50 0008 0588     		ldrh	r5, [r0]
  51              		.loc 1 75 0
  52 000a 0D93     		str	r3, [sp, #52]
  53              		.loc 1 86 0
  54 000c 4068     		ldr	r0, [r0, #4]
  55              	.LVL1:
  56              		.loc 1 75 0
  57 000e 0691     		str	r1, [sp, #24]
ARM GAS  /tmp/ccAY9sSr.s 			page 2


  58              		.loc 1 92 0
  59 0010 5B08     		lsrs	r3, r3, #1
  60              	.LVL2:
  61              		.loc 1 75 0
  62 0012 0792     		str	r2, [sp, #28]
  63              		.loc 1 77 0
  64 0014 0194     		str	r4, [sp, #4]
  65              	.LVL3:
  66              		.loc 1 82 0
  67 0016 0895     		str	r5, [sp, #32]
  68              	.LVL4:
  69              		.loc 1 86 0
  70 0018 0390     		str	r0, [sp, #12]
  71              	.LVL5:
  72              		.loc 1 92 0
  73 001a 0C93     		str	r3, [sp, #48]
  74 001c 59D0     		beq	.L2
  75 001e 0430     		adds	r0, r0, #4
  76              	.LVL6:
  77 0020 0434     		adds	r4, r4, #4
  78              	.LVL7:
  79 0022 0B90     		str	r0, [sp, #44]
  80 0024 0831     		adds	r1, r1, #8
  81              	.LVL8:
  82 0026 681E     		subs	r0, r5, #1
  83 0028 0832     		adds	r2, r2, #8
  84              	.LVL9:
  85 002a 0A94     		str	r4, [sp, #40]
  86 002c 0990     		str	r0, [sp, #36]
  87 002e 0291     		str	r1, [sp, #8]
  88 0030 0592     		str	r2, [sp, #20]
  89 0032 0493     		str	r3, [sp, #16]
  90              	.LVL10:
  91              	.L5:
  92              		.loc 1 107 0
  93 0034 039D     		ldr	r5, [sp, #12]
  94              		.loc 1 95 0
  95 0036 0298     		ldr	r0, [sp, #8]
  96              		.loc 1 110 0
  97 0038 019B     		ldr	r3, [sp, #4]
  98              		.loc 1 95 0
  99 003a 50F8081C 		ldr	r1, [r0, #-8]
 100              	.LVL11:
 101              		.loc 1 110 0
 102 003e 1A68     		ldr	r2, [r3]
 103              		.loc 1 107 0
 104 0040 2C68     		ldr	r4, [r5]
 105              		.loc 1 98 0
 106 0042 50F8040C 		ldr	r0, [r0, #-4]
 107              	.LVL12:
 108              		.loc 1 131 0
 109 0046 2860     		str	r0, [r5]
 110              		.loc 1 114 0
 111 0048 84FB0267 		smull	r6, r7, r4, r2
 112              		.loc 1 117 0
 113 004c 82FB0189 		smull	r8, r9, r2, r1
 114              		.loc 1 126 0
ARM GAS  /tmp/ccAY9sSr.s 			page 3


 115 0050 82FB0023 		smull	r2, r3, r2, r0
 116              	.LVL13:
 117              		.loc 1 118 0
 118 0054 01EB4702 		add	r2, r1, r7, lsl #1
 119              		.loc 1 128 0
 120 0058 01EB4301 		add	r1, r1, r3, lsl #1
 121              	.LVL14:
 122              		.loc 1 141 0
 123 005c 099B     		ldr	r3, [sp, #36]
 124              		.loc 1 119 0
 125 005e 4FEA4905 		lsl	r5, r9, #1
 126              	.LVL15:
 127 0062 2C44     		add	r4, r4, r5
 128              	.LVL16:
 129              		.loc 1 127 0
 130 0064 2844     		add	r0, r0, r5
 131              	.LVL17:
 132              		.loc 1 141 0
 133 0066 002B     		cmp	r3, #0
 134 0068 62D0     		beq	.L9
 135 006a DDF828E0 		ldr	lr, [sp, #40]
 136 006e 0B9D     		ldr	r5, [sp, #44]
 137 0070 1E46     		mov	r6, r3
 138              	.LVL18:
 139              	.L4:
 140              		.loc 1 145 0
 141 0072 5EF8043B 		ldr	r3, [lr], #4
 142              	.LVL19:
 143              		.loc 1 148 0
 144 0076 2F68     		ldr	r7, [r5]
 145              	.LVL20:
 146              		.loc 1 151 0
 147 0078 45F8041B 		str	r1, [r5], #4
 148              	.LVL21:
 149              		.loc 1 155 0
 150 007c 87FB03AB 		smull	r10, fp, r7, r3
 151              		.loc 1 156 0
 152 0080 83FB0489 		smull	r8, r9, r3, r4
 153              		.loc 1 158 0
 154 0084 02EB4B0C 		add	ip, r2, fp, lsl #1
 155              	.LVL22:
 156              		.loc 1 159 0
 157 0088 00EB4908 		add	r8, r0, r9, lsl #1
 158              	.LVL23:
 159              		.loc 1 166 0
 160 008c 83FB02AB 		smull	r10, fp, r3, r2
 161              		.loc 1 162 0
 162 0090 83FB0001 		smull	r0, r1, r3, r0
 163              	.LVL24:
 164              		.loc 1 141 0
 165 0094 013E     		subs	r6, r6, #1
 166              	.LVL25:
 167              		.loc 1 163 0
 168 0096 04EB4101 		add	r1, r4, r1, lsl #1
 169              	.LVL26:
 170              		.loc 1 158 0
 171 009a 6246     		mov	r2, ip
ARM GAS  /tmp/ccAY9sSr.s 			page 4


 172              	.LVL27:
 173              		.loc 1 167 0
 174 009c 07EB4B04 		add	r4, r7, fp, lsl #1
 175              	.LVL28:
 176              		.loc 1 159 0
 177 00a0 4046     		mov	r0, r8
 178              		.loc 1 141 0
 179 00a2 E6D1     		bne	.L4
 180              	.LVL29:
 181              	.L3:
 182              		.loc 1 179 0
 183 00a4 059A     		ldr	r2, [sp, #20]
 184              	.LVL30:
 185 00a6 1346     		mov	r3, r2
 186 00a8 0833     		adds	r3, r3, #8
 187 00aa 42F808CC 		str	ip, [r2, #-8]
 188              	.LVL31:
 189              		.loc 1 180 0
 190 00ae 42F8048C 		str	r8, [r2, #-4]
 191 00b2 0593     		str	r3, [sp, #20]
 192 00b4 029A     		ldr	r2, [sp, #8]
 193              		.loc 1 92 0
 194 00b6 049B     		ldr	r3, [sp, #16]
 195 00b8 0832     		adds	r2, r2, #8
 196 00ba 013B     		subs	r3, r3, #1
 197              	.LVL32:
 198 00bc 0292     		str	r2, [sp, #8]
 199              	.LVL33:
 200 00be 0493     		str	r3, [sp, #16]
 201 00c0 B8D1     		bne	.L5
 202 00c2 0C9B     		ldr	r3, [sp, #48]
 203              	.LVL34:
 204 00c4 069A     		ldr	r2, [sp, #24]
 205 00c6 DB00     		lsls	r3, r3, #3
 206 00c8 1A44     		add	r2, r2, r3
 207 00ca 0692     		str	r2, [sp, #24]
 208 00cc 079A     		ldr	r2, [sp, #28]
 209 00ce 1A44     		add	r2, r2, r3
 210 00d0 0792     		str	r2, [sp, #28]
 211              	.LVL35:
 212              	.L2:
 213              		.loc 1 190 0
 214 00d2 0D9B     		ldr	r3, [sp, #52]
 215 00d4 DB07     		lsls	r3, r3, #31
 216 00d6 26D5     		bpl	.L1
 217              	.LVL36:
 218              		.loc 1 202 0
 219 00d8 039D     		ldr	r5, [sp, #12]
 220              		.loc 1 193 0
 221 00da 069B     		ldr	r3, [sp, #24]
 222              		.loc 1 202 0
 223 00dc 2946     		mov	r1, r5
 224              		.loc 1 193 0
 225 00de 1A68     		ldr	r2, [r3]
 226              	.LVL37:
 227              		.loc 1 205 0
 228 00e0 019B     		ldr	r3, [sp, #4]
ARM GAS  /tmp/ccAY9sSr.s 			page 5


 229              		.loc 1 202 0
 230 00e2 51F8040B 		ldr	r0, [r1], #4
 231              	.LVL38:
 232              		.loc 1 205 0
 233 00e6 1C68     		ldr	r4, [r3]
 234              		.loc 1 217 0
 235 00e8 2A60     		str	r2, [r5]
 236              		.loc 1 209 0
 237 00ea 80FB0467 		smull	r6, r7, r0, r4
 238              		.loc 1 213 0
 239 00ee 84FB0245 		smull	r4, r5, r4, r2
 240              		.loc 1 205 0
 241 00f2 1C1D     		adds	r4, r3, #4
 242              	.LVL39:
 243              		.loc 1 210 0
 244 00f4 02EB4703 		add	r3, r2, r7, lsl #1
 245              	.LVL40:
 246              		.loc 1 226 0
 247 00f8 089A     		ldr	r2, [sp, #32]
 248              	.LVL41:
 249              		.loc 1 214 0
 250 00fa 00EB4506 		add	r6, r0, r5, lsl #1
 251              	.LVL42:
 252              		.loc 1 226 0
 253 00fe 501E     		subs	r0, r2, #1
 254              	.LVL43:
 255 0100 14D0     		beq	.L10
 256              	.LVL44:
 257              	.L8:
 258              		.loc 1 229 0
 259 0102 54F8042B 		ldr	r2, [r4], #4
 260              	.LVL45:
 261              		.loc 1 232 0
 262 0106 0D68     		ldr	r5, [r1]
 263              	.LVL46:
 264              		.loc 1 235 0
 265 0108 41F8046B 		str	r6, [r1], #4
 266              	.LVL47:
 267              		.loc 1 239 0
 268 010c 85FB0267 		smull	r6, r7, r5, r2
 269              	.LVL48:
 270              		.loc 1 240 0
 271 0110 03EB4707 		add	r7, r3, r7, lsl #1
 272              	.LVL49:
 273              		.loc 1 226 0
 274 0114 0138     		subs	r0, r0, #1
 275              	.LVL50:
 276              		.loc 1 243 0
 277 0116 82FB0323 		smull	r2, r3, r2, r3
 278              	.LVL51:
 279              		.loc 1 244 0
 280 011a 05EB4306 		add	r6, r5, r3, lsl #1
 281              	.LVL52:
 282              		.loc 1 240 0
 283 011e 3B46     		mov	r3, r7
 284              		.loc 1 226 0
 285 0120 EFD1     		bne	.L8
ARM GAS  /tmp/ccAY9sSr.s 			page 6


 286              	.LVL53:
 287              	.L7:
 288              		.loc 1 256 0
 289 0122 079B     		ldr	r3, [sp, #28]
 290              	.LVL54:
 291 0124 1F60     		str	r7, [r3]
 292              	.LVL55:
 293              	.L1:
 294              		.loc 1 263 0
 295 0126 0FB0     		add	sp, sp, #60
 296              		.cfi_remember_state
 297              		.cfi_def_cfa_offset 36
 298              		@ sp needed
 299 0128 BDE8F08F 		pop	{r4, r5, r6, r7, r8, r9, r10, fp, pc}
 300              	.LVL56:
 301              	.L10:
 302              		.cfi_restore_state
 303              		.loc 1 221 0
 304 012c 1F46     		mov	r7, r3
 305 012e F8E7     		b	.L7
 306              	.LVL57:
 307              	.L9:
 308              		.loc 1 136 0
 309 0130 8046     		mov	r8, r0
 310              		.loc 1 135 0
 311 0132 9446     		mov	ip, r2
 312 0134 B6E7     		b	.L3
 313              		.cfi_endproc
 314              	.LFE135:
 315              		.size	arm_fir_lattice_q31, .-arm_fir_lattice_q31
 316              	.Letext0:
 317              		.file 2 "/d_drive/axoloti/platform_linux/arm-none-eabi/include/machine/_default_types.h"
 318              		.file 3 "/d_drive/axoloti/platform_linux/arm-none-eabi/include/sys/_stdint.h"
 319              		.file 4 "/d_drive/axoloti/platform_linux/../CMSIS//DSP_Lib/Include/arm_math.h"
 320 0136 00BF     		.section	.debug_info,"",%progbits
 321              	.Ldebug_info0:
 322 0000 72020000 		.4byte	0x272
 323 0004 0400     		.2byte	0x4
 324 0006 00000000 		.4byte	.Ldebug_abbrev0
 325 000a 04       		.byte	0x4
 326 000b 01       		.uleb128 0x1
 327 000c 00000000 		.4byte	.LASF40
 328 0010 01       		.byte	0x1
 329 0011 25020000 		.4byte	.LASF41
 330 0015 00000000 		.4byte	.Ltext0
 331 0019 36010000 		.4byte	.Letext0-.Ltext0
 332 001d 00000000 		.4byte	.Ldebug_line0
 333 0021 02       		.uleb128 0x2
 334 0022 01       		.byte	0x1
 335 0023 06       		.byte	0x6
 336 0024 E2020000 		.4byte	.LASF0
 337 0028 02       		.uleb128 0x2
 338 0029 01       		.byte	0x1
 339 002a 08       		.byte	0x8
 340 002b 2B010000 		.4byte	.LASF1
 341 002f 02       		.uleb128 0x2
 342 0030 02       		.byte	0x2
ARM GAS  /tmp/ccAY9sSr.s 			page 7


 343 0031 05       		.byte	0x5
 344 0032 A2020000 		.4byte	.LASF2
 345 0036 03       		.uleb128 0x3
 346 0037 8A010000 		.4byte	.LASF4
 347 003b 02       		.byte	0x2
 348 003c 2B       		.byte	0x2b
 349 003d 41000000 		.4byte	0x41
 350 0041 02       		.uleb128 0x2
 351 0042 02       		.byte	0x2
 352 0043 07       		.byte	0x7
 353 0044 52010000 		.4byte	.LASF3
 354 0048 03       		.uleb128 0x3
 355 0049 00010000 		.4byte	.LASF5
 356 004d 02       		.byte	0x2
 357 004e 3F       		.byte	0x3f
 358 004f 53000000 		.4byte	0x53
 359 0053 02       		.uleb128 0x2
 360 0054 04       		.byte	0x4
 361 0055 05       		.byte	0x5
 362 0056 CD020000 		.4byte	.LASF6
 363 005a 03       		.uleb128 0x3
 364 005b 9C010000 		.4byte	.LASF7
 365 005f 02       		.byte	0x2
 366 0060 41       		.byte	0x41
 367 0061 65000000 		.4byte	0x65
 368 0065 02       		.uleb128 0x2
 369 0066 04       		.byte	0x4
 370 0067 07       		.byte	0x7
 371 0068 40010000 		.4byte	.LASF8
 372 006c 03       		.uleb128 0x3
 373 006d 80010000 		.4byte	.LASF9
 374 0071 02       		.byte	0x2
 375 0072 59       		.byte	0x59
 376 0073 77000000 		.4byte	0x77
 377 0077 02       		.uleb128 0x2
 378 0078 08       		.byte	0x8
 379 0079 05       		.byte	0x5
 380 007a 08020000 		.4byte	.LASF10
 381 007e 02       		.uleb128 0x2
 382 007f 08       		.byte	0x8
 383 0080 07       		.byte	0x7
 384 0081 B4010000 		.4byte	.LASF11
 385 0085 04       		.uleb128 0x4
 386 0086 04       		.byte	0x4
 387 0087 05       		.byte	0x5
 388 0088 696E7400 		.ascii	"int\000"
 389 008c 02       		.uleb128 0x2
 390 008d 04       		.byte	0x4
 391 008e 07       		.byte	0x7
 392 008f A7010000 		.4byte	.LASF12
 393 0093 03       		.uleb128 0x3
 394 0094 AC020000 		.4byte	.LASF13
 395 0098 03       		.byte	0x3
 396 0099 1A       		.byte	0x1a
 397 009a 36000000 		.4byte	0x36
 398 009e 03       		.uleb128 0x3
 399 009f DA010000 		.4byte	.LASF14
ARM GAS  /tmp/ccAY9sSr.s 			page 8


 400 00a3 03       		.byte	0x3
 401 00a4 1F       		.byte	0x1f
 402 00a5 48000000 		.4byte	0x48
 403 00a9 03       		.uleb128 0x3
 404 00aa C4020000 		.4byte	.LASF15
 405 00ae 03       		.byte	0x3
 406 00af 20       		.byte	0x20
 407 00b0 5A000000 		.4byte	0x5a
 408 00b4 03       		.uleb128 0x3
 409 00b5 65010000 		.4byte	.LASF16
 410 00b9 03       		.byte	0x3
 411 00ba 25       		.byte	0x25
 412 00bb 6C000000 		.4byte	0x6c
 413 00bf 02       		.uleb128 0x2
 414 00c0 04       		.byte	0x4
 415 00c1 07       		.byte	0x7
 416 00c2 E2010000 		.4byte	.LASF17
 417 00c6 02       		.uleb128 0x2
 418 00c7 01       		.byte	0x1
 419 00c8 08       		.byte	0x8
 420 00c9 20020000 		.4byte	.LASF18
 421 00cd 02       		.uleb128 0x2
 422 00ce 08       		.byte	0x8
 423 00cf 04       		.byte	0x4
 424 00d0 95010000 		.4byte	.LASF19
 425 00d4 02       		.uleb128 0x2
 426 00d5 04       		.byte	0x4
 427 00d6 04       		.byte	0x4
 428 00d7 1F010000 		.4byte	.LASF20
 429 00db 02       		.uleb128 0x2
 430 00dc 08       		.byte	0x8
 431 00dd 04       		.byte	0x4
 432 00de D6020000 		.4byte	.LASF21
 433 00e2 05       		.uleb128 0x5
 434 00e3 25010000 		.4byte	.LASF22
 435 00e7 04       		.byte	0x4
 436 00e8 A001     		.2byte	0x1a0
 437 00ea 9E000000 		.4byte	0x9e
 438 00ee 05       		.uleb128 0x5
 439 00ef CB010000 		.4byte	.LASF23
 440 00f3 04       		.byte	0x4
 441 00f4 A501     		.2byte	0x1a5
 442 00f6 B4000000 		.4byte	0xb4
 443 00fa 06       		.uleb128 0x6
 444 00fb 04       		.byte	0x4
 445 00fc E2000000 		.4byte	0xe2
 446 0100 07       		.uleb128 0x7
 447 0101 0C       		.byte	0xc
 448 0102 04       		.byte	0x4
 449 0103 DB0E     		.2byte	0xedb
 450 0105 31010000 		.4byte	0x131
 451 0109 08       		.uleb128 0x8
 452 010a F3020000 		.4byte	.LASF24
 453 010e 04       		.byte	0x4
 454 010f DD0E     		.2byte	0xedd
 455 0111 93000000 		.4byte	0x93
 456 0115 00       		.byte	0
ARM GAS  /tmp/ccAY9sSr.s 			page 9


 457 0116 08       		.uleb128 0x8
 458 0117 F9000000 		.4byte	.LASF25
 459 011b 04       		.byte	0x4
 460 011c DE0E     		.2byte	0xede
 461 011e FA000000 		.4byte	0xfa
 462 0122 04       		.byte	0x4
 463 0123 08       		.uleb128 0x8
 464 0124 BC020000 		.4byte	.LASF26
 465 0128 04       		.byte	0x4
 466 0129 DF0E     		.2byte	0xedf
 467 012b FA000000 		.4byte	0xfa
 468 012f 08       		.byte	0x8
 469 0130 00       		.byte	0
 470 0131 05       		.uleb128 0x5
 471 0132 EB010000 		.4byte	.LASF27
 472 0136 04       		.byte	0x4
 473 0137 E00E     		.2byte	0xee0
 474 0139 00010000 		.4byte	0x100
 475 013d 09       		.uleb128 0x9
 476 013e 8E020000 		.4byte	.LASF42
 477 0142 01       		.byte	0x1
 478 0143 46       		.byte	0x46
 479 0144 00000000 		.4byte	.LFB135
 480 0148 36010000 		.4byte	.LFE135-.LFB135
 481 014c 01       		.uleb128 0x1
 482 014d 9C       		.byte	0x9c
 483 014e 6A020000 		.4byte	0x26a
 484 0152 0A       		.uleb128 0xa
 485 0153 5300     		.ascii	"S\000"
 486 0155 01       		.byte	0x1
 487 0156 47       		.byte	0x47
 488 0157 6A020000 		.4byte	0x26a
 489 015b 00000000 		.4byte	.LLST0
 490 015f 0B       		.uleb128 0xb
 491 0160 EE020000 		.4byte	.LASF28
 492 0164 01       		.byte	0x1
 493 0165 48       		.byte	0x48
 494 0166 FA000000 		.4byte	0xfa
 495 016a 21000000 		.4byte	.LLST1
 496 016e 0B       		.uleb128 0xb
 497 016f 6D010000 		.4byte	.LASF29
 498 0173 01       		.byte	0x1
 499 0174 49       		.byte	0x49
 500 0175 FA000000 		.4byte	0xfa
 501 0179 9B000000 		.4byte	.LLST2
 502 017d 0B       		.uleb128 0xb
 503 017e 16020000 		.4byte	.LASF30
 504 0182 01       		.byte	0x1
 505 0183 4A       		.byte	0x4a
 506 0184 A9000000 		.4byte	0xa9
 507 0188 E6000000 		.4byte	.LLST3
 508 018c 0C       		.uleb128 0xc
 509 018d F9000000 		.4byte	.LASF25
 510 0191 01       		.byte	0x1
 511 0192 4C       		.byte	0x4c
 512 0193 FA000000 		.4byte	0xfa
 513 0197 05010000 		.4byte	.LLST4
ARM GAS  /tmp/ccAY9sSr.s 			page 10


 514 019b 0C       		.uleb128 0xc
 515 019c BC020000 		.4byte	.LASF26
 516 01a0 01       		.byte	0x1
 517 01a1 4D       		.byte	0x4d
 518 01a2 FA000000 		.4byte	0xfa
 519 01a6 25010000 		.4byte	.LLST5
 520 01aa 0D       		.uleb128 0xd
 521 01ab 707800   		.ascii	"px\000"
 522 01ae 01       		.byte	0x1
 523 01af 4E       		.byte	0x4e
 524 01b0 FA000000 		.4byte	0xfa
 525 01b4 45010000 		.4byte	.LLST6
 526 01b8 0D       		.uleb128 0xd
 527 01b9 706B00   		.ascii	"pk\000"
 528 01bc 01       		.byte	0x1
 529 01bd 4F       		.byte	0x4f
 530 01be FA000000 		.4byte	0xfa
 531 01c2 CC010000 		.4byte	.LLST7
 532 01c6 0C       		.uleb128 0xc
 533 01c7 72010000 		.4byte	.LASF31
 534 01cb 01       		.byte	0x1
 535 01cc 50       		.byte	0x50
 536 01cd E2000000 		.4byte	0xe2
 537 01d1 32020000 		.4byte	.LLST8
 538 01d5 0C       		.uleb128 0xc
 539 01d6 18010000 		.4byte	.LASF32
 540 01da 01       		.byte	0x1
 541 01db 50       		.byte	0x50
 542 01dc E2000000 		.4byte	0xe2
 543 01e0 CA020000 		.4byte	.LLST9
 544 01e4 0C       		.uleb128 0xc
 545 01e5 87020000 		.4byte	.LASF33
 546 01e9 01       		.byte	0x1
 547 01ea 50       		.byte	0x50
 548 01eb E2000000 		.4byte	0xe2
 549 01ef 40030000 		.4byte	.LLST10
 550 01f3 0C       		.uleb128 0xc
 551 01f4 0A010000 		.4byte	.LASF34
 552 01f8 01       		.byte	0x1
 553 01f9 50       		.byte	0x50
 554 01fa E2000000 		.4byte	0xe2
 555 01fe 80030000 		.4byte	.LLST11
 556 0202 0C       		.uleb128 0xc
 557 0203 79010000 		.4byte	.LASF35
 558 0207 01       		.byte	0x1
 559 0208 51       		.byte	0x51
 560 0209 E2000000 		.4byte	0xe2
 561 020d D6030000 		.4byte	.LLST12
 562 0211 0C       		.uleb128 0xc
 563 0212 B5020000 		.4byte	.LASF36
 564 0216 01       		.byte	0x1
 565 0217 51       		.byte	0x51
 566 0218 E2000000 		.4byte	0xe2
 567 021c 0A040000 		.4byte	.LLST13
 568 0220 0C       		.uleb128 0xc
 569 0221 11010000 		.4byte	.LASF37
 570 0225 01       		.byte	0x1
ARM GAS  /tmp/ccAY9sSr.s 			page 11


 571 0226 51       		.byte	0x51
 572 0227 E2000000 		.4byte	0xe2
 573 022b 3E040000 		.4byte	.LLST14
 574 022f 0C       		.uleb128 0xc
 575 0230 F3020000 		.4byte	.LASF24
 576 0234 01       		.byte	0x1
 577 0235 52       		.byte	0x52
 578 0236 A9000000 		.4byte	0xa9
 579 023a 67040000 		.4byte	.LLST15
 580 023e 0C       		.uleb128 0xc
 581 023f 39010000 		.4byte	.LASF38
 582 0243 01       		.byte	0x1
 583 0244 53       		.byte	0x53
 584 0245 A9000000 		.4byte	0xa9
 585 0249 86040000 		.4byte	.LLST16
 586 024d 0C       		.uleb128 0xc
 587 024e D1010000 		.4byte	.LASF39
 588 0252 01       		.byte	0x1
 589 0253 53       		.byte	0x53
 590 0254 A9000000 		.4byte	0xa9
 591 0258 F1040000 		.4byte	.LLST17
 592 025c 0D       		.uleb128 0xd
 593 025d 6B00     		.ascii	"k\000"
 594 025f 01       		.byte	0x1
 595 0260 54       		.byte	0x54
 596 0261 E2000000 		.4byte	0xe2
 597 0265 57050000 		.4byte	.LLST18
 598 0269 00       		.byte	0
 599 026a 06       		.uleb128 0x6
 600 026b 04       		.byte	0x4
 601 026c 70020000 		.4byte	0x270
 602 0270 0E       		.uleb128 0xe
 603 0271 31010000 		.4byte	0x131
 604 0275 00       		.byte	0
 605              		.section	.debug_abbrev,"",%progbits
 606              	.Ldebug_abbrev0:
 607 0000 01       		.uleb128 0x1
 608 0001 11       		.uleb128 0x11
 609 0002 01       		.byte	0x1
 610 0003 25       		.uleb128 0x25
 611 0004 0E       		.uleb128 0xe
 612 0005 13       		.uleb128 0x13
 613 0006 0B       		.uleb128 0xb
 614 0007 03       		.uleb128 0x3
 615 0008 0E       		.uleb128 0xe
 616 0009 11       		.uleb128 0x11
 617 000a 01       		.uleb128 0x1
 618 000b 12       		.uleb128 0x12
 619 000c 06       		.uleb128 0x6
 620 000d 10       		.uleb128 0x10
 621 000e 17       		.uleb128 0x17
 622 000f 00       		.byte	0
 623 0010 00       		.byte	0
 624 0011 02       		.uleb128 0x2
 625 0012 24       		.uleb128 0x24
 626 0013 00       		.byte	0
 627 0014 0B       		.uleb128 0xb
ARM GAS  /tmp/ccAY9sSr.s 			page 12


 628 0015 0B       		.uleb128 0xb
 629 0016 3E       		.uleb128 0x3e
 630 0017 0B       		.uleb128 0xb
 631 0018 03       		.uleb128 0x3
 632 0019 0E       		.uleb128 0xe
 633 001a 00       		.byte	0
 634 001b 00       		.byte	0
 635 001c 03       		.uleb128 0x3
 636 001d 16       		.uleb128 0x16
 637 001e 00       		.byte	0
 638 001f 03       		.uleb128 0x3
 639 0020 0E       		.uleb128 0xe
 640 0021 3A       		.uleb128 0x3a
 641 0022 0B       		.uleb128 0xb
 642 0023 3B       		.uleb128 0x3b
 643 0024 0B       		.uleb128 0xb
 644 0025 49       		.uleb128 0x49
 645 0026 13       		.uleb128 0x13
 646 0027 00       		.byte	0
 647 0028 00       		.byte	0
 648 0029 04       		.uleb128 0x4
 649 002a 24       		.uleb128 0x24
 650 002b 00       		.byte	0
 651 002c 0B       		.uleb128 0xb
 652 002d 0B       		.uleb128 0xb
 653 002e 3E       		.uleb128 0x3e
 654 002f 0B       		.uleb128 0xb
 655 0030 03       		.uleb128 0x3
 656 0031 08       		.uleb128 0x8
 657 0032 00       		.byte	0
 658 0033 00       		.byte	0
 659 0034 05       		.uleb128 0x5
 660 0035 16       		.uleb128 0x16
 661 0036 00       		.byte	0
 662 0037 03       		.uleb128 0x3
 663 0038 0E       		.uleb128 0xe
 664 0039 3A       		.uleb128 0x3a
 665 003a 0B       		.uleb128 0xb
 666 003b 3B       		.uleb128 0x3b
 667 003c 05       		.uleb128 0x5
 668 003d 49       		.uleb128 0x49
 669 003e 13       		.uleb128 0x13
 670 003f 00       		.byte	0
 671 0040 00       		.byte	0
 672 0041 06       		.uleb128 0x6
 673 0042 0F       		.uleb128 0xf
 674 0043 00       		.byte	0
 675 0044 0B       		.uleb128 0xb
 676 0045 0B       		.uleb128 0xb
 677 0046 49       		.uleb128 0x49
 678 0047 13       		.uleb128 0x13
 679 0048 00       		.byte	0
 680 0049 00       		.byte	0
 681 004a 07       		.uleb128 0x7
 682 004b 13       		.uleb128 0x13
 683 004c 01       		.byte	0x1
 684 004d 0B       		.uleb128 0xb
ARM GAS  /tmp/ccAY9sSr.s 			page 13


 685 004e 0B       		.uleb128 0xb
 686 004f 3A       		.uleb128 0x3a
 687 0050 0B       		.uleb128 0xb
 688 0051 3B       		.uleb128 0x3b
 689 0052 05       		.uleb128 0x5
 690 0053 01       		.uleb128 0x1
 691 0054 13       		.uleb128 0x13
 692 0055 00       		.byte	0
 693 0056 00       		.byte	0
 694 0057 08       		.uleb128 0x8
 695 0058 0D       		.uleb128 0xd
 696 0059 00       		.byte	0
 697 005a 03       		.uleb128 0x3
 698 005b 0E       		.uleb128 0xe
 699 005c 3A       		.uleb128 0x3a
 700 005d 0B       		.uleb128 0xb
 701 005e 3B       		.uleb128 0x3b
 702 005f 05       		.uleb128 0x5
 703 0060 49       		.uleb128 0x49
 704 0061 13       		.uleb128 0x13
 705 0062 38       		.uleb128 0x38
 706 0063 0B       		.uleb128 0xb
 707 0064 00       		.byte	0
 708 0065 00       		.byte	0
 709 0066 09       		.uleb128 0x9
 710 0067 2E       		.uleb128 0x2e
 711 0068 01       		.byte	0x1
 712 0069 3F       		.uleb128 0x3f
 713 006a 19       		.uleb128 0x19
 714 006b 03       		.uleb128 0x3
 715 006c 0E       		.uleb128 0xe
 716 006d 3A       		.uleb128 0x3a
 717 006e 0B       		.uleb128 0xb
 718 006f 3B       		.uleb128 0x3b
 719 0070 0B       		.uleb128 0xb
 720 0071 27       		.uleb128 0x27
 721 0072 19       		.uleb128 0x19
 722 0073 11       		.uleb128 0x11
 723 0074 01       		.uleb128 0x1
 724 0075 12       		.uleb128 0x12
 725 0076 06       		.uleb128 0x6
 726 0077 40       		.uleb128 0x40
 727 0078 18       		.uleb128 0x18
 728 0079 9742     		.uleb128 0x2117
 729 007b 19       		.uleb128 0x19
 730 007c 01       		.uleb128 0x1
 731 007d 13       		.uleb128 0x13
 732 007e 00       		.byte	0
 733 007f 00       		.byte	0
 734 0080 0A       		.uleb128 0xa
 735 0081 05       		.uleb128 0x5
 736 0082 00       		.byte	0
 737 0083 03       		.uleb128 0x3
 738 0084 08       		.uleb128 0x8
 739 0085 3A       		.uleb128 0x3a
 740 0086 0B       		.uleb128 0xb
 741 0087 3B       		.uleb128 0x3b
ARM GAS  /tmp/ccAY9sSr.s 			page 14


 742 0088 0B       		.uleb128 0xb
 743 0089 49       		.uleb128 0x49
 744 008a 13       		.uleb128 0x13
 745 008b 02       		.uleb128 0x2
 746 008c 17       		.uleb128 0x17
 747 008d 00       		.byte	0
 748 008e 00       		.byte	0
 749 008f 0B       		.uleb128 0xb
 750 0090 05       		.uleb128 0x5
 751 0091 00       		.byte	0
 752 0092 03       		.uleb128 0x3
 753 0093 0E       		.uleb128 0xe
 754 0094 3A       		.uleb128 0x3a
 755 0095 0B       		.uleb128 0xb
 756 0096 3B       		.uleb128 0x3b
 757 0097 0B       		.uleb128 0xb
 758 0098 49       		.uleb128 0x49
 759 0099 13       		.uleb128 0x13
 760 009a 02       		.uleb128 0x2
 761 009b 17       		.uleb128 0x17
 762 009c 00       		.byte	0
 763 009d 00       		.byte	0
 764 009e 0C       		.uleb128 0xc
 765 009f 34       		.uleb128 0x34
 766 00a0 00       		.byte	0
 767 00a1 03       		.uleb128 0x3
 768 00a2 0E       		.uleb128 0xe
 769 00a3 3A       		.uleb128 0x3a
 770 00a4 0B       		.uleb128 0xb
 771 00a5 3B       		.uleb128 0x3b
 772 00a6 0B       		.uleb128 0xb
 773 00a7 49       		.uleb128 0x49
 774 00a8 13       		.uleb128 0x13
 775 00a9 02       		.uleb128 0x2
 776 00aa 17       		.uleb128 0x17
 777 00ab 00       		.byte	0
 778 00ac 00       		.byte	0
 779 00ad 0D       		.uleb128 0xd
 780 00ae 34       		.uleb128 0x34
 781 00af 00       		.byte	0
 782 00b0 03       		.uleb128 0x3
 783 00b1 08       		.uleb128 0x8
 784 00b2 3A       		.uleb128 0x3a
 785 00b3 0B       		.uleb128 0xb
 786 00b4 3B       		.uleb128 0x3b
 787 00b5 0B       		.uleb128 0xb
 788 00b6 49       		.uleb128 0x49
 789 00b7 13       		.uleb128 0x13
 790 00b8 02       		.uleb128 0x2
 791 00b9 17       		.uleb128 0x17
 792 00ba 00       		.byte	0
 793 00bb 00       		.byte	0
 794 00bc 0E       		.uleb128 0xe
 795 00bd 26       		.uleb128 0x26
 796 00be 00       		.byte	0
 797 00bf 49       		.uleb128 0x49
 798 00c0 13       		.uleb128 0x13
ARM GAS  /tmp/ccAY9sSr.s 			page 15


 799 00c1 00       		.byte	0
 800 00c2 00       		.byte	0
 801 00c3 00       		.byte	0
 802              		.section	.debug_loc,"",%progbits
 803              	.Ldebug_loc0:
 804              	.LLST0:
 805 0000 00000000 		.4byte	.LVL0-.Ltext0
 806 0004 0E000000 		.4byte	.LVL1-.Ltext0
 807 0008 0100     		.2byte	0x1
 808 000a 50       		.byte	0x50
 809 000b 0E000000 		.4byte	.LVL1-.Ltext0
 810 000f 36010000 		.4byte	.LFE135-.Ltext0
 811 0013 0400     		.2byte	0x4
 812 0015 F3       		.byte	0xf3
 813 0016 01       		.uleb128 0x1
 814 0017 50       		.byte	0x50
 815 0018 9F       		.byte	0x9f
 816 0019 00000000 		.4byte	0
 817 001d 00000000 		.4byte	0
 818              	.LLST1:
 819 0021 00000000 		.4byte	.LVL0-.Ltext0
 820 0025 26000000 		.4byte	.LVL8-.Ltext0
 821 0029 0100     		.2byte	0x1
 822 002b 51       		.byte	0x51
 823 002c 26000000 		.4byte	.LVL8-.Ltext0
 824 0030 34000000 		.4byte	.LVL10-.Ltext0
 825 0034 0300     		.2byte	0x3
 826 0036 91       		.byte	0x91
 827 0037 B87F     		.sleb128 -72
 828 0039 34000000 		.4byte	.LVL10-.Ltext0
 829 003d 3E000000 		.4byte	.LVL11-.Ltext0
 830 0041 0700     		.2byte	0x7
 831 0043 91       		.byte	0x91
 832 0044 A87F     		.sleb128 -88
 833 0046 06       		.byte	0x6
 834 0047 34       		.byte	0x34
 835 0048 1C       		.byte	0x1c
 836 0049 9F       		.byte	0x9f
 837 004a 3E000000 		.4byte	.LVL11-.Ltext0
 838 004e BE000000 		.4byte	.LVL33-.Ltext0
 839 0052 0300     		.2byte	0x3
 840 0054 91       		.byte	0x91
 841 0055 A87F     		.sleb128 -88
 842 0057 D2000000 		.4byte	.LVL35-.Ltext0
 843 005b D8000000 		.4byte	.LVL36-.Ltext0
 844 005f 0300     		.2byte	0x3
 845 0061 91       		.byte	0x91
 846 0062 B87F     		.sleb128 -72
 847 0064 D8000000 		.4byte	.LVL36-.Ltext0
 848 0068 26010000 		.4byte	.LVL55-.Ltext0
 849 006c 0700     		.2byte	0x7
 850 006e 91       		.byte	0x91
 851 006f B87F     		.sleb128 -72
 852 0071 06       		.byte	0x6
 853 0072 23       		.byte	0x23
 854 0073 04       		.uleb128 0x4
 855 0074 9F       		.byte	0x9f
ARM GAS  /tmp/ccAY9sSr.s 			page 16


 856 0075 2C010000 		.4byte	.LVL56-.Ltext0
 857 0079 30010000 		.4byte	.LVL57-.Ltext0
 858 007d 0700     		.2byte	0x7
 859 007f 91       		.byte	0x91
 860 0080 B87F     		.sleb128 -72
 861 0082 06       		.byte	0x6
 862 0083 23       		.byte	0x23
 863 0084 04       		.uleb128 0x4
 864 0085 9F       		.byte	0x9f
 865 0086 30010000 		.4byte	.LVL57-.Ltext0
 866 008a 36010000 		.4byte	.LFE135-.Ltext0
 867 008e 0300     		.2byte	0x3
 868 0090 91       		.byte	0x91
 869 0091 A87F     		.sleb128 -88
 870 0093 00000000 		.4byte	0
 871 0097 00000000 		.4byte	0
 872              	.LLST2:
 873 009b 00000000 		.4byte	.LVL0-.Ltext0
 874 009f 2A000000 		.4byte	.LVL9-.Ltext0
 875 00a3 0100     		.2byte	0x1
 876 00a5 52       		.byte	0x52
 877 00a6 2A000000 		.4byte	.LVL9-.Ltext0
 878 00aa 34000000 		.4byte	.LVL10-.Ltext0
 879 00ae 0300     		.2byte	0x3
 880 00b0 91       		.byte	0x91
 881 00b1 BC7F     		.sleb128 -68
 882 00b3 D2000000 		.4byte	.LVL35-.Ltext0
 883 00b7 22010000 		.4byte	.LVL53-.Ltext0
 884 00bb 0300     		.2byte	0x3
 885 00bd 91       		.byte	0x91
 886 00be BC7F     		.sleb128 -68
 887 00c0 22010000 		.4byte	.LVL53-.Ltext0
 888 00c4 26010000 		.4byte	.LVL55-.Ltext0
 889 00c8 0700     		.2byte	0x7
 890 00ca 91       		.byte	0x91
 891 00cb BC7F     		.sleb128 -68
 892 00cd 06       		.byte	0x6
 893 00ce 23       		.byte	0x23
 894 00cf 04       		.uleb128 0x4
 895 00d0 9F       		.byte	0x9f
 896 00d1 2C010000 		.4byte	.LVL56-.Ltext0
 897 00d5 30010000 		.4byte	.LVL57-.Ltext0
 898 00d9 0300     		.2byte	0x3
 899 00db 91       		.byte	0x91
 900 00dc BC7F     		.sleb128 -68
 901 00de 00000000 		.4byte	0
 902 00e2 00000000 		.4byte	0
 903              	.LLST3:
 904 00e6 00000000 		.4byte	.LVL0-.Ltext0
 905 00ea 12000000 		.4byte	.LVL2-.Ltext0
 906 00ee 0100     		.2byte	0x1
 907 00f0 53       		.byte	0x53
 908 00f1 12000000 		.4byte	.LVL2-.Ltext0
 909 00f5 36010000 		.4byte	.LFE135-.Ltext0
 910 00f9 0200     		.2byte	0x2
 911 00fb 91       		.byte	0x91
 912 00fc 54       		.sleb128 -44
ARM GAS  /tmp/ccAY9sSr.s 			page 17


 913 00fd 00000000 		.4byte	0
 914 0101 00000000 		.4byte	0
 915              	.LLST4:
 916 0105 1A000000 		.4byte	.LVL5-.Ltext0
 917 0109 20000000 		.4byte	.LVL6-.Ltext0
 918 010d 0100     		.2byte	0x1
 919 010f 50       		.byte	0x50
 920 0110 20000000 		.4byte	.LVL6-.Ltext0
 921 0114 36010000 		.4byte	.LFE135-.Ltext0
 922 0118 0300     		.2byte	0x3
 923 011a 91       		.byte	0x91
 924 011b AC7F     		.sleb128 -84
 925 011d 00000000 		.4byte	0
 926 0121 00000000 		.4byte	0
 927              	.LLST5:
 928 0125 16000000 		.4byte	.LVL3-.Ltext0
 929 0129 22000000 		.4byte	.LVL7-.Ltext0
 930 012d 0100     		.2byte	0x1
 931 012f 54       		.byte	0x54
 932 0130 22000000 		.4byte	.LVL7-.Ltext0
 933 0134 36010000 		.4byte	.LFE135-.Ltext0
 934 0138 0300     		.2byte	0x3
 935 013a 91       		.byte	0x91
 936 013b A47F     		.sleb128 -92
 937 013d 00000000 		.4byte	0
 938 0141 00000000 		.4byte	0
 939              	.LLST6:
 940 0145 46000000 		.4byte	.LVL12-.Ltext0
 941 0149 62000000 		.4byte	.LVL15-.Ltext0
 942 014d 0100     		.2byte	0x1
 943 014f 55       		.byte	0x55
 944 0150 62000000 		.4byte	.LVL15-.Ltext0
 945 0154 66000000 		.4byte	.LVL17-.Ltext0
 946 0158 0300     		.2byte	0x3
 947 015a 91       		.byte	0x91
 948 015b AC7F     		.sleb128 -84
 949 015d 72000000 		.4byte	.LVL18-.Ltext0
 950 0161 7C000000 		.4byte	.LVL21-.Ltext0
 951 0165 0100     		.2byte	0x1
 952 0167 55       		.byte	0x55
 953 0168 7C000000 		.4byte	.LVL21-.Ltext0
 954 016c A0000000 		.4byte	.LVL28-.Ltext0
 955 0170 0300     		.2byte	0x3
 956 0172 75       		.byte	0x75
 957 0173 7C       		.sleb128 -4
 958 0174 9F       		.byte	0x9f
 959 0175 A0000000 		.4byte	.LVL28-.Ltext0
 960 0179 A4000000 		.4byte	.LVL29-.Ltext0
 961 017d 0100     		.2byte	0x1
 962 017f 55       		.byte	0x55
 963 0180 E0000000 		.4byte	.LVL37-.Ltext0
 964 0184 E6000000 		.4byte	.LVL38-.Ltext0
 965 0188 0100     		.2byte	0x1
 966 018a 51       		.byte	0x51
 967 018b E6000000 		.4byte	.LVL38-.Ltext0
 968 018f FE000000 		.4byte	.LVL42-.Ltext0
 969 0193 0100     		.2byte	0x1
ARM GAS  /tmp/ccAY9sSr.s 			page 18


 970 0195 55       		.byte	0x55
 971 0196 FE000000 		.4byte	.LVL42-.Ltext0
 972 019a 0C010000 		.4byte	.LVL47-.Ltext0
 973 019e 0100     		.2byte	0x1
 974 01a0 51       		.byte	0x51
 975 01a1 0C010000 		.4byte	.LVL47-.Ltext0
 976 01a5 1E010000 		.4byte	.LVL52-.Ltext0
 977 01a9 0300     		.2byte	0x3
 978 01ab 71       		.byte	0x71
 979 01ac 7C       		.sleb128 -4
 980 01ad 9F       		.byte	0x9f
 981 01ae 1E010000 		.4byte	.LVL52-.Ltext0
 982 01b2 26010000 		.4byte	.LVL55-.Ltext0
 983 01b6 0100     		.2byte	0x1
 984 01b8 51       		.byte	0x51
 985 01b9 2C010000 		.4byte	.LVL56-.Ltext0
 986 01bd 30010000 		.4byte	.LVL57-.Ltext0
 987 01c1 0100     		.2byte	0x1
 988 01c3 51       		.byte	0x51
 989 01c4 00000000 		.4byte	0
 990 01c8 00000000 		.4byte	0
 991              	.LLST7:
 992 01cc 72000000 		.4byte	.LVL18-.Ltext0
 993 01d0 76000000 		.4byte	.LVL19-.Ltext0
 994 01d4 0100     		.2byte	0x1
 995 01d6 5E       		.byte	0x5e
 996 01d7 76000000 		.4byte	.LVL19-.Ltext0
 997 01db A0000000 		.4byte	.LVL28-.Ltext0
 998 01df 0300     		.2byte	0x3
 999 01e1 7E       		.byte	0x7e
 1000 01e2 7C       		.sleb128 -4
 1001 01e3 9F       		.byte	0x9f
 1002 01e4 A0000000 		.4byte	.LVL28-.Ltext0
 1003 01e8 A4000000 		.4byte	.LVL29-.Ltext0
 1004 01ec 0100     		.2byte	0x1
 1005 01ee 5E       		.byte	0x5e
 1006 01ef E0000000 		.4byte	.LVL37-.Ltext0
 1007 01f3 F4000000 		.4byte	.LVL39-.Ltext0
 1008 01f7 0300     		.2byte	0x3
 1009 01f9 91       		.byte	0x91
 1010 01fa A47F     		.sleb128 -92
 1011 01fc F4000000 		.4byte	.LVL39-.Ltext0
 1012 0200 06010000 		.4byte	.LVL45-.Ltext0
 1013 0204 0100     		.2byte	0x1
 1014 0206 54       		.byte	0x54
 1015 0207 06010000 		.4byte	.LVL45-.Ltext0
 1016 020b 1E010000 		.4byte	.LVL52-.Ltext0
 1017 020f 0300     		.2byte	0x3
 1018 0211 74       		.byte	0x74
 1019 0212 7C       		.sleb128 -4
 1020 0213 9F       		.byte	0x9f
 1021 0214 1E010000 		.4byte	.LVL52-.Ltext0
 1022 0218 26010000 		.4byte	.LVL55-.Ltext0
 1023 021c 0100     		.2byte	0x1
 1024 021e 54       		.byte	0x54
 1025 021f 2C010000 		.4byte	.LVL56-.Ltext0
 1026 0223 30010000 		.4byte	.LVL57-.Ltext0
ARM GAS  /tmp/ccAY9sSr.s 			page 19


 1027 0227 0100     		.2byte	0x1
 1028 0229 54       		.byte	0x54
 1029 022a 00000000 		.4byte	0
 1030 022e 00000000 		.4byte	0
 1031              	.LLST8:
 1032 0232 3E000000 		.4byte	.LVL11-.Ltext0
 1033 0236 5C000000 		.4byte	.LVL14-.Ltext0
 1034 023a 0100     		.2byte	0x1
 1035 023c 51       		.byte	0x51
 1036 023d 66000000 		.4byte	.LVL17-.Ltext0
 1037 0241 9C000000 		.4byte	.LVL27-.Ltext0
 1038 0245 0100     		.2byte	0x1
 1039 0247 52       		.byte	0x52
 1040 0248 A0000000 		.4byte	.LVL28-.Ltext0
 1041 024c A4000000 		.4byte	.LVL29-.Ltext0
 1042 0250 0100     		.2byte	0x1
 1043 0252 5C       		.byte	0x5c
 1044 0253 A4000000 		.4byte	.LVL29-.Ltext0
 1045 0257 A6000000 		.4byte	.LVL30-.Ltext0
 1046 025b 0100     		.2byte	0x1
 1047 025d 52       		.byte	0x52
 1048 025e A6000000 		.4byte	.LVL30-.Ltext0
 1049 0262 D2000000 		.4byte	.LVL35-.Ltext0
 1050 0266 0100     		.2byte	0x1
 1051 0268 5C       		.byte	0x5c
 1052 0269 E0000000 		.4byte	.LVL37-.Ltext0
 1053 026d FA000000 		.4byte	.LVL41-.Ltext0
 1054 0271 0100     		.2byte	0x1
 1055 0273 52       		.byte	0x52
 1056 0274 FA000000 		.4byte	.LVL41-.Ltext0
 1057 0278 FE000000 		.4byte	.LVL42-.Ltext0
 1058 027c 0200     		.2byte	0x2
 1059 027e 75       		.byte	0x75
 1060 027f 00       		.sleb128 0
 1061 0280 FE000000 		.4byte	.LVL42-.Ltext0
 1062 0284 1E010000 		.4byte	.LVL52-.Ltext0
 1063 0288 0100     		.2byte	0x1
 1064 028a 53       		.byte	0x53
 1065 028b 1E010000 		.4byte	.LVL52-.Ltext0
 1066 028f 22010000 		.4byte	.LVL53-.Ltext0
 1067 0293 0100     		.2byte	0x1
 1068 0295 57       		.byte	0x57
 1069 0296 22010000 		.4byte	.LVL53-.Ltext0
 1070 029a 24010000 		.4byte	.LVL54-.Ltext0
 1071 029e 0100     		.2byte	0x1
 1072 02a0 53       		.byte	0x53
 1073 02a1 24010000 		.4byte	.LVL54-.Ltext0
 1074 02a5 26010000 		.4byte	.LVL55-.Ltext0
 1075 02a9 0100     		.2byte	0x1
 1076 02ab 57       		.byte	0x57
 1077 02ac 2C010000 		.4byte	.LVL56-.Ltext0
 1078 02b0 30010000 		.4byte	.LVL57-.Ltext0
 1079 02b4 0100     		.2byte	0x1
 1080 02b6 53       		.byte	0x53
 1081 02b7 30010000 		.4byte	.LVL57-.Ltext0
 1082 02bb 36010000 		.4byte	.LFE135-.Ltext0
 1083 02bf 0100     		.2byte	0x1
ARM GAS  /tmp/ccAY9sSr.s 			page 20


 1084 02c1 52       		.byte	0x52
 1085 02c2 00000000 		.4byte	0
 1086 02c6 00000000 		.4byte	0
 1087              	.LLST9:
 1088 02ca 62000000 		.4byte	.LVL15-.Ltext0
 1089 02ce 7C000000 		.4byte	.LVL21-.Ltext0
 1090 02d2 0100     		.2byte	0x1
 1091 02d4 52       		.byte	0x52
 1092 02d5 88000000 		.4byte	.LVL22-.Ltext0
 1093 02d9 A4000000 		.4byte	.LVL29-.Ltext0
 1094 02dd 0100     		.2byte	0x1
 1095 02df 5C       		.byte	0x5c
 1096 02e0 A4000000 		.4byte	.LVL29-.Ltext0
 1097 02e4 A6000000 		.4byte	.LVL30-.Ltext0
 1098 02e8 0100     		.2byte	0x1
 1099 02ea 52       		.byte	0x52
 1100 02eb A6000000 		.4byte	.LVL30-.Ltext0
 1101 02ef D2000000 		.4byte	.LVL35-.Ltext0
 1102 02f3 0100     		.2byte	0x1
 1103 02f5 5C       		.byte	0x5c
 1104 02f6 F8000000 		.4byte	.LVL40-.Ltext0
 1105 02fa 0C010000 		.4byte	.LVL47-.Ltext0
 1106 02fe 0100     		.2byte	0x1
 1107 0300 53       		.byte	0x53
 1108 0301 14010000 		.4byte	.LVL49-.Ltext0
 1109 0305 22010000 		.4byte	.LVL53-.Ltext0
 1110 0309 0100     		.2byte	0x1
 1111 030b 57       		.byte	0x57
 1112 030c 22010000 		.4byte	.LVL53-.Ltext0
 1113 0310 24010000 		.4byte	.LVL54-.Ltext0
 1114 0314 0100     		.2byte	0x1
 1115 0316 53       		.byte	0x53
 1116 0317 24010000 		.4byte	.LVL54-.Ltext0
 1117 031b 26010000 		.4byte	.LVL55-.Ltext0
 1118 031f 0100     		.2byte	0x1
 1119 0321 57       		.byte	0x57
 1120 0322 2C010000 		.4byte	.LVL56-.Ltext0
 1121 0326 30010000 		.4byte	.LVL57-.Ltext0
 1122 032a 0100     		.2byte	0x1
 1123 032c 53       		.byte	0x53
 1124 032d 30010000 		.4byte	.LVL57-.Ltext0
 1125 0331 36010000 		.4byte	.LFE135-.Ltext0
 1126 0335 0100     		.2byte	0x1
 1127 0337 52       		.byte	0x52
 1128 0338 00000000 		.4byte	0
 1129 033c 00000000 		.4byte	0
 1130              	.LLST10:
 1131 0340 16000000 		.4byte	.LVL3-.Ltext0
 1132 0344 34000000 		.4byte	.LVL10-.Ltext0
 1133 0348 0200     		.2byte	0x2
 1134 034a 30       		.byte	0x30
 1135 034b 9F       		.byte	0x9f
 1136 034c 46000000 		.4byte	.LVL12-.Ltext0
 1137 0350 64000000 		.4byte	.LVL16-.Ltext0
 1138 0354 0100     		.2byte	0x1
 1139 0356 54       		.byte	0x54
 1140 0357 78000000 		.4byte	.LVL20-.Ltext0
ARM GAS  /tmp/ccAY9sSr.s 			page 21


 1141 035b A4000000 		.4byte	.LVL29-.Ltext0
 1142 035f 0100     		.2byte	0x1
 1143 0361 57       		.byte	0x57
 1144 0362 E6000000 		.4byte	.LVL38-.Ltext0
 1145 0366 00010000 		.4byte	.LVL43-.Ltext0
 1146 036a 0100     		.2byte	0x1
 1147 036c 50       		.byte	0x50
 1148 036d 08010000 		.4byte	.LVL46-.Ltext0
 1149 0371 22010000 		.4byte	.LVL53-.Ltext0
 1150 0375 0100     		.2byte	0x1
 1151 0377 55       		.byte	0x55
 1152 0378 00000000 		.4byte	0
 1153 037c 00000000 		.4byte	0
 1154              	.LLST11:
 1155 0380 64000000 		.4byte	.LVL16-.Ltext0
 1156 0384 9A000000 		.4byte	.LVL26-.Ltext0
 1157 0388 0100     		.2byte	0x1
 1158 038a 54       		.byte	0x54
 1159 038b A0000000 		.4byte	.LVL28-.Ltext0
 1160 038f D2000000 		.4byte	.LVL35-.Ltext0
 1161 0393 0100     		.2byte	0x1
 1162 0395 54       		.byte	0x54
 1163 0396 FE000000 		.4byte	.LVL42-.Ltext0
 1164 039a 10010000 		.4byte	.LVL48-.Ltext0
 1165 039e 0100     		.2byte	0x1
 1166 03a0 56       		.byte	0x56
 1167 03a1 10010000 		.4byte	.LVL48-.Ltext0
 1168 03a5 14010000 		.4byte	.LVL49-.Ltext0
 1169 03a9 0200     		.2byte	0x2
 1170 03ab 71       		.byte	0x71
 1171 03ac 7C       		.sleb128 -4
 1172 03ad 1E010000 		.4byte	.LVL52-.Ltext0
 1173 03b1 26010000 		.4byte	.LVL55-.Ltext0
 1174 03b5 0100     		.2byte	0x1
 1175 03b7 56       		.byte	0x56
 1176 03b8 2C010000 		.4byte	.LVL56-.Ltext0
 1177 03bc 30010000 		.4byte	.LVL57-.Ltext0
 1178 03c0 0100     		.2byte	0x1
 1179 03c2 56       		.byte	0x56
 1180 03c3 30010000 		.4byte	.LVL57-.Ltext0
 1181 03c7 36010000 		.4byte	.LFE135-.Ltext0
 1182 03cb 0100     		.2byte	0x1
 1183 03cd 54       		.byte	0x54
 1184 03ce 00000000 		.4byte	0
 1185 03d2 00000000 		.4byte	0
 1186              	.LLST12:
 1187 03d6 46000000 		.4byte	.LVL12-.Ltext0
 1188 03da 94000000 		.4byte	.LVL24-.Ltext0
 1189 03de 0100     		.2byte	0x1
 1190 03e0 50       		.byte	0x50
 1191 03e1 A0000000 		.4byte	.LVL28-.Ltext0
 1192 03e5 A4000000 		.4byte	.LVL29-.Ltext0
 1193 03e9 0100     		.2byte	0x1
 1194 03eb 58       		.byte	0x58
 1195 03ec A4000000 		.4byte	.LVL29-.Ltext0
 1196 03f0 D2000000 		.4byte	.LVL35-.Ltext0
 1197 03f4 0100     		.2byte	0x1
ARM GAS  /tmp/ccAY9sSr.s 			page 22


 1198 03f6 50       		.byte	0x50
 1199 03f7 30010000 		.4byte	.LVL57-.Ltext0
 1200 03fb 36010000 		.4byte	.LFE135-.Ltext0
 1201 03ff 0100     		.2byte	0x1
 1202 0401 50       		.byte	0x50
 1203 0402 00000000 		.4byte	0
 1204 0406 00000000 		.4byte	0
 1205              	.LLST13:
 1206 040a 66000000 		.4byte	.LVL17-.Ltext0
 1207 040e 7C000000 		.4byte	.LVL21-.Ltext0
 1208 0412 0100     		.2byte	0x1
 1209 0414 50       		.byte	0x50
 1210 0415 8C000000 		.4byte	.LVL23-.Ltext0
 1211 0419 A4000000 		.4byte	.LVL29-.Ltext0
 1212 041d 0100     		.2byte	0x1
 1213 041f 58       		.byte	0x58
 1214 0420 A4000000 		.4byte	.LVL29-.Ltext0
 1215 0424 D2000000 		.4byte	.LVL35-.Ltext0
 1216 0428 0100     		.2byte	0x1
 1217 042a 50       		.byte	0x50
 1218 042b 30010000 		.4byte	.LVL57-.Ltext0
 1219 042f 36010000 		.4byte	.LFE135-.Ltext0
 1220 0433 0100     		.2byte	0x1
 1221 0435 50       		.byte	0x50
 1222 0436 00000000 		.4byte	0
 1223 043a 00000000 		.4byte	0
 1224              	.LLST14:
 1225 043e 66000000 		.4byte	.LVL17-.Ltext0
 1226 0442 8C000000 		.4byte	.LVL23-.Ltext0
 1227 0446 0100     		.2byte	0x1
 1228 0448 51       		.byte	0x51
 1229 0449 9A000000 		.4byte	.LVL26-.Ltext0
 1230 044d D2000000 		.4byte	.LVL35-.Ltext0
 1231 0451 0100     		.2byte	0x1
 1232 0453 51       		.byte	0x51
 1233 0454 30010000 		.4byte	.LVL57-.Ltext0
 1234 0458 36010000 		.4byte	.LFE135-.Ltext0
 1235 045c 0100     		.2byte	0x1
 1236 045e 51       		.byte	0x51
 1237 045f 00000000 		.4byte	0
 1238 0463 00000000 		.4byte	0
 1239              	.LLST15:
 1240 0467 18000000 		.4byte	.LVL4-.Ltext0
 1241 046b 34000000 		.4byte	.LVL10-.Ltext0
 1242 046f 0100     		.2byte	0x1
 1243 0471 55       		.byte	0x55
 1244 0472 34000000 		.4byte	.LVL10-.Ltext0
 1245 0476 36010000 		.4byte	.LFE135-.Ltext0
 1246 047a 0200     		.2byte	0x2
 1247 047c 91       		.byte	0x91
 1248 047d 40       		.sleb128 -64
 1249 047e 00000000 		.4byte	0
 1250 0482 00000000 		.4byte	0
 1251              	.LLST16:
 1252 0486 34000000 		.4byte	.LVL10-.Ltext0
 1253 048a AE000000 		.4byte	.LVL31-.Ltext0
 1254 048e 0300     		.2byte	0x3
ARM GAS  /tmp/ccAY9sSr.s 			page 23


 1255 0490 91       		.byte	0x91
 1256 0491 B07F     		.sleb128 -80
 1257 0493 AE000000 		.4byte	.LVL31-.Ltext0
 1258 0497 BC000000 		.4byte	.LVL32-.Ltext0
 1259 049b 0700     		.2byte	0x7
 1260 049d 91       		.byte	0x91
 1261 049e B07F     		.sleb128 -80
 1262 04a0 06       		.byte	0x6
 1263 04a1 31       		.byte	0x31
 1264 04a2 1C       		.byte	0x1c
 1265 04a3 9F       		.byte	0x9f
 1266 04a4 BC000000 		.4byte	.LVL32-.Ltext0
 1267 04a8 C4000000 		.4byte	.LVL34-.Ltext0
 1268 04ac 0100     		.2byte	0x1
 1269 04ae 53       		.byte	0x53
 1270 04af C4000000 		.4byte	.LVL34-.Ltext0
 1271 04b3 D2000000 		.4byte	.LVL35-.Ltext0
 1272 04b7 0300     		.2byte	0x3
 1273 04b9 91       		.byte	0x91
 1274 04ba B07F     		.sleb128 -80
 1275 04bc D2000000 		.4byte	.LVL35-.Ltext0
 1276 04c0 26010000 		.4byte	.LVL55-.Ltext0
 1277 04c4 0600     		.2byte	0x6
 1278 04c6 91       		.byte	0x91
 1279 04c7 54       		.sleb128 -44
 1280 04c8 06       		.byte	0x6
 1281 04c9 31       		.byte	0x31
 1282 04ca 1A       		.byte	0x1a
 1283 04cb 9F       		.byte	0x9f
 1284 04cc 2C010000 		.4byte	.LVL56-.Ltext0
 1285 04d0 30010000 		.4byte	.LVL57-.Ltext0
 1286 04d4 0600     		.2byte	0x6
 1287 04d6 91       		.byte	0x91
 1288 04d7 54       		.sleb128 -44
 1289 04d8 06       		.byte	0x6
 1290 04d9 31       		.byte	0x31
 1291 04da 1A       		.byte	0x1a
 1292 04db 9F       		.byte	0x9f
 1293 04dc 30010000 		.4byte	.LVL57-.Ltext0
 1294 04e0 36010000 		.4byte	.LFE135-.Ltext0
 1295 04e4 0300     		.2byte	0x3
 1296 04e6 91       		.byte	0x91
 1297 04e7 B07F     		.sleb128 -80
 1298 04e9 00000000 		.4byte	0
 1299 04ed 00000000 		.4byte	0
 1300              	.LLST17:
 1301 04f1 66000000 		.4byte	.LVL17-.Ltext0
 1302 04f5 72000000 		.4byte	.LVL18-.Ltext0
 1303 04f9 0100     		.2byte	0x1
 1304 04fb 53       		.byte	0x53
 1305 04fc 72000000 		.4byte	.LVL18-.Ltext0
 1306 0500 96000000 		.4byte	.LVL25-.Ltext0
 1307 0504 0100     		.2byte	0x1
 1308 0506 56       		.byte	0x56
 1309 0507 96000000 		.4byte	.LVL25-.Ltext0
 1310 050b A0000000 		.4byte	.LVL28-.Ltext0
 1311 050f 0300     		.2byte	0x3
ARM GAS  /tmp/ccAY9sSr.s 			page 24


 1312 0511 76       		.byte	0x76
 1313 0512 01       		.sleb128 1
 1314 0513 9F       		.byte	0x9f
 1315 0514 FE000000 		.4byte	.LVL42-.Ltext0
 1316 0518 00010000 		.4byte	.LVL43-.Ltext0
 1317 051c 0300     		.2byte	0x3
 1318 051e 72       		.byte	0x72
 1319 051f 7F       		.sleb128 -1
 1320 0520 9F       		.byte	0x9f
 1321 0521 00010000 		.4byte	.LVL43-.Ltext0
 1322 0525 16010000 		.4byte	.LVL50-.Ltext0
 1323 0529 0100     		.2byte	0x1
 1324 052b 50       		.byte	0x50
 1325 052c 16010000 		.4byte	.LVL50-.Ltext0
 1326 0530 1E010000 		.4byte	.LVL52-.Ltext0
 1327 0534 0300     		.2byte	0x3
 1328 0536 70       		.byte	0x70
 1329 0537 01       		.sleb128 1
 1330 0538 9F       		.byte	0x9f
 1331 0539 2C010000 		.4byte	.LVL56-.Ltext0
 1332 053d 30010000 		.4byte	.LVL57-.Ltext0
 1333 0541 0100     		.2byte	0x1
 1334 0543 50       		.byte	0x50
 1335 0544 30010000 		.4byte	.LVL57-.Ltext0
 1336 0548 36010000 		.4byte	.LFE135-.Ltext0
 1337 054c 0100     		.2byte	0x1
 1338 054e 53       		.byte	0x53
 1339 054f 00000000 		.4byte	0
 1340 0553 00000000 		.4byte	0
 1341              	.LLST18:
 1342 0557 46000000 		.4byte	.LVL12-.Ltext0
 1343 055b 54000000 		.4byte	.LVL13-.Ltext0
 1344 055f 0100     		.2byte	0x1
 1345 0561 52       		.byte	0x52
 1346 0562 76000000 		.4byte	.LVL19-.Ltext0
 1347 0566 A4000000 		.4byte	.LVL29-.Ltext0
 1348 056a 0100     		.2byte	0x1
 1349 056c 53       		.byte	0x53
 1350 056d 06010000 		.4byte	.LVL45-.Ltext0
 1351 0571 1A010000 		.4byte	.LVL51-.Ltext0
 1352 0575 0100     		.2byte	0x1
 1353 0577 52       		.byte	0x52
 1354 0578 00000000 		.4byte	0
 1355 057c 00000000 		.4byte	0
 1356              		.section	.debug_aranges,"",%progbits
 1357 0000 1C000000 		.4byte	0x1c
 1358 0004 0200     		.2byte	0x2
 1359 0006 00000000 		.4byte	.Ldebug_info0
 1360 000a 04       		.byte	0x4
 1361 000b 00       		.byte	0
 1362 000c 0000     		.2byte	0
 1363 000e 0000     		.2byte	0
 1364 0010 00000000 		.4byte	.Ltext0
 1365 0014 36010000 		.4byte	.Letext0-.Ltext0
 1366 0018 00000000 		.4byte	0
 1367 001c 00000000 		.4byte	0
 1368              		.section	.debug_line,"",%progbits
ARM GAS  /tmp/ccAY9sSr.s 			page 25


 1369              	.Ldebug_line0:
 1370 0000 17020000 		.section	.debug_str,"MS",%progbits,1
 1370      02005901 
 1370      00000201 
 1370      FB0E0D00 
 1370      01010101 
 1371              	.LASF40:
 1372 0000 474E5520 		.ascii	"GNU C 4.9.3 20150529 (release) [ARM/embedded-4_9-br"
 1372      4320342E 
 1372      392E3320 
 1372      32303135 
 1372      30353239 
 1373 0033 616E6368 		.ascii	"anch revision 224288] -mcpu=cortex-m4 -mfloat-abi=h"
 1373      20726576 
 1373      6973696F 
 1373      6E203232 
 1373      34323838 
 1374 0066 61726420 		.ascii	"ard -mfpu=fpv4-sp-d16 -mno-thumb-interwork -mthumb "
 1374      2D6D6670 
 1374      753D6670 
 1374      76342D73 
 1374      702D6431 
 1375 0099 2D676764 		.ascii	"-ggdb -O2 -fomit-frame-pointer -falign-functions=16"
 1375      62202D4F 
 1375      32202D66 
 1375      6F6D6974 
 1375      2D667261 
 1376 00cc 202D666E 		.ascii	" -fno-math-errno -fsingle-precision-constant\000"
 1376      6F2D6D61 
 1376      74682D65 
 1376      72726E6F 
 1376      202D6673 
 1377              	.LASF25:
 1378 00f9 70537461 		.ascii	"pState\000"
 1378      746500
 1379              	.LASF5:
 1380 0100 5F5F696E 		.ascii	"__int32_t\000"
 1380      7433325F 
 1380      7400
 1381              	.LASF34:
 1382 010a 676E6578 		.ascii	"gnext1\000"
 1382      743100
 1383              	.LASF37:
 1384 0111 676E6578 		.ascii	"gnext2\000"
 1384      743200
 1385              	.LASF32:
 1386 0118 666E6578 		.ascii	"fnext1\000"
 1386      743100
 1387              	.LASF20:
 1388 011f 666C6F61 		.ascii	"float\000"
 1388      7400
 1389              	.LASF22:
 1390 0125 7133315F 		.ascii	"q31_t\000"
 1390      7400
 1391              	.LASF1:
 1392 012b 756E7369 		.ascii	"unsigned char\000"
 1392      676E6564 
ARM GAS  /tmp/ccAY9sSr.s 			page 26


 1392      20636861 
 1392      7200
 1393              	.LASF38:
 1394 0139 626C6B43 		.ascii	"blkCnt\000"
 1394      6E7400
 1395              	.LASF8:
 1396 0140 6C6F6E67 		.ascii	"long unsigned int\000"
 1396      20756E73 
 1396      69676E65 
 1396      6420696E 
 1396      7400
 1397              	.LASF3:
 1398 0152 73686F72 		.ascii	"short unsigned int\000"
 1398      7420756E 
 1398      7369676E 
 1398      65642069 
 1398      6E7400
 1399              	.LASF16:
 1400 0165 696E7436 		.ascii	"int64_t\000"
 1400      345F7400 
 1401              	.LASF29:
 1402 016d 70447374 		.ascii	"pDst\000"
 1402      00
 1403              	.LASF31:
 1404 0172 66637572 		.ascii	"fcurr1\000"
 1404      723100
 1405              	.LASF35:
 1406 0179 66637572 		.ascii	"fcurr2\000"
 1406      723200
 1407              	.LASF9:
 1408 0180 5F5F696E 		.ascii	"__int64_t\000"
 1408      7436345F 
 1408      7400
 1409              	.LASF4:
 1410 018a 5F5F7569 		.ascii	"__uint16_t\000"
 1410      6E743136 
 1410      5F7400
 1411              	.LASF19:
 1412 0195 646F7562 		.ascii	"double\000"
 1412      6C6500
 1413              	.LASF7:
 1414 019c 5F5F7569 		.ascii	"__uint32_t\000"
 1414      6E743332 
 1414      5F7400
 1415              	.LASF12:
 1416 01a7 756E7369 		.ascii	"unsigned int\000"
 1416      676E6564 
 1416      20696E74 
 1416      00
 1417              	.LASF11:
 1418 01b4 6C6F6E67 		.ascii	"long long unsigned int\000"
 1418      206C6F6E 
 1418      6720756E 
 1418      7369676E 
 1418      65642069 
 1419              	.LASF23:
 1420 01cb 7136335F 		.ascii	"q63_t\000"
ARM GAS  /tmp/ccAY9sSr.s 			page 27


 1420      7400
 1421              	.LASF39:
 1422 01d1 73746167 		.ascii	"stageCnt\000"
 1422      65436E74 
 1422      00
 1423              	.LASF14:
 1424 01da 696E7433 		.ascii	"int32_t\000"
 1424      325F7400 
 1425              	.LASF17:
 1426 01e2 73697A65 		.ascii	"sizetype\000"
 1426      74797065 
 1426      00
 1427              	.LASF27:
 1428 01eb 61726D5F 		.ascii	"arm_fir_lattice_instance_q31\000"
 1428      6669725F 
 1428      6C617474 
 1428      6963655F 
 1428      696E7374 
 1429              	.LASF10:
 1430 0208 6C6F6E67 		.ascii	"long long int\000"
 1430      206C6F6E 
 1430      6720696E 
 1430      7400
 1431              	.LASF30:
 1432 0216 626C6F63 		.ascii	"blockSize\000"
 1432      6B53697A 
 1432      6500
 1433              	.LASF18:
 1434 0220 63686172 		.ascii	"char\000"
 1434      00
 1435              	.LASF41:
 1436 0225 2F645F64 		.ascii	"/d_drive/axoloti/platform_linux/../CMSIS//DSP_Lib/S"
 1436      72697665 
 1436      2F61786F 
 1436      6C6F7469 
 1436      2F706C61 
 1437 0258 6F757263 		.ascii	"ource/FilteringFunctions/arm_fir_lattice_q31.c\000"
 1437      652F4669 
 1437      6C746572 
 1437      696E6746 
 1437      756E6374 
 1438              	.LASF33:
 1439 0287 67637572 		.ascii	"gcurr1\000"
 1439      723100
 1440              	.LASF42:
 1441 028e 61726D5F 		.ascii	"arm_fir_lattice_q31\000"
 1441      6669725F 
 1441      6C617474 
 1441      6963655F 
 1441      71333100 
 1442              	.LASF2:
 1443 02a2 73686F72 		.ascii	"short int\000"
 1443      7420696E 
 1443      7400
 1444              	.LASF13:
 1445 02ac 75696E74 		.ascii	"uint16_t\000"
 1445      31365F74 
ARM GAS  /tmp/ccAY9sSr.s 			page 28


 1445      00
 1446              	.LASF36:
 1447 02b5 666E6578 		.ascii	"fnext2\000"
 1447      743200
 1448              	.LASF26:
 1449 02bc 70436F65 		.ascii	"pCoeffs\000"
 1449      66667300 
 1450              	.LASF15:
 1451 02c4 75696E74 		.ascii	"uint32_t\000"
 1451      33325F74 
 1451      00
 1452              	.LASF6:
 1453 02cd 6C6F6E67 		.ascii	"long int\000"
 1453      20696E74 
 1453      00
 1454              	.LASF21:
 1455 02d6 6C6F6E67 		.ascii	"long double\000"
 1455      20646F75 
 1455      626C6500 
 1456              	.LASF0:
 1457 02e2 7369676E 		.ascii	"signed char\000"
 1457      65642063 
 1457      68617200 
 1458              	.LASF28:
 1459 02ee 70537263 		.ascii	"pSrc\000"
 1459      00
 1460              	.LASF24:
 1461 02f3 6E756D53 		.ascii	"numStages\000"
 1461      74616765 
 1461      7300
 1462              		.ident	"GCC: (GNU Tools for ARM Embedded Processors) 4.9.3 20150529 (release) [ARM/embedded-4_9-br
ARM GAS  /tmp/ccAY9sSr.s 			page 29


DEFINED SYMBOLS
                            *ABS*:00000000 arm_fir_lattice_q31.c
     /tmp/ccAY9sSr.s:20     .text:00000000 $t
     /tmp/ccAY9sSr.s:26     .text:00000000 arm_fir_lattice_q31
                     .debug_frame:00000010 $d

NO UNDEFINED SYMBOLS
