ARM GAS  /tmp/ccD3cEQM.s 			page 1


   1              		.syntax unified
   2              		.cpu cortex-m4
   3              		.eabi_attribute 27, 1
   4              		.eabi_attribute 28, 1
   5              		.fpu fpv4-sp-d16
   6              		.eabi_attribute 20, 1
   7              		.eabi_attribute 21, 1
   8              		.eabi_attribute 23, 3
   9              		.eabi_attribute 24, 1
  10              		.eabi_attribute 25, 1
  11              		.eabi_attribute 26, 1
  12              		.eabi_attribute 30, 2
  13              		.eabi_attribute 34, 1
  14              		.eabi_attribute 18, 4
  15              		.thumb
  16              		.file	"arm_rfft_q31.c"
  17              		.text
  18              	.Ltext0:
  19              		.cfi_sections	.debug_frame
  20              		.align	2
  21              		.p2align 4,,15
  22              		.global	arm_split_rfft_q31
  23              		.thumb
  24              		.thumb_func
  25              		.type	arm_split_rfft_q31, %function
  26              	arm_split_rfft_q31:
  27              	.LFB136:
  28              		.file 1 "/home/sbcu/Dropbox/pcb-layouts/axo-on-discovery-board/axoloti/platform_linux/../CMSIS//DS
  29              		.loc 1 145 0
  30              		.cfi_startproc
  31              		@ args = 8, pretend = 0, frame = 16
  32              		@ frame_needed = 0, uses_anonymous_args = 0
  33              	.LVL0:
  34 0000 2DE9F04F 		push	{r4, r5, r6, r7, r8, r9, r10, fp, lr}
  35              		.cfi_def_cfa_offset 36
  36              		.cfi_offset 4, -36
  37              		.cfi_offset 5, -32
  38              		.cfi_offset 6, -28
  39              		.cfi_offset 7, -24
  40              		.cfi_offset 8, -20
  41              		.cfi_offset 9, -16
  42              		.cfi_offset 10, -12
  43              		.cfi_offset 11, -8
  44              		.cfi_offset 14, -4
  45 0004 85B0     		sub	sp, sp, #20
  46              		.cfi_def_cfa_offset 56
  47              	.LVL1:
  48              		.loc 1 159 0
  49 0006 B1F1010A 		subs	r10, r1, #1
  50              		.loc 1 145 0
  51 000a 0F9C     		ldr	r4, [sp, #60]
  52 000c 0290     		str	r0, [sp, #8]
  53              		.loc 1 154 0
  54 000e 4FEAC409 		lsl	r9, r4, #3
  55              		.loc 1 151 0
  56 0012 4FEAC100 		lsl	r0, r1, #3
  57              	.LVL2:
ARM GAS  /tmp/ccD3cEQM.s 			page 2


  58              		.loc 1 145 0
  59 0016 0391     		str	r1, [sp, #12]
  60              		.loc 1 154 0
  61 0018 4A44     		add	r2, r2, r9
  62              	.LVL3:
  63              		.loc 1 155 0
  64 001a 4B44     		add	r3, r3, r9
  65              	.LVL4:
  66              		.loc 1 150 0
  67 001c 4FEA0117 		lsl	r7, r1, #4
  68              	.LVL5:
  69              		.loc 1 151 0
  70 0020 0190     		str	r0, [sp, #4]
  71              	.LVL6:
  72              		.loc 1 159 0
  73 0022 3DD0     		beq	.L4
  74 0024 0199     		ldr	r1, [sp, #4]
  75              	.LVL7:
  76 0026 0298     		ldr	r0, [sp, #8]
  77              	.LVL8:
  78 0028 A1F10C0E 		sub	lr, r1, #12
  79 002c 0E99     		ldr	r1, [sp, #56]
  80              	.LVL9:
  81 002e 0C3F     		subs	r7, r7, #12
  82              	.LVL10:
  83 0030 0F44     		add	r7, r7, r1
  84              	.LVL11:
  85 0032 0E99     		ldr	r1, [sp, #56]
  86 0034 8644     		add	lr, lr, r0
  87 0036 00F11008 		add	r8, r0, #16
  88 003a 01F1100C 		add	ip, r1, #16
  89 003e 0026     		movs	r6, #0
  90              	.LVL12:
  91              	.L3:
  92 0040 9119     		adds	r1, r2, r6
  93              	.LVL13:
  94              		.loc 1 171 0
  95 0042 52F806B0 		ldr	fp, [r2, r6]
  96              	.LVL14:
  97              		.loc 1 172 0
  98 0046 4868     		ldr	r0, [r1, #4]
  99              	.LVL15:
 100              		.loc 1 175 0
 101 0048 58F8084C 		ldr	r4, [r8, #-8]
 102              	@ 175 "/home/sbcu/Dropbox/pcb-layouts/axo-on-discovery-board/axoloti/platform_linux/../CMSIS//DSP_L
 103 004c 54FB1BF5 		smmulr r5, r4, fp
 104              	@ 0 "" 2
 105              	.LVL16:
 106              		.loc 1 178 0
 107              	@ 178 "/home/sbcu/Dropbox/pcb-layouts/axo-on-discovery-board/axoloti/platform_linux/../CMSIS//DSP_L
 108 0050 54FB10F4 		smmulr r4, r4, r0
 109              	@ 0 "" 2
 110              	.LVL17:
 111              		.loc 1 181 0
 112              		.thumb
 113 0054 58F8041C 		ldr	r1, [r8, #-4]
 114              	.LVL18:
ARM GAS  /tmp/ccD3cEQM.s 			page 3


 115              	@ 181 "/home/sbcu/Dropbox/pcb-layouts/axo-on-discovery-board/axoloti/platform_linux/../CMSIS//DSP_L
 116 0058 61FB1055 		smmlsr r5, r1, r0, r5
 117              	@ 0 "" 2
 118              	.LVL19:
 119              		.loc 1 184 0
 120              	@ 184 "/home/sbcu/Dropbox/pcb-layouts/axo-on-discovery-board/axoloti/platform_linux/../CMSIS//DSP_L
 121 005c 51FB1B4B 		smmlar fp, r1, fp, r4
 122              	@ 0 "" 2
 123              	.LVL20:
 124              		.loc 1 187 0
 125              		.thumb
 126 0060 DEF80840 		ldr	r4, [lr, #8]
 127              	@ 187 "/home/sbcu/Dropbox/pcb-layouts/axo-on-discovery-board/axoloti/platform_linux/../CMSIS//DSP_L
 128 0064 64FB1055 		smmlsr r5, r4, r0, r5
 129              	@ 0 "" 2
 130              	.LVL21:
 131              		.loc 1 188 0
 132              		.thumb
 133 0068 9959     		ldr	r1, [r3, r6]
 134              	.LVL22:
 135              		.loc 1 191 0
 136              	@ 191 "/home/sbcu/Dropbox/pcb-layouts/axo-on-discovery-board/axoloti/platform_linux/../CMSIS//DSP_L
 137 006a 64FB11BB 		smmlsr fp, r4, r1, fp
 138              	@ 0 "" 2
 139              	.LVL23:
 140              		.loc 1 194 0
 141              		.thumb
 142 006e DEF80440 		ldr	r4, [lr, #4]
 143              	@ 194 "/home/sbcu/Dropbox/pcb-layouts/axo-on-discovery-board/axoloti/platform_linux/../CMSIS//DSP_L
 144 0072 54FB1151 		smmlar r1, r4, r1, r5
 145              	@ 0 "" 2
 146              	.LVL24:
 147              		.loc 1 197 0
 148              	@ 197 "/home/sbcu/Dropbox/pcb-layouts/axo-on-discovery-board/axoloti/platform_linux/../CMSIS//DSP_L
 149 0076 64FB10B0 		smmlsr r0, r4, r0, fp
 150              	@ 0 "" 2
 151              	.LVL25:
 152              		.loc 1 204 0
 153              		.thumb
 154 007a 4442     		negs	r4, r0
 155              		.loc 1 159 0
 156 007c BAF1010A 		subs	r10, r10, #1
 157              	.LVL26:
 158              		.loc 1 200 0
 159 0080 4CF8081C 		str	r1, [ip, #-8]
 160              	.LVL27:
 161              		.loc 1 201 0
 162 0084 4CF8040C 		str	r0, [ip, #-4]
 163              	.LVL28:
 164 0088 08F10808 		add	r8, r8, #8
 165              	.LVL29:
 166              		.loc 1 204 0
 167 008c BC60     		str	r4, [r7, #8]
 168              	.LVL30:
 169              		.loc 1 205 0
 170 008e 7960     		str	r1, [r7, #4]
 171              	.LVL31:
ARM GAS  /tmp/ccD3cEQM.s 			page 4


 172 0090 AEF1080E 		sub	lr, lr, #8
 173              	.LVL32:
 174 0094 0CF1080C 		add	ip, ip, #8
 175 0098 A7F10807 		sub	r7, r7, #8
 176 009c 4E44     		add	r6, r6, r9
 177              	.LVL33:
 178              		.loc 1 159 0
 179 009e CFD1     		bne	.L3
 180              	.LVL34:
 181              	.L4:
 182              		.loc 1 213 0
 183 00a0 0298     		ldr	r0, [sp, #8]
 184              		.loc 1 214 0
 185 00a2 0E9C     		ldr	r4, [sp, #56]
 186              		.loc 1 213 0
 187 00a4 4268     		ldr	r2, [r0, #4]
 188 00a6 0368     		ldr	r3, [r0]
 189 00a8 9B1A     		subs	r3, r3, r2
 190              		.loc 1 214 0
 191 00aa 019A     		ldr	r2, [sp, #4]
 192 00ac 2244     		add	r2, r2, r4
 193 00ae 1146     		mov	r1, r2
 194              		.loc 1 213 0
 195 00b0 2246     		mov	r2, r4
 196 00b2 039C     		ldr	r4, [sp, #12]
 197 00b4 5B10     		asrs	r3, r3, #1
 198 00b6 42F83430 		str	r3, [r2, r4, lsl #3]
 199              		.loc 1 214 0
 200 00ba 0022     		movs	r2, #0
 201 00bc 4A60     		str	r2, [r1, #4]
 202              		.loc 1 216 0
 203 00be 0168     		ldr	r1, [r0]
 204 00c0 4368     		ldr	r3, [r0, #4]
 205              		.loc 1 217 0
 206 00c2 0E98     		ldr	r0, [sp, #56]
 207              		.loc 1 216 0
 208 00c4 0B44     		add	r3, r3, r1
 209 00c6 5B10     		asrs	r3, r3, #1
 210              		.loc 1 217 0
 211 00c8 4260     		str	r2, [r0, #4]
 212              		.loc 1 216 0
 213 00ca 0360     		str	r3, [r0]
 214              		.loc 1 218 0
 215 00cc 05B0     		add	sp, sp, #20
 216              		.cfi_def_cfa_offset 36
 217              		@ sp needed
 218 00ce BDE8F08F 		pop	{r4, r5, r6, r7, r8, r9, r10, fp, pc}
 219              		.cfi_endproc
 220              	.LFE136:
 221              		.size	arm_split_rfft_q31, .-arm_split_rfft_q31
 222 00d2 00BF     		.align	2
 223 00d4 AFF30080 		.p2align 4,,15
 223      AFF30080 
 223      AFF30080 
 224              		.global	arm_split_rifft_q31
 225              		.thumb
 226              		.thumb_func
ARM GAS  /tmp/ccD3cEQM.s 			page 5


 227              		.type	arm_split_rifft_q31, %function
 228              	arm_split_rifft_q31:
 229              	.LFB137:
 230              		.loc 1 237 0
 231              		.cfi_startproc
 232              		@ args = 8, pretend = 0, frame = 0
 233              		@ frame_needed = 0, uses_anonymous_args = 0
 234              	.LVL35:
 235 00e0 2DE9F043 		push	{r4, r5, r6, r7, r8, r9, lr}
 236              		.cfi_def_cfa_offset 28
 237              		.cfi_offset 4, -28
 238              		.cfi_offset 5, -24
 239              		.cfi_offset 6, -20
 240              		.cfi_offset 7, -16
 241              		.cfi_offset 8, -12
 242              		.cfi_offset 9, -8
 243              		.cfi_offset 14, -4
 244              	.LVL36:
 245              		.loc 1 241 0
 246 00e4 CF00     		lsls	r7, r1, #3
 247              	.LVL37:
 248              		.loc 1 246 0
 249 00e6 89B3     		cbz	r1, .L9
 250 00e8 089C     		ldr	r4, [sp, #32]
 251 00ea 4FEAC40C 		lsl	ip, r4, #3
 252 00ee 079C     		ldr	r4, [sp, #28]
 253 00f0 043F     		subs	r7, r7, #4
 254              	.LVL38:
 255 00f2 0744     		add	r7, r7, r0
 256              	.LVL39:
 257 00f4 04F1080E 		add	lr, r4, #8
 258 00f8 0830     		adds	r0, r0, #8
 259              	.LVL40:
 260              	.L11:
 261              		.loc 1 257 0
 262 00fa D2F80090 		ldr	r9, [r2]
 263              	.LVL41:
 264              		.loc 1 258 0
 265 00fe D2F80480 		ldr	r8, [r2, #4]
 266              	.LVL42:
 267              		.loc 1 261 0
 268 0102 50F8085C 		ldr	r5, [r0, #-8]
 269              	@ 261 "/home/sbcu/Dropbox/pcb-layouts/axo-on-discovery-board/axoloti/platform_linux/../CMSIS//DSP_L
 270 0106 55FB19F4 		smmulr r4, r5, r9
 271              	@ 0 "" 2
 272              	.LVL43:
 273              		.loc 1 264 0
 274              		.thumb
 275 010a C8F10006 		rsb	r6, r8, #0
 276              	@ 264 "/home/sbcu/Dropbox/pcb-layouts/axo-on-discovery-board/axoloti/platform_linux/../CMSIS//DSP_L
 277 010e 55FB16F5 		smmulr r5, r5, r6
 278              	@ 0 "" 2
 279              	.LVL44:
 280              		.loc 1 267 0
 281              		.thumb
 282 0112 50F8046C 		ldr	r6, [r0, #-4]
 283              	@ 267 "/home/sbcu/Dropbox/pcb-layouts/axo-on-discovery-board/axoloti/platform_linux/../CMSIS//DSP_L
ARM GAS  /tmp/ccD3cEQM.s 			page 6


 284 0116 56FB1844 		smmlar r4, r6, r8, r4
 285              	@ 0 "" 2
 286              	.LVL45:
 287              		.loc 1 270 0
 288              	@ 270 "/home/sbcu/Dropbox/pcb-layouts/axo-on-discovery-board/axoloti/platform_linux/../CMSIS//DSP_L
 289 011a 56FB1959 		smmlar r9, r6, r9, r5
 290              	@ 0 "" 2
 291              	.LVL46:
 292              		.loc 1 273 0
 293              		.thumb
 294 011e BD68     		ldr	r5, [r7, #8]
 295              	@ 273 "/home/sbcu/Dropbox/pcb-layouts/axo-on-discovery-board/axoloti/platform_linux/../CMSIS//DSP_L
 296 0120 55FB1844 		smmlar r4, r5, r8, r4
 297              	@ 0 "" 2
 298              	.LVL47:
 299              		.loc 1 274 0
 300              		.thumb
 301 0124 1E68     		ldr	r6, [r3]
 302              	.LVL48:
 303              		.loc 1 277 0
 304              	@ 277 "/home/sbcu/Dropbox/pcb-layouts/axo-on-discovery-board/axoloti/platform_linux/../CMSIS//DSP_L
 305 0126 65FB1699 		smmlsr r9, r5, r6, r9
 306              	@ 0 "" 2
 307              	.LVL49:
 308              		.loc 1 280 0
 309              		.thumb
 310 012a 7D68     		ldr	r5, [r7, #4]
 311              	@ 280 "/home/sbcu/Dropbox/pcb-layouts/axo-on-discovery-board/axoloti/platform_linux/../CMSIS//DSP_L
 312 012c 55FB1644 		smmlar r4, r5, r6, r4
 313              	@ 0 "" 2
 314              	.LVL50:
 315              		.loc 1 283 0
 316              	@ 283 "/home/sbcu/Dropbox/pcb-layouts/axo-on-discovery-board/axoloti/platform_linux/../CMSIS//DSP_L
 317 0130 55FB1895 		smmlar r5, r5, r8, r9
 318              	@ 0 "" 2
 319              	.LVL51:
 320              		.loc 1 246 0
 321              		.thumb
 322 0134 0139     		subs	r1, r1, #1
 323              	.LVL52:
 324              		.loc 1 287 0
 325 0136 0EE93000 		stmdb	lr, {r4, r5}
 326              	.LVL53:
 327              		.loc 1 290 0
 328 013a 6344     		add	r3, r3, ip
 329              	.LVL54:
 330              		.loc 1 291 0
 331 013c 6244     		add	r2, r2, ip
 332              	.LVL55:
 333 013e 00F10800 		add	r0, r0, #8
 334              	.LVL56:
 335 0142 A7F10807 		sub	r7, r7, #8
 336              	.LVL57:
 337 0146 0EF1080E 		add	lr, lr, #8
 338              		.loc 1 246 0
 339 014a D6D1     		bne	.L11
 340              	.LVL58:
ARM GAS  /tmp/ccD3cEQM.s 			page 7


 341              	.L9:
 342 014c BDE8F083 		pop	{r4, r5, r6, r7, r8, r9, pc}
 343              		.cfi_endproc
 344              	.LFE137:
 345              		.size	arm_split_rifft_q31, .-arm_split_rifft_q31
 346              		.align	2
 347              		.p2align 4,,15
 348              		.global	arm_rfft_q31
 349              		.thumb
 350              		.thumb_func
 351              		.type	arm_rfft_q31, %function
 352              	arm_rfft_q31:
 353              	.LFB135:
 354              		.loc 1 91 0
 355              		.cfi_startproc
 356              		@ args = 0, pretend = 0, frame = 0
 357              		@ frame_needed = 0, uses_anonymous_args = 0
 358              	.LVL59:
 359 0150 2DE9F043 		push	{r4, r5, r6, r7, r8, r9, lr}
 360              		.cfi_def_cfa_offset 28
 361              		.cfi_offset 4, -28
 362              		.cfi_offset 5, -24
 363              		.cfi_offset 6, -20
 364              		.cfi_offset 7, -16
 365              		.cfi_offset 8, -12
 366              		.cfi_offset 9, -8
 367              		.cfi_offset 14, -4
 368 0154 1546     		mov	r5, r2
 369              		.loc 1 97 0
 370 0156 0279     		ldrb	r2, [r0, #4]	@ zero_extendqisi2
 371              	.LVL60:
 372              		.loc 1 94 0
 373 0158 0368     		ldr	r3, [r0]
 374              		.loc 1 92 0
 375 015a 4669     		ldr	r6, [r0, #20]
 376              	.LVL61:
 377              		.loc 1 97 0
 378 015c 012A     		cmp	r2, #1
 379              		.loc 1 91 0
 380 015e 83B0     		sub	sp, sp, #12
 381              		.cfi_def_cfa_offset 40
 382              		.loc 1 91 0
 383 0160 0446     		mov	r4, r0
 384              		.loc 1 94 0
 385 0162 4FEA5308 		lsr	r8, r3, #1
 386              	.LVL62:
 387              		.loc 1 91 0
 388 0166 8946     		mov	r9, r1
 389              		.loc 1 97 0
 390 0168 0FD0     		beq	.L23
 391              		.loc 1 116 0
 392 016a 6379     		ldrb	r3, [r4, #5]	@ zero_extendqisi2
 393 016c 3046     		mov	r0, r6
 394              	.LVL63:
 395 016e FFF7FEFF 		bl	arm_cfft_q31
 396              	.LVL64:
 397              		.loc 1 119 0
ARM GAS  /tmp/ccD3cEQM.s 			page 8


 398 0172 E268     		ldr	r2, [r4, #12]
 399 0174 2369     		ldr	r3, [r4, #16]
 400 0176 A468     		ldr	r4, [r4, #8]
 401              	.LVL65:
 402 0178 0194     		str	r4, [sp, #4]
 403 017a 0095     		str	r5, [sp]
 404 017c 4846     		mov	r0, r9
 405 017e 4146     		mov	r1, r8
 406 0180 FFF7FEFF 		bl	arm_split_rfft_q31
 407              	.LVL66:
 408              	.L15:
 409              		.loc 1 122 0
 410 0184 03B0     		add	sp, sp, #12
 411              		.cfi_remember_state
 412              		.cfi_def_cfa_offset 28
 413              		@ sp needed
 414 0186 BDE8F083 		pop	{r4, r5, r6, r7, r8, r9, pc}
 415              	.LVL67:
 416              	.L23:
 417              		.cfi_restore_state
 418              		.loc 1 100 0
 419 018a 8768     		ldr	r7, [r0, #8]
 420 018c C268     		ldr	r2, [r0, #12]
 421 018e 0369     		ldr	r3, [r0, #16]
 422 0190 0095     		str	r5, [sp]
 423 0192 0846     		mov	r0, r1
 424              	.LVL68:
 425 0194 0197     		str	r7, [sp, #4]
 426 0196 4146     		mov	r1, r8
 427              	.LVL69:
 428 0198 FFF7FEFF 		bl	arm_split_rifft_q31
 429              	.LVL70:
 430              		.loc 1 104 0
 431 019c 6379     		ldrb	r3, [r4, #5]	@ zero_extendqisi2
 432 019e 2279     		ldrb	r2, [r4, #4]	@ zero_extendqisi2
 433 01a0 3046     		mov	r0, r6
 434 01a2 2946     		mov	r1, r5
 435 01a4 FFF7FEFF 		bl	arm_cfft_q31
 436              	.LVL71:
 437              		.loc 1 106 0
 438 01a8 2368     		ldr	r3, [r4]
 439 01aa 002B     		cmp	r3, #0
 440 01ac EAD0     		beq	.L15
 441 01ae 2A1F     		subs	r2, r5, #4
 442 01b0 0021     		movs	r1, #0
 443              	.LVL72:
 444              	.L19:
 445              		.loc 1 108 0 discriminator 3
 446 01b2 52F8043F 		ldr	r3, [r2, #4]!
 447 01b6 5B00     		lsls	r3, r3, #1
 448 01b8 1360     		str	r3, [r2]
 449              		.loc 1 106 0 discriminator 3
 450 01ba 2368     		ldr	r3, [r4]
 451 01bc 0131     		adds	r1, r1, #1
 452              	.LVL73:
 453 01be 8B42     		cmp	r3, r1
 454 01c0 F7D8     		bhi	.L19
ARM GAS  /tmp/ccD3cEQM.s 			page 9


 455              		.loc 1 122 0
 456 01c2 03B0     		add	sp, sp, #12
 457              		.cfi_def_cfa_offset 28
 458              		@ sp needed
 459 01c4 BDE8F083 		pop	{r4, r5, r6, r7, r8, r9, pc}
 460              		.cfi_endproc
 461              	.LFE135:
 462              		.size	arm_rfft_q31, .-arm_rfft_q31
 463              	.Letext0:
 464              		.file 2 "/home/sbcu/Dropbox/pcb-layouts/axo-on-discovery-board/axoloti/platform_linux/arm-none-eab
 465              		.file 3 "/home/sbcu/Dropbox/pcb-layouts/axo-on-discovery-board/axoloti/platform_linux/arm-none-eab
 466              		.file 4 "/home/sbcu/Dropbox/pcb-layouts/axo-on-discovery-board/axoloti/platform_linux/../CMSIS//DS
 467              		.section	.debug_info,"",%progbits
 468              	.Ldebug_info0:
 469 0000 F0040000 		.4byte	0x4f0
 470 0004 0400     		.2byte	0x4
 471 0006 00000000 		.4byte	.Ldebug_abbrev0
 472 000a 04       		.byte	0x4
 473 000b 01       		.uleb128 0x1
 474 000c 00000000 		.4byte	.LASF56
 475 0010 01       		.byte	0x1
 476 0011 21010000 		.4byte	.LASF57
 477 0015 00000000 		.4byte	.Ltext0
 478 0019 C8010000 		.4byte	.Letext0-.Ltext0
 479 001d 00000000 		.4byte	.Ldebug_line0
 480 0021 02       		.uleb128 0x2
 481 0022 01       		.byte	0x1
 482 0023 06       		.byte	0x6
 483 0024 B9030000 		.4byte	.LASF0
 484 0028 03       		.uleb128 0x3
 485 0029 F9000000 		.4byte	.LASF3
 486 002d 02       		.byte	0x2
 487 002e 1D       		.byte	0x1d
 488 002f 33000000 		.4byte	0x33
 489 0033 02       		.uleb128 0x2
 490 0034 01       		.byte	0x1
 491 0035 08       		.byte	0x8
 492 0036 02020000 		.4byte	.LASF1
 493 003a 02       		.uleb128 0x2
 494 003b 02       		.byte	0x2
 495 003c 05       		.byte	0x5
 496 003d 74030000 		.4byte	.LASF2
 497 0041 03       		.uleb128 0x3
 498 0042 91020000 		.4byte	.LASF4
 499 0046 02       		.byte	0x2
 500 0047 2B       		.byte	0x2b
 501 0048 4C000000 		.4byte	0x4c
 502 004c 02       		.uleb128 0x2
 503 004d 02       		.byte	0x2
 504 004e 07       		.byte	0x7
 505 004f 43020000 		.4byte	.LASF5
 506 0053 03       		.uleb128 0x3
 507 0054 B5010000 		.4byte	.LASF6
 508 0058 02       		.byte	0x2
 509 0059 3F       		.byte	0x3f
 510 005a 5E000000 		.4byte	0x5e
 511 005e 02       		.uleb128 0x2
ARM GAS  /tmp/ccD3cEQM.s 			page 10


 512 005f 04       		.byte	0x4
 513 0060 05       		.byte	0x5
 514 0061 90030000 		.4byte	.LASF7
 515 0065 03       		.uleb128 0x3
 516 0066 B6020000 		.4byte	.LASF8
 517 006a 02       		.byte	0x2
 518 006b 41       		.byte	0x41
 519 006c 70000000 		.4byte	0x70
 520 0070 02       		.uleb128 0x2
 521 0071 04       		.byte	0x4
 522 0072 07       		.byte	0x7
 523 0073 31020000 		.4byte	.LASF9
 524 0077 02       		.uleb128 0x2
 525 0078 08       		.byte	0x8
 526 0079 05       		.byte	0x5
 527 007a 3E030000 		.4byte	.LASF10
 528 007e 02       		.uleb128 0x2
 529 007f 08       		.byte	0x8
 530 0080 07       		.byte	0x7
 531 0081 F3020000 		.4byte	.LASF11
 532 0085 04       		.uleb128 0x4
 533 0086 04       		.byte	0x4
 534 0087 05       		.byte	0x5
 535 0088 696E7400 		.ascii	"int\000"
 536 008c 02       		.uleb128 0x2
 537 008d 04       		.byte	0x4
 538 008e 07       		.byte	0x7
 539 008f D4020000 		.4byte	.LASF12
 540 0093 03       		.uleb128 0x3
 541 0094 0A030000 		.4byte	.LASF13
 542 0098 03       		.byte	0x3
 543 0099 14       		.byte	0x14
 544 009a 28000000 		.4byte	0x28
 545 009e 03       		.uleb128 0x3
 546 009f 7E030000 		.4byte	.LASF14
 547 00a3 03       		.byte	0x3
 548 00a4 1A       		.byte	0x1a
 549 00a5 41000000 		.4byte	0x41
 550 00a9 03       		.uleb128 0x3
 551 00aa 2D030000 		.4byte	.LASF15
 552 00ae 03       		.byte	0x3
 553 00af 1F       		.byte	0x1f
 554 00b0 53000000 		.4byte	0x53
 555 00b4 03       		.uleb128 0x3
 556 00b5 87030000 		.4byte	.LASF16
 557 00b9 03       		.byte	0x3
 558 00ba 20       		.byte	0x20
 559 00bb 65000000 		.4byte	0x65
 560 00bf 02       		.uleb128 0x2
 561 00c0 04       		.byte	0x4
 562 00c1 07       		.byte	0x7
 563 00c2 35030000 		.4byte	.LASF17
 564 00c6 02       		.uleb128 0x2
 565 00c7 01       		.byte	0x1
 566 00c8 08       		.byte	0x8
 567 00c9 54030000 		.4byte	.LASF18
 568 00cd 02       		.uleb128 0x2
ARM GAS  /tmp/ccD3cEQM.s 			page 11


 569 00ce 08       		.byte	0x8
 570 00cf 04       		.byte	0x4
 571 00d0 9C020000 		.4byte	.LASF19
 572 00d4 02       		.uleb128 0x2
 573 00d5 04       		.byte	0x4
 574 00d6 04       		.byte	0x4
 575 00d7 EF010000 		.4byte	.LASF20
 576 00db 02       		.uleb128 0x2
 577 00dc 08       		.byte	0x8
 578 00dd 04       		.byte	0x4
 579 00de AD030000 		.4byte	.LASF21
 580 00e2 05       		.uleb128 0x5
 581 00e3 FC010000 		.4byte	.LASF22
 582 00e7 04       		.byte	0x4
 583 00e8 A001     		.2byte	0x1a0
 584 00ea A9000000 		.4byte	0xa9
 585 00ee 06       		.uleb128 0x6
 586 00ef 04       		.byte	0x4
 587 00f0 E2000000 		.4byte	0xe2
 588 00f4 06       		.uleb128 0x6
 589 00f5 04       		.byte	0x4
 590 00f6 FA000000 		.4byte	0xfa
 591 00fa 07       		.uleb128 0x7
 592 00fb 9E000000 		.4byte	0x9e
 593 00ff 08       		.uleb128 0x8
 594 0100 10       		.byte	0x10
 595 0101 04       		.byte	0x4
 596 0102 9208     		.2byte	0x892
 597 0104 3D010000 		.4byte	0x13d
 598 0108 09       		.uleb128 0x9
 599 0109 56020000 		.4byte	.LASF23
 600 010d 04       		.byte	0x4
 601 010e 9408     		.2byte	0x894
 602 0110 9E000000 		.4byte	0x9e
 603 0114 00       		.byte	0
 604 0115 09       		.uleb128 0x9
 605 0116 A3020000 		.4byte	.LASF24
 606 011a 04       		.byte	0x4
 607 011b 9508     		.2byte	0x895
 608 011d 3D010000 		.4byte	0x13d
 609 0121 04       		.byte	0x4
 610 0122 09       		.uleb128 0x9
 611 0123 E2010000 		.4byte	.LASF25
 612 0127 04       		.byte	0x4
 613 0128 9608     		.2byte	0x896
 614 012a F4000000 		.4byte	0xf4
 615 012e 08       		.byte	0x8
 616 012f 09       		.uleb128 0x9
 617 0130 59030000 		.4byte	.LASF26
 618 0134 04       		.byte	0x4
 619 0135 9708     		.2byte	0x897
 620 0137 9E000000 		.4byte	0x9e
 621 013b 0C       		.byte	0xc
 622 013c 00       		.byte	0
 623 013d 06       		.uleb128 0x6
 624 013e 04       		.byte	0x4
 625 013f 43010000 		.4byte	0x143
ARM GAS  /tmp/ccD3cEQM.s 			page 12


 626 0143 07       		.uleb128 0x7
 627 0144 E2000000 		.4byte	0xe2
 628 0148 05       		.uleb128 0x5
 629 0149 5D020000 		.4byte	.LASF27
 630 014d 04       		.byte	0x4
 631 014e 9808     		.2byte	0x898
 632 0150 FF000000 		.4byte	0xff
 633 0154 08       		.uleb128 0x8
 634 0155 18       		.byte	0x18
 635 0156 04       		.byte	0x4
 636 0157 CD08     		.2byte	0x8cd
 637 0159 B9010000 		.4byte	0x1b9
 638 015d 09       		.uleb128 0x9
 639 015e 22030000 		.4byte	.LASF28
 640 0162 04       		.byte	0x4
 641 0163 CF08     		.2byte	0x8cf
 642 0165 B4000000 		.4byte	0xb4
 643 0169 00       		.byte	0
 644 016a 09       		.uleb128 0x9
 645 016b AC020000 		.4byte	.LASF29
 646 016f 04       		.byte	0x4
 647 0170 D008     		.2byte	0x8d0
 648 0172 93000000 		.4byte	0x93
 649 0176 04       		.byte	0x4
 650 0177 09       		.uleb128 0x9
 651 0178 03010000 		.4byte	.LASF30
 652 017c 04       		.byte	0x4
 653 017d D108     		.2byte	0x8d1
 654 017f 93000000 		.4byte	0x93
 655 0183 05       		.byte	0x5
 656 0184 09       		.uleb128 0x9
 657 0185 E1020000 		.4byte	.LASF31
 658 0189 04       		.byte	0x4
 659 018a D208     		.2byte	0x8d2
 660 018c B4000000 		.4byte	0xb4
 661 0190 08       		.byte	0x8
 662 0191 09       		.uleb128 0x9
 663 0192 13010000 		.4byte	.LASF32
 664 0196 04       		.byte	0x4
 665 0197 D308     		.2byte	0x8d3
 666 0199 EE000000 		.4byte	0xee
 667 019d 0C       		.byte	0xc
 668 019e 09       		.uleb128 0x9
 669 019f 10020000 		.4byte	.LASF33
 670 01a3 04       		.byte	0x4
 671 01a4 D408     		.2byte	0x8d4
 672 01a6 EE000000 		.4byte	0xee
 673 01aa 10       		.byte	0x10
 674 01ab 09       		.uleb128 0x9
 675 01ac C9020000 		.4byte	.LASF34
 676 01b0 04       		.byte	0x4
 677 01b1 D508     		.2byte	0x8d5
 678 01b3 B9010000 		.4byte	0x1b9
 679 01b7 14       		.byte	0x14
 680 01b8 00       		.byte	0
 681 01b9 06       		.uleb128 0x6
 682 01ba 04       		.byte	0x4
ARM GAS  /tmp/ccD3cEQM.s 			page 13


 683 01bb BF010000 		.4byte	0x1bf
 684 01bf 07       		.uleb128 0x7
 685 01c0 48010000 		.4byte	0x148
 686 01c4 05       		.uleb128 0x5
 687 01c5 CC010000 		.4byte	.LASF35
 688 01c9 04       		.byte	0x4
 689 01ca D608     		.2byte	0x8d6
 690 01cc 54010000 		.4byte	0x154
 691 01d0 0A       		.uleb128 0xa
 692 01d1 1E020000 		.4byte	.LASF52
 693 01d5 01       		.byte	0x1
 694 01d6 8A       		.byte	0x8a
 695 01d7 00000000 		.4byte	.LFB136
 696 01db D2000000 		.4byte	.LFE136-.LFB136
 697 01df 01       		.uleb128 0x1
 698 01e0 9C       		.byte	0x9c
 699 01e1 F0020000 		.4byte	0x2f0
 700 01e5 0B       		.uleb128 0xb
 701 01e6 CC030000 		.4byte	.LASF36
 702 01ea 01       		.byte	0x1
 703 01eb 8B       		.byte	0x8b
 704 01ec EE000000 		.4byte	0xee
 705 01f0 00000000 		.4byte	.LLST0
 706 01f4 0B       		.uleb128 0xb
 707 01f5 56020000 		.4byte	.LASF23
 708 01f9 01       		.byte	0x1
 709 01fa 8C       		.byte	0x8c
 710 01fb B4000000 		.4byte	0xb4
 711 01ff 1F000000 		.4byte	.LLST1
 712 0203 0B       		.uleb128 0xb
 713 0204 C1020000 		.4byte	.LASF37
 714 0208 01       		.byte	0x1
 715 0209 8D       		.byte	0x8d
 716 020a EE000000 		.4byte	0xee
 717 020e 3E000000 		.4byte	.LLST2
 718 0212 0B       		.uleb128 0xb
 719 0213 4C030000 		.4byte	.LASF38
 720 0217 01       		.byte	0x1
 721 0218 8E       		.byte	0x8e
 722 0219 EE000000 		.4byte	0xee
 723 021d 5F000000 		.4byte	.LLST3
 724 0221 0C       		.uleb128 0xc
 725 0222 73020000 		.4byte	.LASF39
 726 0226 01       		.byte	0x1
 727 0227 8F       		.byte	0x8f
 728 0228 EE000000 		.4byte	0xee
 729 022c 02       		.uleb128 0x2
 730 022d 91       		.byte	0x91
 731 022e 00       		.sleb128 0
 732 022f 0C       		.uleb128 0xc
 733 0230 19030000 		.4byte	.LASF40
 734 0234 01       		.byte	0x1
 735 0235 90       		.byte	0x90
 736 0236 B4000000 		.4byte	0xb4
 737 023a 02       		.uleb128 0x2
 738 023b 91       		.byte	0x91
 739 023c 04       		.sleb128 4
ARM GAS  /tmp/ccD3cEQM.s 			page 14


 740 023d 0D       		.uleb128 0xd
 741 023e 6900     		.ascii	"i\000"
 742 0240 01       		.byte	0x1
 743 0241 92       		.byte	0x92
 744 0242 B4000000 		.4byte	0xb4
 745 0246 80000000 		.4byte	.LLST4
 746 024a 0E       		.uleb128 0xe
 747 024b 85020000 		.4byte	.LASF41
 748 024f 01       		.byte	0x1
 749 0250 93       		.byte	0x93
 750 0251 E2000000 		.4byte	0xe2
 751 0255 A0000000 		.4byte	.LLST5
 752 0259 0E       		.uleb128 0xe
 753 025a CF020000 		.4byte	.LASF42
 754 025e 01       		.byte	0x1
 755 025f 93       		.byte	0x93
 756 0260 E2000000 		.4byte	0xe2
 757 0264 BE000000 		.4byte	.LLST6
 758 0268 0E       		.uleb128 0xe
 759 0269 66030000 		.4byte	.LASF43
 760 026d 01       		.byte	0x1
 761 026e 94       		.byte	0x94
 762 026f EE000000 		.4byte	0xee
 763 0273 E7000000 		.4byte	.LLST7
 764 0277 0E       		.uleb128 0xe
 765 0278 6D030000 		.4byte	.LASF44
 766 027c 01       		.byte	0x1
 767 027d 94       		.byte	0x94
 768 027e EE000000 		.4byte	0xee
 769 0282 3E010000 		.4byte	.LLST8
 770 0286 0E       		.uleb128 0xe
 771 0287 F5010000 		.4byte	.LASF45
 772 028b 01       		.byte	0x1
 773 028c 95       		.byte	0x95
 774 028d E2000000 		.4byte	0xe2
 775 0291 74010000 		.4byte	.LLST9
 776 0295 0E       		.uleb128 0xe
 777 0296 C5030000 		.4byte	.LASF46
 778 029a 01       		.byte	0x1
 779 029b 95       		.byte	0x95
 780 029c E2000000 		.4byte	0xe2
 781 02a0 96010000 		.4byte	.LLST10
 782 02a4 0E       		.uleb128 0xe
 783 02a5 8A020000 		.4byte	.LASF47
 784 02a9 01       		.byte	0x1
 785 02aa 95       		.byte	0x95
 786 02ab E2000000 		.4byte	0xe2
 787 02af BA010000 		.4byte	.LLST11
 788 02b3 0E       		.uleb128 0xe
 789 02b4 A9010000 		.4byte	.LASF48
 790 02b8 01       		.byte	0x1
 791 02b9 96       		.byte	0x96
 792 02ba EE000000 		.4byte	0xee
 793 02be DC010000 		.4byte	.LLST12
 794 02c2 0E       		.uleb128 0xe
 795 02c3 AF010000 		.4byte	.LASF49
 796 02c7 01       		.byte	0x1
ARM GAS  /tmp/ccD3cEQM.s 			page 15


 797 02c8 96       		.byte	0x96
 798 02c9 EE000000 		.4byte	0xee
 799 02cd F4010000 		.4byte	.LLST13
 800 02d1 0E       		.uleb128 0xe
 801 02d2 D1030000 		.4byte	.LASF50
 802 02d6 01       		.byte	0x1
 803 02d7 97       		.byte	0x97
 804 02d8 EE000000 		.4byte	0xee
 805 02dc BA020000 		.4byte	.LLST14
 806 02e0 0E       		.uleb128 0xe
 807 02e1 D6030000 		.4byte	.LASF51
 808 02e5 01       		.byte	0x1
 809 02e6 97       		.byte	0x97
 810 02e7 EE000000 		.4byte	0xee
 811 02eb 04030000 		.4byte	.LLST15
 812 02ef 00       		.byte	0
 813 02f0 0A       		.uleb128 0xa
 814 02f1 99030000 		.4byte	.LASF53
 815 02f5 01       		.byte	0x1
 816 02f6 E6       		.byte	0xe6
 817 02f7 E0000000 		.4byte	.LFB137
 818 02fb 70000000 		.4byte	.LFE137-.LFB137
 819 02ff 01       		.uleb128 0x1
 820 0300 9C       		.byte	0x9c
 821 0301 E4030000 		.4byte	0x3e4
 822 0305 0B       		.uleb128 0xb
 823 0306 CC030000 		.4byte	.LASF36
 824 030a 01       		.byte	0x1
 825 030b E7       		.byte	0xe7
 826 030c EE000000 		.4byte	0xee
 827 0310 78030000 		.4byte	.LLST16
 828 0314 0B       		.uleb128 0xb
 829 0315 56020000 		.4byte	.LASF23
 830 0319 01       		.byte	0x1
 831 031a E8       		.byte	0xe8
 832 031b B4000000 		.4byte	0xb4
 833 031f 99030000 		.4byte	.LLST17
 834 0323 0B       		.uleb128 0xb
 835 0324 C1020000 		.4byte	.LASF37
 836 0328 01       		.byte	0x1
 837 0329 E9       		.byte	0xe9
 838 032a EE000000 		.4byte	0xee
 839 032e C4030000 		.4byte	.LLST18
 840 0332 0B       		.uleb128 0xb
 841 0333 4C030000 		.4byte	.LASF38
 842 0337 01       		.byte	0x1
 843 0338 EA       		.byte	0xea
 844 0339 EE000000 		.4byte	0xee
 845 033d E5030000 		.4byte	.LLST19
 846 0341 0B       		.uleb128 0xb
 847 0342 73020000 		.4byte	.LASF39
 848 0346 01       		.byte	0x1
 849 0347 EB       		.byte	0xeb
 850 0348 EE000000 		.4byte	0xee
 851 034c 06040000 		.4byte	.LLST20
 852 0350 0C       		.uleb128 0xc
 853 0351 19030000 		.4byte	.LASF40
ARM GAS  /tmp/ccD3cEQM.s 			page 16


 854 0355 01       		.byte	0x1
 855 0356 EC       		.byte	0xec
 856 0357 B4000000 		.4byte	0xb4
 857 035b 02       		.uleb128 0x2
 858 035c 91       		.byte	0x91
 859 035d 04       		.sleb128 4
 860 035e 0E       		.uleb128 0xe
 861 035f 85020000 		.4byte	.LASF41
 862 0363 01       		.byte	0x1
 863 0364 EE       		.byte	0xee
 864 0365 E2000000 		.4byte	0xe2
 865 0369 48040000 		.4byte	.LLST21
 866 036d 0E       		.uleb128 0xe
 867 036e CF020000 		.4byte	.LASF42
 868 0372 01       		.byte	0x1
 869 0373 EE       		.byte	0xee
 870 0374 E2000000 		.4byte	0xe2
 871 0378 5B040000 		.4byte	.LLST22
 872 037c 0E       		.uleb128 0xe
 873 037d 66030000 		.4byte	.LASF43
 874 0381 01       		.byte	0x1
 875 0382 EF       		.byte	0xef
 876 0383 EE000000 		.4byte	0xee
 877 0387 84040000 		.4byte	.LLST23
 878 038b 0F       		.uleb128 0xf
 879 038c 6D030000 		.4byte	.LASF44
 880 0390 01       		.byte	0x1
 881 0391 EF       		.byte	0xef
 882 0392 EE000000 		.4byte	0xee
 883 0396 01       		.uleb128 0x1
 884 0397 53       		.byte	0x53
 885 0398 0E       		.uleb128 0xe
 886 0399 F5010000 		.4byte	.LASF45
 887 039d 01       		.byte	0x1
 888 039e F0       		.byte	0xf0
 889 039f E2000000 		.4byte	0xe2
 890 03a3 AF040000 		.4byte	.LLST24
 891 03a7 0E       		.uleb128 0xe
 892 03a8 C5030000 		.4byte	.LASF46
 893 03ac 01       		.byte	0x1
 894 03ad F0       		.byte	0xf0
 895 03ae E2000000 		.4byte	0xe2
 896 03b2 CE040000 		.4byte	.LLST25
 897 03b6 0E       		.uleb128 0xe
 898 03b7 8A020000 		.4byte	.LASF47
 899 03bb 01       		.byte	0x1
 900 03bc F0       		.byte	0xf0
 901 03bd E2000000 		.4byte	0xe2
 902 03c1 E1040000 		.4byte	.LLST26
 903 03c5 0E       		.uleb128 0xe
 904 03c6 D1030000 		.4byte	.LASF50
 905 03ca 01       		.byte	0x1
 906 03cb F1       		.byte	0xf1
 907 03cc EE000000 		.4byte	0xee
 908 03d0 F4040000 		.4byte	.LLST27
 909 03d4 0E       		.uleb128 0xe
 910 03d5 D6030000 		.4byte	.LASF51
ARM GAS  /tmp/ccD3cEQM.s 			page 17


 911 03d9 01       		.byte	0x1
 912 03da F1       		.byte	0xf1
 913 03db EE000000 		.4byte	0xee
 914 03df 39050000 		.4byte	.LLST28
 915 03e3 00       		.byte	0
 916 03e4 0A       		.uleb128 0xa
 917 03e5 78020000 		.4byte	.LASF54
 918 03e9 01       		.byte	0x1
 919 03ea 57       		.byte	0x57
 920 03eb 50010000 		.4byte	.LFB135
 921 03ef 78000000 		.4byte	.LFE135-.LFB135
 922 03f3 01       		.uleb128 0x1
 923 03f4 9C       		.byte	0x9c
 924 03f5 CB040000 		.4byte	0x4cb
 925 03f9 10       		.uleb128 0x10
 926 03fa 5300     		.ascii	"S\000"
 927 03fc 01       		.byte	0x1
 928 03fd 58       		.byte	0x58
 929 03fe CB040000 		.4byte	0x4cb
 930 0402 AB050000 		.4byte	.LLST29
 931 0406 0B       		.uleb128 0xb
 932 0407 CC030000 		.4byte	.LASF36
 933 040b 01       		.byte	0x1
 934 040c 59       		.byte	0x59
 935 040d EE000000 		.4byte	0xee
 936 0411 ED050000 		.4byte	.LLST30
 937 0415 0B       		.uleb128 0xb
 938 0416 73020000 		.4byte	.LASF39
 939 041a 01       		.byte	0x1
 940 041b 5A       		.byte	0x5a
 941 041c EE000000 		.4byte	0xee
 942 0420 21060000 		.4byte	.LLST31
 943 0424 0F       		.uleb128 0xf
 944 0425 12030000 		.4byte	.LASF55
 945 0429 01       		.byte	0x1
 946 042a 5C       		.byte	0x5c
 947 042b B9010000 		.4byte	0x1b9
 948 042f 01       		.uleb128 0x1
 949 0430 56       		.byte	0x56
 950 0431 0D       		.uleb128 0xd
 951 0432 6900     		.ascii	"i\000"
 952 0434 01       		.byte	0x1
 953 0435 5D       		.byte	0x5d
 954 0436 B4000000 		.4byte	0xb4
 955 043a 3F060000 		.4byte	.LLST32
 956 043e 11       		.uleb128 0x11
 957 043f 4C3200   		.ascii	"L2\000"
 958 0442 01       		.byte	0x1
 959 0443 5E       		.byte	0x5e
 960 0444 B4000000 		.4byte	0xb4
 961 0448 01       		.uleb128 0x1
 962 0449 58       		.byte	0x58
 963 044a 12       		.uleb128 0x12
 964 044b 72010000 		.4byte	.LVL64
 965 044f D6040000 		.4byte	0x4d6
 966 0453 64040000 		.4byte	0x464
 967 0457 13       		.uleb128 0x13
ARM GAS  /tmp/ccD3cEQM.s 			page 18


 968 0458 01       		.uleb128 0x1
 969 0459 51       		.byte	0x51
 970 045a 02       		.uleb128 0x2
 971 045b 79       		.byte	0x79
 972 045c 00       		.sleb128 0
 973 045d 13       		.uleb128 0x13
 974 045e 01       		.uleb128 0x1
 975 045f 50       		.byte	0x50
 976 0460 02       		.uleb128 0x2
 977 0461 76       		.byte	0x76
 978 0462 00       		.sleb128 0
 979 0463 00       		.byte	0
 980 0464 12       		.uleb128 0x12
 981 0465 84010000 		.4byte	.LVL66
 982 0469 D0010000 		.4byte	0x1d0
 983 046d 8C040000 		.4byte	0x48c
 984 0471 13       		.uleb128 0x13
 985 0472 01       		.uleb128 0x1
 986 0473 51       		.byte	0x51
 987 0474 02       		.uleb128 0x2
 988 0475 78       		.byte	0x78
 989 0476 00       		.sleb128 0
 990 0477 13       		.uleb128 0x13
 991 0478 01       		.uleb128 0x1
 992 0479 50       		.byte	0x50
 993 047a 02       		.uleb128 0x2
 994 047b 79       		.byte	0x79
 995 047c 00       		.sleb128 0
 996 047d 13       		.uleb128 0x13
 997 047e 02       		.uleb128 0x2
 998 047f 7D       		.byte	0x7d
 999 0480 04       		.sleb128 4
 1000 0481 02       		.uleb128 0x2
 1001 0482 74       		.byte	0x74
 1002 0483 00       		.sleb128 0
 1003 0484 13       		.uleb128 0x13
 1004 0485 02       		.uleb128 0x2
 1005 0486 7D       		.byte	0x7d
 1006 0487 00       		.sleb128 0
 1007 0488 02       		.uleb128 0x2
 1008 0489 75       		.byte	0x75
 1009 048a 00       		.sleb128 0
 1010 048b 00       		.byte	0
 1011 048c 12       		.uleb128 0x12
 1012 048d 9C010000 		.4byte	.LVL70
 1013 0491 F0020000 		.4byte	0x2f0
 1014 0495 B4040000 		.4byte	0x4b4
 1015 0499 13       		.uleb128 0x13
 1016 049a 01       		.uleb128 0x1
 1017 049b 51       		.byte	0x51
 1018 049c 02       		.uleb128 0x2
 1019 049d 78       		.byte	0x78
 1020 049e 00       		.sleb128 0
 1021 049f 13       		.uleb128 0x13
 1022 04a0 01       		.uleb128 0x1
 1023 04a1 50       		.byte	0x50
 1024 04a2 02       		.uleb128 0x2
ARM GAS  /tmp/ccD3cEQM.s 			page 19


 1025 04a3 79       		.byte	0x79
 1026 04a4 00       		.sleb128 0
 1027 04a5 13       		.uleb128 0x13
 1028 04a6 02       		.uleb128 0x2
 1029 04a7 7D       		.byte	0x7d
 1030 04a8 04       		.sleb128 4
 1031 04a9 02       		.uleb128 0x2
 1032 04aa 77       		.byte	0x77
 1033 04ab 00       		.sleb128 0
 1034 04ac 13       		.uleb128 0x13
 1035 04ad 02       		.uleb128 0x2
 1036 04ae 7D       		.byte	0x7d
 1037 04af 00       		.sleb128 0
 1038 04b0 02       		.uleb128 0x2
 1039 04b1 75       		.byte	0x75
 1040 04b2 00       		.sleb128 0
 1041 04b3 00       		.byte	0
 1042 04b4 14       		.uleb128 0x14
 1043 04b5 A8010000 		.4byte	.LVL71
 1044 04b9 D6040000 		.4byte	0x4d6
 1045 04bd 13       		.uleb128 0x13
 1046 04be 01       		.uleb128 0x1
 1047 04bf 51       		.byte	0x51
 1048 04c0 02       		.uleb128 0x2
 1049 04c1 75       		.byte	0x75
 1050 04c2 00       		.sleb128 0
 1051 04c3 13       		.uleb128 0x13
 1052 04c4 01       		.uleb128 0x1
 1053 04c5 50       		.byte	0x50
 1054 04c6 02       		.uleb128 0x2
 1055 04c7 76       		.byte	0x76
 1056 04c8 00       		.sleb128 0
 1057 04c9 00       		.byte	0
 1058 04ca 00       		.byte	0
 1059 04cb 06       		.uleb128 0x6
 1060 04cc 04       		.byte	0x4
 1061 04cd D1040000 		.4byte	0x4d1
 1062 04d1 07       		.uleb128 0x7
 1063 04d2 C4010000 		.4byte	0x1c4
 1064 04d6 15       		.uleb128 0x15
 1065 04d7 BF010000 		.4byte	.LASF58
 1066 04db 04       		.byte	0x4
 1067 04dc 9A08     		.2byte	0x89a
 1068 04de 16       		.uleb128 0x16
 1069 04df B9010000 		.4byte	0x1b9
 1070 04e3 16       		.uleb128 0x16
 1071 04e4 EE000000 		.4byte	0xee
 1072 04e8 16       		.uleb128 0x16
 1073 04e9 93000000 		.4byte	0x93
 1074 04ed 16       		.uleb128 0x16
 1075 04ee 93000000 		.4byte	0x93
 1076 04f2 00       		.byte	0
 1077 04f3 00       		.byte	0
 1078              		.section	.debug_abbrev,"",%progbits
 1079              	.Ldebug_abbrev0:
 1080 0000 01       		.uleb128 0x1
 1081 0001 11       		.uleb128 0x11
ARM GAS  /tmp/ccD3cEQM.s 			page 20


 1082 0002 01       		.byte	0x1
 1083 0003 25       		.uleb128 0x25
 1084 0004 0E       		.uleb128 0xe
 1085 0005 13       		.uleb128 0x13
 1086 0006 0B       		.uleb128 0xb
 1087 0007 03       		.uleb128 0x3
 1088 0008 0E       		.uleb128 0xe
 1089 0009 11       		.uleb128 0x11
 1090 000a 01       		.uleb128 0x1
 1091 000b 12       		.uleb128 0x12
 1092 000c 06       		.uleb128 0x6
 1093 000d 10       		.uleb128 0x10
 1094 000e 17       		.uleb128 0x17
 1095 000f 00       		.byte	0
 1096 0010 00       		.byte	0
 1097 0011 02       		.uleb128 0x2
 1098 0012 24       		.uleb128 0x24
 1099 0013 00       		.byte	0
 1100 0014 0B       		.uleb128 0xb
 1101 0015 0B       		.uleb128 0xb
 1102 0016 3E       		.uleb128 0x3e
 1103 0017 0B       		.uleb128 0xb
 1104 0018 03       		.uleb128 0x3
 1105 0019 0E       		.uleb128 0xe
 1106 001a 00       		.byte	0
 1107 001b 00       		.byte	0
 1108 001c 03       		.uleb128 0x3
 1109 001d 16       		.uleb128 0x16
 1110 001e 00       		.byte	0
 1111 001f 03       		.uleb128 0x3
 1112 0020 0E       		.uleb128 0xe
 1113 0021 3A       		.uleb128 0x3a
 1114 0022 0B       		.uleb128 0xb
 1115 0023 3B       		.uleb128 0x3b
 1116 0024 0B       		.uleb128 0xb
 1117 0025 49       		.uleb128 0x49
 1118 0026 13       		.uleb128 0x13
 1119 0027 00       		.byte	0
 1120 0028 00       		.byte	0
 1121 0029 04       		.uleb128 0x4
 1122 002a 24       		.uleb128 0x24
 1123 002b 00       		.byte	0
 1124 002c 0B       		.uleb128 0xb
 1125 002d 0B       		.uleb128 0xb
 1126 002e 3E       		.uleb128 0x3e
 1127 002f 0B       		.uleb128 0xb
 1128 0030 03       		.uleb128 0x3
 1129 0031 08       		.uleb128 0x8
 1130 0032 00       		.byte	0
 1131 0033 00       		.byte	0
 1132 0034 05       		.uleb128 0x5
 1133 0035 16       		.uleb128 0x16
 1134 0036 00       		.byte	0
 1135 0037 03       		.uleb128 0x3
 1136 0038 0E       		.uleb128 0xe
 1137 0039 3A       		.uleb128 0x3a
 1138 003a 0B       		.uleb128 0xb
ARM GAS  /tmp/ccD3cEQM.s 			page 21


 1139 003b 3B       		.uleb128 0x3b
 1140 003c 05       		.uleb128 0x5
 1141 003d 49       		.uleb128 0x49
 1142 003e 13       		.uleb128 0x13
 1143 003f 00       		.byte	0
 1144 0040 00       		.byte	0
 1145 0041 06       		.uleb128 0x6
 1146 0042 0F       		.uleb128 0xf
 1147 0043 00       		.byte	0
 1148 0044 0B       		.uleb128 0xb
 1149 0045 0B       		.uleb128 0xb
 1150 0046 49       		.uleb128 0x49
 1151 0047 13       		.uleb128 0x13
 1152 0048 00       		.byte	0
 1153 0049 00       		.byte	0
 1154 004a 07       		.uleb128 0x7
 1155 004b 26       		.uleb128 0x26
 1156 004c 00       		.byte	0
 1157 004d 49       		.uleb128 0x49
 1158 004e 13       		.uleb128 0x13
 1159 004f 00       		.byte	0
 1160 0050 00       		.byte	0
 1161 0051 08       		.uleb128 0x8
 1162 0052 13       		.uleb128 0x13
 1163 0053 01       		.byte	0x1
 1164 0054 0B       		.uleb128 0xb
 1165 0055 0B       		.uleb128 0xb
 1166 0056 3A       		.uleb128 0x3a
 1167 0057 0B       		.uleb128 0xb
 1168 0058 3B       		.uleb128 0x3b
 1169 0059 05       		.uleb128 0x5
 1170 005a 01       		.uleb128 0x1
 1171 005b 13       		.uleb128 0x13
 1172 005c 00       		.byte	0
 1173 005d 00       		.byte	0
 1174 005e 09       		.uleb128 0x9
 1175 005f 0D       		.uleb128 0xd
 1176 0060 00       		.byte	0
 1177 0061 03       		.uleb128 0x3
 1178 0062 0E       		.uleb128 0xe
 1179 0063 3A       		.uleb128 0x3a
 1180 0064 0B       		.uleb128 0xb
 1181 0065 3B       		.uleb128 0x3b
 1182 0066 05       		.uleb128 0x5
 1183 0067 49       		.uleb128 0x49
 1184 0068 13       		.uleb128 0x13
 1185 0069 38       		.uleb128 0x38
 1186 006a 0B       		.uleb128 0xb
 1187 006b 00       		.byte	0
 1188 006c 00       		.byte	0
 1189 006d 0A       		.uleb128 0xa
 1190 006e 2E       		.uleb128 0x2e
 1191 006f 01       		.byte	0x1
 1192 0070 3F       		.uleb128 0x3f
 1193 0071 19       		.uleb128 0x19
 1194 0072 03       		.uleb128 0x3
 1195 0073 0E       		.uleb128 0xe
ARM GAS  /tmp/ccD3cEQM.s 			page 22


 1196 0074 3A       		.uleb128 0x3a
 1197 0075 0B       		.uleb128 0xb
 1198 0076 3B       		.uleb128 0x3b
 1199 0077 0B       		.uleb128 0xb
 1200 0078 27       		.uleb128 0x27
 1201 0079 19       		.uleb128 0x19
 1202 007a 11       		.uleb128 0x11
 1203 007b 01       		.uleb128 0x1
 1204 007c 12       		.uleb128 0x12
 1205 007d 06       		.uleb128 0x6
 1206 007e 40       		.uleb128 0x40
 1207 007f 18       		.uleb128 0x18
 1208 0080 9742     		.uleb128 0x2117
 1209 0082 19       		.uleb128 0x19
 1210 0083 01       		.uleb128 0x1
 1211 0084 13       		.uleb128 0x13
 1212 0085 00       		.byte	0
 1213 0086 00       		.byte	0
 1214 0087 0B       		.uleb128 0xb
 1215 0088 05       		.uleb128 0x5
 1216 0089 00       		.byte	0
 1217 008a 03       		.uleb128 0x3
 1218 008b 0E       		.uleb128 0xe
 1219 008c 3A       		.uleb128 0x3a
 1220 008d 0B       		.uleb128 0xb
 1221 008e 3B       		.uleb128 0x3b
 1222 008f 0B       		.uleb128 0xb
 1223 0090 49       		.uleb128 0x49
 1224 0091 13       		.uleb128 0x13
 1225 0092 02       		.uleb128 0x2
 1226 0093 17       		.uleb128 0x17
 1227 0094 00       		.byte	0
 1228 0095 00       		.byte	0
 1229 0096 0C       		.uleb128 0xc
 1230 0097 05       		.uleb128 0x5
 1231 0098 00       		.byte	0
 1232 0099 03       		.uleb128 0x3
 1233 009a 0E       		.uleb128 0xe
 1234 009b 3A       		.uleb128 0x3a
 1235 009c 0B       		.uleb128 0xb
 1236 009d 3B       		.uleb128 0x3b
 1237 009e 0B       		.uleb128 0xb
 1238 009f 49       		.uleb128 0x49
 1239 00a0 13       		.uleb128 0x13
 1240 00a1 02       		.uleb128 0x2
 1241 00a2 18       		.uleb128 0x18
 1242 00a3 00       		.byte	0
 1243 00a4 00       		.byte	0
 1244 00a5 0D       		.uleb128 0xd
 1245 00a6 34       		.uleb128 0x34
 1246 00a7 00       		.byte	0
 1247 00a8 03       		.uleb128 0x3
 1248 00a9 08       		.uleb128 0x8
 1249 00aa 3A       		.uleb128 0x3a
 1250 00ab 0B       		.uleb128 0xb
 1251 00ac 3B       		.uleb128 0x3b
 1252 00ad 0B       		.uleb128 0xb
ARM GAS  /tmp/ccD3cEQM.s 			page 23


 1253 00ae 49       		.uleb128 0x49
 1254 00af 13       		.uleb128 0x13
 1255 00b0 02       		.uleb128 0x2
 1256 00b1 17       		.uleb128 0x17
 1257 00b2 00       		.byte	0
 1258 00b3 00       		.byte	0
 1259 00b4 0E       		.uleb128 0xe
 1260 00b5 34       		.uleb128 0x34
 1261 00b6 00       		.byte	0
 1262 00b7 03       		.uleb128 0x3
 1263 00b8 0E       		.uleb128 0xe
 1264 00b9 3A       		.uleb128 0x3a
 1265 00ba 0B       		.uleb128 0xb
 1266 00bb 3B       		.uleb128 0x3b
 1267 00bc 0B       		.uleb128 0xb
 1268 00bd 49       		.uleb128 0x49
 1269 00be 13       		.uleb128 0x13
 1270 00bf 02       		.uleb128 0x2
 1271 00c0 17       		.uleb128 0x17
 1272 00c1 00       		.byte	0
 1273 00c2 00       		.byte	0
 1274 00c3 0F       		.uleb128 0xf
 1275 00c4 34       		.uleb128 0x34
 1276 00c5 00       		.byte	0
 1277 00c6 03       		.uleb128 0x3
 1278 00c7 0E       		.uleb128 0xe
 1279 00c8 3A       		.uleb128 0x3a
 1280 00c9 0B       		.uleb128 0xb
 1281 00ca 3B       		.uleb128 0x3b
 1282 00cb 0B       		.uleb128 0xb
 1283 00cc 49       		.uleb128 0x49
 1284 00cd 13       		.uleb128 0x13
 1285 00ce 02       		.uleb128 0x2
 1286 00cf 18       		.uleb128 0x18
 1287 00d0 00       		.byte	0
 1288 00d1 00       		.byte	0
 1289 00d2 10       		.uleb128 0x10
 1290 00d3 05       		.uleb128 0x5
 1291 00d4 00       		.byte	0
 1292 00d5 03       		.uleb128 0x3
 1293 00d6 08       		.uleb128 0x8
 1294 00d7 3A       		.uleb128 0x3a
 1295 00d8 0B       		.uleb128 0xb
 1296 00d9 3B       		.uleb128 0x3b
 1297 00da 0B       		.uleb128 0xb
 1298 00db 49       		.uleb128 0x49
 1299 00dc 13       		.uleb128 0x13
 1300 00dd 02       		.uleb128 0x2
 1301 00de 17       		.uleb128 0x17
 1302 00df 00       		.byte	0
 1303 00e0 00       		.byte	0
 1304 00e1 11       		.uleb128 0x11
 1305 00e2 34       		.uleb128 0x34
 1306 00e3 00       		.byte	0
 1307 00e4 03       		.uleb128 0x3
 1308 00e5 08       		.uleb128 0x8
 1309 00e6 3A       		.uleb128 0x3a
ARM GAS  /tmp/ccD3cEQM.s 			page 24


 1310 00e7 0B       		.uleb128 0xb
 1311 00e8 3B       		.uleb128 0x3b
 1312 00e9 0B       		.uleb128 0xb
 1313 00ea 49       		.uleb128 0x49
 1314 00eb 13       		.uleb128 0x13
 1315 00ec 02       		.uleb128 0x2
 1316 00ed 18       		.uleb128 0x18
 1317 00ee 00       		.byte	0
 1318 00ef 00       		.byte	0
 1319 00f0 12       		.uleb128 0x12
 1320 00f1 898201   		.uleb128 0x4109
 1321 00f4 01       		.byte	0x1
 1322 00f5 11       		.uleb128 0x11
 1323 00f6 01       		.uleb128 0x1
 1324 00f7 31       		.uleb128 0x31
 1325 00f8 13       		.uleb128 0x13
 1326 00f9 01       		.uleb128 0x1
 1327 00fa 13       		.uleb128 0x13
 1328 00fb 00       		.byte	0
 1329 00fc 00       		.byte	0
 1330 00fd 13       		.uleb128 0x13
 1331 00fe 8A8201   		.uleb128 0x410a
 1332 0101 00       		.byte	0
 1333 0102 02       		.uleb128 0x2
 1334 0103 18       		.uleb128 0x18
 1335 0104 9142     		.uleb128 0x2111
 1336 0106 18       		.uleb128 0x18
 1337 0107 00       		.byte	0
 1338 0108 00       		.byte	0
 1339 0109 14       		.uleb128 0x14
 1340 010a 898201   		.uleb128 0x4109
 1341 010d 01       		.byte	0x1
 1342 010e 11       		.uleb128 0x11
 1343 010f 01       		.uleb128 0x1
 1344 0110 31       		.uleb128 0x31
 1345 0111 13       		.uleb128 0x13
 1346 0112 00       		.byte	0
 1347 0113 00       		.byte	0
 1348 0114 15       		.uleb128 0x15
 1349 0115 2E       		.uleb128 0x2e
 1350 0116 01       		.byte	0x1
 1351 0117 3F       		.uleb128 0x3f
 1352 0118 19       		.uleb128 0x19
 1353 0119 03       		.uleb128 0x3
 1354 011a 0E       		.uleb128 0xe
 1355 011b 3A       		.uleb128 0x3a
 1356 011c 0B       		.uleb128 0xb
 1357 011d 3B       		.uleb128 0x3b
 1358 011e 05       		.uleb128 0x5
 1359 011f 27       		.uleb128 0x27
 1360 0120 19       		.uleb128 0x19
 1361 0121 3C       		.uleb128 0x3c
 1362 0122 19       		.uleb128 0x19
 1363 0123 00       		.byte	0
 1364 0124 00       		.byte	0
 1365 0125 16       		.uleb128 0x16
 1366 0126 05       		.uleb128 0x5
ARM GAS  /tmp/ccD3cEQM.s 			page 25


 1367 0127 00       		.byte	0
 1368 0128 49       		.uleb128 0x49
 1369 0129 13       		.uleb128 0x13
 1370 012a 00       		.byte	0
 1371 012b 00       		.byte	0
 1372 012c 00       		.byte	0
 1373              		.section	.debug_loc,"",%progbits
 1374              	.Ldebug_loc0:
 1375              	.LLST0:
 1376 0000 00000000 		.4byte	.LVL0-.Ltext0
 1377 0004 16000000 		.4byte	.LVL2-.Ltext0
 1378 0008 0100     		.2byte	0x1
 1379 000a 50       		.byte	0x50
 1380 000b 16000000 		.4byte	.LVL2-.Ltext0
 1381 000f D2000000 		.4byte	.LFE136-.Ltext0
 1382 0013 0200     		.2byte	0x2
 1383 0015 91       		.byte	0x91
 1384 0016 50       		.sleb128 -48
 1385 0017 00000000 		.4byte	0
 1386 001b 00000000 		.4byte	0
 1387              	.LLST1:
 1388 001f 00000000 		.4byte	.LVL0-.Ltext0
 1389 0023 26000000 		.4byte	.LVL7-.Ltext0
 1390 0027 0100     		.2byte	0x1
 1391 0029 51       		.byte	0x51
 1392 002a 26000000 		.4byte	.LVL7-.Ltext0
 1393 002e D2000000 		.4byte	.LFE136-.Ltext0
 1394 0032 0200     		.2byte	0x2
 1395 0034 91       		.byte	0x91
 1396 0035 54       		.sleb128 -44
 1397 0036 00000000 		.4byte	0
 1398 003a 00000000 		.4byte	0
 1399              	.LLST2:
 1400 003e 00000000 		.4byte	.LVL0-.Ltext0
 1401 0042 1A000000 		.4byte	.LVL3-.Ltext0
 1402 0046 0100     		.2byte	0x1
 1403 0048 52       		.byte	0x52
 1404 0049 1A000000 		.4byte	.LVL3-.Ltext0
 1405 004d D2000000 		.4byte	.LFE136-.Ltext0
 1406 0051 0400     		.2byte	0x4
 1407 0053 F3       		.byte	0xf3
 1408 0054 01       		.uleb128 0x1
 1409 0055 52       		.byte	0x52
 1410 0056 9F       		.byte	0x9f
 1411 0057 00000000 		.4byte	0
 1412 005b 00000000 		.4byte	0
 1413              	.LLST3:
 1414 005f 00000000 		.4byte	.LVL0-.Ltext0
 1415 0063 1C000000 		.4byte	.LVL4-.Ltext0
 1416 0067 0100     		.2byte	0x1
 1417 0069 53       		.byte	0x53
 1418 006a 1C000000 		.4byte	.LVL4-.Ltext0
 1419 006e D2000000 		.4byte	.LFE136-.Ltext0
 1420 0072 0400     		.2byte	0x4
 1421 0074 F3       		.byte	0xf3
 1422 0075 01       		.uleb128 0x1
 1423 0076 53       		.byte	0x53
ARM GAS  /tmp/ccD3cEQM.s 			page 26


 1424 0077 9F       		.byte	0x9f
 1425 0078 00000000 		.4byte	0
 1426 007c 00000000 		.4byte	0
 1427              	.LLST4:
 1428 0080 22000000 		.4byte	.LVL6-.Ltext0
 1429 0084 80000000 		.4byte	.LVL26-.Ltext0
 1430 0088 0100     		.2byte	0x1
 1431 008a 5A       		.byte	0x5a
 1432 008b 80000000 		.4byte	.LVL26-.Ltext0
 1433 008f 90000000 		.4byte	.LVL31-.Ltext0
 1434 0093 0300     		.2byte	0x3
 1435 0095 7A       		.byte	0x7a
 1436 0096 01       		.sleb128 1
 1437 0097 9F       		.byte	0x9f
 1438 0098 00000000 		.4byte	0
 1439 009c 00000000 		.4byte	0
 1440              	.LLST5:
 1441 00a0 50000000 		.4byte	.LVL16-.Ltext0
 1442 00a4 76000000 		.4byte	.LVL24-.Ltext0
 1443 00a8 0100     		.2byte	0x1
 1444 00aa 55       		.byte	0x55
 1445 00ab 76000000 		.4byte	.LVL24-.Ltext0
 1446 00af A0000000 		.4byte	.LVL34-.Ltext0
 1447 00b3 0100     		.2byte	0x1
 1448 00b5 51       		.byte	0x51
 1449 00b6 00000000 		.4byte	0
 1450 00ba 00000000 		.4byte	0
 1451              	.LLST6:
 1452 00be 54000000 		.4byte	.LVL17-.Ltext0
 1453 00c2 60000000 		.4byte	.LVL20-.Ltext0
 1454 00c6 0100     		.2byte	0x1
 1455 00c8 54       		.byte	0x54
 1456 00c9 60000000 		.4byte	.LVL20-.Ltext0
 1457 00cd 7A000000 		.4byte	.LVL25-.Ltext0
 1458 00d1 0100     		.2byte	0x1
 1459 00d3 5B       		.byte	0x5b
 1460 00d4 7A000000 		.4byte	.LVL25-.Ltext0
 1461 00d8 A0000000 		.4byte	.LVL34-.Ltext0
 1462 00dc 0100     		.2byte	0x1
 1463 00de 50       		.byte	0x50
 1464 00df 00000000 		.4byte	0
 1465 00e3 00000000 		.4byte	0
 1466              	.LLST7:
 1467 00e7 22000000 		.4byte	.LVL6-.Ltext0
 1468 00eb 40000000 		.4byte	.LVL12-.Ltext0
 1469 00ef 0100     		.2byte	0x1
 1470 00f1 52       		.byte	0x52
 1471 00f2 40000000 		.4byte	.LVL12-.Ltext0
 1472 00f6 42000000 		.4byte	.LVL13-.Ltext0
 1473 00fa 0800     		.2byte	0x8
 1474 00fc 72       		.byte	0x72
 1475 00fd 00       		.sleb128 0
 1476 00fe 76       		.byte	0x76
 1477 00ff 00       		.sleb128 0
 1478 0100 22       		.byte	0x22
 1479 0101 23       		.byte	0x23
 1480 0102 04       		.uleb128 0x4
ARM GAS  /tmp/ccD3cEQM.s 			page 27


 1481 0103 9F       		.byte	0x9f
 1482 0104 42000000 		.4byte	.LVL13-.Ltext0
 1483 0108 58000000 		.4byte	.LVL18-.Ltext0
 1484 010c 0300     		.2byte	0x3
 1485 010e 71       		.byte	0x71
 1486 010f 04       		.sleb128 4
 1487 0110 9F       		.byte	0x9f
 1488 0111 58000000 		.4byte	.LVL18-.Ltext0
 1489 0115 90000000 		.4byte	.LVL31-.Ltext0
 1490 0119 0800     		.2byte	0x8
 1491 011b 72       		.byte	0x72
 1492 011c 00       		.sleb128 0
 1493 011d 76       		.byte	0x76
 1494 011e 00       		.sleb128 0
 1495 011f 22       		.byte	0x22
 1496 0120 23       		.byte	0x23
 1497 0121 04       		.uleb128 0x4
 1498 0122 9F       		.byte	0x9f
 1499 0123 90000000 		.4byte	.LVL31-.Ltext0
 1500 0127 9E000000 		.4byte	.LVL33-.Ltext0
 1501 012b 0900     		.2byte	0x9
 1502 012d 72       		.byte	0x72
 1503 012e 00       		.sleb128 0
 1504 012f 79       		.byte	0x79
 1505 0130 00       		.sleb128 0
 1506 0131 22       		.byte	0x22
 1507 0132 76       		.byte	0x76
 1508 0133 00       		.sleb128 0
 1509 0134 22       		.byte	0x22
 1510 0135 9F       		.byte	0x9f
 1511 0136 00000000 		.4byte	0
 1512 013a 00000000 		.4byte	0
 1513              	.LLST8:
 1514 013e 22000000 		.4byte	.LVL6-.Ltext0
 1515 0142 40000000 		.4byte	.LVL12-.Ltext0
 1516 0146 0100     		.2byte	0x1
 1517 0148 53       		.byte	0x53
 1518 0149 40000000 		.4byte	.LVL12-.Ltext0
 1519 014d 90000000 		.4byte	.LVL31-.Ltext0
 1520 0151 0600     		.2byte	0x6
 1521 0153 73       		.byte	0x73
 1522 0154 00       		.sleb128 0
 1523 0155 76       		.byte	0x76
 1524 0156 00       		.sleb128 0
 1525 0157 22       		.byte	0x22
 1526 0158 9F       		.byte	0x9f
 1527 0159 90000000 		.4byte	.LVL31-.Ltext0
 1528 015d 9E000000 		.4byte	.LVL33-.Ltext0
 1529 0161 0900     		.2byte	0x9
 1530 0163 73       		.byte	0x73
 1531 0164 00       		.sleb128 0
 1532 0165 79       		.byte	0x79
 1533 0166 00       		.sleb128 0
 1534 0167 22       		.byte	0x22
 1535 0168 76       		.byte	0x76
 1536 0169 00       		.sleb128 0
 1537 016a 22       		.byte	0x22
ARM GAS  /tmp/ccD3cEQM.s 			page 28


 1538 016b 9F       		.byte	0x9f
 1539 016c 00000000 		.4byte	0
 1540 0170 00000000 		.4byte	0
 1541              	.LLST9:
 1542 0174 46000000 		.4byte	.LVL14-.Ltext0
 1543 0178 60000000 		.4byte	.LVL20-.Ltext0
 1544 017c 0100     		.2byte	0x1
 1545 017e 5B       		.byte	0x5b
 1546 017f 60000000 		.4byte	.LVL20-.Ltext0
 1547 0183 84000000 		.4byte	.LVL27-.Ltext0
 1548 0187 0500     		.2byte	0x5
 1549 0189 72       		.byte	0x72
 1550 018a 00       		.sleb128 0
 1551 018b 76       		.byte	0x76
 1552 018c 00       		.sleb128 0
 1553 018d 22       		.byte	0x22
 1554 018e 00000000 		.4byte	0
 1555 0192 00000000 		.4byte	0
 1556              	.LLST10:
 1557 0196 48000000 		.4byte	.LVL15-.Ltext0
 1558 019a 7A000000 		.4byte	.LVL25-.Ltext0
 1559 019e 0100     		.2byte	0x1
 1560 01a0 50       		.byte	0x50
 1561 01a1 7A000000 		.4byte	.LVL25-.Ltext0
 1562 01a5 84000000 		.4byte	.LVL27-.Ltext0
 1563 01a9 0700     		.2byte	0x7
 1564 01ab 72       		.byte	0x72
 1565 01ac 00       		.sleb128 0
 1566 01ad 76       		.byte	0x76
 1567 01ae 00       		.sleb128 0
 1568 01af 22       		.byte	0x22
 1569 01b0 23       		.byte	0x23
 1570 01b1 04       		.uleb128 0x4
 1571 01b2 00000000 		.4byte	0
 1572 01b6 00000000 		.4byte	0
 1573              	.LLST11:
 1574 01ba 6A000000 		.4byte	.LVL22-.Ltext0
 1575 01be 76000000 		.4byte	.LVL24-.Ltext0
 1576 01c2 0100     		.2byte	0x1
 1577 01c4 51       		.byte	0x51
 1578 01c5 76000000 		.4byte	.LVL24-.Ltext0
 1579 01c9 84000000 		.4byte	.LVL27-.Ltext0
 1580 01cd 0500     		.2byte	0x5
 1581 01cf 73       		.byte	0x73
 1582 01d0 00       		.sleb128 0
 1583 01d1 76       		.byte	0x76
 1584 01d2 00       		.sleb128 0
 1585 01d3 22       		.byte	0x22
 1586 01d4 00000000 		.4byte	0
 1587 01d8 00000000 		.4byte	0
 1588              	.LLST12:
 1589 01dc 06000000 		.4byte	.LVL1-.Ltext0
 1590 01e0 40000000 		.4byte	.LVL12-.Ltext0
 1591 01e4 0600     		.2byte	0x6
 1592 01e6 91       		.byte	0x91
 1593 01e7 00       		.sleb128 0
 1594 01e8 06       		.byte	0x6
ARM GAS  /tmp/ccD3cEQM.s 			page 29


 1595 01e9 23       		.byte	0x23
 1596 01ea 08       		.uleb128 0x8
 1597 01eb 9F       		.byte	0x9f
 1598 01ec 00000000 		.4byte	0
 1599 01f0 00000000 		.4byte	0
 1600              	.LLST13:
 1601 01f4 20000000 		.4byte	.LVL5-.Ltext0
 1602 01f8 30000000 		.4byte	.LVL10-.Ltext0
 1603 01fc 0900     		.2byte	0x9
 1604 01fe 91       		.byte	0x91
 1605 01ff 00       		.sleb128 0
 1606 0200 06       		.byte	0x6
 1607 0201 77       		.byte	0x77
 1608 0202 00       		.sleb128 0
 1609 0203 22       		.byte	0x22
 1610 0204 34       		.byte	0x34
 1611 0205 1C       		.byte	0x1c
 1612 0206 9F       		.byte	0x9f
 1613 0207 30000000 		.4byte	.LVL10-.Ltext0
 1614 020b 32000000 		.4byte	.LVL11-.Ltext0
 1615 020f 0900     		.2byte	0x9
 1616 0211 91       		.byte	0x91
 1617 0212 00       		.sleb128 0
 1618 0213 06       		.byte	0x6
 1619 0214 77       		.byte	0x77
 1620 0215 00       		.sleb128 0
 1621 0216 22       		.byte	0x22
 1622 0217 23       		.byte	0x23
 1623 0218 08       		.uleb128 0x8
 1624 0219 9F       		.byte	0x9f
 1625 021a 32000000 		.4byte	.LVL11-.Ltext0
 1626 021e 40000000 		.4byte	.LVL12-.Ltext0
 1627 0222 0C00     		.2byte	0xc
 1628 0224 91       		.byte	0x91
 1629 0225 54       		.sleb128 -44
 1630 0226 06       		.byte	0x6
 1631 0227 34       		.byte	0x34
 1632 0228 24       		.byte	0x24
 1633 0229 91       		.byte	0x91
 1634 022a 00       		.sleb128 0
 1635 022b 06       		.byte	0x6
 1636 022c 22       		.byte	0x22
 1637 022d 34       		.byte	0x34
 1638 022e 1C       		.byte	0x1c
 1639 022f 9F       		.byte	0x9f
 1640 0230 40000000 		.4byte	.LVL12-.Ltext0
 1641 0234 88000000 		.4byte	.LVL28-.Ltext0
 1642 0238 1700     		.2byte	0x17
 1643 023a 91       		.byte	0x91
 1644 023b 54       		.sleb128 -44
 1645 023c 06       		.byte	0x6
 1646 023d 34       		.byte	0x34
 1647 023e 24       		.byte	0x24
 1648 023f 91       		.byte	0x91
 1649 0240 00       		.sleb128 0
 1650 0241 06       		.byte	0x6
 1651 0242 22       		.byte	0x22
ARM GAS  /tmp/ccD3cEQM.s 			page 30


 1652 0243 91       		.byte	0x91
 1653 0244 50       		.sleb128 -48
 1654 0245 06       		.byte	0x6
 1655 0246 1C       		.byte	0x1c
 1656 0247 7E       		.byte	0x7e
 1657 0248 00       		.sleb128 0
 1658 0249 22       		.byte	0x22
 1659 024a 91       		.byte	0x91
 1660 024b 4C       		.sleb128 -52
 1661 024c 06       		.byte	0x6
 1662 024d 1C       		.byte	0x1c
 1663 024e 23       		.byte	0x23
 1664 024f 08       		.uleb128 0x8
 1665 0250 9F       		.byte	0x9f
 1666 0251 88000000 		.4byte	.LVL28-.Ltext0
 1667 0255 8E000000 		.4byte	.LVL30-.Ltext0
 1668 0259 1700     		.2byte	0x17
 1669 025b 91       		.byte	0x91
 1670 025c 54       		.sleb128 -44
 1671 025d 06       		.byte	0x6
 1672 025e 34       		.byte	0x34
 1673 025f 24       		.byte	0x24
 1674 0260 91       		.byte	0x91
 1675 0261 00       		.sleb128 0
 1676 0262 06       		.byte	0x6
 1677 0263 22       		.byte	0x22
 1678 0264 91       		.byte	0x91
 1679 0265 4C       		.sleb128 -52
 1680 0266 06       		.byte	0x6
 1681 0267 1C       		.byte	0x1c
 1682 0268 7E       		.byte	0x7e
 1683 0269 00       		.sleb128 0
 1684 026a 22       		.byte	0x22
 1685 026b 91       		.byte	0x91
 1686 026c 50       		.sleb128 -48
 1687 026d 06       		.byte	0x6
 1688 026e 1C       		.byte	0x1c
 1689 026f 23       		.byte	0x23
 1690 0270 04       		.uleb128 0x4
 1691 0271 9F       		.byte	0x9f
 1692 0272 8E000000 		.4byte	.LVL30-.Ltext0
 1693 0276 94000000 		.4byte	.LVL32-.Ltext0
 1694 027a 1500     		.2byte	0x15
 1695 027c 91       		.byte	0x91
 1696 027d 54       		.sleb128 -44
 1697 027e 06       		.byte	0x6
 1698 027f 34       		.byte	0x34
 1699 0280 24       		.byte	0x24
 1700 0281 91       		.byte	0x91
 1701 0282 00       		.sleb128 0
 1702 0283 06       		.byte	0x6
 1703 0284 22       		.byte	0x22
 1704 0285 7E       		.byte	0x7e
 1705 0286 00       		.sleb128 0
 1706 0287 22       		.byte	0x22
 1707 0288 91       		.byte	0x91
 1708 0289 50       		.sleb128 -48
ARM GAS  /tmp/ccD3cEQM.s 			page 31


 1709 028a 06       		.byte	0x6
 1710 028b 1C       		.byte	0x1c
 1711 028c 91       		.byte	0x91
 1712 028d 4C       		.sleb128 -52
 1713 028e 06       		.byte	0x6
 1714 028f 1C       		.byte	0x1c
 1715 0290 9F       		.byte	0x9f
 1716 0291 94000000 		.4byte	.LVL32-.Ltext0
 1717 0295 A0000000 		.4byte	.LVL34-.Ltext0
 1718 0299 1700     		.2byte	0x17
 1719 029b 91       		.byte	0x91
 1720 029c 54       		.sleb128 -44
 1721 029d 06       		.byte	0x6
 1722 029e 34       		.byte	0x34
 1723 029f 24       		.byte	0x24
 1724 02a0 91       		.byte	0x91
 1725 02a1 00       		.sleb128 0
 1726 02a2 06       		.byte	0x6
 1727 02a3 22       		.byte	0x22
 1728 02a4 7E       		.byte	0x7e
 1729 02a5 00       		.sleb128 0
 1730 02a6 22       		.byte	0x22
 1731 02a7 91       		.byte	0x91
 1732 02a8 50       		.sleb128 -48
 1733 02a9 06       		.byte	0x6
 1734 02aa 1C       		.byte	0x1c
 1735 02ab 91       		.byte	0x91
 1736 02ac 4C       		.sleb128 -52
 1737 02ad 06       		.byte	0x6
 1738 02ae 1C       		.byte	0x1c
 1739 02af 23       		.byte	0x23
 1740 02b0 08       		.uleb128 0x8
 1741 02b1 9F       		.byte	0x9f
 1742 02b2 00000000 		.4byte	0
 1743 02b6 00000000 		.4byte	0
 1744              	.LLST14:
 1745 02ba 20000000 		.4byte	.LVL5-.Ltext0
 1746 02be 40000000 		.4byte	.LVL12-.Ltext0
 1747 02c2 0600     		.2byte	0x6
 1748 02c4 91       		.byte	0x91
 1749 02c5 50       		.sleb128 -48
 1750 02c6 06       		.byte	0x6
 1751 02c7 23       		.byte	0x23
 1752 02c8 08       		.uleb128 0x8
 1753 02c9 9F       		.byte	0x9f
 1754 02ca 40000000 		.4byte	.LVL12-.Ltext0
 1755 02ce 50000000 		.4byte	.LVL16-.Ltext0
 1756 02d2 0300     		.2byte	0x3
 1757 02d4 78       		.byte	0x78
 1758 02d5 78       		.sleb128 -8
 1759 02d6 9F       		.byte	0x9f
 1760 02d7 50000000 		.4byte	.LVL16-.Ltext0
 1761 02db 5C000000 		.4byte	.LVL19-.Ltext0
 1762 02df 0300     		.2byte	0x3
 1763 02e1 78       		.byte	0x78
 1764 02e2 7C       		.sleb128 -4
 1765 02e3 9F       		.byte	0x9f
ARM GAS  /tmp/ccD3cEQM.s 			page 32


 1766 02e4 5C000000 		.4byte	.LVL19-.Ltext0
 1767 02e8 8C000000 		.4byte	.LVL29-.Ltext0
 1768 02ec 0100     		.2byte	0x1
 1769 02ee 58       		.byte	0x58
 1770 02ef 8C000000 		.4byte	.LVL29-.Ltext0
 1771 02f3 A0000000 		.4byte	.LVL34-.Ltext0
 1772 02f7 0300     		.2byte	0x3
 1773 02f9 78       		.byte	0x78
 1774 02fa 78       		.sleb128 -8
 1775 02fb 9F       		.byte	0x9f
 1776 02fc 00000000 		.4byte	0
 1777 0300 00000000 		.4byte	0
 1778              	.LLST15:
 1779 0304 22000000 		.4byte	.LVL6-.Ltext0
 1780 0308 28000000 		.4byte	.LVL8-.Ltext0
 1781 030c 0900     		.2byte	0x9
 1782 030e 70       		.byte	0x70
 1783 030f 00       		.sleb128 0
 1784 0310 91       		.byte	0x91
 1785 0311 50       		.sleb128 -48
 1786 0312 06       		.byte	0x6
 1787 0313 22       		.byte	0x22
 1788 0314 34       		.byte	0x34
 1789 0315 1C       		.byte	0x1c
 1790 0316 9F       		.byte	0x9f
 1791 0317 28000000 		.4byte	.LVL8-.Ltext0
 1792 031b 2E000000 		.4byte	.LVL9-.Ltext0
 1793 031f 0900     		.2byte	0x9
 1794 0321 71       		.byte	0x71
 1795 0322 00       		.sleb128 0
 1796 0323 91       		.byte	0x91
 1797 0324 50       		.sleb128 -48
 1798 0325 06       		.byte	0x6
 1799 0326 22       		.byte	0x22
 1800 0327 34       		.byte	0x34
 1801 0328 1C       		.byte	0x1c
 1802 0329 9F       		.byte	0x9f
 1803 032a 2E000000 		.4byte	.LVL9-.Ltext0
 1804 032e 40000000 		.4byte	.LVL12-.Ltext0
 1805 0332 0A00     		.2byte	0xa
 1806 0334 91       		.byte	0x91
 1807 0335 4C       		.sleb128 -52
 1808 0336 06       		.byte	0x6
 1809 0337 91       		.byte	0x91
 1810 0338 50       		.sleb128 -48
 1811 0339 06       		.byte	0x6
 1812 033a 22       		.byte	0x22
 1813 033b 34       		.byte	0x34
 1814 033c 1C       		.byte	0x1c
 1815 033d 9F       		.byte	0x9f
 1816 033e 40000000 		.4byte	.LVL12-.Ltext0
 1817 0342 6A000000 		.4byte	.LVL22-.Ltext0
 1818 0346 0300     		.2byte	0x3
 1819 0348 7E       		.byte	0x7e
 1820 0349 08       		.sleb128 8
 1821 034a 9F       		.byte	0x9f
 1822 034b 6A000000 		.4byte	.LVL22-.Ltext0
ARM GAS  /tmp/ccD3cEQM.s 			page 33


 1823 034f 76000000 		.4byte	.LVL24-.Ltext0
 1824 0353 0300     		.2byte	0x3
 1825 0355 7E       		.byte	0x7e
 1826 0356 04       		.sleb128 4
 1827 0357 9F       		.byte	0x9f
 1828 0358 76000000 		.4byte	.LVL24-.Ltext0
 1829 035c 94000000 		.4byte	.LVL32-.Ltext0
 1830 0360 0100     		.2byte	0x1
 1831 0362 5E       		.byte	0x5e
 1832 0363 94000000 		.4byte	.LVL32-.Ltext0
 1833 0367 A0000000 		.4byte	.LVL34-.Ltext0
 1834 036b 0300     		.2byte	0x3
 1835 036d 7E       		.byte	0x7e
 1836 036e 08       		.sleb128 8
 1837 036f 9F       		.byte	0x9f
 1838 0370 00000000 		.4byte	0
 1839 0374 00000000 		.4byte	0
 1840              	.LLST16:
 1841 0378 E0000000 		.4byte	.LVL35-.Ltext0
 1842 037c FA000000 		.4byte	.LVL40-.Ltext0
 1843 0380 0100     		.2byte	0x1
 1844 0382 50       		.byte	0x50
 1845 0383 FA000000 		.4byte	.LVL40-.Ltext0
 1846 0387 50010000 		.4byte	.LFE137-.Ltext0
 1847 038b 0400     		.2byte	0x4
 1848 038d F3       		.byte	0xf3
 1849 038e 01       		.uleb128 0x1
 1850 038f 50       		.byte	0x50
 1851 0390 9F       		.byte	0x9f
 1852 0391 00000000 		.4byte	0
 1853 0395 00000000 		.4byte	0
 1854              	.LLST17:
 1855 0399 E0000000 		.4byte	.LVL35-.Ltext0
 1856 039d FA000000 		.4byte	.LVL40-.Ltext0
 1857 03a1 0100     		.2byte	0x1
 1858 03a3 51       		.byte	0x51
 1859 03a4 FA000000 		.4byte	.LVL40-.Ltext0
 1860 03a8 36010000 		.4byte	.LVL52-.Ltext0
 1861 03ac 0100     		.2byte	0x1
 1862 03ae 51       		.byte	0x51
 1863 03af 36010000 		.4byte	.LVL52-.Ltext0
 1864 03b3 3E010000 		.4byte	.LVL55-.Ltext0
 1865 03b7 0300     		.2byte	0x3
 1866 03b9 71       		.byte	0x71
 1867 03ba 01       		.sleb128 1
 1868 03bb 9F       		.byte	0x9f
 1869 03bc 00000000 		.4byte	0
 1870 03c0 00000000 		.4byte	0
 1871              	.LLST18:
 1872 03c4 E0000000 		.4byte	.LVL35-.Ltext0
 1873 03c8 FA000000 		.4byte	.LVL40-.Ltext0
 1874 03cc 0100     		.2byte	0x1
 1875 03ce 52       		.byte	0x52
 1876 03cf FA000000 		.4byte	.LVL40-.Ltext0
 1877 03d3 50010000 		.4byte	.LFE137-.Ltext0
 1878 03d7 0400     		.2byte	0x4
 1879 03d9 F3       		.byte	0xf3
ARM GAS  /tmp/ccD3cEQM.s 			page 34


 1880 03da 01       		.uleb128 0x1
 1881 03db 52       		.byte	0x52
 1882 03dc 9F       		.byte	0x9f
 1883 03dd 00000000 		.4byte	0
 1884 03e1 00000000 		.4byte	0
 1885              	.LLST19:
 1886 03e5 E0000000 		.4byte	.LVL35-.Ltext0
 1887 03e9 FA000000 		.4byte	.LVL40-.Ltext0
 1888 03ed 0100     		.2byte	0x1
 1889 03ef 53       		.byte	0x53
 1890 03f0 FA000000 		.4byte	.LVL40-.Ltext0
 1891 03f4 50010000 		.4byte	.LFE137-.Ltext0
 1892 03f8 0400     		.2byte	0x4
 1893 03fa F3       		.byte	0xf3
 1894 03fb 01       		.uleb128 0x1
 1895 03fc 53       		.byte	0x53
 1896 03fd 9F       		.byte	0x9f
 1897 03fe 00000000 		.4byte	0
 1898 0402 00000000 		.4byte	0
 1899              	.LLST20:
 1900 0406 E0000000 		.4byte	.LVL35-.Ltext0
 1901 040a FA000000 		.4byte	.LVL40-.Ltext0
 1902 040e 0200     		.2byte	0x2
 1903 0410 91       		.byte	0x91
 1904 0411 00       		.sleb128 0
 1905 0412 FA000000 		.4byte	.LVL40-.Ltext0
 1906 0416 34010000 		.4byte	.LVL51-.Ltext0
 1907 041a 0D00     		.2byte	0xd
 1908 041c 91       		.byte	0x91
 1909 041d 00       		.sleb128 0
 1910 041e 06       		.byte	0x6
 1911 041f 70       		.byte	0x70
 1912 0420 00       		.sleb128 0
 1913 0421 22       		.byte	0x22
 1914 0422 F3       		.byte	0xf3
 1915 0423 01       		.uleb128 0x1
 1916 0424 50       		.byte	0x50
 1917 0425 1C       		.byte	0x1c
 1918 0426 38       		.byte	0x38
 1919 0427 1C       		.byte	0x1c
 1920 0428 9F       		.byte	0x9f
 1921 0429 34010000 		.4byte	.LVL51-.Ltext0
 1922 042d 3E010000 		.4byte	.LVL55-.Ltext0
 1923 0431 0D00     		.2byte	0xd
 1924 0433 91       		.byte	0x91
 1925 0434 00       		.sleb128 0
 1926 0435 06       		.byte	0x6
 1927 0436 F3       		.byte	0xf3
 1928 0437 01       		.uleb128 0x1
 1929 0438 50       		.byte	0x50
 1930 0439 1C       		.byte	0x1c
 1931 043a 70       		.byte	0x70
 1932 043b 00       		.sleb128 0
 1933 043c 22       		.byte	0x22
 1934 043d 34       		.byte	0x34
 1935 043e 1C       		.byte	0x1c
 1936 043f 9F       		.byte	0x9f
ARM GAS  /tmp/ccD3cEQM.s 			page 35


 1937 0440 00000000 		.4byte	0
 1938 0444 00000000 		.4byte	0
 1939              	.LLST21:
 1940 0448 0A010000 		.4byte	.LVL43-.Ltext0
 1941 044c 4C010000 		.4byte	.LVL58-.Ltext0
 1942 0450 0100     		.2byte	0x1
 1943 0452 54       		.byte	0x54
 1944 0453 00000000 		.4byte	0
 1945 0457 00000000 		.4byte	0
 1946              	.LLST22:
 1947 045b 12010000 		.4byte	.LVL44-.Ltext0
 1948 045f 1E010000 		.4byte	.LVL46-.Ltext0
 1949 0463 0100     		.2byte	0x1
 1950 0465 55       		.byte	0x55
 1951 0466 1E010000 		.4byte	.LVL46-.Ltext0
 1952 046a 34010000 		.4byte	.LVL51-.Ltext0
 1953 046e 0100     		.2byte	0x1
 1954 0470 59       		.byte	0x59
 1955 0471 34010000 		.4byte	.LVL51-.Ltext0
 1956 0475 4C010000 		.4byte	.LVL58-.Ltext0
 1957 0479 0100     		.2byte	0x1
 1958 047b 55       		.byte	0x55
 1959 047c 00000000 		.4byte	0
 1960 0480 00000000 		.4byte	0
 1961              	.LLST23:
 1962 0484 E6000000 		.4byte	.LVL37-.Ltext0
 1963 0488 FA000000 		.4byte	.LVL40-.Ltext0
 1964 048c 0100     		.2byte	0x1
 1965 048e 52       		.byte	0x52
 1966 048f FA000000 		.4byte	.LVL40-.Ltext0
 1967 0493 3E010000 		.4byte	.LVL55-.Ltext0
 1968 0497 0300     		.2byte	0x3
 1969 0499 72       		.byte	0x72
 1970 049a 04       		.sleb128 4
 1971 049b 9F       		.byte	0x9f
 1972 049c 3E010000 		.4byte	.LVL55-.Ltext0
 1973 04a0 50010000 		.4byte	.LFE137-.Ltext0
 1974 04a4 0100     		.2byte	0x1
 1975 04a6 52       		.byte	0x52
 1976 04a7 00000000 		.4byte	0
 1977 04ab 00000000 		.4byte	0
 1978              	.LLST24:
 1979 04af FE000000 		.4byte	.LVL41-.Ltext0
 1980 04b3 1E010000 		.4byte	.LVL46-.Ltext0
 1981 04b7 0100     		.2byte	0x1
 1982 04b9 59       		.byte	0x59
 1983 04ba 1E010000 		.4byte	.LVL46-.Ltext0
 1984 04be 3A010000 		.4byte	.LVL53-.Ltext0
 1985 04c2 0200     		.2byte	0x2
 1986 04c4 72       		.byte	0x72
 1987 04c5 00       		.sleb128 0
 1988 04c6 00000000 		.4byte	0
 1989 04ca 00000000 		.4byte	0
 1990              	.LLST25:
 1991 04ce 02010000 		.4byte	.LVL42-.Ltext0
 1992 04d2 4C010000 		.4byte	.LVL58-.Ltext0
 1993 04d6 0100     		.2byte	0x1
ARM GAS  /tmp/ccD3cEQM.s 			page 36


 1994 04d8 58       		.byte	0x58
 1995 04d9 00000000 		.4byte	0
 1996 04dd 00000000 		.4byte	0
 1997              	.LLST26:
 1998 04e1 26010000 		.4byte	.LVL48-.Ltext0
 1999 04e5 4C010000 		.4byte	.LVL58-.Ltext0
 2000 04e9 0100     		.2byte	0x1
 2001 04eb 56       		.byte	0x56
 2002 04ec 00000000 		.4byte	0
 2003 04f0 00000000 		.4byte	0
 2004              	.LLST27:
 2005 04f4 E4000000 		.4byte	.LVL36-.Ltext0
 2006 04f8 FA000000 		.4byte	.LVL40-.Ltext0
 2007 04fc 0100     		.2byte	0x1
 2008 04fe 50       		.byte	0x50
 2009 04ff FA000000 		.4byte	.LVL40-.Ltext0
 2010 0503 0A010000 		.4byte	.LVL43-.Ltext0
 2011 0507 0300     		.2byte	0x3
 2012 0509 70       		.byte	0x70
 2013 050a 78       		.sleb128 -8
 2014 050b 9F       		.byte	0x9f
 2015 050c 0A010000 		.4byte	.LVL43-.Ltext0
 2016 0510 1A010000 		.4byte	.LVL45-.Ltext0
 2017 0514 0300     		.2byte	0x3
 2018 0516 70       		.byte	0x70
 2019 0517 7C       		.sleb128 -4
 2020 0518 9F       		.byte	0x9f
 2021 0519 1A010000 		.4byte	.LVL45-.Ltext0
 2022 051d 42010000 		.4byte	.LVL56-.Ltext0
 2023 0521 0100     		.2byte	0x1
 2024 0523 50       		.byte	0x50
 2025 0524 42010000 		.4byte	.LVL56-.Ltext0
 2026 0528 4C010000 		.4byte	.LVL58-.Ltext0
 2027 052c 0300     		.2byte	0x3
 2028 052e 70       		.byte	0x70
 2029 052f 78       		.sleb128 -8
 2030 0530 9F       		.byte	0x9f
 2031 0531 00000000 		.4byte	0
 2032 0535 00000000 		.4byte	0
 2033              	.LLST28:
 2034 0539 E6000000 		.4byte	.LVL37-.Ltext0
 2035 053d F2000000 		.4byte	.LVL38-.Ltext0
 2036 0541 0800     		.2byte	0x8
 2037 0543 70       		.byte	0x70
 2038 0544 00       		.sleb128 0
 2039 0545 77       		.byte	0x77
 2040 0546 00       		.sleb128 0
 2041 0547 22       		.byte	0x22
 2042 0548 23       		.byte	0x23
 2043 0549 04       		.uleb128 0x4
 2044 054a 9F       		.byte	0x9f
 2045 054b F2000000 		.4byte	.LVL38-.Ltext0
 2046 054f F4000000 		.4byte	.LVL39-.Ltext0
 2047 0553 0800     		.2byte	0x8
 2048 0555 70       		.byte	0x70
 2049 0556 00       		.sleb128 0
 2050 0557 77       		.byte	0x77
ARM GAS  /tmp/ccD3cEQM.s 			page 37


 2051 0558 00       		.sleb128 0
 2052 0559 22       		.byte	0x22
 2053 055a 23       		.byte	0x23
 2054 055b 08       		.uleb128 0x8
 2055 055c 9F       		.byte	0x9f
 2056 055d F4000000 		.4byte	.LVL39-.Ltext0
 2057 0561 FA000000 		.4byte	.LVL40-.Ltext0
 2058 0565 0A00     		.2byte	0xa
 2059 0567 71       		.byte	0x71
 2060 0568 00       		.sleb128 0
 2061 0569 33       		.byte	0x33
 2062 056a 24       		.byte	0x24
 2063 056b 70       		.byte	0x70
 2064 056c 00       		.sleb128 0
 2065 056d 22       		.byte	0x22
 2066 056e 23       		.byte	0x23
 2067 056f 04       		.uleb128 0x4
 2068 0570 9F       		.byte	0x9f
 2069 0571 FA000000 		.4byte	.LVL40-.Ltext0
 2070 0575 26010000 		.4byte	.LVL48-.Ltext0
 2071 0579 0300     		.2byte	0x3
 2072 057b 77       		.byte	0x77
 2073 057c 08       		.sleb128 8
 2074 057d 9F       		.byte	0x9f
 2075 057e 26010000 		.4byte	.LVL48-.Ltext0
 2076 0582 30010000 		.4byte	.LVL50-.Ltext0
 2077 0586 0300     		.2byte	0x3
 2078 0588 77       		.byte	0x77
 2079 0589 04       		.sleb128 4
 2080 058a 9F       		.byte	0x9f
 2081 058b 30010000 		.4byte	.LVL50-.Ltext0
 2082 058f 46010000 		.4byte	.LVL57-.Ltext0
 2083 0593 0100     		.2byte	0x1
 2084 0595 57       		.byte	0x57
 2085 0596 46010000 		.4byte	.LVL57-.Ltext0
 2086 059a 4C010000 		.4byte	.LVL58-.Ltext0
 2087 059e 0300     		.2byte	0x3
 2088 05a0 77       		.byte	0x77
 2089 05a1 08       		.sleb128 8
 2090 05a2 9F       		.byte	0x9f
 2091 05a3 00000000 		.4byte	0
 2092 05a7 00000000 		.4byte	0
 2093              	.LLST29:
 2094 05ab 50010000 		.4byte	.LVL59-.Ltext0
 2095 05af 6E010000 		.4byte	.LVL63-.Ltext0
 2096 05b3 0100     		.2byte	0x1
 2097 05b5 50       		.byte	0x50
 2098 05b6 6E010000 		.4byte	.LVL63-.Ltext0
 2099 05ba 78010000 		.4byte	.LVL65-.Ltext0
 2100 05be 0100     		.2byte	0x1
 2101 05c0 54       		.byte	0x54
 2102 05c1 78010000 		.4byte	.LVL65-.Ltext0
 2103 05c5 8A010000 		.4byte	.LVL67-.Ltext0
 2104 05c9 0400     		.2byte	0x4
 2105 05cb F3       		.byte	0xf3
 2106 05cc 01       		.uleb128 0x1
 2107 05cd 50       		.byte	0x50
ARM GAS  /tmp/ccD3cEQM.s 			page 38


 2108 05ce 9F       		.byte	0x9f
 2109 05cf 8A010000 		.4byte	.LVL67-.Ltext0
 2110 05d3 94010000 		.4byte	.LVL68-.Ltext0
 2111 05d7 0100     		.2byte	0x1
 2112 05d9 50       		.byte	0x50
 2113 05da 94010000 		.4byte	.LVL68-.Ltext0
 2114 05de C8010000 		.4byte	.LFE135-.Ltext0
 2115 05e2 0100     		.2byte	0x1
 2116 05e4 54       		.byte	0x54
 2117 05e5 00000000 		.4byte	0
 2118 05e9 00000000 		.4byte	0
 2119              	.LLST30:
 2120 05ed 50010000 		.4byte	.LVL59-.Ltext0
 2121 05f1 71010000 		.4byte	.LVL64-1-.Ltext0
 2122 05f5 0100     		.2byte	0x1
 2123 05f7 51       		.byte	0x51
 2124 05f8 71010000 		.4byte	.LVL64-1-.Ltext0
 2125 05fc 8A010000 		.4byte	.LVL67-.Ltext0
 2126 0600 0100     		.2byte	0x1
 2127 0602 59       		.byte	0x59
 2128 0603 8A010000 		.4byte	.LVL67-.Ltext0
 2129 0607 98010000 		.4byte	.LVL69-.Ltext0
 2130 060b 0100     		.2byte	0x1
 2131 060d 51       		.byte	0x51
 2132 060e 98010000 		.4byte	.LVL69-.Ltext0
 2133 0612 C8010000 		.4byte	.LFE135-.Ltext0
 2134 0616 0100     		.2byte	0x1
 2135 0618 59       		.byte	0x59
 2136 0619 00000000 		.4byte	0
 2137 061d 00000000 		.4byte	0
 2138              	.LLST31:
 2139 0621 50010000 		.4byte	.LVL59-.Ltext0
 2140 0625 58010000 		.4byte	.LVL60-.Ltext0
 2141 0629 0100     		.2byte	0x1
 2142 062b 52       		.byte	0x52
 2143 062c 58010000 		.4byte	.LVL60-.Ltext0
 2144 0630 C8010000 		.4byte	.LFE135-.Ltext0
 2145 0634 0100     		.2byte	0x1
 2146 0636 55       		.byte	0x55
 2147 0637 00000000 		.4byte	0
 2148 063b 00000000 		.4byte	0
 2149              	.LLST32:
 2150 063f A8010000 		.4byte	.LVL71-.Ltext0
 2151 0643 B2010000 		.4byte	.LVL72-.Ltext0
 2152 0647 0200     		.2byte	0x2
 2153 0649 30       		.byte	0x30
 2154 064a 9F       		.byte	0x9f
 2155 064b B2010000 		.4byte	.LVL72-.Ltext0
 2156 064f C8010000 		.4byte	.LFE135-.Ltext0
 2157 0653 0100     		.2byte	0x1
 2158 0655 51       		.byte	0x51
 2159 0656 00000000 		.4byte	0
 2160 065a 00000000 		.4byte	0
 2161              		.section	.debug_aranges,"",%progbits
 2162 0000 1C000000 		.4byte	0x1c
 2163 0004 0200     		.2byte	0x2
 2164 0006 00000000 		.4byte	.Ldebug_info0
ARM GAS  /tmp/ccD3cEQM.s 			page 39


 2165 000a 04       		.byte	0x4
 2166 000b 00       		.byte	0
 2167 000c 0000     		.2byte	0
 2168 000e 0000     		.2byte	0
 2169 0010 00000000 		.4byte	.Ltext0
 2170 0014 C8010000 		.4byte	.Letext0-.Ltext0
 2171 0018 00000000 		.4byte	0
 2172 001c 00000000 		.4byte	0
 2173              		.section	.debug_line,"",%progbits
 2174              	.Ldebug_line0:
 2175 0000 9B020000 		.section	.debug_str,"MS",%progbits,1
 2175      02000602 
 2175      00000201 
 2175      FB0E0D00 
 2175      01010101 
 2176              	.LASF56:
 2177 0000 474E5520 		.ascii	"GNU C 4.9.3 20150529 (release) [ARM/embedded-4_9-br"
 2177      4320342E 
 2177      392E3320 
 2177      32303135 
 2177      30353239 
 2178 0033 616E6368 		.ascii	"anch revision 224288] -mcpu=cortex-m4 -mfloat-abi=h"
 2178      20726576 
 2178      6973696F 
 2178      6E203232 
 2178      34323838 
 2179 0066 61726420 		.ascii	"ard -mfpu=fpv4-sp-d16 -mno-thumb-interwork -mthumb "
 2179      2D6D6670 
 2179      753D6670 
 2179      76342D73 
 2179      702D6431 
 2180 0099 2D676764 		.ascii	"-ggdb -O2 -fomit-frame-pointer -falign-functions=16"
 2180      62202D4F 
 2180      32202D66 
 2180      6F6D6974 
 2180      2D667261 
 2181 00cc 202D666E 		.ascii	" -fno-math-errno -fsingle-precision-constant\000"
 2181      6F2D6D61 
 2181      74682D65 
 2181      72726E6F 
 2181      202D6673 
 2182              	.LASF3:
 2183 00f9 5F5F7569 		.ascii	"__uint8_t\000"
 2183      6E74385F 
 2183      7400
 2184              	.LASF30:
 2185 0103 62697452 		.ascii	"bitReverseFlagR\000"
 2185      65766572 
 2185      7365466C 
 2185      61675200 
 2186              	.LASF32:
 2187 0113 70547769 		.ascii	"pTwiddleAReal\000"
 2187      64646C65 
 2187      41526561 
 2187      6C00
 2188              	.LASF57:
 2189 0121 2F686F6D 		.ascii	"/home/sbcu/Dropbox/pcb-layouts/axo-on-discovery-boa"
ARM GAS  /tmp/ccD3cEQM.s 			page 40


 2189      652F7362 
 2189      63752F44 
 2189      726F7062 
 2189      6F782F70 
 2190 0154 72642F61 		.ascii	"rd/axoloti/platform_linux/../CMSIS//DSP_Lib/Source/"
 2190      786F6C6F 
 2190      74692F70 
 2190      6C617466 
 2190      6F726D5F 
 2191 0187 5472616E 		.ascii	"TransformFunctions/arm_rfft_q31.c\000"
 2191      73666F72 
 2191      6D46756E 
 2191      6374696F 
 2191      6E732F61 
 2192              	.LASF48:
 2193 01a9 704F7574 		.ascii	"pOut1\000"
 2193      3100
 2194              	.LASF49:
 2195 01af 704F7574 		.ascii	"pOut2\000"
 2195      3200
 2196              	.LASF6:
 2197 01b5 5F5F696E 		.ascii	"__int32_t\000"
 2197      7433325F 
 2197      7400
 2198              	.LASF58:
 2199 01bf 61726D5F 		.ascii	"arm_cfft_q31\000"
 2199      63666674 
 2199      5F713331 
 2199      00
 2200              	.LASF35:
 2201 01cc 61726D5F 		.ascii	"arm_rfft_instance_q31\000"
 2201      72666674 
 2201      5F696E73 
 2201      74616E63 
 2201      655F7133 
 2202              	.LASF25:
 2203 01e2 70426974 		.ascii	"pBitRevTable\000"
 2203      52657654 
 2203      61626C65 
 2203      00
 2204              	.LASF20:
 2205 01ef 666C6F61 		.ascii	"float\000"
 2205      7400
 2206              	.LASF45:
 2207 01f5 436F6566 		.ascii	"CoefA1\000"
 2207      413100
 2208              	.LASF22:
 2209 01fc 7133315F 		.ascii	"q31_t\000"
 2209      7400
 2210              	.LASF1:
 2211 0202 756E7369 		.ascii	"unsigned char\000"
 2211      676E6564 
 2211      20636861 
 2211      7200
 2212              	.LASF33:
 2213 0210 70547769 		.ascii	"pTwiddleBReal\000"
 2213      64646C65 
ARM GAS  /tmp/ccD3cEQM.s 			page 41


 2213      42526561 
 2213      6C00
 2214              	.LASF52:
 2215 021e 61726D5F 		.ascii	"arm_split_rfft_q31\000"
 2215      73706C69 
 2215      745F7266 
 2215      66745F71 
 2215      333100
 2216              	.LASF9:
 2217 0231 6C6F6E67 		.ascii	"long unsigned int\000"
 2217      20756E73 
 2217      69676E65 
 2217      6420696E 
 2217      7400
 2218              	.LASF5:
 2219 0243 73686F72 		.ascii	"short unsigned int\000"
 2219      7420756E 
 2219      7369676E 
 2219      65642069 
 2219      6E7400
 2220              	.LASF23:
 2221 0256 6666744C 		.ascii	"fftLen\000"
 2221      656E00
 2222              	.LASF27:
 2223 025d 61726D5F 		.ascii	"arm_cfft_instance_q31\000"
 2223      63666674 
 2223      5F696E73 
 2223      74616E63 
 2223      655F7133 
 2224              	.LASF39:
 2225 0273 70447374 		.ascii	"pDst\000"
 2225      00
 2226              	.LASF54:
 2227 0278 61726D5F 		.ascii	"arm_rfft_q31\000"
 2227      72666674 
 2227      5F713331 
 2227      00
 2228              	.LASF41:
 2229 0285 6F757452 		.ascii	"outR\000"
 2229      00
 2230              	.LASF47:
 2231 028a 436F6566 		.ascii	"CoefB1\000"
 2231      423100
 2232              	.LASF4:
 2233 0291 5F5F7569 		.ascii	"__uint16_t\000"
 2233      6E743136 
 2233      5F7400
 2234              	.LASF19:
 2235 029c 646F7562 		.ascii	"double\000"
 2235      6C6500
 2236              	.LASF24:
 2237 02a3 70547769 		.ascii	"pTwiddle\000"
 2237      64646C65 
 2237      00
 2238              	.LASF29:
 2239 02ac 69666674 		.ascii	"ifftFlagR\000"
 2239      466C6167 
ARM GAS  /tmp/ccD3cEQM.s 			page 42


 2239      5200
 2240              	.LASF8:
 2241 02b6 5F5F7569 		.ascii	"__uint32_t\000"
 2241      6E743332 
 2241      5F7400
 2242              	.LASF37:
 2243 02c1 70415461 		.ascii	"pATable\000"
 2243      626C6500 
 2244              	.LASF34:
 2245 02c9 70436666 		.ascii	"pCfft\000"
 2245      7400
 2246              	.LASF42:
 2247 02cf 6F757449 		.ascii	"outI\000"
 2247      00
 2248              	.LASF12:
 2249 02d4 756E7369 		.ascii	"unsigned int\000"
 2249      676E6564 
 2249      20696E74 
 2249      00
 2250              	.LASF31:
 2251 02e1 74776964 		.ascii	"twidCoefRModifier\000"
 2251      436F6566 
 2251      524D6F64 
 2251      69666965 
 2251      7200
 2252              	.LASF11:
 2253 02f3 6C6F6E67 		.ascii	"long long unsigned int\000"
 2253      206C6F6E 
 2253      6720756E 
 2253      7369676E 
 2253      65642069 
 2254              	.LASF13:
 2255 030a 75696E74 		.ascii	"uint8_t\000"
 2255      385F7400 
 2256              	.LASF55:
 2257 0312 535F4346 		.ascii	"S_CFFT\000"
 2257      465400
 2258              	.LASF40:
 2259 0319 6D6F6469 		.ascii	"modifier\000"
 2259      66696572 
 2259      00
 2260              	.LASF28:
 2261 0322 6666744C 		.ascii	"fftLenReal\000"
 2261      656E5265 
 2261      616C00
 2262              	.LASF15:
 2263 032d 696E7433 		.ascii	"int32_t\000"
 2263      325F7400 
 2264              	.LASF17:
 2265 0335 73697A65 		.ascii	"sizetype\000"
 2265      74797065 
 2265      00
 2266              	.LASF10:
 2267 033e 6C6F6E67 		.ascii	"long long int\000"
 2267      206C6F6E 
 2267      6720696E 
 2267      7400
ARM GAS  /tmp/ccD3cEQM.s 			page 43


 2268              	.LASF38:
 2269 034c 70425461 		.ascii	"pBTable\000"
 2269      626C6500 
 2270              	.LASF18:
 2271 0354 63686172 		.ascii	"char\000"
 2271      00
 2272              	.LASF26:
 2273 0359 62697452 		.ascii	"bitRevLength\000"
 2273      65764C65 
 2273      6E677468 
 2273      00
 2274              	.LASF43:
 2275 0366 70436F65 		.ascii	"pCoefA\000"
 2275      664100
 2276              	.LASF44:
 2277 036d 70436F65 		.ascii	"pCoefB\000"
 2277      664200
 2278              	.LASF2:
 2279 0374 73686F72 		.ascii	"short int\000"
 2279      7420696E 
 2279      7400
 2280              	.LASF14:
 2281 037e 75696E74 		.ascii	"uint16_t\000"
 2281      31365F74 
 2281      00
 2282              	.LASF16:
 2283 0387 75696E74 		.ascii	"uint32_t\000"
 2283      33325F74 
 2283      00
 2284              	.LASF7:
 2285 0390 6C6F6E67 		.ascii	"long int\000"
 2285      20696E74 
 2285      00
 2286              	.LASF53:
 2287 0399 61726D5F 		.ascii	"arm_split_rifft_q31\000"
 2287      73706C69 
 2287      745F7269 
 2287      6666745F 
 2287      71333100 
 2288              	.LASF21:
 2289 03ad 6C6F6E67 		.ascii	"long double\000"
 2289      20646F75 
 2289      626C6500 
 2290              	.LASF0:
 2291 03b9 7369676E 		.ascii	"signed char\000"
 2291      65642063 
 2291      68617200 
 2292              	.LASF46:
 2293 03c5 436F6566 		.ascii	"CoefA2\000"
 2293      413200
 2294              	.LASF36:
 2295 03cc 70537263 		.ascii	"pSrc\000"
 2295      00
 2296              	.LASF50:
 2297 03d1 70496E31 		.ascii	"pIn1\000"
 2297      00
 2298              	.LASF51:
ARM GAS  /tmp/ccD3cEQM.s 			page 44


 2299 03d6 70496E32 		.ascii	"pIn2\000"
 2299      00
 2300              		.ident	"GCC: (GNU Tools for ARM Embedded Processors) 4.9.3 20150529 (release) [ARM/embedded-4_9-br
ARM GAS  /tmp/ccD3cEQM.s 			page 45


DEFINED SYMBOLS
                            *ABS*:00000000 arm_rfft_q31.c
     /tmp/ccD3cEQM.s:20     .text:00000000 $t
     /tmp/ccD3cEQM.s:26     .text:00000000 arm_split_rfft_q31
     /tmp/ccD3cEQM.s:228    .text:000000e0 arm_split_rifft_q31
     /tmp/ccD3cEQM.s:352    .text:00000150 arm_rfft_q31
                     .debug_frame:00000010 $d

UNDEFINED SYMBOLS
arm_cfft_q31
