ARM GAS  /tmp/cciFHMlc.s 			page 1


   1              		.syntax unified
   2              		.cpu cortex-m4
   3              		.eabi_attribute 27, 1
   4              		.eabi_attribute 28, 1
   5              		.fpu fpv4-sp-d16
   6              		.eabi_attribute 20, 1
   7              		.eabi_attribute 21, 1
   8              		.eabi_attribute 23, 3
   9              		.eabi_attribute 24, 1
  10              		.eabi_attribute 25, 1
  11              		.eabi_attribute 26, 1
  12              		.eabi_attribute 30, 2
  13              		.eabi_attribute 34, 1
  14              		.eabi_attribute 18, 4
  15              		.thumb
  16              		.file	"arm_cfft_radix2_q15.c"
  17              		.text
  18              	.Ltext0:
  19              		.cfi_sections	.debug_frame
  20              		.align	2
  21              		.p2align 4,,15
  22              		.global	arm_radix2_butterfly_q15
  23              		.thumb
  24              		.thumb_func
  25              		.type	arm_radix2_butterfly_q15, %function
  26              	arm_radix2_butterfly_q15:
  27              	.LFB136:
  28              		.file 1 "/home/sbcu/Dropbox/pcb-layouts/axo-on-discovery-board/axoloti/platform_linux/../CMSIS//DS
  29              		.loc 1 108 0
  30              		.cfi_startproc
  31              		@ args = 0, pretend = 0, frame = 24
  32              		@ frame_needed = 0, uses_anonymous_args = 0
  33              	.LVL0:
  34 0000 2DE9F04F 		push	{r4, r5, r6, r7, r8, r9, r10, fp, lr}
  35              		.cfi_def_cfa_offset 36
  36              		.cfi_offset 4, -36
  37              		.cfi_offset 5, -32
  38              		.cfi_offset 6, -28
  39              		.cfi_offset 7, -24
  40              		.cfi_offset 8, -20
  41              		.cfi_offset 9, -16
  42              		.cfi_offset 10, -12
  43              		.cfi_offset 11, -8
  44              		.cfi_offset 14, -4
  45 0004 87B0     		sub	sp, sp, #28
  46              		.cfi_def_cfa_offset 64
  47              		.loc 1 125 0
  48 0006 4E08     		lsrs	r6, r1, #1
  49              		.loc 1 108 0
  50 0008 8946     		mov	r9, r1
  51              	.LVL1:
  52 000a 0546     		mov	r5, r0
  53 000c 0590     		str	r0, [sp, #20]
  54 000e 0392     		str	r2, [sp, #12]
  55 0010 0293     		str	r3, [sp, #8]
  56              		.loc 1 125 0
  57 0012 00F0EE80 		beq	.L2
ARM GAS  /tmp/cciFHMlc.s 			page 2


  58 0016 D900     		lsls	r1, r3, #3
  59              	.LVL2:
  60 0018 00EB860E 		add	lr, r0, r6, lsl #2
  61 001c 0024     		movs	r4, #0
  62 001e 0191     		str	r1, [sp, #4]
  63 0020 1146     		mov	r1, r2
  64 0022 CDF81090 		str	r9, [sp, #16]
  65 0026 7746     		mov	r7, lr
  66 0028 2046     		mov	r0, r4
  67              	.LVL3:
  68 002a 02EB830B 		add	fp, r2, r3, lsl #2
  69 002e A846     		mov	r8, r5
  70 0030 8946     		mov	r9, r1
  71              	.LVL4:
  72              	.L3:
  73              		.loc 1 133 0 discriminator 3
  74 0032 58F82030 		ldr	r3, [r8, r0, lsl #2]
  75              		.loc 1 137 0 discriminator 3
  76 0036 5EF820C0 		ldr	ip, [lr, r0, lsl #2]
  77              		.loc 1 127 0 discriminator 3
  78 003a 59F80420 		ldr	r2, [r9, r4]
  79              	.LVL5:
  80              		.loc 1 135 0 discriminator 3
  81 003e 4FEA630A 		asr	r10, r3, #1
  82              		.loc 1 139 0 discriminator 3
  83 0042 4FEA6C01 		asr	r1, ip, #1
  84              		.loc 1 135 0 discriminator 3
  85 0046 4FEA1A4A 		lsr	r10, r10, #16
  86 004a 43F34E03 		sbfx	r3, r3, #1, #15
  87              	.LVL6:
  88              		.loc 1 139 0 discriminator 3
  89 004e 090C     		lsrs	r1, r1, #16
  90 0050 4CF34E0C 		sbfx	ip, ip, #1, #15
  91              		.loc 1 135 0 discriminator 3
  92 0054 4FEA0A4A 		lsl	r10, r10, #16
  93              		.loc 1 139 0 discriminator 3
  94 0058 0904     		lsls	r1, r1, #16
  95              		.loc 1 135 0 discriminator 3
  96 005a 9BB2     		uxth	r3, r3
  97              		.loc 1 139 0 discriminator 3
  98 005c 1FFA8CFC 		uxth	ip, ip
  99              		.loc 1 135 0 discriminator 3
 100 0060 43EA0A03 		orr	r3, r3, r10
 101              	.LVL7:
 102              		.loc 1 139 0 discriminator 3
 103 0064 4CEA010C 		orr	ip, ip, r1
 104              	.LVL8:
 105              	.LBB78:
 106              	.LBB79:
 107              		.file 2 "/home/sbcu/Dropbox/pcb-layouts/axo-on-discovery-board/axoloti/platform_linux/../CMSIS//In
 108              		.loc 2 1507 0 discriminator 3
 109              	@ 1507 "/home/sbcu/Dropbox/pcb-layouts/axo-on-discovery-board/axoloti/platform_linux/../CMSIS//Incl
 110 0068 D3FA1CF1 		qsub16 r1, r3, ip
 111              	@ 0 "" 2
 112              	.LVL9:
 113              		.thumb
 114              	.LBE79:
ARM GAS  /tmp/cciFHMlc.s 			page 3


 115              	.LBE78:
 116              	.LBB80:
 117              	.LBB81:
 118              		.loc 2 1467 0 discriminator 3
 119              	@ 1467 "/home/sbcu/Dropbox/pcb-layouts/axo-on-discovery-board/axoloti/platform_linux/../CMSIS//Incl
 120 006c 93FA2CF3 		shadd16 r3, r3, ip
 121              	@ 0 "" 2
 122              	.LVL10:
 123              		.thumb
 124              	.LBE81:
 125              	.LBE80:
 126              		.loc 1 143 0 discriminator 3
 127 0070 48F82030 		str	r3, [r8, r0, lsl #2]
 128              	.LVL11:
 129              	.LBB82:
 130              	.LBB83:
 131              		.loc 2 1705 0 discriminator 3
 132              	@ 1705 "/home/sbcu/Dropbox/pcb-layouts/axo-on-discovery-board/axoloti/platform_linux/../CMSIS//Incl
 133 0074 22FB01F3 		smuad r3, r2, r1
 134              	@ 0 "" 2
 135              	.LVL12:
 136              		.thumb
 137              	.LBE83:
 138              	.LBE82:
 139              	.LBB84:
 140              	.LBB85:
 141              		.loc 2 1779 0 discriminator 3
 142              	@ 1779 "/home/sbcu/Dropbox/pcb-layouts/axo-on-discovery-board/axoloti/platform_linux/../CMSIS//Incl
 143 0078 42FB11F2 		smusdx r2, r2, r1
 144              	@ 0 "" 2
 145              	.LVL13:
 146              		.thumb
 147              	.LBE85:
 148              	.LBE84:
 149              		.loc 1 158 0 discriminator 3
 150 007c 120C     		lsrs	r2, r2, #16
 151              	.LVL14:
 152 007e 1204     		lsls	r2, r2, #16
 153 0080 42EA1343 		orr	r3, r2, r3, lsr #16
 154              	.LVL15:
 155              		.loc 1 157 0 discriminator 3
 156 0084 4EF82030 		str	r3, [lr, r0, lsl #2]
 157              	.LVL16:
 158              		.loc 1 172 0 discriminator 3
 159 0088 D7F804C0 		ldr	ip, [r7, #4]
 160              	.LVL17:
 161              		.loc 1 168 0 discriminator 3
 162 008c 6B68     		ldr	r3, [r5, #4]
 163              		.loc 1 160 0 discriminator 3
 164 008e 5BF80420 		ldr	r2, [fp, r4]
 165              	.LVL18:
 166              		.loc 1 170 0 discriminator 3
 167 0092 4FEA630A 		asr	r10, r3, #1
 168              		.loc 1 174 0 discriminator 3
 169 0096 4FEA6C01 		asr	r1, ip, #1
 170              	.LVL19:
 171              		.loc 1 170 0 discriminator 3
ARM GAS  /tmp/cciFHMlc.s 			page 4


 172 009a 4FEA1A4A 		lsr	r10, r10, #16
 173 009e 43F34E03 		sbfx	r3, r3, #1, #15
 174              	.LVL20:
 175              		.loc 1 174 0 discriminator 3
 176 00a2 090C     		lsrs	r1, r1, #16
 177 00a4 4CF34E0C 		sbfx	ip, ip, #1, #15
 178              		.loc 1 170 0 discriminator 3
 179 00a8 4FEA0A4A 		lsl	r10, r10, #16
 180              		.loc 1 174 0 discriminator 3
 181 00ac 0904     		lsls	r1, r1, #16
 182              		.loc 1 170 0 discriminator 3
 183 00ae 9BB2     		uxth	r3, r3
 184              		.loc 1 174 0 discriminator 3
 185 00b0 1FFA8CFC 		uxth	ip, ip
 186              		.loc 1 170 0 discriminator 3
 187 00b4 43EA0A03 		orr	r3, r3, r10
 188              	.LVL21:
 189              		.loc 1 174 0 discriminator 3
 190 00b8 4CEA010C 		orr	ip, ip, r1
 191              	.LVL22:
 192              	.LBB86:
 193              	.LBB87:
 194              		.loc 2 1507 0 discriminator 3
 195              	@ 1507 "/home/sbcu/Dropbox/pcb-layouts/axo-on-discovery-board/axoloti/platform_linux/../CMSIS//Incl
 196 00bc D3FA1CF1 		qsub16 r1, r3, ip
 197              	@ 0 "" 2
 198              	.LVL23:
 199              		.thumb
 200              	.LBE87:
 201              	.LBE86:
 202              	.LBB88:
 203              	.LBB89:
 204              		.loc 2 1467 0 discriminator 3
 205              	@ 1467 "/home/sbcu/Dropbox/pcb-layouts/axo-on-discovery-board/axoloti/platform_linux/../CMSIS//Incl
 206 00c0 93FA2CF3 		shadd16 r3, r3, ip
 207              	@ 0 "" 2
 208              	.LVL24:
 209              		.thumb
 210              	.LBE89:
 211              	.LBE88:
 212              		.loc 1 178 0 discriminator 3
 213 00c4 6B60     		str	r3, [r5, #4]
 214              	.LVL25:
 215              	.LBB90:
 216              	.LBB91:
 217              		.loc 2 1705 0 discriminator 3
 218              	@ 1705 "/home/sbcu/Dropbox/pcb-layouts/axo-on-discovery-board/axoloti/platform_linux/../CMSIS//Incl
 219 00c6 22FB01F3 		smuad r3, r2, r1
 220              	@ 0 "" 2
 221              	.LVL26:
 222              		.thumb
 223              	.LBE91:
 224              	.LBE90:
 225              	.LBB92:
 226              	.LBB93:
 227              		.loc 2 1779 0 discriminator 3
 228              	@ 1779 "/home/sbcu/Dropbox/pcb-layouts/axo-on-discovery-board/axoloti/platform_linux/../CMSIS//Incl
ARM GAS  /tmp/cciFHMlc.s 			page 5


 229 00ca 42FB11F2 		smusdx r2, r2, r1
 230              	@ 0 "" 2
 231              	.LVL27:
 232              		.thumb
 233              	.LBE93:
 234              	.LBE92:
 235              		.loc 1 193 0 discriminator 3
 236 00ce 120C     		lsrs	r2, r2, #16
 237              	.LVL28:
 238 00d0 1204     		lsls	r2, r2, #16
 239 00d2 42EA1343 		orr	r3, r2, r3, lsr #16
 240              	.LVL29:
 241              		.loc 1 192 0 discriminator 3
 242 00d6 7B60     		str	r3, [r7, #4]
 243              	.LVL30:
 244              		.loc 1 125 0 discriminator 3
 245 00d8 0230     		adds	r0, r0, #2
 246              	.LVL31:
 247 00da 019B     		ldr	r3, [sp, #4]
 248 00dc 8642     		cmp	r6, r0
 249 00de 1C44     		add	r4, r4, r3
 250 00e0 05F10805 		add	r5, r5, #8
 251 00e4 07F10807 		add	r7, r7, #8
 252 00e8 A3D8     		bhi	.L3
 253              		.loc 1 197 0
 254 00ea 029B     		ldr	r3, [sp, #8]
 255 00ec DDF81090 		ldr	r9, [sp, #16]
 256              	.LVL32:
 257 00f0 5B00     		lsls	r3, r3, #1
 258 00f2 9BB2     		uxth	r3, r3
 259              		.loc 1 200 0
 260 00f4 022E     		cmp	r6, #2
 261              		.loc 1 197 0
 262 00f6 0293     		str	r3, [sp, #8]
 263              	.LVL33:
 264              		.loc 1 200 0
 265 00f8 40F28280 		bls	.L15
 266 00fc 0496     		str	r6, [sp, #16]
 267              	.LVL34:
 268              	.L6:
 269              		.loc 1 207 0
 270 00fe 7508     		lsrs	r5, r6, #1
 271 0100 43D0     		beq	.L9
 272 0102 4FF0000A 		mov	r10, #0
 273 0106 059B     		ldr	r3, [sp, #20]
 274 0108 0193     		str	r3, [sp, #4]
 275 010a D046     		mov	r8, r10
 276 010c 4FEAC60C 		lsl	ip, r6, #3
 277 0110 4FEA460E 		lsl	lr, r6, #1
 278 0114 AF19     		adds	r7, r5, r6
 279              	.LVL35:
 280              	.L8:
 281              		.loc 1 209 0
 282 0116 039B     		ldr	r3, [sp, #12]
 283 0118 53F82A00 		ldr	r0, [r3, r10, lsl #2]
 284              	.LVL36:
 285              		.loc 1 211 0
ARM GAS  /tmp/cciFHMlc.s 			page 6


 286 011c 029B     		ldr	r3, [sp, #8]
 287              		.loc 1 214 0
 288 011e C145     		cmp	r9, r8
 289              		.loc 1 211 0
 290 0120 9A44     		add	r10, r10, r3
 291              	.LVL37:
 292              		.loc 1 214 0
 293 0122 2BD9     		bls	.L11
 294 0124 019A     		ldr	r2, [sp, #4]
 295 0126 4446     		mov	r4, r8
 296              	.LVL38:
 297              	.L10:
 298              		.loc 1 222 0 discriminator 3
 299 0128 1168     		ldr	r1, [r2]
 300 012a 52F825B0 		ldr	fp, [r2, r5, lsl #2]
 301              	.LVL39:
 302              	.LBB94:
 303              	.LBB95:
 304              		.loc 2 1507 0 discriminator 3
 305              	@ 1507 "/home/sbcu/Dropbox/pcb-layouts/axo-on-discovery-board/axoloti/platform_linux/../CMSIS//Incl
 306 012e D1FA1BF3 		qsub16 r3, r1, fp
 307              	@ 0 "" 2
 308              	.LVL40:
 309              		.thumb
 310              	.LBE95:
 311              	.LBE94:
 312              	.LBB96:
 313              	.LBB97:
 314              		.loc 2 1467 0 discriminator 3
 315              	@ 1467 "/home/sbcu/Dropbox/pcb-layouts/axo-on-discovery-board/axoloti/platform_linux/../CMSIS//Incl
 316 0132 91FA2BF1 		shadd16 r1, r1, fp
 317              	@ 0 "" 2
 318              	.LVL41:
 319              		.thumb
 320              	.LBE97:
 321              	.LBE96:
 322              		.loc 1 224 0 discriminator 3
 323 0136 1160     		str	r1, [r2]
 324              	.LVL42:
 325              	.LBB98:
 326              	.LBB99:
 327              		.loc 2 1705 0 discriminator 3
 328              	@ 1705 "/home/sbcu/Dropbox/pcb-layouts/axo-on-discovery-board/axoloti/platform_linux/../CMSIS//Incl
 329 0138 20FB03F1 		smuad r1, r0, r3
 330              	@ 0 "" 2
 331              	.LVL43:
 332              		.thumb
 333              	.LBE99:
 334              	.LBE98:
 335              	.LBB100:
 336              	.LBB101:
 337              		.loc 2 1779 0 discriminator 3
 338              	@ 1779 "/home/sbcu/Dropbox/pcb-layouts/axo-on-discovery-board/axoloti/platform_linux/../CMSIS//Incl
 339 013c 40FB13F3 		smusdx r3, r0, r3
 340              	@ 0 "" 2
 341              	.LVL44:
 342              		.thumb
ARM GAS  /tmp/cciFHMlc.s 			page 7


 343              	.LBE101:
 344              	.LBE100:
 345              		.loc 1 239 0 discriminator 3
 346 0140 1B0C     		lsrs	r3, r3, #16
 347              	.LVL45:
 348 0142 1B04     		lsls	r3, r3, #16
 349 0144 43EA1143 		orr	r3, r3, r1, lsr #16
 350              		.loc 1 238 0 discriminator 3
 351 0148 42F82530 		str	r3, [r2, r5, lsl #2]
 352              	.LVL46:
 353              		.loc 1 249 0 discriminator 3
 354 014c 52F827B0 		ldr	fp, [r2, r7, lsl #2]
 355              	.LVL47:
 356 0150 52F82610 		ldr	r1, [r2, r6, lsl #2]
 357              	.LVL48:
 358              	.LBB102:
 359              	.LBB103:
 360              		.loc 2 1507 0 discriminator 3
 361              	@ 1507 "/home/sbcu/Dropbox/pcb-layouts/axo-on-discovery-board/axoloti/platform_linux/../CMSIS//Incl
 362 0154 D1FA1BF3 		qsub16 r3, r1, fp
 363              	@ 0 "" 2
 364              	.LVL49:
 365              		.thumb
 366              	.LBE103:
 367              	.LBE102:
 368              	.LBB104:
 369              	.LBB105:
 370              		.loc 2 1467 0 discriminator 3
 371              	@ 1467 "/home/sbcu/Dropbox/pcb-layouts/axo-on-discovery-board/axoloti/platform_linux/../CMSIS//Incl
 372 0158 91FA2BF1 		shadd16 r1, r1, fp
 373              	@ 0 "" 2
 374              	.LVL50:
 375              		.thumb
 376              	.LBE105:
 377              	.LBE104:
 378              		.loc 1 251 0 discriminator 3
 379 015c 42F82610 		str	r1, [r2, r6, lsl #2]
 380              	.LVL51:
 381              	.LBB106:
 382              	.LBB107:
 383              		.loc 2 1705 0 discriminator 3
 384              	@ 1705 "/home/sbcu/Dropbox/pcb-layouts/axo-on-discovery-board/axoloti/platform_linux/../CMSIS//Incl
 385 0160 20FB03F1 		smuad r1, r0, r3
 386              	@ 0 "" 2
 387              	.LVL52:
 388              		.thumb
 389              	.LBE107:
 390              	.LBE106:
 391              	.LBB108:
 392              	.LBB109:
 393              		.loc 2 1779 0 discriminator 3
 394              	@ 1779 "/home/sbcu/Dropbox/pcb-layouts/axo-on-discovery-board/axoloti/platform_linux/../CMSIS//Incl
 395 0164 40FB13F3 		smusdx r3, r0, r3
 396              	@ 0 "" 2
 397              	.LVL53:
 398              		.thumb
 399              	.LBE109:
ARM GAS  /tmp/cciFHMlc.s 			page 8


 400              	.LBE108:
 401              		.loc 1 266 0 discriminator 3
 402 0168 1B0C     		lsrs	r3, r3, #16
 403              	.LVL54:
 404 016a 1B04     		lsls	r3, r3, #16
 405 016c 7444     		add	r4, r4, lr
 406              	.LVL55:
 407 016e 43EA1143 		orr	r3, r3, r1, lsr #16
 408              		.loc 1 214 0 discriminator 3
 409 0172 A145     		cmp	r9, r4
 410              		.loc 1 265 0 discriminator 3
 411 0174 42F82730 		str	r3, [r2, r7, lsl #2]
 412              	.LVL56:
 413 0178 6244     		add	r2, r2, ip
 414              		.loc 1 214 0 discriminator 3
 415 017a D5D8     		bhi	.L10
 416              	.LVL57:
 417              	.L11:
 418 017c 019B     		ldr	r3, [sp, #4]
 419              		.loc 1 207 0
 420 017e 08F10108 		add	r8, r8, #1
 421              	.LVL58:
 422 0182 0433     		adds	r3, r3, #4
 423 0184 A845     		cmp	r8, r5
 424 0186 0193     		str	r3, [sp, #4]
 425 0188 C5D1     		bne	.L8
 426              	.LVL59:
 427              	.L9:
 428              		.loc 1 272 0
 429 018a 029B     		ldr	r3, [sp, #8]
 430              		.loc 1 200 0
 431 018c 049A     		ldr	r2, [sp, #16]
 432              		.loc 1 272 0
 433 018e 5B00     		lsls	r3, r3, #1
 434              		.loc 1 200 0
 435 0190 5208     		lsrs	r2, r2, #1
 436              		.loc 1 272 0
 437 0192 9BB2     		uxth	r3, r3
 438              		.loc 1 200 0
 439 0194 022A     		cmp	r2, #2
 440 0196 0492     		str	r2, [sp, #16]
 441              	.LVL60:
 442              		.loc 1 272 0
 443 0198 0293     		str	r3, [sp, #8]
 444              	.LVL61:
 445              		.loc 1 203 0
 446 019a 2E46     		mov	r6, r5
 447              		.loc 1 200 0
 448 019c AFD8     		bhi	.L6
 449              	.LVL62:
 450              	.L4:
 451              		.loc 1 276 0
 452 019e 6C08     		lsrs	r4, r5, #1
 453              	.LVL63:
 454              	.L12:
 455 01a0 0599     		ldr	r1, [sp, #20]
 456 01a2 6619     		adds	r6, r4, r5
ARM GAS  /tmp/cciFHMlc.s 			page 9


 457              		.loc 1 125 0
 458 01a4 0023     		movs	r3, #0
 459 01a6 4FEAC50E 		lsl	lr, r5, #3
 460 01aa 01EB8507 		add	r7, r1, r5, lsl #2
 461 01ae 01EB8606 		add	r6, r1, r6, lsl #2
 462 01b2 01EB8404 		add	r4, r1, r4, lsl #2
 463 01b6 1846     		mov	r0, r3
 464 01b8 6D00     		lsls	r5, r5, #1
 465 01ba 8C46     		mov	ip, r1
 466              	.LVL64:
 467              	.L13:
 468              		.loc 1 292 0 discriminator 3
 469 01bc 5CF80320 		ldr	r2, [ip, r3]
 470 01c0 E158     		ldr	r1, [r4, r3]
 471              	.LVL65:
 472              	.LBB110:
 473              	.LBB111:
 474              		.loc 2 1507 0 discriminator 3
 475              	@ 1507 "/home/sbcu/Dropbox/pcb-layouts/axo-on-discovery-board/axoloti/platform_linux/../CMSIS//Incl
 476 01c2 D2FA11F8 		qsub16 r8, r2, r1
 477              	@ 0 "" 2
 478              	.LVL66:
 479              		.thumb
 480              	.LBE111:
 481              	.LBE110:
 482              	.LBB112:
 483              	.LBB113:
 484              		.loc 2 1459 0 discriminator 3
 485              	@ 1459 "/home/sbcu/Dropbox/pcb-layouts/axo-on-discovery-board/axoloti/platform_linux/../CMSIS//Incl
 486 01c6 92FA11F2 		qadd16 r2, r2, r1
 487              	@ 0 "" 2
 488              	.LVL67:
 489              		.thumb
 490              	.LBE113:
 491              	.LBE112:
 492              		.loc 1 294 0 discriminator 3
 493 01ca 4CF80320 		str	r2, [ip, r3]
 494              	.LVL68:
 495              		.loc 1 296 0 discriminator 3
 496 01ce 44F80380 		str	r8, [r4, r3]
 497              	.LVL69:
 498              		.loc 1 305 0 discriminator 3
 499 01d2 FA58     		ldr	r2, [r7, r3]
 500              	.LVL70:
 501 01d4 F158     		ldr	r1, [r6, r3]
 502              	.LVL71:
 503              	.LBB114:
 504              	.LBB115:
 505              		.loc 2 1507 0 discriminator 3
 506              	@ 1507 "/home/sbcu/Dropbox/pcb-layouts/axo-on-discovery-board/axoloti/platform_linux/../CMSIS//Incl
 507 01d6 D2FA11F8 		qsub16 r8, r2, r1
 508              	@ 0 "" 2
 509              	.LVL72:
 510              		.thumb
 511              	.LBE115:
 512              	.LBE114:
 513              	.LBB116:
ARM GAS  /tmp/cciFHMlc.s 			page 10


 514              	.LBB117:
 515              		.loc 2 1459 0 discriminator 3
 516              	@ 1459 "/home/sbcu/Dropbox/pcb-layouts/axo-on-discovery-board/axoloti/platform_linux/../CMSIS//Incl
 517 01da 92FA11F2 		qadd16 r2, r2, r1
 518              	@ 0 "" 2
 519              	.LVL73:
 520              		.thumb
 521 01de 2844     		add	r0, r0, r5
 522              	.LVL74:
 523              	.LBE117:
 524              	.LBE116:
 525              		.loc 1 284 0 discriminator 3
 526 01e0 8145     		cmp	r9, r0
 527              		.loc 1 307 0 discriminator 3
 528 01e2 FA50     		str	r2, [r7, r3]
 529              	.LVL75:
 530              		.loc 1 309 0 discriminator 3
 531 01e4 46F80380 		str	r8, [r6, r3]
 532 01e8 7344     		add	r3, r3, lr
 533              		.loc 1 284 0 discriminator 3
 534 01ea E7D8     		bhi	.L13
 535              		.loc 1 429 0
 536 01ec 07B0     		add	sp, sp, #28
 537              		.cfi_remember_state
 538              		.cfi_def_cfa_offset 36
 539              		@ sp needed
 540 01ee BDE8F08F 		pop	{r4, r5, r6, r7, r8, r9, r10, fp, pc}
 541              	.LVL76:
 542              	.L2:
 543              		.cfi_restore_state
 544              		.loc 1 125 0
 545 01f2 3546     		mov	r5, r6
 546              	.LVL77:
 547              		.loc 1 276 0
 548 01f4 8C08     		lsrs	r4, r1, #2
 549              	.LVL78:
 550              		.loc 1 284 0
 551 01f6 0029     		cmp	r1, #0
 552 01f8 D2D1     		bne	.L12
 553              	.LVL79:
 554              		.loc 1 429 0
 555 01fa 07B0     		add	sp, sp, #28
 556              		.cfi_remember_state
 557              		.cfi_def_cfa_offset 36
 558              		@ sp needed
 559 01fc BDE8F08F 		pop	{r4, r5, r6, r7, r8, r9, r10, fp, pc}
 560              	.LVL80:
 561              	.L15:
 562              		.cfi_restore_state
 563              		.loc 1 200 0
 564 0200 3546     		mov	r5, r6
 565 0202 CCE7     		b	.L4
 566              		.cfi_endproc
 567              	.LFE136:
 568              		.size	arm_radix2_butterfly_q15, .-arm_radix2_butterfly_q15
 569              		.align	2
 570 0204 AFF30080 		.p2align 4,,15
ARM GAS  /tmp/cciFHMlc.s 			page 11


 570      AFF30080 
 570      AFF30080 
 571              		.global	arm_radix2_butterfly_inverse_q15
 572              		.thumb
 573              		.thumb_func
 574              		.type	arm_radix2_butterfly_inverse_q15, %function
 575              	arm_radix2_butterfly_inverse_q15:
 576              	.LFB137:
 577              		.loc 1 437 0
 578              		.cfi_startproc
 579              		@ args = 0, pretend = 0, frame = 24
 580              		@ frame_needed = 0, uses_anonymous_args = 0
 581              	.LVL81:
 582 0210 2DE9F04F 		push	{r4, r5, r6, r7, r8, r9, r10, fp, lr}
 583              		.cfi_def_cfa_offset 36
 584              		.cfi_offset 4, -36
 585              		.cfi_offset 5, -32
 586              		.cfi_offset 6, -28
 587              		.cfi_offset 7, -24
 588              		.cfi_offset 8, -20
 589              		.cfi_offset 9, -16
 590              		.cfi_offset 10, -12
 591              		.cfi_offset 11, -8
 592              		.cfi_offset 14, -4
 593 0214 87B0     		sub	sp, sp, #28
 594              		.cfi_def_cfa_offset 64
 595              		.loc 1 454 0
 596 0216 4E08     		lsrs	r6, r1, #1
 597              		.loc 1 437 0
 598 0218 8946     		mov	r9, r1
 599              	.LVL82:
 600 021a 0546     		mov	r5, r0
 601 021c 0590     		str	r0, [sp, #20]
 602 021e 0392     		str	r2, [sp, #12]
 603 0220 0293     		str	r3, [sp, #8]
 604              		.loc 1 454 0
 605 0222 00F0E180 		beq	.L24
 606 0226 D900     		lsls	r1, r3, #3
 607              	.LVL83:
 608 0228 00EB860E 		add	lr, r0, r6, lsl #2
 609 022c 0024     		movs	r4, #0
 610 022e 0191     		str	r1, [sp, #4]
 611 0230 1146     		mov	r1, r2
 612 0232 CDF81090 		str	r9, [sp, #16]
 613 0236 7746     		mov	r7, lr
 614 0238 2046     		mov	r0, r4
 615              	.LVL84:
 616 023a 02EB830B 		add	fp, r2, r3, lsl #2
 617 023e A846     		mov	r8, r5
 618 0240 8946     		mov	r9, r1
 619              	.LVL85:
 620              	.L26:
 621              		.loc 1 462 0 discriminator 3
 622 0242 58F82030 		ldr	r3, [r8, r0, lsl #2]
 623              		.loc 1 466 0 discriminator 3
 624 0246 5EF820C0 		ldr	ip, [lr, r0, lsl #2]
 625              		.loc 1 456 0 discriminator 3
ARM GAS  /tmp/cciFHMlc.s 			page 12


 626 024a 59F80420 		ldr	r2, [r9, r4]
 627              	.LVL86:
 628              		.loc 1 464 0 discriminator 3
 629 024e 4FEA630A 		asr	r10, r3, #1
 630              		.loc 1 468 0 discriminator 3
 631 0252 4FEA6C01 		asr	r1, ip, #1
 632              		.loc 1 464 0 discriminator 3
 633 0256 4FEA1A4A 		lsr	r10, r10, #16
 634 025a 43F34E03 		sbfx	r3, r3, #1, #15
 635              	.LVL87:
 636              		.loc 1 468 0 discriminator 3
 637 025e 090C     		lsrs	r1, r1, #16
 638 0260 4CF34E0C 		sbfx	ip, ip, #1, #15
 639              		.loc 1 464 0 discriminator 3
 640 0264 4FEA0A4A 		lsl	r10, r10, #16
 641              		.loc 1 468 0 discriminator 3
 642 0268 0904     		lsls	r1, r1, #16
 643              		.loc 1 464 0 discriminator 3
 644 026a 9BB2     		uxth	r3, r3
 645              		.loc 1 468 0 discriminator 3
 646 026c 1FFA8CFC 		uxth	ip, ip
 647              		.loc 1 464 0 discriminator 3
 648 0270 43EA0A03 		orr	r3, r3, r10
 649              	.LVL88:
 650              		.loc 1 468 0 discriminator 3
 651 0274 4CEA010C 		orr	ip, ip, r1
 652              	.LVL89:
 653              	.LBB118:
 654              	.LBB119:
 655              		.loc 2 1507 0 discriminator 3
 656              	@ 1507 "/home/sbcu/Dropbox/pcb-layouts/axo-on-discovery-board/axoloti/platform_linux/../CMSIS//Incl
 657 0278 D3FA1CF1 		qsub16 r1, r3, ip
 658              	@ 0 "" 2
 659              	.LVL90:
 660              		.thumb
 661              	.LBE119:
 662              	.LBE118:
 663              	.LBB120:
 664              	.LBB121:
 665              		.loc 2 1467 0 discriminator 3
 666              	@ 1467 "/home/sbcu/Dropbox/pcb-layouts/axo-on-discovery-board/axoloti/platform_linux/../CMSIS//Incl
 667 027c 93FA2CF3 		shadd16 r3, r3, ip
 668              	@ 0 "" 2
 669              	.LVL91:
 670              		.thumb
 671              	.LBE121:
 672              	.LBE120:
 673              		.loc 1 472 0 discriminator 3
 674 0280 48F82030 		str	r3, [r8, r0, lsl #2]
 675              	.LVL92:
 676              	.LBB122:
 677              	.LBB123:
 678              		.loc 2 1771 0 discriminator 3
 679              	@ 1771 "/home/sbcu/Dropbox/pcb-layouts/axo-on-discovery-board/axoloti/platform_linux/../CMSIS//Incl
 680 0284 42FB01F3 		smusd r3, r2, r1
 681              	@ 0 "" 2
 682              	.LVL93:
ARM GAS  /tmp/cciFHMlc.s 			page 13


 683              		.thumb
 684              	.LBE123:
 685              	.LBE122:
 686              	.LBB124:
 687              	.LBB125:
 688              		.loc 2 1713 0 discriminator 3
 689              	@ 1713 "/home/sbcu/Dropbox/pcb-layouts/axo-on-discovery-board/axoloti/platform_linux/../CMSIS//Incl
 690 0288 22FB11F2 		smuadx r2, r2, r1
 691              	@ 0 "" 2
 692              	.LVL94:
 693              		.thumb
 694              	.LBE125:
 695              	.LBE124:
 696              		.loc 1 486 0 discriminator 3
 697 028c 120C     		lsrs	r2, r2, #16
 698              	.LVL95:
 699 028e 1204     		lsls	r2, r2, #16
 700 0290 42EA1343 		orr	r3, r2, r3, lsr #16
 701              	.LVL96:
 702              		.loc 1 485 0 discriminator 3
 703 0294 4EF82030 		str	r3, [lr, r0, lsl #2]
 704              	.LVL97:
 705              		.loc 1 500 0 discriminator 3
 706 0298 D7F804C0 		ldr	ip, [r7, #4]
 707              	.LVL98:
 708              		.loc 1 496 0 discriminator 3
 709 029c 6B68     		ldr	r3, [r5, #4]
 710              		.loc 1 488 0 discriminator 3
 711 029e 5BF80420 		ldr	r2, [fp, r4]
 712              	.LVL99:
 713              		.loc 1 498 0 discriminator 3
 714 02a2 4FEA630A 		asr	r10, r3, #1
 715              		.loc 1 502 0 discriminator 3
 716 02a6 4FEA6C01 		asr	r1, ip, #1
 717              	.LVL100:
 718              		.loc 1 498 0 discriminator 3
 719 02aa 4FEA1A4A 		lsr	r10, r10, #16
 720 02ae 43F34E03 		sbfx	r3, r3, #1, #15
 721              	.LVL101:
 722              		.loc 1 502 0 discriminator 3
 723 02b2 090C     		lsrs	r1, r1, #16
 724 02b4 4CF34E0C 		sbfx	ip, ip, #1, #15
 725              		.loc 1 498 0 discriminator 3
 726 02b8 4FEA0A4A 		lsl	r10, r10, #16
 727              		.loc 1 502 0 discriminator 3
 728 02bc 0904     		lsls	r1, r1, #16
 729              		.loc 1 498 0 discriminator 3
 730 02be 9BB2     		uxth	r3, r3
 731              		.loc 1 502 0 discriminator 3
 732 02c0 1FFA8CFC 		uxth	ip, ip
 733              		.loc 1 498 0 discriminator 3
 734 02c4 43EA0A03 		orr	r3, r3, r10
 735              	.LVL102:
 736              		.loc 1 502 0 discriminator 3
 737 02c8 4CEA010C 		orr	ip, ip, r1
 738              	.LVL103:
 739              	.LBB126:
ARM GAS  /tmp/cciFHMlc.s 			page 14


 740              	.LBB127:
 741              		.loc 2 1507 0 discriminator 3
 742              	@ 1507 "/home/sbcu/Dropbox/pcb-layouts/axo-on-discovery-board/axoloti/platform_linux/../CMSIS//Incl
 743 02cc D3FA1CF1 		qsub16 r1, r3, ip
 744              	@ 0 "" 2
 745              	.LVL104:
 746              		.thumb
 747              	.LBE127:
 748              	.LBE126:
 749              	.LBB128:
 750              	.LBB129:
 751              		.loc 2 1467 0 discriminator 3
 752              	@ 1467 "/home/sbcu/Dropbox/pcb-layouts/axo-on-discovery-board/axoloti/platform_linux/../CMSIS//Incl
 753 02d0 93FA2CF3 		shadd16 r3, r3, ip
 754              	@ 0 "" 2
 755              	.LVL105:
 756              		.thumb
 757              	.LBE129:
 758              	.LBE128:
 759              		.loc 1 506 0 discriminator 3
 760 02d4 6B60     		str	r3, [r5, #4]
 761              	.LVL106:
 762              	.LBB130:
 763              	.LBB131:
 764              		.loc 2 1771 0 discriminator 3
 765              	@ 1771 "/home/sbcu/Dropbox/pcb-layouts/axo-on-discovery-board/axoloti/platform_linux/../CMSIS//Incl
 766 02d6 42FB01F3 		smusd r3, r2, r1
 767              	@ 0 "" 2
 768              	.LVL107:
 769              		.thumb
 770              	.LBE131:
 771              	.LBE130:
 772              	.LBB132:
 773              	.LBB133:
 774              		.loc 2 1713 0 discriminator 3
 775              	@ 1713 "/home/sbcu/Dropbox/pcb-layouts/axo-on-discovery-board/axoloti/platform_linux/../CMSIS//Incl
 776 02da 22FB11F2 		smuadx r2, r2, r1
 777              	@ 0 "" 2
 778              	.LVL108:
 779              		.thumb
 780              	.LBE133:
 781              	.LBE132:
 782              		.loc 1 520 0 discriminator 3
 783 02de 120C     		lsrs	r2, r2, #16
 784              	.LVL109:
 785 02e0 1204     		lsls	r2, r2, #16
 786 02e2 42EA1343 		orr	r3, r2, r3, lsr #16
 787              	.LVL110:
 788              		.loc 1 519 0 discriminator 3
 789 02e6 7B60     		str	r3, [r7, #4]
 790              	.LVL111:
 791              		.loc 1 454 0 discriminator 3
 792 02e8 0230     		adds	r0, r0, #2
 793              	.LVL112:
 794 02ea 019B     		ldr	r3, [sp, #4]
 795 02ec 8642     		cmp	r6, r0
 796 02ee 1C44     		add	r4, r4, r3
ARM GAS  /tmp/cciFHMlc.s 			page 15


 797 02f0 05F10805 		add	r5, r5, #8
 798 02f4 07F10807 		add	r7, r7, #8
 799 02f8 A3D8     		bhi	.L26
 800              		.loc 1 524 0
 801 02fa 029B     		ldr	r3, [sp, #8]
 802 02fc DDF81090 		ldr	r9, [sp, #16]
 803              	.LVL113:
 804 0300 5B00     		lsls	r3, r3, #1
 805 0302 9BB2     		uxth	r3, r3
 806              		.loc 1 527 0
 807 0304 022E     		cmp	r6, #2
 808              		.loc 1 524 0
 809 0306 0293     		str	r3, [sp, #8]
 810              	.LVL114:
 811              		.loc 1 527 0
 812 0308 71D9     		bls	.L39
 813 030a 0496     		str	r6, [sp, #16]
 814              	.LVL115:
 815              	.L29:
 816              		.loc 1 534 0
 817 030c 7508     		lsrs	r5, r6, #1
 818              	.LVL116:
 819 030e 43D0     		beq	.L32
 820 0310 4FF0000A 		mov	r10, #0
 821 0314 059B     		ldr	r3, [sp, #20]
 822 0316 0193     		str	r3, [sp, #4]
 823 0318 D046     		mov	r8, r10
 824 031a 4FEAC60C 		lsl	ip, r6, #3
 825 031e 4FEA460E 		lsl	lr, r6, #1
 826 0322 AF19     		adds	r7, r5, r6
 827              	.LVL117:
 828              	.L31:
 829              		.loc 1 536 0
 830 0324 039B     		ldr	r3, [sp, #12]
 831 0326 53F82A00 		ldr	r0, [r3, r10, lsl #2]
 832              	.LVL118:
 833              		.loc 1 538 0
 834 032a 029B     		ldr	r3, [sp, #8]
 835              		.loc 1 541 0
 836 032c C145     		cmp	r9, r8
 837              		.loc 1 538 0
 838 032e 9A44     		add	r10, r10, r3
 839              	.LVL119:
 840              		.loc 1 541 0
 841 0330 2BD9     		bls	.L34
 842 0332 019A     		ldr	r2, [sp, #4]
 843 0334 4446     		mov	r4, r8
 844              	.LVL120:
 845              	.L33:
 846              		.loc 1 549 0 discriminator 3
 847 0336 1168     		ldr	r1, [r2]
 848 0338 52F825B0 		ldr	fp, [r2, r5, lsl #2]
 849              	.LVL121:
 850              	.LBB134:
 851              	.LBB135:
 852              		.loc 2 1507 0 discriminator 3
 853              	@ 1507 "/home/sbcu/Dropbox/pcb-layouts/axo-on-discovery-board/axoloti/platform_linux/../CMSIS//Incl
ARM GAS  /tmp/cciFHMlc.s 			page 16


 854 033c D1FA1BF3 		qsub16 r3, r1, fp
 855              	@ 0 "" 2
 856              	.LVL122:
 857              		.thumb
 858              	.LBE135:
 859              	.LBE134:
 860              	.LBB136:
 861              	.LBB137:
 862              		.loc 2 1467 0 discriminator 3
 863              	@ 1467 "/home/sbcu/Dropbox/pcb-layouts/axo-on-discovery-board/axoloti/platform_linux/../CMSIS//Incl
 864 0340 91FA2BF1 		shadd16 r1, r1, fp
 865              	@ 0 "" 2
 866              	.LVL123:
 867              		.thumb
 868              	.LBE137:
 869              	.LBE136:
 870              		.loc 1 551 0 discriminator 3
 871 0344 1160     		str	r1, [r2]
 872              	.LVL124:
 873              	.LBB138:
 874              	.LBB139:
 875              		.loc 2 1771 0 discriminator 3
 876              	@ 1771 "/home/sbcu/Dropbox/pcb-layouts/axo-on-discovery-board/axoloti/platform_linux/../CMSIS//Incl
 877 0346 40FB03F1 		smusd r1, r0, r3
 878              	@ 0 "" 2
 879              	.LVL125:
 880              		.thumb
 881              	.LBE139:
 882              	.LBE138:
 883              	.LBB140:
 884              	.LBB141:
 885              		.loc 2 1713 0 discriminator 3
 886              	@ 1713 "/home/sbcu/Dropbox/pcb-layouts/axo-on-discovery-board/axoloti/platform_linux/../CMSIS//Incl
 887 034a 20FB13F3 		smuadx r3, r0, r3
 888              	@ 0 "" 2
 889              	.LVL126:
 890              		.thumb
 891              	.LBE141:
 892              	.LBE140:
 893              		.loc 1 566 0 discriminator 3
 894 034e 1B0C     		lsrs	r3, r3, #16
 895              	.LVL127:
 896 0350 1B04     		lsls	r3, r3, #16
 897 0352 43EA1143 		orr	r3, r3, r1, lsr #16
 898              		.loc 1 565 0 discriminator 3
 899 0356 42F82530 		str	r3, [r2, r5, lsl #2]
 900              	.LVL128:
 901              		.loc 1 576 0 discriminator 3
 902 035a 52F827B0 		ldr	fp, [r2, r7, lsl #2]
 903              	.LVL129:
 904 035e 52F82610 		ldr	r1, [r2, r6, lsl #2]
 905              	.LVL130:
 906              	.LBB142:
 907              	.LBB143:
 908              		.loc 2 1507 0 discriminator 3
 909              	@ 1507 "/home/sbcu/Dropbox/pcb-layouts/axo-on-discovery-board/axoloti/platform_linux/../CMSIS//Incl
 910 0362 D1FA1BF3 		qsub16 r3, r1, fp
ARM GAS  /tmp/cciFHMlc.s 			page 17


 911              	@ 0 "" 2
 912              	.LVL131:
 913              		.thumb
 914              	.LBE143:
 915              	.LBE142:
 916              	.LBB144:
 917              	.LBB145:
 918              		.loc 2 1467 0 discriminator 3
 919              	@ 1467 "/home/sbcu/Dropbox/pcb-layouts/axo-on-discovery-board/axoloti/platform_linux/../CMSIS//Incl
 920 0366 91FA2BF1 		shadd16 r1, r1, fp
 921              	@ 0 "" 2
 922              	.LVL132:
 923              		.thumb
 924              	.LBE145:
 925              	.LBE144:
 926              		.loc 1 578 0 discriminator 3
 927 036a 42F82610 		str	r1, [r2, r6, lsl #2]
 928              	.LVL133:
 929              	.LBB146:
 930              	.LBB147:
 931              		.loc 2 1771 0 discriminator 3
 932              	@ 1771 "/home/sbcu/Dropbox/pcb-layouts/axo-on-discovery-board/axoloti/platform_linux/../CMSIS//Incl
 933 036e 40FB03F1 		smusd r1, r0, r3
 934              	@ 0 "" 2
 935              	.LVL134:
 936              		.thumb
 937              	.LBE147:
 938              	.LBE146:
 939              	.LBB148:
 940              	.LBB149:
 941              		.loc 2 1713 0 discriminator 3
 942              	@ 1713 "/home/sbcu/Dropbox/pcb-layouts/axo-on-discovery-board/axoloti/platform_linux/../CMSIS//Incl
 943 0372 20FB13F3 		smuadx r3, r0, r3
 944              	@ 0 "" 2
 945              	.LVL135:
 946              		.thumb
 947              	.LBE149:
 948              	.LBE148:
 949              		.loc 1 592 0 discriminator 3
 950 0376 1B0C     		lsrs	r3, r3, #16
 951              	.LVL136:
 952 0378 1B04     		lsls	r3, r3, #16
 953 037a 7444     		add	r4, r4, lr
 954              	.LVL137:
 955 037c 43EA1143 		orr	r3, r3, r1, lsr #16
 956              		.loc 1 541 0 discriminator 3
 957 0380 A145     		cmp	r9, r4
 958              		.loc 1 591 0 discriminator 3
 959 0382 42F82730 		str	r3, [r2, r7, lsl #2]
 960              	.LVL138:
 961 0386 6244     		add	r2, r2, ip
 962              		.loc 1 541 0 discriminator 3
 963 0388 D5D8     		bhi	.L33
 964              	.LVL139:
 965              	.L34:
 966 038a 019B     		ldr	r3, [sp, #4]
 967              		.loc 1 534 0
ARM GAS  /tmp/cciFHMlc.s 			page 18


 968 038c 08F10108 		add	r8, r8, #1
 969              	.LVL140:
 970 0390 0433     		adds	r3, r3, #4
 971 0392 A845     		cmp	r8, r5
 972 0394 0193     		str	r3, [sp, #4]
 973 0396 C5D1     		bne	.L31
 974              	.LVL141:
 975              	.L32:
 976              		.loc 1 598 0
 977 0398 029B     		ldr	r3, [sp, #8]
 978              		.loc 1 527 0
 979 039a 049A     		ldr	r2, [sp, #16]
 980              		.loc 1 598 0
 981 039c 5B00     		lsls	r3, r3, #1
 982              		.loc 1 527 0
 983 039e 5208     		lsrs	r2, r2, #1
 984              		.loc 1 598 0
 985 03a0 9BB2     		uxth	r3, r3
 986              		.loc 1 527 0
 987 03a2 022A     		cmp	r2, #2
 988 03a4 0492     		str	r2, [sp, #16]
 989              	.LVL142:
 990              		.loc 1 598 0
 991 03a6 0293     		str	r3, [sp, #8]
 992              	.LVL143:
 993              		.loc 1 530 0
 994 03a8 2E46     		mov	r6, r5
 995              	.LVL144:
 996              		.loc 1 527 0
 997 03aa AFD8     		bhi	.L29
 998              	.LVL145:
 999              	.L27:
 1000              		.loc 1 606 0
 1001 03ac 6F08     		lsrs	r7, r5, #1
 1002              	.LVL146:
 1003 03ae 1BD0     		beq	.L24
 1004 03b0 059C     		ldr	r4, [sp, #20]
 1005 03b2 0026     		movs	r6, #0
 1006 03b4 2346     		mov	r3, r4
 1007 03b6 04EB8700 		add	r0, r4, r7, lsl #2
 1008 03ba AE46     		mov	lr, r5
 1009              	.LVL147:
 1010              	.L35:
 1011              		.loc 1 613 0 discriminator 1
 1012 03bc B145     		cmp	r9, r6
 1013 03be 88BF     		it	hi
 1014 03c0 3346     		movhi	r3, r6
 1015 03c2 0ED9     		bls	.L38
 1016              	.LVL148:
 1017              	.L36:
 1018              		.loc 1 621 0 discriminator 3
 1019 03c4 54F82320 		ldr	r2, [r4, r3, lsl #2]
 1020 03c8 50F82310 		ldr	r1, [r0, r3, lsl #2]
 1021              	.LVL149:
 1022              	.LBB150:
 1023              	.LBB151:
 1024              		.loc 2 1507 0 discriminator 3
ARM GAS  /tmp/cciFHMlc.s 			page 19


 1025              	@ 1507 "/home/sbcu/Dropbox/pcb-layouts/axo-on-discovery-board/axoloti/platform_linux/../CMSIS//Incl
 1026 03cc D2FA11F5 		qsub16 r5, r2, r1
 1027              	@ 0 "" 2
 1028              	.LVL150:
 1029              		.thumb
 1030              	.LBE151:
 1031              	.LBE150:
 1032              	.LBB152:
 1033              	.LBB153:
 1034              		.loc 2 1459 0 discriminator 3
 1035              	@ 1459 "/home/sbcu/Dropbox/pcb-layouts/axo-on-discovery-board/axoloti/platform_linux/../CMSIS//Incl
 1036 03d0 92FA11F2 		qadd16 r2, r2, r1
 1037              	@ 0 "" 2
 1038              	.LVL151:
 1039              		.thumb
 1040              	.LBE153:
 1041              	.LBE152:
 1042              		.loc 1 623 0 discriminator 3
 1043 03d4 44F82320 		str	r2, [r4, r3, lsl #2]
 1044              	.LVL152:
 1045              		.loc 1 625 0 discriminator 3
 1046 03d8 40F82350 		str	r5, [r0, r3, lsl #2]
 1047              		.loc 1 613 0 discriminator 3
 1048 03dc 7344     		add	r3, r3, lr
 1049              	.LVL153:
 1050 03de 9945     		cmp	r9, r3
 1051 03e0 F0D8     		bhi	.L36
 1052              	.LVL154:
 1053              	.L38:
 1054              		.loc 1 606 0
 1055 03e2 0136     		adds	r6, r6, #1
 1056              	.LVL155:
 1057 03e4 BE42     		cmp	r6, r7
 1058 03e6 E9D1     		bne	.L35
 1059              	.LVL156:
 1060              	.L24:
 1061              		.loc 1 742 0
 1062 03e8 07B0     		add	sp, sp, #28
 1063              		.cfi_remember_state
 1064              		.cfi_def_cfa_offset 36
 1065              		@ sp needed
 1066 03ea BDE8F08F 		pop	{r4, r5, r6, r7, r8, r9, r10, fp, pc}
 1067              	.LVL157:
 1068              	.L39:
 1069              		.cfi_restore_state
 1070              		.loc 1 527 0
 1071 03ee 3546     		mov	r5, r6
 1072 03f0 DCE7     		b	.L27
 1073              		.cfi_endproc
 1074              	.LFE137:
 1075              		.size	arm_radix2_butterfly_inverse_q15, .-arm_radix2_butterfly_inverse_q15
 1076 03f2 00BF     		.align	2
 1077 03f4 AFF30080 		.p2align 4,,15
 1077      AFF30080 
 1077      AFF30080 
 1078              		.global	arm_cfft_radix2_q15
 1079              		.thumb
ARM GAS  /tmp/cciFHMlc.s 			page 20


 1080              		.thumb_func
 1081              		.type	arm_cfft_radix2_q15, %function
 1082              	arm_cfft_radix2_q15:
 1083              	.LFB135:
 1084              		.loc 1 83 0
 1085              		.cfi_startproc
 1086              		@ args = 0, pretend = 0, frame = 0
 1087              		@ frame_needed = 0, uses_anonymous_args = 0
 1088              	.LVL158:
 1089 0400 70B5     		push	{r4, r5, r6, lr}
 1090              		.cfi_def_cfa_offset 16
 1091              		.cfi_offset 4, -16
 1092              		.cfi_offset 5, -12
 1093              		.cfi_offset 6, -8
 1094              		.cfi_offset 14, -4
 1095              		.loc 1 85 0
 1096 0402 8378     		ldrb	r3, [r0, #2]	@ zero_extendqisi2
 1097              		.loc 1 83 0
 1098 0404 0446     		mov	r4, r0
 1099              		.loc 1 85 0
 1100 0406 012B     		cmp	r3, #1
 1101              		.loc 1 83 0
 1102 0408 0D46     		mov	r5, r1
 1103              		.loc 1 87 0
 1104 040a 0846     		mov	r0, r1
 1105              	.LVL159:
 1106 040c 6268     		ldr	r2, [r4, #4]
 1107 040e 2188     		ldrh	r1, [r4]
 1108              	.LVL160:
 1109 0410 A389     		ldrh	r3, [r4, #12]
 1110              		.loc 1 85 0
 1111 0412 09D0     		beq	.L56
 1112              		.loc 1 92 0
 1113 0414 FFF7FEFF 		bl	arm_radix2_butterfly_q15
 1114              	.LVL161:
 1115              	.L54:
 1116              		.loc 1 96 0
 1117 0418 2846     		mov	r0, r5
 1118 041a 2188     		ldrh	r1, [r4]
 1119 041c E289     		ldrh	r2, [r4, #14]
 1120 041e A368     		ldr	r3, [r4, #8]
 1121              		.loc 1 97 0
 1122 0420 BDE87040 		pop	{r4, r5, r6, lr}
 1123              		.cfi_remember_state
 1124              		.cfi_restore 14
 1125              		.cfi_restore 6
 1126              		.cfi_restore 5
 1127              		.cfi_restore 4
 1128              		.cfi_def_cfa_offset 0
 1129              	.LVL162:
 1130              		.loc 1 96 0
 1131 0424 FFF7FEBF 		b	arm_bitreversal_q15
 1132              	.LVL163:
 1133              	.L56:
 1134              		.cfi_restore_state
 1135              		.loc 1 87 0
 1136 0428 FFF7FEFF 		bl	arm_radix2_butterfly_inverse_q15
ARM GAS  /tmp/cciFHMlc.s 			page 21


 1137              	.LVL164:
 1138 042c F4E7     		b	.L54
 1139              		.cfi_endproc
 1140              	.LFE135:
 1141              		.size	arm_cfft_radix2_q15, .-arm_cfft_radix2_q15
 1142              	.Letext0:
 1143              		.file 3 "/home/sbcu/Dropbox/pcb-layouts/axo-on-discovery-board/axoloti/platform_linux/arm-none-eab
 1144              		.file 4 "/home/sbcu/Dropbox/pcb-layouts/axo-on-discovery-board/axoloti/platform_linux/arm-none-eab
 1145              		.file 5 "/home/sbcu/Dropbox/pcb-layouts/axo-on-discovery-board/axoloti/platform_linux/../CMSIS//DS