ARM GAS  /tmp/cc8yClZE.s 			page 1


   1              		.syntax unified
   2              		.cpu cortex-m4
   3              		.eabi_attribute 27, 1
   4              		.eabi_attribute 28, 1
   5              		.fpu fpv4-sp-d16
   6              		.eabi_attribute 20, 1
   7              		.eabi_attribute 21, 1
   8              		.eabi_attribute 23, 3
   9              		.eabi_attribute 24, 1
  10              		.eabi_attribute 25, 1
  11              		.eabi_attribute 26, 1
  12              		.eabi_attribute 30, 2
  13              		.eabi_attribute 34, 1
  14              		.eabi_attribute 18, 4
  15              		.thumb
  16              		.file	"arm_cos_q31.c"
  17              		.text
  18              	.Ltext0:
  19              		.cfi_sections	.debug_frame
  20              		.align	2
  21              		.p2align 4,,15
  22              		.global	arm_cos_q31
  23              		.thumb
  24              		.thumb_func
  25              		.type	arm_cos_q31, %function
  26              	arm_cos_q31:
  27              	.LFB135:
  28              		.file 1 "/home/sbcu/Dropbox/pcb-layouts/axo-on-discovery-board/axoloti/platform_linux/../CMSIS//DS
  29              		.loc 1 64 0
  30              		.cfi_startproc
  31              		@ args = 0, pretend = 0, frame = 0
  32              		@ frame_needed = 0, uses_anonymous_args = 0
  33              		@ link register save eliminated.
  34              	.LVL0:
  35              		.loc 1 72 0
  36 0000 10F10053 		adds	r3, r0, #536870912
  37              	.LVL1:
  38              		.loc 1 74 0
  39 0004 48BF     		it	mi
  40 0006 00F12043 		addmi	r3, r0, #-1610612736
  41              	.LVL2:
  42              		.loc 1 64 0
  43 000a 2DE9F003 		push	{r4, r5, r6, r7, r8, r9}
  44              		.cfi_def_cfa_offset 24
  45              		.cfi_offset 4, -24
  46              		.cfi_offset 5, -20
  47              		.cfi_offset 6, -16
  48              		.cfi_offset 7, -12
  49              		.cfi_offset 8, -8
  50              		.cfi_offset 9, -4
  51              		.loc 1 78 0
  52 000e 9A0D     		lsrs	r2, r3, #22
  53              	.LVL3:
  54              		.loc 1 85 0
  55 0010 0B4F     		ldr	r7, .L4
  56              		.loc 1 81 0
  57 0012 A3EB8253 		sub	r3, r3, r2, lsl #22
ARM GAS  /tmp/cc8yClZE.s 			page 2


  58              	.LVL4:
  59              		.loc 1 88 0
  60 0016 57F82240 		ldr	r4, [r7, r2, lsl #2]
  61              		.loc 1 81 0
  62 001a 5B02     		lsls	r3, r3, #9
  63              	.LVL5:
  64              		.loc 1 85 0
  65 001c 0132     		adds	r2, r2, #1
  66              	.LVL6:
  67              		.loc 1 88 0
  68 001e C3F10046 		rsb	r6, r3, #-2147483648
  69 0022 A6FB0489 		umull	r8, r9, r6, r4
  70 0026 E517     		asrs	r5, r4, #31
  71              		.loc 1 85 0
  72 0028 57F82220 		ldr	r2, [r7, r2, lsl #2]
  73              	.LVL7:
  74              		.loc 1 89 0
  75 002c 06FB0591 		mla	r1, r6, r5, r9
  76 0030 0020     		movs	r0, #0
  77              	.LVL8:
  78 0032 C2FB0301 		smlal	r0, r1, r2, r3
  79              		.loc 1 92 0
  80 0036 4800     		lsls	r0, r1, #1
  81 0038 BDE8F003 		pop	{r4, r5, r6, r7, r8, r9}
  82              		.cfi_restore 9
  83              		.cfi_restore 8
  84              		.cfi_restore 7
  85              		.cfi_restore 6
  86              		.cfi_restore 5
  87              		.cfi_restore 4
  88              		.cfi_def_cfa_offset 0
  89 003c 7047     		bx	lr
  90              	.L5:
  91 003e 00BF     		.align	2
  92              	.L4:
  93 0040 00000000 		.word	sinTable_q31
  94              		.cfi_endproc
  95              	.LFE135:
  96              		.size	arm_cos_q31, .-arm_cos_q31
  97              	.Letext0:
  98              		.file 2 "/home/sbcu/Dropbox/pcb-layouts/axo-on-discovery-board/axoloti/platform_linux/arm-none-eab
  99              		.file 3 "/home/sbcu/Dropbox/pcb-layouts/axo-on-discovery-board/axoloti/platform_linux/arm-none-eab
 100              		.file 4 "/home/sbcu/Dropbox/pcb-layouts/axo-on-discovery-board/axoloti/platform_linux/../CMSIS//DS
 101              		.file 5 "/home/sbcu/Dropbox/pcb-layouts/axo-on-discovery-board/axoloti/platform_linux/../CMSIS//DS