ARM GAS  /tmp/ccw3kF4g.s 			page 1


   1              		.syntax unified
   2              		.cpu cortex-m4
   3              		.eabi_attribute 27, 1
   4              		.eabi_attribute 28, 1
   5              		.fpu fpv4-sp-d16
   6              		.eabi_attribute 20, 1
   7              		.eabi_attribute 21, 1
   8              		.eabi_attribute 23, 3
   9              		.eabi_attribute 24, 1
  10              		.eabi_attribute 25, 1
  11              		.eabi_attribute 26, 1
  12              		.eabi_attribute 30, 2
  13              		.eabi_attribute 34, 1
  14              		.eabi_attribute 18, 4
  15              		.thumb
  16              		.file	"arm_sin_q31.c"
  17              		.text
  18              	.Ltext0:
  19              		.cfi_sections	.debug_frame
  20              		.align	2
  21              		.p2align 4,,15
  22              		.global	arm_sin_q31
  23              		.thumb
  24              		.thumb_func
  25              		.type	arm_sin_q31, %function
  26              	arm_sin_q31:
  27              	.LFB135:
  28              		.file 1 "/home/sbcu/Dropbox/pcb-layouts/axo-on-discovery-board/axoloti/platform_linux/../CMSIS//DS
  29              		.loc 1 62 0
  30              		.cfi_startproc
  31              		@ args = 0, pretend = 0, frame = 0
  32              		@ frame_needed = 0, uses_anonymous_args = 0
  33              		@ link register save eliminated.
  34              	.LVL0:
  35 0000 2DE9F003 		push	{r4, r5, r6, r7, r8, r9}
  36              		.cfi_def_cfa_offset 24
  37              		.cfi_offset 4, -24
  38              		.cfi_offset 5, -20
  39              		.cfi_offset 6, -16
  40              		.cfi_offset 7, -12
  41              		.cfi_offset 8, -8
  42              		.cfi_offset 9, -4
  43              		.loc 1 69 0
  44 0004 830D     		lsrs	r3, r0, #22
  45              	.LVL1:
  46              		.loc 1 76 0
  47 0006 0B4F     		ldr	r7, .L3
  48              		.loc 1 72 0
  49 0008 C0F31500 		ubfx	r0, r0, #0, #22
  50              	.LVL2:
  51              		.loc 1 79 0
  52 000c 57F82340 		ldr	r4, [r7, r3, lsl #2]
  53              		.loc 1 72 0
  54 0010 4002     		lsls	r0, r0, #9
  55              	.LVL3:
  56              		.loc 1 76 0
  57 0012 591C     		adds	r1, r3, #1
ARM GAS  /tmp/ccw3kF4g.s 			page 2


  58              		.loc 1 79 0
  59 0014 C0F10046 		rsb	r6, r0, #-2147483648
  60 0018 A6FB0489 		umull	r8, r9, r6, r4
  61 001c E517     		asrs	r5, r4, #31
  62              		.loc 1 76 0
  63 001e 57F82110 		ldr	r1, [r7, r1, lsl #2]
  64              	.LVL4:
  65              		.loc 1 80 0
  66 0022 06FB0593 		mla	r3, r6, r5, r9
  67              	.LVL5:
  68 0026 0022     		movs	r2, #0
  69 0028 C1FB0023 		smlal	r2, r3, r1, r0
  70              		.loc 1 83 0
  71 002c 5800     		lsls	r0, r3, #1
  72              	.LVL6:
  73 002e BDE8F003 		pop	{r4, r5, r6, r7, r8, r9}
  74              		.cfi_restore 9
  75              		.cfi_restore 8
  76              		.cfi_restore 7
  77              		.cfi_restore 6
  78              		.cfi_restore 5
  79              		.cfi_restore 4
  80              		.cfi_def_cfa_offset 0
  81 0032 7047     		bx	lr
  82              	.L4:
  83              		.align	2
  84              	.L3:
  85 0034 00000000 		.word	sinTable_q31
  86              		.cfi_endproc
  87              	.LFE135:
  88              		.size	arm_sin_q31, .-arm_sin_q31
  89              	.Letext0:
  90              		.file 2 "/home/sbcu/Dropbox/pcb-layouts/axo-on-discovery-board/axoloti/platform_linux/arm-none-eab
  91              		.file 3 "/home/sbcu/Dropbox/pcb-layouts/axo-on-discovery-board/axoloti/platform_linux/arm-none-eab
  92              		.file 4 "/home/sbcu/Dropbox/pcb-layouts/axo-on-discovery-board/axoloti/platform_linux/../CMSIS//DS
  93              		.file 5 "/home/sbcu/Dropbox/pcb-layouts/axo-on-discovery-board/axoloti/platform_linux/../CMSIS//DS