ARM GAS  /tmp/cchxx0FN.s 			page 1


   1              		.syntax unified
   2              		.cpu cortex-m4
   3              		.eabi_attribute 27, 1
   4              		.eabi_attribute 28, 1
   5              		.fpu fpv4-sp-d16
   6              		.eabi_attribute 20, 1
   7              		.eabi_attribute 21, 1
   8              		.eabi_attribute 23, 3
   9              		.eabi_attribute 24, 1
  10              		.eabi_attribute 25, 1
  11              		.eabi_attribute 26, 1
  12              		.eabi_attribute 30, 2
  13              		.eabi_attribute 34, 1
  14              		.eabi_attribute 18, 4
  15              		.thumb
  16              		.file	"arm_cmplx_mult_cmplx_q15.c"
  17              		.text
  18              	.Ltext0:
  19              		.cfi_sections	.debug_frame
  20              		.align	2
  21              		.p2align 4,,15
  22              		.global	arm_cmplx_mult_cmplx_q15
  23              		.thumb
  24              		.thumb_func
  25              		.type	arm_cmplx_mult_cmplx_q15, %function
  26              	arm_cmplx_mult_cmplx_q15:
  27              	.LFB135:
  28              		.file 1 "/d_drive/axoloti/platform_linux/../CMSIS//DSP_Lib/Source/ComplexMathFunctions/arm_cmplx_m
  29              		.loc 1 70 0
  30              		.cfi_startproc
  31              		@ args = 0, pretend = 0, frame = 0
  32              		@ frame_needed = 0, uses_anonymous_args = 0
  33              	.LVL0:
  34 0000 2DE9F04F 		push	{r4, r5, r6, r7, r8, r9, r10, fp, lr}
  35              		.cfi_def_cfa_offset 36
  36              		.cfi_offset 4, -36
  37              		.cfi_offset 5, -32
  38              		.cfi_offset 6, -28
  39              		.cfi_offset 7, -24
  40              		.cfi_offset 8, -20
  41              		.cfi_offset 9, -16
  42              		.cfi_offset 10, -12
  43              		.cfi_offset 11, -8
  44              		.cfi_offset 14, -4
  45              		.loc 1 83 0
  46 0004 5FEA9308 		lsrs	r8, r3, #2
  47              	.LVL1:
  48 0008 00F08180 		beq	.L2
  49 000c 00F11006 		add	r6, r0, #16
  50 0010 01F11005 		add	r5, r1, #16
  51 0014 02F11004 		add	r4, r2, #16
  52 0018 C446     		mov	ip, r8
  53              	.LVL2:
  54              	.L3:
  55              		.loc 1 87 0
  56 001a 36F810BC 		ldrh	fp, [r6, #-16]
  57              	.LVL3:
ARM GAS  /tmp/cchxx0FN.s 			page 2


  58              		.loc 1 90 0
  59 001e 35F80E7C 		ldrh	r7, [r5, #-14]
  60              		.loc 1 88 0
  61 0022 36F80EAC 		ldrh	r10, [r6, #-14]
  62              	.LVL4:
  63              		.loc 1 89 0
  64 0026 35F8109C 		ldrh	r9, [r5, #-16]
  65              	.LVL5:
  66              		.loc 1 97 0
  67 002a 1BFB07FE 		smulbb	lr, fp, r7
  68              		.loc 1 94 0
  69 002e 1AFB07F7 		smulbb	r7, r10, r7
  70              	.LVL6:
  71 0032 7F14     		asrs	r7, r7, #17
  72              		.loc 1 97 0
  73 0034 19FB0AFA 		smulbb	r10, r9, r10
  74              	.LVL7:
  75 0038 4FEA6E4E 		asr	lr, lr, #17
  76              		.loc 1 94 0
  77 003c 1BFB09F9 		smulbb	r9, fp, r9
  78              	.LVL8:
  79              		.loc 1 96 0
  80 0040 0EEB6A4E 		add	lr, lr, r10, asr #17
  81              		.loc 1 93 0
  82 0044 C7EB6949 		rsb	r9, r7, r9, asr #17
  83              		.loc 1 96 0
  84 0048 24F80EEC 		strh	lr, [r4, #-14]	@ movhi
  85              	.LVL9:
  86              		.loc 1 93 0
  87 004c 24F8109C 		strh	r9, [r4, #-16]	@ movhi
  88              	.LVL10:
  89              		.loc 1 99 0
  90 0050 36F80CBC 		ldrh	fp, [r6, #-12]
  91              	.LVL11:
  92              		.loc 1 102 0
  93 0054 35F80A7C 		ldrh	r7, [r5, #-10]
  94              		.loc 1 100 0
  95 0058 36F80AAC 		ldrh	r10, [r6, #-10]
  96              	.LVL12:
  97              		.loc 1 101 0
  98 005c 35F80C9C 		ldrh	r9, [r5, #-12]
  99              	.LVL13:
 100              		.loc 1 109 0
 101 0060 1BFB07FE 		smulbb	lr, fp, r7
 102              		.loc 1 106 0
 103 0064 1AFB07F7 		smulbb	r7, r10, r7
 104              	.LVL14:
 105 0068 7F14     		asrs	r7, r7, #17
 106              		.loc 1 109 0
 107 006a 19FB0AFA 		smulbb	r10, r9, r10
 108              	.LVL15:
 109 006e 4FEA6E4E 		asr	lr, lr, #17
 110              		.loc 1 106 0
 111 0072 1BFB09F9 		smulbb	r9, fp, r9
 112              	.LVL16:
 113              		.loc 1 108 0
 114 0076 0EEB6A4E 		add	lr, lr, r10, asr #17
ARM GAS  /tmp/cchxx0FN.s 			page 3


 115              		.loc 1 105 0
 116 007a C7EB6949 		rsb	r9, r7, r9, asr #17
 117              		.loc 1 108 0
 118 007e 24F80AEC 		strh	lr, [r4, #-10]	@ movhi
 119              	.LVL17:
 120              		.loc 1 105 0
 121 0082 24F80C9C 		strh	r9, [r4, #-12]	@ movhi
 122              	.LVL18:
 123              		.loc 1 111 0
 124 0086 36F808BC 		ldrh	fp, [r6, #-8]
 125              	.LVL19:
 126              		.loc 1 114 0
 127 008a 35F8067C 		ldrh	r7, [r5, #-6]
 128              		.loc 1 112 0
 129 008e 36F806AC 		ldrh	r10, [r6, #-6]
 130              	.LVL20:
 131              		.loc 1 113 0
 132 0092 35F8089C 		ldrh	r9, [r5, #-8]
 133              	.LVL21:
 134              		.loc 1 121 0
 135 0096 1BFB07FE 		smulbb	lr, fp, r7
 136              		.loc 1 118 0
 137 009a 1AFB07F7 		smulbb	r7, r10, r7
 138              	.LVL22:
 139 009e 7F14     		asrs	r7, r7, #17
 140              		.loc 1 121 0
 141 00a0 19FB0AFA 		smulbb	r10, r9, r10
 142              	.LVL23:
 143 00a4 4FEA6E4E 		asr	lr, lr, #17
 144              		.loc 1 118 0
 145 00a8 1BFB09F9 		smulbb	r9, fp, r9
 146              	.LVL24:
 147              		.loc 1 120 0
 148 00ac 0EEB6A4E 		add	lr, lr, r10, asr #17
 149              		.loc 1 117 0
 150 00b0 C7EB6949 		rsb	r9, r7, r9, asr #17
 151              		.loc 1 120 0
 152 00b4 24F806EC 		strh	lr, [r4, #-6]	@ movhi
 153              	.LVL25:
 154              		.loc 1 117 0
 155 00b8 24F8089C 		strh	r9, [r4, #-8]	@ movhi
 156              	.LVL26:
 157              		.loc 1 123 0
 158 00bc 36F804BC 		ldrh	fp, [r6, #-4]
 159              	.LVL27:
 160              		.loc 1 126 0
 161 00c0 35F8027C 		ldrh	r7, [r5, #-2]
 162              		.loc 1 124 0
 163 00c4 36F802AC 		ldrh	r10, [r6, #-2]
 164              	.LVL28:
 165              		.loc 1 125 0
 166 00c8 35F8049C 		ldrh	r9, [r5, #-4]
 167              	.LVL29:
 168              		.loc 1 133 0
 169 00cc 1BFB07FE 		smulbb	lr, fp, r7
 170              		.loc 1 130 0
 171 00d0 1AFB07F7 		smulbb	r7, r10, r7
ARM GAS  /tmp/cchxx0FN.s 			page 4


 172              	.LVL30:
 173              		.loc 1 133 0
 174 00d4 4FEA6E4E 		asr	lr, lr, #17
 175 00d8 19FB0AFA 		smulbb	r10, r9, r10
 176              	.LVL31:
 177              		.loc 1 130 0
 178 00dc 7F14     		asrs	r7, r7, #17
 179 00de 1BFB09F9 		smulbb	r9, fp, r9
 180              	.LVL32:
 181              		.loc 1 132 0
 182 00e2 0EEB6A4E 		add	lr, lr, r10, asr #17
 183              		.loc 1 129 0
 184 00e6 C7EB6949 		rsb	r9, r7, r9, asr #17
 185              		.loc 1 83 0
 186 00ea BCF1010C 		subs	ip, ip, #1
 187              	.LVL33:
 188              		.loc 1 132 0
 189 00ee 24F802EC 		strh	lr, [r4, #-2]	@ movhi
 190              	.LVL34:
 191              		.loc 1 129 0
 192 00f2 24F8049C 		strh	r9, [r4, #-4]	@ movhi
 193              	.LVL35:
 194 00f6 06F11006 		add	r6, r6, #16
 195              	.LVL36:
 196 00fa 05F11005 		add	r5, r5, #16
 197 00fe 04F11004 		add	r4, r4, #16
 198              		.loc 1 83 0
 199 0102 8AD1     		bne	.L3
 200 0104 4FEA0818 		lsl	r8, r8, #4
 201              	.LVL37:
 202 0108 4044     		add	r0, r0, r8
 203              	.LVL38:
 204 010a 4144     		add	r1, r1, r8
 205              	.LVL39:
 206 010c 4244     		add	r2, r2, r8
 207              	.LVL40:
 208              	.L2:
 209              		.loc 1 143 0
 210 010e 13F00303 		ands	r3, r3, #3
 211              	.LVL41:
 212 0112 24D0     		beq	.L1
 213 0114 0430     		adds	r0, r0, #4
 214              	.LVL42:
 215 0116 0431     		adds	r1, r1, #4
 216              	.LVL43:
 217 0118 0432     		adds	r2, r2, #4
 218              	.LVL44:
 219              	.L5:
 220              		.loc 1 147 0
 221 011a 30F804CC 		ldrh	ip, [r0, #-4]
 222              	.LVL45:
 223              		.loc 1 150 0
 224 011e 31F8024C 		ldrh	r4, [r1, #-2]
 225              		.loc 1 148 0
 226 0122 30F8026C 		ldrh	r6, [r0, #-2]
 227              	.LVL46:
 228              		.loc 1 149 0
ARM GAS  /tmp/cchxx0FN.s 			page 5


 229 0126 31F804EC 		ldrh	lr, [r1, #-4]
 230              	.LVL47:
 231              		.loc 1 157 0
 232 012a 1CFB04F7 		smulbb	r7, ip, r4
 233              		.loc 1 154 0
 234 012e 16FB04F4 		smulbb	r4, r6, r4
 235              	.LVL48:
 236 0132 6514     		asrs	r5, r4, #17
 237              		.loc 1 157 0
 238 0134 7F14     		asrs	r7, r7, #17
 239 0136 1EFB06F6 		smulbb	r6, lr, r6
 240              	.LVL49:
 241              		.loc 1 154 0
 242 013a 1CFB0EF4 		smulbb	r4, ip, lr
 243              		.loc 1 156 0
 244 013e 07EB6646 		add	r6, r7, r6, asr #17
 245              		.loc 1 153 0
 246 0142 C5EB6444 		rsb	r4, r5, r4, asr #17
 247              		.loc 1 143 0
 248 0146 013B     		subs	r3, r3, #1
 249              	.LVL50:
 250              		.loc 1 156 0
 251 0148 22F8026C 		strh	r6, [r2, #-2]	@ movhi
 252              	.LVL51:
 253              		.loc 1 153 0
 254 014c 22F8044C 		strh	r4, [r2, #-4]	@ movhi
 255              	.LVL52:
 256 0150 00F10400 		add	r0, r0, #4
 257              	.LVL53:
 258 0154 01F10401 		add	r1, r1, #4
 259 0158 02F10402 		add	r2, r2, #4
 260              		.loc 1 143 0
 261 015c DDD1     		bne	.L5
 262              	.LVL54:
 263              	.L1:
 264 015e BDE8F08F 		pop	{r4, r5, r6, r7, r8, r9, r10, fp, pc}
 265              		.cfi_endproc
 266              	.LFE135:
 267              		.size	arm_cmplx_mult_cmplx_q15, .-arm_cmplx_mult_cmplx_q15
 268              	.Letext0:
 269              		.file 2 "/d_drive/axoloti/platform_linux/arm-none-eabi/include/machine/_default_types.h"
 270              		.file 3 "/d_drive/axoloti/platform_linux/arm-none-eabi/include/sys/_stdint.h"
 271              		.file 4 "/d_drive/axoloti/platform_linux/../CMSIS//DSP_Lib/Include/arm_math.h"
 272 0162 00BF     		.section	.debug_info,"",%progbits
 273              	.Ldebug_info0:
 274 0000 78010000 		.4byte	0x178
 275 0004 0400     		.2byte	0x4
 276 0006 00000000 		.4byte	.Ldebug_abbrev0
 277 000a 04       		.byte	0x4
 278 000b 01       		.uleb128 0x1
 279 000c 20000000 		.4byte	.LASF27
 280 0010 01       		.byte	0x1
 281 0011 6A010000 		.4byte	.LASF28
 282 0015 00000000 		.4byte	.Ltext0
 283 0019 62010000 		.4byte	.Letext0-.Ltext0
 284 001d 00000000 		.4byte	.Ldebug_line0
 285 0021 02       		.uleb128 0x2
ARM GAS  /tmp/cchxx0FN.s 			page 6


 286 0022 01       		.byte	0x1
 287 0023 06       		.byte	0x6
 288 0024 76020000 		.4byte	.LASF0
 289 0028 02       		.uleb128 0x2
 290 0029 01       		.byte	0x1
 291 002a 08       		.byte	0x8
 292 002b 2B010000 		.4byte	.LASF1
 293 002f 03       		.uleb128 0x3
 294 0030 00000000 		.4byte	.LASF4
 295 0034 02       		.byte	0x2
 296 0035 29       		.byte	0x29
 297 0036 3A000000 		.4byte	0x3a
 298 003a 02       		.uleb128 0x2
 299 003b 02       		.byte	0x2
 300 003c 05       		.byte	0x5
 301 003d 4E020000 		.4byte	.LASF2
 302 0041 02       		.uleb128 0x2
 303 0042 02       		.byte	0x2
 304 0043 07       		.byte	0x7
 305 0044 52010000 		.4byte	.LASF3
 306 0048 03       		.uleb128 0x3
 307 0049 16000000 		.4byte	.LASF5
 308 004d 02       		.byte	0x2
 309 004e 3F       		.byte	0x3f
 310 004f 53000000 		.4byte	0x53
 311 0053 02       		.uleb128 0x2
 312 0054 04       		.byte	0x4
 313 0055 05       		.byte	0x5
 314 0056 61020000 		.4byte	.LASF6
 315 005a 03       		.uleb128 0x3
 316 005b DA010000 		.4byte	.LASF7
 317 005f 02       		.byte	0x2
 318 0060 41       		.byte	0x41
 319 0061 65000000 		.4byte	0x65
 320 0065 02       		.uleb128 0x2
 321 0066 04       		.byte	0x4
 322 0067 07       		.byte	0x7
 323 0068 40010000 		.4byte	.LASF8
 324 006c 02       		.uleb128 0x2
 325 006d 08       		.byte	0x8
 326 006e 05       		.byte	0x5
 327 006f 3B020000 		.4byte	.LASF9
 328 0073 02       		.uleb128 0x2
 329 0074 08       		.byte	0x8
 330 0075 07       		.byte	0x7
 331 0076 F2010000 		.4byte	.LASF10
 332 007a 04       		.uleb128 0x4
 333 007b 04       		.byte	0x4
 334 007c 05       		.byte	0x5
 335 007d 696E7400 		.ascii	"int\000"
 336 0081 02       		.uleb128 0x2
 337 0082 04       		.byte	0x4
 338 0083 07       		.byte	0x7
 339 0084 E5010000 		.4byte	.LASF11
 340 0088 03       		.uleb128 0x3
 341 0089 09020000 		.4byte	.LASF12
 342 008d 03       		.byte	0x3
ARM GAS  /tmp/cchxx0FN.s 			page 7


 343 008e 19       		.byte	0x19
 344 008f 2F000000 		.4byte	0x2f
 345 0093 03       		.uleb128 0x3
 346 0094 2A020000 		.4byte	.LASF13
 347 0098 03       		.byte	0x3
 348 0099 1F       		.byte	0x1f
 349 009a 48000000 		.4byte	0x48
 350 009e 03       		.uleb128 0x3
 351 009f 58020000 		.4byte	.LASF14
 352 00a3 03       		.byte	0x3
 353 00a4 20       		.byte	0x20
 354 00a5 5A000000 		.4byte	0x5a
 355 00a9 02       		.uleb128 0x2
 356 00aa 04       		.byte	0x4
 357 00ab 07       		.byte	0x7
 358 00ac 32020000 		.4byte	.LASF15
 359 00b0 02       		.uleb128 0x2
 360 00b1 01       		.byte	0x1
 361 00b2 08       		.byte	0x8
 362 00b3 49020000 		.4byte	.LASF16
 363 00b7 02       		.uleb128 0x2
 364 00b8 08       		.byte	0x8
 365 00b9 04       		.byte	0x4
 366 00ba D3010000 		.4byte	.LASF17
 367 00be 02       		.uleb128 0x2
 368 00bf 04       		.byte	0x4
 369 00c0 04       		.byte	0x4
 370 00c1 1F010000 		.4byte	.LASF18
 371 00c5 02       		.uleb128 0x2
 372 00c6 08       		.byte	0x8
 373 00c7 04       		.byte	0x4
 374 00c8 6A020000 		.4byte	.LASF19
 375 00cc 05       		.uleb128 0x5
 376 00cd 19010000 		.4byte	.LASF20
 377 00d1 04       		.byte	0x4
 378 00d2 9B01     		.2byte	0x19b
 379 00d4 88000000 		.4byte	0x88
 380 00d8 05       		.uleb128 0x5
 381 00d9 25010000 		.4byte	.LASF21
 382 00dd 04       		.byte	0x4
 383 00de A001     		.2byte	0x1a0
 384 00e0 93000000 		.4byte	0x93
 385 00e4 06       		.uleb128 0x6
 386 00e5 04       		.byte	0x4
 387 00e6 CC000000 		.4byte	0xcc
 388 00ea 07       		.uleb128 0x7
 389 00eb 11020000 		.4byte	.LASF29
 390 00ef 01       		.byte	0x1
 391 00f0 41       		.byte	0x41
 392 00f1 00000000 		.4byte	.LFB135
 393 00f5 62010000 		.4byte	.LFE135-.LFB135
 394 00f9 01       		.uleb128 0x1
 395 00fa 9C       		.byte	0x9c
 396 00fb 08       		.uleb128 0x8
 397 00fc 0A000000 		.4byte	.LASF22
 398 0100 01       		.byte	0x1
 399 0101 42       		.byte	0x42
ARM GAS  /tmp/cchxx0FN.s 			page 8


 400 0102 E4000000 		.4byte	0xe4
 401 0106 00000000 		.4byte	.LLST0
 402 010a 08       		.uleb128 0x8
 403 010b 10000000 		.4byte	.LASF23
 404 010f 01       		.byte	0x1
 405 0110 43       		.byte	0x43
 406 0111 E4000000 		.4byte	0xe4
 407 0115 C3000000 		.4byte	.LLST1
 408 0119 08       		.uleb128 0x8
 409 011a 65010000 		.4byte	.LASF24
 410 011e 01       		.byte	0x1
 411 011f 44       		.byte	0x44
 412 0120 E4000000 		.4byte	0xe4
 413 0124 03020000 		.4byte	.LLST2
 414 0128 08       		.uleb128 0x8
 415 0129 82020000 		.4byte	.LASF25
 416 012d 01       		.byte	0x1
 417 012e 45       		.byte	0x45
 418 012f 9E000000 		.4byte	0x9e
 419 0133 C9020000 		.4byte	.LLST3
 420 0137 09       		.uleb128 0x9
 421 0138 6100     		.ascii	"a\000"
 422 013a 01       		.byte	0x1
 423 013b 47       		.byte	0x47
 424 013c CC000000 		.4byte	0xcc
 425 0140 EA020000 		.4byte	.LLST4
 426 0144 09       		.uleb128 0x9
 427 0145 6200     		.ascii	"b\000"
 428 0147 01       		.byte	0x1
 429 0148 47       		.byte	0x47
 430 0149 CC000000 		.4byte	0xcc
 431 014d 08030000 		.4byte	.LLST5
 432 0151 09       		.uleb128 0x9
 433 0152 6300     		.ascii	"c\000"
 434 0154 01       		.byte	0x1
 435 0155 47       		.byte	0x47
 436 0156 CC000000 		.4byte	0xcc
 437 015a 83030000 		.4byte	.LLST6
 438 015e 09       		.uleb128 0x9
 439 015f 6400     		.ascii	"d\000"
 440 0161 01       		.byte	0x1
 441 0162 47       		.byte	0x47
 442 0163 CC000000 		.4byte	0xcc
 443 0167 F2030000 		.4byte	.LLST7
 444 016b 0A       		.uleb128 0xa
 445 016c 39010000 		.4byte	.LASF26
 446 0170 01       		.byte	0x1
 447 0171 4C       		.byte	0x4c
 448 0172 9E000000 		.4byte	0x9e
 449 0176 6D040000 		.4byte	.LLST8
 450 017a 00       		.byte	0
 451 017b 00       		.byte	0
 452              		.section	.debug_abbrev,"",%progbits
 453              	.Ldebug_abbrev0:
 454 0000 01       		.uleb128 0x1
 455 0001 11       		.uleb128 0x11
 456 0002 01       		.byte	0x1
ARM GAS  /tmp/cchxx0FN.s 			page 9


 457 0003 25       		.uleb128 0x25
 458 0004 0E       		.uleb128 0xe
 459 0005 13       		.uleb128 0x13
 460 0006 0B       		.uleb128 0xb
 461 0007 03       		.uleb128 0x3
 462 0008 0E       		.uleb128 0xe
 463 0009 11       		.uleb128 0x11
 464 000a 01       		.uleb128 0x1
 465 000b 12       		.uleb128 0x12
 466 000c 06       		.uleb128 0x6
 467 000d 10       		.uleb128 0x10
 468 000e 17       		.uleb128 0x17
 469 000f 00       		.byte	0
 470 0010 00       		.byte	0
 471 0011 02       		.uleb128 0x2
 472 0012 24       		.uleb128 0x24
 473 0013 00       		.byte	0
 474 0014 0B       		.uleb128 0xb
 475 0015 0B       		.uleb128 0xb
 476 0016 3E       		.uleb128 0x3e
 477 0017 0B       		.uleb128 0xb
 478 0018 03       		.uleb128 0x3
 479 0019 0E       		.uleb128 0xe
 480 001a 00       		.byte	0
 481 001b 00       		.byte	0
 482 001c 03       		.uleb128 0x3
 483 001d 16       		.uleb128 0x16
 484 001e 00       		.byte	0
 485 001f 03       		.uleb128 0x3
 486 0020 0E       		.uleb128 0xe
 487 0021 3A       		.uleb128 0x3a
 488 0022 0B       		.uleb128 0xb
 489 0023 3B       		.uleb128 0x3b
 490 0024 0B       		.uleb128 0xb
 491 0025 49       		.uleb128 0x49
 492 0026 13       		.uleb128 0x13
 493 0027 00       		.byte	0
 494 0028 00       		.byte	0
 495 0029 04       		.uleb128 0x4
 496 002a 24       		.uleb128 0x24
 497 002b 00       		.byte	0
 498 002c 0B       		.uleb128 0xb
 499 002d 0B       		.uleb128 0xb
 500 002e 3E       		.uleb128 0x3e
 501 002f 0B       		.uleb128 0xb
 502 0030 03       		.uleb128 0x3
 503 0031 08       		.uleb128 0x8
 504 0032 00       		.byte	0
 505 0033 00       		.byte	0
 506 0034 05       		.uleb128 0x5
 507 0035 16       		.uleb128 0x16
 508 0036 00       		.byte	0
 509 0037 03       		.uleb128 0x3
 510 0038 0E       		.uleb128 0xe
 511 0039 3A       		.uleb128 0x3a
 512 003a 0B       		.uleb128 0xb
 513 003b 3B       		.uleb128 0x3b
ARM GAS  /tmp/cchxx0FN.s 			page 10


 514 003c 05       		.uleb128 0x5
 515 003d 49       		.uleb128 0x49
 516 003e 13       		.uleb128 0x13
 517 003f 00       		.byte	0
 518 0040 00       		.byte	0
 519 0041 06       		.uleb128 0x6
 520 0042 0F       		.uleb128 0xf
 521 0043 00       		.byte	0
 522 0044 0B       		.uleb128 0xb
 523 0045 0B       		.uleb128 0xb
 524 0046 49       		.uleb128 0x49
 525 0047 13       		.uleb128 0x13
 526 0048 00       		.byte	0
 527 0049 00       		.byte	0
 528 004a 07       		.uleb128 0x7
 529 004b 2E       		.uleb128 0x2e
 530 004c 01       		.byte	0x1
 531 004d 3F       		.uleb128 0x3f
 532 004e 19       		.uleb128 0x19
 533 004f 03       		.uleb128 0x3
 534 0050 0E       		.uleb128 0xe
 535 0051 3A       		.uleb128 0x3a
 536 0052 0B       		.uleb128 0xb
 537 0053 3B       		.uleb128 0x3b
 538 0054 0B       		.uleb128 0xb
 539 0055 27       		.uleb128 0x27
 540 0056 19       		.uleb128 0x19
 541 0057 11       		.uleb128 0x11
 542 0058 01       		.uleb128 0x1
 543 0059 12       		.uleb128 0x12
 544 005a 06       		.uleb128 0x6
 545 005b 40       		.uleb128 0x40
 546 005c 18       		.uleb128 0x18
 547 005d 9742     		.uleb128 0x2117
 548 005f 19       		.uleb128 0x19
 549 0060 00       		.byte	0
 550 0061 00       		.byte	0
 551 0062 08       		.uleb128 0x8
 552 0063 05       		.uleb128 0x5
 553 0064 00       		.byte	0
 554 0065 03       		.uleb128 0x3
 555 0066 0E       		.uleb128 0xe
 556 0067 3A       		.uleb128 0x3a
 557 0068 0B       		.uleb128 0xb
 558 0069 3B       		.uleb128 0x3b
 559 006a 0B       		.uleb128 0xb
 560 006b 49       		.uleb128 0x49
 561 006c 13       		.uleb128 0x13
 562 006d 02       		.uleb128 0x2
 563 006e 17       		.uleb128 0x17
 564 006f 00       		.byte	0
 565 0070 00       		.byte	0
 566 0071 09       		.uleb128 0x9
 567 0072 34       		.uleb128 0x34
 568 0073 00       		.byte	0
 569 0074 03       		.uleb128 0x3
 570 0075 08       		.uleb128 0x8
ARM GAS  /tmp/cchxx0FN.s 			page 11


 571 0076 3A       		.uleb128 0x3a
 572 0077 0B       		.uleb128 0xb
 573 0078 3B       		.uleb128 0x3b
 574 0079 0B       		.uleb128 0xb
 575 007a 49       		.uleb128 0x49
 576 007b 13       		.uleb128 0x13
 577 007c 02       		.uleb128 0x2
 578 007d 17       		.uleb128 0x17
 579 007e 00       		.byte	0
 580 007f 00       		.byte	0
 581 0080 0A       		.uleb128 0xa
 582 0081 34       		.uleb128 0x34
 583 0082 00       		.byte	0
 584 0083 03       		.uleb128 0x3
 585 0084 0E       		.uleb128 0xe
 586 0085 3A       		.uleb128 0x3a
 587 0086 0B       		.uleb128 0xb
 588 0087 3B       		.uleb128 0x3b
 589 0088 0B       		.uleb128 0xb
 590 0089 49       		.uleb128 0x49
 591 008a 13       		.uleb128 0x13
 592 008b 02       		.uleb128 0x2
 593 008c 17       		.uleb128 0x17
 594 008d 00       		.byte	0
 595 008e 00       		.byte	0
 596 008f 00       		.byte	0
 597              		.section	.debug_loc,"",%progbits
 598              	.Ldebug_loc0:
 599              	.LLST0:
 600 0000 00000000 		.4byte	.LVL0-.Ltext0
 601 0004 1A000000 		.4byte	.LVL2-.Ltext0
 602 0008 0100     		.2byte	0x1
 603 000a 50       		.byte	0x50
 604 000b 1A000000 		.4byte	.LVL2-.Ltext0
 605 000f 1E000000 		.4byte	.LVL3-.Ltext0
 606 0013 0300     		.2byte	0x3
 607 0015 76       		.byte	0x76
 608 0016 72       		.sleb128 -14
 609 0017 9F       		.byte	0x9f
 610 0018 1E000000 		.4byte	.LVL3-.Ltext0
 611 001c 50000000 		.4byte	.LVL10-.Ltext0
 612 0020 0300     		.2byte	0x3
 613 0022 76       		.byte	0x76
 614 0023 74       		.sleb128 -12
 615 0024 9F       		.byte	0x9f
 616 0025 50000000 		.4byte	.LVL10-.Ltext0
 617 0029 54000000 		.4byte	.LVL11-.Ltext0
 618 002d 0300     		.2byte	0x3
 619 002f 76       		.byte	0x76
 620 0030 76       		.sleb128 -10
 621 0031 9F       		.byte	0x9f
 622 0032 54000000 		.4byte	.LVL11-.Ltext0
 623 0036 86000000 		.4byte	.LVL18-.Ltext0
 624 003a 0300     		.2byte	0x3
 625 003c 76       		.byte	0x76
 626 003d 78       		.sleb128 -8
 627 003e 9F       		.byte	0x9f
ARM GAS  /tmp/cchxx0FN.s 			page 12


 628 003f 86000000 		.4byte	.LVL18-.Ltext0
 629 0043 8A000000 		.4byte	.LVL19-.Ltext0
 630 0047 0300     		.2byte	0x3
 631 0049 76       		.byte	0x76
 632 004a 7A       		.sleb128 -6
 633 004b 9F       		.byte	0x9f
 634 004c 8A000000 		.4byte	.LVL19-.Ltext0
 635 0050 BC000000 		.4byte	.LVL26-.Ltext0
 636 0054 0300     		.2byte	0x3
 637 0056 76       		.byte	0x76
 638 0057 7C       		.sleb128 -4
 639 0058 9F       		.byte	0x9f
 640 0059 BC000000 		.4byte	.LVL26-.Ltext0
 641 005d C0000000 		.4byte	.LVL27-.Ltext0
 642 0061 0300     		.2byte	0x3
 643 0063 76       		.byte	0x76
 644 0064 7E       		.sleb128 -2
 645 0065 9F       		.byte	0x9f
 646 0066 C0000000 		.4byte	.LVL27-.Ltext0
 647 006a FA000000 		.4byte	.LVL36-.Ltext0
 648 006e 0100     		.2byte	0x1
 649 0070 56       		.byte	0x56
 650 0071 FA000000 		.4byte	.LVL36-.Ltext0
 651 0075 0E010000 		.4byte	.LVL40-.Ltext0
 652 0079 0300     		.2byte	0x3
 653 007b 76       		.byte	0x76
 654 007c 70       		.sleb128 -16
 655 007d 9F       		.byte	0x9f
 656 007e 0E010000 		.4byte	.LVL40-.Ltext0
 657 0082 16010000 		.4byte	.LVL42-.Ltext0
 658 0086 0100     		.2byte	0x1
 659 0088 50       		.byte	0x50
 660 0089 16010000 		.4byte	.LVL42-.Ltext0
 661 008d 1A010000 		.4byte	.LVL44-.Ltext0
 662 0091 0300     		.2byte	0x3
 663 0093 70       		.byte	0x70
 664 0094 7C       		.sleb128 -4
 665 0095 9F       		.byte	0x9f
 666 0096 1A010000 		.4byte	.LVL44-.Ltext0
 667 009a 1E010000 		.4byte	.LVL45-.Ltext0
 668 009e 0300     		.2byte	0x3
 669 00a0 70       		.byte	0x70
 670 00a1 7E       		.sleb128 -2
 671 00a2 9F       		.byte	0x9f
 672 00a3 1E010000 		.4byte	.LVL45-.Ltext0
 673 00a7 54010000 		.4byte	.LVL53-.Ltext0
 674 00ab 0100     		.2byte	0x1
 675 00ad 50       		.byte	0x50
 676 00ae 54010000 		.4byte	.LVL53-.Ltext0
 677 00b2 5E010000 		.4byte	.LVL54-.Ltext0
 678 00b6 0300     		.2byte	0x3
 679 00b8 70       		.byte	0x70
 680 00b9 7C       		.sleb128 -4
 681 00ba 9F       		.byte	0x9f
 682 00bb 00000000 		.4byte	0
 683 00bf 00000000 		.4byte	0
 684              	.LLST1:
ARM GAS  /tmp/cchxx0FN.s 			page 13


 685 00c3 00000000 		.4byte	.LVL0-.Ltext0
 686 00c7 1A000000 		.4byte	.LVL2-.Ltext0
 687 00cb 0100     		.2byte	0x1
 688 00cd 51       		.byte	0x51
 689 00ce 1A000000 		.4byte	.LVL2-.Ltext0
 690 00d2 26000000 		.4byte	.LVL4-.Ltext0
 691 00d6 0B00     		.2byte	0xb
 692 00d8 71       		.byte	0x71
 693 00d9 00       		.sleb128 0
 694 00da 70       		.byte	0x70
 695 00db 00       		.sleb128 0
 696 00dc 1C       		.byte	0x1c
 697 00dd 76       		.byte	0x76
 698 00de 00       		.sleb128 0
 699 00df 22       		.byte	0x22
 700 00e0 40       		.byte	0x40
 701 00e1 1C       		.byte	0x1c
 702 00e2 9F       		.byte	0x9f
 703 00e3 26000000 		.4byte	.LVL4-.Ltext0
 704 00e7 2A000000 		.4byte	.LVL5-.Ltext0
 705 00eb 0B00     		.2byte	0xb
 706 00ed 71       		.byte	0x71
 707 00ee 00       		.sleb128 0
 708 00ef 70       		.byte	0x70
 709 00f0 00       		.sleb128 0
 710 00f1 1C       		.byte	0x1c
 711 00f2 76       		.byte	0x76
 712 00f3 00       		.sleb128 0
 713 00f4 22       		.byte	0x22
 714 00f5 3E       		.byte	0x3e
 715 00f6 1C       		.byte	0x1c
 716 00f7 9F       		.byte	0x9f
 717 00f8 2A000000 		.4byte	.LVL5-.Ltext0
 718 00fc 5C000000 		.4byte	.LVL12-.Ltext0
 719 0100 0B00     		.2byte	0xb
 720 0102 71       		.byte	0x71
 721 0103 00       		.sleb128 0
 722 0104 70       		.byte	0x70
 723 0105 00       		.sleb128 0
 724 0106 1C       		.byte	0x1c
 725 0107 76       		.byte	0x76
 726 0108 00       		.sleb128 0
 727 0109 22       		.byte	0x22
 728 010a 3C       		.byte	0x3c
 729 010b 1C       		.byte	0x1c
 730 010c 9F       		.byte	0x9f
 731 010d 5C000000 		.4byte	.LVL12-.Ltext0
 732 0111 60000000 		.4byte	.LVL13-.Ltext0
 733 0115 0B00     		.2byte	0xb
 734 0117 71       		.byte	0x71
 735 0118 00       		.sleb128 0
 736 0119 70       		.byte	0x70
 737 011a 00       		.sleb128 0
 738 011b 1C       		.byte	0x1c
 739 011c 76       		.byte	0x76
 740 011d 00       		.sleb128 0
 741 011e 22       		.byte	0x22
ARM GAS  /tmp/cchxx0FN.s 			page 14


 742 011f 3A       		.byte	0x3a
 743 0120 1C       		.byte	0x1c
 744 0121 9F       		.byte	0x9f
 745 0122 60000000 		.4byte	.LVL13-.Ltext0
 746 0126 92000000 		.4byte	.LVL20-.Ltext0
 747 012a 0B00     		.2byte	0xb
 748 012c 71       		.byte	0x71
 749 012d 00       		.sleb128 0
 750 012e 70       		.byte	0x70
 751 012f 00       		.sleb128 0
 752 0130 1C       		.byte	0x1c
 753 0131 76       		.byte	0x76
 754 0132 00       		.sleb128 0
 755 0133 22       		.byte	0x22
 756 0134 38       		.byte	0x38
 757 0135 1C       		.byte	0x1c
 758 0136 9F       		.byte	0x9f
 759 0137 92000000 		.4byte	.LVL20-.Ltext0
 760 013b 96000000 		.4byte	.LVL21-.Ltext0
 761 013f 0B00     		.2byte	0xb
 762 0141 71       		.byte	0x71
 763 0142 00       		.sleb128 0
 764 0143 70       		.byte	0x70
 765 0144 00       		.sleb128 0
 766 0145 1C       		.byte	0x1c
 767 0146 76       		.byte	0x76
 768 0147 00       		.sleb128 0
 769 0148 22       		.byte	0x22
 770 0149 36       		.byte	0x36
 771 014a 1C       		.byte	0x1c
 772 014b 9F       		.byte	0x9f
 773 014c 96000000 		.4byte	.LVL21-.Ltext0
 774 0150 C8000000 		.4byte	.LVL28-.Ltext0
 775 0154 0B00     		.2byte	0xb
 776 0156 71       		.byte	0x71
 777 0157 00       		.sleb128 0
 778 0158 70       		.byte	0x70
 779 0159 00       		.sleb128 0
 780 015a 1C       		.byte	0x1c
 781 015b 76       		.byte	0x76
 782 015c 00       		.sleb128 0
 783 015d 22       		.byte	0x22
 784 015e 34       		.byte	0x34
 785 015f 1C       		.byte	0x1c
 786 0160 9F       		.byte	0x9f
 787 0161 C8000000 		.4byte	.LVL28-.Ltext0
 788 0165 CC000000 		.4byte	.LVL29-.Ltext0
 789 0169 0B00     		.2byte	0xb
 790 016b 71       		.byte	0x71
 791 016c 00       		.sleb128 0
 792 016d 70       		.byte	0x70
 793 016e 00       		.sleb128 0
 794 016f 1C       		.byte	0x1c
 795 0170 76       		.byte	0x76
 796 0171 00       		.sleb128 0
 797 0172 22       		.byte	0x22
 798 0173 32       		.byte	0x32
ARM GAS  /tmp/cchxx0FN.s 			page 15


 799 0174 1C       		.byte	0x1c
 800 0175 9F       		.byte	0x9f
 801 0176 CC000000 		.4byte	.LVL29-.Ltext0
 802 017a FA000000 		.4byte	.LVL36-.Ltext0
 803 017e 0900     		.2byte	0x9
 804 0180 71       		.byte	0x71
 805 0181 00       		.sleb128 0
 806 0182 70       		.byte	0x70
 807 0183 00       		.sleb128 0
 808 0184 1C       		.byte	0x1c
 809 0185 76       		.byte	0x76
 810 0186 00       		.sleb128 0
 811 0187 22       		.byte	0x22
 812 0188 9F       		.byte	0x9f
 813 0189 FA000000 		.4byte	.LVL36-.Ltext0
 814 018d 08010000 		.4byte	.LVL37-.Ltext0
 815 0191 0B00     		.2byte	0xb
 816 0193 71       		.byte	0x71
 817 0194 00       		.sleb128 0
 818 0195 70       		.byte	0x70
 819 0196 00       		.sleb128 0
 820 0197 1C       		.byte	0x1c
 821 0198 76       		.byte	0x76
 822 0199 00       		.sleb128 0
 823 019a 22       		.byte	0x22
 824 019b 40       		.byte	0x40
 825 019c 1C       		.byte	0x1c
 826 019d 9F       		.byte	0x9f
 827 019e 08010000 		.4byte	.LVL37-.Ltext0
 828 01a2 0A010000 		.4byte	.LVL38-.Ltext0
 829 01a6 0E00     		.2byte	0xe
 830 01a8 71       		.byte	0x71
 831 01a9 00       		.sleb128 0
 832 01aa 70       		.byte	0x70
 833 01ab 00       		.sleb128 0
 834 01ac 1C       		.byte	0x1c
 835 01ad 76       		.byte	0x76
 836 01ae 00       		.sleb128 0
 837 01af 22       		.byte	0x22
 838 01b0 78       		.byte	0x78
 839 01b1 00       		.sleb128 0
 840 01b2 1C       		.byte	0x1c
 841 01b3 40       		.byte	0x40
 842 01b4 1C       		.byte	0x1c
 843 01b5 9F       		.byte	0x9f
 844 01b6 0A010000 		.4byte	.LVL38-.Ltext0
 845 01ba 0C010000 		.4byte	.LVL39-.Ltext0
 846 01be 0E00     		.2byte	0xe
 847 01c0 71       		.byte	0x71
 848 01c1 00       		.sleb128 0
 849 01c2 70       		.byte	0x70
 850 01c3 00       		.sleb128 0
 851 01c4 1C       		.byte	0x1c
 852 01c5 76       		.byte	0x76
 853 01c6 00       		.sleb128 0
 854 01c7 22       		.byte	0x22
 855 01c8 78       		.byte	0x78
ARM GAS  /tmp/cchxx0FN.s 			page 16


 856 01c9 00       		.sleb128 0
 857 01ca 22       		.byte	0x22
 858 01cb 40       		.byte	0x40
 859 01cc 1C       		.byte	0x1c
 860 01cd 9F       		.byte	0x9f
 861 01ce 0C010000 		.4byte	.LVL39-.Ltext0
 862 01d2 0E010000 		.4byte	.LVL40-.Ltext0
 863 01d6 0B00     		.2byte	0xb
 864 01d8 71       		.byte	0x71
 865 01d9 00       		.sleb128 0
 866 01da 70       		.byte	0x70
 867 01db 00       		.sleb128 0
 868 01dc 1C       		.byte	0x1c
 869 01dd 76       		.byte	0x76
 870 01de 00       		.sleb128 0
 871 01df 22       		.byte	0x22
 872 01e0 40       		.byte	0x40
 873 01e1 1C       		.byte	0x1c
 874 01e2 9F       		.byte	0x9f
 875 01e3 0E010000 		.4byte	.LVL40-.Ltext0
 876 01e7 18010000 		.4byte	.LVL43-.Ltext0
 877 01eb 0100     		.2byte	0x1
 878 01ed 51       		.byte	0x51
 879 01ee 18010000 		.4byte	.LVL43-.Ltext0
 880 01f2 1A010000 		.4byte	.LVL44-.Ltext0
 881 01f6 0300     		.2byte	0x3
 882 01f8 71       		.byte	0x71
 883 01f9 7C       		.sleb128 -4
 884 01fa 9F       		.byte	0x9f
 885 01fb 00000000 		.4byte	0
 886 01ff 00000000 		.4byte	0
 887              	.LLST2:
 888 0203 00000000 		.4byte	.LVL0-.Ltext0
 889 0207 1A000000 		.4byte	.LVL2-.Ltext0
 890 020b 0100     		.2byte	0x1
 891 020d 52       		.byte	0x52
 892 020e 1A000000 		.4byte	.LVL2-.Ltext0
 893 0212 2A000000 		.4byte	.LVL5-.Ltext0
 894 0216 0B00     		.2byte	0xb
 895 0218 72       		.byte	0x72
 896 0219 00       		.sleb128 0
 897 021a 70       		.byte	0x70
 898 021b 00       		.sleb128 0
 899 021c 1C       		.byte	0x1c
 900 021d 76       		.byte	0x76
 901 021e 00       		.sleb128 0
 902 021f 22       		.byte	0x22
 903 0220 40       		.byte	0x40
 904 0221 1C       		.byte	0x1c
 905 0222 9F       		.byte	0x9f
 906 0223 2A000000 		.4byte	.LVL5-.Ltext0
 907 0227 50000000 		.4byte	.LVL10-.Ltext0
 908 022b 0B00     		.2byte	0xb
 909 022d 72       		.byte	0x72
 910 022e 00       		.sleb128 0
 911 022f 70       		.byte	0x70
 912 0230 00       		.sleb128 0
ARM GAS  /tmp/cchxx0FN.s 			page 17


 913 0231 1C       		.byte	0x1c
 914 0232 76       		.byte	0x76
 915 0233 00       		.sleb128 0
 916 0234 22       		.byte	0x22
 917 0235 3E       		.byte	0x3e
 918 0236 1C       		.byte	0x1c
 919 0237 9F       		.byte	0x9f
 920 0238 50000000 		.4byte	.LVL10-.Ltext0
 921 023c 60000000 		.4byte	.LVL13-.Ltext0
 922 0240 0B00     		.2byte	0xb
 923 0242 72       		.byte	0x72
 924 0243 00       		.sleb128 0
 925 0244 70       		.byte	0x70
 926 0245 00       		.sleb128 0
 927 0246 1C       		.byte	0x1c
 928 0247 76       		.byte	0x76
 929 0248 00       		.sleb128 0
 930 0249 22       		.byte	0x22
 931 024a 3C       		.byte	0x3c
 932 024b 1C       		.byte	0x1c
 933 024c 9F       		.byte	0x9f
 934 024d 60000000 		.4byte	.LVL13-.Ltext0
 935 0251 86000000 		.4byte	.LVL18-.Ltext0
 936 0255 0B00     		.2byte	0xb
 937 0257 72       		.byte	0x72
 938 0258 00       		.sleb128 0
 939 0259 70       		.byte	0x70
 940 025a 00       		.sleb128 0
 941 025b 1C       		.byte	0x1c
 942 025c 76       		.byte	0x76
 943 025d 00       		.sleb128 0
 944 025e 22       		.byte	0x22
 945 025f 3A       		.byte	0x3a
 946 0260 1C       		.byte	0x1c
 947 0261 9F       		.byte	0x9f
 948 0262 86000000 		.4byte	.LVL18-.Ltext0
 949 0266 96000000 		.4byte	.LVL21-.Ltext0
 950 026a 0B00     		.2byte	0xb
 951 026c 72       		.byte	0x72
 952 026d 00       		.sleb128 0
 953 026e 70       		.byte	0x70
 954 026f 00       		.sleb128 0
 955 0270 1C       		.byte	0x1c
 956 0271 76       		.byte	0x76
 957 0272 00       		.sleb128 0
 958 0273 22       		.byte	0x22
 959 0274 38       		.byte	0x38
 960 0275 1C       		.byte	0x1c
 961 0276 9F       		.byte	0x9f
 962 0277 96000000 		.4byte	.LVL21-.Ltext0
 963 027b BC000000 		.4byte	.LVL26-.Ltext0
 964 027f 0B00     		.2byte	0xb
 965 0281 72       		.byte	0x72
 966 0282 00       		.sleb128 0
 967 0283 70       		.byte	0x70
 968 0284 00       		.sleb128 0
 969 0285 1C       		.byte	0x1c
ARM GAS  /tmp/cchxx0FN.s 			page 18


 970 0286 76       		.byte	0x76
 971 0287 00       		.sleb128 0
 972 0288 22       		.byte	0x22
 973 0289 36       		.byte	0x36
 974 028a 1C       		.byte	0x1c
 975 028b 9F       		.byte	0x9f
 976 028c BC000000 		.4byte	.LVL26-.Ltext0
 977 0290 CC000000 		.4byte	.LVL29-.Ltext0
 978 0294 0B00     		.2byte	0xb
 979 0296 72       		.byte	0x72
 980 0297 00       		.sleb128 0
 981 0298 70       		.byte	0x70
 982 0299 00       		.sleb128 0
 983 029a 1C       		.byte	0x1c
 984 029b 76       		.byte	0x76
 985 029c 00       		.sleb128 0
 986 029d 22       		.byte	0x22
 987 029e 34       		.byte	0x34
 988 029f 1C       		.byte	0x1c
 989 02a0 9F       		.byte	0x9f
 990 02a1 CC000000 		.4byte	.LVL29-.Ltext0
 991 02a5 F6000000 		.4byte	.LVL35-.Ltext0
 992 02a9 0B00     		.2byte	0xb
 993 02ab 72       		.byte	0x72
 994 02ac 00       		.sleb128 0
 995 02ad 70       		.byte	0x70
 996 02ae 00       		.sleb128 0
 997 02af 1C       		.byte	0x1c
 998 02b0 76       		.byte	0x76
 999 02b1 00       		.sleb128 0
 1000 02b2 22       		.byte	0x22
 1001 02b3 32       		.byte	0x32
 1002 02b4 1C       		.byte	0x1c
 1003 02b5 9F       		.byte	0x9f
 1004 02b6 0E010000 		.4byte	.LVL40-.Ltext0
 1005 02ba 1A010000 		.4byte	.LVL44-.Ltext0
 1006 02be 0100     		.2byte	0x1
 1007 02c0 52       		.byte	0x52
 1008 02c1 00000000 		.4byte	0
 1009 02c5 00000000 		.4byte	0
 1010              	.LLST3:
 1011 02c9 00000000 		.4byte	.LVL0-.Ltext0
 1012 02cd 12010000 		.4byte	.LVL41-.Ltext0
 1013 02d1 0100     		.2byte	0x1
 1014 02d3 53       		.byte	0x53
 1015 02d4 12010000 		.4byte	.LVL41-.Ltext0
 1016 02d8 62010000 		.4byte	.LFE135-.Ltext0
 1017 02dc 0400     		.2byte	0x4
 1018 02de F3       		.byte	0xf3
 1019 02df 01       		.uleb128 0x1
 1020 02e0 53       		.byte	0x53
 1021 02e1 9F       		.byte	0x9f
 1022 02e2 00000000 		.4byte	0
 1023 02e6 00000000 		.4byte	0
 1024              	.LLST4:
 1025 02ea 1E000000 		.4byte	.LVL3-.Ltext0
 1026 02ee 0E010000 		.4byte	.LVL40-.Ltext0
ARM GAS  /tmp/cchxx0FN.s 			page 19


 1027 02f2 0100     		.2byte	0x1
 1028 02f4 5B       		.byte	0x5b
 1029 02f5 1E010000 		.4byte	.LVL45-.Ltext0
 1030 02f9 5E010000 		.4byte	.LVL54-.Ltext0
 1031 02fd 0100     		.2byte	0x1
 1032 02ff 5C       		.byte	0x5c
 1033 0300 00000000 		.4byte	0
 1034 0304 00000000 		.4byte	0
 1035              	.LLST5:
 1036 0308 26000000 		.4byte	.LVL4-.Ltext0
 1037 030c 38000000 		.4byte	.LVL7-.Ltext0
 1038 0310 0100     		.2byte	0x1
 1039 0312 5A       		.byte	0x5a
 1040 0313 38000000 		.4byte	.LVL7-.Ltext0
 1041 0317 4C000000 		.4byte	.LVL9-.Ltext0
 1042 031b 0200     		.2byte	0x2
 1043 031d 76       		.byte	0x76
 1044 031e 72       		.sleb128 -14
 1045 031f 5C000000 		.4byte	.LVL12-.Ltext0
 1046 0323 6E000000 		.4byte	.LVL15-.Ltext0
 1047 0327 0100     		.2byte	0x1
 1048 0329 5A       		.byte	0x5a
 1049 032a 6E000000 		.4byte	.LVL15-.Ltext0
 1050 032e 82000000 		.4byte	.LVL17-.Ltext0
 1051 0332 0200     		.2byte	0x2
 1052 0334 76       		.byte	0x76
 1053 0335 76       		.sleb128 -10
 1054 0336 92000000 		.4byte	.LVL20-.Ltext0
 1055 033a A4000000 		.4byte	.LVL23-.Ltext0
 1056 033e 0100     		.2byte	0x1
 1057 0340 5A       		.byte	0x5a
 1058 0341 A4000000 		.4byte	.LVL23-.Ltext0
 1059 0345 B8000000 		.4byte	.LVL25-.Ltext0
 1060 0349 0200     		.2byte	0x2
 1061 034b 76       		.byte	0x76
 1062 034c 7A       		.sleb128 -6
 1063 034d C8000000 		.4byte	.LVL28-.Ltext0
 1064 0351 DC000000 		.4byte	.LVL31-.Ltext0
 1065 0355 0100     		.2byte	0x1
 1066 0357 5A       		.byte	0x5a
 1067 0358 DC000000 		.4byte	.LVL31-.Ltext0
 1068 035c F2000000 		.4byte	.LVL34-.Ltext0
 1069 0360 0200     		.2byte	0x2
 1070 0362 76       		.byte	0x76
 1071 0363 7E       		.sleb128 -2
 1072 0364 26010000 		.4byte	.LVL46-.Ltext0
 1073 0368 3A010000 		.4byte	.LVL49-.Ltext0
 1074 036c 0100     		.2byte	0x1
 1075 036e 56       		.byte	0x56
 1076 036f 3A010000 		.4byte	.LVL49-.Ltext0
 1077 0373 4C010000 		.4byte	.LVL51-.Ltext0
 1078 0377 0200     		.2byte	0x2
 1079 0379 70       		.byte	0x70
 1080 037a 7E       		.sleb128 -2
 1081 037b 00000000 		.4byte	0
 1082 037f 00000000 		.4byte	0
 1083              	.LLST6:
ARM GAS  /tmp/cchxx0FN.s 			page 20


 1084 0383 2A000000 		.4byte	.LVL5-.Ltext0
 1085 0387 40000000 		.4byte	.LVL8-.Ltext0
 1086 038b 0100     		.2byte	0x1
 1087 038d 59       		.byte	0x59
 1088 038e 40000000 		.4byte	.LVL8-.Ltext0
 1089 0392 4C000000 		.4byte	.LVL9-.Ltext0
 1090 0396 0200     		.2byte	0x2
 1091 0398 75       		.byte	0x75
 1092 0399 70       		.sleb128 -16
 1093 039a 60000000 		.4byte	.LVL13-.Ltext0
 1094 039e 76000000 		.4byte	.LVL16-.Ltext0
 1095 03a2 0100     		.2byte	0x1
 1096 03a4 59       		.byte	0x59
 1097 03a5 76000000 		.4byte	.LVL16-.Ltext0
 1098 03a9 82000000 		.4byte	.LVL17-.Ltext0
 1099 03ad 0200     		.2byte	0x2
 1100 03af 75       		.byte	0x75
 1101 03b0 74       		.sleb128 -12
 1102 03b1 96000000 		.4byte	.LVL21-.Ltext0
 1103 03b5 AC000000 		.4byte	.LVL24-.Ltext0
 1104 03b9 0100     		.2byte	0x1
 1105 03bb 59       		.byte	0x59
 1106 03bc AC000000 		.4byte	.LVL24-.Ltext0
 1107 03c0 B8000000 		.4byte	.LVL25-.Ltext0
 1108 03c4 0200     		.2byte	0x2
 1109 03c6 75       		.byte	0x75
 1110 03c7 78       		.sleb128 -8
 1111 03c8 CC000000 		.4byte	.LVL29-.Ltext0
 1112 03cc E2000000 		.4byte	.LVL32-.Ltext0
 1113 03d0 0100     		.2byte	0x1
 1114 03d2 59       		.byte	0x59
 1115 03d3 E2000000 		.4byte	.LVL32-.Ltext0
 1116 03d7 F2000000 		.4byte	.LVL34-.Ltext0
 1117 03db 0200     		.2byte	0x2
 1118 03dd 75       		.byte	0x75
 1119 03de 7C       		.sleb128 -4
 1120 03df 2A010000 		.4byte	.LVL47-.Ltext0
 1121 03e3 5E010000 		.4byte	.LVL54-.Ltext0
 1122 03e7 0100     		.2byte	0x1
 1123 03e9 5E       		.byte	0x5e
 1124 03ea 00000000 		.4byte	0
 1125 03ee 00000000 		.4byte	0
 1126              	.LLST7:
 1127 03f2 2A000000 		.4byte	.LVL5-.Ltext0
 1128 03f6 32000000 		.4byte	.LVL6-.Ltext0
 1129 03fa 0100     		.2byte	0x1
 1130 03fc 57       		.byte	0x57
 1131 03fd 32000000 		.4byte	.LVL6-.Ltext0
 1132 0401 4C000000 		.4byte	.LVL9-.Ltext0
 1133 0405 0200     		.2byte	0x2
 1134 0407 75       		.byte	0x75
 1135 0408 72       		.sleb128 -14
 1136 0409 60000000 		.4byte	.LVL13-.Ltext0
 1137 040d 68000000 		.4byte	.LVL14-.Ltext0
 1138 0411 0100     		.2byte	0x1
 1139 0413 57       		.byte	0x57
 1140 0414 68000000 		.4byte	.LVL14-.Ltext0
ARM GAS  /tmp/cchxx0FN.s 			page 21


 1141 0418 82000000 		.4byte	.LVL17-.Ltext0
 1142 041c 0200     		.2byte	0x2
 1143 041e 75       		.byte	0x75
 1144 041f 76       		.sleb128 -10
 1145 0420 96000000 		.4byte	.LVL21-.Ltext0
 1146 0424 9E000000 		.4byte	.LVL22-.Ltext0
 1147 0428 0100     		.2byte	0x1
 1148 042a 57       		.byte	0x57
 1149 042b 9E000000 		.4byte	.LVL22-.Ltext0
 1150 042f B8000000 		.4byte	.LVL25-.Ltext0
 1151 0433 0200     		.2byte	0x2
 1152 0435 75       		.byte	0x75
 1153 0436 7A       		.sleb128 -6
 1154 0437 CC000000 		.4byte	.LVL29-.Ltext0
 1155 043b D4000000 		.4byte	.LVL30-.Ltext0
 1156 043f 0100     		.2byte	0x1
 1157 0441 57       		.byte	0x57
 1158 0442 D4000000 		.4byte	.LVL30-.Ltext0
 1159 0446 F2000000 		.4byte	.LVL34-.Ltext0
 1160 044a 0200     		.2byte	0x2
 1161 044c 75       		.byte	0x75
 1162 044d 7E       		.sleb128 -2
 1163 044e 2A010000 		.4byte	.LVL47-.Ltext0
 1164 0452 32010000 		.4byte	.LVL48-.Ltext0
 1165 0456 0100     		.2byte	0x1
 1166 0458 54       		.byte	0x54
 1167 0459 32010000 		.4byte	.LVL48-.Ltext0
 1168 045d 4C010000 		.4byte	.LVL51-.Ltext0
 1169 0461 0200     		.2byte	0x2
 1170 0463 71       		.byte	0x71
 1171 0464 7E       		.sleb128 -2
 1172 0465 00000000 		.4byte	0
 1173 0469 00000000 		.4byte	0
 1174              	.LLST8:
 1175 046d 00000000 		.4byte	.LVL0-.Ltext0
 1176 0471 08000000 		.4byte	.LVL1-.Ltext0
 1177 0475 0500     		.2byte	0x5
 1178 0477 73       		.byte	0x73
 1179 0478 00       		.sleb128 0
 1180 0479 32       		.byte	0x32
 1181 047a 25       		.byte	0x25
 1182 047b 9F       		.byte	0x9f
 1183 047c 08000000 		.4byte	.LVL1-.Ltext0
 1184 0480 1A000000 		.4byte	.LVL2-.Ltext0
 1185 0484 0100     		.2byte	0x1
 1186 0486 58       		.byte	0x58
 1187 0487 1A000000 		.4byte	.LVL2-.Ltext0
 1188 048b EE000000 		.4byte	.LVL33-.Ltext0
 1189 048f 0100     		.2byte	0x1
 1190 0491 5C       		.byte	0x5c
 1191 0492 EE000000 		.4byte	.LVL33-.Ltext0
 1192 0496 F6000000 		.4byte	.LVL35-.Ltext0
 1193 049a 0300     		.2byte	0x3
 1194 049c 7C       		.byte	0x7c
 1195 049d 01       		.sleb128 1
 1196 049e 9F       		.byte	0x9f
 1197 049f 0E010000 		.4byte	.LVL40-.Ltext0
ARM GAS  /tmp/cchxx0FN.s 			page 22


 1198 04a3 12010000 		.4byte	.LVL41-.Ltext0
 1199 04a7 0500     		.2byte	0x5
 1200 04a9 73       		.byte	0x73
 1201 04aa 00       		.sleb128 0
 1202 04ab 33       		.byte	0x33
 1203 04ac 1A       		.byte	0x1a
 1204 04ad 9F       		.byte	0x9f
 1205 04ae 12010000 		.4byte	.LVL41-.Ltext0
 1206 04b2 48010000 		.4byte	.LVL50-.Ltext0
 1207 04b6 0100     		.2byte	0x1
 1208 04b8 53       		.byte	0x53
 1209 04b9 48010000 		.4byte	.LVL50-.Ltext0
 1210 04bd 50010000 		.4byte	.LVL52-.Ltext0
 1211 04c1 0300     		.2byte	0x3
 1212 04c3 73       		.byte	0x73
 1213 04c4 01       		.sleb128 1
 1214 04c5 9F       		.byte	0x9f
 1215 04c6 00000000 		.4byte	0
 1216 04ca 00000000 		.4byte	0
 1217              		.section	.debug_aranges,"",%progbits
 1218 0000 1C000000 		.4byte	0x1c
 1219 0004 0200     		.2byte	0x2
 1220 0006 00000000 		.4byte	.Ldebug_info0
 1221 000a 04       		.byte	0x4
 1222 000b 00       		.byte	0
 1223 000c 0000     		.2byte	0
 1224 000e 0000     		.2byte	0
 1225 0010 00000000 		.4byte	.Ltext0
 1226 0014 62010000 		.4byte	.Letext0-.Ltext0
 1227 0018 00000000 		.4byte	0
 1228 001c 00000000 		.4byte	0
 1229              		.section	.debug_line,"",%progbits
 1230              	.Ldebug_line0:
 1231 0000 C8010000 		.section	.debug_str,"MS",%progbits,1
 1231      02006001 
 1231      00000201 
 1231      FB0E0D00 
 1231      01010101 
 1232              	.LASF4:
 1233 0000 5F5F696E 		.ascii	"__int16_t\000"
 1233      7431365F 
 1233      7400
 1234              	.LASF22:
 1235 000a 70537263 		.ascii	"pSrcA\000"
 1235      4100
 1236              	.LASF23:
 1237 0010 70537263 		.ascii	"pSrcB\000"
 1237      4200
 1238              	.LASF5:
 1239 0016 5F5F696E 		.ascii	"__int32_t\000"
 1239      7433325F 
 1239      7400
 1240              	.LASF27:
 1241 0020 474E5520 		.ascii	"GNU C 4.9.3 20150529 (release) [ARM/embedded-4_9-br"
 1241      4320342E 
 1241      392E3320 
 1241      32303135 
ARM GAS  /tmp/cchxx0FN.s 			page 23


 1241      30353239 
 1242 0053 616E6368 		.ascii	"anch revision 224288] -mcpu=cortex-m4 -mfloat-abi=h"
 1242      20726576 
 1242      6973696F 
 1242      6E203232 
 1242      34323838 
 1243 0086 61726420 		.ascii	"ard -mfpu=fpv4-sp-d16 -mno-thumb-interwork -mthumb "
 1243      2D6D6670 
 1243      753D6670 
 1243      76342D73 
 1243      702D6431 
 1244 00b9 2D676764 		.ascii	"-ggdb -O2 -fomit-frame-pointer -falign-functions=16"
 1244      62202D4F 
 1244      32202D66 
 1244      6F6D6974 
 1244      2D667261 
 1245 00ec 202D666E 		.ascii	" -fno-math-errno -fsingle-precision-constant\000"
 1245      6F2D6D61 
 1245      74682D65 
 1245      72726E6F 
 1245      202D6673 
 1246              	.LASF20:
 1247 0119 7131355F 		.ascii	"q15_t\000"
 1247      7400
 1248              	.LASF18:
 1249 011f 666C6F61 		.ascii	"float\000"
 1249      7400
 1250              	.LASF21:
 1251 0125 7133315F 		.ascii	"q31_t\000"
 1251      7400
 1252              	.LASF1:
 1253 012b 756E7369 		.ascii	"unsigned char\000"
 1253      676E6564 
 1253      20636861 
 1253      7200
 1254              	.LASF26:
 1255 0139 626C6B43 		.ascii	"blkCnt\000"
 1255      6E7400
 1256              	.LASF8:
 1257 0140 6C6F6E67 		.ascii	"long unsigned int\000"
 1257      20756E73 
 1257      69676E65 
 1257      6420696E 
 1257      7400
 1258              	.LASF3:
 1259 0152 73686F72 		.ascii	"short unsigned int\000"
 1259      7420756E 
 1259      7369676E 
 1259      65642069 
 1259      6E7400
 1260              	.LASF24:
 1261 0165 70447374 		.ascii	"pDst\000"
 1261      00
 1262              	.LASF28:
 1263 016a 2F645F64 		.ascii	"/d_drive/axoloti/platform_linux/../CMSIS//DSP_Lib/S"
 1263      72697665 
 1263      2F61786F 
ARM GAS  /tmp/cchxx0FN.s 			page 24


 1263      6C6F7469 
 1263      2F706C61 
 1264 019d 6F757263 		.ascii	"ource/ComplexMathFunctions/arm_cmplx_mult_cmplx_q15"
 1264      652F436F 
 1264      6D706C65 
 1264      784D6174 
 1264      6846756E 
 1265 01d0 2E6300   		.ascii	".c\000"
 1266              	.LASF17:
 1267 01d3 646F7562 		.ascii	"double\000"
 1267      6C6500
 1268              	.LASF7:
 1269 01da 5F5F7569 		.ascii	"__uint32_t\000"
 1269      6E743332 
 1269      5F7400
 1270              	.LASF11:
 1271 01e5 756E7369 		.ascii	"unsigned int\000"
 1271      676E6564 
 1271      20696E74 
 1271      00
 1272              	.LASF10:
 1273 01f2 6C6F6E67 		.ascii	"long long unsigned int\000"
 1273      206C6F6E 
 1273      6720756E 
 1273      7369676E 
 1273      65642069 
 1274              	.LASF12:
 1275 0209 696E7431 		.ascii	"int16_t\000"
 1275      365F7400 
 1276              	.LASF29:
 1277 0211 61726D5F 		.ascii	"arm_cmplx_mult_cmplx_q15\000"
 1277      636D706C 
 1277      785F6D75 
 1277      6C745F63 
 1277      6D706C78 
 1278              	.LASF13:
 1279 022a 696E7433 		.ascii	"int32_t\000"
 1279      325F7400 
 1280              	.LASF15:
 1281 0232 73697A65 		.ascii	"sizetype\000"
 1281      74797065 
 1281      00
 1282              	.LASF9:
 1283 023b 6C6F6E67 		.ascii	"long long int\000"
 1283      206C6F6E 
 1283      6720696E 
 1283      7400
 1284              	.LASF16:
 1285 0249 63686172 		.ascii	"char\000"
 1285      00
 1286              	.LASF2:
 1287 024e 73686F72 		.ascii	"short int\000"
 1287      7420696E 
 1287      7400
 1288              	.LASF14:
 1289 0258 75696E74 		.ascii	"uint32_t\000"
 1289      33325F74 
ARM GAS  /tmp/cchxx0FN.s 			page 25


 1289      00
 1290              	.LASF6:
 1291 0261 6C6F6E67 		.ascii	"long int\000"
 1291      20696E74 
 1291      00
 1292              	.LASF19:
 1293 026a 6C6F6E67 		.ascii	"long double\000"
 1293      20646F75 
 1293      626C6500 
 1294              	.LASF0:
 1295 0276 7369676E 		.ascii	"signed char\000"
 1295      65642063 
 1295      68617200 
 1296              	.LASF25:
 1297 0282 6E756D53 		.ascii	"numSamples\000"
 1297      616D706C 
 1297      657300
 1298              		.ident	"GCC: (GNU Tools for ARM Embedded Processors) 4.9.3 20150529 (release) [ARM/embedded-4_9-br
ARM GAS  /tmp/cchxx0FN.s 			page 26


DEFINED SYMBOLS
                            *ABS*:00000000 arm_cmplx_mult_cmplx_q15.c
     /tmp/cchxx0FN.s:20     .text:00000000 $t
     /tmp/cchxx0FN.s:26     .text:00000000 arm_cmplx_mult_cmplx_q15
                     .debug_frame:00000010 $d

NO UNDEFINED SYMBOLS
