ARM GAS  /tmp/cc0ojrn7.s 			page 1


   1              		.syntax unified
   2              		.cpu cortex-m4
   3              		.eabi_attribute 27, 1
   4              		.eabi_attribute 28, 1
   5              		.fpu fpv4-sp-d16
   6              		.eabi_attribute 20, 1
   7              		.eabi_attribute 21, 1
   8              		.eabi_attribute 23, 3
   9              		.eabi_attribute 24, 1
  10              		.eabi_attribute 25, 1
  11              		.eabi_attribute 26, 1
  12              		.eabi_attribute 30, 2
  13              		.eabi_attribute 34, 1
  14              		.eabi_attribute 18, 4
  15              		.thumb
  16              		.file	"arm_rfft_fast_f32.c"
  17              		.text
  18              	.Ltext0:
  19              		.cfi_sections	.debug_frame
  20              		.align	2
  21              		.p2align 4,,15
  22              		.global	stage_rfft_f32
  23              		.thumb
  24              		.thumb_func
  25              		.type	stage_rfft_f32, %function
  26              	stage_rfft_f32:
  27              	.LFB135:
  28              		.file 1 "/d_drive/axoloti/platform_linux/../CMSIS//DSP_Lib/Source/TransformFunctions/arm_rfft_fast
  29              		.loc 1 46 0
  30              		.cfi_startproc
  31              		@ args = 0, pretend = 0, frame = 0
  32              		@ frame_needed = 0, uses_anonymous_args = 0
  33              		@ link register save eliminated.
  34              	.LVL0:
  35              		.loc 1 73 0
  36 0000 D1ED017A 		flds	s15, [r1, #4]
  37              		.loc 1 61 0
  38 0004 91ED006A 		flds	s12, [r1]
  39              		.loc 1 73 0
  40 0008 77EEA77A 		fadds	s15, s15, s15
  41              		.loc 1 77 0
  42 000c F0EE006A 		fconsts	s13, #0
  43 0010 B0EE677A 		fcpys	s14, s15
  44 0014 A6EE267A 		vfma.f32	s14, s12, s13
  45              		.loc 1 46 0
  46 0018 10B4     		push	{r4}
  47              		.cfi_def_cfa_offset 4
  48              		.cfi_offset 4, -4
  49              		.loc 1 78 0
  50 001a D6EE267A 		vfnms.f32	s15, s12, s13
  51              		.loc 1 57 0
  52 001e 0488     		ldrh	r4, [r0]
  53              		.loc 1 49 0
  54 0020 4069     		ldr	r0, [r0, #20]
  55              	.LVL1:
  56              		.loc 1 77 0
  57 0022 F6EE003A 		fconsts	s7, #96
ARM GAS  /tmp/cc0ojrn7.s 			page 2


  58              		.loc 1 57 0
  59 0026 013C     		subs	r4, r4, #1
  60              	.LVL2:
  61              		.loc 1 77 0
  62 0028 27EE237A 		fmuls	s14, s14, s7
  63              		.loc 1 78 0
  64 002c 67EEA37A 		fmuls	s15, s15, s7
  65 0030 01EBC403 		add	r3, r1, r4, lsl #3
  66              		.loc 1 77 0
  67 0034 82ED007A 		fsts	s14, [r2]
  68              	.LVL3:
  69              		.loc 1 78 0
  70 0038 C2ED017A 		fsts	s15, [r2, #4]
  71 003c 1030     		adds	r0, r0, #16
  72              	.LVL4:
  73 003e 1032     		adds	r2, r2, #16
  74              	.LVL5:
  75 0040 083B     		subs	r3, r3, #8
  76 0042 1031     		adds	r1, r1, #16
  77              	.LVL6:
  78              	.L2:
  79              		.loc 1 101 0 discriminator 1
  80 0044 D3ED036A 		flds	s13, [r3, #12]
  81              	.LVL7:
  82              		.loc 1 104 0 discriminator 1
  83 0048 11ED015A 		flds	s10, [r1, #-4]
  84              		.loc 1 102 0 discriminator 1
  85 004c 93ED024A 		flds	s8, [r3, #8]
  86              	.LVL8:
  87              		.loc 1 103 0 discriminator 1
  88 0050 51ED027A 		flds	s15, [r1, #-8]
  89              	.LVL9:
  90              		.loc 1 107 0 discriminator 1
  91 0054 50ED015A 		flds	s11, [r0, #-4]
  92              		.loc 1 106 0 discriminator 1
  93 0058 10ED026A 		flds	s12, [r0, #-8]
  94              	.LVL10:
  95              		.loc 1 109 0 discriminator 1
  96 005c 74EE674A 		fsubs	s9, s8, s15
  97              	.LVL11:
  98              		.loc 1 120 0 discriminator 1
  99 0060 35EE667A 		fsubs	s14, s10, s13
 100              		.loc 1 119 0 discriminator 1
 101 0064 77EE847A 		fadds	s15, s15, s8
 102              	.LVL12:
 103              		.loc 1 120 0 discriminator 1
 104 0068 A5EEA47A 		vfma.f32	s14, s11, s9
 105              		.loc 1 125 0 discriminator 1
 106 006c 013C     		subs	r4, r4, #1
 107              	.LVL13:
 108 006e A3F10803 		sub	r3, r3, #8
 109              	.LVL14:
 110              		.loc 1 119 0 discriminator 1
 111 0072 E6EE247A 		vfma.f32	s15, s12, s9
 112 0076 01F10801 		add	r1, r1, #8
 113              	.LVL15:
 114 007a 00F10800 		add	r0, r0, #8
ARM GAS  /tmp/cc0ojrn7.s 			page 3


 115              		.loc 1 110 0 discriminator 1
 116 007e 76EE856A 		fadds	s13, s13, s10
 117              	.LVL16:
 118 0082 02F10802 		add	r2, r2, #8
 119              		.loc 1 119 0 discriminator 1
 120 0086 E5EEA67A 		vfma.f32	s15, s11, s13
 121              		.loc 1 120 0 discriminator 1
 122 008a A6EE667A 		vfms.f32	s14, s12, s13
 123              		.loc 1 119 0 discriminator 1
 124 008e 67EEA37A 		fmuls	s15, s15, s7
 125              		.loc 1 120 0 discriminator 1
 126 0092 27EE237A 		fmuls	s14, s14, s7
 127              		.loc 1 119 0 discriminator 1
 128 0096 42ED047A 		fsts	s15, [r2, #-16]
 129              	.LVL17:
 130              		.loc 1 120 0 discriminator 1
 131 009a 02ED037A 		fsts	s14, [r2, #-12]
 132              	.LVL18:
 133              		.loc 1 125 0 discriminator 1
 134 009e D1D1     		bne	.L2
 135              		.loc 1 126 0
 136 00a0 5DF8044B 		ldr	r4, [sp], #4
 137              		.cfi_restore 4
 138              		.cfi_def_cfa_offset 0
 139 00a4 7047     		bx	lr
 140              		.cfi_endproc
 141              	.LFE135:
 142              		.size	stage_rfft_f32, .-stage_rfft_f32
 143 00a6 00BF     		.align	2
 144 00a8 AFF30080 		.p2align 4,,15
 144      AFF30080 
 145              		.global	merge_rfft_f32
 146              		.thumb
 147              		.thumb_func
 148              		.type	merge_rfft_f32, %function
 149              	merge_rfft_f32:
 150              	.LFB136:
 151              		.loc 1 132 0
 152              		.cfi_startproc
 153              		@ args = 0, pretend = 0, frame = 0
 154              		@ frame_needed = 0, uses_anonymous_args = 0
 155              		@ link register save eliminated.
 156              	.LVL19:
 157              		.loc 1 143 0
 158 00b0 D1ED007A 		flds	s15, [r1]
 159              		.loc 1 144 0
 160 00b4 D1ED016A 		flds	s13, [r1, #4]
 161              		.loc 1 148 0
 162 00b8 37EEA67A 		fadds	s14, s15, s13
 163              		.loc 1 149 0
 164 00bc 77EEE67A 		fsubs	s15, s15, s13
 165              		.loc 1 132 0
 166 00c0 10B4     		push	{r4}
 167              		.cfi_def_cfa_offset 4
 168              		.cfi_offset 4, -4
 169              		.loc 1 148 0
 170 00c2 F6EE003A 		fconsts	s7, #96
ARM GAS  /tmp/cc0ojrn7.s 			page 4


 171              		.loc 1 141 0
 172 00c6 0488     		ldrh	r4, [r0]
 173              		.loc 1 135 0
 174 00c8 4069     		ldr	r0, [r0, #20]
 175              	.LVL20:
 176              		.loc 1 148 0
 177 00ca 27EE237A 		fmuls	s14, s14, s7
 178              		.loc 1 149 0
 179 00ce 67EEA37A 		fmuls	s15, s15, s7
 180              		.loc 1 141 0
 181 00d2 013C     		subs	r4, r4, #1
 182              	.LVL21:
 183              		.loc 1 148 0
 184 00d4 82ED007A 		fsts	s14, [r2]
 185              	.LVL22:
 186              		.loc 1 149 0
 187 00d8 C2ED017A 		fsts	s15, [r2, #4]
 188              		.loc 1 151 0
 189 00dc E300     		lsls	r3, r4, #3
 190              	.LVL23:
 191              		.loc 1 154 0
 192 00de A4B3     		cbz	r4, .L6
 193 00e0 083B     		subs	r3, r3, #8
 194              	.LVL24:
 195 00e2 0B44     		add	r3, r3, r1
 196              	.LVL25:
 197 00e4 1030     		adds	r0, r0, #16
 198 00e6 1032     		adds	r2, r2, #16
 199              	.LVL26:
 200 00e8 1031     		adds	r1, r1, #16
 201              	.LVL27:
 202              	.L8:
 203              		.loc 1 159 0
 204 00ea 93ED035A 		flds	s10, [r3, #12]
 205              	.LVL28:
 206              		.loc 1 162 0
 207 00ee 51ED016A 		flds	s13, [r1, #-4]
 208              		.loc 1 160 0
 209 00f2 93ED024A 		flds	s8, [r3, #8]
 210              	.LVL29:
 211              		.loc 1 161 0
 212 00f6 51ED027A 		flds	s15, [r1, #-8]
 213              	.LVL30:
 214              		.loc 1 164 0
 215 00fa 10ED026A 		flds	s12, [r0, #-8]
 216              	.LVL31:
 217              		.loc 1 165 0
 218 00fe 50ED015A 		flds	s11, [r0, #-4]
 219              	.LVL32:
 220              		.loc 1 167 0
 221 0102 77EEC44A 		fsubs	s9, s15, s8
 222              	.LVL33:
 223              		.loc 1 178 0
 224 0106 36EEC57A 		fsubs	s14, s13, s10
 225              		.loc 1 177 0
 226 010a 77EE847A 		fadds	s15, s15, s8
 227              	.LVL34:
ARM GAS  /tmp/cc0ojrn7.s 			page 5


 228 010e B1EE466A 		fnegs	s12, s12
 229              	.LVL35:
 230              		.loc 1 178 0
 231 0112 A5EEA47A 		vfma.f32	s14, s11, s9
 232              		.loc 1 154 0
 233 0116 013C     		subs	r4, r4, #1
 234              	.LVL36:
 235 0118 A3F10803 		sub	r3, r3, #8
 236              	.LVL37:
 237              		.loc 1 177 0
 238 011c E6EE247A 		vfma.f32	s15, s12, s9
 239 0120 01F10801 		add	r1, r1, #8
 240              	.LVL38:
 241 0124 00F10800 		add	r0, r0, #8
 242              	.LVL39:
 243              		.loc 1 168 0
 244 0128 76EE856A 		fadds	s13, s13, s10
 245              	.LVL40:
 246 012c 02F10802 		add	r2, r2, #8
 247              		.loc 1 177 0
 248 0130 E5EEE67A 		vfms.f32	s15, s11, s13
 249              		.loc 1 178 0
 250 0134 A6EE267A 		vfma.f32	s14, s12, s13
 251              		.loc 1 177 0
 252 0138 67EEA37A 		fmuls	s15, s15, s7
 253              		.loc 1 178 0
 254 013c 27EE237A 		fmuls	s14, s14, s7
 255              		.loc 1 177 0
 256 0140 42ED047A 		fsts	s15, [r2, #-16]
 257              	.LVL41:
 258              		.loc 1 178 0
 259 0144 02ED037A 		fsts	s14, [r2, #-12]
 260              	.LVL42:
 261              		.loc 1 154 0
 262 0148 CFD1     		bne	.L8
 263              	.LVL43:
 264              	.L6:
 265              		.loc 1 185 0
 266 014a 5DF8044B 		ldr	r4, [sp], #4
 267              		.cfi_restore 4
 268              		.cfi_def_cfa_offset 0
 269 014e 7047     		bx	lr
 270              		.cfi_endproc
 271              	.LFE136:
 272              		.size	merge_rfft_f32, .-merge_rfft_f32
 273              		.align	2
 274              		.p2align 4,,15
 275              		.global	arm_rfft_fast_f32
 276              		.thumb
 277              		.thumb_func
 278              		.type	arm_rfft_fast_f32, %function
 279              	arm_rfft_fast_f32:
 280              	.LFB137:
 281              		.loc 1 304 0
 282              		.cfi_startproc
 283              		@ args = 0, pretend = 0, frame = 0
 284              		@ frame_needed = 0, uses_anonymous_args = 0
ARM GAS  /tmp/cc0ojrn7.s 			page 6


 285              	.LVL44:
 286 0150 2DE9F041 		push	{r4, r5, r6, r7, r8, lr}
 287              		.cfi_def_cfa_offset 24
 288              		.cfi_offset 4, -24
 289              		.cfi_offset 5, -20
 290              		.cfi_offset 6, -16
 291              		.cfi_offset 7, -12
 292              		.cfi_offset 8, -8
 293              		.cfi_offset 14, -4
 294              		.loc 1 306 0
 295 0154 058A     		ldrh	r5, [r0, #16]
 296 0156 6D08     		lsrs	r5, r5, #1
 297 0158 0580     		strh	r5, [r0]	@ movhi
 298              		.loc 1 304 0
 299 015a 0446     		mov	r4, r0
 300              	.LVL45:
 301 015c 1646     		mov	r6, r2
 302              		.loc 1 309 0
 303 015e 1D46     		mov	r5, r3
 304 0160 5BB9     		cbnz	r3, .L15
 305 0162 0F46     		mov	r7, r1
 306              		.loc 1 320 0
 307 0164 1A46     		mov	r2, r3
 308              	.LVL46:
 309 0166 0123     		movs	r3, #1
 310              	.LVL47:
 311 0168 FFF7FEFF 		bl	arm_cfft_f32
 312              	.LVL48:
 313              		.loc 1 323 0
 314 016c 2046     		mov	r0, r4
 315 016e 3946     		mov	r1, r7
 316 0170 3246     		mov	r2, r6
 317              		.loc 1 325 0
 318 0172 BDE8F041 		pop	{r4, r5, r6, r7, r8, lr}
 319              		.cfi_remember_state
 320              		.cfi_restore 14
 321              		.cfi_restore 8
 322              		.cfi_restore 7
 323              		.cfi_restore 6
 324              		.cfi_restore 5
 325              		.cfi_restore 4
 326              		.cfi_def_cfa_offset 0
 327              	.LVL49:
 328              		.loc 1 323 0
 329 0176 FFF7FEBF 		b	stage_rfft_f32
 330              	.LVL50:
 331              	.L15:
 332              		.cfi_restore_state
 333              		.loc 1 312 0
 334 017a FFF7FEFF 		bl	merge_rfft_f32
 335              	.LVL51:
 336              		.loc 1 315 0
 337 017e 2046     		mov	r0, r4
 338 0180 3146     		mov	r1, r6
 339 0182 2A46     		mov	r2, r5
 340 0184 0123     		movs	r3, #1
 341              		.loc 1 325 0
ARM GAS  /tmp/cc0ojrn7.s 			page 7


 342 0186 BDE8F041 		pop	{r4, r5, r6, r7, r8, lr}
 343              		.cfi_restore 14
 344              		.cfi_restore 8
 345              		.cfi_restore 7
 346              		.cfi_restore 6
 347              		.cfi_restore 5
 348              		.cfi_restore 4
 349              		.cfi_def_cfa_offset 0
 350              	.LVL52:
 351              		.loc 1 315 0
 352 018a FFF7FEBF 		b	arm_cfft_f32
 353              	.LVL53:
 354              		.cfi_endproc
 355              	.LFE137:
 356              		.size	arm_rfft_fast_f32, .-arm_rfft_fast_f32
 357              	.Letext0:
 358              		.file 2 "/d_drive/axoloti/platform_linux/arm-none-eabi/include/machine/_default_types.h"
 359              		.file 3 "/d_drive/axoloti/platform_linux/arm-none-eabi/include/sys/_stdint.h"
 360              		.file 4 "/d_drive/axoloti/platform_linux/../CMSIS//DSP_Lib/Include/arm_math.h"
 361 018e 00BF     		.section	.debug_info,"",%progbits
 362              	.Ldebug_info0:
 363 0000 DF040000 		.4byte	0x4df
 364 0004 0400     		.2byte	0x4
 365 0006 00000000 		.4byte	.Ldebug_abbrev0
 366 000a 04       		.byte	0x4
 367 000b 01       		.uleb128 0x1
 368 000c E6000000 		.4byte	.LASF36
 369 0010 01       		.byte	0x1
 370 0011 EA010000 		.4byte	.LASF37
 371 0015 00000000 		.4byte	.Ltext0
 372 0019 8E010000 		.4byte	.Letext0-.Ltext0
 373 001d 00000000 		.4byte	.Ldebug_line0
 374 0021 02       		.uleb128 0x2
 375 0022 04       		.byte	0x4
 376 0023 04       		.byte	0x4
 377 0024 00030000 		.4byte	.LASF0
 378 0028 02       		.uleb128 0x2
 379 0029 01       		.byte	0x1
 380 002a 06       		.byte	0x6
 381 002b 06030000 		.4byte	.LASF1
 382 002f 03       		.uleb128 0x3
 383 0030 0D000000 		.4byte	.LASF4
 384 0034 02       		.byte	0x2
 385 0035 1D       		.byte	0x1d
 386 0036 3A000000 		.4byte	0x3a
 387 003a 02       		.uleb128 0x2
 388 003b 01       		.byte	0x1
 389 003c 08       		.byte	0x8
 390 003d 69000000 		.4byte	.LASF2
 391 0041 02       		.uleb128 0x2
 392 0042 02       		.byte	0x2
 393 0043 05       		.byte	0x5
 394 0044 CF020000 		.4byte	.LASF3
 395 0048 03       		.uleb128 0x3
 396 0049 D4000000 		.4byte	.LASF5
 397 004d 02       		.byte	0x2
 398 004e 2B       		.byte	0x2b
ARM GAS  /tmp/cc0ojrn7.s 			page 8


 399 004f 53000000 		.4byte	0x53
 400 0053 02       		.uleb128 0x2
 401 0054 02       		.byte	0x2
 402 0055 07       		.byte	0x7
 403 0056 96000000 		.4byte	.LASF6
 404 005a 02       		.uleb128 0x2
 405 005b 04       		.byte	0x4
 406 005c 05       		.byte	0x5
 407 005d EB020000 		.4byte	.LASF7
 408 0061 03       		.uleb128 0x3
 409 0062 DF010000 		.4byte	.LASF8
 410 0066 02       		.byte	0x2
 411 0067 41       		.byte	0x41
 412 0068 6C000000 		.4byte	0x6c
 413 006c 02       		.uleb128 0x2
 414 006d 04       		.byte	0x4
 415 006e 07       		.byte	0x7
 416 006f 84000000 		.4byte	.LASF9
 417 0073 02       		.uleb128 0x2
 418 0074 08       		.byte	0x8
 419 0075 05       		.byte	0x5
 420 0076 A9020000 		.4byte	.LASF10
 421 007a 02       		.uleb128 0x2
 422 007b 08       		.byte	0x8
 423 007c 07       		.byte	0x7
 424 007d 76020000 		.4byte	.LASF11
 425 0081 04       		.uleb128 0x4
 426 0082 04       		.byte	0x4
 427 0083 05       		.byte	0x5
 428 0084 696E7400 		.ascii	"int\000"
 429 0088 02       		.uleb128 0x2
 430 0089 04       		.byte	0x4
 431 008a 07       		.byte	0x7
 432 008b 53020000 		.4byte	.LASF12
 433 008f 03       		.uleb128 0x3
 434 0090 8D020000 		.4byte	.LASF13
 435 0094 03       		.byte	0x3
 436 0095 14       		.byte	0x14
 437 0096 2F000000 		.4byte	0x2f
 438 009a 03       		.uleb128 0x3
 439 009b D9020000 		.4byte	.LASF14
 440 009f 03       		.byte	0x3
 441 00a0 1A       		.byte	0x1a
 442 00a1 48000000 		.4byte	0x48
 443 00a5 03       		.uleb128 0x3
 444 00a6 E2020000 		.4byte	.LASF15
 445 00aa 03       		.byte	0x3
 446 00ab 20       		.byte	0x20
 447 00ac 61000000 		.4byte	0x61
 448 00b0 02       		.uleb128 0x2
 449 00b1 04       		.byte	0x4
 450 00b2 07       		.byte	0x7
 451 00b3 A0020000 		.4byte	.LASF16
 452 00b7 02       		.uleb128 0x2
 453 00b8 01       		.byte	0x1
 454 00b9 08       		.byte	0x8
 455 00ba C0020000 		.4byte	.LASF17
ARM GAS  /tmp/cc0ojrn7.s 			page 9


 456 00be 02       		.uleb128 0x2
 457 00bf 08       		.byte	0x8
 458 00c0 04       		.byte	0x4
 459 00c1 DF000000 		.4byte	.LASF18
 460 00c5 02       		.uleb128 0x2
 461 00c6 08       		.byte	0x8
 462 00c7 04       		.byte	0x4
 463 00c8 F4020000 		.4byte	.LASF19
 464 00cc 05       		.uleb128 0x5
 465 00cd C5020000 		.4byte	.LASF20
 466 00d1 04       		.byte	0x4
 467 00d2 AA01     		.2byte	0x1aa
 468 00d4 21000000 		.4byte	0x21
 469 00d8 06       		.uleb128 0x6
 470 00d9 04       		.byte	0x4
 471 00da CC000000 		.4byte	0xcc
 472 00de 06       		.uleb128 0x6
 473 00df 04       		.byte	0x4
 474 00e0 E4000000 		.4byte	0xe4
 475 00e4 07       		.uleb128 0x7
 476 00e5 9A000000 		.4byte	0x9a
 477 00e9 08       		.uleb128 0x8
 478 00ea 10       		.byte	0x10
 479 00eb 04       		.byte	0x4
 480 00ec A308     		.2byte	0x8a3
 481 00ee 27010000 		.4byte	0x127
 482 00f2 09       		.uleb128 0x9
 483 00f3 BB000000 		.4byte	.LASF21
 484 00f7 04       		.byte	0x4
 485 00f8 A508     		.2byte	0x8a5
 486 00fa 9A000000 		.4byte	0x9a
 487 00fe 00       		.byte	0
 488 00ff 09       		.uleb128 0x9
 489 0100 B7020000 		.4byte	.LASF22
 490 0104 04       		.byte	0x4
 491 0105 A608     		.2byte	0x8a6
 492 0107 27010000 		.4byte	0x127
 493 010b 04       		.byte	0x4
 494 010c 09       		.uleb128 0x9
 495 010d 3C000000 		.4byte	.LASF23
 496 0111 04       		.byte	0x4
 497 0112 A708     		.2byte	0x8a7
 498 0114 DE000000 		.4byte	0xde
 499 0118 08       		.byte	0x8
 500 0119 09       		.uleb128 0x9
 501 011a C2000000 		.4byte	.LASF24
 502 011e 04       		.byte	0x4
 503 011f A808     		.2byte	0x8a8
 504 0121 9A000000 		.4byte	0x9a
 505 0125 0C       		.byte	0xc
 506 0126 00       		.byte	0
 507 0127 06       		.uleb128 0x6
 508 0128 04       		.byte	0x4
 509 0129 2D010000 		.4byte	0x12d
 510 012d 07       		.uleb128 0x7
 511 012e CC000000 		.4byte	0xcc
 512 0132 05       		.uleb128 0x5
ARM GAS  /tmp/cc0ojrn7.s 			page 10


 513 0133 60020000 		.4byte	.LASF25
 514 0137 04       		.byte	0x4
 515 0138 A908     		.2byte	0x8a9
 516 013a E9000000 		.4byte	0xe9
 517 013e 08       		.uleb128 0x8
 518 013f 18       		.byte	0x18
 519 0140 04       		.byte	0x4
 520 0141 0109     		.2byte	0x901
 521 0143 6F010000 		.4byte	0x16f
 522 0147 09       		.uleb128 0x9
 523 0148 CF000000 		.4byte	.LASF26
 524 014c 04       		.byte	0x4
 525 014d 0309     		.2byte	0x903
 526 014f 32010000 		.4byte	0x132
 527 0153 00       		.byte	0
 528 0154 09       		.uleb128 0x9
 529 0155 95020000 		.4byte	.LASF27
 530 0159 04       		.byte	0x4
 531 015a 0409     		.2byte	0x904
 532 015c 9A000000 		.4byte	0x9a
 533 0160 10       		.byte	0x10
 534 0161 09       		.uleb128 0x9
 535 0162 00000000 		.4byte	.LASF28
 536 0166 04       		.byte	0x4
 537 0167 0509     		.2byte	0x905
 538 0169 D8000000 		.4byte	0xd8
 539 016d 14       		.byte	0x14
 540 016e 00       		.byte	0
 541 016f 05       		.uleb128 0x5
 542 0170 4E000000 		.4byte	.LASF29
 543 0174 04       		.byte	0x4
 544 0175 0609     		.2byte	0x906
 545 0177 3E010000 		.4byte	0x13e
 546 017b 0A       		.uleb128 0xa
 547 017c 1E000000 		.4byte	.LASF32
 548 0180 01       		.byte	0x1
 549 0181 2B       		.byte	0x2b
 550 0182 00000000 		.4byte	.LFB135
 551 0186 A6000000 		.4byte	.LFE135-.LFB135
 552 018a 01       		.uleb128 0x1
 553 018b 9C       		.byte	0x9c
 554 018c B6020000 		.4byte	0x2b6
 555 0190 0B       		.uleb128 0xb
 556 0191 5300     		.ascii	"S\000"
 557 0193 01       		.byte	0x1
 558 0194 2C       		.byte	0x2c
 559 0195 B6020000 		.4byte	0x2b6
 560 0199 00000000 		.4byte	.LLST0
 561 019d 0B       		.uleb128 0xb
 562 019e 7000     		.ascii	"p\000"
 563 01a0 01       		.byte	0x1
 564 01a1 2D       		.byte	0x2d
 565 01a2 D8000000 		.4byte	0xd8
 566 01a6 21000000 		.4byte	.LLST1
 567 01aa 0C       		.uleb128 0xc
 568 01ab 49000000 		.4byte	.LASF30
 569 01af 01       		.byte	0x1
ARM GAS  /tmp/cc0ojrn7.s 			page 11


 570 01b0 2D       		.byte	0x2d
 571 01b1 D8000000 		.4byte	0xd8
 572 01b5 42000000 		.4byte	.LLST2
 573 01b9 0D       		.uleb128 0xd
 574 01ba 6B00     		.ascii	"k\000"
 575 01bc 01       		.byte	0x1
 576 01bd 2F       		.byte	0x2f
 577 01be A5000000 		.4byte	0xa5
 578 01c2 C1000000 		.4byte	.LLST3
 579 01c6 0D       		.uleb128 0xd
 580 01c7 74775200 		.ascii	"twR\000"
 581 01cb 01       		.byte	0x1
 582 01cc 30       		.byte	0x30
 583 01cd CC000000 		.4byte	0xcc
 584 01d1 E1000000 		.4byte	.LLST4
 585 01d5 0D       		.uleb128 0xd
 586 01d6 74774900 		.ascii	"twI\000"
 587 01da 01       		.byte	0x1
 588 01db 30       		.byte	0x30
 589 01dc CC000000 		.4byte	0xcc
 590 01e0 01010000 		.4byte	.LLST5
 591 01e4 0E       		.uleb128 0xe
 592 01e5 17000000 		.4byte	.LASF31
 593 01e9 01       		.byte	0x1
 594 01ea 31       		.byte	0x31
 595 01eb D8000000 		.4byte	0xd8
 596 01ef 21010000 		.4byte	.LLST6
 597 01f3 0D       		.uleb128 0xd
 598 01f4 704100   		.ascii	"pA\000"
 599 01f7 01       		.byte	0x1
 600 01f8 32       		.byte	0x32
 601 01f9 D8000000 		.4byte	0xd8
 602 01fd B4010000 		.4byte	.LLST7
 603 0201 0D       		.uleb128 0xd
 604 0202 704200   		.ascii	"pB\000"
 605 0205 01       		.byte	0x1
 606 0206 33       		.byte	0x33
 607 0207 D8000000 		.4byte	0xd8
 608 020b EE010000 		.4byte	.LLST8
 609 020f 0D       		.uleb128 0xd
 610 0210 78415200 		.ascii	"xAR\000"
 611 0214 01       		.byte	0x1
 612 0215 34       		.byte	0x34
 613 0216 CC000000 		.4byte	0xcc
 614 021a 2D020000 		.4byte	.LLST9
 615 021e 0D       		.uleb128 0xd
 616 021f 78414900 		.ascii	"xAI\000"
 617 0223 01       		.byte	0x1
 618 0224 34       		.byte	0x34
 619 0225 CC000000 		.4byte	0xcc
 620 0229 65020000 		.4byte	.LLST10
 621 022d 0D       		.uleb128 0xd
 622 022e 78425200 		.ascii	"xBR\000"
 623 0232 01       		.byte	0x1
 624 0233 34       		.byte	0x34
 625 0234 CC000000 		.4byte	0xcc
 626 0238 85020000 		.4byte	.LLST11
ARM GAS  /tmp/cc0ojrn7.s 			page 12


 627 023c 0D       		.uleb128 0xd
 628 023d 78424900 		.ascii	"xBI\000"
 629 0241 01       		.byte	0x1
 630 0242 34       		.byte	0x34
 631 0243 CC000000 		.4byte	0xcc
 632 0247 A5020000 		.4byte	.LLST12
 633 024b 0D       		.uleb128 0xd
 634 024c 74316100 		.ascii	"t1a\000"
 635 0250 01       		.byte	0x1
 636 0251 35       		.byte	0x35
 637 0252 CC000000 		.4byte	0xcc
 638 0256 D1020000 		.4byte	.LLST13
 639 025a 0D       		.uleb128 0xd
 640 025b 74316200 		.ascii	"t1b\000"
 641 025f 01       		.byte	0x1
 642 0260 35       		.byte	0x35
 643 0261 CC000000 		.4byte	0xcc
 644 0265 F7020000 		.4byte	.LLST14
 645 0269 0F       		.uleb128 0xf
 646 026a 703000   		.ascii	"p0\000"
 647 026d 01       		.byte	0x1
 648 026e 36       		.byte	0x36
 649 026f CC000000 		.4byte	0xcc
 650 0273 08       		.uleb128 0x8
 651 0274 F5       		.byte	0xf5
 652 0275 4C       		.uleb128 0x4c
 653 0276 21       		.uleb128 0x21
 654 0277 F5       		.byte	0xf5
 655 0278 49       		.uleb128 0x49
 656 0279 21       		.uleb128 0x21
 657 027a 1E       		.byte	0x1e
 658 027b 9F       		.byte	0x9f
 659 027c 0F       		.uleb128 0xf
 660 027d 703100   		.ascii	"p1\000"
 661 0280 01       		.byte	0x1
 662 0281 36       		.byte	0x36
 663 0282 CC000000 		.4byte	0xcc
 664 0286 08       		.uleb128 0x8
 665 0287 F5       		.byte	0xf5
 666 0288 4B       		.uleb128 0x4b
 667 0289 21       		.uleb128 0x21
 668 028a F5       		.byte	0xf5
 669 028b 49       		.uleb128 0x49
 670 028c 21       		.uleb128 0x21
 671 028d 1E       		.byte	0x1e
 672 028e 9F       		.byte	0x9f
 673 028f 0F       		.uleb128 0xf
 674 0290 703200   		.ascii	"p2\000"
 675 0293 01       		.byte	0x1
 676 0294 36       		.byte	0x36
 677 0295 CC000000 		.4byte	0xcc
 678 0299 08       		.uleb128 0x8
 679 029a F5       		.byte	0xf5
 680 029b 4C       		.uleb128 0x4c
 681 029c 21       		.uleb128 0x21
 682 029d F5       		.byte	0xf5
 683 029e 4D       		.uleb128 0x4d
ARM GAS  /tmp/cc0ojrn7.s 			page 13


 684 029f 21       		.uleb128 0x21
 685 02a0 1E       		.byte	0x1e
 686 02a1 9F       		.byte	0x9f
 687 02a2 0F       		.uleb128 0xf
 688 02a3 703300   		.ascii	"p3\000"
 689 02a6 01       		.byte	0x1
 690 02a7 36       		.byte	0x36
 691 02a8 CC000000 		.4byte	0xcc
 692 02ac 08       		.uleb128 0x8
 693 02ad F5       		.byte	0xf5
 694 02ae 4B       		.uleb128 0x4b
 695 02af 21       		.uleb128 0x21
 696 02b0 F5       		.byte	0xf5
 697 02b1 4D       		.uleb128 0x4d
 698 02b2 21       		.uleb128 0x21
 699 02b3 1E       		.byte	0x1e
 700 02b4 9F       		.byte	0x9f
 701 02b5 00       		.byte	0
 702 02b6 06       		.uleb128 0x6
 703 02b7 04       		.byte	0x4
 704 02b8 6F010000 		.4byte	0x16f
 705 02bc 0A       		.uleb128 0xa
 706 02bd 2D000000 		.4byte	.LASF33
 707 02c1 01       		.byte	0x1
 708 02c2 81       		.byte	0x81
 709 02c3 B0000000 		.4byte	.LFB136
 710 02c7 A0000000 		.4byte	.LFE136-.LFB136
 711 02cb 01       		.uleb128 0x1
 712 02cc 9C       		.byte	0x9c
 713 02cd DF030000 		.4byte	0x3df
 714 02d1 0B       		.uleb128 0xb
 715 02d2 5300     		.ascii	"S\000"
 716 02d4 01       		.byte	0x1
 717 02d5 82       		.byte	0x82
 718 02d6 B6020000 		.4byte	0x2b6
 719 02da 0B030000 		.4byte	.LLST15
 720 02de 0B       		.uleb128 0xb
 721 02df 7000     		.ascii	"p\000"
 722 02e1 01       		.byte	0x1
 723 02e2 83       		.byte	0x83
 724 02e3 D8000000 		.4byte	0xd8
 725 02e7 2C030000 		.4byte	.LLST16
 726 02eb 0C       		.uleb128 0xc
 727 02ec 49000000 		.4byte	.LASF30
 728 02f0 01       		.byte	0x1
 729 02f1 83       		.byte	0x83
 730 02f2 D8000000 		.4byte	0xd8
 731 02f6 4D030000 		.4byte	.LLST17
 732 02fa 0D       		.uleb128 0xd
 733 02fb 6B00     		.ascii	"k\000"
 734 02fd 01       		.byte	0x1
 735 02fe 85       		.byte	0x85
 736 02ff A5000000 		.4byte	0xa5
 737 0303 CC030000 		.4byte	.LLST18
 738 0307 0D       		.uleb128 0xd
 739 0308 74775200 		.ascii	"twR\000"
 740 030c 01       		.byte	0x1
ARM GAS  /tmp/cc0ojrn7.s 			page 14


 741 030d 86       		.byte	0x86
 742 030e CC000000 		.4byte	0xcc
 743 0312 EC030000 		.4byte	.LLST19
 744 0316 0D       		.uleb128 0xd
 745 0317 74774900 		.ascii	"twI\000"
 746 031b 01       		.byte	0x1
 747 031c 86       		.byte	0x86
 748 031d CC000000 		.4byte	0xcc
 749 0321 18040000 		.4byte	.LLST20
 750 0325 0E       		.uleb128 0xe
 751 0326 17000000 		.4byte	.LASF31
 752 032a 01       		.byte	0x1
 753 032b 87       		.byte	0x87
 754 032c D8000000 		.4byte	0xd8
 755 0330 2C040000 		.4byte	.LLST21
 756 0334 0D       		.uleb128 0xd
 757 0335 704100   		.ascii	"pA\000"
 758 0338 01       		.byte	0x1
 759 0339 88       		.byte	0x88
 760 033a D8000000 		.4byte	0xd8
 761 033e BC040000 		.4byte	.LLST22
 762 0342 0D       		.uleb128 0xd
 763 0343 704200   		.ascii	"pB\000"
 764 0346 01       		.byte	0x1
 765 0347 89       		.byte	0x89
 766 0348 D8000000 		.4byte	0xd8
 767 034c F6040000 		.4byte	.LLST23
 768 0350 0D       		.uleb128 0xd
 769 0351 78415200 		.ascii	"xAR\000"
 770 0355 01       		.byte	0x1
 771 0356 8A       		.byte	0x8a
 772 0357 CC000000 		.4byte	0xcc
 773 035b 57050000 		.4byte	.LLST24
 774 035f 0D       		.uleb128 0xd
 775 0360 78414900 		.ascii	"xAI\000"
 776 0364 01       		.byte	0x1
 777 0365 8A       		.byte	0x8a
 778 0366 CC000000 		.4byte	0xcc
 779 036a 8F050000 		.4byte	.LLST25
 780 036e 0D       		.uleb128 0xd
 781 036f 78425200 		.ascii	"xBR\000"
 782 0373 01       		.byte	0x1
 783 0374 8A       		.byte	0x8a
 784 0375 CC000000 		.4byte	0xcc
 785 0379 BB050000 		.4byte	.LLST26
 786 037d 0D       		.uleb128 0xd
 787 037e 78424900 		.ascii	"xBI\000"
 788 0382 01       		.byte	0x1
 789 0383 8A       		.byte	0x8a
 790 0384 CC000000 		.4byte	0xcc
 791 0388 CF050000 		.4byte	.LLST27
 792 038c 0D       		.uleb128 0xd
 793 038d 74316100 		.ascii	"t1a\000"
 794 0391 01       		.byte	0x1
 795 0392 8B       		.byte	0x8b
 796 0393 CC000000 		.4byte	0xcc
 797 0397 E3050000 		.4byte	.LLST28
ARM GAS  /tmp/cc0ojrn7.s 			page 15


 798 039b 0D       		.uleb128 0xd
 799 039c 74316200 		.ascii	"t1b\000"
 800 03a0 01       		.byte	0x1
 801 03a1 8B       		.byte	0x8b
 802 03a2 CC000000 		.4byte	0xcc
 803 03a6 F7050000 		.4byte	.LLST29
 804 03aa 0D       		.uleb128 0xd
 805 03ab 7200     		.ascii	"r\000"
 806 03ad 01       		.byte	0x1
 807 03ae 8B       		.byte	0x8b
 808 03af CC000000 		.4byte	0xcc
 809 03b3 0B060000 		.4byte	.LLST30
 810 03b7 0D       		.uleb128 0xd
 811 03b8 7300     		.ascii	"s\000"
 812 03ba 01       		.byte	0x1
 813 03bb 8B       		.byte	0x8b
 814 03bc CC000000 		.4byte	0xcc
 815 03c0 27060000 		.4byte	.LLST31
 816 03c4 0D       		.uleb128 0xd
 817 03c5 7400     		.ascii	"t\000"
 818 03c7 01       		.byte	0x1
 819 03c8 8B       		.byte	0x8b
 820 03c9 CC000000 		.4byte	0xcc
 821 03cd 41060000 		.4byte	.LLST32
 822 03d1 0D       		.uleb128 0xd
 823 03d2 7500     		.ascii	"u\000"
 824 03d4 01       		.byte	0x1
 825 03d5 8B       		.byte	0x8b
 826 03d6 CC000000 		.4byte	0xcc
 827 03da 5B060000 		.4byte	.LLST33
 828 03de 00       		.byte	0
 829 03df 10       		.uleb128 0x10
 830 03e0 A9000000 		.4byte	.LASF34
 831 03e4 01       		.byte	0x1
 832 03e5 2C01     		.2byte	0x12c
 833 03e7 50010000 		.4byte	.LFB137
 834 03eb 3E000000 		.4byte	.LFE137-.LFB137
 835 03ef 01       		.uleb128 0x1
 836 03f0 9C       		.byte	0x9c
 837 03f1 B0040000 		.4byte	0x4b0
 838 03f5 11       		.uleb128 0x11
 839 03f6 5300     		.ascii	"S\000"
 840 03f8 01       		.byte	0x1
 841 03f9 2D01     		.2byte	0x12d
 842 03fb B6020000 		.4byte	0x2b6
 843 03ff 77060000 		.4byte	.LLST34
 844 0403 11       		.uleb128 0x11
 845 0404 7000     		.ascii	"p\000"
 846 0406 01       		.byte	0x1
 847 0407 2E01     		.2byte	0x12e
 848 0409 D8000000 		.4byte	0xd8
 849 040d DD060000 		.4byte	.LLST35
 850 0411 12       		.uleb128 0x12
 851 0412 49000000 		.4byte	.LASF30
 852 0416 01       		.byte	0x1
 853 0417 2E01     		.2byte	0x12e
 854 0419 D8000000 		.4byte	0xd8
ARM GAS  /tmp/cc0ojrn7.s 			page 16


 855 041d 2D070000 		.4byte	.LLST36
 856 0421 12       		.uleb128 0x12
 857 0422 4A020000 		.4byte	.LASF35
 858 0426 01       		.byte	0x1
 859 0427 2F01     		.2byte	0x12f
 860 0429 8F000000 		.4byte	0x8f
 861 042d 93070000 		.4byte	.LLST37
 862 0431 13       		.uleb128 0x13
 863 0432 CF000000 		.4byte	.LASF26
 864 0436 01       		.byte	0x1
 865 0437 3101     		.2byte	0x131
 866 0439 B0040000 		.4byte	0x4b0
 867 043d CD070000 		.4byte	.LLST38
 868 0441 14       		.uleb128 0x14
 869 0442 6C010000 		.4byte	.LVL48
 870 0446 B6040000 		.4byte	0x4b6
 871 044a 66040000 		.4byte	0x466
 872 044e 15       		.uleb128 0x15
 873 044f 01       		.uleb128 0x1
 874 0450 53       		.byte	0x53
 875 0451 01       		.uleb128 0x1
 876 0452 31       		.byte	0x31
 877 0453 15       		.uleb128 0x15
 878 0454 01       		.uleb128 0x1
 879 0455 52       		.byte	0x52
 880 0456 02       		.uleb128 0x2
 881 0457 75       		.byte	0x75
 882 0458 00       		.sleb128 0
 883 0459 15       		.uleb128 0x15
 884 045a 01       		.uleb128 0x1
 885 045b 51       		.byte	0x51
 886 045c 02       		.uleb128 0x2
 887 045d 77       		.byte	0x77
 888 045e 00       		.sleb128 0
 889 045f 15       		.uleb128 0x15
 890 0460 01       		.uleb128 0x1
 891 0461 50       		.byte	0x50
 892 0462 02       		.uleb128 0x2
 893 0463 74       		.byte	0x74
 894 0464 00       		.sleb128 0
 895 0465 00       		.byte	0
 896 0466 16       		.uleb128 0x16
 897 0467 7A010000 		.4byte	.LVL50
 898 046b 7B010000 		.4byte	0x17b
 899 046f 89040000 		.4byte	0x489
 900 0473 15       		.uleb128 0x15
 901 0474 01       		.uleb128 0x1
 902 0475 52       		.byte	0x52
 903 0476 03       		.uleb128 0x3
 904 0477 F3       		.byte	0xf3
 905 0478 01       		.uleb128 0x1
 906 0479 52       		.byte	0x52
 907 047a 15       		.uleb128 0x15
 908 047b 01       		.uleb128 0x1
 909 047c 51       		.byte	0x51
 910 047d 03       		.uleb128 0x3
 911 047e F3       		.byte	0xf3
ARM GAS  /tmp/cc0ojrn7.s 			page 17


 912 047f 01       		.uleb128 0x1
 913 0480 51       		.byte	0x51
 914 0481 15       		.uleb128 0x15
 915 0482 01       		.uleb128 0x1
 916 0483 50       		.byte	0x50
 917 0484 03       		.uleb128 0x3
 918 0485 F3       		.byte	0xf3
 919 0486 01       		.uleb128 0x1
 920 0487 50       		.byte	0x50
 921 0488 00       		.byte	0
 922 0489 17       		.uleb128 0x17
 923 048a 7E010000 		.4byte	.LVL51
 924 048e BC020000 		.4byte	0x2bc
 925 0492 18       		.uleb128 0x18
 926 0493 8E010000 		.4byte	.LVL53
 927 0497 B6040000 		.4byte	0x4b6
 928 049b 15       		.uleb128 0x15
 929 049c 01       		.uleb128 0x1
 930 049d 53       		.byte	0x53
 931 049e 01       		.uleb128 0x1
 932 049f 31       		.byte	0x31
 933 04a0 15       		.uleb128 0x15
 934 04a1 01       		.uleb128 0x1
 935 04a2 51       		.byte	0x51
 936 04a3 03       		.uleb128 0x3
 937 04a4 F3       		.byte	0xf3
 938 04a5 01       		.uleb128 0x1
 939 04a6 52       		.byte	0x52
 940 04a7 15       		.uleb128 0x15
 941 04a8 01       		.uleb128 0x1
 942 04a9 50       		.byte	0x50
 943 04aa 03       		.uleb128 0x3
 944 04ab F3       		.byte	0xf3
 945 04ac 01       		.uleb128 0x1
 946 04ad 50       		.byte	0x50
 947 04ae 00       		.byte	0
 948 04af 00       		.byte	0
 949 04b0 06       		.uleb128 0x6
 950 04b1 04       		.byte	0x4
 951 04b2 32010000 		.4byte	0x132
 952 04b6 19       		.uleb128 0x19
 953 04b7 77000000 		.4byte	.LASF38
 954 04bb 04       		.byte	0x4
 955 04bc AB08     		.2byte	0x8ab
 956 04be D7040000 		.4byte	0x4d7
 957 04c2 1A       		.uleb128 0x1a
 958 04c3 D7040000 		.4byte	0x4d7
 959 04c7 1A       		.uleb128 0x1a
 960 04c8 D8000000 		.4byte	0xd8
 961 04cc 1A       		.uleb128 0x1a
 962 04cd 8F000000 		.4byte	0x8f
 963 04d1 1A       		.uleb128 0x1a
 964 04d2 8F000000 		.4byte	0x8f
 965 04d6 00       		.byte	0
 966 04d7 06       		.uleb128 0x6
 967 04d8 04       		.byte	0x4
 968 04d9 DD040000 		.4byte	0x4dd
ARM GAS  /tmp/cc0ojrn7.s 			page 18


 969 04dd 07       		.uleb128 0x7
 970 04de 32010000 		.4byte	0x132
 971 04e2 00       		.byte	0
 972              		.section	.debug_abbrev,"",%progbits
 973              	.Ldebug_abbrev0:
 974 0000 01       		.uleb128 0x1
 975 0001 11       		.uleb128 0x11
 976 0002 01       		.byte	0x1
 977 0003 25       		.uleb128 0x25
 978 0004 0E       		.uleb128 0xe
 979 0005 13       		.uleb128 0x13
 980 0006 0B       		.uleb128 0xb
 981 0007 03       		.uleb128 0x3
 982 0008 0E       		.uleb128 0xe
 983 0009 11       		.uleb128 0x11
 984 000a 01       		.uleb128 0x1
 985 000b 12       		.uleb128 0x12
 986 000c 06       		.uleb128 0x6
 987 000d 10       		.uleb128 0x10
 988 000e 17       		.uleb128 0x17
 989 000f 00       		.byte	0
 990 0010 00       		.byte	0
 991 0011 02       		.uleb128 0x2
 992 0012 24       		.uleb128 0x24
 993 0013 00       		.byte	0
 994 0014 0B       		.uleb128 0xb
 995 0015 0B       		.uleb128 0xb
 996 0016 3E       		.uleb128 0x3e
 997 0017 0B       		.uleb128 0xb
 998 0018 03       		.uleb128 0x3
 999 0019 0E       		.uleb128 0xe
 1000 001a 00       		.byte	0
 1001 001b 00       		.byte	0
 1002 001c 03       		.uleb128 0x3
 1003 001d 16       		.uleb128 0x16
 1004 001e 00       		.byte	0
 1005 001f 03       		.uleb128 0x3
 1006 0020 0E       		.uleb128 0xe
 1007 0021 3A       		.uleb128 0x3a
 1008 0022 0B       		.uleb128 0xb
 1009 0023 3B       		.uleb128 0x3b
 1010 0024 0B       		.uleb128 0xb
 1011 0025 49       		.uleb128 0x49
 1012 0026 13       		.uleb128 0x13
 1013 0027 00       		.byte	0
 1014 0028 00       		.byte	0
 1015 0029 04       		.uleb128 0x4
 1016 002a 24       		.uleb128 0x24
 1017 002b 00       		.byte	0
 1018 002c 0B       		.uleb128 0xb
 1019 002d 0B       		.uleb128 0xb
 1020 002e 3E       		.uleb128 0x3e
 1021 002f 0B       		.uleb128 0xb
 1022 0030 03       		.uleb128 0x3
 1023 0031 08       		.uleb128 0x8
 1024 0032 00       		.byte	0
 1025 0033 00       		.byte	0
ARM GAS  /tmp/cc0ojrn7.s 			page 19


 1026 0034 05       		.uleb128 0x5
 1027 0035 16       		.uleb128 0x16
 1028 0036 00       		.byte	0
 1029 0037 03       		.uleb128 0x3
 1030 0038 0E       		.uleb128 0xe
 1031 0039 3A       		.uleb128 0x3a
 1032 003a 0B       		.uleb128 0xb
 1033 003b 3B       		.uleb128 0x3b
 1034 003c 05       		.uleb128 0x5
 1035 003d 49       		.uleb128 0x49
 1036 003e 13       		.uleb128 0x13
 1037 003f 00       		.byte	0
 1038 0040 00       		.byte	0
 1039 0041 06       		.uleb128 0x6
 1040 0042 0F       		.uleb128 0xf
 1041 0043 00       		.byte	0
 1042 0044 0B       		.uleb128 0xb
 1043 0045 0B       		.uleb128 0xb
 1044 0046 49       		.uleb128 0x49
 1045 0047 13       		.uleb128 0x13
 1046 0048 00       		.byte	0
 1047 0049 00       		.byte	0
 1048 004a 07       		.uleb128 0x7
 1049 004b 26       		.uleb128 0x26
 1050 004c 00       		.byte	0
 1051 004d 49       		.uleb128 0x49
 1052 004e 13       		.uleb128 0x13
 1053 004f 00       		.byte	0
 1054 0050 00       		.byte	0
 1055 0051 08       		.uleb128 0x8
 1056 0052 13       		.uleb128 0x13
 1057 0053 01       		.byte	0x1
 1058 0054 0B       		.uleb128 0xb
 1059 0055 0B       		.uleb128 0xb
 1060 0056 3A       		.uleb128 0x3a
 1061 0057 0B       		.uleb128 0xb
 1062 0058 3B       		.uleb128 0x3b
 1063 0059 05       		.uleb128 0x5
 1064 005a 01       		.uleb128 0x1
 1065 005b 13       		.uleb128 0x13
 1066 005c 00       		.byte	0
 1067 005d 00       		.byte	0
 1068 005e 09       		.uleb128 0x9
 1069 005f 0D       		.uleb128 0xd
 1070 0060 00       		.byte	0
 1071 0061 03       		.uleb128 0x3
 1072 0062 0E       		.uleb128 0xe
 1073 0063 3A       		.uleb128 0x3a
 1074 0064 0B       		.uleb128 0xb
 1075 0065 3B       		.uleb128 0x3b
 1076 0066 05       		.uleb128 0x5
 1077 0067 49       		.uleb128 0x49
 1078 0068 13       		.uleb128 0x13
 1079 0069 38       		.uleb128 0x38
 1080 006a 0B       		.uleb128 0xb
 1081 006b 00       		.byte	0
 1082 006c 00       		.byte	0
ARM GAS  /tmp/cc0ojrn7.s 			page 20


 1083 006d 0A       		.uleb128 0xa
 1084 006e 2E       		.uleb128 0x2e
 1085 006f 01       		.byte	0x1
 1086 0070 3F       		.uleb128 0x3f
 1087 0071 19       		.uleb128 0x19
 1088 0072 03       		.uleb128 0x3
 1089 0073 0E       		.uleb128 0xe
 1090 0074 3A       		.uleb128 0x3a
 1091 0075 0B       		.uleb128 0xb
 1092 0076 3B       		.uleb128 0x3b
 1093 0077 0B       		.uleb128 0xb
 1094 0078 27       		.uleb128 0x27
 1095 0079 19       		.uleb128 0x19
 1096 007a 11       		.uleb128 0x11
 1097 007b 01       		.uleb128 0x1
 1098 007c 12       		.uleb128 0x12
 1099 007d 06       		.uleb128 0x6
 1100 007e 40       		.uleb128 0x40
 1101 007f 18       		.uleb128 0x18
 1102 0080 9742     		.uleb128 0x2117
 1103 0082 19       		.uleb128 0x19
 1104 0083 01       		.uleb128 0x1
 1105 0084 13       		.uleb128 0x13
 1106 0085 00       		.byte	0
 1107 0086 00       		.byte	0
 1108 0087 0B       		.uleb128 0xb
 1109 0088 05       		.uleb128 0x5
 1110 0089 00       		.byte	0
 1111 008a 03       		.uleb128 0x3
 1112 008b 08       		.uleb128 0x8
 1113 008c 3A       		.uleb128 0x3a
 1114 008d 0B       		.uleb128 0xb
 1115 008e 3B       		.uleb128 0x3b
 1116 008f 0B       		.uleb128 0xb
 1117 0090 49       		.uleb128 0x49
 1118 0091 13       		.uleb128 0x13
 1119 0092 02       		.uleb128 0x2
 1120 0093 17       		.uleb128 0x17
 1121 0094 00       		.byte	0
 1122 0095 00       		.byte	0
 1123 0096 0C       		.uleb128 0xc
 1124 0097 05       		.uleb128 0x5
 1125 0098 00       		.byte	0
 1126 0099 03       		.uleb128 0x3
 1127 009a 0E       		.uleb128 0xe
 1128 009b 3A       		.uleb128 0x3a
 1129 009c 0B       		.uleb128 0xb
 1130 009d 3B       		.uleb128 0x3b
 1131 009e 0B       		.uleb128 0xb
 1132 009f 49       		.uleb128 0x49
 1133 00a0 13       		.uleb128 0x13
 1134 00a1 02       		.uleb128 0x2
 1135 00a2 17       		.uleb128 0x17
 1136 00a3 00       		.byte	0
 1137 00a4 00       		.byte	0
 1138 00a5 0D       		.uleb128 0xd
 1139 00a6 34       		.uleb128 0x34
ARM GAS  /tmp/cc0ojrn7.s 			page 21


 1140 00a7 00       		.byte	0
 1141 00a8 03       		.uleb128 0x3
 1142 00a9 08       		.uleb128 0x8
 1143 00aa 3A       		.uleb128 0x3a
 1144 00ab 0B       		.uleb128 0xb
 1145 00ac 3B       		.uleb128 0x3b
 1146 00ad 0B       		.uleb128 0xb
 1147 00ae 49       		.uleb128 0x49
 1148 00af 13       		.uleb128 0x13
 1149 00b0 02       		.uleb128 0x2
 1150 00b1 17       		.uleb128 0x17
 1151 00b2 00       		.byte	0
 1152 00b3 00       		.byte	0
 1153 00b4 0E       		.uleb128 0xe
 1154 00b5 34       		.uleb128 0x34
 1155 00b6 00       		.byte	0
 1156 00b7 03       		.uleb128 0x3
 1157 00b8 0E       		.uleb128 0xe
 1158 00b9 3A       		.uleb128 0x3a
 1159 00ba 0B       		.uleb128 0xb
 1160 00bb 3B       		.uleb128 0x3b
 1161 00bc 0B       		.uleb128 0xb
 1162 00bd 49       		.uleb128 0x49
 1163 00be 13       		.uleb128 0x13
 1164 00bf 02       		.uleb128 0x2
 1165 00c0 17       		.uleb128 0x17
 1166 00c1 00       		.byte	0
 1167 00c2 00       		.byte	0
 1168 00c3 0F       		.uleb128 0xf
 1169 00c4 34       		.uleb128 0x34
 1170 00c5 00       		.byte	0
 1171 00c6 03       		.uleb128 0x3
 1172 00c7 08       		.uleb128 0x8
 1173 00c8 3A       		.uleb128 0x3a
 1174 00c9 0B       		.uleb128 0xb
 1175 00ca 3B       		.uleb128 0x3b
 1176 00cb 0B       		.uleb128 0xb
 1177 00cc 49       		.uleb128 0x49
 1178 00cd 13       		.uleb128 0x13
 1179 00ce 02       		.uleb128 0x2
 1180 00cf 18       		.uleb128 0x18
 1181 00d0 00       		.byte	0
 1182 00d1 00       		.byte	0
 1183 00d2 10       		.uleb128 0x10
 1184 00d3 2E       		.uleb128 0x2e
 1185 00d4 01       		.byte	0x1
 1186 00d5 3F       		.uleb128 0x3f
 1187 00d6 19       		.uleb128 0x19
 1188 00d7 03       		.uleb128 0x3
 1189 00d8 0E       		.uleb128 0xe
 1190 00d9 3A       		.uleb128 0x3a
 1191 00da 0B       		.uleb128 0xb
 1192 00db 3B       		.uleb128 0x3b
 1193 00dc 05       		.uleb128 0x5
 1194 00dd 27       		.uleb128 0x27
 1195 00de 19       		.uleb128 0x19
 1196 00df 11       		.uleb128 0x11
ARM GAS  /tmp/cc0ojrn7.s 			page 22


 1197 00e0 01       		.uleb128 0x1
 1198 00e1 12       		.uleb128 0x12
 1199 00e2 06       		.uleb128 0x6
 1200 00e3 40       		.uleb128 0x40
 1201 00e4 18       		.uleb128 0x18
 1202 00e5 9742     		.uleb128 0x2117
 1203 00e7 19       		.uleb128 0x19
 1204 00e8 01       		.uleb128 0x1
 1205 00e9 13       		.uleb128 0x13
 1206 00ea 00       		.byte	0
 1207 00eb 00       		.byte	0
 1208 00ec 11       		.uleb128 0x11
 1209 00ed 05       		.uleb128 0x5
 1210 00ee 00       		.byte	0
 1211 00ef 03       		.uleb128 0x3
 1212 00f0 08       		.uleb128 0x8
 1213 00f1 3A       		.uleb128 0x3a
 1214 00f2 0B       		.uleb128 0xb
 1215 00f3 3B       		.uleb128 0x3b
 1216 00f4 05       		.uleb128 0x5
 1217 00f5 49       		.uleb128 0x49
 1218 00f6 13       		.uleb128 0x13
 1219 00f7 02       		.uleb128 0x2
 1220 00f8 17       		.uleb128 0x17
 1221 00f9 00       		.byte	0
 1222 00fa 00       		.byte	0
 1223 00fb 12       		.uleb128 0x12
 1224 00fc 05       		.uleb128 0x5
 1225 00fd 00       		.byte	0
 1226 00fe 03       		.uleb128 0x3
 1227 00ff 0E       		.uleb128 0xe
 1228 0100 3A       		.uleb128 0x3a
 1229 0101 0B       		.uleb128 0xb
 1230 0102 3B       		.uleb128 0x3b
 1231 0103 05       		.uleb128 0x5
 1232 0104 49       		.uleb128 0x49
 1233 0105 13       		.uleb128 0x13
 1234 0106 02       		.uleb128 0x2
 1235 0107 17       		.uleb128 0x17
 1236 0108 00       		.byte	0
 1237 0109 00       		.byte	0
 1238 010a 13       		.uleb128 0x13
 1239 010b 34       		.uleb128 0x34
 1240 010c 00       		.byte	0
 1241 010d 03       		.uleb128 0x3
 1242 010e 0E       		.uleb128 0xe
 1243 010f 3A       		.uleb128 0x3a
 1244 0110 0B       		.uleb128 0xb
 1245 0111 3B       		.uleb128 0x3b
 1246 0112 05       		.uleb128 0x5
 1247 0113 49       		.uleb128 0x49
 1248 0114 13       		.uleb128 0x13
 1249 0115 02       		.uleb128 0x2
 1250 0116 17       		.uleb128 0x17
 1251 0117 00       		.byte	0
 1252 0118 00       		.byte	0
 1253 0119 14       		.uleb128 0x14
ARM GAS  /tmp/cc0ojrn7.s 			page 23


 1254 011a 898201   		.uleb128 0x4109
 1255 011d 01       		.byte	0x1
 1256 011e 11       		.uleb128 0x11
 1257 011f 01       		.uleb128 0x1
 1258 0120 31       		.uleb128 0x31
 1259 0121 13       		.uleb128 0x13
 1260 0122 01       		.uleb128 0x1
 1261 0123 13       		.uleb128 0x13
 1262 0124 00       		.byte	0
 1263 0125 00       		.byte	0
 1264 0126 15       		.uleb128 0x15
 1265 0127 8A8201   		.uleb128 0x410a
 1266 012a 00       		.byte	0
 1267 012b 02       		.uleb128 0x2
 1268 012c 18       		.uleb128 0x18
 1269 012d 9142     		.uleb128 0x2111
 1270 012f 18       		.uleb128 0x18
 1271 0130 00       		.byte	0
 1272 0131 00       		.byte	0
 1273 0132 16       		.uleb128 0x16
 1274 0133 898201   		.uleb128 0x4109
 1275 0136 01       		.byte	0x1
 1276 0137 11       		.uleb128 0x11
 1277 0138 01       		.uleb128 0x1
 1278 0139 9542     		.uleb128 0x2115
 1279 013b 19       		.uleb128 0x19
 1280 013c 31       		.uleb128 0x31
 1281 013d 13       		.uleb128 0x13
 1282 013e 01       		.uleb128 0x1
 1283 013f 13       		.uleb128 0x13
 1284 0140 00       		.byte	0
 1285 0141 00       		.byte	0
 1286 0142 17       		.uleb128 0x17
 1287 0143 898201   		.uleb128 0x4109
 1288 0146 00       		.byte	0
 1289 0147 11       		.uleb128 0x11
 1290 0148 01       		.uleb128 0x1
 1291 0149 31       		.uleb128 0x31
 1292 014a 13       		.uleb128 0x13
 1293 014b 00       		.byte	0
 1294 014c 00       		.byte	0
 1295 014d 18       		.uleb128 0x18
 1296 014e 898201   		.uleb128 0x4109
 1297 0151 01       		.byte	0x1
 1298 0152 11       		.uleb128 0x11
 1299 0153 01       		.uleb128 0x1
 1300 0154 9542     		.uleb128 0x2115
 1301 0156 19       		.uleb128 0x19
 1302 0157 31       		.uleb128 0x31
 1303 0158 13       		.uleb128 0x13
 1304 0159 00       		.byte	0
 1305 015a 00       		.byte	0
 1306 015b 19       		.uleb128 0x19
 1307 015c 2E       		.uleb128 0x2e
 1308 015d 01       		.byte	0x1
 1309 015e 3F       		.uleb128 0x3f
 1310 015f 19       		.uleb128 0x19
ARM GAS  /tmp/cc0ojrn7.s 			page 24


 1311 0160 03       		.uleb128 0x3
 1312 0161 0E       		.uleb128 0xe
 1313 0162 3A       		.uleb128 0x3a
 1314 0163 0B       		.uleb128 0xb
 1315 0164 3B       		.uleb128 0x3b
 1316 0165 05       		.uleb128 0x5
 1317 0166 27       		.uleb128 0x27
 1318 0167 19       		.uleb128 0x19
 1319 0168 3C       		.uleb128 0x3c
 1320 0169 19       		.uleb128 0x19
 1321 016a 01       		.uleb128 0x1
 1322 016b 13       		.uleb128 0x13
 1323 016c 00       		.byte	0
 1324 016d 00       		.byte	0
 1325 016e 1A       		.uleb128 0x1a
 1326 016f 05       		.uleb128 0x5
 1327 0170 00       		.byte	0
 1328 0171 49       		.uleb128 0x49
 1329 0172 13       		.uleb128 0x13
 1330 0173 00       		.byte	0
 1331 0174 00       		.byte	0
 1332 0175 00       		.byte	0
 1333              		.section	.debug_loc,"",%progbits
 1334              	.Ldebug_loc0:
 1335              	.LLST0:
 1336 0000 00000000 		.4byte	.LVL0-.Ltext0
 1337 0004 22000000 		.4byte	.LVL1-.Ltext0
 1338 0008 0100     		.2byte	0x1
 1339 000a 50       		.byte	0x50
 1340 000b 22000000 		.4byte	.LVL1-.Ltext0
 1341 000f A6000000 		.4byte	.LFE135-.Ltext0
 1342 0013 0400     		.2byte	0x4
 1343 0015 F3       		.byte	0xf3
 1344 0016 01       		.uleb128 0x1
 1345 0017 50       		.byte	0x50
 1346 0018 9F       		.byte	0x9f
 1347 0019 00000000 		.4byte	0
 1348 001d 00000000 		.4byte	0
 1349              	.LLST1:
 1350 0021 00000000 		.4byte	.LVL0-.Ltext0
 1351 0025 44000000 		.4byte	.LVL6-.Ltext0
 1352 0029 0100     		.2byte	0x1
 1353 002b 51       		.byte	0x51
 1354 002c 44000000 		.4byte	.LVL6-.Ltext0
 1355 0030 A6000000 		.4byte	.LFE135-.Ltext0
 1356 0034 0400     		.2byte	0x4
 1357 0036 F3       		.byte	0xf3
 1358 0037 01       		.uleb128 0x1
 1359 0038 51       		.byte	0x51
 1360 0039 9F       		.byte	0x9f
 1361 003a 00000000 		.4byte	0
 1362 003e 00000000 		.4byte	0
 1363              	.LLST2:
 1364 0042 00000000 		.4byte	.LVL0-.Ltext0
 1365 0046 28000000 		.4byte	.LVL2-.Ltext0
 1366 004a 0100     		.2byte	0x1
 1367 004c 52       		.byte	0x52
ARM GAS  /tmp/cc0ojrn7.s 			page 25


 1368 004d 28000000 		.4byte	.LVL2-.Ltext0
 1369 0051 38000000 		.4byte	.LVL3-.Ltext0
 1370 0055 0300     		.2byte	0x3
 1371 0057 72       		.byte	0x72
 1372 0058 04       		.sleb128 4
 1373 0059 9F       		.byte	0x9f
 1374 005a 38000000 		.4byte	.LVL3-.Ltext0
 1375 005e 40000000 		.4byte	.LVL5-.Ltext0
 1376 0062 0300     		.2byte	0x3
 1377 0064 72       		.byte	0x72
 1378 0065 08       		.sleb128 8
 1379 0066 9F       		.byte	0x9f
 1380 0067 40000000 		.4byte	.LVL5-.Ltext0
 1381 006b 44000000 		.4byte	.LVL6-.Ltext0
 1382 006f 0300     		.2byte	0x3
 1383 0071 72       		.byte	0x72
 1384 0072 78       		.sleb128 -8
 1385 0073 9F       		.byte	0x9f
 1386 0074 44000000 		.4byte	.LVL6-.Ltext0
 1387 0078 7A000000 		.4byte	.LVL15-.Ltext0
 1388 007c 0D00     		.2byte	0xd
 1389 007e F3       		.byte	0xf3
 1390 007f 01       		.uleb128 0x1
 1391 0080 52       		.byte	0x52
 1392 0081 F3       		.byte	0xf3
 1393 0082 01       		.uleb128 0x1
 1394 0083 51       		.byte	0x51
 1395 0084 1C       		.byte	0x1c
 1396 0085 71       		.byte	0x71
 1397 0086 00       		.sleb128 0
 1398 0087 22       		.byte	0x22
 1399 0088 38       		.byte	0x38
 1400 0089 1C       		.byte	0x1c
 1401 008a 9F       		.byte	0x9f
 1402 008b 7A000000 		.4byte	.LVL15-.Ltext0
 1403 008f 82000000 		.4byte	.LVL16-.Ltext0
 1404 0093 0D00     		.2byte	0xd
 1405 0095 71       		.byte	0x71
 1406 0096 00       		.sleb128 0
 1407 0097 F3       		.byte	0xf3
 1408 0098 01       		.uleb128 0x1
 1409 0099 51       		.byte	0x51
 1410 009a 1C       		.byte	0x1c
 1411 009b F3       		.byte	0xf3
 1412 009c 01       		.uleb128 0x1
 1413 009d 52       		.byte	0x52
 1414 009e 22       		.byte	0x22
 1415 009f 40       		.byte	0x40
 1416 00a0 1C       		.byte	0x1c
 1417 00a1 9F       		.byte	0x9f
 1418 00a2 82000000 		.4byte	.LVL16-.Ltext0
 1419 00a6 9A000000 		.4byte	.LVL17-.Ltext0
 1420 00aa 0D00     		.2byte	0xd
 1421 00ac 71       		.byte	0x71
 1422 00ad 00       		.sleb128 0
 1423 00ae F3       		.byte	0xf3
 1424 00af 01       		.uleb128 0x1
ARM GAS  /tmp/cc0ojrn7.s 			page 26


 1425 00b0 52       		.byte	0x52
 1426 00b1 22       		.byte	0x22
 1427 00b2 F3       		.byte	0xf3
 1428 00b3 01       		.uleb128 0x1
 1429 00b4 51       		.byte	0x51
 1430 00b5 1C       		.byte	0x1c
 1431 00b6 3C       		.byte	0x3c
 1432 00b7 1C       		.byte	0x1c
 1433 00b8 9F       		.byte	0x9f
 1434 00b9 00000000 		.4byte	0
 1435 00bd 00000000 		.4byte	0
 1436              	.LLST3:
 1437 00c1 28000000 		.4byte	.LVL2-.Ltext0
 1438 00c5 6E000000 		.4byte	.LVL13-.Ltext0
 1439 00c9 0100     		.2byte	0x1
 1440 00cb 54       		.byte	0x54
 1441 00cc 6E000000 		.4byte	.LVL13-.Ltext0
 1442 00d0 9E000000 		.4byte	.LVL18-.Ltext0
 1443 00d4 0300     		.2byte	0x3
 1444 00d6 74       		.byte	0x74
 1445 00d7 01       		.sleb128 1
 1446 00d8 9F       		.byte	0x9f
 1447 00d9 00000000 		.4byte	0
 1448 00dd 00000000 		.4byte	0
 1449              	.LLST4:
 1450 00e1 28000000 		.4byte	.LVL2-.Ltext0
 1451 00e5 38000000 		.4byte	.LVL3-.Ltext0
 1452 00e9 0200     		.2byte	0x2
 1453 00eb 70       		.byte	0x70
 1454 00ec 00       		.sleb128 0
 1455 00ed 5C000000 		.4byte	.LVL10-.Ltext0
 1456 00f1 A6000000 		.4byte	.LFE135-.Ltext0
 1457 00f5 0200     		.2byte	0x2
 1458 00f7 90       		.byte	0x90
 1459 00f8 4C       		.uleb128 0x4c
 1460 00f9 00000000 		.4byte	0
 1461 00fd 00000000 		.4byte	0
 1462              	.LLST5:
 1463 0101 28000000 		.4byte	.LVL2-.Ltext0
 1464 0105 38000000 		.4byte	.LVL3-.Ltext0
 1465 0109 0200     		.2byte	0x2
 1466 010b 70       		.byte	0x70
 1467 010c 04       		.sleb128 4
 1468 010d 5C000000 		.4byte	.LVL10-.Ltext0
 1469 0111 A6000000 		.4byte	.LFE135-.Ltext0
 1470 0115 0200     		.2byte	0x2
 1471 0117 90       		.byte	0x90
 1472 0118 4B       		.uleb128 0x4b
 1473 0119 00000000 		.4byte	0
 1474 011d 00000000 		.4byte	0
 1475              	.LLST6:
 1476 0121 22000000 		.4byte	.LVL1-.Ltext0
 1477 0125 28000000 		.4byte	.LVL2-.Ltext0
 1478 0129 0100     		.2byte	0x1
 1479 012b 50       		.byte	0x50
 1480 012c 28000000 		.4byte	.LVL2-.Ltext0
 1481 0130 3E000000 		.4byte	.LVL4-.Ltext0
ARM GAS  /tmp/cc0ojrn7.s 			page 27


 1482 0134 0300     		.2byte	0x3
 1483 0136 70       		.byte	0x70
 1484 0137 08       		.sleb128 8
 1485 0138 9F       		.byte	0x9f
 1486 0139 3E000000 		.4byte	.LVL4-.Ltext0
 1487 013d 44000000 		.4byte	.LVL6-.Ltext0
 1488 0141 0300     		.2byte	0x3
 1489 0143 70       		.byte	0x70
 1490 0144 78       		.sleb128 -8
 1491 0145 9F       		.byte	0x9f
 1492 0146 44000000 		.4byte	.LVL6-.Ltext0
 1493 014a 54000000 		.4byte	.LVL9-.Ltext0
 1494 014e 1000     		.2byte	0x10
 1495 0150 F3       		.byte	0xf3
 1496 0151 01       		.uleb128 0x1
 1497 0152 50       		.byte	0x50
 1498 0153 23       		.byte	0x23
 1499 0154 14       		.uleb128 0x14
 1500 0155 06       		.byte	0x6
 1501 0156 F3       		.byte	0xf3
 1502 0157 01       		.uleb128 0x1
 1503 0158 51       		.byte	0x51
 1504 0159 1C       		.byte	0x1c
 1505 015a 71       		.byte	0x71
 1506 015b 00       		.sleb128 0
 1507 015c 22       		.byte	0x22
 1508 015d 38       		.byte	0x38
 1509 015e 1C       		.byte	0x1c
 1510 015f 9F       		.byte	0x9f
 1511 0160 54000000 		.4byte	.LVL9-.Ltext0
 1512 0164 5C000000 		.4byte	.LVL10-.Ltext0
 1513 0168 1000     		.2byte	0x10
 1514 016a F3       		.byte	0xf3
 1515 016b 01       		.uleb128 0x1
 1516 016c 50       		.byte	0x50
 1517 016d 23       		.byte	0x23
 1518 016e 14       		.uleb128 0x14
 1519 016f 06       		.byte	0x6
 1520 0170 71       		.byte	0x71
 1521 0171 00       		.sleb128 0
 1522 0172 22       		.byte	0x22
 1523 0173 F3       		.byte	0xf3
 1524 0174 01       		.uleb128 0x1
 1525 0175 51       		.byte	0x51
 1526 0176 1C       		.byte	0x1c
 1527 0177 34       		.byte	0x34
 1528 0178 1C       		.byte	0x1c
 1529 0179 9F       		.byte	0x9f
 1530 017a 5C000000 		.4byte	.LVL10-.Ltext0
 1531 017e 7A000000 		.4byte	.LVL15-.Ltext0
 1532 0182 0E00     		.2byte	0xe
 1533 0184 F3       		.byte	0xf3
 1534 0185 01       		.uleb128 0x1
 1535 0186 50       		.byte	0x50
 1536 0187 23       		.byte	0x23
 1537 0188 14       		.uleb128 0x14
 1538 0189 06       		.byte	0x6
ARM GAS  /tmp/cc0ojrn7.s 			page 28


 1539 018a F3       		.byte	0xf3
 1540 018b 01       		.uleb128 0x1
 1541 018c 51       		.byte	0x51
 1542 018d 1C       		.byte	0x1c
 1543 018e 71       		.byte	0x71
 1544 018f 00       		.sleb128 0
 1545 0190 22       		.byte	0x22
 1546 0191 9F       		.byte	0x9f
 1547 0192 7A000000 		.4byte	.LVL15-.Ltext0
 1548 0196 A6000000 		.4byte	.LFE135-.Ltext0
 1549 019a 1000     		.2byte	0x10
 1550 019c F3       		.byte	0xf3
 1551 019d 01       		.uleb128 0x1
 1552 019e 50       		.byte	0x50
 1553 019f 23       		.byte	0x23
 1554 01a0 14       		.uleb128 0x14
 1555 01a1 06       		.byte	0x6
 1556 01a2 F3       		.byte	0xf3
 1557 01a3 01       		.uleb128 0x1
 1558 01a4 51       		.byte	0x51
 1559 01a5 1C       		.byte	0x1c
 1560 01a6 71       		.byte	0x71
 1561 01a7 00       		.sleb128 0
 1562 01a8 22       		.byte	0x22
 1563 01a9 38       		.byte	0x38
 1564 01aa 1C       		.byte	0x1c
 1565 01ab 9F       		.byte	0x9f
 1566 01ac 00000000 		.4byte	0
 1567 01b0 00000000 		.4byte	0
 1568              	.LLST7:
 1569 01b4 22000000 		.4byte	.LVL1-.Ltext0
 1570 01b8 38000000 		.4byte	.LVL3-.Ltext0
 1571 01bc 0100     		.2byte	0x1
 1572 01be 51       		.byte	0x51
 1573 01bf 38000000 		.4byte	.LVL3-.Ltext0
 1574 01c3 44000000 		.4byte	.LVL6-.Ltext0
 1575 01c7 0300     		.2byte	0x3
 1576 01c9 71       		.byte	0x71
 1577 01ca 08       		.sleb128 8
 1578 01cb 9F       		.byte	0x9f
 1579 01cc 44000000 		.4byte	.LVL6-.Ltext0
 1580 01d0 7A000000 		.4byte	.LVL15-.Ltext0
 1581 01d4 0300     		.2byte	0x3
 1582 01d6 71       		.byte	0x71
 1583 01d7 78       		.sleb128 -8
 1584 01d8 9F       		.byte	0x9f
 1585 01d9 7A000000 		.4byte	.LVL15-.Ltext0
 1586 01dd 9E000000 		.4byte	.LVL18-.Ltext0
 1587 01e1 0300     		.2byte	0x3
 1588 01e3 71       		.byte	0x71
 1589 01e4 70       		.sleb128 -16
 1590 01e5 9F       		.byte	0x9f
 1591 01e6 00000000 		.4byte	0
 1592 01ea 00000000 		.4byte	0
 1593              	.LLST8:
 1594 01ee 22000000 		.4byte	.LVL1-.Ltext0
 1595 01f2 38000000 		.4byte	.LVL3-.Ltext0
ARM GAS  /tmp/cc0ojrn7.s 			page 29


 1596 01f6 0100     		.2byte	0x1
 1597 01f8 51       		.byte	0x51
 1598 01f9 38000000 		.4byte	.LVL3-.Ltext0
 1599 01fd 44000000 		.4byte	.LVL6-.Ltext0
 1600 0201 0800     		.2byte	0x8
 1601 0203 74       		.byte	0x74
 1602 0204 00       		.sleb128 0
 1603 0205 33       		.byte	0x33
 1604 0206 24       		.byte	0x24
 1605 0207 71       		.byte	0x71
 1606 0208 00       		.sleb128 0
 1607 0209 22       		.byte	0x22
 1608 020a 9F       		.byte	0x9f
 1609 020b 44000000 		.4byte	.LVL6-.Ltext0
 1610 020f 72000000 		.4byte	.LVL14-.Ltext0
 1611 0213 0300     		.2byte	0x3
 1612 0215 73       		.byte	0x73
 1613 0216 08       		.sleb128 8
 1614 0217 9F       		.byte	0x9f
 1615 0218 72000000 		.4byte	.LVL14-.Ltext0
 1616 021c 9E000000 		.4byte	.LVL18-.Ltext0
 1617 0220 0300     		.2byte	0x3
 1618 0222 73       		.byte	0x73
 1619 0223 10       		.sleb128 16
 1620 0224 9F       		.byte	0x9f
 1621 0225 00000000 		.4byte	0
 1622 0229 00000000 		.4byte	0
 1623              	.LLST9:
 1624 022d 28000000 		.4byte	.LVL2-.Ltext0
 1625 0231 44000000 		.4byte	.LVL6-.Ltext0
 1626 0235 0200     		.2byte	0x2
 1627 0237 90       		.byte	0x90
 1628 0238 4C       		.uleb128 0x4c
 1629 0239 54000000 		.4byte	.LVL9-.Ltext0
 1630 023d 68000000 		.4byte	.LVL12-.Ltext0
 1631 0241 0200     		.2byte	0x2
 1632 0243 90       		.byte	0x90
 1633 0244 4F       		.uleb128 0x4f
 1634 0245 68000000 		.4byte	.LVL12-.Ltext0
 1635 0249 7A000000 		.4byte	.LVL15-.Ltext0
 1636 024d 0200     		.2byte	0x2
 1637 024f 71       		.byte	0x71
 1638 0250 78       		.sleb128 -8
 1639 0251 7A000000 		.4byte	.LVL15-.Ltext0
 1640 0255 9A000000 		.4byte	.LVL17-.Ltext0
 1641 0259 0200     		.2byte	0x2
 1642 025b 71       		.byte	0x71
 1643 025c 70       		.sleb128 -16
 1644 025d 00000000 		.4byte	0
 1645 0261 00000000 		.4byte	0
 1646              	.LLST10:
 1647 0265 28000000 		.4byte	.LVL2-.Ltext0
 1648 0269 38000000 		.4byte	.LVL3-.Ltext0
 1649 026d 0200     		.2byte	0x2
 1650 026f 71       		.byte	0x71
 1651 0270 04       		.sleb128 4
 1652 0271 54000000 		.4byte	.LVL9-.Ltext0
ARM GAS  /tmp/cc0ojrn7.s 			page 30


 1653 0275 A6000000 		.4byte	.LFE135-.Ltext0
 1654 0279 0200     		.2byte	0x2
 1655 027b 90       		.byte	0x90
 1656 027c 4A       		.uleb128 0x4a
 1657 027d 00000000 		.4byte	0
 1658 0281 00000000 		.4byte	0
 1659              	.LLST11:
 1660 0285 28000000 		.4byte	.LVL2-.Ltext0
 1661 0289 44000000 		.4byte	.LVL6-.Ltext0
 1662 028d 0200     		.2byte	0x2
 1663 028f 90       		.byte	0x90
 1664 0290 4C       		.uleb128 0x4c
 1665 0291 50000000 		.4byte	.LVL8-.Ltext0
 1666 0295 A6000000 		.4byte	.LFE135-.Ltext0
 1667 0299 0200     		.2byte	0x2
 1668 029b 90       		.byte	0x90
 1669 029c 48       		.uleb128 0x48
 1670 029d 00000000 		.4byte	0
 1671 02a1 00000000 		.4byte	0
 1672              	.LLST12:
 1673 02a5 28000000 		.4byte	.LVL2-.Ltext0
 1674 02a9 38000000 		.4byte	.LVL3-.Ltext0
 1675 02ad 0200     		.2byte	0x2
 1676 02af 71       		.byte	0x71
 1677 02b0 04       		.sleb128 4
 1678 02b1 48000000 		.4byte	.LVL7-.Ltext0
 1679 02b5 82000000 		.4byte	.LVL16-.Ltext0
 1680 02b9 0200     		.2byte	0x2
 1681 02bb 90       		.byte	0x90
 1682 02bc 4D       		.uleb128 0x4d
 1683 02bd 82000000 		.4byte	.LVL16-.Ltext0
 1684 02c1 9A000000 		.4byte	.LVL17-.Ltext0
 1685 02c5 0200     		.2byte	0x2
 1686 02c7 73       		.byte	0x73
 1687 02c8 14       		.sleb128 20
 1688 02c9 00000000 		.4byte	0
 1689 02cd 00000000 		.4byte	0
 1690              	.LLST13:
 1691 02d1 28000000 		.4byte	.LVL2-.Ltext0
 1692 02d5 44000000 		.4byte	.LVL6-.Ltext0
 1693 02d9 0800     		.2byte	0x8
 1694 02db F5       		.byte	0xf5
 1695 02dc 4C       		.uleb128 0x4c
 1696 02dd 21       		.uleb128 0x21
 1697 02de F5       		.byte	0xf5
 1698 02df 4C       		.uleb128 0x4c
 1699 02e0 21       		.uleb128 0x21
 1700 02e1 22       		.byte	0x22
 1701 02e2 9F       		.byte	0x9f
 1702 02e3 60000000 		.4byte	.LVL11-.Ltext0
 1703 02e7 A6000000 		.4byte	.LFE135-.Ltext0
 1704 02eb 0200     		.2byte	0x2
 1705 02ed 90       		.byte	0x90
 1706 02ee 49       		.uleb128 0x49
 1707 02ef 00000000 		.4byte	0
 1708 02f3 00000000 		.4byte	0
 1709              	.LLST14:
ARM GAS  /tmp/cc0ojrn7.s 			page 31


 1710 02f7 82000000 		.4byte	.LVL16-.Ltext0
 1711 02fb A6000000 		.4byte	.LFE135-.Ltext0
 1712 02ff 0200     		.2byte	0x2
 1713 0301 90       		.byte	0x90
 1714 0302 4D       		.uleb128 0x4d
 1715 0303 00000000 		.4byte	0
 1716 0307 00000000 		.4byte	0
 1717              	.LLST15:
 1718 030b B0000000 		.4byte	.LVL19-.Ltext0
 1719 030f CA000000 		.4byte	.LVL20-.Ltext0
 1720 0313 0100     		.2byte	0x1
 1721 0315 50       		.byte	0x50
 1722 0316 CA000000 		.4byte	.LVL20-.Ltext0
 1723 031a 50010000 		.4byte	.LFE136-.Ltext0
 1724 031e 0400     		.2byte	0x4
 1725 0320 F3       		.byte	0xf3
 1726 0321 01       		.uleb128 0x1
 1727 0322 50       		.byte	0x50
 1728 0323 9F       		.byte	0x9f
 1729 0324 00000000 		.4byte	0
 1730 0328 00000000 		.4byte	0
 1731              	.LLST16:
 1732 032c B0000000 		.4byte	.LVL19-.Ltext0
 1733 0330 EA000000 		.4byte	.LVL27-.Ltext0
 1734 0334 0100     		.2byte	0x1
 1735 0336 51       		.byte	0x51
 1736 0337 EA000000 		.4byte	.LVL27-.Ltext0
 1737 033b 50010000 		.4byte	.LFE136-.Ltext0
 1738 033f 0400     		.2byte	0x4
 1739 0341 F3       		.byte	0xf3
 1740 0342 01       		.uleb128 0x1
 1741 0343 51       		.byte	0x51
 1742 0344 9F       		.byte	0x9f
 1743 0345 00000000 		.4byte	0
 1744 0349 00000000 		.4byte	0
 1745              	.LLST17:
 1746 034d B0000000 		.4byte	.LVL19-.Ltext0
 1747 0351 D4000000 		.4byte	.LVL21-.Ltext0
 1748 0355 0100     		.2byte	0x1
 1749 0357 52       		.byte	0x52
 1750 0358 D4000000 		.4byte	.LVL21-.Ltext0
 1751 035c D8000000 		.4byte	.LVL22-.Ltext0
 1752 0360 0300     		.2byte	0x3
 1753 0362 72       		.byte	0x72
 1754 0363 04       		.sleb128 4
 1755 0364 9F       		.byte	0x9f
 1756 0365 D8000000 		.4byte	.LVL22-.Ltext0
 1757 0369 E8000000 		.4byte	.LVL26-.Ltext0
 1758 036d 0300     		.2byte	0x3
 1759 036f 72       		.byte	0x72
 1760 0370 08       		.sleb128 8
 1761 0371 9F       		.byte	0x9f
 1762 0372 E8000000 		.4byte	.LVL26-.Ltext0
 1763 0376 EA000000 		.4byte	.LVL27-.Ltext0
 1764 037a 0300     		.2byte	0x3
 1765 037c 72       		.byte	0x72
 1766 037d 78       		.sleb128 -8
ARM GAS  /tmp/cc0ojrn7.s 			page 32


 1767 037e 9F       		.byte	0x9f
 1768 037f EA000000 		.4byte	.LVL27-.Ltext0
 1769 0383 24010000 		.4byte	.LVL38-.Ltext0
 1770 0387 0D00     		.2byte	0xd
 1771 0389 F3       		.byte	0xf3
 1772 038a 01       		.uleb128 0x1
 1773 038b 52       		.byte	0x52
 1774 038c F3       		.byte	0xf3
 1775 038d 01       		.uleb128 0x1
 1776 038e 51       		.byte	0x51
 1777 038f 1C       		.byte	0x1c
 1778 0390 71       		.byte	0x71
 1779 0391 00       		.sleb128 0
 1780 0392 22       		.byte	0x22
 1781 0393 38       		.byte	0x38
 1782 0394 1C       		.byte	0x1c
 1783 0395 9F       		.byte	0x9f
 1784 0396 24010000 		.4byte	.LVL38-.Ltext0
 1785 039a 2C010000 		.4byte	.LVL40-.Ltext0
 1786 039e 0D00     		.2byte	0xd
 1787 03a0 71       		.byte	0x71
 1788 03a1 00       		.sleb128 0
 1789 03a2 F3       		.byte	0xf3
 1790 03a3 01       		.uleb128 0x1
 1791 03a4 51       		.byte	0x51
 1792 03a5 1C       		.byte	0x1c
 1793 03a6 F3       		.byte	0xf3
 1794 03a7 01       		.uleb128 0x1
 1795 03a8 52       		.byte	0x52
 1796 03a9 22       		.byte	0x22
 1797 03aa 40       		.byte	0x40
 1798 03ab 1C       		.byte	0x1c
 1799 03ac 9F       		.byte	0x9f
 1800 03ad 2C010000 		.4byte	.LVL40-.Ltext0
 1801 03b1 44010000 		.4byte	.LVL41-.Ltext0
 1802 03b5 0D00     		.2byte	0xd
 1803 03b7 71       		.byte	0x71
 1804 03b8 00       		.sleb128 0
 1805 03b9 F3       		.byte	0xf3
 1806 03ba 01       		.uleb128 0x1
 1807 03bb 52       		.byte	0x52
 1808 03bc 22       		.byte	0x22
 1809 03bd F3       		.byte	0xf3
 1810 03be 01       		.uleb128 0x1
 1811 03bf 51       		.byte	0x51
 1812 03c0 1C       		.byte	0x1c
 1813 03c1 3C       		.byte	0x3c
 1814 03c2 1C       		.byte	0x1c
 1815 03c3 9F       		.byte	0x9f
 1816 03c4 00000000 		.4byte	0
 1817 03c8 00000000 		.4byte	0
 1818              	.LLST18:
 1819 03cc D4000000 		.4byte	.LVL21-.Ltext0
 1820 03d0 18010000 		.4byte	.LVL36-.Ltext0
 1821 03d4 0100     		.2byte	0x1
 1822 03d6 54       		.byte	0x54
 1823 03d7 18010000 		.4byte	.LVL36-.Ltext0
ARM GAS  /tmp/cc0ojrn7.s 			page 33


 1824 03db 48010000 		.4byte	.LVL42-.Ltext0
 1825 03df 0300     		.2byte	0x3
 1826 03e1 74       		.byte	0x74
 1827 03e2 01       		.sleb128 1
 1828 03e3 9F       		.byte	0x9f
 1829 03e4 00000000 		.4byte	0
 1830 03e8 00000000 		.4byte	0
 1831              	.LLST19:
 1832 03ec FE000000 		.4byte	.LVL31-.Ltext0
 1833 03f0 12010000 		.4byte	.LVL35-.Ltext0
 1834 03f4 0200     		.2byte	0x2
 1835 03f6 90       		.byte	0x90
 1836 03f7 4C       		.uleb128 0x4c
 1837 03f8 12010000 		.4byte	.LVL35-.Ltext0
 1838 03fc 28010000 		.4byte	.LVL39-.Ltext0
 1839 0400 0200     		.2byte	0x2
 1840 0402 70       		.byte	0x70
 1841 0403 78       		.sleb128 -8
 1842 0404 28010000 		.4byte	.LVL39-.Ltext0
 1843 0408 44010000 		.4byte	.LVL41-.Ltext0
 1844 040c 0200     		.2byte	0x2
 1845 040e 70       		.byte	0x70
 1846 040f 70       		.sleb128 -16
 1847 0410 00000000 		.4byte	0
 1848 0414 00000000 		.4byte	0
 1849              	.LLST20:
 1850 0418 02010000 		.4byte	.LVL32-.Ltext0
 1851 041c 4A010000 		.4byte	.LVL43-.Ltext0
 1852 0420 0200     		.2byte	0x2
 1853 0422 90       		.byte	0x90
 1854 0423 4B       		.uleb128 0x4b
 1855 0424 00000000 		.4byte	0
 1856 0428 00000000 		.4byte	0
 1857              	.LLST21:
 1858 042c CA000000 		.4byte	.LVL20-.Ltext0
 1859 0430 D4000000 		.4byte	.LVL21-.Ltext0
 1860 0434 0500     		.2byte	0x5
 1861 0436 F3       		.byte	0xf3
 1862 0437 01       		.uleb128 0x1
 1863 0438 50       		.byte	0x50
 1864 0439 23       		.byte	0x23
 1865 043a 14       		.uleb128 0x14
 1866 043b D4000000 		.4byte	.LVL21-.Ltext0
 1867 043f EA000000 		.4byte	.LVL27-.Ltext0
 1868 0443 0900     		.2byte	0x9
 1869 0445 F3       		.byte	0xf3
 1870 0446 01       		.uleb128 0x1
 1871 0447 50       		.byte	0x50
 1872 0448 23       		.byte	0x23
 1873 0449 14       		.uleb128 0x14
 1874 044a 06       		.byte	0x6
 1875 044b 23       		.byte	0x23
 1876 044c 08       		.uleb128 0x8
 1877 044d 9F       		.byte	0x9f
 1878 044e EA000000 		.4byte	.LVL27-.Ltext0
 1879 0452 FA000000 		.4byte	.LVL30-.Ltext0
 1880 0456 1000     		.2byte	0x10
ARM GAS  /tmp/cc0ojrn7.s 			page 34


 1881 0458 F3       		.byte	0xf3
 1882 0459 01       		.uleb128 0x1
 1883 045a 50       		.byte	0x50
 1884 045b 23       		.byte	0x23
 1885 045c 14       		.uleb128 0x14
 1886 045d 06       		.byte	0x6
 1887 045e 71       		.byte	0x71
 1888 045f 00       		.sleb128 0
 1889 0460 22       		.byte	0x22
 1890 0461 F3       		.byte	0xf3
 1891 0462 01       		.uleb128 0x1
 1892 0463 51       		.byte	0x51
 1893 0464 1C       		.byte	0x1c
 1894 0465 38       		.byte	0x38
 1895 0466 1C       		.byte	0x1c
 1896 0467 9F       		.byte	0x9f
 1897 0468 FA000000 		.4byte	.LVL30-.Ltext0
 1898 046c FE000000 		.4byte	.LVL31-.Ltext0
 1899 0470 1000     		.2byte	0x10
 1900 0472 F3       		.byte	0xf3
 1901 0473 01       		.uleb128 0x1
 1902 0474 50       		.byte	0x50
 1903 0475 23       		.byte	0x23
 1904 0476 14       		.uleb128 0x14
 1905 0477 06       		.byte	0x6
 1906 0478 F3       		.byte	0xf3
 1907 0479 01       		.uleb128 0x1
 1908 047a 51       		.byte	0x51
 1909 047b 1C       		.byte	0x1c
 1910 047c 71       		.byte	0x71
 1911 047d 00       		.sleb128 0
 1912 047e 22       		.byte	0x22
 1913 047f 34       		.byte	0x34
 1914 0480 1C       		.byte	0x1c
 1915 0481 9F       		.byte	0x9f
 1916 0482 FE000000 		.4byte	.LVL31-.Ltext0
 1917 0486 24010000 		.4byte	.LVL38-.Ltext0
 1918 048a 0E00     		.2byte	0xe
 1919 048c F3       		.byte	0xf3
 1920 048d 01       		.uleb128 0x1
 1921 048e 50       		.byte	0x50
 1922 048f 23       		.byte	0x23
 1923 0490 14       		.uleb128 0x14
 1924 0491 06       		.byte	0x6
 1925 0492 F3       		.byte	0xf3
 1926 0493 01       		.uleb128 0x1
 1927 0494 51       		.byte	0x51
 1928 0495 1C       		.byte	0x1c
 1929 0496 71       		.byte	0x71
 1930 0497 00       		.sleb128 0
 1931 0498 22       		.byte	0x22
 1932 0499 9F       		.byte	0x9f
 1933 049a 24010000 		.4byte	.LVL38-.Ltext0
 1934 049e 4A010000 		.4byte	.LVL43-.Ltext0
 1935 04a2 1000     		.2byte	0x10
 1936 04a4 F3       		.byte	0xf3
 1937 04a5 01       		.uleb128 0x1
ARM GAS  /tmp/cc0ojrn7.s 			page 35


 1938 04a6 50       		.byte	0x50
 1939 04a7 23       		.byte	0x23
 1940 04a8 14       		.uleb128 0x14
 1941 04a9 06       		.byte	0x6
 1942 04aa 71       		.byte	0x71
 1943 04ab 00       		.sleb128 0
 1944 04ac 22       		.byte	0x22
 1945 04ad F3       		.byte	0xf3
 1946 04ae 01       		.uleb128 0x1
 1947 04af 51       		.byte	0x51
 1948 04b0 1C       		.byte	0x1c
 1949 04b1 38       		.byte	0x38
 1950 04b2 1C       		.byte	0x1c
 1951 04b3 9F       		.byte	0x9f
 1952 04b4 00000000 		.4byte	0
 1953 04b8 00000000 		.4byte	0
 1954              	.LLST22:
 1955 04bc CA000000 		.4byte	.LVL20-.Ltext0
 1956 04c0 DE000000 		.4byte	.LVL23-.Ltext0
 1957 04c4 0100     		.2byte	0x1
 1958 04c6 51       		.byte	0x51
 1959 04c7 DE000000 		.4byte	.LVL23-.Ltext0
 1960 04cb EA000000 		.4byte	.LVL27-.Ltext0
 1961 04cf 0300     		.2byte	0x3
 1962 04d1 71       		.byte	0x71
 1963 04d2 08       		.sleb128 8
 1964 04d3 9F       		.byte	0x9f
 1965 04d4 EA000000 		.4byte	.LVL27-.Ltext0
 1966 04d8 24010000 		.4byte	.LVL38-.Ltext0
 1967 04dc 0300     		.2byte	0x3
 1968 04de 71       		.byte	0x71
 1969 04df 78       		.sleb128 -8
 1970 04e0 9F       		.byte	0x9f
 1971 04e1 24010000 		.4byte	.LVL38-.Ltext0
 1972 04e5 48010000 		.4byte	.LVL42-.Ltext0
 1973 04e9 0300     		.2byte	0x3
 1974 04eb 71       		.byte	0x71
 1975 04ec 70       		.sleb128 -16
 1976 04ed 9F       		.byte	0x9f
 1977 04ee 00000000 		.4byte	0
 1978 04f2 00000000 		.4byte	0
 1979              	.LLST23:
 1980 04f6 CA000000 		.4byte	.LVL20-.Ltext0
 1981 04fa DE000000 		.4byte	.LVL23-.Ltext0
 1982 04fe 0100     		.2byte	0x1
 1983 0500 51       		.byte	0x51
 1984 0501 DE000000 		.4byte	.LVL23-.Ltext0
 1985 0505 E2000000 		.4byte	.LVL24-.Ltext0
 1986 0509 0600     		.2byte	0x6
 1987 050b 71       		.byte	0x71
 1988 050c 00       		.sleb128 0
 1989 050d 73       		.byte	0x73
 1990 050e 00       		.sleb128 0
 1991 050f 22       		.byte	0x22
 1992 0510 9F       		.byte	0x9f
 1993 0511 E2000000 		.4byte	.LVL24-.Ltext0
 1994 0515 E4000000 		.4byte	.LVL25-.Ltext0
ARM GAS  /tmp/cc0ojrn7.s 			page 36


 1995 0519 0800     		.2byte	0x8
 1996 051b 71       		.byte	0x71
 1997 051c 00       		.sleb128 0
 1998 051d 73       		.byte	0x73
 1999 051e 00       		.sleb128 0
 2000 051f 22       		.byte	0x22
 2001 0520 23       		.byte	0x23
 2002 0521 08       		.uleb128 0x8
 2003 0522 9F       		.byte	0x9f
 2004 0523 E4000000 		.4byte	.LVL25-.Ltext0
 2005 0527 EA000000 		.4byte	.LVL27-.Ltext0
 2006 052b 0800     		.2byte	0x8
 2007 052d 74       		.byte	0x74
 2008 052e 00       		.sleb128 0
 2009 052f 33       		.byte	0x33
 2010 0530 24       		.byte	0x24
 2011 0531 71       		.byte	0x71
 2012 0532 00       		.sleb128 0
 2013 0533 22       		.byte	0x22
 2014 0534 9F       		.byte	0x9f
 2015 0535 EA000000 		.4byte	.LVL27-.Ltext0
 2016 0539 1C010000 		.4byte	.LVL37-.Ltext0
 2017 053d 0300     		.2byte	0x3
 2018 053f 73       		.byte	0x73
 2019 0540 08       		.sleb128 8
 2020 0541 9F       		.byte	0x9f
 2021 0542 1C010000 		.4byte	.LVL37-.Ltext0
 2022 0546 48010000 		.4byte	.LVL42-.Ltext0
 2023 054a 0300     		.2byte	0x3
 2024 054c 73       		.byte	0x73
 2025 054d 10       		.sleb128 16
 2026 054e 9F       		.byte	0x9f
 2027 054f 00000000 		.4byte	0
 2028 0553 00000000 		.4byte	0
 2029              	.LLST24:
 2030 0557 D4000000 		.4byte	.LVL21-.Ltext0
 2031 055b D8000000 		.4byte	.LVL22-.Ltext0
 2032 055f 0200     		.2byte	0x2
 2033 0561 71       		.byte	0x71
 2034 0562 00       		.sleb128 0
 2035 0563 FA000000 		.4byte	.LVL30-.Ltext0
 2036 0567 0E010000 		.4byte	.LVL34-.Ltext0
 2037 056b 0200     		.2byte	0x2
 2038 056d 90       		.byte	0x90
 2039 056e 4F       		.uleb128 0x4f
 2040 056f 0E010000 		.4byte	.LVL34-.Ltext0
 2041 0573 24010000 		.4byte	.LVL38-.Ltext0
 2042 0577 0200     		.2byte	0x2
 2043 0579 71       		.byte	0x71
 2044 057a 78       		.sleb128 -8
 2045 057b 24010000 		.4byte	.LVL38-.Ltext0
 2046 057f 44010000 		.4byte	.LVL41-.Ltext0
 2047 0583 0200     		.2byte	0x2
 2048 0585 71       		.byte	0x71
 2049 0586 70       		.sleb128 -16
 2050 0587 00000000 		.4byte	0
 2051 058b 00000000 		.4byte	0
ARM GAS  /tmp/cc0ojrn7.s 			page 37


 2052              	.LLST25:
 2053 058f D4000000 		.4byte	.LVL21-.Ltext0
 2054 0593 EA000000 		.4byte	.LVL27-.Ltext0
 2055 0597 0200     		.2byte	0x2
 2056 0599 90       		.byte	0x90
 2057 059a 4D       		.uleb128 0x4d
 2058 059b FA000000 		.4byte	.LVL30-.Ltext0
 2059 059f 2C010000 		.4byte	.LVL40-.Ltext0
 2060 05a3 0200     		.2byte	0x2
 2061 05a5 90       		.byte	0x90
 2062 05a6 4D       		.uleb128 0x4d
 2063 05a7 2C010000 		.4byte	.LVL40-.Ltext0
 2064 05ab 44010000 		.4byte	.LVL41-.Ltext0
 2065 05af 0200     		.2byte	0x2
 2066 05b1 71       		.byte	0x71
 2067 05b2 74       		.sleb128 -12
 2068 05b3 00000000 		.4byte	0
 2069 05b7 00000000 		.4byte	0
 2070              	.LLST26:
 2071 05bb F6000000 		.4byte	.LVL29-.Ltext0
 2072 05bf 4A010000 		.4byte	.LVL43-.Ltext0
 2073 05c3 0200     		.2byte	0x2
 2074 05c5 90       		.byte	0x90
 2075 05c6 48       		.uleb128 0x48
 2076 05c7 00000000 		.4byte	0
 2077 05cb 00000000 		.4byte	0
 2078              	.LLST27:
 2079 05cf EE000000 		.4byte	.LVL28-.Ltext0
 2080 05d3 4A010000 		.4byte	.LVL43-.Ltext0
 2081 05d7 0200     		.2byte	0x2
 2082 05d9 90       		.byte	0x90
 2083 05da 4A       		.uleb128 0x4a
 2084 05db 00000000 		.4byte	0
 2085 05df 00000000 		.4byte	0
 2086              	.LLST28:
 2087 05e3 06010000 		.4byte	.LVL33-.Ltext0
 2088 05e7 4A010000 		.4byte	.LVL43-.Ltext0
 2089 05eb 0200     		.2byte	0x2
 2090 05ed 90       		.byte	0x90
 2091 05ee 49       		.uleb128 0x49
 2092 05ef 00000000 		.4byte	0
 2093 05f3 00000000 		.4byte	0
 2094              	.LLST29:
 2095 05f7 2C010000 		.4byte	.LVL40-.Ltext0
 2096 05fb 4A010000 		.4byte	.LVL43-.Ltext0
 2097 05ff 0200     		.2byte	0x2
 2098 0601 90       		.byte	0x90
 2099 0602 4D       		.uleb128 0x4d
 2100 0603 00000000 		.4byte	0
 2101 0607 00000000 		.4byte	0
 2102              	.LLST30:
 2103 060b 2C010000 		.4byte	.LVL40-.Ltext0
 2104 060f 44010000 		.4byte	.LVL41-.Ltext0
 2105 0613 0A00     		.2byte	0xa
 2106 0615 70       		.byte	0x70
 2107 0616 70       		.sleb128 -16
 2108 0617 F6       		.byte	0xf6
ARM GAS  /tmp/cc0ojrn7.s 			page 38


 2109 0618 04       		.byte	0x4
 2110 0619 21       		.uleb128 0x21
 2111 061a F5       		.byte	0xf5
 2112 061b 49       		.uleb128 0x49
 2113 061c 21       		.uleb128 0x21
 2114 061d 1E       		.byte	0x1e
 2115 061e 9F       		.byte	0x9f
 2116 061f 00000000 		.4byte	0
 2117 0623 00000000 		.4byte	0
 2118              	.LLST31:
 2119 0627 2C010000 		.4byte	.LVL40-.Ltext0
 2120 062b 4A010000 		.4byte	.LVL43-.Ltext0
 2121 062f 0800     		.2byte	0x8
 2122 0631 F5       		.byte	0xf5
 2123 0632 4B       		.uleb128 0x4b
 2124 0633 21       		.uleb128 0x21
 2125 0634 F5       		.byte	0xf5
 2126 0635 4D       		.uleb128 0x4d
 2127 0636 21       		.uleb128 0x21
 2128 0637 1E       		.byte	0x1e
 2129 0638 9F       		.byte	0x9f
 2130 0639 00000000 		.4byte	0
 2131 063d 00000000 		.4byte	0
 2132              	.LLST32:
 2133 0641 2C010000 		.4byte	.LVL40-.Ltext0
 2134 0645 4A010000 		.4byte	.LVL43-.Ltext0
 2135 0649 0800     		.2byte	0x8
 2136 064b F5       		.byte	0xf5
 2137 064c 4B       		.uleb128 0x4b
 2138 064d 21       		.uleb128 0x21
 2139 064e F5       		.byte	0xf5
 2140 064f 49       		.uleb128 0x49
 2141 0650 21       		.uleb128 0x21
 2142 0651 1E       		.byte	0x1e
 2143 0652 9F       		.byte	0x9f
 2144 0653 00000000 		.4byte	0
 2145 0657 00000000 		.4byte	0
 2146              	.LLST33:
 2147 065b 2C010000 		.4byte	.LVL40-.Ltext0
 2148 065f 44010000 		.4byte	.LVL41-.Ltext0
 2149 0663 0A00     		.2byte	0xa
 2150 0665 70       		.byte	0x70
 2151 0666 70       		.sleb128 -16
 2152 0667 F6       		.byte	0xf6
 2153 0668 04       		.byte	0x4
 2154 0669 21       		.uleb128 0x21
 2155 066a F5       		.byte	0xf5
 2156 066b 4D       		.uleb128 0x4d
 2157 066c 21       		.uleb128 0x21
 2158 066d 1E       		.byte	0x1e
 2159 066e 9F       		.byte	0x9f
 2160 066f 00000000 		.4byte	0
 2161 0673 00000000 		.4byte	0
 2162              	.LLST34:
 2163 0677 50010000 		.4byte	.LVL44-.Ltext0
 2164 067b 6B010000 		.4byte	.LVL48-1-.Ltext0
 2165 067f 0100     		.2byte	0x1
ARM GAS  /tmp/cc0ojrn7.s 			page 39


 2166 0681 50       		.byte	0x50
 2167 0682 6B010000 		.4byte	.LVL48-1-.Ltext0
 2168 0686 76010000 		.4byte	.LVL49-.Ltext0
 2169 068a 0100     		.2byte	0x1
 2170 068c 54       		.byte	0x54
 2171 068d 76010000 		.4byte	.LVL49-.Ltext0
 2172 0691 79010000 		.4byte	.LVL50-1-.Ltext0
 2173 0695 0100     		.2byte	0x1
 2174 0697 50       		.byte	0x50
 2175 0698 79010000 		.4byte	.LVL50-1-.Ltext0
 2176 069c 7A010000 		.4byte	.LVL50-.Ltext0
 2177 06a0 0400     		.2byte	0x4
 2178 06a2 F3       		.byte	0xf3
 2179 06a3 01       		.uleb128 0x1
 2180 06a4 50       		.byte	0x50
 2181 06a5 9F       		.byte	0x9f
 2182 06a6 7A010000 		.4byte	.LVL50-.Ltext0
 2183 06aa 7D010000 		.4byte	.LVL51-1-.Ltext0
 2184 06ae 0100     		.2byte	0x1
 2185 06b0 50       		.byte	0x50
 2186 06b1 7D010000 		.4byte	.LVL51-1-.Ltext0
 2187 06b5 8A010000 		.4byte	.LVL52-.Ltext0
 2188 06b9 0100     		.2byte	0x1
 2189 06bb 54       		.byte	0x54
 2190 06bc 8A010000 		.4byte	.LVL52-.Ltext0
 2191 06c0 8D010000 		.4byte	.LVL53-1-.Ltext0
 2192 06c4 0100     		.2byte	0x1
 2193 06c6 50       		.byte	0x50
 2194 06c7 8D010000 		.4byte	.LVL53-1-.Ltext0
 2195 06cb 8E010000 		.4byte	.LFE137-.Ltext0
 2196 06cf 0400     		.2byte	0x4
 2197 06d1 F3       		.byte	0xf3
 2198 06d2 01       		.uleb128 0x1
 2199 06d3 50       		.byte	0x50
 2200 06d4 9F       		.byte	0x9f
 2201 06d5 00000000 		.4byte	0
 2202 06d9 00000000 		.4byte	0
 2203              	.LLST35:
 2204 06dd 50010000 		.4byte	.LVL44-.Ltext0
 2205 06e1 6B010000 		.4byte	.LVL48-1-.Ltext0
 2206 06e5 0100     		.2byte	0x1
 2207 06e7 51       		.byte	0x51
 2208 06e8 6B010000 		.4byte	.LVL48-1-.Ltext0
 2209 06ec 76010000 		.4byte	.LVL49-.Ltext0
 2210 06f0 0100     		.2byte	0x1
 2211 06f2 57       		.byte	0x57
 2212 06f3 76010000 		.4byte	.LVL49-.Ltext0
 2213 06f7 79010000 		.4byte	.LVL50-1-.Ltext0
 2214 06fb 0100     		.2byte	0x1
 2215 06fd 51       		.byte	0x51
 2216 06fe 79010000 		.4byte	.LVL50-1-.Ltext0
 2217 0702 7A010000 		.4byte	.LVL50-.Ltext0
 2218 0706 0400     		.2byte	0x4
 2219 0708 F3       		.byte	0xf3
 2220 0709 01       		.uleb128 0x1
 2221 070a 51       		.byte	0x51
 2222 070b 9F       		.byte	0x9f
ARM GAS  /tmp/cc0ojrn7.s 			page 40


 2223 070c 7A010000 		.4byte	.LVL50-.Ltext0
 2224 0710 7D010000 		.4byte	.LVL51-1-.Ltext0
 2225 0714 0100     		.2byte	0x1
 2226 0716 51       		.byte	0x51
 2227 0717 7D010000 		.4byte	.LVL51-1-.Ltext0
 2228 071b 8E010000 		.4byte	.LFE137-.Ltext0
 2229 071f 0400     		.2byte	0x4
 2230 0721 F3       		.byte	0xf3
 2231 0722 01       		.uleb128 0x1
 2232 0723 51       		.byte	0x51
 2233 0724 9F       		.byte	0x9f
 2234 0725 00000000 		.4byte	0
 2235 0729 00000000 		.4byte	0
 2236              	.LLST36:
 2237 072d 50010000 		.4byte	.LVL44-.Ltext0
 2238 0731 66010000 		.4byte	.LVL46-.Ltext0
 2239 0735 0100     		.2byte	0x1
 2240 0737 52       		.byte	0x52
 2241 0738 66010000 		.4byte	.LVL46-.Ltext0
 2242 073c 76010000 		.4byte	.LVL49-.Ltext0
 2243 0740 0100     		.2byte	0x1
 2244 0742 56       		.byte	0x56
 2245 0743 76010000 		.4byte	.LVL49-.Ltext0
 2246 0747 79010000 		.4byte	.LVL50-1-.Ltext0
 2247 074b 0100     		.2byte	0x1
 2248 074d 52       		.byte	0x52
 2249 074e 79010000 		.4byte	.LVL50-1-.Ltext0
 2250 0752 7A010000 		.4byte	.LVL50-.Ltext0
 2251 0756 0400     		.2byte	0x4
 2252 0758 F3       		.byte	0xf3
 2253 0759 01       		.uleb128 0x1
 2254 075a 52       		.byte	0x52
 2255 075b 9F       		.byte	0x9f
 2256 075c 7A010000 		.4byte	.LVL50-.Ltext0
 2257 0760 7D010000 		.4byte	.LVL51-1-.Ltext0
 2258 0764 0100     		.2byte	0x1
 2259 0766 52       		.byte	0x52
 2260 0767 7D010000 		.4byte	.LVL51-1-.Ltext0
 2261 076b 8A010000 		.4byte	.LVL52-.Ltext0
 2262 076f 0100     		.2byte	0x1
 2263 0771 56       		.byte	0x56
 2264 0772 8A010000 		.4byte	.LVL52-.Ltext0
 2265 0776 8D010000 		.4byte	.LVL53-1-.Ltext0
 2266 077a 0100     		.2byte	0x1
 2267 077c 51       		.byte	0x51
 2268 077d 8D010000 		.4byte	.LVL53-1-.Ltext0
 2269 0781 8E010000 		.4byte	.LFE137-.Ltext0
 2270 0785 0400     		.2byte	0x4
 2271 0787 F3       		.byte	0xf3
 2272 0788 01       		.uleb128 0x1
 2273 0789 52       		.byte	0x52
 2274 078a 9F       		.byte	0x9f
 2275 078b 00000000 		.4byte	0
 2276 078f 00000000 		.4byte	0
 2277              	.LLST37:
 2278 0793 50010000 		.4byte	.LVL44-.Ltext0
 2279 0797 68010000 		.4byte	.LVL47-.Ltext0
ARM GAS  /tmp/cc0ojrn7.s 			page 41


 2280 079b 0100     		.2byte	0x1
 2281 079d 53       		.byte	0x53
 2282 079e 68010000 		.4byte	.LVL47-.Ltext0
 2283 07a2 7A010000 		.4byte	.LVL50-.Ltext0
 2284 07a6 0400     		.2byte	0x4
 2285 07a8 F3       		.byte	0xf3
 2286 07a9 01       		.uleb128 0x1
 2287 07aa 53       		.byte	0x53
 2288 07ab 9F       		.byte	0x9f
 2289 07ac 7A010000 		.4byte	.LVL50-.Ltext0
 2290 07b0 7D010000 		.4byte	.LVL51-1-.Ltext0
 2291 07b4 0100     		.2byte	0x1
 2292 07b6 53       		.byte	0x53
 2293 07b7 7D010000 		.4byte	.LVL51-1-.Ltext0
 2294 07bb 8E010000 		.4byte	.LFE137-.Ltext0
 2295 07bf 0400     		.2byte	0x4
 2296 07c1 F3       		.byte	0xf3
 2297 07c2 01       		.uleb128 0x1
 2298 07c3 53       		.byte	0x53
 2299 07c4 9F       		.byte	0x9f
 2300 07c5 00000000 		.4byte	0
 2301 07c9 00000000 		.4byte	0
 2302              	.LLST38:
 2303 07cd 5C010000 		.4byte	.LVL45-.Ltext0
 2304 07d1 6B010000 		.4byte	.LVL48-1-.Ltext0
 2305 07d5 0100     		.2byte	0x1
 2306 07d7 50       		.byte	0x50
 2307 07d8 6B010000 		.4byte	.LVL48-1-.Ltext0
 2308 07dc 76010000 		.4byte	.LVL49-.Ltext0
 2309 07e0 0100     		.2byte	0x1
 2310 07e2 54       		.byte	0x54
 2311 07e3 76010000 		.4byte	.LVL49-.Ltext0
 2312 07e7 79010000 		.4byte	.LVL50-1-.Ltext0
 2313 07eb 0100     		.2byte	0x1
 2314 07ed 50       		.byte	0x50
 2315 07ee 79010000 		.4byte	.LVL50-1-.Ltext0
 2316 07f2 7A010000 		.4byte	.LVL50-.Ltext0
 2317 07f6 0400     		.2byte	0x4
 2318 07f8 F3       		.byte	0xf3
 2319 07f9 01       		.uleb128 0x1
 2320 07fa 50       		.byte	0x50
 2321 07fb 9F       		.byte	0x9f
 2322 07fc 7A010000 		.4byte	.LVL50-.Ltext0
 2323 0800 7D010000 		.4byte	.LVL51-1-.Ltext0
 2324 0804 0100     		.2byte	0x1
 2325 0806 50       		.byte	0x50
 2326 0807 7D010000 		.4byte	.LVL51-1-.Ltext0
 2327 080b 8A010000 		.4byte	.LVL52-.Ltext0
 2328 080f 0100     		.2byte	0x1
 2329 0811 54       		.byte	0x54
 2330 0812 8A010000 		.4byte	.LVL52-.Ltext0
 2331 0816 8D010000 		.4byte	.LVL53-1-.Ltext0
 2332 081a 0100     		.2byte	0x1
 2333 081c 50       		.byte	0x50
 2334 081d 8D010000 		.4byte	.LVL53-1-.Ltext0
 2335 0821 8E010000 		.4byte	.LFE137-.Ltext0
 2336 0825 0400     		.2byte	0x4
ARM GAS  /tmp/cc0ojrn7.s 			page 42


 2337 0827 F3       		.byte	0xf3
 2338 0828 01       		.uleb128 0x1
 2339 0829 50       		.byte	0x50
 2340 082a 9F       		.byte	0x9f
 2341 082b 00000000 		.4byte	0
 2342 082f 00000000 		.4byte	0
 2343              		.section	.debug_aranges,"",%progbits
 2344 0000 1C000000 		.4byte	0x1c
 2345 0004 0200     		.2byte	0x2
 2346 0006 00000000 		.4byte	.Ldebug_info0
 2347 000a 04       		.byte	0x4
 2348 000b 00       		.byte	0
 2349 000c 0000     		.2byte	0
 2350 000e 0000     		.2byte	0
 2351 0010 00000000 		.4byte	.Ltext0
 2352 0014 8E010000 		.4byte	.Letext0-.Ltext0
 2353 0018 00000000 		.4byte	0
 2354 001c 00000000 		.4byte	0
 2355              		.section	.debug_line,"",%progbits
 2356              	.Ldebug_line0:
 2357 0000 55020000 		.section	.debug_str,"MS",%progbits,1
 2357      02005701 
 2357      00000201 
 2357      FB0E0D00 
 2357      01010101 
 2358              	.LASF28:
 2359 0000 70547769 		.ascii	"pTwiddleRFFT\000"
 2359      64646C65 
 2359      52464654 
 2359      00
 2360              	.LASF4:
 2361 000d 5F5F7569 		.ascii	"__uint8_t\000"
 2361      6E74385F 
 2361      7400
 2362              	.LASF31:
 2363 0017 70436F65 		.ascii	"pCoeff\000"
 2363      666600
 2364              	.LASF32:
 2365 001e 73746167 		.ascii	"stage_rfft_f32\000"
 2365      655F7266 
 2365      66745F66 
 2365      333200
 2366              	.LASF33:
 2367 002d 6D657267 		.ascii	"merge_rfft_f32\000"
 2367      655F7266 
 2367      66745F66 
 2367      333200
 2368              	.LASF23:
 2369 003c 70426974 		.ascii	"pBitRevTable\000"
 2369      52657654 
 2369      61626C65 
 2369      00
 2370              	.LASF30:
 2371 0049 704F7574 		.ascii	"pOut\000"
 2371      00
 2372              	.LASF29:
 2373 004e 61726D5F 		.ascii	"arm_rfft_fast_instance_f32\000"
ARM GAS  /tmp/cc0ojrn7.s 			page 43


 2373      72666674 
 2373      5F666173 
 2373      745F696E 
 2373      7374616E 
 2374              	.LASF2:
 2375 0069 756E7369 		.ascii	"unsigned char\000"
 2375      676E6564 
 2375      20636861 
 2375      7200
 2376              	.LASF38:
 2377 0077 61726D5F 		.ascii	"arm_cfft_f32\000"
 2377      63666674 
 2377      5F663332 
 2377      00
 2378              	.LASF9:
 2379 0084 6C6F6E67 		.ascii	"long unsigned int\000"
 2379      20756E73 
 2379      69676E65 
 2379      6420696E 
 2379      7400
 2380              	.LASF6:
 2381 0096 73686F72 		.ascii	"short unsigned int\000"
 2381      7420756E 
 2381      7369676E 
 2381      65642069 
 2381      6E7400
 2382              	.LASF34:
 2383 00a9 61726D5F 		.ascii	"arm_rfft_fast_f32\000"
 2383      72666674 
 2383      5F666173 
 2383      745F6633 
 2383      3200
 2384              	.LASF21:
 2385 00bb 6666744C 		.ascii	"fftLen\000"
 2385      656E00
 2386              	.LASF24:
 2387 00c2 62697452 		.ascii	"bitRevLength\000"
 2387      65764C65 
 2387      6E677468 
 2387      00
 2388              	.LASF26:
 2389 00cf 53696E74 		.ascii	"Sint\000"
 2389      00
 2390              	.LASF5:
 2391 00d4 5F5F7569 		.ascii	"__uint16_t\000"
 2391      6E743136 
 2391      5F7400
 2392              	.LASF18:
 2393 00df 646F7562 		.ascii	"double\000"
 2393      6C6500
 2394              	.LASF36:
 2395 00e6 474E5520 		.ascii	"GNU C 4.9.3 20150529 (release) [ARM/embedded-4_9-br"
 2395      4320342E 
 2395      392E3320 
 2395      32303135 
 2395      30353239 
 2396 0119 616E6368 		.ascii	"anch revision 224288] -mcpu=cortex-m4 -mfloat-abi=h"
ARM GAS  /tmp/cc0ojrn7.s 			page 44


 2396      20726576 
 2396      6973696F 
 2396      6E203232 
 2396      34323838 
 2397 014c 61726420 		.ascii	"ard -mfpu=fpv4-sp-d16 -mno-thumb-interwork -mthumb "
 2397      2D6D6670 
 2397      753D6670 
 2397      76342D73 
 2397      702D6431 
 2398 017f 2D676764 		.ascii	"-ggdb -O2 -fomit-frame-pointer -falign-functions=16"
 2398      62202D4F 
 2398      32202D66 
 2398      6F6D6974 
 2398      2D667261 
 2399 01b2 202D666E 		.ascii	" -fno-math-errno -fsingle-precision-constant\000"
 2399      6F2D6D61 
 2399      74682D65 
 2399      72726E6F 
 2399      202D6673 
 2400              	.LASF8:
 2401 01df 5F5F7569 		.ascii	"__uint32_t\000"
 2401      6E743332 
 2401      5F7400
 2402              	.LASF37:
 2403 01ea 2F645F64 		.ascii	"/d_drive/axoloti/platform_linux/../CMSIS//DSP_Lib/S"
 2403      72697665 
 2403      2F61786F 
 2403      6C6F7469 
 2403      2F706C61 
 2404 021d 6F757263 		.ascii	"ource/TransformFunctions/arm_rfft_fast_f32.c\000"
 2404      652F5472 
 2404      616E7366 
 2404      6F726D46 
 2404      756E6374 
 2405              	.LASF35:
 2406 024a 69666674 		.ascii	"ifftFlag\000"
 2406      466C6167 
 2406      00
 2407              	.LASF12:
 2408 0253 756E7369 		.ascii	"unsigned int\000"
 2408      676E6564 
 2408      20696E74 
 2408      00
 2409              	.LASF25:
 2410 0260 61726D5F 		.ascii	"arm_cfft_instance_f32\000"
 2410      63666674 
 2410      5F696E73 
 2410      74616E63 
 2410      655F6633 
 2411              	.LASF11:
 2412 0276 6C6F6E67 		.ascii	"long long unsigned int\000"
 2412      206C6F6E 
 2412      6720756E 
 2412      7369676E 
 2412      65642069 
 2413              	.LASF13:
 2414 028d 75696E74 		.ascii	"uint8_t\000"
ARM GAS  /tmp/cc0ojrn7.s 			page 45


 2414      385F7400 
 2415              	.LASF27:
 2416 0295 6666744C 		.ascii	"fftLenRFFT\000"
 2416      656E5246 
 2416      465400
 2417              	.LASF16:
 2418 02a0 73697A65 		.ascii	"sizetype\000"
 2418      74797065 
 2418      00
 2419              	.LASF10:
 2420 02a9 6C6F6E67 		.ascii	"long long int\000"
 2420      206C6F6E 
 2420      6720696E 
 2420      7400
 2421              	.LASF22:
 2422 02b7 70547769 		.ascii	"pTwiddle\000"
 2422      64646C65 
 2422      00
 2423              	.LASF17:
 2424 02c0 63686172 		.ascii	"char\000"
 2424      00
 2425              	.LASF20:
 2426 02c5 666C6F61 		.ascii	"float32_t\000"
 2426      7433325F 
 2426      7400
 2427              	.LASF3:
 2428 02cf 73686F72 		.ascii	"short int\000"
 2428      7420696E 
 2428      7400
 2429              	.LASF14:
 2430 02d9 75696E74 		.ascii	"uint16_t\000"
 2430      31365F74 
 2430      00
 2431              	.LASF15:
 2432 02e2 75696E74 		.ascii	"uint32_t\000"
 2432      33325F74 
 2432      00
 2433              	.LASF7:
 2434 02eb 6C6F6E67 		.ascii	"long int\000"
 2434      20696E74 
 2434      00
 2435              	.LASF19:
 2436 02f4 6C6F6E67 		.ascii	"long double\000"
 2436      20646F75 
 2436      626C6500 
 2437              	.LASF0:
 2438 0300 666C6F61 		.ascii	"float\000"
 2438      7400
 2439              	.LASF1:
 2440 0306 7369676E 		.ascii	"signed char\000"
 2440      65642063 
 2440      68617200 
 2441              		.ident	"GCC: (GNU Tools for ARM Embedded Processors) 4.9.3 20150529 (release) [ARM/embedded-4_9-br
ARM GAS  /tmp/cc0ojrn7.s 			page 46


DEFINED SYMBOLS
                            *ABS*:00000000 arm_rfft_fast_f32.c
     /tmp/cc0ojrn7.s:20     .text:00000000 $t
     /tmp/cc0ojrn7.s:26     .text:00000000 stage_rfft_f32
     /tmp/cc0ojrn7.s:149    .text:000000b0 merge_rfft_f32
     /tmp/cc0ojrn7.s:279    .text:00000150 arm_rfft_fast_f32
                     .debug_frame:00000010 $d

UNDEFINED SYMBOLS
arm_cfft_f32
