ARM GAS  /tmp/ccWfXb6d.s 			page 1


   1              		.syntax unified
   2              		.cpu cortex-m4
   3              		.eabi_attribute 27, 1
   4              		.eabi_attribute 28, 1
   5              		.fpu fpv4-sp-d16
   6              		.eabi_attribute 20, 1
   7              		.eabi_attribute 21, 1
   8              		.eabi_attribute 23, 3
   9              		.eabi_attribute 24, 1
  10              		.eabi_attribute 25, 1
  11              		.eabi_attribute 26, 1
  12              		.eabi_attribute 30, 2
  13              		.eabi_attribute 34, 1
  14              		.eabi_attribute 18, 4
  15              		.thumb
  16              		.file	"arm_cfft_q15.c"
  17              		.text
  18              	.Ltext0:
  19              		.cfi_sections	.debug_frame
  20              		.align	2
  21              		.p2align 4,,15
  22              		.global	arm_cfft_radix4by2_q15
  23              		.thumb
  24              		.thumb_func
  25              		.type	arm_cfft_radix4by2_q15, %function
  26              	arm_cfft_radix4by2_q15:
  27              	.LFB136:
  28              		.file 1 "/home/sbcu/Dropbox/pcb-layouts/axo-on-discovery-board/axoloti/platform_linux/../CMSIS//DS
  29              		.loc 1 150 0
  30              		.cfi_startproc
  31              		@ args = 0, pretend = 0, frame = 0
  32              		@ frame_needed = 0, uses_anonymous_args = 0
  33              	.LVL0:
  34 0000 2DE9F04F 		push	{r4, r5, r6, r7, r8, r9, r10, fp, lr}
  35              		.cfi_def_cfa_offset 36
  36              		.cfi_offset 4, -36
  37              		.cfi_offset 5, -32
  38              		.cfi_offset 6, -28
  39              		.cfi_offset 7, -24
  40              		.cfi_offset 8, -20
  41              		.cfi_offset 9, -16
  42              		.cfi_offset 10, -12
  43              		.cfi_offset 11, -8
  44              		.cfi_offset 14, -4
  45              		.loc 1 169 0
  46 0004 4D08     		lsrs	r5, r1, #1
  47              		.loc 1 150 0
  48 0006 81B0     		sub	sp, sp, #4
  49              		.cfi_def_cfa_offset 40
  50              		.loc 1 150 0
  51 0008 0446     		mov	r4, r0
  52              		.loc 1 159 0
  53 000a 00EB4107 		add	r7, r0, r1, lsl #1
  54              		.loc 1 150 0
  55 000e 1646     		mov	r6, r2
  56              	.LVL1:
  57              		.loc 1 169 0
ARM GAS  /tmp/ccWfXb6d.s 			page 2


  58 0010 4CD0     		beq	.L2
  59              		.loc 1 169 0 is_stmt 0 discriminator 3
  60 0012 BC46     		mov	ip, r7
  61 0014 8646     		mov	lr, r0
  62 0016 9146     		mov	r9, r2
  63 0018 2946     		mov	r1, r5
  64              	.LVL2:
  65              	.LBB26:
  66              	.LBB27:
  67              		.file 2 "/home/sbcu/Dropbox/pcb-layouts/axo-on-discovery-board/axoloti/platform_linux/../CMSIS//In
  68              		.loc 2 1467 0 is_stmt 1 discriminator 3
  69 001a 4FF00008 		mov	r8, #0
  70              	.LVL3:
  71              	.L3:
  72              	.LBE27:
  73              	.LBE26:
  74              		.loc 1 171 0 discriminator 3
  75 001e 59F8042B 		ldr	r2, [r9], #4
  76              	.LVL4:
  77              	.LBB29:
  78              	.LBB28:
  79              		.loc 2 1467 0 discriminator 3
  80 0022 DEF80030 		ldr	r3, [lr]
  81              	@ 1467 "/home/sbcu/Dropbox/pcb-layouts/axo-on-discovery-board/axoloti/platform_linux/../CMSIS//Incl
  82 0026 93FA28FA 		shadd16 r10, r3, r8
  83              	@ 0 "" 2
  84              	.LVL5:
  85              		.thumb
  86              	.LBE28:
  87              	.LBE29:
  88              	.LBB30:
  89              	.LBB31:
  90 002a DCF80000 		ldr	r0, [ip]
  91              	@ 1467 "/home/sbcu/Dropbox/pcb-layouts/axo-on-discovery-board/axoloti/platform_linux/../CMSIS//Incl
  92 002e 90FA28F0 		shadd16 r0, r0, r8
  93              	@ 0 "" 2
  94              	.LVL6:
  95              		.thumb
  96              	.LBE31:
  97              	.LBE30:
  98              	.LBB32:
  99              	.LBB33:
 100              		.loc 2 1507 0 discriminator 3
 101              	@ 1507 "/home/sbcu/Dropbox/pcb-layouts/axo-on-discovery-board/axoloti/platform_linux/../CMSIS//Incl
 102 0032 DAFA10FB 		qsub16 fp, r10, r0
 103              	@ 0 "" 2
 104              	.LVL7:
 105              		.thumb
 106              	.LBE33:
 107              	.LBE32:
 108              	.LBB34:
 109              	.LBB35:
 110              		.loc 2 1467 0 discriminator 3
 111              	@ 1467 "/home/sbcu/Dropbox/pcb-layouts/axo-on-discovery-board/axoloti/platform_linux/../CMSIS//Incl
 112 0036 9AFA20F0 		shadd16 r0, r10, r0
 113              	@ 0 "" 2
 114              	.LVL8:
ARM GAS  /tmp/ccWfXb6d.s 			page 3


 115              		.thumb
 116              	.LBE35:
 117              	.LBE34:
 118              		.loc 1 182 0 discriminator 3
 119 003a 4EF8040B 		str	r0, [lr], #4
 120              	.LVL9:
 121              	.LBB36:
 122              	.LBB37:
 123              		.loc 2 1705 0 discriminator 3
 124              	@ 1705 "/home/sbcu/Dropbox/pcb-layouts/axo-on-discovery-board/axoloti/platform_linux/../CMSIS//Incl
 125 003e 22FB0BF0 		smuad r0, r2, fp
 126              	@ 0 "" 2
 127              	.LVL10:
 128              		.thumb
 129              	.LBE37:
 130              	.LBE36:
 131              	.LBB38:
 132              	.LBB39:
 133              		.loc 2 1779 0 discriminator 3
 134              	@ 1779 "/home/sbcu/Dropbox/pcb-layouts/axo-on-discovery-board/axoloti/platform_linux/../CMSIS//Incl
 135 0042 42FB1BF2 		smusdx r2, r2, fp
 136              	@ 0 "" 2
 137              	.LVL11:
 138              		.thumb
 139              	.LBE39:
 140              	.LBE38:
 141              		.loc 1 198 0 discriminator 3
 142 0046 130C     		lsrs	r3, r2, #16
 143              	.LVL12:
 144 0048 1B04     		lsls	r3, r3, #16
 145 004a 43EA1043 		orr	r3, r3, r0, lsr #16
 146              		.loc 1 169 0 discriminator 3
 147 004e 0139     		subs	r1, r1, #1
 148              	.LVL13:
 149              		.loc 1 197 0 discriminator 3
 150 0050 4CF8043B 		str	r3, [ip], #4
 151              	.LVL14:
 152              		.loc 1 169 0 discriminator 3
 153 0054 E3D1     		bne	.L3
 154              		.loc 1 230 0
 155 0056 2946     		mov	r1, r5
 156 0058 2046     		mov	r0, r4
 157              	.LVL15:
 158 005a 3246     		mov	r2, r6
 159              	.LVL16:
 160 005c 0223     		movs	r3, #2
 161 005e FFF7FEFF 		bl	arm_radix4_butterfly_q15
 162              	.LVL17:
 163              		.loc 1 232 0
 164 0062 2946     		mov	r1, r5
 165 0064 0223     		movs	r3, #2
 166 0066 3846     		mov	r0, r7
 167 0068 3246     		mov	r2, r6
 168 006a FFF7FEFF 		bl	arm_radix4_butterfly_q15
 169              	.LVL18:
 170 006e 04EBC505 		add	r5, r4, r5, lsl #3
 171              	.LVL19:
ARM GAS  /tmp/ccWfXb6d.s 			page 4


 172 0072 A31C     		adds	r3, r4, #2
 173              	.LVL20:
 174              	.L5:
 175              		.loc 1 241 0 discriminator 3
 176 0074 33F9027C 		ldrsh	r7, [r3, #-2]
 177              		.loc 1 242 0 discriminator 3
 178 0078 B4F90260 		ldrsh	r6, [r4, #2]
 179              		.loc 1 243 0 discriminator 3
 180 007c B4F90400 		ldrsh	r0, [r4, #4]
 181              		.loc 1 244 0 discriminator 3
 182 0080 B4F90620 		ldrsh	r2, [r4, #6]
 183              		.loc 1 241 0 discriminator 3
 184 0084 7F00     		lsls	r7, r7, #1
 185              	.LVL21:
 186              		.loc 1 242 0 discriminator 3
 187 0086 7600     		lsls	r6, r6, #1
 188              	.LVL22:
 189              		.loc 1 243 0 discriminator 3
 190 0088 4000     		lsls	r0, r0, #1
 191              	.LVL23:
 192              		.loc 1 244 0 discriminator 3
 193 008a 5200     		lsls	r2, r2, #1
 194              	.LVL24:
 195              		.loc 1 241 0 discriminator 3
 196 008c 23F8027C 		strh	r7, [r3, #-2]	@ movhi
 197 0090 0834     		adds	r4, r4, #8
 198              		.loc 1 242 0 discriminator 3
 199 0092 24F8066C 		strh	r6, [r4, #-6]	@ movhi
 200              		.loc 1 243 0 discriminator 3
 201 0096 24F8040C 		strh	r0, [r4, #-4]	@ movhi
 202              		.loc 1 244 0 discriminator 3
 203 009a 24F8022C 		strh	r2, [r4, #-2]	@ movhi
 204              		.loc 1 234 0 discriminator 3
 205 009e AC42     		cmp	r4, r5
 206 00a0 03F10803 		add	r3, r3, #8
 207 00a4 E6D1     		bne	.L5
 208              		.loc 1 251 0
 209 00a6 01B0     		add	sp, sp, #4
 210              		.cfi_remember_state
 211              		.cfi_def_cfa_offset 36
 212              		@ sp needed
 213 00a8 BDE8F08F 		pop	{r4, r5, r6, r7, r8, r9, r10, fp, pc}
 214              	.LVL25:
 215              	.L2:
 216              		.cfi_restore_state
 217              		.loc 1 230 0
 218 00ac 2946     		mov	r1, r5
 219              	.LVL26:
 220 00ae 0223     		movs	r3, #2
 221 00b0 FFF7FEFF 		bl	arm_radix4_butterfly_q15
 222              	.LVL27:
 223              		.loc 1 232 0
 224 00b4 3846     		mov	r0, r7
 225 00b6 2946     		mov	r1, r5
 226 00b8 3246     		mov	r2, r6
 227 00ba 0223     		movs	r3, #2
 228              		.loc 1 251 0
ARM GAS  /tmp/ccWfXb6d.s 			page 5


 229 00bc 01B0     		add	sp, sp, #4
 230              		.cfi_def_cfa_offset 36
 231              		@ sp needed
 232 00be BDE8F04F 		pop	{r4, r5, r6, r7, r8, r9, r10, fp, lr}
 233              		.cfi_restore 14
 234              		.cfi_restore 11
 235              		.cfi_restore 10
 236              		.cfi_restore 9
 237              		.cfi_restore 8
 238              		.cfi_restore 7
 239              		.cfi_restore 6
 240              		.cfi_restore 5
 241              		.cfi_restore 4
 242              		.cfi_def_cfa_offset 0
 243              	.LVL28:
 244              		.loc 1 232 0
 245 00c2 FFF7FEBF 		b	arm_radix4_butterfly_q15
 246              	.LVL29:
 247              		.cfi_endproc
 248              	.LFE136:
 249              		.size	arm_cfft_radix4by2_q15, .-arm_cfft_radix4by2_q15
 250 00c6 00BF     		.align	2
 251 00c8 AFF30080 		.p2align 4,,15
 251      AFF30080 
 252              		.global	arm_cfft_radix4by2_inverse_q15
 253              		.thumb
 254              		.thumb_func
 255              		.type	arm_cfft_radix4by2_inverse_q15, %function
 256              	arm_cfft_radix4by2_inverse_q15:
 257              	.LFB137:
 258              		.loc 1 257 0
 259              		.cfi_startproc
 260              		@ args = 0, pretend = 0, frame = 0
 261              		@ frame_needed = 0, uses_anonymous_args = 0
 262              	.LVL30:
 263 00d0 2DE9F04F 		push	{r4, r5, r6, r7, r8, r9, r10, fp, lr}
 264              		.cfi_def_cfa_offset 36
 265              		.cfi_offset 4, -36
 266              		.cfi_offset 5, -32
 267              		.cfi_offset 6, -28
 268              		.cfi_offset 7, -24
 269              		.cfi_offset 8, -20
 270              		.cfi_offset 9, -16
 271              		.cfi_offset 10, -12
 272              		.cfi_offset 11, -8
 273              		.cfi_offset 14, -4
 274              		.loc 1 276 0
 275 00d4 4D08     		lsrs	r5, r1, #1
 276              		.loc 1 257 0
 277 00d6 81B0     		sub	sp, sp, #4
 278              		.cfi_def_cfa_offset 40
 279              		.loc 1 257 0
 280 00d8 0446     		mov	r4, r0
 281              		.loc 1 266 0
 282 00da 00EB4107 		add	r7, r0, r1, lsl #1
 283              		.loc 1 257 0
 284 00de 1646     		mov	r6, r2
ARM GAS  /tmp/ccWfXb6d.s 			page 6


 285              	.LVL31:
 286              		.loc 1 276 0
 287 00e0 4CD0     		beq	.L15
 288              		.loc 1 276 0 is_stmt 0 discriminator 3
 289 00e2 BC46     		mov	ip, r7
 290 00e4 8646     		mov	lr, r0
 291 00e6 9146     		mov	r9, r2
 292 00e8 2946     		mov	r1, r5
 293              	.LVL32:
 294              	.LBB40:
 295              	.LBB41:
 296              		.loc 2 1467 0 is_stmt 1 discriminator 3
 297 00ea 4FF00008 		mov	r8, #0
 298              	.LVL33:
 299              	.L16:
 300              	.LBE41:
 301              	.LBE40:
 302              		.loc 1 278 0 discriminator 3
 303 00ee 59F8042B 		ldr	r2, [r9], #4
 304              	.LVL34:
 305              	.LBB43:
 306              	.LBB42:
 307              		.loc 2 1467 0 discriminator 3
 308 00f2 DEF80030 		ldr	r3, [lr]
 309              	@ 1467 "/home/sbcu/Dropbox/pcb-layouts/axo-on-discovery-board/axoloti/platform_linux/../CMSIS//Incl
 310 00f6 93FA28FA 		shadd16 r10, r3, r8
 311              	@ 0 "" 2
 312              	.LVL35:
 313              		.thumb
 314              	.LBE42:
 315              	.LBE43:
 316              	.LBB44:
 317              	.LBB45:
 318 00fa DCF80000 		ldr	r0, [ip]
 319              	@ 1467 "/home/sbcu/Dropbox/pcb-layouts/axo-on-discovery-board/axoloti/platform_linux/../CMSIS//Incl
 320 00fe 90FA28F0 		shadd16 r0, r0, r8
 321              	@ 0 "" 2
 322              	.LVL36:
 323              		.thumb
 324              	.LBE45:
 325              	.LBE44:
 326              	.LBB46:
 327              	.LBB47:
 328              		.loc 2 1507 0 discriminator 3
 329              	@ 1507 "/home/sbcu/Dropbox/pcb-layouts/axo-on-discovery-board/axoloti/platform_linux/../CMSIS//Incl
 330 0102 DAFA10FB 		qsub16 fp, r10, r0
 331              	@ 0 "" 2
 332              	.LVL37:
 333              		.thumb
 334              	.LBE47:
 335              	.LBE46:
 336              	.LBB48:
 337              	.LBB49:
 338              		.loc 2 1467 0 discriminator 3
 339              	@ 1467 "/home/sbcu/Dropbox/pcb-layouts/axo-on-discovery-board/axoloti/platform_linux/../CMSIS//Incl
 340 0106 9AFA20F0 		shadd16 r0, r10, r0
 341              	@ 0 "" 2
ARM GAS  /tmp/ccWfXb6d.s 			page 7


 342              	.LVL38:
 343              		.thumb
 344              	.LBE49:
 345              	.LBE48:
 346              		.loc 1 289 0 discriminator 3
 347 010a 4EF8040B 		str	r0, [lr], #4
 348              	.LVL39:
 349              	.LBB50:
 350              	.LBB51:
 351              		.loc 2 1771 0 discriminator 3
 352              	@ 1771 "/home/sbcu/Dropbox/pcb-layouts/axo-on-discovery-board/axoloti/platform_linux/../CMSIS//Incl
 353 010e 42FB0BF0 		smusd r0, r2, fp
 354              	@ 0 "" 2
 355              	.LVL40:
 356              		.thumb
 357              	.LBE51:
 358              	.LBE50:
 359              	.LBB52:
 360              	.LBB53:
 361              		.loc 2 1713 0 discriminator 3
 362              	@ 1713 "/home/sbcu/Dropbox/pcb-layouts/axo-on-discovery-board/axoloti/platform_linux/../CMSIS//Incl
 363 0112 22FB1BF2 		smuadx r2, r2, fp
 364              	@ 0 "" 2
 365              	.LVL41:
 366              		.thumb
 367              	.LBE53:
 368              	.LBE52:
 369              		.loc 1 304 0 discriminator 3
 370 0116 130C     		lsrs	r3, r2, #16
 371              	.LVL42:
 372 0118 1B04     		lsls	r3, r3, #16
 373 011a 43EA1043 		orr	r3, r3, r0, lsr #16
 374              		.loc 1 276 0 discriminator 3
 375 011e 0139     		subs	r1, r1, #1
 376              	.LVL43:
 377              		.loc 1 303 0 discriminator 3
 378 0120 4CF8043B 		str	r3, [ip], #4
 379              	.LVL44:
 380              		.loc 1 276 0 discriminator 3
 381 0124 E3D1     		bne	.L16
 382              		.loc 1 335 0
 383 0126 2946     		mov	r1, r5
 384 0128 2046     		mov	r0, r4
 385              	.LVL45:
 386 012a 3246     		mov	r2, r6
 387              	.LVL46:
 388 012c 0223     		movs	r3, #2
 389 012e FFF7FEFF 		bl	arm_radix4_butterfly_inverse_q15
 390              	.LVL47:
 391              		.loc 1 337 0
 392 0132 2946     		mov	r1, r5
 393 0134 0223     		movs	r3, #2
 394 0136 3846     		mov	r0, r7
 395 0138 3246     		mov	r2, r6
 396 013a FFF7FEFF 		bl	arm_radix4_butterfly_inverse_q15
 397              	.LVL48:
 398 013e 04EBC505 		add	r5, r4, r5, lsl #3
ARM GAS  /tmp/ccWfXb6d.s 			page 8


 399              	.LVL49:
 400 0142 A31C     		adds	r3, r4, #2
 401              	.LVL50:
 402              	.L18:
 403              		.loc 1 346 0 discriminator 3
 404 0144 33F9027C 		ldrsh	r7, [r3, #-2]
 405              		.loc 1 347 0 discriminator 3
 406 0148 B4F90260 		ldrsh	r6, [r4, #2]
 407              		.loc 1 348 0 discriminator 3
 408 014c B4F90400 		ldrsh	r0, [r4, #4]
 409              		.loc 1 349 0 discriminator 3
 410 0150 B4F90620 		ldrsh	r2, [r4, #6]
 411              		.loc 1 346 0 discriminator 3
 412 0154 7F00     		lsls	r7, r7, #1
 413              	.LVL51:
 414              		.loc 1 347 0 discriminator 3
 415 0156 7600     		lsls	r6, r6, #1
 416              	.LVL52:
 417              		.loc 1 348 0 discriminator 3
 418 0158 4000     		lsls	r0, r0, #1
 419              	.LVL53:
 420              		.loc 1 349 0 discriminator 3
 421 015a 5200     		lsls	r2, r2, #1
 422              	.LVL54:
 423              		.loc 1 346 0 discriminator 3
 424 015c 23F8027C 		strh	r7, [r3, #-2]	@ movhi
 425 0160 0834     		adds	r4, r4, #8
 426              		.loc 1 347 0 discriminator 3
 427 0162 24F8066C 		strh	r6, [r4, #-6]	@ movhi
 428              		.loc 1 348 0 discriminator 3
 429 0166 24F8040C 		strh	r0, [r4, #-4]	@ movhi
 430              		.loc 1 349 0 discriminator 3
 431 016a 24F8022C 		strh	r2, [r4, #-2]	@ movhi
 432              		.loc 1 339 0 discriminator 3
 433 016e AC42     		cmp	r4, r5
 434 0170 03F10803 		add	r3, r3, #8
 435 0174 E6D1     		bne	.L18
 436              		.loc 1 356 0
 437 0176 01B0     		add	sp, sp, #4
 438              		.cfi_remember_state
 439              		.cfi_def_cfa_offset 36
 440              		@ sp needed
 441 0178 BDE8F08F 		pop	{r4, r5, r6, r7, r8, r9, r10, fp, pc}
 442              	.LVL55:
 443              	.L15:
 444              		.cfi_restore_state
 445              		.loc 1 335 0
 446 017c 2946     		mov	r1, r5
 447              	.LVL56:
 448 017e 0223     		movs	r3, #2
 449 0180 FFF7FEFF 		bl	arm_radix4_butterfly_inverse_q15
 450              	.LVL57:
 451              		.loc 1 337 0
 452 0184 3846     		mov	r0, r7
 453 0186 2946     		mov	r1, r5
 454 0188 3246     		mov	r2, r6
 455 018a 0223     		movs	r3, #2
ARM GAS  /tmp/ccWfXb6d.s 			page 9


 456              		.loc 1 356 0
 457 018c 01B0     		add	sp, sp, #4
 458              		.cfi_def_cfa_offset 36
 459              		@ sp needed
 460 018e BDE8F04F 		pop	{r4, r5, r6, r7, r8, r9, r10, fp, lr}
 461              		.cfi_restore 14
 462              		.cfi_restore 11
 463              		.cfi_restore 10
 464              		.cfi_restore 9
 465              		.cfi_restore 8
 466              		.cfi_restore 7
 467              		.cfi_restore 6
 468              		.cfi_restore 5
 469              		.cfi_restore 4
 470              		.cfi_def_cfa_offset 0
 471              	.LVL58:
 472              		.loc 1 337 0
 473 0192 FFF7FEBF 		b	arm_radix4_butterfly_inverse_q15
 474              	.LVL59:
 475              		.cfi_endproc
 476              	.LFE137:
 477              		.size	arm_cfft_radix4by2_inverse_q15, .-arm_cfft_radix4by2_inverse_q15
 478 0196 00BF     		.align	2
 479 0198 AFF30080 		.p2align 4,,15
 479      AFF30080 
 480              		.global	arm_cfft_q15
 481              		.thumb
 482              		.thumb_func
 483              		.type	arm_cfft_q15, %function
 484              	arm_cfft_q15:
 485              	.LFB135:
 486              		.loc 1 94 0
 487              		.cfi_startproc
 488              		@ args = 0, pretend = 0, frame = 0
 489              		@ frame_needed = 0, uses_anonymous_args = 0
 490              	.LVL60:
 491              		.loc 1 97 0
 492 01a0 012A     		cmp	r2, #1
 493              		.loc 1 94 0
 494 01a2 70B5     		push	{r4, r5, r6, lr}
 495              		.cfi_def_cfa_offset 16
 496              		.cfi_offset 4, -16
 497              		.cfi_offset 5, -12
 498              		.cfi_offset 6, -8
 499              		.cfi_offset 14, -4
 500              		.loc 1 94 0
 501 01a4 0D46     		mov	r5, r1
 502 01a6 0446     		mov	r4, r0
 503 01a8 1E46     		mov	r6, r3
 504              		.loc 1 95 0
 505 01aa 0188     		ldrh	r1, [r0]
 506              	.LVL61:
 507              		.loc 1 97 0
 508 01ac 24D0     		beq	.L95
 509              		.loc 1 119 0
 510 01ae B1F5807F 		cmp	r1, #256
 511 01b2 13D0     		beq	.L34
ARM GAS  /tmp/ccWfXb6d.s 			page 10


 512 01b4 08D8     		bhi	.L35
 513 01b6 2029     		cmp	r1, #32
 514 01b8 31D0     		beq	.L36
 515 01ba 45D9     		bls	.L96
 516 01bc 4029     		cmp	r1, #64
 517 01be 0DD0     		beq	.L34
 518 01c0 8029     		cmp	r1, #128
 519 01c2 2CD0     		beq	.L36
 520              	.LVL62:
 521              	.L28:
 522              		.loc 1 138 0
 523 01c4 8EB9     		cbnz	r6, .L97
 524              	.L26:
 525 01c6 70BD     		pop	{r4, r5, r6, pc}
 526              	.LVL63:
 527              	.L35:
 528              		.loc 1 119 0
 529 01c8 B1F5806F 		cmp	r1, #1024
 530 01cc 06D0     		beq	.L34
 531 01ce 23D9     		bls	.L98
 532 01d0 B1F5006F 		cmp	r1, #2048
 533 01d4 23D0     		beq	.L36
 534 01d6 B1F5805F 		cmp	r1, #4096
 535 01da F3D1     		bne	.L28
 536              	.L34:
 537              		.loc 1 126 0
 538 01dc 2846     		mov	r0, r5
 539              	.LVL64:
 540 01de 6268     		ldr	r2, [r4, #4]
 541              	.LVL65:
 542 01e0 0123     		movs	r3, #1
 543              	.LVL66:
 544 01e2 FFF7FEFF 		bl	arm_radix4_butterfly_q15
 545              	.LVL67:
 546              		.loc 1 138 0
 547 01e6 002E     		cmp	r6, #0
 548 01e8 EDD0     		beq	.L26
 549              	.L97:
 550              		.loc 1 139 0
 551 01ea 2846     		mov	r0, r5
 552 01ec A189     		ldrh	r1, [r4, #12]
 553 01ee A268     		ldr	r2, [r4, #8]
 554              		.loc 1 140 0
 555 01f0 BDE87040 		pop	{r4, r5, r6, lr}
 556              		.cfi_remember_state
 557              		.cfi_restore 14
 558              		.cfi_restore 6
 559              		.cfi_restore 5
 560              		.cfi_restore 4
 561              		.cfi_def_cfa_offset 0
 562              	.LVL68:
 563              		.loc 1 139 0
 564 01f4 FFF7FEBF 		b	arm_bitreversal_16
 565              	.LVL69:
 566              	.L95:
 567              		.cfi_restore_state
 568              		.loc 1 99 0
ARM GAS  /tmp/ccWfXb6d.s 			page 11


 569 01f8 B1F5807F 		cmp	r1, #256
 570 01fc 1ED0     		beq	.L29
 571 01fe 13D8     		bhi	.L30
 572 0200 2029     		cmp	r1, #32
 573 0202 04D0     		beq	.L31
 574 0204 27D9     		bls	.L99
 575 0206 4029     		cmp	r1, #64
 576 0208 18D0     		beq	.L29
 577 020a 8029     		cmp	r1, #128
 578 020c DAD1     		bne	.L28
 579              	.L31:
 580              		.loc 1 113 0
 581 020e 2846     		mov	r0, r5
 582              	.LVL70:
 583 0210 6268     		ldr	r2, [r4, #4]
 584              	.LVL71:
 585 0212 FFF7FEFF 		bl	arm_cfft_radix4by2_inverse_q15
 586              	.LVL72:
 587              		.loc 1 114 0
 588 0216 D5E7     		b	.L28
 589              	.LVL73:
 590              	.L98:
 591              		.loc 1 119 0
 592 0218 B1F5007F 		cmp	r1, #512
 593 021c D2D1     		bne	.L28
 594              	.L36:
 595              		.loc 1 133 0
 596 021e 2846     		mov	r0, r5
 597              	.LVL74:
 598 0220 6268     		ldr	r2, [r4, #4]
 599              	.LVL75:
 600 0222 FFF7FEFF 		bl	arm_cfft_radix4by2_q15
 601              	.LVL76:
 602              		.loc 1 134 0
 603 0226 CDE7     		b	.L28
 604              	.LVL77:
 605              	.L30:
 606              		.loc 1 99 0
 607 0228 B1F5806F 		cmp	r1, #1024
 608 022c 06D0     		beq	.L29
 609 022e 0ED9     		bls	.L100
 610 0230 B1F5006F 		cmp	r1, #2048
 611 0234 EBD0     		beq	.L31
 612 0236 B1F5805F 		cmp	r1, #4096
 613 023a C3D1     		bne	.L28
 614              	.L29:
 615              		.loc 1 106 0
 616 023c 2846     		mov	r0, r5
 617              	.LVL78:
 618 023e 6268     		ldr	r2, [r4, #4]
 619              	.LVL79:
 620 0240 0123     		movs	r3, #1
 621              	.LVL80:
 622 0242 FFF7FEFF 		bl	arm_radix4_butterfly_inverse_q15
 623              	.LVL81:
 624              		.loc 1 107 0
 625 0246 BDE7     		b	.L28
ARM GAS  /tmp/ccWfXb6d.s 			page 12


 626              	.LVL82:
 627              	.L96:
 628              		.loc 1 119 0
 629 0248 1029     		cmp	r1, #16
 630 024a BBD1     		bne	.L28
 631 024c C6E7     		b	.L34
 632              	.L100:
 633              		.loc 1 99 0
 634 024e B1F5007F 		cmp	r1, #512
 635 0252 DCD0     		beq	.L31
 636 0254 B6E7     		b	.L28
 637              	.L99:
 638 0256 1029     		cmp	r1, #16
 639 0258 B4D1     		bne	.L28
 640 025a EFE7     		b	.L29
 641              		.cfi_endproc
 642              	.LFE135:
 643              		.size	arm_cfft_q15, .-arm_cfft_q15
 644              	.Letext0:
 645              		.file 3 "/home/sbcu/Dropbox/pcb-layouts/axo-on-discovery-board/axoloti/platform_linux/arm-none-eab
 646              		.file 4 "/home/sbcu/Dropbox/pcb-layouts/axo-on-discovery-board/axoloti/platform_linux/arm-none-eab
 647              		.file 5 "/home/sbcu/Dropbox/pcb-layouts/axo-on-discovery-board/axoloti/platform_linux/../CMSIS//DS