ARM GAS  /tmp/ccnKDy42.s 			page 1


   1              		.syntax unified
   2              		.cpu cortex-m4
   3              		.eabi_attribute 27, 1
   4              		.eabi_attribute 28, 1
   5              		.fpu fpv4-sp-d16
   6              		.eabi_attribute 20, 1
   7              		.eabi_attribute 21, 1
   8              		.eabi_attribute 23, 3
   9              		.eabi_attribute 24, 1
  10              		.eabi_attribute 25, 1
  11              		.eabi_attribute 26, 1
  12              		.eabi_attribute 30, 2
  13              		.eabi_attribute 34, 1
  14              		.eabi_attribute 18, 4
  15              		.thumb
  16              		.file	"arm_cfft_radix2_init_q15.c"
  17              		.text
  18              	.Ltext0:
  19              		.cfi_sections	.debug_frame
  20              		.align	2
  21              		.p2align 4,,15
  22              		.global	arm_cfft_radix2_init_q15
  23              		.thumb
  24              		.thumb_func
  25              		.type	arm_cfft_radix2_init_q15, %function
  26              	arm_cfft_radix2_init_q15:
  27              	.LFB135:
  28              		.file 1 "/home/sbcu/Dropbox/pcb-layouts/axo-on-discovery-board/axoloti/platform_linux/../CMSIS//DS
  29              		.loc 1 81 0
  30              		.cfi_startproc
  31              		@ args = 0, pretend = 0, frame = 0
  32              		@ frame_needed = 0, uses_anonymous_args = 0
  33              		@ link register save eliminated.
  34              	.LVL0:
  35 0000 10B4     		push	{r4}
  36              		.cfi_def_cfa_offset 4
  37              		.cfi_offset 4, -4
  38              		.loc 1 96 0
  39 0002 B1F5807F 		cmp	r1, #256
  40              		.loc 1 89 0
  41 0006 3E4C     		ldr	r4, .L21
  42              		.loc 1 91 0
  43 0008 8270     		strb	r2, [r0, #2]
  44              		.loc 1 93 0
  45 000a C370     		strb	r3, [r0, #3]
  46              		.loc 1 86 0
  47 000c 0180     		strh	r1, [r0]	@ movhi
  48              		.loc 1 89 0
  49 000e 4460     		str	r4, [r0, #4]
  50              		.loc 1 96 0
  51 0010 5CD0     		beq	.L3
  52 0012 13D9     		bls	.L18
  53 0014 B1F5806F 		cmp	r1, #1024
  54 0018 62D0     		beq	.L10
  55 001a 40D9     		bls	.L19
  56 001c B1F5006F 		cmp	r1, #2048
  57 0020 26D0     		beq	.L13
ARM GAS  /tmp/ccnKDy42.s 			page 2


  58 0022 B1F5805F 		cmp	r1, #4096
  59 0026 65D1     		bne	.L15
  60              		.loc 1 102 0
  61 0028 0123     		movs	r3, #1
  62              	.LVL1:
  63              		.loc 1 106 0
  64 002a 364A     		ldr	r2, .L21+4
  65              	.LVL2:
  66              		.loc 1 102 0
  67 002c 8381     		strh	r3, [r0, #12]	@ movhi
  68              		.loc 1 104 0
  69 002e C381     		strh	r3, [r0, #14]	@ movhi
  70              		.loc 1 106 0
  71 0030 8260     		str	r2, [r0, #8]
  72              		.loc 1 83 0
  73 0032 0020     		movs	r0, #0
  74              	.LVL3:
  75              		.loc 1 185 0
  76 0034 40B2     		sxtb	r0, r0
  77 0036 5DF8044B 		ldr	r4, [sp], #4
  78              		.cfi_remember_state
  79              		.cfi_restore 4
  80              		.cfi_def_cfa_offset 0
  81 003a 7047     		bx	lr
  82              	.LVL4:
  83              	.L18:
  84              		.cfi_restore_state
  85              		.loc 1 96 0
  86 003c 2029     		cmp	r1, #32
  87 003e 3BD0     		beq	.L5
  88 0040 20D9     		bls	.L20
  89 0042 4029     		cmp	r1, #64
  90 0044 0BD0     		beq	.L8
  91 0046 8029     		cmp	r1, #128
  92 0048 54D1     		bne	.L15
  93              		.loc 1 148 0
  94 004a 2023     		movs	r3, #32
  95              	.LVL5:
  96              		.loc 1 150 0
  97 004c 2E4A     		ldr	r2, .L21+8
  98              	.LVL6:
  99              		.loc 1 148 0
 100 004e 8381     		strh	r3, [r0, #12]	@ movhi
 101              		.loc 1 149 0
 102 0050 C381     		strh	r3, [r0, #14]	@ movhi
 103              		.loc 1 150 0
 104 0052 8260     		str	r2, [r0, #8]
 105              		.loc 1 83 0
 106 0054 0020     		movs	r0, #0
 107              	.LVL7:
 108              		.loc 1 185 0
 109 0056 40B2     		sxtb	r0, r0
 110 0058 5DF8044B 		ldr	r4, [sp], #4
 111              		.cfi_remember_state
 112              		.cfi_restore 4
 113              		.cfi_def_cfa_offset 0
 114 005c 7047     		bx	lr
ARM GAS  /tmp/ccnKDy42.s 			page 3


 115              	.LVL8:
 116              	.L8:
 117              		.cfi_restore_state
 118              		.loc 1 158 0
 119 005e 2B4B     		ldr	r3, .L21+12
 120              	.LVL9:
 121              		.loc 1 156 0
 122 0060 8181     		strh	r1, [r0, #12]	@ movhi
 123              		.loc 1 157 0
 124 0062 C181     		strh	r1, [r0, #14]	@ movhi
 125              		.loc 1 158 0
 126 0064 8360     		str	r3, [r0, #8]
 127              		.loc 1 83 0
 128 0066 0020     		movs	r0, #0
 129              	.LVL10:
 130              		.loc 1 185 0
 131 0068 40B2     		sxtb	r0, r0
 132 006a 5DF8044B 		ldr	r4, [sp], #4
 133              		.cfi_remember_state
 134              		.cfi_restore 4
 135              		.cfi_def_cfa_offset 0
 136 006e 7047     		bx	lr
 137              	.LVL11:
 138              	.L13:
 139              		.cfi_restore_state
 140              		.loc 1 114 0
 141 0070 0223     		movs	r3, #2
 142              	.LVL12:
 143              		.loc 1 118 0
 144 0072 274A     		ldr	r2, .L21+16
 145              	.LVL13:
 146              		.loc 1 114 0
 147 0074 8381     		strh	r3, [r0, #12]	@ movhi
 148              		.loc 1 116 0
 149 0076 C381     		strh	r3, [r0, #14]	@ movhi
 150              		.loc 1 118 0
 151 0078 8260     		str	r2, [r0, #8]
 152              		.loc 1 83 0
 153 007a 0020     		movs	r0, #0
 154              	.LVL14:
 155              		.loc 1 185 0
 156 007c 40B2     		sxtb	r0, r0
 157 007e 5DF8044B 		ldr	r4, [sp], #4
 158              		.cfi_remember_state
 159              		.cfi_restore 4
 160              		.cfi_def_cfa_offset 0
 161 0082 7047     		bx	lr
 162              	.LVL15:
 163              	.L20:
 164              		.cfi_restore_state
 165              		.loc 1 96 0
 166 0084 1029     		cmp	r1, #16
 167 0086 35D1     		bne	.L15
 168              		.loc 1 172 0
 169 0088 4FF48073 		mov	r3, #256
 170              	.LVL16:
 171              		.loc 1 174 0
ARM GAS  /tmp/ccnKDy42.s 			page 4


 172 008c 214A     		ldr	r2, .L21+20
 173              	.LVL17:
 174              		.loc 1 172 0
 175 008e 8381     		strh	r3, [r0, #12]	@ movhi
 176              		.loc 1 173 0
 177 0090 C381     		strh	r3, [r0, #14]	@ movhi
 178              		.loc 1 174 0
 179 0092 8260     		str	r2, [r0, #8]
 180              		.loc 1 83 0
 181 0094 0020     		movs	r0, #0
 182              	.LVL18:
 183              		.loc 1 185 0
 184 0096 40B2     		sxtb	r0, r0
 185 0098 5DF8044B 		ldr	r4, [sp], #4
 186              		.cfi_remember_state
 187              		.cfi_restore 4
 188              		.cfi_def_cfa_offset 0
 189 009c 7047     		bx	lr
 190              	.LVL19:
 191              	.L19:
 192              		.cfi_restore_state
 193              		.loc 1 96 0
 194 009e B1F5007F 		cmp	r1, #512
 195 00a2 27D1     		bne	.L15
 196              		.loc 1 132 0
 197 00a4 0823     		movs	r3, #8
 198              	.LVL20:
 199              		.loc 1 134 0
 200 00a6 1C4A     		ldr	r2, .L21+24
 201              	.LVL21:
 202              		.loc 1 132 0
 203 00a8 8381     		strh	r3, [r0, #12]	@ movhi
 204              		.loc 1 133 0
 205 00aa C381     		strh	r3, [r0, #14]	@ movhi
 206              		.loc 1 134 0
 207 00ac 8260     		str	r2, [r0, #8]
 208              		.loc 1 83 0
 209 00ae 0020     		movs	r0, #0
 210              	.LVL22:
 211              		.loc 1 185 0
 212 00b0 40B2     		sxtb	r0, r0
 213 00b2 5DF8044B 		ldr	r4, [sp], #4
 214              		.cfi_remember_state
 215              		.cfi_restore 4
 216              		.cfi_def_cfa_offset 0
 217 00b6 7047     		bx	lr
 218              	.LVL23:
 219              	.L5:
 220              		.cfi_restore_state
 221              		.loc 1 164 0
 222 00b8 8023     		movs	r3, #128
 223              	.LVL24:
 224              		.loc 1 166 0
 225 00ba 184A     		ldr	r2, .L21+28
 226              	.LVL25:
 227              		.loc 1 164 0
 228 00bc 8381     		strh	r3, [r0, #12]	@ movhi
ARM GAS  /tmp/ccnKDy42.s 			page 5


 229              		.loc 1 165 0
 230 00be C381     		strh	r3, [r0, #14]	@ movhi
 231              		.loc 1 166 0
 232 00c0 8260     		str	r2, [r0, #8]
 233              		.loc 1 83 0
 234 00c2 0020     		movs	r0, #0
 235              	.LVL26:
 236              		.loc 1 185 0
 237 00c4 40B2     		sxtb	r0, r0
 238 00c6 5DF8044B 		ldr	r4, [sp], #4
 239              		.cfi_remember_state
 240              		.cfi_restore 4
 241              		.cfi_def_cfa_offset 0
 242 00ca 7047     		bx	lr
 243              	.LVL27:
 244              	.L3:
 245              		.cfi_restore_state
 246              		.loc 1 140 0
 247 00cc 1023     		movs	r3, #16
 248              	.LVL28:
 249              		.loc 1 142 0
 250 00ce 144A     		ldr	r2, .L21+32
 251              	.LVL29:
 252              		.loc 1 140 0
 253 00d0 8381     		strh	r3, [r0, #12]	@ movhi
 254              		.loc 1 141 0
 255 00d2 C381     		strh	r3, [r0, #14]	@ movhi
 256              		.loc 1 142 0
 257 00d4 8260     		str	r2, [r0, #8]
 258              		.loc 1 83 0
 259 00d6 0020     		movs	r0, #0
 260              	.LVL30:
 261              		.loc 1 185 0
 262 00d8 40B2     		sxtb	r0, r0
 263 00da 5DF8044B 		ldr	r4, [sp], #4
 264              		.cfi_remember_state
 265              		.cfi_restore 4
 266              		.cfi_def_cfa_offset 0
 267 00de 7047     		bx	lr
 268              	.LVL31:
 269              	.L10:
 270              		.cfi_restore_state
 271              		.loc 1 124 0
 272 00e0 0423     		movs	r3, #4
 273              	.LVL32:
 274              		.loc 1 126 0
 275 00e2 104A     		ldr	r2, .L21+36
 276              	.LVL33:
 277              		.loc 1 124 0
 278 00e4 8381     		strh	r3, [r0, #12]	@ movhi
 279              		.loc 1 125 0
 280 00e6 C381     		strh	r3, [r0, #14]	@ movhi
 281              		.loc 1 126 0
 282 00e8 8260     		str	r2, [r0, #8]
 283              		.loc 1 83 0
 284 00ea 0020     		movs	r0, #0
 285              	.LVL34:
ARM GAS  /tmp/ccnKDy42.s 			page 6


 286              		.loc 1 185 0
 287 00ec 40B2     		sxtb	r0, r0
 288 00ee 5DF8044B 		ldr	r4, [sp], #4
 289              		.cfi_remember_state
 290              		.cfi_restore 4
 291              		.cfi_def_cfa_offset 0
 292 00f2 7047     		bx	lr
 293              	.LVL35:
 294              	.L15:
 295              		.cfi_restore_state
 296              		.loc 1 180 0
 297 00f4 FF20     		movs	r0, #255
 298              	.LVL36:
 299              		.loc 1 185 0
 300 00f6 40B2     		sxtb	r0, r0
 301 00f8 5DF8044B 		ldr	r4, [sp], #4
 302              		.cfi_restore 4
 303              		.cfi_def_cfa_offset 0
 304 00fc 7047     		bx	lr
 305              	.L22:
 306 00fe 00BF     		.align	2
 307              	.L21:
 308 0100 00000000 		.word	twiddleCoef_4096_q15
 309 0104 00000000 		.word	armBitRevTable
 310 0108 3E000000 		.word	armBitRevTable+62
 311 010c 7E000000 		.word	armBitRevTable+126
 312 0110 02000000 		.word	armBitRevTable+2
 313 0114 FE010000 		.word	armBitRevTable+510
 314 0118 0E000000 		.word	armBitRevTable+14
 315 011c FE000000 		.word	armBitRevTable+254
 316 0120 1E000000 		.word	armBitRevTable+30
 317 0124 06000000 		.word	armBitRevTable+6
 318              		.cfi_endproc
 319              	.LFE135:
 320              		.size	arm_cfft_radix2_init_q15, .-arm_cfft_radix2_init_q15
 321              	.Letext0:
 322              		.file 2 "/home/sbcu/Dropbox/pcb-layouts/axo-on-discovery-board/axoloti/platform_linux/arm-none-eab
 323              		.file 3 "/home/sbcu/Dropbox/pcb-layouts/axo-on-discovery-board/axoloti/platform_linux/arm-none-eab
 324              		.file 4 "/home/sbcu/Dropbox/pcb-layouts/axo-on-discovery-board/axoloti/platform_linux/../CMSIS//DS
 325              		.file 5 "/home/sbcu/Dropbox/pcb-layouts/axo-on-discovery-board/axoloti/platform_linux/../CMSIS//DS