ARM GAS  /tmp/ccWkq33n.s 			page 1


   1              		.syntax unified
   2              		.cpu cortex-m4
   3              		.eabi_attribute 27, 1
   4              		.eabi_attribute 28, 1
   5              		.fpu fpv4-sp-d16
   6              		.eabi_attribute 20, 1
   7              		.eabi_attribute 21, 1
   8              		.eabi_attribute 23, 3
   9              		.eabi_attribute 24, 1
  10              		.eabi_attribute 25, 1
  11              		.eabi_attribute 26, 1
  12              		.eabi_attribute 30, 2
  13              		.eabi_attribute 34, 1
  14              		.eabi_attribute 18, 4
  15              		.thumb
  16              		.file	"arm_cfft_radix8_f32.c"
  17              		.text
  18              	.Ltext0:
  19              		.cfi_sections	.debug_frame
  20              		.align	2
  21              		.p2align 4,,15
  22              		.global	arm_radix8_butterfly_f32
  23              		.thumb
  24              		.thumb_func
  25              		.type	arm_radix8_butterfly_f32, %function
  26              	arm_radix8_butterfly_f32:
  27              	.LFB135:
  28              		.file 1 "/home/sbcu/Dropbox/pcb-layouts/axo-on-discovery-board/axoloti/platform_linux/../CMSIS//DS
  29              		.loc 1 62 0
  30              		.cfi_startproc
  31              		@ args = 0, pretend = 0, frame = 112
  32              		@ frame_needed = 0, uses_anonymous_args = 0
  33              	.LVL0:
  34 0000 2DE9F04F 		push	{r4, r5, r6, r7, r8, r9, r10, fp, lr}
  35              		.cfi_def_cfa_offset 36
  36              		.cfi_offset 4, -36
  37              		.cfi_offset 5, -32
  38              		.cfi_offset 6, -28
  39              		.cfi_offset 7, -24
  40              		.cfi_offset 8, -20
  41              		.cfi_offset 9, -16
  42              		.cfi_offset 10, -12
  43              		.cfi_offset 11, -8
  44              		.cfi_offset 14, -4
  45 0004 2DED108B 		fstmfdd	sp!, {d8, d9, d10, d11, d12, d13, d14, d15}
  46              		.cfi_def_cfa_offset 100
  47              		.cfi_offset 80, -100
  48              		.cfi_offset 81, -96
  49              		.cfi_offset 82, -92
  50              		.cfi_offset 83, -88
  51              		.cfi_offset 84, -84
  52              		.cfi_offset 85, -80
  53              		.cfi_offset 86, -76
  54              		.cfi_offset 87, -72
  55              		.cfi_offset 88, -68
  56              		.cfi_offset 89, -64
  57              		.cfi_offset 90, -60
ARM GAS  /tmp/ccWkq33n.s 			page 2


  58              		.cfi_offset 91, -56
  59              		.cfi_offset 92, -52
  60              		.cfi_offset 93, -48
  61              		.cfi_offset 94, -44
  62              		.cfi_offset 95, -40
  63 0008 9DB0     		sub	sp, sp, #116
  64              		.cfi_def_cfa_offset 216
  65              		.loc 1 62 0
  66 000a 1C46     		mov	r4, r3
  67              		.loc 1 129 0
  68 000c DFEDCAAA 		flds	s21, .L12
  69              		.loc 1 62 0
  70 0010 1A92     		str	r2, [sp, #104]
  71 0012 031D     		adds	r3, r0, #4
  72              	.LVL1:
  73 0014 8246     		mov	r10, r0
  74 0016 8946     		mov	r9, r1
  75              	.LVL2:
  76              		.loc 1 76 0
  77 0018 8B46     		mov	fp, r1
  78 001a 1B93     		str	r3, [sp, #108]
  79 001c 0094     		str	r4, [sp]
  80              	.LVL3:
  81              	.L6:
  82              		.loc 1 81 0
  83 001e 4FEADB03 		lsr	r3, fp, #3
  84 0022 5A00     		lsls	r2, r3, #1
  85 0024 D618     		adds	r6, r2, r3
  86 0026 F518     		adds	r5, r6, r3
  87 0028 0492     		str	r2, [sp, #16]
  88 002a 5A19     		adds	r2, r3, r5
  89 002c D018     		adds	r0, r2, r3
  90 002e DF00     		lsls	r7, r3, #3
  91 0030 1918     		adds	r1, r3, r0
  92 0032 3C46     		mov	r4, r7
  93 0034 0297     		str	r7, [sp, #8]
  94 0036 5744     		add	r7, r10, r7
  95 0038 0C93     		str	r3, [sp, #48]
  96              	.LVL4:
  97 003a 0AEBC202 		add	r2, r10, r2, lsl #3
  98 003e 1B01     		lsls	r3, r3, #4
  99              	.LVL5:
 100 0040 0AEBC101 		add	r1, r10, r1, lsl #3
 101 0044 07EB040C 		add	ip, r7, r4
 102 0048 DDF86CE0 		ldr	lr, [sp, #108]
 103              		.loc 1 82 0
 104 004c 009C     		ldr	r4, [sp]
 105 004e 0393     		str	r3, [sp, #12]
 106 0050 0AEBC606 		add	r6, r10, r6, lsl #3
 107 0054 0AEBC505 		add	r5, r10, r5, lsl #3
 108 0058 0432     		adds	r2, r2, #4
 109 005a 0431     		adds	r1, r1, #4
 110 005c 0AEBC000 		add	r0, r10, r0, lsl #3
 111 0060 4FEACB03 		lsl	r3, fp, #3
 112 0064 4FF00008 		mov	r8, #0
 113              	.LVL6:
 114              	.L2:
ARM GAS  /tmp/ccWkq33n.s 			page 3


 115              		.loc 1 93 0 discriminator 1
 116 0068 5EED011A 		flds	s3, [lr, #-4]
 117              		.loc 1 97 0 discriminator 1
 118 006c 90ED002A 		flds	s4, [r0]
 119              		.loc 1 95 0 discriminator 1
 120 0070 97ED004A 		flds	s8, [r7]
 121 0074 52ED016A 		flds	s13, [r2, #-4]
 122              		.loc 1 99 0 discriminator 1
 123 0078 96ED003A 		flds	s6, [r6]
 124 007c 51ED010A 		flds	s1, [r1, #-4]
 125              		.loc 1 93 0 discriminator 1
 126 0080 D5ED002A 		flds	s5, [r5]
 127              		.loc 1 97 0 discriminator 1
 128 0084 9CED001A 		flds	s2, [ip]
 129              		.loc 1 93 0 discriminator 1
 130 0088 31EEA20A 		fadds	s0, s3, s5
 131              	.LVL7:
 132              		.loc 1 97 0 discriminator 1
 133 008c 71EE029A 		fadds	s19, s2, s4
 134              		.loc 1 95 0 discriminator 1
 135 0090 34EE266A 		fadds	s12, s8, s13
 136              		.loc 1 99 0 discriminator 1
 137 0094 33EE209A 		fadds	s18, s6, s1
 138              		.loc 1 102 0 discriminator 1
 139 0098 30EE297A 		fadds	s14, s0, s19
 140              		.loc 1 104 0 discriminator 1
 141 009c 76EE097A 		fadds	s15, s12, s18
 142              		.loc 1 96 0 discriminator 1
 143 00a0 74EE663A 		fsubs	s7, s8, s13
 144              		.loc 1 105 0 discriminator 1
 145 00a4 77EE276A 		fadds	s13, s14, s15
 146              		.loc 1 106 0 discriminator 1
 147 00a8 37EE677A 		fsubs	s14, s14, s15
 148              		.loc 1 105 0 discriminator 1
 149 00ac 4EED016A 		fsts	s13, [lr, #-4]
 150              		.loc 1 106 0 discriminator 1
 151 00b0 85ED007A 		fsts	s14, [r5]
 152              		.loc 1 109 0 discriminator 1
 153 00b4 D7ED015A 		flds	s11, [r7, #4]
 154 00b8 D2ED006A 		flds	s13, [r2]
 155              		.loc 1 113 0 discriminator 1
 156 00bc D6ED014A 		flds	s9, [r6, #4]
 157 00c0 91ED00BA 		flds	s22, [r1]
 158              		.loc 1 107 0 discriminator 1
 159 00c4 D5ED018A 		flds	s17, [r5, #4]
 160 00c8 9EED007A 		flds	s14, [lr]
 161              		.loc 1 111 0 discriminator 1
 162 00cc D0ED017A 		flds	s15, [r0, #4]
 163 00d0 9CED015A 		flds	s10, [ip, #4]
 164              		.loc 1 100 0 discriminator 1
 165 00d4 33EE604A 		fsubs	s8, s6, s1
 166              		.loc 1 110 0 discriminator 1
 167 00d8 35EEE63A 		fsubs	s6, s11, s13
 168              		.loc 1 114 0 discriminator 1
 169 00dc 74EECB0A 		fsubs	s1, s9, s22
 170              		.loc 1 98 0 discriminator 1
 171 00e0 31EE421A 		fsubs	s2, s2, s4
ARM GAS  /tmp/ccWkq33n.s 			page 4


 172              		.loc 1 112 0 discriminator 1
 173 00e4 35EE678A 		fsubs	s16, s10, s15
 174              		.loc 1 108 0 discriminator 1
 175 00e8 37EE682A 		fsubs	s4, s14, s17
 176              		.loc 1 94 0 discriminator 1
 177 00ec 71EEE22A 		fsubs	s5, s3, s5
 178              	.LVL8:
 179              		.loc 1 128 0 discriminator 1
 180 00f0 73EE201A 		fadds	s3, s6, s1
 181              		.loc 1 127 0 discriminator 1
 182 00f4 33EE603A 		fsubs	s6, s6, s1
 183              		.loc 1 125 0 discriminator 1
 184 00f8 33EEC4AA 		fsubs	s20, s7, s8
 185              		.loc 1 109 0 discriminator 1
 186 00fc 75EEA60A 		fadds	s1, s11, s13
 187              		.loc 1 126 0 discriminator 1
 188 0100 33EE844A 		fadds	s8, s7, s8
 189              	.LVL9:
 190              		.loc 1 107 0 discriminator 1
 191 0104 37EE287A 		fadds	s14, s14, s17
 192              		.loc 1 113 0 discriminator 1
 193 0108 74EE8B5A 		fadds	s11, s9, s22
 194              		.loc 1 136 0 discriminator 1
 195 010c F0EE488A 		fcpys	s17, s16
 196              		.loc 1 134 0 discriminator 1
 197 0110 F0EE423A 		fcpys	s7, s4
 198              	.LVL10:
 199              		.loc 1 133 0 discriminator 1
 200 0114 F0EE424A 		fcpys	s9, s4
 201              		.loc 1 136 0 discriminator 1
 202 0118 E1EEAA8A 		vfma.f32	s17, s3, s21
 203              		.loc 1 146 0 discriminator 1
 204 011c D844     		add	r8, r8, fp
 205              	.LVL11:
 206              		.loc 1 147 0 discriminator 1
 207 011e C145     		cmp	r9, r8
 208              		.loc 1 135 0 discriminator 1
 209 0120 A1EEEA8A 		vfms.f32	s16, s3, s21
 210              		.loc 1 134 0 discriminator 1
 211 0124 E3EE2A3A 		vfma.f32	s7, s6, s21
 212              		.loc 1 133 0 discriminator 1
 213 0128 E3EE6A4A 		vfms.f32	s9, s6, s21
 214              		.loc 1 130 0 discriminator 1
 215 012c F0EE621A 		fcpys	s3, s5
 216              		.loc 1 132 0 discriminator 1
 217 0130 B0EE412A 		fcpys	s4, s2
 218              		.loc 1 131 0 discriminator 1
 219 0134 B0EE413A 		fcpys	s6, s2
 220              		.loc 1 111 0 discriminator 1
 221 0138 35EE275A 		fadds	s10, s10, s15
 222              		.loc 1 132 0 discriminator 1
 223 013c A4EE2A2A 		vfma.f32	s4, s8, s21
 224              		.loc 1 131 0 discriminator 1
 225 0140 A4EE6A3A 		vfms.f32	s6, s8, s21
 226              		.loc 1 130 0 discriminator 1
 227 0144 EAEE2A1A 		vfma.f32	s3, s20, s21
 228              		.loc 1 129 0 discriminator 1
ARM GAS  /tmp/ccWkq33n.s 			page 5


 229 0148 EAEE6A2A 		vfms.f32	s5, s20, s21
 230              	.LVL12:
 231              		.loc 1 118 0 discriminator 1
 232 014c 30EEA51A 		fadds	s2, s1, s11
 233              	.LVL13:
 234              		.loc 1 116 0 discriminator 1
 235 0150 37EE054A 		fadds	s8, s14, s10
 236              		.loc 1 115 0 discriminator 1
 237 0154 77EE457A 		fsubs	s15, s14, s10
 238              		.loc 1 101 0 discriminator 1
 239 0158 70EE696A 		fsubs	s13, s0, s19
 240              	.LVL14:
 241              		.loc 1 103 0 discriminator 1
 242 015c 36EE496A 		fsubs	s12, s12, s18
 243              	.LVL15:
 244              		.loc 1 117 0 discriminator 1
 245 0160 70EEE55A 		fsubs	s11, s1, s11
 246              	.LVL16:
 247              		.loc 1 119 0 discriminator 1
 248 0164 34EE010A 		fadds	s0, s8, s2
 249              		.loc 1 121 0 discriminator 1
 250 0168 76EEA50A 		fadds	s1, s13, s11
 251              		.loc 1 120 0 discriminator 1
 252 016c 34EE414A 		fsubs	s8, s8, s2
 253              		.loc 1 122 0 discriminator 1
 254 0170 76EEE56A 		fsubs	s13, s13, s11
 255              		.loc 1 123 0 discriminator 1
 256 0174 37EEC61A 		fsubs	s2, s15, s12
 257              		.loc 1 137 0 discriminator 1
 258 0178 31EEA85A 		fadds	s10, s3, s17
 259              		.loc 1 124 0 discriminator 1
 260 017c 77EE867A 		fadds	s15, s15, s12
 261              		.loc 1 139 0 discriminator 1
 262 0180 72EE885A 		fadds	s11, s5, s16
 263              	.LVL17:
 264              		.loc 1 141 0 discriminator 1
 265 0184 33EEC26A 		fsubs	s12, s7, s4
 266              	.LVL18:
 267              		.loc 1 143 0 discriminator 1
 268 0188 34EEC37A 		fsubs	s14, s9, s6
 269              		.loc 1 138 0 discriminator 1
 270 018c 71EEE81A 		fsubs	s3, s3, s17
 271              	.LVL19:
 272              		.loc 1 140 0 discriminator 1
 273 0190 72EEC82A 		fsubs	s5, s5, s16
 274              	.LVL20:
 275              		.loc 1 142 0 discriminator 1
 276 0194 73EE823A 		fadds	s7, s7, s4
 277              	.LVL21:
 278              		.loc 1 144 0 discriminator 1
 279 0198 74EE834A 		fadds	s9, s9, s6
 280              	.LVL22:
 281              		.loc 1 119 0 discriminator 1
 282 019c 8EED000A 		fsts	s0, [lr]
 283              	.LVL23:
 284              		.loc 1 120 0 discriminator 1
 285 01a0 85ED014A 		fsts	s8, [r5, #4]
ARM GAS  /tmp/ccWkq33n.s 			page 6


 286 01a4 9E44     		add	lr, lr, r3
 287              		.loc 1 121 0 discriminator 1
 288 01a6 CCED000A 		fsts	s1, [ip]
 289 01aa 1D44     		add	r5, r5, r3
 290              		.loc 1 122 0 discriminator 1
 291 01ac C0ED006A 		fsts	s13, [r0]
 292              		.loc 1 123 0 discriminator 1
 293 01b0 8CED011A 		fsts	s2, [ip, #4]
 294              		.loc 1 124 0 discriminator 1
 295 01b4 C0ED017A 		fsts	s15, [r0, #4]
 296 01b8 9C44     		add	ip, ip, r3
 297              		.loc 1 137 0 discriminator 1
 298 01ba 87ED005A 		fsts	s10, [r7]
 299 01be 1844     		add	r0, r0, r3
 300              		.loc 1 138 0 discriminator 1
 301 01c0 41ED011A 		fsts	s3, [r1, #-4]
 302              		.loc 1 139 0 discriminator 1
 303 01c4 42ED015A 		fsts	s11, [r2, #-4]
 304              		.loc 1 140 0 discriminator 1
 305 01c8 C6ED002A 		fsts	s5, [r6]
 306              		.loc 1 141 0 discriminator 1
 307 01cc 87ED016A 		fsts	s12, [r7, #4]
 308              		.loc 1 142 0 discriminator 1
 309 01d0 C1ED003A 		fsts	s7, [r1]
 310 01d4 1F44     		add	r7, r7, r3
 311              		.loc 1 143 0 discriminator 1
 312 01d6 82ED007A 		fsts	s14, [r2]
 313 01da 1944     		add	r1, r1, r3
 314              		.loc 1 144 0 discriminator 1
 315 01dc C6ED014A 		fsts	s9, [r6, #4]
 316 01e0 1A44     		add	r2, r2, r3
 317 01e2 1E44     		add	r6, r6, r3
 318              		.loc 1 147 0 discriminator 1
 319 01e4 3FF640AF 		bhi	.L2
 320              		.loc 1 149 0
 321 01e8 0C9A     		ldr	r2, [sp, #48]
 322 01ea 0193     		str	r3, [sp, #4]
 323 01ec 072A     		cmp	r2, #7
 324 01ee 2346     		mov	r3, r4
 325 01f0 40F2C981 		bls	.L1
 326 01f4 04EB440E 		add	lr, r4, r4, lsl #1
 327 01f8 0EEB0307 		add	r7, lr, r3
 328 01fc FD18     		adds	r5, r7, r3
 329 01fe E818     		adds	r0, r5, r3
 330 0200 049C     		ldr	r4, [sp, #16]
 331 0202 0093     		str	r3, [sp]
 332              	.LVL24:
 333 0204 00EB030C 		add	ip, r0, r3
 334 0208 C000     		lsls	r0, r0, #3
 335 020a 1090     		str	r0, [sp, #64]
 336 020c 0098     		ldr	r0, [sp]
 337 020e A118     		adds	r1, r4, r2
 338 0210 661C     		adds	r6, r4, #1
 339 0212 4FEACE04 		lsl	r4, lr, #3
 340 0216 0F94     		str	r4, [sp, #60]
 341 0218 C400     		lsls	r4, r0, #3
 342 021a 0D94     		str	r4, [sp, #52]
ARM GAS  /tmp/ccWkq33n.s 			page 7


 343 021c 029C     		ldr	r4, [sp, #8]
 344 021e 0834     		adds	r4, r4, #8
 345 0220 1694     		str	r4, [sp, #88]
 346 0222 039C     		ldr	r4, [sp, #12]
 347 0224 0834     		adds	r4, r4, #8
 348 0226 ED00     		lsls	r5, r5, #3
 349 0228 1794     		str	r4, [sp, #92]
 350 022a 1A9C     		ldr	r4, [sp, #104]
 351 022c 1395     		str	r5, [sp, #76]
 352 022e 2B46     		mov	r3, r5
 353 0230 4FEACC05 		lsl	r5, ip, #3
 354 0234 1295     		str	r5, [sp, #72]
 355 0236 6519     		adds	r5, r4, r5
 356 0238 0795     		str	r5, [sp, #28]
 357 023a 109D     		ldr	r5, [sp, #64]
 358 023c 06EB8206 		add	r6, r6, r2, lsl #2
 359 0240 1644     		add	r6, r6, r2
 360 0242 6519     		adds	r5, r4, r5
 361 0244 02EB8202 		add	r2, r2, r2, lsl #2
 362 0248 0001     		lsls	r0, r0, #4
 363 024a D200     		lsls	r2, r2, #3
 364 024c 0895     		str	r5, [sp, #32]
 365 024e E518     		adds	r5, r4, r3
 366 0250 0D9B     		ldr	r3, [sp, #52]
 367 0252 0E90     		str	r0, [sp, #56]
 368 0254 0C32     		adds	r2, r2, #12
 369 0256 0AEBC606 		add	r6, r10, r6, lsl #3
 370 025a 0C98     		ldr	r0, [sp, #48]
 371 025c 1492     		str	r2, [sp, #80]
 372 025e E218     		adds	r2, r4, r3
 373 0260 0E9B     		ldr	r3, [sp, #56]
 374 0262 0995     		str	r5, [sp, #36]
 375 0264 FF00     		lsls	r7, r7, #3
 376 0266 351D     		adds	r5, r6, #4
 377 0268 0F9E     		ldr	r6, [sp, #60]
 378 026a 0A95     		str	r5, [sp, #40]
 379 026c E318     		adds	r3, r4, r3
 380 026e E519     		adds	r5, r4, r7
 381 0270 4001     		lsls	r0, r0, #5
 382 0272 4FEAC10E 		lsl	lr, r1, #3
 383 0276 0695     		str	r5, [sp, #24]
 384 0278 0901     		lsls	r1, r1, #4
 385 027a A519     		adds	r5, r4, r6
 386 027c 0593     		str	r3, [sp, #20]
 387 027e 00F10803 		add	r3, r0, #8
 388 0282 0495     		str	r5, [sp, #16]
 389 0284 0C31     		adds	r1, r1, #12
 390 0286 0EF10805 		add	r5, lr, #8
 391 028a 1893     		str	r3, [sp, #96]
 392 028c 019B     		ldr	r3, [sp, #4]
 393 028e 0392     		str	r2, [sp, #12]
 394 0290 1197     		str	r7, [sp, #68]
 395 0292 1995     		str	r5, [sp, #100]
 396 0294 1591     		str	r1, [sp, #84]
 397 0296 0022     		movs	r2, #0
 398 0298 4FF00108 		mov	r8, #1
 399              	.LVL25:
ARM GAS  /tmp/ccWkq33n.s 			page 8


 400              	.L5:
 401 029c 02F10801 		add	r1, r2, #8
 402 02a0 0F46     		mov	r7, r1
 403 02a2 0B91     		str	r1, [sp, #44]
 404 02a4 1899     		ldr	r1, [sp, #96]
 405 02a6 8E18     		adds	r6, r1, r2
 406 02a8 1699     		ldr	r1, [sp, #88]
 407 02aa 8D18     		adds	r5, r1, r2
 408 02ac 1799     		ldr	r1, [sp, #92]
 409 02ae 8C18     		adds	r4, r1, r2
 410 02b0 1999     		ldr	r1, [sp, #100]
 411 02b2 8818     		adds	r0, r1, r2
 412 02b4 1499     		ldr	r1, [sp, #80]
 413 02b6 01EB020C 		add	ip, r1, r2
 414 02ba 1599     		ldr	r1, [sp, #84]
 415 02bc 0A44     		add	r2, r2, r1
 416              		.loc 1 167 0
 417 02be 0399     		ldr	r1, [sp, #12]
 418 02c0 91ED00FA 		flds	s30, [r1]
 419              	.LVL26:
 420              		.loc 1 168 0
 421 02c4 0599     		ldr	r1, [sp, #20]
 422 02c6 D1ED00EA 		flds	s29, [r1]
 423              	.LVL27:
 424              		.loc 1 169 0
 425 02ca 0499     		ldr	r1, [sp, #16]
 426 02cc 91ED00EA 		flds	s28, [r1]
 427              	.LVL28:
 428              		.loc 1 170 0
 429 02d0 0699     		ldr	r1, [sp, #24]
 430 02d2 D1ED00DA 		flds	s27, [r1]
 431              	.LVL29:
 432              		.loc 1 171 0
 433 02d6 0999     		ldr	r1, [sp, #36]
 434 02d8 91ED00DA 		flds	s26, [r1]
 435              	.LVL30:
 436              		.loc 1 172 0
 437 02dc 0899     		ldr	r1, [sp, #32]
 438 02de D1ED00CA 		flds	s25, [r1]
 439              	.LVL31:
 440              		.loc 1 173 0
 441 02e2 0799     		ldr	r1, [sp, #28]
 442 02e4 91ED00CA 		flds	s24, [r1]
 443              	.LVL32:
 444              		.loc 1 174 0
 445 02e8 0399     		ldr	r1, [sp, #12]
 446 02ea D1ED01BA 		flds	s23, [r1, #4]
 447              	.LVL33:
 448              		.loc 1 175 0
 449 02ee 0599     		ldr	r1, [sp, #20]
 450 02f0 91ED01BA 		flds	s22, [r1, #4]
 451              	.LVL34:
 452              		.loc 1 176 0
 453 02f4 0499     		ldr	r1, [sp, #16]
 454 02f6 91ED01AA 		flds	s20, [r1, #4]
 455              	.LVL35:
 456              		.loc 1 177 0
ARM GAS  /tmp/ccWkq33n.s 			page 9


 457 02fa 0699     		ldr	r1, [sp, #24]
 458 02fc D1ED019A 		flds	s19, [r1, #4]
 459              	.LVL36:
 460              		.loc 1 178 0
 461 0300 0999     		ldr	r1, [sp, #36]
 462 0302 D1ED017A 		flds	s15, [r1, #4]
 463              		.loc 1 179 0
 464 0306 0899     		ldr	r1, [sp, #32]
 465              		.loc 1 178 0
 466 0308 CDED007A 		fsts	s15, [sp]
 467              	.LVL37:
 468              		.loc 1 179 0
 469 030c D1ED017A 		flds	s15, [r1, #4]
 470              	.LVL38:
 471              		.loc 1 180 0
 472 0310 0799     		ldr	r1, [sp, #28]
 473              		.loc 1 179 0
 474 0312 CDED017A 		fsts	s15, [sp, #4]
 475              	.LVL39:
 476              		.loc 1 180 0
 477 0316 D1ED017A 		flds	s15, [r1, #4]
 478              	.LVL40:
 479 031a 0AEB070E 		add	lr, r10, r7
 480 031e 0A9F     		ldr	r7, [sp, #40]
 481 0320 CDED027A 		fsts	s15, [sp, #8]
 482              	.LVL41:
 483 0324 0CEB0A01 		add	r1, ip, r10
 484 0328 5644     		add	r6, r6, r10
 485 032a 5544     		add	r5, r5, r10
 486 032c 5444     		add	r4, r4, r10
 487 032e 5044     		add	r0, r0, r10
 488 0330 5244     		add	r2, r2, r10
 489              		.loc 1 182 0
 490 0332 C446     		mov	ip, r8
 491 0334 02E0     		b	.L13
 492              	.L14:
 493 0336 00BF     		.align	2
 494              	.L12:
 495 0338 F304353F 		.word	1060439283
 496              	.L13:
 497              	.LVL42:
 498              	.L4:
 499              		.loc 1 194 0 discriminator 1
 500 033c DEED00FA 		flds	s31, [lr]
 501              		.loc 1 198 0 discriminator 1
 502 0340 52ED012A 		flds	s5, [r2, #-4]
 503              		.loc 1 196 0 discriminator 1
 504 0344 11ED016A 		flds	s12, [r1, #-4]
 505              		.loc 1 200 0 discriminator 1
 506 0348 D0ED005A 		flds	s11, [r0]
 507 034c 57ED016A 		flds	s13, [r7, #-4]
 508              		.loc 1 194 0 discriminator 1
 509 0350 96ED007A 		flds	s14, [r6]
 510              		.loc 1 198 0 discriminator 1
 511 0354 D4ED007A 		flds	s15, [r4]
 512              		.loc 1 196 0 discriminator 1
 513 0358 95ED002A 		flds	s4, [r5]
ARM GAS  /tmp/ccWkq33n.s 			page 10


 514              		.loc 1 208 0 discriminator 1
 515 035c 9EED018A 		flds	s16, [lr, #4]
 516              		.loc 1 194 0 discriminator 1
 517 0360 7FEE870A 		fadds	s1, s31, s14
 518              	.LVL43:
 519              		.loc 1 196 0 discriminator 1
 520 0364 32EE061A 		fadds	s2, s4, s12
 521              		.loc 1 198 0 discriminator 1
 522 0368 37EEA24A 		fadds	s8, s15, s5
 523              		.loc 1 200 0 discriminator 1
 524 036c 75EEA64A 		fadds	s9, s11, s13
 525              		.loc 1 203 0 discriminator 1
 526 0370 70EE841A 		fadds	s3, s1, s8
 527              		.loc 1 205 0 discriminator 1
 528 0374 31EE245A 		fadds	s10, s2, s9
 529              		.loc 1 197 0 discriminator 1
 530 0378 32EE462A 		fsubs	s4, s4, s12
 531              		.loc 1 206 0 discriminator 1
 532 037c 31EE856A 		fadds	s12, s3, s10
 533              		.loc 1 201 0 discriminator 1
 534 0380 75EEE65A 		fsubs	s11, s11, s13
 535              		.loc 1 206 0 discriminator 1
 536 0384 8EED006A 		fsts	s12, [lr]
 537              		.loc 1 214 0 discriminator 1
 538 0388 D0ED018A 		flds	s17, [r0, #4]
 539              		.loc 1 210 0 discriminator 1
 540 038c 95ED019A 		flds	s18, [r5, #4]
 541 0390 91ED003A 		flds	s6, [r1]
 542              		.loc 1 214 0 discriminator 1
 543 0394 97ED006A 		flds	s12, [r7]
 544              		.loc 1 212 0 discriminator 1
 545 0398 94ED010A 		flds	s0, [r4, #4]
 546 039c D2ED006A 		flds	s13, [r2]
 547              		.loc 1 208 0 discriminator 1
 548 03a0 D6ED013A 		flds	s7, [r6, #4]
 549              		.loc 1 195 0 discriminator 1
 550 03a4 3FEEC77A 		fsubs	s14, s31, s14
 551              	.LVL44:
 552              		.loc 1 199 0 discriminator 1
 553 03a8 77EEE27A 		fsubs	s15, s15, s5
 554              	.LVL45:
 555              		.loc 1 215 0 discriminator 1
 556 03ac 78EEC6FA 		fsubs	s31, s17, s12
 557              		.loc 1 211 0 discriminator 1
 558 03b0 79EE432A 		fsubs	s5, s18, s6
 559              		.loc 1 210 0 discriminator 1
 560 03b4 39EE033A 		fadds	s6, s18, s6
 561              		.loc 1 213 0 discriminator 1
 562 03b8 30EE669A 		fsubs	s18, s0, s13
 563              		.loc 1 214 0 discriminator 1
 564 03bc 38EE866A 		fadds	s12, s17, s12
 565              		.loc 1 212 0 discriminator 1
 566 03c0 70EE266A 		fadds	s13, s0, s13
 567              		.loc 1 209 0 discriminator 1
 568 03c4 78EE638A 		fsubs	s17, s16, s7
 569              		.loc 1 246 0 discriminator 1
 570 03c8 32EEEF0A 		fsubs	s0, s5, s31
ARM GAS  /tmp/ccWkq33n.s 			page 11


 571              		.loc 1 247 0 discriminator 1
 572 03cc 72EEAF2A 		fadds	s5, s5, s31
 573              		.loc 1 208 0 discriminator 1
 574 03d0 78EE233A 		fadds	s7, s16, s7
 575              		.loc 1 202 0 discriminator 1
 576 03d4 30EEC44A 		fsubs	s8, s1, s8
 577              	.LVL46:
 578              		.loc 1 245 0 discriminator 1
 579 03d8 32EE258A 		fadds	s16, s4, s11
 580              		.loc 1 255 0 discriminator 1
 581 03dc F0EE490A 		fcpys	s1, s18
 582              		.loc 1 244 0 discriminator 1
 583 03e0 72EE655A 		fsubs	s11, s4, s11
 584              	.LVL47:
 585              		.loc 1 255 0 discriminator 1
 586 03e4 E2EEAA0A 		vfma.f32	s1, s5, s21
 587              		.loc 1 289 0 discriminator 1
 588 03e8 DC44     		add	ip, ip, fp
 589              	.LVL48:
 590              		.loc 1 290 0 discriminator 1
 591 03ea E145     		cmp	r9, ip
 592              		.loc 1 254 0 discriminator 1
 593 03ec A2EEEA9A 		vfms.f32	s18, s5, s21
 594              		.loc 1 253 0 discriminator 1
 595 03f0 B0EE682A 		fcpys	s4, s17
 596              	.LVL49:
 597              		.loc 1 249 0 discriminator 1
 598 03f4 F0EE472A 		fcpys	s5, s14
 599 03f8 E5EEAA2A 		vfma.f32	s5, s11, s21
 600              		.loc 1 248 0 discriminator 1
 601 03fc A5EEEA7A 		vfms.f32	s14, s11, s21
 602              	.LVL50:
 603              		.loc 1 253 0 discriminator 1
 604 0400 A0EE2A2A 		vfma.f32	s4, s0, s21
 605              		.loc 1 219 0 discriminator 1
 606 0404 73EE065A 		fadds	s11, s6, s12
 607              		.loc 1 252 0 discriminator 1
 608 0408 E0EE6A8A 		vfms.f32	s17, s0, s21
 609              		.loc 1 251 0 discriminator 1
 610 040c F0EE67FA 		fcpys	s31, s15
 611              		.loc 1 217 0 discriminator 1
 612 0410 33EEA60A 		fadds	s0, s7, s13
 613              		.loc 1 250 0 discriminator 1
 614 0414 E8EE6A7A 		vfms.f32	s15, s16, s21
 615              	.LVL51:
 616              		.loc 1 204 0 discriminator 1
 617 0418 71EE644A 		fsubs	s9, s2, s9
 618              	.LVL52:
 619              		.loc 1 207 0 discriminator 1
 620 041c 31EEC55A 		fsubs	s10, s3, s10
 621              		.loc 1 251 0 discriminator 1
 622 0420 E8EE2AFA 		vfma.f32	s31, s16, s21
 623              	.LVL53:
 624              		.loc 1 218 0 discriminator 1
 625 0424 33EE463A 		fsubs	s6, s6, s12
 626              		.loc 1 223 0 discriminator 1
 627 0428 30EE658A 		fsubs	s16, s0, s11
ARM GAS  /tmp/ccWkq33n.s 			page 12


 628              		.loc 1 216 0 discriminator 1
 629 042c 73EEE63A 		fsubs	s7, s7, s13
 630              	.LVL54:
 631              		.loc 1 220 0 discriminator 1
 632 0430 34EE036A 		fadds	s12, s8, s6
 633              	.LVL55:
 634              		.loc 1 256 0 discriminator 1
 635 0434 72EEA06A 		fadds	s13, s5, s1
 636              		.loc 1 221 0 discriminator 1
 637 0438 34EE434A 		fsubs	s8, s8, s6
 638              	.LVL56:
 639              		.loc 1 257 0 discriminator 1
 640 043c 72EEE00A 		fsubs	s1, s5, s1
 641              		.loc 1 224 0 discriminator 1
 642 0440 33EEE43A 		fsubs	s6, s7, s9
 643              	.LVL57:
 644 0444 65EE692A 		fnmuls	s5, s10, s19
 645              		.loc 1 225 0 discriminator 1
 646 0448 73EEA43A 		fadds	s7, s7, s9
 647              	.LVL58:
 648              		.loc 1 258 0 discriminator 1
 649 044c 77EE094A 		fadds	s9, s14, s18
 650              	.LVL59:
 651              		.loc 1 259 0 discriminator 1
 652 0450 37EE499A 		fsubs	s18, s14, s18
 653              		.loc 1 262 0 discriminator 1
 654 0454 38EEE77A 		fsubs	s14, s17, s15
 655              		.loc 1 263 0 discriminator 1
 656 0458 78EEA78A 		fadds	s17, s17, s15
 657              		.loc 1 227 0 discriminator 1
 658 045c 69EE887A 		fmuls	s15, s19, s16
 659              	.LVL60:
 660              		.loc 1 231 0 discriminator 1
 661 0460 EDEE882A 		vfma.f32	s5, s27, s16
 662              		.loc 1 230 0 discriminator 1
 663 0464 EDEE857A 		vfma.f32	s15, s27, s10
 664              	.LVL61:
 665              		.loc 1 239 0 discriminator 1
 666 0468 9DED018A 		flds	s16, [sp, #4]
 667              	.LVL62:
 668 046c 26EE4B5A 		fnmuls	s10, s12, s22
 669              	.LVL63:
 670              		.loc 1 233 0 discriminator 1
 671 0470 2BEE031A 		fmuls	s2, s22, s6
 672              		.loc 1 260 0 discriminator 1
 673 0474 72EE6F1A 		fsubs	s3, s4, s31
 674              		.loc 1 237 0 discriminator 1
 675 0478 AEEE835A 		vfma.f32	s10, s29, s6
 676              		.loc 1 236 0 discriminator 1
 677 047c AEEE861A 		vfma.f32	s2, s29, s12
 678              		.loc 1 239 0 discriminator 1
 679 0480 28EE233A 		fmuls	s6, s16, s7
 680              	.LVL64:
 681 0484 24EE486A 		fnmuls	s12, s8, s16
 682              	.LVL65:
 683              		.loc 1 261 0 discriminator 1
 684 0488 32EE2F2A 		fadds	s4, s4, s31
ARM GAS  /tmp/ccWkq33n.s 			page 13


 685              		.loc 1 271 0 discriminator 1
 686 048c 9DED028A 		flds	s16, [sp, #8]
 687              		.loc 1 242 0 discriminator 1
 688 0490 ACEE843A 		vfma.f32	s6, s25, s8
 689              		.loc 1 243 0 discriminator 1
 690 0494 ACEEA36A 		vfma.f32	s12, s25, s7
 691              		.loc 1 265 0 discriminator 1
 692 0498 2BEEA14A 		fmuls	s8, s23, s3
 693              	.LVL66:
 694 049c 66EEEB3A 		fnmuls	s7, s13, s23
 695              	.LVL67:
 696              		.loc 1 268 0 discriminator 1
 697 04a0 AFEE264A 		vfma.f32	s8, s30, s13
 698              		.loc 1 269 0 discriminator 1
 699 04a4 EFEE213A 		vfma.f32	s7, s30, s3
 700              		.loc 1 271 0 discriminator 1
 701 04a8 68EE026A 		fmuls	s13, s16, s4
 702 04ac 60EEC81A 		fnmuls	s3, s1, s16
 703 04b0 9DED008A 		flds	s16, [sp]
 704              		.loc 1 274 0 discriminator 1
 705 04b4 ECEE206A 		vfma.f32	s13, s24, s1
 706              		.loc 1 275 0 discriminator 1
 707 04b8 ECEE021A 		vfma.f32	s3, s24, s4
 708 04bc 64EEC80A 		fnmuls	s1, s9, s16
 709              		.loc 1 277 0 discriminator 1
 710 04c0 28EE072A 		fmuls	s4, s16, s14
 711              		.loc 1 281 0 discriminator 1
 712 04c4 EDEE070A 		vfma.f32	s1, s26, s14
 713              		.loc 1 280 0 discriminator 1
 714 04c8 ADEE242A 		vfma.f32	s4, s26, s9
 715              		.loc 1 283 0 discriminator 1
 716 04cc 2AEE287A 		fmuls	s14, s20, s17
 717 04d0 69EE4A4A 		fnmuls	s9, s18, s20
 718              		.loc 1 286 0 discriminator 1
 719 04d4 AEEE097A 		vfma.f32	s14, s28, s18
 720              		.loc 1 287 0 discriminator 1
 721 04d8 EEEE284A 		vfma.f32	s9, s28, s17
 722              		.loc 1 222 0 discriminator 1
 723 04dc 70EE255A 		fadds	s11, s0, s11
 724              	.LVL68:
 725 04e0 CEED015A 		fsts	s11, [lr, #4]
 726              	.LVL69:
 727              		.loc 1 230 0 discriminator 1
 728 04e4 C6ED007A 		fsts	s15, [r6]
 729              		.loc 1 231 0 discriminator 1
 730 04e8 C6ED012A 		fsts	s5, [r6, #4]
 731 04ec 9E44     		add	lr, lr, r3
 732              		.loc 1 236 0 discriminator 1
 733 04ee 84ED001A 		fsts	s2, [r4]
 734              		.loc 1 237 0 discriminator 1
 735 04f2 84ED015A 		fsts	s10, [r4, #4]
 736              	.LVL70:
 737 04f6 1E44     		add	r6, r6, r3
 738              		.loc 1 242 0 discriminator 1
 739 04f8 02ED013A 		fsts	s6, [r2, #-4]
 740              		.loc 1 243 0 discriminator 1
 741 04fc 82ED006A 		fsts	s12, [r2]
ARM GAS  /tmp/ccWkq33n.s 			page 14


 742 0500 1C44     		add	r4, r4, r3
 743              		.loc 1 268 0 discriminator 1
 744 0502 85ED004A 		fsts	s8, [r5]
 745              		.loc 1 269 0 discriminator 1
 746 0506 C5ED013A 		fsts	s7, [r5, #4]
 747 050a 1A44     		add	r2, r2, r3
 748              		.loc 1 274 0 discriminator 1
 749 050c 47ED016A 		fsts	s13, [r7, #-4]
 750              		.loc 1 275 0 discriminator 1
 751 0510 C7ED001A 		fsts	s3, [r7]
 752 0514 1D44     		add	r5, r5, r3
 753              		.loc 1 280 0 discriminator 1
 754 0516 01ED012A 		fsts	s4, [r1, #-4]
 755              		.loc 1 281 0 discriminator 1
 756 051a C1ED000A 		fsts	s1, [r1]
 757              	.LVL71:
 758 051e 1F44     		add	r7, r7, r3
 759              		.loc 1 286 0 discriminator 1
 760 0520 80ED007A 		fsts	s14, [r0]
 761 0524 1944     		add	r1, r1, r3
 762              		.loc 1 287 0 discriminator 1
 763 0526 C0ED014A 		fsts	s9, [r0, #4]
 764 052a 1844     		add	r0, r0, r3
 765              		.loc 1 290 0 discriminator 1
 766 052c 3FF606AF 		bhi	.L4
 767 0530 039A     		ldr	r2, [sp, #12]
 768 0532 0D99     		ldr	r1, [sp, #52]
 769 0534 0A44     		add	r2, r2, r1
 770 0536 0392     		str	r2, [sp, #12]
 771 0538 0E99     		ldr	r1, [sp, #56]
 772 053a 059A     		ldr	r2, [sp, #20]
 773 053c 0A44     		add	r2, r2, r1
 774 053e 0592     		str	r2, [sp, #20]
 775 0540 0F99     		ldr	r1, [sp, #60]
 776 0542 049A     		ldr	r2, [sp, #16]
 777 0544 0A44     		add	r2, r2, r1
 778 0546 0492     		str	r2, [sp, #16]
 779 0548 1199     		ldr	r1, [sp, #68]
 780 054a 069A     		ldr	r2, [sp, #24]
 781 054c 0A44     		add	r2, r2, r1
 782 054e 0692     		str	r2, [sp, #24]
 783 0550 1399     		ldr	r1, [sp, #76]
 784 0552 099A     		ldr	r2, [sp, #36]
 785 0554 0A44     		add	r2, r2, r1
 786 0556 0992     		str	r2, [sp, #36]
 787 0558 1099     		ldr	r1, [sp, #64]
 788 055a 089A     		ldr	r2, [sp, #32]
 789 055c 0A44     		add	r2, r2, r1
 790 055e 0892     		str	r2, [sp, #32]
 791 0560 1299     		ldr	r1, [sp, #72]
 792 0562 079A     		ldr	r2, [sp, #28]
 793 0564 0A44     		add	r2, r2, r1
 794 0566 0792     		str	r2, [sp, #28]
 795              		.loc 1 293 0
 796 0568 0C99     		ldr	r1, [sp, #48]
 797 056a 0A9A     		ldr	r2, [sp, #40]
 798              		.loc 1 292 0
ARM GAS  /tmp/ccWkq33n.s 			page 15


 799 056c 08F10108 		add	r8, r8, #1
 800              	.LVL72:
 801 0570 0832     		adds	r2, r2, #8
 802              		.loc 1 293 0
 803 0572 8845     		cmp	r8, r1
 804 0574 0A92     		str	r2, [sp, #40]
 805 0576 0B9A     		ldr	r2, [sp, #44]
 806 0578 7FF490AE 		bne	.L5
 807              		.loc 1 295 0
 808 057c BDF83430 		ldrh	r3, [sp, #52]
 809 0580 0093     		str	r3, [sp]
 810              	.LVL73:
 811 0582 C346     		mov	fp, r8
 812              	.LVL74:
 813 0584 4BE5     		b	.L6
 814              	.LVL75:
 815              	.L1:
 816              		.loc 1 297 0
 817 0586 1DB0     		add	sp, sp, #116
 818              		.cfi_def_cfa_offset 100
 819              	.LVL76:
 820              		@ sp needed
 821 0588 BDEC108B 		fldmfdd	sp!, {d8-d15}
 822              		.cfi_restore 94
 823              		.cfi_restore 95
 824              		.cfi_restore 92
 825              		.cfi_restore 93
 826              		.cfi_restore 90
 827              		.cfi_restore 91
 828              		.cfi_restore 88
 829              		.cfi_restore 89
 830              		.cfi_restore 86
 831              		.cfi_restore 87
 832              		.cfi_restore 84
 833              		.cfi_restore 85
 834              		.cfi_restore 82
 835              		.cfi_restore 83
 836              		.cfi_restore 80
 837              		.cfi_restore 81
 838              		.cfi_def_cfa_offset 36
 839              	.LVL77:
 840 058c BDE8F08F 		pop	{r4, r5, r6, r7, r8, r9, r10, fp, pc}
 841              		.cfi_endproc
 842              	.LFE135:
 843              		.size	arm_radix8_butterfly_f32, .-arm_radix8_butterfly_f32
 844              	.Letext0:
 845              		.file 2 "/home/sbcu/Dropbox/pcb-layouts/axo-on-discovery-board/axoloti/platform_linux/arm-none-eab
 846              		.file 3 "/home/sbcu/Dropbox/pcb-layouts/axo-on-discovery-board/axoloti/platform_linux/arm-none-eab
 847              		.file 4 "/home/sbcu/Dropbox/pcb-layouts/axo-on-discovery-board/axoloti/platform_linux/../CMSIS//DS