ARM GAS  /tmp/ccsHTNwO.s 			page 1


   1              		.syntax unified
   2              		.cpu cortex-m4
   3              		.eabi_attribute 27, 1
   4              		.eabi_attribute 28, 1
   5              		.fpu fpv4-sp-d16
   6              		.eabi_attribute 20, 1
   7              		.eabi_attribute 21, 1
   8              		.eabi_attribute 23, 3
   9              		.eabi_attribute 24, 1
  10              		.eabi_attribute 25, 1
  11              		.eabi_attribute 26, 1
  12              		.eabi_attribute 30, 2
  13              		.eabi_attribute 34, 1
  14              		.eabi_attribute 18, 4
  15              		.thumb
  16              		.file	"arm_cfft_q31.c"
  17              		.text
  18              	.Ltext0:
  19              		.cfi_sections	.debug_frame
  20              		.align	2
  21              		.p2align 4,,15
  22              		.global	arm_cfft_radix4by2_q31
  23              		.thumb
  24              		.thumb_func
  25              		.type	arm_cfft_radix4by2_q31, %function
  26              	arm_cfft_radix4by2_q31:
  27              	.LFB136:
  28              		.file 1 "/home/sbcu/Dropbox/pcb-layouts/axo-on-discovery-board/axoloti/platform_linux/../CMSIS//DS
  29              		.loc 1 150 0
  30              		.cfi_startproc
  31              		@ args = 0, pretend = 0, frame = 16
  32              		@ frame_needed = 0, uses_anonymous_args = 0
  33              	.LVL0:
  34 0000 2DE9F04F 		push	{r4, r5, r6, r7, r8, r9, r10, fp, lr}
  35              		.cfi_def_cfa_offset 36
  36              		.cfi_offset 4, -36
  37              		.cfi_offset 5, -32
  38              		.cfi_offset 6, -28
  39              		.cfi_offset 7, -24
  40              		.cfi_offset 8, -20
  41              		.cfi_offset 9, -16
  42              		.cfi_offset 10, -12
  43              		.cfi_offset 11, -8
  44              		.cfi_offset 14, -4
  45 0004 85B0     		sub	sp, sp, #20
  46              		.cfi_def_cfa_offset 56
  47              		.loc 1 158 0
  48 0006 4B08     		lsrs	r3, r1, #1
  49              		.loc 1 150 0
  50 0008 0191     		str	r1, [sp, #4]
  51              	.LVL1:
  52 000a 0746     		mov	r7, r0
  53 000c 9146     		mov	r9, r2
  54 000e 0092     		str	r2, [sp]
  55              		.loc 1 158 0
  56 0010 67D0     		beq	.L2
  57 0012 DA00     		lsls	r2, r3, #3
ARM GAS  /tmp/ccsHTNwO.s 			page 2


  58              	.LVL2:
  59 0014 00EB0208 		add	r8, r0, r2
  60 0018 0292     		str	r2, [sp, #8]
  61 001a C446     		mov	ip, r8
  62 001c 8646     		mov	lr, r0
  63 001e 0026     		movs	r6, #0
  64 0020 0390     		str	r0, [sp, #12]
  65 0022 1D46     		mov	r5, r3
  66              	.LVL3:
  67              	.L3:
  68              		.loc 1 165 0 discriminator 3
  69 0024 58F83620 		ldr	r2, [r8, r6, lsl #3]
  70 0028 57F83630 		ldr	r3, [r7, r6, lsl #3]
  71              		.loc 1 160 0 discriminator 3
  72 002c 0099     		ldr	r1, [sp]
  73              		.loc 1 161 0 discriminator 3
  74 002e D9F80440 		ldr	r4, [r9, #4]
  75              		.loc 1 160 0 discriminator 3
  76 0032 51F83610 		ldr	r1, [r1, r6, lsl #3]
  77              	.LVL4:
  78              		.loc 1 165 0 discriminator 3
  79 0036 4FEAA20A 		asr	r10, r2, #2
  80 003a 9B10     		asrs	r3, r3, #2
  81              		.loc 1 166 0 discriminator 3
  82 003c 03EB0A02 		add	r2, r3, r10
  83 0040 47F83620 		str	r2, [r7, r6, lsl #3]
  84              		.loc 1 168 0 discriminator 3
  85 0044 DEF80400 		ldr	r0, [lr, #4]
  86 0048 DCF80420 		ldr	r2, [ip, #4]
  87 004c 8010     		asrs	r0, r0, #2
  88 004e 9210     		asrs	r2, r2, #2
  89              		.loc 1 169 0 discriminator 3
  90 0050 00EB020B 		add	fp, r0, r2
  91              		.loc 1 165 0 discriminator 3
  92 0054 CAEB0303 		rsb	r3, r10, r3
  93              	.LVL5:
  94              		.loc 1 169 0 discriminator 3
  95 0058 CEF804B0 		str	fp, [lr, #4]
  96              		.loc 1 168 0 discriminator 3
  97 005c 801A     		subs	r0, r0, r2
  98              	.LVL6:
  99              		.loc 1 171 0 discriminator 3
 100              	@ 171 "/home/sbcu/Dropbox/pcb-layouts/axo-on-discovery-board/axoloti/platform_linux/../CMSIS//DSP_L
 101 005e 53FB11F2 		smmulr r2, r3, r1
 102              	@ 0 "" 2
 103              	.LVL7:
 104              		.loc 1 172 0 discriminator 3
 105              	@ 172 "/home/sbcu/Dropbox/pcb-layouts/axo-on-discovery-board/axoloti/platform_linux/../CMSIS//DSP_L
 106 0062 50FB11F1 		smmulr r1, r0, r1
 107              	@ 0 "" 2
 108              	.LVL8:
 109              		.loc 1 173 0 discriminator 3
 110              	@ 173 "/home/sbcu/Dropbox/pcb-layouts/axo-on-discovery-board/axoloti/platform_linux/../CMSIS//DSP_L
 111 0066 50FB1420 		smmlar r0, r0, r4, r2
 112              	@ 0 "" 2
 113              	.LVL9:
 114              		.loc 1 174 0 discriminator 3
ARM GAS  /tmp/ccsHTNwO.s 			page 3


 115              	@ 174 "/home/sbcu/Dropbox/pcb-layouts/axo-on-discovery-board/axoloti/platform_linux/../CMSIS//DSP_L
 116 006a 63FB1413 		smmlsr r3, r3, r4, r1
 117              	@ 0 "" 2
 118              	.LVL10:
 119              		.loc 1 176 0 discriminator 3
 120              		.thumb
 121 006e 4000     		lsls	r0, r0, #1
 122              	.LVL11:
 123 0070 48F83600 		str	r0, [r8, r6, lsl #3]
 124              		.loc 1 158 0 discriminator 3
 125 0074 0136     		adds	r6, r6, #1
 126              	.LVL12:
 127              		.loc 1 177 0 discriminator 3
 128 0076 5B00     		lsls	r3, r3, #1
 129              	.LVL13:
 130              		.loc 1 158 0 discriminator 3
 131 0078 AE42     		cmp	r6, r5
 132              		.loc 1 177 0 discriminator 3
 133 007a CCF80430 		str	r3, [ip, #4]
 134 007e 09F10809 		add	r9, r9, #8
 135 0082 0EF1080E 		add	lr, lr, #8
 136 0086 0CF1080C 		add	ip, ip, #8
 137              		.loc 1 158 0 discriminator 3
 138 008a CBD1     		bne	.L3
 139              		.loc 1 182 0
 140 008c 009C     		ldr	r4, [sp]
 141              	.LVL14:
 142 008e 039D     		ldr	r5, [sp, #12]
 143              	.LVL15:
 144 0090 3846     		mov	r0, r7
 145 0092 3146     		mov	r1, r6
 146 0094 2246     		mov	r2, r4
 147 0096 0223     		movs	r3, #2
 148 0098 FFF7FEFF 		bl	arm_radix4_butterfly_q31
 149              	.LVL16:
 150              		.loc 1 184 0
 151 009c 019B     		ldr	r3, [sp, #4]
 152 009e 3146     		mov	r1, r6
 153 00a0 07EB8300 		add	r0, r7, r3, lsl #2
 154 00a4 2246     		mov	r2, r4
 155 00a6 0223     		movs	r3, #2
 156 00a8 FFF7FEFF 		bl	arm_radix4_butterfly_q31
 157              	.LVL17:
 158 00ac 029B     		ldr	r3, [sp, #8]
 159 00ae 0437     		adds	r7, r7, #4
 160              	.LVL18:
 161 00b0 9844     		add	r8, r8, r3
 162              	.LVL19:
 163              	.L5:
 164              		.loc 1 191 0 discriminator 3
 165 00b2 291D     		adds	r1, r5, #4
 166 00b4 0EC9     		ldmia	r1, {r1, r2, r3}
 167              		.loc 1 188 0 discriminator 3
 168 00b6 57F8040C 		ldr	r0, [r7, #-4]
 169              	.LVL20:
 170              		.loc 1 194 0 discriminator 3
 171 00ba 4900     		lsls	r1, r1, #1
ARM GAS  /tmp/ccsHTNwO.s 			page 4


 172              	.LVL21:
 173              		.loc 1 193 0 discriminator 3
 174 00bc 4000     		lsls	r0, r0, #1
 175              	.LVL22:
 176              		.loc 1 195 0 discriminator 3
 177 00be 5200     		lsls	r2, r2, #1
 178              	.LVL23:
 179              		.loc 1 196 0 discriminator 3
 180 00c0 5B00     		lsls	r3, r3, #1
 181              	.LVL24:
 182              		.loc 1 198 0 discriminator 3
 183 00c2 47F8040C 		str	r0, [r7, #-4]
 184 00c6 1035     		adds	r5, r5, #16
 185              		.loc 1 199 0 discriminator 3
 186 00c8 45F80C1C 		str	r1, [r5, #-12]
 187              		.loc 1 200 0 discriminator 3
 188 00cc 45F8082C 		str	r2, [r5, #-8]
 189              		.loc 1 201 0 discriminator 3
 190 00d0 45F8043C 		str	r3, [r5, #-4]
 191              		.loc 1 186 0 discriminator 3
 192 00d4 4545     		cmp	r5, r8
 193 00d6 07F11007 		add	r7, r7, #16
 194 00da EAD1     		bne	.L5
 195              		.loc 1 204 0
 196 00dc 05B0     		add	sp, sp, #20
 197              		.cfi_remember_state
 198              		.cfi_def_cfa_offset 36
 199              	.LVL25:
 200              		@ sp needed
 201 00de BDE8F08F 		pop	{r4, r5, r6, r7, r8, r9, r10, fp, pc}
 202              	.LVL26:
 203              	.L2:
 204              		.cfi_restore_state
 205              		.loc 1 182 0
 206 00e2 1C46     		mov	r4, r3
 207 00e4 1946     		mov	r1, r3
 208              	.LVL27:
 209 00e6 0223     		movs	r3, #2
 210              	.LVL28:
 211 00e8 FFF7FEFF 		bl	arm_radix4_butterfly_q31
 212              	.LVL29:
 213              		.loc 1 184 0
 214 00ec 019B     		ldr	r3, [sp, #4]
 215 00ee 009A     		ldr	r2, [sp]
 216 00f0 07EB8300 		add	r0, r7, r3, lsl #2
 217 00f4 2146     		mov	r1, r4
 218 00f6 0223     		movs	r3, #2
 219              		.loc 1 204 0
 220 00f8 05B0     		add	sp, sp, #20
 221              		.cfi_def_cfa_offset 36
 222              		@ sp needed
 223 00fa BDE8F04F 		pop	{r4, r5, r6, r7, r8, r9, r10, fp, lr}
 224              		.cfi_restore 14
 225              		.cfi_restore 11
 226              		.cfi_restore 10
 227              		.cfi_restore 9
 228              		.cfi_restore 8
ARM GAS  /tmp/ccsHTNwO.s 			page 5


 229              		.cfi_restore 7
 230              		.cfi_restore 6
 231              		.cfi_restore 5
 232              		.cfi_restore 4
 233              		.cfi_def_cfa_offset 0
 234              	.LVL30:
 235              		.loc 1 184 0
 236 00fe FFF7FEBF 		b	arm_radix4_butterfly_q31
 237              	.LVL31:
 238              		.cfi_endproc
 239              	.LFE136:
 240              		.size	arm_cfft_radix4by2_q31, .-arm_cfft_radix4by2_q31
 241 0102 00BF     		.align	2
 242 0104 AFF30080 		.p2align 4,,15
 242      AFF30080 
 242      AFF30080 
 243              		.global	arm_cfft_radix4by2_inverse_q31
 244              		.thumb
 245              		.thumb_func
 246              		.type	arm_cfft_radix4by2_inverse_q31, %function
 247              	arm_cfft_radix4by2_inverse_q31:
 248              	.LFB137:
 249              		.loc 1 210 0
 250              		.cfi_startproc
 251              		@ args = 0, pretend = 0, frame = 16
 252              		@ frame_needed = 0, uses_anonymous_args = 0
 253              	.LVL32:
 254 0110 2DE9F04F 		push	{r4, r5, r6, r7, r8, r9, r10, fp, lr}
 255              		.cfi_def_cfa_offset 36
 256              		.cfi_offset 4, -36
 257              		.cfi_offset 5, -32
 258              		.cfi_offset 6, -28
 259              		.cfi_offset 7, -24
 260              		.cfi_offset 8, -20
 261              		.cfi_offset 9, -16
 262              		.cfi_offset 10, -12
 263              		.cfi_offset 11, -8
 264              		.cfi_offset 14, -4
 265 0114 85B0     		sub	sp, sp, #20
 266              		.cfi_def_cfa_offset 56
 267              		.loc 1 218 0
 268 0116 4B08     		lsrs	r3, r1, #1
 269              		.loc 1 210 0
 270 0118 0191     		str	r1, [sp, #4]
 271              	.LVL33:
 272 011a 0746     		mov	r7, r0
 273 011c 9146     		mov	r9, r2
 274 011e 0092     		str	r2, [sp]
 275              		.loc 1 218 0
 276 0120 67D0     		beq	.L14
 277 0122 DA00     		lsls	r2, r3, #3
 278              	.LVL34:
 279 0124 00EB0208 		add	r8, r0, r2
 280 0128 0292     		str	r2, [sp, #8]
 281 012a C446     		mov	ip, r8
 282 012c 8646     		mov	lr, r0
 283 012e 0026     		movs	r6, #0
ARM GAS  /tmp/ccsHTNwO.s 			page 6


 284 0130 0390     		str	r0, [sp, #12]
 285 0132 1D46     		mov	r5, r3
 286              	.LVL35:
 287              	.L15:
 288              		.loc 1 225 0 discriminator 3
 289 0134 58F83620 		ldr	r2, [r8, r6, lsl #3]
 290 0138 57F83630 		ldr	r3, [r7, r6, lsl #3]
 291              		.loc 1 220 0 discriminator 3
 292 013c 0099     		ldr	r1, [sp]
 293              		.loc 1 221 0 discriminator 3
 294 013e D9F80440 		ldr	r4, [r9, #4]
 295              		.loc 1 220 0 discriminator 3
 296 0142 51F83610 		ldr	r1, [r1, r6, lsl #3]
 297              	.LVL36:
 298              		.loc 1 225 0 discriminator 3
 299 0146 4FEAA20A 		asr	r10, r2, #2
 300 014a 9B10     		asrs	r3, r3, #2
 301              		.loc 1 226 0 discriminator 3
 302 014c 03EB0A02 		add	r2, r3, r10
 303 0150 47F83620 		str	r2, [r7, r6, lsl #3]
 304              		.loc 1 228 0 discriminator 3
 305 0154 DEF80400 		ldr	r0, [lr, #4]
 306 0158 DCF80420 		ldr	r2, [ip, #4]
 307 015c 8010     		asrs	r0, r0, #2
 308 015e 9210     		asrs	r2, r2, #2
 309              		.loc 1 229 0 discriminator 3
 310 0160 00EB020B 		add	fp, r0, r2
 311              		.loc 1 225 0 discriminator 3
 312 0164 CAEB0303 		rsb	r3, r10, r3
 313              	.LVL37:
 314              		.loc 1 229 0 discriminator 3
 315 0168 CEF804B0 		str	fp, [lr, #4]
 316              		.loc 1 228 0 discriminator 3
 317 016c 801A     		subs	r0, r0, r2
 318              	.LVL38:
 319              		.loc 1 231 0 discriminator 3
 320              	@ 231 "/home/sbcu/Dropbox/pcb-layouts/axo-on-discovery-board/axoloti/platform_linux/../CMSIS//DSP_L
 321 016e 53FB11F2 		smmulr r2, r3, r1
 322              	@ 0 "" 2
 323              	.LVL39:
 324              		.loc 1 232 0 discriminator 3
 325              	@ 232 "/home/sbcu/Dropbox/pcb-layouts/axo-on-discovery-board/axoloti/platform_linux/../CMSIS//DSP_L
 326 0172 50FB11F1 		smmulr r1, r0, r1
 327              	@ 0 "" 2
 328              	.LVL40:
 329              		.loc 1 233 0 discriminator 3
 330              	@ 233 "/home/sbcu/Dropbox/pcb-layouts/axo-on-discovery-board/axoloti/platform_linux/../CMSIS//DSP_L
 331 0176 60FB1420 		smmlsr r0, r0, r4, r2
 332              	@ 0 "" 2
 333              	.LVL41:
 334              		.loc 1 234 0 discriminator 3
 335              	@ 234 "/home/sbcu/Dropbox/pcb-layouts/axo-on-discovery-board/axoloti/platform_linux/../CMSIS//DSP_L
 336 017a 53FB1413 		smmlar r3, r3, r4, r1
 337              	@ 0 "" 2
 338              	.LVL42:
 339              		.loc 1 236 0 discriminator 3
 340              		.thumb
ARM GAS  /tmp/ccsHTNwO.s 			page 7


 341 017e 4000     		lsls	r0, r0, #1
 342              	.LVL43:
 343 0180 48F83600 		str	r0, [r8, r6, lsl #3]
 344              		.loc 1 218 0 discriminator 3
 345 0184 0136     		adds	r6, r6, #1
 346              	.LVL44:
 347              		.loc 1 237 0 discriminator 3
 348 0186 5B00     		lsls	r3, r3, #1
 349              	.LVL45:
 350              		.loc 1 218 0 discriminator 3
 351 0188 AE42     		cmp	r6, r5
 352              		.loc 1 237 0 discriminator 3
 353 018a CCF80430 		str	r3, [ip, #4]
 354 018e 09F10809 		add	r9, r9, #8
 355 0192 0EF1080E 		add	lr, lr, #8
 356 0196 0CF1080C 		add	ip, ip, #8
 357              		.loc 1 218 0 discriminator 3
 358 019a CBD1     		bne	.L15
 359              		.loc 1 242 0
 360 019c 009C     		ldr	r4, [sp]
 361              	.LVL46:
 362 019e 039D     		ldr	r5, [sp, #12]
 363              	.LVL47:
 364 01a0 3846     		mov	r0, r7
 365 01a2 3146     		mov	r1, r6
 366 01a4 2246     		mov	r2, r4
 367 01a6 0223     		movs	r3, #2
 368 01a8 FFF7FEFF 		bl	arm_radix4_butterfly_inverse_q31
 369              	.LVL48:
 370              		.loc 1 244 0
 371 01ac 019B     		ldr	r3, [sp, #4]
 372 01ae 3146     		mov	r1, r6
 373 01b0 07EB8300 		add	r0, r7, r3, lsl #2
 374 01b4 2246     		mov	r2, r4
 375 01b6 0223     		movs	r3, #2
 376 01b8 FFF7FEFF 		bl	arm_radix4_butterfly_inverse_q31
 377              	.LVL49:
 378 01bc 029B     		ldr	r3, [sp, #8]
 379 01be 0437     		adds	r7, r7, #4
 380              	.LVL50:
 381 01c0 9844     		add	r8, r8, r3
 382              	.LVL51:
 383              	.L17:
 384              		.loc 1 251 0 discriminator 3
 385 01c2 291D     		adds	r1, r5, #4
 386 01c4 0EC9     		ldmia	r1, {r1, r2, r3}
 387              		.loc 1 248 0 discriminator 3
 388 01c6 57F8040C 		ldr	r0, [r7, #-4]
 389              	.LVL52:
 390              		.loc 1 254 0 discriminator 3
 391 01ca 4900     		lsls	r1, r1, #1
 392              	.LVL53:
 393              		.loc 1 253 0 discriminator 3
 394 01cc 4000     		lsls	r0, r0, #1
 395              	.LVL54:
 396              		.loc 1 255 0 discriminator 3
 397 01ce 5200     		lsls	r2, r2, #1
ARM GAS  /tmp/ccsHTNwO.s 			page 8


 398              	.LVL55:
 399              		.loc 1 256 0 discriminator 3
 400 01d0 5B00     		lsls	r3, r3, #1
 401              	.LVL56:
 402              		.loc 1 258 0 discriminator 3
 403 01d2 47F8040C 		str	r0, [r7, #-4]
 404 01d6 1035     		adds	r5, r5, #16
 405              		.loc 1 259 0 discriminator 3
 406 01d8 45F80C1C 		str	r1, [r5, #-12]
 407              		.loc 1 260 0 discriminator 3
 408 01dc 45F8082C 		str	r2, [r5, #-8]
 409              		.loc 1 261 0 discriminator 3
 410 01e0 45F8043C 		str	r3, [r5, #-4]
 411              		.loc 1 246 0 discriminator 3
 412 01e4 4545     		cmp	r5, r8
 413 01e6 07F11007 		add	r7, r7, #16
 414 01ea EAD1     		bne	.L17
 415              		.loc 1 263 0
 416 01ec 05B0     		add	sp, sp, #20
 417              		.cfi_remember_state
 418              		.cfi_def_cfa_offset 36
 419              	.LVL57:
 420              		@ sp needed
 421 01ee BDE8F08F 		pop	{r4, r5, r6, r7, r8, r9, r10, fp, pc}
 422              	.LVL58:
 423              	.L14:
 424              		.cfi_restore_state
 425              		.loc 1 242 0
 426 01f2 1C46     		mov	r4, r3
 427 01f4 1946     		mov	r1, r3
 428              	.LVL59:
 429 01f6 0223     		movs	r3, #2
 430              	.LVL60:
 431 01f8 FFF7FEFF 		bl	arm_radix4_butterfly_inverse_q31
 432              	.LVL61:
 433              		.loc 1 244 0
 434 01fc 019B     		ldr	r3, [sp, #4]
 435 01fe 009A     		ldr	r2, [sp]
 436 0200 07EB8300 		add	r0, r7, r3, lsl #2
 437 0204 2146     		mov	r1, r4
 438 0206 0223     		movs	r3, #2
 439              		.loc 1 263 0
 440 0208 05B0     		add	sp, sp, #20
 441              		.cfi_def_cfa_offset 36
 442              		@ sp needed
 443 020a BDE8F04F 		pop	{r4, r5, r6, r7, r8, r9, r10, fp, lr}
 444              		.cfi_restore 14
 445              		.cfi_restore 11
 446              		.cfi_restore 10
 447              		.cfi_restore 9
 448              		.cfi_restore 8
 449              		.cfi_restore 7
 450              		.cfi_restore 6
 451              		.cfi_restore 5
 452              		.cfi_restore 4
 453              		.cfi_def_cfa_offset 0
 454              	.LVL62:
ARM GAS  /tmp/ccsHTNwO.s 			page 9


 455              		.loc 1 244 0
 456 020e FFF7FEBF 		b	arm_radix4_butterfly_inverse_q31
 457              	.LVL63:
 458              		.cfi_endproc
 459              	.LFE137:
 460              		.size	arm_cfft_radix4by2_inverse_q31, .-arm_cfft_radix4by2_inverse_q31
 461 0212 00BF     		.align	2
 462 0214 AFF30080 		.p2align 4,,15
 462      AFF30080 
 462      AFF30080 
 463              		.global	arm_cfft_q31
 464              		.thumb
 465              		.thumb_func
 466              		.type	arm_cfft_q31, %function
 467              	arm_cfft_q31:
 468              	.LFB135:
 469              		.loc 1 94 0
 470              		.cfi_startproc
 471              		@ args = 0, pretend = 0, frame = 0
 472              		@ frame_needed = 0, uses_anonymous_args = 0
 473              	.LVL64:
 474              		.loc 1 97 0
 475 0220 012A     		cmp	r2, #1
 476              		.loc 1 94 0
 477 0222 70B5     		push	{r4, r5, r6, lr}
 478              		.cfi_def_cfa_offset 16
 479              		.cfi_offset 4, -16
 480              		.cfi_offset 5, -12
 481              		.cfi_offset 6, -8
 482              		.cfi_offset 14, -4
 483              		.loc 1 94 0
 484 0224 0D46     		mov	r5, r1
 485 0226 0446     		mov	r4, r0
 486 0228 1E46     		mov	r6, r3
 487              		.loc 1 95 0
 488 022a 0188     		ldrh	r1, [r0]
 489              	.LVL65:
 490              		.loc 1 97 0
 491 022c 24D0     		beq	.L93
 492              		.loc 1 119 0
 493 022e B1F5807F 		cmp	r1, #256
 494 0232 13D0     		beq	.L32
 495 0234 08D8     		bhi	.L33
 496 0236 2029     		cmp	r1, #32
 497 0238 31D0     		beq	.L34
 498 023a 45D9     		bls	.L94
 499 023c 4029     		cmp	r1, #64
 500 023e 0DD0     		beq	.L32
 501 0240 8029     		cmp	r1, #128
 502 0242 2CD0     		beq	.L34
 503              	.LVL66:
 504              	.L26:
 505              		.loc 1 138 0
 506 0244 8EB9     		cbnz	r6, .L95
 507              	.L24:
 508 0246 70BD     		pop	{r4, r5, r6, pc}
 509              	.LVL67:
ARM GAS  /tmp/ccsHTNwO.s 			page 10


 510              	.L33:
 511              		.loc 1 119 0
 512 0248 B1F5806F 		cmp	r1, #1024
 513 024c 06D0     		beq	.L32
 514 024e 23D9     		bls	.L96
 515 0250 B1F5006F 		cmp	r1, #2048
 516 0254 23D0     		beq	.L34
 517 0256 B1F5805F 		cmp	r1, #4096
 518 025a F3D1     		bne	.L26
 519              	.L32:
 520              		.loc 1 126 0
 521 025c 2846     		mov	r0, r5
 522              	.LVL68:
 523 025e 6268     		ldr	r2, [r4, #4]
 524              	.LVL69:
 525 0260 0123     		movs	r3, #1
 526              	.LVL70:
 527 0262 FFF7FEFF 		bl	arm_radix4_butterfly_q31
 528              	.LVL71:
 529              		.loc 1 138 0
 530 0266 002E     		cmp	r6, #0
 531 0268 EDD0     		beq	.L24
 532              	.L95:
 533              		.loc 1 139 0
 534 026a 2846     		mov	r0, r5
 535 026c A189     		ldrh	r1, [r4, #12]
 536 026e A268     		ldr	r2, [r4, #8]
 537              		.loc 1 140 0
 538 0270 BDE87040 		pop	{r4, r5, r6, lr}
 539              		.cfi_remember_state
 540              		.cfi_restore 14
 541              		.cfi_restore 6
 542              		.cfi_restore 5
 543              		.cfi_restore 4
 544              		.cfi_def_cfa_offset 0
 545              	.LVL72:
 546              		.loc 1 139 0
 547 0274 FFF7FEBF 		b	arm_bitreversal_32
 548              	.LVL73:
 549              	.L93:
 550              		.cfi_restore_state
 551              		.loc 1 99 0
 552 0278 B1F5807F 		cmp	r1, #256
 553 027c 1ED0     		beq	.L27
 554 027e 13D8     		bhi	.L28
 555 0280 2029     		cmp	r1, #32
 556 0282 04D0     		beq	.L29
 557 0284 27D9     		bls	.L97
 558 0286 4029     		cmp	r1, #64
 559 0288 18D0     		beq	.L27
 560 028a 8029     		cmp	r1, #128
 561 028c DAD1     		bne	.L26
 562              	.L29:
 563              		.loc 1 113 0
 564 028e 2846     		mov	r0, r5
 565              	.LVL74:
 566 0290 6268     		ldr	r2, [r4, #4]
ARM GAS  /tmp/ccsHTNwO.s 			page 11


 567              	.LVL75:
 568 0292 FFF7FEFF 		bl	arm_cfft_radix4by2_inverse_q31
 569              	.LVL76:
 570              		.loc 1 114 0
 571 0296 D5E7     		b	.L26
 572              	.LVL77:
 573              	.L96:
 574              		.loc 1 119 0
 575 0298 B1F5007F 		cmp	r1, #512
 576 029c D2D1     		bne	.L26
 577              	.L34:
 578              		.loc 1 133 0
 579 029e 2846     		mov	r0, r5
 580              	.LVL78:
 581 02a0 6268     		ldr	r2, [r4, #4]
 582              	.LVL79:
 583 02a2 FFF7FEFF 		bl	arm_cfft_radix4by2_q31
 584              	.LVL80:
 585              		.loc 1 134 0
 586 02a6 CDE7     		b	.L26
 587              	.LVL81:
 588              	.L28:
 589              		.loc 1 99 0
 590 02a8 B1F5806F 		cmp	r1, #1024
 591 02ac 06D0     		beq	.L27
 592 02ae 0ED9     		bls	.L98
 593 02b0 B1F5006F 		cmp	r1, #2048
 594 02b4 EBD0     		beq	.L29
 595 02b6 B1F5805F 		cmp	r1, #4096
 596 02ba C3D1     		bne	.L26
 597              	.L27:
 598              		.loc 1 106 0
 599 02bc 2846     		mov	r0, r5
 600              	.LVL82:
 601 02be 6268     		ldr	r2, [r4, #4]
 602              	.LVL83:
 603 02c0 0123     		movs	r3, #1
 604              	.LVL84:
 605 02c2 FFF7FEFF 		bl	arm_radix4_butterfly_inverse_q31
 606              	.LVL85:
 607              		.loc 1 107 0
 608 02c6 BDE7     		b	.L26
 609              	.LVL86:
 610              	.L94:
 611              		.loc 1 119 0
 612 02c8 1029     		cmp	r1, #16
 613 02ca BBD1     		bne	.L26
 614 02cc C6E7     		b	.L32
 615              	.L98:
 616              		.loc 1 99 0
 617 02ce B1F5007F 		cmp	r1, #512
 618 02d2 DCD0     		beq	.L29
 619 02d4 B6E7     		b	.L26
 620              	.L97:
 621 02d6 1029     		cmp	r1, #16
 622 02d8 B4D1     		bne	.L26
 623 02da EFE7     		b	.L27
ARM GAS  /tmp/ccsHTNwO.s 			page 12


 624              		.cfi_endproc
 625              	.LFE135:
 626              		.size	arm_cfft_q31, .-arm_cfft_q31
 627              	.Letext0:
 628              		.file 2 "/home/sbcu/Dropbox/pcb-layouts/axo-on-discovery-board/axoloti/platform_linux/arm-none-eab
 629              		.file 3 "/home/sbcu/Dropbox/pcb-layouts/axo-on-discovery-board/axoloti/platform_linux/arm-none-eab
 630              		.file 4 "/home/sbcu/Dropbox/pcb-layouts/axo-on-discovery-board/axoloti/platform_linux/../CMSIS//DS
 631              		.section	.debug_info,"",%progbits
 632              	.Ldebug_info0:
 633 0000 4C050000 		.4byte	0x54c
 634 0004 0400     		.2byte	0x4
 635 0006 00000000 		.4byte	.Ldebug_abbrev0
 636 000a 04       		.byte	0x4
 637 000b 01       		.uleb128 0x1
 638 000c 00000000 		.4byte	.LASF40
 639 0010 01       		.byte	0x1
 640 0011 1A010000 		.4byte	.LASF41
 641 0015 00000000 		.4byte	.Ltext0
 642 0019 DC020000 		.4byte	.Letext0-.Ltext0
 643 001d 00000000 		.4byte	.Ldebug_line0
 644 0021 02       		.uleb128 0x2
 645 0022 01       		.byte	0x1
 646 0023 06       		.byte	0x6
 647 0024 47030000 		.4byte	.LASF0
 648 0028 03       		.uleb128 0x3
 649 0029 F9000000 		.4byte	.LASF3
 650 002d 02       		.byte	0x2
 651 002e 1D       		.byte	0x1d
 652 002f 33000000 		.4byte	0x33
 653 0033 02       		.uleb128 0x2
 654 0034 01       		.byte	0x1
 655 0035 08       		.byte	0x8
 656 0036 C2010000 		.4byte	.LASF1
 657 003a 02       		.uleb128 0x2
 658 003b 02       		.byte	0x2
 659 003c 05       		.byte	0x5
 660 003d F7020000 		.4byte	.LASF2
 661 0041 03       		.uleb128 0x3
 662 0042 1F020000 		.4byte	.LASF4
 663 0046 02       		.byte	0x2
 664 0047 2B       		.byte	0x2b
 665 0048 4C000000 		.4byte	0x4c
 666 004c 02       		.uleb128 0x2
 667 004d 02       		.byte	0x2
 668 004e 07       		.byte	0x7
 669 004f E2010000 		.4byte	.LASF5
 670 0053 03       		.uleb128 0x3
 671 0054 03010000 		.4byte	.LASF6
 672 0058 02       		.byte	0x2
 673 0059 3F       		.byte	0x3f
 674 005a 5E000000 		.4byte	0x5e
 675 005e 02       		.uleb128 0x2
 676 005f 04       		.byte	0x4
 677 0060 05       		.byte	0x5
 678 0061 32030000 		.4byte	.LASF7
 679 0065 03       		.uleb128 0x3
 680 0066 31020000 		.4byte	.LASF8
ARM GAS  /tmp/ccsHTNwO.s 			page 13


 681 006a 02       		.byte	0x2
 682 006b 41       		.byte	0x41
 683 006c 70000000 		.4byte	0x70
 684 0070 02       		.uleb128 0x2
 685 0071 04       		.byte	0x4
 686 0072 07       		.byte	0x7
 687 0073 D0010000 		.4byte	.LASF9
 688 0077 02       		.uleb128 0x2
 689 0078 08       		.byte	0x8
 690 0079 05       		.byte	0x5
 691 007a D4020000 		.4byte	.LASF10
 692 007e 02       		.uleb128 0x2
 693 007f 08       		.byte	0x8
 694 0080 07       		.byte	0x7
 695 0081 82020000 		.4byte	.LASF11
 696 0085 04       		.uleb128 0x4
 697 0086 04       		.byte	0x4
 698 0087 05       		.byte	0x5
 699 0088 696E7400 		.ascii	"int\000"
 700 008c 02       		.uleb128 0x2
 701 008d 04       		.byte	0x4
 702 008e 07       		.byte	0x7
 703 008f 5E020000 		.4byte	.LASF12
 704 0093 03       		.uleb128 0x3
 705 0094 99020000 		.4byte	.LASF13
 706 0098 03       		.byte	0x3
 707 0099 14       		.byte	0x14
 708 009a 28000000 		.4byte	0x28
 709 009e 03       		.uleb128 0x3
 710 009f 20030000 		.4byte	.LASF14
 711 00a3 03       		.byte	0x3
 712 00a4 1A       		.byte	0x1a
 713 00a5 41000000 		.4byte	0x41
 714 00a9 03       		.uleb128 0x3
 715 00aa C3020000 		.4byte	.LASF15
 716 00ae 03       		.byte	0x3
 717 00af 1F       		.byte	0x1f
 718 00b0 53000000 		.4byte	0x53
 719 00b4 03       		.uleb128 0x3
 720 00b5 29030000 		.4byte	.LASF16
 721 00b9 03       		.byte	0x3
 722 00ba 20       		.byte	0x20
 723 00bb 65000000 		.4byte	0x65
 724 00bf 02       		.uleb128 0x2
 725 00c0 04       		.byte	0x4
 726 00c1 07       		.byte	0x7
 727 00c2 CB020000 		.4byte	.LASF17
 728 00c6 02       		.uleb128 0x2
 729 00c7 01       		.byte	0x1
 730 00c8 08       		.byte	0x8
 731 00c9 EB020000 		.4byte	.LASF18
 732 00cd 02       		.uleb128 0x2
 733 00ce 08       		.byte	0x8
 734 00cf 04       		.byte	0x4
 735 00d0 2A020000 		.4byte	.LASF19
 736 00d4 02       		.uleb128 0x2
 737 00d5 04       		.byte	0x4
ARM GAS  /tmp/ccsHTNwO.s 			page 14


 738 00d6 04       		.byte	0x4
 739 00d7 AF010000 		.4byte	.LASF20
 740 00db 02       		.uleb128 0x2
 741 00dc 08       		.byte	0x8
 742 00dd 04       		.byte	0x4
 743 00de 3B030000 		.4byte	.LASF21
 744 00e2 05       		.uleb128 0x5
 745 00e3 BC010000 		.4byte	.LASF22
 746 00e7 04       		.byte	0x4
 747 00e8 A001     		.2byte	0x1a0
 748 00ea A9000000 		.4byte	0xa9
 749 00ee 06       		.uleb128 0x6
 750 00ef 04       		.byte	0x4
 751 00f0 E2000000 		.4byte	0xe2
 752 00f4 06       		.uleb128 0x6
 753 00f5 04       		.byte	0x4
 754 00f6 FA000000 		.4byte	0xfa
 755 00fa 07       		.uleb128 0x7
 756 00fb 9E000000 		.4byte	0x9e
 757 00ff 08       		.uleb128 0x8
 758 0100 10       		.byte	0x10
 759 0101 04       		.byte	0x4
 760 0102 9208     		.2byte	0x892
 761 0104 3D010000 		.4byte	0x13d
 762 0108 09       		.uleb128 0x9
 763 0109 F5010000 		.4byte	.LASF23
 764 010d 04       		.byte	0x4
 765 010e 9408     		.2byte	0x894
 766 0110 9E000000 		.4byte	0x9e
 767 0114 00       		.byte	0
 768 0115 09       		.uleb128 0x9
 769 0116 E2020000 		.4byte	.LASF24
 770 011a 04       		.byte	0x4
 771 011b 9508     		.2byte	0x895
 772 011d 3D010000 		.4byte	0x13d
 773 0121 04       		.byte	0x4
 774 0122 09       		.uleb128 0x9
 775 0123 A2010000 		.4byte	.LASF25
 776 0127 04       		.byte	0x4
 777 0128 9608     		.2byte	0x896
 778 012a F4000000 		.4byte	0xf4
 779 012e 08       		.byte	0x8
 780 012f 09       		.uleb128 0x9
 781 0130 12020000 		.4byte	.LASF26
 782 0134 04       		.byte	0x4
 783 0135 9708     		.2byte	0x897
 784 0137 9E000000 		.4byte	0x9e
 785 013b 0C       		.byte	0xc
 786 013c 00       		.byte	0
 787 013d 06       		.uleb128 0x6
 788 013e 04       		.byte	0x4
 789 013f 43010000 		.4byte	0x143
 790 0143 07       		.uleb128 0x7
 791 0144 E2000000 		.4byte	0xe2
 792 0148 05       		.uleb128 0x5
 793 0149 FC010000 		.4byte	.LASF27
 794 014d 04       		.byte	0x4
ARM GAS  /tmp/ccsHTNwO.s 			page 15


 795 014e 9808     		.2byte	0x898
 796 0150 FF000000 		.4byte	0xff
 797 0154 06       		.uleb128 0x6
 798 0155 04       		.byte	0x4
 799 0156 5A010000 		.4byte	0x15a
 800 015a 07       		.uleb128 0x7
 801 015b 48010000 		.4byte	0x148
 802 015f 0A       		.uleb128 0xa
 803 0160 6B020000 		.4byte	.LASF32
 804 0164 01       		.byte	0x1
 805 0165 92       		.byte	0x92
 806 0166 00000000 		.4byte	.LFB136
 807 016a 02010000 		.4byte	.LFE136-.LFB136
 808 016e 01       		.uleb128 0x1
 809 016f 9C       		.byte	0x9c
 810 0170 C3020000 		.4byte	0x2c3
 811 0174 0B       		.uleb128 0xb
 812 0175 53030000 		.4byte	.LASF28
 813 0179 01       		.byte	0x1
 814 017a 93       		.byte	0x93
 815 017b EE000000 		.4byte	0xee
 816 017f 00000000 		.4byte	.LLST0
 817 0183 0B       		.uleb128 0xb
 818 0184 F5010000 		.4byte	.LASF23
 819 0188 01       		.byte	0x1
 820 0189 94       		.byte	0x94
 821 018a B4000000 		.4byte	0xb4
 822 018e 4E000000 		.4byte	.LLST1
 823 0192 0B       		.uleb128 0xb
 824 0193 79030000 		.4byte	.LASF29
 825 0197 01       		.byte	0x1
 826 0198 95       		.byte	0x95
 827 0199 3D010000 		.4byte	0x13d
 828 019d 90000000 		.4byte	.LLST2
 829 01a1 0C       		.uleb128 0xc
 830 01a2 6900     		.ascii	"i\000"
 831 01a4 01       		.byte	0x1
 832 01a5 97       		.byte	0x97
 833 01a6 B4000000 		.4byte	0xb4
 834 01aa E8000000 		.4byte	.LLST3
 835 01ae 0C       		.uleb128 0xc
 836 01af 6C00     		.ascii	"l\000"
 837 01b1 01       		.byte	0x1
 838 01b2 97       		.byte	0x97
 839 01b3 B4000000 		.4byte	0xb4
 840 01b7 1F010000 		.4byte	.LLST4
 841 01bb 0C       		.uleb128 0xc
 842 01bc 6E3200   		.ascii	"n2\000"
 843 01bf 01       		.byte	0x1
 844 01c0 98       		.byte	0x98
 845 01c1 B4000000 		.4byte	0xb4
 846 01c5 5E010000 		.4byte	.LLST5
 847 01c9 0C       		.uleb128 0xc
 848 01ca 696100   		.ascii	"ia\000"
 849 01cd 01       		.byte	0x1
 850 01ce 98       		.byte	0x98
 851 01cf B4000000 		.4byte	0xb4
ARM GAS  /tmp/ccsHTNwO.s 			page 16


 852 01d3 C8010000 		.4byte	.LLST6
 853 01d7 0C       		.uleb128 0xc
 854 01d8 787400   		.ascii	"xt\000"
 855 01db 01       		.byte	0x1
 856 01dc 99       		.byte	0x99
 857 01dd E2000000 		.4byte	0xe2
 858 01e1 0B020000 		.4byte	.LLST7
 859 01e5 0C       		.uleb128 0xc
 860 01e6 797400   		.ascii	"yt\000"
 861 01e9 01       		.byte	0x1
 862 01ea 99       		.byte	0x99
 863 01eb E2000000 		.4byte	0xe2
 864 01ef 38020000 		.4byte	.LLST8
 865 01f3 0D       		.uleb128 0xd
 866 01f4 F0020000 		.4byte	.LASF30
 867 01f8 01       		.byte	0x1
 868 01f9 99       		.byte	0x99
 869 01fa E2000000 		.4byte	0xe2
 870 01fe 65020000 		.4byte	.LLST9
 871 0202 0D       		.uleb128 0xd
 872 0203 B5010000 		.4byte	.LASF31
 873 0207 01       		.byte	0x1
 874 0208 99       		.byte	0x99
 875 0209 E2000000 		.4byte	0xe2
 876 020d 78020000 		.4byte	.LLST10
 877 0211 0C       		.uleb128 0xc
 878 0212 703000   		.ascii	"p0\000"
 879 0215 01       		.byte	0x1
 880 0216 9A       		.byte	0x9a
 881 0217 E2000000 		.4byte	0xe2
 882 021b 8B020000 		.4byte	.LLST11
 883 021f 0C       		.uleb128 0xc
 884 0220 703100   		.ascii	"p1\000"
 885 0223 01       		.byte	0x1
 886 0224 9A       		.byte	0x9a
 887 0225 E2000000 		.4byte	0xe2
 888 0229 C3020000 		.4byte	.LLST12
 889 022d 0E       		.uleb128 0xe
 890 022e 9C000000 		.4byte	.LVL16
 891 0232 EE040000 		.4byte	0x4ee
 892 0236 52020000 		.4byte	0x252
 893 023a 0F       		.uleb128 0xf
 894 023b 01       		.uleb128 0x1
 895 023c 53       		.byte	0x53
 896 023d 01       		.uleb128 0x1
 897 023e 32       		.byte	0x32
 898 023f 0F       		.uleb128 0xf
 899 0240 01       		.uleb128 0x1
 900 0241 52       		.byte	0x52
 901 0242 02       		.uleb128 0x2
 902 0243 74       		.byte	0x74
 903 0244 00       		.sleb128 0
 904 0245 0F       		.uleb128 0xf
 905 0246 01       		.uleb128 0x1
 906 0247 51       		.byte	0x51
 907 0248 02       		.uleb128 0x2
 908 0249 76       		.byte	0x76
ARM GAS  /tmp/ccsHTNwO.s 			page 17


 909 024a 00       		.sleb128 0
 910 024b 0F       		.uleb128 0xf
 911 024c 01       		.uleb128 0x1
 912 024d 50       		.byte	0x50
 913 024e 02       		.uleb128 0x2
 914 024f 77       		.byte	0x77
 915 0250 00       		.sleb128 0
 916 0251 00       		.byte	0
 917 0252 0E       		.uleb128 0xe
 918 0253 AC000000 		.4byte	.LVL17
 919 0257 EE040000 		.4byte	0x4ee
 920 025b 7D020000 		.4byte	0x27d
 921 025f 0F       		.uleb128 0xf
 922 0260 01       		.uleb128 0x1
 923 0261 53       		.byte	0x53
 924 0262 01       		.uleb128 0x1
 925 0263 32       		.byte	0x32
 926 0264 0F       		.uleb128 0xf
 927 0265 01       		.uleb128 0x1
 928 0266 52       		.byte	0x52
 929 0267 02       		.uleb128 0x2
 930 0268 74       		.byte	0x74
 931 0269 00       		.sleb128 0
 932 026a 0F       		.uleb128 0xf
 933 026b 01       		.uleb128 0x1
 934 026c 51       		.byte	0x51
 935 026d 02       		.uleb128 0x2
 936 026e 76       		.byte	0x76
 937 026f 00       		.sleb128 0
 938 0270 0F       		.uleb128 0xf
 939 0271 01       		.uleb128 0x1
 940 0272 50       		.byte	0x50
 941 0273 08       		.uleb128 0x8
 942 0274 91       		.byte	0x91
 943 0275 4C       		.sleb128 -52
 944 0276 06       		.byte	0x6
 945 0277 32       		.byte	0x32
 946 0278 24       		.byte	0x24
 947 0279 77       		.byte	0x77
 948 027a 00       		.sleb128 0
 949 027b 22       		.byte	0x22
 950 027c 00       		.byte	0
 951 027d 0E       		.uleb128 0xe
 952 027e EC000000 		.4byte	.LVL29
 953 0282 EE040000 		.4byte	0x4ee
 954 0286 96020000 		.4byte	0x296
 955 028a 0F       		.uleb128 0xf
 956 028b 01       		.uleb128 0x1
 957 028c 53       		.byte	0x53
 958 028d 01       		.uleb128 0x1
 959 028e 32       		.byte	0x32
 960 028f 0F       		.uleb128 0xf
 961 0290 01       		.uleb128 0x1
 962 0291 51       		.byte	0x51
 963 0292 02       		.uleb128 0x2
 964 0293 74       		.byte	0x74
 965 0294 00       		.sleb128 0
ARM GAS  /tmp/ccsHTNwO.s 			page 18


 966 0295 00       		.byte	0
 967 0296 10       		.uleb128 0x10
 968 0297 02010000 		.4byte	.LVL31
 969 029b EE040000 		.4byte	0x4ee
 970 029f 0F       		.uleb128 0xf
 971 02a0 01       		.uleb128 0x1
 972 02a1 53       		.byte	0x53
 973 02a2 01       		.uleb128 0x1
 974 02a3 32       		.byte	0x32
 975 02a4 0F       		.uleb128 0xf
 976 02a5 01       		.uleb128 0x1
 977 02a6 52       		.byte	0x52
 978 02a7 03       		.uleb128 0x3
 979 02a8 7D       		.byte	0x7d
 980 02a9 48       		.sleb128 -56
 981 02aa 06       		.byte	0x6
 982 02ab 0F       		.uleb128 0xf
 983 02ac 01       		.uleb128 0x1
 984 02ad 51       		.byte	0x51
 985 02ae 05       		.uleb128 0x5
 986 02af 7D       		.byte	0x7d
 987 02b0 4C       		.sleb128 -52
 988 02b1 06       		.byte	0x6
 989 02b2 31       		.byte	0x31
 990 02b3 25       		.byte	0x25
 991 02b4 0F       		.uleb128 0xf
 992 02b5 01       		.uleb128 0x1
 993 02b6 50       		.byte	0x50
 994 02b7 09       		.uleb128 0x9
 995 02b8 7D       		.byte	0x7d
 996 02b9 4C       		.sleb128 -52
 997 02ba 06       		.byte	0x6
 998 02bb 32       		.byte	0x32
 999 02bc 24       		.byte	0x24
 1000 02bd F3       		.byte	0xf3
 1001 02be 01       		.uleb128 0x1
 1002 02bf 50       		.byte	0x50
 1003 02c0 22       		.byte	0x22
 1004 02c1 00       		.byte	0
 1005 02c2 00       		.byte	0
 1006 02c3 0A       		.uleb128 0xa
 1007 02c4 01030000 		.4byte	.LASF33
 1008 02c8 01       		.byte	0x1
 1009 02c9 CE       		.byte	0xce
 1010 02ca 10010000 		.4byte	.LFB137
 1011 02ce 02010000 		.4byte	.LFE137-.LFB137
 1012 02d2 01       		.uleb128 0x1
 1013 02d3 9C       		.byte	0x9c
 1014 02d4 27040000 		.4byte	0x427
 1015 02d8 0B       		.uleb128 0xb
 1016 02d9 53030000 		.4byte	.LASF28
 1017 02dd 01       		.byte	0x1
 1018 02de CF       		.byte	0xcf
 1019 02df EE000000 		.4byte	0xee
 1020 02e3 FB020000 		.4byte	.LLST13
 1021 02e7 0B       		.uleb128 0xb
 1022 02e8 F5010000 		.4byte	.LASF23
ARM GAS  /tmp/ccsHTNwO.s 			page 19


 1023 02ec 01       		.byte	0x1
 1024 02ed D0       		.byte	0xd0
 1025 02ee B4000000 		.4byte	0xb4
 1026 02f2 49030000 		.4byte	.LLST14
 1027 02f6 0B       		.uleb128 0xb
 1028 02f7 79030000 		.4byte	.LASF29
 1029 02fb 01       		.byte	0x1
 1030 02fc D1       		.byte	0xd1
 1031 02fd 3D010000 		.4byte	0x13d
 1032 0301 8B030000 		.4byte	.LLST15
 1033 0305 0C       		.uleb128 0xc
 1034 0306 6900     		.ascii	"i\000"
 1035 0308 01       		.byte	0x1
 1036 0309 D3       		.byte	0xd3
 1037 030a B4000000 		.4byte	0xb4
 1038 030e E3030000 		.4byte	.LLST16
 1039 0312 0C       		.uleb128 0xc
 1040 0313 6C00     		.ascii	"l\000"
 1041 0315 01       		.byte	0x1
 1042 0316 D3       		.byte	0xd3
 1043 0317 B4000000 		.4byte	0xb4
 1044 031b 1A040000 		.4byte	.LLST17
 1045 031f 0C       		.uleb128 0xc
 1046 0320 6E3200   		.ascii	"n2\000"
 1047 0323 01       		.byte	0x1
 1048 0324 D4       		.byte	0xd4
 1049 0325 B4000000 		.4byte	0xb4
 1050 0329 59040000 		.4byte	.LLST18
 1051 032d 0C       		.uleb128 0xc
 1052 032e 696100   		.ascii	"ia\000"
 1053 0331 01       		.byte	0x1
 1054 0332 D4       		.byte	0xd4
 1055 0333 B4000000 		.4byte	0xb4
 1056 0337 C3040000 		.4byte	.LLST19
 1057 033b 0C       		.uleb128 0xc
 1058 033c 787400   		.ascii	"xt\000"
 1059 033f 01       		.byte	0x1
 1060 0340 D5       		.byte	0xd5
 1061 0341 E2000000 		.4byte	0xe2
 1062 0345 06050000 		.4byte	.LLST20
 1063 0349 0C       		.uleb128 0xc
 1064 034a 797400   		.ascii	"yt\000"
 1065 034d 01       		.byte	0x1
 1066 034e D5       		.byte	0xd5
 1067 034f E2000000 		.4byte	0xe2
 1068 0353 33050000 		.4byte	.LLST21
 1069 0357 0D       		.uleb128 0xd
 1070 0358 F0020000 		.4byte	.LASF30
 1071 035c 01       		.byte	0x1
 1072 035d D5       		.byte	0xd5
 1073 035e E2000000 		.4byte	0xe2
 1074 0362 60050000 		.4byte	.LLST22
 1075 0366 0D       		.uleb128 0xd
 1076 0367 B5010000 		.4byte	.LASF31
 1077 036b 01       		.byte	0x1
 1078 036c D5       		.byte	0xd5
 1079 036d E2000000 		.4byte	0xe2
ARM GAS  /tmp/ccsHTNwO.s 			page 20


 1080 0371 73050000 		.4byte	.LLST23
 1081 0375 0C       		.uleb128 0xc
 1082 0376 703000   		.ascii	"p0\000"
 1083 0379 01       		.byte	0x1
 1084 037a D6       		.byte	0xd6
 1085 037b E2000000 		.4byte	0xe2
 1086 037f 86050000 		.4byte	.LLST24
 1087 0383 0C       		.uleb128 0xc
 1088 0384 703100   		.ascii	"p1\000"
 1089 0387 01       		.byte	0x1
 1090 0388 D6       		.byte	0xd6
 1091 0389 E2000000 		.4byte	0xe2
 1092 038d BE050000 		.4byte	.LLST25
 1093 0391 0E       		.uleb128 0xe
 1094 0392 AC010000 		.4byte	.LVL48
 1095 0396 0E050000 		.4byte	0x50e
 1096 039a B6030000 		.4byte	0x3b6
 1097 039e 0F       		.uleb128 0xf
 1098 039f 01       		.uleb128 0x1
 1099 03a0 53       		.byte	0x53
 1100 03a1 01       		.uleb128 0x1
 1101 03a2 32       		.byte	0x32
 1102 03a3 0F       		.uleb128 0xf
 1103 03a4 01       		.uleb128 0x1
 1104 03a5 52       		.byte	0x52
 1105 03a6 02       		.uleb128 0x2
 1106 03a7 74       		.byte	0x74
 1107 03a8 00       		.sleb128 0
 1108 03a9 0F       		.uleb128 0xf
 1109 03aa 01       		.uleb128 0x1
 1110 03ab 51       		.byte	0x51
 1111 03ac 02       		.uleb128 0x2
 1112 03ad 76       		.byte	0x76
 1113 03ae 00       		.sleb128 0
 1114 03af 0F       		.uleb128 0xf
 1115 03b0 01       		.uleb128 0x1
 1116 03b1 50       		.byte	0x50
 1117 03b2 02       		.uleb128 0x2
 1118 03b3 77       		.byte	0x77
 1119 03b4 00       		.sleb128 0
 1120 03b5 00       		.byte	0
 1121 03b6 0E       		.uleb128 0xe
 1122 03b7 BC010000 		.4byte	.LVL49
 1123 03bb 0E050000 		.4byte	0x50e
 1124 03bf E1030000 		.4byte	0x3e1
 1125 03c3 0F       		.uleb128 0xf
 1126 03c4 01       		.uleb128 0x1
 1127 03c5 53       		.byte	0x53
 1128 03c6 01       		.uleb128 0x1
 1129 03c7 32       		.byte	0x32
 1130 03c8 0F       		.uleb128 0xf
 1131 03c9 01       		.uleb128 0x1
 1132 03ca 52       		.byte	0x52
 1133 03cb 02       		.uleb128 0x2
 1134 03cc 74       		.byte	0x74
 1135 03cd 00       		.sleb128 0
 1136 03ce 0F       		.uleb128 0xf
ARM GAS  /tmp/ccsHTNwO.s 			page 21


 1137 03cf 01       		.uleb128 0x1
 1138 03d0 51       		.byte	0x51
 1139 03d1 02       		.uleb128 0x2
 1140 03d2 76       		.byte	0x76
 1141 03d3 00       		.sleb128 0
 1142 03d4 0F       		.uleb128 0xf
 1143 03d5 01       		.uleb128 0x1
 1144 03d6 50       		.byte	0x50
 1145 03d7 08       		.uleb128 0x8
 1146 03d8 91       		.byte	0x91
 1147 03d9 4C       		.sleb128 -52
 1148 03da 06       		.byte	0x6
 1149 03db 32       		.byte	0x32
 1150 03dc 24       		.byte	0x24
 1151 03dd 77       		.byte	0x77
 1152 03de 00       		.sleb128 0
 1153 03df 22       		.byte	0x22
 1154 03e0 00       		.byte	0
 1155 03e1 0E       		.uleb128 0xe
 1156 03e2 FC010000 		.4byte	.LVL61
 1157 03e6 0E050000 		.4byte	0x50e
 1158 03ea FA030000 		.4byte	0x3fa
 1159 03ee 0F       		.uleb128 0xf
 1160 03ef 01       		.uleb128 0x1
 1161 03f0 53       		.byte	0x53
 1162 03f1 01       		.uleb128 0x1
 1163 03f2 32       		.byte	0x32
 1164 03f3 0F       		.uleb128 0xf
 1165 03f4 01       		.uleb128 0x1
 1166 03f5 51       		.byte	0x51
 1167 03f6 02       		.uleb128 0x2
 1168 03f7 74       		.byte	0x74
 1169 03f8 00       		.sleb128 0
 1170 03f9 00       		.byte	0
 1171 03fa 10       		.uleb128 0x10
 1172 03fb 12020000 		.4byte	.LVL63
 1173 03ff 0E050000 		.4byte	0x50e
 1174 0403 0F       		.uleb128 0xf
 1175 0404 01       		.uleb128 0x1
 1176 0405 53       		.byte	0x53
 1177 0406 01       		.uleb128 0x1
 1178 0407 32       		.byte	0x32
 1179 0408 0F       		.uleb128 0xf
 1180 0409 01       		.uleb128 0x1
 1181 040a 52       		.byte	0x52
 1182 040b 03       		.uleb128 0x3
 1183 040c 7D       		.byte	0x7d
 1184 040d 48       		.sleb128 -56
 1185 040e 06       		.byte	0x6
 1186 040f 0F       		.uleb128 0xf
 1187 0410 01       		.uleb128 0x1
 1188 0411 51       		.byte	0x51
 1189 0412 05       		.uleb128 0x5
 1190 0413 7D       		.byte	0x7d
 1191 0414 4C       		.sleb128 -52
 1192 0415 06       		.byte	0x6
 1193 0416 31       		.byte	0x31
ARM GAS  /tmp/ccsHTNwO.s 			page 22


 1194 0417 25       		.byte	0x25
 1195 0418 0F       		.uleb128 0xf
 1196 0419 01       		.uleb128 0x1
 1197 041a 50       		.byte	0x50
 1198 041b 09       		.uleb128 0x9
 1199 041c 7D       		.byte	0x7d
 1200 041d 4C       		.sleb128 -52
 1201 041e 06       		.byte	0x6
 1202 041f 32       		.byte	0x32
 1203 0420 24       		.byte	0x24
 1204 0421 F3       		.byte	0xf3
 1205 0422 01       		.uleb128 0x1
 1206 0423 50       		.byte	0x50
 1207 0424 22       		.byte	0x22
 1208 0425 00       		.byte	0
 1209 0426 00       		.byte	0
 1210 0427 0A       		.uleb128 0xa
 1211 0428 0D010000 		.4byte	.LASF34
 1212 042c 01       		.byte	0x1
 1213 042d 59       		.byte	0x59
 1214 042e 20020000 		.4byte	.LFB135
 1215 0432 BC000000 		.4byte	.LFE135-.LFB135
 1216 0436 01       		.uleb128 0x1
 1217 0437 9C       		.byte	0x9c
 1218 0438 EE040000 		.4byte	0x4ee
 1219 043c 11       		.uleb128 0x11
 1220 043d 5300     		.ascii	"S\000"
 1221 043f 01       		.byte	0x1
 1222 0440 5A       		.byte	0x5a
 1223 0441 54010000 		.4byte	0x154
 1224 0445 F6050000 		.4byte	.LLST26
 1225 0449 11       		.uleb128 0x11
 1226 044a 703100   		.ascii	"p1\000"
 1227 044d 01       		.byte	0x1
 1228 044e 5B       		.byte	0x5b
 1229 044f EE000000 		.4byte	0xee
 1230 0453 85060000 		.4byte	.LLST27
 1231 0457 0B       		.uleb128 0xb
 1232 0458 3C020000 		.4byte	.LASF35
 1233 045c 01       		.byte	0x1
 1234 045d 5C       		.byte	0x5c
 1235 045e 93000000 		.4byte	0x93
 1236 0462 C7060000 		.4byte	.LLST28
 1237 0466 0B       		.uleb128 0xb
 1238 0467 A1020000 		.4byte	.LASF36
 1239 046b 01       		.byte	0x1
 1240 046c 5D       		.byte	0x5d
 1241 046d 93000000 		.4byte	0x93
 1242 0471 57070000 		.4byte	.LLST29
 1243 0475 0C       		.uleb128 0xc
 1244 0476 4C00     		.ascii	"L\000"
 1245 0478 01       		.byte	0x1
 1246 0479 5F       		.byte	0x5f
 1247 047a B4000000 		.4byte	0xb4
 1248 047e E7070000 		.4byte	.LLST30
 1249 0482 0E       		.uleb128 0xe
 1250 0483 66020000 		.4byte	.LVL71
ARM GAS  /tmp/ccsHTNwO.s 			page 23


 1251 0487 EE040000 		.4byte	0x4ee
 1252 048b 9B040000 		.4byte	0x49b
 1253 048f 0F       		.uleb128 0xf
 1254 0490 01       		.uleb128 0x1
 1255 0491 53       		.byte	0x53
 1256 0492 01       		.uleb128 0x1
 1257 0493 31       		.byte	0x31
 1258 0494 0F       		.uleb128 0xf
 1259 0495 01       		.uleb128 0x1
 1260 0496 50       		.byte	0x50
 1261 0497 02       		.uleb128 0x2
 1262 0498 75       		.byte	0x75
 1263 0499 00       		.sleb128 0
 1264 049a 00       		.byte	0
 1265 049b 12       		.uleb128 0x12
 1266 049c 78020000 		.4byte	.LVL73
 1267 04a0 2E050000 		.4byte	0x52e
 1268 04a4 B0040000 		.4byte	0x4b0
 1269 04a8 0F       		.uleb128 0xf
 1270 04a9 01       		.uleb128 0x1
 1271 04aa 50       		.byte	0x50
 1272 04ab 03       		.uleb128 0x3
 1273 04ac F3       		.byte	0xf3
 1274 04ad 01       		.uleb128 0x1
 1275 04ae 51       		.byte	0x51
 1276 04af 00       		.byte	0
 1277 04b0 0E       		.uleb128 0xe
 1278 04b1 96020000 		.4byte	.LVL76
 1279 04b5 C3020000 		.4byte	0x2c3
 1280 04b9 C4040000 		.4byte	0x4c4
 1281 04bd 0F       		.uleb128 0xf
 1282 04be 01       		.uleb128 0x1
 1283 04bf 50       		.byte	0x50
 1284 04c0 02       		.uleb128 0x2
 1285 04c1 75       		.byte	0x75
 1286 04c2 00       		.sleb128 0
 1287 04c3 00       		.byte	0
 1288 04c4 0E       		.uleb128 0xe
 1289 04c5 A6020000 		.4byte	.LVL80
 1290 04c9 5F010000 		.4byte	0x15f
 1291 04cd D8040000 		.4byte	0x4d8
 1292 04d1 0F       		.uleb128 0xf
 1293 04d2 01       		.uleb128 0x1
 1294 04d3 50       		.byte	0x50
 1295 04d4 02       		.uleb128 0x2
 1296 04d5 75       		.byte	0x75
 1297 04d6 00       		.sleb128 0
 1298 04d7 00       		.byte	0
 1299 04d8 13       		.uleb128 0x13
 1300 04d9 C6020000 		.4byte	.LVL85
 1301 04dd 0E050000 		.4byte	0x50e
 1302 04e1 0F       		.uleb128 0xf
 1303 04e2 01       		.uleb128 0x1
 1304 04e3 53       		.byte	0x53
 1305 04e4 01       		.uleb128 0x1
 1306 04e5 31       		.byte	0x31
 1307 04e6 0F       		.uleb128 0xf
ARM GAS  /tmp/ccsHTNwO.s 			page 24


 1308 04e7 01       		.uleb128 0x1
 1309 04e8 50       		.byte	0x50
 1310 04e9 02       		.uleb128 0x2
 1311 04ea 75       		.byte	0x75
 1312 04eb 00       		.sleb128 0
 1313 04ec 00       		.byte	0
 1314 04ed 00       		.byte	0
 1315 04ee 14       		.uleb128 0x14
 1316 04ef 45020000 		.4byte	.LASF37
 1317 04f3 01       		.byte	0x1
 1318 04f4 2B       		.byte	0x2b
 1319 04f5 0E050000 		.4byte	0x50e
 1320 04f9 15       		.uleb128 0x15
 1321 04fa EE000000 		.4byte	0xee
 1322 04fe 15       		.uleb128 0x15
 1323 04ff B4000000 		.4byte	0xb4
 1324 0503 15       		.uleb128 0x15
 1325 0504 EE000000 		.4byte	0xee
 1326 0508 15       		.uleb128 0x15
 1327 0509 B4000000 		.4byte	0xb4
 1328 050d 00       		.byte	0
 1329 050e 14       		.uleb128 0x14
 1330 050f 58030000 		.4byte	.LASF38
 1331 0513 01       		.byte	0x1
 1332 0514 31       		.byte	0x31
 1333 0515 2E050000 		.4byte	0x52e
 1334 0519 15       		.uleb128 0x15
 1335 051a EE000000 		.4byte	0xee
 1336 051e 15       		.uleb128 0x15
 1337 051f B4000000 		.4byte	0xb4
 1338 0523 15       		.uleb128 0x15
 1339 0524 EE000000 		.4byte	0xee
 1340 0528 15       		.uleb128 0x15
 1341 0529 B4000000 		.4byte	0xb4
 1342 052d 00       		.byte	0
 1343 052e 14       		.uleb128 0x14
 1344 052f B0020000 		.4byte	.LASF39
 1345 0533 01       		.byte	0x1
 1346 0534 37       		.byte	0x37
 1347 0535 49050000 		.4byte	0x549
 1348 0539 15       		.uleb128 0x15
 1349 053a 49050000 		.4byte	0x549
 1350 053e 15       		.uleb128 0x15
 1351 053f FA000000 		.4byte	0xfa
 1352 0543 15       		.uleb128 0x15
 1353 0544 F4000000 		.4byte	0xf4
 1354 0548 00       		.byte	0
 1355 0549 06       		.uleb128 0x6
 1356 054a 04       		.byte	0x4
 1357 054b B4000000 		.4byte	0xb4
 1358 054f 00       		.byte	0
 1359              		.section	.debug_abbrev,"",%progbits
 1360              	.Ldebug_abbrev0:
 1361 0000 01       		.uleb128 0x1
 1362 0001 11       		.uleb128 0x11
 1363 0002 01       		.byte	0x1
 1364 0003 25       		.uleb128 0x25
ARM GAS  /tmp/ccsHTNwO.s 			page 25


 1365 0004 0E       		.uleb128 0xe
 1366 0005 13       		.uleb128 0x13
 1367 0006 0B       		.uleb128 0xb
 1368 0007 03       		.uleb128 0x3
 1369 0008 0E       		.uleb128 0xe
 1370 0009 11       		.uleb128 0x11
 1371 000a 01       		.uleb128 0x1
 1372 000b 12       		.uleb128 0x12
 1373 000c 06       		.uleb128 0x6
 1374 000d 10       		.uleb128 0x10
 1375 000e 17       		.uleb128 0x17
 1376 000f 00       		.byte	0
 1377 0010 00       		.byte	0
 1378 0011 02       		.uleb128 0x2
 1379 0012 24       		.uleb128 0x24
 1380 0013 00       		.byte	0
 1381 0014 0B       		.uleb128 0xb
 1382 0015 0B       		.uleb128 0xb
 1383 0016 3E       		.uleb128 0x3e
 1384 0017 0B       		.uleb128 0xb
 1385 0018 03       		.uleb128 0x3
 1386 0019 0E       		.uleb128 0xe
 1387 001a 00       		.byte	0
 1388 001b 00       		.byte	0
 1389 001c 03       		.uleb128 0x3
 1390 001d 16       		.uleb128 0x16
 1391 001e 00       		.byte	0
 1392 001f 03       		.uleb128 0x3
 1393 0020 0E       		.uleb128 0xe
 1394 0021 3A       		.uleb128 0x3a
 1395 0022 0B       		.uleb128 0xb
 1396 0023 3B       		.uleb128 0x3b
 1397 0024 0B       		.uleb128 0xb
 1398 0025 49       		.uleb128 0x49
 1399 0026 13       		.uleb128 0x13
 1400 0027 00       		.byte	0
 1401 0028 00       		.byte	0
 1402 0029 04       		.uleb128 0x4
 1403 002a 24       		.uleb128 0x24
 1404 002b 00       		.byte	0
 1405 002c 0B       		.uleb128 0xb
 1406 002d 0B       		.uleb128 0xb
 1407 002e 3E       		.uleb128 0x3e
 1408 002f 0B       		.uleb128 0xb
 1409 0030 03       		.uleb128 0x3
 1410 0031 08       		.uleb128 0x8
 1411 0032 00       		.byte	0
 1412 0033 00       		.byte	0
 1413 0034 05       		.uleb128 0x5
 1414 0035 16       		.uleb128 0x16
 1415 0036 00       		.byte	0
 1416 0037 03       		.uleb128 0x3
 1417 0038 0E       		.uleb128 0xe
 1418 0039 3A       		.uleb128 0x3a
 1419 003a 0B       		.uleb128 0xb
 1420 003b 3B       		.uleb128 0x3b
 1421 003c 05       		.uleb128 0x5
ARM GAS  /tmp/ccsHTNwO.s 			page 26


 1422 003d 49       		.uleb128 0x49
 1423 003e 13       		.uleb128 0x13
 1424 003f 00       		.byte	0
 1425 0040 00       		.byte	0
 1426 0041 06       		.uleb128 0x6
 1427 0042 0F       		.uleb128 0xf
 1428 0043 00       		.byte	0
 1429 0044 0B       		.uleb128 0xb
 1430 0045 0B       		.uleb128 0xb
 1431 0046 49       		.uleb128 0x49
 1432 0047 13       		.uleb128 0x13
 1433 0048 00       		.byte	0
 1434 0049 00       		.byte	0
 1435 004a 07       		.uleb128 0x7
 1436 004b 26       		.uleb128 0x26
 1437 004c 00       		.byte	0
 1438 004d 49       		.uleb128 0x49
 1439 004e 13       		.uleb128 0x13
 1440 004f 00       		.byte	0
 1441 0050 00       		.byte	0
 1442 0051 08       		.uleb128 0x8
 1443 0052 13       		.uleb128 0x13
 1444 0053 01       		.byte	0x1
 1445 0054 0B       		.uleb128 0xb
 1446 0055 0B       		.uleb128 0xb
 1447 0056 3A       		.uleb128 0x3a
 1448 0057 0B       		.uleb128 0xb
 1449 0058 3B       		.uleb128 0x3b
 1450 0059 05       		.uleb128 0x5
 1451 005a 01       		.uleb128 0x1
 1452 005b 13       		.uleb128 0x13
 1453 005c 00       		.byte	0
 1454 005d 00       		.byte	0
 1455 005e 09       		.uleb128 0x9
 1456 005f 0D       		.uleb128 0xd
 1457 0060 00       		.byte	0
 1458 0061 03       		.uleb128 0x3
 1459 0062 0E       		.uleb128 0xe
 1460 0063 3A       		.uleb128 0x3a
 1461 0064 0B       		.uleb128 0xb
 1462 0065 3B       		.uleb128 0x3b
 1463 0066 05       		.uleb128 0x5
 1464 0067 49       		.uleb128 0x49
 1465 0068 13       		.uleb128 0x13
 1466 0069 38       		.uleb128 0x38
 1467 006a 0B       		.uleb128 0xb
 1468 006b 00       		.byte	0
 1469 006c 00       		.byte	0
 1470 006d 0A       		.uleb128 0xa
 1471 006e 2E       		.uleb128 0x2e
 1472 006f 01       		.byte	0x1
 1473 0070 3F       		.uleb128 0x3f
 1474 0071 19       		.uleb128 0x19
 1475 0072 03       		.uleb128 0x3
 1476 0073 0E       		.uleb128 0xe
 1477 0074 3A       		.uleb128 0x3a
 1478 0075 0B       		.uleb128 0xb
ARM GAS  /tmp/ccsHTNwO.s 			page 27


 1479 0076 3B       		.uleb128 0x3b
 1480 0077 0B       		.uleb128 0xb
 1481 0078 27       		.uleb128 0x27
 1482 0079 19       		.uleb128 0x19
 1483 007a 11       		.uleb128 0x11
 1484 007b 01       		.uleb128 0x1
 1485 007c 12       		.uleb128 0x12
 1486 007d 06       		.uleb128 0x6
 1487 007e 40       		.uleb128 0x40
 1488 007f 18       		.uleb128 0x18
 1489 0080 9742     		.uleb128 0x2117
 1490 0082 19       		.uleb128 0x19
 1491 0083 01       		.uleb128 0x1
 1492 0084 13       		.uleb128 0x13
 1493 0085 00       		.byte	0
 1494 0086 00       		.byte	0
 1495 0087 0B       		.uleb128 0xb
 1496 0088 05       		.uleb128 0x5
 1497 0089 00       		.byte	0
 1498 008a 03       		.uleb128 0x3
 1499 008b 0E       		.uleb128 0xe
 1500 008c 3A       		.uleb128 0x3a
 1501 008d 0B       		.uleb128 0xb
 1502 008e 3B       		.uleb128 0x3b
 1503 008f 0B       		.uleb128 0xb
 1504 0090 49       		.uleb128 0x49
 1505 0091 13       		.uleb128 0x13
 1506 0092 02       		.uleb128 0x2
 1507 0093 17       		.uleb128 0x17
 1508 0094 00       		.byte	0
 1509 0095 00       		.byte	0
 1510 0096 0C       		.uleb128 0xc
 1511 0097 34       		.uleb128 0x34
 1512 0098 00       		.byte	0
 1513 0099 03       		.uleb128 0x3
 1514 009a 08       		.uleb128 0x8
 1515 009b 3A       		.uleb128 0x3a
 1516 009c 0B       		.uleb128 0xb
 1517 009d 3B       		.uleb128 0x3b
 1518 009e 0B       		.uleb128 0xb
 1519 009f 49       		.uleb128 0x49
 1520 00a0 13       		.uleb128 0x13
 1521 00a1 02       		.uleb128 0x2
 1522 00a2 17       		.uleb128 0x17
 1523 00a3 00       		.byte	0
 1524 00a4 00       		.byte	0
 1525 00a5 0D       		.uleb128 0xd
 1526 00a6 34       		.uleb128 0x34
 1527 00a7 00       		.byte	0
 1528 00a8 03       		.uleb128 0x3
 1529 00a9 0E       		.uleb128 0xe
 1530 00aa 3A       		.uleb128 0x3a
 1531 00ab 0B       		.uleb128 0xb
 1532 00ac 3B       		.uleb128 0x3b
 1533 00ad 0B       		.uleb128 0xb
 1534 00ae 49       		.uleb128 0x49
 1535 00af 13       		.uleb128 0x13
ARM GAS  /tmp/ccsHTNwO.s 			page 28


 1536 00b0 02       		.uleb128 0x2
 1537 00b1 17       		.uleb128 0x17
 1538 00b2 00       		.byte	0
 1539 00b3 00       		.byte	0
 1540 00b4 0E       		.uleb128 0xe
 1541 00b5 898201   		.uleb128 0x4109
 1542 00b8 01       		.byte	0x1
 1543 00b9 11       		.uleb128 0x11
 1544 00ba 01       		.uleb128 0x1
 1545 00bb 31       		.uleb128 0x31
 1546 00bc 13       		.uleb128 0x13
 1547 00bd 01       		.uleb128 0x1
 1548 00be 13       		.uleb128 0x13
 1549 00bf 00       		.byte	0
 1550 00c0 00       		.byte	0
 1551 00c1 0F       		.uleb128 0xf
 1552 00c2 8A8201   		.uleb128 0x410a
 1553 00c5 00       		.byte	0
 1554 00c6 02       		.uleb128 0x2
 1555 00c7 18       		.uleb128 0x18
 1556 00c8 9142     		.uleb128 0x2111
 1557 00ca 18       		.uleb128 0x18
 1558 00cb 00       		.byte	0
 1559 00cc 00       		.byte	0
 1560 00cd 10       		.uleb128 0x10
 1561 00ce 898201   		.uleb128 0x4109
 1562 00d1 01       		.byte	0x1
 1563 00d2 11       		.uleb128 0x11
 1564 00d3 01       		.uleb128 0x1
 1565 00d4 9542     		.uleb128 0x2115
 1566 00d6 19       		.uleb128 0x19
 1567 00d7 31       		.uleb128 0x31
 1568 00d8 13       		.uleb128 0x13
 1569 00d9 00       		.byte	0
 1570 00da 00       		.byte	0
 1571 00db 11       		.uleb128 0x11
 1572 00dc 05       		.uleb128 0x5
 1573 00dd 00       		.byte	0
 1574 00de 03       		.uleb128 0x3
 1575 00df 08       		.uleb128 0x8
 1576 00e0 3A       		.uleb128 0x3a
 1577 00e1 0B       		.uleb128 0xb
 1578 00e2 3B       		.uleb128 0x3b
 1579 00e3 0B       		.uleb128 0xb
 1580 00e4 49       		.uleb128 0x49
 1581 00e5 13       		.uleb128 0x13
 1582 00e6 02       		.uleb128 0x2
 1583 00e7 17       		.uleb128 0x17
 1584 00e8 00       		.byte	0
 1585 00e9 00       		.byte	0
 1586 00ea 12       		.uleb128 0x12
 1587 00eb 898201   		.uleb128 0x4109
 1588 00ee 01       		.byte	0x1
 1589 00ef 11       		.uleb128 0x11
 1590 00f0 01       		.uleb128 0x1
 1591 00f1 9542     		.uleb128 0x2115
 1592 00f3 19       		.uleb128 0x19
ARM GAS  /tmp/ccsHTNwO.s 			page 29


 1593 00f4 31       		.uleb128 0x31
 1594 00f5 13       		.uleb128 0x13
 1595 00f6 01       		.uleb128 0x1
 1596 00f7 13       		.uleb128 0x13
 1597 00f8 00       		.byte	0
 1598 00f9 00       		.byte	0
 1599 00fa 13       		.uleb128 0x13
 1600 00fb 898201   		.uleb128 0x4109
 1601 00fe 01       		.byte	0x1
 1602 00ff 11       		.uleb128 0x11
 1603 0100 01       		.uleb128 0x1
 1604 0101 31       		.uleb128 0x31
 1605 0102 13       		.uleb128 0x13
 1606 0103 00       		.byte	0
 1607 0104 00       		.byte	0
 1608 0105 14       		.uleb128 0x14
 1609 0106 2E       		.uleb128 0x2e
 1610 0107 01       		.byte	0x1
 1611 0108 3F       		.uleb128 0x3f
 1612 0109 19       		.uleb128 0x19
 1613 010a 03       		.uleb128 0x3
 1614 010b 0E       		.uleb128 0xe
 1615 010c 3A       		.uleb128 0x3a
 1616 010d 0B       		.uleb128 0xb
 1617 010e 3B       		.uleb128 0x3b
 1618 010f 0B       		.uleb128 0xb
 1619 0110 27       		.uleb128 0x27
 1620 0111 19       		.uleb128 0x19
 1621 0112 3C       		.uleb128 0x3c
 1622 0113 19       		.uleb128 0x19
 1623 0114 01       		.uleb128 0x1
 1624 0115 13       		.uleb128 0x13
 1625 0116 00       		.byte	0
 1626 0117 00       		.byte	0
 1627 0118 15       		.uleb128 0x15
 1628 0119 05       		.uleb128 0x5
 1629 011a 00       		.byte	0
 1630 011b 49       		.uleb128 0x49
 1631 011c 13       		.uleb128 0x13
 1632 011d 00       		.byte	0
 1633 011e 00       		.byte	0
 1634 011f 00       		.byte	0
 1635              		.section	.debug_loc,"",%progbits
 1636              	.Ldebug_loc0:
 1637              	.LLST0:
 1638 0000 00000000 		.4byte	.LVL0-.Ltext0
 1639 0004 24000000 		.4byte	.LVL3-.Ltext0
 1640 0008 0100     		.2byte	0x1
 1641 000a 50       		.byte	0x50
 1642 000b 24000000 		.4byte	.LVL3-.Ltext0
 1643 000f B0000000 		.4byte	.LVL18-.Ltext0
 1644 0013 0100     		.2byte	0x1
 1645 0015 57       		.byte	0x57
 1646 0016 B0000000 		.4byte	.LVL18-.Ltext0
 1647 001a E2000000 		.4byte	.LVL26-.Ltext0
 1648 001e 0200     		.2byte	0x2
 1649 0020 91       		.byte	0x91
ARM GAS  /tmp/ccsHTNwO.s 			page 30


 1650 0021 54       		.sleb128 -44
 1651 0022 E2000000 		.4byte	.LVL26-.Ltext0
 1652 0026 EB000000 		.4byte	.LVL29-1-.Ltext0
 1653 002a 0100     		.2byte	0x1
 1654 002c 50       		.byte	0x50
 1655 002d EB000000 		.4byte	.LVL29-1-.Ltext0
 1656 0031 FE000000 		.4byte	.LVL30-.Ltext0
 1657 0035 0100     		.2byte	0x1
 1658 0037 57       		.byte	0x57
 1659 0038 FE000000 		.4byte	.LVL30-.Ltext0
 1660 003c 02010000 		.4byte	.LFE136-.Ltext0
 1661 0040 0400     		.2byte	0x4
 1662 0042 F3       		.byte	0xf3
 1663 0043 01       		.uleb128 0x1
 1664 0044 50       		.byte	0x50
 1665 0045 9F       		.byte	0x9f
 1666 0046 00000000 		.4byte	0
 1667 004a 00000000 		.4byte	0
 1668              	.LLST1:
 1669 004e 00000000 		.4byte	.LVL0-.Ltext0
 1670 0052 24000000 		.4byte	.LVL3-.Ltext0
 1671 0056 0100     		.2byte	0x1
 1672 0058 51       		.byte	0x51
 1673 0059 24000000 		.4byte	.LVL3-.Ltext0
 1674 005d E2000000 		.4byte	.LVL26-.Ltext0
 1675 0061 0200     		.2byte	0x2
 1676 0063 91       		.byte	0x91
 1677 0064 4C       		.sleb128 -52
 1678 0065 E2000000 		.4byte	.LVL26-.Ltext0
 1679 0069 E6000000 		.4byte	.LVL27-.Ltext0
 1680 006d 0100     		.2byte	0x1
 1681 006f 51       		.byte	0x51
 1682 0070 E6000000 		.4byte	.LVL27-.Ltext0
 1683 0074 FE000000 		.4byte	.LVL30-.Ltext0
 1684 0078 0200     		.2byte	0x2
 1685 007a 91       		.byte	0x91
 1686 007b 4C       		.sleb128 -52
 1687 007c FE000000 		.4byte	.LVL30-.Ltext0
 1688 0080 02010000 		.4byte	.LFE136-.Ltext0
 1689 0084 0200     		.2byte	0x2
 1690 0086 7D       		.byte	0x7d
 1691 0087 4C       		.sleb128 -52
 1692 0088 00000000 		.4byte	0
 1693 008c 00000000 		.4byte	0
 1694              	.LLST2:
 1695 0090 00000000 		.4byte	.LVL0-.Ltext0
 1696 0094 14000000 		.4byte	.LVL2-.Ltext0
 1697 0098 0100     		.2byte	0x1
 1698 009a 52       		.byte	0x52
 1699 009b 14000000 		.4byte	.LVL2-.Ltext0
 1700 009f 24000000 		.4byte	.LVL3-.Ltext0
 1701 00a3 0100     		.2byte	0x1
 1702 00a5 59       		.byte	0x59
 1703 00a6 24000000 		.4byte	.LVL3-.Ltext0
 1704 00aa DE000000 		.4byte	.LVL25-.Ltext0
 1705 00ae 0200     		.2byte	0x2
 1706 00b0 7D       		.byte	0x7d
ARM GAS  /tmp/ccsHTNwO.s 			page 31


 1707 00b1 00       		.sleb128 0
 1708 00b2 DE000000 		.4byte	.LVL25-.Ltext0
 1709 00b6 E2000000 		.4byte	.LVL26-.Ltext0
 1710 00ba 0200     		.2byte	0x2
 1711 00bc 91       		.byte	0x91
 1712 00bd 48       		.sleb128 -56
 1713 00be E2000000 		.4byte	.LVL26-.Ltext0
 1714 00c2 EB000000 		.4byte	.LVL29-1-.Ltext0
 1715 00c6 0100     		.2byte	0x1
 1716 00c8 52       		.byte	0x52
 1717 00c9 EB000000 		.4byte	.LVL29-1-.Ltext0
 1718 00cd FE000000 		.4byte	.LVL30-.Ltext0
 1719 00d1 0100     		.2byte	0x1
 1720 00d3 59       		.byte	0x59
 1721 00d4 FE000000 		.4byte	.LVL30-.Ltext0
 1722 00d8 02010000 		.4byte	.LFE136-.Ltext0
 1723 00dc 0200     		.2byte	0x2
 1724 00de 7D       		.byte	0x7d
 1725 00df 48       		.sleb128 -56
 1726 00e0 00000000 		.4byte	0
 1727 00e4 00000000 		.4byte	0
 1728              	.LLST3:
 1729 00e8 0A000000 		.4byte	.LVL1-.Ltext0
 1730 00ec 24000000 		.4byte	.LVL3-.Ltext0
 1731 00f0 0200     		.2byte	0x2
 1732 00f2 30       		.byte	0x30
 1733 00f3 9F       		.byte	0x9f
 1734 00f4 24000000 		.4byte	.LVL3-.Ltext0
 1735 00f8 AC000000 		.4byte	.LVL17-.Ltext0
 1736 00fc 0100     		.2byte	0x1
 1737 00fe 56       		.byte	0x56
 1738 00ff AC000000 		.4byte	.LVL17-.Ltext0
 1739 0103 B2000000 		.4byte	.LVL19-.Ltext0
 1740 0107 0200     		.2byte	0x2
 1741 0109 30       		.byte	0x30
 1742 010a 9F       		.byte	0x9f
 1743 010b E2000000 		.4byte	.LVL26-.Ltext0
 1744 010f 02010000 		.4byte	.LFE136-.Ltext0
 1745 0113 0200     		.2byte	0x2
 1746 0115 30       		.byte	0x30
 1747 0116 9F       		.byte	0x9f
 1748 0117 00000000 		.4byte	0
 1749 011b 00000000 		.4byte	0
 1750              	.LLST4:
 1751 011f 36000000 		.4byte	.LVL4-.Ltext0
 1752 0123 76000000 		.4byte	.LVL12-.Ltext0
 1753 0127 0600     		.2byte	0x6
 1754 0129 75       		.byte	0x75
 1755 012a 00       		.sleb128 0
 1756 012b 76       		.byte	0x76
 1757 012c 00       		.sleb128 0
 1758 012d 22       		.byte	0x22
 1759 012e 9F       		.byte	0x9f
 1760 012f 76000000 		.4byte	.LVL12-.Ltext0
 1761 0133 90000000 		.4byte	.LVL15-.Ltext0
 1762 0137 0800     		.2byte	0x8
 1763 0139 75       		.byte	0x75
ARM GAS  /tmp/ccsHTNwO.s 			page 32


 1764 013a 00       		.sleb128 0
 1765 013b 76       		.byte	0x76
 1766 013c 00       		.sleb128 0
 1767 013d 22       		.byte	0x22
 1768 013e 31       		.byte	0x31
 1769 013f 1C       		.byte	0x1c
 1770 0140 9F       		.byte	0x9f
 1771 0141 90000000 		.4byte	.LVL15-.Ltext0
 1772 0145 E2000000 		.4byte	.LVL26-.Ltext0
 1773 0149 0B00     		.2byte	0xb
 1774 014b 91       		.byte	0x91
 1775 014c 4C       		.sleb128 -52
 1776 014d 06       		.byte	0x6
 1777 014e 31       		.byte	0x31
 1778 014f 25       		.byte	0x25
 1779 0150 76       		.byte	0x76
 1780 0151 00       		.sleb128 0
 1781 0152 22       		.byte	0x22
 1782 0153 31       		.byte	0x31
 1783 0154 1C       		.byte	0x1c
 1784 0155 9F       		.byte	0x9f
 1785 0156 00000000 		.4byte	0
 1786 015a 00000000 		.4byte	0
 1787              	.LLST5:
 1788 015e 0A000000 		.4byte	.LVL1-.Ltext0
 1789 0162 24000000 		.4byte	.LVL3-.Ltext0
 1790 0166 0100     		.2byte	0x1
 1791 0168 53       		.byte	0x53
 1792 0169 24000000 		.4byte	.LVL3-.Ltext0
 1793 016d 90000000 		.4byte	.LVL15-.Ltext0
 1794 0171 0100     		.2byte	0x1
 1795 0173 55       		.byte	0x55
 1796 0174 90000000 		.4byte	.LVL15-.Ltext0
 1797 0178 E2000000 		.4byte	.LVL26-.Ltext0
 1798 017c 0600     		.2byte	0x6
 1799 017e 91       		.byte	0x91
 1800 017f 4C       		.sleb128 -52
 1801 0180 06       		.byte	0x6
 1802 0181 31       		.byte	0x31
 1803 0182 25       		.byte	0x25
 1804 0183 9F       		.byte	0x9f
 1805 0184 E2000000 		.4byte	.LVL26-.Ltext0
 1806 0188 E8000000 		.4byte	.LVL28-.Ltext0
 1807 018c 0100     		.2byte	0x1
 1808 018e 53       		.byte	0x53
 1809 018f E8000000 		.4byte	.LVL28-.Ltext0
 1810 0193 EB000000 		.4byte	.LVL29-1-.Ltext0
 1811 0197 0100     		.2byte	0x1
 1812 0199 51       		.byte	0x51
 1813 019a EB000000 		.4byte	.LVL29-1-.Ltext0
 1814 019e FE000000 		.4byte	.LVL30-.Ltext0
 1815 01a2 0100     		.2byte	0x1
 1816 01a4 54       		.byte	0x54
 1817 01a5 FE000000 		.4byte	.LVL30-.Ltext0
 1818 01a9 01010000 		.4byte	.LVL31-1-.Ltext0
 1819 01ad 0100     		.2byte	0x1
 1820 01af 51       		.byte	0x51
ARM GAS  /tmp/ccsHTNwO.s 			page 33


 1821 01b0 01010000 		.4byte	.LVL31-1-.Ltext0
 1822 01b4 02010000 		.4byte	.LFE136-.Ltext0
 1823 01b8 0600     		.2byte	0x6
 1824 01ba 7D       		.byte	0x7d
 1825 01bb 4C       		.sleb128 -52
 1826 01bc 06       		.byte	0x6
 1827 01bd 31       		.byte	0x31
 1828 01be 25       		.byte	0x25
 1829 01bf 9F       		.byte	0x9f
 1830 01c0 00000000 		.4byte	0
 1831 01c4 00000000 		.4byte	0
 1832              	.LLST6:
 1833 01c8 0A000000 		.4byte	.LVL1-.Ltext0
 1834 01cc 24000000 		.4byte	.LVL3-.Ltext0
 1835 01d0 0200     		.2byte	0x2
 1836 01d2 30       		.byte	0x30
 1837 01d3 9F       		.byte	0x9f
 1838 01d4 24000000 		.4byte	.LVL3-.Ltext0
 1839 01d8 36000000 		.4byte	.LVL4-.Ltext0
 1840 01dc 0100     		.2byte	0x1
 1841 01de 56       		.byte	0x56
 1842 01df 36000000 		.4byte	.LVL4-.Ltext0
 1843 01e3 76000000 		.4byte	.LVL12-.Ltext0
 1844 01e7 0300     		.2byte	0x3
 1845 01e9 76       		.byte	0x76
 1846 01ea 01       		.sleb128 1
 1847 01eb 9F       		.byte	0x9f
 1848 01ec 76000000 		.4byte	.LVL12-.Ltext0
 1849 01f0 E2000000 		.4byte	.LVL26-.Ltext0
 1850 01f4 0100     		.2byte	0x1
 1851 01f6 56       		.byte	0x56
 1852 01f7 E2000000 		.4byte	.LVL26-.Ltext0
 1853 01fb 02010000 		.4byte	.LFE136-.Ltext0
 1854 01ff 0200     		.2byte	0x2
 1855 0201 30       		.byte	0x30
 1856 0202 9F       		.byte	0x9f
 1857 0203 00000000 		.4byte	0
 1858 0207 00000000 		.4byte	0
 1859              	.LLST7:
 1860 020b 58000000 		.4byte	.LVL5-.Ltext0
 1861 020f 6E000000 		.4byte	.LVL10-.Ltext0
 1862 0213 0100     		.2byte	0x1
 1863 0215 53       		.byte	0x53
 1864 0216 BA000000 		.4byte	.LVL20-.Ltext0
 1865 021a C0000000 		.4byte	.LVL23-.Ltext0
 1866 021e 0500     		.2byte	0x5
 1867 0220 72       		.byte	0x72
 1868 0221 00       		.sleb128 0
 1869 0222 31       		.byte	0x31
 1870 0223 24       		.byte	0x24
 1871 0224 9F       		.byte	0x9f
 1872 0225 C0000000 		.4byte	.LVL23-.Ltext0
 1873 0229 E2000000 		.4byte	.LVL26-.Ltext0
 1874 022d 0100     		.2byte	0x1
 1875 022f 52       		.byte	0x52
 1876 0230 00000000 		.4byte	0
 1877 0234 00000000 		.4byte	0
ARM GAS  /tmp/ccsHTNwO.s 			page 34


 1878              	.LLST8:
 1879 0238 5E000000 		.4byte	.LVL6-.Ltext0
 1880 023c 6A000000 		.4byte	.LVL9-.Ltext0
 1881 0240 0100     		.2byte	0x1
 1882 0242 50       		.byte	0x50
 1883 0243 BA000000 		.4byte	.LVL20-.Ltext0
 1884 0247 C2000000 		.4byte	.LVL24-.Ltext0
 1885 024b 0500     		.2byte	0x5
 1886 024d 73       		.byte	0x73
 1887 024e 00       		.sleb128 0
 1888 024f 31       		.byte	0x31
 1889 0250 24       		.byte	0x24
 1890 0251 9F       		.byte	0x9f
 1891 0252 C2000000 		.4byte	.LVL24-.Ltext0
 1892 0256 E2000000 		.4byte	.LVL26-.Ltext0
 1893 025a 0100     		.2byte	0x1
 1894 025c 53       		.byte	0x53
 1895 025d 00000000 		.4byte	0
 1896 0261 00000000 		.4byte	0
 1897              	.LLST9:
 1898 0265 36000000 		.4byte	.LVL4-.Ltext0
 1899 0269 66000000 		.4byte	.LVL8-.Ltext0
 1900 026d 0100     		.2byte	0x1
 1901 026f 51       		.byte	0x51
 1902 0270 00000000 		.4byte	0
 1903 0274 00000000 		.4byte	0
 1904              	.LLST10:
 1905 0278 36000000 		.4byte	.LVL4-.Ltext0
 1906 027c 8E000000 		.4byte	.LVL14-.Ltext0
 1907 0280 0100     		.2byte	0x1
 1908 0282 54       		.byte	0x54
 1909 0283 00000000 		.4byte	0
 1910 0287 00000000 		.4byte	0
 1911              	.LLST11:
 1912 028b 62000000 		.4byte	.LVL7-.Ltext0
 1913 028f 6A000000 		.4byte	.LVL9-.Ltext0
 1914 0293 0100     		.2byte	0x1
 1915 0295 52       		.byte	0x52
 1916 0296 6A000000 		.4byte	.LVL9-.Ltext0
 1917 029a 70000000 		.4byte	.LVL11-.Ltext0
 1918 029e 0100     		.2byte	0x1
 1919 02a0 50       		.byte	0x50
 1920 02a1 BA000000 		.4byte	.LVL20-.Ltext0
 1921 02a5 BE000000 		.4byte	.LVL22-.Ltext0
 1922 02a9 0500     		.2byte	0x5
 1923 02ab 70       		.byte	0x70
 1924 02ac 00       		.sleb128 0
 1925 02ad 31       		.byte	0x31
 1926 02ae 24       		.byte	0x24
 1927 02af 9F       		.byte	0x9f
 1928 02b0 BE000000 		.4byte	.LVL22-.Ltext0
 1929 02b4 E2000000 		.4byte	.LVL26-.Ltext0
 1930 02b8 0100     		.2byte	0x1
 1931 02ba 50       		.byte	0x50
 1932 02bb 00000000 		.4byte	0
 1933 02bf 00000000 		.4byte	0
 1934              	.LLST12:
ARM GAS  /tmp/ccsHTNwO.s 			page 35


 1935 02c3 66000000 		.4byte	.LVL8-.Ltext0
 1936 02c7 6E000000 		.4byte	.LVL10-.Ltext0
 1937 02cb 0100     		.2byte	0x1
 1938 02cd 51       		.byte	0x51
 1939 02ce 6E000000 		.4byte	.LVL10-.Ltext0
 1940 02d2 78000000 		.4byte	.LVL13-.Ltext0
 1941 02d6 0100     		.2byte	0x1
 1942 02d8 53       		.byte	0x53
 1943 02d9 BA000000 		.4byte	.LVL20-.Ltext0
 1944 02dd BC000000 		.4byte	.LVL21-.Ltext0
 1945 02e1 0500     		.2byte	0x5
 1946 02e3 71       		.byte	0x71
 1947 02e4 00       		.sleb128 0
 1948 02e5 31       		.byte	0x31
 1949 02e6 24       		.byte	0x24
 1950 02e7 9F       		.byte	0x9f
 1951 02e8 BC000000 		.4byte	.LVL21-.Ltext0
 1952 02ec E2000000 		.4byte	.LVL26-.Ltext0
 1953 02f0 0100     		.2byte	0x1
 1954 02f2 51       		.byte	0x51
 1955 02f3 00000000 		.4byte	0
 1956 02f7 00000000 		.4byte	0
 1957              	.LLST13:
 1958 02fb 10010000 		.4byte	.LVL32-.Ltext0
 1959 02ff 34010000 		.4byte	.LVL35-.Ltext0
 1960 0303 0100     		.2byte	0x1
 1961 0305 50       		.byte	0x50
 1962 0306 34010000 		.4byte	.LVL35-.Ltext0
 1963 030a C0010000 		.4byte	.LVL50-.Ltext0
 1964 030e 0100     		.2byte	0x1
 1965 0310 57       		.byte	0x57
 1966 0311 C0010000 		.4byte	.LVL50-.Ltext0
 1967 0315 F2010000 		.4byte	.LVL58-.Ltext0
 1968 0319 0200     		.2byte	0x2
 1969 031b 91       		.byte	0x91
 1970 031c 54       		.sleb128 -44
 1971 031d F2010000 		.4byte	.LVL58-.Ltext0
 1972 0321 FB010000 		.4byte	.LVL61-1-.Ltext0
 1973 0325 0100     		.2byte	0x1
 1974 0327 50       		.byte	0x50
 1975 0328 FB010000 		.4byte	.LVL61-1-.Ltext0
 1976 032c 0E020000 		.4byte	.LVL62-.Ltext0
 1977 0330 0100     		.2byte	0x1
 1978 0332 57       		.byte	0x57
 1979 0333 0E020000 		.4byte	.LVL62-.Ltext0
 1980 0337 12020000 		.4byte	.LFE137-.Ltext0
 1981 033b 0400     		.2byte	0x4
 1982 033d F3       		.byte	0xf3
 1983 033e 01       		.uleb128 0x1
 1984 033f 50       		.byte	0x50
 1985 0340 9F       		.byte	0x9f
 1986 0341 00000000 		.4byte	0
 1987 0345 00000000 		.4byte	0
 1988              	.LLST14:
 1989 0349 10010000 		.4byte	.LVL32-.Ltext0
 1990 034d 34010000 		.4byte	.LVL35-.Ltext0
 1991 0351 0100     		.2byte	0x1
ARM GAS  /tmp/ccsHTNwO.s 			page 36


 1992 0353 51       		.byte	0x51
 1993 0354 34010000 		.4byte	.LVL35-.Ltext0
 1994 0358 F2010000 		.4byte	.LVL58-.Ltext0
 1995 035c 0200     		.2byte	0x2
 1996 035e 91       		.byte	0x91
 1997 035f 4C       		.sleb128 -52
 1998 0360 F2010000 		.4byte	.LVL58-.Ltext0
 1999 0364 F6010000 		.4byte	.LVL59-.Ltext0
 2000 0368 0100     		.2byte	0x1
 2001 036a 51       		.byte	0x51
 2002 036b F6010000 		.4byte	.LVL59-.Ltext0
 2003 036f 0E020000 		.4byte	.LVL62-.Ltext0
 2004 0373 0200     		.2byte	0x2
 2005 0375 91       		.byte	0x91
 2006 0376 4C       		.sleb128 -52
 2007 0377 0E020000 		.4byte	.LVL62-.Ltext0
 2008 037b 12020000 		.4byte	.LFE137-.Ltext0
 2009 037f 0200     		.2byte	0x2
 2010 0381 7D       		.byte	0x7d
 2011 0382 4C       		.sleb128 -52
 2012 0383 00000000 		.4byte	0
 2013 0387 00000000 		.4byte	0
 2014              	.LLST15:
 2015 038b 10010000 		.4byte	.LVL32-.Ltext0
 2016 038f 24010000 		.4byte	.LVL34-.Ltext0
 2017 0393 0100     		.2byte	0x1
 2018 0395 52       		.byte	0x52
 2019 0396 24010000 		.4byte	.LVL34-.Ltext0
 2020 039a 34010000 		.4byte	.LVL35-.Ltext0
 2021 039e 0100     		.2byte	0x1
 2022 03a0 59       		.byte	0x59
 2023 03a1 34010000 		.4byte	.LVL35-.Ltext0
 2024 03a5 EE010000 		.4byte	.LVL57-.Ltext0
 2025 03a9 0200     		.2byte	0x2
 2026 03ab 7D       		.byte	0x7d
 2027 03ac 00       		.sleb128 0
 2028 03ad EE010000 		.4byte	.LVL57-.Ltext0
 2029 03b1 F2010000 		.4byte	.LVL58-.Ltext0
 2030 03b5 0200     		.2byte	0x2
 2031 03b7 91       		.byte	0x91
 2032 03b8 48       		.sleb128 -56
 2033 03b9 F2010000 		.4byte	.LVL58-.Ltext0
 2034 03bd FB010000 		.4byte	.LVL61-1-.Ltext0
 2035 03c1 0100     		.2byte	0x1
 2036 03c3 52       		.byte	0x52
 2037 03c4 FB010000 		.4byte	.LVL61-1-.Ltext0
 2038 03c8 0E020000 		.4byte	.LVL62-.Ltext0
 2039 03cc 0100     		.2byte	0x1
 2040 03ce 59       		.byte	0x59
 2041 03cf 0E020000 		.4byte	.LVL62-.Ltext0
 2042 03d3 12020000 		.4byte	.LFE137-.Ltext0
 2043 03d7 0200     		.2byte	0x2
 2044 03d9 7D       		.byte	0x7d
 2045 03da 48       		.sleb128 -56
 2046 03db 00000000 		.4byte	0
 2047 03df 00000000 		.4byte	0
 2048              	.LLST16:
ARM GAS  /tmp/ccsHTNwO.s 			page 37


 2049 03e3 1A010000 		.4byte	.LVL33-.Ltext0
 2050 03e7 34010000 		.4byte	.LVL35-.Ltext0
 2051 03eb 0200     		.2byte	0x2
 2052 03ed 30       		.byte	0x30
 2053 03ee 9F       		.byte	0x9f
 2054 03ef 34010000 		.4byte	.LVL35-.Ltext0
 2055 03f3 BC010000 		.4byte	.LVL49-.Ltext0
 2056 03f7 0100     		.2byte	0x1
 2057 03f9 56       		.byte	0x56
 2058 03fa BC010000 		.4byte	.LVL49-.Ltext0
 2059 03fe C2010000 		.4byte	.LVL51-.Ltext0
 2060 0402 0200     		.2byte	0x2
 2061 0404 30       		.byte	0x30
 2062 0405 9F       		.byte	0x9f
 2063 0406 F2010000 		.4byte	.LVL58-.Ltext0
 2064 040a 12020000 		.4byte	.LFE137-.Ltext0
 2065 040e 0200     		.2byte	0x2
 2066 0410 30       		.byte	0x30
 2067 0411 9F       		.byte	0x9f
 2068 0412 00000000 		.4byte	0
 2069 0416 00000000 		.4byte	0
 2070              	.LLST17:
 2071 041a 46010000 		.4byte	.LVL36-.Ltext0
 2072 041e 86010000 		.4byte	.LVL44-.Ltext0
 2073 0422 0600     		.2byte	0x6
 2074 0424 75       		.byte	0x75
 2075 0425 00       		.sleb128 0
 2076 0426 76       		.byte	0x76
 2077 0427 00       		.sleb128 0
 2078 0428 22       		.byte	0x22
 2079 0429 9F       		.byte	0x9f
 2080 042a 86010000 		.4byte	.LVL44-.Ltext0
 2081 042e A0010000 		.4byte	.LVL47-.Ltext0
 2082 0432 0800     		.2byte	0x8
 2083 0434 75       		.byte	0x75
 2084 0435 00       		.sleb128 0
 2085 0436 76       		.byte	0x76
 2086 0437 00       		.sleb128 0
 2087 0438 22       		.byte	0x22
 2088 0439 31       		.byte	0x31
 2089 043a 1C       		.byte	0x1c
 2090 043b 9F       		.byte	0x9f
 2091 043c A0010000 		.4byte	.LVL47-.Ltext0
 2092 0440 F2010000 		.4byte	.LVL58-.Ltext0
 2093 0444 0B00     		.2byte	0xb
 2094 0446 91       		.byte	0x91
 2095 0447 4C       		.sleb128 -52
 2096 0448 06       		.byte	0x6
 2097 0449 31       		.byte	0x31
 2098 044a 25       		.byte	0x25
 2099 044b 76       		.byte	0x76
 2100 044c 00       		.sleb128 0
 2101 044d 22       		.byte	0x22
 2102 044e 31       		.byte	0x31
 2103 044f 1C       		.byte	0x1c
 2104 0450 9F       		.byte	0x9f
 2105 0451 00000000 		.4byte	0
ARM GAS  /tmp/ccsHTNwO.s 			page 38


 2106 0455 00000000 		.4byte	0
 2107              	.LLST18:
 2108 0459 1A010000 		.4byte	.LVL33-.Ltext0
 2109 045d 34010000 		.4byte	.LVL35-.Ltext0
 2110 0461 0100     		.2byte	0x1
 2111 0463 53       		.byte	0x53
 2112 0464 34010000 		.4byte	.LVL35-.Ltext0
 2113 0468 A0010000 		.4byte	.LVL47-.Ltext0
 2114 046c 0100     		.2byte	0x1
 2115 046e 55       		.byte	0x55
 2116 046f A0010000 		.4byte	.LVL47-.Ltext0
 2117 0473 F2010000 		.4byte	.LVL58-.Ltext0
 2118 0477 0600     		.2byte	0x6
 2119 0479 91       		.byte	0x91
 2120 047a 4C       		.sleb128 -52
 2121 047b 06       		.byte	0x6
 2122 047c 31       		.byte	0x31
 2123 047d 25       		.byte	0x25
 2124 047e 9F       		.byte	0x9f
 2125 047f F2010000 		.4byte	.LVL58-.Ltext0
 2126 0483 F8010000 		.4byte	.LVL60-.Ltext0
 2127 0487 0100     		.2byte	0x1
 2128 0489 53       		.byte	0x53
 2129 048a F8010000 		.4byte	.LVL60-.Ltext0
 2130 048e FB010000 		.4byte	.LVL61-1-.Ltext0
 2131 0492 0100     		.2byte	0x1
 2132 0494 51       		.byte	0x51
 2133 0495 FB010000 		.4byte	.LVL61-1-.Ltext0
 2134 0499 0E020000 		.4byte	.LVL62-.Ltext0
 2135 049d 0100     		.2byte	0x1
 2136 049f 54       		.byte	0x54
 2137 04a0 0E020000 		.4byte	.LVL62-.Ltext0
 2138 04a4 11020000 		.4byte	.LVL63-1-.Ltext0
 2139 04a8 0100     		.2byte	0x1
 2140 04aa 51       		.byte	0x51
 2141 04ab 11020000 		.4byte	.LVL63-1-.Ltext0
 2142 04af 12020000 		.4byte	.LFE137-.Ltext0
 2143 04b3 0600     		.2byte	0x6
 2144 04b5 7D       		.byte	0x7d
 2145 04b6 4C       		.sleb128 -52
 2146 04b7 06       		.byte	0x6
 2147 04b8 31       		.byte	0x31
 2148 04b9 25       		.byte	0x25
 2149 04ba 9F       		.byte	0x9f
 2150 04bb 00000000 		.4byte	0
 2151 04bf 00000000 		.4byte	0
 2152              	.LLST19:
 2153 04c3 1A010000 		.4byte	.LVL33-.Ltext0
 2154 04c7 34010000 		.4byte	.LVL35-.Ltext0
 2155 04cb 0200     		.2byte	0x2
 2156 04cd 30       		.byte	0x30
 2157 04ce 9F       		.byte	0x9f
 2158 04cf 34010000 		.4byte	.LVL35-.Ltext0
 2159 04d3 46010000 		.4byte	.LVL36-.Ltext0
 2160 04d7 0100     		.2byte	0x1
 2161 04d9 56       		.byte	0x56
 2162 04da 46010000 		.4byte	.LVL36-.Ltext0
ARM GAS  /tmp/ccsHTNwO.s 			page 39


 2163 04de 86010000 		.4byte	.LVL44-.Ltext0
 2164 04e2 0300     		.2byte	0x3
 2165 04e4 76       		.byte	0x76
 2166 04e5 01       		.sleb128 1
 2167 04e6 9F       		.byte	0x9f
 2168 04e7 86010000 		.4byte	.LVL44-.Ltext0
 2169 04eb F2010000 		.4byte	.LVL58-.Ltext0
 2170 04ef 0100     		.2byte	0x1
 2171 04f1 56       		.byte	0x56
 2172 04f2 F2010000 		.4byte	.LVL58-.Ltext0
 2173 04f6 12020000 		.4byte	.LFE137-.Ltext0
 2174 04fa 0200     		.2byte	0x2
 2175 04fc 30       		.byte	0x30
 2176 04fd 9F       		.byte	0x9f
 2177 04fe 00000000 		.4byte	0
 2178 0502 00000000 		.4byte	0
 2179              	.LLST20:
 2180 0506 68010000 		.4byte	.LVL37-.Ltext0
 2181 050a 7E010000 		.4byte	.LVL42-.Ltext0
 2182 050e 0100     		.2byte	0x1
 2183 0510 53       		.byte	0x53
 2184 0511 CA010000 		.4byte	.LVL52-.Ltext0
 2185 0515 D0010000 		.4byte	.LVL55-.Ltext0
 2186 0519 0500     		.2byte	0x5
 2187 051b 72       		.byte	0x72
 2188 051c 00       		.sleb128 0
 2189 051d 31       		.byte	0x31
 2190 051e 24       		.byte	0x24
 2191 051f 9F       		.byte	0x9f
 2192 0520 D0010000 		.4byte	.LVL55-.Ltext0
 2193 0524 F2010000 		.4byte	.LVL58-.Ltext0
 2194 0528 0100     		.2byte	0x1
 2195 052a 52       		.byte	0x52
 2196 052b 00000000 		.4byte	0
 2197 052f 00000000 		.4byte	0
 2198              	.LLST21:
 2199 0533 6E010000 		.4byte	.LVL38-.Ltext0
 2200 0537 7A010000 		.4byte	.LVL41-.Ltext0
 2201 053b 0100     		.2byte	0x1
 2202 053d 50       		.byte	0x50
 2203 053e CA010000 		.4byte	.LVL52-.Ltext0
 2204 0542 D2010000 		.4byte	.LVL56-.Ltext0
 2205 0546 0500     		.2byte	0x5
 2206 0548 73       		.byte	0x73
 2207 0549 00       		.sleb128 0
 2208 054a 31       		.byte	0x31
 2209 054b 24       		.byte	0x24
 2210 054c 9F       		.byte	0x9f
 2211 054d D2010000 		.4byte	.LVL56-.Ltext0
 2212 0551 F2010000 		.4byte	.LVL58-.Ltext0
 2213 0555 0100     		.2byte	0x1
 2214 0557 53       		.byte	0x53
 2215 0558 00000000 		.4byte	0
 2216 055c 00000000 		.4byte	0
 2217              	.LLST22:
 2218 0560 46010000 		.4byte	.LVL36-.Ltext0
 2219 0564 76010000 		.4byte	.LVL40-.Ltext0
ARM GAS  /tmp/ccsHTNwO.s 			page 40


 2220 0568 0100     		.2byte	0x1
 2221 056a 51       		.byte	0x51
 2222 056b 00000000 		.4byte	0
 2223 056f 00000000 		.4byte	0
 2224              	.LLST23:
 2225 0573 46010000 		.4byte	.LVL36-.Ltext0
 2226 0577 9E010000 		.4byte	.LVL46-.Ltext0
 2227 057b 0100     		.2byte	0x1
 2228 057d 54       		.byte	0x54
 2229 057e 00000000 		.4byte	0
 2230 0582 00000000 		.4byte	0
 2231              	.LLST24:
 2232 0586 72010000 		.4byte	.LVL39-.Ltext0
 2233 058a 7A010000 		.4byte	.LVL41-.Ltext0
 2234 058e 0100     		.2byte	0x1
 2235 0590 52       		.byte	0x52
 2236 0591 7A010000 		.4byte	.LVL41-.Ltext0
 2237 0595 80010000 		.4byte	.LVL43-.Ltext0
 2238 0599 0100     		.2byte	0x1
 2239 059b 50       		.byte	0x50
 2240 059c CA010000 		.4byte	.LVL52-.Ltext0
 2241 05a0 CE010000 		.4byte	.LVL54-.Ltext0
 2242 05a4 0500     		.2byte	0x5
 2243 05a6 70       		.byte	0x70
 2244 05a7 00       		.sleb128 0
 2245 05a8 31       		.byte	0x31
 2246 05a9 24       		.byte	0x24
 2247 05aa 9F       		.byte	0x9f
 2248 05ab CE010000 		.4byte	.LVL54-.Ltext0
 2249 05af F2010000 		.4byte	.LVL58-.Ltext0
 2250 05b3 0100     		.2byte	0x1
 2251 05b5 50       		.byte	0x50
 2252 05b6 00000000 		.4byte	0
 2253 05ba 00000000 		.4byte	0
 2254              	.LLST25:
 2255 05be 76010000 		.4byte	.LVL40-.Ltext0
 2256 05c2 7E010000 		.4byte	.LVL42-.Ltext0
 2257 05c6 0100     		.2byte	0x1
 2258 05c8 51       		.byte	0x51
 2259 05c9 7E010000 		.4byte	.LVL42-.Ltext0
 2260 05cd 88010000 		.4byte	.LVL45-.Ltext0
 2261 05d1 0100     		.2byte	0x1
 2262 05d3 53       		.byte	0x53
 2263 05d4 CA010000 		.4byte	.LVL52-.Ltext0
 2264 05d8 CC010000 		.4byte	.LVL53-.Ltext0
 2265 05dc 0500     		.2byte	0x5
 2266 05de 71       		.byte	0x71
 2267 05df 00       		.sleb128 0
 2268 05e0 31       		.byte	0x31
 2269 05e1 24       		.byte	0x24
 2270 05e2 9F       		.byte	0x9f
 2271 05e3 CC010000 		.4byte	.LVL53-.Ltext0
 2272 05e7 F2010000 		.4byte	.LVL58-.Ltext0
 2273 05eb 0100     		.2byte	0x1
 2274 05ed 51       		.byte	0x51
 2275 05ee 00000000 		.4byte	0
 2276 05f2 00000000 		.4byte	0
ARM GAS  /tmp/ccsHTNwO.s 			page 41


 2277              	.LLST26:
 2278 05f6 20020000 		.4byte	.LVL64-.Ltext0
 2279 05fa 44020000 		.4byte	.LVL66-.Ltext0
 2280 05fe 0100     		.2byte	0x1
 2281 0600 50       		.byte	0x50
 2282 0601 44020000 		.4byte	.LVL66-.Ltext0
 2283 0605 48020000 		.4byte	.LVL67-.Ltext0
 2284 0609 0100     		.2byte	0x1
 2285 060b 54       		.byte	0x54
 2286 060c 48020000 		.4byte	.LVL67-.Ltext0
 2287 0610 5E020000 		.4byte	.LVL68-.Ltext0
 2288 0614 0100     		.2byte	0x1
 2289 0616 50       		.byte	0x50
 2290 0617 5E020000 		.4byte	.LVL68-.Ltext0
 2291 061b 74020000 		.4byte	.LVL72-.Ltext0
 2292 061f 0100     		.2byte	0x1
 2293 0621 54       		.byte	0x54
 2294 0622 74020000 		.4byte	.LVL72-.Ltext0
 2295 0626 78020000 		.4byte	.LVL73-.Ltext0
 2296 062a 0400     		.2byte	0x4
 2297 062c F3       		.byte	0xf3
 2298 062d 01       		.uleb128 0x1
 2299 062e 50       		.byte	0x50
 2300 062f 9F       		.byte	0x9f
 2301 0630 78020000 		.4byte	.LVL73-.Ltext0
 2302 0634 90020000 		.4byte	.LVL74-.Ltext0
 2303 0638 0100     		.2byte	0x1
 2304 063a 50       		.byte	0x50
 2305 063b 90020000 		.4byte	.LVL74-.Ltext0
 2306 063f 98020000 		.4byte	.LVL77-.Ltext0
 2307 0643 0100     		.2byte	0x1
 2308 0645 54       		.byte	0x54
 2309 0646 98020000 		.4byte	.LVL77-.Ltext0
 2310 064a A0020000 		.4byte	.LVL78-.Ltext0
 2311 064e 0100     		.2byte	0x1
 2312 0650 50       		.byte	0x50
 2313 0651 A0020000 		.4byte	.LVL78-.Ltext0
 2314 0655 A8020000 		.4byte	.LVL81-.Ltext0
 2315 0659 0100     		.2byte	0x1
 2316 065b 54       		.byte	0x54
 2317 065c A8020000 		.4byte	.LVL81-.Ltext0
 2318 0660 BE020000 		.4byte	.LVL82-.Ltext0
 2319 0664 0100     		.2byte	0x1
 2320 0666 50       		.byte	0x50
 2321 0667 BE020000 		.4byte	.LVL82-.Ltext0
 2322 066b C8020000 		.4byte	.LVL86-.Ltext0
 2323 066f 0100     		.2byte	0x1
 2324 0671 54       		.byte	0x54
 2325 0672 C8020000 		.4byte	.LVL86-.Ltext0
 2326 0676 DC020000 		.4byte	.LFE135-.Ltext0
 2327 067a 0100     		.2byte	0x1
 2328 067c 50       		.byte	0x50
 2329 067d 00000000 		.4byte	0
 2330 0681 00000000 		.4byte	0
 2331              	.LLST27:
 2332 0685 20020000 		.4byte	.LVL64-.Ltext0
 2333 0689 2C020000 		.4byte	.LVL65-.Ltext0
ARM GAS  /tmp/ccsHTNwO.s 			page 42


 2334 068d 0100     		.2byte	0x1
 2335 068f 51       		.byte	0x51
 2336 0690 2C020000 		.4byte	.LVL65-.Ltext0
 2337 0694 74020000 		.4byte	.LVL72-.Ltext0
 2338 0698 0100     		.2byte	0x1
 2339 069a 55       		.byte	0x55
 2340 069b 74020000 		.4byte	.LVL72-.Ltext0
 2341 069f 77020000 		.4byte	.LVL73-1-.Ltext0
 2342 06a3 0100     		.2byte	0x1
 2343 06a5 50       		.byte	0x50
 2344 06a6 77020000 		.4byte	.LVL73-1-.Ltext0
 2345 06aa 78020000 		.4byte	.LVL73-.Ltext0
 2346 06ae 0400     		.2byte	0x4
 2347 06b0 F3       		.byte	0xf3
 2348 06b1 01       		.uleb128 0x1
 2349 06b2 51       		.byte	0x51
 2350 06b3 9F       		.byte	0x9f
 2351 06b4 78020000 		.4byte	.LVL73-.Ltext0
 2352 06b8 DC020000 		.4byte	.LFE135-.Ltext0
 2353 06bc 0100     		.2byte	0x1
 2354 06be 55       		.byte	0x55
 2355 06bf 00000000 		.4byte	0
 2356 06c3 00000000 		.4byte	0
 2357              	.LLST28:
 2358 06c7 20020000 		.4byte	.LVL64-.Ltext0
 2359 06cb 44020000 		.4byte	.LVL66-.Ltext0
 2360 06cf 0100     		.2byte	0x1
 2361 06d1 52       		.byte	0x52
 2362 06d2 44020000 		.4byte	.LVL66-.Ltext0
 2363 06d6 48020000 		.4byte	.LVL67-.Ltext0
 2364 06da 0400     		.2byte	0x4
 2365 06dc F3       		.byte	0xf3
 2366 06dd 01       		.uleb128 0x1
 2367 06de 52       		.byte	0x52
 2368 06df 9F       		.byte	0x9f
 2369 06e0 48020000 		.4byte	.LVL67-.Ltext0
 2370 06e4 60020000 		.4byte	.LVL69-.Ltext0
 2371 06e8 0100     		.2byte	0x1
 2372 06ea 52       		.byte	0x52
 2373 06eb 60020000 		.4byte	.LVL69-.Ltext0
 2374 06ef 78020000 		.4byte	.LVL73-.Ltext0
 2375 06f3 0400     		.2byte	0x4
 2376 06f5 F3       		.byte	0xf3
 2377 06f6 01       		.uleb128 0x1
 2378 06f7 52       		.byte	0x52
 2379 06f8 9F       		.byte	0x9f
 2380 06f9 78020000 		.4byte	.LVL73-.Ltext0
 2381 06fd 92020000 		.4byte	.LVL75-.Ltext0
 2382 0701 0100     		.2byte	0x1
 2383 0703 52       		.byte	0x52
 2384 0704 92020000 		.4byte	.LVL75-.Ltext0
 2385 0708 98020000 		.4byte	.LVL77-.Ltext0
 2386 070c 0400     		.2byte	0x4
 2387 070e F3       		.byte	0xf3
 2388 070f 01       		.uleb128 0x1
 2389 0710 52       		.byte	0x52
 2390 0711 9F       		.byte	0x9f
ARM GAS  /tmp/ccsHTNwO.s 			page 43


 2391 0712 98020000 		.4byte	.LVL77-.Ltext0
 2392 0716 A2020000 		.4byte	.LVL79-.Ltext0
 2393 071a 0100     		.2byte	0x1
 2394 071c 52       		.byte	0x52
 2395 071d A2020000 		.4byte	.LVL79-.Ltext0
 2396 0721 A8020000 		.4byte	.LVL81-.Ltext0
 2397 0725 0400     		.2byte	0x4
 2398 0727 F3       		.byte	0xf3
 2399 0728 01       		.uleb128 0x1
 2400 0729 52       		.byte	0x52
 2401 072a 9F       		.byte	0x9f
 2402 072b A8020000 		.4byte	.LVL81-.Ltext0
 2403 072f C0020000 		.4byte	.LVL83-.Ltext0
 2404 0733 0100     		.2byte	0x1
 2405 0735 52       		.byte	0x52
 2406 0736 C0020000 		.4byte	.LVL83-.Ltext0
 2407 073a C8020000 		.4byte	.LVL86-.Ltext0
 2408 073e 0400     		.2byte	0x4
 2409 0740 F3       		.byte	0xf3
 2410 0741 01       		.uleb128 0x1
 2411 0742 52       		.byte	0x52
 2412 0743 9F       		.byte	0x9f
 2413 0744 C8020000 		.4byte	.LVL86-.Ltext0
 2414 0748 DC020000 		.4byte	.LFE135-.Ltext0
 2415 074c 0100     		.2byte	0x1
 2416 074e 52       		.byte	0x52
 2417 074f 00000000 		.4byte	0
 2418 0753 00000000 		.4byte	0
 2419              	.LLST29:
 2420 0757 20020000 		.4byte	.LVL64-.Ltext0
 2421 075b 44020000 		.4byte	.LVL66-.Ltext0
 2422 075f 0100     		.2byte	0x1
 2423 0761 53       		.byte	0x53
 2424 0762 44020000 		.4byte	.LVL66-.Ltext0
 2425 0766 48020000 		.4byte	.LVL67-.Ltext0
 2426 076a 0400     		.2byte	0x4
 2427 076c F3       		.byte	0xf3
 2428 076d 01       		.uleb128 0x1
 2429 076e 53       		.byte	0x53
 2430 076f 9F       		.byte	0x9f
 2431 0770 48020000 		.4byte	.LVL67-.Ltext0
 2432 0774 62020000 		.4byte	.LVL70-.Ltext0
 2433 0778 0100     		.2byte	0x1
 2434 077a 53       		.byte	0x53
 2435 077b 62020000 		.4byte	.LVL70-.Ltext0
 2436 077f 78020000 		.4byte	.LVL73-.Ltext0
 2437 0783 0400     		.2byte	0x4
 2438 0785 F3       		.byte	0xf3
 2439 0786 01       		.uleb128 0x1
 2440 0787 53       		.byte	0x53
 2441 0788 9F       		.byte	0x9f
 2442 0789 78020000 		.4byte	.LVL73-.Ltext0
 2443 078d 95020000 		.4byte	.LVL76-1-.Ltext0
 2444 0791 0100     		.2byte	0x1
 2445 0793 53       		.byte	0x53
 2446 0794 95020000 		.4byte	.LVL76-1-.Ltext0
 2447 0798 98020000 		.4byte	.LVL77-.Ltext0
ARM GAS  /tmp/ccsHTNwO.s 			page 44


 2448 079c 0400     		.2byte	0x4
 2449 079e F3       		.byte	0xf3
 2450 079f 01       		.uleb128 0x1
 2451 07a0 53       		.byte	0x53
 2452 07a1 9F       		.byte	0x9f
 2453 07a2 98020000 		.4byte	.LVL77-.Ltext0
 2454 07a6 A5020000 		.4byte	.LVL80-1-.Ltext0
 2455 07aa 0100     		.2byte	0x1
 2456 07ac 53       		.byte	0x53
 2457 07ad A5020000 		.4byte	.LVL80-1-.Ltext0
 2458 07b1 A8020000 		.4byte	.LVL81-.Ltext0
 2459 07b5 0400     		.2byte	0x4
 2460 07b7 F3       		.byte	0xf3
 2461 07b8 01       		.uleb128 0x1
 2462 07b9 53       		.byte	0x53
 2463 07ba 9F       		.byte	0x9f
 2464 07bb A8020000 		.4byte	.LVL81-.Ltext0
 2465 07bf C2020000 		.4byte	.LVL84-.Ltext0
 2466 07c3 0100     		.2byte	0x1
 2467 07c5 53       		.byte	0x53
 2468 07c6 C2020000 		.4byte	.LVL84-.Ltext0
 2469 07ca C8020000 		.4byte	.LVL86-.Ltext0
 2470 07ce 0400     		.2byte	0x4
 2471 07d0 F3       		.byte	0xf3
 2472 07d1 01       		.uleb128 0x1
 2473 07d2 53       		.byte	0x53
 2474 07d3 9F       		.byte	0x9f
 2475 07d4 C8020000 		.4byte	.LVL86-.Ltext0
 2476 07d8 DC020000 		.4byte	.LFE135-.Ltext0
 2477 07dc 0100     		.2byte	0x1
 2478 07de 53       		.byte	0x53
 2479 07df 00000000 		.4byte	0
 2480 07e3 00000000 		.4byte	0
 2481              	.LLST30:
 2482 07e7 2C020000 		.4byte	.LVL65-.Ltext0
 2483 07eb 44020000 		.4byte	.LVL66-.Ltext0
 2484 07ef 0100     		.2byte	0x1
 2485 07f1 51       		.byte	0x51
 2486 07f2 48020000 		.4byte	.LVL67-.Ltext0
 2487 07f6 65020000 		.4byte	.LVL71-1-.Ltext0
 2488 07fa 0100     		.2byte	0x1
 2489 07fc 51       		.byte	0x51
 2490 07fd 78020000 		.4byte	.LVL73-.Ltext0
 2491 0801 95020000 		.4byte	.LVL76-1-.Ltext0
 2492 0805 0100     		.2byte	0x1
 2493 0807 51       		.byte	0x51
 2494 0808 98020000 		.4byte	.LVL77-.Ltext0
 2495 080c A5020000 		.4byte	.LVL80-1-.Ltext0
 2496 0810 0100     		.2byte	0x1
 2497 0812 51       		.byte	0x51
 2498 0813 A8020000 		.4byte	.LVL81-.Ltext0
 2499 0817 C5020000 		.4byte	.LVL85-1-.Ltext0
 2500 081b 0100     		.2byte	0x1
 2501 081d 51       		.byte	0x51
 2502 081e C8020000 		.4byte	.LVL86-.Ltext0
 2503 0822 DC020000 		.4byte	.LFE135-.Ltext0
 2504 0826 0100     		.2byte	0x1
ARM GAS  /tmp/ccsHTNwO.s 			page 45


 2505 0828 51       		.byte	0x51
 2506 0829 00000000 		.4byte	0
 2507 082d 00000000 		.4byte	0
 2508              		.section	.debug_aranges,"",%progbits
 2509 0000 1C000000 		.4byte	0x1c
 2510 0004 0200     		.2byte	0x2
 2511 0006 00000000 		.4byte	.Ldebug_info0
 2512 000a 04       		.byte	0x4
 2513 000b 00       		.byte	0
 2514 000c 0000     		.2byte	0
 2515 000e 0000     		.2byte	0
 2516 0010 00000000 		.4byte	.Ltext0
 2517 0014 DC020000 		.4byte	.Letext0-.Ltext0
 2518 0018 00000000 		.4byte	0
 2519 001c 00000000 		.4byte	0
 2520              		.section	.debug_line,"",%progbits
 2521              	.Ldebug_line0:
 2522 0000 D3030000 		.section	.debug_str,"MS",%progbits,1
 2522      02000602 
 2522      00000201 
 2522      FB0E0D00 
 2522      01010101 
 2523              	.LASF40:
 2524 0000 474E5520 		.ascii	"GNU C 4.9.3 20150529 (release) [ARM/embedded-4_9-br"
 2524      4320342E 
 2524      392E3320 
 2524      32303135 
 2524      30353239 
 2525 0033 616E6368 		.ascii	"anch revision 224288] -mcpu=cortex-m4 -mfloat-abi=h"
 2525      20726576 
 2525      6973696F 
 2525      6E203232 
 2525      34323838 
 2526 0066 61726420 		.ascii	"ard -mfpu=fpv4-sp-d16 -mno-thumb-interwork -mthumb "
 2526      2D6D6670 
 2526      753D6670 
 2526      76342D73 
 2526      702D6431 
 2527 0099 2D676764 		.ascii	"-ggdb -O2 -fomit-frame-pointer -falign-functions=16"
 2527      62202D4F 
 2527      32202D66 
 2527      6F6D6974 
 2527      2D667261 
 2528 00cc 202D666E 		.ascii	" -fno-math-errno -fsingle-precision-constant\000"
 2528      6F2D6D61 
 2528      74682D65 
 2528      72726E6F 
 2528      202D6673 
 2529              	.LASF3:
 2530 00f9 5F5F7569 		.ascii	"__uint8_t\000"
 2530      6E74385F 
 2530      7400
 2531              	.LASF6:
 2532 0103 5F5F696E 		.ascii	"__int32_t\000"
 2532      7433325F 
 2532      7400
 2533              	.LASF34:
ARM GAS  /tmp/ccsHTNwO.s 			page 46


 2534 010d 61726D5F 		.ascii	"arm_cfft_q31\000"
 2534      63666674 
 2534      5F713331 
 2534      00
 2535              	.LASF41:
 2536 011a 2F686F6D 		.ascii	"/home/sbcu/Dropbox/pcb-layouts/axo-on-discovery-boa"
 2536      652F7362 
 2536      63752F44 
 2536      726F7062 
 2536      6F782F70 
 2537 014d 72642F61 		.ascii	"rd/axoloti/platform_linux/../CMSIS//DSP_Lib/Source/"
 2537      786F6C6F 
 2537      74692F70 
 2537      6C617466 
 2537      6F726D5F 
 2538 0180 5472616E 		.ascii	"TransformFunctions/arm_cfft_q31.c\000"
 2538      73666F72 
 2538      6D46756E 
 2538      6374696F 
 2538      6E732F61 
 2539              	.LASF25:
 2540 01a2 70426974 		.ascii	"pBitRevTable\000"
 2540      52657654 
 2540      61626C65 
 2540      00
 2541              	.LASF20:
 2542 01af 666C6F61 		.ascii	"float\000"
 2542      7400
 2543              	.LASF31:
 2544 01b5 73696E56 		.ascii	"sinVal\000"
 2544      616C00
 2545              	.LASF22:
 2546 01bc 7133315F 		.ascii	"q31_t\000"
 2546      7400
 2547              	.LASF1:
 2548 01c2 756E7369 		.ascii	"unsigned char\000"
 2548      676E6564 
 2548      20636861 
 2548      7200
 2549              	.LASF9:
 2550 01d0 6C6F6E67 		.ascii	"long unsigned int\000"
 2550      20756E73 
 2550      69676E65 
 2550      6420696E 
 2550      7400
 2551              	.LASF5:
 2552 01e2 73686F72 		.ascii	"short unsigned int\000"
 2552      7420756E 
 2552      7369676E 
 2552      65642069 
 2552      6E7400
 2553              	.LASF23:
 2554 01f5 6666744C 		.ascii	"fftLen\000"
 2554      656E00
 2555              	.LASF27:
 2556 01fc 61726D5F 		.ascii	"arm_cfft_instance_q31\000"
 2556      63666674 
ARM GAS  /tmp/ccsHTNwO.s 			page 47


 2556      5F696E73 
 2556      74616E63 
 2556      655F7133 
 2557              	.LASF26:
 2558 0212 62697452 		.ascii	"bitRevLength\000"
 2558      65764C65 
 2558      6E677468 
 2558      00
 2559              	.LASF4:
 2560 021f 5F5F7569 		.ascii	"__uint16_t\000"
 2560      6E743136 
 2560      5F7400
 2561              	.LASF19:
 2562 022a 646F7562 		.ascii	"double\000"
 2562      6C6500
 2563              	.LASF8:
 2564 0231 5F5F7569 		.ascii	"__uint32_t\000"
 2564      6E743332 
 2564      5F7400
 2565              	.LASF35:
 2566 023c 69666674 		.ascii	"ifftFlag\000"
 2566      466C6167 
 2566      00
 2567              	.LASF37:
 2568 0245 61726D5F 		.ascii	"arm_radix4_butterfly_q31\000"
 2568      72616469 
 2568      78345F62 
 2568      75747465 
 2568      72666C79 
 2569              	.LASF12:
 2570 025e 756E7369 		.ascii	"unsigned int\000"
 2570      676E6564 
 2570      20696E74 
 2570      00
 2571              	.LASF32:
 2572 026b 61726D5F 		.ascii	"arm_cfft_radix4by2_q31\000"
 2572      63666674 
 2572      5F726164 
 2572      69783462 
 2572      79325F71 
 2573              	.LASF11:
 2574 0282 6C6F6E67 		.ascii	"long long unsigned int\000"
 2574      206C6F6E 
 2574      6720756E 
 2574      7369676E 
 2574      65642069 
 2575              	.LASF13:
 2576 0299 75696E74 		.ascii	"uint8_t\000"
 2576      385F7400 
 2577              	.LASF36:
 2578 02a1 62697452 		.ascii	"bitReverseFlag\000"
 2578      65766572 
 2578      7365466C 
 2578      616700
 2579              	.LASF39:
 2580 02b0 61726D5F 		.ascii	"arm_bitreversal_32\000"
 2580      62697472 
ARM GAS  /tmp/ccsHTNwO.s 			page 48


 2580      65766572 
 2580      73616C5F 
 2580      333200
 2581              	.LASF15:
 2582 02c3 696E7433 		.ascii	"int32_t\000"
 2582      325F7400 
 2583              	.LASF17:
 2584 02cb 73697A65 		.ascii	"sizetype\000"
 2584      74797065 
 2584      00
 2585              	.LASF10:
 2586 02d4 6C6F6E67 		.ascii	"long long int\000"
 2586      206C6F6E 
 2586      6720696E 
 2586      7400
 2587              	.LASF24:
 2588 02e2 70547769 		.ascii	"pTwiddle\000"
 2588      64646C65 
 2588      00
 2589              	.LASF18:
 2590 02eb 63686172 		.ascii	"char\000"
 2590      00
 2591              	.LASF30:
 2592 02f0 636F7356 		.ascii	"cosVal\000"
 2592      616C00
 2593              	.LASF2:
 2594 02f7 73686F72 		.ascii	"short int\000"
 2594      7420696E 
 2594      7400
 2595              	.LASF33:
 2596 0301 61726D5F 		.ascii	"arm_cfft_radix4by2_inverse_q31\000"
 2596      63666674 
 2596      5F726164 
 2596      69783462 
 2596      79325F69 
 2597              	.LASF14:
 2598 0320 75696E74 		.ascii	"uint16_t\000"
 2598      31365F74 
 2598      00
 2599              	.LASF16:
 2600 0329 75696E74 		.ascii	"uint32_t\000"
 2600      33325F74 
 2600      00
 2601              	.LASF7:
 2602 0332 6C6F6E67 		.ascii	"long int\000"
 2602      20696E74 
 2602      00
 2603              	.LASF21:
 2604 033b 6C6F6E67 		.ascii	"long double\000"
 2604      20646F75 
 2604      626C6500 
 2605              	.LASF0:
 2606 0347 7369676E 		.ascii	"signed char\000"
 2606      65642063 
 2606      68617200 
 2607              	.LASF28:
 2608 0353 70537263 		.ascii	"pSrc\000"
ARM GAS  /tmp/ccsHTNwO.s 			page 49


 2608      00
 2609              	.LASF38:
 2610 0358 61726D5F 		.ascii	"arm_radix4_butterfly_inverse_q31\000"
 2610      72616469 
 2610      78345F62 
 2610      75747465 
 2610      72666C79 
 2611              	.LASF29:
 2612 0379 70436F65 		.ascii	"pCoef\000"
 2612      6600
 2613              		.ident	"GCC: (GNU Tools for ARM Embedded Processors) 4.9.3 20150529 (release) [ARM/embedded-4_9-br
ARM GAS  /tmp/ccsHTNwO.s 			page 50


DEFINED SYMBOLS
                            *ABS*:00000000 arm_cfft_q31.c
     /tmp/ccsHTNwO.s:20     .text:00000000 $t
     /tmp/ccsHTNwO.s:26     .text:00000000 arm_cfft_radix4by2_q31
     /tmp/ccsHTNwO.s:247    .text:00000110 arm_cfft_radix4by2_inverse_q31
     /tmp/ccsHTNwO.s:467    .text:00000220 arm_cfft_q31
                     .debug_frame:00000010 $d

UNDEFINED SYMBOLS
arm_radix4_butterfly_q31
arm_radix4_butterfly_inverse_q31
arm_bitreversal_32
