ARM GAS  /tmp/ccD3cEQM.s 			page 1


   1              		.syntax unified
   2              		.cpu cortex-m4
   3              		.eabi_attribute 27, 1
   4              		.eabi_attribute 28, 1
   5              		.fpu fpv4-sp-d16
   6              		.eabi_attribute 20, 1
   7              		.eabi_attribute 21, 1
   8              		.eabi_attribute 23, 3
   9              		.eabi_attribute 24, 1
  10              		.eabi_attribute 25, 1
  11              		.eabi_attribute 26, 1
  12              		.eabi_attribute 30, 2
  13              		.eabi_attribute 34, 1
  14              		.eabi_attribute 18, 4
  15              		.thumb
  16              		.file	"arm_rfft_q31.c"
  17              		.text
  18              	.Ltext0:
  19              		.cfi_sections	.debug_frame
  20              		.align	2
  21              		.p2align 4,,15
  22              		.global	arm_split_rfft_q31
  23              		.thumb
  24              		.thumb_func
  25              		.type	arm_split_rfft_q31, %function
  26              	arm_split_rfft_q31:
  27              	.LFB136:
  28              		.file 1 "/home/sbcu/Dropbox/pcb-layouts/axo-on-discovery-board/axoloti/platform_linux/../CMSIS//DS
  29              		.loc 1 145 0
  30              		.cfi_startproc
  31              		@ args = 8, pretend = 0, frame = 16
  32              		@ frame_needed = 0, uses_anonymous_args = 0
  33              	.LVL0:
  34 0000 2DE9F04F 		push	{r4, r5, r6, r7, r8, r9, r10, fp, lr}
  35              		.cfi_def_cfa_offset 36
  36              		.cfi_offset 4, -36
  37              		.cfi_offset 5, -32
  38              		.cfi_offset 6, -28
  39              		.cfi_offset 7, -24
  40              		.cfi_offset 8, -20
  41              		.cfi_offset 9, -16
  42              		.cfi_offset 10, -12
  43              		.cfi_offset 11, -8
  44              		.cfi_offset 14, -4
  45 0004 85B0     		sub	sp, sp, #20
  46              		.cfi_def_cfa_offset 56
  47              	.LVL1:
  48              		.loc 1 159 0
  49 0006 B1F1010A 		subs	r10, r1, #1
  50              		.loc 1 145 0
  51 000a 0F9C     		ldr	r4, [sp, #60]
  52 000c 0290     		str	r0, [sp, #8]
  53              		.loc 1 154 0
  54 000e 4FEAC409 		lsl	r9, r4, #3
  55              		.loc 1 151 0
  56 0012 4FEAC100 		lsl	r0, r1, #3
  57              	.LVL2:
ARM GAS  /tmp/ccD3cEQM.s 			page 2


  58              		.loc 1 145 0
  59 0016 0391     		str	r1, [sp, #12]
  60              		.loc 1 154 0
  61 0018 4A44     		add	r2, r2, r9
  62              	.LVL3:
  63              		.loc 1 155 0
  64 001a 4B44     		add	r3, r3, r9
  65              	.LVL4:
  66              		.loc 1 150 0
  67 001c 4FEA0117 		lsl	r7, r1, #4
  68              	.LVL5:
  69              		.loc 1 151 0
  70 0020 0190     		str	r0, [sp, #4]
  71              	.LVL6:
  72              		.loc 1 159 0
  73 0022 3DD0     		beq	.L4
  74 0024 0199     		ldr	r1, [sp, #4]
  75              	.LVL7:
  76 0026 0298     		ldr	r0, [sp, #8]
  77              	.LVL8:
  78 0028 A1F10C0E 		sub	lr, r1, #12
  79 002c 0E99     		ldr	r1, [sp, #56]
  80              	.LVL9:
  81 002e 0C3F     		subs	r7, r7, #12
  82              	.LVL10:
  83 0030 0F44     		add	r7, r7, r1
  84              	.LVL11:
  85 0032 0E99     		ldr	r1, [sp, #56]
  86 0034 8644     		add	lr, lr, r0
  87 0036 00F11008 		add	r8, r0, #16
  88 003a 01F1100C 		add	ip, r1, #16
  89 003e 0026     		movs	r6, #0
  90              	.LVL12:
  91              	.L3:
  92 0040 9119     		adds	r1, r2, r6
  93              	.LVL13:
  94              		.loc 1 171 0
  95 0042 52F806B0 		ldr	fp, [r2, r6]
  96              	.LVL14:
  97              		.loc 1 172 0
  98 0046 4868     		ldr	r0, [r1, #4]
  99              	.LVL15:
 100              		.loc 1 175 0
 101 0048 58F8084C 		ldr	r4, [r8, #-8]
 102              	@ 175 "/home/sbcu/Dropbox/pcb-layouts/axo-on-discovery-board/axoloti/platform_linux/../CMSIS//DSP_L
 103 004c 54FB1BF5 		smmulr r5, r4, fp
 104              	@ 0 "" 2
 105              	.LVL16:
 106              		.loc 1 178 0
 107              	@ 178 "/home/sbcu/Dropbox/pcb-layouts/axo-on-discovery-board/axoloti/platform_linux/../CMSIS//DSP_L
 108 0050 54FB10F4 		smmulr r4, r4, r0
 109              	@ 0 "" 2
 110              	.LVL17:
 111              		.loc 1 181 0
 112              		.thumb
 113 0054 58F8041C 		ldr	r1, [r8, #-4]
 114              	.LVL18:
ARM GAS  /tmp/ccD3cEQM.s 			page 3


 115              	@ 181 "/home/sbcu/Dropbox/pcb-layouts/axo-on-discovery-board/axoloti/platform_linux/../CMSIS//DSP_L
 116 0058 61FB1055 		smmlsr r5, r1, r0, r5
 117              	@ 0 "" 2
 118              	.LVL19:
 119              		.loc 1 184 0
 120              	@ 184 "/home/sbcu/Dropbox/pcb-layouts/axo-on-discovery-board/axoloti/platform_linux/../CMSIS//DSP_L
 121 005c 51FB1B4B 		smmlar fp, r1, fp, r4
 122              	@ 0 "" 2
 123              	.LVL20:
 124              		.loc 1 187 0
 125              		.thumb
 126 0060 DEF80840 		ldr	r4, [lr, #8]
 127              	@ 187 "/home/sbcu/Dropbox/pcb-layouts/axo-on-discovery-board/axoloti/platform_linux/../CMSIS//DSP_L
 128 0064 64FB1055 		smmlsr r5, r4, r0, r5
 129              	@ 0 "" 2
 130              	.LVL21:
 131              		.loc 1 188 0
 132              		.thumb
 133 0068 9959     		ldr	r1, [r3, r6]
 134              	.LVL22:
 135              		.loc 1 191 0
 136              	@ 191 "/home/sbcu/Dropbox/pcb-layouts/axo-on-discovery-board/axoloti/platform_linux/../CMSIS//DSP_L
 137 006a 64FB11BB 		smmlsr fp, r4, r1, fp
 138              	@ 0 "" 2
 139              	.LVL23:
 140              		.loc 1 194 0
 141              		.thumb
 142 006e DEF80440 		ldr	r4, [lr, #4]
 143              	@ 194 "/home/sbcu/Dropbox/pcb-layouts/axo-on-discovery-board/axoloti/platform_linux/../CMSIS//DSP_L
 144 0072 54FB1151 		smmlar r1, r4, r1, r5
 145              	@ 0 "" 2
 146              	.LVL24:
 147              		.loc 1 197 0
 148              	@ 197 "/home/sbcu/Dropbox/pcb-layouts/axo-on-discovery-board/axoloti/platform_linux/../CMSIS//DSP_L
 149 0076 64FB10B0 		smmlsr r0, r4, r0, fp
 150              	@ 0 "" 2
 151              	.LVL25:
 152              		.loc 1 204 0
 153              		.thumb
 154 007a 4442     		negs	r4, r0
 155              		.loc 1 159 0
 156 007c BAF1010A 		subs	r10, r10, #1
 157              	.LVL26:
 158              		.loc 1 200 0
 159 0080 4CF8081C 		str	r1, [ip, #-8]
 160              	.LVL27:
 161              		.loc 1 201 0
 162 0084 4CF8040C 		str	r0, [ip, #-4]
 163              	.LVL28:
 164 0088 08F10808 		add	r8, r8, #8
 165              	.LVL29:
 166              		.loc 1 204 0
 167 008c BC60     		str	r4, [r7, #8]
 168              	.LVL30:
 169              		.loc 1 205 0
 170 008e 7960     		str	r1, [r7, #4]
 171              	.LVL31:
ARM GAS  /tmp/ccD3cEQM.s 			page 4


 172 0090 AEF1080E 		sub	lr, lr, #8
 173              	.LVL32:
 174 0094 0CF1080C 		add	ip, ip, #8
 175 0098 A7F10807 		sub	r7, r7, #8
 176 009c 4E44     		add	r6, r6, r9
 177              	.LVL33:
 178              		.loc 1 159 0
 179 009e CFD1     		bne	.L3
 180              	.LVL34:
 181              	.L4:
 182              		.loc 1 213 0
 183 00a0 0298     		ldr	r0, [sp, #8]
 184              		.loc 1 214 0
 185 00a2 0E9C     		ldr	r4, [sp, #56]
 186              		.loc 1 213 0
 187 00a4 4268     		ldr	r2, [r0, #4]
 188 00a6 0368     		ldr	r3, [r0]
 189 00a8 9B1A     		subs	r3, r3, r2
 190              		.loc 1 214 0
 191 00aa 019A     		ldr	r2, [sp, #4]
 192 00ac 2244     		add	r2, r2, r4
 193 00ae 1146     		mov	r1, r2
 194              		.loc 1 213 0
 195 00b0 2246     		mov	r2, r4
 196 00b2 039C     		ldr	r4, [sp, #12]
 197 00b4 5B10     		asrs	r3, r3, #1
 198 00b6 42F83430 		str	r3, [r2, r4, lsl #3]
 199              		.loc 1 214 0
 200 00ba 0022     		movs	r2, #0
 201 00bc 4A60     		str	r2, [r1, #4]
 202              		.loc 1 216 0
 203 00be 0168     		ldr	r1, [r0]
 204 00c0 4368     		ldr	r3, [r0, #4]
 205              		.loc 1 217 0
 206 00c2 0E98     		ldr	r0, [sp, #56]
 207              		.loc 1 216 0
 208 00c4 0B44     		add	r3, r3, r1
 209 00c6 5B10     		asrs	r3, r3, #1
 210              		.loc 1 217 0
 211 00c8 4260     		str	r2, [r0, #4]
 212              		.loc 1 216 0
 213 00ca 0360     		str	r3, [r0]
 214              		.loc 1 218 0
 215 00cc 05B0     		add	sp, sp, #20
 216              		.cfi_def_cfa_offset 36
 217              		@ sp needed
 218 00ce BDE8F08F 		pop	{r4, r5, r6, r7, r8, r9, r10, fp, pc}
 219              		.cfi_endproc
 220              	.LFE136:
 221              		.size	arm_split_rfft_q31, .-arm_split_rfft_q31
 222 00d2 00BF     		.align	2
 223 00d4 AFF30080 		.p2align 4,,15
 223      AFF30080 
 223      AFF30080 
 224              		.global	arm_split_rifft_q31
 225              		.thumb
 226              		.thumb_func
ARM GAS  /tmp/ccD3cEQM.s 			page 5


 227              		.type	arm_split_rifft_q31, %function
 228              	arm_split_rifft_q31:
 229              	.LFB137:
 230              		.loc 1 237 0
 231              		.cfi_startproc
 232              		@ args = 8, pretend = 0, frame = 0
 233              		@ frame_needed = 0, uses_anonymous_args = 0
 234              	.LVL35:
 235 00e0 2DE9F043 		push	{r4, r5, r6, r7, r8, r9, lr}
 236              		.cfi_def_cfa_offset 28
 237              		.cfi_offset 4, -28
 238              		.cfi_offset 5, -24
 239              		.cfi_offset 6, -20
 240              		.cfi_offset 7, -16
 241              		.cfi_offset 8, -12
 242              		.cfi_offset 9, -8
 243              		.cfi_offset 14, -4
 244              	.LVL36:
 245              		.loc 1 241 0
 246 00e4 CF00     		lsls	r7, r1, #3
 247              	.LVL37:
 248              		.loc 1 246 0
 249 00e6 89B3     		cbz	r1, .L9
 250 00e8 089C     		ldr	r4, [sp, #32]
 251 00ea 4FEAC40C 		lsl	ip, r4, #3
 252 00ee 079C     		ldr	r4, [sp, #28]
 253 00f0 043F     		subs	r7, r7, #4
 254              	.LVL38:
 255 00f2 0744     		add	r7, r7, r0
 256              	.LVL39:
 257 00f4 04F1080E 		add	lr, r4, #8
 258 00f8 0830     		adds	r0, r0, #8
 259              	.LVL40:
 260              	.L11:
 261              		.loc 1 257 0
 262 00fa D2F80090 		ldr	r9, [r2]
 263              	.LVL41:
 264              		.loc 1 258 0
 265 00fe D2F80480 		ldr	r8, [r2, #4]
 266              	.LVL42:
 267              		.loc 1 261 0
 268 0102 50F8085C 		ldr	r5, [r0, #-8]
 269              	@ 261 "/home/sbcu/Dropbox/pcb-layouts/axo-on-discovery-board/axoloti/platform_linux/../CMSIS//DSP_L
 270 0106 55FB19F4 		smmulr r4, r5, r9
 271              	@ 0 "" 2
 272              	.LVL43:
 273              		.loc 1 264 0
 274              		.thumb
 275 010a C8F10006 		rsb	r6, r8, #0
 276              	@ 264 "/home/sbcu/Dropbox/pcb-layouts/axo-on-discovery-board/axoloti/platform_linux/../CMSIS//DSP_L
 277 010e 55FB16F5 		smmulr r5, r5, r6
 278              	@ 0 "" 2
 279              	.LVL44:
 280              		.loc 1 267 0
 281              		.thumb
 282 0112 50F8046C 		ldr	r6, [r0, #-4]
 283              	@ 267 "/home/sbcu/Dropbox/pcb-layouts/axo-on-discovery-board/axoloti/platform_linux/../CMSIS//DSP_L
ARM GAS  /tmp/ccD3cEQM.s 			page 6


 284 0116 56FB1844 		smmlar r4, r6, r8, r4
 285              	@ 0 "" 2
 286              	.LVL45:
 287              		.loc 1 270 0
 288              	@ 270 "/home/sbcu/Dropbox/pcb-layouts/axo-on-discovery-board/axoloti/platform_linux/../CMSIS//DSP_L
 289 011a 56FB1959 		smmlar r9, r6, r9, r5
 290              	@ 0 "" 2
 291              	.LVL46:
 292              		.loc 1 273 0
 293              		.thumb
 294 011e BD68     		ldr	r5, [r7, #8]
 295              	@ 273 "/home/sbcu/Dropbox/pcb-layouts/axo-on-discovery-board/axoloti/platform_linux/../CMSIS//DSP_L
 296 0120 55FB1844 		smmlar r4, r5, r8, r4
 297              	@ 0 "" 2
 298              	.LVL47:
 299              		.loc 1 274 0
 300              		.thumb
 301 0124 1E68     		ldr	r6, [r3]
 302              	.LVL48:
 303              		.loc 1 277 0
 304              	@ 277 "/home/sbcu/Dropbox/pcb-layouts/axo-on-discovery-board/axoloti/platform_linux/../CMSIS//DSP_L
 305 0126 65FB1699 		smmlsr r9, r5, r6, r9
 306              	@ 0 "" 2
 307              	.LVL49:
 308              		.loc 1 280 0
 309              		.thumb
 310 012a 7D68     		ldr	r5, [r7, #4]
 311              	@ 280 "/home/sbcu/Dropbox/pcb-layouts/axo-on-discovery-board/axoloti/platform_linux/../CMSIS//DSP_L
 312 012c 55FB1644 		smmlar r4, r5, r6, r4
 313              	@ 0 "" 2
 314              	.LVL50:
 315              		.loc 1 283 0
 316              	@ 283 "/home/sbcu/Dropbox/pcb-layouts/axo-on-discovery-board/axoloti/platform_linux/../CMSIS//DSP_L
 317 0130 55FB1895 		smmlar r5, r5, r8, r9
 318              	@ 0 "" 2
 319              	.LVL51:
 320              		.loc 1 246 0
 321              		.thumb
 322 0134 0139     		subs	r1, r1, #1
 323              	.LVL52:
 324              		.loc 1 287 0
 325 0136 0EE93000 		stmdb	lr, {r4, r5}
 326              	.LVL53:
 327              		.loc 1 290 0
 328 013a 6344     		add	r3, r3, ip
 329              	.LVL54:
 330              		.loc 1 291 0
 331 013c 6244     		add	r2, r2, ip
 332              	.LVL55:
 333 013e 00F10800 		add	r0, r0, #8
 334              	.LVL56:
 335 0142 A7F10807 		sub	r7, r7, #8
 336              	.LVL57:
 337 0146 0EF1080E 		add	lr, lr, #8
 338              		.loc 1 246 0
 339 014a D6D1     		bne	.L11
 340              	.LVL58:
ARM GAS  /tmp/ccD3cEQM.s 			page 7


 341              	.L9:
 342 014c BDE8F083 		pop	{r4, r5, r6, r7, r8, r9, pc}
 343              		.cfi_endproc
 344              	.LFE137:
 345              		.size	arm_split_rifft_q31, .-arm_split_rifft_q31
 346              		.align	2
 347              		.p2align 4,,15
 348              		.global	arm_rfft_q31
 349              		.thumb
 350              		.thumb_func
 351              		.type	arm_rfft_q31, %function
 352              	arm_rfft_q31:
 353              	.LFB135:
 354              		.loc 1 91 0
 355              		.cfi_startproc
 356              		@ args = 0, pretend = 0, frame = 0
 357              		@ frame_needed = 0, uses_anonymous_args = 0
 358              	.LVL59:
 359 0150 2DE9F043 		push	{r4, r5, r6, r7, r8, r9, lr}
 360              		.cfi_def_cfa_offset 28
 361              		.cfi_offset 4, -28
 362              		.cfi_offset 5, -24
 363              		.cfi_offset 6, -20
 364              		.cfi_offset 7, -16
 365              		.cfi_offset 8, -12
 366              		.cfi_offset 9, -8
 367              		.cfi_offset 14, -4
 368 0154 1546     		mov	r5, r2
 369              		.loc 1 97 0
 370 0156 0279     		ldrb	r2, [r0, #4]	@ zero_extendqisi2
 371              	.LVL60:
 372              		.loc 1 94 0
 373 0158 0368     		ldr	r3, [r0]
 374              		.loc 1 92 0
 375 015a 4669     		ldr	r6, [r0, #20]
 376              	.LVL61:
 377              		.loc 1 97 0
 378 015c 012A     		cmp	r2, #1
 379              		.loc 1 91 0
 380 015e 83B0     		sub	sp, sp, #12
 381              		.cfi_def_cfa_offset 40
 382              		.loc 1 91 0
 383 0160 0446     		mov	r4, r0
 384              		.loc 1 94 0
 385 0162 4FEA5308 		lsr	r8, r3, #1
 386              	.LVL62:
 387              		.loc 1 91 0
 388 0166 8946     		mov	r9, r1
 389              		.loc 1 97 0
 390 0168 0FD0     		beq	.L23
 391              		.loc 1 116 0
 392 016a 6379     		ldrb	r3, [r4, #5]	@ zero_extendqisi2
 393 016c 3046     		mov	r0, r6
 394              	.LVL63:
 395 016e FFF7FEFF 		bl	arm_cfft_q31
 396              	.LVL64:
 397              		.loc 1 119 0
ARM GAS  /tmp/ccD3cEQM.s 			page 8


 398 0172 E268     		ldr	r2, [r4, #12]
 399 0174 2369     		ldr	r3, [r4, #16]
 400 0176 A468     		ldr	r4, [r4, #8]
 401              	.LVL65:
 402 0178 0194     		str	r4, [sp, #4]
 403 017a 0095     		str	r5, [sp]
 404 017c 4846     		mov	r0, r9
 405 017e 4146     		mov	r1, r8
 406 0180 FFF7FEFF 		bl	arm_split_rfft_q31
 407              	.LVL66:
 408              	.L15:
 409              		.loc 1 122 0
 410 0184 03B0     		add	sp, sp, #12
 411              		.cfi_remember_state
 412              		.cfi_def_cfa_offset 28
 413              		@ sp needed
 414 0186 BDE8F083 		pop	{r4, r5, r6, r7, r8, r9, pc}
 415              	.LVL67:
 416              	.L23:
 417              		.cfi_restore_state
 418              		.loc 1 100 0
 419 018a 8768     		ldr	r7, [r0, #8]
 420 018c C268     		ldr	r2, [r0, #12]
 421 018e 0369     		ldr	r3, [r0, #16]
 422 0190 0095     		str	r5, [sp]
 423 0192 0846     		mov	r0, r1
 424              	.LVL68:
 425 0194 0197     		str	r7, [sp, #4]
 426 0196 4146     		mov	r1, r8
 427              	.LVL69:
 428 0198 FFF7FEFF 		bl	arm_split_rifft_q31
 429              	.LVL70:
 430              		.loc 1 104 0
 431 019c 6379     		ldrb	r3, [r4, #5]	@ zero_extendqisi2
 432 019e 2279     		ldrb	r2, [r4, #4]	@ zero_extendqisi2
 433 01a0 3046     		mov	r0, r6
 434 01a2 2946     		mov	r1, r5
 435 01a4 FFF7FEFF 		bl	arm_cfft_q31
 436              	.LVL71:
 437              		.loc 1 106 0
 438 01a8 2368     		ldr	r3, [r4]
 439 01aa 002B     		cmp	r3, #0
 440 01ac EAD0     		beq	.L15
 441 01ae 2A1F     		subs	r2, r5, #4
 442 01b0 0021     		movs	r1, #0
 443              	.LVL72:
 444              	.L19:
 445              		.loc 1 108 0 discriminator 3
 446 01b2 52F8043F 		ldr	r3, [r2, #4]!
 447 01b6 5B00     		lsls	r3, r3, #1
 448 01b8 1360     		str	r3, [r2]
 449              		.loc 1 106 0 discriminator 3
 450 01ba 2368     		ldr	r3, [r4]
 451 01bc 0131     		adds	r1, r1, #1
 452              	.LVL73:
 453 01be 8B42     		cmp	r3, r1
 454 01c0 F7D8     		bhi	.L19
ARM GAS  /tmp/ccD3cEQM.s 			page 9


 455              		.loc 1 122 0
 456 01c2 03B0     		add	sp, sp, #12
 457              		.cfi_def_cfa_offset 28
 458              		@ sp needed
 459 01c4 BDE8F083 		pop	{r4, r5, r6, r7, r8, r9, pc}
 460              		.cfi_endproc
 461              	.LFE135:
 462              		.size	arm_rfft_q31, .-arm_rfft_q31
 463              	.Letext0:
 464              		.file 2 "/home/sbcu/Dropbox/pcb-layouts/axo-on-discovery-board/axoloti/platform_linux/arm-none-eab
 465              		.file 3 "/home/sbcu/Dropbox/pcb-layouts/axo-on-discovery-board/axoloti/platform_linux/arm-none-eab
 466              		.file 4 "/home/sbcu/Dropbox/pcb-layouts/axo-on-discovery-board/axoloti/platform_linux/../CMSIS//DS