ARM GAS  /tmp/cchVpEkE.s 			page 1


   1              		.syntax unified
   2              		.cpu cortex-m4
   3              		.eabi_attribute 27, 1
   4              		.eabi_attribute 28, 1
   5              		.fpu fpv4-sp-d16
   6              		.eabi_attribute 20, 1
   7              		.eabi_attribute 21, 1
   8              		.eabi_attribute 23, 3
   9              		.eabi_attribute 24, 1
  10              		.eabi_attribute 25, 1
  11              		.eabi_attribute 26, 1
  12              		.eabi_attribute 30, 2
  13              		.eabi_attribute 34, 1
  14              		.eabi_attribute 18, 4
  15              		.thumb
  16              		.file	"arm_scale_f32.c"
  17              		.text
  18              	.Ltext0:
  19              		.cfi_sections	.debug_frame
  20              		.align	2
  21              		.p2align 4,,15
  22              		.global	arm_scale_f32
  23              		.thumb
  24              		.thumb_func
  25              		.type	arm_scale_f32, %function
  26              	arm_scale_f32:
  27              	.LFB135:
  28              		.file 1 "/d_drive/axoloti/platform_linux/../CMSIS//DSP_Lib/Source/BasicMathFunctions/arm_scale_f32
  29              		.loc 1 94 0
  30              		.cfi_startproc
  31              		@ args = 0, pretend = 0, frame = 0
  32              		@ frame_needed = 0, uses_anonymous_args = 0
  33              		@ link register save eliminated.
  34              	.LVL0:
  35 0000 70B4     		push	{r4, r5, r6}
  36              		.cfi_def_cfa_offset 12
  37              		.cfi_offset 4, -12
  38              		.cfi_offset 5, -8
  39              		.cfi_offset 6, -4
  40              		.loc 1 106 0
  41 0002 9608     		lsrs	r6, r2, #2
  42              	.LVL1:
  43 0004 25D0     		beq	.L2
  44 0006 00F11004 		add	r4, r0, #16
  45 000a 01F11003 		add	r3, r1, #16
  46 000e 3546     		mov	r5, r6
  47              	.LVL2:
  48              	.L3:
  49              		.loc 1 111 0
  50 0010 14ED046A 		flds	s12, [r4, #-16]
  51              	.LVL3:
  52              		.loc 1 112 0
  53 0014 54ED036A 		flds	s13, [r4, #-12]
  54              	.LVL4:
  55              		.loc 1 118 0
  56 0018 14ED027A 		flds	s14, [r4, #-8]
  57              	.LVL5:
ARM GAS  /tmp/cchVpEkE.s 			page 2


  58              		.loc 1 124 0
  59 001c 54ED017A 		flds	s15, [r4, #-4]
  60              	.LVL6:
  61              		.loc 1 115 0
  62 0020 26EE006A 		fmuls	s12, s12, s0
  63              	.LVL7:
  64              		.loc 1 121 0
  65 0024 66EE806A 		fmuls	s13, s13, s0
  66              	.LVL8:
  67              		.loc 1 127 0
  68 0028 27EE007A 		fmuls	s14, s14, s0
  69              	.LVL9:
  70              		.loc 1 128 0
  71 002c 67EE807A 		fmuls	s15, s15, s0
  72              	.LVL10:
  73              		.loc 1 106 0
  74 0030 013D     		subs	r5, r5, #1
  75              	.LVL11:
  76              		.loc 1 130 0
  77 0032 03ED046A 		fsts	s12, [r3, #-16]
  78              		.loc 1 131 0
  79 0036 43ED036A 		fsts	s13, [r3, #-12]
  80              		.loc 1 132 0
  81 003a 03ED027A 		fsts	s14, [r3, #-8]
  82              		.loc 1 133 0
  83 003e 43ED017A 		fsts	s15, [r3, #-4]
  84              	.LVL12:
  85 0042 04F11004 		add	r4, r4, #16
  86              	.LVL13:
  87 0046 03F11003 		add	r3, r3, #16
  88              		.loc 1 106 0
  89 004a E1D1     		bne	.L3
  90 004c 3601     		lsls	r6, r6, #4
  91 004e 3044     		add	r0, r0, r6
  92 0050 3144     		add	r1, r1, r6
  93              	.LVL14:
  94              	.L2:
  95              		.loc 1 156 0
  96 0052 12F00302 		ands	r2, r2, #3
  97              	.LVL15:
  98 0056 07D0     		beq	.L1
  99              	.LVL16:
 100              	.L5:
 101              		.loc 1 160 0
 102 0058 F0EC017A 		fldmias	r0!, {s15}
 103              	.LVL17:
 104 005c 67EE807A 		fmuls	s15, s15, s0
 105              		.loc 1 156 0
 106 0060 013A     		subs	r2, r2, #1
 107              	.LVL18:
 108              		.loc 1 160 0
 109 0062 E1EC017A 		fstmias	r1!, {s15}
 110              		.loc 1 156 0
 111 0066 F7D1     		bne	.L5
 112              	.L1:
 113              		.loc 1 165 0
 114 0068 70BC     		pop	{r4, r5, r6}
ARM GAS  /tmp/cchVpEkE.s 			page 3


 115              		.cfi_restore 6
 116              		.cfi_restore 5
 117              		.cfi_restore 4
 118              		.cfi_def_cfa_offset 0
 119 006a 7047     		bx	lr
 120              		.cfi_endproc
 121              	.LFE135:
 122              		.size	arm_scale_f32, .-arm_scale_f32
 123              	.Letext0:
 124              		.file 2 "/d_drive/axoloti/platform_linux/arm-none-eabi/include/machine/_default_types.h"
 125              		.file 3 "/d_drive/axoloti/platform_linux/arm-none-eabi/include/sys/_stdint.h"
 126              		.file 4 "/d_drive/axoloti/platform_linux/../CMSIS//DSP_Lib/Include/arm_math.h"