ARM GAS  /tmp/cc3GTUgv.s 			page 1


   1              		.syntax unified
   2              		.cpu cortex-m4
   3              		.eabi_attribute 27, 1
   4              		.eabi_attribute 28, 1
   5              		.fpu fpv4-sp-d16
   6              		.eabi_attribute 20, 1
   7              		.eabi_attribute 21, 1
   8              		.eabi_attribute 23, 3
   9              		.eabi_attribute 24, 1
  10              		.eabi_attribute 25, 1
  11              		.eabi_attribute 26, 1
  12              		.eabi_attribute 30, 2
  13              		.eabi_attribute 34, 1
  14              		.eabi_attribute 18, 4
  15              		.thumb
  16              		.file	"arm_cfft_radix4_q15.c"
  17              		.text
  18              	.Ltext0:
  19              		.cfi_sections	.debug_frame
  20              		.align	2
  21              		.p2align 4,,15
  22              		.global	arm_radix4_butterfly_q15
  23              		.thumb
  24              		.thumb_func
  25              		.type	arm_radix4_butterfly_q15, %function
  26              	arm_radix4_butterfly_q15:
  27              	.LFB136:
  28              		.file 1 "/home/sbcu/Dropbox/pcb-layouts/axo-on-discovery-board/axoloti/platform_linux/../CMSIS//DS
  29              		.loc 1 166 0
  30              		.cfi_startproc
  31              		@ args = 0, pretend = 0, frame = 56
  32              		@ frame_needed = 0, uses_anonymous_args = 0
  33              	.LVL0:
  34 0000 2DE9F04F 		push	{r4, r5, r6, r7, r8, r9, r10, fp, lr}
  35              		.cfi_def_cfa_offset 36
  36              		.cfi_offset 4, -36
  37              		.cfi_offset 5, -32
  38              		.cfi_offset 6, -28
  39              		.cfi_offset 7, -24
  40              		.cfi_offset 8, -20
  41              		.cfi_offset 9, -16
  42              		.cfi_offset 10, -12
  43              		.cfi_offset 11, -8
  44              		.cfi_offset 14, -4
  45 0004 8FB0     		sub	sp, sp, #60
  46              		.cfi_def_cfa_offset 96
  47              		.loc 1 166 0
  48 0006 9B46     		mov	fp, r3
  49 0008 0191     		str	r1, [sp, #4]
  50              	.LVL1:
  51              		.loc 1 193 0
  52 000a 8908     		lsrs	r1, r1, #2
  53              	.LVL2:
  54 000c 0E46     		mov	r6, r1
  55 000e 0D91     		str	r1, [sp, #52]
  56              	.LVL3:
  57              		.loc 1 202 0
ARM GAS  /tmp/cc3GTUgv.s 			page 2


  58 0010 8900     		lsls	r1, r1, #2
  59              	.LVL4:
  60              		.loc 1 166 0
  61 0012 0746     		mov	r7, r0
  62 0014 0C90     		str	r0, [sp, #48]
  63              	.LVL5:
  64 0016 0BEB4B03 		add	r3, fp, fp, lsl #1
  65              	.LVL6:
  66              		.loc 1 202 0
  67 001a 0844     		add	r0, r0, r1
  68              	.LVL7:
  69              		.loc 1 204 0
  70 001c 0024     		movs	r4, #0
  71              		.loc 1 203 0
  72 001e 4518     		adds	r5, r0, r1
  73              	.LVL8:
  74 0020 9B00     		lsls	r3, r3, #2
  75              		.loc 1 166 0
  76 0022 9646     		mov	lr, r2
  77 0024 0992     		str	r2, [sp, #36]
  78              		.loc 1 193 0
  79 0026 B246     		mov	r10, r6
  80              		.loc 1 204 0
  81 0028 2944     		add	r1, r1, r5
  82              	.LVL9:
  83 002a 0293     		str	r3, [sp, #8]
  84              		.loc 1 196 0
  85 002c 2646     		mov	r6, r4
  86              	.LVL10:
  87              	.LBB202:
  88              	.LBB203:
  89              		.file 2 "/home/sbcu/Dropbox/pcb-layouts/axo-on-discovery-board/axoloti/platform_linux/../CMSIS//In
  90              		.loc 2 1467 0
  91 002e 2246     		mov	r2, r4
  92              	.LVL11:
  93 0030 CDF800B0 		str	fp, [sp]
  94              	.LVL12:
  95              	.L2:
  96              		.loc 2 1467 0 is_stmt 0 discriminator 1
  97 0034 3B68     		ldr	r3, [r7]
  98              	@ 1467 "/home/sbcu/Dropbox/pcb-layouts/axo-on-discovery-board/axoloti/platform_linux/../CMSIS//Incl
  99 0036 93FA22FC 		shadd16 ip, r3, r2
 100              	@ 0 "" 2
 101              	.LVL13:
 102              		.thumb
 103              	.LBE203:
 104              	.LBE202:
 105              	.LBB204:
 106              	.LBB205:
 107              	@ 1467 "/home/sbcu/Dropbox/pcb-layouts/axo-on-discovery-board/axoloti/platform_linux/../CMSIS//Incl
 108 003a 9CFA22FC 		shadd16 ip, ip, r2
 109              	@ 0 "" 2
 110              	.LVL14:
 111              		.thumb
 112              	.LBE205:
 113              	.LBE204:
 114              	.LBB206:
ARM GAS  /tmp/cc3GTUgv.s 			page 3


 115              	.LBB207:
 116 003e 2B68     		ldr	r3, [r5]
 117              	@ 1467 "/home/sbcu/Dropbox/pcb-layouts/axo-on-discovery-board/axoloti/platform_linux/../CMSIS//Incl
 118 0040 93FA22F3 		shadd16 r3, r3, r2
 119              	@ 0 "" 2
 120              	.LVL15:
 121              		.thumb
 122              	.LBE207:
 123              	.LBE206:
 124              	.LBB208:
 125              	.LBB209:
 126              	@ 1467 "/home/sbcu/Dropbox/pcb-layouts/axo-on-discovery-board/axoloti/platform_linux/../CMSIS//Incl
 127 0044 93FA22F3 		shadd16 r3, r3, r2
 128              	@ 0 "" 2
 129              	.LVL16:
 130              		.thumb
 131              	.LBE209:
 132              	.LBE208:
 133              	.LBB210:
 134              	.LBB211:
 135              		.loc 2 1459 0 is_stmt 1 discriminator 1
 136              	@ 1459 "/home/sbcu/Dropbox/pcb-layouts/axo-on-discovery-board/axoloti/platform_linux/../CMSIS//Incl
 137 0048 9CFA13F8 		qadd16 r8, ip, r3
 138              	@ 0 "" 2
 139              	.LVL17:
 140              		.thumb
 141              	.LBE211:
 142              	.LBE210:
 143              	.LBB212:
 144              	.LBB213:
 145              		.loc 2 1507 0 discriminator 1
 146              	@ 1507 "/home/sbcu/Dropbox/pcb-layouts/axo-on-discovery-board/axoloti/platform_linux/../CMSIS//Incl
 147 004c DCFA13FC 		qsub16 ip, ip, r3
 148              	@ 0 "" 2
 149              	.LVL18:
 150              		.thumb
 151              	.LBE213:
 152              	.LBE212:
 153              	.LBB214:
 154              	.LBB215:
 155              		.loc 2 1467 0 discriminator 1
 156 0050 0368     		ldr	r3, [r0]
 157              	.LVL19:
 158              	@ 1467 "/home/sbcu/Dropbox/pcb-layouts/axo-on-discovery-board/axoloti/platform_linux/../CMSIS//Incl
 159 0052 93FA22F3 		shadd16 r3, r3, r2
 160              	@ 0 "" 2
 161              	.LVL20:
 162              		.thumb
 163              	.LBE215:
 164              	.LBE214:
 165              	.LBB216:
 166              	.LBB217:
 167              	@ 1467 "/home/sbcu/Dropbox/pcb-layouts/axo-on-discovery-board/axoloti/platform_linux/../CMSIS//Incl
 168 0056 93FA22F9 		shadd16 r9, r3, r2
 169              	@ 0 "" 2
 170              	.LVL21:
 171              		.thumb
ARM GAS  /tmp/cc3GTUgv.s 			page 4


 172              	.LBE217:
 173              	.LBE216:
 174              	.LBB218:
 175              	.LBB219:
 176 005a 0B68     		ldr	r3, [r1]
 177              	.LVL22:
 178              	@ 1467 "/home/sbcu/Dropbox/pcb-layouts/axo-on-discovery-board/axoloti/platform_linux/../CMSIS//Incl
 179 005c 93FA22F3 		shadd16 r3, r3, r2
 180              	@ 0 "" 2
 181              	.LVL23:
 182              		.thumb
 183              	.LBE219:
 184              	.LBE218:
 185              	.LBB220:
 186              	.LBB221:
 187              	@ 1467 "/home/sbcu/Dropbox/pcb-layouts/axo-on-discovery-board/axoloti/platform_linux/../CMSIS//Incl
 188 0060 93FA22F3 		shadd16 r3, r3, r2
 189              	@ 0 "" 2
 190              	.LVL24:
 191              		.thumb
 192              	.LBE221:
 193              	.LBE220:
 194              	.LBB222:
 195              	.LBB223:
 196              		.loc 2 1459 0 discriminator 1
 197              	@ 1459 "/home/sbcu/Dropbox/pcb-layouts/axo-on-discovery-board/axoloti/platform_linux/../CMSIS//Incl
 198 0064 99FA13F3 		qadd16 r3, r9, r3
 199              	@ 0 "" 2
 200              	.LVL25:
 201              		.thumb
 202              	.LBE223:
 203              	.LBE222:
 204              	.LBB224:
 205              	.LBB225:
 206              		.loc 2 1467 0 discriminator 1
 207              	@ 1467 "/home/sbcu/Dropbox/pcb-layouts/axo-on-discovery-board/axoloti/platform_linux/../CMSIS//Incl
 208 0068 98FA23F9 		shadd16 r9, r8, r3
 209              	@ 0 "" 2
 210              	.LVL26:
 211              		.thumb
 212              	.LBE225:
 213              	.LBE224:
 214              		.loc 1 249 0 discriminator 1
 215 006c 47F8049B 		str	r9, [r7], #4
 216              	.LVL27:
 217              	.LBB226:
 218              	.LBB227:
 219              		.loc 2 1507 0 discriminator 1
 220              	@ 1507 "/home/sbcu/Dropbox/pcb-layouts/axo-on-discovery-board/axoloti/platform_linux/../CMSIS//Incl
 221 0070 D8FA13F3 		qsub16 r3, r8, r3
 222              	@ 0 "" 2
 223              	.LVL28:
 224              		.thumb
 225              	.LBE227:
 226              	.LBE226:
 227              		.loc 1 261 0 discriminator 1
 228 0074 5EF83690 		ldr	r9, [lr, r6, lsl #3]
ARM GAS  /tmp/cc3GTUgv.s 			page 5


 229              	.LVL29:
 230              	.LBB228:
 231              	.LBB229:
 232              		.loc 2 1705 0 discriminator 1
 233              	@ 1705 "/home/sbcu/Dropbox/pcb-layouts/axo-on-discovery-board/axoloti/platform_linux/../CMSIS//Incl
 234 0078 29FB03FB 		smuad fp, r9, r3
 235              	@ 0 "" 2
 236              	.LVL30:
 237              		.thumb
 238              	.LBE229:
 239              	.LBE228:
 240              	.LBB230:
 241              	.LBB231:
 242              		.loc 2 1779 0 discriminator 1
 243              	@ 1779 "/home/sbcu/Dropbox/pcb-layouts/axo-on-discovery-board/axoloti/platform_linux/../CMSIS//Incl
 244 007c 49FB13F9 		smusdx r9, r9, r3
 245              	@ 0 "" 2
 246              	.LVL31:
 247              		.thumb
 248              	.LBE231:
 249              	.LBE230:
 250              	.LBB232:
 251              	.LBB233:
 252              		.loc 2 1467 0 discriminator 1
 253 0080 0368     		ldr	r3, [r0]
 254              	.LVL32:
 255              	@ 1467 "/home/sbcu/Dropbox/pcb-layouts/axo-on-discovery-board/axoloti/platform_linux/../CMSIS//Incl
 256 0082 93FA22F3 		shadd16 r3, r3, r2
 257              	@ 0 "" 2
 258              	.LVL33:
 259              		.thumb
 260              	.LBE233:
 261              	.LBE232:
 262              	.LBB234:
 263              	.LBB235:
 264              	@ 1467 "/home/sbcu/Dropbox/pcb-layouts/axo-on-discovery-board/axoloti/platform_linux/../CMSIS//Incl
 265 0086 93FA22F8 		shadd16 r8, r3, r2
 266              	@ 0 "" 2
 267              	.LVL34:
 268              		.thumb
 269              	.LBE235:
 270              	.LBE234:
 271              		.loc 1 283 0 discriminator 1
 272 008a 4FEA1949 		lsr	r9, r9, #16
 273              	.LVL35:
 274 008e 4FEA0949 		lsl	r9, r9, #16
 275 0092 49EA1B43 		orr	r3, r9, fp, lsr #16
 276              	.LVL36:
 277              		.loc 1 282 0 discriminator 1
 278 0096 40F8043B 		str	r3, [r0], #4
 279              	.LVL37:
 280              	.LBB236:
 281              	.LBB237:
 282              		.loc 2 1467 0 discriminator 1
 283 009a 0B68     		ldr	r3, [r1]
 284              	@ 1467 "/home/sbcu/Dropbox/pcb-layouts/axo-on-discovery-board/axoloti/platform_linux/../CMSIS//Incl
 285 009c 93FA22F3 		shadd16 r3, r3, r2
ARM GAS  /tmp/cc3GTUgv.s 			page 6


 286              	@ 0 "" 2
 287              	.LVL38:
 288              		.thumb
 289              	.LBE237:
 290              	.LBE236:
 291              	.LBB238:
 292              	.LBB239:
 293              	@ 1467 "/home/sbcu/Dropbox/pcb-layouts/axo-on-discovery-board/axoloti/platform_linux/../CMSIS//Incl
 294 00a0 93FA22F3 		shadd16 r3, r3, r2
 295              	@ 0 "" 2
 296              	.LVL39:
 297              		.thumb
 298              	.LBE239:
 299              	.LBE238:
 300              	.LBB240:
 301              	.LBB241:
 302              		.loc 2 1507 0 discriminator 1
 303              	@ 1507 "/home/sbcu/Dropbox/pcb-layouts/axo-on-discovery-board/axoloti/platform_linux/../CMSIS//Incl
 304 00a4 D8FA13F3 		qsub16 r3, r8, r3
 305              	@ 0 "" 2
 306              	.LVL40:
 307              		.thumb
 308              	.LBE241:
 309              	.LBE240:
 310              	.LBB242:
 311              	.LBB243:
 312              		.loc 2 1555 0 discriminator 1
 313              	@ 1555 "/home/sbcu/Dropbox/pcb-layouts/axo-on-discovery-board/axoloti/platform_linux/../CMSIS//Incl
 314 00a8 ACFA13F9 		qasx r9, ip, r3
 315              	@ 0 "" 2
 316              	.LVL41:
 317              		.thumb
 318              	.LBE243:
 319              	.LBE242:
 320              	.LBB244:
 321              	.LBB245:
 322              		.loc 2 1603 0 discriminator 1
 323              	@ 1603 "/home/sbcu/Dropbox/pcb-layouts/axo-on-discovery-board/axoloti/platform_linux/../CMSIS//Incl
 324 00ac ECFA13FC 		qsax ip, ip, r3
 325              	@ 0 "" 2
 326              	.LVL42:
 327              		.thumb
 328              	.LBE245:
 329              	.LBE244:
 330              		.loc 1 318 0 discriminator 1
 331 00b0 5EF82630 		ldr	r3, [lr, r6, lsl #2]
 332              	.LVL43:
 333              	.LBB246:
 334              	.LBB247:
 335              		.loc 2 1705 0 discriminator 1
 336              	@ 1705 "/home/sbcu/Dropbox/pcb-layouts/axo-on-discovery-board/axoloti/platform_linux/../CMSIS//Incl
 337 00b4 23FB0CF8 		smuad r8, r3, ip
 338              	@ 0 "" 2
 339              	.LVL44:
 340              		.thumb
 341              	.LBE247:
 342              	.LBE246:
ARM GAS  /tmp/cc3GTUgv.s 			page 7


 343              	.LBB248:
 344              	.LBB249:
 345              		.loc 2 1779 0 discriminator 1
 346              	@ 1779 "/home/sbcu/Dropbox/pcb-layouts/axo-on-discovery-board/axoloti/platform_linux/../CMSIS//Incl
 347 00b8 43FB1CF3 		smusdx r3, r3, ip
 348              	@ 0 "" 2
 349              	.LVL45:
 350              		.thumb
 351              	.LBE249:
 352              	.LBE248:
 353              		.loc 1 333 0 discriminator 1
 354 00bc 1B0C     		lsrs	r3, r3, #16
 355              	.LVL46:
 356 00be 1B04     		lsls	r3, r3, #16
 357 00c0 43EA1843 		orr	r3, r3, r8, lsr #16
 358              		.loc 1 332 0 discriminator 1
 359 00c4 45F8043B 		str	r3, [r5], #4
 360              	.LVL47:
 361              		.loc 1 344 0 discriminator 1
 362 00c8 5EF80430 		ldr	r3, [lr, r4]
 363              	.LVL48:
 364              	.LBB250:
 365              	.LBB251:
 366              		.loc 2 1705 0 discriminator 1
 367              	@ 1705 "/home/sbcu/Dropbox/pcb-layouts/axo-on-discovery-board/axoloti/platform_linux/../CMSIS//Incl
 368 00cc 23FB09FC 		smuad ip, r3, r9
 369              	@ 0 "" 2
 370              	.LVL49:
 371              		.thumb
 372              	.LBE251:
 373              	.LBE250:
 374              	.LBB252:
 375              	.LBB253:
 376              		.loc 2 1779 0 discriminator 1
 377              	@ 1779 "/home/sbcu/Dropbox/pcb-layouts/axo-on-discovery-board/axoloti/platform_linux/../CMSIS//Incl
 378 00d0 43FB19F3 		smusdx r3, r3, r9
 379              	@ 0 "" 2
 380              	.LVL50:
 381              		.thumb
 382              	.LBE253:
 383              	.LBE252:
 384              		.loc 1 359 0 discriminator 1
 385 00d4 1B0C     		lsrs	r3, r3, #16
 386              	.LVL51:
 387 00d6 1B04     		lsls	r3, r3, #16
 388 00d8 43EA1C43 		orr	r3, r3, ip, lsr #16
 389              		.loc 1 358 0 discriminator 1
 390 00dc 41F8043B 		str	r3, [r1], #4
 391              	.LVL52:
 392              		.loc 1 363 0 discriminator 1
 393 00e0 009B     		ldr	r3, [sp]
 394 00e2 1E44     		add	r6, r6, r3
 395              	.LVL53:
 396 00e4 029B     		ldr	r3, [sp, #8]
 397              		.loc 1 365 0 discriminator 1
 398 00e6 BAF1010A 		subs	r10, r10, #1
 399              	.LVL54:
ARM GAS  /tmp/cc3GTUgv.s 			page 8


 400 00ea 1C44     		add	r4, r4, r3
 401 00ec A2D1     		bne	.L2
 402 00ee DDF800B0 		ldr	fp, [sp]
 403              	.LVL55:
 404              		.loc 1 374 0
 405 00f2 4FEA8B03 		lsl	r3, fp, #2
 406 00f6 0693     		str	r3, [sp, #24]
 407              	.LVL56:
 408              		.loc 1 377 0
 409 00f8 0D9B     		ldr	r3, [sp, #52]
 410              	.LVL57:
 411 00fa 042B     		cmp	r3, #4
 412 00fc 40F28380 		bls	.L11
 413 0100 0D9B     		ldr	r3, [sp, #52]
 414              		.loc 1 384 0
 415 0102 CDF808A0 		str	r10, [sp, #8]
 416              		.loc 1 377 0
 417 0106 0A93     		str	r3, [sp, #40]
 418 0108 9A46     		mov	r10, r3
 419              	.LVL58:
 420              	.L10:
 421              		.loc 1 381 0
 422 010a 4FEA9A03 		lsr	r3, r10, #2
 423              		.loc 1 384 0
 424 010e 0022     		movs	r2, #0
 425 0110 1146     		mov	r1, r2
 426              		.loc 1 381 0
 427 0112 0B93     		str	r3, [sp, #44]
 428              	.LVL59:
 429              		.loc 1 384 0
 430 0114 0492     		str	r2, [sp, #16]
 431 0116 5A1E     		subs	r2, r3, #1
 432 0118 9B00     		lsls	r3, r3, #2
 433              	.LVL60:
 434 011a 0893     		str	r3, [sp, #32]
 435 011c 0C9B     		ldr	r3, [sp, #48]
 436 011e 0792     		str	r2, [sp, #28]
 437              		.loc 1 382 0
 438 0120 0591     		str	r1, [sp, #20]
 439 0122 4FEA8A07 		lsl	r7, r10, #2
 440 0126 0393     		str	r3, [sp, #12]
 441              	.LVL61:
 442              	.L6:
 443 0128 0899     		ldr	r1, [sp, #32]
 444 012a 039A     		ldr	r2, [sp, #12]
 445              		.loc 1 389 0
 446 012c 099E     		ldr	r6, [sp, #36]
 447 012e 5018     		adds	r0, r2, r1
 448              	.LVL62:
 449 0130 059A     		ldr	r2, [sp, #20]
 450 0132 02EB4203 		add	r3, r2, r2, lsl #1
 451              		.loc 1 387 0
 452 0136 56F822C0 		ldr	ip, [r6, r2, lsl #2]
 453              	.LVL63:
 454              		.loc 1 389 0
 455 013a 56F82390 		ldr	r9, [r6, r3, lsl #2]
 456              		.loc 1 392 0
ARM GAS  /tmp/cc3GTUgv.s 			page 9


 457 013e 069B     		ldr	r3, [sp, #24]
 458              		.loc 1 388 0
 459 0140 56F83280 		ldr	r8, [r6, r2, lsl #3]
 460              	.LVL64:
 461              		.loc 1 392 0
 462 0144 D318     		adds	r3, r2, r3
 463 0146 0593     		str	r3, [sp, #20]
 464              	.LVL65:
 465              		.loc 1 400 0
 466 0148 049A     		ldr	r2, [sp, #16]
 467 014a 019B     		ldr	r3, [sp, #4]
 468              	.LVL66:
 469 014c 4518     		adds	r5, r0, r1
 470              	.LVL67:
 471 014e 9342     		cmp	r3, r2
 472              		.loc 1 388 0
 473 0150 B646     		mov	lr, r6
 474 0152 05EB0104 		add	r4, r5, r1
 475              	.LVL68:
 476              		.loc 1 394 0
 477 0156 039E     		ldr	r6, [sp, #12]
 478              		.loc 1 400 0
 479 0158 42D9     		bls	.L9
 480 015a 049B     		ldr	r3, [sp, #16]
 481 015c 03EB0A0E 		add	lr, r3, r10
 482              	.LVL69:
 483              	.L8:
 484              		.loc 1 410 0 discriminator 3
 485 0160 3368     		ldr	r3, [r6]
 486 0162 2A68     		ldr	r2, [r5]
 487              	.LVL70:
 488              	.LBB254:
 489              	.LBB255:
 490              		.loc 2 1459 0 discriminator 3
 491              	@ 1459 "/home/sbcu/Dropbox/pcb-layouts/axo-on-discovery-board/axoloti/platform_linux/../CMSIS//Incl
 492 0164 93FA12FB 		qadd16 fp, r3, r2
 493              	@ 0 "" 2
 494              	.LVL71:
 495              		.thumb
 496              	.LBE255:
 497              	.LBE254:
 498              	.LBB256:
 499              	.LBB257:
 500              		.loc 2 1507 0 discriminator 3
 501              	@ 1507 "/home/sbcu/Dropbox/pcb-layouts/axo-on-discovery-board/axoloti/platform_linux/../CMSIS//Incl
 502 0168 D3FA12F3 		qsub16 r3, r3, r2
 503              	@ 0 "" 2
 504              		.thumb
 505 016c 0093     		str	r3, [sp]
 506              	.LVL72:
 507              	.LBE257:
 508              	.LBE256:
 509              	.LBB258:
 510              	.LBB259:
 511              		.loc 2 1459 0 discriminator 3
 512 016e 0268     		ldr	r2, [r0]
 513 0170 2168     		ldr	r1, [r4]
ARM GAS  /tmp/cc3GTUgv.s 			page 10


 514              	@ 1459 "/home/sbcu/Dropbox/pcb-layouts/axo-on-discovery-board/axoloti/platform_linux/../CMSIS//Incl
 515 0172 92FA11F2 		qadd16 r2, r2, r1
 516              	@ 0 "" 2
 517              	.LVL73:
 518              		.thumb
 519              	.LBE259:
 520              	.LBE258:
 521              	.LBB260:
 522              	.LBB261:
 523              		.loc 2 1467 0 discriminator 3
 524              	@ 1467 "/home/sbcu/Dropbox/pcb-layouts/axo-on-discovery-board/axoloti/platform_linux/../CMSIS//Incl
 525 0176 9BFA22F3 		shadd16 r3, fp, r2
 526              	@ 0 "" 2
 527              	.LVL74:
 528              		.thumb
 529              	.LBE261:
 530              	.LBE260:
 531              	.LBB262:
 532              	.LBB263:
 533 017a 0299     		ldr	r1, [sp, #8]
 534              	@ 1467 "/home/sbcu/Dropbox/pcb-layouts/axo-on-discovery-board/axoloti/platform_linux/../CMSIS//Incl
 535 017c 93FA21F1 		shadd16 r1, r3, r1
 536              	@ 0 "" 2
 537              	.LVL75:
 538              		.thumb
 539              	.LBE263:
 540              	.LBE262:
 541              		.loc 1 431 0 discriminator 3
 542 0180 3160     		str	r1, [r6]
 543              	.LVL76:
 544              		.loc 1 432 0 discriminator 3
 545 0182 3E44     		add	r6, r6, r7
 546              	.LVL77:
 547              	.LBB264:
 548              	.LBB265:
 549              		.loc 2 1515 0 discriminator 3
 550              	@ 1515 "/home/sbcu/Dropbox/pcb-layouts/axo-on-discovery-board/axoloti/platform_linux/../CMSIS//Incl
 551 0184 DBFA22F2 		shsub16 r2, fp, r2
 552              	@ 0 "" 2
 553              	.LVL78:
 554              		.thumb
 555              	.LBE265:
 556              	.LBE264:
 557              	.LBB266:
 558              	.LBB267:
 559              		.loc 2 1705 0 discriminator 3
 560              	@ 1705 "/home/sbcu/Dropbox/pcb-layouts/axo-on-discovery-board/axoloti/platform_linux/../CMSIS//Incl
 561 0188 28FB02F1 		smuad r1, r8, r2
 562              	@ 0 "" 2
 563              	.LVL79:
 564              		.thumb
 565              	.LBE267:
 566              	.LBE266:
 567              	.LBB268:
 568              	.LBB269:
 569              		.loc 2 1779 0 discriminator 3
 570              	@ 1779 "/home/sbcu/Dropbox/pcb-layouts/axo-on-discovery-board/axoloti/platform_linux/../CMSIS//Incl
ARM GAS  /tmp/cc3GTUgv.s 			page 11


 571 018c 48FB12F2 		smusdx r2, r8, r2
 572              	@ 0 "" 2
 573              	.LVL80:
 574              		.thumb
 575              	.LBE269:
 576              	.LBE268:
 577              		.loc 1 463 0 discriminator 3
 578 0190 120C     		lsrs	r2, r2, #16
 579              	.LVL81:
 580 0192 1204     		lsls	r2, r2, #16
 581 0194 42EA1142 		orr	r2, r2, r1, lsr #16
 582              		.loc 1 457 0 discriminator 3
 583 0198 0168     		ldr	r1, [r0]
 584              	.LVL82:
 585              		.loc 1 462 0 discriminator 3
 586 019a 0260     		str	r2, [r0]
 587              	.LBB270:
 588              	.LBB271:
 589              		.loc 2 1507 0 discriminator 3
 590 019c 2268     		ldr	r2, [r4]
 591              	.LBE271:
 592              	.LBE270:
 593              		.loc 1 464 0 discriminator 3
 594 019e 3844     		add	r0, r0, r7
 595              	.LVL83:
 596              	.LBB273:
 597              	.LBB272:
 598              		.loc 2 1507 0 discriminator 3
 599              	@ 1507 "/home/sbcu/Dropbox/pcb-layouts/axo-on-discovery-board/axoloti/platform_linux/../CMSIS//Incl
 600 01a0 D1FA12F2 		qsub16 r2, r1, r2
 601              	@ 0 "" 2
 602              	.LVL84:
 603              		.thumb
 604              	.LBE272:
 605              	.LBE273:
 606              	.LBB274:
 607              	.LBB275:
 608              		.loc 2 1563 0 discriminator 3
 609 01a4 009B     		ldr	r3, [sp]
 610              	.LVL85:
 611              	@ 1563 "/home/sbcu/Dropbox/pcb-layouts/axo-on-discovery-board/axoloti/platform_linux/../CMSIS//Incl
 612 01a6 A3FA22F1 		shasx r1, r3, r2
 613              	@ 0 "" 2
 614              	.LVL86:
 615              		.thumb
 616              	.LBE275:
 617              	.LBE274:
 618              	.LBB276:
 619              	.LBB277:
 620              		.loc 2 1611 0 discriminator 3
 621              	@ 1611 "/home/sbcu/Dropbox/pcb-layouts/axo-on-discovery-board/axoloti/platform_linux/../CMSIS//Incl
 622 01aa E3FA22F3 		shsax r3, r3, r2
 623              	@ 0 "" 2
 624              	.LVL87:
 625              		.thumb
 626              	.LBE277:
 627              	.LBE276:
ARM GAS  /tmp/cc3GTUgv.s 			page 12


 628              	.LBB278:
 629              	.LBB279:
 630              		.loc 2 1705 0 discriminator 3
 631              	@ 1705 "/home/sbcu/Dropbox/pcb-layouts/axo-on-discovery-board/axoloti/platform_linux/../CMSIS//Incl
 632 01ae 2CFB03FB 		smuad fp, ip, r3
 633              	@ 0 "" 2
 634              	.LVL88:
 635              		.thumb
 636              	.LBE279:
 637              	.LBE278:
 638              	.LBB280:
 639              	.LBB281:
 640              		.loc 2 1779 0 discriminator 3
 641              	@ 1779 "/home/sbcu/Dropbox/pcb-layouts/axo-on-discovery-board/axoloti/platform_linux/../CMSIS//Incl
 642 01b2 4CFB13F3 		smusdx r3, ip, r3
 643              	@ 0 "" 2
 644              	.LVL89:
 645              		.thumb
 646              	.LBE281:
 647              	.LBE280:
 648              		.loc 1 505 0 discriminator 3
 649 01b6 1B0C     		lsrs	r3, r3, #16
 650              	.LVL90:
 651 01b8 1B04     		lsls	r3, r3, #16
 652 01ba 43EA1B43 		orr	r3, r3, fp, lsr #16
 653              		.loc 1 504 0 discriminator 3
 654 01be 2B60     		str	r3, [r5]
 655              	.LVL91:
 656              		.loc 1 506 0 discriminator 3
 657 01c0 3D44     		add	r5, r5, r7
 658              	.LVL92:
 659              	.LBB282:
 660              	.LBB283:
 661              		.loc 2 1705 0 discriminator 3
 662              	@ 1705 "/home/sbcu/Dropbox/pcb-layouts/axo-on-discovery-board/axoloti/platform_linux/../CMSIS//Incl
 663 01c2 29FB01F3 		smuad r3, r9, r1
 664              	@ 0 "" 2
 665              	.LVL93:
 666              		.thumb
 667              	.LBE283:
 668              	.LBE282:
 669              	.LBB284:
 670              	.LBB285:
 671              		.loc 2 1779 0 discriminator 3
 672              	@ 1779 "/home/sbcu/Dropbox/pcb-layouts/axo-on-discovery-board/axoloti/platform_linux/../CMSIS//Incl
 673 01c6 49FB11F1 		smusdx r1, r9, r1
 674              	@ 0 "" 2
 675              	.LVL94:
 676              		.thumb
 677              	.LBE285:
 678              	.LBE284:
 679              		.loc 1 525 0 discriminator 3
 680 01ca 090C     		lsrs	r1, r1, #16
 681              	.LVL95:
 682 01cc 0904     		lsls	r1, r1, #16
 683              		.loc 1 400 0 discriminator 3
 684 01ce 019A     		ldr	r2, [sp, #4]
ARM GAS  /tmp/cc3GTUgv.s 			page 13


 685              	.LVL96:
 686              		.loc 1 525 0 discriminator 3
 687 01d0 41EA1341 		orr	r1, r1, r3, lsr #16
 688 01d4 7346     		mov	r3, lr
 689              	.LVL97:
 690              		.loc 1 400 0 discriminator 3
 691 01d6 9A42     		cmp	r2, r3
 692              		.loc 1 524 0 discriminator 3
 693 01d8 2160     		str	r1, [r4]
 694 01da D644     		add	lr, lr, r10
 695              	.LVL98:
 696              		.loc 1 526 0 discriminator 3
 697 01dc 3C44     		add	r4, r4, r7
 698              	.LVL99:
 699              		.loc 1 400 0 discriminator 3
 700 01de BFD8     		bhi	.L8
 701              	.LVL100:
 702              	.L9:
 703 01e0 039A     		ldr	r2, [sp, #12]
 704              		.loc 1 384 0
 705 01e2 049B     		ldr	r3, [sp, #16]
 706 01e4 0432     		adds	r2, r2, #4
 707 01e6 0392     		str	r2, [sp, #12]
 708 01e8 079A     		ldr	r2, [sp, #28]
 709 01ea 0133     		adds	r3, r3, #1
 710 01ec 9342     		cmp	r3, r2
 711 01ee 0493     		str	r3, [sp, #16]
 712              	.LVL101:
 713 01f0 9AD9     		bls	.L6
 714              		.loc 1 377 0 discriminator 2
 715 01f2 0A9B     		ldr	r3, [sp, #40]
 716              	.LVL102:
 717              		.loc 1 530 0 discriminator 2
 718 01f4 069A     		ldr	r2, [sp, #24]
 719              		.loc 1 381 0 discriminator 2
 720 01f6 DDF82CA0 		ldr	r10, [sp, #44]
 721              	.LVL103:
 722              		.loc 1 377 0 discriminator 2
 723 01fa 9B08     		lsrs	r3, r3, #2
 724              		.loc 1 530 0 discriminator 2
 725 01fc 9200     		lsls	r2, r2, #2
 726              		.loc 1 377 0 discriminator 2
 727 01fe 042B     		cmp	r3, #4
 728 0200 0A93     		str	r3, [sp, #40]
 729              	.LVL104:
 730              		.loc 1 530 0 discriminator 2
 731 0202 0692     		str	r2, [sp, #24]
 732              	.LVL105:
 733              		.loc 1 377 0 discriminator 2
 734 0204 81D8     		bhi	.L10
 735              	.LVL106:
 736              	.L11:
 737 0206 0C9C     		ldr	r4, [sp, #48]
 738 0208 0D9E     		ldr	r6, [sp, #52]
 739 020a 1034     		adds	r4, r4, #16
 740              	.LVL107:
 741              	.L4:
ARM GAS  /tmp/cc3GTUgv.s 			page 14


 742              		.loc 1 563 0 discriminator 1
 743 020c 54F8103C 		ldr	r3, [r4, #-16]
 744 0210 54F8087C 		ldr	r7, [r4, #-8]
 745              	.LVL108:
 746              	.LBB286:
 747              	.LBB287:
 748              		.loc 2 1459 0 discriminator 1
 749              	@ 1459 "/home/sbcu/Dropbox/pcb-layouts/axo-on-discovery-board/axoloti/platform_linux/../CMSIS//Incl
 750 0214 93FA17F1 		qadd16 r1, r3, r7
 751              	@ 0 "" 2
 752              	.LVL109:
 753              		.thumb
 754              	.LBE287:
 755              	.LBE286:
 756              		.loc 1 566 0 discriminator 1
 757 0218 54F80C2C 		ldr	r2, [r4, #-12]
 758 021c 54F8040C 		ldr	r0, [r4, #-4]
 759              	.LVL110:
 760              	.LBB288:
 761              	.LBB289:
 762              		.loc 2 1459 0 discriminator 1
 763              	@ 1459 "/home/sbcu/Dropbox/pcb-layouts/axo-on-discovery-board/axoloti/platform_linux/../CMSIS//Incl
 764 0220 92FA10F5 		qadd16 r5, r2, r0
 765              	@ 0 "" 2
 766              	.LVL111:
 767              		.thumb
 768              	.LBE289:
 769              	.LBE288:
 770              	.LBB290:
 771              	.LBB291:
 772              		.loc 2 1467 0 discriminator 1
 773              	@ 1467 "/home/sbcu/Dropbox/pcb-layouts/axo-on-discovery-board/axoloti/platform_linux/../CMSIS//Incl
 774 0224 91FA25F5 		shadd16 r5, r1, r5
 775              	@ 0 "" 2
 776              	.LVL112:
 777              		.thumb
 778              	.LBE291:
 779              	.LBE290:
 780              		.loc 1 574 0 discriminator 1
 781 0228 44F8105C 		str	r5, [r4, #-16]
 782              	.LVL113:
 783              	.LBB292:
 784              	.LBB293:
 785              		.loc 2 1459 0 discriminator 1
 786              	@ 1459 "/home/sbcu/Dropbox/pcb-layouts/axo-on-discovery-board/axoloti/platform_linux/../CMSIS//Incl
 787 022c 92FA10F5 		qadd16 r5, r2, r0
 788              	@ 0 "" 2
 789              	.LVL114:
 790              		.thumb
 791              	.LBE293:
 792              	.LBE292:
 793              	.LBB294:
 794              	.LBB295:
 795              		.loc 2 1515 0 discriminator 1
 796              	@ 1515 "/home/sbcu/Dropbox/pcb-layouts/axo-on-discovery-board/axoloti/platform_linux/../CMSIS//Incl
 797 0230 D1FA25F1 		shsub16 r1, r1, r5
 798              	@ 0 "" 2
ARM GAS  /tmp/cc3GTUgv.s 			page 15


 799              	.LVL115:
 800              		.thumb
 801              	.LBE295:
 802              	.LBE294:
 803              		.loc 1 581 0 discriminator 1
 804 0234 44F80C1C 		str	r1, [r4, #-12]
 805              	.LVL116:
 806              	.LBB296:
 807              	.LBB297:
 808              		.loc 2 1507 0 discriminator 1
 809              	@ 1507 "/home/sbcu/Dropbox/pcb-layouts/axo-on-discovery-board/axoloti/platform_linux/../CMSIS//Incl
 810 0238 D3FA17F3 		qsub16 r3, r3, r7
 811              	@ 0 "" 2
 812              	.LVL117:
 813              		.thumb
 814              	.LBE297:
 815              	.LBE296:
 816              	.LBB298:
 817              	.LBB299:
 818              	@ 1507 "/home/sbcu/Dropbox/pcb-layouts/axo-on-discovery-board/axoloti/platform_linux/../CMSIS//Incl
 819 023c D2FA10F2 		qsub16 r2, r2, r0
 820              	@ 0 "" 2
 821              	.LVL118:
 822              		.thumb
 823              	.LBE299:
 824              	.LBE298:
 825              	.LBB300:
 826              	.LBB301:
 827              		.loc 2 1611 0 discriminator 1
 828              	@ 1611 "/home/sbcu/Dropbox/pcb-layouts/axo-on-discovery-board/axoloti/platform_linux/../CMSIS//Incl
 829 0240 E3FA22F1 		shsax r1, r3, r2
 830              	@ 0 "" 2
 831              	.LVL119:
 832              		.thumb
 833              	.LBE301:
 834              	.LBE300:
 835              		.loc 1 594 0 discriminator 1
 836 0244 44F8081C 		str	r1, [r4, #-8]
 837              	.LVL120:
 838              	.LBB302:
 839              	.LBB303:
 840              		.loc 2 1563 0 discriminator 1
 841              	@ 1563 "/home/sbcu/Dropbox/pcb-layouts/axo-on-discovery-board/axoloti/platform_linux/../CMSIS//Incl
 842 0248 A3FA22F3 		shasx r3, r3, r2
 843              	@ 0 "" 2
 844              	.LVL121:
 845              		.thumb
 846              	.LBE303:
 847              	.LBE302:
 848              		.loc 1 614 0 discriminator 1
 849 024c 013E     		subs	r6, r6, #1
 850              	.LVL122:
 851              		.loc 1 599 0 discriminator 1
 852 024e 44F8043C 		str	r3, [r4, #-4]
 853              	.LVL123:
 854 0252 04F11004 		add	r4, r4, #16
 855              	.LVL124:
ARM GAS  /tmp/cc3GTUgv.s 			page 16


 856              		.loc 1 614 0 discriminator 1
 857 0256 D9D1     		bne	.L4
 858              		.loc 1 1026 0
 859 0258 0FB0     		add	sp, sp, #60
 860              		.cfi_def_cfa_offset 36
 861              		@ sp needed
 862 025a BDE8F08F 		pop	{r4, r5, r6, r7, r8, r9, r10, fp, pc}
 863              		.cfi_endproc
 864              	.LFE136:
 865              		.size	arm_radix4_butterfly_q15, .-arm_radix4_butterfly_q15
 866 025e 00BF     		.align	2
 867              		.p2align 4,,15
 868              		.global	arm_radix4_butterfly_inverse_q15
 869              		.thumb
 870              		.thumb_func
 871              		.type	arm_radix4_butterfly_inverse_q15, %function
 872              	arm_radix4_butterfly_inverse_q15:
 873              	.LFB137:
 874              		.loc 1 1083 0
 875              		.cfi_startproc
 876              		@ args = 0, pretend = 0, frame = 56
 877              		@ frame_needed = 0, uses_anonymous_args = 0
 878              	.LVL125:
 879 0260 2DE9F04F 		push	{r4, r5, r6, r7, r8, r9, r10, fp, lr}
 880              		.cfi_def_cfa_offset 36
 881              		.cfi_offset 4, -36
 882              		.cfi_offset 5, -32
 883              		.cfi_offset 6, -28
 884              		.cfi_offset 7, -24
 885              		.cfi_offset 8, -20
 886              		.cfi_offset 9, -16
 887              		.cfi_offset 10, -12
 888              		.cfi_offset 11, -8
 889              		.cfi_offset 14, -4
 890 0264 8FB0     		sub	sp, sp, #60
 891              		.cfi_def_cfa_offset 96
 892              		.loc 1 1083 0
 893 0266 9B46     		mov	fp, r3
 894 0268 0191     		str	r1, [sp, #4]
 895              	.LVL126:
 896              		.loc 1 1110 0
 897 026a 8908     		lsrs	r1, r1, #2
 898              	.LVL127:
 899 026c 0E46     		mov	r6, r1
 900 026e 0D91     		str	r1, [sp, #52]
 901              	.LVL128:
 902              		.loc 1 1119 0
 903 0270 8900     		lsls	r1, r1, #2
 904              	.LVL129:
 905              		.loc 1 1083 0
 906 0272 0746     		mov	r7, r0
 907 0274 0C90     		str	r0, [sp, #48]
 908              	.LVL130:
 909 0276 0BEB4B03 		add	r3, fp, fp, lsl #1
 910              	.LVL131:
 911              		.loc 1 1119 0
 912 027a 0844     		add	r0, r0, r1
ARM GAS  /tmp/cc3GTUgv.s 			page 17


 913              	.LVL132:
 914              		.loc 1 1121 0
 915 027c 0024     		movs	r4, #0
 916              		.loc 1 1120 0
 917 027e 4518     		adds	r5, r0, r1
 918              	.LVL133:
 919 0280 9B00     		lsls	r3, r3, #2
 920              		.loc 1 1083 0
 921 0282 9646     		mov	lr, r2
 922 0284 0992     		str	r2, [sp, #36]
 923              		.loc 1 1110 0
 924 0286 B246     		mov	r10, r6
 925              		.loc 1 1121 0
 926 0288 2944     		add	r1, r1, r5
 927              	.LVL134:
 928 028a 0293     		str	r3, [sp, #8]
 929              		.loc 1 1113 0
 930 028c 2646     		mov	r6, r4
 931              	.LVL135:
 932              	.LBB304:
 933              	.LBB305:
 934              		.loc 2 1467 0
 935 028e 2246     		mov	r2, r4
 936              	.LVL136:
 937 0290 CDF800B0 		str	fp, [sp]
 938              	.LVL137:
 939              	.L22:
 940              		.loc 2 1467 0 is_stmt 0 discriminator 1
 941 0294 3B68     		ldr	r3, [r7]
 942              	@ 1467 "/home/sbcu/Dropbox/pcb-layouts/axo-on-discovery-board/axoloti/platform_linux/../CMSIS//Incl
 943 0296 93FA22FC 		shadd16 ip, r3, r2
 944              	@ 0 "" 2
 945              	.LVL138:
 946              		.thumb
 947              	.LBE305:
 948              	.LBE304:
 949              	.LBB306:
 950              	.LBB307:
 951              	@ 1467 "/home/sbcu/Dropbox/pcb-layouts/axo-on-discovery-board/axoloti/platform_linux/../CMSIS//Incl
 952 029a 9CFA22FC 		shadd16 ip, ip, r2
 953              	@ 0 "" 2
 954              	.LVL139:
 955              		.thumb
 956              	.LBE307:
 957              	.LBE306:
 958              	.LBB308:
 959              	.LBB309:
 960 029e 2B68     		ldr	r3, [r5]
 961              	@ 1467 "/home/sbcu/Dropbox/pcb-layouts/axo-on-discovery-board/axoloti/platform_linux/../CMSIS//Incl
 962 02a0 93FA22F3 		shadd16 r3, r3, r2
 963              	@ 0 "" 2
 964              	.LVL140:
 965              		.thumb
 966              	.LBE309:
 967              	.LBE308:
 968              	.LBB310:
 969              	.LBB311:
ARM GAS  /tmp/cc3GTUgv.s 			page 18


 970              	@ 1467 "/home/sbcu/Dropbox/pcb-layouts/axo-on-discovery-board/axoloti/platform_linux/../CMSIS//Incl
 971 02a4 93FA22F3 		shadd16 r3, r3, r2
 972              	@ 0 "" 2
 973              	.LVL141:
 974              		.thumb
 975              	.LBE311:
 976              	.LBE310:
 977              	.LBB312:
 978              	.LBB313:
 979              		.loc 2 1459 0 is_stmt 1 discriminator 1
 980              	@ 1459 "/home/sbcu/Dropbox/pcb-layouts/axo-on-discovery-board/axoloti/platform_linux/../CMSIS//Incl
 981 02a8 9CFA13F8 		qadd16 r8, ip, r3
 982              	@ 0 "" 2
 983              	.LVL142:
 984              		.thumb
 985              	.LBE313:
 986              	.LBE312:
 987              	.LBB314:
 988              	.LBB315:
 989              		.loc 2 1507 0 discriminator 1
 990              	@ 1507 "/home/sbcu/Dropbox/pcb-layouts/axo-on-discovery-board/axoloti/platform_linux/../CMSIS//Incl
 991 02ac DCFA13FC 		qsub16 ip, ip, r3
 992              	@ 0 "" 2
 993              	.LVL143:
 994              		.thumb
 995              	.LBE315:
 996              	.LBE314:
 997              	.LBB316:
 998              	.LBB317:
 999              		.loc 2 1467 0 discriminator 1
 1000 02b0 0368     		ldr	r3, [r0]
 1001              	.LVL144:
 1002              	@ 1467 "/home/sbcu/Dropbox/pcb-layouts/axo-on-discovery-board/axoloti/platform_linux/../CMSIS//Incl
 1003 02b2 93FA22F3 		shadd16 r3, r3, r2
 1004              	@ 0 "" 2
 1005              	.LVL145:
 1006              		.thumb
 1007              	.LBE317:
 1008              	.LBE316:
 1009              	.LBB318:
 1010              	.LBB319:
 1011              	@ 1467 "/home/sbcu/Dropbox/pcb-layouts/axo-on-discovery-board/axoloti/platform_linux/../CMSIS//Incl
 1012 02b6 93FA22F9 		shadd16 r9, r3, r2
 1013              	@ 0 "" 2
 1014              	.LVL146:
 1015              		.thumb
 1016              	.LBE319:
 1017              	.LBE318:
 1018              	.LBB320:
 1019              	.LBB321:
 1020 02ba 0B68     		ldr	r3, [r1]
 1021              	.LVL147:
 1022              	@ 1467 "/home/sbcu/Dropbox/pcb-layouts/axo-on-discovery-board/axoloti/platform_linux/../CMSIS//Incl
 1023 02bc 93FA22F3 		shadd16 r3, r3, r2
 1024              	@ 0 "" 2
 1025              	.LVL148:
 1026              		.thumb
ARM GAS  /tmp/cc3GTUgv.s 			page 19


 1027              	.LBE321:
 1028              	.LBE320:
 1029              	.LBB322:
 1030              	.LBB323:
 1031              	@ 1467 "/home/sbcu/Dropbox/pcb-layouts/axo-on-discovery-board/axoloti/platform_linux/../CMSIS//Incl
 1032 02c0 93FA22F3 		shadd16 r3, r3, r2
 1033              	@ 0 "" 2
 1034              	.LVL149:
 1035              		.thumb
 1036              	.LBE323:
 1037              	.LBE322:
 1038              	.LBB324:
 1039              	.LBB325:
 1040              		.loc 2 1459 0 discriminator 1
 1041              	@ 1459 "/home/sbcu/Dropbox/pcb-layouts/axo-on-discovery-board/axoloti/platform_linux/../CMSIS//Incl
 1042 02c4 99FA13F3 		qadd16 r3, r9, r3
 1043              	@ 0 "" 2
 1044              	.LVL150:
 1045              		.thumb
 1046              	.LBE325:
 1047              	.LBE324:
 1048              	.LBB326:
 1049              	.LBB327:
 1050              		.loc 2 1467 0 discriminator 1
 1051              	@ 1467 "/home/sbcu/Dropbox/pcb-layouts/axo-on-discovery-board/axoloti/platform_linux/../CMSIS//Incl
 1052 02c8 98FA23F9 		shadd16 r9, r8, r3
 1053              	@ 0 "" 2
 1054              	.LVL151:
 1055              		.thumb
 1056              	.LBE327:
 1057              	.LBE326:
 1058              		.loc 1 1164 0 discriminator 1
 1059 02cc 47F8049B 		str	r9, [r7], #4
 1060              	.LVL152:
 1061              	.LBB328:
 1062              	.LBB329:
 1063              		.loc 2 1507 0 discriminator 1
 1064              	@ 1507 "/home/sbcu/Dropbox/pcb-layouts/axo-on-discovery-board/axoloti/platform_linux/../CMSIS//Incl
 1065 02d0 D8FA13F3 		qsub16 r3, r8, r3
 1066              	@ 0 "" 2
 1067              	.LVL153:
 1068              		.thumb
 1069              	.LBE329:
 1070              	.LBE328:
 1071              		.loc 1 1176 0 discriminator 1
 1072 02d4 5EF83690 		ldr	r9, [lr, r6, lsl #3]
 1073              	.LVL154:
 1074              	.LBB330:
 1075              	.LBB331:
 1076              		.loc 2 1771 0 discriminator 1
 1077              	@ 1771 "/home/sbcu/Dropbox/pcb-layouts/axo-on-discovery-board/axoloti/platform_linux/../CMSIS//Incl
 1078 02d8 49FB03FB 		smusd fp, r9, r3
 1079              	@ 0 "" 2
 1080              	.LVL155:
 1081              		.thumb
 1082              	.LBE331:
 1083              	.LBE330:
ARM GAS  /tmp/cc3GTUgv.s 			page 20


 1084              	.LBB332:
 1085              	.LBB333:
 1086              		.loc 2 1713 0 discriminator 1
 1087              	@ 1713 "/home/sbcu/Dropbox/pcb-layouts/axo-on-discovery-board/axoloti/platform_linux/../CMSIS//Incl
 1088 02dc 29FB13F9 		smuadx r9, r9, r3
 1089              	@ 0 "" 2
 1090              	.LVL156:
 1091              		.thumb
 1092              	.LBE333:
 1093              	.LBE332:
 1094              	.LBB334:
 1095              	.LBB335:
 1096              		.loc 2 1467 0 discriminator 1
 1097 02e0 0368     		ldr	r3, [r0]
 1098              	.LVL157:
 1099              	@ 1467 "/home/sbcu/Dropbox/pcb-layouts/axo-on-discovery-board/axoloti/platform_linux/../CMSIS//Incl
 1100 02e2 93FA22F3 		shadd16 r3, r3, r2
 1101              	@ 0 "" 2
 1102              	.LVL158:
 1103              		.thumb
 1104              	.LBE335:
 1105              	.LBE334:
 1106              	.LBB336:
 1107              	.LBB337:
 1108              	@ 1467 "/home/sbcu/Dropbox/pcb-layouts/axo-on-discovery-board/axoloti/platform_linux/../CMSIS//Incl
 1109 02e6 93FA22F8 		shadd16 r8, r3, r2
 1110              	@ 0 "" 2
 1111              	.LVL159:
 1112              		.thumb
 1113              	.LBE337:
 1114              	.LBE336:
 1115              		.loc 1 1198 0 discriminator 1
 1116 02ea 4FEA1949 		lsr	r9, r9, #16
 1117              	.LVL160:
 1118 02ee 4FEA0949 		lsl	r9, r9, #16
 1119 02f2 49EA1B43 		orr	r3, r9, fp, lsr #16
 1120              	.LVL161:
 1121              		.loc 1 1197 0 discriminator 1
 1122 02f6 40F8043B 		str	r3, [r0], #4
 1123              	.LVL162:
 1124              	.LBB338:
 1125              	.LBB339:
 1126              		.loc 2 1467 0 discriminator 1
 1127 02fa 0B68     		ldr	r3, [r1]
 1128              	@ 1467 "/home/sbcu/Dropbox/pcb-layouts/axo-on-discovery-board/axoloti/platform_linux/../CMSIS//Incl
 1129 02fc 93FA22F3 		shadd16 r3, r3, r2
 1130              	@ 0 "" 2
 1131              	.LVL163:
 1132              		.thumb
 1133              	.LBE339:
 1134              	.LBE338:
 1135              	.LBB340:
 1136              	.LBB341:
 1137              	@ 1467 "/home/sbcu/Dropbox/pcb-layouts/axo-on-discovery-board/axoloti/platform_linux/../CMSIS//Incl
 1138 0300 93FA22F3 		shadd16 r3, r3, r2
 1139              	@ 0 "" 2
 1140              	.LVL164:
ARM GAS  /tmp/cc3GTUgv.s 			page 21


 1141              		.thumb
 1142              	.LBE341:
 1143              	.LBE340:
 1144              	.LBB342:
 1145              	.LBB343:
 1146              		.loc 2 1507 0 discriminator 1
 1147              	@ 1507 "/home/sbcu/Dropbox/pcb-layouts/axo-on-discovery-board/axoloti/platform_linux/../CMSIS//Incl
 1148 0304 D8FA13F3 		qsub16 r3, r8, r3
 1149              	@ 0 "" 2
 1150              	.LVL165:
 1151              		.thumb
 1152              	.LBE343:
 1153              	.LBE342:
 1154              	.LBB344:
 1155              	.LBB345:
 1156              		.loc 2 1603 0 discriminator 1
 1157              	@ 1603 "/home/sbcu/Dropbox/pcb-layouts/axo-on-discovery-board/axoloti/platform_linux/../CMSIS//Incl
 1158 0308 ECFA13F9 		qsax r9, ip, r3
 1159              	@ 0 "" 2
 1160              	.LVL166:
 1161              		.thumb
 1162              	.LBE345:
 1163              	.LBE344:
 1164              	.LBB346:
 1165              	.LBB347:
 1166              		.loc 2 1555 0 discriminator 1
 1167              	@ 1555 "/home/sbcu/Dropbox/pcb-layouts/axo-on-discovery-board/axoloti/platform_linux/../CMSIS//Incl
 1168 030c ACFA13FC 		qasx ip, ip, r3
 1169              	@ 0 "" 2
 1170              	.LVL167:
 1171              		.thumb
 1172              	.LBE347:
 1173              	.LBE346:
 1174              		.loc 1 1233 0 discriminator 1
 1175 0310 5EF82630 		ldr	r3, [lr, r6, lsl #2]
 1176              	.LVL168:
 1177              	.LBB348:
 1178              	.LBB349:
 1179              		.loc 2 1771 0 discriminator 1
 1180              	@ 1771 "/home/sbcu/Dropbox/pcb-layouts/axo-on-discovery-board/axoloti/platform_linux/../CMSIS//Incl
 1181 0314 43FB0CF8 		smusd r8, r3, ip
 1182              	@ 0 "" 2
 1183              	.LVL169:
 1184              		.thumb
 1185              	.LBE349:
 1186              	.LBE348:
 1187              	.LBB350:
 1188              	.LBB351:
 1189              		.loc 2 1713 0 discriminator 1
 1190              	@ 1713 "/home/sbcu/Dropbox/pcb-layouts/axo-on-discovery-board/axoloti/platform_linux/../CMSIS//Incl
 1191 0318 23FB1CF3 		smuadx r3, r3, ip
 1192              	@ 0 "" 2
 1193              	.LVL170:
 1194              		.thumb
 1195              	.LBE351:
 1196              	.LBE350:
 1197              		.loc 1 1248 0 discriminator 1
ARM GAS  /tmp/cc3GTUgv.s 			page 22


 1198 031c 1B0C     		lsrs	r3, r3, #16
 1199              	.LVL171:
 1200 031e 1B04     		lsls	r3, r3, #16
 1201 0320 43EA1843 		orr	r3, r3, r8, lsr #16
 1202              		.loc 1 1247 0 discriminator 1
 1203 0324 45F8043B 		str	r3, [r5], #4
 1204              	.LVL172:
 1205              		.loc 1 1259 0 discriminator 1
 1206 0328 5EF80430 		ldr	r3, [lr, r4]
 1207              	.LVL173:
 1208              	.LBB352:
 1209              	.LBB353:
 1210              		.loc 2 1771 0 discriminator 1
 1211              	@ 1771 "/home/sbcu/Dropbox/pcb-layouts/axo-on-discovery-board/axoloti/platform_linux/../CMSIS//Incl
 1212 032c 43FB09FC 		smusd ip, r3, r9
 1213              	@ 0 "" 2
 1214              	.LVL174:
 1215              		.thumb
 1216              	.LBE353:
 1217              	.LBE352:
 1218              	.LBB354:
 1219              	.LBB355:
 1220              		.loc 2 1713 0 discriminator 1
 1221              	@ 1713 "/home/sbcu/Dropbox/pcb-layouts/axo-on-discovery-board/axoloti/platform_linux/../CMSIS//Incl
 1222 0330 23FB19F3 		smuadx r3, r3, r9
 1223              	@ 0 "" 2
 1224              	.LVL175:
 1225              		.thumb
 1226              	.LBE355:
 1227              	.LBE354:
 1228              		.loc 1 1274 0 discriminator 1
 1229 0334 1B0C     		lsrs	r3, r3, #16
 1230              	.LVL176:
 1231 0336 1B04     		lsls	r3, r3, #16
 1232 0338 43EA1C43 		orr	r3, r3, ip, lsr #16
 1233              		.loc 1 1273 0 discriminator 1
 1234 033c 41F8043B 		str	r3, [r1], #4
 1235              	.LVL177:
 1236              		.loc 1 1278 0 discriminator 1
 1237 0340 009B     		ldr	r3, [sp]
 1238 0342 1E44     		add	r6, r6, r3
 1239              	.LVL178:
 1240 0344 029B     		ldr	r3, [sp, #8]
 1241              		.loc 1 1280 0 discriminator 1
 1242 0346 BAF1010A 		subs	r10, r10, #1
 1243              	.LVL179:
 1244 034a 1C44     		add	r4, r4, r3
 1245 034c A2D1     		bne	.L22
 1246 034e DDF800B0 		ldr	fp, [sp]
 1247              	.LVL180:
 1248              		.loc 1 1289 0
 1249 0352 4FEA8B03 		lsl	r3, fp, #2
 1250 0356 0693     		str	r3, [sp, #24]
 1251              	.LVL181:
 1252              		.loc 1 1292 0
 1253 0358 0D9B     		ldr	r3, [sp, #52]
 1254              	.LVL182:
ARM GAS  /tmp/cc3GTUgv.s 			page 23


 1255 035a 042B     		cmp	r3, #4
 1256 035c 40F28380 		bls	.L31
 1257 0360 0D9B     		ldr	r3, [sp, #52]
 1258              		.loc 1 1299 0
 1259 0362 CDF808A0 		str	r10, [sp, #8]
 1260              		.loc 1 1292 0
 1261 0366 0A93     		str	r3, [sp, #40]
 1262 0368 9A46     		mov	r10, r3
 1263              	.LVL183:
 1264              	.L30:
 1265              		.loc 1 1296 0
 1266 036a 4FEA9A03 		lsr	r3, r10, #2
 1267              		.loc 1 1299 0
 1268 036e 0022     		movs	r2, #0
 1269 0370 1146     		mov	r1, r2
 1270              		.loc 1 1296 0
 1271 0372 0B93     		str	r3, [sp, #44]
 1272              	.LVL184:
 1273              		.loc 1 1299 0
 1274 0374 0492     		str	r2, [sp, #16]
 1275 0376 5A1E     		subs	r2, r3, #1
 1276 0378 9B00     		lsls	r3, r3, #2
 1277              	.LVL185:
 1278 037a 0893     		str	r3, [sp, #32]
 1279 037c 0C9B     		ldr	r3, [sp, #48]
 1280 037e 0792     		str	r2, [sp, #28]
 1281              		.loc 1 1297 0
 1282 0380 0591     		str	r1, [sp, #20]
 1283 0382 4FEA8A07 		lsl	r7, r10, #2
 1284 0386 0393     		str	r3, [sp, #12]
 1285              	.LVL186:
 1286              	.L26:
 1287 0388 0899     		ldr	r1, [sp, #32]
 1288 038a 039A     		ldr	r2, [sp, #12]
 1289              		.loc 1 1304 0
 1290 038c 099E     		ldr	r6, [sp, #36]
 1291 038e 5018     		adds	r0, r2, r1
 1292              	.LVL187:
 1293 0390 059A     		ldr	r2, [sp, #20]
 1294 0392 02EB4203 		add	r3, r2, r2, lsl #1
 1295              		.loc 1 1302 0
 1296 0396 56F822C0 		ldr	ip, [r6, r2, lsl #2]
 1297              	.LVL188:
 1298              		.loc 1 1304 0
 1299 039a 56F82390 		ldr	r9, [r6, r3, lsl #2]
 1300              		.loc 1 1307 0
 1301 039e 069B     		ldr	r3, [sp, #24]
 1302              		.loc 1 1303 0
 1303 03a0 56F83280 		ldr	r8, [r6, r2, lsl #3]
 1304              	.LVL189:
 1305              		.loc 1 1307 0
 1306 03a4 D318     		adds	r3, r2, r3
 1307 03a6 0593     		str	r3, [sp, #20]
 1308              	.LVL190:
 1309              		.loc 1 1315 0
 1310 03a8 049A     		ldr	r2, [sp, #16]
 1311 03aa 019B     		ldr	r3, [sp, #4]
ARM GAS  /tmp/cc3GTUgv.s 			page 24


 1312              	.LVL191:
 1313 03ac 4518     		adds	r5, r0, r1
 1314              	.LVL192:
 1315 03ae 9342     		cmp	r3, r2
 1316              		.loc 1 1303 0
 1317 03b0 B646     		mov	lr, r6
 1318 03b2 05EB0104 		add	r4, r5, r1
 1319              	.LVL193:
 1320              		.loc 1 1309 0
 1321 03b6 039E     		ldr	r6, [sp, #12]
 1322              		.loc 1 1315 0
 1323 03b8 42D9     		bls	.L29
 1324 03ba 049B     		ldr	r3, [sp, #16]
 1325 03bc 03EB0A0E 		add	lr, r3, r10
 1326              	.LVL194:
 1327              	.L28:
 1328              		.loc 1 1325 0 discriminator 3
 1329 03c0 3368     		ldr	r3, [r6]
 1330 03c2 2A68     		ldr	r2, [r5]
 1331              	.LVL195:
 1332              	.LBB356:
 1333              	.LBB357:
 1334              		.loc 2 1459 0 discriminator 3
 1335              	@ 1459 "/home/sbcu/Dropbox/pcb-layouts/axo-on-discovery-board/axoloti/platform_linux/../CMSIS//Incl
 1336 03c4 93FA12FB 		qadd16 fp, r3, r2
 1337              	@ 0 "" 2
 1338              	.LVL196:
 1339              		.thumb
 1340              	.LBE357:
 1341              	.LBE356:
 1342              	.LBB358:
 1343              	.LBB359:
 1344              		.loc 2 1507 0 discriminator 3
 1345              	@ 1507 "/home/sbcu/Dropbox/pcb-layouts/axo-on-discovery-board/axoloti/platform_linux/../CMSIS//Incl
 1346 03c8 D3FA12F3 		qsub16 r3, r3, r2
 1347              	@ 0 "" 2
 1348              		.thumb
 1349 03cc 0093     		str	r3, [sp]
 1350              	.LVL197:
 1351              	.LBE359:
 1352              	.LBE358:
 1353              	.LBB360:
 1354              	.LBB361:
 1355              		.loc 2 1459 0 discriminator 3
 1356 03ce 0268     		ldr	r2, [r0]
 1357 03d0 2168     		ldr	r1, [r4]
 1358              	@ 1459 "/home/sbcu/Dropbox/pcb-layouts/axo-on-discovery-board/axoloti/platform_linux/../CMSIS//Incl
 1359 03d2 92FA11F2 		qadd16 r2, r2, r1
 1360              	@ 0 "" 2
 1361              	.LVL198:
 1362              		.thumb
 1363              	.LBE361:
 1364              	.LBE360:
 1365              	.LBB362:
 1366              	.LBB363:
 1367              		.loc 2 1467 0 discriminator 3
 1368              	@ 1467 "/home/sbcu/Dropbox/pcb-layouts/axo-on-discovery-board/axoloti/platform_linux/../CMSIS//Incl
ARM GAS  /tmp/cc3GTUgv.s 			page 25


 1369 03d6 9BFA22F3 		shadd16 r3, fp, r2
 1370              	@ 0 "" 2
 1371              	.LVL199:
 1372              		.thumb
 1373              	.LBE363:
 1374              	.LBE362:
 1375              	.LBB364:
 1376              	.LBB365:
 1377 03da 0299     		ldr	r1, [sp, #8]
 1378              	@ 1467 "/home/sbcu/Dropbox/pcb-layouts/axo-on-discovery-board/axoloti/platform_linux/../CMSIS//Incl
 1379 03dc 93FA21F1 		shadd16 r1, r3, r1
 1380              	@ 0 "" 2
 1381              	.LVL200:
 1382              		.thumb
 1383              	.LBE365:
 1384              	.LBE364:
 1385              		.loc 1 1346 0 discriminator 3
 1386 03e0 3160     		str	r1, [r6]
 1387              	.LVL201:
 1388              		.loc 1 1347 0 discriminator 3
 1389 03e2 3E44     		add	r6, r6, r7
 1390              	.LVL202:
 1391              	.LBB366:
 1392              	.LBB367:
 1393              		.loc 2 1515 0 discriminator 3
 1394              	@ 1515 "/home/sbcu/Dropbox/pcb-layouts/axo-on-discovery-board/axoloti/platform_linux/../CMSIS//Incl
 1395 03e4 DBFA22F2 		shsub16 r2, fp, r2
 1396              	@ 0 "" 2
 1397              	.LVL203:
 1398              		.thumb
 1399              	.LBE367:
 1400              	.LBE366:
 1401              	.LBB368:
 1402              	.LBB369:
 1403              		.loc 2 1771 0 discriminator 3
 1404              	@ 1771 "/home/sbcu/Dropbox/pcb-layouts/axo-on-discovery-board/axoloti/platform_linux/../CMSIS//Incl
 1405 03e8 48FB02F1 		smusd r1, r8, r2
 1406              	@ 0 "" 2
 1407              	.LVL204:
 1408              		.thumb
 1409              	.LBE369:
 1410              	.LBE368:
 1411              	.LBB370:
 1412              	.LBB371:
 1413              		.loc 2 1713 0 discriminator 3
 1414              	@ 1713 "/home/sbcu/Dropbox/pcb-layouts/axo-on-discovery-board/axoloti/platform_linux/../CMSIS//Incl
 1415 03ec 28FB12F2 		smuadx r2, r8, r2
 1416              	@ 0 "" 2
 1417              	.LVL205:
 1418              		.thumb
 1419              	.LBE371:
 1420              	.LBE370:
 1421              		.loc 1 1378 0 discriminator 3
 1422 03f0 120C     		lsrs	r2, r2, #16
 1423              	.LVL206:
 1424 03f2 1204     		lsls	r2, r2, #16
 1425 03f4 42EA1142 		orr	r2, r2, r1, lsr #16
ARM GAS  /tmp/cc3GTUgv.s 			page 26


 1426              		.loc 1 1372 0 discriminator 3
 1427 03f8 0168     		ldr	r1, [r0]
 1428              	.LVL207:
 1429              		.loc 1 1377 0 discriminator 3
 1430 03fa 0260     		str	r2, [r0]
 1431              	.LBB372:
 1432              	.LBB373:
 1433              		.loc 2 1507 0 discriminator 3
 1434 03fc 2268     		ldr	r2, [r4]
 1435              	.LBE373:
 1436              	.LBE372:
 1437              		.loc 1 1379 0 discriminator 3
 1438 03fe 3844     		add	r0, r0, r7
 1439              	.LVL208:
 1440              	.LBB375:
 1441              	.LBB374:
 1442              		.loc 2 1507 0 discriminator 3
 1443              	@ 1507 "/home/sbcu/Dropbox/pcb-layouts/axo-on-discovery-board/axoloti/platform_linux/../CMSIS//Incl
 1444 0400 D1FA12F2 		qsub16 r2, r1, r2
 1445              	@ 0 "" 2
 1446              	.LVL209:
 1447              		.thumb
 1448              	.LBE374:
 1449              	.LBE375:
 1450              	.LBB376:
 1451              	.LBB377:
 1452              		.loc 2 1611 0 discriminator 3
 1453 0404 009B     		ldr	r3, [sp]
 1454              	.LVL210:
 1455              	@ 1611 "/home/sbcu/Dropbox/pcb-layouts/axo-on-discovery-board/axoloti/platform_linux/../CMSIS//Incl
 1456 0406 E3FA22F1 		shsax r1, r3, r2
 1457              	@ 0 "" 2
 1458              	.LVL211:
 1459              		.thumb
 1460              	.LBE377:
 1461              	.LBE376:
 1462              	.LBB378:
 1463              	.LBB379:
 1464              		.loc 2 1563 0 discriminator 3
 1465              	@ 1563 "/home/sbcu/Dropbox/pcb-layouts/axo-on-discovery-board/axoloti/platform_linux/../CMSIS//Incl
 1466 040a A3FA22F3 		shasx r3, r3, r2
 1467              	@ 0 "" 2
 1468              	.LVL212:
 1469              		.thumb
 1470              	.LBE379:
 1471              	.LBE378:
 1472              	.LBB380:
 1473              	.LBB381:
 1474              		.loc 2 1771 0 discriminator 3
 1475              	@ 1771 "/home/sbcu/Dropbox/pcb-layouts/axo-on-discovery-board/axoloti/platform_linux/../CMSIS//Incl
 1476 040e 4CFB03FB 		smusd fp, ip, r3
 1477              	@ 0 "" 2
 1478              	.LVL213:
 1479              		.thumb
 1480              	.LBE381:
 1481              	.LBE380:
 1482              	.LBB382:
ARM GAS  /tmp/cc3GTUgv.s 			page 27


 1483              	.LBB383:
 1484              		.loc 2 1713 0 discriminator 3
 1485              	@ 1713 "/home/sbcu/Dropbox/pcb-layouts/axo-on-discovery-board/axoloti/platform_linux/../CMSIS//Incl
 1486 0412 2CFB13F3 		smuadx r3, ip, r3
 1487              	@ 0 "" 2
 1488              	.LVL214:
 1489              		.thumb
 1490              	.LBE383:
 1491              	.LBE382:
 1492              		.loc 1 1420 0 discriminator 3
 1493 0416 1B0C     		lsrs	r3, r3, #16
 1494              	.LVL215:
 1495 0418 1B04     		lsls	r3, r3, #16
 1496 041a 43EA1B43 		orr	r3, r3, fp, lsr #16
 1497              		.loc 1 1419 0 discriminator 3
 1498 041e 2B60     		str	r3, [r5]
 1499              	.LVL216:
 1500              		.loc 1 1421 0 discriminator 3
 1501 0420 3D44     		add	r5, r5, r7
 1502              	.LVL217:
 1503              	.LBB384:
 1504              	.LBB385:
 1505              		.loc 2 1771 0 discriminator 3
 1506              	@ 1771 "/home/sbcu/Dropbox/pcb-layouts/axo-on-discovery-board/axoloti/platform_linux/../CMSIS//Incl
 1507 0422 49FB01F3 		smusd r3, r9, r1
 1508              	@ 0 "" 2
 1509              	.LVL218:
 1510              		.thumb
 1511              	.LBE385:
 1512              	.LBE384:
 1513              	.LBB386:
 1514              	.LBB387:
 1515              		.loc 2 1713 0 discriminator 3
 1516              	@ 1713 "/home/sbcu/Dropbox/pcb-layouts/axo-on-discovery-board/axoloti/platform_linux/../CMSIS//Incl
 1517 0426 29FB11F1 		smuadx r1, r9, r1
 1518              	@ 0 "" 2
 1519              	.LVL219:
 1520              		.thumb
 1521              	.LBE387:
 1522              	.LBE386:
 1523              		.loc 1 1440 0 discriminator 3
 1524 042a 090C     		lsrs	r1, r1, #16
 1525              	.LVL220:
 1526 042c 0904     		lsls	r1, r1, #16
 1527              		.loc 1 1315 0 discriminator 3
 1528 042e 019A     		ldr	r2, [sp, #4]
 1529              	.LVL221:
 1530              		.loc 1 1440 0 discriminator 3
 1531 0430 41EA1341 		orr	r1, r1, r3, lsr #16
 1532 0434 7346     		mov	r3, lr
 1533              	.LVL222:
 1534              		.loc 1 1315 0 discriminator 3
 1535 0436 9A42     		cmp	r2, r3
 1536              		.loc 1 1439 0 discriminator 3
 1537 0438 2160     		str	r1, [r4]
 1538 043a D644     		add	lr, lr, r10
 1539              	.LVL223:
ARM GAS  /tmp/cc3GTUgv.s 			page 28


 1540              		.loc 1 1441 0 discriminator 3
 1541 043c 3C44     		add	r4, r4, r7
 1542              	.LVL224:
 1543              		.loc 1 1315 0 discriminator 3
 1544 043e BFD8     		bhi	.L28
 1545              	.LVL225:
 1546              	.L29:
 1547 0440 039A     		ldr	r2, [sp, #12]
 1548              		.loc 1 1299 0
 1549 0442 049B     		ldr	r3, [sp, #16]
 1550 0444 0432     		adds	r2, r2, #4
 1551 0446 0392     		str	r2, [sp, #12]
 1552 0448 079A     		ldr	r2, [sp, #28]
 1553 044a 0133     		adds	r3, r3, #1
 1554 044c 9342     		cmp	r3, r2
 1555 044e 0493     		str	r3, [sp, #16]
 1556              	.LVL226:
 1557 0450 9AD9     		bls	.L26
 1558              		.loc 1 1292 0 discriminator 2
 1559 0452 0A9B     		ldr	r3, [sp, #40]
 1560              	.LVL227:
 1561              		.loc 1 1445 0 discriminator 2
 1562 0454 069A     		ldr	r2, [sp, #24]
 1563              		.loc 1 1296 0 discriminator 2
 1564 0456 DDF82CA0 		ldr	r10, [sp, #44]
 1565              	.LVL228:
 1566              		.loc 1 1292 0 discriminator 2
 1567 045a 9B08     		lsrs	r3, r3, #2
 1568              		.loc 1 1445 0 discriminator 2
 1569 045c 9200     		lsls	r2, r2, #2
 1570              		.loc 1 1292 0 discriminator 2
 1571 045e 042B     		cmp	r3, #4
 1572 0460 0A93     		str	r3, [sp, #40]
 1573              	.LVL229:
 1574              		.loc 1 1445 0 discriminator 2
 1575 0462 0692     		str	r2, [sp, #24]
 1576              	.LVL230:
 1577              		.loc 1 1292 0 discriminator 2
 1578 0464 81D8     		bhi	.L30
 1579              	.LVL231:
 1580              	.L31:
 1581 0466 0C9C     		ldr	r4, [sp, #48]
 1582 0468 0D9E     		ldr	r6, [sp, #52]
 1583 046a 1034     		adds	r4, r4, #16
 1584              	.LVL232:
 1585              	.L24:
 1586              		.loc 1 1477 0 discriminator 1
 1587 046c 54F8103C 		ldr	r3, [r4, #-16]
 1588 0470 54F8087C 		ldr	r7, [r4, #-8]
 1589              	.LVL233:
 1590              	.LBB388:
 1591              	.LBB389:
 1592              		.loc 2 1459 0 discriminator 1
 1593              	@ 1459 "/home/sbcu/Dropbox/pcb-layouts/axo-on-discovery-board/axoloti/platform_linux/../CMSIS//Incl
 1594 0474 93FA17F1 		qadd16 r1, r3, r7
 1595              	@ 0 "" 2
 1596              	.LVL234:
ARM GAS  /tmp/cc3GTUgv.s 			page 29


 1597              		.thumb
 1598              	.LBE389:
 1599              	.LBE388:
 1600              		.loc 1 1480 0 discriminator 1
 1601 0478 54F80C2C 		ldr	r2, [r4, #-12]
 1602 047c 54F8040C 		ldr	r0, [r4, #-4]
 1603              	.LVL235:
 1604              	.LBB390:
 1605              	.LBB391:
 1606              		.loc 2 1459 0 discriminator 1
 1607              	@ 1459 "/home/sbcu/Dropbox/pcb-layouts/axo-on-discovery-board/axoloti/platform_linux/../CMSIS//Incl
 1608 0480 92FA10F5 		qadd16 r5, r2, r0
 1609              	@ 0 "" 2
 1610              	.LVL236:
 1611              		.thumb
 1612              	.LBE391:
 1613              	.LBE390:
 1614              	.LBB392:
 1615              	.LBB393:
 1616              		.loc 2 1467 0 discriminator 1
 1617              	@ 1467 "/home/sbcu/Dropbox/pcb-layouts/axo-on-discovery-board/axoloti/platform_linux/../CMSIS//Incl
 1618 0484 91FA25F5 		shadd16 r5, r1, r5
 1619              	@ 0 "" 2
 1620              	.LVL237:
 1621              		.thumb
 1622              	.LBE393:
 1623              	.LBE392:
 1624              		.loc 1 1488 0 discriminator 1
 1625 0488 44F8105C 		str	r5, [r4, #-16]
 1626              	.LVL238:
 1627              	.LBB394:
 1628              	.LBB395:
 1629              		.loc 2 1459 0 discriminator 1
 1630              	@ 1459 "/home/sbcu/Dropbox/pcb-layouts/axo-on-discovery-board/axoloti/platform_linux/../CMSIS//Incl
 1631 048c 92FA10F5 		qadd16 r5, r2, r0
 1632              	@ 0 "" 2
 1633              	.LVL239:
 1634              		.thumb
 1635              	.LBE395:
 1636              	.LBE394:
 1637              	.LBB396:
 1638              	.LBB397:
 1639              		.loc 2 1515 0 discriminator 1
 1640              	@ 1515 "/home/sbcu/Dropbox/pcb-layouts/axo-on-discovery-board/axoloti/platform_linux/../CMSIS//Incl
 1641 0490 D1FA25F1 		shsub16 r1, r1, r5
 1642              	@ 0 "" 2
 1643              	.LVL240:
 1644              		.thumb
 1645              	.LBE397:
 1646              	.LBE396:
 1647              		.loc 1 1495 0 discriminator 1
 1648 0494 44F80C1C 		str	r1, [r4, #-12]
 1649              	.LVL241:
 1650              	.LBB398:
 1651              	.LBB399:
 1652              		.loc 2 1507 0 discriminator 1
 1653              	@ 1507 "/home/sbcu/Dropbox/pcb-layouts/axo-on-discovery-board/axoloti/platform_linux/../CMSIS//Incl
ARM GAS  /tmp/cc3GTUgv.s 			page 30


 1654 0498 D3FA17F3 		qsub16 r3, r3, r7
 1655              	@ 0 "" 2
 1656              	.LVL242:
 1657              		.thumb
 1658              	.LBE399:
 1659              	.LBE398:
 1660              	.LBB400:
 1661              	.LBB401:
 1662              	@ 1507 "/home/sbcu/Dropbox/pcb-layouts/axo-on-discovery-board/axoloti/platform_linux/../CMSIS//Incl
 1663 049c D2FA10F2 		qsub16 r2, r2, r0
 1664              	@ 0 "" 2
 1665              	.LVL243:
 1666              		.thumb
 1667              	.LBE401:
 1668              	.LBE400:
 1669              	.LBB402:
 1670              	.LBB403:
 1671              		.loc 2 1563 0 discriminator 1
 1672              	@ 1563 "/home/sbcu/Dropbox/pcb-layouts/axo-on-discovery-board/axoloti/platform_linux/../CMSIS//Incl
 1673 04a0 A3FA22F1 		shasx r1, r3, r2
 1674              	@ 0 "" 2
 1675              	.LVL244:
 1676              		.thumb
 1677              	.LBE403:
 1678              	.LBE402:
 1679              		.loc 1 1508 0 discriminator 1
 1680 04a4 44F8081C 		str	r1, [r4, #-8]
 1681              	.LVL245:
 1682              	.LBB404:
 1683              	.LBB405:
 1684              		.loc 2 1611 0 discriminator 1
 1685              	@ 1611 "/home/sbcu/Dropbox/pcb-layouts/axo-on-discovery-board/axoloti/platform_linux/../CMSIS//Incl
 1686 04a8 E3FA22F3 		shsax r3, r3, r2
 1687              	@ 0 "" 2
 1688              	.LVL246:
 1689              		.thumb
 1690              	.LBE405:
 1691              	.LBE404:
 1692              		.loc 1 1529 0 discriminator 1
 1693 04ac 013E     		subs	r6, r6, #1
 1694              	.LVL247:
 1695              		.loc 1 1513 0 discriminator 1
 1696 04ae 44F8043C 		str	r3, [r4, #-4]
 1697              	.LVL248:
 1698 04b2 04F11004 		add	r4, r4, #16
 1699              	.LVL249:
 1700              		.loc 1 1529 0 discriminator 1
 1701 04b6 D9D1     		bne	.L24
 1702              		.loc 1 1922 0
 1703 04b8 0FB0     		add	sp, sp, #60
 1704              		.cfi_def_cfa_offset 36
 1705              		@ sp needed
 1706 04ba BDE8F08F 		pop	{r4, r5, r6, r7, r8, r9, r10, fp, pc}
 1707              		.cfi_endproc
 1708              	.LFE137:
 1709              		.size	arm_radix4_butterfly_inverse_q15, .-arm_radix4_butterfly_inverse_q15
 1710 04be 00BF     		.align	2
ARM GAS  /tmp/cc3GTUgv.s 			page 31


 1711              		.p2align 4,,15
 1712              		.global	arm_cfft_radix4_q15
 1713              		.thumb
 1714              		.thumb_func
 1715              		.type	arm_cfft_radix4_q15, %function
 1716              	arm_cfft_radix4_q15:
 1717              	.LFB135:
 1718              		.loc 1 94 0
 1719              		.cfi_startproc
 1720              		@ args = 0, pretend = 0, frame = 0
 1721              		@ frame_needed = 0, uses_anonymous_args = 0
 1722              	.LVL250:
 1723 04c0 70B5     		push	{r4, r5, r6, lr}
 1724              		.cfi_def_cfa_offset 16
 1725              		.cfi_offset 4, -16
 1726              		.cfi_offset 5, -12
 1727              		.cfi_offset 6, -8
 1728              		.cfi_offset 14, -4
 1729              		.loc 1 95 0
 1730 04c2 8378     		ldrb	r3, [r0, #2]	@ zero_extendqisi2
 1731              		.loc 1 94 0
 1732 04c4 0446     		mov	r4, r0
 1733              		.loc 1 95 0
 1734 04c6 012B     		cmp	r3, #1
 1735              		.loc 1 94 0
 1736 04c8 0D46     		mov	r5, r1
 1737              		.loc 1 98 0
 1738 04ca 0846     		mov	r0, r1
 1739              	.LVL251:
 1740 04cc 6268     		ldr	r2, [r4, #4]
 1741 04ce 2188     		ldrh	r1, [r4]
 1742              	.LVL252:
 1743 04d0 A389     		ldrh	r3, [r4, #12]
 1744              		.loc 1 95 0
 1745 04d2 05D0     		beq	.L45
 1746              		.loc 1 103 0
 1747 04d4 FFF7FEFF 		bl	arm_radix4_butterfly_q15
 1748              	.LVL253:
 1749              		.loc 1 106 0
 1750 04d8 E378     		ldrb	r3, [r4, #3]	@ zero_extendqisi2
 1751 04da 012B     		cmp	r3, #1
 1752 04dc 05D0     		beq	.L46
 1753              	.L40:
 1754 04de 70BD     		pop	{r4, r5, r6, pc}
 1755              	.LVL254:
 1756              	.L45:
 1757              		.loc 1 98 0
 1758 04e0 FFF7FEFF 		bl	arm_radix4_butterfly_inverse_q15
 1759              	.LVL255:
 1760              		.loc 1 106 0
 1761 04e4 E378     		ldrb	r3, [r4, #3]	@ zero_extendqisi2
 1762 04e6 012B     		cmp	r3, #1
 1763 04e8 F9D1     		bne	.L40
 1764              	.L46:
 1765              		.loc 1 109 0
 1766 04ea 2846     		mov	r0, r5
 1767 04ec 2188     		ldrh	r1, [r4]
ARM GAS  /tmp/cc3GTUgv.s 			page 32


 1768 04ee E289     		ldrh	r2, [r4, #14]
 1769 04f0 A368     		ldr	r3, [r4, #8]
 1770              		.loc 1 112 0
 1771 04f2 BDE87040 		pop	{r4, r5, r6, lr}
 1772              		.cfi_restore 14
 1773              		.cfi_restore 6
 1774              		.cfi_restore 5
 1775              		.cfi_restore 4
 1776              		.cfi_def_cfa_offset 0
 1777              	.LVL256:
 1778              		.loc 1 109 0
 1779 04f6 FFF7FEBF 		b	arm_bitreversal_q15
 1780              	.LVL257:
 1781              		.cfi_endproc
 1782              	.LFE135:
 1783              		.size	arm_cfft_radix4_q15, .-arm_cfft_radix4_q15
 1784              	.Letext0:
 1785              		.file 3 "/home/sbcu/Dropbox/pcb-layouts/axo-on-discovery-board/axoloti/platform_linux/arm-none-eab
 1786              		.file 4 "/home/sbcu/Dropbox/pcb-layouts/axo-on-discovery-board/axoloti/platform_linux/arm-none-eab
 1787              		.file 5 "/home/sbcu/Dropbox/pcb-layouts/axo-on-discovery-board/axoloti/platform_linux/../CMSIS//DS