ARM GAS  /tmp/ccPGtQcB.s 			page 1


   1              		.syntax unified
   2              		.cpu cortex-m4
   3              		.eabi_attribute 27, 1
   4              		.eabi_attribute 28, 1
   5              		.fpu fpv4-sp-d16
   6              		.eabi_attribute 20, 1
   7              		.eabi_attribute 21, 1
   8              		.eabi_attribute 23, 3
   9              		.eabi_attribute 24, 1
  10              		.eabi_attribute 25, 1
  11              		.eabi_attribute 26, 1
  12              		.eabi_attribute 30, 2
  13              		.eabi_attribute 34, 1
  14              		.eabi_attribute 18, 4
  15              		.thumb
  16              		.file	"arm_fir_init_q31.c"
  17              		.text
  18              	.Ltext0:
  19              		.cfi_sections	.debug_frame
  20              		.align	2
  21              		.p2align 4,,15
  22              		.global	arm_fir_init_q31
  23              		.thumb
  24              		.thumb_func
  25              		.type	arm_fir_init_q31, %function
  26              	arm_fir_init_q31:
  27              	.LFB135:
  28              		.file 1 "/home/sbcu/Dropbox/pcb-layouts/axo-on-discovery-board/axoloti/platform_linux/../CMSIS//DS
  29              		.loc 1 79 0
  30              		.cfi_startproc
  31              		@ args = 4, pretend = 0, frame = 0
  32              		@ frame_needed = 0, uses_anonymous_args = 0
  33              	.LVL0:
  34 0000 70B5     		push	{r4, r5, r6, lr}
  35              		.cfi_def_cfa_offset 16
  36              		.cfi_offset 4, -16
  37              		.cfi_offset 5, -12
  38              		.cfi_offset 6, -8
  39              		.cfi_offset 14, -4
  40              		.loc 1 79 0
  41 0002 049C     		ldr	r4, [sp, #16]
  42              		.loc 1 84 0
  43 0004 8260     		str	r2, [r0, #8]
  44 0006 04F18044 		add	r4, r4, #1073741824
  45 000a 013C     		subs	r4, r4, #1
  46              		.loc 1 79 0
  47 000c 0546     		mov	r5, r0
  48              		.loc 1 87 0
  49 000e 0C44     		add	r4, r4, r1
  50              		.loc 1 81 0
  51 0010 0180     		strh	r1, [r0]	@ movhi
  52              		.loc 1 79 0
  53 0012 1E46     		mov	r6, r3
  54              		.loc 1 87 0
  55 0014 A200     		lsls	r2, r4, #2
  56              	.LVL1:
  57 0016 1846     		mov	r0, r3
ARM GAS  /tmp/ccPGtQcB.s 			page 2


  58              	.LVL2:
  59 0018 0021     		movs	r1, #0
  60              	.LVL3:
  61 001a FFF7FEFF 		bl	memset
  62              	.LVL4:
  63              		.loc 1 90 0
  64 001e 6E60     		str	r6, [r5, #4]
  65 0020 70BD     		pop	{r4, r5, r6, pc}
  66              		.cfi_endproc
  67              	.LFE135:
  68              		.size	arm_fir_init_q31, .-arm_fir_init_q31
  69              	.Letext0:
  70              		.file 2 "/home/sbcu/Dropbox/pcb-layouts/axo-on-discovery-board/axoloti/platform_linux/arm-none-eab
  71              		.file 3 "/home/sbcu/Dropbox/pcb-layouts/axo-on-discovery-board/axoloti/platform_linux/arm-none-eab
  72              		.file 4 "/home/sbcu/Dropbox/pcb-layouts/axo-on-discovery-board/axoloti/platform_linux/../CMSIS//DS