ARM GAS  /tmp/ccYBX92y.s 			page 1


   1              		.syntax unified
   2              		.cpu cortex-m4
   3              		.eabi_attribute 27, 1
   4              		.eabi_attribute 28, 1
   5              		.fpu fpv4-sp-d16
   6              		.eabi_attribute 20, 1
   7              		.eabi_attribute 21, 1
   8              		.eabi_attribute 23, 3
   9              		.eabi_attribute 24, 1
  10              		.eabi_attribute 25, 1
  11              		.eabi_attribute 26, 1
  12              		.eabi_attribute 30, 2
  13              		.eabi_attribute 34, 1
  14              		.eabi_attribute 18, 4
  15              		.thumb
  16              		.file	"arm_bitreversal.c"
  17              		.text
  18              	.Ltext0:
  19              		.cfi_sections	.debug_frame
  20              		.align	2
  21              		.p2align 4,,15
  22              		.global	arm_bitreversal_f32
  23              		.thumb
  24              		.thumb_func
  25              		.type	arm_bitreversal_f32, %function
  26              	arm_bitreversal_f32:
  27              	.LFB135:
  28              		.file 1 "/home/sbcu/Dropbox/pcb-layouts/axo-on-discovery-board/axoloti/platform_linux/../CMSIS//DS
  29              		.loc 1 58 0
  30              		.cfi_startproc
  31              		@ args = 0, pretend = 0, frame = 24
  32              		@ frame_needed = 0, uses_anonymous_args = 0
  33              	.LVL0:
  34 0000 2DE9F04F 		push	{r4, r5, r6, r7, r8, r9, r10, fp, lr}
  35              		.cfi_def_cfa_offset 36
  36              		.cfi_offset 4, -36
  37              		.cfi_offset 5, -32
  38              		.cfi_offset 6, -28
  39              		.cfi_offset 7, -24
  40              		.cfi_offset 8, -20
  41              		.cfi_offset 9, -16
  42              		.cfi_offset 10, -12
  43              		.cfi_offset 11, -8
  44              		.cfi_offset 14, -4
  45 0004 87B0     		sub	sp, sp, #28
  46              		.cfi_def_cfa_offset 64
  47              		.loc 1 65 0
  48 0006 4908     		lsrs	r1, r1, #1
  49              	.LVL1:
  50 0008 5200     		lsls	r2, r2, #1
  51              	.LVL2:
  52              		.loc 1 69 0
  53 000a 0025     		movs	r5, #0
  54 000c 0592     		str	r2, [sp, #20]
  55 000e 8A1E     		subs	r2, r1, #2
  56 0010 0492     		str	r2, [sp, #16]
  57              		.loc 1 65 0
ARM GAS  /tmp/ccYBX92y.s 			page 2


  58 0012 0391     		str	r1, [sp, #12]
  59              	.LVL3:
  60              		.loc 1 66 0
  61 0014 01F10108 		add	r8, r1, #1
  62              	.LVL4:
  63              		.loc 1 69 0
  64 0018 2A46     		mov	r2, r5
  65 001a 2C46     		mov	r4, r5
  66 001c 0193     		str	r3, [sp, #4]
  67              	.LVL5:
  68              	.L2:
  69              		.loc 1 97 0 discriminator 2
  70 001e 611C     		adds	r1, r4, #1
  71              		.loc 1 98 0 discriminator 2
  72 0020 039C     		ldr	r4, [sp, #12]
  73              		.loc 1 107 0 discriminator 2
  74 0022 019B     		ldr	r3, [sp, #4]
  75              		.loc 1 98 0 discriminator 2
  76 0024 2244     		add	r2, r2, r4
  77 0026 D400     		lsls	r4, r2, #3
  78              		.loc 1 97 0 discriminator 2
  79 0028 C900     		lsls	r1, r1, #3
  80 002a 4618     		adds	r6, r0, r1
  81              		.loc 1 98 0 discriminator 2
  82 002c 0719     		adds	r7, r0, r4
  83              		.loc 1 69 0 discriminator 2
  84 002e 0235     		adds	r5, r5, #2
  85              		.loc 1 97 0 discriminator 2
  86 0030 D6F800E0 		ldr	lr, [r6]	@ float
  87              	.LVL6:
  88              		.loc 1 98 0 discriminator 2
  89 0034 D7F800C0 		ldr	ip, [r7]	@ float
  90              		.loc 1 107 0 discriminator 2
  91 0038 1A88     		ldrh	r2, [r3]
  92              	.LVL7:
  93              		.loc 1 98 0 discriminator 2
  94 003a C6F800C0 		str	ip, [r6]	@ float
  95              		.loc 1 69 0 discriminator 2
  96 003e ADB2     		uxth	r5, r5
  97              		.loc 1 103 0 discriminator 2
  98 0040 0434     		adds	r4, r4, #4
  99              		.loc 1 99 0 discriminator 2
 100 0042 C7F800E0 		str	lr, [r7]	@ float
 101              		.loc 1 103 0 discriminator 2
 102 0046 0444     		add	r4, r4, r0
 103              		.loc 1 84 0 discriminator 2
 104 0048 05EB0807 		add	r7, r5, r8
 105              		.loc 1 103 0 discriminator 2
 106 004c 94ED007A 		flds	s14, [r4]
 107              		.loc 1 84 0 discriminator 2
 108 0050 FF00     		lsls	r7, r7, #3
 109              		.loc 1 102 0 discriminator 2
 110 0052 0431     		adds	r1, r1, #4
 111 0054 0144     		add	r1, r1, r0
 112              		.loc 1 84 0 discriminator 2
 113 0056 C319     		adds	r3, r0, r7
 114              		.loc 1 102 0 discriminator 2
ARM GAS  /tmp/ccYBX92y.s 			page 3


 115 0058 D1ED007A 		flds	s15, [r1]
 116              	.LVL8:
 117              		.loc 1 84 0 discriminator 2
 118 005c 0293     		str	r3, [sp, #8]
 119              		.loc 1 75 0 discriminator 2
 120 005e D600     		lsls	r6, r2, #3
 121              		.loc 1 103 0 discriminator 2
 122 0060 81ED007A 		fsts	s14, [r1]
 123              		.loc 1 110 0 discriminator 2
 124 0064 059B     		ldr	r3, [sp, #20]
 125 0066 0199     		ldr	r1, [sp, #4]
 126              		.loc 1 104 0 discriminator 2
 127 0068 C4ED007A 		fsts	s15, [r4]
 128              		.loc 1 75 0 discriminator 2
 129 006c 00EB060B 		add	fp, r0, r6
 130              		.loc 1 80 0 discriminator 2
 131 0070 0436     		adds	r6, r6, #4
 132              		.loc 1 110 0 discriminator 2
 133 0072 1944     		add	r1, r1, r3
 134              		.loc 1 80 0 discriminator 2
 135 0074 00EB060C 		add	ip, r0, r6
 136              		.loc 1 69 0 discriminator 2
 137 0078 049B     		ldr	r3, [sp, #16]
 138              		.loc 1 110 0 discriminator 2
 139 007a 0191     		str	r1, [sp, #4]
 140              	.LVL9:
 141              		.loc 1 85 0 discriminator 2
 142 007c 08EB0206 		add	r6, r8, r2
 143 0080 F600     		lsls	r6, r6, #3
 144              		.loc 1 74 0 discriminator 2
 145 0082 4FEAC50E 		lsl	lr, r5, #3
 146              		.loc 1 85 0 discriminator 2
 147 0086 00EB060A 		add	r10, r0, r6
 148              		.loc 1 74 0 discriminator 2
 149 008a 00EB0E09 		add	r9, r0, lr
 150              		.loc 1 89 0 discriminator 2
 151 008e 0437     		adds	r7, r7, #4
 152              		.loc 1 79 0 discriminator 2
 153 0090 0EF1040E 		add	lr, lr, #4
 154              		.loc 1 91 0 discriminator 2
 155 0094 0436     		adds	r6, r6, #4
 156              		.loc 1 69 0 discriminator 2
 157 0096 9D42     		cmp	r5, r3
 158              		.loc 1 79 0 discriminator 2
 159 0098 8644     		add	lr, lr, r0
 160              		.loc 1 69 0 discriminator 2
 161 009a 2C46     		mov	r4, r5
 162              		.loc 1 89 0 discriminator 2
 163 009c 0744     		add	r7, r7, r0
 164              		.loc 1 91 0 discriminator 2
 165 009e 0644     		add	r6, r6, r0
 166              		.loc 1 69 0 discriminator 2
 167 00a0 20D8     		bhi	.L7
 168              		.loc 1 71 0
 169 00a2 AA42     		cmp	r2, r5
 170 00a4 BBD9     		bls	.L2
 171              		.loc 1 75 0
ARM GAS  /tmp/ccYBX92y.s 			page 4


 172 00a6 DBED007A 		flds	s15, [fp]
 173              	.LVL10:
 174              		.loc 1 74 0
 175 00aa D9F80010 		ldr	r1, [r9]	@ float
 176              	.LVL11:
 177              		.loc 1 75 0
 178 00ae C9ED007A 		fsts	s15, [r9]
 179              		.loc 1 76 0
 180 00b2 CBF80010 		str	r1, [fp]	@ float
 181              		.loc 1 79 0
 182 00b6 DEF80010 		ldr	r1, [lr]	@ float
 183              	.LVL12:
 184              		.loc 1 80 0
 185 00ba DCF80090 		ldr	r9, [ip]	@ float
 186              		.loc 1 84 0
 187 00be 029B     		ldr	r3, [sp, #8]
 188              		.loc 1 80 0
 189 00c0 CEF80090 		str	r9, [lr]	@ float
 190              		.loc 1 81 0
 191 00c4 CCF80010 		str	r1, [ip]	@ float
 192              		.loc 1 84 0
 193 00c8 1968     		ldr	r1, [r3]	@ float
 194              	.LVL13:
 195              		.loc 1 85 0
 196 00ca DAF800E0 		ldr	lr, [r10]	@ float
 197 00ce C3F800E0 		str	lr, [r3]	@ float
 198              		.loc 1 86 0
 199 00d2 CAF80010 		str	r1, [r10]	@ float
 200              		.loc 1 89 0
 201 00d6 3968     		ldr	r1, [r7]	@ float
 202              	.LVL14:
 203              		.loc 1 91 0
 204 00d8 D6F800E0 		ldr	lr, [r6]	@ float
 205              		.loc 1 90 0
 206 00dc C7F800E0 		str	lr, [r7]	@ float
 207              		.loc 1 92 0
 208 00e0 3160     		str	r1, [r6]	@ float
 209 00e2 9CE7     		b	.L2
 210              	.LVL15:
 211              	.L7:
 212              		.loc 1 112 0
 213 00e4 07B0     		add	sp, sp, #28
 214              		.cfi_def_cfa_offset 36
 215              		@ sp needed
 216 00e6 BDE8F08F 		pop	{r4, r5, r6, r7, r8, r9, r10, fp, pc}
 217              		.cfi_endproc
 218              	.LFE135:
 219              		.size	arm_bitreversal_f32, .-arm_bitreversal_f32
 220 00ea 00BF     		.align	2
 221 00ec AFF30080 		.p2align 4,,15
 222              		.global	arm_bitreversal_q31
 223              		.thumb
 224              		.thumb_func
 225              		.type	arm_bitreversal_q31, %function
 226              	arm_bitreversal_q31:
 227              	.LFB136:
 228              		.loc 1 130 0
ARM GAS  /tmp/ccYBX92y.s 			page 5


 229              		.cfi_startproc
 230              		@ args = 0, pretend = 0, frame = 8
 231              		@ frame_needed = 0, uses_anonymous_args = 0
 232              	.LVL16:
 233 00f0 2DE9F04F 		push	{r4, r5, r6, r7, r8, r9, r10, fp, lr}
 234              		.cfi_def_cfa_offset 36
 235              		.cfi_offset 4, -36
 236              		.cfi_offset 5, -32
 237              		.cfi_offset 6, -28
 238              		.cfi_offset 7, -24
 239              		.cfi_offset 8, -20
 240              		.cfi_offset 9, -16
 241              		.cfi_offset 10, -12
 242              		.cfi_offset 11, -8
 243              		.cfi_offset 14, -4
 244              		.loc 1 136 0
 245 00f4 4908     		lsrs	r1, r1, #1
 246              	.LVL17:
 247              		.loc 1 130 0
 248 00f6 83B0     		sub	sp, sp, #12
 249              		.cfi_def_cfa_offset 48
 250              		.loc 1 140 0
 251 00f8 0027     		movs	r7, #0
 252 00fa 4FEA420B 		lsl	fp, r2, #1
 253 00fe 8A1E     		subs	r2, r1, #2
 254              	.LVL18:
 255              		.loc 1 137 0
 256 0100 01F1010A 		add	r10, r1, #1
 257              	.LVL19:
 258              		.loc 1 140 0
 259 0104 0192     		str	r2, [sp, #4]
 260 0106 0546     		mov	r5, r0
 261 0108 00EBC108 		add	r8, r0, r1, lsl #3
 262              		.loc 1 135 0
 263 010c 3C46     		mov	r4, r7
 264 010e 8946     		mov	r9, r1
 265 0110 1EE0     		b	.L9
 266              	.LVL20:
 267              	.L11:
 268              		.loc 1 142 0
 269 0112 BC42     		cmp	r4, r7
 270 0114 19D9     		bls	.L10
 271              		.loc 1 146 0
 272 0116 50F83410 		ldr	r1, [r0, r4, lsl #3]
 273              	.LVL21:
 274              		.loc 1 145 0
 275 011a 2A69     		ldr	r2, [r5, #16]
 276              	.LVL22:
 277              		.loc 1 146 0
 278 011c 2961     		str	r1, [r5, #16]
 279              		.loc 1 147 0
 280 011e 40F83420 		str	r2, [r0, r4, lsl #3]
 281              		.loc 1 150 0
 282 0122 6A69     		ldr	r2, [r5, #20]
 283              	.LVL23:
 284              		.loc 1 151 0
 285 0124 50F80E10 		ldr	r1, [r0, lr]
ARM GAS  /tmp/ccYBX92y.s 			page 6


 286 0128 6961     		str	r1, [r5, #20]
 287              		.loc 1 152 0
 288 012a 40F80E20 		str	r2, [r0, lr]
 289              		.loc 1 156 0
 290 012e 50F83C20 		ldr	r2, [r0, ip, lsl #3]
 291              	.LVL24:
 292              		.loc 1 155 0
 293 0132 D8F81810 		ldr	r1, [r8, #24]
 294              	.LVL25:
 295              		.loc 1 156 0
 296 0136 C8F81820 		str	r2, [r8, #24]
 297              		.loc 1 157 0
 298 013a 40F83C10 		str	r1, [r0, ip, lsl #3]
 299              		.loc 1 160 0
 300 013e D8F81C10 		ldr	r1, [r8, #28]
 301              	.LVL26:
 302              		.loc 1 162 0
 303 0142 8259     		ldr	r2, [r0, r6]
 304              		.loc 1 161 0
 305 0144 C8F81C20 		str	r2, [r8, #28]
 306              		.loc 1 163 0
 307 0148 8151     		str	r1, [r0, r6]
 308              	.L10:
 309 014a 1035     		adds	r5, r5, #16
 310 014c 08F11008 		add	r8, r8, #16
 311              	.LVL27:
 312              	.L9:
 313              		.loc 1 169 0 discriminator 2
 314 0150 4C44     		add	r4, r4, r9
 315              		.loc 1 168 0 discriminator 2
 316 0152 A968     		ldr	r1, [r5, #8]
 317              	.LVL28:
 318              		.loc 1 169 0 discriminator 2
 319 0154 50F83420 		ldr	r2, [r0, r4, lsl #3]
 320 0158 AA60     		str	r2, [r5, #8]
 321 015a E200     		lsls	r2, r4, #3
 322              		.loc 1 170 0 discriminator 2
 323 015c 40F83410 		str	r1, [r0, r4, lsl #3]
 324              		.loc 1 174 0 discriminator 2
 325 0160 0432     		adds	r2, r2, #4
 326              		.loc 1 178 0 discriminator 2
 327 0162 1C88     		ldrh	r4, [r3]
 328              		.loc 1 174 0 discriminator 2
 329 0164 8658     		ldr	r6, [r0, r2]
 330              		.loc 1 173 0 discriminator 2
 331 0166 E968     		ldr	r1, [r5, #12]
 332              	.LVL29:
 333              		.loc 1 174 0 discriminator 2
 334 0168 EE60     		str	r6, [r5, #12]
 335              		.loc 1 175 0 discriminator 2
 336 016a 8150     		str	r1, [r0, r2]
 337              		.loc 1 140 0 discriminator 2
 338 016c 019A     		ldr	r2, [sp, #4]
 339 016e 0237     		adds	r7, r7, #2
 340              	.LVL30:
 341              		.loc 1 156 0 discriminator 2
 342 0170 04EB0A0C 		add	ip, r4, r10
ARM GAS  /tmp/ccYBX92y.s 			page 7


 343              		.loc 1 146 0 discriminator 2
 344 0174 4FEAC40E 		lsl	lr, r4, #3
 345              		.loc 1 156 0 discriminator 2
 346 0178 4FEACC06 		lsl	r6, ip, #3
 347              		.loc 1 140 0 discriminator 2
 348 017c 9742     		cmp	r7, r2
 349              		.loc 1 151 0 discriminator 2
 350 017e 0EF1040E 		add	lr, lr, #4
 351              		.loc 1 162 0 discriminator 2
 352 0182 06F10406 		add	r6, r6, #4
 353              		.loc 1 181 0 discriminator 2
 354 0186 5B44     		add	r3, r3, fp
 355              	.LVL31:
 356              		.loc 1 140 0 discriminator 2
 357 0188 C3D9     		bls	.L11
 358              		.loc 1 183 0
 359 018a 03B0     		add	sp, sp, #12
 360              		.cfi_def_cfa_offset 36
 361              		@ sp needed
 362 018c BDE8F08F 		pop	{r4, r5, r6, r7, r8, r9, r10, fp, pc}
 363              		.cfi_endproc
 364              	.LFE136:
 365              		.size	arm_bitreversal_q31, .-arm_bitreversal_q31
 366              		.align	2
 367              		.p2align 4,,15
 368              		.global	arm_bitreversal_q15
 369              		.thumb
 370              		.thumb_func
 371              		.type	arm_bitreversal_q15, %function
 372              	arm_bitreversal_q15:
 373              	.LFB137:
 374              		.loc 1 201 0
 375              		.cfi_startproc
 376              		@ args = 0, pretend = 0, frame = 0
 377              		@ frame_needed = 0, uses_anonymous_args = 0
 378              	.LVL32:
 379 0190 2DE9F04F 		push	{r4, r5, r6, r7, r8, r9, r10, fp, lr}
 380              		.cfi_def_cfa_offset 36
 381              		.cfi_offset 4, -36
 382              		.cfi_offset 5, -32
 383              		.cfi_offset 6, -28
 384              		.cfi_offset 7, -24
 385              		.cfi_offset 8, -20
 386              		.cfi_offset 9, -16
 387              		.cfi_offset 10, -12
 388              		.cfi_offset 11, -8
 389              		.cfi_offset 14, -4
 390              		.loc 1 209 0
 391 0194 4908     		lsrs	r1, r1, #1
 392              	.LVL33:
 393              		.loc 1 213 0
 394 0196 0026     		movs	r6, #0
 395 0198 4FEA420B 		lsl	fp, r2, #1
 396              		.loc 1 210 0
 397 019c 01F10108 		add	r8, r1, #1
 398              	.LVL34:
 399              		.loc 1 213 0
ARM GAS  /tmp/ccYBX92y.s 			page 8


 400 01a0 A1F1020C 		sub	ip, r1, #2
 401 01a4 0546     		mov	r5, r0
 402 01a6 00EB810E 		add	lr, r0, r1, lsl #2
 403              		.loc 1 208 0
 404 01aa 3446     		mov	r4, r6
 405 01ac 12E0     		b	.L14
 406              	.LVL35:
 407              	.L16:
 408              		.loc 1 215 0
 409 01ae B442     		cmp	r4, r6
 410 01b0 0DD9     		bls	.L15
 411              		.loc 1 219 0
 412 01b2 AF68     		ldr	r7, [r5, #8]
 413              	.LVL36:
 414              		.loc 1 220 0
 415 01b4 50F82420 		ldr	r2, [r0, r4, lsl #2]
 416 01b8 AA60     		str	r2, [r5, #8]
 417              		.loc 1 221 0
 418 01ba 40F82470 		str	r7, [r0, r4, lsl #2]
 419              		.loc 1 225 0
 420 01be DEF80C70 		ldr	r7, [lr, #12]
 421              	.LVL37:
 422              		.loc 1 226 0
 423 01c2 50F82920 		ldr	r2, [r0, r9, lsl #2]
 424 01c6 CEF80C20 		str	r2, [lr, #12]
 425              		.loc 1 227 0
 426 01ca 40F82970 		str	r7, [r0, r9, lsl #2]
 427              	.LVL38:
 428              	.L15:
 429 01ce 0835     		adds	r5, r5, #8
 430 01d0 0EF1080E 		add	lr, lr, #8
 431              	.LVL39:
 432              	.L14:
 433              		.loc 1 233 0 discriminator 2
 434 01d4 6718     		adds	r7, r4, r1
 435              		.loc 1 213 0 discriminator 2
 436 01d6 0236     		adds	r6, r6, #2
 437              		.loc 1 237 0 discriminator 2
 438 01d8 1C88     		ldrh	r4, [r3]
 439              		.loc 1 232 0 discriminator 2
 440 01da D5F804A0 		ldr	r10, [r5, #4]
 441              	.LVL40:
 442              		.loc 1 233 0 discriminator 2
 443 01de 50F82720 		ldr	r2, [r0, r7, lsl #2]
 444 01e2 6A60     		str	r2, [r5, #4]
 445              		.loc 1 213 0 discriminator 2
 446 01e4 6645     		cmp	r6, ip
 447              		.loc 1 226 0 discriminator 2
 448 01e6 04EB0809 		add	r9, r4, r8
 449              		.loc 1 234 0 discriminator 2
 450 01ea 40F827A0 		str	r10, [r0, r7, lsl #2]
 451              		.loc 1 240 0 discriminator 2
 452 01ee 5B44     		add	r3, r3, fp
 453              	.LVL41:
 454              		.loc 1 213 0 discriminator 2
 455 01f0 DDD9     		bls	.L16
 456              		.loc 1 242 0
ARM GAS  /tmp/ccYBX92y.s 			page 9


 457 01f2 BDE8F08F 		pop	{r4, r5, r6, r7, r8, r9, r10, fp, pc}
 458              		.cfi_endproc
 459              	.LFE137:
 460              		.size	arm_bitreversal_q15, .-arm_bitreversal_q15
 461              	.Letext0:
 462              		.file 2 "/home/sbcu/Dropbox/pcb-layouts/axo-on-discovery-board/axoloti/platform_linux/arm-none-eab
 463              		.file 3 "/home/sbcu/Dropbox/pcb-layouts/axo-on-discovery-board/axoloti/platform_linux/arm-none-eab
 464              		.file 4 "/home/sbcu/Dropbox/pcb-layouts/axo-on-discovery-board/axoloti/platform_linux/../CMSIS//DS
 465 01f6 00BF     		.section	.debug_info,"",%progbits
 466              	.Ldebug_info0:
 467 0000 DE020000 		.4byte	0x2de
 468 0004 0400     		.2byte	0x4
 469 0006 00000000 		.4byte	.Ldebug_abbrev0
 470 000a 04       		.byte	0x4
 471 000b 01       		.uleb128 0x1
 472 000c 27000000 		.4byte	.LASF36
 473 0010 01       		.byte	0x1
 474 0011 24020000 		.4byte	.LASF37
 475 0015 00000000 		.4byte	.Ltext0
 476 0019 F6010000 		.4byte	.Letext0-.Ltext0
 477 001d 00000000 		.4byte	.Ldebug_line0
 478 0021 02       		.uleb128 0x2
 479 0022 01       		.byte	0x1
 480 0023 06       		.byte	0x6
 481 0024 0A030000 		.4byte	.LASF0
 482 0028 02       		.uleb128 0x2
 483 0029 01       		.byte	0x1
 484 002a 08       		.byte	0x8
 485 002b 40010000 		.4byte	.LASF1
 486 002f 03       		.uleb128 0x3
 487 0030 00000000 		.4byte	.LASF3
 488 0034 02       		.byte	0x2
 489 0035 29       		.byte	0x29
 490 0036 3A000000 		.4byte	0x3a
 491 003a 02       		.uleb128 0x2
 492 003b 02       		.byte	0x2
 493 003c 05       		.byte	0x5
 494 003d D9020000 		.4byte	.LASF2
 495 0041 03       		.uleb128 0x3
 496 0042 98010000 		.4byte	.LASF4
 497 0046 02       		.byte	0x2
 498 0047 2B       		.byte	0x2b
 499 0048 4C000000 		.4byte	0x4c
 500 004c 02       		.uleb128 0x2
 501 004d 02       		.byte	0x2
 502 004e 07       		.byte	0x7
 503 004f 7E010000 		.4byte	.LASF5
 504 0053 03       		.uleb128 0x3
 505 0054 0A000000 		.4byte	.LASF6
 506 0058 02       		.byte	0x2
 507 0059 3F       		.byte	0x3f
 508 005a 5E000000 		.4byte	0x5e
 509 005e 02       		.uleb128 0x2
 510 005f 04       		.byte	0x4
 511 0060 05       		.byte	0x5
 512 0061 F5020000 		.4byte	.LASF7
 513 0065 03       		.uleb128 0x3
ARM GAS  /tmp/ccYBX92y.s 			page 10


 514 0066 B6010000 		.4byte	.LASF8
 515 006a 02       		.byte	0x2
 516 006b 41       		.byte	0x41
 517 006c 70000000 		.4byte	0x70
 518 0070 02       		.uleb128 0x2
 519 0071 04       		.byte	0x4
 520 0072 07       		.byte	0x7
 521 0073 6C010000 		.4byte	.LASF9
 522 0077 02       		.uleb128 0x2
 523 0078 08       		.byte	0x8
 524 0079 05       		.byte	0x5
 525 007a AF020000 		.4byte	.LASF10
 526 007e 02       		.uleb128 0x2
 527 007f 08       		.byte	0x8
 528 0080 07       		.byte	0x7
 529 0081 E9010000 		.4byte	.LASF11
 530 0085 04       		.uleb128 0x4
 531 0086 04       		.byte	0x4
 532 0087 05       		.byte	0x5
 533 0088 696E7400 		.ascii	"int\000"
 534 008c 02       		.uleb128 0x2
 535 008d 04       		.byte	0x4
 536 008e 07       		.byte	0x7
 537 008f D5010000 		.4byte	.LASF12
 538 0093 03       		.uleb128 0x3
 539 0094 0B020000 		.4byte	.LASF13
 540 0098 03       		.byte	0x3
 541 0099 19       		.byte	0x19
 542 009a 2F000000 		.4byte	0x2f
 543 009e 03       		.uleb128 0x3
 544 009f E3020000 		.4byte	.LASF14
 545 00a3 03       		.byte	0x3
 546 00a4 1A       		.byte	0x1a
 547 00a5 41000000 		.4byte	0x41
 548 00a9 03       		.uleb128 0x3
 549 00aa 13020000 		.4byte	.LASF15
 550 00ae 03       		.byte	0x3
 551 00af 1F       		.byte	0x1f
 552 00b0 53000000 		.4byte	0x53
 553 00b4 03       		.uleb128 0x3
 554 00b5 EC020000 		.4byte	.LASF16
 555 00b9 03       		.byte	0x3
 556 00ba 20       		.byte	0x20
 557 00bb 65000000 		.4byte	0x65
 558 00bf 02       		.uleb128 0x2
 559 00c0 04       		.byte	0x4
 560 00c1 07       		.byte	0x7
 561 00c2 1B020000 		.4byte	.LASF17
 562 00c6 02       		.uleb128 0x2
 563 00c7 01       		.byte	0x1
 564 00c8 08       		.byte	0x8
 565 00c9 BD020000 		.4byte	.LASF18
 566 00cd 02       		.uleb128 0x2
 567 00ce 08       		.byte	0x8
 568 00cf 04       		.byte	0x4
 569 00d0 A3010000 		.4byte	.LASF19
 570 00d4 02       		.uleb128 0x2
ARM GAS  /tmp/ccYBX92y.s 			page 11


 571 00d5 04       		.byte	0x4
 572 00d6 04       		.byte	0x4
 573 00d7 26010000 		.4byte	.LASF20
 574 00db 02       		.uleb128 0x2
 575 00dc 08       		.byte	0x8
 576 00dd 04       		.byte	0x4
 577 00de FE020000 		.4byte	.LASF21
 578 00e2 05       		.uleb128 0x5
 579 00e3 20010000 		.4byte	.LASF22
 580 00e7 04       		.byte	0x4
 581 00e8 9B01     		.2byte	0x19b
 582 00ea 93000000 		.4byte	0x93
 583 00ee 05       		.uleb128 0x5
 584 00ef 14000000 		.4byte	.LASF23
 585 00f3 04       		.byte	0x4
 586 00f4 A001     		.2byte	0x1a0
 587 00f6 A9000000 		.4byte	0xa9
 588 00fa 05       		.uleb128 0x5
 589 00fb C2020000 		.4byte	.LASF24
 590 00ff 04       		.byte	0x4
 591 0100 AA01     		.2byte	0x1aa
 592 0102 D4000000 		.4byte	0xd4
 593 0106 06       		.uleb128 0x6
 594 0107 04       		.byte	0x4
 595 0108 E2000000 		.4byte	0xe2
 596 010c 06       		.uleb128 0x6
 597 010d 04       		.byte	0x4
 598 010e EE000000 		.4byte	0xee
 599 0112 06       		.uleb128 0x6
 600 0113 04       		.byte	0x4
 601 0114 FA000000 		.4byte	0xfa
 602 0118 06       		.uleb128 0x6
 603 0119 04       		.byte	0x4
 604 011a 9E000000 		.4byte	0x9e
 605 011e 07       		.uleb128 0x7
 606 011f C1010000 		.4byte	.LASF31
 607 0123 01       		.byte	0x1
 608 0124 35       		.byte	0x35
 609 0125 00000000 		.4byte	.LFB135
 610 0129 EA000000 		.4byte	.LFE135-.LFB135
 611 012d 01       		.uleb128 0x1
 612 012e 9C       		.byte	0x9c
 613 012f B2010000 		.4byte	0x1b2
 614 0133 08       		.uleb128 0x8
 615 0134 1E030000 		.4byte	.LASF25
 616 0138 01       		.byte	0x1
 617 0139 36       		.byte	0x36
 618 013a 12010000 		.4byte	0x112
 619 013e 01       		.uleb128 0x1
 620 013f 50       		.byte	0x50
 621 0140 09       		.uleb128 0x9
 622 0141 16030000 		.4byte	.LASF26
 623 0145 01       		.byte	0x1
 624 0146 37       		.byte	0x37
 625 0147 9E000000 		.4byte	0x9e
 626 014b 00000000 		.4byte	.LLST0
 627 014f 09       		.uleb128 0x9
ARM GAS  /tmp/ccYBX92y.s 			page 12


 628 0150 CC020000 		.4byte	.LASF27
 629 0154 01       		.byte	0x1
 630 0155 38       		.byte	0x38
 631 0156 9E000000 		.4byte	0x9e
 632 015a 21000000 		.4byte	.LLST1
 633 015e 09       		.uleb128 0x9
 634 015f 00020000 		.4byte	.LASF28
 635 0163 01       		.byte	0x1
 636 0164 39       		.byte	0x39
 637 0165 18010000 		.4byte	0x118
 638 0169 42000000 		.4byte	.LLST2
 639 016d 0A       		.uleb128 0xa
 640 016e 62010000 		.4byte	.LASF29
 641 0172 01       		.byte	0x1
 642 0173 3B       		.byte	0x3b
 643 0174 9E000000 		.4byte	0x9e
 644 0178 83000000 		.4byte	.LLST3
 645 017c 0B       		.uleb128 0xb
 646 017d AA010000 		.4byte	.LASF30
 647 0181 01       		.byte	0x1
 648 0182 3B       		.byte	0x3b
 649 0183 9E000000 		.4byte	0x9e
 650 0187 01       		.uleb128 0x1
 651 0188 58       		.byte	0x58
 652 0189 0C       		.uleb128 0xc
 653 018a 6900     		.ascii	"i\000"
 654 018c 01       		.byte	0x1
 655 018d 3C       		.byte	0x3c
 656 018e 9E000000 		.4byte	0x9e
 657 0192 A2000000 		.4byte	.LLST4
 658 0196 0C       		.uleb128 0xc
 659 0197 6A00     		.ascii	"j\000"
 660 0199 01       		.byte	0x1
 661 019a 3C       		.byte	0x3c
 662 019b 9E000000 		.4byte	0x9e
 663 019f C1000000 		.4byte	.LLST5
 664 01a3 0C       		.uleb128 0xc
 665 01a4 696E00   		.ascii	"in\000"
 666 01a7 01       		.byte	0x1
 667 01a8 3D       		.byte	0x3d
 668 01a9 FA000000 		.4byte	0xfa
 669 01ad E0000000 		.4byte	.LLST6
 670 01b1 00       		.byte	0
 671 01b2 07       		.uleb128 0x7
 672 01b3 4E010000 		.4byte	.LASF32
 673 01b7 01       		.byte	0x1
 674 01b8 7D       		.byte	0x7d
 675 01b9 F0000000 		.4byte	.LFB136
 676 01bd A0000000 		.4byte	.LFE136-.LFB136
 677 01c1 01       		.uleb128 0x1
 678 01c2 9C       		.byte	0x9c
 679 01c3 46020000 		.4byte	0x246
 680 01c7 08       		.uleb128 0x8
 681 01c8 1E030000 		.4byte	.LASF25
 682 01cc 01       		.byte	0x1
 683 01cd 7E       		.byte	0x7e
 684 01ce 0C010000 		.4byte	0x10c
ARM GAS  /tmp/ccYBX92y.s 			page 13


 685 01d2 01       		.uleb128 0x1
 686 01d3 50       		.byte	0x50
 687 01d4 09       		.uleb128 0x9
 688 01d5 91010000 		.4byte	.LASF33
 689 01d9 01       		.byte	0x1
 690 01da 7F       		.byte	0x7f
 691 01db B4000000 		.4byte	0xb4
 692 01df 16010000 		.4byte	.LLST7
 693 01e3 09       		.uleb128 0x9
 694 01e4 CC020000 		.4byte	.LASF27
 695 01e8 01       		.byte	0x1
 696 01e9 80       		.byte	0x80
 697 01ea 9E000000 		.4byte	0x9e
 698 01ee 37010000 		.4byte	.LLST8
 699 01f2 09       		.uleb128 0x9
 700 01f3 1A000000 		.4byte	.LASF34
 701 01f7 01       		.byte	0x1
 702 01f8 81       		.byte	0x81
 703 01f9 18010000 		.4byte	0x118
 704 01fd 58010000 		.4byte	.LLST9
 705 0201 0A       		.uleb128 0xa
 706 0202 62010000 		.4byte	.LASF29
 707 0206 01       		.byte	0x1
 708 0207 83       		.byte	0x83
 709 0208 B4000000 		.4byte	0xb4
 710 020c 76010000 		.4byte	.LLST10
 711 0210 0B       		.uleb128 0xb
 712 0211 AA010000 		.4byte	.LASF30
 713 0215 01       		.byte	0x1
 714 0216 83       		.byte	0x83
 715 0217 B4000000 		.4byte	0xb4
 716 021b 01       		.uleb128 0x1
 717 021c 5A       		.byte	0x5a
 718 021d 0C       		.uleb128 0xc
 719 021e 6900     		.ascii	"i\000"
 720 0220 01       		.byte	0x1
 721 0221 83       		.byte	0x83
 722 0222 B4000000 		.4byte	0xb4
 723 0226 94010000 		.4byte	.LLST11
 724 022a 0C       		.uleb128 0xc
 725 022b 6A00     		.ascii	"j\000"
 726 022d 01       		.byte	0x1
 727 022e 83       		.byte	0x83
 728 022f B4000000 		.4byte	0xb4
 729 0233 BE010000 		.4byte	.LLST12
 730 0237 0C       		.uleb128 0xc
 731 0238 696E00   		.ascii	"in\000"
 732 023b 01       		.byte	0x1
 733 023c 84       		.byte	0x84
 734 023d EE000000 		.4byte	0xee
 735 0241 E8010000 		.4byte	.LLST13
 736 0245 00       		.byte	0
 737 0246 0D       		.uleb128 0xd
 738 0247 2C010000 		.4byte	.LASF38
 739 024b 01       		.byte	0x1
 740 024c C4       		.byte	0xc4
 741 024d 90010000 		.4byte	.LFB137
ARM GAS  /tmp/ccYBX92y.s 			page 14


 742 0251 66000000 		.4byte	.LFE137-.LFB137
 743 0255 01       		.uleb128 0x1
 744 0256 9C       		.byte	0x9c
 745 0257 08       		.uleb128 0x8
 746 0258 E2010000 		.4byte	.LASF35
 747 025c 01       		.byte	0x1
 748 025d C5       		.byte	0xc5
 749 025e 06010000 		.4byte	0x106
 750 0262 01       		.uleb128 0x1
 751 0263 50       		.byte	0x50
 752 0264 09       		.uleb128 0x9
 753 0265 91010000 		.4byte	.LASF33
 754 0269 01       		.byte	0x1
 755 026a C6       		.byte	0xc6
 756 026b B4000000 		.4byte	0xb4
 757 026f 2B020000 		.4byte	.LLST14
 758 0273 09       		.uleb128 0x9
 759 0274 CC020000 		.4byte	.LASF27
 760 0278 01       		.byte	0x1
 761 0279 C7       		.byte	0xc7
 762 027a 9E000000 		.4byte	0x9e
 763 027e 4C020000 		.4byte	.LLST15
 764 0282 09       		.uleb128 0x9
 765 0283 00020000 		.4byte	.LASF28
 766 0287 01       		.byte	0x1
 767 0288 C8       		.byte	0xc8
 768 0289 18010000 		.4byte	0x118
 769 028d 6D020000 		.4byte	.LLST16
 770 0291 0B       		.uleb128 0xb
 771 0292 1E030000 		.4byte	.LASF25
 772 0296 01       		.byte	0x1
 773 0297 CA       		.byte	0xca
 774 0298 0C010000 		.4byte	0x10c
 775 029c 01       		.uleb128 0x1
 776 029d 50       		.byte	0x50
 777 029e 0C       		.uleb128 0xc
 778 029f 696E00   		.ascii	"in\000"
 779 02a2 01       		.byte	0x1
 780 02a3 CB       		.byte	0xcb
 781 02a4 EE000000 		.4byte	0xee
 782 02a8 8B020000 		.4byte	.LLST17
 783 02ac 0B       		.uleb128 0xb
 784 02ad 62010000 		.4byte	.LASF29
 785 02b1 01       		.byte	0x1
 786 02b2 CC       		.byte	0xcc
 787 02b3 B4000000 		.4byte	0xb4
 788 02b7 01       		.uleb128 0x1
 789 02b8 51       		.byte	0x51
 790 02b9 0B       		.uleb128 0xb
 791 02ba AA010000 		.4byte	.LASF30
 792 02be 01       		.byte	0x1
 793 02bf CC       		.byte	0xcc
 794 02c0 B4000000 		.4byte	0xb4
 795 02c4 01       		.uleb128 0x1
 796 02c5 58       		.byte	0x58
 797 02c6 0C       		.uleb128 0xc
 798 02c7 6900     		.ascii	"i\000"
ARM GAS  /tmp/ccYBX92y.s 			page 15


 799 02c9 01       		.byte	0x1
 800 02ca CD       		.byte	0xcd
 801 02cb B4000000 		.4byte	0xb4
 802 02cf B4020000 		.4byte	.LLST18
 803 02d3 0C       		.uleb128 0xc
 804 02d4 6A00     		.ascii	"j\000"
 805 02d6 01       		.byte	0x1
 806 02d7 CD       		.byte	0xcd
 807 02d8 B4000000 		.4byte	0xb4
 808 02dc DE020000 		.4byte	.LLST19
 809 02e0 00       		.byte	0
 810 02e1 00       		.byte	0
 811              		.section	.debug_abbrev,"",%progbits
 812              	.Ldebug_abbrev0:
 813 0000 01       		.uleb128 0x1
 814 0001 11       		.uleb128 0x11
 815 0002 01       		.byte	0x1
 816 0003 25       		.uleb128 0x25
 817 0004 0E       		.uleb128 0xe
 818 0005 13       		.uleb128 0x13
 819 0006 0B       		.uleb128 0xb
 820 0007 03       		.uleb128 0x3
 821 0008 0E       		.uleb128 0xe
 822 0009 11       		.uleb128 0x11
 823 000a 01       		.uleb128 0x1
 824 000b 12       		.uleb128 0x12
 825 000c 06       		.uleb128 0x6
 826 000d 10       		.uleb128 0x10
 827 000e 17       		.uleb128 0x17
 828 000f 00       		.byte	0
 829 0010 00       		.byte	0
 830 0011 02       		.uleb128 0x2
 831 0012 24       		.uleb128 0x24
 832 0013 00       		.byte	0
 833 0014 0B       		.uleb128 0xb
 834 0015 0B       		.uleb128 0xb
 835 0016 3E       		.uleb128 0x3e
 836 0017 0B       		.uleb128 0xb
 837 0018 03       		.uleb128 0x3
 838 0019 0E       		.uleb128 0xe
 839 001a 00       		.byte	0
 840 001b 00       		.byte	0
 841 001c 03       		.uleb128 0x3
 842 001d 16       		.uleb128 0x16
 843 001e 00       		.byte	0
 844 001f 03       		.uleb128 0x3
 845 0020 0E       		.uleb128 0xe
 846 0021 3A       		.uleb128 0x3a
 847 0022 0B       		.uleb128 0xb
 848 0023 3B       		.uleb128 0x3b
 849 0024 0B       		.uleb128 0xb
 850 0025 49       		.uleb128 0x49
 851 0026 13       		.uleb128 0x13
 852 0027 00       		.byte	0
 853 0028 00       		.byte	0
 854 0029 04       		.uleb128 0x4
 855 002a 24       		.uleb128 0x24
ARM GAS  /tmp/ccYBX92y.s 			page 16


 856 002b 00       		.byte	0
 857 002c 0B       		.uleb128 0xb
 858 002d 0B       		.uleb128 0xb
 859 002e 3E       		.uleb128 0x3e
 860 002f 0B       		.uleb128 0xb
 861 0030 03       		.uleb128 0x3
 862 0031 08       		.uleb128 0x8
 863 0032 00       		.byte	0
 864 0033 00       		.byte	0
 865 0034 05       		.uleb128 0x5
 866 0035 16       		.uleb128 0x16
 867 0036 00       		.byte	0
 868 0037 03       		.uleb128 0x3
 869 0038 0E       		.uleb128 0xe
 870 0039 3A       		.uleb128 0x3a
 871 003a 0B       		.uleb128 0xb
 872 003b 3B       		.uleb128 0x3b
 873 003c 05       		.uleb128 0x5
 874 003d 49       		.uleb128 0x49
 875 003e 13       		.uleb128 0x13
 876 003f 00       		.byte	0
 877 0040 00       		.byte	0
 878 0041 06       		.uleb128 0x6
 879 0042 0F       		.uleb128 0xf
 880 0043 00       		.byte	0
 881 0044 0B       		.uleb128 0xb
 882 0045 0B       		.uleb128 0xb
 883 0046 49       		.uleb128 0x49
 884 0047 13       		.uleb128 0x13
 885 0048 00       		.byte	0
 886 0049 00       		.byte	0
 887 004a 07       		.uleb128 0x7
 888 004b 2E       		.uleb128 0x2e
 889 004c 01       		.byte	0x1
 890 004d 3F       		.uleb128 0x3f
 891 004e 19       		.uleb128 0x19
 892 004f 03       		.uleb128 0x3
 893 0050 0E       		.uleb128 0xe
 894 0051 3A       		.uleb128 0x3a
 895 0052 0B       		.uleb128 0xb
 896 0053 3B       		.uleb128 0x3b
 897 0054 0B       		.uleb128 0xb
 898 0055 27       		.uleb128 0x27
 899 0056 19       		.uleb128 0x19
 900 0057 11       		.uleb128 0x11
 901 0058 01       		.uleb128 0x1
 902 0059 12       		.uleb128 0x12
 903 005a 06       		.uleb128 0x6
 904 005b 40       		.uleb128 0x40
 905 005c 18       		.uleb128 0x18
 906 005d 9742     		.uleb128 0x2117
 907 005f 19       		.uleb128 0x19
 908 0060 01       		.uleb128 0x1
 909 0061 13       		.uleb128 0x13
 910 0062 00       		.byte	0
 911 0063 00       		.byte	0
 912 0064 08       		.uleb128 0x8
ARM GAS  /tmp/ccYBX92y.s 			page 17


 913 0065 05       		.uleb128 0x5
 914 0066 00       		.byte	0
 915 0067 03       		.uleb128 0x3
 916 0068 0E       		.uleb128 0xe
 917 0069 3A       		.uleb128 0x3a
 918 006a 0B       		.uleb128 0xb
 919 006b 3B       		.uleb128 0x3b
 920 006c 0B       		.uleb128 0xb
 921 006d 49       		.uleb128 0x49
 922 006e 13       		.uleb128 0x13
 923 006f 02       		.uleb128 0x2
 924 0070 18       		.uleb128 0x18
 925 0071 00       		.byte	0
 926 0072 00       		.byte	0
 927 0073 09       		.uleb128 0x9
 928 0074 05       		.uleb128 0x5
 929 0075 00       		.byte	0
 930 0076 03       		.uleb128 0x3
 931 0077 0E       		.uleb128 0xe
 932 0078 3A       		.uleb128 0x3a
 933 0079 0B       		.uleb128 0xb
 934 007a 3B       		.uleb128 0x3b
 935 007b 0B       		.uleb128 0xb
 936 007c 49       		.uleb128 0x49
 937 007d 13       		.uleb128 0x13
 938 007e 02       		.uleb128 0x2
 939 007f 17       		.uleb128 0x17
 940 0080 00       		.byte	0
 941 0081 00       		.byte	0
 942 0082 0A       		.uleb128 0xa
 943 0083 34       		.uleb128 0x34
 944 0084 00       		.byte	0
 945 0085 03       		.uleb128 0x3
 946 0086 0E       		.uleb128 0xe
 947 0087 3A       		.uleb128 0x3a
 948 0088 0B       		.uleb128 0xb
 949 0089 3B       		.uleb128 0x3b
 950 008a 0B       		.uleb128 0xb
 951 008b 49       		.uleb128 0x49
 952 008c 13       		.uleb128 0x13
 953 008d 02       		.uleb128 0x2
 954 008e 17       		.uleb128 0x17
 955 008f 00       		.byte	0
 956 0090 00       		.byte	0
 957 0091 0B       		.uleb128 0xb
 958 0092 34       		.uleb128 0x34
 959 0093 00       		.byte	0
 960 0094 03       		.uleb128 0x3
 961 0095 0E       		.uleb128 0xe
 962 0096 3A       		.uleb128 0x3a
 963 0097 0B       		.uleb128 0xb
 964 0098 3B       		.uleb128 0x3b
 965 0099 0B       		.uleb128 0xb
 966 009a 49       		.uleb128 0x49
 967 009b 13       		.uleb128 0x13
 968 009c 02       		.uleb128 0x2
 969 009d 18       		.uleb128 0x18
ARM GAS  /tmp/ccYBX92y.s 			page 18


 970 009e 00       		.byte	0
 971 009f 00       		.byte	0
 972 00a0 0C       		.uleb128 0xc
 973 00a1 34       		.uleb128 0x34
 974 00a2 00       		.byte	0
 975 00a3 03       		.uleb128 0x3
 976 00a4 08       		.uleb128 0x8
 977 00a5 3A       		.uleb128 0x3a
 978 00a6 0B       		.uleb128 0xb
 979 00a7 3B       		.uleb128 0x3b
 980 00a8 0B       		.uleb128 0xb
 981 00a9 49       		.uleb128 0x49
 982 00aa 13       		.uleb128 0x13
 983 00ab 02       		.uleb128 0x2
 984 00ac 17       		.uleb128 0x17
 985 00ad 00       		.byte	0
 986 00ae 00       		.byte	0
 987 00af 0D       		.uleb128 0xd
 988 00b0 2E       		.uleb128 0x2e
 989 00b1 01       		.byte	0x1
 990 00b2 3F       		.uleb128 0x3f
 991 00b3 19       		.uleb128 0x19
 992 00b4 03       		.uleb128 0x3
 993 00b5 0E       		.uleb128 0xe
 994 00b6 3A       		.uleb128 0x3a
 995 00b7 0B       		.uleb128 0xb
 996 00b8 3B       		.uleb128 0x3b
 997 00b9 0B       		.uleb128 0xb
 998 00ba 27       		.uleb128 0x27
 999 00bb 19       		.uleb128 0x19
 1000 00bc 11       		.uleb128 0x11
 1001 00bd 01       		.uleb128 0x1
 1002 00be 12       		.uleb128 0x12
 1003 00bf 06       		.uleb128 0x6
 1004 00c0 40       		.uleb128 0x40
 1005 00c1 18       		.uleb128 0x18
 1006 00c2 9742     		.uleb128 0x2117
 1007 00c4 19       		.uleb128 0x19
 1008 00c5 00       		.byte	0
 1009 00c6 00       		.byte	0
 1010 00c7 00       		.byte	0
 1011              		.section	.debug_loc,"",%progbits
 1012              	.Ldebug_loc0:
 1013              	.LLST0:
 1014 0000 00000000 		.4byte	.LVL0-.Ltext0
 1015 0004 08000000 		.4byte	.LVL1-.Ltext0
 1016 0008 0100     		.2byte	0x1
 1017 000a 51       		.byte	0x51
 1018 000b 08000000 		.4byte	.LVL1-.Ltext0
 1019 000f EA000000 		.4byte	.LFE135-.Ltext0
 1020 0013 0400     		.2byte	0x4
 1021 0015 F3       		.byte	0xf3
 1022 0016 01       		.uleb128 0x1
 1023 0017 51       		.byte	0x51
 1024 0018 9F       		.byte	0x9f
 1025 0019 00000000 		.4byte	0
 1026 001d 00000000 		.4byte	0
ARM GAS  /tmp/ccYBX92y.s 			page 19


 1027              	.LLST1:
 1028 0021 00000000 		.4byte	.LVL0-.Ltext0
 1029 0025 0A000000 		.4byte	.LVL2-.Ltext0
 1030 0029 0100     		.2byte	0x1
 1031 002b 52       		.byte	0x52
 1032 002c 0A000000 		.4byte	.LVL2-.Ltext0
 1033 0030 EA000000 		.4byte	.LFE135-.Ltext0
 1034 0034 0400     		.2byte	0x4
 1035 0036 F3       		.byte	0xf3
 1036 0037 01       		.uleb128 0x1
 1037 0038 52       		.byte	0x52
 1038 0039 9F       		.byte	0x9f
 1039 003a 00000000 		.4byte	0
 1040 003e 00000000 		.4byte	0
 1041              	.LLST2:
 1042 0042 00000000 		.4byte	.LVL0-.Ltext0
 1043 0046 1E000000 		.4byte	.LVL5-.Ltext0
 1044 004a 0100     		.2byte	0x1
 1045 004c 53       		.byte	0x53
 1046 004d 1E000000 		.4byte	.LVL5-.Ltext0
 1047 0051 7C000000 		.4byte	.LVL9-.Ltext0
 1048 0055 0200     		.2byte	0x2
 1049 0057 91       		.byte	0x91
 1050 0058 44       		.sleb128 -60
 1051 0059 7C000000 		.4byte	.LVL9-.Ltext0
 1052 005d AE000000 		.4byte	.LVL11-.Ltext0
 1053 0061 0100     		.2byte	0x1
 1054 0063 51       		.byte	0x51
 1055 0064 AE000000 		.4byte	.LVL11-.Ltext0
 1056 0068 E4000000 		.4byte	.LVL15-.Ltext0
 1057 006c 0200     		.2byte	0x2
 1058 006e 91       		.byte	0x91
 1059 006f 44       		.sleb128 -60
 1060 0070 E4000000 		.4byte	.LVL15-.Ltext0
 1061 0074 EA000000 		.4byte	.LFE135-.Ltext0
 1062 0078 0100     		.2byte	0x1
 1063 007a 51       		.byte	0x51
 1064 007b 00000000 		.4byte	0
 1065 007f 00000000 		.4byte	0
 1066              	.LLST3:
 1067 0083 14000000 		.4byte	.LVL3-.Ltext0
 1068 0087 1E000000 		.4byte	.LVL5-.Ltext0
 1069 008b 0100     		.2byte	0x1
 1070 008d 51       		.byte	0x51
 1071 008e 1E000000 		.4byte	.LVL5-.Ltext0
 1072 0092 EA000000 		.4byte	.LFE135-.Ltext0
 1073 0096 0200     		.2byte	0x2
 1074 0098 91       		.byte	0x91
 1075 0099 4C       		.sleb128 -52
 1076 009a 00000000 		.4byte	0
 1077 009e 00000000 		.4byte	0
 1078              	.LLST4:
 1079 00a2 18000000 		.4byte	.LVL4-.Ltext0
 1080 00a6 1E000000 		.4byte	.LVL5-.Ltext0
 1081 00aa 0200     		.2byte	0x2
 1082 00ac 30       		.byte	0x30
 1083 00ad 9F       		.byte	0x9f
ARM GAS  /tmp/ccYBX92y.s 			page 20


 1084 00ae 5C000000 		.4byte	.LVL8-.Ltext0
 1085 00b2 EA000000 		.4byte	.LFE135-.Ltext0
 1086 00b6 0100     		.2byte	0x1
 1087 00b8 55       		.byte	0x55
 1088 00b9 00000000 		.4byte	0
 1089 00bd 00000000 		.4byte	0
 1090              	.LLST5:
 1091 00c1 00000000 		.4byte	.LVL0-.Ltext0
 1092 00c5 1E000000 		.4byte	.LVL5-.Ltext0
 1093 00c9 0200     		.2byte	0x2
 1094 00cb 30       		.byte	0x30
 1095 00cc 9F       		.byte	0x9f
 1096 00cd 3A000000 		.4byte	.LVL7-.Ltext0
 1097 00d1 EA000000 		.4byte	.LFE135-.Ltext0
 1098 00d5 0100     		.2byte	0x1
 1099 00d7 52       		.byte	0x52
 1100 00d8 00000000 		.4byte	0
 1101 00dc 00000000 		.4byte	0
 1102              	.LLST6:
 1103 00e0 34000000 		.4byte	.LVL6-.Ltext0
 1104 00e4 5C000000 		.4byte	.LVL8-.Ltext0
 1105 00e8 0100     		.2byte	0x1
 1106 00ea 5E       		.byte	0x5e
 1107 00eb 5C000000 		.4byte	.LVL8-.Ltext0
 1108 00ef AA000000 		.4byte	.LVL10-.Ltext0
 1109 00f3 0200     		.2byte	0x2
 1110 00f5 90       		.byte	0x90
 1111 00f6 4F       		.uleb128 0x4f
 1112 00f7 AE000000 		.4byte	.LVL11-.Ltext0
 1113 00fb E4000000 		.4byte	.LVL15-.Ltext0
 1114 00ff 0100     		.2byte	0x1
 1115 0101 51       		.byte	0x51
 1116 0102 E4000000 		.4byte	.LVL15-.Ltext0
 1117 0106 EA000000 		.4byte	.LFE135-.Ltext0
 1118 010a 0200     		.2byte	0x2
 1119 010c 90       		.byte	0x90
 1120 010d 4F       		.uleb128 0x4f
 1121 010e 00000000 		.4byte	0
 1122 0112 00000000 		.4byte	0
 1123              	.LLST7:
 1124 0116 F0000000 		.4byte	.LVL16-.Ltext0
 1125 011a F6000000 		.4byte	.LVL17-.Ltext0
 1126 011e 0100     		.2byte	0x1
 1127 0120 51       		.byte	0x51
 1128 0121 F6000000 		.4byte	.LVL17-.Ltext0
 1129 0125 90010000 		.4byte	.LFE136-.Ltext0
 1130 0129 0400     		.2byte	0x4
 1131 012b F3       		.byte	0xf3
 1132 012c 01       		.uleb128 0x1
 1133 012d 51       		.byte	0x51
 1134 012e 9F       		.byte	0x9f
 1135 012f 00000000 		.4byte	0
 1136 0133 00000000 		.4byte	0
 1137              	.LLST8:
 1138 0137 F0000000 		.4byte	.LVL16-.Ltext0
 1139 013b 00010000 		.4byte	.LVL18-.Ltext0
 1140 013f 0100     		.2byte	0x1
ARM GAS  /tmp/ccYBX92y.s 			page 21


 1141 0141 52       		.byte	0x52
 1142 0142 00010000 		.4byte	.LVL18-.Ltext0
 1143 0146 90010000 		.4byte	.LFE136-.Ltext0
 1144 014a 0400     		.2byte	0x4
 1145 014c F3       		.byte	0xf3
 1146 014d 01       		.uleb128 0x1
 1147 014e 52       		.byte	0x52
 1148 014f 9F       		.byte	0x9f
 1149 0150 00000000 		.4byte	0
 1150 0154 00000000 		.4byte	0
 1151              	.LLST9:
 1152 0158 F0000000 		.4byte	.LVL16-.Ltext0
 1153 015c 88010000 		.4byte	.LVL31-.Ltext0
 1154 0160 0100     		.2byte	0x1
 1155 0162 53       		.byte	0x53
 1156 0163 88010000 		.4byte	.LVL31-.Ltext0
 1157 0167 90010000 		.4byte	.LFE136-.Ltext0
 1158 016b 0100     		.2byte	0x1
 1159 016d 53       		.byte	0x53
 1160 016e 00000000 		.4byte	0
 1161 0172 00000000 		.4byte	0
 1162              	.LLST10:
 1163 0176 F6000000 		.4byte	.LVL17-.Ltext0
 1164 017a 12010000 		.4byte	.LVL20-.Ltext0
 1165 017e 0100     		.2byte	0x1
 1166 0180 51       		.byte	0x51
 1167 0181 12010000 		.4byte	.LVL20-.Ltext0
 1168 0185 90010000 		.4byte	.LFE136-.Ltext0
 1169 0189 0100     		.2byte	0x1
 1170 018b 59       		.byte	0x59
 1171 018c 00000000 		.4byte	0
 1172 0190 00000000 		.4byte	0
 1173              	.LLST11:
 1174 0194 04010000 		.4byte	.LVL19-.Ltext0
 1175 0198 12010000 		.4byte	.LVL20-.Ltext0
 1176 019c 0200     		.2byte	0x2
 1177 019e 30       		.byte	0x30
 1178 019f 9F       		.byte	0x9f
 1179 01a0 12010000 		.4byte	.LVL20-.Ltext0
 1180 01a4 50010000 		.4byte	.LVL27-.Ltext0
 1181 01a8 0100     		.2byte	0x1
 1182 01aa 57       		.byte	0x57
 1183 01ab 70010000 		.4byte	.LVL30-.Ltext0
 1184 01af 90010000 		.4byte	.LFE136-.Ltext0
 1185 01b3 0100     		.2byte	0x1
 1186 01b5 57       		.byte	0x57
 1187 01b6 00000000 		.4byte	0
 1188 01ba 00000000 		.4byte	0
 1189              	.LLST12:
 1190 01be F0000000 		.4byte	.LVL16-.Ltext0
 1191 01c2 12010000 		.4byte	.LVL20-.Ltext0
 1192 01c6 0200     		.2byte	0x2
 1193 01c8 30       		.byte	0x30
 1194 01c9 9F       		.byte	0x9f
 1195 01ca 12010000 		.4byte	.LVL20-.Ltext0
 1196 01ce 50010000 		.4byte	.LVL27-.Ltext0
 1197 01d2 0100     		.2byte	0x1
ARM GAS  /tmp/ccYBX92y.s 			page 22


 1198 01d4 54       		.byte	0x54
 1199 01d5 70010000 		.4byte	.LVL30-.Ltext0
 1200 01d9 90010000 		.4byte	.LFE136-.Ltext0
 1201 01dd 0100     		.2byte	0x1
 1202 01df 54       		.byte	0x54
 1203 01e0 00000000 		.4byte	0
 1204 01e4 00000000 		.4byte	0
 1205              	.LLST13:
 1206 01e8 12010000 		.4byte	.LVL20-.Ltext0
 1207 01ec 1A010000 		.4byte	.LVL21-.Ltext0
 1208 01f0 0100     		.2byte	0x1
 1209 01f2 51       		.byte	0x51
 1210 01f3 1C010000 		.4byte	.LVL22-.Ltext0
 1211 01f7 32010000 		.4byte	.LVL24-.Ltext0
 1212 01fb 0100     		.2byte	0x1
 1213 01fd 52       		.byte	0x52
 1214 01fe 32010000 		.4byte	.LVL24-.Ltext0
 1215 0202 36010000 		.4byte	.LVL25-.Ltext0
 1216 0206 0500     		.2byte	0x5
 1217 0208 70       		.byte	0x70
 1218 0209 00       		.sleb128 0
 1219 020a 7E       		.byte	0x7e
 1220 020b 00       		.sleb128 0
 1221 020c 22       		.byte	0x22
 1222 020d 36010000 		.4byte	.LVL25-.Ltext0
 1223 0211 50010000 		.4byte	.LVL27-.Ltext0
 1224 0215 0100     		.2byte	0x1
 1225 0217 51       		.byte	0x51
 1226 0218 54010000 		.4byte	.LVL28-.Ltext0
 1227 021c 90010000 		.4byte	.LFE136-.Ltext0
 1228 0220 0100     		.2byte	0x1
 1229 0222 51       		.byte	0x51
 1230 0223 00000000 		.4byte	0
 1231 0227 00000000 		.4byte	0
 1232              	.LLST14:
 1233 022b 90010000 		.4byte	.LVL32-.Ltext0
 1234 022f 96010000 		.4byte	.LVL33-.Ltext0
 1235 0233 0100     		.2byte	0x1
 1236 0235 51       		.byte	0x51
 1237 0236 96010000 		.4byte	.LVL33-.Ltext0
 1238 023a F6010000 		.4byte	.LFE137-.Ltext0
 1239 023e 0400     		.2byte	0x4
 1240 0240 F3       		.byte	0xf3
 1241 0241 01       		.uleb128 0x1
 1242 0242 51       		.byte	0x51
 1243 0243 9F       		.byte	0x9f
 1244 0244 00000000 		.4byte	0
 1245 0248 00000000 		.4byte	0
 1246              	.LLST15:
 1247 024c 90010000 		.4byte	.LVL32-.Ltext0
 1248 0250 AE010000 		.4byte	.LVL35-.Ltext0
 1249 0254 0100     		.2byte	0x1
 1250 0256 52       		.byte	0x52
 1251 0257 AE010000 		.4byte	.LVL35-.Ltext0
 1252 025b F6010000 		.4byte	.LFE137-.Ltext0
 1253 025f 0400     		.2byte	0x4
 1254 0261 F3       		.byte	0xf3
ARM GAS  /tmp/ccYBX92y.s 			page 23


 1255 0262 01       		.uleb128 0x1
 1256 0263 52       		.byte	0x52
 1257 0264 9F       		.byte	0x9f
 1258 0265 00000000 		.4byte	0
 1259 0269 00000000 		.4byte	0
 1260              	.LLST16:
 1261 026d 90010000 		.4byte	.LVL32-.Ltext0
 1262 0271 F0010000 		.4byte	.LVL41-.Ltext0
 1263 0275 0100     		.2byte	0x1
 1264 0277 53       		.byte	0x53
 1265 0278 F0010000 		.4byte	.LVL41-.Ltext0
 1266 027c F6010000 		.4byte	.LFE137-.Ltext0
 1267 0280 0100     		.2byte	0x1
 1268 0282 53       		.byte	0x53
 1269 0283 00000000 		.4byte	0
 1270 0287 00000000 		.4byte	0
 1271              	.LLST17:
 1272 028b AE010000 		.4byte	.LVL35-.Ltext0
 1273 028f B4010000 		.4byte	.LVL36-.Ltext0
 1274 0293 0100     		.2byte	0x1
 1275 0295 5A       		.byte	0x5a
 1276 0296 B4010000 		.4byte	.LVL36-.Ltext0
 1277 029a CE010000 		.4byte	.LVL38-.Ltext0
 1278 029e 0100     		.2byte	0x1
 1279 02a0 57       		.byte	0x57
 1280 02a1 DE010000 		.4byte	.LVL40-.Ltext0
 1281 02a5 F6010000 		.4byte	.LFE137-.Ltext0
 1282 02a9 0100     		.2byte	0x1
 1283 02ab 5A       		.byte	0x5a
 1284 02ac 00000000 		.4byte	0
 1285 02b0 00000000 		.4byte	0
 1286              	.LLST18:
 1287 02b4 A0010000 		.4byte	.LVL34-.Ltext0
 1288 02b8 AE010000 		.4byte	.LVL35-.Ltext0
 1289 02bc 0200     		.2byte	0x2
 1290 02be 30       		.byte	0x30
 1291 02bf 9F       		.byte	0x9f
 1292 02c0 AE010000 		.4byte	.LVL35-.Ltext0
 1293 02c4 D4010000 		.4byte	.LVL39-.Ltext0
 1294 02c8 0100     		.2byte	0x1
 1295 02ca 56       		.byte	0x56
 1296 02cb DE010000 		.4byte	.LVL40-.Ltext0
 1297 02cf F6010000 		.4byte	.LFE137-.Ltext0
 1298 02d3 0100     		.2byte	0x1
 1299 02d5 56       		.byte	0x56
 1300 02d6 00000000 		.4byte	0
 1301 02da 00000000 		.4byte	0
 1302              	.LLST19:
 1303 02de 90010000 		.4byte	.LVL32-.Ltext0
 1304 02e2 AE010000 		.4byte	.LVL35-.Ltext0
 1305 02e6 0200     		.2byte	0x2
 1306 02e8 30       		.byte	0x30
 1307 02e9 9F       		.byte	0x9f
 1308 02ea AE010000 		.4byte	.LVL35-.Ltext0
 1309 02ee D4010000 		.4byte	.LVL39-.Ltext0
 1310 02f2 0100     		.2byte	0x1
 1311 02f4 54       		.byte	0x54
ARM GAS  /tmp/ccYBX92y.s 			page 24


 1312 02f5 DE010000 		.4byte	.LVL40-.Ltext0
 1313 02f9 F6010000 		.4byte	.LFE137-.Ltext0
 1314 02fd 0100     		.2byte	0x1
 1315 02ff 54       		.byte	0x54
 1316 0300 00000000 		.4byte	0
 1317 0304 00000000 		.4byte	0
 1318              		.section	.debug_aranges,"",%progbits
 1319 0000 1C000000 		.4byte	0x1c
 1320 0004 0200     		.2byte	0x2
 1321 0006 00000000 		.4byte	.Ldebug_info0
 1322 000a 04       		.byte	0x4
 1323 000b 00       		.byte	0
 1324 000c 0000     		.2byte	0
 1325 000e 0000     		.2byte	0
 1326 0010 00000000 		.4byte	.Ltext0
 1327 0014 F6010000 		.4byte	.Letext0-.Ltext0
 1328 0018 00000000 		.4byte	0
 1329 001c 00000000 		.4byte	0
 1330              		.section	.debug_line,"",%progbits
 1331              	.Ldebug_line0:
 1332 0000 3F040000 		.section	.debug_str,"MS",%progbits,1
 1332      02000902 
 1332      00000201 
 1332      FB0E0D00 
 1332      01010101 
 1333              	.LASF3:
 1334 0000 5F5F696E 		.ascii	"__int16_t\000"
 1334      7431365F 
 1334      7400
 1335              	.LASF6:
 1336 000a 5F5F696E 		.ascii	"__int32_t\000"
 1336      7433325F 
 1336      7400
 1337              	.LASF23:
 1338 0014 7133315F 		.ascii	"q31_t\000"
 1338      7400
 1339              	.LASF34:
 1340 001a 70426974 		.ascii	"pBitRevTable\000"
 1340      52657654 
 1340      61626C65 
 1340      00
 1341              	.LASF36:
 1342 0027 474E5520 		.ascii	"GNU C 4.9.3 20150529 (release) [ARM/embedded-4_9-br"
 1342      4320342E 
 1342      392E3320 
 1342      32303135 
 1342      30353239 
 1343 005a 616E6368 		.ascii	"anch revision 224288] -mcpu=cortex-m4 -mfloat-abi=h"
 1343      20726576 
 1343      6973696F 
 1343      6E203232 
 1343      34323838 
 1344 008d 61726420 		.ascii	"ard -mfpu=fpv4-sp-d16 -mno-thumb-interwork -mthumb "
 1344      2D6D6670 
 1344      753D6670 
 1344      76342D73 
 1344      702D6431 
ARM GAS  /tmp/ccYBX92y.s 			page 25


 1345 00c0 2D676764 		.ascii	"-ggdb -O2 -fomit-frame-pointer -falign-functions=16"
 1345      62202D4F 
 1345      32202D66 
 1345      6F6D6974 
 1345      2D667261 
 1346 00f3 202D666E 		.ascii	" -fno-math-errno -fsingle-precision-constant\000"
 1346      6F2D6D61 
 1346      74682D65 
 1346      72726E6F 
 1346      202D6673 
 1347              	.LASF22:
 1348 0120 7131355F 		.ascii	"q15_t\000"
 1348      7400
 1349              	.LASF20:
 1350 0126 666C6F61 		.ascii	"float\000"
 1350      7400
 1351              	.LASF38:
 1352 012c 61726D5F 		.ascii	"arm_bitreversal_q15\000"
 1352      62697472 
 1352      65766572 
 1352      73616C5F 
 1352      71313500 
 1353              	.LASF1:
 1354 0140 756E7369 		.ascii	"unsigned char\000"
 1354      676E6564 
 1354      20636861 
 1354      7200
 1355              	.LASF32:
 1356 014e 61726D5F 		.ascii	"arm_bitreversal_q31\000"
 1356      62697472 
 1356      65766572 
 1356      73616C5F 
 1356      71333100 
 1357              	.LASF29:
 1358 0162 6666744C 		.ascii	"fftLenBy2\000"
 1358      656E4279 
 1358      3200
 1359              	.LASF9:
 1360 016c 6C6F6E67 		.ascii	"long unsigned int\000"
 1360      20756E73 
 1360      69676E65 
 1360      6420696E 
 1360      7400
 1361              	.LASF5:
 1362 017e 73686F72 		.ascii	"short unsigned int\000"
 1362      7420756E 
 1362      7369676E 
 1362      65642069 
 1362      6E7400
 1363              	.LASF33:
 1364 0191 6666744C 		.ascii	"fftLen\000"
 1364      656E00
 1365              	.LASF4:
 1366 0198 5F5F7569 		.ascii	"__uint16_t\000"
 1366      6E743136 
 1366      5F7400
 1367              	.LASF19:
ARM GAS  /tmp/ccYBX92y.s 			page 26


 1368 01a3 646F7562 		.ascii	"double\000"
 1368      6C6500
 1369              	.LASF30:
 1370 01aa 6666744C 		.ascii	"fftLenBy2p1\000"
 1370      656E4279 
 1370      32703100 
 1371              	.LASF8:
 1372 01b6 5F5F7569 		.ascii	"__uint32_t\000"
 1372      6E743332 
 1372      5F7400
 1373              	.LASF31:
 1374 01c1 61726D5F 		.ascii	"arm_bitreversal_f32\000"
 1374      62697472 
 1374      65766572 
 1374      73616C5F 
 1374      66333200 
 1375              	.LASF12:
 1376 01d5 756E7369 		.ascii	"unsigned int\000"
 1376      676E6564 
 1376      20696E74 
 1376      00
 1377              	.LASF35:
 1378 01e2 70537263 		.ascii	"pSrc16\000"
 1378      313600
 1379              	.LASF11:
 1380 01e9 6C6F6E67 		.ascii	"long long unsigned int\000"
 1380      206C6F6E 
 1380      6720756E 
 1380      7369676E 
 1380      65642069 
 1381              	.LASF28:
 1382 0200 70426974 		.ascii	"pBitRevTab\000"
 1382      52657654 
 1382      616200
 1383              	.LASF13:
 1384 020b 696E7431 		.ascii	"int16_t\000"
 1384      365F7400 
 1385              	.LASF15:
 1386 0213 696E7433 		.ascii	"int32_t\000"
 1386      325F7400 
 1387              	.LASF17:
 1388 021b 73697A65 		.ascii	"sizetype\000"
 1388      74797065 
 1388      00
 1389              	.LASF37:
 1390 0224 2F686F6D 		.ascii	"/home/sbcu/Dropbox/pcb-layouts/axo-on-discovery-boa"
 1390      652F7362 
 1390      63752F44 
 1390      726F7062 
 1390      6F782F70 
 1391 0257 72642F61 		.ascii	"rd/axoloti/platform_linux/../CMSIS//DSP_Lib/Source/"
 1391      786F6C6F 
 1391      74692F70 
 1391      6C617466 
 1391      6F726D5F 
 1392 028a 5472616E 		.ascii	"TransformFunctions/arm_bitreversal.c\000"
 1392      73666F72 
ARM GAS  /tmp/ccYBX92y.s 			page 27


 1392      6D46756E 
 1392      6374696F 
 1392      6E732F61 
 1393              	.LASF10:
 1394 02af 6C6F6E67 		.ascii	"long long int\000"
 1394      206C6F6E 
 1394      6720696E 
 1394      7400
 1395              	.LASF18:
 1396 02bd 63686172 		.ascii	"char\000"
 1396      00
 1397              	.LASF24:
 1398 02c2 666C6F61 		.ascii	"float32_t\000"
 1398      7433325F 
 1398      7400
 1399              	.LASF27:
 1400 02cc 62697452 		.ascii	"bitRevFactor\000"
 1400      65764661 
 1400      63746F72 
 1400      00
 1401              	.LASF2:
 1402 02d9 73686F72 		.ascii	"short int\000"
 1402      7420696E 
 1402      7400
 1403              	.LASF14:
 1404 02e3 75696E74 		.ascii	"uint16_t\000"
 1404      31365F74 
 1404      00
 1405              	.LASF16:
 1406 02ec 75696E74 		.ascii	"uint32_t\000"
 1406      33325F74 
 1406      00
 1407              	.LASF7:
 1408 02f5 6C6F6E67 		.ascii	"long int\000"
 1408      20696E74 
 1408      00
 1409              	.LASF21:
 1410 02fe 6C6F6E67 		.ascii	"long double\000"
 1410      20646F75 
 1410      626C6500 
 1411              	.LASF0:
 1412 030a 7369676E 		.ascii	"signed char\000"
 1412      65642063 
 1412      68617200 
 1413              	.LASF26:
 1414 0316 66667453 		.ascii	"fftSize\000"
 1414      697A6500 
 1415              	.LASF25:
 1416 031e 70537263 		.ascii	"pSrc\000"
 1416      00
 1417              		.ident	"GCC: (GNU Tools for ARM Embedded Processors) 4.9.3 20150529 (release) [ARM/embedded-4_9-br
ARM GAS  /tmp/ccYBX92y.s 			page 28


DEFINED SYMBOLS
                            *ABS*:00000000 arm_bitreversal.c
     /tmp/ccYBX92y.s:20     .text:00000000 $t
     /tmp/ccYBX92y.s:26     .text:00000000 arm_bitreversal_f32
     /tmp/ccYBX92y.s:226    .text:000000f0 arm_bitreversal_q31
     /tmp/ccYBX92y.s:372    .text:00000190 arm_bitreversal_q15
                     .debug_frame:00000010 $d

NO UNDEFINED SYMBOLS
