ARM GAS  /tmp/ccUp6Xac.s 			page 1


   1              		.syntax unified
   2              		.cpu cortex-m4
   3              		.eabi_attribute 27, 1
   4              		.eabi_attribute 28, 1
   5              		.fpu fpv4-sp-d16
   6              		.eabi_attribute 20, 1
   7              		.eabi_attribute 21, 1
   8              		.eabi_attribute 23, 3
   9              		.eabi_attribute 24, 1
  10              		.eabi_attribute 25, 1
  11              		.eabi_attribute 26, 1
  12              		.eabi_attribute 30, 2
  13              		.eabi_attribute 34, 1
  14              		.eabi_attribute 18, 4
  15              		.thumb
  16              		.file	"arm_cfft_radix4_q31.c"
  17              		.text
  18              	.Ltext0:
  19              		.cfi_sections	.debug_frame
  20              		.align	2
  21              		.p2align 4,,15
  22              		.global	arm_radix4_butterfly_q31
  23              		.thumb
  24              		.thumb_func
  25              		.type	arm_radix4_butterfly_q31, %function
  26              	arm_radix4_butterfly_q31:
  27              	.LFB136:
  28              		.file 1 "/home/sbcu/Dropbox/pcb-layouts/axo-on-discovery-board/axoloti/platform_linux/../CMSIS//DS
  29              		.loc 1 165 0
  30              		.cfi_startproc
  31              		@ args = 0, pretend = 0, frame = 128
  32              		@ frame_needed = 0, uses_anonymous_args = 0
  33              	.LVL0:
  34 0000 2DE9F04F 		push	{r4, r5, r6, r7, r8, r9, r10, fp, lr}
  35              		.cfi_def_cfa_offset 36
  36              		.cfi_offset 4, -36
  37              		.cfi_offset 5, -32
  38              		.cfi_offset 6, -28
  39              		.cfi_offset 7, -24
  40              		.cfi_offset 8, -20
  41              		.cfi_offset 9, -16
  42              		.cfi_offset 10, -12
  43              		.cfi_offset 11, -8
  44              		.cfi_offset 14, -4
  45 0004 A1B0     		sub	sp, sp, #132
  46              		.cfi_def_cfa_offset 168
  47              		.loc 1 165 0
  48 0006 1E46     		mov	r6, r3
  49 0008 0F91     		str	r1, [sp, #60]
  50              	.LVL1:
  51              		.loc 1 430 0
  52 000a 8908     		lsrs	r1, r1, #2
  53              	.LVL2:
  54 000c 0C46     		mov	r4, r1
  55 000e 1F91     		str	r1, [sp, #124]
  56              	.LVL3:
  57              		.loc 1 437 0
ARM GAS  /tmp/ccUp6Xac.s 			page 2


  58 0010 C900     		lsls	r1, r1, #3
  59              	.LVL4:
  60              		.loc 1 165 0
  61 0012 0746     		mov	r7, r0
  62 0014 1E90     		str	r0, [sp, #120]
  63              	.LVL5:
  64              		.loc 1 437 0
  65 0016 0844     		add	r0, r0, r1
  66              	.LVL6:
  67              		.loc 1 165 0
  68 0018 9446     		mov	ip, r2
  69 001a 0C93     		str	r3, [sp, #48]
  70 001c 1892     		str	r2, [sp, #96]
  71              		.loc 1 438 0
  72 001e 4318     		adds	r3, r0, r1
  73              	.LVL7:
  74 0020 06EB4602 		add	r2, r6, r6, lsl #1
  75              	.LVL8:
  76 0024 0831     		adds	r1, r1, #8
  77              	.LVL9:
  78 0026 03EB010B 		add	fp, r3, r1
  79 002a D100     		lsls	r1, r2, #3
  80              	.LVL10:
  81 002c 0B91     		str	r1, [sp, #44]
  82 002e 3101     		lsls	r1, r6, #4
  83 0030 03F10808 		add	r8, r3, #8
  84 0034 07F1080E 		add	lr, r7, #8
  85 0038 0A91     		str	r1, [sp, #40]
  86 003a F100     		lsls	r1, r6, #3
  87              		.loc 1 439 0
  88 003c C246     		mov	r10, r8
  89 003e 00F10809 		add	r9, r0, #8
  90              		.loc 1 430 0
  91 0042 0394     		str	r4, [sp, #12]
  92 0044 0991     		str	r1, [sp, #36]
  93              		.loc 1 439 0
  94 0046 CDF810C0 		str	ip, [sp, #16]
  95 004a CDF804C0 		str	ip, [sp, #4]
  96 004e CDF808C0 		str	ip, [sp, #8]
  97 0052 F046     		mov	r8, lr
  98              	.LVL11:
  99              	.L2:
 100              		.loc 1 448 0 discriminator 1
 101 0054 58F8080C 		ldr	r0, [r8, #-8]
 102 0058 5AF8082C 		ldr	r2, [r10, #-8]
 103              		.loc 1 453 0 discriminator 1
 104 005c 5BF8083C 		ldr	r3, [fp, #-8]
 105 0060 59F8081C 		ldr	r1, [r9, #-8]
 106              		.loc 1 456 0 discriminator 1
 107 0064 5AF8046C 		ldr	r6, [r10, #-4]
 108              		.loc 1 448 0 discriminator 1
 109 0068 4FEA201C 		asr	ip, r0, #4
 110 006c 1211     		asrs	r2, r2, #4
 111              		.loc 1 453 0 discriminator 1
 112 006e 1B11     		asrs	r3, r3, #4
 113              		.loc 1 448 0 discriminator 1
 114 0070 0CEB0205 		add	r5, ip, r2
ARM GAS  /tmp/ccUp6Xac.s 			page 3


 115              	.LVL12:
 116              		.loc 1 453 0 discriminator 1
 117 0074 03EB2113 		add	r3, r3, r1, asr #4
 118              		.loc 1 448 0 discriminator 1
 119 0078 0692     		str	r2, [sp, #24]
 120              		.loc 1 461 0 discriminator 1
 121 007a EA18     		adds	r2, r5, r3
 122 007c 48F8082C 		str	r2, [r8, #-8]
 123              		.loc 1 465 0 discriminator 1
 124 0080 5BF8044C 		ldr	r4, [fp, #-4]
 125              		.loc 1 456 0 discriminator 1
 126 0084 58F8041C 		ldr	r1, [r8, #-4]
 127              		.loc 1 465 0 discriminator 1
 128 0088 59F8040C 		ldr	r0, [r9, #-4]
 129              		.loc 1 456 0 discriminator 1
 130 008c 4FEA261E 		asr	lr, r6, #4
 131 0090 0911     		asrs	r1, r1, #4
 132              		.loc 1 465 0 discriminator 1
 133 0092 2411     		asrs	r4, r4, #4
 134 0094 04EB2014 		add	r4, r4, r0, asr #4
 135              		.loc 1 456 0 discriminator 1
 136 0098 0891     		str	r1, [sp, #32]
 137 009a 7144     		add	r1, r1, lr
 138              		.loc 1 468 0 discriminator 1
 139 009c 0A19     		adds	r2, r1, r4
 140 009e 48F8042C 		str	r2, [r8, #-4]
 141              		.loc 1 480 0 discriminator 1
 142 00a2 029A     		ldr	r2, [sp, #8]
 143 00a4 1068     		ldr	r0, [r2]
 144              		.loc 1 481 0 discriminator 1
 145 00a6 5268     		ldr	r2, [r2, #4]
 146              		.loc 1 471 0 discriminator 1
 147 00a8 091B     		subs	r1, r1, r4
 148              		.loc 1 485 0 discriminator 1
 149 00aa 81FB0267 		smull	r6, r7, r1, r2
 150              		.loc 1 463 0 discriminator 1
 151 00ae EB1A     		subs	r3, r5, r3
 152              		.loc 1 484 0 discriminator 1
 153 00b0 83FB0045 		smull	r4, r5, r3, r0
 154 00b4 3E46     		mov	r6, r7
 155              		.loc 1 489 0 discriminator 1
 156 00b6 83FB0223 		smull	r2, r3, r3, r2
 157              		.loc 1 488 0 discriminator 1
 158 00ba 80FB0101 		smull	r0, r1, r0, r1
 159              		.loc 1 476 0 discriminator 1
 160 00be 5BF8082C 		ldr	r2, [fp, #-8]
 161              		.loc 1 484 0 discriminator 1
 162 00c2 2E44     		add	r6, r6, r5
 163              		.loc 1 474 0 discriminator 1
 164 00c4 5BF8045C 		ldr	r5, [fp, #-4]
 165              	.LVL13:
 166              		.loc 1 488 0 discriminator 1
 167 00c8 C91A     		subs	r1, r1, r3
 168              		.loc 1 474 0 discriminator 1
 169 00ca 19E91800 		ldmdb	r9, {r3, r4}
 170 00ce 2811     		asrs	r0, r5, #4
 171              		.loc 1 476 0 discriminator 1
ARM GAS  /tmp/ccUp6Xac.s 			page 4


 172 00d0 1511     		asrs	r5, r2, #4
 173              		.loc 1 450 0 discriminator 1
 174 00d2 069A     		ldr	r2, [sp, #24]
 175              		.loc 1 485 0 discriminator 1
 176 00d4 7600     		lsls	r6, r6, #1
 177              		.loc 1 450 0 discriminator 1
 178 00d6 C2EB0C02 		rsb	r2, r2, ip
 179              	.LVL14:
 180              		.loc 1 489 0 discriminator 1
 181 00da 4900     		lsls	r1, r1, #1
 182              		.loc 1 474 0 discriminator 1
 183 00dc C0EB241C 		rsb	ip, r0, r4, asr #4
 184              	.LVL15:
 185              		.loc 1 501 0 discriminator 1
 186 00e0 0198     		ldr	r0, [sp, #4]
 187              		.loc 1 484 0 discriminator 1
 188 00e2 49F8086C 		str	r6, [r9, #-8]
 189              		.loc 1 488 0 discriminator 1
 190 00e6 49F8041C 		str	r1, [r9, #-4]
 191              		.loc 1 458 0 discriminator 1
 192 00ea 089E     		ldr	r6, [sp, #32]
 193              		.loc 1 502 0 discriminator 1
 194 00ec 4168     		ldr	r1, [r0, #4]
 195              		.loc 1 476 0 discriminator 1
 196 00ee C5EB2313 		rsb	r3, r5, r3, asr #4
 197              		.loc 1 501 0 discriminator 1
 198 00f2 0568     		ldr	r5, [r0]
 199              		.loc 1 458 0 discriminator 1
 200 00f4 CEEB060E 		rsb	lr, lr, r6
 201              	.LVL16:
 202              		.loc 1 492 0 discriminator 1
 203 00f8 02EB0C00 		add	r0, r2, ip
 204              	.LVL17:
 205              		.loc 1 505 0 discriminator 1
 206 00fc 80FB0567 		smull	r6, r7, r0, r5
 207              		.loc 1 497 0 discriminator 1
 208 0100 C3EB0E04 		rsb	r4, r3, lr
 209              		.loc 1 505 0 discriminator 1
 210 0104 CDE90667 		strd	r6, [sp, #24]
 211              		.loc 1 506 0 discriminator 1
 212 0108 84FB0167 		smull	r6, r7, r4, r1
 213              		.loc 1 505 0 discriminator 1
 214 010c 3E46     		mov	r6, r7
 215 010e 079F     		ldr	r7, [sp, #28]
 216              		.loc 1 509 0 discriminator 1
 217 0110 85FB0445 		smull	r4, r5, r5, r4
 218              		.loc 1 510 0 discriminator 1
 219 0114 80FB0101 		smull	r0, r1, r0, r1
 220              	.LVL18:
 221              		.loc 1 505 0 discriminator 1
 222 0118 3E44     		add	r6, r6, r7
 223              		.loc 1 509 0 discriminator 1
 224 011a 691A     		subs	r1, r5, r1
 225              		.loc 1 506 0 discriminator 1
 226 011c 7000     		lsls	r0, r6, #1
 227              		.loc 1 510 0 discriminator 1
 228 011e 4900     		lsls	r1, r1, #1
ARM GAS  /tmp/ccUp6Xac.s 			page 5


 229              		.loc 1 509 0 discriminator 1
 230 0120 0AE90300 		stmdb	r10, {r0, r1}
 231              		.loc 1 514 0 discriminator 1
 232 0124 049F     		ldr	r7, [sp, #16]
 233 0126 3968     		ldr	r1, [r7]
 234              		.loc 1 515 0 discriminator 1
 235 0128 7E68     		ldr	r6, [r7, #4]
 236              		.loc 1 494 0 discriminator 1
 237 012a CCEB0202 		rsb	r2, ip, r2
 238              	.LVL19:
 239              		.loc 1 518 0 discriminator 1
 240 012e 82FB0145 		smull	r4, r5, r2, r1
 241              		.loc 1 499 0 discriminator 1
 242 0132 7344     		add	r3, r3, lr
 243              	.LVL20:
 244              		.loc 1 518 0 discriminator 1
 245 0134 CDE90445 		strd	r4, [sp, #16]
 246              		.loc 1 522 0 discriminator 1
 247 0138 81FB0301 		smull	r0, r1, r1, r3
 248              		.loc 1 519 0 discriminator 1
 249 013c 83FB0645 		smull	r4, r5, r3, r6
 250              		.loc 1 523 0 discriminator 1
 251 0140 82FB0623 		smull	r2, r3, r2, r6
 252              	.LVL21:
 253              		.loc 1 522 0 discriminator 1
 254 0144 CB1A     		subs	r3, r1, r3
 255              	.LVL22:
 256 0146 0A9E     		ldr	r6, [sp, #40]
 257              	.LVL23:
 258 0148 0299     		ldr	r1, [sp, #8]
 259              	.LVL24:
 260              		.loc 1 518 0 discriminator 1
 261 014a 059C     		ldr	r4, [sp, #20]
 262 014c 0198     		ldr	r0, [sp, #4]
 263 014e 3144     		add	r1, r1, r6
 264 0150 0291     		str	r1, [sp, #8]
 265 0152 0999     		ldr	r1, [sp, #36]
 266 0154 2C44     		add	r4, r4, r5
 267              		.loc 1 523 0 discriminator 1
 268 0156 5B00     		lsls	r3, r3, #1
 269 0158 4118     		adds	r1, r0, r1
 270              		.loc 1 519 0 discriminator 1
 271 015a 6200     		lsls	r2, r4, #1
 272              		.loc 1 522 0 discriminator 1
 273 015c 0BE90C00 		stmdb	fp, {r2, r3}
 274              	.LVL25:
 275 0160 0191     		str	r1, [sp, #4]
 276              		.loc 1 528 0 discriminator 1
 277 0162 039B     		ldr	r3, [sp, #12]
 278 0164 0B99     		ldr	r1, [sp, #44]
 279 0166 013B     		subs	r3, r3, #1
 280              	.LVL26:
 281 0168 3944     		add	r1, r7, r1
 282 016a 08F10808 		add	r8, r8, #8
 283              	.LVL27:
 284 016e 09F10809 		add	r9, r9, #8
 285 0172 0AF1080A 		add	r10, r10, #8
ARM GAS  /tmp/ccUp6Xac.s 			page 6


 286 0176 0491     		str	r1, [sp, #16]
 287 0178 0BF1080B 		add	fp, fp, #8
 288 017c 0393     		str	r3, [sp, #12]
 289 017e 7FF469AF 		bne	.L2
 290              		.loc 1 540 0
 291 0182 0C9B     		ldr	r3, [sp, #48]
 292              	.LVL28:
 293 0184 9B00     		lsls	r3, r3, #2
 294 0186 1793     		str	r3, [sp, #92]
 295              	.LVL29:
 296              		.loc 1 543 0
 297 0188 1F9B     		ldr	r3, [sp, #124]
 298              	.LVL30:
 299 018a 042B     		cmp	r3, #4
 300 018c 40F2F680 		bls	.L11
 301 0190 1F9B     		ldr	r3, [sp, #124]
 302 0192 1C93     		str	r3, [sp, #112]
 303 0194 0E93     		str	r3, [sp, #56]
 304              	.LVL31:
 305              	.L10:
 306              		.loc 1 547 0
 307 0196 0E98     		ldr	r0, [sp, #56]
 308 0198 8308     		lsrs	r3, r0, #2
 309 019a 1A46     		mov	r2, r3
 310 019c 1D93     		str	r3, [sp, #116]
 311              	.LVL32:
 312 019e 179B     		ldr	r3, [sp, #92]
 313 01a0 03EB4303 		add	r3, r3, r3, lsl #1
 314              		.loc 1 551 0
 315 01a4 0021     		movs	r1, #0
 316 01a6 DB00     		lsls	r3, r3, #3
 317 01a8 0C46     		mov	r4, r1
 318 01aa 1391     		str	r1, [sp, #76]
 319 01ac 1A93     		str	r3, [sp, #104]
 320 01ae 1146     		mov	r1, r2
 321 01b0 1E9B     		ldr	r3, [sp, #120]
 322 01b2 1593     		str	r3, [sp, #84]
 323 01b4 013A     		subs	r2, r2, #1
 324              	.LVL33:
 325 01b6 1992     		str	r2, [sp, #100]
 326 01b8 4FEAC00E 		lsl	lr, r0, #3
 327 01bc CA00     		lsls	r2, r1, #3
 328 01be 189B     		ldr	r3, [sp, #96]
 329 01c0 1B92     		str	r2, [sp, #108]
 330              		.loc 1 548 0
 331 01c2 1694     		str	r4, [sp, #88]
 332              		.loc 1 551 0
 333 01c4 1493     		str	r3, [sp, #80]
 334 01c6 CDF848E0 		str	lr, [sp, #72]
 335              	.LVL34:
 336              	.L6:
 337 01ca 169B     		ldr	r3, [sp, #88]
 338 01cc 189C     		ldr	r4, [sp, #96]
 339 01ce 1B9D     		ldr	r5, [sp, #108]
 340 01d0 159F     		ldr	r7, [sp, #84]
 341 01d2 D900     		lsls	r1, r3, #3
 342 01d4 2246     		mov	r2, r4
ARM GAS  /tmp/ccUp6Xac.s 			page 7


 343 01d6 0A44     		add	r2, r2, r1
 344 01d8 1144     		add	r1, r1, r2
 345 01da 1846     		mov	r0, r3
 346 01dc 1B01     		lsls	r3, r3, #4
 347              		.loc 1 559 0
 348 01de 4968     		ldr	r1, [r1, #4]
 349              		.loc 1 557 0
 350 01e0 5268     		ldr	r2, [r2, #4]
 351              		.loc 1 558 0
 352 01e2 E358     		ldr	r3, [r4, r3]
 353              		.loc 1 559 0
 354 01e4 0691     		str	r1, [sp, #24]
 355              		.loc 1 560 0
 356 01e6 1499     		ldr	r1, [sp, #80]
 357              		.loc 1 557 0
 358 01e8 0492     		str	r2, [sp, #16]
 359              		.loc 1 558 0
 360 01ea 1093     		str	r3, [sp, #64]
 361              		.loc 1 556 0
 362 01ec 54F83020 		ldr	r2, [r4, r0, lsl #3]
 363              		.loc 1 563 0
 364 01f0 179B     		ldr	r3, [sp, #92]
 365              		.loc 1 556 0
 366 01f2 0392     		str	r2, [sp, #12]
 367              	.LVL35:
 368              		.loc 1 560 0
 369 01f4 0A68     		ldr	r2, [r1]
 370              	.LVL36:
 371 01f6 0892     		str	r2, [sp, #32]
 372              	.LVL37:
 373              		.loc 1 563 0
 374 01f8 C318     		adds	r3, r0, r3
 375              		.loc 1 561 0
 376 01fa 4A68     		ldr	r2, [r1, #4]
 377              	.LVL38:
 378 01fc 1192     		str	r2, [sp, #68]
 379              	.LVL39:
 380              		.loc 1 563 0
 381 01fe 1693     		str	r3, [sp, #88]
 382              	.LVL40:
 383              		.loc 1 570 0
 384 0200 139A     		ldr	r2, [sp, #76]
 385              	.LVL41:
 386 0202 0F9B     		ldr	r3, [sp, #60]
 387              	.LVL42:
 388 0204 07EB050A 		add	r10, r7, r5
 389 0208 0AEB050E 		add	lr, r10, r5
 390 020c 9342     		cmp	r3, r2
 391 020e 0EEB050C 		add	ip, lr, r5
 392              	.LVL43:
 393 0212 40F29A80 		bls	.L9
 394 0216 139B     		ldr	r3, [sp, #76]
 395 0218 0E9A     		ldr	r2, [sp, #56]
 396 021a 0197     		str	r7, [sp, #4]
 397 021c 1344     		add	r3, r3, r2
 398 021e D346     		mov	fp, r10
 399 0220 0993     		str	r3, [sp, #36]
ARM GAS  /tmp/ccUp6Xac.s 			page 8


 400 0222 CDF808E0 		str	lr, [sp, #8]
 401 0226 E246     		mov	r10, ip
 402              	.LVL44:
 403              	.L8:
 404              		.loc 1 574 0 discriminator 3
 405 0228 019F     		ldr	r7, [sp, #4]
 406 022a 029C     		ldr	r4, [sp, #8]
 407 022c 3D68     		ldr	r5, [r7]
 408 022e 2068     		ldr	r0, [r4]
 409              		.loc 1 588 0 discriminator 3
 410 0230 DBF80010 		ldr	r1, [fp]
 411 0234 DAF80020 		ldr	r2, [r10]
 412              		.loc 1 581 0 discriminator 3
 413 0238 6368     		ldr	r3, [r4, #4]
 414 023a 7C68     		ldr	r4, [r7, #4]
 415              		.loc 1 574 0 discriminator 3
 416 023c 05EB000C 		add	ip, r5, r0
 417              	.LVL45:
 418              		.loc 1 588 0 discriminator 3
 419 0240 0A44     		add	r2, r2, r1
 420              		.loc 1 592 0 discriminator 3
 421 0242 0CEB0201 		add	r1, ip, r2
 422 0246 8910     		asrs	r1, r1, #2
 423 0248 3960     		str	r1, [r7]
 424              		.loc 1 597 0 discriminator 3
 425 024a DAF80410 		ldr	r1, [r10, #4]
 426 024e DBF80460 		ldr	r6, [fp, #4]
 427              		.loc 1 581 0 discriminator 3
 428 0252 04EB0308 		add	r8, r4, r3
 429              		.loc 1 597 0 discriminator 3
 430 0256 0E44     		add	r6, r6, r1
 431              		.loc 1 600 0 discriminator 3
 432 0258 08EB0601 		add	r1, r8, r6
 433 025c 8910     		asrs	r1, r1, #2
 434 025e 7960     		str	r1, [r7, #4]
 435              		.loc 1 584 0 discriminator 3
 436 0260 E41A     		subs	r4, r4, r3
 437              		.loc 1 607 0 discriminator 3
 438 0262 DAF80410 		ldr	r1, [r10, #4]
 439 0266 DBF80430 		ldr	r3, [fp, #4]
 440              		.loc 1 610 0 discriminator 3
 441 026a DAF80070 		ldr	r7, [r10]
 442              		.loc 1 607 0 discriminator 3
 443 026e 591A     		subs	r1, r3, r1
 444              		.loc 1 610 0 discriminator 3
 445 0270 DBF80030 		ldr	r3, [fp]
 446              		.loc 1 577 0 discriminator 3
 447 0274 C0EB050E 		rsb	lr, r0, r5
 448              	.LVL46:
 449              		.loc 1 610 0 discriminator 3
 450 0278 DB1B     		subs	r3, r3, r7
 451              		.loc 1 623 0 discriminator 3
 452 027a 0EEB0100 		add	r0, lr, r1
 453              		.loc 1 594 0 discriminator 3
 454 027e C2EB0C02 		rsb	r2, r2, ip
 455              	.LVL47:
 456              		.loc 1 625 0 discriminator 3
ARM GAS  /tmp/ccUp6Xac.s 			page 9


 457 0282 C1EB0E01 		rsb	r1, r1, lr
 458              		.loc 1 604 0 discriminator 3
 459 0286 C6EB080C 		rsb	ip, r6, r8
 460              		.loc 1 628 0 discriminator 3
 461 028a C3EB040E 		rsb	lr, r3, r4
 462              	.LVL48:
 463              		.loc 1 634 0 discriminator 3
 464 028e 049D     		ldr	r5, [sp, #16]
 465              		.loc 1 633 0 discriminator 3
 466 0290 039E     		ldr	r6, [sp, #12]
 467              	.LVL49:
 468              		.loc 1 630 0 discriminator 3
 469 0292 2344     		add	r3, r3, r4
 470              		.loc 1 615 0 discriminator 3
 471 0294 069C     		ldr	r4, [sp, #24]
 472              	.LVL50:
 473              		.loc 1 630 0 discriminator 3
 474 0296 0A93     		str	r3, [sp, #40]
 475              		.loc 1 634 0 discriminator 3
 476 0298 8EFB0589 		smull	r8, r9, lr, r5
 477              	.LVL51:
 478              		.loc 1 633 0 discriminator 3
 479 029c 80FB0667 		smull	r6, r7, r0, r6
 480              		.loc 1 615 0 discriminator 3
 481 02a0 2346     		mov	r3, r4
 482 02a2 8CFB0345 		smull	r4, r5, ip, r3
 483              		.loc 1 633 0 discriminator 3
 484 02a6 09EB0703 		add	r3, r9, r7
 485 02aa 0B93     		str	r3, [sp, #44]
 486              		.loc 1 614 0 discriminator 3
 487 02ac 109B     		ldr	r3, [sp, #64]
 488              		.loc 1 619 0 discriminator 3
 489 02ae 069C     		ldr	r4, [sp, #24]
 490              		.loc 1 614 0 discriminator 3
 491 02b0 82FB0367 		smull	r6, r7, r2, r3
 492              		.loc 1 618 0 discriminator 3
 493 02b4 8CFB0389 		smull	r8, r9, ip, r3
 494              		.loc 1 614 0 discriminator 3
 495 02b8 05EB070C 		add	ip, r5, r7
 496              		.loc 1 619 0 discriminator 3
 497 02bc 82FB0445 		smull	r4, r5, r2, r4
 498              		.loc 1 637 0 discriminator 3
 499 02c0 039A     		ldr	r2, [sp, #12]
 500              	.LVL52:
 501 02c2 8EFB0267 		smull	r6, r7, lr, r2
 502              		.loc 1 638 0 discriminator 3
 503 02c6 049A     		ldr	r2, [sp, #16]
 504 02c8 80FB0223 		smull	r2, r3, r0, r2
 505 02cc CDE90C23 		strd	r2, [sp, #48]
 506              		.loc 1 642 0 discriminator 3
 507 02d0 089B     		ldr	r3, [sp, #32]
 508              		.loc 1 637 0 discriminator 3
 509 02d2 0D9A     		ldr	r2, [sp, #52]
 510              		.loc 1 618 0 discriminator 3
 511 02d4 C5EB090E 		rsb	lr, r5, r9
 512              		.loc 1 642 0 discriminator 3
 513 02d8 81FB0345 		smull	r4, r5, r1, r3
ARM GAS  /tmp/ccUp6Xac.s 			page 10


 514              		.loc 1 647 0 discriminator 3
 515 02dc 119B     		ldr	r3, [sp, #68]
 516              		.loc 1 637 0 discriminator 3
 517 02de BE1A     		subs	r6, r7, r2
 518              		.loc 1 647 0 discriminator 3
 519 02e0 1846     		mov	r0, r3
 520              		.loc 1 643 0 discriminator 3
 521 02e2 0A9A     		ldr	r2, [sp, #40]
 522              		.loc 1 637 0 discriminator 3
 523 02e4 0C96     		str	r6, [sp, #48]
 524              		.loc 1 643 0 discriminator 3
 525 02e6 1E46     		mov	r6, r3
 526              		.loc 1 646 0 discriminator 3
 527 02e8 089B     		ldr	r3, [sp, #32]
 528              		.loc 1 647 0 discriminator 3
 529 02ea 81FB0001 		smull	r0, r1, r1, r0
 530              		.loc 1 646 0 discriminator 3
 531 02ee 82FB0389 		smull	r8, r9, r2, r3
 532              		.loc 1 643 0 discriminator 3
 533 02f2 82FB0667 		smull	r6, r7, r2, r6
 534              		.loc 1 646 0 discriminator 3
 535 02f6 C1EB0903 		rsb	r3, r1, r9
 536              		.loc 1 642 0 discriminator 3
 537 02fa 7C19     		adds	r4, r7, r5
 538              		.loc 1 634 0 discriminator 3
 539 02fc 0B99     		ldr	r1, [sp, #44]
 540              		.loc 1 638 0 discriminator 3
 541 02fe 0C98     		ldr	r0, [sp, #48]
 542              		.loc 1 601 0 discriminator 3
 543 0300 019F     		ldr	r7, [sp, #4]
 544              		.loc 1 615 0 discriminator 3
 545 0302 4FEA6C05 		asr	r5, ip, #1
 546              		.loc 1 647 0 discriminator 3
 547 0306 4FEA630C 		asr	ip, r3, #1
 548              		.loc 1 601 0 discriminator 3
 549 030a 129B     		ldr	r3, [sp, #72]
 550              		.loc 1 614 0 discriminator 3
 551 030c CBF80050 		str	r5, [fp]
 552              		.loc 1 619 0 discriminator 3
 553 0310 4FEA6E02 		asr	r2, lr, #1
 554              		.loc 1 601 0 discriminator 3
 555 0314 1F44     		add	r7, r7, r3
 556 0316 DDF824E0 		ldr	lr, [sp, #36]
 557 031a 0197     		str	r7, [sp, #4]
 558              	.LVL53:
 559 031c 0E9F     		ldr	r7, [sp, #56]
 560              	.LVL54:
 561              		.loc 1 618 0 discriminator 3
 562 031e CBF80420 		str	r2, [fp, #4]
 563              		.loc 1 633 0 discriminator 3
 564 0322 029D     		ldr	r5, [sp, #8]
 565 0324 7246     		mov	r2, lr
 566 0326 3A44     		add	r2, r2, r7
 567 0328 0992     		str	r2, [sp, #36]
 568              	.LVL55:
 569              		.loc 1 620 0 discriminator 3
 570 032a 9B44     		add	fp, fp, r3
ARM GAS  /tmp/ccUp6Xac.s 			page 11


 571              	.LVL56:
 572 032c 1A46     		mov	r2, r3
 573              		.loc 1 639 0 discriminator 3
 574 032e EB18     		adds	r3, r5, r3
 575 0330 0293     		str	r3, [sp, #8]
 576              	.LVL57:
 577              		.loc 1 570 0 discriminator 3
 578 0332 0F9B     		ldr	r3, [sp, #60]
 579              	.LVL58:
 580              		.loc 1 634 0 discriminator 3
 581 0334 4910     		asrs	r1, r1, #1
 582              		.loc 1 638 0 discriminator 3
 583 0336 4010     		asrs	r0, r0, #1
 584              		.loc 1 643 0 discriminator 3
 585 0338 6410     		asrs	r4, r4, #1
 586              		.loc 1 570 0 discriminator 3
 587 033a 7345     		cmp	r3, lr
 588              		.loc 1 633 0 discriminator 3
 589 033c 2960     		str	r1, [r5]
 590              		.loc 1 637 0 discriminator 3
 591 033e 6860     		str	r0, [r5, #4]
 592              		.loc 1 646 0 discriminator 3
 593 0340 8AE81010 		stmia	r10, {r4, ip}
 594              		.loc 1 648 0 discriminator 3
 595 0344 9244     		add	r10, r10, r2
 596              	.LVL59:
 597              		.loc 1 570 0 discriminator 3
 598 0346 3FF66FAF 		bhi	.L8
 599              	.LVL60:
 600              	.L9:
 601 034a 149A     		ldr	r2, [sp, #80]
 602 034c 1A99     		ldr	r1, [sp, #104]
 603              		.loc 1 551 0
 604 034e 139B     		ldr	r3, [sp, #76]
 605 0350 0A44     		add	r2, r2, r1
 606 0352 1492     		str	r2, [sp, #80]
 607 0354 159A     		ldr	r2, [sp, #84]
 608 0356 0832     		adds	r2, r2, #8
 609 0358 1592     		str	r2, [sp, #84]
 610 035a 199A     		ldr	r2, [sp, #100]
 611 035c 0133     		adds	r3, r3, #1
 612 035e 9342     		cmp	r3, r2
 613 0360 1393     		str	r3, [sp, #76]
 614              	.LVL61:
 615 0362 7FF632AF 		bls	.L6
 616              		.loc 1 543 0 discriminator 2
 617 0366 1C9B     		ldr	r3, [sp, #112]
 618              	.LVL62:
 619              		.loc 1 651 0 discriminator 2
 620 0368 179A     		ldr	r2, [sp, #92]
 621              		.loc 1 543 0 discriminator 2
 622 036a 9B08     		lsrs	r3, r3, #2
 623              		.loc 1 651 0 discriminator 2
 624 036c 9200     		lsls	r2, r2, #2
 625 036e 1792     		str	r2, [sp, #92]
 626              	.LVL63:
 627              		.loc 1 543 0 discriminator 2
ARM GAS  /tmp/ccUp6Xac.s 			page 12


 628 0370 042B     		cmp	r3, #4
 629              		.loc 1 547 0 discriminator 2
 630 0372 1D9A     		ldr	r2, [sp, #116]
 631              	.LVL64:
 632              		.loc 1 543 0 discriminator 2
 633 0374 1C93     		str	r3, [sp, #112]
 634              		.loc 1 547 0 discriminator 2
 635 0376 0E92     		str	r2, [sp, #56]
 636              	.LVL65:
 637              		.loc 1 543 0 discriminator 2
 638 0378 3FF60DAF 		bhi	.L10
 639              	.LVL66:
 640              	.L11:
 641 037c 1E98     		ldr	r0, [sp, #120]
 642 037e DDF87C90 		ldr	r9, [sp, #124]
 643 0382 2030     		adds	r0, r0, #32
 644              	.LVL67:
 645              	.L4:
 646              		.loc 1 675 0 discriminator 1
 647 0384 50F8202C 		ldr	r2, [r0, #-32]
 648              		.loc 1 680 0 discriminator 1
 649 0388 50F8183C 		ldr	r3, [r0, #-24]
 650 038c 50F8141C 		ldr	r1, [r0, #-20]
 651              		.loc 1 675 0 discriminator 1
 652 0390 50F81C8C 		ldr	r8, [r0, #-28]
 653              	.LVL68:
 654              		.loc 1 685 0 discriminator 1
 655 0394 50F810AC 		ldr	r10, [r0, #-16]
 656 0398 50F80CCC 		ldr	ip, [r0, #-12]
 657              	.LVL69:
 658              		.loc 1 690 0 discriminator 1
 659 039c 10E98040 		ldmdb	r0, {r7, lr}
 660              	.LVL70:
 661              		.loc 1 720 0 discriminator 1
 662 03a0 D618     		adds	r6, r2, r3
 663              		.loc 1 732 0 discriminator 1
 664 03a2 D51A     		subs	r5, r2, r3
 665              		.loc 1 739 0 discriminator 1
 666 03a4 5418     		adds	r4, r2, r1
 667              		.loc 1 746 0 discriminator 1
 668 03a6 521A     		subs	r2, r2, r1
 669              	.LVL71:
 670              		.loc 1 723 0 discriminator 1
 671 03a8 08EB010B 		add	fp, r8, r1
 672              		.loc 1 720 0 discriminator 1
 673 03ac 5644     		add	r6, r6, r10
 674              		.loc 1 733 0 discriminator 1
 675 03ae C1EB0801 		rsb	r1, r1, r8
 676              	.LVL72:
 677              		.loc 1 732 0 discriminator 1
 678 03b2 5544     		add	r5, r5, r10
 679              		.loc 1 739 0 discriminator 1
 680 03b4 CAEB0404 		rsb	r4, r10, r4
 681              		.loc 1 746 0 discriminator 1
 682 03b8 CAEB0202 		rsb	r2, r10, r2
 683              		.loc 1 740 0 discriminator 1
 684 03bc C3EB080A 		rsb	r10, r3, r8
ARM GAS  /tmp/ccUp6Xac.s 			page 13


 685              	.LVL73:
 686              		.loc 1 747 0 discriminator 1
 687 03c0 4344     		add	r3, r3, r8
 688              	.LVL74:
 689              		.loc 1 733 0 discriminator 1
 690 03c2 6144     		add	r1, r1, ip
 691              		.loc 1 723 0 discriminator 1
 692 03c4 E344     		add	fp, fp, ip
 693              		.loc 1 740 0 discriminator 1
 694 03c6 CCEB0A08 		rsb	r8, ip, r10
 695              	.LVL75:
 696              		.loc 1 747 0 discriminator 1
 697 03ca CCEB0303 		rsb	r3, ip, r3
 698              		.loc 1 739 0 discriminator 1
 699 03ce CEEB0404 		rsb	r4, lr, r4
 700              		.loc 1 746 0 discriminator 1
 701 03d2 7244     		add	r2, r2, lr
 702              		.loc 1 723 0 discriminator 1
 703 03d4 F344     		add	fp, fp, lr
 704              	.LVL76:
 705              		.loc 1 720 0 discriminator 1
 706 03d6 3E44     		add	r6, r6, r7
 707              	.LVL77:
 708              		.loc 1 733 0 discriminator 1
 709 03d8 CEEB010E 		rsb	lr, lr, r1
 710              	.LVL78:
 711              		.loc 1 732 0 discriminator 1
 712 03dc ED1B     		subs	r5, r5, r7
 713              		.loc 1 740 0 discriminator 1
 714 03de 08EB0701 		add	r1, r8, r7
 715              		.loc 1 747 0 discriminator 1
 716 03e2 DB1B     		subs	r3, r3, r7
 717              		.loc 1 754 0 discriminator 1
 718 03e4 B9F10109 		subs	r9, r9, #1
 719              	.LVL79:
 720              		.loc 1 729 0 discriminator 1
 721 03e8 40F8206C 		str	r6, [r0, #-32]
 722              	.LVL80:
 723              		.loc 1 736 0 discriminator 1
 724 03ec 40F8185C 		str	r5, [r0, #-24]
 725              	.LVL81:
 726              		.loc 1 743 0 discriminator 1
 727 03f0 40F8104C 		str	r4, [r0, #-16]
 728              	.LVL82:
 729              		.loc 1 750 0 discriminator 1
 730 03f4 40F8082C 		str	r2, [r0, #-8]
 731              		.loc 1 730 0 discriminator 1
 732 03f8 40F81CBC 		str	fp, [r0, #-28]
 733              	.LVL83:
 734              		.loc 1 737 0 discriminator 1
 735 03fc 40F814EC 		str	lr, [r0, #-20]
 736              	.LVL84:
 737              		.loc 1 744 0 discriminator 1
 738 0400 40F80C1C 		str	r1, [r0, #-12]
 739              	.LVL85:
 740              		.loc 1 751 0 discriminator 1
 741 0404 40F8043C 		str	r3, [r0, #-4]
ARM GAS  /tmp/ccUp6Xac.s 			page 14


 742              	.LVL86:
 743 0408 00F12000 		add	r0, r0, #32
 744              	.LVL87:
 745              		.loc 1 754 0 discriminator 1
 746 040c BAD1     		bne	.L4
 747              		.loc 1 763 0
 748 040e 21B0     		add	sp, sp, #132
 749              		.cfi_def_cfa_offset 36
 750              		@ sp needed
 751 0410 BDE8F08F 		pop	{r4, r5, r6, r7, r8, r9, r10, fp, pc}
 752              		.cfi_endproc
 753              	.LFE136:
 754              		.size	arm_radix4_butterfly_q31, .-arm_radix4_butterfly_q31
 755              		.align	2
 756 0414 AFF30080 		.p2align 4,,15
 756      AFF30080 
 756      AFF30080 
 757              		.global	arm_radix4_butterfly_inverse_q31
 758              		.thumb
 759              		.thumb_func
 760              		.type	arm_radix4_butterfly_inverse_q31, %function
 761              	arm_radix4_butterfly_inverse_q31:
 762              	.LFB137:
 763              		.loc 1 821 0
 764              		.cfi_startproc
 765              		@ args = 0, pretend = 0, frame = 120
 766              		@ frame_needed = 0, uses_anonymous_args = 0
 767              	.LVL88:
 768 0420 2DE9F04F 		push	{r4, r5, r6, r7, r8, r9, r10, fp, lr}
 769              		.cfi_def_cfa_offset 36
 770              		.cfi_offset 4, -36
 771              		.cfi_offset 5, -32
 772              		.cfi_offset 6, -28
 773              		.cfi_offset 7, -24
 774              		.cfi_offset 8, -20
 775              		.cfi_offset 9, -16
 776              		.cfi_offset 10, -12
 777              		.cfi_offset 11, -8
 778              		.cfi_offset 14, -4
 779 0424 9FB0     		sub	sp, sp, #124
 780              		.cfi_def_cfa_offset 160
 781              		.loc 1 821 0
 782 0426 1E46     		mov	r6, r3
 783 0428 0F91     		str	r1, [sp, #60]
 784              	.LVL89:
 785              		.loc 1 1078 0
 786 042a 8908     		lsrs	r1, r1, #2
 787              	.LVL90:
 788 042c 0C46     		mov	r4, r1
 789 042e 1D91     		str	r1, [sp, #116]
 790              	.LVL91:
 791              		.loc 1 1085 0
 792 0430 C900     		lsls	r1, r1, #3
 793              	.LVL92:
 794              		.loc 1 821 0
 795 0432 0746     		mov	r7, r0
 796 0434 1C90     		str	r0, [sp, #112]
ARM GAS  /tmp/ccUp6Xac.s 			page 15


 797              	.LVL93:
 798              		.loc 1 1085 0
 799 0436 0844     		add	r0, r0, r1
 800              	.LVL94:
 801              		.loc 1 821 0
 802 0438 9246     		mov	r10, r2
 803 043a 0C93     		str	r3, [sp, #48]
 804 043c 1692     		str	r2, [sp, #88]
 805              		.loc 1 1086 0
 806 043e 4318     		adds	r3, r0, r1
 807              	.LVL95:
 808 0440 06EB4602 		add	r2, r6, r6, lsl #1
 809              	.LVL96:
 810 0444 0831     		adds	r1, r1, #8
 811              	.LVL97:
 812 0446 03F1080E 		add	lr, r3, #8
 813 044a 03EB010B 		add	fp, r3, r1
 814 044e D300     		lsls	r3, r2, #3
 815 0450 0B93     		str	r3, [sp, #44]
 816 0452 3301     		lsls	r3, r6, #4
 817 0454 0837     		adds	r7, r7, #8
 818              	.LVL98:
 819 0456 0A93     		str	r3, [sp, #40]
 820 0458 F300     		lsls	r3, r6, #3
 821              		.loc 1 1087 0
 822 045a F146     		mov	r9, lr
 823 045c 00F1080C 		add	ip, r0, #8
 824              		.loc 1 1078 0
 825 0460 0394     		str	r4, [sp, #12]
 826 0462 0993     		str	r3, [sp, #36]
 827              		.loc 1 1087 0
 828 0464 D046     		mov	r8, r10
 829 0466 BE46     		mov	lr, r7
 830 0468 CDF808A0 		str	r10, [sp, #8]
 831 046c CDF804A0 		str	r10, [sp, #4]
 832              	.LVL99:
 833              	.L22:
 834              		.loc 1 1093 0 discriminator 1
 835 0470 59F8080C 		ldr	r0, [r9, #-8]
 836 0474 5EF8084C 		ldr	r4, [lr, #-8]
 837              		.loc 1 1098 0 discriminator 1
 838 0478 5BF8082C 		ldr	r2, [fp, #-8]
 839              		.loc 1 1101 0 discriminator 1
 840 047c 59F8041C 		ldr	r1, [r9, #-4]
 841              		.loc 1 1093 0 discriminator 1
 842 0480 0311     		asrs	r3, r0, #4
 843 0482 1846     		mov	r0, r3
 844 0484 4FEA241A 		asr	r10, r4, #4
 845 0488 0AEB0005 		add	r5, r10, r0
 846              	.LVL100:
 847 048c 0890     		str	r0, [sp, #32]
 848              		.loc 1 1098 0 discriminator 1
 849 048e 5CF8080C 		ldr	r0, [ip, #-8]
 850 0492 1311     		asrs	r3, r2, #4
 851 0494 03EB2013 		add	r3, r3, r0, asr #4
 852              		.loc 1 1106 0 discriminator 1
 853 0498 EA18     		adds	r2, r5, r3
ARM GAS  /tmp/ccUp6Xac.s 			page 16


 854 049a 4EF8082C 		str	r2, [lr, #-8]
 855              		.loc 1 1110 0 discriminator 1
 856 049e 5BF8044C 		ldr	r4, [fp, #-4]
 857              		.loc 1 1101 0 discriminator 1
 858 04a2 5EF8042C 		ldr	r2, [lr, #-4]
 859              		.loc 1 1110 0 discriminator 1
 860 04a6 5CF8040C 		ldr	r0, [ip, #-4]
 861              		.loc 1 1101 0 discriminator 1
 862 04aa 1211     		asrs	r2, r2, #4
 863 04ac 0911     		asrs	r1, r1, #4
 864              		.loc 1 1110 0 discriminator 1
 865 04ae 2411     		asrs	r4, r4, #4
 866 04b0 04EB2014 		add	r4, r4, r0, asr #4
 867              		.loc 1 1101 0 discriminator 1
 868 04b4 0691     		str	r1, [sp, #24]
 869 04b6 5118     		adds	r1, r2, r1
 870 04b8 0492     		str	r2, [sp, #16]
 871              		.loc 1 1112 0 discriminator 1
 872 04ba 0A19     		adds	r2, r1, r4
 873 04bc 4EF8042C 		str	r2, [lr, #-4]
 874              		.loc 1 1124 0 discriminator 1
 875 04c0 029A     		ldr	r2, [sp, #8]
 876              		.loc 1 1118 0 discriminator 1
 877 04c2 5BF8046C 		ldr	r6, [fp, #-4]
 878              		.loc 1 1124 0 discriminator 1
 879 04c6 1068     		ldr	r0, [r2]
 880              		.loc 1 1125 0 discriminator 1
 881 04c8 5268     		ldr	r2, [r2, #4]
 882              		.loc 1 1108 0 discriminator 1
 883 04ca EB1A     		subs	r3, r5, r3
 884              		.loc 1 1115 0 discriminator 1
 885 04cc 091B     		subs	r1, r1, r4
 886              		.loc 1 1128 0 discriminator 1
 887 04ce 83FB0045 		smull	r4, r5, r3, r0
 888 04d2 2F46     		mov	r7, r5
 889              		.loc 1 1129 0 discriminator 1
 890 04d4 81FB0245 		smull	r4, r5, r1, r2
 891              		.loc 1 1133 0 discriminator 1
 892 04d8 83FB0223 		smull	r2, r3, r3, r2
 893              		.loc 1 1132 0 discriminator 1
 894 04dc 80FB0101 		smull	r0, r1, r0, r1
 895 04e0 1944     		add	r1, r1, r3
 896              		.loc 1 1120 0 discriminator 1
 897 04e2 5BF8083C 		ldr	r3, [fp, #-8]
 898 04e6 5CF8084C 		ldr	r4, [ip, #-8]
 899              		.loc 1 1118 0 discriminator 1
 900 04ea 5CF8040C 		ldr	r0, [ip, #-4]
 901 04ee 3211     		asrs	r2, r6, #4
 902              		.loc 1 1120 0 discriminator 1
 903 04f0 1E11     		asrs	r6, r3, #4
 904              		.loc 1 1095 0 discriminator 1
 905 04f2 089B     		ldr	r3, [sp, #32]
 906              		.loc 1 1133 0 discriminator 1
 907 04f4 4900     		lsls	r1, r1, #1
 908              		.loc 1 1132 0 discriminator 1
 909 04f6 4CF8041C 		str	r1, [ip, #-4]
 910              		.loc 1 1095 0 discriminator 1
ARM GAS  /tmp/ccUp6Xac.s 			page 17


 911 04fa C3EB0A0A 		rsb	r10, r3, r10
 912              	.LVL101:
 913              		.loc 1 1103 0 discriminator 1
 914 04fe 0699     		ldr	r1, [sp, #24]
 915 0500 049B     		ldr	r3, [sp, #16]
 916              		.loc 1 1128 0 discriminator 1
 917 0502 7D1B     		subs	r5, r7, r5
 918              	.LVL102:
 919              		.loc 1 1103 0 discriminator 1
 920 0504 5B1A     		subs	r3, r3, r1
 921              	.LVL103:
 922              		.loc 1 1129 0 discriminator 1
 923 0506 6D00     		lsls	r5, r5, #1
 924              		.loc 1 1120 0 discriminator 1
 925 0508 C6EB2411 		rsb	r1, r6, r4, asr #4
 926              		.loc 1 1145 0 discriminator 1
 927 050c 019C     		ldr	r4, [sp, #4]
 928              		.loc 1 1128 0 discriminator 1
 929 050e 4CF8085C 		str	r5, [ip, #-8]
 930              		.loc 1 1118 0 discriminator 1
 931 0512 C2EB2012 		rsb	r2, r2, r0, asr #4
 932              	.LVL104:
 933              		.loc 1 1145 0 discriminator 1
 934 0516 2068     		ldr	r0, [r4]
 935              		.loc 1 1146 0 discriminator 1
 936 0518 6468     		ldr	r4, [r4, #4]
 937              		.loc 1 1141 0 discriminator 1
 938 051a 0891     		str	r1, [sp, #32]
 939              		.loc 1 1136 0 discriminator 1
 940 051c C2EB0A05 		rsb	r5, r2, r10
 941              	.LVL105:
 942              		.loc 1 1149 0 discriminator 1
 943 0520 85FB0067 		smull	r6, r7, r5, r0
 944              		.loc 1 1141 0 discriminator 1
 945 0524 5918     		adds	r1, r3, r1
 946              	.LVL106:
 947              		.loc 1 1149 0 discriminator 1
 948 0526 CDE90467 		strd	r6, [sp, #16]
 949              		.loc 1 1150 0 discriminator 1
 950 052a 81FB0467 		smull	r6, r7, r1, r4
 951 052e CDE90667 		strd	r6, [sp, #24]
 952              		.loc 1 1149 0 discriminator 1
 953 0532 079F     		ldr	r7, [sp, #28]
 954 0534 059E     		ldr	r6, [sp, #20]
 955              		.loc 1 1153 0 discriminator 1
 956 0536 80FB0101 		smull	r0, r1, r0, r1
 957              		.loc 1 1154 0 discriminator 1
 958 053a 85FB0445 		smull	r4, r5, r5, r4
 959              		.loc 1 1149 0 discriminator 1
 960 053e F61B     		subs	r6, r6, r7
 961              		.loc 1 1153 0 discriminator 1
 962 0540 2944     		add	r1, r1, r5
 963              		.loc 1 1150 0 discriminator 1
 964 0542 7000     		lsls	r0, r6, #1
 965              		.loc 1 1154 0 discriminator 1
 966 0544 4900     		lsls	r1, r1, #1
 967              		.loc 1 1153 0 discriminator 1
ARM GAS  /tmp/ccUp6Xac.s 			page 18


 968 0546 09E90300 		stmdb	r9, {r0, r1}
 969              		.loc 1 1143 0 discriminator 1
 970 054a 0898     		ldr	r0, [sp, #32]
 971              		.loc 1 1158 0 discriminator 1
 972 054c D8F80010 		ldr	r1, [r8]
 973              		.loc 1 1143 0 discriminator 1
 974 0550 1B1A     		subs	r3, r3, r0
 975              	.LVL107:
 976              		.loc 1 1138 0 discriminator 1
 977 0552 5244     		add	r2, r2, r10
 978              	.LVL108:
 979              		.loc 1 1163 0 discriminator 1
 980 0554 D8F80400 		ldr	r0, [r8, #4]
 981              		.loc 1 1162 0 discriminator 1
 982 0558 82FB0145 		smull	r4, r5, r2, r1
 983 055c 2F46     		mov	r7, r5
 984              		.loc 1 1163 0 discriminator 1
 985 055e 83FB0045 		smull	r4, r5, r3, r0
 986              		.loc 1 1166 0 discriminator 1
 987 0562 81FB0301 		smull	r0, r1, r1, r3
 988              		.loc 1 1167 0 discriminator 1
 989 0566 D8F80430 		ldr	r3, [r8, #4]
 990              	.LVL109:
 991 056a 0198     		ldr	r0, [sp, #4]
 992 056c 82FB0323 		smull	r2, r3, r2, r3
 993              	.LVL110:
 994              		.loc 1 1162 0 discriminator 1
 995 0570 7C1B     		subs	r4, r7, r5
 996              		.loc 1 1166 0 discriminator 1
 997 0572 0B44     		add	r3, r3, r1
 998 0574 029D     		ldr	r5, [sp, #8]
 999              	.LVL111:
 1000 0576 0A99     		ldr	r1, [sp, #40]
 1001              	.LVL112:
 1002              		.loc 1 1167 0 discriminator 1
 1003 0578 5B00     		lsls	r3, r3, #1
 1004 057a 0D44     		add	r5, r5, r1
 1005              		.loc 1 1163 0 discriminator 1
 1006 057c 6200     		lsls	r2, r4, #1
 1007 057e 0999     		ldr	r1, [sp, #36]
 1008 0580 0295     		str	r5, [sp, #8]
 1009              		.loc 1 1166 0 discriminator 1
 1010 0582 0BE90C00 		stmdb	fp, {r2, r3}
 1011              	.LVL113:
 1012              		.loc 1 1172 0 discriminator 1
 1013 0586 039B     		ldr	r3, [sp, #12]
 1014 0588 0844     		add	r0, r0, r1
 1015 058a 0B99     		ldr	r1, [sp, #44]
 1016 058c 0190     		str	r0, [sp, #4]
 1017 058e 013B     		subs	r3, r3, #1
 1018              	.LVL114:
 1019 0590 0EF1080E 		add	lr, lr, #8
 1020              	.LVL115:
 1021 0594 0CF1080C 		add	ip, ip, #8
 1022 0598 09F10809 		add	r9, r9, #8
 1023 059c 8844     		add	r8, r8, r1
 1024 059e 0BF1080B 		add	fp, fp, #8
ARM GAS  /tmp/ccUp6Xac.s 			page 19


 1025 05a2 0393     		str	r3, [sp, #12]
 1026 05a4 7FF464AF 		bne	.L22
 1027              		.loc 1 1180 0
 1028 05a8 0C9B     		ldr	r3, [sp, #48]
 1029              	.LVL116:
 1030 05aa 9B00     		lsls	r3, r3, #2
 1031 05ac 1593     		str	r3, [sp, #84]
 1032              	.LVL117:
 1033              		.loc 1 1183 0
 1034 05ae 1D9B     		ldr	r3, [sp, #116]
 1035              	.LVL118:
 1036 05b0 042B     		cmp	r3, #4
 1037 05b2 40F2F280 		bls	.L31
 1038 05b6 1D9B     		ldr	r3, [sp, #116]
 1039 05b8 1A93     		str	r3, [sp, #104]
 1040 05ba 0E93     		str	r3, [sp, #56]
 1041              	.LVL119:
 1042              	.L30:
 1043              		.loc 1 1187 0
 1044 05bc 0E98     		ldr	r0, [sp, #56]
 1045 05be 8308     		lsrs	r3, r0, #2
 1046 05c0 1A46     		mov	r2, r3
 1047 05c2 1B93     		str	r3, [sp, #108]
 1048              	.LVL120:
 1049 05c4 159B     		ldr	r3, [sp, #84]
 1050 05c6 03EB4303 		add	r3, r3, r3, lsl #1
 1051              		.loc 1 1190 0
 1052 05ca 0021     		movs	r1, #0
 1053 05cc DB00     		lsls	r3, r3, #3
 1054 05ce 0C46     		mov	r4, r1
 1055 05d0 1191     		str	r1, [sp, #68]
 1056 05d2 1893     		str	r3, [sp, #96]
 1057 05d4 1146     		mov	r1, r2
 1058 05d6 1C9B     		ldr	r3, [sp, #112]
 1059 05d8 1393     		str	r3, [sp, #76]
 1060 05da 013A     		subs	r2, r2, #1
 1061              	.LVL121:
 1062 05dc 1792     		str	r2, [sp, #92]
 1063 05de 4FEAC00E 		lsl	lr, r0, #3
 1064 05e2 CA00     		lsls	r2, r1, #3
 1065 05e4 169B     		ldr	r3, [sp, #88]
 1066 05e6 1992     		str	r2, [sp, #100]
 1067              		.loc 1 1188 0
 1068 05e8 1494     		str	r4, [sp, #80]
 1069              		.loc 1 1190 0
 1070 05ea 1293     		str	r3, [sp, #72]
 1071 05ec CDF82CE0 		str	lr, [sp, #44]
 1072              	.LVL122:
 1073              	.L26:
 1074 05f0 149B     		ldr	r3, [sp, #80]
 1075 05f2 169C     		ldr	r4, [sp, #88]
 1076 05f4 199D     		ldr	r5, [sp, #100]
 1077 05f6 139F     		ldr	r7, [sp, #76]
 1078 05f8 D900     		lsls	r1, r3, #3
 1079 05fa 2246     		mov	r2, r4
 1080 05fc 0A44     		add	r2, r2, r1
 1081 05fe 1144     		add	r1, r1, r2
ARM GAS  /tmp/ccUp6Xac.s 			page 20


 1082 0600 1846     		mov	r0, r3
 1083 0602 1B01     		lsls	r3, r3, #4
 1084              		.loc 1 1198 0
 1085 0604 4968     		ldr	r1, [r1, #4]
 1086              		.loc 1 1196 0
 1087 0606 5268     		ldr	r2, [r2, #4]
 1088              		.loc 1 1197 0
 1089 0608 E358     		ldr	r3, [r4, r3]
 1090              		.loc 1 1198 0
 1091 060a 0491     		str	r1, [sp, #16]
 1092              		.loc 1 1199 0
 1093 060c 1299     		ldr	r1, [sp, #72]
 1094              		.loc 1 1196 0
 1095 060e 0892     		str	r2, [sp, #32]
 1096              		.loc 1 1197 0
 1097 0610 1093     		str	r3, [sp, #64]
 1098              		.loc 1 1195 0
 1099 0612 54F83020 		ldr	r2, [r4, r0, lsl #3]
 1100              		.loc 1 1202 0
 1101 0616 159B     		ldr	r3, [sp, #84]
 1102              		.loc 1 1195 0
 1103 0618 0392     		str	r2, [sp, #12]
 1104              	.LVL123:
 1105              		.loc 1 1199 0
 1106 061a 0A68     		ldr	r2, [r1]
 1107              	.LVL124:
 1108 061c 0692     		str	r2, [sp, #24]
 1109              	.LVL125:
 1110              		.loc 1 1202 0
 1111 061e C318     		adds	r3, r0, r3
 1112              		.loc 1 1200 0
 1113 0620 4A68     		ldr	r2, [r1, #4]
 1114              	.LVL126:
 1115 0622 0992     		str	r2, [sp, #36]
 1116              	.LVL127:
 1117              		.loc 1 1202 0
 1118 0624 1493     		str	r3, [sp, #80]
 1119              	.LVL128:
 1120              		.loc 1 1209 0
 1121 0626 119A     		ldr	r2, [sp, #68]
 1122              	.LVL129:
 1123 0628 0F9B     		ldr	r3, [sp, #60]
 1124              	.LVL130:
 1125 062a 07EB050A 		add	r10, r7, r5
 1126 062e 0AEB050E 		add	lr, r10, r5
 1127 0632 9342     		cmp	r3, r2
 1128 0634 0EEB050C 		add	ip, lr, r5
 1129              	.LVL131:
 1130 0638 40F29680 		bls	.L29
 1131 063c 119B     		ldr	r3, [sp, #68]
 1132 063e 0E9A     		ldr	r2, [sp, #56]
 1133 0640 CDF804E0 		str	lr, [sp, #4]
 1134 0644 1344     		add	r3, r3, r2
 1135 0646 D346     		mov	fp, r10
 1136 0648 0A93     		str	r3, [sp, #40]
 1137 064a BE46     		mov	lr, r7
 1138              	.LVL132:
ARM GAS  /tmp/ccUp6Xac.s 			page 21


 1139 064c E246     		mov	r10, ip
 1140              	.LVL133:
 1141              	.L28:
 1142              		.loc 1 1213 0 discriminator 3
 1143 064e 0198     		ldr	r0, [sp, #4]
 1144 0650 DEF80070 		ldr	r7, [lr]
 1145 0654 0568     		ldr	r5, [r0]
 1146              		.loc 1 1227 0 discriminator 3
 1147 0656 DAF80020 		ldr	r2, [r10]
 1148 065a DBF80010 		ldr	r1, [fp]
 1149              		.loc 1 1220 0 discriminator 3
 1150 065e 4368     		ldr	r3, [r0, #4]
 1151 0660 DEF80440 		ldr	r4, [lr, #4]
 1152              		.loc 1 1213 0 discriminator 3
 1153 0664 7819     		adds	r0, r7, r5
 1154              	.LVL134:
 1155              		.loc 1 1227 0 discriminator 3
 1156 0666 1144     		add	r1, r1, r2
 1157              		.loc 1 1231 0 discriminator 3
 1158 0668 4218     		adds	r2, r0, r1
 1159 066a 9210     		asrs	r2, r2, #2
 1160 066c CEF80020 		str	r2, [lr]
 1161              		.loc 1 1235 0 discriminator 3
 1162 0670 DAF80420 		ldr	r2, [r10, #4]
 1163 0674 DBF80460 		ldr	r6, [fp, #4]
 1164              		.loc 1 1220 0 discriminator 3
 1165 0678 04EB0308 		add	r8, r4, r3
 1166              		.loc 1 1235 0 discriminator 3
 1167 067c 1644     		add	r6, r6, r2
 1168              		.loc 1 1238 0 discriminator 3
 1169 067e 08EB0602 		add	r2, r8, r6
 1170 0682 9210     		asrs	r2, r2, #2
 1171 0684 CEF80420 		str	r2, [lr, #4]
 1172              		.loc 1 1216 0 discriminator 3
 1173 0688 C5EB0709 		rsb	r9, r5, r7
 1174              	.LVL135:
 1175              		.loc 1 1245 0 discriminator 3
 1176 068c DAF80420 		ldr	r2, [r10, #4]
 1177 0690 DBF80450 		ldr	r5, [fp, #4]
 1178              		.loc 1 1248 0 discriminator 3
 1179 0694 DAF80070 		ldr	r7, [r10]
 1180              		.loc 1 1245 0 discriminator 3
 1181 0698 AA1A     		subs	r2, r5, r2
 1182              		.loc 1 1248 0 discriminator 3
 1183 069a DBF80050 		ldr	r5, [fp]
 1184              		.loc 1 1223 0 discriminator 3
 1185 069e E41A     		subs	r4, r4, r3
 1186              	.LVL136:
 1187              		.loc 1 1248 0 discriminator 3
 1188 06a0 EB1B     		subs	r3, r5, r7
 1189              		.loc 1 1273 0 discriminator 3
 1190 06a2 039F     		ldr	r7, [sp, #12]
 1191              		.loc 1 1263 0 discriminator 3
 1192 06a4 C2EB0905 		rsb	r5, r2, r9
 1193              		.loc 1 1242 0 discriminator 3
 1194 06a8 C6EB080C 		rsb	ip, r6, r8
 1195              		.loc 1 1233 0 discriminator 3
ARM GAS  /tmp/ccUp6Xac.s 			page 22


 1196 06ac 411A     		subs	r1, r0, r1
 1197              	.LVL137:
 1198              		.loc 1 1273 0 discriminator 3
 1199 06ae 0C95     		str	r5, [sp, #48]
 1200              		.loc 1 1268 0 discriminator 3
 1201 06b0 E018     		adds	r0, r4, r3
 1202              		.loc 1 1265 0 discriminator 3
 1203 06b2 4A44     		add	r2, r2, r9
 1204              		.loc 1 1270 0 discriminator 3
 1205 06b4 E31A     		subs	r3, r4, r3
 1206              		.loc 1 1273 0 discriminator 3
 1207 06b6 85FB0789 		smull	r8, r9, r5, r7
 1208              	.LVL138:
 1209              		.loc 1 1253 0 discriminator 3
 1210 06ba 049C     		ldr	r4, [sp, #16]
 1211              	.LVL139:
 1212              		.loc 1 1274 0 discriminator 3
 1213 06bc 089D     		ldr	r5, [sp, #32]
 1214              		.loc 1 1265 0 discriminator 3
 1215 06be 0292     		str	r2, [sp, #8]
 1216              		.loc 1 1274 0 discriminator 3
 1217 06c0 80FB0567 		smull	r6, r7, r0, r5
 1218              	.LVL140:
 1219              		.loc 1 1253 0 discriminator 3
 1220 06c4 2246     		mov	r2, r4
 1221 06c6 8CFB0245 		smull	r4, r5, ip, r2
 1222              		.loc 1 1273 0 discriminator 3
 1223 06ca C7EB0902 		rsb	r2, r7, r9
 1224 06ce 0D92     		str	r2, [sp, #52]
 1225              		.loc 1 1252 0 discriminator 3
 1226 06d0 109A     		ldr	r2, [sp, #64]
 1227              		.loc 1 1259 0 discriminator 3
 1228 06d2 049C     		ldr	r4, [sp, #16]
 1229              		.loc 1 1252 0 discriminator 3
 1230 06d4 1646     		mov	r6, r2
 1231 06d6 81FB0667 		smull	r6, r7, r1, r6
 1232              		.loc 1 1258 0 discriminator 3
 1233 06da 9046     		mov	r8, r2
 1234 06dc 8CFB0889 		smull	r8, r9, ip, r8
 1235              		.loc 1 1282 0 discriminator 3
 1236 06e0 069A     		ldr	r2, [sp, #24]
 1237              		.loc 1 1278 0 discriminator 3
 1238 06e2 0C9E     		ldr	r6, [sp, #48]
 1239              		.loc 1 1252 0 discriminator 3
 1240 06e4 C5EB070C 		rsb	ip, r5, r7
 1241              		.loc 1 1259 0 discriminator 3
 1242 06e8 81FB0445 		smull	r4, r5, r1, r4
 1243              		.loc 1 1258 0 discriminator 3
 1244 06ec 05EB0904 		add	r4, r5, r9
 1245              		.loc 1 1277 0 discriminator 3
 1246 06f0 039F     		ldr	r7, [sp, #12]
 1247              		.loc 1 1258 0 discriminator 3
 1248 06f2 0C94     		str	r4, [sp, #48]
 1249              		.loc 1 1282 0 discriminator 3
 1250 06f4 1446     		mov	r4, r2
 1251              		.loc 1 1287 0 discriminator 3
 1252 06f6 099A     		ldr	r2, [sp, #36]
ARM GAS  /tmp/ccUp6Xac.s 			page 23


 1253              		.loc 1 1282 0 discriminator 3
 1254 06f8 029D     		ldr	r5, [sp, #8]
 1255              		.loc 1 1277 0 discriminator 3
 1256 06fa 80FB0701 		smull	r0, r1, r0, r7
 1257              		.loc 1 1287 0 discriminator 3
 1258 06fe 9046     		mov	r8, r2
 1259              		.loc 1 1278 0 discriminator 3
 1260 0700 089F     		ldr	r7, [sp, #32]
 1261              		.loc 1 1287 0 discriminator 3
 1262 0702 029A     		ldr	r2, [sp, #8]
 1263              		.loc 1 1278 0 discriminator 3
 1264 0704 86FB0767 		smull	r6, r7, r6, r7
 1265              		.loc 1 1287 0 discriminator 3
 1266 0708 82FB0889 		smull	r8, r9, r2, r8
 1267              		.loc 1 1283 0 discriminator 3
 1268 070c 099E     		ldr	r6, [sp, #36]
 1269              		.loc 1 1286 0 discriminator 3
 1270 070e 069A     		ldr	r2, [sp, #24]
 1271              		.loc 1 1277 0 discriminator 3
 1272 0710 3944     		add	r1, r1, r7
 1273              	.LVL141:
 1274              		.loc 1 1283 0 discriminator 3
 1275 0712 83FB0667 		smull	r6, r7, r3, r6
 1276              		.loc 1 1286 0 discriminator 3
 1277 0716 83FB0223 		smull	r2, r3, r3, r2
 1278              		.loc 1 1274 0 discriminator 3
 1279 071a 0D9A     		ldr	r2, [sp, #52]
 1280              		.loc 1 1282 0 discriminator 3
 1281 071c 85FB0445 		smull	r4, r5, r5, r4
 1282              		.loc 1 1274 0 discriminator 3
 1283 0720 5410     		asrs	r4, r2, #1
 1284              		.loc 1 1259 0 discriminator 3
 1285 0722 0C9A     		ldr	r2, [sp, #48]
 1286 0724 5010     		asrs	r0, r2, #1
 1287              		.loc 1 1256 0 discriminator 3
 1288 0726 CBF80400 		str	r0, [fp, #4]
 1289              		.loc 1 1282 0 discriminator 3
 1290 072a EE1B     		subs	r6, r5, r7
 1291              		.loc 1 1273 0 discriminator 3
 1292 072c 0198     		ldr	r0, [sp, #4]
 1293              		.loc 1 1239 0 discriminator 3
 1294 072e 0B9F     		ldr	r7, [sp, #44]
 1295              		.loc 1 1286 0 discriminator 3
 1296 0730 4B44     		add	r3, r3, r9
 1297              		.loc 1 1253 0 discriminator 3
 1298 0732 4FEA6C05 		asr	r5, ip, #1
 1299              		.loc 1 1278 0 discriminator 3
 1300 0736 4910     		asrs	r1, r1, #1
 1301 0738 DDF828C0 		ldr	ip, [sp, #40]
 1302              		.loc 1 1252 0 discriminator 3
 1303 073c CBF80050 		str	r5, [fp]
 1304              		.loc 1 1283 0 discriminator 3
 1305 0740 7210     		asrs	r2, r6, #1
 1306              		.loc 1 1287 0 discriminator 3
 1307 0742 5B10     		asrs	r3, r3, #1
 1308              		.loc 1 1277 0 discriminator 3
 1309 0744 4160     		str	r1, [r0, #4]
ARM GAS  /tmp/ccUp6Xac.s 			page 24


 1310 0746 0E9D     		ldr	r5, [sp, #56]
 1311              		.loc 1 1273 0 discriminator 3
 1312 0748 0460     		str	r4, [r0]
 1313              		.loc 1 1286 0 discriminator 3
 1314 074a 8AE80C00 		stmia	r10, {r2, r3}
 1315              		.loc 1 1209 0 discriminator 3
 1316 074e 0F9B     		ldr	r3, [sp, #60]
 1317 0750 6646     		mov	r6, ip
 1318              		.loc 1 1279 0 discriminator 3
 1319 0752 C119     		adds	r1, r0, r7
 1320 0754 AC44     		add	ip, ip, r5
 1321              		.loc 1 1209 0 discriminator 3
 1322 0756 B342     		cmp	r3, r6
 1323              		.loc 1 1239 0 discriminator 3
 1324 0758 BE44     		add	lr, lr, r7
 1325              	.LVL142:
 1326 075a CDF828C0 		str	ip, [sp, #40]
 1327              	.LVL143:
 1328              		.loc 1 1260 0 discriminator 3
 1329 075e BB44     		add	fp, fp, r7
 1330              	.LVL144:
 1331              		.loc 1 1279 0 discriminator 3
 1332 0760 0191     		str	r1, [sp, #4]
 1333              	.LVL145:
 1334              		.loc 1 1288 0 discriminator 3
 1335 0762 BA44     		add	r10, r10, r7
 1336              	.LVL146:
 1337              		.loc 1 1209 0 discriminator 3
 1338 0764 3FF673AF 		bhi	.L28
 1339              	.LVL147:
 1340              	.L29:
 1341 0768 129A     		ldr	r2, [sp, #72]
 1342 076a 1899     		ldr	r1, [sp, #96]
 1343              		.loc 1 1190 0
 1344 076c 119B     		ldr	r3, [sp, #68]
 1345 076e 0A44     		add	r2, r2, r1
 1346 0770 1292     		str	r2, [sp, #72]
 1347 0772 139A     		ldr	r2, [sp, #76]
 1348 0774 0832     		adds	r2, r2, #8
 1349 0776 1392     		str	r2, [sp, #76]
 1350 0778 179A     		ldr	r2, [sp, #92]
 1351 077a 0133     		adds	r3, r3, #1
 1352 077c 9342     		cmp	r3, r2
 1353 077e 1193     		str	r3, [sp, #68]
 1354              	.LVL148:
 1355 0780 7FF636AF 		bls	.L26
 1356              		.loc 1 1183 0 discriminator 2
 1357 0784 1A9B     		ldr	r3, [sp, #104]
 1358              	.LVL149:
 1359              		.loc 1 1291 0 discriminator 2
 1360 0786 159A     		ldr	r2, [sp, #84]
 1361              		.loc 1 1183 0 discriminator 2
 1362 0788 9B08     		lsrs	r3, r3, #2
 1363              		.loc 1 1291 0 discriminator 2
 1364 078a 9200     		lsls	r2, r2, #2
 1365 078c 1592     		str	r2, [sp, #84]
 1366              	.LVL150:
ARM GAS  /tmp/ccUp6Xac.s 			page 25


 1367              		.loc 1 1183 0 discriminator 2
 1368 078e 042B     		cmp	r3, #4
 1369              		.loc 1 1187 0 discriminator 2
 1370 0790 1B9A     		ldr	r2, [sp, #108]
 1371              	.LVL151:
 1372              		.loc 1 1183 0 discriminator 2
 1373 0792 1A93     		str	r3, [sp, #104]
 1374              		.loc 1 1187 0 discriminator 2
 1375 0794 0E92     		str	r2, [sp, #56]
 1376              	.LVL152:
 1377              		.loc 1 1183 0 discriminator 2
 1378 0796 3FF611AF 		bhi	.L30
 1379              	.LVL153:
 1380              	.L31:
 1381 079a 1C98     		ldr	r0, [sp, #112]
 1382 079c DDF87480 		ldr	r8, [sp, #116]
 1383 07a0 2030     		adds	r0, r0, #32
 1384              	.LVL154:
 1385              	.L24:
 1386              		.loc 1 1315 0 discriminator 1
 1387 07a2 50F8202C 		ldr	r2, [r0, #-32]
 1388              		.loc 1 1320 0 discriminator 1
 1389 07a6 50F8181C 		ldr	r1, [r0, #-24]
 1390 07aa 50F8143C 		ldr	r3, [r0, #-20]
 1391              		.loc 1 1315 0 discriminator 1
 1392 07ae 50F81C9C 		ldr	r9, [r0, #-28]
 1393              	.LVL155:
 1394              		.loc 1 1325 0 discriminator 1
 1395 07b2 50F810AC 		ldr	r10, [r0, #-16]
 1396 07b6 50F80CCC 		ldr	ip, [r0, #-12]
 1397              	.LVL156:
 1398              		.loc 1 1330 0 discriminator 1
 1399 07ba 10E91040 		ldmdb	r0, {r4, lr}
 1400              	.LVL157:
 1401              		.loc 1 1360 0 discriminator 1
 1402 07be 5718     		adds	r7, r2, r1
 1403              		.loc 1 1372 0 discriminator 1
 1404 07c0 561A     		subs	r6, r2, r1
 1405              		.loc 1 1379 0 discriminator 1
 1406 07c2 D51A     		subs	r5, r2, r3
 1407              		.loc 1 1386 0 discriminator 1
 1408 07c4 1A44     		add	r2, r2, r3
 1409              	.LVL158:
 1410              		.loc 1 1363 0 discriminator 1
 1411 07c6 09EB030B 		add	fp, r9, r3
 1412              		.loc 1 1360 0 discriminator 1
 1413 07ca 5744     		add	r7, r7, r10
 1414              		.loc 1 1372 0 discriminator 1
 1415 07cc 5644     		add	r6, r6, r10
 1416              		.loc 1 1379 0 discriminator 1
 1417 07ce CAEB0505 		rsb	r5, r10, r5
 1418              		.loc 1 1373 0 discriminator 1
 1419 07d2 C3EB0903 		rsb	r3, r3, r9
 1420              	.LVL159:
 1421              		.loc 1 1386 0 discriminator 1
 1422 07d6 CAEB020A 		rsb	r10, r10, r2
 1423              	.LVL160:
ARM GAS  /tmp/ccUp6Xac.s 			page 26


 1424              		.loc 1 1380 0 discriminator 1
 1425 07da 09EB0102 		add	r2, r9, r1
 1426              		.loc 1 1387 0 discriminator 1
 1427 07de C1EB0901 		rsb	r1, r1, r9
 1428              	.LVL161:
 1429              		.loc 1 1373 0 discriminator 1
 1430 07e2 6344     		add	r3, r3, ip
 1431              		.loc 1 1363 0 discriminator 1
 1432 07e4 E344     		add	fp, fp, ip
 1433              		.loc 1 1380 0 discriminator 1
 1434 07e6 CCEB0202 		rsb	r2, ip, r2
 1435              		.loc 1 1387 0 discriminator 1
 1436 07ea CCEB0101 		rsb	r1, ip, r1
 1437              		.loc 1 1379 0 discriminator 1
 1438 07ee 7544     		add	r5, r5, lr
 1439              		.loc 1 1386 0 discriminator 1
 1440 07f0 CEEB0A0A 		rsb	r10, lr, r10
 1441              		.loc 1 1363 0 discriminator 1
 1442 07f4 F344     		add	fp, fp, lr
 1443              	.LVL162:
 1444              		.loc 1 1360 0 discriminator 1
 1445 07f6 2744     		add	r7, r7, r4
 1446              	.LVL163:
 1447              		.loc 1 1373 0 discriminator 1
 1448 07f8 CEEB030E 		rsb	lr, lr, r3
 1449              	.LVL164:
 1450              		.loc 1 1372 0 discriminator 1
 1451 07fc 361B     		subs	r6, r6, r4
 1452              		.loc 1 1380 0 discriminator 1
 1453 07fe 121B     		subs	r2, r2, r4
 1454              		.loc 1 1387 0 discriminator 1
 1455 0800 0B19     		adds	r3, r1, r4
 1456              		.loc 1 1393 0 discriminator 1
 1457 0802 B8F10108 		subs	r8, r8, #1
 1458              	.LVL165:
 1459              		.loc 1 1369 0 discriminator 1
 1460 0806 40F8207C 		str	r7, [r0, #-32]
 1461              	.LVL166:
 1462              		.loc 1 1376 0 discriminator 1
 1463 080a 40F8186C 		str	r6, [r0, #-24]
 1464              	.LVL167:
 1465              		.loc 1 1383 0 discriminator 1
 1466 080e 40F8105C 		str	r5, [r0, #-16]
 1467              	.LVL168:
 1468              		.loc 1 1390 0 discriminator 1
 1469 0812 40F808AC 		str	r10, [r0, #-8]
 1470              		.loc 1 1370 0 discriminator 1
 1471 0816 40F81CBC 		str	fp, [r0, #-28]
 1472              	.LVL169:
 1473              		.loc 1 1377 0 discriminator 1
 1474 081a 40F814EC 		str	lr, [r0, #-20]
 1475              	.LVL170:
 1476              		.loc 1 1384 0 discriminator 1
 1477 081e 40F80C2C 		str	r2, [r0, #-12]
 1478              	.LVL171:
 1479              		.loc 1 1391 0 discriminator 1
 1480 0822 40F8043C 		str	r3, [r0, #-4]
ARM GAS  /tmp/ccUp6Xac.s 			page 27


 1481              	.LVL172:
 1482 0826 00F12000 		add	r0, r0, #32
 1483              	.LVL173:
 1484              		.loc 1 1393 0 discriminator 1
 1485 082a BAD1     		bne	.L24
 1486              		.loc 1 1401 0
 1487 082c 1FB0     		add	sp, sp, #124
 1488              		.cfi_def_cfa_offset 36
 1489              		@ sp needed
 1490 082e BDE8F08F 		pop	{r4, r5, r6, r7, r8, r9, r10, fp, pc}
 1491              		.cfi_endproc
 1492              	.LFE137:
 1493              		.size	arm_radix4_butterfly_inverse_q31, .-arm_radix4_butterfly_inverse_q31
 1494 0832 00BF     		.align	2
 1495 0834 AFF30080 		.p2align 4,,15
 1495      AFF30080 
 1495      AFF30080 
 1496              		.global	arm_cfft_radix4_q31
 1497              		.thumb
 1498              		.thumb_func
 1499              		.type	arm_cfft_radix4_q31, %function
 1500              	arm_cfft_radix4_q31:
 1501              	.LFB135:
 1502              		.loc 1 93 0
 1503              		.cfi_startproc
 1504              		@ args = 0, pretend = 0, frame = 0
 1505              		@ frame_needed = 0, uses_anonymous_args = 0
 1506              	.LVL174:
 1507 0840 70B5     		push	{r4, r5, r6, lr}
 1508              		.cfi_def_cfa_offset 16
 1509              		.cfi_offset 4, -16
 1510              		.cfi_offset 5, -12
 1511              		.cfi_offset 6, -8
 1512              		.cfi_offset 14, -4
 1513              		.loc 1 94 0
 1514 0842 8378     		ldrb	r3, [r0, #2]	@ zero_extendqisi2
 1515              		.loc 1 93 0
 1516 0844 0446     		mov	r4, r0
 1517              		.loc 1 94 0
 1518 0846 012B     		cmp	r3, #1
 1519              		.loc 1 93 0
 1520 0848 0D46     		mov	r5, r1
 1521              		.loc 1 97 0
 1522 084a 0846     		mov	r0, r1
 1523              	.LVL175:
 1524 084c 6268     		ldr	r2, [r4, #4]
 1525 084e 2188     		ldrh	r1, [r4]
 1526              	.LVL176:
 1527 0850 A389     		ldrh	r3, [r4, #12]
 1528              		.loc 1 94 0
 1529 0852 05D0     		beq	.L45
 1530              		.loc 1 102 0
 1531 0854 FFF7FEFF 		bl	arm_radix4_butterfly_q31
 1532              	.LVL177:
 1533              		.loc 1 105 0
 1534 0858 E378     		ldrb	r3, [r4, #3]	@ zero_extendqisi2
 1535 085a 012B     		cmp	r3, #1
ARM GAS  /tmp/ccUp6Xac.s 			page 28


 1536 085c 05D0     		beq	.L46
 1537              	.L40:
 1538 085e 70BD     		pop	{r4, r5, r6, pc}
 1539              	.LVL178:
 1540              	.L45:
 1541              		.loc 1 97 0
 1542 0860 FFF7FEFF 		bl	arm_radix4_butterfly_inverse_q31
 1543              	.LVL179:
 1544              		.loc 1 105 0
 1545 0864 E378     		ldrb	r3, [r4, #3]	@ zero_extendqisi2
 1546 0866 012B     		cmp	r3, #1
 1547 0868 F9D1     		bne	.L40
 1548              	.L46:
 1549              		.loc 1 108 0
 1550 086a 2846     		mov	r0, r5
 1551 086c 2188     		ldrh	r1, [r4]
 1552 086e E289     		ldrh	r2, [r4, #14]
 1553 0870 A368     		ldr	r3, [r4, #8]
 1554              		.loc 1 111 0
 1555 0872 BDE87040 		pop	{r4, r5, r6, lr}
 1556              		.cfi_restore 14
 1557              		.cfi_restore 6
 1558              		.cfi_restore 5
 1559              		.cfi_restore 4
 1560              		.cfi_def_cfa_offset 0
 1561              	.LVL180:
 1562              		.loc 1 108 0
 1563 0876 FFF7FEBF 		b	arm_bitreversal_q31
 1564              	.LVL181:
 1565              		.cfi_endproc
 1566              	.LFE135:
 1567              		.size	arm_cfft_radix4_q31, .-arm_cfft_radix4_q31
 1568              	.Letext0:
 1569              		.file 2 "/home/sbcu/Dropbox/pcb-layouts/axo-on-discovery-board/axoloti/platform_linux/arm-none-eab
 1570              		.file 3 "/home/sbcu/Dropbox/pcb-layouts/axo-on-discovery-board/axoloti/platform_linux/arm-none-eab
 1571              		.file 4 "/home/sbcu/Dropbox/pcb-layouts/axo-on-discovery-board/axoloti/platform_linux/../CMSIS//DS
 1572 087a 00BF     		.section	.debug_info,"",%progbits
 1573              	.Ldebug_info0:
 1574 0000 FA070000 		.4byte	0x7fa
 1575 0004 0400     		.2byte	0x4
 1576 0006 00000000 		.4byte	.Ldebug_abbrev0
 1577 000a 04       		.byte	0x4
 1578 000b 01       		.uleb128 0x1
 1579 000c A1010000 		.4byte	.LASF56
 1580 0010 01       		.byte	0x1
 1581 0011 1F030000 		.4byte	.LASF57
 1582 0015 00000000 		.4byte	.Ltext0
 1583 0019 7A080000 		.4byte	.Letext0-.Ltext0
 1584 001d 00000000 		.4byte	.Ldebug_line0
 1585 0021 02       		.uleb128 0x2
 1586 0022 01       		.byte	0x1
 1587 0023 06       		.byte	0x6
 1588 0024 21010000 		.4byte	.LASF0
 1589 0028 03       		.uleb128 0x3
 1590 0029 E9000000 		.4byte	.LASF3
 1591 002d 02       		.byte	0x2
 1592 002e 1D       		.byte	0x1d
ARM GAS  /tmp/ccUp6Xac.s 			page 29


 1593 002f 33000000 		.4byte	0x33
 1594 0033 02       		.uleb128 0x2
 1595 0034 01       		.byte	0x1
 1596 0035 08       		.byte	0x8
 1597 0036 07010000 		.4byte	.LASF1
 1598 003a 02       		.uleb128 0x2
 1599 003b 02       		.byte	0x2
 1600 003c 05       		.byte	0x5
 1601 003d 8C000000 		.4byte	.LASF2
 1602 0041 03       		.uleb128 0x3
 1603 0042 7A000000 		.4byte	.LASF4
 1604 0046 02       		.byte	0x2
 1605 0047 2B       		.byte	0x2b
 1606 0048 4C000000 		.4byte	0x4c
 1607 004c 02       		.uleb128 0x2
 1608 004d 02       		.byte	0x2
 1609 004e 07       		.byte	0x7
 1610 004f 84010000 		.4byte	.LASF5
 1611 0053 03       		.uleb128 0x3
 1612 0054 EB020000 		.4byte	.LASF6
 1613 0058 02       		.byte	0x2
 1614 0059 3F       		.byte	0x3f
 1615 005a 5E000000 		.4byte	0x5e
 1616 005e 02       		.uleb128 0x2
 1617 005f 04       		.byte	0x4
 1618 0060 05       		.byte	0x5
 1619 0061 DB000000 		.4byte	.LASF7
 1620 0065 03       		.uleb128 0x3
 1621 0066 6F000000 		.4byte	.LASF8
 1622 006a 02       		.byte	0x2
 1623 006b 41       		.byte	0x41
 1624 006c 70000000 		.4byte	0x70
 1625 0070 02       		.uleb128 0x2
 1626 0071 04       		.byte	0x4
 1627 0072 07       		.byte	0x7
 1628 0073 AE020000 		.4byte	.LASF9
 1629 0077 03       		.uleb128 0x3
 1630 0078 15030000 		.4byte	.LASF10
 1631 007c 02       		.byte	0x2
 1632 007d 59       		.byte	0x59
 1633 007e 82000000 		.4byte	0x82
 1634 0082 02       		.uleb128 0x2
 1635 0083 08       		.byte	0x8
 1636 0084 05       		.byte	0x5
 1637 0085 61000000 		.4byte	.LASF11
 1638 0089 02       		.uleb128 0x2
 1639 008a 08       		.byte	0x8
 1640 008b 07       		.byte	0x7
 1641 008c 2D010000 		.4byte	.LASF12
 1642 0090 04       		.uleb128 0x4
 1643 0091 04       		.byte	0x4
 1644 0092 05       		.byte	0x5
 1645 0093 696E7400 		.ascii	"int\000"
 1646 0097 02       		.uleb128 0x2
 1647 0098 04       		.byte	0x4
 1648 0099 07       		.byte	0x7
 1649 009a 54010000 		.4byte	.LASF13
ARM GAS  /tmp/ccUp6Xac.s 			page 30


 1650 009e 03       		.uleb128 0x3
 1651 009f B1000000 		.4byte	.LASF14
 1652 00a3 03       		.byte	0x3
 1653 00a4 14       		.byte	0x14
 1654 00a5 28000000 		.4byte	0x28
 1655 00a9 03       		.uleb128 0x3
 1656 00aa 61010000 		.4byte	.LASF15
 1657 00ae 03       		.byte	0x3
 1658 00af 1A       		.byte	0x1a
 1659 00b0 41000000 		.4byte	0x41
 1660 00b4 03       		.uleb128 0x3
 1661 00b5 9A020000 		.4byte	.LASF16
 1662 00b9 03       		.byte	0x3
 1663 00ba 1F       		.byte	0x1f
 1664 00bb 53000000 		.4byte	0x53
 1665 00bf 03       		.uleb128 0x3
 1666 00c0 44010000 		.4byte	.LASF17
 1667 00c4 03       		.byte	0x3
 1668 00c5 20       		.byte	0x20
 1669 00c6 65000000 		.4byte	0x65
 1670 00ca 03       		.uleb128 0x3
 1671 00cb 96000000 		.4byte	.LASF18
 1672 00cf 03       		.byte	0x3
 1673 00d0 25       		.byte	0x25
 1674 00d1 77000000 		.4byte	0x77
 1675 00d5 02       		.uleb128 0x2
 1676 00d6 04       		.byte	0x4
 1677 00d7 07       		.byte	0x7
 1678 00d8 4B000000 		.4byte	.LASF19
 1679 00dc 02       		.uleb128 0x2
 1680 00dd 01       		.byte	0x1
 1681 00de 08       		.byte	0x8
 1682 00df 9C010000 		.4byte	.LASF20
 1683 00e3 02       		.uleb128 0x2
 1684 00e4 08       		.byte	0x8
 1685 00e5 04       		.byte	0x4
 1686 00e6 C0020000 		.4byte	.LASF21
 1687 00ea 02       		.uleb128 0x2
 1688 00eb 04       		.byte	0x4
 1689 00ec 04       		.byte	0x4
 1690 00ed 15000000 		.4byte	.LASF22
 1691 00f1 02       		.uleb128 0x2
 1692 00f2 08       		.byte	0x8
 1693 00f3 04       		.byte	0x4
 1694 00f4 00000000 		.4byte	.LASF23
 1695 00f8 05       		.uleb128 0x5
 1696 00f9 24000000 		.4byte	.LASF24
 1697 00fd 04       		.byte	0x4
 1698 00fe A001     		.2byte	0x1a0
 1699 0100 B4000000 		.4byte	0xb4
 1700 0104 05       		.uleb128 0x5
 1701 0105 6A010000 		.4byte	.LASF25
 1702 0109 04       		.byte	0x4
 1703 010a A501     		.2byte	0x1a5
 1704 010c CA000000 		.4byte	0xca
 1705 0110 06       		.uleb128 0x6
 1706 0111 04       		.byte	0x4
ARM GAS  /tmp/ccUp6Xac.s 			page 31


 1707 0112 F8000000 		.4byte	0xf8
 1708 0116 06       		.uleb128 0x6
 1709 0117 04       		.byte	0x4
 1710 0118 A9000000 		.4byte	0xa9
 1711 011c 07       		.uleb128 0x7
 1712 011d 10       		.byte	0x10
 1713 011e 04       		.byte	0x4
 1714 011f 3108     		.2byte	0x831
 1715 0121 81010000 		.4byte	0x181
 1716 0125 08       		.uleb128 0x8
 1717 0126 B9000000 		.4byte	.LASF26
 1718 012a 04       		.byte	0x4
 1719 012b 3308     		.2byte	0x833
 1720 012d A9000000 		.4byte	0xa9
 1721 0131 00       		.byte	0
 1722 0132 08       		.uleb128 0x8
 1723 0133 1B000000 		.4byte	.LASF27
 1724 0137 04       		.byte	0x4
 1725 0138 3408     		.2byte	0x834
 1726 013a 9E000000 		.4byte	0x9e
 1727 013e 02       		.byte	0x2
 1728 013f 08       		.uleb128 0x8
 1729 0140 F5020000 		.4byte	.LASF28
 1730 0144 04       		.byte	0x4
 1731 0145 3508     		.2byte	0x835
 1732 0147 9E000000 		.4byte	0x9e
 1733 014b 03       		.byte	0x3
 1734 014c 08       		.uleb128 0x8
 1735 014d 0C000000 		.4byte	.LASF29
 1736 0151 04       		.byte	0x4
 1737 0152 3608     		.2byte	0x836
 1738 0154 10010000 		.4byte	0x110
 1739 0158 04       		.byte	0x4
 1740 0159 08       		.uleb128 0x8
 1741 015a A4000000 		.4byte	.LASF30
 1742 015e 04       		.byte	0x4
 1743 015f 3708     		.2byte	0x837
 1744 0161 16010000 		.4byte	0x116
 1745 0165 08       		.byte	0x8
 1746 0166 08       		.uleb128 0x8
 1747 0167 C7030000 		.4byte	.LASF31
 1748 016b 04       		.byte	0x4
 1749 016c 3808     		.2byte	0x838
 1750 016e A9000000 		.4byte	0xa9
 1751 0172 0C       		.byte	0xc
 1752 0173 08       		.uleb128 0x8
 1753 0174 54000000 		.4byte	.LASF32
 1754 0178 04       		.byte	0x4
 1755 0179 3908     		.2byte	0x839
 1756 017b A9000000 		.4byte	0xa9
 1757 017f 0E       		.byte	0xe
 1758 0180 00       		.byte	0
 1759 0181 05       		.uleb128 0x5
 1760 0182 C7020000 		.4byte	.LASF33
 1761 0186 04       		.byte	0x4
 1762 0187 3A08     		.2byte	0x83a
 1763 0189 1C010000 		.4byte	0x11c
ARM GAS  /tmp/ccUp6Xac.s 			page 32


 1764 018d 09       		.uleb128 0x9
 1765 018e AE030000 		.4byte	.LASF53
 1766 0192 01       		.byte	0x1
 1767 0193 A0       		.byte	0xa0
 1768 0194 00000000 		.4byte	.LFB136
 1769 0198 14040000 		.4byte	.LFE136-.LFB136
 1770 019c 01       		.uleb128 0x1
 1771 019d 9C       		.byte	0x9c
 1772 019e 7E040000 		.4byte	0x47e
 1773 01a2 0A       		.uleb128 0xa
 1774 01a3 10030000 		.4byte	.LASF34
 1775 01a7 01       		.byte	0x1
 1776 01a8 A1       		.byte	0xa1
 1777 01a9 10010000 		.4byte	0x110
 1778 01ad 00000000 		.4byte	.LLST0
 1779 01b1 0A       		.uleb128 0xa
 1780 01b2 B9000000 		.4byte	.LASF26
 1781 01b6 01       		.byte	0x1
 1782 01b7 A2       		.byte	0xa2
 1783 01b8 BF000000 		.4byte	0xbf
 1784 01bc 2A000000 		.4byte	.LLST1
 1785 01c0 0A       		.uleb128 0xa
 1786 01c1 9E000000 		.4byte	.LASF35
 1787 01c5 01       		.byte	0x1
 1788 01c6 A3       		.byte	0xa3
 1789 01c7 10010000 		.4byte	0x110
 1790 01cb 4A000000 		.4byte	.LLST2
 1791 01cf 0A       		.uleb128 0xa
 1792 01d0 C7030000 		.4byte	.LASF31
 1793 01d4 01       		.byte	0x1
 1794 01d5 A4       		.byte	0xa4
 1795 01d6 BF000000 		.4byte	0xbf
 1796 01da 75000000 		.4byte	.LLST3
 1797 01de 0B       		.uleb128 0xb
 1798 01df 6E3100   		.ascii	"n1\000"
 1799 01e2 01       		.byte	0x1
 1800 01e3 9501     		.2byte	0x195
 1801 01e5 BF000000 		.4byte	0xbf
 1802 01e9 D0000000 		.4byte	.LLST4
 1803 01ed 0B       		.uleb128 0xb
 1804 01ee 6E3200   		.ascii	"n2\000"
 1805 01f1 01       		.byte	0x1
 1806 01f2 9501     		.2byte	0x195
 1807 01f4 BF000000 		.4byte	0xbf
 1808 01f8 FD000000 		.4byte	.LLST5
 1809 01fc 0B       		.uleb128 0xb
 1810 01fd 69613100 		.ascii	"ia1\000"
 1811 0201 01       		.byte	0x1
 1812 0202 9501     		.2byte	0x195
 1813 0204 BF000000 		.4byte	0xbf
 1814 0208 6E010000 		.4byte	.LLST6
 1815 020c 0B       		.uleb128 0xb
 1816 020d 69613200 		.ascii	"ia2\000"
 1817 0211 01       		.byte	0x1
 1818 0212 9501     		.2byte	0x195
 1819 0214 BF000000 		.4byte	0xbf
 1820 0218 B3010000 		.4byte	.LLST7
ARM GAS  /tmp/ccUp6Xac.s 			page 33


 1821 021c 0B       		.uleb128 0xb
 1822 021d 69613300 		.ascii	"ia3\000"
 1823 0221 01       		.byte	0x1
 1824 0222 9501     		.2byte	0x195
 1825 0224 BF000000 		.4byte	0xbf
 1826 0228 DB010000 		.4byte	.LLST8
 1827 022c 0B       		.uleb128 0xb
 1828 022d 693000   		.ascii	"i0\000"
 1829 0230 01       		.byte	0x1
 1830 0231 9501     		.2byte	0x195
 1831 0233 BF000000 		.4byte	0xbf
 1832 0237 03020000 		.4byte	.LLST9
 1833 023b 0B       		.uleb128 0xb
 1834 023c 6A00     		.ascii	"j\000"
 1835 023e 01       		.byte	0x1
 1836 023f 9501     		.2byte	0x195
 1837 0241 BF000000 		.4byte	0xbf
 1838 0245 3E020000 		.4byte	.LLST10
 1839 0249 0B       		.uleb128 0xb
 1840 024a 6B00     		.ascii	"k\000"
 1841 024c 01       		.byte	0x1
 1842 024d 9501     		.2byte	0x195
 1843 024f BF000000 		.4byte	0xbf
 1844 0253 DB020000 		.4byte	.LLST11
 1845 0257 0B       		.uleb128 0xb
 1846 0258 743100   		.ascii	"t1\000"
 1847 025b 01       		.byte	0x1
 1848 025c 9601     		.2byte	0x196
 1849 025e F8000000 		.4byte	0xf8
 1850 0262 06030000 		.4byte	.LLST12
 1851 0266 0B       		.uleb128 0xb
 1852 0267 743200   		.ascii	"t2\000"
 1853 026a 01       		.byte	0x1
 1854 026b 9601     		.2byte	0x196
 1855 026d F8000000 		.4byte	0xf8
 1856 0271 24030000 		.4byte	.LLST13
 1857 0275 0B       		.uleb128 0xb
 1858 0276 723100   		.ascii	"r1\000"
 1859 0279 01       		.byte	0x1
 1860 027a 9601     		.2byte	0x196
 1861 027c F8000000 		.4byte	0xf8
 1862 0280 42030000 		.4byte	.LLST14
 1863 0284 0B       		.uleb128 0xb
 1864 0285 723200   		.ascii	"r2\000"
 1865 0288 01       		.byte	0x1
 1866 0289 9601     		.2byte	0x196
 1867 028b F8000000 		.4byte	0xf8
 1868 028f 98030000 		.4byte	.LLST15
 1869 0293 0B       		.uleb128 0xb
 1870 0294 733100   		.ascii	"s1\000"
 1871 0297 01       		.byte	0x1
 1872 0298 9601     		.2byte	0x196
 1873 029a F8000000 		.4byte	0xf8
 1874 029e B6030000 		.4byte	.LLST16
 1875 02a2 0B       		.uleb128 0xb
 1876 02a3 733200   		.ascii	"s2\000"
 1877 02a6 01       		.byte	0x1
ARM GAS  /tmp/ccUp6Xac.s 			page 34


 1878 02a7 9601     		.2byte	0x196
 1879 02a9 F8000000 		.4byte	0xf8
 1880 02ad D9030000 		.4byte	.LLST17
 1881 02b1 0B       		.uleb128 0xb
 1882 02b2 636F3100 		.ascii	"co1\000"
 1883 02b6 01       		.byte	0x1
 1884 02b7 9601     		.2byte	0x196
 1885 02b9 F8000000 		.4byte	0xf8
 1886 02bd 0F040000 		.4byte	.LLST18
 1887 02c1 0B       		.uleb128 0xb
 1888 02c2 636F3200 		.ascii	"co2\000"
 1889 02c6 01       		.byte	0x1
 1890 02c7 9601     		.2byte	0x196
 1891 02c9 F8000000 		.4byte	0xf8
 1892 02cd 3A040000 		.4byte	.LLST19
 1893 02d1 0B       		.uleb128 0xb
 1894 02d2 636F3300 		.ascii	"co3\000"
 1895 02d6 01       		.byte	0x1
 1896 02d7 9601     		.2byte	0x196
 1897 02d9 F8000000 		.4byte	0xf8
 1898 02dd 73040000 		.4byte	.LLST20
 1899 02e1 0B       		.uleb128 0xb
 1900 02e2 73693100 		.ascii	"si1\000"
 1901 02e6 01       		.byte	0x1
 1902 02e7 9601     		.2byte	0x196
 1903 02e9 F8000000 		.4byte	0xf8
 1904 02ed AA040000 		.4byte	.LLST21
 1905 02f1 0B       		.uleb128 0xb
 1906 02f2 73693200 		.ascii	"si2\000"
 1907 02f6 01       		.byte	0x1
 1908 02f7 9601     		.2byte	0x196
 1909 02f9 F8000000 		.4byte	0xf8
 1910 02fd BF040000 		.4byte	.LLST22
 1911 0301 0B       		.uleb128 0xb
 1912 0302 73693300 		.ascii	"si3\000"
 1913 0306 01       		.byte	0x1
 1914 0307 9601     		.2byte	0x196
 1915 0309 F8000000 		.4byte	0xf8
 1916 030d D4040000 		.4byte	.LLST23
 1917 0311 0B       		.uleb128 0xb
 1918 0312 786100   		.ascii	"xa\000"
 1919 0315 01       		.byte	0x1
 1920 0316 9801     		.2byte	0x198
 1921 0318 F8000000 		.4byte	0xf8
 1922 031c 17050000 		.4byte	.LLST24
 1923 0320 0B       		.uleb128 0xb
 1924 0321 786200   		.ascii	"xb\000"
 1925 0324 01       		.byte	0x1
 1926 0325 9801     		.2byte	0x198
 1927 0327 F8000000 		.4byte	0xf8
 1928 032b 36050000 		.4byte	.LLST25
 1929 032f 0B       		.uleb128 0xb
 1930 0330 786300   		.ascii	"xc\000"
 1931 0333 01       		.byte	0x1
 1932 0334 9801     		.2byte	0x198
 1933 0336 F8000000 		.4byte	0xf8
 1934 033a 55050000 		.4byte	.LLST26
ARM GAS  /tmp/ccUp6Xac.s 			page 35


 1935 033e 0C       		.uleb128 0xc
 1936 033f 786400   		.ascii	"xd\000"
 1937 0342 01       		.byte	0x1
 1938 0343 9801     		.2byte	0x198
 1939 0345 F8000000 		.4byte	0xf8
 1940 0349 01       		.uleb128 0x1
 1941 034a 57       		.byte	0x57
 1942 034b 0B       		.uleb128 0xb
 1943 034c 796100   		.ascii	"ya\000"
 1944 034f 01       		.byte	0x1
 1945 0350 9901     		.2byte	0x199
 1946 0352 F8000000 		.4byte	0xf8
 1947 0356 74050000 		.4byte	.LLST27
 1948 035a 0B       		.uleb128 0xb
 1949 035b 796200   		.ascii	"yb\000"
 1950 035e 01       		.byte	0x1
 1951 035f 9901     		.2byte	0x199
 1952 0361 F8000000 		.4byte	0xf8
 1953 0365 93050000 		.4byte	.LLST28
 1954 0369 0C       		.uleb128 0xc
 1955 036a 796300   		.ascii	"yc\000"
 1956 036d 01       		.byte	0x1
 1957 036e 9901     		.2byte	0x199
 1958 0370 F8000000 		.4byte	0xf8
 1959 0374 01       		.uleb128 0x1
 1960 0375 5C       		.byte	0x5c
 1961 0376 0B       		.uleb128 0xb
 1962 0377 796400   		.ascii	"yd\000"
 1963 037a 01       		.byte	0x1
 1964 037b 9901     		.2byte	0x199
 1965 037d F8000000 		.4byte	0xf8
 1966 0381 B2050000 		.4byte	.LLST29
 1967 0385 0D       		.uleb128 0xd
 1968 0386 15010000 		.4byte	.LASF36
 1969 038a 01       		.byte	0x1
 1970 038b 9A01     		.2byte	0x19a
 1971 038d F8000000 		.4byte	0xf8
 1972 0391 D1050000 		.4byte	.LLST30
 1973 0395 0E       		.uleb128 0xe
 1974 0396 04030000 		.4byte	.LASF37
 1975 039a 01       		.byte	0x1
 1976 039b 9A01     		.2byte	0x19a
 1977 039d F8000000 		.4byte	0xf8
 1978 03a1 0E       		.uleb128 0xe
 1979 03a2 85000000 		.4byte	.LASF38
 1980 03a6 01       		.byte	0x1
 1981 03a7 9A01     		.2byte	0x19a
 1982 03a9 F8000000 		.4byte	0xf8
 1983 03ad 0E       		.uleb128 0xe
 1984 03ae 4D010000 		.4byte	.LASF39
 1985 03b2 01       		.byte	0x1
 1986 03b3 9A01     		.2byte	0x19a
 1987 03b5 F8000000 		.4byte	0xf8
 1988 03b9 0D       		.uleb128 0xd
 1989 03ba D8030000 		.4byte	.LASF40
 1990 03be 01       		.byte	0x1
 1991 03bf 9B01     		.2byte	0x19b
ARM GAS  /tmp/ccUp6Xac.s 			page 36


 1992 03c1 F8000000 		.4byte	0xf8
 1993 03c5 42060000 		.4byte	.LLST31
 1994 03c9 0E       		.uleb128 0xe
 1995 03ca D4000000 		.4byte	.LASF41
 1996 03ce 01       		.byte	0x1
 1997 03cf 9B01     		.2byte	0x19b
 1998 03d1 F8000000 		.4byte	0xf8
 1999 03d5 0E       		.uleb128 0xe
 2000 03d6 A2020000 		.4byte	.LASF42
 2001 03da 01       		.byte	0x1
 2002 03db 9B01     		.2byte	0x19b
 2003 03dd F8000000 		.4byte	0xf8
 2004 03e1 0E       		.uleb128 0xe
 2005 03e2 E4020000 		.4byte	.LASF43
 2006 03e6 01       		.byte	0x1
 2007 03e7 9B01     		.2byte	0x19b
 2008 03e9 F8000000 		.4byte	0xf8
 2009 03ed 0D       		.uleb128 0xd
 2010 03ee 0B030000 		.4byte	.LASF44
 2011 03f2 01       		.byte	0x1
 2012 03f3 9D01     		.2byte	0x19d
 2013 03f5 10010000 		.4byte	0x110
 2014 03f9 9A060000 		.4byte	.LLST32
 2015 03fd 0D       		.uleb128 0xd
 2016 03fe C0000000 		.4byte	.LASF45
 2017 0402 01       		.byte	0x1
 2018 0403 9E01     		.2byte	0x19e
 2019 0405 10010000 		.4byte	0x110
 2020 0409 13070000 		.4byte	.LLST33
 2021 040d 0D       		.uleb128 0xd
 2022 040e C5000000 		.4byte	.LASF46
 2023 0412 01       		.byte	0x1
 2024 0413 9F01     		.2byte	0x19f
 2025 0415 10010000 		.4byte	0x110
 2026 0419 86070000 		.4byte	.LLST34
 2027 041d 0D       		.uleb128 0xd
 2028 041e CA000000 		.4byte	.LASF47
 2029 0422 01       		.byte	0x1
 2030 0423 A001     		.2byte	0x1a0
 2031 0425 10010000 		.4byte	0x110
 2032 0429 AF070000 		.4byte	.LLST35
 2033 042d 0D       		.uleb128 0xd
 2034 042e CF000000 		.4byte	.LASF48
 2035 0432 01       		.byte	0x1
 2036 0433 A101     		.2byte	0x1a1
 2037 0435 10010000 		.4byte	0x110
 2038 0439 1B080000 		.4byte	.LLST36
 2039 043d 0D       		.uleb128 0xd
 2040 043e A9020000 		.4byte	.LASF49
 2041 0442 01       		.byte	0x1
 2042 0443 A201     		.2byte	0x1a2
 2043 0445 04010000 		.4byte	0x104
 2044 0449 71080000 		.4byte	.LLST37
 2045 044d 0D       		.uleb128 0xd
 2046 044e 97010000 		.4byte	.LASF50
 2047 0452 01       		.byte	0x1
 2048 0453 A201     		.2byte	0x1a2
ARM GAS  /tmp/ccUp6Xac.s 			page 37


 2049 0455 04010000 		.4byte	0x104
 2050 0459 AC080000 		.4byte	.LLST38
 2051 045d 0D       		.uleb128 0xd
 2052 045e 1C010000 		.4byte	.LASF51
 2053 0462 01       		.byte	0x1
 2054 0463 A201     		.2byte	0x1a2
 2055 0465 04010000 		.4byte	0x104
 2056 0469 E7080000 		.4byte	.LLST39
 2057 046d 0D       		.uleb128 0xd
 2058 046e E4000000 		.4byte	.LASF52
 2059 0472 01       		.byte	0x1
 2060 0473 A201     		.2byte	0x1a2
 2061 0475 04010000 		.4byte	0x104
 2062 0479 10090000 		.4byte	.LLST40
 2063 047d 00       		.byte	0
 2064 047e 0F       		.uleb128 0xf
 2065 047f 2A000000 		.4byte	.LASF54
 2066 0483 01       		.byte	0x1
 2067 0484 3003     		.2byte	0x330
 2068 0486 20040000 		.4byte	.LFB137
 2069 048a 12040000 		.4byte	.LFE137-.LFB137
 2070 048e 01       		.uleb128 0x1
 2071 048f 9C       		.byte	0x9c
 2072 0490 76070000 		.4byte	0x776
 2073 0494 10       		.uleb128 0x10
 2074 0495 10030000 		.4byte	.LASF34
 2075 0499 01       		.byte	0x1
 2076 049a 3103     		.2byte	0x331
 2077 049c 10010000 		.4byte	0x110
 2078 04a0 39090000 		.4byte	.LLST41
 2079 04a4 10       		.uleb128 0x10
 2080 04a5 B9000000 		.4byte	.LASF26
 2081 04a9 01       		.byte	0x1
 2082 04aa 3203     		.2byte	0x332
 2083 04ac BF000000 		.4byte	0xbf
 2084 04b0 63090000 		.4byte	.LLST42
 2085 04b4 10       		.uleb128 0x10
 2086 04b5 9E000000 		.4byte	.LASF35
 2087 04b9 01       		.byte	0x1
 2088 04ba 3303     		.2byte	0x333
 2089 04bc 10010000 		.4byte	0x110
 2090 04c0 83090000 		.4byte	.LLST43
 2091 04c4 10       		.uleb128 0x10
 2092 04c5 C7030000 		.4byte	.LASF31
 2093 04c9 01       		.byte	0x1
 2094 04ca 3403     		.2byte	0x334
 2095 04cc BF000000 		.4byte	0xbf
 2096 04d0 AE090000 		.4byte	.LLST44
 2097 04d4 0B       		.uleb128 0xb
 2098 04d5 6E3100   		.ascii	"n1\000"
 2099 04d8 01       		.byte	0x1
 2100 04d9 1E04     		.2byte	0x41e
 2101 04db BF000000 		.4byte	0xbf
 2102 04df 090A0000 		.4byte	.LLST45
 2103 04e3 0B       		.uleb128 0xb
 2104 04e4 6E3200   		.ascii	"n2\000"
 2105 04e7 01       		.byte	0x1
ARM GAS  /tmp/ccUp6Xac.s 			page 38


 2106 04e8 1E04     		.2byte	0x41e
 2107 04ea BF000000 		.4byte	0xbf
 2108 04ee 360A0000 		.4byte	.LLST46
 2109 04f2 0B       		.uleb128 0xb
 2110 04f3 69613100 		.ascii	"ia1\000"
 2111 04f7 01       		.byte	0x1
 2112 04f8 1E04     		.2byte	0x41e
 2113 04fa BF000000 		.4byte	0xbf
 2114 04fe A70A0000 		.4byte	.LLST47
 2115 0502 0B       		.uleb128 0xb
 2116 0503 69613200 		.ascii	"ia2\000"
 2117 0507 01       		.byte	0x1
 2118 0508 1E04     		.2byte	0x41e
 2119 050a BF000000 		.4byte	0xbf
 2120 050e EC0A0000 		.4byte	.LLST48
 2121 0512 0B       		.uleb128 0xb
 2122 0513 69613300 		.ascii	"ia3\000"
 2123 0517 01       		.byte	0x1
 2124 0518 1E04     		.2byte	0x41e
 2125 051a BF000000 		.4byte	0xbf
 2126 051e 140B0000 		.4byte	.LLST49
 2127 0522 0B       		.uleb128 0xb
 2128 0523 693000   		.ascii	"i0\000"
 2129 0526 01       		.byte	0x1
 2130 0527 1E04     		.2byte	0x41e
 2131 0529 BF000000 		.4byte	0xbf
 2132 052d 3C0B0000 		.4byte	.LLST50
 2133 0531 0B       		.uleb128 0xb
 2134 0532 6A00     		.ascii	"j\000"
 2135 0534 01       		.byte	0x1
 2136 0535 1E04     		.2byte	0x41e
 2137 0537 BF000000 		.4byte	0xbf
 2138 053b 770B0000 		.4byte	.LLST51
 2139 053f 0B       		.uleb128 0xb
 2140 0540 6B00     		.ascii	"k\000"
 2141 0542 01       		.byte	0x1
 2142 0543 1E04     		.2byte	0x41e
 2143 0545 BF000000 		.4byte	0xbf
 2144 0549 140C0000 		.4byte	.LLST52
 2145 054d 0B       		.uleb128 0xb
 2146 054e 743100   		.ascii	"t1\000"
 2147 0551 01       		.byte	0x1
 2148 0552 1F04     		.2byte	0x41f
 2149 0554 F8000000 		.4byte	0xf8
 2150 0558 3F0C0000 		.4byte	.LLST53
 2151 055c 0B       		.uleb128 0xb
 2152 055d 743200   		.ascii	"t2\000"
 2153 0560 01       		.byte	0x1
 2154 0561 1F04     		.2byte	0x41f
 2155 0563 F8000000 		.4byte	0xf8
 2156 0567 5D0C0000 		.4byte	.LLST54
 2157 056b 0B       		.uleb128 0xb
 2158 056c 723100   		.ascii	"r1\000"
 2159 056f 01       		.byte	0x1
 2160 0570 1F04     		.2byte	0x41f
 2161 0572 F8000000 		.4byte	0xf8
 2162 0576 880C0000 		.4byte	.LLST55
ARM GAS  /tmp/ccUp6Xac.s 			page 39


 2163 057a 0B       		.uleb128 0xb
 2164 057b 723200   		.ascii	"r2\000"
 2165 057e 01       		.byte	0x1
 2166 057f 1F04     		.2byte	0x41f
 2167 0581 F8000000 		.4byte	0xf8
 2168 0585 D20C0000 		.4byte	.LLST56
 2169 0589 0B       		.uleb128 0xb
 2170 058a 733100   		.ascii	"s1\000"
 2171 058d 01       		.byte	0x1
 2172 058e 1F04     		.2byte	0x41f
 2173 0590 F8000000 		.4byte	0xf8
 2174 0594 FB0C0000 		.4byte	.LLST57
 2175 0598 0B       		.uleb128 0xb
 2176 0599 733200   		.ascii	"s2\000"
 2177 059c 01       		.byte	0x1
 2178 059d 1F04     		.2byte	0x41f
 2179 059f F8000000 		.4byte	0xf8
 2180 05a3 220D0000 		.4byte	.LLST58
 2181 05a7 0B       		.uleb128 0xb
 2182 05a8 636F3100 		.ascii	"co1\000"
 2183 05ac 01       		.byte	0x1
 2184 05ad 1F04     		.2byte	0x41f
 2185 05af F8000000 		.4byte	0xf8
 2186 05b3 4B0D0000 		.4byte	.LLST59
 2187 05b7 0B       		.uleb128 0xb
 2188 05b8 636F3200 		.ascii	"co2\000"
 2189 05bc 01       		.byte	0x1
 2190 05bd 1F04     		.2byte	0x41f
 2191 05bf F8000000 		.4byte	0xf8
 2192 05c3 6B0D0000 		.4byte	.LLST60
 2193 05c7 0B       		.uleb128 0xb
 2194 05c8 636F3300 		.ascii	"co3\000"
 2195 05cc 01       		.byte	0x1
 2196 05cd 1F04     		.2byte	0x41f
 2197 05cf F8000000 		.4byte	0xf8
 2198 05d3 A40D0000 		.4byte	.LLST61
 2199 05d7 0B       		.uleb128 0xb
 2200 05d8 73693100 		.ascii	"si1\000"
 2201 05dc 01       		.byte	0x1
 2202 05dd 1F04     		.2byte	0x41f
 2203 05df F8000000 		.4byte	0xf8
 2204 05e3 DB0D0000 		.4byte	.LLST62
 2205 05e7 0B       		.uleb128 0xb
 2206 05e8 73693200 		.ascii	"si2\000"
 2207 05ec 01       		.byte	0x1
 2208 05ed 1F04     		.2byte	0x41f
 2209 05ef F8000000 		.4byte	0xf8
 2210 05f3 F00D0000 		.4byte	.LLST63
 2211 05f7 0B       		.uleb128 0xb
 2212 05f8 73693300 		.ascii	"si3\000"
 2213 05fc 01       		.byte	0x1
 2214 05fd 1F04     		.2byte	0x41f
 2215 05ff F8000000 		.4byte	0xf8
 2216 0603 050E0000 		.4byte	.LLST64
 2217 0607 0B       		.uleb128 0xb
 2218 0608 786100   		.ascii	"xa\000"
 2219 060b 01       		.byte	0x1
ARM GAS  /tmp/ccUp6Xac.s 			page 40


 2220 060c 2004     		.2byte	0x420
 2221 060e F8000000 		.4byte	0xf8
 2222 0612 310E0000 		.4byte	.LLST65
 2223 0616 0B       		.uleb128 0xb
 2224 0617 786200   		.ascii	"xb\000"
 2225 061a 01       		.byte	0x1
 2226 061b 2004     		.2byte	0x420
 2227 061d F8000000 		.4byte	0xf8
 2228 0621 500E0000 		.4byte	.LLST66
 2229 0625 0B       		.uleb128 0xb
 2230 0626 786300   		.ascii	"xc\000"
 2231 0629 01       		.byte	0x1
 2232 062a 2004     		.2byte	0x420
 2233 062c F8000000 		.4byte	0xf8
 2234 0630 6F0E0000 		.4byte	.LLST67
 2235 0634 0C       		.uleb128 0xc
 2236 0635 786400   		.ascii	"xd\000"
 2237 0638 01       		.byte	0x1
 2238 0639 2004     		.2byte	0x420
 2239 063b F8000000 		.4byte	0xf8
 2240 063f 01       		.uleb128 0x1
 2241 0640 54       		.byte	0x54
 2242 0641 0C       		.uleb128 0xc
 2243 0642 796100   		.ascii	"ya\000"
 2244 0645 01       		.byte	0x1
 2245 0646 2104     		.2byte	0x421
 2246 0648 F8000000 		.4byte	0xf8
 2247 064c 01       		.uleb128 0x1
 2248 064d 59       		.byte	0x59
 2249 064e 0B       		.uleb128 0xb
 2250 064f 796200   		.ascii	"yb\000"
 2251 0652 01       		.byte	0x1
 2252 0653 2104     		.2byte	0x421
 2253 0655 F8000000 		.4byte	0xf8
 2254 0659 8E0E0000 		.4byte	.LLST68
 2255 065d 0C       		.uleb128 0xc
 2256 065e 796300   		.ascii	"yc\000"
 2257 0661 01       		.byte	0x1
 2258 0662 2104     		.2byte	0x421
 2259 0664 F8000000 		.4byte	0xf8
 2260 0668 01       		.uleb128 0x1
 2261 0669 5C       		.byte	0x5c
 2262 066a 0B       		.uleb128 0xb
 2263 066b 796400   		.ascii	"yd\000"
 2264 066e 01       		.byte	0x1
 2265 066f 2104     		.2byte	0x421
 2266 0671 F8000000 		.4byte	0xf8
 2267 0675 AD0E0000 		.4byte	.LLST69
 2268 0679 0D       		.uleb128 0xd
 2269 067a 15010000 		.4byte	.LASF36
 2270 067e 01       		.byte	0x1
 2271 067f 2204     		.2byte	0x422
 2272 0681 F8000000 		.4byte	0xf8
 2273 0685 CC0E0000 		.4byte	.LLST70
 2274 0689 0E       		.uleb128 0xe
 2275 068a 04030000 		.4byte	.LASF37
 2276 068e 01       		.byte	0x1
ARM GAS  /tmp/ccUp6Xac.s 			page 41


 2277 068f 2204     		.2byte	0x422
 2278 0691 F8000000 		.4byte	0xf8
 2279 0695 0E       		.uleb128 0xe
 2280 0696 85000000 		.4byte	.LASF38
 2281 069a 01       		.byte	0x1
 2282 069b 2204     		.2byte	0x422
 2283 069d F8000000 		.4byte	0xf8
 2284 06a1 0E       		.uleb128 0xe
 2285 06a2 4D010000 		.4byte	.LASF39
 2286 06a6 01       		.byte	0x1
 2287 06a7 2204     		.2byte	0x422
 2288 06a9 F8000000 		.4byte	0xf8
 2289 06ad 0D       		.uleb128 0xd
 2290 06ae D8030000 		.4byte	.LASF40
 2291 06b2 01       		.byte	0x1
 2292 06b3 2304     		.2byte	0x423
 2293 06b5 F8000000 		.4byte	0xf8
 2294 06b9 3D0F0000 		.4byte	.LLST71
 2295 06bd 0E       		.uleb128 0xe
 2296 06be D4000000 		.4byte	.LASF41
 2297 06c2 01       		.byte	0x1
 2298 06c3 2304     		.2byte	0x423
 2299 06c5 F8000000 		.4byte	0xf8
 2300 06c9 0D       		.uleb128 0xd
 2301 06ca A2020000 		.4byte	.LASF42
 2302 06ce 01       		.byte	0x1
 2303 06cf 2304     		.2byte	0x423
 2304 06d1 F8000000 		.4byte	0xf8
 2305 06d5 7D0F0000 		.4byte	.LLST72
 2306 06d9 0E       		.uleb128 0xe
 2307 06da E4020000 		.4byte	.LASF43
 2308 06de 01       		.byte	0x1
 2309 06df 2304     		.2byte	0x423
 2310 06e1 F8000000 		.4byte	0xf8
 2311 06e5 0D       		.uleb128 0xd
 2312 06e6 0B030000 		.4byte	.LASF44
 2313 06ea 01       		.byte	0x1
 2314 06eb 2504     		.2byte	0x425
 2315 06ed 10010000 		.4byte	0x110
 2316 06f1 9D0F0000 		.4byte	.LLST73
 2317 06f5 0D       		.uleb128 0xd
 2318 06f6 C0000000 		.4byte	.LASF45
 2319 06fa 01       		.byte	0x1
 2320 06fb 2604     		.2byte	0x426
 2321 06fd 10010000 		.4byte	0x110
 2322 0701 16100000 		.4byte	.LLST74
 2323 0705 0D       		.uleb128 0xd
 2324 0706 C5000000 		.4byte	.LASF46
 2325 070a 01       		.byte	0x1
 2326 070b 2704     		.2byte	0x427
 2327 070d 10010000 		.4byte	0x110
 2328 0711 7B100000 		.4byte	.LLST75
 2329 0715 0D       		.uleb128 0xd
 2330 0716 CA000000 		.4byte	.LASF47
 2331 071a 01       		.byte	0x1
 2332 071b 2804     		.2byte	0x428
 2333 071d 10010000 		.4byte	0x110
ARM GAS  /tmp/ccUp6Xac.s 			page 42


 2334 0721 A4100000 		.4byte	.LLST76
 2335 0725 0D       		.uleb128 0xd
 2336 0726 CF000000 		.4byte	.LASF48
 2337 072a 01       		.byte	0x1
 2338 072b 2904     		.2byte	0x429
 2339 072d 10010000 		.4byte	0x110
 2340 0731 F1100000 		.4byte	.LLST77
 2341 0735 0D       		.uleb128 0xd
 2342 0736 A9020000 		.4byte	.LASF49
 2343 073a 01       		.byte	0x1
 2344 073b 2A04     		.2byte	0x42a
 2345 073d 04010000 		.4byte	0x104
 2346 0741 35110000 		.4byte	.LLST78
 2347 0745 0D       		.uleb128 0xd
 2348 0746 97010000 		.4byte	.LASF50
 2349 074a 01       		.byte	0x1
 2350 074b 2A04     		.2byte	0x42a
 2351 074d 04010000 		.4byte	0x104
 2352 0751 5E110000 		.4byte	.LLST79
 2353 0755 0D       		.uleb128 0xd
 2354 0756 1C010000 		.4byte	.LASF51
 2355 075a 01       		.byte	0x1
 2356 075b 2A04     		.2byte	0x42a
 2357 075d 04010000 		.4byte	0x104
 2358 0761 99110000 		.4byte	.LLST80
 2359 0765 0D       		.uleb128 0xd
 2360 0766 E4000000 		.4byte	.LASF52
 2361 076a 01       		.byte	0x1
 2362 076b 2A04     		.2byte	0x42a
 2363 076d 04010000 		.4byte	0x104
 2364 0771 C2110000 		.4byte	.LLST81
 2365 0775 00       		.byte	0
 2366 0776 09       		.uleb128 0x9
 2367 0777 F3000000 		.4byte	.LASF55
 2368 077b 01       		.byte	0x1
 2369 077c 5A       		.byte	0x5a
 2370 077d 40080000 		.4byte	.LFB135
 2371 0781 3A000000 		.4byte	.LFE135-.LFB135
 2372 0785 01       		.uleb128 0x1
 2373 0786 9C       		.byte	0x9c
 2374 0787 D6070000 		.4byte	0x7d6
 2375 078b 11       		.uleb128 0x11
 2376 078c 5300     		.ascii	"S\000"
 2377 078e 01       		.byte	0x1
 2378 078f 5B       		.byte	0x5b
 2379 0790 D6070000 		.4byte	0x7d6
 2380 0794 EB110000 		.4byte	.LLST82
 2381 0798 0A       		.uleb128 0xa
 2382 0799 10030000 		.4byte	.LASF34
 2383 079d 01       		.byte	0x1
 2384 079e 5C       		.byte	0x5c
 2385 079f 10010000 		.4byte	0x110
 2386 07a3 17120000 		.4byte	.LLST83
 2387 07a7 12       		.uleb128 0x12
 2388 07a8 58080000 		.4byte	.LVL177
 2389 07ac 8D010000 		.4byte	0x18d
 2390 07b0 BB070000 		.4byte	0x7bb
ARM GAS  /tmp/ccUp6Xac.s 			page 43


 2391 07b4 13       		.uleb128 0x13
 2392 07b5 01       		.uleb128 0x1
 2393 07b6 50       		.byte	0x50
 2394 07b7 02       		.uleb128 0x2
 2395 07b8 75       		.byte	0x75
 2396 07b9 00       		.sleb128 0
 2397 07ba 00       		.byte	0
 2398 07bb 14       		.uleb128 0x14
 2399 07bc 64080000 		.4byte	.LVL179
 2400 07c0 7E040000 		.4byte	0x47e
 2401 07c4 15       		.uleb128 0x15
 2402 07c5 7A080000 		.4byte	.LVL181
 2403 07c9 E1070000 		.4byte	0x7e1
 2404 07cd 13       		.uleb128 0x13
 2405 07ce 01       		.uleb128 0x1
 2406 07cf 50       		.byte	0x50
 2407 07d0 03       		.uleb128 0x3
 2408 07d1 F3       		.byte	0xf3
 2409 07d2 01       		.uleb128 0x1
 2410 07d3 51       		.byte	0x51
 2411 07d4 00       		.byte	0
 2412 07d5 00       		.byte	0
 2413 07d6 06       		.uleb128 0x6
 2414 07d7 04       		.byte	0x4
 2415 07d8 DC070000 		.4byte	0x7dc
 2416 07dc 16       		.uleb128 0x16
 2417 07dd 81010000 		.4byte	0x181
 2418 07e1 17       		.uleb128 0x17
 2419 07e2 70010000 		.4byte	.LASF58
 2420 07e6 01       		.byte	0x1
 2421 07e7 38       		.byte	0x38
 2422 07e8 18       		.uleb128 0x18
 2423 07e9 10010000 		.4byte	0x110
 2424 07ed 18       		.uleb128 0x18
 2425 07ee BF000000 		.4byte	0xbf
 2426 07f2 18       		.uleb128 0x18
 2427 07f3 A9000000 		.4byte	0xa9
 2428 07f7 18       		.uleb128 0x18
 2429 07f8 16010000 		.4byte	0x116
 2430 07fc 00       		.byte	0
 2431 07fd 00       		.byte	0
 2432              		.section	.debug_abbrev,"",%progbits
 2433              	.Ldebug_abbrev0:
 2434 0000 01       		.uleb128 0x1
 2435 0001 11       		.uleb128 0x11
 2436 0002 01       		.byte	0x1
 2437 0003 25       		.uleb128 0x25
 2438 0004 0E       		.uleb128 0xe
 2439 0005 13       		.uleb128 0x13
 2440 0006 0B       		.uleb128 0xb
 2441 0007 03       		.uleb128 0x3
 2442 0008 0E       		.uleb128 0xe
 2443 0009 11       		.uleb128 0x11
 2444 000a 01       		.uleb128 0x1
 2445 000b 12       		.uleb128 0x12
 2446 000c 06       		.uleb128 0x6
 2447 000d 10       		.uleb128 0x10
ARM GAS  /tmp/ccUp6Xac.s 			page 44


 2448 000e 17       		.uleb128 0x17
 2449 000f 00       		.byte	0
 2450 0010 00       		.byte	0
 2451 0011 02       		.uleb128 0x2
 2452 0012 24       		.uleb128 0x24
 2453 0013 00       		.byte	0
 2454 0014 0B       		.uleb128 0xb
 2455 0015 0B       		.uleb128 0xb
 2456 0016 3E       		.uleb128 0x3e
 2457 0017 0B       		.uleb128 0xb
 2458 0018 03       		.uleb128 0x3
 2459 0019 0E       		.uleb128 0xe
 2460 001a 00       		.byte	0
 2461 001b 00       		.byte	0
 2462 001c 03       		.uleb128 0x3
 2463 001d 16       		.uleb128 0x16
 2464 001e 00       		.byte	0
 2465 001f 03       		.uleb128 0x3
 2466 0020 0E       		.uleb128 0xe
 2467 0021 3A       		.uleb128 0x3a
 2468 0022 0B       		.uleb128 0xb
 2469 0023 3B       		.uleb128 0x3b
 2470 0024 0B       		.uleb128 0xb
 2471 0025 49       		.uleb128 0x49
 2472 0026 13       		.uleb128 0x13
 2473 0027 00       		.byte	0
 2474 0028 00       		.byte	0
 2475 0029 04       		.uleb128 0x4
 2476 002a 24       		.uleb128 0x24
 2477 002b 00       		.byte	0
 2478 002c 0B       		.uleb128 0xb
 2479 002d 0B       		.uleb128 0xb
 2480 002e 3E       		.uleb128 0x3e
 2481 002f 0B       		.uleb128 0xb
 2482 0030 03       		.uleb128 0x3
 2483 0031 08       		.uleb128 0x8
 2484 0032 00       		.byte	0
 2485 0033 00       		.byte	0
 2486 0034 05       		.uleb128 0x5
 2487 0035 16       		.uleb128 0x16
 2488 0036 00       		.byte	0
 2489 0037 03       		.uleb128 0x3
 2490 0038 0E       		.uleb128 0xe
 2491 0039 3A       		.uleb128 0x3a
 2492 003a 0B       		.uleb128 0xb
 2493 003b 3B       		.uleb128 0x3b
 2494 003c 05       		.uleb128 0x5
 2495 003d 49       		.uleb128 0x49
 2496 003e 13       		.uleb128 0x13
 2497 003f 00       		.byte	0
 2498 0040 00       		.byte	0
 2499 0041 06       		.uleb128 0x6
 2500 0042 0F       		.uleb128 0xf
 2501 0043 00       		.byte	0
 2502 0044 0B       		.uleb128 0xb
 2503 0045 0B       		.uleb128 0xb
 2504 0046 49       		.uleb128 0x49
ARM GAS  /tmp/ccUp6Xac.s 			page 45


 2505 0047 13       		.uleb128 0x13
 2506 0048 00       		.byte	0
 2507 0049 00       		.byte	0
 2508 004a 07       		.uleb128 0x7
 2509 004b 13       		.uleb128 0x13
 2510 004c 01       		.byte	0x1
 2511 004d 0B       		.uleb128 0xb
 2512 004e 0B       		.uleb128 0xb
 2513 004f 3A       		.uleb128 0x3a
 2514 0050 0B       		.uleb128 0xb
 2515 0051 3B       		.uleb128 0x3b
 2516 0052 05       		.uleb128 0x5
 2517 0053 01       		.uleb128 0x1
 2518 0054 13       		.uleb128 0x13
 2519 0055 00       		.byte	0
 2520 0056 00       		.byte	0
 2521 0057 08       		.uleb128 0x8
 2522 0058 0D       		.uleb128 0xd
 2523 0059 00       		.byte	0
 2524 005a 03       		.uleb128 0x3
 2525 005b 0E       		.uleb128 0xe
 2526 005c 3A       		.uleb128 0x3a
 2527 005d 0B       		.uleb128 0xb
 2528 005e 3B       		.uleb128 0x3b
 2529 005f 05       		.uleb128 0x5
 2530 0060 49       		.uleb128 0x49
 2531 0061 13       		.uleb128 0x13
 2532 0062 38       		.uleb128 0x38
 2533 0063 0B       		.uleb128 0xb
 2534 0064 00       		.byte	0
 2535 0065 00       		.byte	0
 2536 0066 09       		.uleb128 0x9
 2537 0067 2E       		.uleb128 0x2e
 2538 0068 01       		.byte	0x1
 2539 0069 3F       		.uleb128 0x3f
 2540 006a 19       		.uleb128 0x19
 2541 006b 03       		.uleb128 0x3
 2542 006c 0E       		.uleb128 0xe
 2543 006d 3A       		.uleb128 0x3a
 2544 006e 0B       		.uleb128 0xb
 2545 006f 3B       		.uleb128 0x3b
 2546 0070 0B       		.uleb128 0xb
 2547 0071 27       		.uleb128 0x27
 2548 0072 19       		.uleb128 0x19
 2549 0073 11       		.uleb128 0x11
 2550 0074 01       		.uleb128 0x1
 2551 0075 12       		.uleb128 0x12
 2552 0076 06       		.uleb128 0x6
 2553 0077 40       		.uleb128 0x40
 2554 0078 18       		.uleb128 0x18
 2555 0079 9742     		.uleb128 0x2117
 2556 007b 19       		.uleb128 0x19
 2557 007c 01       		.uleb128 0x1
 2558 007d 13       		.uleb128 0x13
 2559 007e 00       		.byte	0
 2560 007f 00       		.byte	0
 2561 0080 0A       		.uleb128 0xa
ARM GAS  /tmp/ccUp6Xac.s 			page 46


 2562 0081 05       		.uleb128 0x5
 2563 0082 00       		.byte	0
 2564 0083 03       		.uleb128 0x3
 2565 0084 0E       		.uleb128 0xe
 2566 0085 3A       		.uleb128 0x3a
 2567 0086 0B       		.uleb128 0xb
 2568 0087 3B       		.uleb128 0x3b
 2569 0088 0B       		.uleb128 0xb
 2570 0089 49       		.uleb128 0x49
 2571 008a 13       		.uleb128 0x13
 2572 008b 02       		.uleb128 0x2
 2573 008c 17       		.uleb128 0x17
 2574 008d 00       		.byte	0
 2575 008e 00       		.byte	0
 2576 008f 0B       		.uleb128 0xb
 2577 0090 34       		.uleb128 0x34
 2578 0091 00       		.byte	0
 2579 0092 03       		.uleb128 0x3
 2580 0093 08       		.uleb128 0x8
 2581 0094 3A       		.uleb128 0x3a
 2582 0095 0B       		.uleb128 0xb
 2583 0096 3B       		.uleb128 0x3b
 2584 0097 05       		.uleb128 0x5
 2585 0098 49       		.uleb128 0x49
 2586 0099 13       		.uleb128 0x13
 2587 009a 02       		.uleb128 0x2
 2588 009b 17       		.uleb128 0x17
 2589 009c 00       		.byte	0
 2590 009d 00       		.byte	0
 2591 009e 0C       		.uleb128 0xc
 2592 009f 34       		.uleb128 0x34
 2593 00a0 00       		.byte	0
 2594 00a1 03       		.uleb128 0x3
 2595 00a2 08       		.uleb128 0x8
 2596 00a3 3A       		.uleb128 0x3a
 2597 00a4 0B       		.uleb128 0xb
 2598 00a5 3B       		.uleb128 0x3b
 2599 00a6 05       		.uleb128 0x5
 2600 00a7 49       		.uleb128 0x49
 2601 00a8 13       		.uleb128 0x13
 2602 00a9 02       		.uleb128 0x2
 2603 00aa 18       		.uleb128 0x18
 2604 00ab 00       		.byte	0
 2605 00ac 00       		.byte	0
 2606 00ad 0D       		.uleb128 0xd
 2607 00ae 34       		.uleb128 0x34
 2608 00af 00       		.byte	0
 2609 00b0 03       		.uleb128 0x3
 2610 00b1 0E       		.uleb128 0xe
 2611 00b2 3A       		.uleb128 0x3a
 2612 00b3 0B       		.uleb128 0xb
 2613 00b4 3B       		.uleb128 0x3b
 2614 00b5 05       		.uleb128 0x5
 2615 00b6 49       		.uleb128 0x49
 2616 00b7 13       		.uleb128 0x13
 2617 00b8 02       		.uleb128 0x2
 2618 00b9 17       		.uleb128 0x17
ARM GAS  /tmp/ccUp6Xac.s 			page 47


 2619 00ba 00       		.byte	0
 2620 00bb 00       		.byte	0
 2621 00bc 0E       		.uleb128 0xe
 2622 00bd 34       		.uleb128 0x34
 2623 00be 00       		.byte	0
 2624 00bf 03       		.uleb128 0x3
 2625 00c0 0E       		.uleb128 0xe
 2626 00c1 3A       		.uleb128 0x3a
 2627 00c2 0B       		.uleb128 0xb
 2628 00c3 3B       		.uleb128 0x3b
 2629 00c4 05       		.uleb128 0x5
 2630 00c5 49       		.uleb128 0x49
 2631 00c6 13       		.uleb128 0x13
 2632 00c7 00       		.byte	0
 2633 00c8 00       		.byte	0
 2634 00c9 0F       		.uleb128 0xf
 2635 00ca 2E       		.uleb128 0x2e
 2636 00cb 01       		.byte	0x1
 2637 00cc 3F       		.uleb128 0x3f
 2638 00cd 19       		.uleb128 0x19
 2639 00ce 03       		.uleb128 0x3
 2640 00cf 0E       		.uleb128 0xe
 2641 00d0 3A       		.uleb128 0x3a
 2642 00d1 0B       		.uleb128 0xb
 2643 00d2 3B       		.uleb128 0x3b
 2644 00d3 05       		.uleb128 0x5
 2645 00d4 27       		.uleb128 0x27
 2646 00d5 19       		.uleb128 0x19
 2647 00d6 11       		.uleb128 0x11
 2648 00d7 01       		.uleb128 0x1
 2649 00d8 12       		.uleb128 0x12
 2650 00d9 06       		.uleb128 0x6
 2651 00da 40       		.uleb128 0x40
 2652 00db 18       		.uleb128 0x18
 2653 00dc 9742     		.uleb128 0x2117
 2654 00de 19       		.uleb128 0x19
 2655 00df 01       		.uleb128 0x1
 2656 00e0 13       		.uleb128 0x13
 2657 00e1 00       		.byte	0
 2658 00e2 00       		.byte	0
 2659 00e3 10       		.uleb128 0x10
 2660 00e4 05       		.uleb128 0x5
 2661 00e5 00       		.byte	0
 2662 00e6 03       		.uleb128 0x3
 2663 00e7 0E       		.uleb128 0xe
 2664 00e8 3A       		.uleb128 0x3a
 2665 00e9 0B       		.uleb128 0xb
 2666 00ea 3B       		.uleb128 0x3b
 2667 00eb 05       		.uleb128 0x5
 2668 00ec 49       		.uleb128 0x49
 2669 00ed 13       		.uleb128 0x13
 2670 00ee 02       		.uleb128 0x2
 2671 00ef 17       		.uleb128 0x17
 2672 00f0 00       		.byte	0
 2673 00f1 00       		.byte	0
 2674 00f2 11       		.uleb128 0x11
 2675 00f3 05       		.uleb128 0x5
ARM GAS  /tmp/ccUp6Xac.s 			page 48


 2676 00f4 00       		.byte	0
 2677 00f5 03       		.uleb128 0x3
 2678 00f6 08       		.uleb128 0x8
 2679 00f7 3A       		.uleb128 0x3a
 2680 00f8 0B       		.uleb128 0xb
 2681 00f9 3B       		.uleb128 0x3b
 2682 00fa 0B       		.uleb128 0xb
 2683 00fb 49       		.uleb128 0x49
 2684 00fc 13       		.uleb128 0x13
 2685 00fd 02       		.uleb128 0x2
 2686 00fe 17       		.uleb128 0x17
 2687 00ff 00       		.byte	0
 2688 0100 00       		.byte	0
 2689 0101 12       		.uleb128 0x12
 2690 0102 898201   		.uleb128 0x4109
 2691 0105 01       		.byte	0x1
 2692 0106 11       		.uleb128 0x11
 2693 0107 01       		.uleb128 0x1
 2694 0108 31       		.uleb128 0x31
 2695 0109 13       		.uleb128 0x13
 2696 010a 01       		.uleb128 0x1
 2697 010b 13       		.uleb128 0x13
 2698 010c 00       		.byte	0
 2699 010d 00       		.byte	0
 2700 010e 13       		.uleb128 0x13
 2701 010f 8A8201   		.uleb128 0x410a
 2702 0112 00       		.byte	0
 2703 0113 02       		.uleb128 0x2
 2704 0114 18       		.uleb128 0x18
 2705 0115 9142     		.uleb128 0x2111
 2706 0117 18       		.uleb128 0x18
 2707 0118 00       		.byte	0
 2708 0119 00       		.byte	0
 2709 011a 14       		.uleb128 0x14
 2710 011b 898201   		.uleb128 0x4109
 2711 011e 00       		.byte	0
 2712 011f 11       		.uleb128 0x11
 2713 0120 01       		.uleb128 0x1
 2714 0121 31       		.uleb128 0x31
 2715 0122 13       		.uleb128 0x13
 2716 0123 00       		.byte	0
 2717 0124 00       		.byte	0
 2718 0125 15       		.uleb128 0x15
 2719 0126 898201   		.uleb128 0x4109
 2720 0129 01       		.byte	0x1
 2721 012a 11       		.uleb128 0x11
 2722 012b 01       		.uleb128 0x1
 2723 012c 9542     		.uleb128 0x2115
 2724 012e 19       		.uleb128 0x19
 2725 012f 31       		.uleb128 0x31
 2726 0130 13       		.uleb128 0x13
 2727 0131 00       		.byte	0
 2728 0132 00       		.byte	0
 2729 0133 16       		.uleb128 0x16
 2730 0134 26       		.uleb128 0x26
 2731 0135 00       		.byte	0
 2732 0136 49       		.uleb128 0x49
ARM GAS  /tmp/ccUp6Xac.s 			page 49


 2733 0137 13       		.uleb128 0x13
 2734 0138 00       		.byte	0
 2735 0139 00       		.byte	0
 2736 013a 17       		.uleb128 0x17
 2737 013b 2E       		.uleb128 0x2e
 2738 013c 01       		.byte	0x1
 2739 013d 3F       		.uleb128 0x3f
 2740 013e 19       		.uleb128 0x19
 2741 013f 03       		.uleb128 0x3
 2742 0140 0E       		.uleb128 0xe
 2743 0141 3A       		.uleb128 0x3a
 2744 0142 0B       		.uleb128 0xb
 2745 0143 3B       		.uleb128 0x3b
 2746 0144 0B       		.uleb128 0xb
 2747 0145 27       		.uleb128 0x27
 2748 0146 19       		.uleb128 0x19
 2749 0147 3C       		.uleb128 0x3c
 2750 0148 19       		.uleb128 0x19
 2751 0149 00       		.byte	0
 2752 014a 00       		.byte	0
 2753 014b 18       		.uleb128 0x18
 2754 014c 05       		.uleb128 0x5
 2755 014d 00       		.byte	0
 2756 014e 49       		.uleb128 0x49
 2757 014f 13       		.uleb128 0x13
 2758 0150 00       		.byte	0
 2759 0151 00       		.byte	0
 2760 0152 00       		.byte	0
 2761              		.section	.debug_loc,"",%progbits
 2762              	.Ldebug_loc0:
 2763              	.LLST0:
 2764 0000 00000000 		.4byte	.LVL0-.Ltext0
 2765 0004 18000000 		.4byte	.LVL6-.Ltext0
 2766 0008 0100     		.2byte	0x1
 2767 000a 50       		.byte	0x50
 2768 000b 18000000 		.4byte	.LVL6-.Ltext0
 2769 000f 54000000 		.4byte	.LVL11-.Ltext0
 2770 0013 0100     		.2byte	0x1
 2771 0015 57       		.byte	0x57
 2772 0016 54000000 		.4byte	.LVL11-.Ltext0
 2773 001a 14040000 		.4byte	.LFE136-.Ltext0
 2774 001e 0200     		.2byte	0x2
 2775 0020 91       		.byte	0x91
 2776 0021 50       		.sleb128 -48
 2777 0022 00000000 		.4byte	0
 2778 0026 00000000 		.4byte	0
 2779              	.LLST1:
 2780 002a 00000000 		.4byte	.LVL0-.Ltext0
 2781 002e 0C000000 		.4byte	.LVL2-.Ltext0
 2782 0032 0100     		.2byte	0x1
 2783 0034 51       		.byte	0x51
 2784 0035 0C000000 		.4byte	.LVL2-.Ltext0
 2785 0039 14040000 		.4byte	.LFE136-.Ltext0
 2786 003d 0300     		.2byte	0x3
 2787 003f 91       		.byte	0x91
 2788 0040 947F     		.sleb128 -108
 2789 0042 00000000 		.4byte	0
ARM GAS  /tmp/ccUp6Xac.s 			page 50


 2790 0046 00000000 		.4byte	0
 2791              	.LLST2:
 2792 004a 00000000 		.4byte	.LVL0-.Ltext0
 2793 004e 24000000 		.4byte	.LVL8-.Ltext0
 2794 0052 0100     		.2byte	0x1
 2795 0054 52       		.byte	0x52
 2796 0055 24000000 		.4byte	.LVL8-.Ltext0
 2797 0059 54000000 		.4byte	.LVL11-.Ltext0
 2798 005d 0100     		.2byte	0x1
 2799 005f 5C       		.byte	0x5c
 2800 0060 54000000 		.4byte	.LVL11-.Ltext0
 2801 0064 14040000 		.4byte	.LFE136-.Ltext0
 2802 0068 0300     		.2byte	0x3
 2803 006a 91       		.byte	0x91
 2804 006b B87F     		.sleb128 -72
 2805 006d 00000000 		.4byte	0
 2806 0071 00000000 		.4byte	0
 2807              	.LLST3:
 2808 0075 00000000 		.4byte	.LVL0-.Ltext0
 2809 0079 20000000 		.4byte	.LVL7-.Ltext0
 2810 007d 0100     		.2byte	0x1
 2811 007f 53       		.byte	0x53
 2812 0080 20000000 		.4byte	.LVL7-.Ltext0
 2813 0084 54000000 		.4byte	.LVL11-.Ltext0
 2814 0088 0100     		.2byte	0x1
 2815 008a 56       		.byte	0x56
 2816 008b 54000000 		.4byte	.LVL11-.Ltext0
 2817 008f 88010000 		.4byte	.LVL29-.Ltext0
 2818 0093 0300     		.2byte	0x3
 2819 0095 91       		.byte	0x91
 2820 0096 887F     		.sleb128 -120
 2821 0098 88010000 		.4byte	.LVL29-.Ltext0
 2822 009c 8A010000 		.4byte	.LVL30-.Ltext0
 2823 00a0 0100     		.2byte	0x1
 2824 00a2 53       		.byte	0x53
 2825 00a3 8A010000 		.4byte	.LVL30-.Ltext0
 2826 00a7 70030000 		.4byte	.LVL63-.Ltext0
 2827 00ab 0300     		.2byte	0x3
 2828 00ad 91       		.byte	0x91
 2829 00ae B47F     		.sleb128 -76
 2830 00b0 70030000 		.4byte	.LVL63-.Ltext0
 2831 00b4 74030000 		.4byte	.LVL64-.Ltext0
 2832 00b8 0100     		.2byte	0x1
 2833 00ba 52       		.byte	0x52
 2834 00bb 74030000 		.4byte	.LVL64-.Ltext0
 2835 00bf 14040000 		.4byte	.LFE136-.Ltext0
 2836 00c3 0300     		.2byte	0x3
 2837 00c5 91       		.byte	0x91
 2838 00c6 B47F     		.sleb128 -76
 2839 00c8 00000000 		.4byte	0
 2840 00cc 00000000 		.4byte	0
 2841              	.LLST4:
 2842 00d0 0A000000 		.4byte	.LVL1-.Ltext0
 2843 00d4 0C000000 		.4byte	.LVL2-.Ltext0
 2844 00d8 0100     		.2byte	0x1
 2845 00da 51       		.byte	0x51
 2846 00db 0C000000 		.4byte	.LVL2-.Ltext0
ARM GAS  /tmp/ccUp6Xac.s 			page 51


 2847 00df 96010000 		.4byte	.LVL31-.Ltext0
 2848 00e3 0300     		.2byte	0x3
 2849 00e5 91       		.byte	0x91
 2850 00e6 947F     		.sleb128 -108
 2851 00e8 96010000 		.4byte	.LVL31-.Ltext0
 2852 00ec 78030000 		.4byte	.LVL65-.Ltext0
 2853 00f0 0300     		.2byte	0x3
 2854 00f2 91       		.byte	0x91
 2855 00f3 907F     		.sleb128 -112
 2856 00f5 00000000 		.4byte	0
 2857 00f9 00000000 		.4byte	0
 2858              	.LLST5:
 2859 00fd 0A000000 		.4byte	.LVL1-.Ltext0
 2860 0101 0C000000 		.4byte	.LVL2-.Ltext0
 2861 0105 0100     		.2byte	0x1
 2862 0107 51       		.byte	0x51
 2863 0108 0C000000 		.4byte	.LVL2-.Ltext0
 2864 010c 10000000 		.4byte	.LVL3-.Ltext0
 2865 0110 0300     		.2byte	0x3
 2866 0112 91       		.byte	0x91
 2867 0113 947F     		.sleb128 -108
 2868 0115 10000000 		.4byte	.LVL3-.Ltext0
 2869 0119 12000000 		.4byte	.LVL4-.Ltext0
 2870 011d 0100     		.2byte	0x1
 2871 011f 51       		.byte	0x51
 2872 0120 12000000 		.4byte	.LVL4-.Ltext0
 2873 0124 54000000 		.4byte	.LVL11-.Ltext0
 2874 0128 0100     		.2byte	0x1
 2875 012a 54       		.byte	0x54
 2876 012b 54000000 		.4byte	.LVL11-.Ltext0
 2877 012f 96010000 		.4byte	.LVL31-.Ltext0
 2878 0133 0200     		.2byte	0x2
 2879 0135 91       		.byte	0x91
 2880 0136 54       		.sleb128 -44
 2881 0137 96010000 		.4byte	.LVL31-.Ltext0
 2882 013b 9E010000 		.4byte	.LVL32-.Ltext0
 2883 013f 0300     		.2byte	0x3
 2884 0141 91       		.byte	0x91
 2885 0142 907F     		.sleb128 -112
 2886 0144 9E010000 		.4byte	.LVL32-.Ltext0
 2887 0148 B6010000 		.4byte	.LVL33-.Ltext0
 2888 014c 0100     		.2byte	0x1
 2889 014e 52       		.byte	0x52
 2890 014f B6010000 		.4byte	.LVL33-.Ltext0
 2891 0153 CA010000 		.4byte	.LVL34-.Ltext0
 2892 0157 0100     		.2byte	0x1
 2893 0159 51       		.byte	0x51
 2894 015a CA010000 		.4byte	.LVL34-.Ltext0
 2895 015e 7C030000 		.4byte	.LVL66-.Ltext0
 2896 0162 0200     		.2byte	0x2
 2897 0164 91       		.byte	0x91
 2898 0165 4C       		.sleb128 -52
 2899 0166 00000000 		.4byte	0
 2900 016a 00000000 		.4byte	0
 2901              	.LLST6:
 2902 016e 10000000 		.4byte	.LVL3-.Ltext0
 2903 0172 54000000 		.4byte	.LVL11-.Ltext0
ARM GAS  /tmp/ccUp6Xac.s 			page 52


 2904 0176 0200     		.2byte	0x2
 2905 0178 30       		.byte	0x30
 2906 0179 9F       		.byte	0x9f
 2907 017a 9E010000 		.4byte	.LVL32-.Ltext0
 2908 017e CA010000 		.4byte	.LVL34-.Ltext0
 2909 0182 0200     		.2byte	0x2
 2910 0184 30       		.byte	0x30
 2911 0185 9F       		.byte	0x9f
 2912 0186 CA010000 		.4byte	.LVL34-.Ltext0
 2913 018a 00020000 		.4byte	.LVL40-.Ltext0
 2914 018e 0300     		.2byte	0x3
 2915 0190 91       		.byte	0x91
 2916 0191 B07F     		.sleb128 -80
 2917 0193 00020000 		.4byte	.LVL40-.Ltext0
 2918 0197 04020000 		.4byte	.LVL42-.Ltext0
 2919 019b 0100     		.2byte	0x1
 2920 019d 53       		.byte	0x53
 2921 019e 04020000 		.4byte	.LVL42-.Ltext0
 2922 01a2 7C030000 		.4byte	.LVL66-.Ltext0
 2923 01a6 0300     		.2byte	0x3
 2924 01a8 91       		.byte	0x91
 2925 01a9 B07F     		.sleb128 -80
 2926 01ab 00000000 		.4byte	0
 2927 01af 00000000 		.4byte	0
 2928              	.LLST7:
 2929 01b3 CA010000 		.4byte	.LVL34-.Ltext0
 2930 01b7 00020000 		.4byte	.LVL40-.Ltext0
 2931 01bb 0700     		.2byte	0x7
 2932 01bd 91       		.byte	0x91
 2933 01be B07F     		.sleb128 -80
 2934 01c0 06       		.byte	0x6
 2935 01c1 31       		.byte	0x31
 2936 01c2 24       		.byte	0x24
 2937 01c3 9F       		.byte	0x9f
 2938 01c4 00020000 		.4byte	.LVL40-.Ltext0
 2939 01c8 28020000 		.4byte	.LVL44-.Ltext0
 2940 01cc 0500     		.2byte	0x5
 2941 01ce 70       		.byte	0x70
 2942 01cf 00       		.sleb128 0
 2943 01d0 31       		.byte	0x31
 2944 01d1 24       		.byte	0x24
 2945 01d2 9F       		.byte	0x9f
 2946 01d3 00000000 		.4byte	0
 2947 01d7 00000000 		.4byte	0
 2948              	.LLST8:
 2949 01db CA010000 		.4byte	.LVL34-.Ltext0
 2950 01df 00020000 		.4byte	.LVL40-.Ltext0
 2951 01e3 0700     		.2byte	0x7
 2952 01e5 91       		.byte	0x91
 2953 01e6 B07F     		.sleb128 -80
 2954 01e8 06       		.byte	0x6
 2955 01e9 33       		.byte	0x33
 2956 01ea 1E       		.byte	0x1e
 2957 01eb 9F       		.byte	0x9f
 2958 01ec 00020000 		.4byte	.LVL40-.Ltext0
 2959 01f0 28020000 		.4byte	.LVL44-.Ltext0
 2960 01f4 0500     		.2byte	0x5
ARM GAS  /tmp/ccUp6Xac.s 			page 53


 2961 01f6 70       		.byte	0x70
 2962 01f7 00       		.sleb128 0
 2963 01f8 33       		.byte	0x33
 2964 01f9 1E       		.byte	0x1e
 2965 01fa 9F       		.byte	0x9f
 2966 01fb 00000000 		.4byte	0
 2967 01ff 00000000 		.4byte	0
 2968              	.LLST9:
 2969 0203 12020000 		.4byte	.LVL43-.Ltext0
 2970 0207 28020000 		.4byte	.LVL44-.Ltext0
 2971 020b 0300     		.2byte	0x3
 2972 020d 91       		.byte	0x91
 2973 020e A47F     		.sleb128 -92
 2974 0210 28020000 		.4byte	.LVL44-.Ltext0
 2975 0214 2A030000 		.4byte	.LVL55-.Ltext0
 2976 0218 0A00     		.2byte	0xa
 2977 021a 91       		.byte	0x91
 2978 021b FC7E     		.sleb128 -132
 2979 021d 06       		.byte	0x6
 2980 021e 91       		.byte	0x91
 2981 021f 907F     		.sleb128 -112
 2982 0221 06       		.byte	0x6
 2983 0222 1C       		.byte	0x1c
 2984 0223 9F       		.byte	0x9f
 2985 0224 2A030000 		.4byte	.LVL55-.Ltext0
 2986 0228 46030000 		.4byte	.LVL59-.Ltext0
 2987 022c 0800     		.2byte	0x8
 2988 022e 7E       		.byte	0x7e
 2989 022f 00       		.sleb128 0
 2990 0230 91       		.byte	0x91
 2991 0231 907F     		.sleb128 -112
 2992 0233 06       		.byte	0x6
 2993 0234 1C       		.byte	0x1c
 2994 0235 9F       		.byte	0x9f
 2995 0236 00000000 		.4byte	0
 2996 023a 00000000 		.4byte	0
 2997              	.LLST10:
 2998 023e 10000000 		.4byte	.LVL3-.Ltext0
 2999 0242 12000000 		.4byte	.LVL4-.Ltext0
 3000 0246 0100     		.2byte	0x1
 3001 0248 51       		.byte	0x51
 3002 0249 12000000 		.4byte	.LVL4-.Ltext0
 3003 024d 54000000 		.4byte	.LVL11-.Ltext0
 3004 0251 0100     		.2byte	0x1
 3005 0253 54       		.byte	0x54
 3006 0254 54000000 		.4byte	.LVL11-.Ltext0
 3007 0258 60010000 		.4byte	.LVL25-.Ltext0
 3008 025c 0300     		.2byte	0x3
 3009 025e 91       		.byte	0x91
 3010 025f E47E     		.sleb128 -156
 3011 0261 60010000 		.4byte	.LVL25-.Ltext0
 3012 0265 68010000 		.4byte	.LVL26-.Ltext0
 3013 0269 0700     		.2byte	0x7
 3014 026b 91       		.byte	0x91
 3015 026c E47E     		.sleb128 -156
 3016 026e 06       		.byte	0x6
 3017 026f 31       		.byte	0x31
ARM GAS  /tmp/ccUp6Xac.s 			page 54


 3018 0270 1C       		.byte	0x1c
 3019 0271 9F       		.byte	0x9f
 3020 0272 68010000 		.4byte	.LVL26-.Ltext0
 3021 0276 84010000 		.4byte	.LVL28-.Ltext0
 3022 027a 0100     		.2byte	0x1
 3023 027c 53       		.byte	0x53
 3024 027d 84010000 		.4byte	.LVL28-.Ltext0
 3025 0281 96010000 		.4byte	.LVL31-.Ltext0
 3026 0285 0300     		.2byte	0x3
 3027 0287 91       		.byte	0x91
 3028 0288 E47E     		.sleb128 -156
 3029 028a 9E010000 		.4byte	.LVL32-.Ltext0
 3030 028e CA010000 		.4byte	.LVL34-.Ltext0
 3031 0292 0200     		.2byte	0x2
 3032 0294 30       		.byte	0x30
 3033 0295 9F       		.byte	0x9f
 3034 0296 CA010000 		.4byte	.LVL34-.Ltext0
 3035 029a 62030000 		.4byte	.LVL61-.Ltext0
 3036 029e 0300     		.2byte	0x3
 3037 02a0 91       		.byte	0x91
 3038 02a1 A47F     		.sleb128 -92
 3039 02a3 62030000 		.4byte	.LVL61-.Ltext0
 3040 02a7 68030000 		.4byte	.LVL62-.Ltext0
 3041 02ab 0100     		.2byte	0x1
 3042 02ad 53       		.byte	0x53
 3043 02ae 68030000 		.4byte	.LVL62-.Ltext0
 3044 02b2 7C030000 		.4byte	.LVL66-.Ltext0
 3045 02b6 0300     		.2byte	0x3
 3046 02b8 91       		.byte	0x91
 3047 02b9 A47F     		.sleb128 -92
 3048 02bb 84030000 		.4byte	.LVL67-.Ltext0
 3049 02bf E8030000 		.4byte	.LVL79-.Ltext0
 3050 02c3 0100     		.2byte	0x1
 3051 02c5 59       		.byte	0x59
 3052 02c6 E8030000 		.4byte	.LVL79-.Ltext0
 3053 02ca 04040000 		.4byte	.LVL85-.Ltext0
 3054 02ce 0300     		.2byte	0x3
 3055 02d0 79       		.byte	0x79
 3056 02d1 01       		.sleb128 1
 3057 02d2 9F       		.byte	0x9f
 3058 02d3 00000000 		.4byte	0
 3059 02d7 00000000 		.4byte	0
 3060              	.LLST11:
 3061 02db 88010000 		.4byte	.LVL29-.Ltext0
 3062 02df 96010000 		.4byte	.LVL31-.Ltext0
 3063 02e3 0200     		.2byte	0x2
 3064 02e5 91       		.byte	0x91
 3065 02e6 54       		.sleb128 -44
 3066 02e7 96010000 		.4byte	.LVL31-.Ltext0
 3067 02eb 70030000 		.4byte	.LVL63-.Ltext0
 3068 02ef 0200     		.2byte	0x2
 3069 02f1 91       		.byte	0x91
 3070 02f2 48       		.sleb128 -56
 3071 02f3 70030000 		.4byte	.LVL63-.Ltext0
 3072 02f7 84030000 		.4byte	.LVL67-.Ltext0
 3073 02fb 0100     		.2byte	0x1
 3074 02fd 53       		.byte	0x53
ARM GAS  /tmp/ccUp6Xac.s 			page 55


 3075 02fe 00000000 		.4byte	0
 3076 0302 00000000 		.4byte	0
 3077              	.LLST12:
 3078 0306 F8000000 		.4byte	.LVL16-.Ltext0
 3079 030a 96010000 		.4byte	.LVL31-.Ltext0
 3080 030e 0100     		.2byte	0x1
 3081 0310 5C       		.byte	0x5c
 3082 0311 78020000 		.4byte	.LVL46-.Ltext0
 3083 0315 82020000 		.4byte	.LVL47-.Ltext0
 3084 0319 0100     		.2byte	0x1
 3085 031b 52       		.byte	0x52
 3086 031c 00000000 		.4byte	0
 3087 0320 00000000 		.4byte	0
 3088              	.LLST13:
 3089 0324 F8000000 		.4byte	.LVL16-.Ltext0
 3090 0328 34010000 		.4byte	.LVL20-.Ltext0
 3091 032c 0100     		.2byte	0x1
 3092 032e 53       		.byte	0x53
 3093 032f 82020000 		.4byte	.LVL47-.Ltext0
 3094 0333 92020000 		.4byte	.LVL49-.Ltext0
 3095 0337 0100     		.2byte	0x1
 3096 0339 56       		.byte	0x56
 3097 033a 00000000 		.4byte	0
 3098 033e 00000000 		.4byte	0
 3099              	.LLST14:
 3100 0342 74000000 		.4byte	.LVL12-.Ltext0
 3101 0346 C8000000 		.4byte	.LVL13-.Ltext0
 3102 034a 0100     		.2byte	0x1
 3103 034c 55       		.byte	0x55
 3104 034d C8000000 		.4byte	.LVL13-.Ltext0
 3105 0351 E0000000 		.4byte	.LVL15-.Ltext0
 3106 0355 0800     		.2byte	0x8
 3107 0357 7C       		.byte	0x7c
 3108 0358 00       		.sleb128 0
 3109 0359 91       		.byte	0x91
 3110 035a F07E     		.sleb128 -144
 3111 035c 06       		.byte	0x6
 3112 035d 22       		.byte	0x22
 3113 035e 9F       		.byte	0x9f
 3114 035f FC000000 		.4byte	.LVL17-.Ltext0
 3115 0363 18010000 		.4byte	.LVL18-.Ltext0
 3116 0367 0100     		.2byte	0x1
 3117 0369 50       		.byte	0x50
 3118 036a 18010000 		.4byte	.LVL18-.Ltext0
 3119 036e 2E010000 		.4byte	.LVL19-.Ltext0
 3120 0372 0600     		.2byte	0x6
 3121 0374 72       		.byte	0x72
 3122 0375 00       		.sleb128 0
 3123 0376 7C       		.byte	0x7c
 3124 0377 00       		.sleb128 0
 3125 0378 22       		.byte	0x22
 3126 0379 9F       		.byte	0x9f
 3127 037a 40020000 		.4byte	.LVL45-.Ltext0
 3128 037e 82020000 		.4byte	.LVL47-.Ltext0
 3129 0382 0100     		.2byte	0x1
 3130 0384 5C       		.byte	0x5c
 3131 0385 82020000 		.4byte	.LVL47-.Ltext0
ARM GAS  /tmp/ccUp6Xac.s 			page 56


 3132 0389 C2020000 		.4byte	.LVL52-.Ltext0
 3133 038d 0100     		.2byte	0x1
 3134 038f 52       		.byte	0x52
 3135 0390 00000000 		.4byte	0
 3136 0394 00000000 		.4byte	0
 3137              	.LLST15:
 3138 0398 DA000000 		.4byte	.LVL14-.Ltext0
 3139 039c 44010000 		.4byte	.LVL21-.Ltext0
 3140 03a0 0100     		.2byte	0x1
 3141 03a2 52       		.byte	0x52
 3142 03a3 78020000 		.4byte	.LVL46-.Ltext0
 3143 03a7 8E020000 		.4byte	.LVL48-.Ltext0
 3144 03ab 0100     		.2byte	0x1
 3145 03ad 5E       		.byte	0x5e
 3146 03ae 00000000 		.4byte	0
 3147 03b2 00000000 		.4byte	0
 3148              	.LLST16:
 3149 03b6 2E010000 		.4byte	.LVL19-.Ltext0
 3150 03ba 34010000 		.4byte	.LVL20-.Ltext0
 3151 03be 0600     		.2byte	0x6
 3152 03c0 7E       		.byte	0x7e
 3153 03c1 00       		.sleb128 0
 3154 03c2 73       		.byte	0x73
 3155 03c3 00       		.sleb128 0
 3156 03c4 1C       		.byte	0x1c
 3157 03c5 9F       		.byte	0x9f
 3158 03c6 78020000 		.4byte	.LVL46-.Ltext0
 3159 03ca 9C020000 		.4byte	.LVL51-.Ltext0
 3160 03ce 0100     		.2byte	0x1
 3161 03d0 58       		.byte	0x58
 3162 03d1 00000000 		.4byte	0
 3163 03d5 00000000 		.4byte	0
 3164              	.LLST17:
 3165 03d9 F8000000 		.4byte	.LVL16-.Ltext0
 3166 03dd 34010000 		.4byte	.LVL20-.Ltext0
 3167 03e1 0100     		.2byte	0x1
 3168 03e3 5E       		.byte	0x5e
 3169 03e4 34010000 		.4byte	.LVL20-.Ltext0
 3170 03e8 46010000 		.4byte	.LVL22-.Ltext0
 3171 03ec 0100     		.2byte	0x1
 3172 03ee 53       		.byte	0x53
 3173 03ef 78020000 		.4byte	.LVL46-.Ltext0
 3174 03f3 96020000 		.4byte	.LVL50-.Ltext0
 3175 03f7 0100     		.2byte	0x1
 3176 03f9 54       		.byte	0x54
 3177 03fa 2C030000 		.4byte	.LVL56-.Ltext0
 3178 03fe 4A030000 		.4byte	.LVL60-.Ltext0
 3179 0402 0300     		.2byte	0x3
 3180 0404 91       		.byte	0x91
 3181 0405 807F     		.sleb128 -128
 3182 0407 00000000 		.4byte	0
 3183 040b 00000000 		.4byte	0
 3184              	.LLST18:
 3185 040f 34010000 		.4byte	.LVL20-.Ltext0
 3186 0413 96010000 		.4byte	.LVL31-.Ltext0
 3187 0417 0100     		.2byte	0x1
 3188 0419 55       		.byte	0x55
ARM GAS  /tmp/ccUp6Xac.s 			page 57


 3189 041a F4010000 		.4byte	.LVL35-.Ltext0
 3190 041e F6010000 		.4byte	.LVL36-.Ltext0
 3191 0422 0100     		.2byte	0x1
 3192 0424 52       		.byte	0x52
 3193 0425 F6010000 		.4byte	.LVL36-.Ltext0
 3194 0429 7C030000 		.4byte	.LVL66-.Ltext0
 3195 042d 0300     		.2byte	0x3
 3196 042f 91       		.byte	0x91
 3197 0430 E47E     		.sleb128 -156
 3198 0432 00000000 		.4byte	0
 3199 0436 00000000 		.4byte	0
 3200              	.LLST19:
 3201 043a F4010000 		.4byte	.LVL35-.Ltext0
 3202 043e 00020000 		.4byte	.LVL40-.Ltext0
 3203 0442 0900     		.2byte	0x9
 3204 0444 91       		.byte	0x91
 3205 0445 B07F     		.sleb128 -80
 3206 0447 06       		.byte	0x6
 3207 0448 34       		.byte	0x34
 3208 0449 24       		.byte	0x24
 3209 044a 74       		.byte	0x74
 3210 044b 00       		.sleb128 0
 3211 044c 22       		.byte	0x22
 3212 044d 00020000 		.4byte	.LVL40-.Ltext0
 3213 0451 28020000 		.4byte	.LVL44-.Ltext0
 3214 0455 0700     		.2byte	0x7
 3215 0457 70       		.byte	0x70
 3216 0458 00       		.sleb128 0
 3217 0459 34       		.byte	0x34
 3218 045a 24       		.byte	0x24
 3219 045b 74       		.byte	0x74
 3220 045c 00       		.sleb128 0
 3221 045d 22       		.byte	0x22
 3222 045e 28020000 		.4byte	.LVL44-.Ltext0
 3223 0462 7C030000 		.4byte	.LVL66-.Ltext0
 3224 0466 0300     		.2byte	0x3
 3225 0468 91       		.byte	0x91
 3226 0469 987F     		.sleb128 -104
 3227 046b 00000000 		.4byte	0
 3228 046f 00000000 		.4byte	0
 3229              	.LLST20:
 3230 0473 34010000 		.4byte	.LVL20-.Ltext0
 3231 0477 4A010000 		.4byte	.LVL24-.Ltext0
 3232 047b 0100     		.2byte	0x1
 3233 047d 51       		.byte	0x51
 3234 047e 4A010000 		.4byte	.LVL24-.Ltext0
 3235 0482 60010000 		.4byte	.LVL25-.Ltext0
 3236 0486 0200     		.2byte	0x2
 3237 0488 77       		.byte	0x77
 3238 0489 00       		.sleb128 0
 3239 048a F8010000 		.4byte	.LVL37-.Ltext0
 3240 048e FC010000 		.4byte	.LVL38-.Ltext0
 3241 0492 0100     		.2byte	0x1
 3242 0494 52       		.byte	0x52
 3243 0495 FC010000 		.4byte	.LVL38-.Ltext0
 3244 0499 7C030000 		.4byte	.LVL66-.Ltext0
 3245 049d 0300     		.2byte	0x3
ARM GAS  /tmp/ccUp6Xac.s 			page 58


 3246 049f 91       		.byte	0x91
 3247 04a0 F87E     		.sleb128 -136
 3248 04a2 00000000 		.4byte	0
 3249 04a6 00000000 		.4byte	0
 3250              	.LLST21:
 3251 04aa F4010000 		.4byte	.LVL35-.Ltext0
 3252 04ae 7C030000 		.4byte	.LVL66-.Ltext0
 3253 04b2 0300     		.2byte	0x3
 3254 04b4 91       		.byte	0x91
 3255 04b5 E87E     		.sleb128 -152
 3256 04b7 00000000 		.4byte	0
 3257 04bb 00000000 		.4byte	0
 3258              	.LLST22:
 3259 04bf F4010000 		.4byte	.LVL35-.Ltext0
 3260 04c3 7C030000 		.4byte	.LVL66-.Ltext0
 3261 04c7 0300     		.2byte	0x3
 3262 04c9 91       		.byte	0x91
 3263 04ca F07E     		.sleb128 -144
 3264 04cc 00000000 		.4byte	0
 3265 04d0 00000000 		.4byte	0
 3266              	.LLST23:
 3267 04d4 34010000 		.4byte	.LVL20-.Ltext0
 3268 04d8 48010000 		.4byte	.LVL23-.Ltext0
 3269 04dc 0100     		.2byte	0x1
 3270 04de 56       		.byte	0x56
 3271 04df 48010000 		.4byte	.LVL23-.Ltext0
 3272 04e3 60010000 		.4byte	.LVL25-.Ltext0
 3273 04e7 0200     		.2byte	0x2
 3274 04e9 77       		.byte	0x77
 3275 04ea 04       		.sleb128 4
 3276 04eb FE010000 		.4byte	.LVL39-.Ltext0
 3277 04ef 02020000 		.4byte	.LVL41-.Ltext0
 3278 04f3 0100     		.2byte	0x1
 3279 04f5 52       		.byte	0x52
 3280 04f6 02020000 		.4byte	.LVL41-.Ltext0
 3281 04fa 28020000 		.4byte	.LVL44-.Ltext0
 3282 04fe 0200     		.2byte	0x2
 3283 0500 71       		.byte	0x71
 3284 0501 04       		.sleb128 4
 3285 0502 28020000 		.4byte	.LVL44-.Ltext0
 3286 0506 7C030000 		.4byte	.LVL66-.Ltext0
 3287 050a 0300     		.2byte	0x3
 3288 050c 91       		.byte	0x91
 3289 050d 9C7F     		.sleb128 -100
 3290 050f 00000000 		.4byte	0
 3291 0513 00000000 		.4byte	0
 3292              	.LLST24:
 3293 0517 94030000 		.4byte	.LVL68-.Ltext0
 3294 051b A8030000 		.4byte	.LVL71-.Ltext0
 3295 051f 0100     		.2byte	0x1
 3296 0521 52       		.byte	0x52
 3297 0522 A8030000 		.4byte	.LVL71-.Ltext0
 3298 0526 EC030000 		.4byte	.LVL80-.Ltext0
 3299 052a 0200     		.2byte	0x2
 3300 052c 70       		.byte	0x70
 3301 052d 60       		.sleb128 -32
 3302 052e 00000000 		.4byte	0
ARM GAS  /tmp/ccUp6Xac.s 			page 59


 3303 0532 00000000 		.4byte	0
 3304              	.LLST25:
 3305 0536 94030000 		.4byte	.LVL68-.Ltext0
 3306 053a C2030000 		.4byte	.LVL74-.Ltext0
 3307 053e 0100     		.2byte	0x1
 3308 0540 53       		.byte	0x53
 3309 0541 C2030000 		.4byte	.LVL74-.Ltext0
 3310 0545 F0030000 		.4byte	.LVL81-.Ltext0
 3311 0549 0200     		.2byte	0x2
 3312 054b 70       		.byte	0x70
 3313 054c 68       		.sleb128 -24
 3314 054d 00000000 		.4byte	0
 3315 0551 00000000 		.4byte	0
 3316              	.LLST26:
 3317 0555 9C030000 		.4byte	.LVL69-.Ltext0
 3318 0559 C0030000 		.4byte	.LVL73-.Ltext0
 3319 055d 0100     		.2byte	0x1
 3320 055f 5A       		.byte	0x5a
 3321 0560 C0030000 		.4byte	.LVL73-.Ltext0
 3322 0564 F4030000 		.4byte	.LVL82-.Ltext0
 3323 0568 0200     		.2byte	0x2
 3324 056a 70       		.byte	0x70
 3325 056b 70       		.sleb128 -16
 3326 056c 00000000 		.4byte	0
 3327 0570 00000000 		.4byte	0
 3328              	.LLST27:
 3329 0574 94030000 		.4byte	.LVL68-.Ltext0
 3330 0578 CA030000 		.4byte	.LVL75-.Ltext0
 3331 057c 0100     		.2byte	0x1
 3332 057e 58       		.byte	0x58
 3333 057f CA030000 		.4byte	.LVL75-.Ltext0
 3334 0583 FC030000 		.4byte	.LVL83-.Ltext0
 3335 0587 0200     		.2byte	0x2
 3336 0589 70       		.byte	0x70
 3337 058a 64       		.sleb128 -28
 3338 058b 00000000 		.4byte	0
 3339 058f 00000000 		.4byte	0
 3340              	.LLST28:
 3341 0593 94030000 		.4byte	.LVL68-.Ltext0
 3342 0597 B2030000 		.4byte	.LVL72-.Ltext0
 3343 059b 0100     		.2byte	0x1
 3344 059d 51       		.byte	0x51
 3345 059e B2030000 		.4byte	.LVL72-.Ltext0
 3346 05a2 00040000 		.4byte	.LVL84-.Ltext0
 3347 05a6 0200     		.2byte	0x2
 3348 05a8 70       		.byte	0x70
 3349 05a9 6C       		.sleb128 -20
 3350 05aa 00000000 		.4byte	0
 3351 05ae 00000000 		.4byte	0
 3352              	.LLST29:
 3353 05b2 A0030000 		.4byte	.LVL70-.Ltext0
 3354 05b6 DC030000 		.4byte	.LVL78-.Ltext0
 3355 05ba 0100     		.2byte	0x1
 3356 05bc 5E       		.byte	0x5e
 3357 05bd DC030000 		.4byte	.LVL78-.Ltext0
 3358 05c1 08040000 		.4byte	.LVL86-.Ltext0
 3359 05c5 0200     		.2byte	0x2
ARM GAS  /tmp/ccUp6Xac.s 			page 60


 3360 05c7 70       		.byte	0x70
 3361 05c8 7C       		.sleb128 -4
 3362 05c9 00000000 		.4byte	0
 3363 05cd 00000000 		.4byte	0
 3364              	.LLST30:
 3365 05d1 A0030000 		.4byte	.LVL70-.Ltext0
 3366 05d5 A8030000 		.4byte	.LVL71-.Ltext0
 3367 05d9 0C00     		.2byte	0xc
 3368 05db 72       		.byte	0x72
 3369 05dc 00       		.sleb128 0
 3370 05dd 73       		.byte	0x73
 3371 05de 00       		.sleb128 0
 3372 05df 22       		.byte	0x22
 3373 05e0 77       		.byte	0x77
 3374 05e1 00       		.sleb128 0
 3375 05e2 22       		.byte	0x22
 3376 05e3 7A       		.byte	0x7a
 3377 05e4 00       		.sleb128 0
 3378 05e5 22       		.byte	0x22
 3379 05e6 9F       		.byte	0x9f
 3380 05e7 A8030000 		.4byte	.LVL71-.Ltext0
 3381 05eb C0030000 		.4byte	.LVL73-.Ltext0
 3382 05ef 0D00     		.2byte	0xd
 3383 05f1 70       		.byte	0x70
 3384 05f2 60       		.sleb128 -32
 3385 05f3 06       		.byte	0x6
 3386 05f4 73       		.byte	0x73
 3387 05f5 00       		.sleb128 0
 3388 05f6 22       		.byte	0x22
 3389 05f7 77       		.byte	0x77
 3390 05f8 00       		.sleb128 0
 3391 05f9 22       		.byte	0x22
 3392 05fa 7A       		.byte	0x7a
 3393 05fb 00       		.sleb128 0
 3394 05fc 22       		.byte	0x22
 3395 05fd 9F       		.byte	0x9f
 3396 05fe C0030000 		.4byte	.LVL73-.Ltext0
 3397 0602 C2030000 		.4byte	.LVL74-.Ltext0
 3398 0606 0E00     		.2byte	0xe
 3399 0608 70       		.byte	0x70
 3400 0609 60       		.sleb128 -32
 3401 060a 06       		.byte	0x6
 3402 060b 73       		.byte	0x73
 3403 060c 00       		.sleb128 0
 3404 060d 22       		.byte	0x22
 3405 060e 70       		.byte	0x70
 3406 060f 70       		.sleb128 -16
 3407 0610 06       		.byte	0x6
 3408 0611 22       		.byte	0x22
 3409 0612 77       		.byte	0x77
 3410 0613 00       		.sleb128 0
 3411 0614 22       		.byte	0x22
 3412 0615 9F       		.byte	0x9f
 3413 0616 C2030000 		.4byte	.LVL74-.Ltext0
 3414 061a D8030000 		.4byte	.LVL77-.Ltext0
 3415 061e 0F00     		.2byte	0xf
 3416 0620 70       		.byte	0x70
ARM GAS  /tmp/ccUp6Xac.s 			page 61


 3417 0621 60       		.sleb128 -32
 3418 0622 06       		.byte	0x6
 3419 0623 70       		.byte	0x70
 3420 0624 68       		.sleb128 -24
 3421 0625 06       		.byte	0x6
 3422 0626 22       		.byte	0x22
 3423 0627 70       		.byte	0x70
 3424 0628 70       		.sleb128 -16
 3425 0629 06       		.byte	0x6
 3426 062a 22       		.byte	0x22
 3427 062b 77       		.byte	0x77
 3428 062c 00       		.sleb128 0
 3429 062d 22       		.byte	0x22
 3430 062e 9F       		.byte	0x9f
 3431 062f D8030000 		.4byte	.LVL77-.Ltext0
 3432 0633 14040000 		.4byte	.LFE136-.Ltext0
 3433 0637 0100     		.2byte	0x1
 3434 0639 56       		.byte	0x56
 3435 063a 00000000 		.4byte	0
 3436 063e 00000000 		.4byte	0
 3437              	.LLST31:
 3438 0642 A0030000 		.4byte	.LVL70-.Ltext0
 3439 0646 B2030000 		.4byte	.LVL72-.Ltext0
 3440 064a 0C00     		.2byte	0xc
 3441 064c 71       		.byte	0x71
 3442 064d 00       		.sleb128 0
 3443 064e 78       		.byte	0x78
 3444 064f 00       		.sleb128 0
 3445 0650 22       		.byte	0x22
 3446 0651 7C       		.byte	0x7c
 3447 0652 00       		.sleb128 0
 3448 0653 22       		.byte	0x22
 3449 0654 7E       		.byte	0x7e
 3450 0655 00       		.sleb128 0
 3451 0656 22       		.byte	0x22
 3452 0657 9F       		.byte	0x9f
 3453 0658 B2030000 		.4byte	.LVL72-.Ltext0
 3454 065c CA030000 		.4byte	.LVL75-.Ltext0
 3455 0660 0D00     		.2byte	0xd
 3456 0662 78       		.byte	0x78
 3457 0663 00       		.sleb128 0
 3458 0664 7C       		.byte	0x7c
 3459 0665 00       		.sleb128 0
 3460 0666 22       		.byte	0x22
 3461 0667 7E       		.byte	0x7e
 3462 0668 00       		.sleb128 0
 3463 0669 22       		.byte	0x22
 3464 066a 70       		.byte	0x70
 3465 066b 6C       		.sleb128 -20
 3466 066c 06       		.byte	0x6
 3467 066d 22       		.byte	0x22
 3468 066e 9F       		.byte	0x9f
 3469 066f CA030000 		.4byte	.LVL75-.Ltext0
 3470 0673 D6030000 		.4byte	.LVL76-.Ltext0
 3471 0677 0E00     		.2byte	0xe
 3472 0679 70       		.byte	0x70
 3473 067a 64       		.sleb128 -28
ARM GAS  /tmp/ccUp6Xac.s 			page 62


 3474 067b 06       		.byte	0x6
 3475 067c 7C       		.byte	0x7c
 3476 067d 00       		.sleb128 0
 3477 067e 22       		.byte	0x22
 3478 067f 7E       		.byte	0x7e
 3479 0680 00       		.sleb128 0
 3480 0681 22       		.byte	0x22
 3481 0682 70       		.byte	0x70
 3482 0683 6C       		.sleb128 -20
 3483 0684 06       		.byte	0x6
 3484 0685 22       		.byte	0x22
 3485 0686 9F       		.byte	0x9f
 3486 0687 D6030000 		.4byte	.LVL76-.Ltext0
 3487 068b 14040000 		.4byte	.LFE136-.Ltext0
 3488 068f 0100     		.2byte	0x1
 3489 0691 5B       		.byte	0x5b
 3490 0692 00000000 		.4byte	0
 3491 0696 00000000 		.4byte	0
 3492              	.LLST32:
 3493 069a 84030000 		.4byte	.LVL67-.Ltext0
 3494 069e 94030000 		.4byte	.LVL68-.Ltext0
 3495 06a2 0300     		.2byte	0x3
 3496 06a4 70       		.byte	0x70
 3497 06a5 68       		.sleb128 -24
 3498 06a6 9F       		.byte	0x9f
 3499 06a7 94030000 		.4byte	.LVL68-.Ltext0
 3500 06ab 9C030000 		.4byte	.LVL69-.Ltext0
 3501 06af 0300     		.2byte	0x3
 3502 06b1 70       		.byte	0x70
 3503 06b2 78       		.sleb128 -8
 3504 06b3 9F       		.byte	0x9f
 3505 06b4 9C030000 		.4byte	.LVL69-.Ltext0
 3506 06b8 A0030000 		.4byte	.LVL70-.Ltext0
 3507 06bc 0100     		.2byte	0x1
 3508 06be 50       		.byte	0x50
 3509 06bf A0030000 		.4byte	.LVL70-.Ltext0
 3510 06c3 EC030000 		.4byte	.LVL80-.Ltext0
 3511 06c7 0300     		.2byte	0x3
 3512 06c9 70       		.byte	0x70
 3513 06ca 64       		.sleb128 -28
 3514 06cb 9F       		.byte	0x9f
 3515 06cc EC030000 		.4byte	.LVL80-.Ltext0
 3516 06d0 FC030000 		.4byte	.LVL83-.Ltext0
 3517 06d4 0300     		.2byte	0x3
 3518 06d6 70       		.byte	0x70
 3519 06d7 68       		.sleb128 -24
 3520 06d8 9F       		.byte	0x9f
 3521 06d9 FC030000 		.4byte	.LVL83-.Ltext0
 3522 06dd 00040000 		.4byte	.LVL84-.Ltext0
 3523 06e1 0300     		.2byte	0x3
 3524 06e3 70       		.byte	0x70
 3525 06e4 70       		.sleb128 -16
 3526 06e5 9F       		.byte	0x9f
 3527 06e6 00040000 		.4byte	.LVL84-.Ltext0
 3528 06ea 04040000 		.4byte	.LVL85-.Ltext0
 3529 06ee 0300     		.2byte	0x3
 3530 06f0 70       		.byte	0x70
ARM GAS  /tmp/ccUp6Xac.s 			page 63


 3531 06f1 78       		.sleb128 -8
 3532 06f2 9F       		.byte	0x9f
 3533 06f3 04040000 		.4byte	.LVL85-.Ltext0
 3534 06f7 0C040000 		.4byte	.LVL87-.Ltext0
 3535 06fb 0100     		.2byte	0x1
 3536 06fd 50       		.byte	0x50
 3537 06fe 0C040000 		.4byte	.LVL87-.Ltext0
 3538 0702 14040000 		.4byte	.LFE136-.Ltext0
 3539 0706 0300     		.2byte	0x3
 3540 0708 70       		.byte	0x70
 3541 0709 60       		.sleb128 -32
 3542 070a 9F       		.byte	0x9f
 3543 070b 00000000 		.4byte	0
 3544 070f 00000000 		.4byte	0
 3545              	.LLST33:
 3546 0713 16000000 		.4byte	.LVL5-.Ltext0
 3547 0717 18000000 		.4byte	.LVL6-.Ltext0
 3548 071b 0100     		.2byte	0x1
 3549 071d 50       		.byte	0x50
 3550 071e 18000000 		.4byte	.LVL6-.Ltext0
 3551 0722 54000000 		.4byte	.LVL11-.Ltext0
 3552 0726 0100     		.2byte	0x1
 3553 0728 57       		.byte	0x57
 3554 0729 54000000 		.4byte	.LVL11-.Ltext0
 3555 072d F8000000 		.4byte	.LVL16-.Ltext0
 3556 0731 0300     		.2byte	0x3
 3557 0733 78       		.byte	0x78
 3558 0734 78       		.sleb128 -8
 3559 0735 9F       		.byte	0x9f
 3560 0736 F8000000 		.4byte	.LVL16-.Ltext0
 3561 073a 6E010000 		.4byte	.LVL27-.Ltext0
 3562 073e 0100     		.2byte	0x1
 3563 0740 58       		.byte	0x58
 3564 0741 6E010000 		.4byte	.LVL27-.Ltext0
 3565 0745 96010000 		.4byte	.LVL31-.Ltext0
 3566 0749 0300     		.2byte	0x3
 3567 074b 78       		.byte	0x78
 3568 074c 78       		.sleb128 -8
 3569 074d 9F       		.byte	0x9f
 3570 074e 12020000 		.4byte	.LVL43-.Ltext0
 3571 0752 28020000 		.4byte	.LVL44-.Ltext0
 3572 0756 0100     		.2byte	0x1
 3573 0758 57       		.byte	0x57
 3574 0759 28020000 		.4byte	.LVL44-.Ltext0
 3575 075d 1C030000 		.4byte	.LVL53-.Ltext0
 3576 0761 0300     		.2byte	0x3
 3577 0763 91       		.byte	0x91
 3578 0764 DC7E     		.sleb128 -164
 3579 0766 1C030000 		.4byte	.LVL53-.Ltext0
 3580 076a 1E030000 		.4byte	.LVL54-.Ltext0
 3581 076e 0100     		.2byte	0x1
 3582 0770 57       		.byte	0x57
 3583 0771 1E030000 		.4byte	.LVL54-.Ltext0
 3584 0775 4A030000 		.4byte	.LVL60-.Ltext0
 3585 0779 0300     		.2byte	0x3
 3586 077b 91       		.byte	0x91
 3587 077c DC7E     		.sleb128 -164
ARM GAS  /tmp/ccUp6Xac.s 			page 64


 3588 077e 00000000 		.4byte	0
 3589 0782 00000000 		.4byte	0
 3590              	.LLST34:
 3591 0786 18000000 		.4byte	.LVL6-.Ltext0
 3592 078a 54000000 		.4byte	.LVL11-.Ltext0
 3593 078e 0100     		.2byte	0x1
 3594 0790 50       		.byte	0x50
 3595 0791 12020000 		.4byte	.LVL43-.Ltext0
 3596 0795 28020000 		.4byte	.LVL44-.Ltext0
 3597 0799 0100     		.2byte	0x1
 3598 079b 5A       		.byte	0x5a
 3599 079c 28020000 		.4byte	.LVL44-.Ltext0
 3600 07a0 4A030000 		.4byte	.LVL60-.Ltext0
 3601 07a4 0100     		.2byte	0x1
 3602 07a6 5B       		.byte	0x5b
 3603 07a7 00000000 		.4byte	0
 3604 07ab 00000000 		.4byte	0
 3605              	.LLST35:
 3606 07af 20000000 		.4byte	.LVL7-.Ltext0
 3607 07b3 26000000 		.4byte	.LVL9-.Ltext0
 3608 07b7 0600     		.2byte	0x6
 3609 07b9 70       		.byte	0x70
 3610 07ba 00       		.sleb128 0
 3611 07bb 71       		.byte	0x71
 3612 07bc 00       		.sleb128 0
 3613 07bd 22       		.byte	0x22
 3614 07be 9F       		.byte	0x9f
 3615 07bf 26000000 		.4byte	.LVL9-.Ltext0
 3616 07c3 2C000000 		.4byte	.LVL10-.Ltext0
 3617 07c7 0800     		.2byte	0x8
 3618 07c9 70       		.byte	0x70
 3619 07ca 00       		.sleb128 0
 3620 07cb 71       		.byte	0x71
 3621 07cc 00       		.sleb128 0
 3622 07cd 22       		.byte	0x22
 3623 07ce 38       		.byte	0x38
 3624 07cf 1C       		.byte	0x1c
 3625 07d0 9F       		.byte	0x9f
 3626 07d1 2C000000 		.4byte	.LVL10-.Ltext0
 3627 07d5 54000000 		.4byte	.LVL11-.Ltext0
 3628 07d9 0800     		.2byte	0x8
 3629 07db 74       		.byte	0x74
 3630 07dc 00       		.sleb128 0
 3631 07dd 33       		.byte	0x33
 3632 07de 24       		.byte	0x24
 3633 07df 70       		.byte	0x70
 3634 07e0 00       		.sleb128 0
 3635 07e1 22       		.byte	0x22
 3636 07e2 9F       		.byte	0x9f
 3637 07e3 12020000 		.4byte	.LVL43-.Ltext0
 3638 07e7 28020000 		.4byte	.LVL44-.Ltext0
 3639 07eb 0100     		.2byte	0x1
 3640 07ed 5E       		.byte	0x5e
 3641 07ee 28020000 		.4byte	.LVL44-.Ltext0
 3642 07f2 32030000 		.4byte	.LVL57-.Ltext0
 3643 07f6 0300     		.2byte	0x3
 3644 07f8 91       		.byte	0x91
ARM GAS  /tmp/ccUp6Xac.s 			page 65


 3645 07f9 E07E     		.sleb128 -160
 3646 07fb 32030000 		.4byte	.LVL57-.Ltext0
 3647 07ff 34030000 		.4byte	.LVL58-.Ltext0
 3648 0803 0100     		.2byte	0x1
 3649 0805 53       		.byte	0x53
 3650 0806 34030000 		.4byte	.LVL58-.Ltext0
 3651 080a 4A030000 		.4byte	.LVL60-.Ltext0
 3652 080e 0300     		.2byte	0x3
 3653 0810 91       		.byte	0x91
 3654 0811 E07E     		.sleb128 -160
 3655 0813 00000000 		.4byte	0
 3656 0817 00000000 		.4byte	0
 3657              	.LLST36:
 3658 081b 20000000 		.4byte	.LVL7-.Ltext0
 3659 081f 26000000 		.4byte	.LVL9-.Ltext0
 3660 0823 0800     		.2byte	0x8
 3661 0825 71       		.byte	0x71
 3662 0826 00       		.sleb128 0
 3663 0827 31       		.byte	0x31
 3664 0828 24       		.byte	0x24
 3665 0829 70       		.byte	0x70
 3666 082a 00       		.sleb128 0
 3667 082b 22       		.byte	0x22
 3668 082c 9F       		.byte	0x9f
 3669 082d 26000000 		.4byte	.LVL9-.Ltext0
 3670 0831 2C000000 		.4byte	.LVL10-.Ltext0
 3671 0835 0A00     		.2byte	0xa
 3672 0837 71       		.byte	0x71
 3673 0838 00       		.sleb128 0
 3674 0839 31       		.byte	0x31
 3675 083a 24       		.byte	0x24
 3676 083b 70       		.byte	0x70
 3677 083c 00       		.sleb128 0
 3678 083d 22       		.byte	0x22
 3679 083e 40       		.byte	0x40
 3680 083f 1C       		.byte	0x1c
 3681 0840 9F       		.byte	0x9f
 3682 0841 2C000000 		.4byte	.LVL10-.Ltext0
 3683 0845 54000000 		.4byte	.LVL11-.Ltext0
 3684 0849 0800     		.2byte	0x8
 3685 084b 74       		.byte	0x74
 3686 084c 00       		.sleb128 0
 3687 084d 34       		.byte	0x34
 3688 084e 24       		.byte	0x24
 3689 084f 70       		.byte	0x70
 3690 0850 00       		.sleb128 0
 3691 0851 22       		.byte	0x22
 3692 0852 9F       		.byte	0x9f
 3693 0853 12020000 		.4byte	.LVL43-.Ltext0
 3694 0857 28020000 		.4byte	.LVL44-.Ltext0
 3695 085b 0100     		.2byte	0x1
 3696 085d 5C       		.byte	0x5c
 3697 085e 28020000 		.4byte	.LVL44-.Ltext0
 3698 0862 4A030000 		.4byte	.LVL60-.Ltext0
 3699 0866 0100     		.2byte	0x1
 3700 0868 5A       		.byte	0x5a
 3701 0869 00000000 		.4byte	0
ARM GAS  /tmp/ccUp6Xac.s 			page 66


 3702 086d 00000000 		.4byte	0
 3703              	.LLST37:
 3704 0871 94030000 		.4byte	.LVL68-.Ltext0
 3705 0875 A8030000 		.4byte	.LVL71-.Ltext0
 3706 0879 0600     		.2byte	0x6
 3707 087b 52       		.byte	0x52
 3708 087c 93       		.byte	0x93
 3709 087d 04       		.uleb128 0x4
 3710 087e 58       		.byte	0x58
 3711 087f 93       		.byte	0x93
 3712 0880 04       		.uleb128 0x4
 3713 0881 A8030000 		.4byte	.LVL71-.Ltext0
 3714 0885 CA030000 		.4byte	.LVL75-.Ltext0
 3715 0889 0700     		.2byte	0x7
 3716 088b 70       		.byte	0x70
 3717 088c 60       		.sleb128 -32
 3718 088d 93       		.byte	0x93
 3719 088e 04       		.uleb128 0x4
 3720 088f 58       		.byte	0x58
 3721 0890 93       		.byte	0x93
 3722 0891 04       		.uleb128 0x4
 3723 0892 CA030000 		.4byte	.LVL75-.Ltext0
 3724 0896 EC030000 		.4byte	.LVL80-.Ltext0
 3725 089a 0800     		.2byte	0x8
 3726 089c 70       		.byte	0x70
 3727 089d 60       		.sleb128 -32
 3728 089e 93       		.byte	0x93
 3729 089f 04       		.uleb128 0x4
 3730 08a0 70       		.byte	0x70
 3731 08a1 64       		.sleb128 -28
 3732 08a2 93       		.byte	0x93
 3733 08a3 04       		.uleb128 0x4
 3734 08a4 00000000 		.4byte	0
 3735 08a8 00000000 		.4byte	0
 3736              	.LLST38:
 3737 08ac 94030000 		.4byte	.LVL68-.Ltext0
 3738 08b0 B2030000 		.4byte	.LVL72-.Ltext0
 3739 08b4 0600     		.2byte	0x6
 3740 08b6 53       		.byte	0x53
 3741 08b7 93       		.byte	0x93
 3742 08b8 04       		.uleb128 0x4
 3743 08b9 51       		.byte	0x51
 3744 08ba 93       		.byte	0x93
 3745 08bb 04       		.uleb128 0x4
 3746 08bc B2030000 		.4byte	.LVL72-.Ltext0
 3747 08c0 C2030000 		.4byte	.LVL74-.Ltext0
 3748 08c4 0700     		.2byte	0x7
 3749 08c6 53       		.byte	0x53
 3750 08c7 93       		.byte	0x93
 3751 08c8 04       		.uleb128 0x4
 3752 08c9 70       		.byte	0x70
 3753 08ca 6C       		.sleb128 -20
 3754 08cb 93       		.byte	0x93
 3755 08cc 04       		.uleb128 0x4
 3756 08cd C2030000 		.4byte	.LVL74-.Ltext0
 3757 08d1 F0030000 		.4byte	.LVL81-.Ltext0
 3758 08d5 0800     		.2byte	0x8
ARM GAS  /tmp/ccUp6Xac.s 			page 67


 3759 08d7 70       		.byte	0x70
 3760 08d8 68       		.sleb128 -24
 3761 08d9 93       		.byte	0x93
 3762 08da 04       		.uleb128 0x4
 3763 08db 70       		.byte	0x70
 3764 08dc 6C       		.sleb128 -20
 3765 08dd 93       		.byte	0x93
 3766 08de 04       		.uleb128 0x4
 3767 08df 00000000 		.4byte	0
 3768 08e3 00000000 		.4byte	0
 3769              	.LLST39:
 3770 08e7 9C030000 		.4byte	.LVL69-.Ltext0
 3771 08eb C0030000 		.4byte	.LVL73-.Ltext0
 3772 08ef 0600     		.2byte	0x6
 3773 08f1 5A       		.byte	0x5a
 3774 08f2 93       		.byte	0x93
 3775 08f3 04       		.uleb128 0x4
 3776 08f4 5C       		.byte	0x5c
 3777 08f5 93       		.byte	0x93
 3778 08f6 04       		.uleb128 0x4
 3779 08f7 C0030000 		.4byte	.LVL73-.Ltext0
 3780 08fb F4030000 		.4byte	.LVL82-.Ltext0
 3781 08ff 0700     		.2byte	0x7
 3782 0901 70       		.byte	0x70
 3783 0902 70       		.sleb128 -16
 3784 0903 93       		.byte	0x93
 3785 0904 04       		.uleb128 0x4
 3786 0905 5C       		.byte	0x5c
 3787 0906 93       		.byte	0x93
 3788 0907 04       		.uleb128 0x4
 3789 0908 00000000 		.4byte	0
 3790 090c 00000000 		.4byte	0
 3791              	.LLST40:
 3792 0910 A0030000 		.4byte	.LVL70-.Ltext0
 3793 0914 DC030000 		.4byte	.LVL78-.Ltext0
 3794 0918 0600     		.2byte	0x6
 3795 091a 57       		.byte	0x57
 3796 091b 93       		.byte	0x93
 3797 091c 04       		.uleb128 0x4
 3798 091d 5E       		.byte	0x5e
 3799 091e 93       		.byte	0x93
 3800 091f 04       		.uleb128 0x4
 3801 0920 DC030000 		.4byte	.LVL78-.Ltext0
 3802 0924 08040000 		.4byte	.LVL86-.Ltext0
 3803 0928 0700     		.2byte	0x7
 3804 092a 57       		.byte	0x57
 3805 092b 93       		.byte	0x93
 3806 092c 04       		.uleb128 0x4
 3807 092d 70       		.byte	0x70
 3808 092e 7C       		.sleb128 -4
 3809 092f 93       		.byte	0x93
 3810 0930 04       		.uleb128 0x4
 3811 0931 00000000 		.4byte	0
 3812 0935 00000000 		.4byte	0
 3813              	.LLST41:
 3814 0939 20040000 		.4byte	.LVL88-.Ltext0
 3815 093d 38040000 		.4byte	.LVL94-.Ltext0
ARM GAS  /tmp/ccUp6Xac.s 			page 68


 3816 0941 0100     		.2byte	0x1
 3817 0943 50       		.byte	0x50
 3818 0944 38040000 		.4byte	.LVL94-.Ltext0
 3819 0948 56040000 		.4byte	.LVL98-.Ltext0
 3820 094c 0100     		.2byte	0x1
 3821 094e 57       		.byte	0x57
 3822 094f 56040000 		.4byte	.LVL98-.Ltext0
 3823 0953 32080000 		.4byte	.LFE137-.Ltext0
 3824 0957 0200     		.2byte	0x2
 3825 0959 91       		.byte	0x91
 3826 095a 50       		.sleb128 -48
 3827 095b 00000000 		.4byte	0
 3828 095f 00000000 		.4byte	0
 3829              	.LLST42:
 3830 0963 20040000 		.4byte	.LVL88-.Ltext0
 3831 0967 2C040000 		.4byte	.LVL90-.Ltext0
 3832 096b 0100     		.2byte	0x1
 3833 096d 51       		.byte	0x51
 3834 096e 2C040000 		.4byte	.LVL90-.Ltext0
 3835 0972 32080000 		.4byte	.LFE137-.Ltext0
 3836 0976 0300     		.2byte	0x3
 3837 0978 91       		.byte	0x91
 3838 0979 9C7F     		.sleb128 -100
 3839 097b 00000000 		.4byte	0
 3840 097f 00000000 		.4byte	0
 3841              	.LLST43:
 3842 0983 20040000 		.4byte	.LVL88-.Ltext0
 3843 0987 44040000 		.4byte	.LVL96-.Ltext0
 3844 098b 0100     		.2byte	0x1
 3845 098d 52       		.byte	0x52
 3846 098e 44040000 		.4byte	.LVL96-.Ltext0
 3847 0992 70040000 		.4byte	.LVL99-.Ltext0
 3848 0996 0100     		.2byte	0x1
 3849 0998 5A       		.byte	0x5a
 3850 0999 70040000 		.4byte	.LVL99-.Ltext0
 3851 099d 32080000 		.4byte	.LFE137-.Ltext0
 3852 09a1 0300     		.2byte	0x3
 3853 09a3 91       		.byte	0x91
 3854 09a4 B87F     		.sleb128 -72
 3855 09a6 00000000 		.4byte	0
 3856 09aa 00000000 		.4byte	0
 3857              	.LLST44:
 3858 09ae 20040000 		.4byte	.LVL88-.Ltext0
 3859 09b2 40040000 		.4byte	.LVL95-.Ltext0
 3860 09b6 0100     		.2byte	0x1
 3861 09b8 53       		.byte	0x53
 3862 09b9 40040000 		.4byte	.LVL95-.Ltext0
 3863 09bd 70040000 		.4byte	.LVL99-.Ltext0
 3864 09c1 0100     		.2byte	0x1
 3865 09c3 56       		.byte	0x56
 3866 09c4 70040000 		.4byte	.LVL99-.Ltext0
 3867 09c8 AE050000 		.4byte	.LVL117-.Ltext0
 3868 09cc 0300     		.2byte	0x3
 3869 09ce 91       		.byte	0x91
 3870 09cf 907F     		.sleb128 -112
 3871 09d1 AE050000 		.4byte	.LVL117-.Ltext0
 3872 09d5 B0050000 		.4byte	.LVL118-.Ltext0
ARM GAS  /tmp/ccUp6Xac.s 			page 69


 3873 09d9 0100     		.2byte	0x1
 3874 09db 53       		.byte	0x53
 3875 09dc B0050000 		.4byte	.LVL118-.Ltext0
 3876 09e0 8E070000 		.4byte	.LVL150-.Ltext0
 3877 09e4 0300     		.2byte	0x3
 3878 09e6 91       		.byte	0x91
 3879 09e7 B47F     		.sleb128 -76
 3880 09e9 8E070000 		.4byte	.LVL150-.Ltext0
 3881 09ed 92070000 		.4byte	.LVL151-.Ltext0
 3882 09f1 0100     		.2byte	0x1
 3883 09f3 52       		.byte	0x52
 3884 09f4 92070000 		.4byte	.LVL151-.Ltext0
 3885 09f8 32080000 		.4byte	.LFE137-.Ltext0
 3886 09fc 0300     		.2byte	0x3
 3887 09fe 91       		.byte	0x91
 3888 09ff B47F     		.sleb128 -76
 3889 0a01 00000000 		.4byte	0
 3890 0a05 00000000 		.4byte	0
 3891              	.LLST45:
 3892 0a09 2A040000 		.4byte	.LVL89-.Ltext0
 3893 0a0d 2C040000 		.4byte	.LVL90-.Ltext0
 3894 0a11 0100     		.2byte	0x1
 3895 0a13 51       		.byte	0x51
 3896 0a14 2C040000 		.4byte	.LVL90-.Ltext0
 3897 0a18 BC050000 		.4byte	.LVL119-.Ltext0
 3898 0a1c 0300     		.2byte	0x3
 3899 0a1e 91       		.byte	0x91
 3900 0a1f 9C7F     		.sleb128 -100
 3901 0a21 BC050000 		.4byte	.LVL119-.Ltext0
 3902 0a25 96070000 		.4byte	.LVL152-.Ltext0
 3903 0a29 0300     		.2byte	0x3
 3904 0a2b 91       		.byte	0x91
 3905 0a2c 987F     		.sleb128 -104
 3906 0a2e 00000000 		.4byte	0
 3907 0a32 00000000 		.4byte	0
 3908              	.LLST46:
 3909 0a36 2A040000 		.4byte	.LVL89-.Ltext0
 3910 0a3a 2C040000 		.4byte	.LVL90-.Ltext0
 3911 0a3e 0100     		.2byte	0x1
 3912 0a40 51       		.byte	0x51
 3913 0a41 2C040000 		.4byte	.LVL90-.Ltext0
 3914 0a45 30040000 		.4byte	.LVL91-.Ltext0
 3915 0a49 0300     		.2byte	0x3
 3916 0a4b 91       		.byte	0x91
 3917 0a4c 9C7F     		.sleb128 -100
 3918 0a4e 30040000 		.4byte	.LVL91-.Ltext0
 3919 0a52 32040000 		.4byte	.LVL92-.Ltext0
 3920 0a56 0100     		.2byte	0x1
 3921 0a58 51       		.byte	0x51
 3922 0a59 32040000 		.4byte	.LVL92-.Ltext0
 3923 0a5d 70040000 		.4byte	.LVL99-.Ltext0
 3924 0a61 0100     		.2byte	0x1
 3925 0a63 54       		.byte	0x54
 3926 0a64 70040000 		.4byte	.LVL99-.Ltext0
 3927 0a68 BC050000 		.4byte	.LVL119-.Ltext0
 3928 0a6c 0200     		.2byte	0x2
 3929 0a6e 91       		.byte	0x91
ARM GAS  /tmp/ccUp6Xac.s 			page 70


 3930 0a6f 54       		.sleb128 -44
 3931 0a70 BC050000 		.4byte	.LVL119-.Ltext0
 3932 0a74 C4050000 		.4byte	.LVL120-.Ltext0
 3933 0a78 0300     		.2byte	0x3
 3934 0a7a 91       		.byte	0x91
 3935 0a7b 987F     		.sleb128 -104
 3936 0a7d C4050000 		.4byte	.LVL120-.Ltext0
 3937 0a81 DC050000 		.4byte	.LVL121-.Ltext0
 3938 0a85 0100     		.2byte	0x1
 3939 0a87 52       		.byte	0x52
 3940 0a88 DC050000 		.4byte	.LVL121-.Ltext0
 3941 0a8c F0050000 		.4byte	.LVL122-.Ltext0
 3942 0a90 0100     		.2byte	0x1
 3943 0a92 51       		.byte	0x51
 3944 0a93 F0050000 		.4byte	.LVL122-.Ltext0
 3945 0a97 9A070000 		.4byte	.LVL153-.Ltext0
 3946 0a9b 0200     		.2byte	0x2
 3947 0a9d 91       		.byte	0x91
 3948 0a9e 4C       		.sleb128 -52
 3949 0a9f 00000000 		.4byte	0
 3950 0aa3 00000000 		.4byte	0
 3951              	.LLST47:
 3952 0aa7 30040000 		.4byte	.LVL91-.Ltext0
 3953 0aab 70040000 		.4byte	.LVL99-.Ltext0
 3954 0aaf 0200     		.2byte	0x2
 3955 0ab1 30       		.byte	0x30
 3956 0ab2 9F       		.byte	0x9f
 3957 0ab3 C4050000 		.4byte	.LVL120-.Ltext0
 3958 0ab7 F0050000 		.4byte	.LVL122-.Ltext0
 3959 0abb 0200     		.2byte	0x2
 3960 0abd 30       		.byte	0x30
 3961 0abe 9F       		.byte	0x9f
 3962 0abf F0050000 		.4byte	.LVL122-.Ltext0
 3963 0ac3 26060000 		.4byte	.LVL128-.Ltext0
 3964 0ac7 0300     		.2byte	0x3
 3965 0ac9 91       		.byte	0x91
 3966 0aca B07F     		.sleb128 -80
 3967 0acc 26060000 		.4byte	.LVL128-.Ltext0
 3968 0ad0 2A060000 		.4byte	.LVL130-.Ltext0
 3969 0ad4 0100     		.2byte	0x1
 3970 0ad6 53       		.byte	0x53
 3971 0ad7 2A060000 		.4byte	.LVL130-.Ltext0
 3972 0adb 9A070000 		.4byte	.LVL153-.Ltext0
 3973 0adf 0300     		.2byte	0x3
 3974 0ae1 91       		.byte	0x91
 3975 0ae2 B07F     		.sleb128 -80
 3976 0ae4 00000000 		.4byte	0
 3977 0ae8 00000000 		.4byte	0
 3978              	.LLST48:
 3979 0aec F0050000 		.4byte	.LVL122-.Ltext0
 3980 0af0 26060000 		.4byte	.LVL128-.Ltext0
 3981 0af4 0700     		.2byte	0x7
 3982 0af6 91       		.byte	0x91
 3983 0af7 B07F     		.sleb128 -80
 3984 0af9 06       		.byte	0x6
 3985 0afa 31       		.byte	0x31
 3986 0afb 24       		.byte	0x24
ARM GAS  /tmp/ccUp6Xac.s 			page 71


 3987 0afc 9F       		.byte	0x9f
 3988 0afd 26060000 		.4byte	.LVL128-.Ltext0
 3989 0b01 4E060000 		.4byte	.LVL133-.Ltext0
 3990 0b05 0500     		.2byte	0x5
 3991 0b07 70       		.byte	0x70
 3992 0b08 00       		.sleb128 0
 3993 0b09 31       		.byte	0x31
 3994 0b0a 24       		.byte	0x24
 3995 0b0b 9F       		.byte	0x9f
 3996 0b0c 00000000 		.4byte	0
 3997 0b10 00000000 		.4byte	0
 3998              	.LLST49:
 3999 0b14 F0050000 		.4byte	.LVL122-.Ltext0
 4000 0b18 26060000 		.4byte	.LVL128-.Ltext0
 4001 0b1c 0700     		.2byte	0x7
 4002 0b1e 91       		.byte	0x91
 4003 0b1f B07F     		.sleb128 -80
 4004 0b21 06       		.byte	0x6
 4005 0b22 33       		.byte	0x33
 4006 0b23 1E       		.byte	0x1e
 4007 0b24 9F       		.byte	0x9f
 4008 0b25 26060000 		.4byte	.LVL128-.Ltext0
 4009 0b29 4E060000 		.4byte	.LVL133-.Ltext0
 4010 0b2d 0500     		.2byte	0x5
 4011 0b2f 70       		.byte	0x70
 4012 0b30 00       		.sleb128 0
 4013 0b31 33       		.byte	0x33
 4014 0b32 1E       		.byte	0x1e
 4015 0b33 9F       		.byte	0x9f
 4016 0b34 00000000 		.4byte	0
 4017 0b38 00000000 		.4byte	0
 4018              	.LLST50:
 4019 0b3c 38060000 		.4byte	.LVL131-.Ltext0
 4020 0b40 4E060000 		.4byte	.LVL133-.Ltext0
 4021 0b44 0300     		.2byte	0x3
 4022 0b46 91       		.byte	0x91
 4023 0b47 A47F     		.sleb128 -92
 4024 0b49 4E060000 		.4byte	.LVL133-.Ltext0
 4025 0b4d 5E070000 		.4byte	.LVL143-.Ltext0
 4026 0b51 0A00     		.2byte	0xa
 4027 0b53 91       		.byte	0x91
 4028 0b54 887F     		.sleb128 -120
 4029 0b56 06       		.byte	0x6
 4030 0b57 91       		.byte	0x91
 4031 0b58 987F     		.sleb128 -104
 4032 0b5a 06       		.byte	0x6
 4033 0b5b 1C       		.byte	0x1c
 4034 0b5c 9F       		.byte	0x9f
 4035 0b5d 5E070000 		.4byte	.LVL143-.Ltext0
 4036 0b61 64070000 		.4byte	.LVL146-.Ltext0
 4037 0b65 0800     		.2byte	0x8
 4038 0b67 76       		.byte	0x76
 4039 0b68 00       		.sleb128 0
 4040 0b69 91       		.byte	0x91
 4041 0b6a 987F     		.sleb128 -104
 4042 0b6c 06       		.byte	0x6
 4043 0b6d 1C       		.byte	0x1c
ARM GAS  /tmp/ccUp6Xac.s 			page 72


 4044 0b6e 9F       		.byte	0x9f
 4045 0b6f 00000000 		.4byte	0
 4046 0b73 00000000 		.4byte	0
 4047              	.LLST51:
 4048 0b77 30040000 		.4byte	.LVL91-.Ltext0
 4049 0b7b 32040000 		.4byte	.LVL92-.Ltext0
 4050 0b7f 0100     		.2byte	0x1
 4051 0b81 51       		.byte	0x51
 4052 0b82 32040000 		.4byte	.LVL92-.Ltext0
 4053 0b86 70040000 		.4byte	.LVL99-.Ltext0
 4054 0b8a 0100     		.2byte	0x1
 4055 0b8c 54       		.byte	0x54
 4056 0b8d 70040000 		.4byte	.LVL99-.Ltext0
 4057 0b91 86050000 		.4byte	.LVL113-.Ltext0
 4058 0b95 0300     		.2byte	0x3
 4059 0b97 91       		.byte	0x91
 4060 0b98 EC7E     		.sleb128 -148
 4061 0b9a 86050000 		.4byte	.LVL113-.Ltext0
 4062 0b9e 90050000 		.4byte	.LVL114-.Ltext0
 4063 0ba2 0700     		.2byte	0x7
 4064 0ba4 91       		.byte	0x91
 4065 0ba5 EC7E     		.sleb128 -148
 4066 0ba7 06       		.byte	0x6
 4067 0ba8 31       		.byte	0x31
 4068 0ba9 1C       		.byte	0x1c
 4069 0baa 9F       		.byte	0x9f
 4070 0bab 90050000 		.4byte	.LVL114-.Ltext0
 4071 0baf AA050000 		.4byte	.LVL116-.Ltext0
 4072 0bb3 0100     		.2byte	0x1
 4073 0bb5 53       		.byte	0x53
 4074 0bb6 AA050000 		.4byte	.LVL116-.Ltext0
 4075 0bba BC050000 		.4byte	.LVL119-.Ltext0
 4076 0bbe 0300     		.2byte	0x3
 4077 0bc0 91       		.byte	0x91
 4078 0bc1 EC7E     		.sleb128 -148
 4079 0bc3 C4050000 		.4byte	.LVL120-.Ltext0
 4080 0bc7 F0050000 		.4byte	.LVL122-.Ltext0
 4081 0bcb 0200     		.2byte	0x2
 4082 0bcd 30       		.byte	0x30
 4083 0bce 9F       		.byte	0x9f
 4084 0bcf F0050000 		.4byte	.LVL122-.Ltext0
 4085 0bd3 80070000 		.4byte	.LVL148-.Ltext0
 4086 0bd7 0300     		.2byte	0x3
 4087 0bd9 91       		.byte	0x91
 4088 0bda A47F     		.sleb128 -92
 4089 0bdc 80070000 		.4byte	.LVL148-.Ltext0
 4090 0be0 86070000 		.4byte	.LVL149-.Ltext0
 4091 0be4 0100     		.2byte	0x1
 4092 0be6 53       		.byte	0x53
 4093 0be7 86070000 		.4byte	.LVL149-.Ltext0
 4094 0beb 9A070000 		.4byte	.LVL153-.Ltext0
 4095 0bef 0300     		.2byte	0x3
 4096 0bf1 91       		.byte	0x91
 4097 0bf2 A47F     		.sleb128 -92
 4098 0bf4 A2070000 		.4byte	.LVL154-.Ltext0
 4099 0bf8 06080000 		.4byte	.LVL165-.Ltext0
 4100 0bfc 0100     		.2byte	0x1
ARM GAS  /tmp/ccUp6Xac.s 			page 73


 4101 0bfe 58       		.byte	0x58
 4102 0bff 06080000 		.4byte	.LVL165-.Ltext0
 4103 0c03 22080000 		.4byte	.LVL171-.Ltext0
 4104 0c07 0300     		.2byte	0x3
 4105 0c09 78       		.byte	0x78
 4106 0c0a 01       		.sleb128 1
 4107 0c0b 9F       		.byte	0x9f
 4108 0c0c 00000000 		.4byte	0
 4109 0c10 00000000 		.4byte	0
 4110              	.LLST52:
 4111 0c14 AE050000 		.4byte	.LVL117-.Ltext0
 4112 0c18 BC050000 		.4byte	.LVL119-.Ltext0
 4113 0c1c 0200     		.2byte	0x2
 4114 0c1e 91       		.byte	0x91
 4115 0c1f 54       		.sleb128 -44
 4116 0c20 BC050000 		.4byte	.LVL119-.Ltext0
 4117 0c24 8E070000 		.4byte	.LVL150-.Ltext0
 4118 0c28 0200     		.2byte	0x2
 4119 0c2a 91       		.byte	0x91
 4120 0c2b 48       		.sleb128 -56
 4121 0c2c 8E070000 		.4byte	.LVL150-.Ltext0
 4122 0c30 A2070000 		.4byte	.LVL154-.Ltext0
 4123 0c34 0100     		.2byte	0x1
 4124 0c36 53       		.byte	0x53
 4125 0c37 00000000 		.4byte	0
 4126 0c3b 00000000 		.4byte	0
 4127              	.LLST53:
 4128 0c3f 16050000 		.4byte	.LVL104-.Ltext0
 4129 0c43 54050000 		.4byte	.LVL108-.Ltext0
 4130 0c47 0100     		.2byte	0x1
 4131 0c49 52       		.byte	0x52
 4132 0c4a A0060000 		.4byte	.LVL136-.Ltext0
 4133 0c4e AE060000 		.4byte	.LVL137-.Ltext0
 4134 0c52 0100     		.2byte	0x1
 4135 0c54 51       		.byte	0x51
 4136 0c55 00000000 		.4byte	0
 4137 0c59 00000000 		.4byte	0
 4138              	.LLST54:
 4139 0c5d 16050000 		.4byte	.LVL104-.Ltext0
 4140 0c61 26050000 		.4byte	.LVL106-.Ltext0
 4141 0c65 0100     		.2byte	0x1
 4142 0c67 51       		.byte	0x51
 4143 0c68 26050000 		.4byte	.LVL106-.Ltext0
 4144 0c6c BC050000 		.4byte	.LVL119-.Ltext0
 4145 0c70 0300     		.2byte	0x3
 4146 0c72 91       		.byte	0x91
 4147 0c73 807F     		.sleb128 -128
 4148 0c75 AE060000 		.4byte	.LVL137-.Ltext0
 4149 0c79 C4060000 		.4byte	.LVL140-.Ltext0
 4150 0c7d 0100     		.2byte	0x1
 4151 0c7f 56       		.byte	0x56
 4152 0c80 00000000 		.4byte	0
 4153 0c84 00000000 		.4byte	0
 4154              	.LLST55:
 4155 0c88 8C040000 		.4byte	.LVL100-.Ltext0
 4156 0c8c 04050000 		.4byte	.LVL102-.Ltext0
 4157 0c90 0100     		.2byte	0x1
ARM GAS  /tmp/ccUp6Xac.s 			page 74


 4158 0c92 55       		.byte	0x55
 4159 0c93 04050000 		.4byte	.LVL102-.Ltext0
 4160 0c97 06050000 		.4byte	.LVL103-.Ltext0
 4161 0c9b 0100     		.2byte	0x1
 4162 0c9d 57       		.byte	0x57
 4163 0c9e 20050000 		.4byte	.LVL105-.Ltext0
 4164 0ca2 76050000 		.4byte	.LVL111-.Ltext0
 4165 0ca6 0100     		.2byte	0x1
 4166 0ca8 55       		.byte	0x55
 4167 0ca9 76050000 		.4byte	.LVL111-.Ltext0
 4168 0cad BC050000 		.4byte	.LVL119-.Ltext0
 4169 0cb1 0100     		.2byte	0x1
 4170 0cb3 57       		.byte	0x57
 4171 0cb4 66060000 		.4byte	.LVL134-.Ltext0
 4172 0cb8 AE060000 		.4byte	.LVL137-.Ltext0
 4173 0cbc 0100     		.2byte	0x1
 4174 0cbe 50       		.byte	0x50
 4175 0cbf AE060000 		.4byte	.LVL137-.Ltext0
 4176 0cc3 12070000 		.4byte	.LVL141-.Ltext0
 4177 0cc7 0100     		.2byte	0x1
 4178 0cc9 51       		.byte	0x51
 4179 0cca 00000000 		.4byte	0
 4180 0cce 00000000 		.4byte	0
 4181              	.LLST56:
 4182 0cd2 FE040000 		.4byte	.LVL101-.Ltext0
 4183 0cd6 54050000 		.4byte	.LVL108-.Ltext0
 4184 0cda 0100     		.2byte	0x1
 4185 0cdc 5A       		.byte	0x5a
 4186 0cdd 54050000 		.4byte	.LVL108-.Ltext0
 4187 0ce1 70050000 		.4byte	.LVL110-.Ltext0
 4188 0ce5 0100     		.2byte	0x1
 4189 0ce7 52       		.byte	0x52
 4190 0ce8 8C060000 		.4byte	.LVL135-.Ltext0
 4191 0cec 60070000 		.4byte	.LVL144-.Ltext0
 4192 0cf0 0100     		.2byte	0x1
 4193 0cf2 59       		.byte	0x59
 4194 0cf3 00000000 		.4byte	0
 4195 0cf7 00000000 		.4byte	0
 4196              	.LLST57:
 4197 0cfb FE040000 		.4byte	.LVL101-.Ltext0
 4198 0cff 06050000 		.4byte	.LVL103-.Ltext0
 4199 0d03 0A00     		.2byte	0xa
 4200 0d05 91       		.byte	0x91
 4201 0d06 F07E     		.sleb128 -144
 4202 0d08 06       		.byte	0x6
 4203 0d09 91       		.byte	0x91
 4204 0d0a F87E     		.sleb128 -136
 4205 0d0c 06       		.byte	0x6
 4206 0d0d 22       		.byte	0x22
 4207 0d0e 9F       		.byte	0x9f
 4208 0d0f 8C060000 		.4byte	.LVL135-.Ltext0
 4209 0d13 BA060000 		.4byte	.LVL138-.Ltext0
 4210 0d17 0100     		.2byte	0x1
 4211 0d19 58       		.byte	0x58
 4212 0d1a 00000000 		.4byte	0
 4213 0d1e 00000000 		.4byte	0
 4214              	.LLST58:
ARM GAS  /tmp/ccUp6Xac.s 			page 75


 4215 0d22 06050000 		.4byte	.LVL103-.Ltext0
 4216 0d26 52050000 		.4byte	.LVL107-.Ltext0
 4217 0d2a 0100     		.2byte	0x1
 4218 0d2c 53       		.byte	0x53
 4219 0d2d 54050000 		.4byte	.LVL108-.Ltext0
 4220 0d31 6A050000 		.4byte	.LVL109-.Ltext0
 4221 0d35 0100     		.2byte	0x1
 4222 0d37 53       		.byte	0x53
 4223 0d38 A0060000 		.4byte	.LVL136-.Ltext0
 4224 0d3c BC060000 		.4byte	.LVL139-.Ltext0
 4225 0d40 0100     		.2byte	0x1
 4226 0d42 54       		.byte	0x54
 4227 0d43 00000000 		.4byte	0
 4228 0d47 00000000 		.4byte	0
 4229              	.LLST59:
 4230 0d4b 1A060000 		.4byte	.LVL123-.Ltext0
 4231 0d4f 1C060000 		.4byte	.LVL124-.Ltext0
 4232 0d53 0100     		.2byte	0x1
 4233 0d55 52       		.byte	0x52
 4234 0d56 1C060000 		.4byte	.LVL124-.Ltext0
 4235 0d5a 9A070000 		.4byte	.LVL153-.Ltext0
 4236 0d5e 0300     		.2byte	0x3
 4237 0d60 91       		.byte	0x91
 4238 0d61 EC7E     		.sleb128 -148
 4239 0d63 00000000 		.4byte	0
 4240 0d67 00000000 		.4byte	0
 4241              	.LLST60:
 4242 0d6b 1A060000 		.4byte	.LVL123-.Ltext0
 4243 0d6f 26060000 		.4byte	.LVL128-.Ltext0
 4244 0d73 0900     		.2byte	0x9
 4245 0d75 91       		.byte	0x91
 4246 0d76 B07F     		.sleb128 -80
 4247 0d78 06       		.byte	0x6
 4248 0d79 34       		.byte	0x34
 4249 0d7a 24       		.byte	0x24
 4250 0d7b 74       		.byte	0x74
 4251 0d7c 00       		.sleb128 0
 4252 0d7d 22       		.byte	0x22
 4253 0d7e 26060000 		.4byte	.LVL128-.Ltext0
 4254 0d82 4E060000 		.4byte	.LVL133-.Ltext0
 4255 0d86 0700     		.2byte	0x7
 4256 0d88 70       		.byte	0x70
 4257 0d89 00       		.sleb128 0
 4258 0d8a 34       		.byte	0x34
 4259 0d8b 24       		.byte	0x24
 4260 0d8c 74       		.byte	0x74
 4261 0d8d 00       		.sleb128 0
 4262 0d8e 22       		.byte	0x22
 4263 0d8f 4E060000 		.4byte	.LVL133-.Ltext0
 4264 0d93 9A070000 		.4byte	.LVL153-.Ltext0
 4265 0d97 0300     		.2byte	0x3
 4266 0d99 91       		.byte	0x91
 4267 0d9a A07F     		.sleb128 -96
 4268 0d9c 00000000 		.4byte	0
 4269 0da0 00000000 		.4byte	0
 4270              	.LLST61:
 4271 0da4 54050000 		.4byte	.LVL108-.Ltext0
ARM GAS  /tmp/ccUp6Xac.s 			page 76


 4272 0da8 78050000 		.4byte	.LVL112-.Ltext0
 4273 0dac 0100     		.2byte	0x1
 4274 0dae 51       		.byte	0x51
 4275 0daf 78050000 		.4byte	.LVL112-.Ltext0
 4276 0db3 86050000 		.4byte	.LVL113-.Ltext0
 4277 0db7 0200     		.2byte	0x2
 4278 0db9 78       		.byte	0x78
 4279 0dba 00       		.sleb128 0
 4280 0dbb 1E060000 		.4byte	.LVL125-.Ltext0
 4281 0dbf 22060000 		.4byte	.LVL126-.Ltext0
 4282 0dc3 0100     		.2byte	0x1
 4283 0dc5 52       		.byte	0x52
 4284 0dc6 22060000 		.4byte	.LVL126-.Ltext0
 4285 0dca 9A070000 		.4byte	.LVL153-.Ltext0
 4286 0dce 0300     		.2byte	0x3
 4287 0dd0 91       		.byte	0x91
 4288 0dd1 F87E     		.sleb128 -136
 4289 0dd3 00000000 		.4byte	0
 4290 0dd7 00000000 		.4byte	0
 4291              	.LLST62:
 4292 0ddb 1A060000 		.4byte	.LVL123-.Ltext0
 4293 0ddf 9A070000 		.4byte	.LVL153-.Ltext0
 4294 0de3 0300     		.2byte	0x3
 4295 0de5 91       		.byte	0x91
 4296 0de6 807F     		.sleb128 -128
 4297 0de8 00000000 		.4byte	0
 4298 0dec 00000000 		.4byte	0
 4299              	.LLST63:
 4300 0df0 1A060000 		.4byte	.LVL123-.Ltext0
 4301 0df4 9A070000 		.4byte	.LVL153-.Ltext0
 4302 0df8 0300     		.2byte	0x3
 4303 0dfa 91       		.byte	0x91
 4304 0dfb F07E     		.sleb128 -144
 4305 0dfd 00000000 		.4byte	0
 4306 0e01 00000000 		.4byte	0
 4307              	.LLST64:
 4308 0e05 54050000 		.4byte	.LVL108-.Ltext0
 4309 0e09 86050000 		.4byte	.LVL113-.Ltext0
 4310 0e0d 0200     		.2byte	0x2
 4311 0e0f 78       		.byte	0x78
 4312 0e10 04       		.sleb128 4
 4313 0e11 24060000 		.4byte	.LVL127-.Ltext0
 4314 0e15 28060000 		.4byte	.LVL129-.Ltext0
 4315 0e19 0100     		.2byte	0x1
 4316 0e1b 52       		.byte	0x52
 4317 0e1c 28060000 		.4byte	.LVL129-.Ltext0
 4318 0e20 9A070000 		.4byte	.LVL153-.Ltext0
 4319 0e24 0300     		.2byte	0x3
 4320 0e26 91       		.byte	0x91
 4321 0e27 847F     		.sleb128 -124
 4322 0e29 00000000 		.4byte	0
 4323 0e2d 00000000 		.4byte	0
 4324              	.LLST65:
 4325 0e31 B2070000 		.4byte	.LVL155-.Ltext0
 4326 0e35 C6070000 		.4byte	.LVL158-.Ltext0
 4327 0e39 0100     		.2byte	0x1
 4328 0e3b 52       		.byte	0x52
ARM GAS  /tmp/ccUp6Xac.s 			page 77


 4329 0e3c C6070000 		.4byte	.LVL158-.Ltext0
 4330 0e40 0A080000 		.4byte	.LVL166-.Ltext0
 4331 0e44 0200     		.2byte	0x2
 4332 0e46 70       		.byte	0x70
 4333 0e47 60       		.sleb128 -32
 4334 0e48 00000000 		.4byte	0
 4335 0e4c 00000000 		.4byte	0
 4336              	.LLST66:
 4337 0e50 B2070000 		.4byte	.LVL155-.Ltext0
 4338 0e54 E2070000 		.4byte	.LVL161-.Ltext0
 4339 0e58 0100     		.2byte	0x1
 4340 0e5a 51       		.byte	0x51
 4341 0e5b E2070000 		.4byte	.LVL161-.Ltext0
 4342 0e5f 0E080000 		.4byte	.LVL167-.Ltext0
 4343 0e63 0200     		.2byte	0x2
 4344 0e65 70       		.byte	0x70
 4345 0e66 68       		.sleb128 -24
 4346 0e67 00000000 		.4byte	0
 4347 0e6b 00000000 		.4byte	0
 4348              	.LLST67:
 4349 0e6f BA070000 		.4byte	.LVL156-.Ltext0
 4350 0e73 DA070000 		.4byte	.LVL160-.Ltext0
 4351 0e77 0100     		.2byte	0x1
 4352 0e79 5A       		.byte	0x5a
 4353 0e7a DA070000 		.4byte	.LVL160-.Ltext0
 4354 0e7e 12080000 		.4byte	.LVL168-.Ltext0
 4355 0e82 0200     		.2byte	0x2
 4356 0e84 70       		.byte	0x70
 4357 0e85 70       		.sleb128 -16
 4358 0e86 00000000 		.4byte	0
 4359 0e8a 00000000 		.4byte	0
 4360              	.LLST68:
 4361 0e8e B2070000 		.4byte	.LVL155-.Ltext0
 4362 0e92 D6070000 		.4byte	.LVL159-.Ltext0
 4363 0e96 0100     		.2byte	0x1
 4364 0e98 53       		.byte	0x53
 4365 0e99 D6070000 		.4byte	.LVL159-.Ltext0
 4366 0e9d 1E080000 		.4byte	.LVL170-.Ltext0
 4367 0ea1 0200     		.2byte	0x2
 4368 0ea3 70       		.byte	0x70
 4369 0ea4 6C       		.sleb128 -20
 4370 0ea5 00000000 		.4byte	0
 4371 0ea9 00000000 		.4byte	0
 4372              	.LLST69:
 4373 0ead BE070000 		.4byte	.LVL157-.Ltext0
 4374 0eb1 FC070000 		.4byte	.LVL164-.Ltext0
 4375 0eb5 0100     		.2byte	0x1
 4376 0eb7 5E       		.byte	0x5e
 4377 0eb8 FC070000 		.4byte	.LVL164-.Ltext0
 4378 0ebc 26080000 		.4byte	.LVL172-.Ltext0
 4379 0ec0 0200     		.2byte	0x2
 4380 0ec2 70       		.byte	0x70
 4381 0ec3 7C       		.sleb128 -4
 4382 0ec4 00000000 		.4byte	0
 4383 0ec8 00000000 		.4byte	0
 4384              	.LLST70:
 4385 0ecc BE070000 		.4byte	.LVL157-.Ltext0
ARM GAS  /tmp/ccUp6Xac.s 			page 78


 4386 0ed0 C6070000 		.4byte	.LVL158-.Ltext0
 4387 0ed4 0C00     		.2byte	0xc
 4388 0ed6 71       		.byte	0x71
 4389 0ed7 00       		.sleb128 0
 4390 0ed8 72       		.byte	0x72
 4391 0ed9 00       		.sleb128 0
 4392 0eda 22       		.byte	0x22
 4393 0edb 74       		.byte	0x74
 4394 0edc 00       		.sleb128 0
 4395 0edd 22       		.byte	0x22
 4396 0ede 7A       		.byte	0x7a
 4397 0edf 00       		.sleb128 0
 4398 0ee0 22       		.byte	0x22
 4399 0ee1 9F       		.byte	0x9f
 4400 0ee2 C6070000 		.4byte	.LVL158-.Ltext0
 4401 0ee6 DA070000 		.4byte	.LVL160-.Ltext0
 4402 0eea 0D00     		.2byte	0xd
 4403 0eec 70       		.byte	0x70
 4404 0eed 60       		.sleb128 -32
 4405 0eee 06       		.byte	0x6
 4406 0eef 71       		.byte	0x71
 4407 0ef0 00       		.sleb128 0
 4408 0ef1 22       		.byte	0x22
 4409 0ef2 74       		.byte	0x74
 4410 0ef3 00       		.sleb128 0
 4411 0ef4 22       		.byte	0x22
 4412 0ef5 7A       		.byte	0x7a
 4413 0ef6 00       		.sleb128 0
 4414 0ef7 22       		.byte	0x22
 4415 0ef8 9F       		.byte	0x9f
 4416 0ef9 DA070000 		.4byte	.LVL160-.Ltext0
 4417 0efd E2070000 		.4byte	.LVL161-.Ltext0
 4418 0f01 0E00     		.2byte	0xe
 4419 0f03 70       		.byte	0x70
 4420 0f04 60       		.sleb128 -32
 4421 0f05 06       		.byte	0x6
 4422 0f06 71       		.byte	0x71
 4423 0f07 00       		.sleb128 0
 4424 0f08 22       		.byte	0x22
 4425 0f09 70       		.byte	0x70
 4426 0f0a 70       		.sleb128 -16
 4427 0f0b 06       		.byte	0x6
 4428 0f0c 22       		.byte	0x22
 4429 0f0d 74       		.byte	0x74
 4430 0f0e 00       		.sleb128 0
 4431 0f0f 22       		.byte	0x22
 4432 0f10 9F       		.byte	0x9f
 4433 0f11 E2070000 		.4byte	.LVL161-.Ltext0
 4434 0f15 F8070000 		.4byte	.LVL163-.Ltext0
 4435 0f19 0F00     		.2byte	0xf
 4436 0f1b 70       		.byte	0x70
 4437 0f1c 60       		.sleb128 -32
 4438 0f1d 06       		.byte	0x6
 4439 0f1e 70       		.byte	0x70
 4440 0f1f 68       		.sleb128 -24
 4441 0f20 06       		.byte	0x6
 4442 0f21 22       		.byte	0x22
ARM GAS  /tmp/ccUp6Xac.s 			page 79


 4443 0f22 70       		.byte	0x70
 4444 0f23 70       		.sleb128 -16
 4445 0f24 06       		.byte	0x6
 4446 0f25 22       		.byte	0x22
 4447 0f26 74       		.byte	0x74
 4448 0f27 00       		.sleb128 0
 4449 0f28 22       		.byte	0x22
 4450 0f29 9F       		.byte	0x9f
 4451 0f2a F8070000 		.4byte	.LVL163-.Ltext0
 4452 0f2e 32080000 		.4byte	.LFE137-.Ltext0
 4453 0f32 0100     		.2byte	0x1
 4454 0f34 57       		.byte	0x57
 4455 0f35 00000000 		.4byte	0
 4456 0f39 00000000 		.4byte	0
 4457              	.LLST71:
 4458 0f3d BE070000 		.4byte	.LVL157-.Ltext0
 4459 0f41 D6070000 		.4byte	.LVL159-.Ltext0
 4460 0f45 0C00     		.2byte	0xc
 4461 0f47 73       		.byte	0x73
 4462 0f48 00       		.sleb128 0
 4463 0f49 79       		.byte	0x79
 4464 0f4a 00       		.sleb128 0
 4465 0f4b 22       		.byte	0x22
 4466 0f4c 7C       		.byte	0x7c
 4467 0f4d 00       		.sleb128 0
 4468 0f4e 22       		.byte	0x22
 4469 0f4f 7E       		.byte	0x7e
 4470 0f50 00       		.sleb128 0
 4471 0f51 22       		.byte	0x22
 4472 0f52 9F       		.byte	0x9f
 4473 0f53 D6070000 		.4byte	.LVL159-.Ltext0
 4474 0f57 F6070000 		.4byte	.LVL162-.Ltext0
 4475 0f5b 0D00     		.2byte	0xd
 4476 0f5d 79       		.byte	0x79
 4477 0f5e 00       		.sleb128 0
 4478 0f5f 7C       		.byte	0x7c
 4479 0f60 00       		.sleb128 0
 4480 0f61 22       		.byte	0x22
 4481 0f62 7E       		.byte	0x7e
 4482 0f63 00       		.sleb128 0
 4483 0f64 22       		.byte	0x22
 4484 0f65 70       		.byte	0x70
 4485 0f66 6C       		.sleb128 -20
 4486 0f67 06       		.byte	0x6
 4487 0f68 22       		.byte	0x22
 4488 0f69 9F       		.byte	0x9f
 4489 0f6a F6070000 		.4byte	.LVL162-.Ltext0
 4490 0f6e 32080000 		.4byte	.LFE137-.Ltext0
 4491 0f72 0100     		.2byte	0x1
 4492 0f74 5B       		.byte	0x5b
 4493 0f75 00000000 		.4byte	0
 4494 0f79 00000000 		.4byte	0
 4495              	.LLST72:
 4496 0f7d 1A080000 		.4byte	.LVL169-.Ltext0
 4497 0f81 1E080000 		.4byte	.LVL170-.Ltext0
 4498 0f85 0E00     		.2byte	0xe
 4499 0f87 79       		.byte	0x79
ARM GAS  /tmp/ccUp6Xac.s 			page 80


 4500 0f88 00       		.sleb128 0
 4501 0f89 70       		.byte	0x70
 4502 0f8a 6C       		.sleb128 -20
 4503 0f8b 06       		.byte	0x6
 4504 0f8c 1C       		.byte	0x1c
 4505 0f8d 7C       		.byte	0x7c
 4506 0f8e 00       		.sleb128 0
 4507 0f8f 22       		.byte	0x22
 4508 0f90 70       		.byte	0x70
 4509 0f91 7C       		.sleb128 -4
 4510 0f92 06       		.byte	0x6
 4511 0f93 1C       		.byte	0x1c
 4512 0f94 9F       		.byte	0x9f
 4513 0f95 00000000 		.4byte	0
 4514 0f99 00000000 		.4byte	0
 4515              	.LLST73:
 4516 0f9d A2070000 		.4byte	.LVL154-.Ltext0
 4517 0fa1 B2070000 		.4byte	.LVL155-.Ltext0
 4518 0fa5 0300     		.2byte	0x3
 4519 0fa7 70       		.byte	0x70
 4520 0fa8 68       		.sleb128 -24
 4521 0fa9 9F       		.byte	0x9f
 4522 0faa B2070000 		.4byte	.LVL155-.Ltext0
 4523 0fae BA070000 		.4byte	.LVL156-.Ltext0
 4524 0fb2 0300     		.2byte	0x3
 4525 0fb4 70       		.byte	0x70
 4526 0fb5 78       		.sleb128 -8
 4527 0fb6 9F       		.byte	0x9f
 4528 0fb7 BA070000 		.4byte	.LVL156-.Ltext0
 4529 0fbb BE070000 		.4byte	.LVL157-.Ltext0
 4530 0fbf 0100     		.2byte	0x1
 4531 0fc1 50       		.byte	0x50
 4532 0fc2 BE070000 		.4byte	.LVL157-.Ltext0
 4533 0fc6 0A080000 		.4byte	.LVL166-.Ltext0
 4534 0fca 0300     		.2byte	0x3
 4535 0fcc 70       		.byte	0x70
 4536 0fcd 64       		.sleb128 -28
 4537 0fce 9F       		.byte	0x9f
 4538 0fcf 0A080000 		.4byte	.LVL166-.Ltext0
 4539 0fd3 1A080000 		.4byte	.LVL169-.Ltext0
 4540 0fd7 0300     		.2byte	0x3
 4541 0fd9 70       		.byte	0x70
 4542 0fda 68       		.sleb128 -24
 4543 0fdb 9F       		.byte	0x9f
 4544 0fdc 1A080000 		.4byte	.LVL169-.Ltext0
 4545 0fe0 1E080000 		.4byte	.LVL170-.Ltext0
 4546 0fe4 0300     		.2byte	0x3
 4547 0fe6 70       		.byte	0x70
 4548 0fe7 70       		.sleb128 -16
 4549 0fe8 9F       		.byte	0x9f
 4550 0fe9 1E080000 		.4byte	.LVL170-.Ltext0
 4551 0fed 22080000 		.4byte	.LVL171-.Ltext0
 4552 0ff1 0300     		.2byte	0x3
 4553 0ff3 70       		.byte	0x70
 4554 0ff4 78       		.sleb128 -8
 4555 0ff5 9F       		.byte	0x9f
 4556 0ff6 22080000 		.4byte	.LVL171-.Ltext0
ARM GAS  /tmp/ccUp6Xac.s 			page 81


 4557 0ffa 2A080000 		.4byte	.LVL173-.Ltext0
 4558 0ffe 0100     		.2byte	0x1
 4559 1000 50       		.byte	0x50
 4560 1001 2A080000 		.4byte	.LVL173-.Ltext0
 4561 1005 32080000 		.4byte	.LFE137-.Ltext0
 4562 1009 0300     		.2byte	0x3
 4563 100b 70       		.byte	0x70
 4564 100c 60       		.sleb128 -32
 4565 100d 9F       		.byte	0x9f
 4566 100e 00000000 		.4byte	0
 4567 1012 00000000 		.4byte	0
 4568              	.LLST74:
 4569 1016 36040000 		.4byte	.LVL93-.Ltext0
 4570 101a 38040000 		.4byte	.LVL94-.Ltext0
 4571 101e 0100     		.2byte	0x1
 4572 1020 50       		.byte	0x50
 4573 1021 38040000 		.4byte	.LVL94-.Ltext0
 4574 1025 56040000 		.4byte	.LVL98-.Ltext0
 4575 1029 0100     		.2byte	0x1
 4576 102b 57       		.byte	0x57
 4577 102c 56040000 		.4byte	.LVL98-.Ltext0
 4578 1030 70040000 		.4byte	.LVL99-.Ltext0
 4579 1034 0200     		.2byte	0x2
 4580 1036 91       		.byte	0x91
 4581 1037 50       		.sleb128 -48
 4582 1038 70040000 		.4byte	.LVL99-.Ltext0
 4583 103c 06050000 		.4byte	.LVL103-.Ltext0
 4584 1040 0300     		.2byte	0x3
 4585 1042 7E       		.byte	0x7e
 4586 1043 78       		.sleb128 -8
 4587 1044 9F       		.byte	0x9f
 4588 1045 06050000 		.4byte	.LVL103-.Ltext0
 4589 1049 94050000 		.4byte	.LVL115-.Ltext0
 4590 104d 0100     		.2byte	0x1
 4591 104f 5E       		.byte	0x5e
 4592 1050 94050000 		.4byte	.LVL115-.Ltext0
 4593 1054 BC050000 		.4byte	.LVL119-.Ltext0
 4594 1058 0300     		.2byte	0x3
 4595 105a 7E       		.byte	0x7e
 4596 105b 78       		.sleb128 -8
 4597 105c 9F       		.byte	0x9f
 4598 105d 38060000 		.4byte	.LVL131-.Ltext0
 4599 1061 4E060000 		.4byte	.LVL133-.Ltext0
 4600 1065 0100     		.2byte	0x1
 4601 1067 57       		.byte	0x57
 4602 1068 4E060000 		.4byte	.LVL133-.Ltext0
 4603 106c 68070000 		.4byte	.LVL147-.Ltext0
 4604 1070 0100     		.2byte	0x1
 4605 1072 5E       		.byte	0x5e
 4606 1073 00000000 		.4byte	0
 4607 1077 00000000 		.4byte	0
 4608              	.LLST75:
 4609 107b 38040000 		.4byte	.LVL94-.Ltext0
 4610 107f 70040000 		.4byte	.LVL99-.Ltext0
 4611 1083 0100     		.2byte	0x1
 4612 1085 50       		.byte	0x50
 4613 1086 38060000 		.4byte	.LVL131-.Ltext0
ARM GAS  /tmp/ccUp6Xac.s 			page 82


 4614 108a 4E060000 		.4byte	.LVL133-.Ltext0
 4615 108e 0100     		.2byte	0x1
 4616 1090 5A       		.byte	0x5a
 4617 1091 4E060000 		.4byte	.LVL133-.Ltext0
 4618 1095 68070000 		.4byte	.LVL147-.Ltext0
 4619 1099 0100     		.2byte	0x1
 4620 109b 5B       		.byte	0x5b
 4621 109c 00000000 		.4byte	0
 4622 10a0 00000000 		.4byte	0
 4623              	.LLST76:
 4624 10a4 40040000 		.4byte	.LVL95-.Ltext0
 4625 10a8 46040000 		.4byte	.LVL97-.Ltext0
 4626 10ac 0600     		.2byte	0x6
 4627 10ae 70       		.byte	0x70
 4628 10af 00       		.sleb128 0
 4629 10b0 71       		.byte	0x71
 4630 10b1 00       		.sleb128 0
 4631 10b2 22       		.byte	0x22
 4632 10b3 9F       		.byte	0x9f
 4633 10b4 46040000 		.4byte	.LVL97-.Ltext0
 4634 10b8 70040000 		.4byte	.LVL99-.Ltext0
 4635 10bc 0800     		.2byte	0x8
 4636 10be 70       		.byte	0x70
 4637 10bf 00       		.sleb128 0
 4638 10c0 71       		.byte	0x71
 4639 10c1 00       		.sleb128 0
 4640 10c2 22       		.byte	0x22
 4641 10c3 38       		.byte	0x38
 4642 10c4 1C       		.byte	0x1c
 4643 10c5 9F       		.byte	0x9f
 4644 10c6 38060000 		.4byte	.LVL131-.Ltext0
 4645 10ca 4C060000 		.4byte	.LVL132-.Ltext0
 4646 10ce 0100     		.2byte	0x1
 4647 10d0 5E       		.byte	0x5e
 4648 10d1 4C060000 		.4byte	.LVL132-.Ltext0
 4649 10d5 62070000 		.4byte	.LVL145-.Ltext0
 4650 10d9 0300     		.2byte	0x3
 4651 10db 91       		.byte	0x91
 4652 10dc E47E     		.sleb128 -156
 4653 10de 62070000 		.4byte	.LVL145-.Ltext0
 4654 10e2 68070000 		.4byte	.LVL147-.Ltext0
 4655 10e6 0100     		.2byte	0x1
 4656 10e8 51       		.byte	0x51
 4657 10e9 00000000 		.4byte	0
 4658 10ed 00000000 		.4byte	0
 4659              	.LLST77:
 4660 10f1 40040000 		.4byte	.LVL95-.Ltext0
 4661 10f5 46040000 		.4byte	.LVL97-.Ltext0
 4662 10f9 0800     		.2byte	0x8
 4663 10fb 71       		.byte	0x71
 4664 10fc 00       		.sleb128 0
 4665 10fd 31       		.byte	0x31
 4666 10fe 24       		.byte	0x24
 4667 10ff 70       		.byte	0x70
 4668 1100 00       		.sleb128 0
 4669 1101 22       		.byte	0x22
 4670 1102 9F       		.byte	0x9f
ARM GAS  /tmp/ccUp6Xac.s 			page 83


 4671 1103 46040000 		.4byte	.LVL97-.Ltext0
 4672 1107 70040000 		.4byte	.LVL99-.Ltext0
 4673 110b 0A00     		.2byte	0xa
 4674 110d 71       		.byte	0x71
 4675 110e 00       		.sleb128 0
 4676 110f 31       		.byte	0x31
 4677 1110 24       		.byte	0x24
 4678 1111 70       		.byte	0x70
 4679 1112 00       		.sleb128 0
 4680 1113 22       		.byte	0x22
 4681 1114 40       		.byte	0x40
 4682 1115 1C       		.byte	0x1c
 4683 1116 9F       		.byte	0x9f
 4684 1117 38060000 		.4byte	.LVL131-.Ltext0
 4685 111b 4E060000 		.4byte	.LVL133-.Ltext0
 4686 111f 0100     		.2byte	0x1
 4687 1121 5C       		.byte	0x5c
 4688 1122 4E060000 		.4byte	.LVL133-.Ltext0
 4689 1126 68070000 		.4byte	.LVL147-.Ltext0
 4690 112a 0100     		.2byte	0x1
 4691 112c 5A       		.byte	0x5a
 4692 112d 00000000 		.4byte	0
 4693 1131 00000000 		.4byte	0
 4694              	.LLST78:
 4695 1135 B2070000 		.4byte	.LVL155-.Ltext0
 4696 1139 C6070000 		.4byte	.LVL158-.Ltext0
 4697 113d 0600     		.2byte	0x6
 4698 113f 52       		.byte	0x52
 4699 1140 93       		.byte	0x93
 4700 1141 04       		.uleb128 0x4
 4701 1142 59       		.byte	0x59
 4702 1143 93       		.byte	0x93
 4703 1144 04       		.uleb128 0x4
 4704 1145 C6070000 		.4byte	.LVL158-.Ltext0
 4705 1149 0A080000 		.4byte	.LVL166-.Ltext0
 4706 114d 0700     		.2byte	0x7
 4707 114f 70       		.byte	0x70
 4708 1150 60       		.sleb128 -32
 4709 1151 93       		.byte	0x93
 4710 1152 04       		.uleb128 0x4
 4711 1153 59       		.byte	0x59
 4712 1154 93       		.byte	0x93
 4713 1155 04       		.uleb128 0x4
 4714 1156 00000000 		.4byte	0
 4715 115a 00000000 		.4byte	0
 4716              	.LLST79:
 4717 115e B2070000 		.4byte	.LVL155-.Ltext0
 4718 1162 D6070000 		.4byte	.LVL159-.Ltext0
 4719 1166 0600     		.2byte	0x6
 4720 1168 51       		.byte	0x51
 4721 1169 93       		.byte	0x93
 4722 116a 04       		.uleb128 0x4
 4723 116b 53       		.byte	0x53
 4724 116c 93       		.byte	0x93
 4725 116d 04       		.uleb128 0x4
 4726 116e D6070000 		.4byte	.LVL159-.Ltext0
 4727 1172 E2070000 		.4byte	.LVL161-.Ltext0
ARM GAS  /tmp/ccUp6Xac.s 			page 84


 4728 1176 0700     		.2byte	0x7
 4729 1178 51       		.byte	0x51
 4730 1179 93       		.byte	0x93
 4731 117a 04       		.uleb128 0x4
 4732 117b 70       		.byte	0x70
 4733 117c 6C       		.sleb128 -20
 4734 117d 93       		.byte	0x93
 4735 117e 04       		.uleb128 0x4
 4736 117f E2070000 		.4byte	.LVL161-.Ltext0
 4737 1183 0E080000 		.4byte	.LVL167-.Ltext0
 4738 1187 0800     		.2byte	0x8
 4739 1189 70       		.byte	0x70
 4740 118a 68       		.sleb128 -24
 4741 118b 93       		.byte	0x93
 4742 118c 04       		.uleb128 0x4
 4743 118d 70       		.byte	0x70
 4744 118e 6C       		.sleb128 -20
 4745 118f 93       		.byte	0x93
 4746 1190 04       		.uleb128 0x4
 4747 1191 00000000 		.4byte	0
 4748 1195 00000000 		.4byte	0
 4749              	.LLST80:
 4750 1199 BA070000 		.4byte	.LVL156-.Ltext0
 4751 119d DA070000 		.4byte	.LVL160-.Ltext0
 4752 11a1 0600     		.2byte	0x6
 4753 11a3 5A       		.byte	0x5a
 4754 11a4 93       		.byte	0x93
 4755 11a5 04       		.uleb128 0x4
 4756 11a6 5C       		.byte	0x5c
 4757 11a7 93       		.byte	0x93
 4758 11a8 04       		.uleb128 0x4
 4759 11a9 DA070000 		.4byte	.LVL160-.Ltext0
 4760 11ad 12080000 		.4byte	.LVL168-.Ltext0
 4761 11b1 0700     		.2byte	0x7
 4762 11b3 70       		.byte	0x70
 4763 11b4 70       		.sleb128 -16
 4764 11b5 93       		.byte	0x93
 4765 11b6 04       		.uleb128 0x4
 4766 11b7 5C       		.byte	0x5c
 4767 11b8 93       		.byte	0x93
 4768 11b9 04       		.uleb128 0x4
 4769 11ba 00000000 		.4byte	0
 4770 11be 00000000 		.4byte	0
 4771              	.LLST81:
 4772 11c2 BE070000 		.4byte	.LVL157-.Ltext0
 4773 11c6 FC070000 		.4byte	.LVL164-.Ltext0
 4774 11ca 0600     		.2byte	0x6
 4775 11cc 54       		.byte	0x54
 4776 11cd 93       		.byte	0x93
 4777 11ce 04       		.uleb128 0x4
 4778 11cf 5E       		.byte	0x5e
 4779 11d0 93       		.byte	0x93
 4780 11d1 04       		.uleb128 0x4
 4781 11d2 FC070000 		.4byte	.LVL164-.Ltext0
 4782 11d6 26080000 		.4byte	.LVL172-.Ltext0
 4783 11da 0700     		.2byte	0x7
 4784 11dc 54       		.byte	0x54
ARM GAS  /tmp/ccUp6Xac.s 			page 85


 4785 11dd 93       		.byte	0x93
 4786 11de 04       		.uleb128 0x4
 4787 11df 70       		.byte	0x70
 4788 11e0 7C       		.sleb128 -4
 4789 11e1 93       		.byte	0x93
 4790 11e2 04       		.uleb128 0x4
 4791 11e3 00000000 		.4byte	0
 4792 11e7 00000000 		.4byte	0
 4793              	.LLST82:
 4794 11eb 40080000 		.4byte	.LVL174-.Ltext0
 4795 11ef 4C080000 		.4byte	.LVL175-.Ltext0
 4796 11f3 0100     		.2byte	0x1
 4797 11f5 50       		.byte	0x50
 4798 11f6 4C080000 		.4byte	.LVL175-.Ltext0
 4799 11fa 76080000 		.4byte	.LVL180-.Ltext0
 4800 11fe 0100     		.2byte	0x1
 4801 1200 54       		.byte	0x54
 4802 1201 76080000 		.4byte	.LVL180-.Ltext0
 4803 1205 7A080000 		.4byte	.LFE135-.Ltext0
 4804 1209 0400     		.2byte	0x4
 4805 120b F3       		.byte	0xf3
 4806 120c 01       		.uleb128 0x1
 4807 120d 50       		.byte	0x50
 4808 120e 9F       		.byte	0x9f
 4809 120f 00000000 		.4byte	0
 4810 1213 00000000 		.4byte	0
 4811              	.LLST83:
 4812 1217 40080000 		.4byte	.LVL174-.Ltext0
 4813 121b 50080000 		.4byte	.LVL176-.Ltext0
 4814 121f 0100     		.2byte	0x1
 4815 1221 51       		.byte	0x51
 4816 1222 50080000 		.4byte	.LVL176-.Ltext0
 4817 1226 57080000 		.4byte	.LVL177-1-.Ltext0
 4818 122a 0100     		.2byte	0x1
 4819 122c 50       		.byte	0x50
 4820 122d 57080000 		.4byte	.LVL177-1-.Ltext0
 4821 1231 60080000 		.4byte	.LVL178-.Ltext0
 4822 1235 0100     		.2byte	0x1
 4823 1237 55       		.byte	0x55
 4824 1238 60080000 		.4byte	.LVL178-.Ltext0
 4825 123c 63080000 		.4byte	.LVL179-1-.Ltext0
 4826 1240 0100     		.2byte	0x1
 4827 1242 50       		.byte	0x50
 4828 1243 63080000 		.4byte	.LVL179-1-.Ltext0
 4829 1247 76080000 		.4byte	.LVL180-.Ltext0
 4830 124b 0100     		.2byte	0x1
 4831 124d 55       		.byte	0x55
 4832 124e 76080000 		.4byte	.LVL180-.Ltext0
 4833 1252 79080000 		.4byte	.LVL181-1-.Ltext0
 4834 1256 0100     		.2byte	0x1
 4835 1258 50       		.byte	0x50
 4836 1259 79080000 		.4byte	.LVL181-1-.Ltext0
 4837 125d 7A080000 		.4byte	.LFE135-.Ltext0
 4838 1261 0400     		.2byte	0x4
 4839 1263 F3       		.byte	0xf3
 4840 1264 01       		.uleb128 0x1
 4841 1265 51       		.byte	0x51
ARM GAS  /tmp/ccUp6Xac.s 			page 86


 4842 1266 9F       		.byte	0x9f
 4843 1267 00000000 		.4byte	0
 4844 126b 00000000 		.4byte	0
 4845              		.section	.debug_aranges,"",%progbits
 4846 0000 1C000000 		.4byte	0x1c
 4847 0004 0200     		.2byte	0x2
 4848 0006 00000000 		.4byte	.Ldebug_info0
 4849 000a 04       		.byte	0x4
 4850 000b 00       		.byte	0
 4851 000c 0000     		.2byte	0
 4852 000e 0000     		.2byte	0
 4853 0010 00000000 		.4byte	.Ltext0
 4854 0014 7A080000 		.4byte	.Letext0-.Ltext0
 4855 0018 00000000 		.4byte	0
 4856 001c 00000000 		.4byte	0
 4857              		.section	.debug_line,"",%progbits
 4858              	.Ldebug_line0:
 4859 0000 1A0C0000 		.section	.debug_str,"MS",%progbits,1
 4859      02000D02 
 4859      00000201 
 4859      FB0E0D00 
 4859      01010101 
 4860              	.LASF23:
 4861 0000 6C6F6E67 		.ascii	"long double\000"
 4861      20646F75 
 4861      626C6500 
 4862              	.LASF29:
 4863 000c 70547769 		.ascii	"pTwiddle\000"
 4863      64646C65 
 4863      00
 4864              	.LASF22:
 4865 0015 666C6F61 		.ascii	"float\000"
 4865      7400
 4866              	.LASF27:
 4867 001b 69666674 		.ascii	"ifftFlag\000"
 4867      466C6167 
 4867      00
 4868              	.LASF24:
 4869 0024 7133315F 		.ascii	"q31_t\000"
 4869      7400
 4870              	.LASF54:
 4871 002a 61726D5F 		.ascii	"arm_radix4_butterfly_inverse_q31\000"
 4871      72616469 
 4871      78345F62 
 4871      75747465 
 4871      72666C79 
 4872              	.LASF19:
 4873 004b 73697A65 		.ascii	"sizetype\000"
 4873      74797065 
 4873      00
 4874              	.LASF32:
 4875 0054 62697452 		.ascii	"bitRevFactor\000"
 4875      65764661 
 4875      63746F72 
 4875      00
 4876              	.LASF11:
 4877 0061 6C6F6E67 		.ascii	"long long int\000"
ARM GAS  /tmp/ccUp6Xac.s 			page 87


 4877      206C6F6E 
 4877      6720696E 
 4877      7400
 4878              	.LASF8:
 4879 006f 5F5F7569 		.ascii	"__uint32_t\000"
 4879      6E743332 
 4879      5F7400
 4880              	.LASF4:
 4881 007a 5F5F7569 		.ascii	"__uint16_t\000"
 4881      6E743136 
 4881      5F7400
 4882              	.LASF38:
 4883 0085 78635F6F 		.ascii	"xc_out\000"
 4883      757400
 4884              	.LASF2:
 4885 008c 73686F72 		.ascii	"short int\000"
 4885      7420696E 
 4885      7400
 4886              	.LASF18:
 4887 0096 696E7436 		.ascii	"int64_t\000"
 4887      345F7400 
 4888              	.LASF35:
 4889 009e 70436F65 		.ascii	"pCoef\000"
 4889      6600
 4890              	.LASF30:
 4891 00a4 70426974 		.ascii	"pBitRevTable\000"
 4891      52657654 
 4891      61626C65 
 4891      00
 4892              	.LASF14:
 4893 00b1 75696E74 		.ascii	"uint8_t\000"
 4893      385F7400 
 4894              	.LASF26:
 4895 00b9 6666744C 		.ascii	"fftLen\000"
 4895      656E00
 4896              	.LASF45:
 4897 00c0 70536930 		.ascii	"pSi0\000"
 4897      00
 4898              	.LASF46:
 4899 00c5 70536931 		.ascii	"pSi1\000"
 4899      00
 4900              	.LASF47:
 4901 00ca 70536932 		.ascii	"pSi2\000"
 4901      00
 4902              	.LASF48:
 4903 00cf 70536933 		.ascii	"pSi3\000"
 4903      00
 4904              	.LASF41:
 4905 00d4 79625F6F 		.ascii	"yb_out\000"
 4905      757400
 4906              	.LASF7:
 4907 00db 6C6F6E67 		.ascii	"long int\000"
 4907      20696E74 
 4907      00
 4908              	.LASF52:
 4909 00e4 78647964 		.ascii	"xdyd\000"
 4909      00
ARM GAS  /tmp/ccUp6Xac.s 			page 88


 4910              	.LASF3:
 4911 00e9 5F5F7569 		.ascii	"__uint8_t\000"
 4911      6E74385F 
 4911      7400
 4912              	.LASF55:
 4913 00f3 61726D5F 		.ascii	"arm_cfft_radix4_q31\000"
 4913      63666674 
 4913      5F726164 
 4913      6978345F 
 4913      71333100 
 4914              	.LASF1:
 4915 0107 756E7369 		.ascii	"unsigned char\000"
 4915      676E6564 
 4915      20636861 
 4915      7200
 4916              	.LASF36:
 4917 0115 78615F6F 		.ascii	"xa_out\000"
 4917      757400
 4918              	.LASF51:
 4919 011c 78637963 		.ascii	"xcyc\000"
 4919      00
 4920              	.LASF0:
 4921 0121 7369676E 		.ascii	"signed char\000"
 4921      65642063 
 4921      68617200 
 4922              	.LASF12:
 4923 012d 6C6F6E67 		.ascii	"long long unsigned int\000"
 4923      206C6F6E 
 4923      6720756E 
 4923      7369676E 
 4923      65642069 
 4924              	.LASF17:
 4925 0144 75696E74 		.ascii	"uint32_t\000"
 4925      33325F74 
 4925      00
 4926              	.LASF39:
 4927 014d 78645F6F 		.ascii	"xd_out\000"
 4927      757400
 4928              	.LASF13:
 4929 0154 756E7369 		.ascii	"unsigned int\000"
 4929      676E6564 
 4929      20696E74 
 4929      00
 4930              	.LASF15:
 4931 0161 75696E74 		.ascii	"uint16_t\000"
 4931      31365F74 
 4931      00
 4932              	.LASF25:
 4933 016a 7136335F 		.ascii	"q63_t\000"
 4933      7400
 4934              	.LASF58:
 4935 0170 61726D5F 		.ascii	"arm_bitreversal_q31\000"
 4935      62697472 
 4935      65766572 
 4935      73616C5F 
 4935      71333100 
 4936              	.LASF5:
ARM GAS  /tmp/ccUp6Xac.s 			page 89


 4937 0184 73686F72 		.ascii	"short unsigned int\000"
 4937      7420756E 
 4937      7369676E 
 4937      65642069 
 4937      6E7400
 4938              	.LASF50:
 4939 0197 78627962 		.ascii	"xbyb\000"
 4939      00
 4940              	.LASF20:
 4941 019c 63686172 		.ascii	"char\000"
 4941      00
 4942              	.LASF56:
 4943 01a1 474E5520 		.ascii	"GNU C 4.9.3 20150529 (release) [ARM/embedded-4_9-br"
 4943      4320342E 
 4943      392E3320 
 4943      32303135 
 4943      30353239 
 4944 01d4 616E6368 		.ascii	"anch revision 224288] -mcpu=cortex-m4 -mfloat-abi=h"
 4944      20726576 
 4944      6973696F 
 4944      6E203232 
 4944      34323838 
 4945 0207 61726420 		.ascii	"ard -mfpu=fpv4-sp-d16 -mno-thumb-interwork -mthumb "
 4945      2D6D6670 
 4945      753D6670 
 4945      76342D73 
 4945      702D6431 
 4946 023a 2D676764 		.ascii	"-ggdb -O2 -fomit-frame-pointer -falign-functions=16"
 4946      62202D4F 
 4946      32202D66 
 4946      6F6D6974 
 4946      2D667261 
 4947 026d 202D666E 		.ascii	" -fno-math-errno -fsingle-precision-constant\000"
 4947      6F2D6D61 
 4947      74682D65 
 4947      72726E6F 
 4947      202D6673 
 4948              	.LASF16:
 4949 029a 696E7433 		.ascii	"int32_t\000"
 4949      325F7400 
 4950              	.LASF42:
 4951 02a2 79635F6F 		.ascii	"yc_out\000"
 4951      757400
 4952              	.LASF49:
 4953 02a9 78617961 		.ascii	"xaya\000"
 4953      00
 4954              	.LASF9:
 4955 02ae 6C6F6E67 		.ascii	"long unsigned int\000"
 4955      20756E73 
 4955      69676E65 
 4955      6420696E 
 4955      7400
 4956              	.LASF21:
 4957 02c0 646F7562 		.ascii	"double\000"
 4957      6C6500
 4958              	.LASF33:
 4959 02c7 61726D5F 		.ascii	"arm_cfft_radix4_instance_q31\000"
ARM GAS  /tmp/ccUp6Xac.s 			page 90


 4959      63666674 
 4959      5F726164 
 4959      6978345F 
 4959      696E7374 
 4960              	.LASF43:
 4961 02e4 79645F6F 		.ascii	"yd_out\000"
 4961      757400
 4962              	.LASF6:
 4963 02eb 5F5F696E 		.ascii	"__int32_t\000"
 4963      7433325F 
 4963      7400
 4964              	.LASF28:
 4965 02f5 62697452 		.ascii	"bitReverseFlag\000"
 4965      65766572 
 4965      7365466C 
 4965      616700
 4966              	.LASF37:
 4967 0304 78625F6F 		.ascii	"xb_out\000"
 4967      757400
 4968              	.LASF44:
 4969 030b 70747231 		.ascii	"ptr1\000"
 4969      00
 4970              	.LASF34:
 4971 0310 70537263 		.ascii	"pSrc\000"
 4971      00
 4972              	.LASF10:
 4973 0315 5F5F696E 		.ascii	"__int64_t\000"
 4973      7436345F 
 4973      7400
 4974              	.LASF57:
 4975 031f 2F686F6D 		.ascii	"/home/sbcu/Dropbox/pcb-layouts/axo-on-discovery-boa"
 4975      652F7362 
 4975      63752F44 
 4975      726F7062 
 4975      6F782F70 
 4976 0352 72642F61 		.ascii	"rd/axoloti/platform_linux/../CMSIS//DSP_Lib/Source/"
 4976      786F6C6F 
 4976      74692F70 
 4976      6C617466 
 4976      6F726D5F 
 4977 0385 5472616E 		.ascii	"TransformFunctions/arm_cfft_radix4_q31.c\000"
 4977      73666F72 
 4977      6D46756E 
 4977      6374696F 
 4977      6E732F61 
 4978              	.LASF53:
 4979 03ae 61726D5F 		.ascii	"arm_radix4_butterfly_q31\000"
 4979      72616469 
 4979      78345F62 
 4979      75747465 
 4979      72666C79 
 4980              	.LASF31:
 4981 03c7 74776964 		.ascii	"twidCoefModifier\000"
 4981      436F6566 
 4981      4D6F6469 
 4981      66696572 
 4981      00
ARM GAS  /tmp/ccUp6Xac.s 			page 91


 4982              	.LASF40:
 4983 03d8 79615F6F 		.ascii	"ya_out\000"
 4983      757400
 4984              		.ident	"GCC: (GNU Tools for ARM Embedded Processors) 4.9.3 20150529 (release) [ARM/embedded-4_9-br
ARM GAS  /tmp/ccUp6Xac.s 			page 92


DEFINED SYMBOLS
                            *ABS*:00000000 arm_cfft_radix4_q31.c
     /tmp/ccUp6Xac.s:20     .text:00000000 $t
     /tmp/ccUp6Xac.s:26     .text:00000000 arm_radix4_butterfly_q31
     /tmp/ccUp6Xac.s:761    .text:00000420 arm_radix4_butterfly_inverse_q31
     /tmp/ccUp6Xac.s:1500   .text:00000840 arm_cfft_radix4_q31
                     .debug_frame:00000010 $d

UNDEFINED SYMBOLS
arm_bitreversal_q31
