ARM GAS  /tmp/cc4Rwc55.s 			page 1


   1              		.syntax unified
   2              		.cpu cortex-m4
   3              		.eabi_attribute 27, 1
   4              		.eabi_attribute 28, 1
   5              		.fpu fpv4-sp-d16
   6              		.eabi_attribute 20, 1
   7              		.eabi_attribute 21, 1
   8              		.eabi_attribute 23, 3
   9              		.eabi_attribute 24, 1
  10              		.eabi_attribute 25, 1
  11              		.eabi_attribute 26, 1
  12              		.eabi_attribute 30, 2
  13              		.eabi_attribute 34, 1
  14              		.eabi_attribute 18, 4
  15              		.thumb
  16              		.file	"arm_fir_fast_q31.c"
  17              		.text
  18              	.Ltext0:
  19              		.cfi_sections	.debug_frame
  20              		.align	2
  21              		.p2align 4,,15
  22              		.global	arm_fir_fast_q31
  23              		.thumb
  24              		.thumb_func
  25              		.type	arm_fir_fast_q31, %function
  26              	arm_fir_fast_q31:
  27              	.LFB135:
  28              		.file 1 "/home/sbcu/Dropbox/pcb-layouts/axo-on-discovery-board/axoloti/platform_linux/../CMSIS//DS
  29              		.loc 1 80 0
  30              		.cfi_startproc
  31              		@ args = 0, pretend = 0, frame = 64
  32              		@ frame_needed = 0, uses_anonymous_args = 0
  33              	.LVL0:
  34 0000 2DE9F04F 		push	{r4, r5, r6, r7, r8, r9, r10, fp, lr}
  35              		.cfi_def_cfa_offset 36
  36              		.cfi_offset 4, -36
  37              		.cfi_offset 5, -32
  38              		.cfi_offset 6, -28
  39              		.cfi_offset 7, -24
  40              		.cfi_offset 8, -20
  41              		.cfi_offset 9, -16
  42              		.cfi_offset 10, -12
  43              		.cfi_offset 11, -8
  44              		.cfi_offset 14, -4
  45              		.loc 1 89 0
  46 0004 0488     		ldrh	r4, [r0]
  47              		.loc 1 81 0
  48 0006 4568     		ldr	r5, [r0, #4]
  49              		.loc 1 82 0
  50 0008 8068     		ldr	r0, [r0, #8]
  51              	.LVL1:
  52              		.loc 1 80 0
  53 000a 91B0     		sub	sp, sp, #68
  54              		.cfi_def_cfa_offset 104
  55              		.loc 1 94 0
  56 000c 04F1804C 		add	ip, r4, #1073741824
  57 0010 0CF1FF3C 		add	ip, ip, #-1
ARM GAS  /tmp/cc4Rwc55.s 			page 2


  58              		.loc 1 80 0
  59 0014 0F93     		str	r3, [sp, #60]
  60              		.loc 1 82 0
  61 0016 0746     		mov	r7, r0
  62              		.loc 1 108 0
  63 0018 9B08     		lsrs	r3, r3, #2
  64              	.LVL2:
  65              		.loc 1 82 0
  66 001a 0590     		str	r0, [sp, #20]
  67              		.loc 1 94 0
  68 001c 05EB8C00 		add	r0, r5, ip, lsl #2
  69              		.loc 1 80 0
  70 0020 8846     		mov	r8, r1
  71 0022 0A91     		str	r1, [sp, #40]
  72 0024 9646     		mov	lr, r2
  73 0026 0B92     		str	r2, [sp, #44]
  74              		.loc 1 89 0
  75 0028 0D94     		str	r4, [sp, #52]
  76              		.loc 1 81 0
  77 002a 0C95     		str	r5, [sp, #48]
  78              	.LVL3:
  79              		.loc 1 94 0
  80 002c 0246     		mov	r2, r0
  81              	.LVL4:
  82 002e 0990     		str	r0, [sp, #36]
  83              	.LVL5:
  84              		.loc 1 108 0
  85 0030 1946     		mov	r1, r3
  86              	.LVL6:
  87 0032 0E93     		str	r3, [sp, #56]
  88 0034 00F00481 		beq	.L14
  89 0038 A308     		lsrs	r3, r4, #2
  90 003a 2046     		mov	r0, r4
  91 003c 1E46     		mov	r6, r3
  92 003e 0493     		str	r3, [sp, #16]
  93 0040 3C46     		mov	r4, r7
  94              	.LVL7:
  95 0042 1B01     		lsls	r3, r3, #4
  96 0044 1C44     		add	r4, r4, r3
  97 0046 043B     		subs	r3, r3, #4
  98 0048 0893     		str	r3, [sp, #32]
  99 004a A0EB8603 		sub	r3, r0, r6, lsl #2
 100 004e 0693     		str	r3, [sp, #24]
 101 0050 02F11003 		add	r3, r2, #16
 102 0054 0193     		str	r3, [sp, #4]
 103 0056 7346     		mov	r3, lr
 104 0058 05F1100B 		add	fp, r5, #16
 105 005c 1033     		adds	r3, r3, #16
 106 005e 0794     		str	r4, [sp, #28]
 107 0060 08F1100A 		add	r10, r8, #16
 108 0064 0393     		str	r3, [sp, #12]
 109 0066 0291     		str	r1, [sp, #8]
 110 0068 CDF800B0 		str	fp, [sp]
 111              	.LVL8:
 112              	.L7:
 113              		.loc 1 111 0
 114 006c 019C     		ldr	r4, [sp, #4]
ARM GAS  /tmp/cc4Rwc55.s 			page 3


 115 006e 5AF8103C 		ldr	r3, [r10, #-16]
 116 0072 44F8103C 		str	r3, [r4, #-16]
 117              	.LVL9:
 118              		.loc 1 112 0
 119 0076 5AF80C3C 		ldr	r3, [r10, #-12]
 120 007a 44F80C3C 		str	r3, [r4, #-12]
 121              	.LVL10:
 122              		.loc 1 113 0
 123 007e 5AF8083C 		ldr	r3, [r10, #-8]
 124 0082 44F8083C 		str	r3, [r4, #-8]
 125              	.LVL11:
 126              		.loc 1 130 0
 127 0086 009A     		ldr	r2, [sp]
 128              		.loc 1 114 0
 129 0088 5AF8043C 		ldr	r3, [r10, #-4]
 130              		.loc 1 138 0
 131 008c 0498     		ldr	r0, [sp, #16]
 132              		.loc 1 114 0
 133 008e 44F8043C 		str	r3, [r4, #-4]
 134              	.LVL12:
 135              		.loc 1 130 0
 136 0092 52F8106C 		ldr	r6, [r2, #-16]
 137              	.LVL13:
 138              		.loc 1 131 0
 139 0096 52F80C5C 		ldr	r5, [r2, #-12]
 140              	.LVL14:
 141              		.loc 1 132 0
 142 009a 52F8084C 		ldr	r4, [r2, #-8]
 143 009e A2F1040E 		sub	lr, r2, #4
 144              	.LVL15:
 145              		.loc 1 138 0
 146 00a2 0028     		cmp	r0, #0
 147 00a4 00F0C580 		beq	.L15
 148 00a8 059F     		ldr	r7, [sp, #20]
 149 00aa 0023     		movs	r3, #0
 150 00ac 07F1100E 		add	lr, r7, #16
 151              	.LVL16:
 152 00b0 9846     		mov	r8, r3
 153 00b2 9946     		mov	r9, r3
 154 00b4 1946     		mov	r1, r3
 155 00b6 02F10C07 		add	r7, r2, #12
 156 00ba 8346     		mov	fp, r0
 157              	.LVL17:
 158              	.L4:
 159              		.loc 1 141 0
 160 00bc 5EF8102C 		ldr	r2, [lr, #-16]
 161              	.LVL18:
 162              		.loc 1 144 0
 163 00c0 57F8100C 		ldr	r0, [r7, #-16]
 164              	.LVL19:
 165              		.loc 1 147 0
 166              	@ 147 "/home/sbcu/Dropbox/pcb-layouts/axo-on-discovery-board/axoloti/platform_linux/../CMSIS//DSP_L
 167 00c4 56FB1211 		smmlar r1, r6, r2, r1
 168              	@ 0 "" 2
 169              	.LVL20:
 170              		.loc 1 150 0
 171              	@ 150 "/home/sbcu/Dropbox/pcb-layouts/axo-on-discovery-board/axoloti/platform_linux/../CMSIS//DSP_L
ARM GAS  /tmp/cc4Rwc55.s 			page 4


 172 00c8 55FB1299 		smmlar r9, r5, r2, r9
 173              	@ 0 "" 2
 174              	.LVL21:
 175              		.loc 1 153 0
 176              	@ 153 "/home/sbcu/Dropbox/pcb-layouts/axo-on-discovery-board/axoloti/platform_linux/../CMSIS//DSP_L
 177 00cc 54FB1288 		smmlar r8, r4, r2, r8
 178              	@ 0 "" 2
 179              	.LVL22:
 180              		.loc 1 156 0
 181              	@ 156 "/home/sbcu/Dropbox/pcb-layouts/axo-on-discovery-board/axoloti/platform_linux/../CMSIS//DSP_L
 182 00d0 50FB1233 		smmlar r3, r0, r2, r3
 183              	@ 0 "" 2
 184              	.LVL23:
 185              		.loc 1 159 0
 186              		.thumb
 187 00d4 5EF80C2C 		ldr	r2, [lr, #-12]
 188              	.LVL24:
 189              		.loc 1 162 0
 190 00d8 57F80C6C 		ldr	r6, [r7, #-12]
 191              	.LVL25:
 192              		.loc 1 165 0
 193              	@ 165 "/home/sbcu/Dropbox/pcb-layouts/axo-on-discovery-board/axoloti/platform_linux/../CMSIS//DSP_L
 194 00dc 55FB1211 		smmlar r1, r5, r2, r1
 195              	@ 0 "" 2
 196              	.LVL26:
 197              		.loc 1 166 0
 198              	@ 166 "/home/sbcu/Dropbox/pcb-layouts/axo-on-discovery-board/axoloti/platform_linux/../CMSIS//DSP_L
 199 00e0 54FB1299 		smmlar r9, r4, r2, r9
 200              	@ 0 "" 2
 201              	.LVL27:
 202              		.loc 1 167 0
 203              	@ 167 "/home/sbcu/Dropbox/pcb-layouts/axo-on-discovery-board/axoloti/platform_linux/../CMSIS//DSP_L
 204 00e4 50FB1288 		smmlar r8, r0, r2, r8
 205              	@ 0 "" 2
 206              	.LVL28:
 207              		.loc 1 168 0
 208              	@ 168 "/home/sbcu/Dropbox/pcb-layouts/axo-on-discovery-board/axoloti/platform_linux/../CMSIS//DSP_L
 209 00e8 56FB1233 		smmlar r3, r6, r2, r3
 210              	@ 0 "" 2
 211              	.LVL29:
 212              		.loc 1 171 0
 213              		.thumb
 214 00ec 5EF8082C 		ldr	r2, [lr, #-8]
 215              	.LVL30:
 216              		.loc 1 174 0
 217 00f0 57F8085C 		ldr	r5, [r7, #-8]
 218              	.LVL31:
 219              		.loc 1 177 0
 220              	@ 177 "/home/sbcu/Dropbox/pcb-layouts/axo-on-discovery-board/axoloti/platform_linux/../CMSIS//DSP_L
 221 00f4 54FB1211 		smmlar r1, r4, r2, r1
 222              	@ 0 "" 2
 223              	.LVL32:
 224              		.loc 1 178 0
 225              	@ 178 "/home/sbcu/Dropbox/pcb-layouts/axo-on-discovery-board/axoloti/platform_linux/../CMSIS//DSP_L
 226 00f8 50FB1299 		smmlar r9, r0, r2, r9
 227              	@ 0 "" 2
 228              	.LVL33:
ARM GAS  /tmp/cc4Rwc55.s 			page 5


 229              		.loc 1 179 0
 230              	@ 179 "/home/sbcu/Dropbox/pcb-layouts/axo-on-discovery-board/axoloti/platform_linux/../CMSIS//DSP_L
 231 00fc 56FB1288 		smmlar r8, r6, r2, r8
 232              	@ 0 "" 2
 233              	.LVL34:
 234              		.loc 1 180 0
 235              	@ 180 "/home/sbcu/Dropbox/pcb-layouts/axo-on-discovery-board/axoloti/platform_linux/../CMSIS//DSP_L
 236 0100 55FB1232 		smmlar r2, r5, r2, r3
 237              	@ 0 "" 2
 238              	.LVL35:
 239              		.loc 1 183 0
 240              		.thumb
 241 0104 5EF8043C 		ldr	r3, [lr, #-4]
 242              	.LVL36:
 243              		.loc 1 186 0
 244 0108 57F8044C 		ldr	r4, [r7, #-4]
 245              	.LVL37:
 246              		.loc 1 189 0
 247              	@ 189 "/home/sbcu/Dropbox/pcb-layouts/axo-on-discovery-board/axoloti/platform_linux/../CMSIS//DSP_L
 248 010c 50FB1311 		smmlar r1, r0, r3, r1
 249              	@ 0 "" 2
 250              	.LVL38:
 251              		.loc 1 190 0
 252              	@ 190 "/home/sbcu/Dropbox/pcb-layouts/axo-on-discovery-board/axoloti/platform_linux/../CMSIS//DSP_L
 253 0110 56FB1399 		smmlar r9, r6, r3, r9
 254              	@ 0 "" 2
 255              	.LVL39:
 256              		.loc 1 191 0
 257              	@ 191 "/home/sbcu/Dropbox/pcb-layouts/axo-on-discovery-board/axoloti/platform_linux/../CMSIS//DSP_L
 258 0114 55FB1388 		smmlar r8, r5, r3, r8
 259              	@ 0 "" 2
 260              	.LVL40:
 261              		.loc 1 192 0
 262              	@ 192 "/home/sbcu/Dropbox/pcb-layouts/axo-on-discovery-board/axoloti/platform_linux/../CMSIS//DSP_L
 263 0118 54FB1323 		smmlar r3, r4, r3, r2
 264              	@ 0 "" 2
 265              	.LVL41:
 266              		.loc 1 138 0
 267              		.thumb
 268 011c BBF1010B 		subs	fp, fp, #1
 269              	.LVL42:
 270 0120 0EF1100E 		add	lr, lr, #16
 271              	.LVL43:
 272 0124 07F11007 		add	r7, r7, #16
 273 0128 C8D1     		bne	.L4
 274 012a 089A     		ldr	r2, [sp, #32]
 275 012c 0098     		ldr	r0, [sp]
 276              	.LVL44:
 277              		.loc 1 195 0
 278 012e DDF81CC0 		ldr	ip, [sp, #28]
 279 0132 02EB000E 		add	lr, r2, r0
 280              	.LVL45:
 281              	.L3:
 282              		.loc 1 205 0
 283 0136 069A     		ldr	r2, [sp, #24]
 284 0138 8AB1     		cbz	r2, .L5
 285 013a 1046     		mov	r0, r2
ARM GAS  /tmp/cc4Rwc55.s 			page 6


 286              	.LVL46:
 287              	.L6:
 288              		.loc 1 208 0
 289 013c 5CF8042B 		ldr	r2, [ip], #4
 290              	.LVL47:
 291              		.loc 1 211 0
 292 0140 5EF8047B 		ldr	r7, [lr], #4
 293              	.LVL48:
 294              		.loc 1 214 0
 295              	@ 214 "/home/sbcu/Dropbox/pcb-layouts/axo-on-discovery-board/axoloti/platform_linux/../CMSIS//DSP_L
 296 0144 56FB1211 		smmlar r1, r6, r2, r1
 297              	@ 0 "" 2
 298              	.LVL49:
 299              		.loc 1 215 0
 300              	@ 215 "/home/sbcu/Dropbox/pcb-layouts/axo-on-discovery-board/axoloti/platform_linux/../CMSIS//DSP_L
 301 0148 55FB1299 		smmlar r9, r5, r2, r9
 302              	@ 0 "" 2
 303              	.LVL50:
 304              		.loc 1 216 0
 305              	@ 216 "/home/sbcu/Dropbox/pcb-layouts/axo-on-discovery-board/axoloti/platform_linux/../CMSIS//DSP_L
 306 014c 54FB1288 		smmlar r8, r4, r2, r8
 307              	@ 0 "" 2
 308              	.LVL51:
 309              		.loc 1 217 0
 310              	@ 217 "/home/sbcu/Dropbox/pcb-layouts/axo-on-discovery-board/axoloti/platform_linux/../CMSIS//DSP_L
 311 0150 57FB1233 		smmlar r3, r7, r2, r3
 312              	@ 0 "" 2
 313              	.LVL52:
 314              		.loc 1 205 0
 315              		.thumb
 316 0154 0138     		subs	r0, r0, #1
 317              	.LVL53:
 318 0156 2E46     		mov	r6, r5
 319 0158 2546     		mov	r5, r4
 320              	.LVL54:
 321              		.loc 1 222 0
 322 015a 3C46     		mov	r4, r7
 323              	.LVL55:
 324              		.loc 1 205 0
 325 015c EED1     		bne	.L6
 326              	.LVL56:
 327              	.L5:
 328              		.loc 1 233 0
 329 015e 0398     		ldr	r0, [sp, #12]
 330              		.loc 1 236 0
 331 0160 5B00     		lsls	r3, r3, #1
 332              	.LVL57:
 333 0162 40F8043C 		str	r3, [r0, #-4]
 334 0166 019B     		ldr	r3, [sp, #4]
 335 0168 1033     		adds	r3, r3, #16
 336 016a 0193     		str	r3, [sp, #4]
 337 016c 5346     		mov	r3, r10
 338 016e 1033     		adds	r3, r3, #16
 339 0170 9A46     		mov	r10, r3
 340              	.LVL58:
 341 0172 009B     		ldr	r3, [sp]
 342              	.LVL59:
ARM GAS  /tmp/cc4Rwc55.s 			page 7


 343 0174 1033     		adds	r3, r3, #16
 344 0176 0093     		str	r3, [sp]
 345 0178 00F11003 		add	r3, r0, #16
 346 017c 0393     		str	r3, [sp, #12]
 347              		.loc 1 108 0
 348 017e 029B     		ldr	r3, [sp, #8]
 349              		.loc 1 233 0
 350 0180 4900     		lsls	r1, r1, #1
 351              	.LVL60:
 352              		.loc 1 234 0
 353 0182 4FEA4904 		lsl	r4, r9, #1
 354              	.LVL61:
 355              		.loc 1 235 0
 356 0186 4FEA4805 		lsl	r5, r8, #1
 357              	.LVL62:
 358              		.loc 1 108 0
 359 018a 013B     		subs	r3, r3, #1
 360              		.loc 1 233 0
 361 018c 40F8101C 		str	r1, [r0, #-16]
 362              		.loc 1 234 0
 363 0190 40F80C4C 		str	r4, [r0, #-12]
 364              		.loc 1 235 0
 365 0194 40F8085C 		str	r5, [r0, #-8]
 366              	.LVL63:
 367              		.loc 1 108 0
 368 0198 0293     		str	r3, [sp, #8]
 369 019a 7FF467AF 		bne	.L7
 370 019e 0E9B     		ldr	r3, [sp, #56]
 371              	.LVL64:
 372 01a0 4FEA031E 		lsl	lr, r3, #4
 373 01a4 099B     		ldr	r3, [sp, #36]
 374 01a6 7344     		add	r3, r3, lr
 375 01a8 0993     		str	r3, [sp, #36]
 376 01aa 0A9B     		ldr	r3, [sp, #40]
 377 01ac 7344     		add	r3, r3, lr
 378 01ae 0A93     		str	r3, [sp, #40]
 379 01b0 0B9B     		ldr	r3, [sp, #44]
 380 01b2 7344     		add	r3, r3, lr
 381 01b4 0B93     		str	r3, [sp, #44]
 382 01b6 0C9B     		ldr	r3, [sp, #48]
 383 01b8 9E44     		add	lr, lr, r3
 384              	.LVL65:
 385              	.L2:
 386              		.loc 1 247 0
 387 01ba 0F9B     		ldr	r3, [sp, #60]
 388 01bc 13F00308 		ands	r8, r3, #3
 389              	.LVL66:
 390 01c0 29D0     		beq	.L8
 391 01c2 099B     		ldr	r3, [sp, #36]
 392 01c4 CDF800E0 		str	lr, [sp]
 393 01c8 7646     		mov	r6, lr
 394 01ca DDF814A0 		ldr	r10, [sp, #20]
 395 01ce DDF834B0 		ldr	fp, [sp, #52]
 396 01d2 DDF828E0 		ldr	lr, [sp, #40]
 397              	.LVL67:
 398 01d6 DDF82C90 		ldr	r9, [sp, #44]
 399 01da A3F1040C 		sub	ip, r3, #4
ARM GAS  /tmp/cc4Rwc55.s 			page 8


 400 01de 4746     		mov	r7, r8
 401              	.LVL68:
 402              	.L10:
 403              		.loc 1 250 0
 404 01e0 5EF8043B 		ldr	r3, [lr], #4
 405              	.LVL69:
 406 01e4 4CF8043F 		str	r3, [ip, #4]!
 407              	.LVL70:
 408              		.loc 1 259 0
 409 01e8 5046     		mov	r0, r10
 410              		.loc 1 89 0
 411 01ea 5B46     		mov	r3, fp
 412              		.loc 1 250 0
 413 01ec 3146     		mov	r1, r6
 414              		.loc 1 253 0
 415 01ee 0022     		movs	r2, #0
 416              	.LVL71:
 417              	.L9:
 418              		.loc 1 266 0 discriminator 1
 419 01f0 51F8044B 		ldr	r4, [r1], #4
 420              	.LVL72:
 421 01f4 50F8045B 		ldr	r5, [r0], #4
 422              	.LVL73:
 423              	@ 266 "/home/sbcu/Dropbox/pcb-layouts/axo-on-discovery-board/axoloti/platform_linux/../CMSIS//DSP_L
 424 01f8 54FB1522 		smmlar r2, r4, r5, r2
 425              	@ 0 "" 2
 426              	.LVL74:
 427              		.loc 1 268 0 discriminator 1
 428              		.thumb
 429 01fc 013B     		subs	r3, r3, #1
 430              	.LVL75:
 431 01fe F7D1     		bne	.L9
 432              		.loc 1 272 0
 433 0200 5200     		lsls	r2, r2, #1
 434              	.LVL76:
 435              		.loc 1 247 0
 436 0202 013F     		subs	r7, r7, #1
 437              	.LVL77:
 438              		.loc 1 272 0
 439 0204 49F8042B 		str	r2, [r9], #4
 440              	.LVL78:
 441              		.loc 1 275 0
 442 0208 06F10406 		add	r6, r6, #4
 443              	.LVL79:
 444              		.loc 1 247 0
 445 020c E8D1     		bne	.L10
 446 020e DDF800E0 		ldr	lr, [sp]
 447              	.LVL80:
 448 0212 0EEB880E 		add	lr, lr, r8, lsl #2
 449              	.LVL81:
 450              	.L8:
 451              		.loc 1 292 0
 452 0216 0D9B     		ldr	r3, [sp, #52]
 453 0218 013B     		subs	r3, r3, #1
 454              	.LVL82:
 455 021a 07D0     		beq	.L1
 456 021c 0C9A     		ldr	r2, [sp, #48]
ARM GAS  /tmp/cc4Rwc55.s 			page 9


 457 021e 043A     		subs	r2, r2, #4
 458              	.LVL83:
 459              	.L12:
 460              		.loc 1 294 0
 461 0220 5EF8041B 		ldr	r1, [lr], #4
 462              	.LVL84:
 463 0224 42F8041F 		str	r1, [r2, #4]!
 464              		.loc 1 292 0
 465 0228 013B     		subs	r3, r3, #1
 466              	.LVL85:
 467 022a F9D1     		bne	.L12
 468              	.LVL86:
 469              	.L1:
 470              		.loc 1 301 0
 471 022c 11B0     		add	sp, sp, #68
 472              		.cfi_remember_state
 473              		.cfi_def_cfa_offset 36
 474              		@ sp needed
 475 022e BDE8F08F 		pop	{r4, r5, r6, r7, r8, r9, r10, fp, pc}
 476              	.LVL87:
 477              	.L15:
 478              		.cfi_restore_state
 479              		.loc 1 120 0
 480 0232 0499     		ldr	r1, [sp, #16]
 481              		.loc 1 126 0
 482 0234 DDF814C0 		ldr	ip, [sp, #20]
 483              		.loc 1 120 0
 484 0238 0B46     		mov	r3, r1
 485              		.loc 1 119 0
 486 023a 8846     		mov	r8, r1
 487              		.loc 1 118 0
 488 023c 8946     		mov	r9, r1
 489 023e 7AE7     		b	.L3
 490              	.LVL88:
 491              	.L14:
 492              		.loc 1 81 0
 493 0240 DDF830E0 		ldr	lr, [sp, #48]
 494              	.LVL89:
 495 0244 B9E7     		b	.L2
 496              		.cfi_endproc
 497              	.LFE135:
 498              		.size	arm_fir_fast_q31, .-arm_fir_fast_q31
 499              	.Letext0:
 500              		.file 2 "/home/sbcu/Dropbox/pcb-layouts/axo-on-discovery-board/axoloti/platform_linux/arm-none-eab
 501              		.file 3 "/home/sbcu/Dropbox/pcb-layouts/axo-on-discovery-board/axoloti/platform_linux/arm-none-eab
 502              		.file 4 "/home/sbcu/Dropbox/pcb-layouts/axo-on-discovery-board/axoloti/platform_linux/../CMSIS//DS