ARM GAS  /tmp/ccOyiyKf.s 			page 1


   1              		.syntax unified
   2              		.cpu cortex-m4
   3              		.eabi_attribute 27, 1
   4              		.eabi_attribute 28, 1
   5              		.fpu fpv4-sp-d16
   6              		.eabi_attribute 20, 1
   7              		.eabi_attribute 21, 1
   8              		.eabi_attribute 23, 3
   9              		.eabi_attribute 24, 1
  10              		.eabi_attribute 25, 1
  11              		.eabi_attribute 26, 1
  12              		.eabi_attribute 30, 2
  13              		.eabi_attribute 34, 1
  14              		.eabi_attribute 18, 4
  15              		.thumb
  16              		.file	"arm_cfft_radix2_init_f32.c"
  17              		.text
  18              	.Ltext0:
  19              		.cfi_sections	.debug_frame
  20              		.align	2
  21              		.p2align 4,,15
  22              		.global	arm_cfft_radix2_init_f32
  23              		.thumb
  24              		.thumb_func
  25              		.type	arm_cfft_radix2_init_f32, %function
  26              	arm_cfft_radix2_init_f32:
  27              	.LFB135:
  28              		.file 1 "/d_drive/axoloti/platform_linux/../CMSIS//DSP_Lib/Source/TransformFunctions/arm_cfft_radi
  29              		.loc 1 81 0
  30              		.cfi_startproc
  31              		@ args = 0, pretend = 0, frame = 0
  32              		@ frame_needed = 0, uses_anonymous_args = 0
  33              		@ link register save eliminated.
  34              	.LVL0:
  35 0000 10B4     		push	{r4}
  36              		.cfi_def_cfa_offset 4
  37              		.cfi_offset 4, -4
  38              		.loc 1 98 0
  39 0002 B1F5807F 		cmp	r1, #256
  40              		.loc 1 89 0
  41 0006 4C4C     		ldr	r4, .L21
  42              		.loc 1 92 0
  43 0008 8270     		strb	r2, [r0, #2]
  44              		.loc 1 95 0
  45 000a C370     		strb	r3, [r0, #3]
  46              		.loc 1 86 0
  47 000c 0180     		strh	r1, [r0]	@ movhi
  48              		.loc 1 89 0
  49 000e 4460     		str	r4, [r0, #4]
  50              		.loc 1 98 0
  51 0010 72D0     		beq	.L3
  52 0012 17D9     		bls	.L18
  53 0014 B1F5806F 		cmp	r1, #1024
  54 0018 7BD0     		beq	.L10
  55 001a 50D9     		bls	.L19
  56 001c B1F5006F 		cmp	r1, #2048
  57 0020 30D0     		beq	.L13
ARM GAS  /tmp/ccOyiyKf.s 			page 2


  58 0022 B1F5805F 		cmp	r1, #4096
  59 0026 40F08180 		bne	.L15
  60              		.loc 1 111 0
  61 002a 4FF06653 		mov	r3, #964689920
  62              	.LVL1:
  63 002e 0361     		str	r3, [r0, #16]	@ float
  64              		.loc 1 109 0
  65 0030 424A     		ldr	r2, .L21+4
  66              	.LVL2:
  67 0032 8260     		str	r2, [r0, #8]
  68              		.loc 1 105 0
  69 0034 0123     		movs	r3, #1
  70 0036 8381     		strh	r3, [r0, #12]	@ movhi
  71              		.loc 1 107 0
  72 0038 C381     		strh	r3, [r0, #14]	@ movhi
  73              		.loc 1 83 0
  74 003a 0020     		movs	r0, #0
  75              	.LVL3:
  76              		.loc 1 201 0
  77 003c 40B2     		sxtb	r0, r0
  78 003e 5DF8044B 		ldr	r4, [sp], #4
  79              		.cfi_remember_state
  80              		.cfi_restore 4
  81              		.cfi_def_cfa_offset 0
  82 0042 7047     		bx	lr
  83              	.LVL4:
  84              	.L18:
  85              		.cfi_restore_state
  86              		.loc 1 98 0
  87 0044 2029     		cmp	r1, #32
  88 0046 4AD0     		beq	.L5
  89 0048 29D9     		bls	.L20
  90 004a 4029     		cmp	r1, #64
  91 004c 0ED0     		beq	.L8
  92 004e 8029     		cmp	r1, #128
  93 0050 6CD1     		bne	.L15
  94              		.loc 1 166 0
  95 0052 4FF07053 		mov	r3, #1006632960
  96              	.LVL5:
  97 0056 0361     		str	r3, [r0, #16]	@ float
  98              		.loc 1 165 0
  99 0058 394A     		ldr	r2, .L21+8
 100              	.LVL6:
 101 005a 8260     		str	r2, [r0, #8]
 102              		.loc 1 163 0
 103 005c 2023     		movs	r3, #32
 104 005e 8381     		strh	r3, [r0, #12]	@ movhi
 105              		.loc 1 164 0
 106 0060 C381     		strh	r3, [r0, #14]	@ movhi
 107              		.loc 1 83 0
 108 0062 0020     		movs	r0, #0
 109              	.LVL7:
 110              		.loc 1 201 0
 111 0064 40B2     		sxtb	r0, r0
 112 0066 5DF8044B 		ldr	r4, [sp], #4
 113              		.cfi_remember_state
 114              		.cfi_restore 4
ARM GAS  /tmp/ccOyiyKf.s 			page 3


 115              		.cfi_def_cfa_offset 0
 116 006a 7047     		bx	lr
 117              	.LVL8:
 118              	.L8:
 119              		.cfi_restore_state
 120              		.loc 1 174 0
 121 006c 4FF07252 		mov	r2, #1015021568
 122              	.LVL9:
 123              		.loc 1 173 0
 124 0070 344B     		ldr	r3, .L21+12
 125              	.LVL10:
 126              		.loc 1 171 0
 127 0072 8181     		strh	r1, [r0, #12]	@ movhi
 128              		.loc 1 172 0
 129 0074 C181     		strh	r1, [r0, #14]	@ movhi
 130              		.loc 1 174 0
 131 0076 0261     		str	r2, [r0, #16]	@ float
 132              		.loc 1 173 0
 133 0078 8360     		str	r3, [r0, #8]
 134              		.loc 1 83 0
 135 007a 0020     		movs	r0, #0
 136              	.LVL11:
 137              		.loc 1 201 0
 138 007c 40B2     		sxtb	r0, r0
 139 007e 5DF8044B 		ldr	r4, [sp], #4
 140              		.cfi_remember_state
 141              		.cfi_restore 4
 142              		.cfi_def_cfa_offset 0
 143 0082 7047     		bx	lr
 144              	.LVL12:
 145              	.L13:
 146              		.cfi_restore_state
 147              		.loc 1 124 0
 148 0084 4FF06853 		mov	r3, #973078528
 149              	.LVL13:
 150 0088 0361     		str	r3, [r0, #16]	@ float
 151              		.loc 1 122 0
 152 008a 2F4A     		ldr	r2, .L21+16
 153              	.LVL14:
 154 008c 8260     		str	r2, [r0, #8]
 155              		.loc 1 118 0
 156 008e 0223     		movs	r3, #2
 157 0090 8381     		strh	r3, [r0, #12]	@ movhi
 158              		.loc 1 120 0
 159 0092 C381     		strh	r3, [r0, #14]	@ movhi
 160              		.loc 1 83 0
 161 0094 0020     		movs	r0, #0
 162              	.LVL15:
 163              		.loc 1 201 0
 164 0096 40B2     		sxtb	r0, r0
 165 0098 5DF8044B 		ldr	r4, [sp], #4
 166              		.cfi_remember_state
 167              		.cfi_restore 4
 168              		.cfi_def_cfa_offset 0
 169 009c 7047     		bx	lr
 170              	.LVL16:
 171              	.L20:
ARM GAS  /tmp/ccOyiyKf.s 			page 4


 172              		.cfi_restore_state
 173              		.loc 1 98 0
 174 009e 1029     		cmp	r1, #16
 175 00a0 44D1     		bne	.L15
 176              		.loc 1 190 0
 177 00a2 4FF07653 		mov	r3, #1031798784
 178              	.LVL17:
 179 00a6 0361     		str	r3, [r0, #16]	@ float
 180              		.loc 1 189 0
 181 00a8 284A     		ldr	r2, .L21+20
 182              	.LVL18:
 183 00aa 8260     		str	r2, [r0, #8]
 184              		.loc 1 187 0
 185 00ac 4FF48073 		mov	r3, #256
 186 00b0 8381     		strh	r3, [r0, #12]	@ movhi
 187              		.loc 1 188 0
 188 00b2 C381     		strh	r3, [r0, #14]	@ movhi
 189              		.loc 1 83 0
 190 00b4 0020     		movs	r0, #0
 191              	.LVL19:
 192              		.loc 1 201 0
 193 00b6 40B2     		sxtb	r0, r0
 194 00b8 5DF8044B 		ldr	r4, [sp], #4
 195              		.cfi_remember_state
 196              		.cfi_restore 4
 197              		.cfi_def_cfa_offset 0
 198 00bc 7047     		bx	lr
 199              	.LVL20:
 200              	.L19:
 201              		.cfi_restore_state
 202              		.loc 1 98 0
 203 00be B1F5007F 		cmp	r1, #512
 204 00c2 33D1     		bne	.L15
 205              		.loc 1 150 0
 206 00c4 4FF06C53 		mov	r3, #989855744
 207              	.LVL21:
 208 00c8 0361     		str	r3, [r0, #16]	@ float
 209              		.loc 1 148 0
 210 00ca 214A     		ldr	r2, .L21+24
 211              	.LVL22:
 212 00cc 8260     		str	r2, [r0, #8]
 213              		.loc 1 144 0
 214 00ce 0823     		movs	r3, #8
 215 00d0 8381     		strh	r3, [r0, #12]	@ movhi
 216              		.loc 1 146 0
 217 00d2 C381     		strh	r3, [r0, #14]	@ movhi
 218              		.loc 1 83 0
 219 00d4 0020     		movs	r0, #0
 220              	.LVL23:
 221              		.loc 1 201 0
 222 00d6 40B2     		sxtb	r0, r0
 223 00d8 5DF8044B 		ldr	r4, [sp], #4
 224              		.cfi_remember_state
 225              		.cfi_restore 4
 226              		.cfi_def_cfa_offset 0
 227 00dc 7047     		bx	lr
 228              	.LVL24:
ARM GAS  /tmp/ccOyiyKf.s 			page 5


 229              	.L5:
 230              		.cfi_restore_state
 231              		.loc 1 182 0
 232 00de 4FF07453 		mov	r3, #1023410176
 233              	.LVL25:
 234 00e2 0361     		str	r3, [r0, #16]	@ float
 235              		.loc 1 181 0
 236 00e4 1B4A     		ldr	r2, .L21+28
 237              	.LVL26:
 238 00e6 8260     		str	r2, [r0, #8]
 239              		.loc 1 179 0
 240 00e8 8023     		movs	r3, #128
 241 00ea 8381     		strh	r3, [r0, #12]	@ movhi
 242              		.loc 1 180 0
 243 00ec C381     		strh	r3, [r0, #14]	@ movhi
 244              		.loc 1 83 0
 245 00ee 0020     		movs	r0, #0
 246              	.LVL27:
 247              		.loc 1 201 0
 248 00f0 40B2     		sxtb	r0, r0
 249 00f2 5DF8044B 		ldr	r4, [sp], #4
 250              		.cfi_remember_state
 251              		.cfi_restore 4
 252              		.cfi_def_cfa_offset 0
 253 00f6 7047     		bx	lr
 254              	.LVL28:
 255              	.L3:
 256              		.cfi_restore_state
 257              		.loc 1 158 0
 258 00f8 4FF06E53 		mov	r3, #998244352
 259              	.LVL29:
 260 00fc 0361     		str	r3, [r0, #16]	@ float
 261              		.loc 1 157 0
 262 00fe 164A     		ldr	r2, .L21+32
 263              	.LVL30:
 264 0100 8260     		str	r2, [r0, #8]
 265              		.loc 1 155 0
 266 0102 1023     		movs	r3, #16
 267 0104 8381     		strh	r3, [r0, #12]	@ movhi
 268              		.loc 1 156 0
 269 0106 C381     		strh	r3, [r0, #14]	@ movhi
 270              		.loc 1 83 0
 271 0108 0020     		movs	r0, #0
 272              	.LVL31:
 273              		.loc 1 201 0
 274 010a 40B2     		sxtb	r0, r0
 275 010c 5DF8044B 		ldr	r4, [sp], #4
 276              		.cfi_remember_state
 277              		.cfi_restore 4
 278              		.cfi_def_cfa_offset 0
 279 0110 7047     		bx	lr
 280              	.LVL32:
 281              	.L10:
 282              		.cfi_restore_state
 283              		.loc 1 137 0
 284 0112 4FF06A53 		mov	r3, #981467136
 285              	.LVL33:
ARM GAS  /tmp/ccOyiyKf.s 			page 6


 286 0116 0361     		str	r3, [r0, #16]	@ float
 287              		.loc 1 135 0
 288 0118 104A     		ldr	r2, .L21+36
 289              	.LVL34:
 290 011a 8260     		str	r2, [r0, #8]
 291              		.loc 1 131 0
 292 011c 0423     		movs	r3, #4
 293 011e 8381     		strh	r3, [r0, #12]	@ movhi
 294              		.loc 1 133 0
 295 0120 C381     		strh	r3, [r0, #14]	@ movhi
 296              		.loc 1 83 0
 297 0122 0020     		movs	r0, #0
 298              	.LVL35:
 299              		.loc 1 201 0
 300 0124 40B2     		sxtb	r0, r0
 301 0126 5DF8044B 		ldr	r4, [sp], #4
 302              		.cfi_remember_state
 303              		.cfi_restore 4
 304              		.cfi_def_cfa_offset 0
 305 012a 7047     		bx	lr
 306              	.LVL36:
 307              	.L15:
 308              		.cfi_restore_state
 309              		.loc 1 196 0
 310 012c FF20     		movs	r0, #255
 311              	.LVL37:
 312              		.loc 1 201 0
 313 012e 40B2     		sxtb	r0, r0
 314 0130 5DF8044B 		ldr	r4, [sp], #4
 315              		.cfi_restore 4
 316              		.cfi_def_cfa_offset 0
 317 0134 7047     		bx	lr
 318              	.L22:
 319 0136 00BF     		.align	2
 320              	.L21:
 321 0138 00000000 		.word	twiddleCoef_4096
 322 013c 00000000 		.word	armBitRevTable
 323 0140 3E000000 		.word	armBitRevTable+62
 324 0144 7E000000 		.word	armBitRevTable+126
 325 0148 02000000 		.word	armBitRevTable+2
 326 014c FE010000 		.word	armBitRevTable+510
 327 0150 0E000000 		.word	armBitRevTable+14
 328 0154 FE000000 		.word	armBitRevTable+254
 329 0158 1E000000 		.word	armBitRevTable+30
 330 015c 06000000 		.word	armBitRevTable+6
 331              		.cfi_endproc
 332              	.LFE135:
 333              		.size	arm_cfft_radix2_init_f32, .-arm_cfft_radix2_init_f32
 334              	.Letext0:
 335              		.file 2 "/d_drive/axoloti/platform_linux/arm-none-eabi/include/machine/_default_types.h"
 336              		.file 3 "/d_drive/axoloti/platform_linux/arm-none-eabi/include/sys/_stdint.h"
 337              		.file 4 "/d_drive/axoloti/platform_linux/../CMSIS//DSP_Lib/Include/arm_math.h"
 338              		.file 5 "/d_drive/axoloti/platform_linux/../CMSIS//DSP_Lib/Include/arm_common_tables.h"
 339              		.section	.debug_info,"",%progbits
 340              	.Ldebug_info0:
 341 0000 32020000 		.4byte	0x232
 342 0004 0400     		.2byte	0x4
ARM GAS  /tmp/ccOyiyKf.s 			page 7


 343 0006 00000000 		.4byte	.Ldebug_abbrev0
 344 000a 04       		.byte	0x4
 345 000b 01       		.uleb128 0x1
 346 000c 00000000 		.4byte	.LASF38
 347 0010 01       		.byte	0x1
 348 0011 0C030000 		.4byte	.LASF39
 349 0015 00000000 		.4byte	.Ltext0
 350 0019 60010000 		.4byte	.Letext0-.Ltext0
 351 001d 00000000 		.4byte	.Ldebug_line0
 352 0021 02       		.uleb128 0x2
 353 0022 01       		.byte	0x1
 354 0023 06       		.byte	0x6
 355 0024 00030000 		.4byte	.LASF0
 356 0028 03       		.uleb128 0x3
 357 0029 12010000 		.4byte	.LASF3
 358 002d 02       		.byte	0x2
 359 002e 1D       		.byte	0x1d
 360 002f 33000000 		.4byte	0x33
 361 0033 02       		.uleb128 0x2
 362 0034 01       		.byte	0x1
 363 0035 08       		.byte	0x8
 364 0036 8A010000 		.4byte	.LASF1
 365 003a 02       		.uleb128 0x2
 366 003b 02       		.byte	0x2
 367 003c 05       		.byte	0x5
 368 003d D8020000 		.4byte	.LASF2
 369 0041 03       		.uleb128 0x3
 370 0042 04020000 		.4byte	.LASF4
 371 0046 02       		.byte	0x2
 372 0047 2B       		.byte	0x2b
 373 0048 4C000000 		.4byte	0x4c
 374 004c 02       		.uleb128 0x2
 375 004d 02       		.byte	0x2
 376 004e 07       		.byte	0x7
 377 004f D4010000 		.4byte	.LASF5
 378 0053 02       		.uleb128 0x2
 379 0054 04       		.byte	0x4
 380 0055 05       		.byte	0x5
 381 0056 EB020000 		.4byte	.LASF6
 382 005a 02       		.uleb128 0x2
 383 005b 04       		.byte	0x4
 384 005c 07       		.byte	0x7
 385 005d C2010000 		.4byte	.LASF7
 386 0061 02       		.uleb128 0x2
 387 0062 08       		.byte	0x8
 388 0063 05       		.byte	0x5
 389 0064 A1020000 		.4byte	.LASF8
 390 0068 02       		.uleb128 0x2
 391 0069 08       		.byte	0x8
 392 006a 07       		.byte	0x7
 393 006b 44020000 		.4byte	.LASF9
 394 006f 04       		.uleb128 0x4
 395 0070 04       		.byte	0x4
 396 0071 05       		.byte	0x5
 397 0072 696E7400 		.ascii	"int\000"
 398 0076 02       		.uleb128 0x2
 399 0077 04       		.byte	0x4
ARM GAS  /tmp/ccOyiyKf.s 			page 8


 400 0078 07       		.byte	0x7
 401 0079 37020000 		.4byte	.LASF10
 402 007d 03       		.uleb128 0x3
 403 007e 5B020000 		.4byte	.LASF11
 404 0082 03       		.byte	0x3
 405 0083 14       		.byte	0x14
 406 0084 28000000 		.4byte	0x28
 407 0088 03       		.uleb128 0x3
 408 0089 E2020000 		.4byte	.LASF12
 409 008d 03       		.byte	0x3
 410 008e 1A       		.byte	0x1a
 411 008f 41000000 		.4byte	0x41
 412 0093 02       		.uleb128 0x2
 413 0094 04       		.byte	0x4
 414 0095 07       		.byte	0x7
 415 0096 98020000 		.4byte	.LASF13
 416 009a 02       		.uleb128 0x2
 417 009b 01       		.byte	0x1
 418 009c 08       		.byte	0x8
 419 009d B8020000 		.4byte	.LASF14
 420 00a1 02       		.uleb128 0x2
 421 00a2 08       		.byte	0x8
 422 00a3 04       		.byte	0x4
 423 00a4 0F020000 		.4byte	.LASF15
 424 00a8 02       		.uleb128 0x2
 425 00a9 04       		.byte	0x4
 426 00aa 04       		.byte	0x4
 427 00ab 84010000 		.4byte	.LASF16
 428 00af 02       		.uleb128 0x2
 429 00b0 08       		.byte	0x8
 430 00b1 04       		.byte	0x4
 431 00b2 F4020000 		.4byte	.LASF17
 432 00b6 05       		.uleb128 0x5
 433 00b7 01       		.byte	0x1
 434 00b8 04       		.byte	0x4
 435 00b9 8901     		.2byte	0x189
 436 00bb EA000000 		.4byte	0xea
 437 00bf 06       		.uleb128 0x6
 438 00c0 C7020000 		.4byte	.LASF18
 439 00c4 00       		.sleb128 0
 440 00c5 06       		.uleb128 0x6
 441 00c6 16020000 		.4byte	.LASF19
 442 00ca 7F       		.sleb128 -1
 443 00cb 06       		.uleb128 0x6
 444 00cc 82020000 		.4byte	.LASF20
 445 00d0 7E       		.sleb128 -2
 446 00d1 06       		.uleb128 0x6
 447 00d2 60010000 		.4byte	.LASF21
 448 00d6 7D       		.sleb128 -3
 449 00d7 06       		.uleb128 0x6
 450 00d8 72020000 		.4byte	.LASF22
 451 00dc 7C       		.sleb128 -4
 452 00dd 06       		.uleb128 0x6
 453 00de 7E030000 		.4byte	.LASF23
 454 00e2 7B       		.sleb128 -5
 455 00e3 06       		.uleb128 0x6
 456 00e4 EE010000 		.4byte	.LASF24
ARM GAS  /tmp/ccOyiyKf.s 			page 9


 457 00e8 7A       		.sleb128 -6
 458 00e9 00       		.byte	0
 459 00ea 07       		.uleb128 0x7
 460 00eb 73030000 		.4byte	.LASF25
 461 00ef 04       		.byte	0x4
 462 00f0 9101     		.2byte	0x191
 463 00f2 B6000000 		.4byte	0xb6
 464 00f6 07       		.uleb128 0x7
 465 00f7 BD020000 		.4byte	.LASF26
 466 00fb 04       		.byte	0x4
 467 00fc AA01     		.2byte	0x1aa
 468 00fe A8000000 		.4byte	0xa8
 469 0102 08       		.uleb128 0x8
 470 0103 04       		.byte	0x4
 471 0104 F6000000 		.4byte	0xf6
 472 0108 08       		.uleb128 0x8
 473 0109 04       		.byte	0x4
 474 010a 88000000 		.4byte	0x88
 475 010e 09       		.uleb128 0x9
 476 010f 14       		.byte	0x14
 477 0110 04       		.byte	0x4
 478 0111 4B08     		.2byte	0x84b
 479 0113 80010000 		.4byte	0x180
 480 0117 0A       		.uleb128 0xa
 481 0118 E7010000 		.4byte	.LASF27
 482 011c 04       		.byte	0x4
 483 011d 4D08     		.2byte	0x84d
 484 011f 88000000 		.4byte	0x88
 485 0123 00       		.byte	0
 486 0124 0A       		.uleb128 0xa
 487 0125 2E020000 		.4byte	.LASF28
 488 0129 04       		.byte	0x4
 489 012a 4E08     		.2byte	0x84e
 490 012c 7D000000 		.4byte	0x7d
 491 0130 02       		.byte	0x2
 492 0131 0A       		.uleb128 0xa
 493 0132 63020000 		.4byte	.LASF29
 494 0136 04       		.byte	0x4
 495 0137 4F08     		.2byte	0x84f
 496 0139 7D000000 		.4byte	0x7d
 497 013d 03       		.byte	0x3
 498 013e 0A       		.uleb128 0xa
 499 013f AF020000 		.4byte	.LASF30
 500 0143 04       		.byte	0x4
 501 0144 5008     		.2byte	0x850
 502 0146 02010000 		.4byte	0x102
 503 014a 04       		.byte	0x4
 504 014b 0A       		.uleb128 0xa
 505 014c 77010000 		.4byte	.LASF31
 506 0150 04       		.byte	0x4
 507 0151 5108     		.2byte	0x851
 508 0153 08010000 		.4byte	0x108
 509 0157 08       		.byte	0x8
 510 0158 0A       		.uleb128 0xa
 511 0159 48010000 		.4byte	.LASF32
 512 015d 04       		.byte	0x4
 513 015e 5208     		.2byte	0x852
ARM GAS  /tmp/ccOyiyKf.s 			page 10


 514 0160 88000000 		.4byte	0x88
 515 0164 0C       		.byte	0xc
 516 0165 0A       		.uleb128 0xa
 517 0166 98010000 		.4byte	.LASF33
 518 016a 04       		.byte	0x4
 519 016b 5308     		.2byte	0x853
 520 016d 88000000 		.4byte	0x88
 521 0171 0E       		.byte	0xe
 522 0172 0A       		.uleb128 0xa
 523 0173 B6010000 		.4byte	.LASF34
 524 0177 04       		.byte	0x4
 525 0178 5408     		.2byte	0x854
 526 017a F6000000 		.4byte	0xf6
 527 017e 10       		.byte	0x10
 528 017f 00       		.byte	0
 529 0180 07       		.uleb128 0x7
 530 0181 2B010000 		.4byte	.LASF35
 531 0185 04       		.byte	0x4
 532 0186 5508     		.2byte	0x855
 533 0188 0E010000 		.4byte	0x10e
 534 018c 0B       		.uleb128 0xb
 535 018d F9000000 		.4byte	.LASF40
 536 0191 01       		.byte	0x1
 537 0192 4C       		.byte	0x4c
 538 0193 EA000000 		.4byte	0xea
 539 0197 00000000 		.4byte	.LFB135
 540 019b 60010000 		.4byte	.LFE135-.LFB135
 541 019f 01       		.uleb128 0x1
 542 01a0 9C       		.byte	0x9c
 543 01a1 ED010000 		.4byte	0x1ed
 544 01a5 0C       		.uleb128 0xc
 545 01a6 5300     		.ascii	"S\000"
 546 01a8 01       		.byte	0x1
 547 01a9 4D       		.byte	0x4d
 548 01aa ED010000 		.4byte	0x1ed
 549 01ae 00000000 		.4byte	.LLST0
 550 01b2 0D       		.uleb128 0xd
 551 01b3 E7010000 		.4byte	.LASF27
 552 01b7 01       		.byte	0x1
 553 01b8 4E       		.byte	0x4e
 554 01b9 88000000 		.4byte	0x88
 555 01bd 01       		.uleb128 0x1
 556 01be 51       		.byte	0x51
 557 01bf 0E       		.uleb128 0xe
 558 01c0 2E020000 		.4byte	.LASF28
 559 01c4 01       		.byte	0x1
 560 01c5 4F       		.byte	0x4f
 561 01c6 7D000000 		.4byte	0x7d
 562 01ca 02010000 		.4byte	.LLST1
 563 01ce 0E       		.uleb128 0xe
 564 01cf 63020000 		.4byte	.LASF29
 565 01d3 01       		.byte	0x1
 566 01d4 50       		.byte	0x50
 567 01d5 7D000000 		.4byte	0x7d
 568 01d9 6B020000 		.4byte	.LLST2
 569 01dd 0F       		.uleb128 0xf
 570 01de 59010000 		.4byte	.LASF41
ARM GAS  /tmp/ccOyiyKf.s 			page 11


 571 01e2 01       		.byte	0x1
 572 01e3 53       		.byte	0x53
 573 01e4 EA000000 		.4byte	0xea
 574 01e8 D4030000 		.4byte	.LLST3
 575 01ec 00       		.byte	0
 576 01ed 08       		.uleb128 0x8
 577 01ee 04       		.byte	0x4
 578 01ef 80010000 		.4byte	0x180
 579 01f3 10       		.uleb128 0x10
 580 01f4 88000000 		.4byte	0x88
 581 01f8 04020000 		.4byte	0x204
 582 01fc 11       		.uleb128 0x11
 583 01fd 93000000 		.4byte	0x93
 584 0201 FF03     		.2byte	0x3ff
 585 0203 00       		.byte	0
 586 0204 12       		.uleb128 0x12
 587 0205 1C010000 		.4byte	.LASF36
 588 0209 05       		.byte	0x5
 589 020a 2E       		.byte	0x2e
 590 020b 0F020000 		.4byte	0x20f
 591 020f 13       		.uleb128 0x13
 592 0210 F3010000 		.4byte	0x1f3
 593 0214 10       		.uleb128 0x10
 594 0215 F6000000 		.4byte	0xf6
 595 0219 25020000 		.4byte	0x225
 596 021d 11       		.uleb128 0x11
 597 021e 93000000 		.4byte	0x93
 598 0222 FF1F     		.2byte	0x1fff
 599 0224 00       		.byte	0
 600 0225 12       		.uleb128 0x12
 601 0226 A5010000 		.4byte	.LASF37
 602 022a 05       		.byte	0x5
 603 022b 39       		.byte	0x39
 604 022c 30020000 		.4byte	0x230
 605 0230 13       		.uleb128 0x13
 606 0231 14020000 		.4byte	0x214
 607 0235 00       		.byte	0
 608              		.section	.debug_abbrev,"",%progbits
 609              	.Ldebug_abbrev0:
 610 0000 01       		.uleb128 0x1
 611 0001 11       		.uleb128 0x11
 612 0002 01       		.byte	0x1
 613 0003 25       		.uleb128 0x25
 614 0004 0E       		.uleb128 0xe
 615 0005 13       		.uleb128 0x13
 616 0006 0B       		.uleb128 0xb
 617 0007 03       		.uleb128 0x3
 618 0008 0E       		.uleb128 0xe
 619 0009 11       		.uleb128 0x11
 620 000a 01       		.uleb128 0x1
 621 000b 12       		.uleb128 0x12
 622 000c 06       		.uleb128 0x6
 623 000d 10       		.uleb128 0x10
 624 000e 17       		.uleb128 0x17
 625 000f 00       		.byte	0
 626 0010 00       		.byte	0
 627 0011 02       		.uleb128 0x2
ARM GAS  /tmp/ccOyiyKf.s 			page 12


 628 0012 24       		.uleb128 0x24
 629 0013 00       		.byte	0
 630 0014 0B       		.uleb128 0xb
 631 0015 0B       		.uleb128 0xb
 632 0016 3E       		.uleb128 0x3e
 633 0017 0B       		.uleb128 0xb
 634 0018 03       		.uleb128 0x3
 635 0019 0E       		.uleb128 0xe
 636 001a 00       		.byte	0
 637 001b 00       		.byte	0
 638 001c 03       		.uleb128 0x3
 639 001d 16       		.uleb128 0x16
 640 001e 00       		.byte	0
 641 001f 03       		.uleb128 0x3
 642 0020 0E       		.uleb128 0xe
 643 0021 3A       		.uleb128 0x3a
 644 0022 0B       		.uleb128 0xb
 645 0023 3B       		.uleb128 0x3b
 646 0024 0B       		.uleb128 0xb
 647 0025 49       		.uleb128 0x49
 648 0026 13       		.uleb128 0x13
 649 0027 00       		.byte	0
 650 0028 00       		.byte	0
 651 0029 04       		.uleb128 0x4
 652 002a 24       		.uleb128 0x24
 653 002b 00       		.byte	0
 654 002c 0B       		.uleb128 0xb
 655 002d 0B       		.uleb128 0xb
 656 002e 3E       		.uleb128 0x3e
 657 002f 0B       		.uleb128 0xb
 658 0030 03       		.uleb128 0x3
 659 0031 08       		.uleb128 0x8
 660 0032 00       		.byte	0
 661 0033 00       		.byte	0
 662 0034 05       		.uleb128 0x5
 663 0035 04       		.uleb128 0x4
 664 0036 01       		.byte	0x1
 665 0037 0B       		.uleb128 0xb
 666 0038 0B       		.uleb128 0xb
 667 0039 3A       		.uleb128 0x3a
 668 003a 0B       		.uleb128 0xb
 669 003b 3B       		.uleb128 0x3b
 670 003c 05       		.uleb128 0x5
 671 003d 01       		.uleb128 0x1
 672 003e 13       		.uleb128 0x13
 673 003f 00       		.byte	0
 674 0040 00       		.byte	0
 675 0041 06       		.uleb128 0x6
 676 0042 28       		.uleb128 0x28
 677 0043 00       		.byte	0
 678 0044 03       		.uleb128 0x3
 679 0045 0E       		.uleb128 0xe
 680 0046 1C       		.uleb128 0x1c
 681 0047 0D       		.uleb128 0xd
 682 0048 00       		.byte	0
 683 0049 00       		.byte	0
 684 004a 07       		.uleb128 0x7
ARM GAS  /tmp/ccOyiyKf.s 			page 13


 685 004b 16       		.uleb128 0x16
 686 004c 00       		.byte	0
 687 004d 03       		.uleb128 0x3
 688 004e 0E       		.uleb128 0xe
 689 004f 3A       		.uleb128 0x3a
 690 0050 0B       		.uleb128 0xb
 691 0051 3B       		.uleb128 0x3b
 692 0052 05       		.uleb128 0x5
 693 0053 49       		.uleb128 0x49
 694 0054 13       		.uleb128 0x13
 695 0055 00       		.byte	0
 696 0056 00       		.byte	0
 697 0057 08       		.uleb128 0x8
 698 0058 0F       		.uleb128 0xf
 699 0059 00       		.byte	0
 700 005a 0B       		.uleb128 0xb
 701 005b 0B       		.uleb128 0xb
 702 005c 49       		.uleb128 0x49
 703 005d 13       		.uleb128 0x13
 704 005e 00       		.byte	0
 705 005f 00       		.byte	0
 706 0060 09       		.uleb128 0x9
 707 0061 13       		.uleb128 0x13
 708 0062 01       		.byte	0x1
 709 0063 0B       		.uleb128 0xb
 710 0064 0B       		.uleb128 0xb
 711 0065 3A       		.uleb128 0x3a
 712 0066 0B       		.uleb128 0xb
 713 0067 3B       		.uleb128 0x3b
 714 0068 05       		.uleb128 0x5
 715 0069 01       		.uleb128 0x1
 716 006a 13       		.uleb128 0x13
 717 006b 00       		.byte	0
 718 006c 00       		.byte	0
 719 006d 0A       		.uleb128 0xa
 720 006e 0D       		.uleb128 0xd
 721 006f 00       		.byte	0
 722 0070 03       		.uleb128 0x3
 723 0071 0E       		.uleb128 0xe
 724 0072 3A       		.uleb128 0x3a
 725 0073 0B       		.uleb128 0xb
 726 0074 3B       		.uleb128 0x3b
 727 0075 05       		.uleb128 0x5
 728 0076 49       		.uleb128 0x49
 729 0077 13       		.uleb128 0x13
 730 0078 38       		.uleb128 0x38
 731 0079 0B       		.uleb128 0xb
 732 007a 00       		.byte	0
 733 007b 00       		.byte	0
 734 007c 0B       		.uleb128 0xb
 735 007d 2E       		.uleb128 0x2e
 736 007e 01       		.byte	0x1
 737 007f 3F       		.uleb128 0x3f
 738 0080 19       		.uleb128 0x19
 739 0081 03       		.uleb128 0x3
 740 0082 0E       		.uleb128 0xe
 741 0083 3A       		.uleb128 0x3a
ARM GAS  /tmp/ccOyiyKf.s 			page 14


 742 0084 0B       		.uleb128 0xb
 743 0085 3B       		.uleb128 0x3b
 744 0086 0B       		.uleb128 0xb
 745 0087 27       		.uleb128 0x27
 746 0088 19       		.uleb128 0x19
 747 0089 49       		.uleb128 0x49
 748 008a 13       		.uleb128 0x13
 749 008b 11       		.uleb128 0x11
 750 008c 01       		.uleb128 0x1
 751 008d 12       		.uleb128 0x12
 752 008e 06       		.uleb128 0x6
 753 008f 40       		.uleb128 0x40
 754 0090 18       		.uleb128 0x18
 755 0091 9742     		.uleb128 0x2117
 756 0093 19       		.uleb128 0x19
 757 0094 01       		.uleb128 0x1
 758 0095 13       		.uleb128 0x13
 759 0096 00       		.byte	0
 760 0097 00       		.byte	0
 761 0098 0C       		.uleb128 0xc
 762 0099 05       		.uleb128 0x5
 763 009a 00       		.byte	0
 764 009b 03       		.uleb128 0x3
 765 009c 08       		.uleb128 0x8
 766 009d 3A       		.uleb128 0x3a
 767 009e 0B       		.uleb128 0xb
 768 009f 3B       		.uleb128 0x3b
 769 00a0 0B       		.uleb128 0xb
 770 00a1 49       		.uleb128 0x49
 771 00a2 13       		.uleb128 0x13
 772 00a3 02       		.uleb128 0x2
 773 00a4 17       		.uleb128 0x17
 774 00a5 00       		.byte	0
 775 00a6 00       		.byte	0
 776 00a7 0D       		.uleb128 0xd
 777 00a8 05       		.uleb128 0x5
 778 00a9 00       		.byte	0
 779 00aa 03       		.uleb128 0x3
 780 00ab 0E       		.uleb128 0xe
 781 00ac 3A       		.uleb128 0x3a
 782 00ad 0B       		.uleb128 0xb
 783 00ae 3B       		.uleb128 0x3b
 784 00af 0B       		.uleb128 0xb
 785 00b0 49       		.uleb128 0x49
 786 00b1 13       		.uleb128 0x13
 787 00b2 02       		.uleb128 0x2
 788 00b3 18       		.uleb128 0x18
 789 00b4 00       		.byte	0
 790 00b5 00       		.byte	0
 791 00b6 0E       		.uleb128 0xe
 792 00b7 05       		.uleb128 0x5
 793 00b8 00       		.byte	0
 794 00b9 03       		.uleb128 0x3
 795 00ba 0E       		.uleb128 0xe
 796 00bb 3A       		.uleb128 0x3a
 797 00bc 0B       		.uleb128 0xb
 798 00bd 3B       		.uleb128 0x3b
ARM GAS  /tmp/ccOyiyKf.s 			page 15


 799 00be 0B       		.uleb128 0xb
 800 00bf 49       		.uleb128 0x49
 801 00c0 13       		.uleb128 0x13
 802 00c1 02       		.uleb128 0x2
 803 00c2 17       		.uleb128 0x17
 804 00c3 00       		.byte	0
 805 00c4 00       		.byte	0
 806 00c5 0F       		.uleb128 0xf
 807 00c6 34       		.uleb128 0x34
 808 00c7 00       		.byte	0
 809 00c8 03       		.uleb128 0x3
 810 00c9 0E       		.uleb128 0xe
 811 00ca 3A       		.uleb128 0x3a
 812 00cb 0B       		.uleb128 0xb
 813 00cc 3B       		.uleb128 0x3b
 814 00cd 0B       		.uleb128 0xb
 815 00ce 49       		.uleb128 0x49
 816 00cf 13       		.uleb128 0x13
 817 00d0 02       		.uleb128 0x2
 818 00d1 17       		.uleb128 0x17
 819 00d2 00       		.byte	0
 820 00d3 00       		.byte	0
 821 00d4 10       		.uleb128 0x10
 822 00d5 01       		.uleb128 0x1
 823 00d6 01       		.byte	0x1
 824 00d7 49       		.uleb128 0x49
 825 00d8 13       		.uleb128 0x13
 826 00d9 01       		.uleb128 0x1
 827 00da 13       		.uleb128 0x13
 828 00db 00       		.byte	0
 829 00dc 00       		.byte	0
 830 00dd 11       		.uleb128 0x11
 831 00de 21       		.uleb128 0x21
 832 00df 00       		.byte	0
 833 00e0 49       		.uleb128 0x49
 834 00e1 13       		.uleb128 0x13
 835 00e2 2F       		.uleb128 0x2f
 836 00e3 05       		.uleb128 0x5
 837 00e4 00       		.byte	0
 838 00e5 00       		.byte	0
 839 00e6 12       		.uleb128 0x12
 840 00e7 34       		.uleb128 0x34
 841 00e8 00       		.byte	0
 842 00e9 03       		.uleb128 0x3
 843 00ea 0E       		.uleb128 0xe
 844 00eb 3A       		.uleb128 0x3a
 845 00ec 0B       		.uleb128 0xb
 846 00ed 3B       		.uleb128 0x3b
 847 00ee 0B       		.uleb128 0xb
 848 00ef 49       		.uleb128 0x49
 849 00f0 13       		.uleb128 0x13
 850 00f1 3F       		.uleb128 0x3f
 851 00f2 19       		.uleb128 0x19
 852 00f3 3C       		.uleb128 0x3c
 853 00f4 19       		.uleb128 0x19
 854 00f5 00       		.byte	0
 855 00f6 00       		.byte	0
ARM GAS  /tmp/ccOyiyKf.s 			page 16


 856 00f7 13       		.uleb128 0x13
 857 00f8 26       		.uleb128 0x26
 858 00f9 00       		.byte	0
 859 00fa 49       		.uleb128 0x49
 860 00fb 13       		.uleb128 0x13
 861 00fc 00       		.byte	0
 862 00fd 00       		.byte	0
 863 00fe 00       		.byte	0
 864              		.section	.debug_loc,"",%progbits
 865              	.Ldebug_loc0:
 866              	.LLST0:
 867 0000 00000000 		.4byte	.LVL0-.Ltext0
 868 0004 3C000000 		.4byte	.LVL3-.Ltext0
 869 0008 0100     		.2byte	0x1
 870 000a 50       		.byte	0x50
 871 000b 3C000000 		.4byte	.LVL3-.Ltext0
 872 000f 44000000 		.4byte	.LVL4-.Ltext0
 873 0013 0400     		.2byte	0x4
 874 0015 F3       		.byte	0xf3
 875 0016 01       		.uleb128 0x1
 876 0017 50       		.byte	0x50
 877 0018 9F       		.byte	0x9f
 878 0019 44000000 		.4byte	.LVL4-.Ltext0
 879 001d 64000000 		.4byte	.LVL7-.Ltext0
 880 0021 0100     		.2byte	0x1
 881 0023 50       		.byte	0x50
 882 0024 64000000 		.4byte	.LVL7-.Ltext0
 883 0028 6C000000 		.4byte	.LVL8-.Ltext0
 884 002c 0400     		.2byte	0x4
 885 002e F3       		.byte	0xf3
 886 002f 01       		.uleb128 0x1
 887 0030 50       		.byte	0x50
 888 0031 9F       		.byte	0x9f
 889 0032 6C000000 		.4byte	.LVL8-.Ltext0
 890 0036 7C000000 		.4byte	.LVL11-.Ltext0
 891 003a 0100     		.2byte	0x1
 892 003c 50       		.byte	0x50
 893 003d 7C000000 		.4byte	.LVL11-.Ltext0
 894 0041 84000000 		.4byte	.LVL12-.Ltext0
 895 0045 0400     		.2byte	0x4
 896 0047 F3       		.byte	0xf3
 897 0048 01       		.uleb128 0x1
 898 0049 50       		.byte	0x50
 899 004a 9F       		.byte	0x9f
 900 004b 84000000 		.4byte	.LVL12-.Ltext0
 901 004f 96000000 		.4byte	.LVL15-.Ltext0
 902 0053 0100     		.2byte	0x1
 903 0055 50       		.byte	0x50
 904 0056 96000000 		.4byte	.LVL15-.Ltext0
 905 005a 9E000000 		.4byte	.LVL16-.Ltext0
 906 005e 0400     		.2byte	0x4
 907 0060 F3       		.byte	0xf3
 908 0061 01       		.uleb128 0x1
 909 0062 50       		.byte	0x50
 910 0063 9F       		.byte	0x9f
 911 0064 9E000000 		.4byte	.LVL16-.Ltext0
 912 0068 B6000000 		.4byte	.LVL19-.Ltext0
ARM GAS  /tmp/ccOyiyKf.s 			page 17


 913 006c 0100     		.2byte	0x1
 914 006e 50       		.byte	0x50
 915 006f B6000000 		.4byte	.LVL19-.Ltext0
 916 0073 BE000000 		.4byte	.LVL20-.Ltext0
 917 0077 0400     		.2byte	0x4
 918 0079 F3       		.byte	0xf3
 919 007a 01       		.uleb128 0x1
 920 007b 50       		.byte	0x50
 921 007c 9F       		.byte	0x9f
 922 007d BE000000 		.4byte	.LVL20-.Ltext0
 923 0081 D6000000 		.4byte	.LVL23-.Ltext0
 924 0085 0100     		.2byte	0x1
 925 0087 50       		.byte	0x50
 926 0088 D6000000 		.4byte	.LVL23-.Ltext0
 927 008c DE000000 		.4byte	.LVL24-.Ltext0
 928 0090 0400     		.2byte	0x4
 929 0092 F3       		.byte	0xf3
 930 0093 01       		.uleb128 0x1
 931 0094 50       		.byte	0x50
 932 0095 9F       		.byte	0x9f
 933 0096 DE000000 		.4byte	.LVL24-.Ltext0
 934 009a F0000000 		.4byte	.LVL27-.Ltext0
 935 009e 0100     		.2byte	0x1
 936 00a0 50       		.byte	0x50
 937 00a1 F0000000 		.4byte	.LVL27-.Ltext0
 938 00a5 F8000000 		.4byte	.LVL28-.Ltext0
 939 00a9 0400     		.2byte	0x4
 940 00ab F3       		.byte	0xf3
 941 00ac 01       		.uleb128 0x1
 942 00ad 50       		.byte	0x50
 943 00ae 9F       		.byte	0x9f
 944 00af F8000000 		.4byte	.LVL28-.Ltext0
 945 00b3 0A010000 		.4byte	.LVL31-.Ltext0
 946 00b7 0100     		.2byte	0x1
 947 00b9 50       		.byte	0x50
 948 00ba 0A010000 		.4byte	.LVL31-.Ltext0
 949 00be 12010000 		.4byte	.LVL32-.Ltext0
 950 00c2 0400     		.2byte	0x4
 951 00c4 F3       		.byte	0xf3
 952 00c5 01       		.uleb128 0x1
 953 00c6 50       		.byte	0x50
 954 00c7 9F       		.byte	0x9f
 955 00c8 12010000 		.4byte	.LVL32-.Ltext0
 956 00cc 24010000 		.4byte	.LVL35-.Ltext0
 957 00d0 0100     		.2byte	0x1
 958 00d2 50       		.byte	0x50
 959 00d3 24010000 		.4byte	.LVL35-.Ltext0
 960 00d7 2C010000 		.4byte	.LVL36-.Ltext0
 961 00db 0400     		.2byte	0x4
 962 00dd F3       		.byte	0xf3
 963 00de 01       		.uleb128 0x1
 964 00df 50       		.byte	0x50
 965 00e0 9F       		.byte	0x9f
 966 00e1 2C010000 		.4byte	.LVL36-.Ltext0
 967 00e5 2E010000 		.4byte	.LVL37-.Ltext0
 968 00e9 0100     		.2byte	0x1
 969 00eb 50       		.byte	0x50
ARM GAS  /tmp/ccOyiyKf.s 			page 18


 970 00ec 2E010000 		.4byte	.LVL37-.Ltext0
 971 00f0 60010000 		.4byte	.LFE135-.Ltext0
 972 00f4 0400     		.2byte	0x4
 973 00f6 F3       		.byte	0xf3
 974 00f7 01       		.uleb128 0x1
 975 00f8 50       		.byte	0x50
 976 00f9 9F       		.byte	0x9f
 977 00fa 00000000 		.4byte	0
 978 00fe 00000000 		.4byte	0
 979              	.LLST1:
 980 0102 00000000 		.4byte	.LVL0-.Ltext0
 981 0106 32000000 		.4byte	.LVL2-.Ltext0
 982 010a 0100     		.2byte	0x1
 983 010c 52       		.byte	0x52
 984 010d 32000000 		.4byte	.LVL2-.Ltext0
 985 0111 3C000000 		.4byte	.LVL3-.Ltext0
 986 0115 0200     		.2byte	0x2
 987 0117 70       		.byte	0x70
 988 0118 02       		.sleb128 2
 989 0119 3C000000 		.4byte	.LVL3-.Ltext0
 990 011d 44000000 		.4byte	.LVL4-.Ltext0
 991 0121 0500     		.2byte	0x5
 992 0123 F3       		.byte	0xf3
 993 0124 01       		.uleb128 0x1
 994 0125 50       		.byte	0x50
 995 0126 23       		.byte	0x23
 996 0127 02       		.uleb128 0x2
 997 0128 44000000 		.4byte	.LVL4-.Ltext0
 998 012c 5A000000 		.4byte	.LVL6-.Ltext0
 999 0130 0100     		.2byte	0x1
 1000 0132 52       		.byte	0x52
 1001 0133 5A000000 		.4byte	.LVL6-.Ltext0
 1002 0137 64000000 		.4byte	.LVL7-.Ltext0
 1003 013b 0200     		.2byte	0x2
 1004 013d 70       		.byte	0x70
 1005 013e 02       		.sleb128 2
 1006 013f 64000000 		.4byte	.LVL7-.Ltext0
 1007 0143 6C000000 		.4byte	.LVL8-.Ltext0
 1008 0147 0500     		.2byte	0x5
 1009 0149 F3       		.byte	0xf3
 1010 014a 01       		.uleb128 0x1
 1011 014b 50       		.byte	0x50
 1012 014c 23       		.byte	0x23
 1013 014d 02       		.uleb128 0x2
 1014 014e 6C000000 		.4byte	.LVL8-.Ltext0
 1015 0152 70000000 		.4byte	.LVL9-.Ltext0
 1016 0156 0100     		.2byte	0x1
 1017 0158 52       		.byte	0x52
 1018 0159 70000000 		.4byte	.LVL9-.Ltext0
 1019 015d 7C000000 		.4byte	.LVL11-.Ltext0
 1020 0161 0200     		.2byte	0x2
 1021 0163 70       		.byte	0x70
 1022 0164 02       		.sleb128 2
 1023 0165 7C000000 		.4byte	.LVL11-.Ltext0
 1024 0169 84000000 		.4byte	.LVL12-.Ltext0
 1025 016d 0500     		.2byte	0x5
 1026 016f F3       		.byte	0xf3
ARM GAS  /tmp/ccOyiyKf.s 			page 19


 1027 0170 01       		.uleb128 0x1
 1028 0171 50       		.byte	0x50
 1029 0172 23       		.byte	0x23
 1030 0173 02       		.uleb128 0x2
 1031 0174 84000000 		.4byte	.LVL12-.Ltext0
 1032 0178 8C000000 		.4byte	.LVL14-.Ltext0
 1033 017c 0100     		.2byte	0x1
 1034 017e 52       		.byte	0x52
 1035 017f 8C000000 		.4byte	.LVL14-.Ltext0
 1036 0183 96000000 		.4byte	.LVL15-.Ltext0
 1037 0187 0200     		.2byte	0x2
 1038 0189 70       		.byte	0x70
 1039 018a 02       		.sleb128 2
 1040 018b 96000000 		.4byte	.LVL15-.Ltext0
 1041 018f 9E000000 		.4byte	.LVL16-.Ltext0
 1042 0193 0500     		.2byte	0x5
 1043 0195 F3       		.byte	0xf3
 1044 0196 01       		.uleb128 0x1
 1045 0197 50       		.byte	0x50
 1046 0198 23       		.byte	0x23
 1047 0199 02       		.uleb128 0x2
 1048 019a 9E000000 		.4byte	.LVL16-.Ltext0
 1049 019e AA000000 		.4byte	.LVL18-.Ltext0
 1050 01a2 0100     		.2byte	0x1
 1051 01a4 52       		.byte	0x52
 1052 01a5 AA000000 		.4byte	.LVL18-.Ltext0
 1053 01a9 B6000000 		.4byte	.LVL19-.Ltext0
 1054 01ad 0200     		.2byte	0x2
 1055 01af 70       		.byte	0x70
 1056 01b0 02       		.sleb128 2
 1057 01b1 B6000000 		.4byte	.LVL19-.Ltext0
 1058 01b5 BE000000 		.4byte	.LVL20-.Ltext0
 1059 01b9 0500     		.2byte	0x5
 1060 01bb F3       		.byte	0xf3
 1061 01bc 01       		.uleb128 0x1
 1062 01bd 50       		.byte	0x50
 1063 01be 23       		.byte	0x23
 1064 01bf 02       		.uleb128 0x2
 1065 01c0 BE000000 		.4byte	.LVL20-.Ltext0
 1066 01c4 CC000000 		.4byte	.LVL22-.Ltext0
 1067 01c8 0100     		.2byte	0x1
 1068 01ca 52       		.byte	0x52
 1069 01cb CC000000 		.4byte	.LVL22-.Ltext0
 1070 01cf D6000000 		.4byte	.LVL23-.Ltext0
 1071 01d3 0200     		.2byte	0x2
 1072 01d5 70       		.byte	0x70
 1073 01d6 02       		.sleb128 2
 1074 01d7 D6000000 		.4byte	.LVL23-.Ltext0
 1075 01db DE000000 		.4byte	.LVL24-.Ltext0
 1076 01df 0500     		.2byte	0x5
 1077 01e1 F3       		.byte	0xf3
 1078 01e2 01       		.uleb128 0x1
 1079 01e3 50       		.byte	0x50
 1080 01e4 23       		.byte	0x23
 1081 01e5 02       		.uleb128 0x2
 1082 01e6 DE000000 		.4byte	.LVL24-.Ltext0
 1083 01ea E6000000 		.4byte	.LVL26-.Ltext0
ARM GAS  /tmp/ccOyiyKf.s 			page 20


 1084 01ee 0100     		.2byte	0x1
 1085 01f0 52       		.byte	0x52
 1086 01f1 E6000000 		.4byte	.LVL26-.Ltext0
 1087 01f5 F0000000 		.4byte	.LVL27-.Ltext0
 1088 01f9 0200     		.2byte	0x2
 1089 01fb 70       		.byte	0x70
 1090 01fc 02       		.sleb128 2
 1091 01fd F0000000 		.4byte	.LVL27-.Ltext0
 1092 0201 F8000000 		.4byte	.LVL28-.Ltext0
 1093 0205 0500     		.2byte	0x5
 1094 0207 F3       		.byte	0xf3
 1095 0208 01       		.uleb128 0x1
 1096 0209 50       		.byte	0x50
 1097 020a 23       		.byte	0x23
 1098 020b 02       		.uleb128 0x2
 1099 020c F8000000 		.4byte	.LVL28-.Ltext0
 1100 0210 00010000 		.4byte	.LVL30-.Ltext0
 1101 0214 0100     		.2byte	0x1
 1102 0216 52       		.byte	0x52
 1103 0217 00010000 		.4byte	.LVL30-.Ltext0
 1104 021b 0A010000 		.4byte	.LVL31-.Ltext0
 1105 021f 0200     		.2byte	0x2
 1106 0221 70       		.byte	0x70
 1107 0222 02       		.sleb128 2
 1108 0223 0A010000 		.4byte	.LVL31-.Ltext0
 1109 0227 12010000 		.4byte	.LVL32-.Ltext0
 1110 022b 0500     		.2byte	0x5
 1111 022d F3       		.byte	0xf3
 1112 022e 01       		.uleb128 0x1
 1113 022f 50       		.byte	0x50
 1114 0230 23       		.byte	0x23
 1115 0231 02       		.uleb128 0x2
 1116 0232 12010000 		.4byte	.LVL32-.Ltext0
 1117 0236 1A010000 		.4byte	.LVL34-.Ltext0
 1118 023a 0100     		.2byte	0x1
 1119 023c 52       		.byte	0x52
 1120 023d 1A010000 		.4byte	.LVL34-.Ltext0
 1121 0241 24010000 		.4byte	.LVL35-.Ltext0
 1122 0245 0200     		.2byte	0x2
 1123 0247 70       		.byte	0x70
 1124 0248 02       		.sleb128 2
 1125 0249 24010000 		.4byte	.LVL35-.Ltext0
 1126 024d 2C010000 		.4byte	.LVL36-.Ltext0
 1127 0251 0500     		.2byte	0x5
 1128 0253 F3       		.byte	0xf3
 1129 0254 01       		.uleb128 0x1
 1130 0255 50       		.byte	0x50
 1131 0256 23       		.byte	0x23
 1132 0257 02       		.uleb128 0x2
 1133 0258 2C010000 		.4byte	.LVL36-.Ltext0
 1134 025c 60010000 		.4byte	.LFE135-.Ltext0
 1135 0260 0100     		.2byte	0x1
 1136 0262 52       		.byte	0x52
 1137 0263 00000000 		.4byte	0
 1138 0267 00000000 		.4byte	0
 1139              	.LLST2:
 1140 026b 00000000 		.4byte	.LVL0-.Ltext0
ARM GAS  /tmp/ccOyiyKf.s 			page 21


 1141 026f 2E000000 		.4byte	.LVL1-.Ltext0
 1142 0273 0100     		.2byte	0x1
 1143 0275 53       		.byte	0x53
 1144 0276 2E000000 		.4byte	.LVL1-.Ltext0
 1145 027a 3C000000 		.4byte	.LVL3-.Ltext0
 1146 027e 0200     		.2byte	0x2
 1147 0280 70       		.byte	0x70
 1148 0281 03       		.sleb128 3
 1149 0282 3C000000 		.4byte	.LVL3-.Ltext0
 1150 0286 44000000 		.4byte	.LVL4-.Ltext0
 1151 028a 0500     		.2byte	0x5
 1152 028c F3       		.byte	0xf3
 1153 028d 01       		.uleb128 0x1
 1154 028e 50       		.byte	0x50
 1155 028f 23       		.byte	0x23
 1156 0290 03       		.uleb128 0x3
 1157 0291 44000000 		.4byte	.LVL4-.Ltext0
 1158 0295 56000000 		.4byte	.LVL5-.Ltext0
 1159 0299 0100     		.2byte	0x1
 1160 029b 53       		.byte	0x53
 1161 029c 56000000 		.4byte	.LVL5-.Ltext0
 1162 02a0 64000000 		.4byte	.LVL7-.Ltext0
 1163 02a4 0200     		.2byte	0x2
 1164 02a6 70       		.byte	0x70
 1165 02a7 03       		.sleb128 3
 1166 02a8 64000000 		.4byte	.LVL7-.Ltext0
 1167 02ac 6C000000 		.4byte	.LVL8-.Ltext0
 1168 02b0 0500     		.2byte	0x5
 1169 02b2 F3       		.byte	0xf3
 1170 02b3 01       		.uleb128 0x1
 1171 02b4 50       		.byte	0x50
 1172 02b5 23       		.byte	0x23
 1173 02b6 03       		.uleb128 0x3
 1174 02b7 6C000000 		.4byte	.LVL8-.Ltext0
 1175 02bb 72000000 		.4byte	.LVL10-.Ltext0
 1176 02bf 0100     		.2byte	0x1
 1177 02c1 53       		.byte	0x53
 1178 02c2 72000000 		.4byte	.LVL10-.Ltext0
 1179 02c6 7C000000 		.4byte	.LVL11-.Ltext0
 1180 02ca 0200     		.2byte	0x2
 1181 02cc 70       		.byte	0x70
 1182 02cd 03       		.sleb128 3
 1183 02ce 7C000000 		.4byte	.LVL11-.Ltext0
 1184 02d2 84000000 		.4byte	.LVL12-.Ltext0
 1185 02d6 0500     		.2byte	0x5
 1186 02d8 F3       		.byte	0xf3
 1187 02d9 01       		.uleb128 0x1
 1188 02da 50       		.byte	0x50
 1189 02db 23       		.byte	0x23
 1190 02dc 03       		.uleb128 0x3
 1191 02dd 84000000 		.4byte	.LVL12-.Ltext0
 1192 02e1 88000000 		.4byte	.LVL13-.Ltext0
 1193 02e5 0100     		.2byte	0x1
 1194 02e7 53       		.byte	0x53
 1195 02e8 88000000 		.4byte	.LVL13-.Ltext0
 1196 02ec 96000000 		.4byte	.LVL15-.Ltext0
 1197 02f0 0200     		.2byte	0x2
ARM GAS  /tmp/ccOyiyKf.s 			page 22


 1198 02f2 70       		.byte	0x70
 1199 02f3 03       		.sleb128 3
 1200 02f4 96000000 		.4byte	.LVL15-.Ltext0
 1201 02f8 9E000000 		.4byte	.LVL16-.Ltext0
 1202 02fc 0500     		.2byte	0x5
 1203 02fe F3       		.byte	0xf3
 1204 02ff 01       		.uleb128 0x1
 1205 0300 50       		.byte	0x50
 1206 0301 23       		.byte	0x23
 1207 0302 03       		.uleb128 0x3
 1208 0303 9E000000 		.4byte	.LVL16-.Ltext0
 1209 0307 A6000000 		.4byte	.LVL17-.Ltext0
 1210 030b 0100     		.2byte	0x1
 1211 030d 53       		.byte	0x53
 1212 030e A6000000 		.4byte	.LVL17-.Ltext0
 1213 0312 B6000000 		.4byte	.LVL19-.Ltext0
 1214 0316 0200     		.2byte	0x2
 1215 0318 70       		.byte	0x70
 1216 0319 03       		.sleb128 3
 1217 031a B6000000 		.4byte	.LVL19-.Ltext0
 1218 031e BE000000 		.4byte	.LVL20-.Ltext0
 1219 0322 0500     		.2byte	0x5
 1220 0324 F3       		.byte	0xf3
 1221 0325 01       		.uleb128 0x1
 1222 0326 50       		.byte	0x50
 1223 0327 23       		.byte	0x23
 1224 0328 03       		.uleb128 0x3
 1225 0329 BE000000 		.4byte	.LVL20-.Ltext0
 1226 032d C8000000 		.4byte	.LVL21-.Ltext0
 1227 0331 0100     		.2byte	0x1
 1228 0333 53       		.byte	0x53
 1229 0334 C8000000 		.4byte	.LVL21-.Ltext0
 1230 0338 D6000000 		.4byte	.LVL23-.Ltext0
 1231 033c 0200     		.2byte	0x2
 1232 033e 70       		.byte	0x70
 1233 033f 03       		.sleb128 3
 1234 0340 D6000000 		.4byte	.LVL23-.Ltext0
 1235 0344 DE000000 		.4byte	.LVL24-.Ltext0
 1236 0348 0500     		.2byte	0x5
 1237 034a F3       		.byte	0xf3
 1238 034b 01       		.uleb128 0x1
 1239 034c 50       		.byte	0x50
 1240 034d 23       		.byte	0x23
 1241 034e 03       		.uleb128 0x3
 1242 034f DE000000 		.4byte	.LVL24-.Ltext0
 1243 0353 E2000000 		.4byte	.LVL25-.Ltext0
 1244 0357 0100     		.2byte	0x1
 1245 0359 53       		.byte	0x53
 1246 035a E2000000 		.4byte	.LVL25-.Ltext0
 1247 035e F0000000 		.4byte	.LVL27-.Ltext0
 1248 0362 0200     		.2byte	0x2
 1249 0364 70       		.byte	0x70
 1250 0365 03       		.sleb128 3
 1251 0366 F0000000 		.4byte	.LVL27-.Ltext0
 1252 036a F8000000 		.4byte	.LVL28-.Ltext0
 1253 036e 0500     		.2byte	0x5
 1254 0370 F3       		.byte	0xf3
ARM GAS  /tmp/ccOyiyKf.s 			page 23


 1255 0371 01       		.uleb128 0x1
 1256 0372 50       		.byte	0x50
 1257 0373 23       		.byte	0x23
 1258 0374 03       		.uleb128 0x3
 1259 0375 F8000000 		.4byte	.LVL28-.Ltext0
 1260 0379 FC000000 		.4byte	.LVL29-.Ltext0
 1261 037d 0100     		.2byte	0x1
 1262 037f 53       		.byte	0x53
 1263 0380 FC000000 		.4byte	.LVL29-.Ltext0
 1264 0384 0A010000 		.4byte	.LVL31-.Ltext0
 1265 0388 0200     		.2byte	0x2
 1266 038a 70       		.byte	0x70
 1267 038b 03       		.sleb128 3
 1268 038c 0A010000 		.4byte	.LVL31-.Ltext0
 1269 0390 12010000 		.4byte	.LVL32-.Ltext0
 1270 0394 0500     		.2byte	0x5
 1271 0396 F3       		.byte	0xf3
 1272 0397 01       		.uleb128 0x1
 1273 0398 50       		.byte	0x50
 1274 0399 23       		.byte	0x23
 1275 039a 03       		.uleb128 0x3
 1276 039b 12010000 		.4byte	.LVL32-.Ltext0
 1277 039f 16010000 		.4byte	.LVL33-.Ltext0
 1278 03a3 0100     		.2byte	0x1
 1279 03a5 53       		.byte	0x53
 1280 03a6 16010000 		.4byte	.LVL33-.Ltext0
 1281 03aa 24010000 		.4byte	.LVL35-.Ltext0
 1282 03ae 0200     		.2byte	0x2
 1283 03b0 70       		.byte	0x70
 1284 03b1 03       		.sleb128 3
 1285 03b2 24010000 		.4byte	.LVL35-.Ltext0
 1286 03b6 2C010000 		.4byte	.LVL36-.Ltext0
 1287 03ba 0500     		.2byte	0x5
 1288 03bc F3       		.byte	0xf3
 1289 03bd 01       		.uleb128 0x1
 1290 03be 50       		.byte	0x50
 1291 03bf 23       		.byte	0x23
 1292 03c0 03       		.uleb128 0x3
 1293 03c1 2C010000 		.4byte	.LVL36-.Ltext0
 1294 03c5 60010000 		.4byte	.LFE135-.Ltext0
 1295 03c9 0100     		.2byte	0x1
 1296 03cb 53       		.byte	0x53
 1297 03cc 00000000 		.4byte	0
 1298 03d0 00000000 		.4byte	0
 1299              	.LLST3:
 1300 03d4 00000000 		.4byte	.LVL0-.Ltext0
 1301 03d8 3C000000 		.4byte	.LVL3-.Ltext0
 1302 03dc 0200     		.2byte	0x2
 1303 03de 30       		.byte	0x30
 1304 03df 9F       		.byte	0x9f
 1305 03e0 3C000000 		.4byte	.LVL3-.Ltext0
 1306 03e4 44000000 		.4byte	.LVL4-.Ltext0
 1307 03e8 0100     		.2byte	0x1
 1308 03ea 50       		.byte	0x50
 1309 03eb 44000000 		.4byte	.LVL4-.Ltext0
 1310 03ef 64000000 		.4byte	.LVL7-.Ltext0
 1311 03f3 0200     		.2byte	0x2
ARM GAS  /tmp/ccOyiyKf.s 			page 24


 1312 03f5 30       		.byte	0x30
 1313 03f6 9F       		.byte	0x9f
 1314 03f7 64000000 		.4byte	.LVL7-.Ltext0
 1315 03fb 6C000000 		.4byte	.LVL8-.Ltext0
 1316 03ff 0100     		.2byte	0x1
 1317 0401 50       		.byte	0x50
 1318 0402 6C000000 		.4byte	.LVL8-.Ltext0
 1319 0406 7C000000 		.4byte	.LVL11-.Ltext0
 1320 040a 0200     		.2byte	0x2
 1321 040c 30       		.byte	0x30
 1322 040d 9F       		.byte	0x9f
 1323 040e 7C000000 		.4byte	.LVL11-.Ltext0
 1324 0412 84000000 		.4byte	.LVL12-.Ltext0
 1325 0416 0100     		.2byte	0x1
 1326 0418 50       		.byte	0x50
 1327 0419 84000000 		.4byte	.LVL12-.Ltext0
 1328 041d 96000000 		.4byte	.LVL15-.Ltext0
 1329 0421 0200     		.2byte	0x2
 1330 0423 30       		.byte	0x30
 1331 0424 9F       		.byte	0x9f
 1332 0425 96000000 		.4byte	.LVL15-.Ltext0
 1333 0429 9E000000 		.4byte	.LVL16-.Ltext0
 1334 042d 0100     		.2byte	0x1
 1335 042f 50       		.byte	0x50
 1336 0430 9E000000 		.4byte	.LVL16-.Ltext0
 1337 0434 B6000000 		.4byte	.LVL19-.Ltext0
 1338 0438 0200     		.2byte	0x2
 1339 043a 30       		.byte	0x30
 1340 043b 9F       		.byte	0x9f
 1341 043c B6000000 		.4byte	.LVL19-.Ltext0
 1342 0440 BE000000 		.4byte	.LVL20-.Ltext0
 1343 0444 0100     		.2byte	0x1
 1344 0446 50       		.byte	0x50
 1345 0447 BE000000 		.4byte	.LVL20-.Ltext0
 1346 044b D6000000 		.4byte	.LVL23-.Ltext0
 1347 044f 0200     		.2byte	0x2
 1348 0451 30       		.byte	0x30
 1349 0452 9F       		.byte	0x9f
 1350 0453 D6000000 		.4byte	.LVL23-.Ltext0
 1351 0457 DE000000 		.4byte	.LVL24-.Ltext0
 1352 045b 0100     		.2byte	0x1
 1353 045d 50       		.byte	0x50
 1354 045e DE000000 		.4byte	.LVL24-.Ltext0
 1355 0462 F0000000 		.4byte	.LVL27-.Ltext0
 1356 0466 0200     		.2byte	0x2
 1357 0468 30       		.byte	0x30
 1358 0469 9F       		.byte	0x9f
 1359 046a F0000000 		.4byte	.LVL27-.Ltext0
 1360 046e F8000000 		.4byte	.LVL28-.Ltext0
 1361 0472 0100     		.2byte	0x1
 1362 0474 50       		.byte	0x50
 1363 0475 F8000000 		.4byte	.LVL28-.Ltext0
 1364 0479 0A010000 		.4byte	.LVL31-.Ltext0
 1365 047d 0200     		.2byte	0x2
 1366 047f 30       		.byte	0x30
 1367 0480 9F       		.byte	0x9f
 1368 0481 0A010000 		.4byte	.LVL31-.Ltext0
ARM GAS  /tmp/ccOyiyKf.s 			page 25


 1369 0485 12010000 		.4byte	.LVL32-.Ltext0
 1370 0489 0100     		.2byte	0x1
 1371 048b 50       		.byte	0x50
 1372 048c 12010000 		.4byte	.LVL32-.Ltext0
 1373 0490 24010000 		.4byte	.LVL35-.Ltext0
 1374 0494 0200     		.2byte	0x2
 1375 0496 30       		.byte	0x30
 1376 0497 9F       		.byte	0x9f
 1377 0498 24010000 		.4byte	.LVL35-.Ltext0
 1378 049c 2C010000 		.4byte	.LVL36-.Ltext0
 1379 04a0 0100     		.2byte	0x1
 1380 04a2 50       		.byte	0x50
 1381 04a3 2C010000 		.4byte	.LVL36-.Ltext0
 1382 04a7 2E010000 		.4byte	.LVL37-.Ltext0
 1383 04ab 0200     		.2byte	0x2
 1384 04ad 30       		.byte	0x30
 1385 04ae 9F       		.byte	0x9f
 1386 04af 2E010000 		.4byte	.LVL37-.Ltext0
 1387 04b3 60010000 		.4byte	.LFE135-.Ltext0
 1388 04b7 0100     		.2byte	0x1
 1389 04b9 50       		.byte	0x50
 1390 04ba 00000000 		.4byte	0
 1391 04be 00000000 		.4byte	0
 1392              		.section	.debug_aranges,"",%progbits
 1393 0000 1C000000 		.4byte	0x1c
 1394 0004 0200     		.2byte	0x2
 1395 0006 00000000 		.4byte	.Ldebug_info0
 1396 000a 04       		.byte	0x4
 1397 000b 00       		.byte	0
 1398 000c 0000     		.2byte	0
 1399 000e 0000     		.2byte	0
 1400 0010 00000000 		.4byte	.Ltext0
 1401 0014 60010000 		.4byte	.Letext0-.Ltext0
 1402 0018 00000000 		.4byte	0
 1403 001c 00000000 		.4byte	0
 1404              		.section	.debug_line,"",%progbits
 1405              	.Ldebug_line0:
 1406 0000 27020000 		.section	.debug_str,"MS",%progbits,1
 1406      02007501 
 1406      00000201 
 1406      FB0E0D00 
 1406      01010101 
 1407              	.LASF38:
 1408 0000 474E5520 		.ascii	"GNU C 4.9.3 20150529 (release) [ARM/embedded-4_9-br"
 1408      4320342E 
 1408      392E3320 
 1408      32303135 
 1408      30353239 
 1409 0033 616E6368 		.ascii	"anch revision 224288] -mcpu=cortex-m4 -mfloat-abi=h"
 1409      20726576 
 1409      6973696F 
 1409      6E203232 
 1409      34323838 
 1410 0066 61726420 		.ascii	"ard -mfpu=fpv4-sp-d16 -mno-thumb-interwork -mthumb "
 1410      2D6D6670 
 1410      753D6670 
 1410      76342D73 
ARM GAS  /tmp/ccOyiyKf.s 			page 26


 1410      702D6431 
 1411 0099 2D676764 		.ascii	"-ggdb -O2 -fomit-frame-pointer -falign-functions=16"
 1411      62202D4F 
 1411      32202D66 
 1411      6F6D6974 
 1411      2D667261 
 1412 00cc 202D666E 		.ascii	" -fno-math-errno -fsingle-precision-constant\000"
 1412      6F2D6D61 
 1412      74682D65 
 1412      72726E6F 
 1412      202D6673 
 1413              	.LASF40:
 1414 00f9 61726D5F 		.ascii	"arm_cfft_radix2_init_f32\000"
 1414      63666674 
 1414      5F726164 
 1414      6978325F 
 1414      696E6974 
 1415              	.LASF3:
 1416 0112 5F5F7569 		.ascii	"__uint8_t\000"
 1416      6E74385F 
 1416      7400
 1417              	.LASF36:
 1418 011c 61726D42 		.ascii	"armBitRevTable\000"
 1418      69745265 
 1418      76546162 
 1418      6C6500
 1419              	.LASF35:
 1420 012b 61726D5F 		.ascii	"arm_cfft_radix2_instance_f32\000"
 1420      63666674 
 1420      5F726164 
 1420      6978325F 
 1420      696E7374 
 1421              	.LASF32:
 1422 0148 74776964 		.ascii	"twidCoefModifier\000"
 1422      436F6566 
 1422      4D6F6469 
 1422      66696572 
 1422      00
 1423              	.LASF41:
 1424 0159 73746174 		.ascii	"status\000"
 1424      757300
 1425              	.LASF21:
 1426 0160 41524D5F 		.ascii	"ARM_MATH_SIZE_MISMATCH\000"
 1426      4D415448 
 1426      5F53495A 
 1426      455F4D49 
 1426      534D4154 
 1427              	.LASF31:
 1428 0177 70426974 		.ascii	"pBitRevTable\000"
 1428      52657654 
 1428      61626C65 
 1428      00
 1429              	.LASF16:
 1430 0184 666C6F61 		.ascii	"float\000"
 1430      7400
 1431              	.LASF1:
 1432 018a 756E7369 		.ascii	"unsigned char\000"
ARM GAS  /tmp/ccOyiyKf.s 			page 27


 1432      676E6564 
 1432      20636861 
 1432      7200
 1433              	.LASF33:
 1434 0198 62697452 		.ascii	"bitRevFactor\000"
 1434      65764661 
 1434      63746F72 
 1434      00
 1435              	.LASF37:
 1436 01a5 74776964 		.ascii	"twiddleCoef_4096\000"
 1436      646C6543 
 1436      6F65665F 
 1436      34303936 
 1436      00
 1437              	.LASF34:
 1438 01b6 6F6E6562 		.ascii	"onebyfftLen\000"
 1438      79666674 
 1438      4C656E00 
 1439              	.LASF7:
 1440 01c2 6C6F6E67 		.ascii	"long unsigned int\000"
 1440      20756E73 
 1440      69676E65 
 1440      6420696E 
 1440      7400
 1441              	.LASF5:
 1442 01d4 73686F72 		.ascii	"short unsigned int\000"
 1442      7420756E 
 1442      7369676E 
 1442      65642069 
 1442      6E7400
 1443              	.LASF27:
 1444 01e7 6666744C 		.ascii	"fftLen\000"
 1444      656E00
 1445              	.LASF24:
 1446 01ee 41524D5F 		.ascii	"ARM_MATH_TEST_FAILURE\000"
 1446      4D415448 
 1446      5F544553 
 1446      545F4641 
 1446      494C5552 
 1447              	.LASF4:
 1448 0204 5F5F7569 		.ascii	"__uint16_t\000"
 1448      6E743136 
 1448      5F7400
 1449              	.LASF15:
 1450 020f 646F7562 		.ascii	"double\000"
 1450      6C6500
 1451              	.LASF19:
 1452 0216 41524D5F 		.ascii	"ARM_MATH_ARGUMENT_ERROR\000"
 1452      4D415448 
 1452      5F415247 
 1452      554D454E 
 1452      545F4552 
 1453              	.LASF28:
 1454 022e 69666674 		.ascii	"ifftFlag\000"
 1454      466C6167 
 1454      00
 1455              	.LASF10:
ARM GAS  /tmp/ccOyiyKf.s 			page 28


 1456 0237 756E7369 		.ascii	"unsigned int\000"
 1456      676E6564 
 1456      20696E74 
 1456      00
 1457              	.LASF9:
 1458 0244 6C6F6E67 		.ascii	"long long unsigned int\000"
 1458      206C6F6E 
 1458      6720756E 
 1458      7369676E 
 1458      65642069 
 1459              	.LASF11:
 1460 025b 75696E74 		.ascii	"uint8_t\000"
 1460      385F7400 
 1461              	.LASF29:
 1462 0263 62697452 		.ascii	"bitReverseFlag\000"
 1462      65766572 
 1462      7365466C 
 1462      616700
 1463              	.LASF22:
 1464 0272 41524D5F 		.ascii	"ARM_MATH_NANINF\000"
 1464      4D415448 
 1464      5F4E414E 
 1464      494E4600 
 1465              	.LASF20:
 1466 0282 41524D5F 		.ascii	"ARM_MATH_LENGTH_ERROR\000"
 1466      4D415448 
 1466      5F4C454E 
 1466      4754485F 
 1466      4552524F 
 1467              	.LASF13:
 1468 0298 73697A65 		.ascii	"sizetype\000"
 1468      74797065 
 1468      00
 1469              	.LASF8:
 1470 02a1 6C6F6E67 		.ascii	"long long int\000"
 1470      206C6F6E 
 1470      6720696E 
 1470      7400
 1471              	.LASF30:
 1472 02af 70547769 		.ascii	"pTwiddle\000"
 1472      64646C65 
 1472      00
 1473              	.LASF14:
 1474 02b8 63686172 		.ascii	"char\000"
 1474      00
 1475              	.LASF26:
 1476 02bd 666C6F61 		.ascii	"float32_t\000"
 1476      7433325F 
 1476      7400
 1477              	.LASF18:
 1478 02c7 41524D5F 		.ascii	"ARM_MATH_SUCCESS\000"
 1478      4D415448 
 1478      5F535543 
 1478      43455353 
 1478      00
 1479              	.LASF2:
 1480 02d8 73686F72 		.ascii	"short int\000"
ARM GAS  /tmp/ccOyiyKf.s 			page 29


 1480      7420696E 
 1480      7400
 1481              	.LASF12:
 1482 02e2 75696E74 		.ascii	"uint16_t\000"
 1482      31365F74 
 1482      00
 1483              	.LASF6:
 1484 02eb 6C6F6E67 		.ascii	"long int\000"
 1484      20696E74 
 1484      00
 1485              	.LASF17:
 1486 02f4 6C6F6E67 		.ascii	"long double\000"
 1486      20646F75 
 1486      626C6500 
 1487              	.LASF0:
 1488 0300 7369676E 		.ascii	"signed char\000"
 1488      65642063 
 1488      68617200 
 1489              	.LASF39:
 1490 030c 2F645F64 		.ascii	"/d_drive/axoloti/platform_linux/../CMSIS//DSP_Lib/S"
 1490      72697665 
 1490      2F61786F 
 1490      6C6F7469 
 1490      2F706C61 
 1491 033f 6F757263 		.ascii	"ource/TransformFunctions/arm_cfft_radix2_init_f32.c"
 1491      652F5472 
 1491      616E7366 
 1491      6F726D46 
 1491      756E6374 
 1492 0372 00       		.ascii	"\000"
 1493              	.LASF25:
 1494 0373 61726D5F 		.ascii	"arm_status\000"
 1494      73746174 
 1494      757300
 1495              	.LASF23:
 1496 037e 41524D5F 		.ascii	"ARM_MATH_SINGULAR\000"
 1496      4D415448 
 1496      5F53494E 
 1496      47554C41 
 1496      5200
 1497              		.ident	"GCC: (GNU Tools for ARM Embedded Processors) 4.9.3 20150529 (release) [ARM/embedded-4_9-br
ARM GAS  /tmp/ccOyiyKf.s 			page 30


DEFINED SYMBOLS
                            *ABS*:00000000 arm_cfft_radix2_init_f32.c
     /tmp/ccOyiyKf.s:20     .text:00000000 $t
     /tmp/ccOyiyKf.s:26     .text:00000000 arm_cfft_radix2_init_f32
     /tmp/ccOyiyKf.s:321    .text:00000138 $d
                     .debug_frame:00000010 $d

UNDEFINED SYMBOLS
twiddleCoef_4096
armBitRevTable
