ARM GAS  /tmp/ccOyiyKf.s 			page 1


   1              		.syntax unified
   2              		.cpu cortex-m4
   3              		.eabi_attribute 27, 1
   4              		.eabi_attribute 28, 1
   5              		.fpu fpv4-sp-d16
   6              		.eabi_attribute 20, 1
   7              		.eabi_attribute 21, 1
   8              		.eabi_attribute 23, 3
   9              		.eabi_attribute 24, 1
  10              		.eabi_attribute 25, 1
  11              		.eabi_attribute 26, 1
  12              		.eabi_attribute 30, 2
  13              		.eabi_attribute 34, 1
  14              		.eabi_attribute 18, 4
  15              		.thumb
  16              		.file	"arm_cfft_radix2_init_f32.c"
  17              		.text
  18              	.Ltext0:
  19              		.cfi_sections	.debug_frame
  20              		.align	2
  21              		.p2align 4,,15
  22              		.global	arm_cfft_radix2_init_f32
  23              		.thumb
  24              		.thumb_func
  25              		.type	arm_cfft_radix2_init_f32, %function
  26              	arm_cfft_radix2_init_f32:
  27              	.LFB135:
  28              		.file 1 "/d_drive/axoloti/platform_linux/../CMSIS//DSP_Lib/Source/TransformFunctions/arm_cfft_radi
  29              		.loc 1 81 0
  30              		.cfi_startproc
  31              		@ args = 0, pretend = 0, frame = 0
  32              		@ frame_needed = 0, uses_anonymous_args = 0
  33              		@ link register save eliminated.
  34              	.LVL0:
  35 0000 10B4     		push	{r4}
  36              		.cfi_def_cfa_offset 4
  37              		.cfi_offset 4, -4
  38              		.loc 1 98 0
  39 0002 B1F5807F 		cmp	r1, #256
  40              		.loc 1 89 0
  41 0006 4C4C     		ldr	r4, .L21
  42              		.loc 1 92 0
  43 0008 8270     		strb	r2, [r0, #2]
  44              		.loc 1 95 0
  45 000a C370     		strb	r3, [r0, #3]
  46              		.loc 1 86 0
  47 000c 0180     		strh	r1, [r0]	@ movhi
  48              		.loc 1 89 0
  49 000e 4460     		str	r4, [r0, #4]
  50              		.loc 1 98 0
  51 0010 72D0     		beq	.L3
  52 0012 17D9     		bls	.L18
  53 0014 B1F5806F 		cmp	r1, #1024
  54 0018 7BD0     		beq	.L10
  55 001a 50D9     		bls	.L19
  56 001c B1F5006F 		cmp	r1, #2048
  57 0020 30D0     		beq	.L13
ARM GAS  /tmp/ccOyiyKf.s 			page 2


  58 0022 B1F5805F 		cmp	r1, #4096
  59 0026 40F08180 		bne	.L15
  60              		.loc 1 111 0
  61 002a 4FF06653 		mov	r3, #964689920
  62              	.LVL1:
  63 002e 0361     		str	r3, [r0, #16]	@ float
  64              		.loc 1 109 0
  65 0030 424A     		ldr	r2, .L21+4
  66              	.LVL2:
  67 0032 8260     		str	r2, [r0, #8]
  68              		.loc 1 105 0
  69 0034 0123     		movs	r3, #1
  70 0036 8381     		strh	r3, [r0, #12]	@ movhi
  71              		.loc 1 107 0
  72 0038 C381     		strh	r3, [r0, #14]	@ movhi
  73              		.loc 1 83 0
  74 003a 0020     		movs	r0, #0
  75              	.LVL3:
  76              		.loc 1 201 0
  77 003c 40B2     		sxtb	r0, r0
  78 003e 5DF8044B 		ldr	r4, [sp], #4
  79              		.cfi_remember_state
  80              		.cfi_restore 4
  81              		.cfi_def_cfa_offset 0
  82 0042 7047     		bx	lr
  83              	.LVL4:
  84              	.L18:
  85              		.cfi_restore_state
  86              		.loc 1 98 0
  87 0044 2029     		cmp	r1, #32
  88 0046 4AD0     		beq	.L5
  89 0048 29D9     		bls	.L20
  90 004a 4029     		cmp	r1, #64
  91 004c 0ED0     		beq	.L8
  92 004e 8029     		cmp	r1, #128
  93 0050 6CD1     		bne	.L15
  94              		.loc 1 166 0
  95 0052 4FF07053 		mov	r3, #1006632960
  96              	.LVL5:
  97 0056 0361     		str	r3, [r0, #16]	@ float
  98              		.loc 1 165 0
  99 0058 394A     		ldr	r2, .L21+8
 100              	.LVL6:
 101 005a 8260     		str	r2, [r0, #8]
 102              		.loc 1 163 0
 103 005c 2023     		movs	r3, #32
 104 005e 8381     		strh	r3, [r0, #12]	@ movhi
 105              		.loc 1 164 0
 106 0060 C381     		strh	r3, [r0, #14]	@ movhi
 107              		.loc 1 83 0
 108 0062 0020     		movs	r0, #0
 109              	.LVL7:
 110              		.loc 1 201 0
 111 0064 40B2     		sxtb	r0, r0
 112 0066 5DF8044B 		ldr	r4, [sp], #4
 113              		.cfi_remember_state
 114              		.cfi_restore 4
ARM GAS  /tmp/ccOyiyKf.s 			page 3


 115              		.cfi_def_cfa_offset 0
 116 006a 7047     		bx	lr
 117              	.LVL8:
 118              	.L8:
 119              		.cfi_restore_state
 120              		.loc 1 174 0
 121 006c 4FF07252 		mov	r2, #1015021568
 122              	.LVL9:
 123              		.loc 1 173 0
 124 0070 344B     		ldr	r3, .L21+12
 125              	.LVL10:
 126              		.loc 1 171 0
 127 0072 8181     		strh	r1, [r0, #12]	@ movhi
 128              		.loc 1 172 0
 129 0074 C181     		strh	r1, [r0, #14]	@ movhi
 130              		.loc 1 174 0
 131 0076 0261     		str	r2, [r0, #16]	@ float
 132              		.loc 1 173 0
 133 0078 8360     		str	r3, [r0, #8]
 134              		.loc 1 83 0
 135 007a 0020     		movs	r0, #0
 136              	.LVL11:
 137              		.loc 1 201 0
 138 007c 40B2     		sxtb	r0, r0
 139 007e 5DF8044B 		ldr	r4, [sp], #4
 140              		.cfi_remember_state
 141              		.cfi_restore 4
 142              		.cfi_def_cfa_offset 0
 143 0082 7047     		bx	lr
 144              	.LVL12:
 145              	.L13:
 146              		.cfi_restore_state
 147              		.loc 1 124 0
 148 0084 4FF06853 		mov	r3, #973078528
 149              	.LVL13:
 150 0088 0361     		str	r3, [r0, #16]	@ float
 151              		.loc 1 122 0
 152 008a 2F4A     		ldr	r2, .L21+16
 153              	.LVL14:
 154 008c 8260     		str	r2, [r0, #8]
 155              		.loc 1 118 0
 156 008e 0223     		movs	r3, #2
 157 0090 8381     		strh	r3, [r0, #12]	@ movhi
 158              		.loc 1 120 0
 159 0092 C381     		strh	r3, [r0, #14]	@ movhi
 160              		.loc 1 83 0
 161 0094 0020     		movs	r0, #0
 162              	.LVL15:
 163              		.loc 1 201 0
 164 0096 40B2     		sxtb	r0, r0
 165 0098 5DF8044B 		ldr	r4, [sp], #4
 166              		.cfi_remember_state
 167              		.cfi_restore 4
 168              		.cfi_def_cfa_offset 0
 169 009c 7047     		bx	lr
 170              	.LVL16:
 171              	.L20:
ARM GAS  /tmp/ccOyiyKf.s 			page 4


 172              		.cfi_restore_state
 173              		.loc 1 98 0
 174 009e 1029     		cmp	r1, #16
 175 00a0 44D1     		bne	.L15
 176              		.loc 1 190 0
 177 00a2 4FF07653 		mov	r3, #1031798784
 178              	.LVL17:
 179 00a6 0361     		str	r3, [r0, #16]	@ float
 180              		.loc 1 189 0
 181 00a8 284A     		ldr	r2, .L21+20
 182              	.LVL18:
 183 00aa 8260     		str	r2, [r0, #8]
 184              		.loc 1 187 0
 185 00ac 4FF48073 		mov	r3, #256
 186 00b0 8381     		strh	r3, [r0, #12]	@ movhi
 187              		.loc 1 188 0
 188 00b2 C381     		strh	r3, [r0, #14]	@ movhi
 189              		.loc 1 83 0
 190 00b4 0020     		movs	r0, #0
 191              	.LVL19:
 192              		.loc 1 201 0
 193 00b6 40B2     		sxtb	r0, r0
 194 00b8 5DF8044B 		ldr	r4, [sp], #4
 195              		.cfi_remember_state
 196              		.cfi_restore 4
 197              		.cfi_def_cfa_offset 0
 198 00bc 7047     		bx	lr
 199              	.LVL20:
 200              	.L19:
 201              		.cfi_restore_state
 202              		.loc 1 98 0
 203 00be B1F5007F 		cmp	r1, #512
 204 00c2 33D1     		bne	.L15
 205              		.loc 1 150 0
 206 00c4 4FF06C53 		mov	r3, #989855744
 207              	.LVL21:
 208 00c8 0361     		str	r3, [r0, #16]	@ float
 209              		.loc 1 148 0
 210 00ca 214A     		ldr	r2, .L21+24
 211              	.LVL22:
 212 00cc 8260     		str	r2, [r0, #8]
 213              		.loc 1 144 0
 214 00ce 0823     		movs	r3, #8
 215 00d0 8381     		strh	r3, [r0, #12]	@ movhi
 216              		.loc 1 146 0
 217 00d2 C381     		strh	r3, [r0, #14]	@ movhi
 218              		.loc 1 83 0
 219 00d4 0020     		movs	r0, #0
 220              	.LVL23:
 221              		.loc 1 201 0
 222 00d6 40B2     		sxtb	r0, r0
 223 00d8 5DF8044B 		ldr	r4, [sp], #4
 224              		.cfi_remember_state
 225              		.cfi_restore 4
 226              		.cfi_def_cfa_offset 0
 227 00dc 7047     		bx	lr
 228              	.LVL24:
ARM GAS  /tmp/ccOyiyKf.s 			page 5


 229              	.L5:
 230              		.cfi_restore_state
 231              		.loc 1 182 0
 232 00de 4FF07453 		mov	r3, #1023410176
 233              	.LVL25:
 234 00e2 0361     		str	r3, [r0, #16]	@ float
 235              		.loc 1 181 0
 236 00e4 1B4A     		ldr	r2, .L21+28
 237              	.LVL26:
 238 00e6 8260     		str	r2, [r0, #8]
 239              		.loc 1 179 0
 240 00e8 8023     		movs	r3, #128
 241 00ea 8381     		strh	r3, [r0, #12]	@ movhi
 242              		.loc 1 180 0
 243 00ec C381     		strh	r3, [r0, #14]	@ movhi
 244              		.loc 1 83 0
 245 00ee 0020     		movs	r0, #0
 246              	.LVL27:
 247              		.loc 1 201 0
 248 00f0 40B2     		sxtb	r0, r0
 249 00f2 5DF8044B 		ldr	r4, [sp], #4
 250              		.cfi_remember_state
 251              		.cfi_restore 4
 252              		.cfi_def_cfa_offset 0
 253 00f6 7047     		bx	lr
 254              	.LVL28:
 255              	.L3:
 256              		.cfi_restore_state
 257              		.loc 1 158 0
 258 00f8 4FF06E53 		mov	r3, #998244352
 259              	.LVL29:
 260 00fc 0361     		str	r3, [r0, #16]	@ float
 261              		.loc 1 157 0
 262 00fe 164A     		ldr	r2, .L21+32
 263              	.LVL30:
 264 0100 8260     		str	r2, [r0, #8]
 265              		.loc 1 155 0
 266 0102 1023     		movs	r3, #16
 267 0104 8381     		strh	r3, [r0, #12]	@ movhi
 268              		.loc 1 156 0
 269 0106 C381     		strh	r3, [r0, #14]	@ movhi
 270              		.loc 1 83 0
 271 0108 0020     		movs	r0, #0
 272              	.LVL31:
 273              		.loc 1 201 0
 274 010a 40B2     		sxtb	r0, r0
 275 010c 5DF8044B 		ldr	r4, [sp], #4
 276              		.cfi_remember_state
 277              		.cfi_restore 4
 278              		.cfi_def_cfa_offset 0
 279 0110 7047     		bx	lr
 280              	.LVL32:
 281              	.L10:
 282              		.cfi_restore_state
 283              		.loc 1 137 0
 284 0112 4FF06A53 		mov	r3, #981467136
 285              	.LVL33:
ARM GAS  /tmp/ccOyiyKf.s 			page 6


 286 0116 0361     		str	r3, [r0, #16]	@ float
 287              		.loc 1 135 0
 288 0118 104A     		ldr	r2, .L21+36
 289              	.LVL34:
 290 011a 8260     		str	r2, [r0, #8]
 291              		.loc 1 131 0
 292 011c 0423     		movs	r3, #4
 293 011e 8381     		strh	r3, [r0, #12]	@ movhi
 294              		.loc 1 133 0
 295 0120 C381     		strh	r3, [r0, #14]	@ movhi
 296              		.loc 1 83 0
 297 0122 0020     		movs	r0, #0
 298              	.LVL35:
 299              		.loc 1 201 0
 300 0124 40B2     		sxtb	r0, r0
 301 0126 5DF8044B 		ldr	r4, [sp], #4
 302              		.cfi_remember_state
 303              		.cfi_restore 4
 304              		.cfi_def_cfa_offset 0
 305 012a 7047     		bx	lr
 306              	.LVL36:
 307              	.L15:
 308              		.cfi_restore_state
 309              		.loc 1 196 0
 310 012c FF20     		movs	r0, #255
 311              	.LVL37:
 312              		.loc 1 201 0
 313 012e 40B2     		sxtb	r0, r0
 314 0130 5DF8044B 		ldr	r4, [sp], #4
 315              		.cfi_restore 4
 316              		.cfi_def_cfa_offset 0
 317 0134 7047     		bx	lr
 318              	.L22:
 319 0136 00BF     		.align	2
 320              	.L21:
 321 0138 00000000 		.word	twiddleCoef_4096
 322 013c 00000000 		.word	armBitRevTable
 323 0140 3E000000 		.word	armBitRevTable+62
 324 0144 7E000000 		.word	armBitRevTable+126
 325 0148 02000000 		.word	armBitRevTable+2
 326 014c FE010000 		.word	armBitRevTable+510
 327 0150 0E000000 		.word	armBitRevTable+14
 328 0154 FE000000 		.word	armBitRevTable+254
 329 0158 1E000000 		.word	armBitRevTable+30
 330 015c 06000000 		.word	armBitRevTable+6
 331              		.cfi_endproc
 332              	.LFE135:
 333              		.size	arm_cfft_radix2_init_f32, .-arm_cfft_radix2_init_f32
 334              	.Letext0:
 335              		.file 2 "/d_drive/axoloti/platform_linux/arm-none-eabi/include/machine/_default_types.h"
 336              		.file 3 "/d_drive/axoloti/platform_linux/arm-none-eabi/include/sys/_stdint.h"
 337              		.file 4 "/d_drive/axoloti/platform_linux/../CMSIS//DSP_Lib/Include/arm_math.h"
 338              		.file 5 "/d_drive/axoloti/platform_linux/../CMSIS//DSP_Lib/Include/arm_common_tables.h"