ARM GAS  /tmp/cc9jbT0a.s 			page 1


   1              		.syntax unified
   2              		.cpu cortex-m4
   3              		.eabi_attribute 27, 1
   4              		.eabi_attribute 28, 1
   5              		.fpu fpv4-sp-d16
   6              		.eabi_attribute 20, 1
   7              		.eabi_attribute 21, 1
   8              		.eabi_attribute 23, 3
   9              		.eabi_attribute 24, 1
  10              		.eabi_attribute 25, 1
  11              		.eabi_attribute 26, 1
  12              		.eabi_attribute 30, 2
  13              		.eabi_attribute 34, 1
  14              		.eabi_attribute 18, 4
  15              		.thumb
  16              		.file	"arm_cmplx_mult_cmplx_f32.c"
  17              		.text
  18              	.Ltext0:
  19              		.cfi_sections	.debug_frame
  20              		.align	2
  21              		.p2align 4,,15
  22              		.global	arm_cmplx_mult_cmplx_f32
  23              		.thumb
  24              		.thumb_func
  25              		.type	arm_cmplx_mult_cmplx_f32, %function
  26              	arm_cmplx_mult_cmplx_f32:
  27              	.LFB135:
  28              		.file 1 "/home/sbcu/Dropbox/pcb-layouts/axo-on-discovery-board/axoloti/platform_linux/../CMSIS//DS
  29              		.loc 1 88 0
  30              		.cfi_startproc
  31              		@ args = 0, pretend = 0, frame = 0
  32              		@ frame_needed = 0, uses_anonymous_args = 0
  33              	.LVL0:
  34 0000 F0B5     		push	{r4, r5, r6, r7, lr}
  35              		.cfi_def_cfa_offset 20
  36              		.cfi_offset 4, -20
  37              		.cfi_offset 5, -16
  38              		.cfi_offset 6, -12
  39              		.cfi_offset 7, -8
  40              		.cfi_offset 14, -4
  41              		.loc 1 104 0
  42 0002 5FEA930E 		lsrs	lr, r3, #2
  43              	.LVL1:
  44 0006 63D0     		beq	.L2
  45 0008 00F12006 		add	r6, r0, #32
  46 000c 01F12005 		add	r5, r1, #32
  47 0010 02F12004 		add	r4, r2, #32
  48 0014 7746     		mov	r7, lr
  49              	.LVL2:
  50              	.L3:
  51              		.loc 1 111 0
  52 0016 56ED072A 		flds	s5, [r6, #-28]
  53              		.loc 1 117 0
  54 001a 15ED077A 		flds	s14, [r5, #-28]
  55              		.loc 1 108 0
  56 001e 56ED086A 		flds	s13, [r6, #-32]
  57              	.LVL3:
ARM GAS  /tmp/cc9jbT0a.s 			page 2


  58              		.loc 1 109 0
  59 0022 55ED083A 		flds	s7, [r5, #-32]
  60              	.LVL4:
  61              		.loc 1 118 0
  62 0026 55ED064A 		flds	s9, [r5, #-24]
  63              		.loc 1 121 0
  64 002a 55ED055A 		flds	s11, [r5, #-20]
  65              		.loc 1 124 0
  66 002e 56ED057A 		flds	s15, [r6, #-20]
  67              		.loc 1 114 0
  68 0032 16ED065A 		flds	s10, [r6, #-24]
  69              	.LVL5:
  70              		.loc 1 127 0
  71 0036 16ED043A 		flds	s6, [r6, #-16]
  72              	.LVL6:
  73              		.loc 1 130 0
  74 003a 15ED044A 		flds	s8, [r5, #-16]
  75              	.LVL7:
  76 003e 27EE626A 		fnmuls	s12, s14, s5
  77              		.loc 1 125 0
  78 0042 26EE877A 		fmuls	s14, s13, s14
  79              	.LVL8:
  80              		.loc 1 119 0
  81 0046 A6EEA36A 		vfma.f32	s12, s13, s7
  82              	.LVL9:
  83              		.loc 1 104 0
  84 004a 013F     		subs	r7, r7, #1
  85              	.LVL10:
  86 004c 06F12006 		add	r6, r6, #32
  87              	.LVL11:
  88 0050 65EEE76A 		fnmuls	s13, s11, s15
  89              	.LVL12:
  90              		.loc 1 135 0
  91 0054 67EEA47A 		fmuls	s15, s15, s9
  92              	.LVL13:
  93              		.loc 1 125 0
  94 0058 A2EEA37A 		vfma.f32	s14, s5, s7
  95              	.LVL14:
  96 005c 05F12005 		add	r5, r5, #32
  97              	.LVL15:
  98 0060 04F12004 		add	r4, r4, #32
  99              		.loc 1 131 0
 100 0064 E5EE246A 		vfma.f32	s13, s10, s9
 101              	.LVL16:
 102              		.loc 1 135 0
 103 0068 E5EE257A 		vfma.f32	s15, s10, s11
 104              		.loc 1 132 0
 105 006c 04ED106A 		fsts	s12, [r4, #-64]
 106              	.LVL17:
 107              		.loc 1 134 0
 108 0070 56ED0B3A 		flds	s7, [r6, #-44]
 109              	.LVL18:
 110              		.loc 1 137 0
 111 0074 04ED0F7A 		fsts	s14, [r4, #-60]
 112              	.LVL19:
 113              		.loc 1 140 0
 114 0078 15ED0B7A 		flds	s14, [r5, #-44]
ARM GAS  /tmp/cc9jbT0a.s 			page 3


 115              	.LVL20:
 116              		.loc 1 143 0
 117 007c 44ED0E6A 		fsts	s13, [r4, #-56]
 118              		.loc 1 144 0
 119 0080 44ED0D7A 		fsts	s15, [r4, #-52]
 120              		.loc 1 146 0
 121 0084 56ED0A4A 		flds	s9, [r6, #-40]
 122              	.LVL21:
 123              		.loc 1 152 0
 124 0088 16ED095A 		flds	s10, [r6, #-36]
 125              		.loc 1 155 0
 126 008c 55ED097A 		flds	s15, [r5, #-36]
 127              		.loc 1 149 0
 128 0090 55ED0A5A 		flds	s11, [r5, #-40]
 129              	.LVL22:
 130 0094 27EE636A 		fnmuls	s12, s14, s7
 131 0098 67EEC56A 		fnmuls	s13, s15, s10
 132              		.loc 1 150 0
 133 009c 23EE077A 		fmuls	s14, s6, s14
 134              	.LVL23:
 135              		.loc 1 162 0
 136 00a0 64EEA77A 		fmuls	s15, s9, s15
 137              	.LVL24:
 138              		.loc 1 147 0
 139 00a4 A3EE046A 		vfma.f32	s12, s6, s8
 140              	.LVL25:
 141              		.loc 1 150 0
 142 00a8 A3EE847A 		vfma.f32	s14, s7, s8
 143              	.LVL26:
 144              		.loc 1 161 0
 145 00ac E4EEA56A 		vfma.f32	s13, s9, s11
 146              		.loc 1 162 0
 147 00b0 E5EE257A 		vfma.f32	s15, s10, s11
 148              		.loc 1 158 0
 149 00b4 04ED0C6A 		fsts	s12, [r4, #-48]
 150              	.LVL27:
 151              		.loc 1 164 0
 152 00b8 04ED0B7A 		fsts	s14, [r4, #-44]
 153              	.LVL28:
 154              		.loc 1 167 0
 155 00bc 44ED0A6A 		fsts	s13, [r4, #-40]
 156              		.loc 1 168 0
 157 00c0 44ED097A 		fsts	s15, [r4, #-36]
 158              	.LVL29:
 159              		.loc 1 104 0
 160 00c4 A7D1     		bne	.L3
 161 00c6 4FEA4E14 		lsl	r4, lr, #5
 162 00ca 2044     		add	r0, r0, r4
 163 00cc 2144     		add	r1, r1, r4
 164 00ce 2244     		add	r2, r2, r4
 165              	.LVL30:
 166              	.L2:
 167              		.loc 1 187 0
 168 00d0 13F00303 		ands	r3, r3, #3
 169              	.LVL31:
 170 00d4 1ED0     		beq	.L1
 171 00d6 0830     		adds	r0, r0, #8
ARM GAS  /tmp/cc9jbT0a.s 			page 4


 172              	.LVL32:
 173 00d8 0831     		adds	r1, r1, #8
 174              	.LVL33:
 175 00da 0832     		adds	r2, r2, #8
 176              	.LVL34:
 177              	.L5:
 178              		.loc 1 192 0
 179 00dc 50ED017A 		flds	s15, [r0, #-4]
 180              		.loc 1 194 0
 181 00e0 51ED016A 		flds	s13, [r1, #-4]
 182              		.loc 1 193 0
 183 00e4 51ED025A 		flds	s11, [r1, #-8]
 184              		.loc 1 191 0
 185 00e8 10ED026A 		flds	s12, [r0, #-8]
 186              	.LVL35:
 187 00ec 26EEE77A 		fnmuls	s14, s13, s15
 188              		.loc 1 198 0
 189 00f0 67EEA57A 		fmuls	s15, s15, s11
 190              	.LVL36:
 191              		.loc 1 197 0
 192 00f4 A6EE257A 		vfma.f32	s14, s12, s11
 193              		.loc 1 187 0
 194 00f8 013B     		subs	r3, r3, #1
 195              	.LVL37:
 196 00fa 01F10801 		add	r1, r1, #8
 197              		.loc 1 198 0
 198 00fe E6EE267A 		vfma.f32	s15, s12, s13
 199 0102 00F10800 		add	r0, r0, #8
 200              	.LVL38:
 201 0106 02F10802 		add	r2, r2, #8
 202              		.loc 1 197 0
 203 010a 02ED047A 		fsts	s14, [r2, #-16]
 204              	.LVL39:
 205              		.loc 1 198 0
 206 010e 42ED037A 		fsts	s15, [r2, #-12]
 207              		.loc 1 187 0
 208 0112 E3D1     		bne	.L5
 209              	.LVL40:
 210              	.L1:
 211 0114 F0BD     		pop	{r4, r5, r6, r7, pc}
 212              		.cfi_endproc
 213              	.LFE135:
 214              		.size	arm_cmplx_mult_cmplx_f32, .-arm_cmplx_mult_cmplx_f32
 215              	.Letext0:
 216              		.file 2 "/home/sbcu/Dropbox/pcb-layouts/axo-on-discovery-board/axoloti/platform_linux/arm-none-eab
 217              		.file 3 "/home/sbcu/Dropbox/pcb-layouts/axo-on-discovery-board/axoloti/platform_linux/arm-none-eab
 218              		.file 4 "/home/sbcu/Dropbox/pcb-layouts/axo-on-discovery-board/axoloti/platform_linux/../CMSIS//DS
 219 0116 00BF     		.section	.debug_info,"",%progbits
 220              	.Ldebug_info0:
 221 0000 B8010000 		.4byte	0x1b8
 222 0004 0400     		.2byte	0x4
 223 0006 00000000 		.4byte	.Ldebug_abbrev0
 224 000a 04       		.byte	0x4
 225 000b 01       		.uleb128 0x1
 226 000c 0A000000 		.4byte	.LASF26
 227 0010 01       		.byte	0x1
 228 0011 08020000 		.4byte	.LASF27
ARM GAS  /tmp/cc9jbT0a.s 			page 5


 229 0015 00000000 		.4byte	.Ltext0
 230 0019 16010000 		.4byte	.Letext0-.Ltext0
 231 001d 00000000 		.4byte	.Ldebug_line0
 232 0021 02       		.uleb128 0x2
 233 0022 04       		.byte	0x4
 234 0023 04       		.byte	0x4
 235 0024 0F010000 		.4byte	.LASF0
 236 0028 02       		.uleb128 0x2
 237 0029 01       		.byte	0x1
 238 002a 06       		.byte	0x6
 239 002b F1010000 		.4byte	.LASF1
 240 002f 02       		.uleb128 0x2
 241 0030 01       		.byte	0x1
 242 0031 08       		.byte	0x8
 243 0032 15010000 		.4byte	.LASF2
 244 0036 02       		.uleb128 0x2
 245 0037 02       		.byte	0x2
 246 0038 05       		.byte	0x5
 247 0039 B0010000 		.4byte	.LASF3
 248 003d 02       		.uleb128 0x2
 249 003e 02       		.byte	0x2
 250 003f 07       		.byte	0x7
 251 0040 3C010000 		.4byte	.LASF4
 252 0044 02       		.uleb128 0x2
 253 0045 04       		.byte	0x4
 254 0046 05       		.byte	0x5
 255 0047 C3010000 		.4byte	.LASF5
 256 004b 03       		.uleb128 0x3
 257 004c 5B010000 		.4byte	.LASF10
 258 0050 02       		.byte	0x2
 259 0051 41       		.byte	0x41
 260 0052 56000000 		.4byte	0x56
 261 0056 02       		.uleb128 0x2
 262 0057 04       		.byte	0x4
 263 0058 07       		.byte	0x7
 264 0059 2A010000 		.4byte	.LASF6
 265 005d 02       		.uleb128 0x2
 266 005e 08       		.byte	0x8
 267 005f 05       		.byte	0x5
 268 0060 93010000 		.4byte	.LASF7
 269 0064 02       		.uleb128 0x2
 270 0065 08       		.byte	0x8
 271 0066 07       		.byte	0x7
 272 0067 73010000 		.4byte	.LASF8
 273 006b 04       		.uleb128 0x4
 274 006c 04       		.byte	0x4
 275 006d 05       		.byte	0x5
 276 006e 696E7400 		.ascii	"int\000"
 277 0072 02       		.uleb128 0x2
 278 0073 04       		.byte	0x4
 279 0074 07       		.byte	0x7
 280 0075 66010000 		.4byte	.LASF9
 281 0079 03       		.uleb128 0x3
 282 007a BA010000 		.4byte	.LASF11
 283 007e 03       		.byte	0x3
 284 007f 20       		.byte	0x20
 285 0080 4B000000 		.4byte	0x4b
ARM GAS  /tmp/cc9jbT0a.s 			page 6


 286 0084 02       		.uleb128 0x2
 287 0085 04       		.byte	0x4
 288 0086 07       		.byte	0x7
 289 0087 8A010000 		.4byte	.LASF12
 290 008b 02       		.uleb128 0x2
 291 008c 01       		.byte	0x1
 292 008d 08       		.byte	0x8
 293 008e A1010000 		.4byte	.LASF13
 294 0092 02       		.uleb128 0x2
 295 0093 08       		.byte	0x8
 296 0094 04       		.byte	0x4
 297 0095 54010000 		.4byte	.LASF14
 298 0099 02       		.uleb128 0x2
 299 009a 08       		.byte	0x8
 300 009b 04       		.byte	0x4
 301 009c E5010000 		.4byte	.LASF15
 302 00a0 05       		.uleb128 0x5
 303 00a1 A6010000 		.4byte	.LASF16
 304 00a5 04       		.byte	0x4
 305 00a6 AA01     		.2byte	0x1aa
 306 00a8 21000000 		.4byte	0x21
 307 00ac 06       		.uleb128 0x6
 308 00ad 04       		.byte	0x4
 309 00ae A0000000 		.4byte	0xa0
 310 00b2 07       		.uleb128 0x7
 311 00b3 CC010000 		.4byte	.LASF28
 312 00b7 01       		.byte	0x1
 313 00b8 53       		.byte	0x53
 314 00b9 00000000 		.4byte	.LFB135
 315 00bd 16010000 		.4byte	.LFE135-.LFB135
 316 00c1 01       		.uleb128 0x1
 317 00c2 9C       		.byte	0x9c
 318 00c3 08       		.uleb128 0x8
 319 00c4 03010000 		.4byte	.LASF17
 320 00c8 01       		.byte	0x1
 321 00c9 54       		.byte	0x54
 322 00ca AC000000 		.4byte	0xac
 323 00ce 00000000 		.4byte	.LLST0
 324 00d2 08       		.uleb128 0x8
 325 00d3 09010000 		.4byte	.LASF18
 326 00d7 01       		.byte	0x1
 327 00d8 55       		.byte	0x55
 328 00d9 AC000000 		.4byte	0xac
 329 00dd 6A000000 		.4byte	.LLST1
 330 00e1 08       		.uleb128 0x8
 331 00e2 4F010000 		.4byte	.LASF19
 332 00e6 01       		.byte	0x1
 333 00e7 56       		.byte	0x56
 334 00e8 AC000000 		.4byte	0xac
 335 00ec C1000000 		.4byte	.LLST2
 336 00f0 08       		.uleb128 0x8
 337 00f1 FD010000 		.4byte	.LASF20
 338 00f5 01       		.byte	0x1
 339 00f6 57       		.byte	0x57
 340 00f7 79000000 		.4byte	0x79
 341 00fb 0B010000 		.4byte	.LLST3
 342 00ff 09       		.uleb128 0x9
ARM GAS  /tmp/cc9jbT0a.s 			page 7


 343 0100 613100   		.ascii	"a1\000"
 344 0103 01       		.byte	0x1
 345 0104 59       		.byte	0x59
 346 0105 A0000000 		.4byte	0xa0
 347 0109 2C010000 		.4byte	.LLST4
 348 010d 09       		.uleb128 0x9
 349 010e 623100   		.ascii	"b1\000"
 350 0111 01       		.byte	0x1
 351 0112 59       		.byte	0x59
 352 0113 A0000000 		.4byte	0xa0
 353 0117 58010000 		.4byte	.LLST5
 354 011b 09       		.uleb128 0x9
 355 011c 633100   		.ascii	"c1\000"
 356 011f 01       		.byte	0x1
 357 0120 59       		.byte	0x59
 358 0121 A0000000 		.4byte	0xa0
 359 0125 9C010000 		.4byte	.LLST6
 360 0129 09       		.uleb128 0x9
 361 012a 643100   		.ascii	"d1\000"
 362 012d 01       		.byte	0x1
 363 012e 59       		.byte	0x59
 364 012f A0000000 		.4byte	0xa0
 365 0133 C8010000 		.4byte	.LLST7
 366 0137 0A       		.uleb128 0xa
 367 0138 23010000 		.4byte	.LASF21
 368 013c 01       		.byte	0x1
 369 013d 5A       		.byte	0x5a
 370 013e 79000000 		.4byte	0x79
 371 0142 0C020000 		.4byte	.LLST8
 372 0146 09       		.uleb128 0x9
 373 0147 613200   		.ascii	"a2\000"
 374 014a 01       		.byte	0x1
 375 014b 5F       		.byte	0x5f
 376 014c A0000000 		.4byte	0xa0
 377 0150 6D020000 		.4byte	.LLST9
 378 0154 09       		.uleb128 0x9
 379 0155 623200   		.ascii	"b2\000"
 380 0158 01       		.byte	0x1
 381 0159 5F       		.byte	0x5f
 382 015a A0000000 		.4byte	0xa0
 383 015e 8D020000 		.4byte	.LLST10
 384 0162 09       		.uleb128 0x9
 385 0163 633200   		.ascii	"c2\000"
 386 0166 01       		.byte	0x1
 387 0167 5F       		.byte	0x5f
 388 0168 A0000000 		.4byte	0xa0
 389 016c B9020000 		.4byte	.LLST11
 390 0170 09       		.uleb128 0x9
 391 0171 643200   		.ascii	"d2\000"
 392 0174 01       		.byte	0x1
 393 0175 5F       		.byte	0x5f
 394 0176 A0000000 		.4byte	0xa0
 395 017a D9020000 		.4byte	.LLST12
 396 017e 0A       		.uleb128 0xa
 397 017f 9E020000 		.4byte	.LASF22
 398 0183 01       		.byte	0x1
 399 0184 60       		.byte	0x60
ARM GAS  /tmp/cc9jbT0a.s 			page 8


 400 0185 A0000000 		.4byte	0xa0
 401 0189 05030000 		.4byte	.LLST13
 402 018d 0A       		.uleb128 0xa
 403 018e A3020000 		.4byte	.LASF23
 404 0192 01       		.byte	0x1
 405 0193 60       		.byte	0x60
 406 0194 A0000000 		.4byte	0xa0
 407 0198 49030000 		.4byte	.LLST14
 408 019c 0A       		.uleb128 0xa
 409 019d 00000000 		.4byte	.LASF24
 410 01a1 01       		.byte	0x1
 411 01a2 60       		.byte	0x60
 412 01a3 A0000000 		.4byte	0xa0
 413 01a7 7B030000 		.4byte	.LLST15
 414 01ab 0A       		.uleb128 0xa
 415 01ac 05000000 		.4byte	.LASF25
 416 01b0 01       		.byte	0x1
 417 01b1 60       		.byte	0x60
 418 01b2 A0000000 		.4byte	0xa0
 419 01b6 B3030000 		.4byte	.LLST16
 420 01ba 00       		.byte	0
 421 01bb 00       		.byte	0
 422              		.section	.debug_abbrev,"",%progbits
 423              	.Ldebug_abbrev0:
 424 0000 01       		.uleb128 0x1
 425 0001 11       		.uleb128 0x11
 426 0002 01       		.byte	0x1
 427 0003 25       		.uleb128 0x25
 428 0004 0E       		.uleb128 0xe
 429 0005 13       		.uleb128 0x13
 430 0006 0B       		.uleb128 0xb
 431 0007 03       		.uleb128 0x3
 432 0008 0E       		.uleb128 0xe
 433 0009 11       		.uleb128 0x11
 434 000a 01       		.uleb128 0x1
 435 000b 12       		.uleb128 0x12
 436 000c 06       		.uleb128 0x6
 437 000d 10       		.uleb128 0x10
 438 000e 17       		.uleb128 0x17
 439 000f 00       		.byte	0
 440 0010 00       		.byte	0
 441 0011 02       		.uleb128 0x2
 442 0012 24       		.uleb128 0x24
 443 0013 00       		.byte	0
 444 0014 0B       		.uleb128 0xb
 445 0015 0B       		.uleb128 0xb
 446 0016 3E       		.uleb128 0x3e
 447 0017 0B       		.uleb128 0xb
 448 0018 03       		.uleb128 0x3
 449 0019 0E       		.uleb128 0xe
 450 001a 00       		.byte	0
 451 001b 00       		.byte	0
 452 001c 03       		.uleb128 0x3
 453 001d 16       		.uleb128 0x16
 454 001e 00       		.byte	0
 455 001f 03       		.uleb128 0x3
 456 0020 0E       		.uleb128 0xe
ARM GAS  /tmp/cc9jbT0a.s 			page 9


 457 0021 3A       		.uleb128 0x3a
 458 0022 0B       		.uleb128 0xb
 459 0023 3B       		.uleb128 0x3b
 460 0024 0B       		.uleb128 0xb
 461 0025 49       		.uleb128 0x49
 462 0026 13       		.uleb128 0x13
 463 0027 00       		.byte	0
 464 0028 00       		.byte	0
 465 0029 04       		.uleb128 0x4
 466 002a 24       		.uleb128 0x24
 467 002b 00       		.byte	0
 468 002c 0B       		.uleb128 0xb
 469 002d 0B       		.uleb128 0xb
 470 002e 3E       		.uleb128 0x3e
 471 002f 0B       		.uleb128 0xb
 472 0030 03       		.uleb128 0x3
 473 0031 08       		.uleb128 0x8
 474 0032 00       		.byte	0
 475 0033 00       		.byte	0
 476 0034 05       		.uleb128 0x5
 477 0035 16       		.uleb128 0x16
 478 0036 00       		.byte	0
 479 0037 03       		.uleb128 0x3
 480 0038 0E       		.uleb128 0xe
 481 0039 3A       		.uleb128 0x3a
 482 003a 0B       		.uleb128 0xb
 483 003b 3B       		.uleb128 0x3b
 484 003c 05       		.uleb128 0x5
 485 003d 49       		.uleb128 0x49
 486 003e 13       		.uleb128 0x13
 487 003f 00       		.byte	0
 488 0040 00       		.byte	0
 489 0041 06       		.uleb128 0x6
 490 0042 0F       		.uleb128 0xf
 491 0043 00       		.byte	0
 492 0044 0B       		.uleb128 0xb
 493 0045 0B       		.uleb128 0xb
 494 0046 49       		.uleb128 0x49
 495 0047 13       		.uleb128 0x13
 496 0048 00       		.byte	0
 497 0049 00       		.byte	0
 498 004a 07       		.uleb128 0x7
 499 004b 2E       		.uleb128 0x2e
 500 004c 01       		.byte	0x1
 501 004d 3F       		.uleb128 0x3f
 502 004e 19       		.uleb128 0x19
 503 004f 03       		.uleb128 0x3
 504 0050 0E       		.uleb128 0xe
 505 0051 3A       		.uleb128 0x3a
 506 0052 0B       		.uleb128 0xb
 507 0053 3B       		.uleb128 0x3b
 508 0054 0B       		.uleb128 0xb
 509 0055 27       		.uleb128 0x27
 510 0056 19       		.uleb128 0x19
 511 0057 11       		.uleb128 0x11
 512 0058 01       		.uleb128 0x1
 513 0059 12       		.uleb128 0x12
ARM GAS  /tmp/cc9jbT0a.s 			page 10


 514 005a 06       		.uleb128 0x6
 515 005b 40       		.uleb128 0x40
 516 005c 18       		.uleb128 0x18
 517 005d 9742     		.uleb128 0x2117
 518 005f 19       		.uleb128 0x19
 519 0060 00       		.byte	0
 520 0061 00       		.byte	0
 521 0062 08       		.uleb128 0x8
 522 0063 05       		.uleb128 0x5
 523 0064 00       		.byte	0
 524 0065 03       		.uleb128 0x3
 525 0066 0E       		.uleb128 0xe
 526 0067 3A       		.uleb128 0x3a
 527 0068 0B       		.uleb128 0xb
 528 0069 3B       		.uleb128 0x3b
 529 006a 0B       		.uleb128 0xb
 530 006b 49       		.uleb128 0x49
 531 006c 13       		.uleb128 0x13
 532 006d 02       		.uleb128 0x2
 533 006e 17       		.uleb128 0x17
 534 006f 00       		.byte	0
 535 0070 00       		.byte	0
 536 0071 09       		.uleb128 0x9
 537 0072 34       		.uleb128 0x34
 538 0073 00       		.byte	0
 539 0074 03       		.uleb128 0x3
 540 0075 08       		.uleb128 0x8
 541 0076 3A       		.uleb128 0x3a
 542 0077 0B       		.uleb128 0xb
 543 0078 3B       		.uleb128 0x3b
 544 0079 0B       		.uleb128 0xb
 545 007a 49       		.uleb128 0x49
 546 007b 13       		.uleb128 0x13
 547 007c 02       		.uleb128 0x2
 548 007d 17       		.uleb128 0x17
 549 007e 00       		.byte	0
 550 007f 00       		.byte	0
 551 0080 0A       		.uleb128 0xa
 552 0081 34       		.uleb128 0x34
 553 0082 00       		.byte	0
 554 0083 03       		.uleb128 0x3
 555 0084 0E       		.uleb128 0xe
 556 0085 3A       		.uleb128 0x3a
 557 0086 0B       		.uleb128 0xb
 558 0087 3B       		.uleb128 0x3b
 559 0088 0B       		.uleb128 0xb
 560 0089 49       		.uleb128 0x49
 561 008a 13       		.uleb128 0x13
 562 008b 02       		.uleb128 0x2
 563 008c 17       		.uleb128 0x17
 564 008d 00       		.byte	0
 565 008e 00       		.byte	0
 566 008f 00       		.byte	0
 567              		.section	.debug_loc,"",%progbits
 568              	.Ldebug_loc0:
 569              	.LLST0:
 570 0000 00000000 		.4byte	.LVL0-.Ltext0
ARM GAS  /tmp/cc9jbT0a.s 			page 11


 571 0004 16000000 		.4byte	.LVL2-.Ltext0
 572 0008 0100     		.2byte	0x1
 573 000a 50       		.byte	0x50
 574 000b 16000000 		.4byte	.LVL2-.Ltext0
 575 000f 50000000 		.4byte	.LVL11-.Ltext0
 576 0013 0300     		.2byte	0x3
 577 0015 76       		.byte	0x76
 578 0016 60       		.sleb128 -32
 579 0017 9F       		.byte	0x9f
 580 0018 50000000 		.4byte	.LVL11-.Ltext0
 581 001c B8000000 		.4byte	.LVL27-.Ltext0
 582 0020 0300     		.2byte	0x3
 583 0022 76       		.byte	0x76
 584 0023 40       		.sleb128 -64
 585 0024 9F       		.byte	0x9f
 586 0025 D0000000 		.4byte	.LVL30-.Ltext0
 587 0029 D8000000 		.4byte	.LVL32-.Ltext0
 588 002d 0100     		.2byte	0x1
 589 002f 50       		.byte	0x50
 590 0030 D8000000 		.4byte	.LVL32-.Ltext0
 591 0034 DC000000 		.4byte	.LVL34-.Ltext0
 592 0038 0300     		.2byte	0x3
 593 003a 70       		.byte	0x70
 594 003b 78       		.sleb128 -8
 595 003c 9F       		.byte	0x9f
 596 003d DC000000 		.4byte	.LVL34-.Ltext0
 597 0041 EC000000 		.4byte	.LVL35-.Ltext0
 598 0045 0300     		.2byte	0x3
 599 0047 70       		.byte	0x70
 600 0048 7C       		.sleb128 -4
 601 0049 9F       		.byte	0x9f
 602 004a EC000000 		.4byte	.LVL35-.Ltext0
 603 004e 06010000 		.4byte	.LVL38-.Ltext0
 604 0052 0100     		.2byte	0x1
 605 0054 50       		.byte	0x50
 606 0055 06010000 		.4byte	.LVL38-.Ltext0
 607 0059 14010000 		.4byte	.LVL40-.Ltext0
 608 005d 0300     		.2byte	0x3
 609 005f 70       		.byte	0x70
 610 0060 78       		.sleb128 -8
 611 0061 9F       		.byte	0x9f
 612 0062 00000000 		.4byte	0
 613 0066 00000000 		.4byte	0
 614              	.LLST1:
 615 006a 00000000 		.4byte	.LVL0-.Ltext0
 616 006e 16000000 		.4byte	.LVL2-.Ltext0
 617 0072 0100     		.2byte	0x1
 618 0074 51       		.byte	0x51
 619 0075 16000000 		.4byte	.LVL2-.Ltext0
 620 0079 50000000 		.4byte	.LVL11-.Ltext0
 621 007d 0C00     		.2byte	0xc
 622 007f 71       		.byte	0x71
 623 0080 00       		.sleb128 0
 624 0081 70       		.byte	0x70
 625 0082 00       		.sleb128 0
 626 0083 1C       		.byte	0x1c
 627 0084 76       		.byte	0x76
ARM GAS  /tmp/cc9jbT0a.s 			page 12


 628 0085 00       		.sleb128 0
 629 0086 22       		.byte	0x22
 630 0087 08       		.byte	0x8
 631 0088 20       		.byte	0x20
 632 0089 1C       		.byte	0x1c
 633 008a 9F       		.byte	0x9f
 634 008b 50000000 		.4byte	.LVL11-.Ltext0
 635 008f BC000000 		.4byte	.LVL28-.Ltext0
 636 0093 0C00     		.2byte	0xc
 637 0095 71       		.byte	0x71
 638 0096 00       		.sleb128 0
 639 0097 70       		.byte	0x70
 640 0098 00       		.sleb128 0
 641 0099 1C       		.byte	0x1c
 642 009a 76       		.byte	0x76
 643 009b 00       		.sleb128 0
 644 009c 22       		.byte	0x22
 645 009d 08       		.byte	0x8
 646 009e 40       		.byte	0x40
 647 009f 1C       		.byte	0x1c
 648 00a0 9F       		.byte	0x9f
 649 00a1 D0000000 		.4byte	.LVL30-.Ltext0
 650 00a5 DA000000 		.4byte	.LVL33-.Ltext0
 651 00a9 0100     		.2byte	0x1
 652 00ab 51       		.byte	0x51
 653 00ac DA000000 		.4byte	.LVL33-.Ltext0
 654 00b0 DC000000 		.4byte	.LVL34-.Ltext0
 655 00b4 0300     		.2byte	0x3
 656 00b6 71       		.byte	0x71
 657 00b7 78       		.sleb128 -8
 658 00b8 9F       		.byte	0x9f
 659 00b9 00000000 		.4byte	0
 660 00bd 00000000 		.4byte	0
 661              	.LLST2:
 662 00c1 00000000 		.4byte	.LVL0-.Ltext0
 663 00c5 16000000 		.4byte	.LVL2-.Ltext0
 664 00c9 0100     		.2byte	0x1
 665 00cb 52       		.byte	0x52
 666 00cc 16000000 		.4byte	.LVL2-.Ltext0
 667 00d0 50000000 		.4byte	.LVL11-.Ltext0
 668 00d4 0C00     		.2byte	0xc
 669 00d6 72       		.byte	0x72
 670 00d7 00       		.sleb128 0
 671 00d8 70       		.byte	0x70
 672 00d9 00       		.sleb128 0
 673 00da 1C       		.byte	0x1c
 674 00db 76       		.byte	0x76
 675 00dc 00       		.sleb128 0
 676 00dd 22       		.byte	0x22
 677 00de 08       		.byte	0x8
 678 00df 20       		.byte	0x20
 679 00e0 1C       		.byte	0x1c
 680 00e1 9F       		.byte	0x9f
 681 00e2 50000000 		.4byte	.LVL11-.Ltext0
 682 00e6 C4000000 		.4byte	.LVL29-.Ltext0
 683 00ea 0C00     		.2byte	0xc
 684 00ec 72       		.byte	0x72
ARM GAS  /tmp/cc9jbT0a.s 			page 13


 685 00ed 00       		.sleb128 0
 686 00ee 70       		.byte	0x70
 687 00ef 00       		.sleb128 0
 688 00f0 1C       		.byte	0x1c
 689 00f1 76       		.byte	0x76
 690 00f2 00       		.sleb128 0
 691 00f3 22       		.byte	0x22
 692 00f4 08       		.byte	0x8
 693 00f5 40       		.byte	0x40
 694 00f6 1C       		.byte	0x1c
 695 00f7 9F       		.byte	0x9f
 696 00f8 D0000000 		.4byte	.LVL30-.Ltext0
 697 00fc DC000000 		.4byte	.LVL34-.Ltext0
 698 0100 0100     		.2byte	0x1
 699 0102 52       		.byte	0x52
 700 0103 00000000 		.4byte	0
 701 0107 00000000 		.4byte	0
 702              	.LLST3:
 703 010b 00000000 		.4byte	.LVL0-.Ltext0
 704 010f D4000000 		.4byte	.LVL31-.Ltext0
 705 0113 0100     		.2byte	0x1
 706 0115 53       		.byte	0x53
 707 0116 D4000000 		.4byte	.LVL31-.Ltext0
 708 011a 16010000 		.4byte	.LFE135-.Ltext0
 709 011e 0400     		.2byte	0x4
 710 0120 F3       		.byte	0xf3
 711 0121 01       		.uleb128 0x1
 712 0122 53       		.byte	0x53
 713 0123 9F       		.byte	0x9f
 714 0124 00000000 		.4byte	0
 715 0128 00000000 		.4byte	0
 716              	.LLST4:
 717 012c 22000000 		.4byte	.LVL3-.Ltext0
 718 0130 3A000000 		.4byte	.LVL6-.Ltext0
 719 0134 0200     		.2byte	0x2
 720 0136 90       		.byte	0x90
 721 0137 4D       		.uleb128 0x4d
 722 0138 3A000000 		.4byte	.LVL6-.Ltext0
 723 013c D0000000 		.4byte	.LVL30-.Ltext0
 724 0140 0200     		.2byte	0x2
 725 0142 90       		.byte	0x90
 726 0143 46       		.uleb128 0x46
 727 0144 EC000000 		.4byte	.LVL35-.Ltext0
 728 0148 14010000 		.4byte	.LVL40-.Ltext0
 729 014c 0200     		.2byte	0x2
 730 014e 90       		.byte	0x90
 731 014f 4C       		.uleb128 0x4c
 732 0150 00000000 		.4byte	0
 733 0154 00000000 		.4byte	0
 734              	.LLST5:
 735 0158 26000000 		.4byte	.LVL4-.Ltext0
 736 015c 74000000 		.4byte	.LVL18-.Ltext0
 737 0160 0200     		.2byte	0x2
 738 0162 90       		.byte	0x90
 739 0163 45       		.uleb128 0x45
 740 0164 74000000 		.4byte	.LVL18-.Ltext0
 741 0168 D0000000 		.4byte	.LVL30-.Ltext0
ARM GAS  /tmp/cc9jbT0a.s 			page 14


 742 016c 0200     		.2byte	0x2
 743 016e 90       		.byte	0x90
 744 016f 47       		.uleb128 0x47
 745 0170 EC000000 		.4byte	.LVL35-.Ltext0
 746 0174 F4000000 		.4byte	.LVL36-.Ltext0
 747 0178 0200     		.2byte	0x2
 748 017a 90       		.byte	0x90
 749 017b 4F       		.uleb128 0x4f
 750 017c F4000000 		.4byte	.LVL36-.Ltext0
 751 0180 06010000 		.4byte	.LVL38-.Ltext0
 752 0184 0200     		.2byte	0x2
 753 0186 70       		.byte	0x70
 754 0187 7C       		.sleb128 -4
 755 0188 06010000 		.4byte	.LVL38-.Ltext0
 756 018c 0E010000 		.4byte	.LVL39-.Ltext0
 757 0190 0200     		.2byte	0x2
 758 0192 70       		.byte	0x70
 759 0193 74       		.sleb128 -12
 760 0194 00000000 		.4byte	0
 761 0198 00000000 		.4byte	0
 762              	.LLST6:
 763 019c 26000000 		.4byte	.LVL4-.Ltext0
 764 01a0 3E000000 		.4byte	.LVL7-.Ltext0
 765 01a4 0200     		.2byte	0x2
 766 01a6 90       		.byte	0x90
 767 01a7 47       		.uleb128 0x47
 768 01a8 3E000000 		.4byte	.LVL7-.Ltext0
 769 01ac D0000000 		.4byte	.LVL30-.Ltext0
 770 01b0 0200     		.2byte	0x2
 771 01b2 90       		.byte	0x90
 772 01b3 48       		.uleb128 0x48
 773 01b4 EC000000 		.4byte	.LVL35-.Ltext0
 774 01b8 14010000 		.4byte	.LVL40-.Ltext0
 775 01bc 0200     		.2byte	0x2
 776 01be 90       		.byte	0x90
 777 01bf 4B       		.uleb128 0x4b
 778 01c0 00000000 		.4byte	0
 779 01c4 00000000 		.4byte	0
 780              	.LLST7:
 781 01c8 36000000 		.4byte	.LVL5-.Ltext0
 782 01cc 46000000 		.4byte	.LVL8-.Ltext0
 783 01d0 0200     		.2byte	0x2
 784 01d2 90       		.byte	0x90
 785 01d3 4E       		.uleb128 0x4e
 786 01d4 46000000 		.4byte	.LVL8-.Ltext0
 787 01d8 60000000 		.4byte	.LVL15-.Ltext0
 788 01dc 0200     		.2byte	0x2
 789 01de 75       		.byte	0x75
 790 01df 64       		.sleb128 -28
 791 01e0 60000000 		.4byte	.LVL15-.Ltext0
 792 01e4 70000000 		.4byte	.LVL17-.Ltext0
 793 01e8 0200     		.2byte	0x2
 794 01ea 75       		.byte	0x75
 795 01eb 44       		.sleb128 -60
 796 01ec 7C000000 		.4byte	.LVL20-.Ltext0
 797 01f0 A0000000 		.4byte	.LVL23-.Ltext0
 798 01f4 0200     		.2byte	0x2
ARM GAS  /tmp/cc9jbT0a.s 			page 15


 799 01f6 90       		.byte	0x90
 800 01f7 4E       		.uleb128 0x4e
 801 01f8 EC000000 		.4byte	.LVL35-.Ltext0
 802 01fc 14010000 		.4byte	.LVL40-.Ltext0
 803 0200 0200     		.2byte	0x2
 804 0202 90       		.byte	0x90
 805 0203 4D       		.uleb128 0x4d
 806 0204 00000000 		.4byte	0
 807 0208 00000000 		.4byte	0
 808              	.LLST8:
 809 020c 00000000 		.4byte	.LVL0-.Ltext0
 810 0210 06000000 		.4byte	.LVL1-.Ltext0
 811 0214 0500     		.2byte	0x5
 812 0216 73       		.byte	0x73
 813 0217 00       		.sleb128 0
 814 0218 32       		.byte	0x32
 815 0219 25       		.byte	0x25
 816 021a 9F       		.byte	0x9f
 817 021b 06000000 		.4byte	.LVL1-.Ltext0
 818 021f 16000000 		.4byte	.LVL2-.Ltext0
 819 0223 0100     		.2byte	0x1
 820 0225 5E       		.byte	0x5e
 821 0226 16000000 		.4byte	.LVL2-.Ltext0
 822 022a 4C000000 		.4byte	.LVL10-.Ltext0
 823 022e 0100     		.2byte	0x1
 824 0230 57       		.byte	0x57
 825 0231 4C000000 		.4byte	.LVL10-.Ltext0
 826 0235 C4000000 		.4byte	.LVL29-.Ltext0
 827 0239 0300     		.2byte	0x3
 828 023b 77       		.byte	0x77
 829 023c 01       		.sleb128 1
 830 023d 9F       		.byte	0x9f
 831 023e D0000000 		.4byte	.LVL30-.Ltext0
 832 0242 D4000000 		.4byte	.LVL31-.Ltext0
 833 0246 0500     		.2byte	0x5
 834 0248 73       		.byte	0x73
 835 0249 00       		.sleb128 0
 836 024a 33       		.byte	0x33
 837 024b 1A       		.byte	0x1a
 838 024c 9F       		.byte	0x9f
 839 024d D4000000 		.4byte	.LVL31-.Ltext0
 840 0251 FA000000 		.4byte	.LVL37-.Ltext0
 841 0255 0100     		.2byte	0x1
 842 0257 53       		.byte	0x53
 843 0258 FA000000 		.4byte	.LVL37-.Ltext0
 844 025c 0E010000 		.4byte	.LVL39-.Ltext0
 845 0260 0300     		.2byte	0x3
 846 0262 73       		.byte	0x73
 847 0263 01       		.sleb128 1
 848 0264 9F       		.byte	0x9f
 849 0265 00000000 		.4byte	0
 850 0269 00000000 		.4byte	0
 851              	.LLST9:
 852 026d 36000000 		.4byte	.LVL5-.Ltext0
 853 0271 88000000 		.4byte	.LVL21-.Ltext0
 854 0275 0200     		.2byte	0x2
 855 0277 90       		.byte	0x90
ARM GAS  /tmp/cc9jbT0a.s 			page 16


 856 0278 4A       		.uleb128 0x4a
 857 0279 88000000 		.4byte	.LVL21-.Ltext0
 858 027d D0000000 		.4byte	.LVL30-.Ltext0
 859 0281 0200     		.2byte	0x2
 860 0283 90       		.byte	0x90
 861 0284 49       		.uleb128 0x49
 862 0285 00000000 		.4byte	0
 863 0289 00000000 		.4byte	0
 864              	.LLST10:
 865 028d 36000000 		.4byte	.LVL5-.Ltext0
 866 0291 58000000 		.4byte	.LVL13-.Ltext0
 867 0295 0200     		.2byte	0x2
 868 0297 90       		.byte	0x90
 869 0298 4F       		.uleb128 0x4f
 870 0299 58000000 		.4byte	.LVL13-.Ltext0
 871 029d 70000000 		.4byte	.LVL17-.Ltext0
 872 02a1 0200     		.2byte	0x2
 873 02a3 76       		.byte	0x76
 874 02a4 4C       		.sleb128 -52
 875 02a5 94000000 		.4byte	.LVL22-.Ltext0
 876 02a9 D0000000 		.4byte	.LVL30-.Ltext0
 877 02ad 0200     		.2byte	0x2
 878 02af 90       		.byte	0x90
 879 02b0 4A       		.uleb128 0x4a
 880 02b1 00000000 		.4byte	0
 881 02b5 00000000 		.4byte	0
 882              	.LLST11:
 883 02b9 36000000 		.4byte	.LVL5-.Ltext0
 884 02bd 88000000 		.4byte	.LVL21-.Ltext0
 885 02c1 0200     		.2byte	0x2
 886 02c3 90       		.byte	0x90
 887 02c4 49       		.uleb128 0x49
 888 02c5 94000000 		.4byte	.LVL22-.Ltext0
 889 02c9 D0000000 		.4byte	.LVL30-.Ltext0
 890 02cd 0200     		.2byte	0x2
 891 02cf 90       		.byte	0x90
 892 02d0 4B       		.uleb128 0x4b
 893 02d1 00000000 		.4byte	0
 894 02d5 00000000 		.4byte	0
 895              	.LLST12:
 896 02d9 36000000 		.4byte	.LVL5-.Ltext0
 897 02dd 94000000 		.4byte	.LVL22-.Ltext0
 898 02e1 0200     		.2byte	0x2
 899 02e3 90       		.byte	0x90
 900 02e4 4B       		.uleb128 0x4b
 901 02e5 94000000 		.4byte	.LVL22-.Ltext0
 902 02e9 A4000000 		.4byte	.LVL24-.Ltext0
 903 02ed 0200     		.2byte	0x2
 904 02ef 90       		.byte	0x90
 905 02f0 4F       		.uleb128 0x4f
 906 02f1 A4000000 		.4byte	.LVL24-.Ltext0
 907 02f5 B8000000 		.4byte	.LVL27-.Ltext0
 908 02f9 0200     		.2byte	0x2
 909 02fb 75       		.byte	0x75
 910 02fc 5C       		.sleb128 -36
 911 02fd 00000000 		.4byte	0
 912 0301 00000000 		.4byte	0
ARM GAS  /tmp/cc9jbT0a.s 			page 17


 913              	.LLST13:
 914 0305 26000000 		.4byte	.LVL4-.Ltext0
 915 0309 36000000 		.4byte	.LVL5-.Ltext0
 916 030d 0800     		.2byte	0x8
 917 030f F5       		.byte	0xf5
 918 0310 4D       		.uleb128 0x4d
 919 0311 21       		.uleb128 0x21
 920 0312 F5       		.byte	0xf5
 921 0313 47       		.uleb128 0x47
 922 0314 21       		.uleb128 0x21
 923 0315 1E       		.byte	0x1e
 924 0316 9F       		.byte	0x9f
 925 0317 4A000000 		.4byte	.LVL9-.Ltext0
 926 031b 78000000 		.4byte	.LVL19-.Ltext0
 927 031f 0200     		.2byte	0x2
 928 0321 90       		.byte	0x90
 929 0322 4C       		.uleb128 0x4c
 930 0323 78000000 		.4byte	.LVL19-.Ltext0
 931 0327 88000000 		.4byte	.LVL21-.Ltext0
 932 032b 0800     		.2byte	0x8
 933 032d F5       		.byte	0xf5
 934 032e 46       		.uleb128 0x46
 935 032f 21       		.uleb128 0x21
 936 0330 F5       		.byte	0xf5
 937 0331 48       		.uleb128 0x48
 938 0332 21       		.uleb128 0x21
 939 0333 1E       		.byte	0x1e
 940 0334 9F       		.byte	0x9f
 941 0335 A8000000 		.4byte	.LVL25-.Ltext0
 942 0339 D0000000 		.4byte	.LVL30-.Ltext0
 943 033d 0200     		.2byte	0x2
 944 033f 90       		.byte	0x90
 945 0340 4C       		.uleb128 0x4c
 946 0341 00000000 		.4byte	0
 947 0345 00000000 		.4byte	0
 948              	.LLST14:
 949 0349 5C000000 		.4byte	.LVL14-.Ltext0
 950 034d 7C000000 		.4byte	.LVL20-.Ltext0
 951 0351 0200     		.2byte	0x2
 952 0353 90       		.byte	0x90
 953 0354 4E       		.uleb128 0x4e
 954 0355 7C000000 		.4byte	.LVL20-.Ltext0
 955 0359 94000000 		.4byte	.LVL22-.Ltext0
 956 035d 0800     		.2byte	0x8
 957 035f F5       		.byte	0xf5
 958 0360 47       		.uleb128 0x47
 959 0361 21       		.uleb128 0x21
 960 0362 F5       		.byte	0xf5
 961 0363 48       		.uleb128 0x48
 962 0364 21       		.uleb128 0x21
 963 0365 1E       		.byte	0x1e
 964 0366 9F       		.byte	0x9f
 965 0367 AC000000 		.4byte	.LVL26-.Ltext0
 966 036b D0000000 		.4byte	.LVL30-.Ltext0
 967 036f 0200     		.2byte	0x2
 968 0371 90       		.byte	0x90
 969 0372 4E       		.uleb128 0x4e
ARM GAS  /tmp/cc9jbT0a.s 			page 18


 970 0373 00000000 		.4byte	0
 971 0377 00000000 		.4byte	0
 972              	.LLST15:
 973 037b 36000000 		.4byte	.LVL5-.Ltext0
 974 037f 3E000000 		.4byte	.LVL7-.Ltext0
 975 0383 0800     		.2byte	0x8
 976 0385 F5       		.byte	0xf5
 977 0386 4A       		.uleb128 0x4a
 978 0387 21       		.uleb128 0x21
 979 0388 F5       		.byte	0xf5
 980 0389 49       		.uleb128 0x49
 981 038a 21       		.uleb128 0x21
 982 038b 1E       		.byte	0x1e
 983 038c 9F       		.byte	0x9f
 984 038d 68000000 		.4byte	.LVL16-.Ltext0
 985 0391 94000000 		.4byte	.LVL22-.Ltext0
 986 0395 0200     		.2byte	0x2
 987 0397 90       		.byte	0x90
 988 0398 4D       		.uleb128 0x4d
 989 0399 94000000 		.4byte	.LVL22-.Ltext0
 990 039d B8000000 		.4byte	.LVL27-.Ltext0
 991 03a1 0800     		.2byte	0x8
 992 03a3 F5       		.byte	0xf5
 993 03a4 49       		.uleb128 0x49
 994 03a5 21       		.uleb128 0x21
 995 03a6 F5       		.byte	0xf5
 996 03a7 4B       		.uleb128 0x4b
 997 03a8 21       		.uleb128 0x21
 998 03a9 1E       		.byte	0x1e
 999 03aa 9F       		.byte	0x9f
 1000 03ab 00000000 		.4byte	0
 1001 03af 00000000 		.4byte	0
 1002              	.LLST16:
 1003 03b3 3A000000 		.4byte	.LVL6-.Ltext0
 1004 03b7 74000000 		.4byte	.LVL18-.Ltext0
 1005 03bb 0800     		.2byte	0x8
 1006 03bd F5       		.byte	0xf5
 1007 03be 4A       		.uleb128 0x4a
 1008 03bf 21       		.uleb128 0x21
 1009 03c0 F5       		.byte	0xf5
 1010 03c1 4B       		.uleb128 0x4b
 1011 03c2 21       		.uleb128 0x21
 1012 03c3 1E       		.byte	0x1e
 1013 03c4 9F       		.byte	0x9f
 1014 03c5 94000000 		.4byte	.LVL22-.Ltext0
 1015 03c9 B8000000 		.4byte	.LVL27-.Ltext0
 1016 03cd 0800     		.2byte	0x8
 1017 03cf F5       		.byte	0xf5
 1018 03d0 4A       		.uleb128 0x4a
 1019 03d1 21       		.uleb128 0x21
 1020 03d2 F5       		.byte	0xf5
 1021 03d3 4B       		.uleb128 0x4b
 1022 03d4 21       		.uleb128 0x21
 1023 03d5 1E       		.byte	0x1e
 1024 03d6 9F       		.byte	0x9f
 1025 03d7 00000000 		.4byte	0
 1026 03db 00000000 		.4byte	0
ARM GAS  /tmp/cc9jbT0a.s 			page 19


 1027              		.section	.debug_aranges,"",%progbits
 1028 0000 1C000000 		.4byte	0x1c
 1029 0004 0200     		.2byte	0x2
 1030 0006 00000000 		.4byte	.Ldebug_info0
 1031 000a 04       		.byte	0x4
 1032 000b 00       		.byte	0
 1033 000c 0000     		.2byte	0
 1034 000e 0000     		.2byte	0
 1035 0010 00000000 		.4byte	.Ltext0
 1036 0014 16010000 		.4byte	.Letext0-.Ltext0
 1037 0018 00000000 		.4byte	0
 1038 001c 00000000 		.4byte	0
 1039              		.section	.debug_line,"",%progbits
 1040              	.Ldebug_line0:
 1041 0000 82020000 		.section	.debug_str,"MS",%progbits,1
 1041      02001402 
 1041      00000201 
 1041      FB0E0D00 
 1041      01010101 
 1042              	.LASF24:
 1043 0000 61636333 		.ascii	"acc3\000"
 1043      00
 1044              	.LASF25:
 1045 0005 61636334 		.ascii	"acc4\000"
 1045      00
 1046              	.LASF26:
 1047 000a 474E5520 		.ascii	"GNU C 4.9.3 20150529 (release) [ARM/embedded-4_9-br"
 1047      4320342E 
 1047      392E3320 
 1047      32303135 
 1047      30353239 
 1048 003d 616E6368 		.ascii	"anch revision 224288] -mcpu=cortex-m4 -mfloat-abi=h"
 1048      20726576 
 1048      6973696F 
 1048      6E203232 
 1048      34323838 
 1049 0070 61726420 		.ascii	"ard -mfpu=fpv4-sp-d16 -mno-thumb-interwork -mthumb "
 1049      2D6D6670 
 1049      753D6670 
 1049      76342D73 
 1049      702D6431 
 1050 00a3 2D676764 		.ascii	"-ggdb -O2 -fomit-frame-pointer -falign-functions=16"
 1050      62202D4F 
 1050      32202D66 
 1050      6F6D6974 
 1050      2D667261 
 1051 00d6 202D666E 		.ascii	" -fno-math-errno -fsingle-precision-constant\000"
 1051      6F2D6D61 
 1051      74682D65 
 1051      72726E6F 
 1051      202D6673 
 1052              	.LASF17:
 1053 0103 70537263 		.ascii	"pSrcA\000"
 1053      4100
 1054              	.LASF18:
 1055 0109 70537263 		.ascii	"pSrcB\000"
 1055      4200
ARM GAS  /tmp/cc9jbT0a.s 			page 20


 1056              	.LASF0:
 1057 010f 666C6F61 		.ascii	"float\000"
 1057      7400
 1058              	.LASF2:
 1059 0115 756E7369 		.ascii	"unsigned char\000"
 1059      676E6564 
 1059      20636861 
 1059      7200
 1060              	.LASF21:
 1061 0123 626C6B43 		.ascii	"blkCnt\000"
 1061      6E7400
 1062              	.LASF6:
 1063 012a 6C6F6E67 		.ascii	"long unsigned int\000"
 1063      20756E73 
 1063      69676E65 
 1063      6420696E 
 1063      7400
 1064              	.LASF4:
 1065 013c 73686F72 		.ascii	"short unsigned int\000"
 1065      7420756E 
 1065      7369676E 
 1065      65642069 
 1065      6E7400
 1066              	.LASF19:
 1067 014f 70447374 		.ascii	"pDst\000"
 1067      00
 1068              	.LASF14:
 1069 0154 646F7562 		.ascii	"double\000"
 1069      6C6500
 1070              	.LASF10:
 1071 015b 5F5F7569 		.ascii	"__uint32_t\000"
 1071      6E743332 
 1071      5F7400
 1072              	.LASF9:
 1073 0166 756E7369 		.ascii	"unsigned int\000"
 1073      676E6564 
 1073      20696E74 
 1073      00
 1074              	.LASF8:
 1075 0173 6C6F6E67 		.ascii	"long long unsigned int\000"
 1075      206C6F6E 
 1075      6720756E 
 1075      7369676E 
 1075      65642069 
 1076              	.LASF12:
 1077 018a 73697A65 		.ascii	"sizetype\000"
 1077      74797065 
 1077      00
 1078              	.LASF7:
 1079 0193 6C6F6E67 		.ascii	"long long int\000"
 1079      206C6F6E 
 1079      6720696E 
 1079      7400
 1080              	.LASF13:
 1081 01a1 63686172 		.ascii	"char\000"
 1081      00
 1082              	.LASF16:
ARM GAS  /tmp/cc9jbT0a.s 			page 21


 1083 01a6 666C6F61 		.ascii	"float32_t\000"
 1083      7433325F 
 1083      7400
 1084              	.LASF3:
 1085 01b0 73686F72 		.ascii	"short int\000"
 1085      7420696E 
 1085      7400
 1086              	.LASF11:
 1087 01ba 75696E74 		.ascii	"uint32_t\000"
 1087      33325F74 
 1087      00
 1088              	.LASF5:
 1089 01c3 6C6F6E67 		.ascii	"long int\000"
 1089      20696E74 
 1089      00
 1090              	.LASF28:
 1091 01cc 61726D5F 		.ascii	"arm_cmplx_mult_cmplx_f32\000"
 1091      636D706C 
 1091      785F6D75 
 1091      6C745F63 
 1091      6D706C78 
 1092              	.LASF15:
 1093 01e5 6C6F6E67 		.ascii	"long double\000"
 1093      20646F75 
 1093      626C6500 
 1094              	.LASF1:
 1095 01f1 7369676E 		.ascii	"signed char\000"
 1095      65642063 
 1095      68617200 
 1096              	.LASF20:
 1097 01fd 6E756D53 		.ascii	"numSamples\000"
 1097      616D706C 
 1097      657300
 1098              	.LASF27:
 1099 0208 2F686F6D 		.ascii	"/home/sbcu/Dropbox/pcb-layouts/axo-on-discovery-boa"
 1099      652F7362 
 1099      63752F44 
 1099      726F7062 
 1099      6F782F70 
 1100 023b 72642F61 		.ascii	"rd/axoloti/platform_linux/../CMSIS//DSP_Lib/Source/"
 1100      786F6C6F 
 1100      74692F70 
 1100      6C617466 
 1100      6F726D5F 
 1101 026e 436F6D70 		.ascii	"ComplexMathFunctions/arm_cmplx_mult_cmplx_f32.c\000"
 1101      6C65784D 
 1101      61746846 
 1101      756E6374 
 1101      696F6E73 
 1102              	.LASF22:
 1103 029e 61636331 		.ascii	"acc1\000"
 1103      00
 1104              	.LASF23:
 1105 02a3 61636332 		.ascii	"acc2\000"
 1105      00
 1106              		.ident	"GCC: (GNU Tools for ARM Embedded Processors) 4.9.3 20150529 (release) [ARM/embedded-4_9-br
ARM GAS  /tmp/cc9jbT0a.s 			page 22


DEFINED SYMBOLS
                            *ABS*:00000000 arm_cmplx_mult_cmplx_f32.c
     /tmp/cc9jbT0a.s:20     .text:00000000 $t
     /tmp/cc9jbT0a.s:26     .text:00000000 arm_cmplx_mult_cmplx_f32
                     .debug_frame:00000010 $d

NO UNDEFINED SYMBOLS
