ARM GAS  /tmp/ccMwxdtU.s 			page 1


   1              		.syntax unified
   2              		.cpu cortex-m4
   3              		.eabi_attribute 27, 1
   4              		.eabi_attribute 28, 1
   5              		.fpu fpv4-sp-d16
   6              		.eabi_attribute 20, 1
   7              		.eabi_attribute 21, 1
   8              		.eabi_attribute 23, 3
   9              		.eabi_attribute 24, 1
  10              		.eabi_attribute 25, 1
  11              		.eabi_attribute 26, 1
  12              		.eabi_attribute 30, 2
  13              		.eabi_attribute 34, 1
  14              		.eabi_attribute 18, 4
  15              		.thumb
  16              		.file	"arm_sqrt_q31.c"
  17              		.text
  18              	.Ltext0:
  19              		.cfi_sections	.debug_frame
  20              		.align	2
  21              		.p2align 4,,15
  22              		.global	arm_sqrt_q31
  23              		.thumb
  24              		.thumb_func
  25              		.type	arm_sqrt_q31, %function
  26              	arm_sqrt_q31:
  27              	.LFB135:
  28              		.file 1 "/home/sbcu/Dropbox/pcb-layouts/axo-on-discovery-board/axoloti/platform_linux/../CMSIS//DS
  29              		.loc 1 64 0
  30              		.cfi_startproc
  31              		@ args = 0, pretend = 0, frame = 0
  32              		@ frame_needed = 0, uses_anonymous_args = 0
  33              	.LVL0:
  34              		.loc 1 76 0
  35 0000 0028     		cmp	r0, #0
  36 0002 6DDD     		ble	.L2
  37              		.loc 1 64 0
  38 0004 2DE9F043 		push	{r4, r5, r6, r7, r8, r9, lr}
  39              		.cfi_def_cfa_offset 28
  40              		.cfi_offset 4, -28
  41              		.cfi_offset 5, -24
  42              		.cfi_offset 6, -20
  43              		.cfi_offset 7, -16
  44              		.cfi_offset 8, -12
  45              		.cfi_offset 9, -8
  46              		.cfi_offset 14, -4
  47              		.loc 1 78 0
  48 0008 B0FA80F6 		clz	r6, r0
  49 000c 771E     		subs	r7, r6, #1
  50              	.LVL1:
  51              		.loc 1 81 0
  52 000e 17F0010E 		ands	lr, r7, #1
  53              		.loc 1 87 0
  54 0012 1ABF     		itte	ne
  55 0014 B31E     		subne	r3, r6, #2
  56 0016 9840     		lslne	r0, r0, r3
  57              	.LVL2:
ARM GAS  /tmp/ccMwxdtU.s 			page 2


  58              		.loc 1 83 0
  59 0018 B840     		lsleq	r0, r0, r7
  60              	.LVL3:
  61              		.loc 1 96 0
  62 001a 07EE900A 		fmsr	s15, r0	@ int
  63 001e FAEEE07A 		vcvt.f32.s32	s15, s15, #31
  64              		.loc 1 101 0
  65 0022 324C     		ldr	r4, .L12
  66              		.loc 1 96 0
  67 0024 17EE903A 		fmrs	r3, s15
  68              		.loc 1 101 0
  69 0028 5B10     		asrs	r3, r3, #1
  70 002a E41A     		subs	r4, r4, r3
  71              		.loc 1 106 0
  72 002c 07EE904A 		fmsr	s15, r4
  73 0030 FEEEC17A 		vcvt.s32.f32	s15, s15, #30
  74              		.loc 1 91 0
  75 0034 4FEA600C 		asr	ip, r0, #1
  76              	.LVL4:
  77              		.loc 1 106 0
  78 0038 17EE905A 		fmrs	r5, s15	@ int
  79              	.LVL5:
  80              		.loc 1 112 0
  81 003c 85FB0589 		smull	r8, r9, r5, r5
  82 0040 4FEAD872 		lsr	r2, r8, #31
  83 0044 42EA4902 		orr	r2, r2, r9, lsl #1
  84 0048 82FB0C23 		smull	r2, r3, r2, ip
  85              		.loc 1 113 0
  86 004c D40F     		lsrs	r4, r2, #31
  87              	.LVL6:
  88 004e 44EA4304 		orr	r4, r4, r3, lsl #1
  89              		.loc 1 109 0
  90 0052 C4F14054 		rsb	r4, r4, #805306368
  91 0056 85FB0445 		smull	r4, r5, r5, r4
  92              		.loc 1 113 0
  93 005a E20F     		lsrs	r2, r4, #31
  94 005c 42EA4502 		orr	r2, r2, r5, lsl #1
  95              		.loc 1 109 0
  96 0060 9300     		lsls	r3, r2, #2
  97              	.LVL7:
  98              		.loc 1 118 0
  99 0062 83FB0389 		smull	r8, r9, r3, r3
 100 0066 4FEAD874 		lsr	r4, r8, #31
 101 006a 44EA4904 		orr	r4, r4, r9, lsl #1
 102 006e 8CFB0445 		smull	r4, r5, ip, r4
 103              		.loc 1 119 0
 104 0072 E20F     		lsrs	r2, r4, #31
 105 0074 42EA4502 		orr	r2, r2, r5, lsl #1
 106              		.loc 1 115 0
 107 0078 C2F14052 		rsb	r2, r2, #805306368
 108 007c 83FB0223 		smull	r2, r3, r3, r2
 109              		.loc 1 119 0
 110 0080 D20F     		lsrs	r2, r2, #31
 111 0082 42EA4302 		orr	r2, r2, r3, lsl #1
 112              		.loc 1 115 0
 113 0086 9300     		lsls	r3, r2, #2
 114              	.LVL8:
ARM GAS  /tmp/ccMwxdtU.s 			page 3


 115              		.loc 1 124 0
 116 0088 83FB0345 		smull	r4, r5, r3, r3
 117 008c E40F     		lsrs	r4, r4, #31
 118 008e 44EA4504 		orr	r4, r4, r5, lsl #1
 119 0092 8CFB0445 		smull	r4, r5, ip, r4
 120              		.loc 1 125 0
 121 0096 E20F     		lsrs	r2, r4, #31
 122 0098 42EA4502 		orr	r2, r2, r5, lsl #1
 123              		.loc 1 121 0
 124 009c C2F14052 		rsb	r2, r2, #805306368
 125 00a0 83FB0223 		smull	r2, r3, r3, r2
 126              		.loc 1 125 0
 127 00a4 D40F     		lsrs	r4, r2, #31
 128 00a6 44EA4304 		orr	r4, r4, r3, lsl #1
 129              		.loc 1 121 0
 130 00aa A400     		lsls	r4, r4, #2
 131              	.LVL9:
 132              		.loc 1 128 0
 133 00ac 80FB0445 		smull	r4, r5, r0, r4
 134              	.LVL10:
 135 00b0 E30F     		lsrs	r3, r4, #31
 136              	.LVL11:
 137 00b2 43EA4503 		orr	r3, r3, r5, lsl #1
 138 00b6 5B00     		lsls	r3, r3, #1
 139              	.LVL12:
 140              		.loc 1 131 0
 141 00b8 BEF1000F 		cmp	lr, #0
 142 00bc 09D0     		beq	.L11
 143              		.loc 1 137 0
 144 00be 023E     		subs	r6, r6, #2
 145 00c0 06EBD676 		add	r6, r6, r6, lsr #31
 146 00c4 7610     		asrs	r6, r6, #1
 147 00c6 3341     		asrs	r3, r3, r6
 148              	.LVL13:
 149              		.loc 1 141 0
 150 00c8 0020     		movs	r0, #0
 151              	.LVL14:
 152              		.loc 1 139 0
 153 00ca 0B60     		str	r3, [r1]
 154              		.loc 1 149 0
 155 00cc 40B2     		sxtb	r0, r0
 156 00ce BDE8F083 		pop	{r4, r5, r6, r7, r8, r9, pc}
 157              	.LVL15:
 158              	.L11:
 159              		.loc 1 133 0
 160 00d2 7F10     		asrs	r7, r7, #1
 161              	.LVL16:
 162 00d4 3B41     		asrs	r3, r3, r7
 163              	.LVL17:
 164              		.loc 1 141 0
 165 00d6 0020     		movs	r0, #0
 166              	.LVL18:
 167              		.loc 1 139 0
 168 00d8 0B60     		str	r3, [r1]
 169              		.loc 1 149 0
 170 00da 40B2     		sxtb	r0, r0
 171 00dc BDE8F083 		pop	{r4, r5, r6, r7, r8, r9, pc}
ARM GAS  /tmp/ccMwxdtU.s 			page 4


 172              	.LVL19:
 173              	.L2:
 174              		.cfi_def_cfa_offset 0
 175              		.cfi_restore 4
 176              		.cfi_restore 5
 177              		.cfi_restore 6
 178              		.cfi_restore 7
 179              		.cfi_restore 8
 180              		.cfi_restore 9
 181              		.cfi_restore 14
 182              		.loc 1 146 0
 183 00e0 0023     		movs	r3, #0
 184              		.loc 1 147 0
 185 00e2 FF20     		movs	r0, #255
 186              	.LVL20:
 187              		.loc 1 146 0
 188 00e4 0B60     		str	r3, [r1]
 189              		.loc 1 149 0
 190 00e6 40B2     		sxtb	r0, r0
 191 00e8 7047     		bx	lr
 192              	.L13:
 193 00ea 00BF     		.align	2
 194              	.L12:
 195 00ec DF59375F 		.word	1597463007
 196              		.cfi_endproc
 197              	.LFE135:
 198              		.size	arm_sqrt_q31, .-arm_sqrt_q31
 199              	.Letext0:
 200              		.file 2 "/home/sbcu/Dropbox/pcb-layouts/axo-on-discovery-board/axoloti/platform_linux/arm-none-eab
 201              		.file 3 "/home/sbcu/Dropbox/pcb-layouts/axo-on-discovery-board/axoloti/platform_linux/arm-none-eab
 202              		.file 4 "/home/sbcu/Dropbox/pcb-layouts/axo-on-discovery-board/axoloti/platform_linux/../CMSIS//DS
 203              		.section	.debug_info,"",%progbits
 204              	.Ldebug_info0:
 205 0000 E5010000 		.4byte	0x1e5
 206 0004 0400     		.2byte	0x4
 207 0006 00000000 		.4byte	.Ldebug_abbrev0
 208 000a 04       		.byte	0x4
 209 000b 01       		.uleb128 0x1
 210 000c 00000000 		.4byte	.LASF40
 211 0010 01       		.byte	0x1
 212 0011 FE000000 		.4byte	.LASF41
 213 0015 00000000 		.4byte	.Ltext0
 214 0019 F0000000 		.4byte	.Letext0-.Ltext0
 215 001d 00000000 		.4byte	.Ldebug_line0
 216 0021 02       		.uleb128 0x2
 217 0022 04       		.byte	0x4
 218 0023 04       		.byte	0x4
 219 0024 BF020000 		.4byte	.LASF0
 220 0028 02       		.uleb128 0x2
 221 0029 01       		.byte	0x1
 222 002a 06       		.byte	0x6
 223 002b 2E030000 		.4byte	.LASF1
 224 002f 02       		.uleb128 0x2
 225 0030 01       		.byte	0x1
 226 0031 08       		.byte	0x8
 227 0032 DC010000 		.4byte	.LASF2
 228 0036 02       		.uleb128 0x2
ARM GAS  /tmp/ccMwxdtU.s 			page 5


 229 0037 02       		.byte	0x2
 230 0038 05       		.byte	0x5
 231 0039 FA020000 		.4byte	.LASF3
 232 003d 02       		.uleb128 0x2
 233 003e 02       		.byte	0x2
 234 003f 07       		.byte	0x7
 235 0040 FC010000 		.4byte	.LASF4
 236 0044 03       		.uleb128 0x3
 237 0045 A4010000 		.4byte	.LASF7
 238 0049 02       		.byte	0x2
 239 004a 3F       		.byte	0x3f
 240 004b 4F000000 		.4byte	0x4f
 241 004f 02       		.uleb128 0x2
 242 0050 04       		.byte	0x4
 243 0051 05       		.byte	0x5
 244 0052 0C030000 		.4byte	.LASF5
 245 0056 02       		.uleb128 0x2
 246 0057 04       		.byte	0x4
 247 0058 07       		.byte	0x7
 248 0059 EA010000 		.4byte	.LASF6
 249 005d 03       		.uleb128 0x3
 250 005e 2D020000 		.4byte	.LASF8
 251 0062 02       		.byte	0x2
 252 0063 59       		.byte	0x59
 253 0064 68000000 		.4byte	0x68
 254 0068 02       		.uleb128 0x2
 255 0069 08       		.byte	0x8
 256 006a 05       		.byte	0x5
 257 006b B1020000 		.4byte	.LASF9
 258 006f 02       		.uleb128 0x2
 259 0070 08       		.byte	0x8
 260 0071 07       		.byte	0x7
 261 0072 72020000 		.4byte	.LASF10
 262 0076 04       		.uleb128 0x4
 263 0077 04       		.byte	0x4
 264 0078 05       		.byte	0x5
 265 0079 696E7400 		.ascii	"int\000"
 266 007d 02       		.uleb128 0x2
 267 007e 04       		.byte	0x4
 268 007f 07       		.byte	0x7
 269 0080 65020000 		.4byte	.LASF11
 270 0084 03       		.uleb128 0x3
 271 0085 96020000 		.4byte	.LASF12
 272 0089 03       		.byte	0x3
 273 008a 1F       		.byte	0x1f
 274 008b 44000000 		.4byte	0x44
 275 008f 03       		.uleb128 0x3
 276 0090 0F020000 		.4byte	.LASF13
 277 0094 03       		.byte	0x3
 278 0095 25       		.byte	0x25
 279 0096 5D000000 		.4byte	0x5d
 280 009a 02       		.uleb128 0x2
 281 009b 04       		.byte	0x4
 282 009c 07       		.byte	0x7
 283 009d 9E020000 		.4byte	.LASF14
 284 00a1 02       		.uleb128 0x2
 285 00a2 01       		.byte	0x1
ARM GAS  /tmp/ccMwxdtU.s 			page 6


 286 00a3 08       		.byte	0x8
 287 00a4 C5020000 		.4byte	.LASF15
 288 00a8 02       		.uleb128 0x2
 289 00a9 08       		.byte	0x8
 290 00aa 04       		.byte	0x4
 291 00ab 37020000 		.4byte	.LASF16
 292 00af 02       		.uleb128 0x2
 293 00b0 08       		.byte	0x8
 294 00b1 04       		.byte	0x4
 295 00b2 15030000 		.4byte	.LASF17
 296 00b6 05       		.uleb128 0x5
 297 00b7 01       		.byte	0x1
 298 00b8 04       		.byte	0x4
 299 00b9 8901     		.2byte	0x189
 300 00bb EA000000 		.4byte	0xea
 301 00bf 06       		.uleb128 0x6
 302 00c0 E9020000 		.4byte	.LASF18
 303 00c4 00       		.sleb128 0
 304 00c5 06       		.uleb128 0x6
 305 00c6 48020000 		.4byte	.LASF19
 306 00ca 7F       		.sleb128 -1
 307 00cb 06       		.uleb128 0x6
 308 00cc 85010000 		.4byte	.LASF20
 309 00d0 7E       		.sleb128 -2
 310 00d1 06       		.uleb128 0x6
 311 00d2 AE010000 		.4byte	.LASF21
 312 00d6 7D       		.sleb128 -3
 313 00d7 06       		.uleb128 0x6
 314 00d8 CA020000 		.4byte	.LASF22
 315 00dc 7C       		.sleb128 -4
 316 00dd 06       		.uleb128 0x6
 317 00de 4F030000 		.4byte	.LASF23
 318 00e2 7B       		.sleb128 -5
 319 00e3 06       		.uleb128 0x6
 320 00e4 17020000 		.4byte	.LASF24
 321 00e8 7A       		.sleb128 -6
 322 00e9 00       		.byte	0
 323 00ea 07       		.uleb128 0x7
 324 00eb 44030000 		.4byte	.LASF25
 325 00ef 04       		.byte	0x4
 326 00f0 9101     		.2byte	0x191
 327 00f2 B6000000 		.4byte	0xb6
 328 00f6 07       		.uleb128 0x7
 329 00f7 D6010000 		.4byte	.LASF26
 330 00fb 04       		.byte	0x4
 331 00fc A001     		.2byte	0x1a0
 332 00fe 84000000 		.4byte	0x84
 333 0102 07       		.uleb128 0x7
 334 0103 89020000 		.4byte	.LASF27
 335 0107 04       		.byte	0x4
 336 0108 A501     		.2byte	0x1a5
 337 010a 8F000000 		.4byte	0x8f
 338 010e 07       		.uleb128 0x7
 339 010f 3E020000 		.4byte	.LASF28
 340 0113 04       		.byte	0x4
 341 0114 AA01     		.2byte	0x1aa
 342 0116 21000000 		.4byte	0x21
ARM GAS  /tmp/ccMwxdtU.s 			page 7


 343 011a 08       		.uleb128 0x8
 344 011b 04       		.byte	0x4
 345 011c F6000000 		.4byte	0xf6
 346 0120 09       		.uleb128 0x9
 347 0121 21030000 		.4byte	.LASF42
 348 0125 01       		.byte	0x1
 349 0126 3D       		.byte	0x3d
 350 0127 EA000000 		.4byte	0xea
 351 012b 00000000 		.4byte	.LFB135
 352 012f F0000000 		.4byte	.LFE135-.LFB135
 353 0133 01       		.uleb128 0x1
 354 0134 9C       		.byte	0x9c
 355 0135 0A       		.uleb128 0xa
 356 0136 696E00   		.ascii	"in\000"
 357 0139 01       		.byte	0x1
 358 013a 3E       		.byte	0x3e
 359 013b F6000000 		.4byte	0xf6
 360 013f 00000000 		.4byte	.LLST0
 361 0143 0B       		.uleb128 0xb
 362 0144 C5010000 		.4byte	.LASF29
 363 0148 01       		.byte	0x1
 364 0149 3F       		.byte	0x3f
 365 014a 1A010000 		.4byte	0x11a
 366 014e 01       		.uleb128 0x1
 367 014f 51       		.byte	0x51
 368 0150 0C       		.uleb128 0xc
 369 0151 8F020000 		.4byte	.LASF30
 370 0155 01       		.byte	0x1
 371 0156 41       		.byte	0x41
 372 0157 F6000000 		.4byte	0xf6
 373 015b 3A000000 		.4byte	.LLST1
 374 015f 0C       		.uleb128 0xc
 375 0160 DA020000 		.4byte	.LASF31
 376 0164 01       		.byte	0x1
 377 0165 41       		.byte	0x41
 378 0166 F6000000 		.4byte	0xf6
 379 016a 8A000000 		.4byte	.LLST2
 380 016e 0C       		.uleb128 0xc
 381 016f A7020000 		.4byte	.LASF32
 382 0173 01       		.byte	0x1
 383 0174 41       		.byte	0x41
 384 0175 F6000000 		.4byte	0xf6
 385 0179 A8000000 		.4byte	.LLST3
 386 017d 0C       		.uleb128 0xc
 387 017e 60020000 		.4byte	.LASF33
 388 0182 01       		.byte	0x1
 389 0183 41       		.byte	0x41
 390 0184 F6000000 		.4byte	0xf6
 391 0188 CE000000 		.4byte	.LLST4
 392 018c 0C       		.uleb128 0xc
 393 018d 3A030000 		.4byte	.LASF34
 394 0191 01       		.byte	0x1
 395 0192 41       		.byte	0x41
 396 0193 F6000000 		.4byte	0xf6
 397 0197 18010000 		.4byte	.LLST5
 398 019b 0C       		.uleb128 0xc
 399 019c F9000000 		.4byte	.LASF35
ARM GAS  /tmp/ccMwxdtU.s 			page 8


 400 01a0 01       		.byte	0x1
 401 01a1 41       		.byte	0x41
 402 01a2 F6000000 		.4byte	0xf6
 403 01a6 38010000 		.4byte	.LLST6
 404 01aa 0C       		.uleb128 0xc
 405 01ab CA010000 		.4byte	.LASF36
 406 01af 01       		.byte	0x1
 407 01b0 42       		.byte	0x42
 408 01b1 0E010000 		.4byte	0x10e
 409 01b5 4B010000 		.4byte	.LLST7
 410 01b9 0D       		.uleb128 0xd
 411 01ba 04       		.byte	0x4
 412 01bb 01       		.byte	0x1
 413 01bc 43       		.byte	0x43
 414 01bd D8010000 		.4byte	0x1d8
 415 01c1 0E       		.uleb128 0xe
 416 01c2 04030000 		.4byte	.LASF37
 417 01c6 01       		.byte	0x1
 418 01c7 45       		.byte	0x45
 419 01c8 F6000000 		.4byte	0xf6
 420 01cc 0E       		.uleb128 0xe
 421 01cd 9B010000 		.4byte	.LASF38
 422 01d1 01       		.byte	0x1
 423 01d2 46       		.byte	0x46
 424 01d3 0E010000 		.4byte	0x10e
 425 01d7 00       		.byte	0
 426 01d8 0C       		.uleb128 0xc
 427 01d9 E0020000 		.4byte	.LASF39
 428 01dd 01       		.byte	0x1
 429 01de 47       		.byte	0x47
 430 01df B9010000 		.4byte	0x1b9
 431 01e3 73010000 		.4byte	.LLST8
 432 01e7 00       		.byte	0
 433 01e8 00       		.byte	0
 434              		.section	.debug_abbrev,"",%progbits
 435              	.Ldebug_abbrev0:
 436 0000 01       		.uleb128 0x1
 437 0001 11       		.uleb128 0x11
 438 0002 01       		.byte	0x1
 439 0003 25       		.uleb128 0x25
 440 0004 0E       		.uleb128 0xe
 441 0005 13       		.uleb128 0x13
 442 0006 0B       		.uleb128 0xb
 443 0007 03       		.uleb128 0x3
 444 0008 0E       		.uleb128 0xe
 445 0009 11       		.uleb128 0x11
 446 000a 01       		.uleb128 0x1
 447 000b 12       		.uleb128 0x12
 448 000c 06       		.uleb128 0x6
 449 000d 10       		.uleb128 0x10
 450 000e 17       		.uleb128 0x17
 451 000f 00       		.byte	0
 452 0010 00       		.byte	0
 453 0011 02       		.uleb128 0x2
 454 0012 24       		.uleb128 0x24
 455 0013 00       		.byte	0
 456 0014 0B       		.uleb128 0xb
ARM GAS  /tmp/ccMwxdtU.s 			page 9


 457 0015 0B       		.uleb128 0xb
 458 0016 3E       		.uleb128 0x3e
 459 0017 0B       		.uleb128 0xb
 460 0018 03       		.uleb128 0x3
 461 0019 0E       		.uleb128 0xe
 462 001a 00       		.byte	0
 463 001b 00       		.byte	0
 464 001c 03       		.uleb128 0x3
 465 001d 16       		.uleb128 0x16
 466 001e 00       		.byte	0
 467 001f 03       		.uleb128 0x3
 468 0020 0E       		.uleb128 0xe
 469 0021 3A       		.uleb128 0x3a
 470 0022 0B       		.uleb128 0xb
 471 0023 3B       		.uleb128 0x3b
 472 0024 0B       		.uleb128 0xb
 473 0025 49       		.uleb128 0x49
 474 0026 13       		.uleb128 0x13
 475 0027 00       		.byte	0
 476 0028 00       		.byte	0
 477 0029 04       		.uleb128 0x4
 478 002a 24       		.uleb128 0x24
 479 002b 00       		.byte	0
 480 002c 0B       		.uleb128 0xb
 481 002d 0B       		.uleb128 0xb
 482 002e 3E       		.uleb128 0x3e
 483 002f 0B       		.uleb128 0xb
 484 0030 03       		.uleb128 0x3
 485 0031 08       		.uleb128 0x8
 486 0032 00       		.byte	0
 487 0033 00       		.byte	0
 488 0034 05       		.uleb128 0x5
 489 0035 04       		.uleb128 0x4
 490 0036 01       		.byte	0x1
 491 0037 0B       		.uleb128 0xb
 492 0038 0B       		.uleb128 0xb
 493 0039 3A       		.uleb128 0x3a
 494 003a 0B       		.uleb128 0xb
 495 003b 3B       		.uleb128 0x3b
 496 003c 05       		.uleb128 0x5
 497 003d 01       		.uleb128 0x1
 498 003e 13       		.uleb128 0x13
 499 003f 00       		.byte	0
 500 0040 00       		.byte	0
 501 0041 06       		.uleb128 0x6
 502 0042 28       		.uleb128 0x28
 503 0043 00       		.byte	0
 504 0044 03       		.uleb128 0x3
 505 0045 0E       		.uleb128 0xe
 506 0046 1C       		.uleb128 0x1c
 507 0047 0D       		.uleb128 0xd
 508 0048 00       		.byte	0
 509 0049 00       		.byte	0
 510 004a 07       		.uleb128 0x7
 511 004b 16       		.uleb128 0x16
 512 004c 00       		.byte	0
 513 004d 03       		.uleb128 0x3
ARM GAS  /tmp/ccMwxdtU.s 			page 10


 514 004e 0E       		.uleb128 0xe
 515 004f 3A       		.uleb128 0x3a
 516 0050 0B       		.uleb128 0xb
 517 0051 3B       		.uleb128 0x3b
 518 0052 05       		.uleb128 0x5
 519 0053 49       		.uleb128 0x49
 520 0054 13       		.uleb128 0x13
 521 0055 00       		.byte	0
 522 0056 00       		.byte	0
 523 0057 08       		.uleb128 0x8
 524 0058 0F       		.uleb128 0xf
 525 0059 00       		.byte	0
 526 005a 0B       		.uleb128 0xb
 527 005b 0B       		.uleb128 0xb
 528 005c 49       		.uleb128 0x49
 529 005d 13       		.uleb128 0x13
 530 005e 00       		.byte	0
 531 005f 00       		.byte	0
 532 0060 09       		.uleb128 0x9
 533 0061 2E       		.uleb128 0x2e
 534 0062 01       		.byte	0x1
 535 0063 3F       		.uleb128 0x3f
 536 0064 19       		.uleb128 0x19
 537 0065 03       		.uleb128 0x3
 538 0066 0E       		.uleb128 0xe
 539 0067 3A       		.uleb128 0x3a
 540 0068 0B       		.uleb128 0xb
 541 0069 3B       		.uleb128 0x3b
 542 006a 0B       		.uleb128 0xb
 543 006b 27       		.uleb128 0x27
 544 006c 19       		.uleb128 0x19
 545 006d 49       		.uleb128 0x49
 546 006e 13       		.uleb128 0x13
 547 006f 11       		.uleb128 0x11
 548 0070 01       		.uleb128 0x1
 549 0071 12       		.uleb128 0x12
 550 0072 06       		.uleb128 0x6
 551 0073 40       		.uleb128 0x40
 552 0074 18       		.uleb128 0x18
 553 0075 9742     		.uleb128 0x2117
 554 0077 19       		.uleb128 0x19
 555 0078 00       		.byte	0
 556 0079 00       		.byte	0
 557 007a 0A       		.uleb128 0xa
 558 007b 05       		.uleb128 0x5
 559 007c 00       		.byte	0
 560 007d 03       		.uleb128 0x3
 561 007e 08       		.uleb128 0x8
 562 007f 3A       		.uleb128 0x3a
 563 0080 0B       		.uleb128 0xb
 564 0081 3B       		.uleb128 0x3b
 565 0082 0B       		.uleb128 0xb
 566 0083 49       		.uleb128 0x49
 567 0084 13       		.uleb128 0x13
 568 0085 02       		.uleb128 0x2
 569 0086 17       		.uleb128 0x17
 570 0087 00       		.byte	0
ARM GAS  /tmp/ccMwxdtU.s 			page 11


 571 0088 00       		.byte	0
 572 0089 0B       		.uleb128 0xb
 573 008a 05       		.uleb128 0x5
 574 008b 00       		.byte	0
 575 008c 03       		.uleb128 0x3
 576 008d 0E       		.uleb128 0xe
 577 008e 3A       		.uleb128 0x3a
 578 008f 0B       		.uleb128 0xb
 579 0090 3B       		.uleb128 0x3b
 580 0091 0B       		.uleb128 0xb
 581 0092 49       		.uleb128 0x49
 582 0093 13       		.uleb128 0x13
 583 0094 02       		.uleb128 0x2
 584 0095 18       		.uleb128 0x18
 585 0096 00       		.byte	0
 586 0097 00       		.byte	0
 587 0098 0C       		.uleb128 0xc
 588 0099 34       		.uleb128 0x34
 589 009a 00       		.byte	0
 590 009b 03       		.uleb128 0x3
 591 009c 0E       		.uleb128 0xe
 592 009d 3A       		.uleb128 0x3a
 593 009e 0B       		.uleb128 0xb
 594 009f 3B       		.uleb128 0x3b
 595 00a0 0B       		.uleb128 0xb
 596 00a1 49       		.uleb128 0x49
 597 00a2 13       		.uleb128 0x13
 598 00a3 02       		.uleb128 0x2
 599 00a4 17       		.uleb128 0x17
 600 00a5 00       		.byte	0
 601 00a6 00       		.byte	0
 602 00a7 0D       		.uleb128 0xd
 603 00a8 17       		.uleb128 0x17
 604 00a9 01       		.byte	0x1
 605 00aa 0B       		.uleb128 0xb
 606 00ab 0B       		.uleb128 0xb
 607 00ac 3A       		.uleb128 0x3a
 608 00ad 0B       		.uleb128 0xb
 609 00ae 3B       		.uleb128 0x3b
 610 00af 0B       		.uleb128 0xb
 611 00b0 01       		.uleb128 0x1
 612 00b1 13       		.uleb128 0x13
 613 00b2 00       		.byte	0
 614 00b3 00       		.byte	0
 615 00b4 0E       		.uleb128 0xe
 616 00b5 0D       		.uleb128 0xd
 617 00b6 00       		.byte	0
 618 00b7 03       		.uleb128 0x3
 619 00b8 0E       		.uleb128 0xe
 620 00b9 3A       		.uleb128 0x3a
 621 00ba 0B       		.uleb128 0xb
 622 00bb 3B       		.uleb128 0x3b
 623 00bc 0B       		.uleb128 0xb
 624 00bd 49       		.uleb128 0x49
 625 00be 13       		.uleb128 0x13
 626 00bf 00       		.byte	0
 627 00c0 00       		.byte	0
ARM GAS  /tmp/ccMwxdtU.s 			page 12


 628 00c1 00       		.byte	0
 629              		.section	.debug_loc,"",%progbits
 630              	.Ldebug_loc0:
 631              	.LLST0:
 632 0000 00000000 		.4byte	.LVL0-.Ltext0
 633 0004 18000000 		.4byte	.LVL2-.Ltext0
 634 0008 0100     		.2byte	0x1
 635 000a 50       		.byte	0x50
 636 000b 18000000 		.4byte	.LVL2-.Ltext0
 637 000f E0000000 		.4byte	.LVL19-.Ltext0
 638 0013 0400     		.2byte	0x4
 639 0015 F3       		.byte	0xf3
 640 0016 01       		.uleb128 0x1
 641 0017 50       		.byte	0x50
 642 0018 9F       		.byte	0x9f
 643 0019 E0000000 		.4byte	.LVL19-.Ltext0
 644 001d E4000000 		.4byte	.LVL20-.Ltext0
 645 0021 0100     		.2byte	0x1
 646 0023 50       		.byte	0x50
 647 0024 E4000000 		.4byte	.LVL20-.Ltext0
 648 0028 F0000000 		.4byte	.LFE135-.Ltext0
 649 002c 0400     		.2byte	0x4
 650 002e F3       		.byte	0xf3
 651 002f 01       		.uleb128 0x1
 652 0030 50       		.byte	0x50
 653 0031 9F       		.byte	0x9f
 654 0032 00000000 		.4byte	0
 655 0036 00000000 		.4byte	0
 656              	.LLST1:
 657 003a 00000000 		.4byte	.LVL0-.Ltext0
 658 003e 18000000 		.4byte	.LVL2-.Ltext0
 659 0042 0100     		.2byte	0x1
 660 0044 50       		.byte	0x50
 661 0045 18000000 		.4byte	.LVL2-.Ltext0
 662 0049 1A000000 		.4byte	.LVL3-.Ltext0
 663 004d 0400     		.2byte	0x4
 664 004f F3       		.byte	0xf3
 665 0050 01       		.uleb128 0x1
 666 0051 50       		.byte	0x50
 667 0052 9F       		.byte	0x9f
 668 0053 1A000000 		.4byte	.LVL3-.Ltext0
 669 0057 CA000000 		.4byte	.LVL14-.Ltext0
 670 005b 0100     		.2byte	0x1
 671 005d 50       		.byte	0x50
 672 005e D2000000 		.4byte	.LVL15-.Ltext0
 673 0062 D8000000 		.4byte	.LVL18-.Ltext0
 674 0066 0100     		.2byte	0x1
 675 0068 50       		.byte	0x50
 676 0069 E0000000 		.4byte	.LVL19-.Ltext0
 677 006d E4000000 		.4byte	.LVL20-.Ltext0
 678 0071 0100     		.2byte	0x1
 679 0073 50       		.byte	0x50
 680 0074 E4000000 		.4byte	.LVL20-.Ltext0
 681 0078 F0000000 		.4byte	.LFE135-.Ltext0
 682 007c 0400     		.2byte	0x4
 683 007e F3       		.byte	0xf3
 684 007f 01       		.uleb128 0x1
ARM GAS  /tmp/ccMwxdtU.s 			page 13


 685 0080 50       		.byte	0x50
 686 0081 9F       		.byte	0x9f
 687 0082 00000000 		.4byte	0
 688 0086 00000000 		.4byte	0
 689              	.LLST2:
 690 008a 38000000 		.4byte	.LVL4-.Ltext0
 691 008e CA000000 		.4byte	.LVL14-.Ltext0
 692 0092 0100     		.2byte	0x1
 693 0094 50       		.byte	0x50
 694 0095 D2000000 		.4byte	.LVL15-.Ltext0
 695 0099 D8000000 		.4byte	.LVL18-.Ltext0
 696 009d 0100     		.2byte	0x1
 697 009f 50       		.byte	0x50
 698 00a0 00000000 		.4byte	0
 699 00a4 00000000 		.4byte	0
 700              	.LLST3:
 701 00a8 38000000 		.4byte	.LVL4-.Ltext0
 702 00ac 4E000000 		.4byte	.LVL6-.Ltext0
 703 00b0 0100     		.2byte	0x1
 704 00b2 54       		.byte	0x54
 705 00b3 4E000000 		.4byte	.LVL6-.Ltext0
 706 00b7 62000000 		.4byte	.LVL7-.Ltext0
 707 00bb 0900     		.2byte	0x9
 708 00bd 0C       		.byte	0xc
 709 00be DF59375F 		.4byte	0x5f3759df
 710 00c2 73       		.byte	0x73
 711 00c3 00       		.sleb128 0
 712 00c4 1C       		.byte	0x1c
 713 00c5 9F       		.byte	0x9f
 714 00c6 00000000 		.4byte	0
 715 00ca 00000000 		.4byte	0
 716              	.LLST4:
 717 00ce 3C000000 		.4byte	.LVL5-.Ltext0
 718 00d2 62000000 		.4byte	.LVL7-.Ltext0
 719 00d6 0100     		.2byte	0x1
 720 00d8 55       		.byte	0x55
 721 00d9 62000000 		.4byte	.LVL7-.Ltext0
 722 00dd AC000000 		.4byte	.LVL9-.Ltext0
 723 00e1 0100     		.2byte	0x1
 724 00e3 53       		.byte	0x53
 725 00e4 AC000000 		.4byte	.LVL9-.Ltext0
 726 00e8 B0000000 		.4byte	.LVL10-.Ltext0
 727 00ec 0100     		.2byte	0x1
 728 00ee 54       		.byte	0x54
 729 00ef B0000000 		.4byte	.LVL10-.Ltext0
 730 00f3 B2000000 		.4byte	.LVL11-.Ltext0
 731 00f7 0C00     		.2byte	0xc
 732 00f9 73       		.byte	0x73
 733 00fa 00       		.sleb128 0
 734 00fb 31       		.byte	0x31
 735 00fc 24       		.byte	0x24
 736 00fd 72       		.byte	0x72
 737 00fe 00       		.sleb128 0
 738 00ff 4F       		.byte	0x4f
 739 0100 25       		.byte	0x25
 740 0101 21       		.byte	0x21
 741 0102 32       		.byte	0x32
ARM GAS  /tmp/ccMwxdtU.s 			page 14


 742 0103 24       		.byte	0x24
 743 0104 9F       		.byte	0x9f
 744 0105 B8000000 		.4byte	.LVL12-.Ltext0
 745 0109 E0000000 		.4byte	.LVL19-.Ltext0
 746 010d 0100     		.2byte	0x1
 747 010f 53       		.byte	0x53
 748 0110 00000000 		.4byte	0
 749 0114 00000000 		.4byte	0
 750              	.LLST5:
 751 0118 0E000000 		.4byte	.LVL1-.Ltext0
 752 011c D4000000 		.4byte	.LVL16-.Ltext0
 753 0120 0100     		.2byte	0x1
 754 0122 57       		.byte	0x57
 755 0123 D4000000 		.4byte	.LVL16-.Ltext0
 756 0127 E0000000 		.4byte	.LVL19-.Ltext0
 757 012b 0300     		.2byte	0x3
 758 012d 76       		.byte	0x76
 759 012e 7F       		.sleb128 -1
 760 012f 9F       		.byte	0x9f
 761 0130 00000000 		.4byte	0
 762 0134 00000000 		.4byte	0
 763              	.LLST6:
 764 0138 38000000 		.4byte	.LVL4-.Ltext0
 765 013c E0000000 		.4byte	.LVL19-.Ltext0
 766 0140 0100     		.2byte	0x1
 767 0142 5C       		.byte	0x5c
 768 0143 00000000 		.4byte	0
 769 0147 00000000 		.4byte	0
 770              	.LLST7:
 771 014b 38000000 		.4byte	.LVL4-.Ltext0
 772 014f 4E000000 		.4byte	.LVL6-.Ltext0
 773 0153 0100     		.2byte	0x1
 774 0155 54       		.byte	0x54
 775 0156 4E000000 		.4byte	.LVL6-.Ltext0
 776 015a 62000000 		.4byte	.LVL7-.Ltext0
 777 015e 0B00     		.2byte	0xb
 778 0160 0C       		.byte	0xc
 779 0161 DF59375F 		.4byte	0x5f3759df
 780 0165 73       		.byte	0x73
 781 0166 00       		.sleb128 0
 782 0167 1C       		.byte	0x1c
 783 0168 F9       		.byte	0xf9
 784 0169 21       		.uleb128 0x21
 785 016a 9F       		.byte	0x9f
 786 016b 00000000 		.4byte	0
 787 016f 00000000 		.4byte	0
 788              	.LLST8:
 789 0173 38000000 		.4byte	.LVL4-.Ltext0
 790 0177 4E000000 		.4byte	.LVL6-.Ltext0
 791 017b 0300     		.2byte	0x3
 792 017d 54       		.byte	0x54
 793 017e 93       		.byte	0x93
 794 017f 04       		.uleb128 0x4
 795 0180 4E000000 		.4byte	.LVL6-.Ltext0
 796 0184 62000000 		.4byte	.LVL7-.Ltext0
 797 0188 0B00     		.2byte	0xb
 798 018a 0C       		.byte	0xc
ARM GAS  /tmp/ccMwxdtU.s 			page 15


 799 018b DF59375F 		.4byte	0x5f3759df
 800 018f 73       		.byte	0x73
 801 0190 00       		.sleb128 0
 802 0191 1C       		.byte	0x1c
 803 0192 9F       		.byte	0x9f
 804 0193 93       		.byte	0x93
 805 0194 04       		.uleb128 0x4
 806 0195 00000000 		.4byte	0
 807 0199 00000000 		.4byte	0
 808              		.section	.debug_aranges,"",%progbits
 809 0000 1C000000 		.4byte	0x1c
 810 0004 0200     		.2byte	0x2
 811 0006 00000000 		.4byte	.Ldebug_info0
 812 000a 04       		.byte	0x4
 813 000b 00       		.byte	0
 814 000c 0000     		.2byte	0
 815 000e 0000     		.2byte	0
 816 0010 00000000 		.4byte	.Ltext0
 817 0014 F0000000 		.4byte	.Letext0-.Ltext0
 818 0018 00000000 		.4byte	0
 819 001c 00000000 		.4byte	0
 820              		.section	.debug_line,"",%progbits
 821              	.Ldebug_line0:
 822 0000 5A020000 		.section	.debug_str,"MS",%progbits,1
 822      02000502 
 822      00000201 
 822      FB0E0D00 
 822      01010101 
 823              	.LASF40:
 824 0000 474E5520 		.ascii	"GNU C 4.9.3 20150529 (release) [ARM/embedded-4_9-br"
 824      4320342E 
 824      392E3320 
 824      32303135 
 824      30353239 
 825 0033 616E6368 		.ascii	"anch revision 224288] -mcpu=cortex-m4 -mfloat-abi=h"
 825      20726576 
 825      6973696F 
 825      6E203232 
 825      34323838 
 826 0066 61726420 		.ascii	"ard -mfpu=fpv4-sp-d16 -mno-thumb-interwork -mthumb "
 826      2D6D6670 
 826      753D6670 
 826      76342D73 
 826      702D6431 
 827 0099 2D676764 		.ascii	"-ggdb -O2 -fomit-frame-pointer -falign-functions=16"
 827      62202D4F 
 827      32202D66 
 827      6F6D6974 
 827      2D667261 
 828 00cc 202D666E 		.ascii	" -fno-math-errno -fsingle-precision-constant\000"
 828      6F2D6D61 
 828      74682D65 
 828      72726E6F 
 828      202D6673 
 829              	.LASF35:
 830 00f9 68616C66 		.ascii	"half\000"
 830      00
ARM GAS  /tmp/ccMwxdtU.s 			page 16


 831              	.LASF41:
 832 00fe 2F686F6D 		.ascii	"/home/sbcu/Dropbox/pcb-layouts/axo-on-discovery-boa"
 832      652F7362 
 832      63752F44 
 832      726F7062 
 832      6F782F70 
 833 0131 72642F61 		.ascii	"rd/axoloti/platform_linux/../CMSIS//DSP_Lib/Source/"
 833      786F6C6F 
 833      74692F70 
 833      6C617466 
 833      6F726D5F 
 834 0164 46617374 		.ascii	"FastMathFunctions/arm_sqrt_q31.c\000"
 834      4D617468 
 834      46756E63 
 834      74696F6E 
 834      732F6172 
 835              	.LASF20:
 836 0185 41524D5F 		.ascii	"ARM_MATH_LENGTH_ERROR\000"
 836      4D415448 
 836      5F4C454E 
 836      4754485F 
 836      4552524F 
 837              	.LASF38:
 838 019b 666C6F61 		.ascii	"floatval\000"
 838      7476616C 
 838      00
 839              	.LASF7:
 840 01a4 5F5F696E 		.ascii	"__int32_t\000"
 840      7433325F 
 840      7400
 841              	.LASF21:
 842 01ae 41524D5F 		.ascii	"ARM_MATH_SIZE_MISMATCH\000"
 842      4D415448 
 842      5F53495A 
 842      455F4D49 
 842      534D4154 
 843              	.LASF29:
 844 01c5 704F7574 		.ascii	"pOut\000"
 844      00
 845              	.LASF36:
 846 01ca 74656D70 		.ascii	"temp_float1\000"
 846      5F666C6F 
 846      61743100 
 847              	.LASF26:
 848 01d6 7133315F 		.ascii	"q31_t\000"
 848      7400
 849              	.LASF2:
 850 01dc 756E7369 		.ascii	"unsigned char\000"
 850      676E6564 
 850      20636861 
 850      7200
 851              	.LASF6:
 852 01ea 6C6F6E67 		.ascii	"long unsigned int\000"
 852      20756E73 
 852      69676E65 
 852      6420696E 
 852      7400
ARM GAS  /tmp/ccMwxdtU.s 			page 17


 853              	.LASF4:
 854 01fc 73686F72 		.ascii	"short unsigned int\000"
 854      7420756E 
 854      7369676E 
 854      65642069 
 854      6E7400
 855              	.LASF13:
 856 020f 696E7436 		.ascii	"int64_t\000"
 856      345F7400 
 857              	.LASF24:
 858 0217 41524D5F 		.ascii	"ARM_MATH_TEST_FAILURE\000"
 858      4D415448 
 858      5F544553 
 858      545F4641 
 858      494C5552 
 859              	.LASF8:
 860 022d 5F5F696E 		.ascii	"__int64_t\000"
 860      7436345F 
 860      7400
 861              	.LASF16:
 862 0237 646F7562 		.ascii	"double\000"
 862      6C6500
 863              	.LASF28:
 864 023e 666C6F61 		.ascii	"float32_t\000"
 864      7433325F 
 864      7400
 865              	.LASF19:
 866 0248 41524D5F 		.ascii	"ARM_MATH_ARGUMENT_ERROR\000"
 866      4D415448 
 866      5F415247 
 866      554D454E 
 866      545F4552 
 867              	.LASF33:
 868 0260 76617231 		.ascii	"var1\000"
 868      00
 869              	.LASF11:
 870 0265 756E7369 		.ascii	"unsigned int\000"
 870      676E6564 
 870      20696E74 
 870      00
 871              	.LASF10:
 872 0272 6C6F6E67 		.ascii	"long long unsigned int\000"
 872      206C6F6E 
 872      6720756E 
 872      7369676E 
 872      65642069 
 873              	.LASF27:
 874 0289 7136335F 		.ascii	"q63_t\000"
 874      7400
 875              	.LASF30:
 876 028f 6E756D62 		.ascii	"number\000"
 876      657200
 877              	.LASF12:
 878 0296 696E7433 		.ascii	"int32_t\000"
 878      325F7400 
 879              	.LASF14:
 880 029e 73697A65 		.ascii	"sizetype\000"
ARM GAS  /tmp/ccMwxdtU.s 			page 18


 880      74797065 
 880      00
 881              	.LASF32:
 882 02a7 62697473 		.ascii	"bits_val1\000"
 882      5F76616C 
 882      3100
 883              	.LASF9:
 884 02b1 6C6F6E67 		.ascii	"long long int\000"
 884      206C6F6E 
 884      6720696E 
 884      7400
 885              	.LASF0:
 886 02bf 666C6F61 		.ascii	"float\000"
 886      7400
 887              	.LASF15:
 888 02c5 63686172 		.ascii	"char\000"
 888      00
 889              	.LASF22:
 890 02ca 41524D5F 		.ascii	"ARM_MATH_NANINF\000"
 890      4D415448 
 890      5F4E414E 
 890      494E4600 
 891              	.LASF31:
 892 02da 74656D70 		.ascii	"temp1\000"
 892      3100
 893              	.LASF39:
 894 02e0 74656D70 		.ascii	"tempconv\000"
 894      636F6E76 
 894      00
 895              	.LASF18:
 896 02e9 41524D5F 		.ascii	"ARM_MATH_SUCCESS\000"
 896      4D415448 
 896      5F535543 
 896      43455353 
 896      00
 897              	.LASF3:
 898 02fa 73686F72 		.ascii	"short int\000"
 898      7420696E 
 898      7400
 899              	.LASF37:
 900 0304 66726163 		.ascii	"fracval\000"
 900      76616C00 
 901              	.LASF5:
 902 030c 6C6F6E67 		.ascii	"long int\000"
 902      20696E74 
 902      00
 903              	.LASF17:
 904 0315 6C6F6E67 		.ascii	"long double\000"
 904      20646F75 
 904      626C6500 
 905              	.LASF42:
 906 0321 61726D5F 		.ascii	"arm_sqrt_q31\000"
 906      73717274 
 906      5F713331 
 906      00
 907              	.LASF1:
 908 032e 7369676E 		.ascii	"signed char\000"
ARM GAS  /tmp/ccMwxdtU.s 			page 19


 908      65642063 
 908      68617200 
 909              	.LASF34:
 910 033a 7369676E 		.ascii	"signBits1\000"
 910      42697473 
 910      3100
 911              	.LASF25:
 912 0344 61726D5F 		.ascii	"arm_status\000"
 912      73746174 
 912      757300
 913              	.LASF23:
 914 034f 41524D5F 		.ascii	"ARM_MATH_SINGULAR\000"
 914      4D415448 
 914      5F53494E 
 914      47554C41 
 914      5200
 915              		.ident	"GCC: (GNU Tools for ARM Embedded Processors) 4.9.3 20150529 (release) [ARM/embedded-4_9-br
ARM GAS  /tmp/ccMwxdtU.s 			page 20


DEFINED SYMBOLS
                            *ABS*:00000000 arm_sqrt_q31.c
     /tmp/ccMwxdtU.s:20     .text:00000000 $t
     /tmp/ccMwxdtU.s:26     .text:00000000 arm_sqrt_q31
     /tmp/ccMwxdtU.s:195    .text:000000ec $d
                     .debug_frame:00000010 $d

NO UNDEFINED SYMBOLS
