ARM GAS  /tmp/cc240WPN.s 			page 1


   1              		.syntax unified
   2              		.cpu cortex-m4
   3              		.eabi_attribute 27, 1
   4              		.eabi_attribute 28, 1
   5              		.fpu fpv4-sp-d16
   6              		.eabi_attribute 20, 1
   7              		.eabi_attribute 21, 1
   8              		.eabi_attribute 23, 3
   9              		.eabi_attribute 24, 1
  10              		.eabi_attribute 25, 1
  11              		.eabi_attribute 26, 1
  12              		.eabi_attribute 30, 2
  13              		.eabi_attribute 34, 1
  14              		.eabi_attribute 18, 4
  15              		.thumb
  16              		.file	"arm_fir_interpolate_init_q31.c"
  17              		.text
  18              	.Ltext0:
  19              		.cfi_sections	.debug_frame
  20              		.align	2
  21              		.p2align 4,,15
  22              		.global	arm_fir_interpolate_init_q31
  23              		.thumb
  24              		.thumb_func
  25              		.type	arm_fir_interpolate_init_q31, %function
  26              	arm_fir_interpolate_init_q31:
  27              	.LFB135:
  28              		.file 1 "/home/sbcu/Dropbox/pcb-layouts/axo-on-discovery-board/axoloti/platform_linux/../CMSIS//DS
  29              		.loc 1 84 0
  30              		.cfi_startproc
  31              		@ args = 8, pretend = 0, frame = 0
  32              		@ frame_needed = 0, uses_anonymous_args = 0
  33              	.LVL0:
  34 0000 70B5     		push	{r4, r5, r6, lr}
  35              		.cfi_def_cfa_offset 16
  36              		.cfi_offset 4, -16
  37              		.cfi_offset 5, -12
  38              		.cfi_offset 6, -8
  39              		.cfi_offset 14, -4
  40              		.loc 1 88 0
  41 0002 92FBF1F6 		sdiv	r6, r2, r1
  42 0006 01FB1624 		mls	r4, r1, r6, r2
  43 000a 94B9     		cbnz	r4, .L3
  44 000c 059A     		ldr	r2, [sp, #20]
  45              	.LVL1:
  46              		.loc 1 97 0
  47 000e 4360     		str	r3, [r0, #4]
  48 0010 02F18042 		add	r2, r2, #1073741824
  49 0014 013A     		subs	r2, r2, #1
  50              		.loc 1 106 0
  51 0016 3244     		add	r2, r2, r6
  52              		.loc 1 100 0
  53 0018 0170     		strb	r1, [r0]
  54 001a 0546     		mov	r5, r0
  55              		.loc 1 103 0
  56 001c 4680     		strh	r6, [r0, #2]	@ movhi
  57              		.loc 1 106 0
ARM GAS  /tmp/cc240WPN.s 			page 2


  58 001e 9200     		lsls	r2, r2, #2
  59 0020 0498     		ldr	r0, [sp, #16]
  60              	.LVL2:
  61 0022 2146     		mov	r1, r4
  62              	.LVL3:
  63 0024 FFF7FEFF 		bl	memset
  64              	.LVL4:
  65              		.loc 1 110 0
  66 0028 049B     		ldr	r3, [sp, #16]
  67 002a AB60     		str	r3, [r5, #8]
  68              	.LVL5:
  69              		.loc 1 112 0
  70 002c 2046     		mov	r0, r4
  71              	.LVL6:
  72              	.L2:
  73              		.loc 1 117 0
  74 002e 40B2     		sxtb	r0, r0
  75 0030 70BD     		pop	{r4, r5, r6, pc}
  76              	.LVL7:
  77              	.L3:
  78              		.loc 1 91 0
  79 0032 FE20     		movs	r0, #254
  80              	.LVL8:
  81 0034 FBE7     		b	.L2
  82              		.cfi_endproc
  83              	.LFE135:
  84              		.size	arm_fir_interpolate_init_q31, .-arm_fir_interpolate_init_q31
  85              	.Letext0:
  86              		.file 2 "/home/sbcu/Dropbox/pcb-layouts/axo-on-discovery-board/axoloti/platform_linux/arm-none-eab
  87              		.file 3 "/home/sbcu/Dropbox/pcb-layouts/axo-on-discovery-board/axoloti/platform_linux/arm-none-eab
  88              		.file 4 "/home/sbcu/Dropbox/pcb-layouts/axo-on-discovery-board/axoloti/platform_linux/../CMSIS//DS