ARM GAS  /tmp/ccKhdJpS.s 			page 1


   1              		.syntax unified
   2              		.cpu cortex-m4
   3              		.eabi_attribute 27, 1
   4              		.eabi_attribute 28, 1
   5              		.fpu fpv4-sp-d16
   6              		.eabi_attribute 20, 1
   7              		.eabi_attribute 21, 1
   8              		.eabi_attribute 23, 3
   9              		.eabi_attribute 24, 1
  10              		.eabi_attribute 25, 1
  11              		.eabi_attribute 26, 1
  12              		.eabi_attribute 30, 2
  13              		.eabi_attribute 34, 1
  14              		.eabi_attribute 18, 4
  15              		.thumb
  16              		.file	"arm_cfft_radix4_init_q31.c"
  17              		.text
  18              	.Ltext0:
  19              		.cfi_sections	.debug_frame
  20              		.align	2
  21              		.p2align 4,,15
  22              		.global	arm_cfft_radix4_init_q31
  23              		.thumb
  24              		.thumb_func
  25              		.type	arm_cfft_radix4_init_q31, %function
  26              	arm_cfft_radix4_init_q31:
  27              	.LFB135:
  28              		.file 1 "/home/sbcu/Dropbox/pcb-layouts/axo-on-discovery-board/axoloti/platform_linux/../CMSIS//DS
  29              		.loc 1 81 0
  30              		.cfi_startproc
  31              		@ args = 0, pretend = 0, frame = 0
  32              		@ frame_needed = 0, uses_anonymous_args = 0
  33              		@ link register save eliminated.
  34              	.LVL0:
  35 0000 10B4     		push	{r4}
  36              		.cfi_def_cfa_offset 4
  37              		.cfi_offset 4, -4
  38              		.loc 1 94 0
  39 0002 B1F5807F 		cmp	r1, #256
  40              		.loc 1 87 0
  41 0006 244C     		ldr	r4, .L12
  42              		.loc 1 89 0
  43 0008 8270     		strb	r2, [r0, #2]
  44              		.loc 1 91 0
  45 000a C370     		strb	r3, [r0, #3]
  46              		.loc 1 85 0
  47 000c 0180     		strh	r1, [r0]	@ movhi
  48              		.loc 1 87 0
  49 000e 4460     		str	r4, [r0, #4]
  50              		.loc 1 94 0
  51 0010 37D0     		beq	.L3
  52 0012 0CD8     		bhi	.L4
  53 0014 1029     		cmp	r1, #16
  54 0016 29D0     		beq	.L5
  55 0018 4029     		cmp	r1, #64
  56 001a 18D1     		bne	.L9
  57              		.loc 1 127 0
ARM GAS  /tmp/ccKhdJpS.s 			page 2


  58 001c 1F4B     		ldr	r3, .L12+4
  59              	.LVL1:
  60              		.loc 1 125 0
  61 001e 8181     		strh	r1, [r0, #12]	@ movhi
  62              		.loc 1 126 0
  63 0020 C181     		strh	r1, [r0, #14]	@ movhi
  64              		.loc 1 127 0
  65 0022 8360     		str	r3, [r0, #8]
  66              		.loc 1 83 0
  67 0024 0020     		movs	r0, #0
  68              	.LVL2:
  69              		.loc 1 144 0
  70 0026 40B2     		sxtb	r0, r0
  71 0028 5DF8044B 		ldr	r4, [sp], #4
  72              		.cfi_remember_state
  73              		.cfi_restore 4
  74              		.cfi_def_cfa_offset 0
  75 002c 7047     		bx	lr
  76              	.LVL3:
  77              	.L4:
  78              		.cfi_restore_state
  79              		.loc 1 94 0
  80 002e B1F5806F 		cmp	r1, #1024
  81 0032 11D0     		beq	.L7
  82 0034 B1F5805F 		cmp	r1, #4096
  83 0038 09D1     		bne	.L9
  84              		.loc 1 99 0
  85 003a 0123     		movs	r3, #1
  86              	.LVL4:
  87              		.loc 1 103 0
  88 003c 184A     		ldr	r2, .L12+8
  89              	.LVL5:
  90              		.loc 1 99 0
  91 003e 8381     		strh	r3, [r0, #12]	@ movhi
  92              		.loc 1 101 0
  93 0040 C381     		strh	r3, [r0, #14]	@ movhi
  94              		.loc 1 103 0
  95 0042 8260     		str	r2, [r0, #8]
  96              		.loc 1 83 0
  97 0044 0020     		movs	r0, #0
  98              	.LVL6:
  99              		.loc 1 144 0
 100 0046 40B2     		sxtb	r0, r0
 101 0048 5DF8044B 		ldr	r4, [sp], #4
 102              		.cfi_remember_state
 103              		.cfi_restore 4
 104              		.cfi_def_cfa_offset 0
 105 004c 7047     		bx	lr
 106              	.LVL7:
 107              	.L9:
 108              		.cfi_restore_state
 109              		.loc 1 139 0
 110 004e FF20     		movs	r0, #255
 111              	.LVL8:
 112              		.loc 1 144 0
 113 0050 40B2     		sxtb	r0, r0
 114 0052 5DF8044B 		ldr	r4, [sp], #4
ARM GAS  /tmp/ccKhdJpS.s 			page 3


 115              		.cfi_remember_state
 116              		.cfi_restore 4
 117              		.cfi_def_cfa_offset 0
 118 0056 7047     		bx	lr
 119              	.LVL9:
 120              	.L7:
 121              		.cfi_restore_state
 122              		.loc 1 109 0
 123 0058 0423     		movs	r3, #4
 124              	.LVL10:
 125              		.loc 1 113 0
 126 005a 124A     		ldr	r2, .L12+12
 127              	.LVL11:
 128              		.loc 1 109 0
 129 005c 8381     		strh	r3, [r0, #12]	@ movhi
 130              		.loc 1 111 0
 131 005e C381     		strh	r3, [r0, #14]	@ movhi
 132              		.loc 1 113 0
 133 0060 8260     		str	r2, [r0, #8]
 134              		.loc 1 83 0
 135 0062 0020     		movs	r0, #0
 136              	.LVL12:
 137              		.loc 1 144 0
 138 0064 40B2     		sxtb	r0, r0
 139 0066 5DF8044B 		ldr	r4, [sp], #4
 140              		.cfi_remember_state
 141              		.cfi_restore 4
 142              		.cfi_def_cfa_offset 0
 143 006a 7047     		bx	lr
 144              	.LVL13:
 145              	.L5:
 146              		.cfi_restore_state
 147              		.loc 1 132 0
 148 006c 4FF48073 		mov	r3, #256
 149              	.LVL14:
 150              		.loc 1 134 0
 151 0070 0D4A     		ldr	r2, .L12+16
 152              	.LVL15:
 153              		.loc 1 132 0
 154 0072 8381     		strh	r3, [r0, #12]	@ movhi
 155              		.loc 1 133 0
 156 0074 C381     		strh	r3, [r0, #14]	@ movhi
 157              		.loc 1 134 0
 158 0076 8260     		str	r2, [r0, #8]
 159              		.loc 1 83 0
 160 0078 0020     		movs	r0, #0
 161              	.LVL16:
 162              		.loc 1 144 0
 163 007a 40B2     		sxtb	r0, r0
 164 007c 5DF8044B 		ldr	r4, [sp], #4
 165              		.cfi_remember_state
 166              		.cfi_restore 4
 167              		.cfi_def_cfa_offset 0
 168 0080 7047     		bx	lr
 169              	.LVL17:
 170              	.L3:
 171              		.cfi_restore_state
ARM GAS  /tmp/ccKhdJpS.s 			page 4


 172              		.loc 1 118 0
 173 0082 1023     		movs	r3, #16
 174              	.LVL18:
 175              		.loc 1 120 0
 176 0084 094A     		ldr	r2, .L12+20
 177              	.LVL19:
 178              		.loc 1 118 0
 179 0086 8381     		strh	r3, [r0, #12]	@ movhi
 180              		.loc 1 119 0
 181 0088 C381     		strh	r3, [r0, #14]	@ movhi
 182              		.loc 1 120 0
 183 008a 8260     		str	r2, [r0, #8]
 184              		.loc 1 83 0
 185 008c 0020     		movs	r0, #0
 186              	.LVL20:
 187              		.loc 1 144 0
 188 008e 40B2     		sxtb	r0, r0
 189 0090 5DF8044B 		ldr	r4, [sp], #4
 190              		.cfi_restore 4
 191              		.cfi_def_cfa_offset 0
 192 0094 7047     		bx	lr
 193              	.L13:
 194 0096 00BF     		.align	2
 195              	.L12:
 196 0098 00000000 		.word	twiddleCoef_4096_q31
 197 009c 7E000000 		.word	armBitRevTable+126
 198 00a0 00000000 		.word	armBitRevTable
 199 00a4 06000000 		.word	armBitRevTable+6
 200 00a8 FE010000 		.word	armBitRevTable+510
 201 00ac 1E000000 		.word	armBitRevTable+30
 202              		.cfi_endproc
 203              	.LFE135:
 204              		.size	arm_cfft_radix4_init_q31, .-arm_cfft_radix4_init_q31
 205              	.Letext0:
 206              		.file 2 "/home/sbcu/Dropbox/pcb-layouts/axo-on-discovery-board/axoloti/platform_linux/arm-none-eab
 207              		.file 3 "/home/sbcu/Dropbox/pcb-layouts/axo-on-discovery-board/axoloti/platform_linux/arm-none-eab
 208              		.file 4 "/home/sbcu/Dropbox/pcb-layouts/axo-on-discovery-board/axoloti/platform_linux/../CMSIS//DS
 209              		.file 5 "/home/sbcu/Dropbox/pcb-layouts/axo-on-discovery-board/axoloti/platform_linux/../CMSIS//DS
 210              		.section	.debug_info,"",%progbits
 211              	.Ldebug_info0:
 212 0000 3B020000 		.4byte	0x23b
 213 0004 0400     		.2byte	0x4
 214 0006 00000000 		.4byte	.Ldebug_abbrev0
 215 000a 04       		.byte	0x4
 216 000b 01       		.uleb128 0x1
 217 000c 00000000 		.4byte	.LASF39
 218 0010 01       		.byte	0x1
 219 0011 12030000 		.4byte	.LASF40
 220 0015 00000000 		.4byte	.Ltext0
 221 0019 B0000000 		.4byte	.Letext0-.Ltext0
 222 001d 00000000 		.4byte	.Ldebug_line0
 223 0021 02       		.uleb128 0x2
 224 0022 01       		.byte	0x1
 225 0023 06       		.byte	0x6
 226 0024 E9020000 		.4byte	.LASF0
 227 0028 03       		.uleb128 0x3
 228 0029 F9000000 		.4byte	.LASF3
ARM GAS  /tmp/ccKhdJpS.s 			page 5


 229 002d 02       		.byte	0x2
 230 002e 1D       		.byte	0x1d
 231 002f 33000000 		.4byte	0x33
 232 0033 02       		.uleb128 0x2
 233 0034 01       		.byte	0x1
 234 0035 08       		.byte	0x8
 235 0036 79010000 		.4byte	.LASF1
 236 003a 02       		.uleb128 0x2
 237 003b 02       		.byte	0x2
 238 003c 05       		.byte	0x5
 239 003d C1020000 		.4byte	.LASF2
 240 0041 03       		.uleb128 0x3
 241 0042 D6010000 		.4byte	.LASF4
 242 0046 02       		.byte	0x2
 243 0047 2B       		.byte	0x2b
 244 0048 4C000000 		.4byte	0x4c
 245 004c 02       		.uleb128 0x2
 246 004d 02       		.byte	0x2
 247 004e 07       		.byte	0x7
 248 004f A6010000 		.4byte	.LASF5
 249 0053 03       		.uleb128 0x3
 250 0054 12010000 		.4byte	.LASF6
 251 0058 02       		.byte	0x2
 252 0059 3F       		.byte	0x3f
 253 005a 5E000000 		.4byte	0x5e
 254 005e 02       		.uleb128 0x2
 255 005f 04       		.byte	0x4
 256 0060 05       		.byte	0x5
 257 0061 D4020000 		.4byte	.LASF7
 258 0065 02       		.uleb128 0x2
 259 0066 04       		.byte	0x4
 260 0067 07       		.byte	0x7
 261 0068 94010000 		.4byte	.LASF8
 262 006c 02       		.uleb128 0x2
 263 006d 08       		.byte	0x8
 264 006e 05       		.byte	0x5
 265 006f 7B020000 		.4byte	.LASF9
 266 0073 02       		.uleb128 0x2
 267 0074 08       		.byte	0x8
 268 0075 07       		.byte	0x7
 269 0076 16020000 		.4byte	.LASF10
 270 007a 04       		.uleb128 0x4
 271 007b 04       		.byte	0x4
 272 007c 05       		.byte	0x5
 273 007d 696E7400 		.ascii	"int\000"
 274 0081 02       		.uleb128 0x2
 275 0082 04       		.byte	0x4
 276 0083 07       		.byte	0x7
 277 0084 09020000 		.4byte	.LASF11
 278 0088 03       		.uleb128 0x3
 279 0089 2D020000 		.4byte	.LASF12
 280 008d 03       		.byte	0x3
 281 008e 14       		.byte	0x14
 282 008f 28000000 		.4byte	0x28
 283 0093 03       		.uleb128 0x3
 284 0094 CB020000 		.4byte	.LASF13
 285 0098 03       		.byte	0x3
ARM GAS  /tmp/ccKhdJpS.s 			page 6


 286 0099 1A       		.byte	0x1a
 287 009a 41000000 		.4byte	0x41
 288 009e 03       		.uleb128 0x3
 289 009f 6A020000 		.4byte	.LASF14
 290 00a3 03       		.byte	0x3
 291 00a4 1F       		.byte	0x1f
 292 00a5 53000000 		.4byte	0x53
 293 00a9 02       		.uleb128 0x2
 294 00aa 04       		.byte	0x4
 295 00ab 07       		.byte	0x7
 296 00ac 72020000 		.4byte	.LASF15
 297 00b0 02       		.uleb128 0x2
 298 00b1 01       		.byte	0x1
 299 00b2 08       		.byte	0x8
 300 00b3 92020000 		.4byte	.LASF16
 301 00b7 02       		.uleb128 0x2
 302 00b8 08       		.byte	0x8
 303 00b9 04       		.byte	0x4
 304 00ba E1010000 		.4byte	.LASF17
 305 00be 02       		.uleb128 0x2
 306 00bf 04       		.byte	0x4
 307 00c0 04       		.byte	0x4
 308 00c1 6D010000 		.4byte	.LASF18
 309 00c5 02       		.uleb128 0x2
 310 00c6 08       		.byte	0x8
 311 00c7 04       		.byte	0x4
 312 00c8 DD020000 		.4byte	.LASF19
 313 00cc 05       		.uleb128 0x5
 314 00cd 01       		.byte	0x1
 315 00ce 04       		.byte	0x4
 316 00cf 8901     		.2byte	0x189
 317 00d1 00010000 		.4byte	0x100
 318 00d5 06       		.uleb128 0x6
 319 00d6 B0020000 		.4byte	.LASF20
 320 00da 00       		.sleb128 0
 321 00db 06       		.uleb128 0x6
 322 00dc E8010000 		.4byte	.LASF21
 323 00e0 7F       		.sleb128 -1
 324 00e1 06       		.uleb128 0x6
 325 00e2 54020000 		.4byte	.LASF22
 326 00e6 7E       		.sleb128 -2
 327 00e7 06       		.uleb128 0x6
 328 00e8 49010000 		.4byte	.LASF23
 329 00ec 7D       		.sleb128 -3
 330 00ed 06       		.uleb128 0x6
 331 00ee 44020000 		.4byte	.LASF24
 332 00f2 7C       		.sleb128 -4
 333 00f3 06       		.uleb128 0x6
 334 00f4 B1030000 		.4byte	.LASF25
 335 00f8 7B       		.sleb128 -5
 336 00f9 06       		.uleb128 0x6
 337 00fa C0010000 		.4byte	.LASF26
 338 00fe 7A       		.sleb128 -6
 339 00ff 00       		.byte	0
 340 0100 07       		.uleb128 0x7
 341 0101 A6030000 		.4byte	.LASF27
 342 0105 04       		.byte	0x4
ARM GAS  /tmp/ccKhdJpS.s 			page 7


 343 0106 9101     		.2byte	0x191
 344 0108 CC000000 		.4byte	0xcc
 345 010c 07       		.uleb128 0x7
 346 010d 73010000 		.4byte	.LASF28
 347 0111 04       		.byte	0x4
 348 0112 A001     		.2byte	0x1a0
 349 0114 9E000000 		.4byte	0x9e
 350 0118 08       		.uleb128 0x8
 351 0119 04       		.byte	0x4
 352 011a 0C010000 		.4byte	0x10c
 353 011e 08       		.uleb128 0x8
 354 011f 04       		.byte	0x4
 355 0120 93000000 		.4byte	0x93
 356 0124 09       		.uleb128 0x9
 357 0125 10       		.byte	0x10
 358 0126 04       		.byte	0x4
 359 0127 3108     		.2byte	0x831
 360 0129 89010000 		.4byte	0x189
 361 012d 0A       		.uleb128 0xa
 362 012e B9010000 		.4byte	.LASF29
 363 0132 04       		.byte	0x4
 364 0133 3308     		.2byte	0x833
 365 0135 93000000 		.4byte	0x93
 366 0139 00       		.byte	0
 367 013a 0A       		.uleb128 0xa
 368 013b 00020000 		.4byte	.LASF30
 369 013f 04       		.byte	0x4
 370 0140 3408     		.2byte	0x834
 371 0142 88000000 		.4byte	0x88
 372 0146 02       		.byte	0x2
 373 0147 0A       		.uleb128 0xa
 374 0148 35020000 		.4byte	.LASF31
 375 014c 04       		.byte	0x4
 376 014d 3508     		.2byte	0x835
 377 014f 88000000 		.4byte	0x88
 378 0153 03       		.byte	0x3
 379 0154 0A       		.uleb128 0xa
 380 0155 89020000 		.4byte	.LASF32
 381 0159 04       		.byte	0x4
 382 015a 3608     		.2byte	0x836
 383 015c 18010000 		.4byte	0x118
 384 0160 04       		.byte	0x4
 385 0161 0A       		.uleb128 0xa
 386 0162 60010000 		.4byte	.LASF33
 387 0166 04       		.byte	0x4
 388 0167 3708     		.2byte	0x837
 389 0169 1E010000 		.4byte	0x11e
 390 016d 08       		.byte	0x8
 391 016e 0A       		.uleb128 0xa
 392 016f 31010000 		.4byte	.LASF34
 393 0173 04       		.byte	0x4
 394 0174 3808     		.2byte	0x838
 395 0176 93000000 		.4byte	0x93
 396 017a 0C       		.byte	0xc
 397 017b 0A       		.uleb128 0xa
 398 017c 87010000 		.4byte	.LASF35
 399 0180 04       		.byte	0x4
ARM GAS  /tmp/ccKhdJpS.s 			page 8


 400 0181 3908     		.2byte	0x839
 401 0183 93000000 		.4byte	0x93
 402 0187 0E       		.byte	0xe
 403 0188 00       		.byte	0
 404 0189 07       		.uleb128 0x7
 405 018a F5020000 		.4byte	.LASF36
 406 018e 04       		.byte	0x4
 407 018f 3A08     		.2byte	0x83a
 408 0191 24010000 		.4byte	0x124
 409 0195 08       		.uleb128 0x8
 410 0196 04       		.byte	0x4
 411 0197 89010000 		.4byte	0x189
 412 019b 0B       		.uleb128 0xb
 413 019c 97020000 		.4byte	.LASF41
 414 01a0 01       		.byte	0x1
 415 01a1 4C       		.byte	0x4c
 416 01a2 00010000 		.4byte	0x100
 417 01a6 00000000 		.4byte	.LFB135
 418 01aa B0000000 		.4byte	.LFE135-.LFB135
 419 01ae 01       		.uleb128 0x1
 420 01af 9C       		.byte	0x9c
 421 01b0 FC010000 		.4byte	0x1fc
 422 01b4 0C       		.uleb128 0xc
 423 01b5 5300     		.ascii	"S\000"
 424 01b7 01       		.byte	0x1
 425 01b8 4D       		.byte	0x4d
 426 01b9 95010000 		.4byte	0x195
 427 01bd 00000000 		.4byte	.LLST0
 428 01c1 0D       		.uleb128 0xd
 429 01c2 B9010000 		.4byte	.LASF29
 430 01c6 01       		.byte	0x1
 431 01c7 4E       		.byte	0x4e
 432 01c8 93000000 		.4byte	0x93
 433 01cc 01       		.uleb128 0x1
 434 01cd 51       		.byte	0x51
 435 01ce 0E       		.uleb128 0xe
 436 01cf 00020000 		.4byte	.LASF30
 437 01d3 01       		.byte	0x1
 438 01d4 4F       		.byte	0x4f
 439 01d5 88000000 		.4byte	0x88
 440 01d9 9E000000 		.4byte	.LLST1
 441 01dd 0E       		.uleb128 0xe
 442 01de 35020000 		.4byte	.LASF31
 443 01e2 01       		.byte	0x1
 444 01e3 50       		.byte	0x50
 445 01e4 88000000 		.4byte	0x88
 446 01e8 3E010000 		.4byte	.LLST2
 447 01ec 0F       		.uleb128 0xf
 448 01ed 42010000 		.4byte	.LASF42
 449 01f1 01       		.byte	0x1
 450 01f2 53       		.byte	0x53
 451 01f3 00010000 		.4byte	0x100
 452 01f7 04020000 		.4byte	.LLST3
 453 01fb 00       		.byte	0
 454 01fc 10       		.uleb128 0x10
 455 01fd 93000000 		.4byte	0x93
 456 0201 0D020000 		.4byte	0x20d
ARM GAS  /tmp/ccKhdJpS.s 			page 9


 457 0205 11       		.uleb128 0x11
 458 0206 A9000000 		.4byte	0xa9
 459 020a FF03     		.2byte	0x3ff
 460 020c 00       		.byte	0
 461 020d 12       		.uleb128 0x12
 462 020e 03010000 		.4byte	.LASF37
 463 0212 05       		.byte	0x5
 464 0213 2E       		.byte	0x2e
 465 0214 18020000 		.4byte	0x218
 466 0218 13       		.uleb128 0x13
 467 0219 FC010000 		.4byte	0x1fc
 468 021d 10       		.uleb128 0x10
 469 021e 0C010000 		.4byte	0x10c
 470 0222 2E020000 		.4byte	0x22e
 471 0226 11       		.uleb128 0x11
 472 0227 A9000000 		.4byte	0xa9
 473 022b FF17     		.2byte	0x17ff
 474 022d 00       		.byte	0
 475 022e 12       		.uleb128 0x12
 476 022f 1C010000 		.4byte	.LASF38
 477 0233 05       		.byte	0x5
 478 0234 43       		.byte	0x43
 479 0235 39020000 		.4byte	0x239
 480 0239 13       		.uleb128 0x13
 481 023a 1D020000 		.4byte	0x21d
 482 023e 00       		.byte	0
 483              		.section	.debug_abbrev,"",%progbits
 484              	.Ldebug_abbrev0:
 485 0000 01       		.uleb128 0x1
 486 0001 11       		.uleb128 0x11
 487 0002 01       		.byte	0x1
 488 0003 25       		.uleb128 0x25
 489 0004 0E       		.uleb128 0xe
 490 0005 13       		.uleb128 0x13
 491 0006 0B       		.uleb128 0xb
 492 0007 03       		.uleb128 0x3
 493 0008 0E       		.uleb128 0xe
 494 0009 11       		.uleb128 0x11
 495 000a 01       		.uleb128 0x1
 496 000b 12       		.uleb128 0x12
 497 000c 06       		.uleb128 0x6
 498 000d 10       		.uleb128 0x10
 499 000e 17       		.uleb128 0x17
 500 000f 00       		.byte	0
 501 0010 00       		.byte	0
 502 0011 02       		.uleb128 0x2
 503 0012 24       		.uleb128 0x24
 504 0013 00       		.byte	0
 505 0014 0B       		.uleb128 0xb
 506 0015 0B       		.uleb128 0xb
 507 0016 3E       		.uleb128 0x3e
 508 0017 0B       		.uleb128 0xb
 509 0018 03       		.uleb128 0x3
 510 0019 0E       		.uleb128 0xe
 511 001a 00       		.byte	0
 512 001b 00       		.byte	0
 513 001c 03       		.uleb128 0x3
ARM GAS  /tmp/ccKhdJpS.s 			page 10


 514 001d 16       		.uleb128 0x16
 515 001e 00       		.byte	0
 516 001f 03       		.uleb128 0x3
 517 0020 0E       		.uleb128 0xe
 518 0021 3A       		.uleb128 0x3a
 519 0022 0B       		.uleb128 0xb
 520 0023 3B       		.uleb128 0x3b
 521 0024 0B       		.uleb128 0xb
 522 0025 49       		.uleb128 0x49
 523 0026 13       		.uleb128 0x13
 524 0027 00       		.byte	0
 525 0028 00       		.byte	0
 526 0029 04       		.uleb128 0x4
 527 002a 24       		.uleb128 0x24
 528 002b 00       		.byte	0
 529 002c 0B       		.uleb128 0xb
 530 002d 0B       		.uleb128 0xb
 531 002e 3E       		.uleb128 0x3e
 532 002f 0B       		.uleb128 0xb
 533 0030 03       		.uleb128 0x3
 534 0031 08       		.uleb128 0x8
 535 0032 00       		.byte	0
 536 0033 00       		.byte	0
 537 0034 05       		.uleb128 0x5
 538 0035 04       		.uleb128 0x4
 539 0036 01       		.byte	0x1
 540 0037 0B       		.uleb128 0xb
 541 0038 0B       		.uleb128 0xb
 542 0039 3A       		.uleb128 0x3a
 543 003a 0B       		.uleb128 0xb
 544 003b 3B       		.uleb128 0x3b
 545 003c 05       		.uleb128 0x5
 546 003d 01       		.uleb128 0x1
 547 003e 13       		.uleb128 0x13
 548 003f 00       		.byte	0
 549 0040 00       		.byte	0
 550 0041 06       		.uleb128 0x6
 551 0042 28       		.uleb128 0x28
 552 0043 00       		.byte	0
 553 0044 03       		.uleb128 0x3
 554 0045 0E       		.uleb128 0xe
 555 0046 1C       		.uleb128 0x1c
 556 0047 0D       		.uleb128 0xd
 557 0048 00       		.byte	0
 558 0049 00       		.byte	0
 559 004a 07       		.uleb128 0x7
 560 004b 16       		.uleb128 0x16
 561 004c 00       		.byte	0
 562 004d 03       		.uleb128 0x3
 563 004e 0E       		.uleb128 0xe
 564 004f 3A       		.uleb128 0x3a
 565 0050 0B       		.uleb128 0xb
 566 0051 3B       		.uleb128 0x3b
 567 0052 05       		.uleb128 0x5
 568 0053 49       		.uleb128 0x49
 569 0054 13       		.uleb128 0x13
 570 0055 00       		.byte	0
ARM GAS  /tmp/ccKhdJpS.s 			page 11


 571 0056 00       		.byte	0
 572 0057 08       		.uleb128 0x8
 573 0058 0F       		.uleb128 0xf
 574 0059 00       		.byte	0
 575 005a 0B       		.uleb128 0xb
 576 005b 0B       		.uleb128 0xb
 577 005c 49       		.uleb128 0x49
 578 005d 13       		.uleb128 0x13
 579 005e 00       		.byte	0
 580 005f 00       		.byte	0
 581 0060 09       		.uleb128 0x9
 582 0061 13       		.uleb128 0x13
 583 0062 01       		.byte	0x1
 584 0063 0B       		.uleb128 0xb
 585 0064 0B       		.uleb128 0xb
 586 0065 3A       		.uleb128 0x3a
 587 0066 0B       		.uleb128 0xb
 588 0067 3B       		.uleb128 0x3b
 589 0068 05       		.uleb128 0x5
 590 0069 01       		.uleb128 0x1
 591 006a 13       		.uleb128 0x13
 592 006b 00       		.byte	0
 593 006c 00       		.byte	0
 594 006d 0A       		.uleb128 0xa
 595 006e 0D       		.uleb128 0xd
 596 006f 00       		.byte	0
 597 0070 03       		.uleb128 0x3
 598 0071 0E       		.uleb128 0xe
 599 0072 3A       		.uleb128 0x3a
 600 0073 0B       		.uleb128 0xb
 601 0074 3B       		.uleb128 0x3b
 602 0075 05       		.uleb128 0x5
 603 0076 49       		.uleb128 0x49
 604 0077 13       		.uleb128 0x13
 605 0078 38       		.uleb128 0x38
 606 0079 0B       		.uleb128 0xb
 607 007a 00       		.byte	0
 608 007b 00       		.byte	0
 609 007c 0B       		.uleb128 0xb
 610 007d 2E       		.uleb128 0x2e
 611 007e 01       		.byte	0x1
 612 007f 3F       		.uleb128 0x3f
 613 0080 19       		.uleb128 0x19
 614 0081 03       		.uleb128 0x3
 615 0082 0E       		.uleb128 0xe
 616 0083 3A       		.uleb128 0x3a
 617 0084 0B       		.uleb128 0xb
 618 0085 3B       		.uleb128 0x3b
 619 0086 0B       		.uleb128 0xb
 620 0087 27       		.uleb128 0x27
 621 0088 19       		.uleb128 0x19
 622 0089 49       		.uleb128 0x49
 623 008a 13       		.uleb128 0x13
 624 008b 11       		.uleb128 0x11
 625 008c 01       		.uleb128 0x1
 626 008d 12       		.uleb128 0x12
 627 008e 06       		.uleb128 0x6
ARM GAS  /tmp/ccKhdJpS.s 			page 12


 628 008f 40       		.uleb128 0x40
 629 0090 18       		.uleb128 0x18
 630 0091 9742     		.uleb128 0x2117
 631 0093 19       		.uleb128 0x19
 632 0094 01       		.uleb128 0x1
 633 0095 13       		.uleb128 0x13
 634 0096 00       		.byte	0
 635 0097 00       		.byte	0
 636 0098 0C       		.uleb128 0xc
 637 0099 05       		.uleb128 0x5
 638 009a 00       		.byte	0
 639 009b 03       		.uleb128 0x3
 640 009c 08       		.uleb128 0x8
 641 009d 3A       		.uleb128 0x3a
 642 009e 0B       		.uleb128 0xb
 643 009f 3B       		.uleb128 0x3b
 644 00a0 0B       		.uleb128 0xb
 645 00a1 49       		.uleb128 0x49
 646 00a2 13       		.uleb128 0x13
 647 00a3 02       		.uleb128 0x2
 648 00a4 17       		.uleb128 0x17
 649 00a5 00       		.byte	0
 650 00a6 00       		.byte	0
 651 00a7 0D       		.uleb128 0xd
 652 00a8 05       		.uleb128 0x5
 653 00a9 00       		.byte	0
 654 00aa 03       		.uleb128 0x3
 655 00ab 0E       		.uleb128 0xe
 656 00ac 3A       		.uleb128 0x3a
 657 00ad 0B       		.uleb128 0xb
 658 00ae 3B       		.uleb128 0x3b
 659 00af 0B       		.uleb128 0xb
 660 00b0 49       		.uleb128 0x49
 661 00b1 13       		.uleb128 0x13
 662 00b2 02       		.uleb128 0x2
 663 00b3 18       		.uleb128 0x18
 664 00b4 00       		.byte	0
 665 00b5 00       		.byte	0
 666 00b6 0E       		.uleb128 0xe
 667 00b7 05       		.uleb128 0x5
 668 00b8 00       		.byte	0
 669 00b9 03       		.uleb128 0x3
 670 00ba 0E       		.uleb128 0xe
 671 00bb 3A       		.uleb128 0x3a
 672 00bc 0B       		.uleb128 0xb
 673 00bd 3B       		.uleb128 0x3b
 674 00be 0B       		.uleb128 0xb
 675 00bf 49       		.uleb128 0x49
 676 00c0 13       		.uleb128 0x13
 677 00c1 02       		.uleb128 0x2
 678 00c2 17       		.uleb128 0x17
 679 00c3 00       		.byte	0
 680 00c4 00       		.byte	0
 681 00c5 0F       		.uleb128 0xf
 682 00c6 34       		.uleb128 0x34
 683 00c7 00       		.byte	0
 684 00c8 03       		.uleb128 0x3
ARM GAS  /tmp/ccKhdJpS.s 			page 13


 685 00c9 0E       		.uleb128 0xe
 686 00ca 3A       		.uleb128 0x3a
 687 00cb 0B       		.uleb128 0xb
 688 00cc 3B       		.uleb128 0x3b
 689 00cd 0B       		.uleb128 0xb
 690 00ce 49       		.uleb128 0x49
 691 00cf 13       		.uleb128 0x13
 692 00d0 02       		.uleb128 0x2
 693 00d1 17       		.uleb128 0x17
 694 00d2 00       		.byte	0
 695 00d3 00       		.byte	0
 696 00d4 10       		.uleb128 0x10
 697 00d5 01       		.uleb128 0x1
 698 00d6 01       		.byte	0x1
 699 00d7 49       		.uleb128 0x49
 700 00d8 13       		.uleb128 0x13
 701 00d9 01       		.uleb128 0x1
 702 00da 13       		.uleb128 0x13
 703 00db 00       		.byte	0
 704 00dc 00       		.byte	0
 705 00dd 11       		.uleb128 0x11
 706 00de 21       		.uleb128 0x21
 707 00df 00       		.byte	0
 708 00e0 49       		.uleb128 0x49
 709 00e1 13       		.uleb128 0x13
 710 00e2 2F       		.uleb128 0x2f
 711 00e3 05       		.uleb128 0x5
 712 00e4 00       		.byte	0
 713 00e5 00       		.byte	0
 714 00e6 12       		.uleb128 0x12
 715 00e7 34       		.uleb128 0x34
 716 00e8 00       		.byte	0
 717 00e9 03       		.uleb128 0x3
 718 00ea 0E       		.uleb128 0xe
 719 00eb 3A       		.uleb128 0x3a
 720 00ec 0B       		.uleb128 0xb
 721 00ed 3B       		.uleb128 0x3b
 722 00ee 0B       		.uleb128 0xb
 723 00ef 49       		.uleb128 0x49
 724 00f0 13       		.uleb128 0x13
 725 00f1 3F       		.uleb128 0x3f
 726 00f2 19       		.uleb128 0x19
 727 00f3 3C       		.uleb128 0x3c
 728 00f4 19       		.uleb128 0x19
 729 00f5 00       		.byte	0
 730 00f6 00       		.byte	0
 731 00f7 13       		.uleb128 0x13
 732 00f8 26       		.uleb128 0x26
 733 00f9 00       		.byte	0
 734 00fa 49       		.uleb128 0x49
 735 00fb 13       		.uleb128 0x13
 736 00fc 00       		.byte	0
 737 00fd 00       		.byte	0
 738 00fe 00       		.byte	0
 739              		.section	.debug_loc,"",%progbits
 740              	.Ldebug_loc0:
 741              	.LLST0:
ARM GAS  /tmp/ccKhdJpS.s 			page 14


 742 0000 00000000 		.4byte	.LVL0-.Ltext0
 743 0004 26000000 		.4byte	.LVL2-.Ltext0
 744 0008 0100     		.2byte	0x1
 745 000a 50       		.byte	0x50
 746 000b 26000000 		.4byte	.LVL2-.Ltext0
 747 000f 2E000000 		.4byte	.LVL3-.Ltext0
 748 0013 0400     		.2byte	0x4
 749 0015 F3       		.byte	0xf3
 750 0016 01       		.uleb128 0x1
 751 0017 50       		.byte	0x50
 752 0018 9F       		.byte	0x9f
 753 0019 2E000000 		.4byte	.LVL3-.Ltext0
 754 001d 46000000 		.4byte	.LVL6-.Ltext0
 755 0021 0100     		.2byte	0x1
 756 0023 50       		.byte	0x50
 757 0024 46000000 		.4byte	.LVL6-.Ltext0
 758 0028 4E000000 		.4byte	.LVL7-.Ltext0
 759 002c 0400     		.2byte	0x4
 760 002e F3       		.byte	0xf3
 761 002f 01       		.uleb128 0x1
 762 0030 50       		.byte	0x50
 763 0031 9F       		.byte	0x9f
 764 0032 4E000000 		.4byte	.LVL7-.Ltext0
 765 0036 50000000 		.4byte	.LVL8-.Ltext0
 766 003a 0100     		.2byte	0x1
 767 003c 50       		.byte	0x50
 768 003d 50000000 		.4byte	.LVL8-.Ltext0
 769 0041 58000000 		.4byte	.LVL9-.Ltext0
 770 0045 0400     		.2byte	0x4
 771 0047 F3       		.byte	0xf3
 772 0048 01       		.uleb128 0x1
 773 0049 50       		.byte	0x50
 774 004a 9F       		.byte	0x9f
 775 004b 58000000 		.4byte	.LVL9-.Ltext0
 776 004f 64000000 		.4byte	.LVL12-.Ltext0
 777 0053 0100     		.2byte	0x1
 778 0055 50       		.byte	0x50
 779 0056 64000000 		.4byte	.LVL12-.Ltext0
 780 005a 6C000000 		.4byte	.LVL13-.Ltext0
 781 005e 0400     		.2byte	0x4
 782 0060 F3       		.byte	0xf3
 783 0061 01       		.uleb128 0x1
 784 0062 50       		.byte	0x50
 785 0063 9F       		.byte	0x9f
 786 0064 6C000000 		.4byte	.LVL13-.Ltext0
 787 0068 7A000000 		.4byte	.LVL16-.Ltext0
 788 006c 0100     		.2byte	0x1
 789 006e 50       		.byte	0x50
 790 006f 7A000000 		.4byte	.LVL16-.Ltext0
 791 0073 82000000 		.4byte	.LVL17-.Ltext0
 792 0077 0400     		.2byte	0x4
 793 0079 F3       		.byte	0xf3
 794 007a 01       		.uleb128 0x1
 795 007b 50       		.byte	0x50
 796 007c 9F       		.byte	0x9f
 797 007d 82000000 		.4byte	.LVL17-.Ltext0
 798 0081 8E000000 		.4byte	.LVL20-.Ltext0
ARM GAS  /tmp/ccKhdJpS.s 			page 15


 799 0085 0100     		.2byte	0x1
 800 0087 50       		.byte	0x50
 801 0088 8E000000 		.4byte	.LVL20-.Ltext0
 802 008c B0000000 		.4byte	.LFE135-.Ltext0
 803 0090 0400     		.2byte	0x4
 804 0092 F3       		.byte	0xf3
 805 0093 01       		.uleb128 0x1
 806 0094 50       		.byte	0x50
 807 0095 9F       		.byte	0x9f
 808 0096 00000000 		.4byte	0
 809 009a 00000000 		.4byte	0
 810              	.LLST1:
 811 009e 00000000 		.4byte	.LVL0-.Ltext0
 812 00a2 3E000000 		.4byte	.LVL5-.Ltext0
 813 00a6 0100     		.2byte	0x1
 814 00a8 52       		.byte	0x52
 815 00a9 3E000000 		.4byte	.LVL5-.Ltext0
 816 00ad 46000000 		.4byte	.LVL6-.Ltext0
 817 00b1 0200     		.2byte	0x2
 818 00b3 70       		.byte	0x70
 819 00b4 02       		.sleb128 2
 820 00b5 46000000 		.4byte	.LVL6-.Ltext0
 821 00b9 4E000000 		.4byte	.LVL7-.Ltext0
 822 00bd 0500     		.2byte	0x5
 823 00bf F3       		.byte	0xf3
 824 00c0 01       		.uleb128 0x1
 825 00c1 50       		.byte	0x50
 826 00c2 23       		.byte	0x23
 827 00c3 02       		.uleb128 0x2
 828 00c4 4E000000 		.4byte	.LVL7-.Ltext0
 829 00c8 5C000000 		.4byte	.LVL11-.Ltext0
 830 00cc 0100     		.2byte	0x1
 831 00ce 52       		.byte	0x52
 832 00cf 5C000000 		.4byte	.LVL11-.Ltext0
 833 00d3 64000000 		.4byte	.LVL12-.Ltext0
 834 00d7 0200     		.2byte	0x2
 835 00d9 70       		.byte	0x70
 836 00da 02       		.sleb128 2
 837 00db 64000000 		.4byte	.LVL12-.Ltext0
 838 00df 6C000000 		.4byte	.LVL13-.Ltext0
 839 00e3 0500     		.2byte	0x5
 840 00e5 F3       		.byte	0xf3
 841 00e6 01       		.uleb128 0x1
 842 00e7 50       		.byte	0x50
 843 00e8 23       		.byte	0x23
 844 00e9 02       		.uleb128 0x2
 845 00ea 6C000000 		.4byte	.LVL13-.Ltext0
 846 00ee 72000000 		.4byte	.LVL15-.Ltext0
 847 00f2 0100     		.2byte	0x1
 848 00f4 52       		.byte	0x52
 849 00f5 72000000 		.4byte	.LVL15-.Ltext0
 850 00f9 7A000000 		.4byte	.LVL16-.Ltext0
 851 00fd 0200     		.2byte	0x2
 852 00ff 70       		.byte	0x70
 853 0100 02       		.sleb128 2
 854 0101 7A000000 		.4byte	.LVL16-.Ltext0
 855 0105 82000000 		.4byte	.LVL17-.Ltext0
ARM GAS  /tmp/ccKhdJpS.s 			page 16


 856 0109 0500     		.2byte	0x5
 857 010b F3       		.byte	0xf3
 858 010c 01       		.uleb128 0x1
 859 010d 50       		.byte	0x50
 860 010e 23       		.byte	0x23
 861 010f 02       		.uleb128 0x2
 862 0110 82000000 		.4byte	.LVL17-.Ltext0
 863 0114 86000000 		.4byte	.LVL19-.Ltext0
 864 0118 0100     		.2byte	0x1
 865 011a 52       		.byte	0x52
 866 011b 86000000 		.4byte	.LVL19-.Ltext0
 867 011f 8E000000 		.4byte	.LVL20-.Ltext0
 868 0123 0200     		.2byte	0x2
 869 0125 70       		.byte	0x70
 870 0126 02       		.sleb128 2
 871 0127 8E000000 		.4byte	.LVL20-.Ltext0
 872 012b B0000000 		.4byte	.LFE135-.Ltext0
 873 012f 0500     		.2byte	0x5
 874 0131 F3       		.byte	0xf3
 875 0132 01       		.uleb128 0x1
 876 0133 50       		.byte	0x50
 877 0134 23       		.byte	0x23
 878 0135 02       		.uleb128 0x2
 879 0136 00000000 		.4byte	0
 880 013a 00000000 		.4byte	0
 881              	.LLST2:
 882 013e 00000000 		.4byte	.LVL0-.Ltext0
 883 0142 1E000000 		.4byte	.LVL1-.Ltext0
 884 0146 0100     		.2byte	0x1
 885 0148 53       		.byte	0x53
 886 0149 1E000000 		.4byte	.LVL1-.Ltext0
 887 014d 26000000 		.4byte	.LVL2-.Ltext0
 888 0151 0200     		.2byte	0x2
 889 0153 70       		.byte	0x70
 890 0154 03       		.sleb128 3
 891 0155 26000000 		.4byte	.LVL2-.Ltext0
 892 0159 2E000000 		.4byte	.LVL3-.Ltext0
 893 015d 0500     		.2byte	0x5
 894 015f F3       		.byte	0xf3
 895 0160 01       		.uleb128 0x1
 896 0161 50       		.byte	0x50
 897 0162 23       		.byte	0x23
 898 0163 03       		.uleb128 0x3
 899 0164 2E000000 		.4byte	.LVL3-.Ltext0
 900 0168 3C000000 		.4byte	.LVL4-.Ltext0
 901 016c 0100     		.2byte	0x1
 902 016e 53       		.byte	0x53
 903 016f 3C000000 		.4byte	.LVL4-.Ltext0
 904 0173 46000000 		.4byte	.LVL6-.Ltext0
 905 0177 0200     		.2byte	0x2
 906 0179 70       		.byte	0x70
 907 017a 03       		.sleb128 3
 908 017b 46000000 		.4byte	.LVL6-.Ltext0
 909 017f 4E000000 		.4byte	.LVL7-.Ltext0
 910 0183 0500     		.2byte	0x5
 911 0185 F3       		.byte	0xf3
 912 0186 01       		.uleb128 0x1
ARM GAS  /tmp/ccKhdJpS.s 			page 17


 913 0187 50       		.byte	0x50
 914 0188 23       		.byte	0x23
 915 0189 03       		.uleb128 0x3
 916 018a 4E000000 		.4byte	.LVL7-.Ltext0
 917 018e 5A000000 		.4byte	.LVL10-.Ltext0
 918 0192 0100     		.2byte	0x1
 919 0194 53       		.byte	0x53
 920 0195 5A000000 		.4byte	.LVL10-.Ltext0
 921 0199 64000000 		.4byte	.LVL12-.Ltext0
 922 019d 0200     		.2byte	0x2
 923 019f 70       		.byte	0x70
 924 01a0 03       		.sleb128 3
 925 01a1 64000000 		.4byte	.LVL12-.Ltext0
 926 01a5 6C000000 		.4byte	.LVL13-.Ltext0
 927 01a9 0500     		.2byte	0x5
 928 01ab F3       		.byte	0xf3
 929 01ac 01       		.uleb128 0x1
 930 01ad 50       		.byte	0x50
 931 01ae 23       		.byte	0x23
 932 01af 03       		.uleb128 0x3
 933 01b0 6C000000 		.4byte	.LVL13-.Ltext0
 934 01b4 70000000 		.4byte	.LVL14-.Ltext0
 935 01b8 0100     		.2byte	0x1
 936 01ba 53       		.byte	0x53
 937 01bb 70000000 		.4byte	.LVL14-.Ltext0
 938 01bf 7A000000 		.4byte	.LVL16-.Ltext0
 939 01c3 0200     		.2byte	0x2
 940 01c5 70       		.byte	0x70
 941 01c6 03       		.sleb128 3
 942 01c7 7A000000 		.4byte	.LVL16-.Ltext0
 943 01cb 82000000 		.4byte	.LVL17-.Ltext0
 944 01cf 0500     		.2byte	0x5
 945 01d1 F3       		.byte	0xf3
 946 01d2 01       		.uleb128 0x1
 947 01d3 50       		.byte	0x50
 948 01d4 23       		.byte	0x23
 949 01d5 03       		.uleb128 0x3
 950 01d6 82000000 		.4byte	.LVL17-.Ltext0
 951 01da 84000000 		.4byte	.LVL18-.Ltext0
 952 01de 0100     		.2byte	0x1
 953 01e0 53       		.byte	0x53
 954 01e1 84000000 		.4byte	.LVL18-.Ltext0
 955 01e5 8E000000 		.4byte	.LVL20-.Ltext0
 956 01e9 0200     		.2byte	0x2
 957 01eb 70       		.byte	0x70
 958 01ec 03       		.sleb128 3
 959 01ed 8E000000 		.4byte	.LVL20-.Ltext0
 960 01f1 B0000000 		.4byte	.LFE135-.Ltext0
 961 01f5 0500     		.2byte	0x5
 962 01f7 F3       		.byte	0xf3
 963 01f8 01       		.uleb128 0x1
 964 01f9 50       		.byte	0x50
 965 01fa 23       		.byte	0x23
 966 01fb 03       		.uleb128 0x3
 967 01fc 00000000 		.4byte	0
 968 0200 00000000 		.4byte	0
 969              	.LLST3:
ARM GAS  /tmp/ccKhdJpS.s 			page 18


 970 0204 00000000 		.4byte	.LVL0-.Ltext0
 971 0208 26000000 		.4byte	.LVL2-.Ltext0
 972 020c 0200     		.2byte	0x2
 973 020e 30       		.byte	0x30
 974 020f 9F       		.byte	0x9f
 975 0210 26000000 		.4byte	.LVL2-.Ltext0
 976 0214 2E000000 		.4byte	.LVL3-.Ltext0
 977 0218 0100     		.2byte	0x1
 978 021a 50       		.byte	0x50
 979 021b 2E000000 		.4byte	.LVL3-.Ltext0
 980 021f 46000000 		.4byte	.LVL6-.Ltext0
 981 0223 0200     		.2byte	0x2
 982 0225 30       		.byte	0x30
 983 0226 9F       		.byte	0x9f
 984 0227 46000000 		.4byte	.LVL6-.Ltext0
 985 022b 4E000000 		.4byte	.LVL7-.Ltext0
 986 022f 0100     		.2byte	0x1
 987 0231 50       		.byte	0x50
 988 0232 4E000000 		.4byte	.LVL7-.Ltext0
 989 0236 50000000 		.4byte	.LVL8-.Ltext0
 990 023a 0200     		.2byte	0x2
 991 023c 30       		.byte	0x30
 992 023d 9F       		.byte	0x9f
 993 023e 50000000 		.4byte	.LVL8-.Ltext0
 994 0242 58000000 		.4byte	.LVL9-.Ltext0
 995 0246 0100     		.2byte	0x1
 996 0248 50       		.byte	0x50
 997 0249 58000000 		.4byte	.LVL9-.Ltext0
 998 024d 64000000 		.4byte	.LVL12-.Ltext0
 999 0251 0200     		.2byte	0x2
 1000 0253 30       		.byte	0x30
 1001 0254 9F       		.byte	0x9f
 1002 0255 64000000 		.4byte	.LVL12-.Ltext0
 1003 0259 6C000000 		.4byte	.LVL13-.Ltext0
 1004 025d 0100     		.2byte	0x1
 1005 025f 50       		.byte	0x50
 1006 0260 6C000000 		.4byte	.LVL13-.Ltext0
 1007 0264 7A000000 		.4byte	.LVL16-.Ltext0
 1008 0268 0200     		.2byte	0x2
 1009 026a 30       		.byte	0x30
 1010 026b 9F       		.byte	0x9f
 1011 026c 7A000000 		.4byte	.LVL16-.Ltext0
 1012 0270 82000000 		.4byte	.LVL17-.Ltext0
 1013 0274 0100     		.2byte	0x1
 1014 0276 50       		.byte	0x50
 1015 0277 82000000 		.4byte	.LVL17-.Ltext0
 1016 027b 8E000000 		.4byte	.LVL20-.Ltext0
 1017 027f 0200     		.2byte	0x2
 1018 0281 30       		.byte	0x30
 1019 0282 9F       		.byte	0x9f
 1020 0283 8E000000 		.4byte	.LVL20-.Ltext0
 1021 0287 B0000000 		.4byte	.LFE135-.Ltext0
 1022 028b 0100     		.2byte	0x1
 1023 028d 50       		.byte	0x50
 1024 028e 00000000 		.4byte	0
 1025 0292 00000000 		.4byte	0
 1026              		.section	.debug_aranges,"",%progbits
ARM GAS  /tmp/ccKhdJpS.s 			page 19


 1027 0000 1C000000 		.4byte	0x1c
 1028 0004 0200     		.2byte	0x2
 1029 0006 00000000 		.4byte	.Ldebug_info0
 1030 000a 04       		.byte	0x4
 1031 000b 00       		.byte	0
 1032 000c 0000     		.2byte	0
 1033 000e 0000     		.2byte	0
 1034 0010 00000000 		.4byte	.Ltext0
 1035 0014 B0000000 		.4byte	.Letext0-.Ltext0
 1036 0018 00000000 		.4byte	0
 1037 001c 00000000 		.4byte	0
 1038              		.section	.debug_line,"",%progbits
 1039              	.Ldebug_line0:
 1040 0000 8E020000 		.section	.debug_str,"MS",%progbits,1
 1040      02002902 
 1040      00000201 
 1040      FB0E0D00 
 1040      01010101 
 1041              	.LASF39:
 1042 0000 474E5520 		.ascii	"GNU C 4.9.3 20150529 (release) [ARM/embedded-4_9-br"
 1042      4320342E 
 1042      392E3320 
 1042      32303135 
 1042      30353239 
 1043 0033 616E6368 		.ascii	"anch revision 224288] -mcpu=cortex-m4 -mfloat-abi=h"
 1043      20726576 
 1043      6973696F 
 1043      6E203232 
 1043      34323838 
 1044 0066 61726420 		.ascii	"ard -mfpu=fpv4-sp-d16 -mno-thumb-interwork -mthumb "
 1044      2D6D6670 
 1044      753D6670 
 1044      76342D73 
 1044      702D6431 
 1045 0099 2D676764 		.ascii	"-ggdb -O2 -fomit-frame-pointer -falign-functions=16"
 1045      62202D4F 
 1045      32202D66 
 1045      6F6D6974 
 1045      2D667261 
 1046 00cc 202D666E 		.ascii	" -fno-math-errno -fsingle-precision-constant\000"
 1046      6F2D6D61 
 1046      74682D65 
 1046      72726E6F 
 1046      202D6673 
 1047              	.LASF3:
 1048 00f9 5F5F7569 		.ascii	"__uint8_t\000"
 1048      6E74385F 
 1048      7400
 1049              	.LASF37:
 1050 0103 61726D42 		.ascii	"armBitRevTable\000"
 1050      69745265 
 1050      76546162 
 1050      6C6500
 1051              	.LASF6:
 1052 0112 5F5F696E 		.ascii	"__int32_t\000"
 1052      7433325F 
 1052      7400
ARM GAS  /tmp/ccKhdJpS.s 			page 20


 1053              	.LASF38:
 1054 011c 74776964 		.ascii	"twiddleCoef_4096_q31\000"
 1054      646C6543 
 1054      6F65665F 
 1054      34303936 
 1054      5F713331 
 1055              	.LASF34:
 1056 0131 74776964 		.ascii	"twidCoefModifier\000"
 1056      436F6566 
 1056      4D6F6469 
 1056      66696572 
 1056      00
 1057              	.LASF42:
 1058 0142 73746174 		.ascii	"status\000"
 1058      757300
 1059              	.LASF23:
 1060 0149 41524D5F 		.ascii	"ARM_MATH_SIZE_MISMATCH\000"
 1060      4D415448 
 1060      5F53495A 
 1060      455F4D49 
 1060      534D4154 
 1061              	.LASF33:
 1062 0160 70426974 		.ascii	"pBitRevTable\000"
 1062      52657654 
 1062      61626C65 
 1062      00
 1063              	.LASF18:
 1064 016d 666C6F61 		.ascii	"float\000"
 1064      7400
 1065              	.LASF28:
 1066 0173 7133315F 		.ascii	"q31_t\000"
 1066      7400
 1067              	.LASF1:
 1068 0179 756E7369 		.ascii	"unsigned char\000"
 1068      676E6564 
 1068      20636861 
 1068      7200
 1069              	.LASF35:
 1070 0187 62697452 		.ascii	"bitRevFactor\000"
 1070      65764661 
 1070      63746F72 
 1070      00
 1071              	.LASF8:
 1072 0194 6C6F6E67 		.ascii	"long unsigned int\000"
 1072      20756E73 
 1072      69676E65 
 1072      6420696E 
 1072      7400
 1073              	.LASF5:
 1074 01a6 73686F72 		.ascii	"short unsigned int\000"
 1074      7420756E 
 1074      7369676E 
 1074      65642069 
 1074      6E7400
 1075              	.LASF29:
 1076 01b9 6666744C 		.ascii	"fftLen\000"
 1076      656E00
ARM GAS  /tmp/ccKhdJpS.s 			page 21


 1077              	.LASF26:
 1078 01c0 41524D5F 		.ascii	"ARM_MATH_TEST_FAILURE\000"
 1078      4D415448 
 1078      5F544553 
 1078      545F4641 
 1078      494C5552 
 1079              	.LASF4:
 1080 01d6 5F5F7569 		.ascii	"__uint16_t\000"
 1080      6E743136 
 1080      5F7400
 1081              	.LASF17:
 1082 01e1 646F7562 		.ascii	"double\000"
 1082      6C6500
 1083              	.LASF21:
 1084 01e8 41524D5F 		.ascii	"ARM_MATH_ARGUMENT_ERROR\000"
 1084      4D415448 
 1084      5F415247 
 1084      554D454E 
 1084      545F4552 
 1085              	.LASF30:
 1086 0200 69666674 		.ascii	"ifftFlag\000"
 1086      466C6167 
 1086      00
 1087              	.LASF11:
 1088 0209 756E7369 		.ascii	"unsigned int\000"
 1088      676E6564 
 1088      20696E74 
 1088      00
 1089              	.LASF10:
 1090 0216 6C6F6E67 		.ascii	"long long unsigned int\000"
 1090      206C6F6E 
 1090      6720756E 
 1090      7369676E 
 1090      65642069 
 1091              	.LASF12:
 1092 022d 75696E74 		.ascii	"uint8_t\000"
 1092      385F7400 
 1093              	.LASF31:
 1094 0235 62697452 		.ascii	"bitReverseFlag\000"
 1094      65766572 
 1094      7365466C 
 1094      616700
 1095              	.LASF24:
 1096 0244 41524D5F 		.ascii	"ARM_MATH_NANINF\000"
 1096      4D415448 
 1096      5F4E414E 
 1096      494E4600 
 1097              	.LASF22:
 1098 0254 41524D5F 		.ascii	"ARM_MATH_LENGTH_ERROR\000"
 1098      4D415448 
 1098      5F4C454E 
 1098      4754485F 
 1098      4552524F 
 1099              	.LASF14:
 1100 026a 696E7433 		.ascii	"int32_t\000"
 1100      325F7400 
 1101              	.LASF15:
ARM GAS  /tmp/ccKhdJpS.s 			page 22


 1102 0272 73697A65 		.ascii	"sizetype\000"
 1102      74797065 
 1102      00
 1103              	.LASF9:
 1104 027b 6C6F6E67 		.ascii	"long long int\000"
 1104      206C6F6E 
 1104      6720696E 
 1104      7400
 1105              	.LASF32:
 1106 0289 70547769 		.ascii	"pTwiddle\000"
 1106      64646C65 
 1106      00
 1107              	.LASF16:
 1108 0292 63686172 		.ascii	"char\000"
 1108      00
 1109              	.LASF41:
 1110 0297 61726D5F 		.ascii	"arm_cfft_radix4_init_q31\000"
 1110      63666674 
 1110      5F726164 
 1110      6978345F 
 1110      696E6974 
 1111              	.LASF20:
 1112 02b0 41524D5F 		.ascii	"ARM_MATH_SUCCESS\000"
 1112      4D415448 
 1112      5F535543 
 1112      43455353 
 1112      00
 1113              	.LASF2:
 1114 02c1 73686F72 		.ascii	"short int\000"
 1114      7420696E 
 1114      7400
 1115              	.LASF13:
 1116 02cb 75696E74 		.ascii	"uint16_t\000"
 1116      31365F74 
 1116      00
 1117              	.LASF7:
 1118 02d4 6C6F6E67 		.ascii	"long int\000"
 1118      20696E74 
 1118      00
 1119              	.LASF19:
 1120 02dd 6C6F6E67 		.ascii	"long double\000"
 1120      20646F75 
 1120      626C6500 
 1121              	.LASF0:
 1122 02e9 7369676E 		.ascii	"signed char\000"
 1122      65642063 
 1122      68617200 
 1123              	.LASF36:
 1124 02f5 61726D5F 		.ascii	"arm_cfft_radix4_instance_q31\000"
 1124      63666674 
 1124      5F726164 
 1124      6978345F 
 1124      696E7374 
 1125              	.LASF40:
 1126 0312 2F686F6D 		.ascii	"/home/sbcu/Dropbox/pcb-layouts/axo-on-discovery-boa"
 1126      652F7362 
 1126      63752F44 
ARM GAS  /tmp/ccKhdJpS.s 			page 23


 1126      726F7062 
 1126      6F782F70 
 1127 0345 72642F61 		.ascii	"rd/axoloti/platform_linux/../CMSIS//DSP_Lib/Source/"
 1127      786F6C6F 
 1127      74692F70 
 1127      6C617466 
 1127      6F726D5F 
 1128 0378 5472616E 		.ascii	"TransformFunctions/arm_cfft_radix4_init_q31.c\000"
 1128      73666F72 
 1128      6D46756E 
 1128      6374696F 
 1128      6E732F61 
 1129              	.LASF27:
 1130 03a6 61726D5F 		.ascii	"arm_status\000"
 1130      73746174 
 1130      757300
 1131              	.LASF25:
 1132 03b1 41524D5F 		.ascii	"ARM_MATH_SINGULAR\000"
 1132      4D415448 
 1132      5F53494E 
 1132      47554C41 
 1132      5200
 1133              		.ident	"GCC: (GNU Tools for ARM Embedded Processors) 4.9.3 20150529 (release) [ARM/embedded-4_9-br
ARM GAS  /tmp/ccKhdJpS.s 			page 24


DEFINED SYMBOLS
                            *ABS*:00000000 arm_cfft_radix4_init_q31.c
     /tmp/ccKhdJpS.s:20     .text:00000000 $t
     /tmp/ccKhdJpS.s:26     .text:00000000 arm_cfft_radix4_init_q31
     /tmp/ccKhdJpS.s:196    .text:00000098 $d
                     .debug_frame:00000010 $d

UNDEFINED SYMBOLS
twiddleCoef_4096_q31
armBitRevTable
