ARM GAS  /tmp/cc8tg0oa.s 			page 1


   1              		.syntax unified
   2              		.cpu cortex-m4
   3              		.eabi_attribute 27, 1
   4              		.eabi_attribute 28, 1
   5              		.fpu fpv4-sp-d16
   6              		.eabi_attribute 20, 1
   7              		.eabi_attribute 21, 1
   8              		.eabi_attribute 23, 3
   9              		.eabi_attribute 24, 1
  10              		.eabi_attribute 25, 1
  11              		.eabi_attribute 26, 1
  12              		.eabi_attribute 30, 2
  13              		.eabi_attribute 34, 1
  14              		.eabi_attribute 18, 4
  15              		.thumb
  16              		.file	"arm_fir_interpolate_q31.c"
  17              		.text
  18              	.Ltext0:
  19              		.cfi_sections	.debug_frame
  20              		.align	2
  21              		.p2align 4,,15
  22              		.global	arm_fir_interpolate_q31
  23              		.thumb
  24              		.thumb_func
  25              		.type	arm_fir_interpolate_q31, %function
  26              	arm_fir_interpolate_q31:
  27              	.LFB135:
  28              		.file 1 "/d_drive/axoloti/platform_linux/../CMSIS//DSP_Lib/Source/FilteringFunctions/arm_fir_inter
  29              		.loc 1 79 0
  30              		.cfi_startproc
  31              		@ args = 0, pretend = 0, frame = 112
  32              		@ frame_needed = 0, uses_anonymous_args = 0
  33              	.LVL0:
  34 0000 2DE9F04F 		push	{r4, r5, r6, r7, r8, r9, r10, fp, lr}
  35              		.cfi_def_cfa_offset 36
  36              		.cfi_offset 4, -36
  37              		.cfi_offset 5, -32
  38              		.cfi_offset 6, -28
  39              		.cfi_offset 7, -24
  40              		.cfi_offset 8, -20
  41              		.cfi_offset 9, -16
  42              		.cfi_offset 10, -12
  43              		.cfi_offset 11, -8
  44              		.cfi_offset 14, -4
  45 0004 9DB0     		sub	sp, sp, #116
  46              		.cfi_def_cfa_offset 152
  47              		.loc 1 79 0
  48 0006 0646     		mov	r6, r0
  49 0008 0590     		str	r0, [sp, #20]
  50              		.loc 1 87 0
  51 000a 4088     		ldrh	r0, [r0, #2]
  52              	.LVL1:
  53              		.loc 1 80 0
  54 000c B468     		ldr	r4, [r6, #8]
  55              		.loc 1 79 0
  56 000e 1491     		str	r1, [sp, #80]
  57 0010 8E46     		mov	lr, r1
ARM GAS  /tmp/cc8tg0oa.s 			page 2


  58              		.loc 1 95 0
  59 0012 00F18041 		add	r1, r0, #1073741824
  60              	.LVL2:
  61              		.loc 1 80 0
  62 0016 2546     		mov	r5, r4
  63              		.loc 1 95 0
  64 0018 0139     		subs	r1, r1, #1
  65              		.loc 1 79 0
  66 001a 1092     		str	r2, [sp, #64]
  67              		.loc 1 95 0
  68 001c 05EB8102 		add	r2, r5, r1, lsl #2
  69              	.LVL3:
  70              		.loc 1 80 0
  71 0020 1794     		str	r4, [sp, #92]
  72              	.LVL4:
  73              		.loc 1 95 0
  74 0022 1892     		str	r2, [sp, #96]
  75              		.loc 1 81 0
  76 0024 7468     		ldr	r4, [r6, #4]
  77              	.LVL5:
  78              		.loc 1 87 0
  79 0026 1990     		str	r0, [sp, #100]
  80              		.loc 1 95 0
  81 0028 1646     		mov	r6, r2
  82              	.LVL6:
  83              		.loc 1 99 0
  84 002a 03F00102 		and	r2, r3, #1
  85              		.loc 1 102 0
  86 002e 5B08     		lsrs	r3, r3, #1
  87              	.LVL7:
  88              		.loc 1 81 0
  89 0030 0794     		str	r4, [sp, #28]
  90              	.LVL8:
  91              		.loc 1 99 0
  92 0032 1A92     		str	r2, [sp, #104]
  93              	.LVL9:
  94              		.loc 1 102 0
  95 0034 1F46     		mov	r7, r3
  96 0036 1B93     		str	r3, [sp, #108]
  97 0038 00F0E481 		beq	.L25
  98 003c 8308     		lsrs	r3, r0, #2
  99 003e 5A1E     		subs	r2, r3, #1
 100              	.LVL10:
 101 0040 0C93     		str	r3, [sp, #48]
 102 0042 00F00303 		and	r3, r0, #3
 103 0046 0D93     		str	r3, [sp, #52]
 104 0048 013B     		subs	r3, r3, #1
 105 004a 9BB2     		uxth	r3, r3
 106 004c 9B00     		lsls	r3, r3, #2
 107 004e 0E93     		str	r3, [sp, #56]
 108 0050 06F10803 		add	r3, r6, #8
 109 0054 92B2     		uxth	r2, r2
 110 0056 1293     		str	r3, [sp, #72]
 111 0058 7346     		mov	r3, lr
 112 005a 05EB0211 		add	r1, r5, r2, lsl #4
 113              	.LVL11:
 114 005e 0833     		adds	r3, r3, #8
ARM GAS  /tmp/cc8tg0oa.s 			page 3


 115 0060 01F12400 		add	r0, r1, #36
 116              	.LVL12:
 117 0064 0132     		adds	r2, r2, #1
 118 0066 1393     		str	r3, [sp, #76]
 119 0068 2B1D     		adds	r3, r5, #4
 120 006a 1190     		str	r0, [sp, #68]
 121 006c 0F92     		str	r2, [sp, #60]
 122 006e 0A93     		str	r3, [sp, #40]
 123 0070 1697     		str	r7, [sp, #88]
 124              	.LVL13:
 125              	.L10:
 126              		.loc 1 105 0
 127 0072 139A     		ldr	r2, [sp, #76]
 128 0074 1298     		ldr	r0, [sp, #72]
 129 0076 52F8083C 		ldr	r3, [r2, #-8]
 130 007a 40F8083C 		str	r3, [r0, #-8]
 131              	.LVL14:
 132              		.loc 1 106 0
 133 007e 52F8043C 		ldr	r3, [r2, #-4]
 134 0082 40F8043C 		str	r3, [r0, #-4]
 135              	.LVL15:
 136              		.loc 1 112 0
 137 0086 059B     		ldr	r3, [sp, #20]
 138 0088 1B78     		ldrb	r3, [r3]	@ zero_extendqisi2
 139 008a 1593     		str	r3, [sp, #84]
 140              	.LVL16:
 141              		.loc 1 114 0
 142 008c 002B     		cmp	r3, #0
 143 008e 00F0B781 		beq	.L26
 144 0092 5A1C     		adds	r2, r3, #1
 145 0094 0493     		str	r3, [sp, #16]
 146 0096 109B     		ldr	r3, [sp, #64]
 147              	.LVL17:
 148 0098 0693     		str	r3, [sp, #24]
 149 009a DDF844C0 		ldr	ip, [sp, #68]
 150 009e 0B92     		str	r2, [sp, #44]
 151 00a0 0123     		movs	r3, #1
 152 00a2 0393     		str	r3, [sp, #12]
 153              	.LVL18:
 154              	.L9:
 155              		.loc 1 124 0
 156 00a4 049A     		ldr	r2, [sp, #16]
 157 00a6 0399     		ldr	r1, [sp, #12]
 158 00a8 079B     		ldr	r3, [sp, #28]
 159              		.loc 1 130 0
 160 00aa 0A9E     		ldr	r6, [sp, #40]
 161              		.loc 1 124 0
 162 00ac C1EB020B 		rsb	fp, r1, r2
 163 00b0 03EB8B0B 		add	fp, r3, fp, lsl #2
 164              	.LVL19:
 165              		.loc 1 132 0
 166 00b4 0C9B     		ldr	r3, [sp, #48]
 167              		.loc 1 130 0
 168 00b6 56F8049C 		ldr	r9, [r6, #-4]
 169              	.LVL20:
 170              		.loc 1 132 0
 171 00ba 002B     		cmp	r3, #0
ARM GAS  /tmp/cc8tg0oa.s 			page 4


 172 00bc 00F08C80 		beq	.L27
 173 00c0 13B2     		sxth	r3, r2
 174 00c2 0024     		movs	r4, #0
 175 00c4 0025     		movs	r5, #0
 176 00c6 4FEA8308 		lsl	r8, r3, #2
 177 00ca 1B01     		lsls	r3, r3, #4
 178 00cc 06F11002 		add	r2, r6, #16
 179 00d0 DE46     		mov	lr, fp
 180 00d2 4E46     		mov	r6, r9
 181              	.LVL21:
 182 00d4 CDF824B0 		str	fp, [sp, #36]
 183 00d8 0893     		str	r3, [sp, #32]
 184 00da 2046     		mov	r0, r4
 185 00dc 2946     		mov	r1, r5
 186 00de E146     		mov	r9, ip
 187              	.LVL22:
 188 00e0 A246     		mov	r10, r4
 189 00e2 AB46     		mov	fp, r5
 190              	.LVL23:
 191              	.L5:
 192              		.loc 1 136 0
 193 00e4 52F8104C 		ldr	r4, [r2, #-16]
 194              	.LVL24:
 195              		.loc 1 139 0
 196 00e8 DEF80030 		ldr	r3, [lr]
 197              	.LVL25:
 198              		.loc 1 147 0
 199 00ec 5EF80850 		ldr	r5, [lr, r8]
 200              		.loc 1 158 0
 201 00f0 5EF818C0 		ldr	ip, [lr, r8, lsl #1]
 202              		.loc 1 142 0
 203 00f4 C3FB06AB 		smlal	r10, fp, r3, r6
 204              	.LVL26:
 205              		.loc 1 143 0
 206 00f8 C4FB0301 		smlal	r0, r1, r4, r3
 207              	.LVL27:
 208 00fc CDE90001 		strd	r0, [sp]
 209              		.loc 1 142 0
 210 0100 5046     		mov	r0, r10
 211 0102 5946     		mov	r1, fp
 212              	.LVL28:
 213              		.loc 1 153 0
 214 0104 C5FB0401 		smlal	r0, r1, r5, r4
 215              	.LVL29:
 216 0108 8246     		mov	r10, r0
 217 010a 8B46     		mov	fp, r1
 218              	.LVL30:
 219              		.loc 1 154 0
 220 010c DDE90001 		ldrd	r0, [sp]
 221 0110 52F80C6C 		ldr	r6, [r2, #-12]
 222 0114 C6FB0501 		smlal	r0, r1, r6, r5
 223 0118 0EEB0803 		add	r3, lr, r8
 224 011c 0D46     		mov	r5, r1
 225              	.LVL31:
 226              		.loc 1 164 0
 227 011e 52F80C1C 		ldr	r1, [r2, #-12]
 228              		.loc 1 161 0
ARM GAS  /tmp/cc8tg0oa.s 			page 5


 229 0122 52F808EC 		ldr	lr, [r2, #-8]
 230              	.LVL32:
 231              		.loc 1 168 0
 232 0126 53F81870 		ldr	r7, [r3, r8, lsl #1]
 233              		.loc 1 171 0
 234 012a 52F8046C 		ldr	r6, [r2, #-4]
 235              		.loc 1 164 0
 236 012e CCFB01AB 		smlal	r10, fp, ip, r1
 237              	.LVL33:
 238              		.loc 1 154 0
 239 0132 0446     		mov	r4, r0
 240              	.LVL34:
 241              		.loc 1 164 0
 242 0134 5946     		mov	r1, fp
 243 0136 5046     		mov	r0, r10
 244              	.LVL35:
 245              		.loc 1 174 0
 246 0138 C7FB0E01 		smlal	r0, r1, r7, lr
 247              	.LVL36:
 248              		.loc 1 165 0
 249 013c CEFB0C45 		smlal	r4, r5, lr, ip
 250              	.LVL37:
 251 0140 1032     		adds	r2, r2, #16
 252              	.LVL38:
 253 0142 03EB4803 		add	r3, r3, r8, lsl #1
 254              		.loc 1 174 0
 255 0146 8246     		mov	r10, r0
 256 0148 8B46     		mov	fp, r1
 257              	.LVL39:
 258              		.loc 1 175 0
 259 014a 2046     		mov	r0, r4
 260 014c 2946     		mov	r1, r5
 261              		.loc 1 132 0
 262 014e 9145     		cmp	r9, r2
 263              		.loc 1 181 0
 264 0150 03EB080E 		add	lr, r3, r8
 265              	.LVL40:
 266              		.loc 1 175 0
 267 0154 C6FB0701 		smlal	r0, r1, r6, r7
 268              	.LVL41:
 269              		.loc 1 132 0
 270 0158 C4D1     		bne	.L5
 271 015a 0D46     		mov	r5, r1
 272 015c 0F9B     		ldr	r3, [sp, #60]
 273 015e 089A     		ldr	r2, [sp, #32]
 274              	.LVL42:
 275 0160 5946     		mov	r1, fp
 276 0162 DDF824B0 		ldr	fp, [sp, #36]
 277 0166 CC46     		mov	ip, r9
 278 0168 0446     		mov	r4, r0
 279 016a B146     		mov	r9, r6
 280 016c 5046     		mov	r0, r10
 281              	.LVL43:
 282 016e 02FB03BB 		mla	fp, r2, r3, fp
 283 0172 ACF11007 		sub	r7, ip, #16
 284              	.LVL44:
 285              	.L4:
ARM GAS  /tmp/cc8tg0oa.s 			page 6


 286              		.loc 1 190 0
 287 0176 0D9B     		ldr	r3, [sp, #52]
 288 0178 BBB1     		cbz	r3, .L6
 289 017a 049B     		ldr	r3, [sp, #16]
 290 017c 0E9A     		ldr	r2, [sp, #56]
 291 017e 4FEA830E 		lsl	lr, r3, #2
 292 0182 3B1F     		subs	r3, r7, #4
 293 0184 1744     		add	r7, r7, r2
 294              	.LVL45:
 295 0186 3A46     		mov	r2, r7
 296 0188 0646     		mov	r6, r0
 297 018a 0F46     		mov	r7, r1
 298 018c 1046     		mov	r0, r2
 299              	.LVL46:
 300              	.L7:
 301              		.loc 1 194 0
 302 018e 53F8042F 		ldr	r2, [r3, #4]!
 303              	.LVL47:
 304              		.loc 1 197 0
 305 0192 DBF80010 		ldr	r1, [fp]
 306              	.LVL48:
 307              		.loc 1 190 0
 308 0196 8342     		cmp	r3, r0
 309              		.loc 1 200 0
 310 0198 C1FB0967 		smlal	r6, r7, r1, r9
 311              	.LVL49:
 312              		.loc 1 204 0
 313 019c F344     		add	fp, fp, lr
 314              	.LVL50:
 315              		.loc 1 201 0
 316 019e C2FB0145 		smlal	r4, r5, r2, r1
 317              	.LVL51:
 318              		.loc 1 207 0
 319 01a2 9146     		mov	r9, r2
 320              		.loc 1 190 0
 321 01a4 F3D1     		bne	.L7
 322 01a6 3046     		mov	r0, r6
 323 01a8 3946     		mov	r1, r7
 324              	.LVL52:
 325              	.L6:
 326              		.loc 1 214 0
 327 01aa C30F     		lsrs	r3, r0, #31
 328 01ac 43EA4103 		orr	r3, r3, r1, lsl #1
 329 01b0 0699     		ldr	r1, [sp, #24]
 330              		.loc 1 215 0
 331 01b2 059F     		ldr	r7, [sp, #20]
 332              		.loc 1 214 0
 333 01b4 0B60     		str	r3, [r1]
 334              		.loc 1 215 0
 335 01b6 3B78     		ldrb	r3, [r7]	@ zero_extendqisi2
 336              		.loc 1 221 0
 337 01b8 0398     		ldr	r0, [sp, #12]
 338              		.loc 1 215 0
 339 01ba E20F     		lsrs	r2, r4, #31
 340 01bc 42EA4502 		orr	r2, r2, r5, lsl #1
 341 01c0 41F82320 		str	r2, [r1, r3, lsl #2]
 342              		.loc 1 218 0
ARM GAS  /tmp/cc8tg0oa.s 			page 7


 343 01c4 0B1D     		adds	r3, r1, #4
 344 01c6 0693     		str	r3, [sp, #24]
 345              	.LVL53:
 346              		.loc 1 114 0
 347 01c8 0B9B     		ldr	r3, [sp, #44]
 348              		.loc 1 221 0
 349 01ca 0130     		adds	r0, r0, #1
 350              	.LVL54:
 351              		.loc 1 114 0
 352 01cc 9842     		cmp	r0, r3
 353              		.loc 1 221 0
 354 01ce 0390     		str	r0, [sp, #12]
 355              		.loc 1 114 0
 356 01d0 08D0     		beq	.L8
 357 01d2 3B78     		ldrb	r3, [r7]	@ zero_extendqisi2
 358 01d4 0493     		str	r3, [sp, #16]
 359 01d6 65E7     		b	.L9
 360              	.LVL55:
 361              	.L27:
 362              		.loc 1 118 0
 363 01d8 0024     		movs	r4, #0
 364 01da 0025     		movs	r5, #0
 365              		.loc 1 117 0
 366 01dc 2046     		mov	r0, r4
 367 01de 2946     		mov	r1, r5
 368              	.LVL56:
 369              		.loc 1 132 0
 370 01e0 0A9F     		ldr	r7, [sp, #40]
 371 01e2 C8E7     		b	.L4
 372              	.LVL57:
 373              	.L8:
 374 01e4 109B     		ldr	r3, [sp, #64]
 375 01e6 159A     		ldr	r2, [sp, #84]
 376 01e8 03EB8203 		add	r3, r3, r2, lsl #2
 377 01ec 1093     		str	r3, [sp, #64]
 378 01ee 059B     		ldr	r3, [sp, #20]
 379 01f0 1B78     		ldrb	r3, [r3]	@ zero_extendqisi2
 380              	.LVL58:
 381              	.L3:
 382              		.loc 1 231 0
 383 01f2 109A     		ldr	r2, [sp, #64]
 384 01f4 02EB8303 		add	r3, r2, r3, lsl #2
 385 01f8 1093     		str	r3, [sp, #64]
 386              	.LVL59:
 387 01fa 129B     		ldr	r3, [sp, #72]
 388              	.LVL60:
 389 01fc 0833     		adds	r3, r3, #8
 390 01fe 1293     		str	r3, [sp, #72]
 391 0200 139B     		ldr	r3, [sp, #76]
 392 0202 0833     		adds	r3, r3, #8
 393 0204 1393     		str	r3, [sp, #76]
 394              	.LVL61:
 395 0206 0A9B     		ldr	r3, [sp, #40]
 396 0208 0833     		adds	r3, r3, #8
 397 020a 0A93     		str	r3, [sp, #40]
 398 020c 119B     		ldr	r3, [sp, #68]
 399 020e 0833     		adds	r3, r3, #8
ARM GAS  /tmp/cc8tg0oa.s 			page 8


 400 0210 1193     		str	r3, [sp, #68]
 401              		.loc 1 102 0
 402 0212 169B     		ldr	r3, [sp, #88]
 403 0214 013B     		subs	r3, r3, #1
 404              	.LVL62:
 405 0216 1693     		str	r3, [sp, #88]
 406 0218 7FF42BAF 		bne	.L10
 407 021c 1B9B     		ldr	r3, [sp, #108]
 408              	.LVL63:
 409 021e 189A     		ldr	r2, [sp, #96]
 410 0220 DB00     		lsls	r3, r3, #3
 411 0222 1A44     		add	r2, r2, r3
 412 0224 1892     		str	r2, [sp, #96]
 413 0226 149A     		ldr	r2, [sp, #80]
 414 0228 1A44     		add	r2, r2, r3
 415 022a 1492     		str	r2, [sp, #80]
 416 022c 179A     		ldr	r2, [sp, #92]
 417 022e D318     		adds	r3, r2, r3
 418 0230 0F93     		str	r3, [sp, #60]
 419              	.LVL64:
 420              	.L2:
 421              		.loc 1 242 0
 422 0232 1A99     		ldr	r1, [sp, #104]
 423 0234 0029     		cmp	r1, #0
 424 0236 00F09E80 		beq	.L11
 425 023a 1998     		ldr	r0, [sp, #100]
 426 023c 0F9C     		ldr	r4, [sp, #60]
 427 023e 0D91     		str	r1, [sp, #52]
 428 0240 8308     		lsrs	r3, r0, #2
 429 0242 5A1E     		subs	r2, r3, #1
 430 0244 0893     		str	r3, [sp, #32]
 431 0246 00F00303 		and	r3, r0, #3
 432 024a 0993     		str	r3, [sp, #36]
 433 024c 92B2     		uxth	r2, r2
 434 024e 013B     		subs	r3, r3, #1
 435 0250 1898     		ldr	r0, [sp, #96]
 436 0252 0394     		str	r4, [sp, #12]
 437 0254 0132     		adds	r2, r2, #1
 438 0256 9BB2     		uxth	r3, r3
 439 0258 0A92     		str	r2, [sp, #40]
 440 025a 0438     		subs	r0, r0, #4
 441 025c 04EB0212 		add	r2, r4, r2, lsl #4
 442 0260 9B00     		lsls	r3, r3, #2
 443 0262 0C90     		str	r0, [sp, #48]
 444 0264 0492     		str	r2, [sp, #16]
 445 0266 0B93     		str	r3, [sp, #44]
 446              	.LVL65:
 447              	.L19:
 448              		.loc 1 245 0
 449 0268 149A     		ldr	r2, [sp, #80]
 450 026a 52F8043B 		ldr	r3, [r2], #4
 451 026e 1492     		str	r2, [sp, #80]
 452              	.LVL66:
 453 0270 0C9A     		ldr	r2, [sp, #48]
 454              	.LVL67:
 455 0272 42F8043F 		str	r3, [r2, #4]!
 456              		.loc 1 251 0
ARM GAS  /tmp/cc8tg0oa.s 			page 9


 457 0276 059B     		ldr	r3, [sp, #20]
 458              		.loc 1 245 0
 459 0278 0C92     		str	r2, [sp, #48]
 460              	.LVL68:
 461              		.loc 1 251 0
 462 027a 1B78     		ldrb	r3, [r3]	@ zero_extendqisi2
 463 027c 0E93     		str	r3, [sp, #56]
 464              	.LVL69:
 465              		.loc 1 252 0
 466 027e 002B     		cmp	r3, #0
 467 0280 69D0     		beq	.L12
 468 0282 5A1C     		adds	r2, r3, #1
 469 0284 9946     		mov	r9, r3
 470 0286 049B     		ldr	r3, [sp, #16]
 471              	.LVL70:
 472 0288 DDF840B0 		ldr	fp, [sp, #64]
 473 028c 0692     		str	r2, [sp, #24]
 474 028e 4FF0010A 		mov	r10, #1
 475 0292 03F1100E 		add	lr, r3, #16
 476              	.LVL71:
 477              	.L18:
 478              		.loc 1 261 0
 479 0296 079B     		ldr	r3, [sp, #28]
 480 0298 CAEB0905 		rsb	r5, r10, r9
 481 029c 03EB8505 		add	r5, r3, r5, lsl #2
 482              	.LVL72:
 483              		.loc 1 266 0
 484 02a0 089B     		ldr	r3, [sp, #32]
 485 02a2 002B     		cmp	r3, #0
 486 02a4 00F0A680 		beq	.L28
 487 02a8 039B     		ldr	r3, [sp, #12]
 488 02aa 4FEA8904 		lsl	r4, r9, #2
 489 02ae 03F11000 		add	r0, r3, #16
 490 02b2 2946     		mov	r1, r5
 491 02b4 0022     		movs	r2, #0
 492 02b6 0023     		movs	r3, #0
 493 02b8 A846     		mov	r8, r5
 494              	.LVL73:
 495              	.L14:
 496              		.loc 1 278 0
 497 02ba 50F8106C 		ldr	r6, [r0, #-16]
 498              		.loc 1 270 0
 499 02be 0F68     		ldr	r7, [r1]
 500              	.LVL74:
 501              		.loc 1 284 0
 502 02c0 0D59     		ldr	r5, [r1, r4]
 503              		.loc 1 281 0
 504 02c2 C7FB0623 		smlal	r2, r3, r7, r6
 505              	.LVL75:
 506 02c6 1646     		mov	r6, r2
 507              		.loc 1 293 0
 508 02c8 50F80C2C 		ldr	r2, [r0, #-12]
 509              		.loc 1 281 0
 510 02cc 1F46     		mov	r7, r3
 511              	.LVL76:
 512              		.loc 1 293 0
 513 02ce C5FB0267 		smlal	r6, r7, r5, r2
ARM GAS  /tmp/cc8tg0oa.s 			page 10


 514              		.loc 1 305 0
 515 02d2 10E92400 		ldmdb	r0, {r2, r5}
 516 02d6 0B19     		adds	r3, r1, r4
 517              	.LVL77:
 518              		.loc 1 296 0
 519 02d8 51F81410 		ldr	r1, [r1, r4, lsl #1]
 520              	.LVL78:
 521              		.loc 1 308 0
 522 02dc 53F814C0 		ldr	ip, [r3, r4, lsl #1]
 523              		.loc 1 305 0
 524 02e0 C1FB0267 		smlal	r6, r7, r1, r2
 525              	.LVL79:
 526 02e4 1030     		adds	r0, r0, #16
 527              	.LVL80:
 528 02e6 03EB4401 		add	r1, r3, r4, lsl #1
 529              	.LVL81:
 530              		.loc 1 317 0
 531 02ea 3246     		mov	r2, r6
 532 02ec 3B46     		mov	r3, r7
 533              		.loc 1 266 0
 534 02ee 8645     		cmp	lr, r0
 535 02f0 2144     		add	r1, r1, r4
 536              	.LVL82:
 537              		.loc 1 317 0
 538 02f2 CCFB0523 		smlal	r2, r3, ip, r5
 539              	.LVL83:
 540              		.loc 1 266 0
 541 02f6 E0D1     		bne	.L14
 542 02f8 CDE90023 		strd	r2, [sp]
 543 02fc 0A9B     		ldr	r3, [sp, #40]
 544 02fe 049E     		ldr	r6, [sp, #16]
 545 0300 A400     		lsls	r4, r4, #2
 546 0302 03FB0485 		mla	r5, r3, r4, r8
 547              	.LVL84:
 548              	.L13:
 549              		.loc 1 326 0
 550 0306 099B     		ldr	r3, [sp, #36]
 551 0308 83B1     		cbz	r3, .L15
 552 030a 0B9B     		ldr	r3, [sp, #44]
 553 030c 311F     		subs	r1, r6, #4
 554 030e 1E44     		add	r6, r6, r3
 555              	.LVL85:
 556 0310 DDE90023 		ldrd	r2, [sp]
 557 0314 4FEA8909 		lsl	r9, r9, #2
 558              	.LVL86:
 559              	.L16:
 560              		.loc 1 335 0
 561 0318 51F8044F 		ldr	r4, [r1, #4]!
 562              	.LVL87:
 563              		.loc 1 329 0
 564 031c 2868     		ldr	r0, [r5]
 565              	.LVL88:
 566              		.loc 1 326 0
 567 031e B142     		cmp	r1, r6
 568              		.loc 1 332 0
 569 0320 4D44     		add	r5, r5, r9
 570              	.LVL89:
ARM GAS  /tmp/cc8tg0oa.s 			page 11


 571              		.loc 1 338 0
 572 0322 C0FB0423 		smlal	r2, r3, r0, r4
 573              	.LVL90:
 574              		.loc 1 326 0
 575 0326 F7D1     		bne	.L16
 576 0328 CDE90023 		strd	r2, [sp]
 577              	.LVL91:
 578              	.L15:
 579              		.loc 1 345 0
 580 032c DDE90001 		ldrd	r0, [sp]
 581              		.loc 1 252 0
 582 0330 069B     		ldr	r3, [sp, #24]
 583              		.loc 1 345 0
 584 0332 C20F     		lsrs	r2, r0, #31
 585              		.loc 1 348 0
 586 0334 0AF1010A 		add	r10, r10, #1
 587              	.LVL92:
 588              		.loc 1 345 0
 589 0338 42EA4102 		orr	r2, r2, r1, lsl #1
 590              		.loc 1 252 0
 591 033c 9A45     		cmp	r10, r3
 592              		.loc 1 345 0
 593 033e 4BF8042B 		str	r2, [fp], #4
 594              	.LVL93:
 595              		.loc 1 252 0
 596 0342 03D0     		beq	.L17
 597 0344 059B     		ldr	r3, [sp, #20]
 598 0346 93F80090 		ldrb	r9, [r3]	@ zero_extendqisi2
 599 034a A4E7     		b	.L18
 600              	.L17:
 601 034c 109B     		ldr	r3, [sp, #64]
 602 034e 0E9A     		ldr	r2, [sp, #56]
 603 0350 03EB8203 		add	r3, r3, r2, lsl #2
 604 0354 1093     		str	r3, [sp, #64]
 605              	.LVL94:
 606              	.L12:
 607              		.loc 1 356 0
 608 0356 039B     		ldr	r3, [sp, #12]
 609 0358 0433     		adds	r3, r3, #4
 610 035a 0393     		str	r3, [sp, #12]
 611              	.LVL95:
 612 035c 049B     		ldr	r3, [sp, #16]
 613              	.LVL96:
 614 035e 0433     		adds	r3, r3, #4
 615 0360 0493     		str	r3, [sp, #16]
 616              		.loc 1 242 0
 617 0362 0D9B     		ldr	r3, [sp, #52]
 618 0364 013B     		subs	r3, r3, #1
 619              	.LVL97:
 620 0366 0D93     		str	r3, [sp, #52]
 621 0368 7FF47EAF 		bne	.L19
 622 036c 0F9B     		ldr	r3, [sp, #60]
 623              	.LVL98:
 624 036e 1A9A     		ldr	r2, [sp, #104]
 625 0370 03EB8203 		add	r3, r3, r2, lsl #2
 626 0374 0F93     		str	r3, [sp, #60]
 627              	.LVL99:
ARM GAS  /tmp/cc8tg0oa.s 			page 12


 628              	.L11:
 629              		.loc 1 369 0
 630 0376 199B     		ldr	r3, [sp, #100]
 631 0378 591E     		subs	r1, r3, #1
 632 037a C1F38F03 		ubfx	r3, r1, #2, #16
 633              	.LVL100:
 634              		.loc 1 372 0
 635 037e 33B3     		cbz	r3, .L20
 636 0380 013B     		subs	r3, r3, #1
 637              	.LVL101:
 638 0382 179A     		ldr	r2, [sp, #92]
 639 0384 9CB2     		uxth	r4, r3
 640 0386 A51C     		adds	r5, r4, #2
 641 0388 1346     		mov	r3, r2
 642              	.LVL102:
 643 038a 02EB0515 		add	r5, r2, r5, lsl #4
 644 038e 0F9A     		ldr	r2, [sp, #60]
 645 0390 1033     		adds	r3, r3, #16
 646 0392 1032     		adds	r2, r2, #16
 647              	.LVL103:
 648              	.L21:
 649              		.loc 1 374 0
 650 0394 52F8100C 		ldr	r0, [r2, #-16]
 651 0398 43F8100C 		str	r0, [r3, #-16]
 652              	.LVL104:
 653              		.loc 1 375 0
 654 039c 52F80C0C 		ldr	r0, [r2, #-12]
 655 03a0 43F80C0C 		str	r0, [r3, #-12]
 656              	.LVL105:
 657              		.loc 1 376 0
 658 03a4 52F8080C 		ldr	r0, [r2, #-8]
 659 03a8 43F8080C 		str	r0, [r3, #-8]
 660              	.LVL106:
 661              		.loc 1 377 0
 662 03ac 52F8040C 		ldr	r0, [r2, #-4]
 663 03b0 43F8040C 		str	r0, [r3, #-4]
 664 03b4 1033     		adds	r3, r3, #16
 665              		.loc 1 372 0
 666 03b6 AB42     		cmp	r3, r5
 667 03b8 02F11002 		add	r2, r2, #16
 668              	.LVL107:
 669 03bc EAD1     		bne	.L21
 670 03be 179A     		ldr	r2, [sp, #92]
 671              	.LVL108:
 672 03c0 631C     		adds	r3, r4, #1
 673 03c2 1B01     		lsls	r3, r3, #4
 674 03c4 1A44     		add	r2, r2, r3
 675 03c6 1792     		str	r2, [sp, #92]
 676 03c8 0F9A     		ldr	r2, [sp, #60]
 677 03ca 1A44     		add	r2, r2, r3
 678 03cc 0F92     		str	r2, [sp, #60]
 679              	.L20:
 680              	.LVL109:
 681              		.loc 1 386 0
 682 03ce 11F00302 		ands	r2, r1, #3
 683 03d2 0CD0     		beq	.L1
 684 03d4 1799     		ldr	r1, [sp, #92]
ARM GAS  /tmp/cc8tg0oa.s 			page 13


 685              	.LVL110:
 686 03d6 013A     		subs	r2, r2, #1
 687 03d8 92B2     		uxth	r2, r2
 688 03da 01EB8202 		add	r2, r1, r2, lsl #2
 689 03de 0B1F     		subs	r3, r1, #4
 690 03e0 0F99     		ldr	r1, [sp, #60]
 691              	.LVL111:
 692              	.L23:
 693              		.loc 1 388 0
 694 03e2 51F8040B 		ldr	r0, [r1], #4
 695              	.LVL112:
 696 03e6 43F8040F 		str	r0, [r3, #4]!
 697              	.LVL113:
 698              		.loc 1 386 0
 699 03ea 9342     		cmp	r3, r2
 700 03ec F9D1     		bne	.L23
 701              	.LVL114:
 702              	.L1:
 703              		.loc 1 394 0
 704 03ee 1DB0     		add	sp, sp, #116
 705              		.cfi_remember_state
 706              		.cfi_def_cfa_offset 36
 707              		@ sp needed
 708 03f0 BDE8F08F 		pop	{r4, r5, r6, r7, r8, r9, r10, fp, pc}
 709              	.LVL115:
 710              	.L28:
 711              		.cfi_restore_state
 712              		.loc 1 255 0
 713 03f4 0022     		movs	r2, #0
 714 03f6 0023     		movs	r3, #0
 715              		.loc 1 266 0
 716 03f8 039E     		ldr	r6, [sp, #12]
 717              		.loc 1 255 0
 718 03fa CDE90023 		strd	r2, [sp]
 719 03fe 82E7     		b	.L13
 720              	.LVL116:
 721              	.L26:
 722              		.loc 1 114 0
 723 0400 159B     		ldr	r3, [sp, #84]
 724              	.LVL117:
 725 0402 F6E6     		b	.L3
 726              	.LVL118:
 727              	.L25:
 728              		.loc 1 80 0
 729 0404 179B     		ldr	r3, [sp, #92]
 730 0406 0F93     		str	r3, [sp, #60]
 731 0408 13E7     		b	.L2
 732              		.cfi_endproc
 733              	.LFE135:
 734              		.size	arm_fir_interpolate_q31, .-arm_fir_interpolate_q31
 735              	.Letext0:
 736              		.file 2 "/d_drive/axoloti/platform_linux/arm-none-eabi/include/machine/_default_types.h"
 737              		.file 3 "/d_drive/axoloti/platform_linux/arm-none-eabi/include/sys/_stdint.h"
 738              		.file 4 "/d_drive/axoloti/platform_linux/../CMSIS//DSP_Lib/Include/arm_math.h"