ARM GAS  /tmp/ccykvGqg.s 			page 1


   1              		.syntax unified
   2              		.cpu cortex-m4
   3              		.eabi_attribute 27, 1
   4              		.eabi_attribute 28, 1
   5              		.fpu fpv4-sp-d16
   6              		.eabi_attribute 20, 1
   7              		.eabi_attribute 21, 1
   8              		.eabi_attribute 23, 3
   9              		.eabi_attribute 24, 1
  10              		.eabi_attribute 25, 1
  11              		.eabi_attribute 26, 1
  12              		.eabi_attribute 30, 2
  13              		.eabi_attribute 34, 1
  14              		.eabi_attribute 18, 4
  15              		.thumb
  16              		.file	"arm_iir_lattice_init_q31.c"
  17              		.text
  18              	.Ltext0:
  19              		.cfi_sections	.debug_frame
  20              		.align	2
  21              		.p2align 4,,15
  22              		.global	arm_iir_lattice_init_q31
  23              		.thumb
  24              		.thumb_func
  25              		.type	arm_iir_lattice_init_q31, %function
  26              	arm_iir_lattice_init_q31:
  27              	.LFB135:
  28              		.file 1 "/home/sbcu/Dropbox/pcb-layouts/axo-on-discovery-board/axoloti/platform_linux/../CMSIS//DS
  29              		.loc 1 70 0
  30              		.cfi_startproc
  31              		@ args = 8, pretend = 0, frame = 0
  32              		@ frame_needed = 0, uses_anonymous_args = 0
  33              	.LVL0:
  34 0000 70B5     		push	{r4, r5, r6, lr}
  35              		.cfi_def_cfa_offset 16
  36              		.cfi_offset 4, -16
  37              		.cfi_offset 5, -12
  38              		.cfi_offset 6, -8
  39              		.cfi_offset 14, -4
  40              		.loc 1 70 0
  41 0002 059D     		ldr	r5, [sp, #20]
  42 0004 049E     		ldr	r6, [sp, #16]
  43              		.loc 1 75 0
  44 0006 8260     		str	r2, [r0, #8]
  45              		.loc 1 70 0
  46 0008 0446     		mov	r4, r0
  47              		.loc 1 81 0
  48 000a 0D44     		add	r5, r5, r1
  49              		.loc 1 72 0
  50 000c 0180     		strh	r1, [r0]	@ movhi
  51              		.loc 1 78 0
  52 000e C360     		str	r3, [r0, #12]
  53              		.loc 1 81 0
  54 0010 AA00     		lsls	r2, r5, #2
  55              	.LVL1:
  56 0012 3046     		mov	r0, r6
  57              	.LVL2:
ARM GAS  /tmp/ccykvGqg.s 			page 2


  58 0014 0021     		movs	r1, #0
  59              	.LVL3:
  60 0016 FFF7FEFF 		bl	memset
  61              	.LVL4:
  62              		.loc 1 84 0
  63 001a 6660     		str	r6, [r4, #4]
  64 001c 70BD     		pop	{r4, r5, r6, pc}
  65              		.cfi_endproc
  66              	.LFE135:
  67              		.size	arm_iir_lattice_init_q31, .-arm_iir_lattice_init_q31
  68              	.Letext0:
  69              		.file 2 "/home/sbcu/Dropbox/pcb-layouts/axo-on-discovery-board/axoloti/platform_linux/arm-none-eab
  70              		.file 3 "/home/sbcu/Dropbox/pcb-layouts/axo-on-discovery-board/axoloti/platform_linux/arm-none-eab
  71              		.file 4 "/home/sbcu/Dropbox/pcb-layouts/axo-on-discovery-board/axoloti/platform_linux/../CMSIS//DS