ARM GAS  /tmp/cc9jbT0a.s 			page 1


   1              		.syntax unified
   2              		.cpu cortex-m4
   3              		.eabi_attribute 27, 1
   4              		.eabi_attribute 28, 1
   5              		.fpu fpv4-sp-d16
   6              		.eabi_attribute 20, 1
   7              		.eabi_attribute 21, 1
   8              		.eabi_attribute 23, 3
   9              		.eabi_attribute 24, 1
  10              		.eabi_attribute 25, 1
  11              		.eabi_attribute 26, 1
  12              		.eabi_attribute 30, 2
  13              		.eabi_attribute 34, 1
  14              		.eabi_attribute 18, 4
  15              		.thumb
  16              		.file	"arm_cmplx_mult_cmplx_f32.c"
  17              		.text
  18              	.Ltext0:
  19              		.cfi_sections	.debug_frame
  20              		.align	2
  21              		.p2align 4,,15
  22              		.global	arm_cmplx_mult_cmplx_f32
  23              		.thumb
  24              		.thumb_func
  25              		.type	arm_cmplx_mult_cmplx_f32, %function
  26              	arm_cmplx_mult_cmplx_f32:
  27              	.LFB135:
  28              		.file 1 "/home/sbcu/Dropbox/pcb-layouts/axo-on-discovery-board/axoloti/platform_linux/../CMSIS//DS
  29              		.loc 1 88 0
  30              		.cfi_startproc
  31              		@ args = 0, pretend = 0, frame = 0
  32              		@ frame_needed = 0, uses_anonymous_args = 0
  33              	.LVL0:
  34 0000 F0B5     		push	{r4, r5, r6, r7, lr}
  35              		.cfi_def_cfa_offset 20
  36              		.cfi_offset 4, -20
  37              		.cfi_offset 5, -16
  38              		.cfi_offset 6, -12
  39              		.cfi_offset 7, -8
  40              		.cfi_offset 14, -4
  41              		.loc 1 104 0
  42 0002 5FEA930E 		lsrs	lr, r3, #2
  43              	.LVL1:
  44 0006 63D0     		beq	.L2
  45 0008 00F12006 		add	r6, r0, #32
  46 000c 01F12005 		add	r5, r1, #32
  47 0010 02F12004 		add	r4, r2, #32
  48 0014 7746     		mov	r7, lr
  49              	.LVL2:
  50              	.L3:
  51              		.loc 1 111 0
  52 0016 56ED072A 		flds	s5, [r6, #-28]
  53              		.loc 1 117 0
  54 001a 15ED077A 		flds	s14, [r5, #-28]
  55              		.loc 1 108 0
  56 001e 56ED086A 		flds	s13, [r6, #-32]
  57              	.LVL3:
ARM GAS  /tmp/cc9jbT0a.s 			page 2


  58              		.loc 1 109 0
  59 0022 55ED083A 		flds	s7, [r5, #-32]
  60              	.LVL4:
  61              		.loc 1 118 0
  62 0026 55ED064A 		flds	s9, [r5, #-24]
  63              		.loc 1 121 0
  64 002a 55ED055A 		flds	s11, [r5, #-20]
  65              		.loc 1 124 0
  66 002e 56ED057A 		flds	s15, [r6, #-20]
  67              		.loc 1 114 0
  68 0032 16ED065A 		flds	s10, [r6, #-24]
  69              	.LVL5:
  70              		.loc 1 127 0
  71 0036 16ED043A 		flds	s6, [r6, #-16]
  72              	.LVL6:
  73              		.loc 1 130 0
  74 003a 15ED044A 		flds	s8, [r5, #-16]
  75              	.LVL7:
  76 003e 27EE626A 		fnmuls	s12, s14, s5
  77              		.loc 1 125 0
  78 0042 26EE877A 		fmuls	s14, s13, s14
  79              	.LVL8:
  80              		.loc 1 119 0
  81 0046 A6EEA36A 		vfma.f32	s12, s13, s7
  82              	.LVL9:
  83              		.loc 1 104 0
  84 004a 013F     		subs	r7, r7, #1
  85              	.LVL10:
  86 004c 06F12006 		add	r6, r6, #32
  87              	.LVL11:
  88 0050 65EEE76A 		fnmuls	s13, s11, s15
  89              	.LVL12:
  90              		.loc 1 135 0
  91 0054 67EEA47A 		fmuls	s15, s15, s9
  92              	.LVL13:
  93              		.loc 1 125 0
  94 0058 A2EEA37A 		vfma.f32	s14, s5, s7
  95              	.LVL14:
  96 005c 05F12005 		add	r5, r5, #32
  97              	.LVL15:
  98 0060 04F12004 		add	r4, r4, #32
  99              		.loc 1 131 0
 100 0064 E5EE246A 		vfma.f32	s13, s10, s9
 101              	.LVL16:
 102              		.loc 1 135 0
 103 0068 E5EE257A 		vfma.f32	s15, s10, s11
 104              		.loc 1 132 0
 105 006c 04ED106A 		fsts	s12, [r4, #-64]
 106              	.LVL17:
 107              		.loc 1 134 0
 108 0070 56ED0B3A 		flds	s7, [r6, #-44]
 109              	.LVL18:
 110              		.loc 1 137 0
 111 0074 04ED0F7A 		fsts	s14, [r4, #-60]
 112              	.LVL19:
 113              		.loc 1 140 0
 114 0078 15ED0B7A 		flds	s14, [r5, #-44]
ARM GAS  /tmp/cc9jbT0a.s 			page 3


 115              	.LVL20:
 116              		.loc 1 143 0
 117 007c 44ED0E6A 		fsts	s13, [r4, #-56]
 118              		.loc 1 144 0
 119 0080 44ED0D7A 		fsts	s15, [r4, #-52]
 120              		.loc 1 146 0
 121 0084 56ED0A4A 		flds	s9, [r6, #-40]
 122              	.LVL21:
 123              		.loc 1 152 0
 124 0088 16ED095A 		flds	s10, [r6, #-36]
 125              		.loc 1 155 0
 126 008c 55ED097A 		flds	s15, [r5, #-36]
 127              		.loc 1 149 0
 128 0090 55ED0A5A 		flds	s11, [r5, #-40]
 129              	.LVL22:
 130 0094 27EE636A 		fnmuls	s12, s14, s7
 131 0098 67EEC56A 		fnmuls	s13, s15, s10
 132              		.loc 1 150 0
 133 009c 23EE077A 		fmuls	s14, s6, s14
 134              	.LVL23:
 135              		.loc 1 162 0
 136 00a0 64EEA77A 		fmuls	s15, s9, s15
 137              	.LVL24:
 138              		.loc 1 147 0
 139 00a4 A3EE046A 		vfma.f32	s12, s6, s8
 140              	.LVL25:
 141              		.loc 1 150 0
 142 00a8 A3EE847A 		vfma.f32	s14, s7, s8
 143              	.LVL26:
 144              		.loc 1 161 0
 145 00ac E4EEA56A 		vfma.f32	s13, s9, s11
 146              		.loc 1 162 0
 147 00b0 E5EE257A 		vfma.f32	s15, s10, s11
 148              		.loc 1 158 0
 149 00b4 04ED0C6A 		fsts	s12, [r4, #-48]
 150              	.LVL27:
 151              		.loc 1 164 0
 152 00b8 04ED0B7A 		fsts	s14, [r4, #-44]
 153              	.LVL28:
 154              		.loc 1 167 0
 155 00bc 44ED0A6A 		fsts	s13, [r4, #-40]
 156              		.loc 1 168 0
 157 00c0 44ED097A 		fsts	s15, [r4, #-36]
 158              	.LVL29:
 159              		.loc 1 104 0
 160 00c4 A7D1     		bne	.L3
 161 00c6 4FEA4E14 		lsl	r4, lr, #5
 162 00ca 2044     		add	r0, r0, r4
 163 00cc 2144     		add	r1, r1, r4
 164 00ce 2244     		add	r2, r2, r4
 165              	.LVL30:
 166              	.L2:
 167              		.loc 1 187 0
 168 00d0 13F00303 		ands	r3, r3, #3
 169              	.LVL31:
 170 00d4 1ED0     		beq	.L1
 171 00d6 0830     		adds	r0, r0, #8
ARM GAS  /tmp/cc9jbT0a.s 			page 4


 172              	.LVL32:
 173 00d8 0831     		adds	r1, r1, #8
 174              	.LVL33:
 175 00da 0832     		adds	r2, r2, #8
 176              	.LVL34:
 177              	.L5:
 178              		.loc 1 192 0
 179 00dc 50ED017A 		flds	s15, [r0, #-4]
 180              		.loc 1 194 0
 181 00e0 51ED016A 		flds	s13, [r1, #-4]
 182              		.loc 1 193 0
 183 00e4 51ED025A 		flds	s11, [r1, #-8]
 184              		.loc 1 191 0
 185 00e8 10ED026A 		flds	s12, [r0, #-8]
 186              	.LVL35:
 187 00ec 26EEE77A 		fnmuls	s14, s13, s15
 188              		.loc 1 198 0
 189 00f0 67EEA57A 		fmuls	s15, s15, s11
 190              	.LVL36:
 191              		.loc 1 197 0
 192 00f4 A6EE257A 		vfma.f32	s14, s12, s11
 193              		.loc 1 187 0
 194 00f8 013B     		subs	r3, r3, #1
 195              	.LVL37:
 196 00fa 01F10801 		add	r1, r1, #8
 197              		.loc 1 198 0
 198 00fe E6EE267A 		vfma.f32	s15, s12, s13
 199 0102 00F10800 		add	r0, r0, #8
 200              	.LVL38:
 201 0106 02F10802 		add	r2, r2, #8
 202              		.loc 1 197 0
 203 010a 02ED047A 		fsts	s14, [r2, #-16]
 204              	.LVL39:
 205              		.loc 1 198 0
 206 010e 42ED037A 		fsts	s15, [r2, #-12]
 207              		.loc 1 187 0
 208 0112 E3D1     		bne	.L5
 209              	.LVL40:
 210              	.L1:
 211 0114 F0BD     		pop	{r4, r5, r6, r7, pc}
 212              		.cfi_endproc
 213              	.LFE135:
 214              		.size	arm_cmplx_mult_cmplx_f32, .-arm_cmplx_mult_cmplx_f32
 215              	.Letext0:
 216              		.file 2 "/home/sbcu/Dropbox/pcb-layouts/axo-on-discovery-board/axoloti/platform_linux/arm-none-eab
 217              		.file 3 "/home/sbcu/Dropbox/pcb-layouts/axo-on-discovery-board/axoloti/platform_linux/arm-none-eab
 218              		.file 4 "/home/sbcu/Dropbox/pcb-layouts/axo-on-discovery-board/axoloti/platform_linux/../CMSIS//DS