ARM GAS  /tmp/ccKVTFIs.s 			page 1


   1              		.syntax unified
   2              		.cpu cortex-m4
   3              		.eabi_attribute 27, 1
   4              		.eabi_attribute 28, 1
   5              		.fpu fpv4-sp-d16
   6              		.eabi_attribute 20, 1
   7              		.eabi_attribute 21, 1
   8              		.eabi_attribute 23, 3
   9              		.eabi_attribute 24, 1
  10              		.eabi_attribute 25, 1
  11              		.eabi_attribute 26, 1
  12              		.eabi_attribute 30, 2
  13              		.eabi_attribute 34, 1
  14              		.eabi_attribute 18, 4
  15              		.thumb
  16              		.file	"arm_cmplx_mag_q15.c"
  17              		.text
  18              	.Ltext0:
  19              		.cfi_sections	.debug_frame
  20              		.align	2
  21              		.p2align 4,,15
  22              		.global	arm_cmplx_mag_q15
  23              		.thumb
  24              		.thumb_func
  25              		.type	arm_cmplx_mag_q15, %function
  26              	arm_cmplx_mag_q15:
  27              	.LFB135:
  28              		.file 1 "/home/sbcu/Dropbox/pcb-layouts/axo-on-discovery-board/axoloti/platform_linux/../CMSIS//DS
  29              		.loc 1 69 0
  30              		.cfi_startproc
  31              		@ args = 0, pretend = 0, frame = 8
  32              		@ frame_needed = 0, uses_anonymous_args = 0
  33              	.LVL0:
  34 0000 2DE9F04F 		push	{r4, r5, r6, r7, r8, r9, r10, fp, lr}
  35              		.cfi_def_cfa_offset 36
  36              		.cfi_offset 4, -36
  37              		.cfi_offset 5, -32
  38              		.cfi_offset 6, -28
  39              		.cfi_offset 7, -24
  40              		.cfi_offset 8, -20
  41              		.cfi_offset 9, -16
  42              		.cfi_offset 10, -12
  43              		.cfi_offset 11, -8
  44              		.cfi_offset 14, -4
  45 0004 83B0     		sub	sp, sp, #12
  46              		.cfi_def_cfa_offset 48
  47              		.loc 1 85 0
  48 0006 9308     		lsrs	r3, r2, #2
  49              		.loc 1 69 0
  50 0008 0092     		str	r2, [sp]
  51 000a 0746     		mov	r7, r0
  52              	.LVL1:
  53 000c 0E46     		mov	r6, r1
  54              		.loc 1 85 0
  55 000e 0193     		str	r3, [sp, #4]
  56 0010 34D0     		beq	.L2
  57 0012 00F11005 		add	r5, r0, #16
ARM GAS  /tmp/ccKVTFIs.s 			page 2


  58 0016 9B46     		mov	fp, r3
  59 0018 0C46     		mov	r4, r1
  60              	.LVL2:
  61              	.L3:
  62              		.loc 1 94 0
  63 001a 55F8100C 		ldr	r0, [r5, #-16]
  64              	.LVL3:
  65              	.LBB12:
  66              	.LBB13:
  67              		.file 2 "/home/sbcu/Dropbox/pcb-layouts/axo-on-discovery-board/axoloti/platform_linux/../CMSIS//In
  68              		.loc 2 1705 0
  69              	@ 1705 "/home/sbcu/Dropbox/pcb-layouts/axo-on-discovery-board/axoloti/platform_linux/../CMSIS//Incl
  70 001e 20FB00F0 		smuad r0, r0, r0
  71              	@ 0 "" 2
  72              	.LVL4:
  73              		.thumb
  74              	.LBE13:
  75              	.LBE12:
  76              		.loc 1 95 0
  77 0022 55F80C2C 		ldr	r2, [r5, #-12]
  78              	.LVL5:
  79              	.LBB14:
  80              	.LBB15:
  81              		.loc 2 1705 0
  82              	@ 1705 "/home/sbcu/Dropbox/pcb-layouts/axo-on-discovery-board/axoloti/platform_linux/../CMSIS//Incl
  83 0026 22FB02F8 		smuad r8, r2, r2
  84              	@ 0 "" 2
  85              	.LVL6:
  86              		.thumb
  87              	.LBE15:
  88              	.LBE14:
  89              		.loc 1 96 0
  90 002a 55F8083C 		ldr	r3, [r5, #-8]
  91              	.LVL7:
  92              	.LBB16:
  93              	.LBB17:
  94              		.loc 2 1705 0
  95              	@ 1705 "/home/sbcu/Dropbox/pcb-layouts/axo-on-discovery-board/axoloti/platform_linux/../CMSIS//Incl
  96 002e 23FB03FA 		smuad r10, r3, r3
  97              	@ 0 "" 2
  98              	.LVL8:
  99              		.thumb
 100              	.LBE17:
 101              	.LBE16:
 102              		.loc 1 97 0
 103 0032 55F8043C 		ldr	r3, [r5, #-4]
 104              	.LVL9:
 105              	.LBB18:
 106              	.LBB19:
 107              		.loc 2 1705 0
 108              	@ 1705 "/home/sbcu/Dropbox/pcb-layouts/axo-on-discovery-board/axoloti/platform_linux/../CMSIS//Incl
 109 0036 23FB03F9 		smuad r9, r3, r3
 110              	@ 0 "" 2
 111              	.LVL10:
 112              		.thumb
 113              	.LBE19:
 114              	.LBE18:
ARM GAS  /tmp/ccKVTFIs.s 			page 3


 115              		.loc 1 100 0
 116 003a 2146     		mov	r1, r4
 117 003c 4014     		asrs	r0, r0, #17
 118              	.LVL11:
 119 003e FFF7FEFF 		bl	arm_sqrt_q15
 120              	.LVL12:
 121              		.loc 1 101 0
 122 0042 A11C     		adds	r1, r4, #2
 123 0044 4FEA6840 		asr	r0, r8, #17
 124 0048 FFF7FEFF 		bl	arm_sqrt_q15
 125              	.LVL13:
 126 004c 04F10608 		add	r8, r4, #6
 127              	.LVL14:
 128              		.loc 1 102 0
 129 0050 211D     		adds	r1, r4, #4
 130 0052 4FEA6A40 		asr	r0, r10, #17
 131 0056 FFF7FEFF 		bl	arm_sqrt_q15
 132              	.LVL15:
 133              		.loc 1 103 0
 134 005a 4FEA6940 		asr	r0, r9, #17
 135 005e 4146     		mov	r1, r8
 136 0060 FFF7FEFF 		bl	arm_sqrt_q15
 137              	.LVL16:
 138              		.loc 1 85 0
 139 0064 BBF1010B 		subs	fp, fp, #1
 140              	.LVL17:
 141 0068 05F11005 		add	r5, r5, #16
 142              	.LVL18:
 143 006c 04F10804 		add	r4, r4, #8
 144              	.LVL19:
 145 0070 D3D1     		bne	.L3
 146 0072 019A     		ldr	r2, [sp, #4]
 147 0074 07EB0217 		add	r7, r7, r2, lsl #4
 148 0078 06EBC206 		add	r6, r6, r2, lsl #3
 149              	.LVL20:
 150              	.L2:
 151              		.loc 1 113 0
 152 007c 009B     		ldr	r3, [sp]
 153 007e 13F00304 		ands	r4, r3, #3
 154              	.LVL21:
 155 0082 0BD0     		beq	.L1
 156              	.LVL22:
 157              	.L5:
 158              		.loc 1 117 0
 159 0084 57F8040B 		ldr	r0, [r7], #4
 160              	.LVL23:
 161              	.LBB20:
 162              	.LBB21:
 163              		.loc 2 1705 0
 164              	@ 1705 "/home/sbcu/Dropbox/pcb-layouts/axo-on-discovery-board/axoloti/platform_linux/../CMSIS//Incl
 165 0088 20FB00F0 		smuad r0, r0, r0
 166              	@ 0 "" 2
 167              	.LVL24:
 168              		.thumb
 169              	.LBE21:
 170              	.LBE20:
 171              		.loc 1 120 0
ARM GAS  /tmp/ccKVTFIs.s 			page 4


 172 008c 3146     		mov	r1, r6
 173 008e 4014     		asrs	r0, r0, #17
 174              	.LVL25:
 175 0090 FFF7FEFF 		bl	arm_sqrt_q15
 176              	.LVL26:
 177              		.loc 1 113 0
 178 0094 013C     		subs	r4, r4, #1
 179              	.LVL27:
 180              		.loc 1 120 0
 181 0096 06F10206 		add	r6, r6, #2
 182              	.LVL28:
 183              		.loc 1 113 0
 184 009a F3D1     		bne	.L5
 185              	.L1:
 186              		.loc 1 149 0
 187 009c 03B0     		add	sp, sp, #12
 188              		.cfi_def_cfa_offset 36
 189              	.LVL29:
 190              		@ sp needed
 191 009e BDE8F08F 		pop	{r4, r5, r6, r7, r8, r9, r10, fp, pc}
 192              		.cfi_endproc
 193              	.LFE135:
 194              		.size	arm_cmplx_mag_q15, .-arm_cmplx_mag_q15
 195              	.Letext0:
 196              		.file 3 "/home/sbcu/Dropbox/pcb-layouts/axo-on-discovery-board/axoloti/platform_linux/arm-none-eab
 197              		.file 4 "/home/sbcu/Dropbox/pcb-layouts/axo-on-discovery-board/axoloti/platform_linux/arm-none-eab
 198              		.file 5 "/home/sbcu/Dropbox/pcb-layouts/axo-on-discovery-board/axoloti/platform_linux/../CMSIS//DS
 199 00a2 00BF     		.section	.debug_info,"",%progbits
 200              	.Ldebug_info0:
 201 0000 D3030000 		.4byte	0x3d3
 202 0004 0400     		.2byte	0x4
 203 0006 00000000 		.4byte	.Ldebug_abbrev0
 204 000a 04       		.byte	0x4
 205 000b 01       		.uleb128 0x1
 206 000c 05000000 		.4byte	.LASF38
 207 0010 01       		.byte	0x1
 208 0011 14010000 		.4byte	.LASF39
 209 0015 00000000 		.4byte	.Ltext0
 210 0019 A2000000 		.4byte	.Letext0-.Ltext0
 211 001d 00000000 		.4byte	.Ldebug_line0
 212 0021 02       		.uleb128 0x2
 213 0022 01       		.byte	0x1
 214 0023 06       		.byte	0x6
 215 0024 43030000 		.4byte	.LASF0
 216 0028 02       		.uleb128 0x2
 217 0029 01       		.byte	0x1
 218 002a 08       		.byte	0x8
 219 002b D6010000 		.4byte	.LASF1
 220 002f 03       		.uleb128 0x3
 221 0030 A3010000 		.4byte	.LASF4
 222 0034 03       		.byte	0x3
 223 0035 29       		.byte	0x29
 224 0036 3A000000 		.4byte	0x3a
 225 003a 02       		.uleb128 0x2
 226 003b 02       		.byte	0x2
 227 003c 05       		.byte	0x5
 228 003d FE020000 		.4byte	.LASF2
ARM GAS  /tmp/ccKVTFIs.s 			page 5


 229 0041 02       		.uleb128 0x2
 230 0042 02       		.byte	0x2
 231 0043 07       		.byte	0x7
 232 0044 13020000 		.4byte	.LASF3
 233 0048 03       		.uleb128 0x3
 234 0049 AD010000 		.4byte	.LASF5
 235 004d 03       		.byte	0x3
 236 004e 3F       		.byte	0x3f
 237 004f 53000000 		.4byte	0x53
 238 0053 02       		.uleb128 0x2
 239 0054 04       		.byte	0x4
 240 0055 05       		.byte	0x5
 241 0056 1C030000 		.4byte	.LASF6
 242 005a 03       		.uleb128 0x3
 243 005b 3A020000 		.4byte	.LASF7
 244 005f 03       		.byte	0x3
 245 0060 41       		.byte	0x41
 246 0061 65000000 		.4byte	0x65
 247 0065 02       		.uleb128 0x2
 248 0066 04       		.byte	0x4
 249 0067 07       		.byte	0x7
 250 0068 01020000 		.4byte	.LASF8
 251 006c 02       		.uleb128 0x2
 252 006d 08       		.byte	0x8
 253 006e 05       		.byte	0x5
 254 006f CA020000 		.4byte	.LASF9
 255 0073 02       		.uleb128 0x2
 256 0074 08       		.byte	0x8
 257 0075 07       		.byte	0x7
 258 0076 6A020000 		.4byte	.LASF10
 259 007a 04       		.uleb128 0x4
 260 007b 04       		.byte	0x4
 261 007c 05       		.byte	0x5
 262 007d 696E7400 		.ascii	"int\000"
 263 0081 02       		.uleb128 0x2
 264 0082 04       		.byte	0x4
 265 0083 07       		.byte	0x7
 266 0084 5D020000 		.4byte	.LASF11
 267 0088 03       		.uleb128 0x3
 268 0089 B1020000 		.4byte	.LASF12
 269 008d 04       		.byte	0x4
 270 008e 19       		.byte	0x19
 271 008f 2F000000 		.4byte	0x2f
 272 0093 03       		.uleb128 0x3
 273 0094 B9020000 		.4byte	.LASF13
 274 0098 04       		.byte	0x4
 275 0099 1F       		.byte	0x1f
 276 009a 48000000 		.4byte	0x48
 277 009e 03       		.uleb128 0x3
 278 009f 13030000 		.4byte	.LASF14
 279 00a3 04       		.byte	0x4
 280 00a4 20       		.byte	0x20
 281 00a5 5A000000 		.4byte	0x5a
 282 00a9 02       		.uleb128 0x2
 283 00aa 04       		.byte	0x4
 284 00ab 07       		.byte	0x7
 285 00ac C1020000 		.4byte	.LASF15
ARM GAS  /tmp/ccKVTFIs.s 			page 6


 286 00b0 02       		.uleb128 0x2
 287 00b1 01       		.byte	0x1
 288 00b2 08       		.byte	0x8
 289 00b3 D8020000 		.4byte	.LASF16
 290 00b7 02       		.uleb128 0x2
 291 00b8 08       		.byte	0x8
 292 00b9 04       		.byte	0x4
 293 00ba 33020000 		.4byte	.LASF17
 294 00be 02       		.uleb128 0x2
 295 00bf 04       		.byte	0x4
 296 00c0 04       		.byte	0x4
 297 00c1 CA010000 		.4byte	.LASF18
 298 00c5 02       		.uleb128 0x2
 299 00c6 08       		.byte	0x8
 300 00c7 04       		.byte	0x4
 301 00c8 37030000 		.4byte	.LASF19
 302 00cc 05       		.uleb128 0x5
 303 00cd 01       		.byte	0x1
 304 00ce 05       		.byte	0x5
 305 00cf 8901     		.2byte	0x189
 306 00d1 00010000 		.4byte	0x100
 307 00d5 06       		.uleb128 0x6
 308 00d6 ED020000 		.4byte	.LASF20
 309 00da 00       		.sleb128 0
 310 00db 06       		.uleb128 0x6
 311 00dc 45020000 		.4byte	.LASF21
 312 00e0 7F       		.sleb128 -1
 313 00e1 06       		.uleb128 0x6
 314 00e2 FE000000 		.4byte	.LASF22
 315 00e6 7E       		.sleb128 -2
 316 00e7 06       		.uleb128 0x6
 317 00e8 81020000 		.4byte	.LASF23
 318 00ec 7D       		.sleb128 -3
 319 00ed 06       		.uleb128 0x6
 320 00ee DD020000 		.4byte	.LASF24
 321 00f2 7C       		.sleb128 -4
 322 00f3 06       		.uleb128 0x6
 323 00f4 9F020000 		.4byte	.LASF25
 324 00f8 7B       		.sleb128 -5
 325 00f9 06       		.uleb128 0x6
 326 00fa EB010000 		.4byte	.LASF26
 327 00fe 7A       		.sleb128 -6
 328 00ff 00       		.byte	0
 329 0100 07       		.uleb128 0x7
 330 0101 08030000 		.4byte	.LASF27
 331 0105 05       		.byte	0x5
 332 0106 9101     		.2byte	0x191
 333 0108 CC000000 		.4byte	0xcc
 334 010c 07       		.uleb128 0x7
 335 010d C4010000 		.4byte	.LASF28
 336 0111 05       		.byte	0x5
 337 0112 9B01     		.2byte	0x19b
 338 0114 88000000 		.4byte	0x88
 339 0118 07       		.uleb128 0x7
 340 0119 D0010000 		.4byte	.LASF29
 341 011d 05       		.byte	0x5
 342 011e A001     		.2byte	0x1a0
ARM GAS  /tmp/ccKVTFIs.s 			page 7


 343 0120 93000000 		.4byte	0x93
 344 0124 08       		.uleb128 0x8
 345 0125 04       		.byte	0x4
 346 0126 0C010000 		.4byte	0x10c
 347 012a 09       		.uleb128 0x9
 348 012b 2B020000 		.4byte	.LASF40
 349 012f 02       		.byte	0x2
 350 0130 A506     		.2byte	0x6a5
 351 0132 9E000000 		.4byte	0x9e
 352 0136 03       		.byte	0x3
 353 0137 60010000 		.4byte	0x160
 354 013b 0A       		.uleb128 0xa
 355 013c 6F703100 		.ascii	"op1\000"
 356 0140 02       		.byte	0x2
 357 0141 A506     		.2byte	0x6a5
 358 0143 9E000000 		.4byte	0x9e
 359 0147 0A       		.uleb128 0xa
 360 0148 6F703200 		.ascii	"op2\000"
 361 014c 02       		.byte	0x2
 362 014d A506     		.2byte	0x6a5
 363 014f 9E000000 		.4byte	0x9e
 364 0153 0B       		.uleb128 0xb
 365 0154 98020000 		.4byte	.LASF41
 366 0158 02       		.byte	0x2
 367 0159 A706     		.2byte	0x6a7
 368 015b 9E000000 		.4byte	0x9e
 369 015f 00       		.byte	0
 370 0160 0C       		.uleb128 0xc
 371 0161 25030000 		.4byte	.LASF42
 372 0165 01       		.byte	0x1
 373 0166 41       		.byte	0x41
 374 0167 00000000 		.4byte	.LFB135
 375 016b A2000000 		.4byte	.LFE135-.LFB135
 376 016f 01       		.uleb128 0x1
 377 0170 9C       		.byte	0x9c
 378 0171 BF030000 		.4byte	0x3bf
 379 0175 0D       		.uleb128 0xd
 380 0176 4F030000 		.4byte	.LASF30
 381 017a 01       		.byte	0x1
 382 017b 42       		.byte	0x42
 383 017c 24010000 		.4byte	0x124
 384 0180 00000000 		.4byte	.LLST0
 385 0184 0D       		.uleb128 0xd
 386 0185 26020000 		.4byte	.LASF31
 387 0189 01       		.byte	0x1
 388 018a 43       		.byte	0x43
 389 018b 24010000 		.4byte	0x124
 390 018f 4E000000 		.4byte	.LLST1
 391 0193 0D       		.uleb128 0xd
 392 0194 54030000 		.4byte	.LASF32
 393 0198 01       		.byte	0x1
 394 0199 44       		.byte	0x44
 395 019a 9E000000 		.4byte	0x9e
 396 019e A7000000 		.4byte	.LLST2
 397 01a2 0E       		.uleb128 0xe
 398 01a3 5F030000 		.4byte	.LASF33
 399 01a7 01       		.byte	0x1
ARM GAS  /tmp/ccKVTFIs.s 			page 8


 400 01a8 46       		.byte	0x46
 401 01a9 18010000 		.4byte	0x118
 402 01ad D2000000 		.4byte	.LLST3
 403 01b1 0E       		.uleb128 0xe
 404 01b2 64030000 		.4byte	.LASF34
 405 01b6 01       		.byte	0x1
 406 01b7 46       		.byte	0x46
 407 01b8 18010000 		.4byte	0x118
 408 01bc F0000000 		.4byte	.LLST4
 409 01c0 0E       		.uleb128 0xe
 410 01c1 E4010000 		.4byte	.LASF35
 411 01c5 01       		.byte	0x1
 412 01c6 4B       		.byte	0x4b
 413 01c7 9E000000 		.4byte	0x9e
 414 01cb 03010000 		.4byte	.LLST5
 415 01cf 0F       		.uleb128 0xf
 416 01d0 696E3100 		.ascii	"in1\000"
 417 01d4 01       		.byte	0x1
 418 01d5 4C       		.byte	0x4c
 419 01d6 18010000 		.4byte	0x118
 420 01da 56010000 		.4byte	.LLST6
 421 01de 0F       		.uleb128 0xf
 422 01df 696E3200 		.ascii	"in2\000"
 423 01e3 01       		.byte	0x1
 424 01e4 4C       		.byte	0x4c
 425 01e5 18010000 		.4byte	0x118
 426 01e9 82010000 		.4byte	.LLST7
 427 01ed 0F       		.uleb128 0xf
 428 01ee 696E3300 		.ascii	"in3\000"
 429 01f2 01       		.byte	0x1
 430 01f3 4C       		.byte	0x4c
 431 01f4 18010000 		.4byte	0x118
 432 01f8 96010000 		.4byte	.LLST8
 433 01fc 0F       		.uleb128 0xf
 434 01fd 696E3400 		.ascii	"in4\000"
 435 0201 01       		.byte	0x1
 436 0202 4C       		.byte	0x4c
 437 0203 18010000 		.4byte	0x118
 438 0207 AA010000 		.4byte	.LLST9
 439 020b 0E       		.uleb128 0xe
 440 020c 69030000 		.4byte	.LASF36
 441 0210 01       		.byte	0x1
 442 0211 4D       		.byte	0x4d
 443 0212 18010000 		.4byte	0x118
 444 0216 BE010000 		.4byte	.LLST10
 445 021a 0E       		.uleb128 0xe
 446 021b 00000000 		.4byte	.LASF37
 447 021f 01       		.byte	0x1
 448 0220 4D       		.byte	0x4d
 449 0221 18010000 		.4byte	0x118
 450 0225 D1010000 		.4byte	.LLST11
 451 0229 10       		.uleb128 0x10
 452 022a 2A010000 		.4byte	0x12a
 453 022e 1E000000 		.4byte	.LBB12
 454 0232 04000000 		.4byte	.LBE12-.LBB12
 455 0236 01       		.byte	0x1
 456 0237 5E       		.byte	0x5e
ARM GAS  /tmp/ccKVTFIs.s 			page 9


 457 0238 62020000 		.4byte	0x262
 458 023c 11       		.uleb128 0x11
 459 023d 47010000 		.4byte	0x147
 460 0241 E4010000 		.4byte	.LLST12
 461 0245 11       		.uleb128 0x11
 462 0246 3B010000 		.4byte	0x13b
 463 024a E4010000 		.4byte	.LLST12
 464 024e 12       		.uleb128 0x12
 465 024f 1E000000 		.4byte	.LBB13
 466 0253 04000000 		.4byte	.LBE13-.LBB13
 467 0257 13       		.uleb128 0x13
 468 0258 53010000 		.4byte	0x153
 469 025c F8010000 		.4byte	.LLST14
 470 0260 00       		.byte	0
 471 0261 00       		.byte	0
 472 0262 10       		.uleb128 0x10
 473 0263 2A010000 		.4byte	0x12a
 474 0267 26000000 		.4byte	.LBB14
 475 026b 04000000 		.4byte	.LBE14-.LBB14
 476 026f 01       		.byte	0x1
 477 0270 5F       		.byte	0x5f
 478 0271 9B020000 		.4byte	0x29b
 479 0275 11       		.uleb128 0x11
 480 0276 47010000 		.4byte	0x147
 481 027a 0B020000 		.4byte	.LLST15
 482 027e 11       		.uleb128 0x11
 483 027f 3B010000 		.4byte	0x13b
 484 0283 0B020000 		.4byte	.LLST15
 485 0287 12       		.uleb128 0x12
 486 0288 26000000 		.4byte	.LBB15
 487 028c 04000000 		.4byte	.LBE15-.LBB15
 488 0290 13       		.uleb128 0x13
 489 0291 53010000 		.4byte	0x153
 490 0295 F0000000 		.4byte	.LLST4
 491 0299 00       		.byte	0
 492 029a 00       		.byte	0
 493 029b 10       		.uleb128 0x10
 494 029c 2A010000 		.4byte	0x12a
 495 02a0 2E000000 		.4byte	.LBB16
 496 02a4 04000000 		.4byte	.LBE16-.LBB16
 497 02a8 01       		.byte	0x1
 498 02a9 60       		.byte	0x60
 499 02aa D4020000 		.4byte	0x2d4
 500 02ae 11       		.uleb128 0x11
 501 02af 47010000 		.4byte	0x147
 502 02b3 1F020000 		.4byte	.LLST18
 503 02b7 11       		.uleb128 0x11
 504 02b8 3B010000 		.4byte	0x13b
 505 02bc 1F020000 		.4byte	.LLST18
 506 02c0 12       		.uleb128 0x12
 507 02c1 2E000000 		.4byte	.LBB17
 508 02c5 04000000 		.4byte	.LBE17-.LBB17
 509 02c9 13       		.uleb128 0x13
 510 02ca 53010000 		.4byte	0x153
 511 02ce BE010000 		.4byte	.LLST10
 512 02d2 00       		.byte	0
 513 02d3 00       		.byte	0
ARM GAS  /tmp/ccKVTFIs.s 			page 10


 514 02d4 10       		.uleb128 0x10
 515 02d5 2A010000 		.4byte	0x12a
 516 02d9 36000000 		.4byte	.LBB18
 517 02dd 04000000 		.4byte	.LBE18-.LBB18
 518 02e1 01       		.byte	0x1
 519 02e2 61       		.byte	0x61
 520 02e3 0D030000 		.4byte	0x30d
 521 02e7 11       		.uleb128 0x11
 522 02e8 47010000 		.4byte	0x147
 523 02ec 33020000 		.4byte	.LLST21
 524 02f0 11       		.uleb128 0x11
 525 02f1 3B010000 		.4byte	0x13b
 526 02f5 33020000 		.4byte	.LLST21
 527 02f9 12       		.uleb128 0x12
 528 02fa 36000000 		.4byte	.LBB19
 529 02fe 04000000 		.4byte	.LBE19-.LBB19
 530 0302 13       		.uleb128 0x13
 531 0303 53010000 		.4byte	0x153
 532 0307 D1010000 		.4byte	.LLST11
 533 030b 00       		.byte	0
 534 030c 00       		.byte	0
 535 030d 10       		.uleb128 0x10
 536 030e 2A010000 		.4byte	0x12a
 537 0312 88000000 		.4byte	.LBB20
 538 0316 04000000 		.4byte	.LBE20-.LBB20
 539 031a 01       		.byte	0x1
 540 031b 75       		.byte	0x75
 541 031c 46030000 		.4byte	0x346
 542 0320 11       		.uleb128 0x11
 543 0321 47010000 		.4byte	0x147
 544 0325 47020000 		.4byte	.LLST24
 545 0329 11       		.uleb128 0x11
 546 032a 3B010000 		.4byte	0x13b
 547 032e 47020000 		.4byte	.LLST24
 548 0332 12       		.uleb128 0x12
 549 0333 88000000 		.4byte	.LBB21
 550 0337 04000000 		.4byte	.LBE21-.LBB21
 551 033b 13       		.uleb128 0x13
 552 033c 53010000 		.4byte	0x153
 553 0340 66020000 		.4byte	.LLST26
 554 0344 00       		.byte	0
 555 0345 00       		.byte	0
 556 0346 14       		.uleb128 0x14
 557 0347 42000000 		.4byte	.LVL12
 558 034b BF030000 		.4byte	0x3bf
 559 034f 5A030000 		.4byte	0x35a
 560 0353 15       		.uleb128 0x15
 561 0354 01       		.uleb128 0x1
 562 0355 51       		.byte	0x51
 563 0356 02       		.uleb128 0x2
 564 0357 74       		.byte	0x74
 565 0358 00       		.sleb128 0
 566 0359 00       		.byte	0
 567 035a 14       		.uleb128 0x14
 568 035b 4C000000 		.4byte	.LVL13
 569 035f BF030000 		.4byte	0x3bf
 570 0363 76030000 		.4byte	0x376
ARM GAS  /tmp/ccKVTFIs.s 			page 11


 571 0367 15       		.uleb128 0x15
 572 0368 01       		.uleb128 0x1
 573 0369 51       		.byte	0x51
 574 036a 02       		.uleb128 0x2
 575 036b 74       		.byte	0x74
 576 036c 02       		.sleb128 2
 577 036d 15       		.uleb128 0x15
 578 036e 01       		.uleb128 0x1
 579 036f 50       		.byte	0x50
 580 0370 04       		.uleb128 0x4
 581 0371 78       		.byte	0x78
 582 0372 00       		.sleb128 0
 583 0373 41       		.byte	0x41
 584 0374 26       		.byte	0x26
 585 0375 00       		.byte	0
 586 0376 14       		.uleb128 0x14
 587 0377 5A000000 		.4byte	.LVL15
 588 037b BF030000 		.4byte	0x3bf
 589 037f 92030000 		.4byte	0x392
 590 0383 15       		.uleb128 0x15
 591 0384 01       		.uleb128 0x1
 592 0385 51       		.byte	0x51
 593 0386 02       		.uleb128 0x2
 594 0387 74       		.byte	0x74
 595 0388 04       		.sleb128 4
 596 0389 15       		.uleb128 0x15
 597 038a 01       		.uleb128 0x1
 598 038b 50       		.byte	0x50
 599 038c 04       		.uleb128 0x4
 600 038d 7A       		.byte	0x7a
 601 038e 00       		.sleb128 0
 602 038f 41       		.byte	0x41
 603 0390 26       		.byte	0x26
 604 0391 00       		.byte	0
 605 0392 14       		.uleb128 0x14
 606 0393 64000000 		.4byte	.LVL16
 607 0397 BF030000 		.4byte	0x3bf
 608 039b AE030000 		.4byte	0x3ae
 609 039f 15       		.uleb128 0x15
 610 03a0 01       		.uleb128 0x1
 611 03a1 51       		.byte	0x51
 612 03a2 02       		.uleb128 0x2
 613 03a3 78       		.byte	0x78
 614 03a4 00       		.sleb128 0
 615 03a5 15       		.uleb128 0x15
 616 03a6 01       		.uleb128 0x1
 617 03a7 50       		.byte	0x50
 618 03a8 04       		.uleb128 0x4
 619 03a9 79       		.byte	0x79
 620 03aa 00       		.sleb128 0
 621 03ab 41       		.byte	0x41
 622 03ac 26       		.byte	0x26
 623 03ad 00       		.byte	0
 624 03ae 16       		.uleb128 0x16
 625 03af 94000000 		.4byte	.LVL26
 626 03b3 BF030000 		.4byte	0x3bf
 627 03b7 15       		.uleb128 0x15
ARM GAS  /tmp/ccKVTFIs.s 			page 12


 628 03b8 01       		.uleb128 0x1
 629 03b9 51       		.byte	0x51
 630 03ba 02       		.uleb128 0x2
 631 03bb 76       		.byte	0x76
 632 03bc 00       		.sleb128 0
 633 03bd 00       		.byte	0
 634 03be 00       		.byte	0
 635 03bf 17       		.uleb128 0x17
 636 03c0 B7010000 		.4byte	.LASF43
 637 03c4 05       		.byte	0x5
 638 03c5 E716     		.2byte	0x16e7
 639 03c7 00010000 		.4byte	0x100
 640 03cb 18       		.uleb128 0x18
 641 03cc 0C010000 		.4byte	0x10c
 642 03d0 18       		.uleb128 0x18
 643 03d1 24010000 		.4byte	0x124
 644 03d5 00       		.byte	0
 645 03d6 00       		.byte	0
 646              		.section	.debug_abbrev,"",%progbits
 647              	.Ldebug_abbrev0:
 648 0000 01       		.uleb128 0x1
 649 0001 11       		.uleb128 0x11
 650 0002 01       		.byte	0x1
 651 0003 25       		.uleb128 0x25
 652 0004 0E       		.uleb128 0xe
 653 0005 13       		.uleb128 0x13
 654 0006 0B       		.uleb128 0xb
 655 0007 03       		.uleb128 0x3
 656 0008 0E       		.uleb128 0xe
 657 0009 11       		.uleb128 0x11
 658 000a 01       		.uleb128 0x1
 659 000b 12       		.uleb128 0x12
 660 000c 06       		.uleb128 0x6
 661 000d 10       		.uleb128 0x10
 662 000e 17       		.uleb128 0x17
 663 000f 00       		.byte	0
 664 0010 00       		.byte	0
 665 0011 02       		.uleb128 0x2
 666 0012 24       		.uleb128 0x24
 667 0013 00       		.byte	0
 668 0014 0B       		.uleb128 0xb
 669 0015 0B       		.uleb128 0xb
 670 0016 3E       		.uleb128 0x3e
 671 0017 0B       		.uleb128 0xb
 672 0018 03       		.uleb128 0x3
 673 0019 0E       		.uleb128 0xe
 674 001a 00       		.byte	0
 675 001b 00       		.byte	0
 676 001c 03       		.uleb128 0x3
 677 001d 16       		.uleb128 0x16
 678 001e 00       		.byte	0
 679 001f 03       		.uleb128 0x3
 680 0020 0E       		.uleb128 0xe
 681 0021 3A       		.uleb128 0x3a
 682 0022 0B       		.uleb128 0xb
 683 0023 3B       		.uleb128 0x3b
 684 0024 0B       		.uleb128 0xb
ARM GAS  /tmp/ccKVTFIs.s 			page 13


 685 0025 49       		.uleb128 0x49
 686 0026 13       		.uleb128 0x13
 687 0027 00       		.byte	0
 688 0028 00       		.byte	0
 689 0029 04       		.uleb128 0x4
 690 002a 24       		.uleb128 0x24
 691 002b 00       		.byte	0
 692 002c 0B       		.uleb128 0xb
 693 002d 0B       		.uleb128 0xb
 694 002e 3E       		.uleb128 0x3e
 695 002f 0B       		.uleb128 0xb
 696 0030 03       		.uleb128 0x3
 697 0031 08       		.uleb128 0x8
 698 0032 00       		.byte	0
 699 0033 00       		.byte	0
 700 0034 05       		.uleb128 0x5
 701 0035 04       		.uleb128 0x4
 702 0036 01       		.byte	0x1
 703 0037 0B       		.uleb128 0xb
 704 0038 0B       		.uleb128 0xb
 705 0039 3A       		.uleb128 0x3a
 706 003a 0B       		.uleb128 0xb
 707 003b 3B       		.uleb128 0x3b
 708 003c 05       		.uleb128 0x5
 709 003d 01       		.uleb128 0x1
 710 003e 13       		.uleb128 0x13
 711 003f 00       		.byte	0
 712 0040 00       		.byte	0
 713 0041 06       		.uleb128 0x6
 714 0042 28       		.uleb128 0x28
 715 0043 00       		.byte	0
 716 0044 03       		.uleb128 0x3
 717 0045 0E       		.uleb128 0xe
 718 0046 1C       		.uleb128 0x1c
 719 0047 0D       		.uleb128 0xd
 720 0048 00       		.byte	0
 721 0049 00       		.byte	0
 722 004a 07       		.uleb128 0x7
 723 004b 16       		.uleb128 0x16
 724 004c 00       		.byte	0
 725 004d 03       		.uleb128 0x3
 726 004e 0E       		.uleb128 0xe
 727 004f 3A       		.uleb128 0x3a
 728 0050 0B       		.uleb128 0xb
 729 0051 3B       		.uleb128 0x3b
 730 0052 05       		.uleb128 0x5
 731 0053 49       		.uleb128 0x49
 732 0054 13       		.uleb128 0x13
 733 0055 00       		.byte	0
 734 0056 00       		.byte	0
 735 0057 08       		.uleb128 0x8
 736 0058 0F       		.uleb128 0xf
 737 0059 00       		.byte	0
 738 005a 0B       		.uleb128 0xb
 739 005b 0B       		.uleb128 0xb
 740 005c 49       		.uleb128 0x49
 741 005d 13       		.uleb128 0x13
ARM GAS  /tmp/ccKVTFIs.s 			page 14


 742 005e 00       		.byte	0
 743 005f 00       		.byte	0
 744 0060 09       		.uleb128 0x9
 745 0061 2E       		.uleb128 0x2e
 746 0062 01       		.byte	0x1
 747 0063 03       		.uleb128 0x3
 748 0064 0E       		.uleb128 0xe
 749 0065 3A       		.uleb128 0x3a
 750 0066 0B       		.uleb128 0xb
 751 0067 3B       		.uleb128 0x3b
 752 0068 05       		.uleb128 0x5
 753 0069 27       		.uleb128 0x27
 754 006a 19       		.uleb128 0x19
 755 006b 49       		.uleb128 0x49
 756 006c 13       		.uleb128 0x13
 757 006d 20       		.uleb128 0x20
 758 006e 0B       		.uleb128 0xb
 759 006f 01       		.uleb128 0x1
 760 0070 13       		.uleb128 0x13
 761 0071 00       		.byte	0
 762 0072 00       		.byte	0
 763 0073 0A       		.uleb128 0xa
 764 0074 05       		.uleb128 0x5
 765 0075 00       		.byte	0
 766 0076 03       		.uleb128 0x3
 767 0077 08       		.uleb128 0x8
 768 0078 3A       		.uleb128 0x3a
 769 0079 0B       		.uleb128 0xb
 770 007a 3B       		.uleb128 0x3b
 771 007b 05       		.uleb128 0x5
 772 007c 49       		.uleb128 0x49
 773 007d 13       		.uleb128 0x13
 774 007e 00       		.byte	0
 775 007f 00       		.byte	0
 776 0080 0B       		.uleb128 0xb
 777 0081 34       		.uleb128 0x34
 778 0082 00       		.byte	0
 779 0083 03       		.uleb128 0x3
 780 0084 0E       		.uleb128 0xe
 781 0085 3A       		.uleb128 0x3a
 782 0086 0B       		.uleb128 0xb
 783 0087 3B       		.uleb128 0x3b
 784 0088 05       		.uleb128 0x5
 785 0089 49       		.uleb128 0x49
 786 008a 13       		.uleb128 0x13
 787 008b 00       		.byte	0
 788 008c 00       		.byte	0
 789 008d 0C       		.uleb128 0xc
 790 008e 2E       		.uleb128 0x2e
 791 008f 01       		.byte	0x1
 792 0090 3F       		.uleb128 0x3f
 793 0091 19       		.uleb128 0x19
 794 0092 03       		.uleb128 0x3
 795 0093 0E       		.uleb128 0xe
 796 0094 3A       		.uleb128 0x3a
 797 0095 0B       		.uleb128 0xb
 798 0096 3B       		.uleb128 0x3b
ARM GAS  /tmp/ccKVTFIs.s 			page 15


 799 0097 0B       		.uleb128 0xb
 800 0098 27       		.uleb128 0x27
 801 0099 19       		.uleb128 0x19
 802 009a 11       		.uleb128 0x11
 803 009b 01       		.uleb128 0x1
 804 009c 12       		.uleb128 0x12
 805 009d 06       		.uleb128 0x6
 806 009e 40       		.uleb128 0x40
 807 009f 18       		.uleb128 0x18
 808 00a0 9742     		.uleb128 0x2117
 809 00a2 19       		.uleb128 0x19
 810 00a3 01       		.uleb128 0x1
 811 00a4 13       		.uleb128 0x13
 812 00a5 00       		.byte	0
 813 00a6 00       		.byte	0
 814 00a7 0D       		.uleb128 0xd
 815 00a8 05       		.uleb128 0x5
 816 00a9 00       		.byte	0
 817 00aa 03       		.uleb128 0x3
 818 00ab 0E       		.uleb128 0xe
 819 00ac 3A       		.uleb128 0x3a
 820 00ad 0B       		.uleb128 0xb
 821 00ae 3B       		.uleb128 0x3b
 822 00af 0B       		.uleb128 0xb
 823 00b0 49       		.uleb128 0x49
 824 00b1 13       		.uleb128 0x13
 825 00b2 02       		.uleb128 0x2
 826 00b3 17       		.uleb128 0x17
 827 00b4 00       		.byte	0
 828 00b5 00       		.byte	0
 829 00b6 0E       		.uleb128 0xe
 830 00b7 34       		.uleb128 0x34
 831 00b8 00       		.byte	0
 832 00b9 03       		.uleb128 0x3
 833 00ba 0E       		.uleb128 0xe
 834 00bb 3A       		.uleb128 0x3a
 835 00bc 0B       		.uleb128 0xb
 836 00bd 3B       		.uleb128 0x3b
 837 00be 0B       		.uleb128 0xb
 838 00bf 49       		.uleb128 0x49
 839 00c0 13       		.uleb128 0x13
 840 00c1 02       		.uleb128 0x2
 841 00c2 17       		.uleb128 0x17
 842 00c3 00       		.byte	0
 843 00c4 00       		.byte	0
 844 00c5 0F       		.uleb128 0xf
 845 00c6 34       		.uleb128 0x34
 846 00c7 00       		.byte	0
 847 00c8 03       		.uleb128 0x3
 848 00c9 08       		.uleb128 0x8
 849 00ca 3A       		.uleb128 0x3a
 850 00cb 0B       		.uleb128 0xb
 851 00cc 3B       		.uleb128 0x3b
 852 00cd 0B       		.uleb128 0xb
 853 00ce 49       		.uleb128 0x49
 854 00cf 13       		.uleb128 0x13
 855 00d0 02       		.uleb128 0x2
ARM GAS  /tmp/ccKVTFIs.s 			page 16


 856 00d1 17       		.uleb128 0x17
 857 00d2 00       		.byte	0
 858 00d3 00       		.byte	0
 859 00d4 10       		.uleb128 0x10
 860 00d5 1D       		.uleb128 0x1d
 861 00d6 01       		.byte	0x1
 862 00d7 31       		.uleb128 0x31
 863 00d8 13       		.uleb128 0x13
 864 00d9 11       		.uleb128 0x11
 865 00da 01       		.uleb128 0x1
 866 00db 12       		.uleb128 0x12
 867 00dc 06       		.uleb128 0x6
 868 00dd 58       		.uleb128 0x58
 869 00de 0B       		.uleb128 0xb
 870 00df 59       		.uleb128 0x59
 871 00e0 0B       		.uleb128 0xb
 872 00e1 01       		.uleb128 0x1
 873 00e2 13       		.uleb128 0x13
 874 00e3 00       		.byte	0
 875 00e4 00       		.byte	0
 876 00e5 11       		.uleb128 0x11
 877 00e6 05       		.uleb128 0x5
 878 00e7 00       		.byte	0
 879 00e8 31       		.uleb128 0x31
 880 00e9 13       		.uleb128 0x13
 881 00ea 02       		.uleb128 0x2
 882 00eb 17       		.uleb128 0x17
 883 00ec 00       		.byte	0
 884 00ed 00       		.byte	0
 885 00ee 12       		.uleb128 0x12
 886 00ef 0B       		.uleb128 0xb
 887 00f0 01       		.byte	0x1
 888 00f1 11       		.uleb128 0x11
 889 00f2 01       		.uleb128 0x1
 890 00f3 12       		.uleb128 0x12
 891 00f4 06       		.uleb128 0x6
 892 00f5 00       		.byte	0
 893 00f6 00       		.byte	0
 894 00f7 13       		.uleb128 0x13
 895 00f8 34       		.uleb128 0x34
 896 00f9 00       		.byte	0
 897 00fa 31       		.uleb128 0x31
 898 00fb 13       		.uleb128 0x13
 899 00fc 02       		.uleb128 0x2
 900 00fd 17       		.uleb128 0x17
 901 00fe 00       		.byte	0
 902 00ff 00       		.byte	0
 903 0100 14       		.uleb128 0x14
 904 0101 898201   		.uleb128 0x4109
 905 0104 01       		.byte	0x1
 906 0105 11       		.uleb128 0x11
 907 0106 01       		.uleb128 0x1
 908 0107 31       		.uleb128 0x31
 909 0108 13       		.uleb128 0x13
 910 0109 01       		.uleb128 0x1
 911 010a 13       		.uleb128 0x13
 912 010b 00       		.byte	0
ARM GAS  /tmp/ccKVTFIs.s 			page 17


 913 010c 00       		.byte	0
 914 010d 15       		.uleb128 0x15
 915 010e 8A8201   		.uleb128 0x410a
 916 0111 00       		.byte	0
 917 0112 02       		.uleb128 0x2
 918 0113 18       		.uleb128 0x18
 919 0114 9142     		.uleb128 0x2111
 920 0116 18       		.uleb128 0x18
 921 0117 00       		.byte	0
 922 0118 00       		.byte	0
 923 0119 16       		.uleb128 0x16
 924 011a 898201   		.uleb128 0x4109
 925 011d 01       		.byte	0x1
 926 011e 11       		.uleb128 0x11
 927 011f 01       		.uleb128 0x1
 928 0120 31       		.uleb128 0x31
 929 0121 13       		.uleb128 0x13
 930 0122 00       		.byte	0
 931 0123 00       		.byte	0
 932 0124 17       		.uleb128 0x17
 933 0125 2E       		.uleb128 0x2e
 934 0126 01       		.byte	0x1
 935 0127 3F       		.uleb128 0x3f
 936 0128 19       		.uleb128 0x19
 937 0129 03       		.uleb128 0x3
 938 012a 0E       		.uleb128 0xe
 939 012b 3A       		.uleb128 0x3a
 940 012c 0B       		.uleb128 0xb
 941 012d 3B       		.uleb128 0x3b
 942 012e 05       		.uleb128 0x5
 943 012f 27       		.uleb128 0x27
 944 0130 19       		.uleb128 0x19
 945 0131 49       		.uleb128 0x49
 946 0132 13       		.uleb128 0x13
 947 0133 3C       		.uleb128 0x3c
 948 0134 19       		.uleb128 0x19
 949 0135 00       		.byte	0
 950 0136 00       		.byte	0
 951 0137 18       		.uleb128 0x18
 952 0138 05       		.uleb128 0x5
 953 0139 00       		.byte	0
 954 013a 49       		.uleb128 0x49
 955 013b 13       		.uleb128 0x13
 956 013c 00       		.byte	0
 957 013d 00       		.byte	0
 958 013e 00       		.byte	0
 959              		.section	.debug_loc,"",%progbits
 960              	.Ldebug_loc0:
 961              	.LLST0:
 962 0000 00000000 		.4byte	.LVL0-.Ltext0
 963 0004 1A000000 		.4byte	.LVL2-.Ltext0
 964 0008 0100     		.2byte	0x1
 965 000a 50       		.byte	0x50
 966 000b 1A000000 		.4byte	.LVL2-.Ltext0
 967 000f 6C000000 		.4byte	.LVL18-.Ltext0
 968 0013 0100     		.2byte	0x1
 969 0015 55       		.byte	0x55
ARM GAS  /tmp/ccKVTFIs.s 			page 18


 970 0016 6C000000 		.4byte	.LVL18-.Ltext0
 971 001a 7C000000 		.4byte	.LVL20-.Ltext0
 972 001e 0300     		.2byte	0x3
 973 0020 75       		.byte	0x75
 974 0021 70       		.sleb128 -16
 975 0022 9F       		.byte	0x9f
 976 0023 7C000000 		.4byte	.LVL20-.Ltext0
 977 0027 88000000 		.4byte	.LVL23-.Ltext0
 978 002b 0100     		.2byte	0x1
 979 002d 57       		.byte	0x57
 980 002e 88000000 		.4byte	.LVL23-.Ltext0
 981 0032 9A000000 		.4byte	.LVL28-.Ltext0
 982 0036 0300     		.2byte	0x3
 983 0038 77       		.byte	0x77
 984 0039 7C       		.sleb128 -4
 985 003a 9F       		.byte	0x9f
 986 003b 9A000000 		.4byte	.LVL28-.Ltext0
 987 003f A2000000 		.4byte	.LFE135-.Ltext0
 988 0043 0100     		.2byte	0x1
 989 0045 57       		.byte	0x57
 990 0046 00000000 		.4byte	0
 991 004a 00000000 		.4byte	0
 992              	.LLST1:
 993 004e 00000000 		.4byte	.LVL0-.Ltext0
 994 0052 1A000000 		.4byte	.LVL2-.Ltext0
 995 0056 0100     		.2byte	0x1
 996 0058 51       		.byte	0x51
 997 0059 1A000000 		.4byte	.LVL2-.Ltext0
 998 005d 3A000000 		.4byte	.LVL10-.Ltext0
 999 0061 0100     		.2byte	0x1
 1000 0063 54       		.byte	0x54
 1001 0064 3A000000 		.4byte	.LVL10-.Ltext0
 1002 0068 42000000 		.4byte	.LVL12-.Ltext0
 1003 006c 0300     		.2byte	0x3
 1004 006e 74       		.byte	0x74
 1005 006f 02       		.sleb128 2
 1006 0070 9F       		.byte	0x9f
 1007 0071 42000000 		.4byte	.LVL12-.Ltext0
 1008 0075 50000000 		.4byte	.LVL14-.Ltext0
 1009 0079 0300     		.2byte	0x3
 1010 007b 74       		.byte	0x74
 1011 007c 04       		.sleb128 4
 1012 007d 9F       		.byte	0x9f
 1013 007e 50000000 		.4byte	.LVL14-.Ltext0
 1014 0082 70000000 		.4byte	.LVL19-.Ltext0
 1015 0086 0100     		.2byte	0x1
 1016 0088 58       		.byte	0x58
 1017 0089 70000000 		.4byte	.LVL19-.Ltext0
 1018 008d 7C000000 		.4byte	.LVL20-.Ltext0
 1019 0091 0100     		.2byte	0x1
 1020 0093 54       		.byte	0x54
 1021 0094 7C000000 		.4byte	.LVL20-.Ltext0
 1022 0098 A2000000 		.4byte	.LFE135-.Ltext0
 1023 009c 0100     		.2byte	0x1
 1024 009e 56       		.byte	0x56
 1025 009f 00000000 		.4byte	0
 1026 00a3 00000000 		.4byte	0
ARM GAS  /tmp/ccKVTFIs.s 			page 19


 1027              	.LLST2:
 1028 00a7 00000000 		.4byte	.LVL0-.Ltext0
 1029 00ab 1A000000 		.4byte	.LVL2-.Ltext0
 1030 00af 0100     		.2byte	0x1
 1031 00b1 52       		.byte	0x52
 1032 00b2 1A000000 		.4byte	.LVL2-.Ltext0
 1033 00b6 9E000000 		.4byte	.LVL29-.Ltext0
 1034 00ba 0200     		.2byte	0x2
 1035 00bc 7D       		.byte	0x7d
 1036 00bd 00       		.sleb128 0
 1037 00be 9E000000 		.4byte	.LVL29-.Ltext0
 1038 00c2 A2000000 		.4byte	.LFE135-.Ltext0
 1039 00c6 0200     		.2byte	0x2
 1040 00c8 91       		.byte	0x91
 1041 00c9 50       		.sleb128 -48
 1042 00ca 00000000 		.4byte	0
 1043 00ce 00000000 		.4byte	0
 1044              	.LLST3:
 1045 00d2 22000000 		.4byte	.LVL4-.Ltext0
 1046 00d6 3E000000 		.4byte	.LVL11-.Ltext0
 1047 00da 0100     		.2byte	0x1
 1048 00dc 50       		.byte	0x50
 1049 00dd 8C000000 		.4byte	.LVL24-.Ltext0
 1050 00e1 90000000 		.4byte	.LVL25-.Ltext0
 1051 00e5 0100     		.2byte	0x1
 1052 00e7 50       		.byte	0x50
 1053 00e8 00000000 		.4byte	0
 1054 00ec 00000000 		.4byte	0
 1055              	.LLST4:
 1056 00f0 2A000000 		.4byte	.LVL6-.Ltext0
 1057 00f4 50000000 		.4byte	.LVL14-.Ltext0
 1058 00f8 0100     		.2byte	0x1
 1059 00fa 58       		.byte	0x58
 1060 00fb 00000000 		.4byte	0
 1061 00ff 00000000 		.4byte	0
 1062              	.LLST5:
 1063 0103 0C000000 		.4byte	.LVL1-.Ltext0
 1064 0107 1A000000 		.4byte	.LVL2-.Ltext0
 1065 010b 0100     		.2byte	0x1
 1066 010d 53       		.byte	0x53
 1067 010e 1A000000 		.4byte	.LVL2-.Ltext0
 1068 0112 68000000 		.4byte	.LVL17-.Ltext0
 1069 0116 0100     		.2byte	0x1
 1070 0118 5B       		.byte	0x5b
 1071 0119 68000000 		.4byte	.LVL17-.Ltext0
 1072 011d 70000000 		.4byte	.LVL19-.Ltext0
 1073 0121 0300     		.2byte	0x3
 1074 0123 7B       		.byte	0x7b
 1075 0124 01       		.sleb128 1
 1076 0125 9F       		.byte	0x9f
 1077 0126 7C000000 		.4byte	.LVL20-.Ltext0
 1078 012a 82000000 		.4byte	.LVL21-.Ltext0
 1079 012e 0600     		.2byte	0x6
 1080 0130 7D       		.byte	0x7d
 1081 0131 00       		.sleb128 0
 1082 0132 06       		.byte	0x6
 1083 0133 33       		.byte	0x33
ARM GAS  /tmp/ccKVTFIs.s 			page 20


 1084 0134 1A       		.byte	0x1a
 1085 0135 9F       		.byte	0x9f
 1086 0136 82000000 		.4byte	.LVL21-.Ltext0
 1087 013a 96000000 		.4byte	.LVL27-.Ltext0
 1088 013e 0100     		.2byte	0x1
 1089 0140 54       		.byte	0x54
 1090 0141 96000000 		.4byte	.LVL27-.Ltext0
 1091 0145 9A000000 		.4byte	.LVL28-.Ltext0
 1092 0149 0300     		.2byte	0x3
 1093 014b 74       		.byte	0x74
 1094 014c 01       		.sleb128 1
 1095 014d 9F       		.byte	0x9f
 1096 014e 00000000 		.4byte	0
 1097 0152 00000000 		.4byte	0
 1098              	.LLST6:
 1099 0156 1A000000 		.4byte	.LVL2-.Ltext0
 1100 015a 41000000 		.4byte	.LVL12-1-.Ltext0
 1101 015e 0200     		.2byte	0x2
 1102 0160 75       		.byte	0x75
 1103 0161 70       		.sleb128 -16
 1104 0162 84000000 		.4byte	.LVL22-.Ltext0
 1105 0166 88000000 		.4byte	.LVL23-.Ltext0
 1106 016a 0200     		.2byte	0x2
 1107 016c 77       		.byte	0x77
 1108 016d 7C       		.sleb128 -4
 1109 016e 88000000 		.4byte	.LVL23-.Ltext0
 1110 0172 93000000 		.4byte	.LVL26-1-.Ltext0
 1111 0176 0200     		.2byte	0x2
 1112 0178 77       		.byte	0x77
 1113 0179 78       		.sleb128 -8
 1114 017a 00000000 		.4byte	0
 1115 017e 00000000 		.4byte	0
 1116              	.LLST7:
 1117 0182 1A000000 		.4byte	.LVL2-.Ltext0
 1118 0186 41000000 		.4byte	.LVL12-1-.Ltext0
 1119 018a 0200     		.2byte	0x2
 1120 018c 75       		.byte	0x75
 1121 018d 74       		.sleb128 -12
 1122 018e 00000000 		.4byte	0
 1123 0192 00000000 		.4byte	0
 1124              	.LLST8:
 1125 0196 1A000000 		.4byte	.LVL2-.Ltext0
 1126 019a 41000000 		.4byte	.LVL12-1-.Ltext0
 1127 019e 0200     		.2byte	0x2
 1128 01a0 75       		.byte	0x75
 1129 01a1 78       		.sleb128 -8
 1130 01a2 00000000 		.4byte	0
 1131 01a6 00000000 		.4byte	0
 1132              	.LLST9:
 1133 01aa 1A000000 		.4byte	.LVL2-.Ltext0
 1134 01ae 41000000 		.4byte	.LVL12-1-.Ltext0
 1135 01b2 0200     		.2byte	0x2
 1136 01b4 75       		.byte	0x75
 1137 01b5 7C       		.sleb128 -4
 1138 01b6 00000000 		.4byte	0
 1139 01ba 00000000 		.4byte	0
 1140              	.LLST10:
ARM GAS  /tmp/ccKVTFIs.s 			page 21


 1141 01be 32000000 		.4byte	.LVL8-.Ltext0
 1142 01c2 7C000000 		.4byte	.LVL20-.Ltext0
 1143 01c6 0100     		.2byte	0x1
 1144 01c8 5A       		.byte	0x5a
 1145 01c9 00000000 		.4byte	0
 1146 01cd 00000000 		.4byte	0
 1147              	.LLST11:
 1148 01d1 3A000000 		.4byte	.LVL10-.Ltext0
 1149 01d5 7C000000 		.4byte	.LVL20-.Ltext0
 1150 01d9 0100     		.2byte	0x1
 1151 01db 59       		.byte	0x59
 1152 01dc 00000000 		.4byte	0
 1153 01e0 00000000 		.4byte	0
 1154              	.LLST12:
 1155 01e4 1E000000 		.4byte	.LVL3-.Ltext0
 1156 01e8 41000000 		.4byte	.LVL12-1-.Ltext0
 1157 01ec 0200     		.2byte	0x2
 1158 01ee 75       		.byte	0x75
 1159 01ef 70       		.sleb128 -16
 1160 01f0 00000000 		.4byte	0
 1161 01f4 00000000 		.4byte	0
 1162              	.LLST14:
 1163 01f8 22000000 		.4byte	.LVL4-.Ltext0
 1164 01fc 3E000000 		.4byte	.LVL11-.Ltext0
 1165 0200 0100     		.2byte	0x1
 1166 0202 50       		.byte	0x50
 1167 0203 00000000 		.4byte	0
 1168 0207 00000000 		.4byte	0
 1169              	.LLST15:
 1170 020b 26000000 		.4byte	.LVL5-.Ltext0
 1171 020f 41000000 		.4byte	.LVL12-1-.Ltext0
 1172 0213 0200     		.2byte	0x2
 1173 0215 75       		.byte	0x75
 1174 0216 74       		.sleb128 -12
 1175 0217 00000000 		.4byte	0
 1176 021b 00000000 		.4byte	0
 1177              	.LLST18:
 1178 021f 2E000000 		.4byte	.LVL7-.Ltext0
 1179 0223 41000000 		.4byte	.LVL12-1-.Ltext0
 1180 0227 0200     		.2byte	0x2
 1181 0229 75       		.byte	0x75
 1182 022a 78       		.sleb128 -8
 1183 022b 00000000 		.4byte	0
 1184 022f 00000000 		.4byte	0
 1185              	.LLST21:
 1186 0233 36000000 		.4byte	.LVL9-.Ltext0
 1187 0237 41000000 		.4byte	.LVL12-1-.Ltext0
 1188 023b 0200     		.2byte	0x2
 1189 023d 75       		.byte	0x75
 1190 023e 7C       		.sleb128 -4
 1191 023f 00000000 		.4byte	0
 1192 0243 00000000 		.4byte	0
 1193              	.LLST24:
 1194 0247 88000000 		.4byte	.LVL23-.Ltext0
 1195 024b 8C000000 		.4byte	.LVL24-.Ltext0
 1196 024f 0100     		.2byte	0x1
 1197 0251 50       		.byte	0x50
ARM GAS  /tmp/ccKVTFIs.s 			page 22


 1198 0252 8C000000 		.4byte	.LVL24-.Ltext0
 1199 0256 93000000 		.4byte	.LVL26-1-.Ltext0
 1200 025a 0200     		.2byte	0x2
 1201 025c 77       		.byte	0x77
 1202 025d 7C       		.sleb128 -4
 1203 025e 00000000 		.4byte	0
 1204 0262 00000000 		.4byte	0
 1205              	.LLST26:
 1206 0266 8C000000 		.4byte	.LVL24-.Ltext0
 1207 026a 90000000 		.4byte	.LVL25-.Ltext0
 1208 026e 0100     		.2byte	0x1
 1209 0270 50       		.byte	0x50
 1210 0271 00000000 		.4byte	0
 1211 0275 00000000 		.4byte	0
 1212              		.section	.debug_aranges,"",%progbits
 1213 0000 1C000000 		.4byte	0x1c
 1214 0004 0200     		.2byte	0x2
 1215 0006 00000000 		.4byte	.Ldebug_info0
 1216 000a 04       		.byte	0x4
 1217 000b 00       		.byte	0
 1218 000c 0000     		.2byte	0
 1219 000e 0000     		.2byte	0
 1220 0010 00000000 		.4byte	.Ltext0
 1221 0014 A2000000 		.4byte	.Letext0-.Ltext0
 1222 0018 00000000 		.4byte	0
 1223 001c 00000000 		.4byte	0
 1224              		.section	.debug_line,"",%progbits
 1225              	.Ldebug_line0:
 1226 0000 ED020000 		.section	.debug_str,"MS",%progbits,1
 1226      02007B02 
 1226      00000201 
 1226      FB0E0D00 
 1226      01010101 
 1227              	.LASF37:
 1228 0000 61636333 		.ascii	"acc3\000"
 1228      00
 1229              	.LASF38:
 1230 0005 474E5520 		.ascii	"GNU C 4.9.3 20150529 (release) [ARM/embedded-4_9-br"
 1230      4320342E 
 1230      392E3320 
 1230      32303135 
 1230      30353239 
 1231 0038 616E6368 		.ascii	"anch revision 224288] -mcpu=cortex-m4 -mfloat-abi=h"
 1231      20726576 
 1231      6973696F 
 1231      6E203232 
 1231      34323838 
 1232 006b 61726420 		.ascii	"ard -mfpu=fpv4-sp-d16 -mno-thumb-interwork -mthumb "
 1232      2D6D6670 
 1232      753D6670 
 1232      76342D73 
 1232      702D6431 
 1233 009e 2D676764 		.ascii	"-ggdb -O2 -fomit-frame-pointer -falign-functions=16"
 1233      62202D4F 
 1233      32202D66 
 1233      6F6D6974 
 1233      2D667261 
ARM GAS  /tmp/ccKVTFIs.s 			page 23


 1234 00d1 202D666E 		.ascii	" -fno-math-errno -fsingle-precision-constant\000"
 1234      6F2D6D61 
 1234      74682D65 
 1234      72726E6F 
 1234      202D6673 
 1235              	.LASF22:
 1236 00fe 41524D5F 		.ascii	"ARM_MATH_LENGTH_ERROR\000"
 1236      4D415448 
 1236      5F4C454E 
 1236      4754485F 
 1236      4552524F 
 1237              	.LASF39:
 1238 0114 2F686F6D 		.ascii	"/home/sbcu/Dropbox/pcb-layouts/axo-on-discovery-boa"
 1238      652F7362 
 1238      63752F44 
 1238      726F7062 
 1238      6F782F70 
 1239 0147 72642F61 		.ascii	"rd/axoloti/platform_linux/../CMSIS//DSP_Lib/Source/"
 1239      786F6C6F 
 1239      74692F70 
 1239      6C617466 
 1239      6F726D5F 
 1240 017a 436F6D70 		.ascii	"ComplexMathFunctions/arm_cmplx_mag_q15.c\000"
 1240      6C65784D 
 1240      61746846 
 1240      756E6374 
 1240      696F6E73 
 1241              	.LASF4:
 1242 01a3 5F5F696E 		.ascii	"__int16_t\000"
 1242      7431365F 
 1242      7400
 1243              	.LASF5:
 1244 01ad 5F5F696E 		.ascii	"__int32_t\000"
 1244      7433325F 
 1244      7400
 1245              	.LASF43:
 1246 01b7 61726D5F 		.ascii	"arm_sqrt_q15\000"
 1246      73717274 
 1246      5F713135 
 1246      00
 1247              	.LASF28:
 1248 01c4 7131355F 		.ascii	"q15_t\000"
 1248      7400
 1249              	.LASF18:
 1250 01ca 666C6F61 		.ascii	"float\000"
 1250      7400
 1251              	.LASF29:
 1252 01d0 7133315F 		.ascii	"q31_t\000"
 1252      7400
 1253              	.LASF1:
 1254 01d6 756E7369 		.ascii	"unsigned char\000"
 1254      676E6564 
 1254      20636861 
 1254      7200
 1255              	.LASF35:
 1256 01e4 626C6B43 		.ascii	"blkCnt\000"
 1256      6E7400
ARM GAS  /tmp/ccKVTFIs.s 			page 24


 1257              	.LASF26:
 1258 01eb 41524D5F 		.ascii	"ARM_MATH_TEST_FAILURE\000"
 1258      4D415448 
 1258      5F544553 
 1258      545F4641 
 1258      494C5552 
 1259              	.LASF8:
 1260 0201 6C6F6E67 		.ascii	"long unsigned int\000"
 1260      20756E73 
 1260      69676E65 
 1260      6420696E 
 1260      7400
 1261              	.LASF3:
 1262 0213 73686F72 		.ascii	"short unsigned int\000"
 1262      7420756E 
 1262      7369676E 
 1262      65642069 
 1262      6E7400
 1263              	.LASF31:
 1264 0226 70447374 		.ascii	"pDst\000"
 1264      00
 1265              	.LASF40:
 1266 022b 5F5F534D 		.ascii	"__SMUAD\000"
 1266      55414400 
 1267              	.LASF17:
 1268 0233 646F7562 		.ascii	"double\000"
 1268      6C6500
 1269              	.LASF7:
 1270 023a 5F5F7569 		.ascii	"__uint32_t\000"
 1270      6E743332 
 1270      5F7400
 1271              	.LASF21:
 1272 0245 41524D5F 		.ascii	"ARM_MATH_ARGUMENT_ERROR\000"
 1272      4D415448 
 1272      5F415247 
 1272      554D454E 
 1272      545F4552 
 1273              	.LASF11:
 1274 025d 756E7369 		.ascii	"unsigned int\000"
 1274      676E6564 
 1274      20696E74 
 1274      00
 1275              	.LASF10:
 1276 026a 6C6F6E67 		.ascii	"long long unsigned int\000"
 1276      206C6F6E 
 1276      6720756E 
 1276      7369676E 
 1276      65642069 
 1277              	.LASF23:
 1278 0281 41524D5F 		.ascii	"ARM_MATH_SIZE_MISMATCH\000"
 1278      4D415448 
 1278      5F53495A 
 1278      455F4D49 
 1278      534D4154 
 1279              	.LASF41:
 1280 0298 72657375 		.ascii	"result\000"
 1280      6C7400
ARM GAS  /tmp/ccKVTFIs.s 			page 25


 1281              	.LASF25:
 1282 029f 41524D5F 		.ascii	"ARM_MATH_SINGULAR\000"
 1282      4D415448 
 1282      5F53494E 
 1282      47554C41 
 1282      5200
 1283              	.LASF12:
 1284 02b1 696E7431 		.ascii	"int16_t\000"
 1284      365F7400 
 1285              	.LASF13:
 1286 02b9 696E7433 		.ascii	"int32_t\000"
 1286      325F7400 
 1287              	.LASF15:
 1288 02c1 73697A65 		.ascii	"sizetype\000"
 1288      74797065 
 1288      00
 1289              	.LASF9:
 1290 02ca 6C6F6E67 		.ascii	"long long int\000"
 1290      206C6F6E 
 1290      6720696E 
 1290      7400
 1291              	.LASF16:
 1292 02d8 63686172 		.ascii	"char\000"
 1292      00
 1293              	.LASF24:
 1294 02dd 41524D5F 		.ascii	"ARM_MATH_NANINF\000"
 1294      4D415448 
 1294      5F4E414E 
 1294      494E4600 
 1295              	.LASF20:
 1296 02ed 41524D5F 		.ascii	"ARM_MATH_SUCCESS\000"
 1296      4D415448 
 1296      5F535543 
 1296      43455353 
 1296      00
 1297              	.LASF2:
 1298 02fe 73686F72 		.ascii	"short int\000"
 1298      7420696E 
 1298      7400
 1299              	.LASF27:
 1300 0308 61726D5F 		.ascii	"arm_status\000"
 1300      73746174 
 1300      757300
 1301              	.LASF14:
 1302 0313 75696E74 		.ascii	"uint32_t\000"
 1302      33325F74 
 1302      00
 1303              	.LASF6:
 1304 031c 6C6F6E67 		.ascii	"long int\000"
 1304      20696E74 
 1304      00
 1305              	.LASF42:
 1306 0325 61726D5F 		.ascii	"arm_cmplx_mag_q15\000"
 1306      636D706C 
 1306      785F6D61 
 1306      675F7131 
 1306      3500
ARM GAS  /tmp/ccKVTFIs.s 			page 26


 1307              	.LASF19:
 1308 0337 6C6F6E67 		.ascii	"long double\000"
 1308      20646F75 
 1308      626C6500 
 1309              	.LASF0:
 1310 0343 7369676E 		.ascii	"signed char\000"
 1310      65642063 
 1310      68617200 
 1311              	.LASF30:
 1312 034f 70537263 		.ascii	"pSrc\000"
 1312      00
 1313              	.LASF32:
 1314 0354 6E756D53 		.ascii	"numSamples\000"
 1314      616D706C 
 1314      657300
 1315              	.LASF33:
 1316 035f 61636330 		.ascii	"acc0\000"
 1316      00
 1317              	.LASF34:
 1318 0364 61636331 		.ascii	"acc1\000"
 1318      00
 1319              	.LASF36:
 1320 0369 61636332 		.ascii	"acc2\000"
 1320      00
 1321              		.ident	"GCC: (GNU Tools for ARM Embedded Processors) 4.9.3 20150529 (release) [ARM/embedded-4_9-br
ARM GAS  /tmp/ccKVTFIs.s 			page 27


DEFINED SYMBOLS
                            *ABS*:00000000 arm_cmplx_mag_q15.c
     /tmp/ccKVTFIs.s:20     .text:00000000 $t
     /tmp/ccKVTFIs.s:26     .text:00000000 arm_cmplx_mag_q15
                     .debug_frame:00000010 $d

UNDEFINED SYMBOLS
arm_sqrt_q15
