ARM GAS  /tmp/ccMwxdtU.s 			page 1


   1              		.syntax unified
   2              		.cpu cortex-m4
   3              		.eabi_attribute 27, 1
   4              		.eabi_attribute 28, 1
   5              		.fpu fpv4-sp-d16
   6              		.eabi_attribute 20, 1
   7              		.eabi_attribute 21, 1
   8              		.eabi_attribute 23, 3
   9              		.eabi_attribute 24, 1
  10              		.eabi_attribute 25, 1
  11              		.eabi_attribute 26, 1
  12              		.eabi_attribute 30, 2
  13              		.eabi_attribute 34, 1
  14              		.eabi_attribute 18, 4
  15              		.thumb
  16              		.file	"arm_sqrt_q31.c"
  17              		.text
  18              	.Ltext0:
  19              		.cfi_sections	.debug_frame
  20              		.align	2
  21              		.p2align 4,,15
  22              		.global	arm_sqrt_q31
  23              		.thumb
  24              		.thumb_func
  25              		.type	arm_sqrt_q31, %function
  26              	arm_sqrt_q31:
  27              	.LFB135:
  28              		.file 1 "/home/sbcu/Dropbox/pcb-layouts/axo-on-discovery-board/axoloti/platform_linux/../CMSIS//DS
  29              		.loc 1 64 0
  30              		.cfi_startproc
  31              		@ args = 0, pretend = 0, frame = 0
  32              		@ frame_needed = 0, uses_anonymous_args = 0
  33              	.LVL0:
  34              		.loc 1 76 0
  35 0000 0028     		cmp	r0, #0
  36 0002 6DDD     		ble	.L2
  37              		.loc 1 64 0
  38 0004 2DE9F043 		push	{r4, r5, r6, r7, r8, r9, lr}
  39              		.cfi_def_cfa_offset 28
  40              		.cfi_offset 4, -28
  41              		.cfi_offset 5, -24
  42              		.cfi_offset 6, -20
  43              		.cfi_offset 7, -16
  44              		.cfi_offset 8, -12
  45              		.cfi_offset 9, -8
  46              		.cfi_offset 14, -4
  47              		.loc 1 78 0
  48 0008 B0FA80F6 		clz	r6, r0
  49 000c 771E     		subs	r7, r6, #1
  50              	.LVL1:
  51              		.loc 1 81 0
  52 000e 17F0010E 		ands	lr, r7, #1
  53              		.loc 1 87 0
  54 0012 1ABF     		itte	ne
  55 0014 B31E     		subne	r3, r6, #2
  56 0016 9840     		lslne	r0, r0, r3
  57              	.LVL2:
ARM GAS  /tmp/ccMwxdtU.s 			page 2


  58              		.loc 1 83 0
  59 0018 B840     		lsleq	r0, r0, r7
  60              	.LVL3:
  61              		.loc 1 96 0
  62 001a 07EE900A 		fmsr	s15, r0	@ int
  63 001e FAEEE07A 		vcvt.f32.s32	s15, s15, #31
  64              		.loc 1 101 0
  65 0022 324C     		ldr	r4, .L12
  66              		.loc 1 96 0
  67 0024 17EE903A 		fmrs	r3, s15
  68              		.loc 1 101 0
  69 0028 5B10     		asrs	r3, r3, #1
  70 002a E41A     		subs	r4, r4, r3
  71              		.loc 1 106 0
  72 002c 07EE904A 		fmsr	s15, r4
  73 0030 FEEEC17A 		vcvt.s32.f32	s15, s15, #30
  74              		.loc 1 91 0
  75 0034 4FEA600C 		asr	ip, r0, #1
  76              	.LVL4:
  77              		.loc 1 106 0
  78 0038 17EE905A 		fmrs	r5, s15	@ int
  79              	.LVL5:
  80              		.loc 1 112 0
  81 003c 85FB0589 		smull	r8, r9, r5, r5
  82 0040 4FEAD872 		lsr	r2, r8, #31
  83 0044 42EA4902 		orr	r2, r2, r9, lsl #1
  84 0048 82FB0C23 		smull	r2, r3, r2, ip
  85              		.loc 1 113 0
  86 004c D40F     		lsrs	r4, r2, #31
  87              	.LVL6:
  88 004e 44EA4304 		orr	r4, r4, r3, lsl #1
  89              		.loc 1 109 0
  90 0052 C4F14054 		rsb	r4, r4, #805306368
  91 0056 85FB0445 		smull	r4, r5, r5, r4
  92              		.loc 1 113 0
  93 005a E20F     		lsrs	r2, r4, #31
  94 005c 42EA4502 		orr	r2, r2, r5, lsl #1
  95              		.loc 1 109 0
  96 0060 9300     		lsls	r3, r2, #2
  97              	.LVL7:
  98              		.loc 1 118 0
  99 0062 83FB0389 		smull	r8, r9, r3, r3
 100 0066 4FEAD874 		lsr	r4, r8, #31
 101 006a 44EA4904 		orr	r4, r4, r9, lsl #1
 102 006e 8CFB0445 		smull	r4, r5, ip, r4
 103              		.loc 1 119 0
 104 0072 E20F     		lsrs	r2, r4, #31
 105 0074 42EA4502 		orr	r2, r2, r5, lsl #1
 106              		.loc 1 115 0
 107 0078 C2F14052 		rsb	r2, r2, #805306368
 108 007c 83FB0223 		smull	r2, r3, r3, r2
 109              		.loc 1 119 0
 110 0080 D20F     		lsrs	r2, r2, #31
 111 0082 42EA4302 		orr	r2, r2, r3, lsl #1
 112              		.loc 1 115 0
 113 0086 9300     		lsls	r3, r2, #2
 114              	.LVL8:
ARM GAS  /tmp/ccMwxdtU.s 			page 3


 115              		.loc 1 124 0
 116 0088 83FB0345 		smull	r4, r5, r3, r3
 117 008c E40F     		lsrs	r4, r4, #31
 118 008e 44EA4504 		orr	r4, r4, r5, lsl #1
 119 0092 8CFB0445 		smull	r4, r5, ip, r4
 120              		.loc 1 125 0
 121 0096 E20F     		lsrs	r2, r4, #31
 122 0098 42EA4502 		orr	r2, r2, r5, lsl #1
 123              		.loc 1 121 0
 124 009c C2F14052 		rsb	r2, r2, #805306368
 125 00a0 83FB0223 		smull	r2, r3, r3, r2
 126              		.loc 1 125 0
 127 00a4 D40F     		lsrs	r4, r2, #31
 128 00a6 44EA4304 		orr	r4, r4, r3, lsl #1
 129              		.loc 1 121 0
 130 00aa A400     		lsls	r4, r4, #2
 131              	.LVL9:
 132              		.loc 1 128 0
 133 00ac 80FB0445 		smull	r4, r5, r0, r4
 134              	.LVL10:
 135 00b0 E30F     		lsrs	r3, r4, #31
 136              	.LVL11:
 137 00b2 43EA4503 		orr	r3, r3, r5, lsl #1
 138 00b6 5B00     		lsls	r3, r3, #1
 139              	.LVL12:
 140              		.loc 1 131 0
 141 00b8 BEF1000F 		cmp	lr, #0
 142 00bc 09D0     		beq	.L11
 143              		.loc 1 137 0
 144 00be 023E     		subs	r6, r6, #2
 145 00c0 06EBD676 		add	r6, r6, r6, lsr #31
 146 00c4 7610     		asrs	r6, r6, #1
 147 00c6 3341     		asrs	r3, r3, r6
 148              	.LVL13:
 149              		.loc 1 141 0
 150 00c8 0020     		movs	r0, #0
 151              	.LVL14:
 152              		.loc 1 139 0
 153 00ca 0B60     		str	r3, [r1]
 154              		.loc 1 149 0
 155 00cc 40B2     		sxtb	r0, r0
 156 00ce BDE8F083 		pop	{r4, r5, r6, r7, r8, r9, pc}
 157              	.LVL15:
 158              	.L11:
 159              		.loc 1 133 0
 160 00d2 7F10     		asrs	r7, r7, #1
 161              	.LVL16:
 162 00d4 3B41     		asrs	r3, r3, r7
 163              	.LVL17:
 164              		.loc 1 141 0
 165 00d6 0020     		movs	r0, #0
 166              	.LVL18:
 167              		.loc 1 139 0
 168 00d8 0B60     		str	r3, [r1]
 169              		.loc 1 149 0
 170 00da 40B2     		sxtb	r0, r0
 171 00dc BDE8F083 		pop	{r4, r5, r6, r7, r8, r9, pc}
ARM GAS  /tmp/ccMwxdtU.s 			page 4


 172              	.LVL19:
 173              	.L2:
 174              		.cfi_def_cfa_offset 0
 175              		.cfi_restore 4
 176              		.cfi_restore 5
 177              		.cfi_restore 6
 178              		.cfi_restore 7
 179              		.cfi_restore 8
 180              		.cfi_restore 9
 181              		.cfi_restore 14
 182              		.loc 1 146 0
 183 00e0 0023     		movs	r3, #0
 184              		.loc 1 147 0
 185 00e2 FF20     		movs	r0, #255
 186              	.LVL20:
 187              		.loc 1 146 0
 188 00e4 0B60     		str	r3, [r1]
 189              		.loc 1 149 0
 190 00e6 40B2     		sxtb	r0, r0
 191 00e8 7047     		bx	lr
 192              	.L13:
 193 00ea 00BF     		.align	2
 194              	.L12:
 195 00ec DF59375F 		.word	1597463007
 196              		.cfi_endproc
 197              	.LFE135:
 198              		.size	arm_sqrt_q31, .-arm_sqrt_q31
 199              	.Letext0:
 200              		.file 2 "/home/sbcu/Dropbox/pcb-layouts/axo-on-discovery-board/axoloti/platform_linux/arm-none-eab
 201              		.file 3 "/home/sbcu/Dropbox/pcb-layouts/axo-on-discovery-board/axoloti/platform_linux/arm-none-eab
 202              		.file 4 "/home/sbcu/Dropbox/pcb-layouts/axo-on-discovery-board/axoloti/platform_linux/../CMSIS//DS