ARM GAS  /tmp/ccyx9BpV.s 			page 1


   1              		.syntax unified
   2              		.cpu cortex-m4
   3              		.eabi_attribute 27, 1
   4              		.eabi_attribute 28, 1
   5              		.fpu fpv4-sp-d16
   6              		.eabi_attribute 20, 1
   7              		.eabi_attribute 21, 1
   8              		.eabi_attribute 23, 3
   9              		.eabi_attribute 24, 1
  10              		.eabi_attribute 25, 1
  11              		.eabi_attribute 26, 1
  12              		.eabi_attribute 30, 2
  13              		.eabi_attribute 34, 1
  14              		.eabi_attribute 18, 4
  15              		.thumb
  16              		.file	"arm_biquad_cascade_df1_init_q31.c"
  17              		.text
  18              	.Ltext0:
  19              		.cfi_sections	.debug_frame
  20              		.align	2
  21              		.p2align 4,,15
  22              		.global	arm_biquad_cascade_df1_init_q31
  23              		.thumb
  24              		.thumb_func
  25              		.type	arm_biquad_cascade_df1_init_q31, %function
  26              	arm_biquad_cascade_df1_init_q31:
  27              	.LFB135:
  28              		.file 1 "/home/sbcu/Dropbox/pcb-layouts/axo-on-discovery-board/axoloti/platform_linux/../CMSIS//DS
  29              		.loc 1 91 0
  30              		.cfi_startproc
  31              		@ args = 4, pretend = 0, frame = 0
  32              		@ frame_needed = 0, uses_anonymous_args = 0
  33              	.LVL0:
  34 0000 38B5     		push	{r3, r4, r5, lr}
  35              		.cfi_def_cfa_offset 16
  36              		.cfi_offset 3, -16
  37              		.cfi_offset 4, -12
  38              		.cfi_offset 5, -8
  39              		.cfi_offset 14, -4
  40              		.loc 1 91 0
  41 0002 1D46     		mov	r5, r3
  42 0004 0446     		mov	r4, r0
  43 0006 9DF91030 		ldrsb	r3, [sp, #16]
  44              	.LVL1:
  45              		.loc 1 99 0
  46 000a 8260     		str	r2, [r0, #8]
  47              		.loc 1 93 0
  48 000c 0160     		str	r1, [r0]
  49              		.loc 1 102 0
  50 000e 0A01     		lsls	r2, r1, #4
  51              	.LVL2:
  52              		.loc 1 96 0
  53 0010 0373     		strb	r3, [r0, #12]
  54              		.loc 1 102 0
  55 0012 0021     		movs	r1, #0
  56              	.LVL3:
  57 0014 2846     		mov	r0, r5
ARM GAS  /tmp/ccyx9BpV.s 			page 2


  58              	.LVL4:
  59 0016 FFF7FEFF 		bl	memset
  60              	.LVL5:
  61              		.loc 1 105 0
  62 001a 6560     		str	r5, [r4, #4]
  63 001c 38BD     		pop	{r3, r4, r5, pc}
  64              		.cfi_endproc
  65              	.LFE135:
  66              		.size	arm_biquad_cascade_df1_init_q31, .-arm_biquad_cascade_df1_init_q31
  67              	.Letext0:
  68              		.file 2 "/home/sbcu/Dropbox/pcb-layouts/axo-on-discovery-board/axoloti/platform_linux/arm-none-eab
  69              		.file 3 "/home/sbcu/Dropbox/pcb-layouts/axo-on-discovery-board/axoloti/platform_linux/arm-none-eab
  70              		.file 4 "/home/sbcu/Dropbox/pcb-layouts/axo-on-discovery-board/axoloti/platform_linux/../CMSIS//DS