ARM GAS  /tmp/ccUWoync.s 			page 1


   1              		.syntax unified
   2              		.cpu cortex-m4
   3              		.eabi_attribute 27, 1
   4              		.eabi_attribute 28, 1
   5              		.fpu fpv4-sp-d16
   6              		.eabi_attribute 20, 1
   7              		.eabi_attribute 21, 1
   8              		.eabi_attribute 23, 3
   9              		.eabi_attribute 24, 1
  10              		.eabi_attribute 25, 1
  11              		.eabi_attribute 26, 1
  12              		.eabi_attribute 30, 2
  13              		.eabi_attribute 34, 1
  14              		.eabi_attribute 18, 4
  15              		.thumb
  16              		.file	"arm_rfft_q15.c"
  17              		.text
  18              	.Ltext0:
  19              		.cfi_sections	.debug_frame
  20              		.align	2
  21              		.p2align 4,,15
  22              		.global	arm_split_rfft_q15
  23              		.thumb
  24              		.thumb_func
  25              		.type	arm_split_rfft_q15, %function
  26              	arm_split_rfft_q15:
  27              	.LFB136:
  28              		.file 1 "/home/sbcu/Dropbox/pcb-layouts/axo-on-discovery-board/axoloti/platform_linux/../CMSIS//DS
  29              		.loc 1 147 0
  30              		.cfi_startproc
  31              		@ args = 8, pretend = 0, frame = 8
  32              		@ frame_needed = 0, uses_anonymous_args = 0
  33              	.LVL0:
  34 0000 2DE9F04F 		push	{r4, r5, r6, r7, r8, r9, r10, fp, lr}
  35              		.cfi_def_cfa_offset 36
  36              		.cfi_offset 4, -36
  37              		.cfi_offset 5, -32
  38              		.cfi_offset 6, -28
  39              		.cfi_offset 7, -24
  40              		.cfi_offset 8, -20
  41              		.cfi_offset 9, -16
  42              		.cfi_offset 10, -12
  43              		.cfi_offset 11, -8
  44              		.cfi_offset 14, -4
  45 0004 83B0     		sub	sp, sp, #12
  46              		.cfi_def_cfa_offset 48
  47              		.loc 1 163 0
  48 0006 01F18044 		add	r4, r1, #1073741824
  49              		.loc 1 147 0
  50 000a 0D9D     		ldr	r5, [sp, #52]
  51 000c 0190     		str	r0, [sp, #4]
  52              		.loc 1 163 0
  53 000e 013C     		subs	r4, r4, #1
  54              		.loc 1 159 0
  55 0010 4FEA850A 		lsl	r10, r5, #2
  56              		.loc 1 163 0
  57 0014 A000     		lsls	r0, r4, #2
ARM GAS  /tmp/ccUWoync.s 			page 2


  58              	.LVL1:
  59              		.loc 1 170 0
  60 0016 4FEAC10E 		lsl	lr, r1, #3
  61              		.loc 1 172 0
  62 001a 0139     		subs	r1, r1, #1
  63              	.LVL2:
  64              		.loc 1 163 0
  65 001c 0090     		str	r0, [sp]
  66              		.loc 1 159 0
  67 001e 5244     		add	r2, r2, r10
  68              	.LVL3:
  69              		.loc 1 160 0
  70 0020 5344     		add	r3, r3, r10
  71              	.LVL4:
  72              		.loc 1 172 0
  73 0022 30D0     		beq	.L4
  74 0024 0098     		ldr	r0, [sp]
  75 0026 019C     		ldr	r4, [sp, #4]
  76 0028 00F10409 		add	r9, r0, #4
  77 002c 0C98     		ldr	r0, [sp, #48]
  78              	.LVL5:
  79 002e AEF1080E 		sub	lr, lr, #8
  80              	.LVL6:
  81 0032 8644     		add	lr, lr, r0
  82              	.LVL7:
  83 0034 0C98     		ldr	r0, [sp, #48]
  84 0036 A144     		add	r9, r9, r4
  85 0038 00F10808 		add	r8, r0, #8
  86 003c A346     		mov	fp, r4
  87 003e 4FF0000C 		mov	ip, #0
  88              	.LVL8:
  89              	.L3:
  90              		.loc 1 188 0 discriminator 3
  91 0042 5BF8044F 		ldr	r4, [fp, #4]!
  92              	.LVL9:
  93 0046 52F80C00 		ldr	r0, [r2, ip]
  94              	.LVL10:
  95              	.LBB18:
  96              	.LBB19:
  97              		.file 2 "/home/sbcu/Dropbox/pcb-layouts/axo-on-discovery-board/axoloti/platform_linux/../CMSIS//In
  98              		.loc 2 1771 0 discriminator 3
  99              	@ 1771 "/home/sbcu/Dropbox/pcb-layouts/axo-on-discovery-board/axoloti/platform_linux/../CMSIS//Incl
 100 004a 44FB00F5 		smusd r5, r4, r0
 101              	@ 0 "" 2
 102              	.LVL11:
 103              		.thumb
 104              	.LBE19:
 105              	.LBE18:
 106              		.loc 1 199 0 discriminator 3
 107 004e 59F8046D 		ldr	r6, [r9, #-4]!
 108              	.LVL12:
 109 0052 53F80C70 		ldr	r7, [r3, ip]
 110              	.LVL13:
 111              	.LBB20:
 112              	.LBB21:
 113              		.loc 2 1721 0 discriminator 3
 114              	@ 1721 "/home/sbcu/Dropbox/pcb-layouts/axo-on-discovery-board/axoloti/platform_linux/../CMSIS//Incl
ARM GAS  /tmp/ccUWoync.s 			page 3


 115 0056 26FB0755 		smlad r5, r6, r7, r5
 116              	@ 0 "" 2
 117              	.LVL14:
 118              		.thumb
 119              	.LBE21:
 120              	.LBE20:
 121              	.LBB22:
 122              	.LBB23:
 123              		.loc 2 1779 0 discriminator 3
 124              	@ 1779 "/home/sbcu/Dropbox/pcb-layouts/axo-on-discovery-board/axoloti/platform_linux/../CMSIS//Incl
 125 005a 46FB17F6 		smusdx r6, r6, r7
 126              	@ 0 "" 2
 127              	.LVL15:
 128              		.thumb
 129              	.LBE23:
 130              	.LBE22:
 131              	.LBB24:
 132              	.LBB25:
 133              		.loc 2 1729 0 discriminator 3
 134              	@ 1729 "/home/sbcu/Dropbox/pcb-layouts/axo-on-discovery-board/axoloti/platform_linux/../CMSIS//Incl
 135 005e 24FB1060 		smladx r0, r4, r0, r6
 136              	@ 0 "" 2
 137              	.LVL16:
 138              		.thumb
 139              	.LBE25:
 140              	.LBE24:
 141              		.loc 1 219 0 discriminator 3
 142 0062 0014     		asrs	r0, r0, #16
 143              	.LVL17:
 144              		.loc 1 218 0 discriminator 3
 145 0064 2C0C     		lsrs	r4, r5, #16
 146              	.LVL18:
 147              		.loc 1 223 0 discriminator 3
 148 0066 4642     		negs	r6, r0
 149              	.LVL19:
 150              		.loc 1 172 0 discriminator 3
 151 0068 0139     		subs	r1, r1, #1
 152              	.LVL20:
 153              		.loc 1 219 0 discriminator 3
 154 006a 28F8020C 		strh	r0, [r8, #-2]	@ movhi
 155              		.loc 1 218 0 discriminator 3
 156 006e 28F8044C 		strh	r4, [r8, #-4]	@ movhi
 157 0072 D444     		add	ip, ip, r10
 158              	.LVL21:
 159              		.loc 1 223 0 discriminator 3
 160 0074 AEF80660 		strh	r6, [lr, #6]	@ movhi
 161              	.LVL22:
 162              		.loc 1 222 0 discriminator 3
 163 0078 AEF80440 		strh	r4, [lr, #4]	@ movhi
 164 007c 08F10408 		add	r8, r8, #4
 165 0080 AEF1040E 		sub	lr, lr, #4
 166              		.loc 1 172 0 discriminator 3
 167 0084 DDD1     		bne	.L3
 168              	.LVL23:
 169              	.L4:
 170              		.loc 1 231 0
 171 0086 0198     		ldr	r0, [sp, #4]
ARM GAS  /tmp/ccUWoync.s 			page 4


 172 0088 0C9C     		ldr	r4, [sp, #48]
 173 008a B0F90220 		ldrsh	r2, [r0, #2]
 174 008e B0F90030 		ldrsh	r3, [r0]
 175 0092 0099     		ldr	r1, [sp]
 176 0094 9B1A     		subs	r3, r3, r2
 177 0096 2144     		add	r1, r1, r4
 178              		.loc 1 232 0
 179 0098 0022     		movs	r2, #0
 180              		.loc 1 231 0
 181 009a 5B10     		asrs	r3, r3, #1
 182 009c 8B80     		strh	r3, [r1, #4]	@ movhi
 183              		.loc 1 232 0
 184 009e CA80     		strh	r2, [r1, #6]	@ movhi
 185              		.loc 1 234 0
 186 00a0 B0F90010 		ldrsh	r1, [r0]
 187 00a4 B0F90230 		ldrsh	r3, [r0, #2]
 188              		.loc 1 235 0
 189 00a8 6280     		strh	r2, [r4, #2]	@ movhi
 190              		.loc 1 234 0
 191 00aa 0B44     		add	r3, r3, r1
 192 00ac 5B10     		asrs	r3, r3, #1
 193 00ae 2380     		strh	r3, [r4]	@ movhi
 194              		.loc 1 292 0
 195 00b0 03B0     		add	sp, sp, #12
 196              		.cfi_def_cfa_offset 36
 197              		@ sp needed
 198 00b2 BDE8F08F 		pop	{r4, r5, r6, r7, r8, r9, r10, fp, pc}
 199              		.cfi_endproc
 200              	.LFE136:
 201              		.size	arm_split_rfft_q15, .-arm_split_rfft_q15
 202 00b6 00BF     		.align	2
 203 00b8 AFF30080 		.p2align 4,,15
 203      AFF30080 
 204              		.global	arm_split_rifft_q15
 205              		.thumb
 206              		.thumb_func
 207              		.type	arm_split_rifft_q15, %function
 208              	arm_split_rifft_q15:
 209              	.LFB137:
 210              		.loc 1 313 0
 211              		.cfi_startproc
 212              		@ args = 8, pretend = 0, frame = 0
 213              		@ frame_needed = 0, uses_anonymous_args = 0
 214              	.LVL24:
 215 00c0 2DE9F043 		push	{r4, r5, r6, r7, r8, r9, lr}
 216              		.cfi_def_cfa_offset 28
 217              		.cfi_offset 4, -28
 218              		.cfi_offset 5, -24
 219              		.cfi_offset 6, -20
 220              		.cfi_offset 7, -16
 221              		.cfi_offset 8, -12
 222              		.cfi_offset 9, -8
 223              		.cfi_offset 14, -4
 224              		.loc 1 313 0
 225 00c4 DDF81CC0 		ldr	ip, [sp, #28]
 226              	.LVL25:
 227              		.loc 1 324 0
ARM GAS  /tmp/ccUWoync.s 			page 5


 228 00c8 8F00     		lsls	r7, r1, #2
 229              	.LVL26:
 230              		.loc 1 331 0
 231 00ca F1B1     		cbz	r1, .L9
 232 00cc 089C     		ldr	r4, [sp, #32]
 233 00ce 0437     		adds	r7, r7, #4
 234              	.LVL27:
 235 00d0 0744     		add	r7, r7, r0
 236              	.LVL28:
 237 00d2 4FEA840E 		lsl	lr, r4, #2
 238              	.LVL29:
 239              	.L11:
 240              		.loc 1 348 0
 241 00d6 57F8046D 		ldr	r6, [r7, #-4]!
 242              	.LVL30:
 243 00da D3F80090 		ldr	r9, [r3]
 244              	.LVL31:
 245              	.LBB26:
 246              	.LBB27:
 247              		.loc 2 1771 0
 248              	@ 1771 "/home/sbcu/Dropbox/pcb-layouts/axo-on-discovery-board/axoloti/platform_linux/../CMSIS//Incl
 249 00de 46FB09F8 		smusd r8, r6, r9
 250              	@ 0 "" 2
 251              	.LVL32:
 252              		.thumb
 253              	.LBE27:
 254              	.LBE26:
 255              		.loc 1 360 0
 256 00e2 50F8044B 		ldr	r4, [r0], #4
 257              	.LVL33:
 258 00e6 1568     		ldr	r5, [r2]
 259              	.LVL34:
 260              	.LBB28:
 261              	.LBB29:
 262              		.loc 2 1721 0
 263              	@ 1721 "/home/sbcu/Dropbox/pcb-layouts/axo-on-discovery-board/axoloti/platform_linux/../CMSIS//Incl
 264 00e8 24FB0588 		smlad r8, r4, r5, r8
 265              	@ 0 "" 2
 266              	.LVL35:
 267              		.thumb
 268              	.LBE29:
 269              	.LBE28:
 270              	.LBB30:
 271              	.LBB31:
 272              		.loc 2 1713 0
 273              	@ 1713 "/home/sbcu/Dropbox/pcb-layouts/axo-on-discovery-board/axoloti/platform_linux/../CMSIS//Incl
 274 00ec 26FB19F6 		smuadx r6, r6, r9
 275              	@ 0 "" 2
 276              	.LVL36:
 277              		.thumb
 278              	.LBE31:
 279              	.LBE30:
 280              		.loc 1 371 0
 281 00f0 7642     		negs	r6, r6
 282              	.LVL37:
 283              	.LBB32:
 284              	.LBB33:
ARM GAS  /tmp/ccUWoync.s 			page 6


 285              		.loc 2 1795 0
 286              	@ 1795 "/home/sbcu/Dropbox/pcb-layouts/axo-on-discovery-board/axoloti/platform_linux/../CMSIS//Incl
 287 00f2 45FB1465 		smlsdx r5, r5, r4, r6
 288              	@ 0 "" 2
 289              	.LVL38:
 290              		.thumb
 291              	.LBE33:
 292              	.LBE32:
 293              		.loc 1 382 0
 294 00f6 2C0C     		lsrs	r4, r5, #16
 295              	.LVL39:
 296 00f8 2404     		lsls	r4, r4, #16
 297 00fa 44EA1844 		orr	r4, r4, r8, lsr #16
 298              		.loc 1 331 0
 299 00fe 0139     		subs	r1, r1, #1
 300              	.LVL40:
 301              		.loc 1 382 0
 302 0100 4CF8044B 		str	r4, [ip], #4
 303              	.LVL41:
 304              		.loc 1 391 0
 305 0104 7344     		add	r3, r3, lr
 306              	.LVL42:
 307              		.loc 1 392 0
 308 0106 7244     		add	r2, r2, lr
 309              	.LVL43:
 310              		.loc 1 331 0
 311 0108 E5D1     		bne	.L11
 312              	.LVL44:
 313              	.L9:
 314 010a BDE8F083 		pop	{r4, r5, r6, r7, r8, r9, pc}
 315              		.cfi_endproc
 316              	.LFE137:
 317              		.size	arm_split_rifft_q15, .-arm_split_rifft_q15
 318 010e 00BF     		.align	2
 319              		.p2align 4,,15
 320              		.global	arm_rfft_q15
 321              		.thumb
 322              		.thumb_func
 323              		.type	arm_rfft_q15, %function
 324              	arm_rfft_q15:
 325              	.LFB135:
 326              		.loc 1 91 0
 327              		.cfi_startproc
 328              		@ args = 0, pretend = 0, frame = 0
 329              		@ frame_needed = 0, uses_anonymous_args = 0
 330              	.LVL45:
 331 0110 2DE9F043 		push	{r4, r5, r6, r7, r8, r9, lr}
 332              		.cfi_def_cfa_offset 28
 333              		.cfi_offset 4, -28
 334              		.cfi_offset 5, -24
 335              		.cfi_offset 6, -20
 336              		.cfi_offset 7, -16
 337              		.cfi_offset 8, -12
 338              		.cfi_offset 9, -8
 339              		.cfi_offset 14, -4
 340 0114 1446     		mov	r4, r2
 341              		.loc 1 97 0
ARM GAS  /tmp/ccUWoync.s 			page 7


 342 0116 0279     		ldrb	r2, [r0, #4]	@ zero_extendqisi2
 343              	.LVL46:
 344              		.loc 1 94 0
 345 0118 0368     		ldr	r3, [r0]
 346              		.loc 1 92 0
 347 011a 4669     		ldr	r6, [r0, #20]
 348              	.LVL47:
 349              		.loc 1 97 0
 350 011c 012A     		cmp	r2, #1
 351              		.loc 1 91 0
 352 011e 83B0     		sub	sp, sp, #12
 353              		.cfi_def_cfa_offset 40
 354              		.loc 1 91 0
 355 0120 0546     		mov	r5, r0
 356              		.loc 1 94 0
 357 0122 4FEA5308 		lsr	r8, r3, #1
 358              	.LVL48:
 359              		.loc 1 91 0
 360 0126 8946     		mov	r9, r1
 361              		.loc 1 97 0
 362 0128 0FD0     		beq	.L23
 363              		.loc 1 116 0
 364 012a 6B79     		ldrb	r3, [r5, #5]	@ zero_extendqisi2
 365 012c 3046     		mov	r0, r6
 366              	.LVL49:
 367 012e FFF7FEFF 		bl	arm_cfft_q15
 368              	.LVL50:
 369              		.loc 1 119 0
 370 0132 EA68     		ldr	r2, [r5, #12]
 371 0134 2B69     		ldr	r3, [r5, #16]
 372 0136 AD68     		ldr	r5, [r5, #8]
 373              	.LVL51:
 374 0138 0195     		str	r5, [sp, #4]
 375 013a 0094     		str	r4, [sp]
 376 013c 4846     		mov	r0, r9
 377 013e 4146     		mov	r1, r8
 378 0140 FFF7FEFF 		bl	arm_split_rfft_q15
 379              	.LVL52:
 380              	.L15:
 381              		.loc 1 122 0
 382 0144 03B0     		add	sp, sp, #12
 383              		.cfi_remember_state
 384              		.cfi_def_cfa_offset 28
 385              		@ sp needed
 386 0146 BDE8F083 		pop	{r4, r5, r6, r7, r8, r9, pc}
 387              	.LVL53:
 388              	.L23:
 389              		.cfi_restore_state
 390              		.loc 1 100 0
 391 014a 8768     		ldr	r7, [r0, #8]
 392 014c C268     		ldr	r2, [r0, #12]
 393 014e 0369     		ldr	r3, [r0, #16]
 394 0150 0094     		str	r4, [sp]
 395 0152 0846     		mov	r0, r1
 396              	.LVL54:
 397 0154 0197     		str	r7, [sp, #4]
 398 0156 4146     		mov	r1, r8
ARM GAS  /tmp/ccUWoync.s 			page 8


 399              	.LVL55:
 400 0158 FFF7FEFF 		bl	arm_split_rifft_q15
 401              	.LVL56:
 402              		.loc 1 104 0
 403 015c 2146     		mov	r1, r4
 404 015e 3046     		mov	r0, r6
 405 0160 2A79     		ldrb	r2, [r5, #4]	@ zero_extendqisi2
 406 0162 6B79     		ldrb	r3, [r5, #5]	@ zero_extendqisi2
 407 0164 FFF7FEFF 		bl	arm_cfft_q15
 408              	.LVL57:
 409              		.loc 1 106 0
 410 0168 2968     		ldr	r1, [r5]
 411 016a 0029     		cmp	r1, #0
 412 016c EAD0     		beq	.L15
 413 016e 2246     		mov	r2, r4
 414 0170 04EB4101 		add	r1, r4, r1, lsl #1
 415              	.LVL58:
 416              	.L19:
 417              		.loc 1 108 0 discriminator 3
 418 0174 B2F90030 		ldrsh	r3, [r2]
 419 0178 5B00     		lsls	r3, r3, #1
 420 017a 22F8023B 		strh	r3, [r2], #2	@ movhi
 421              		.loc 1 106 0 discriminator 3
 422 017e 8A42     		cmp	r2, r1
 423 0180 F8D1     		bne	.L19
 424              		.loc 1 122 0
 425 0182 03B0     		add	sp, sp, #12
 426              		.cfi_def_cfa_offset 28
 427              		@ sp needed
 428 0184 BDE8F083 		pop	{r4, r5, r6, r7, r8, r9, pc}
 429              		.cfi_endproc
 430              	.LFE135:
 431              		.size	arm_rfft_q15, .-arm_rfft_q15
 432              	.Letext0:
 433              		.file 3 "/home/sbcu/Dropbox/pcb-layouts/axo-on-discovery-board/axoloti/platform_linux/arm-none-eab
 434              		.file 4 "/home/sbcu/Dropbox/pcb-layouts/axo-on-discovery-board/axoloti/platform_linux/arm-none-eab
 435              		.file 5 "/home/sbcu/Dropbox/pcb-layouts/axo-on-discovery-board/axoloti/platform_linux/../CMSIS//DS
 436              		.section	.debug_info,"",%progbits
 437              	.Ldebug_info0:
 438 0000 30080000 		.4byte	0x830
 439 0004 0400     		.2byte	0x4
 440 0006 00000000 		.4byte	.Ldebug_abbrev0
 441 000a 04       		.byte	0x4
 442 000b 01       		.uleb128 0x1
 443 000c 0A030000 		.4byte	.LASF62
 444 0010 01       		.byte	0x1
 445 0011 4E020000 		.4byte	.LASF63
 446 0015 00000000 		.4byte	.Ltext0
 447 0019 88010000 		.4byte	.Letext0-.Ltext0
 448 001d 00000000 		.4byte	.Ldebug_line0
 449 0021 02       		.uleb128 0x2
 450 0022 01       		.byte	0x1
 451 0023 06       		.byte	0x6
 452 0024 71000000 		.4byte	.LASF0
 453 0028 03       		.uleb128 0x3
 454 0029 00000000 		.4byte	.LASF2
 455 002d 03       		.byte	0x3
ARM GAS  /tmp/ccUWoync.s 			page 9


 456 002e 1D       		.byte	0x1d
 457 002f 33000000 		.4byte	0x33
 458 0033 02       		.uleb128 0x2
 459 0034 01       		.byte	0x1
 460 0035 08       		.byte	0x8
 461 0036 B8010000 		.4byte	.LASF1
 462 003a 03       		.uleb128 0x3
 463 003b D7000000 		.4byte	.LASF3
 464 003f 03       		.byte	0x3
 465 0040 29       		.byte	0x29
 466 0041 45000000 		.4byte	0x45
 467 0045 02       		.uleb128 0x2
 468 0046 02       		.byte	0x2
 469 0047 05       		.byte	0x5
 470 0048 D4010000 		.4byte	.LASF4
 471 004c 03       		.uleb128 0x3
 472 004d 13020000 		.4byte	.LASF5
 473 0051 03       		.byte	0x3
 474 0052 2B       		.byte	0x2b
 475 0053 57000000 		.4byte	0x57
 476 0057 02       		.uleb128 0x2
 477 0058 02       		.byte	0x2
 478 0059 07       		.byte	0x7
 479 005a 14010000 		.4byte	.LASF6
 480 005e 03       		.uleb128 0x3
 481 005f 26020000 		.4byte	.LASF7
 482 0063 03       		.byte	0x3
 483 0064 3F       		.byte	0x3f
 484 0065 69000000 		.4byte	0x69
 485 0069 02       		.uleb128 0x2
 486 006a 04       		.byte	0x4
 487 006b 05       		.byte	0x5
 488 006c 7D000000 		.4byte	.LASF8
 489 0070 03       		.uleb128 0x3
 490 0071 BE000000 		.4byte	.LASF9
 491 0075 03       		.byte	0x3
 492 0076 41       		.byte	0x41
 493 0077 7B000000 		.4byte	0x7b
 494 007b 02       		.uleb128 0x2
 495 007c 04       		.byte	0x4
 496 007d 07       		.byte	0x7
 497 007e FA000000 		.4byte	.LASF10
 498 0082 02       		.uleb128 0x2
 499 0083 08       		.byte	0x8
 500 0084 05       		.byte	0x5
 501 0085 63000000 		.4byte	.LASF11
 502 0089 02       		.uleb128 0x2
 503 008a 08       		.byte	0x8
 504 008b 07       		.byte	0x7
 505 008c 1E000000 		.4byte	.LASF12
 506 0090 04       		.uleb128 0x4
 507 0091 04       		.byte	0x4
 508 0092 05       		.byte	0x5
 509 0093 696E7400 		.ascii	"int\000"
 510 0097 02       		.uleb128 0x2
 511 0098 04       		.byte	0x4
 512 0099 07       		.byte	0x7
ARM GAS  /tmp/ccUWoync.s 			page 10


 513 009a E8000000 		.4byte	.LASF13
 514 009e 03       		.uleb128 0x3
 515 009f F3020000 		.4byte	.LASF14
 516 00a3 04       		.byte	0x4
 517 00a4 14       		.byte	0x14
 518 00a5 28000000 		.4byte	0x28
 519 00a9 03       		.uleb128 0x3
 520 00aa 5B000000 		.4byte	.LASF15
 521 00ae 04       		.byte	0x4
 522 00af 19       		.byte	0x19
 523 00b0 3A000000 		.4byte	0x3a
 524 00b4 03       		.uleb128 0x3
 525 00b5 A4000000 		.4byte	.LASF16
 526 00b9 04       		.byte	0x4
 527 00ba 1A       		.byte	0x1a
 528 00bb 4C000000 		.4byte	0x4c
 529 00bf 03       		.uleb128 0x3
 530 00c0 B0010000 		.4byte	.LASF17
 531 00c4 04       		.byte	0x4
 532 00c5 1F       		.byte	0x1f
 533 00c6 5E000000 		.4byte	0x5e
 534 00ca 03       		.uleb128 0x3
 535 00cb EA010000 		.4byte	.LASF18
 536 00cf 04       		.byte	0x4
 537 00d0 20       		.byte	0x20
 538 00d1 70000000 		.4byte	0x70
 539 00d5 02       		.uleb128 0x2
 540 00d6 04       		.byte	0x4
 541 00d7 07       		.byte	0x7
 542 00d8 4C010000 		.4byte	.LASF19
 543 00dc 02       		.uleb128 0x2
 544 00dd 01       		.byte	0x1
 545 00de 08       		.byte	0x8
 546 00df 0E020000 		.4byte	.LASF20
 547 00e3 02       		.uleb128 0x2
 548 00e4 08       		.byte	0x8
 549 00e5 04       		.byte	0x4
 550 00e6 AD000000 		.4byte	.LASF21
 551 00ea 02       		.uleb128 0x2
 552 00eb 04       		.byte	0x4
 553 00ec 04       		.byte	0x4
 554 00ed 90010000 		.4byte	.LASF22
 555 00f1 02       		.uleb128 0x2
 556 00f2 08       		.byte	0x8
 557 00f3 04       		.byte	0x4
 558 00f4 61010000 		.4byte	.LASF23
 559 00f8 05       		.uleb128 0x5
 560 00f9 8B000000 		.4byte	.LASF24
 561 00fd 05       		.byte	0x5
 562 00fe 9B01     		.2byte	0x19b
 563 0100 A9000000 		.4byte	0xa9
 564 0104 05       		.uleb128 0x5
 565 0105 E4010000 		.4byte	.LASF25
 566 0109 05       		.byte	0x5
 567 010a A001     		.2byte	0x1a0
 568 010c BF000000 		.4byte	0xbf
 569 0110 06       		.uleb128 0x6
ARM GAS  /tmp/ccUWoync.s 			page 11


 570 0111 04       		.byte	0x4
 571 0112 F8000000 		.4byte	0xf8
 572 0116 07       		.uleb128 0x7
 573 0117 10       		.byte	0x10
 574 0118 05       		.byte	0x5
 575 0119 8108     		.2byte	0x881
 576 011b 54010000 		.4byte	0x154
 577 011f 08       		.uleb128 0x8
 578 0120 E1000000 		.4byte	.LASF26
 579 0124 05       		.byte	0x5
 580 0125 8308     		.2byte	0x883
 581 0127 B4000000 		.4byte	0xb4
 582 012b 00       		.byte	0
 583 012c 08       		.uleb128 0x8
 584 012d EA020000 		.4byte	.LASF27
 585 0131 05       		.byte	0x5
 586 0132 8408     		.2byte	0x884
 587 0134 54010000 		.4byte	0x154
 588 0138 04       		.byte	0x4
 589 0139 08       		.uleb128 0x8
 590 013a 97000000 		.4byte	.LASF28
 591 013e 05       		.byte	0x5
 592 013f 8508     		.2byte	0x885
 593 0141 5F010000 		.4byte	0x15f
 594 0145 08       		.byte	0x8
 595 0146 08       		.uleb128 0x8
 596 0147 A3010000 		.4byte	.LASF29
 597 014b 05       		.byte	0x5
 598 014c 8608     		.2byte	0x886
 599 014e B4000000 		.4byte	0xb4
 600 0152 0C       		.byte	0xc
 601 0153 00       		.byte	0
 602 0154 06       		.uleb128 0x6
 603 0155 04       		.byte	0x4
 604 0156 5A010000 		.4byte	0x15a
 605 015a 09       		.uleb128 0x9
 606 015b F8000000 		.4byte	0xf8
 607 015f 06       		.uleb128 0x6
 608 0160 04       		.byte	0x4
 609 0161 65010000 		.4byte	0x165
 610 0165 09       		.uleb128 0x9
 611 0166 B4000000 		.4byte	0xb4
 612 016a 05       		.uleb128 0x5
 613 016b 35000000 		.4byte	.LASF30
 614 016f 05       		.byte	0x5
 615 0170 8708     		.2byte	0x887
 616 0172 16010000 		.4byte	0x116
 617 0176 07       		.uleb128 0x7
 618 0177 18       		.byte	0x18
 619 0178 05       		.byte	0x5
 620 0179 B408     		.2byte	0x8b4
 621 017b DB010000 		.4byte	0x1db
 622 017f 08       		.uleb128 0x8
 623 0180 03040000 		.4byte	.LASF31
 624 0184 05       		.byte	0x5
 625 0185 B608     		.2byte	0x8b6
 626 0187 CA000000 		.4byte	0xca
ARM GAS  /tmp/ccUWoync.s 			page 12


 627 018b 00       		.byte	0
 628 018c 08       		.uleb128 0x8
 629 018d B4000000 		.4byte	.LASF32
 630 0191 05       		.byte	0x5
 631 0192 B708     		.2byte	0x8b7
 632 0194 9E000000 		.4byte	0x9e
 633 0198 04       		.byte	0x4
 634 0199 08       		.uleb128 0x8
 635 019a 6D010000 		.4byte	.LASF33
 636 019e 05       		.byte	0x5
 637 019f B808     		.2byte	0x8b8
 638 01a1 9E000000 		.4byte	0x9e
 639 01a5 05       		.byte	0x5
 640 01a6 08       		.uleb128 0x8
 641 01a7 FC010000 		.4byte	.LASF34
 642 01ab 05       		.byte	0x5
 643 01ac B908     		.2byte	0x8b9
 644 01ae CA000000 		.4byte	0xca
 645 01b2 08       		.byte	0x8
 646 01b3 08       		.uleb128 0x8
 647 01b4 C6010000 		.4byte	.LASF35
 648 01b8 05       		.byte	0x5
 649 01b9 BA08     		.2byte	0x8ba
 650 01bb 10010000 		.4byte	0x110
 651 01bf 0C       		.byte	0xc
 652 01c0 08       		.uleb128 0x8
 653 01c1 C9000000 		.4byte	.LASF36
 654 01c5 05       		.byte	0x5
 655 01c6 BB08     		.2byte	0x8bb
 656 01c8 10010000 		.4byte	0x110
 657 01cc 10       		.byte	0x10
 658 01cd 08       		.uleb128 0x8
 659 01ce DE010000 		.4byte	.LASF37
 660 01d2 05       		.byte	0x5
 661 01d3 BC08     		.2byte	0x8bc
 662 01d5 DB010000 		.4byte	0x1db
 663 01d9 14       		.byte	0x14
 664 01da 00       		.byte	0
 665 01db 06       		.uleb128 0x6
 666 01dc 04       		.byte	0x4
 667 01dd E1010000 		.4byte	0x1e1
 668 01e1 09       		.uleb128 0x9
 669 01e2 6A010000 		.4byte	0x16a
 670 01e6 05       		.uleb128 0x5
 671 01e7 30020000 		.4byte	.LASF38
 672 01eb 05       		.byte	0x5
 673 01ec BD08     		.2byte	0x8bd
 674 01ee 76010000 		.4byte	0x176
 675 01f2 0A       		.uleb128 0xa
 676 01f3 82010000 		.4byte	.LASF39
 677 01f7 02       		.byte	0x2
 678 01f8 E706     		.2byte	0x6e7
 679 01fa CA000000 		.4byte	0xca
 680 01fe 03       		.byte	0x3
 681 01ff 28020000 		.4byte	0x228
 682 0203 0B       		.uleb128 0xb
 683 0204 6F703100 		.ascii	"op1\000"
ARM GAS  /tmp/ccUWoync.s 			page 13


 684 0208 02       		.byte	0x2
 685 0209 E706     		.2byte	0x6e7
 686 020b CA000000 		.4byte	0xca
 687 020f 0B       		.uleb128 0xb
 688 0210 6F703200 		.ascii	"op2\000"
 689 0214 02       		.byte	0x2
 690 0215 E706     		.2byte	0x6e7
 691 0217 CA000000 		.4byte	0xca
 692 021b 0C       		.uleb128 0xc
 693 021c 0E040000 		.4byte	.LASF41
 694 0220 02       		.byte	0x2
 695 0221 E906     		.2byte	0x6e9
 696 0223 CA000000 		.4byte	0xca
 697 0227 00       		.byte	0
 698 0228 0A       		.uleb128 0xa
 699 0229 46020000 		.4byte	.LASF40
 700 022d 02       		.byte	0x2
 701 022e B506     		.2byte	0x6b5
 702 0230 CA000000 		.4byte	0xca
 703 0234 03       		.byte	0x3
 704 0235 6A020000 		.4byte	0x26a
 705 0239 0B       		.uleb128 0xb
 706 023a 6F703100 		.ascii	"op1\000"
 707 023e 02       		.byte	0x2
 708 023f B506     		.2byte	0x6b5
 709 0241 CA000000 		.4byte	0xca
 710 0245 0B       		.uleb128 0xb
 711 0246 6F703200 		.ascii	"op2\000"
 712 024a 02       		.byte	0x2
 713 024b B506     		.2byte	0x6b5
 714 024d CA000000 		.4byte	0xca
 715 0251 0B       		.uleb128 0xb
 716 0252 6F703300 		.ascii	"op3\000"
 717 0256 02       		.byte	0x2
 718 0257 B506     		.2byte	0x6b5
 719 0259 CA000000 		.4byte	0xca
 720 025d 0C       		.uleb128 0xc
 721 025e 0E040000 		.4byte	.LASF41
 722 0262 02       		.byte	0x2
 723 0263 B706     		.2byte	0x6b7
 724 0265 CA000000 		.4byte	0xca
 725 0269 00       		.byte	0
 726 026a 0A       		.uleb128 0xa
 727 026b 43010000 		.4byte	.LASF42
 728 026f 02       		.byte	0x2
 729 0270 EF06     		.2byte	0x6ef
 730 0272 CA000000 		.4byte	0xca
 731 0276 03       		.byte	0x3
 732 0277 A0020000 		.4byte	0x2a0
 733 027b 0B       		.uleb128 0xb
 734 027c 6F703100 		.ascii	"op1\000"
 735 0280 02       		.byte	0x2
 736 0281 EF06     		.2byte	0x6ef
 737 0283 CA000000 		.4byte	0xca
 738 0287 0B       		.uleb128 0xb
 739 0288 6F703200 		.ascii	"op2\000"
 740 028c 02       		.byte	0x2
ARM GAS  /tmp/ccUWoync.s 			page 14


 741 028d EF06     		.2byte	0x6ef
 742 028f CA000000 		.4byte	0xca
 743 0293 0C       		.uleb128 0xc
 744 0294 0E040000 		.4byte	.LASF41
 745 0298 02       		.byte	0x2
 746 0299 F106     		.2byte	0x6f1
 747 029b CA000000 		.4byte	0xca
 748 029f 00       		.byte	0
 749 02a0 0A       		.uleb128 0xa
 750 02a1 01030000 		.4byte	.LASF43
 751 02a5 02       		.byte	0x2
 752 02a6 BD06     		.2byte	0x6bd
 753 02a8 CA000000 		.4byte	0xca
 754 02ac 03       		.byte	0x3
 755 02ad E2020000 		.4byte	0x2e2
 756 02b1 0B       		.uleb128 0xb
 757 02b2 6F703100 		.ascii	"op1\000"
 758 02b6 02       		.byte	0x2
 759 02b7 BD06     		.2byte	0x6bd
 760 02b9 CA000000 		.4byte	0xca
 761 02bd 0B       		.uleb128 0xb
 762 02be 6F703200 		.ascii	"op2\000"
 763 02c2 02       		.byte	0x2
 764 02c3 BD06     		.2byte	0x6bd
 765 02c5 CA000000 		.4byte	0xca
 766 02c9 0B       		.uleb128 0xb
 767 02ca 6F703300 		.ascii	"op3\000"
 768 02ce 02       		.byte	0x2
 769 02cf BD06     		.2byte	0x6bd
 770 02d1 CA000000 		.4byte	0xca
 771 02d5 0C       		.uleb128 0xc
 772 02d6 0E040000 		.4byte	.LASF41
 773 02da 02       		.byte	0x2
 774 02db BF06     		.2byte	0x6bf
 775 02dd CA000000 		.4byte	0xca
 776 02e1 00       		.byte	0
 777 02e2 0A       		.uleb128 0xa
 778 02e3 F3010000 		.4byte	.LASF44
 779 02e7 02       		.byte	0x2
 780 02e8 AD06     		.2byte	0x6ad
 781 02ea CA000000 		.4byte	0xca
 782 02ee 03       		.byte	0x3
 783 02ef 18030000 		.4byte	0x318
 784 02f3 0B       		.uleb128 0xb
 785 02f4 6F703100 		.ascii	"op1\000"
 786 02f8 02       		.byte	0x2
 787 02f9 AD06     		.2byte	0x6ad
 788 02fb CA000000 		.4byte	0xca
 789 02ff 0B       		.uleb128 0xb
 790 0300 6F703200 		.ascii	"op2\000"
 791 0304 02       		.byte	0x2
 792 0305 AD06     		.2byte	0x6ad
 793 0307 CA000000 		.4byte	0xca
 794 030b 0C       		.uleb128 0xc
 795 030c 0E040000 		.4byte	.LASF41
 796 0310 02       		.byte	0x2
 797 0311 AF06     		.2byte	0x6af
ARM GAS  /tmp/ccUWoync.s 			page 15


 798 0313 CA000000 		.4byte	0xca
 799 0317 00       		.byte	0
 800 0318 0A       		.uleb128 0xa
 801 0319 3A010000 		.4byte	.LASF45
 802 031d 02       		.byte	0x2
 803 031e FF06     		.2byte	0x6ff
 804 0320 CA000000 		.4byte	0xca
 805 0324 03       		.byte	0x3
 806 0325 5A030000 		.4byte	0x35a
 807 0329 0B       		.uleb128 0xb
 808 032a 6F703100 		.ascii	"op1\000"
 809 032e 02       		.byte	0x2
 810 032f FF06     		.2byte	0x6ff
 811 0331 CA000000 		.4byte	0xca
 812 0335 0B       		.uleb128 0xb
 813 0336 6F703200 		.ascii	"op2\000"
 814 033a 02       		.byte	0x2
 815 033b FF06     		.2byte	0x6ff
 816 033d CA000000 		.4byte	0xca
 817 0341 0B       		.uleb128 0xb
 818 0342 6F703300 		.ascii	"op3\000"
 819 0346 02       		.byte	0x2
 820 0347 FF06     		.2byte	0x6ff
 821 0349 CA000000 		.4byte	0xca
 822 034d 0C       		.uleb128 0xc
 823 034e 0E040000 		.4byte	.LASF41
 824 0352 02       		.byte	0x2
 825 0353 0107     		.2byte	0x701
 826 0355 CA000000 		.4byte	0xca
 827 0359 00       		.byte	0
 828 035a 0D       		.uleb128 0xd
 829 035b 27010000 		.4byte	.LASF57
 830 035f 01       		.byte	0x1
 831 0360 8C       		.byte	0x8c
 832 0361 00000000 		.4byte	.LFB136
 833 0365 B6000000 		.4byte	.LFE136-.LFB136
 834 0369 01       		.uleb128 0x1
 835 036a 9C       		.byte	0x9c
 836 036b 3F050000 		.4byte	0x53f
 837 036f 0E       		.uleb128 0xe
 838 0370 F5000000 		.4byte	.LASF46
 839 0374 01       		.byte	0x1
 840 0375 8D       		.byte	0x8d
 841 0376 10010000 		.4byte	0x110
 842 037a 00000000 		.4byte	.LLST0
 843 037e 0E       		.uleb128 0xe
 844 037f E1000000 		.4byte	.LASF26
 845 0383 01       		.byte	0x1
 846 0384 8E       		.byte	0x8e
 847 0385 CA000000 		.4byte	0xca
 848 0389 1F000000 		.4byte	.LLST1
 849 038d 0E       		.uleb128 0xe
 850 038e 0C010000 		.4byte	.LASF47
 851 0392 01       		.byte	0x1
 852 0393 8F       		.byte	0x8f
 853 0394 10010000 		.4byte	0x110
 854 0398 4D000000 		.4byte	.LLST2
ARM GAS  /tmp/ccUWoync.s 			page 16


 855 039c 0E       		.uleb128 0xe
 856 039d 1E020000 		.4byte	.LASF48
 857 03a1 01       		.byte	0x1
 858 03a2 90       		.byte	0x90
 859 03a3 10010000 		.4byte	0x110
 860 03a7 6E000000 		.4byte	.LLST3
 861 03ab 0F       		.uleb128 0xf
 862 03ac 86000000 		.4byte	.LASF49
 863 03b0 01       		.byte	0x1
 864 03b1 91       		.byte	0x91
 865 03b2 10010000 		.4byte	0x110
 866 03b6 02       		.uleb128 0x2
 867 03b7 91       		.byte	0x91
 868 03b8 00       		.sleb128 0
 869 03b9 0F       		.uleb128 0xf
 870 03ba 52000000 		.4byte	.LASF50
 871 03be 01       		.byte	0x1
 872 03bf 92       		.byte	0x92
 873 03c0 CA000000 		.4byte	0xca
 874 03c4 02       		.uleb128 0x2
 875 03c5 91       		.byte	0x91
 876 03c6 04       		.sleb128 4
 877 03c7 10       		.uleb128 0x10
 878 03c8 6900     		.ascii	"i\000"
 879 03ca 01       		.byte	0x1
 880 03cb 94       		.byte	0x94
 881 03cc CA000000 		.4byte	0xca
 882 03d0 8F000000 		.4byte	.LLST4
 883 03d4 11       		.uleb128 0x11
 884 03d5 7D010000 		.4byte	.LASF51
 885 03d9 01       		.byte	0x1
 886 03da 95       		.byte	0x95
 887 03db 04010000 		.4byte	0x104
 888 03df AF000000 		.4byte	.LLST5
 889 03e3 11       		.uleb128 0x11
 890 03e4 5C010000 		.4byte	.LASF52
 891 03e8 01       		.byte	0x1
 892 03e9 95       		.byte	0x95
 893 03ea 04010000 		.4byte	0x104
 894 03ee DC000000 		.4byte	.LLST6
 895 03f2 11       		.uleb128 0x11
 896 03f3 D6020000 		.4byte	.LASF53
 897 03f7 01       		.byte	0x1
 898 03f8 96       		.byte	0x96
 899 03f9 10010000 		.4byte	0x110
 900 03fd FA000000 		.4byte	.LLST7
 901 0401 11       		.uleb128 0x11
 902 0402 55010000 		.4byte	.LASF54
 903 0406 01       		.byte	0x1
 904 0407 96       		.byte	0x96
 905 0408 10010000 		.4byte	0x110
 906 040c 1D010000 		.4byte	.LLST8
 907 0410 11       		.uleb128 0x11
 908 0411 8A010000 		.4byte	.LASF55
 909 0415 01       		.byte	0x1
 910 0416 97       		.byte	0x97
 911 0417 10010000 		.4byte	0x110
ARM GAS  /tmp/ccUWoync.s 			page 17


 912 041b 40010000 		.4byte	.LLST9
 913 041f 11       		.uleb128 0x11
 914 0420 91000000 		.4byte	.LASF56
 915 0424 01       		.byte	0x1
 916 0425 97       		.byte	0x97
 917 0426 10010000 		.4byte	0x110
 918 042a 7D010000 		.4byte	.LLST10
 919 042e 10       		.uleb128 0x10
 920 042f 70443100 		.ascii	"pD1\000"
 921 0433 01       		.byte	0x1
 922 0434 99       		.byte	0x99
 923 0435 10010000 		.4byte	0x110
 924 0439 CD010000 		.4byte	.LLST11
 925 043d 10       		.uleb128 0x10
 926 043e 70443200 		.ascii	"pD2\000"
 927 0442 01       		.byte	0x1
 928 0443 99       		.byte	0x99
 929 0444 10010000 		.4byte	0x110
 930 0448 E5010000 		.4byte	.LLST12
 931 044c 12       		.uleb128 0x12
 932 044d F2010000 		.4byte	0x1f2
 933 0451 4A000000 		.4byte	.LBB18
 934 0455 04000000 		.4byte	.LBE18-.LBB18
 935 0459 01       		.byte	0x1
 936 045a BC       		.byte	0xbc
 937 045b 85040000 		.4byte	0x485
 938 045f 13       		.uleb128 0x13
 939 0460 0F020000 		.4byte	0x20f
 940 0464 8B020000 		.4byte	.LLST13
 941 0468 13       		.uleb128 0x13
 942 0469 03020000 		.4byte	0x203
 943 046d AD020000 		.4byte	.LLST14
 944 0471 14       		.uleb128 0x14
 945 0472 4A000000 		.4byte	.LBB19
 946 0476 04000000 		.4byte	.LBE19-.LBB19
 947 047a 15       		.uleb128 0x15
 948 047b 1B020000 		.4byte	0x21b
 949 047f CC020000 		.4byte	.LLST15
 950 0483 00       		.byte	0
 951 0484 00       		.byte	0
 952 0485 12       		.uleb128 0x12
 953 0486 28020000 		.4byte	0x228
 954 048a 56000000 		.4byte	.LBB20
 955 048e 04000000 		.4byte	.LBE20-.LBB20
 956 0492 01       		.byte	0x1
 957 0493 C7       		.byte	0xc7
 958 0494 C7040000 		.4byte	0x4c7
 959 0498 13       		.uleb128 0x13
 960 0499 51020000 		.4byte	0x251
 961 049d DF020000 		.4byte	.LLST16
 962 04a1 13       		.uleb128 0x13
 963 04a2 45020000 		.4byte	0x245
 964 04a6 F2020000 		.4byte	.LLST17
 965 04aa 13       		.uleb128 0x13
 966 04ab 39020000 		.4byte	0x239
 967 04af 05030000 		.4byte	.LLST18
 968 04b3 14       		.uleb128 0x14
ARM GAS  /tmp/ccUWoync.s 			page 18


 969 04b4 56000000 		.4byte	.LBB21
 970 04b8 04000000 		.4byte	.LBE21-.LBB21
 971 04bc 15       		.uleb128 0x15
 972 04bd 5D020000 		.4byte	0x25d
 973 04c1 24030000 		.4byte	.LLST19
 974 04c5 00       		.byte	0
 975 04c6 00       		.byte	0
 976 04c7 12       		.uleb128 0x12
 977 04c8 6A020000 		.4byte	0x26a
 978 04cc 5A000000 		.4byte	.LBB22
 979 04d0 04000000 		.4byte	.LBE22-.LBB22
 980 04d4 01       		.byte	0x1
 981 04d5 CE       		.byte	0xce
 982 04d6 00050000 		.4byte	0x500
 983 04da 13       		.uleb128 0x13
 984 04db 87020000 		.4byte	0x287
 985 04df 37030000 		.4byte	.LLST20
 986 04e3 13       		.uleb128 0x13
 987 04e4 7B020000 		.4byte	0x27b
 988 04e8 4A030000 		.4byte	.LLST21
 989 04ec 14       		.uleb128 0x14
 990 04ed 5A000000 		.4byte	.LBB23
 991 04f1 04000000 		.4byte	.LBE23-.LBB23
 992 04f5 15       		.uleb128 0x15
 993 04f6 93020000 		.4byte	0x293
 994 04fa 69030000 		.4byte	.LLST22
 995 04fe 00       		.byte	0
 996 04ff 00       		.byte	0
 997 0500 16       		.uleb128 0x16
 998 0501 A0020000 		.4byte	0x2a0
 999 0505 5E000000 		.4byte	.LBB24
 1000 0509 04000000 		.4byte	.LBE24-.LBB24
 1001 050d 01       		.byte	0x1
 1002 050e D7       		.byte	0xd7
 1003 050f 13       		.uleb128 0x13
 1004 0510 C9020000 		.4byte	0x2c9
 1005 0514 69030000 		.4byte	.LLST22
 1006 0518 13       		.uleb128 0x13
 1007 0519 BD020000 		.4byte	0x2bd
 1008 051d 7C030000 		.4byte	.LLST24
 1009 0521 13       		.uleb128 0x13
 1010 0522 B1020000 		.4byte	0x2b1
 1011 0526 9E030000 		.4byte	.LLST25
 1012 052a 14       		.uleb128 0x14
 1013 052b 5E000000 		.4byte	.LBB25
 1014 052f 04000000 		.4byte	.LBE25-.LBB25
 1015 0533 15       		.uleb128 0x15
 1016 0534 D5020000 		.4byte	0x2d5
 1017 0538 BD030000 		.4byte	.LLST26
 1018 053c 00       		.byte	0
 1019 053d 00       		.byte	0
 1020 053e 00       		.byte	0
 1021 053f 17       		.uleb128 0x17
 1022 0540 0A000000 		.4byte	.LASF58
 1023 0544 01       		.byte	0x1
 1024 0545 3201     		.2byte	0x132
 1025 0547 C0000000 		.4byte	.LFB137
ARM GAS  /tmp/ccUWoync.s 			page 19


 1026 054b 4E000000 		.4byte	.LFE137-.LFB137
 1027 054f 01       		.uleb128 0x1
 1028 0550 9C       		.byte	0x9c
 1029 0551 24070000 		.4byte	0x724
 1030 0555 18       		.uleb128 0x18
 1031 0556 F5000000 		.4byte	.LASF46
 1032 055a 01       		.byte	0x1
 1033 055b 3301     		.2byte	0x133
 1034 055d 10010000 		.4byte	0x110
 1035 0561 D0030000 		.4byte	.LLST27
 1036 0565 18       		.uleb128 0x18
 1037 0566 E1000000 		.4byte	.LASF26
 1038 056a 01       		.byte	0x1
 1039 056b 3401     		.2byte	0x134
 1040 056d CA000000 		.4byte	0xca
 1041 0571 F1030000 		.4byte	.LLST28
 1042 0575 18       		.uleb128 0x18
 1043 0576 0C010000 		.4byte	.LASF47
 1044 057a 01       		.byte	0x1
 1045 057b 3501     		.2byte	0x135
 1046 057d 10010000 		.4byte	0x110
 1047 0581 12040000 		.4byte	.LLST29
 1048 0585 18       		.uleb128 0x18
 1049 0586 1E020000 		.4byte	.LASF48
 1050 058a 01       		.byte	0x1
 1051 058b 3601     		.2byte	0x136
 1052 058d 10010000 		.4byte	0x110
 1053 0591 33040000 		.4byte	.LLST30
 1054 0595 19       		.uleb128 0x19
 1055 0596 86000000 		.4byte	.LASF49
 1056 059a 01       		.byte	0x1
 1057 059b 3701     		.2byte	0x137
 1058 059d 10010000 		.4byte	0x110
 1059 05a1 02       		.uleb128 0x2
 1060 05a2 91       		.byte	0x91
 1061 05a3 00       		.sleb128 0
 1062 05a4 19       		.uleb128 0x19
 1063 05a5 52000000 		.4byte	.LASF50
 1064 05a9 01       		.byte	0x1
 1065 05aa 3801     		.2byte	0x138
 1066 05ac CA000000 		.4byte	0xca
 1067 05b0 02       		.uleb128 0x2
 1068 05b1 91       		.byte	0x91
 1069 05b2 04       		.sleb128 4
 1070 05b3 1A       		.uleb128 0x1a
 1071 05b4 6900     		.ascii	"i\000"
 1072 05b6 01       		.byte	0x1
 1073 05b7 3A01     		.2byte	0x13a
 1074 05b9 CA000000 		.4byte	0xca
 1075 05bd 54040000 		.4byte	.LLST31
 1076 05c1 1B       		.uleb128 0x1b
 1077 05c2 7D010000 		.4byte	.LASF51
 1078 05c6 01       		.byte	0x1
 1079 05c7 3B01     		.2byte	0x13b
 1080 05c9 04010000 		.4byte	0x104
 1081 05cd 74040000 		.4byte	.LLST32
 1082 05d1 1B       		.uleb128 0x1b
ARM GAS  /tmp/ccUWoync.s 			page 20


 1083 05d2 5C010000 		.4byte	.LASF52
 1084 05d6 01       		.byte	0x1
 1085 05d7 3B01     		.2byte	0x13b
 1086 05d9 04010000 		.4byte	0x104
 1087 05dd 96040000 		.4byte	.LLST33
 1088 05e1 1C       		.uleb128 0x1c
 1089 05e2 D6020000 		.4byte	.LASF53
 1090 05e6 01       		.byte	0x1
 1091 05e7 3C01     		.2byte	0x13c
 1092 05e9 10010000 		.4byte	0x110
 1093 05ed 01       		.uleb128 0x1
 1094 05ee 52       		.byte	0x52
 1095 05ef 1C       		.uleb128 0x1c
 1096 05f0 55010000 		.4byte	.LASF54
 1097 05f4 01       		.byte	0x1
 1098 05f5 3C01     		.2byte	0x13c
 1099 05f7 10010000 		.4byte	0x110
 1100 05fb 01       		.uleb128 0x1
 1101 05fc 53       		.byte	0x53
 1102 05fd 1B       		.uleb128 0x1b
 1103 05fe 8A010000 		.4byte	.LASF55
 1104 0602 01       		.byte	0x1
 1105 0603 3D01     		.2byte	0x13d
 1106 0605 10010000 		.4byte	0x110
 1107 0609 C2040000 		.4byte	.LLST34
 1108 060d 1B       		.uleb128 0x1b
 1109 060e 91000000 		.4byte	.LASF56
 1110 0612 01       		.byte	0x1
 1111 0613 3D01     		.2byte	0x13d
 1112 0615 10010000 		.4byte	0x110
 1113 0619 ED040000 		.4byte	.LLST35
 1114 061d 1B       		.uleb128 0x1b
 1115 061e FB020000 		.4byte	.LASF59
 1116 0622 01       		.byte	0x1
 1117 0623 3E01     		.2byte	0x13e
 1118 0625 10010000 		.4byte	0x110
 1119 0629 4E050000 		.4byte	.LLST36
 1120 062d 1D       		.uleb128 0x1d
 1121 062e F2010000 		.4byte	0x1f2
 1122 0632 DE000000 		.4byte	.LBB26
 1123 0636 04000000 		.4byte	.LBE26-.LBB26
 1124 063a 01       		.byte	0x1
 1125 063b 5C01     		.2byte	0x15c
 1126 063d 67060000 		.4byte	0x667
 1127 0641 13       		.uleb128 0x13
 1128 0642 0F020000 		.4byte	0x20f
 1129 0646 79050000 		.4byte	.LLST37
 1130 064a 13       		.uleb128 0x13
 1131 064b 03020000 		.4byte	0x203
 1132 064f 8C050000 		.4byte	.LLST38
 1133 0653 14       		.uleb128 0x14
 1134 0654 DE000000 		.4byte	.LBB27
 1135 0658 04000000 		.4byte	.LBE27-.LBB27
 1136 065c 15       		.uleb128 0x15
 1137 065d 1B020000 		.4byte	0x21b
 1138 0661 AB050000 		.4byte	.LLST39
 1139 0665 00       		.byte	0
ARM GAS  /tmp/ccUWoync.s 			page 21


 1140 0666 00       		.byte	0
 1141 0667 1D       		.uleb128 0x1d
 1142 0668 28020000 		.4byte	0x228
 1143 066c E8000000 		.4byte	.LBB28
 1144 0670 04000000 		.4byte	.LBE28-.LBB28
 1145 0674 01       		.byte	0x1
 1146 0675 6801     		.2byte	0x168
 1147 0677 AA060000 		.4byte	0x6aa
 1148 067b 13       		.uleb128 0x13
 1149 067c 51020000 		.4byte	0x251
 1150 0680 BE050000 		.4byte	.LLST40
 1151 0684 13       		.uleb128 0x13
 1152 0685 45020000 		.4byte	0x245
 1153 0689 D1050000 		.4byte	.LLST41
 1154 068d 13       		.uleb128 0x13
 1155 068e 39020000 		.4byte	0x239
 1156 0692 F0050000 		.4byte	.LLST42
 1157 0696 14       		.uleb128 0x14
 1158 0697 E8000000 		.4byte	.LBB29
 1159 069b 04000000 		.4byte	.LBE29-.LBB29
 1160 069f 15       		.uleb128 0x15
 1161 06a0 5D020000 		.4byte	0x25d
 1162 06a4 0F060000 		.4byte	.LLST43
 1163 06a8 00       		.byte	0
 1164 06a9 00       		.byte	0
 1165 06aa 1D       		.uleb128 0x1d
 1166 06ab E2020000 		.4byte	0x2e2
 1167 06af EC000000 		.4byte	.LBB30
 1168 06b3 04000000 		.4byte	.LBE30-.LBB30
 1169 06b7 01       		.byte	0x1
 1170 06b8 6D01     		.2byte	0x16d
 1171 06ba E4060000 		.4byte	0x6e4
 1172 06be 13       		.uleb128 0x13
 1173 06bf FF020000 		.4byte	0x2ff
 1174 06c3 22060000 		.4byte	.LLST44
 1175 06c7 13       		.uleb128 0x13
 1176 06c8 F3020000 		.4byte	0x2f3
 1177 06cc 35060000 		.4byte	.LLST45
 1178 06d0 14       		.uleb128 0x14
 1179 06d1 EC000000 		.4byte	.LBB31
 1180 06d5 04000000 		.4byte	.LBE31-.LBB31
 1181 06d9 15       		.uleb128 0x15
 1182 06da 0B030000 		.4byte	0x30b
 1183 06de 54060000 		.4byte	.LLST46
 1184 06e2 00       		.byte	0
 1185 06e3 00       		.byte	0
 1186 06e4 1E       		.uleb128 0x1e
 1187 06e5 18030000 		.4byte	0x318
 1188 06e9 F2000000 		.4byte	.LBB32
 1189 06ed 04000000 		.4byte	.LBE32-.LBB32
 1190 06f1 01       		.byte	0x1
 1191 06f2 7301     		.2byte	0x173
 1192 06f4 13       		.uleb128 0x13
 1193 06f5 41030000 		.4byte	0x341
 1194 06f9 75060000 		.4byte	.LLST47
 1195 06fd 13       		.uleb128 0x13
 1196 06fe 35030000 		.4byte	0x335
ARM GAS  /tmp/ccUWoync.s 			page 22


 1197 0702 96060000 		.4byte	.LLST48
 1198 0706 13       		.uleb128 0x13
 1199 0707 29030000 		.4byte	0x329
 1200 070b B5060000 		.4byte	.LLST49
 1201 070f 14       		.uleb128 0x14
 1202 0710 F2000000 		.4byte	.LBB33
 1203 0714 04000000 		.4byte	.LBE33-.LBB33
 1204 0718 15       		.uleb128 0x15
 1205 0719 4D030000 		.4byte	0x34d
 1206 071d D4060000 		.4byte	.LLST50
 1207 0721 00       		.byte	0
 1208 0722 00       		.byte	0
 1209 0723 00       		.byte	0
 1210 0724 0D       		.uleb128 0xd
 1211 0725 96010000 		.4byte	.LASF60
 1212 0729 01       		.byte	0x1
 1213 072a 57       		.byte	0x57
 1214 072b 10010000 		.4byte	.LFB135
 1215 072f 78000000 		.4byte	.LFE135-.LFB135
 1216 0733 01       		.uleb128 0x1
 1217 0734 9C       		.byte	0x9c
 1218 0735 0B080000 		.4byte	0x80b
 1219 0739 1F       		.uleb128 0x1f
 1220 073a 5300     		.ascii	"S\000"
 1221 073c 01       		.byte	0x1
 1222 073d 58       		.byte	0x58
 1223 073e 0B080000 		.4byte	0x80b
 1224 0742 E7060000 		.4byte	.LLST51
 1225 0746 0E       		.uleb128 0xe
 1226 0747 F5000000 		.4byte	.LASF46
 1227 074b 01       		.byte	0x1
 1228 074c 59       		.byte	0x59
 1229 074d 10010000 		.4byte	0x110
 1230 0751 29070000 		.4byte	.LLST52
 1231 0755 0E       		.uleb128 0xe
 1232 0756 86000000 		.4byte	.LASF49
 1233 075a 01       		.byte	0x1
 1234 075b 5A       		.byte	0x5a
 1235 075c 10010000 		.4byte	0x110
 1236 0760 5D070000 		.4byte	.LLST53
 1237 0764 20       		.uleb128 0x20
 1238 0765 4B000000 		.4byte	.LASF61
 1239 0769 01       		.byte	0x1
 1240 076a 5C       		.byte	0x5c
 1241 076b DB010000 		.4byte	0x1db
 1242 076f 01       		.uleb128 0x1
 1243 0770 56       		.byte	0x56
 1244 0771 10       		.uleb128 0x10
 1245 0772 6900     		.ascii	"i\000"
 1246 0774 01       		.byte	0x1
 1247 0775 5D       		.byte	0x5d
 1248 0776 CA000000 		.4byte	0xca
 1249 077a 7B070000 		.4byte	.LLST54
 1250 077e 21       		.uleb128 0x21
 1251 077f 4C3200   		.ascii	"L2\000"
 1252 0782 01       		.byte	0x1
 1253 0783 5E       		.byte	0x5e
ARM GAS  /tmp/ccUWoync.s 			page 23


 1254 0784 CA000000 		.4byte	0xca
 1255 0788 01       		.uleb128 0x1
 1256 0789 58       		.byte	0x58
 1257 078a 22       		.uleb128 0x22
 1258 078b 32010000 		.4byte	.LVL50
 1259 078f 16080000 		.4byte	0x816
 1260 0793 A4070000 		.4byte	0x7a4
 1261 0797 23       		.uleb128 0x23
 1262 0798 01       		.uleb128 0x1
 1263 0799 51       		.byte	0x51
 1264 079a 02       		.uleb128 0x2
 1265 079b 79       		.byte	0x79
 1266 079c 00       		.sleb128 0
 1267 079d 23       		.uleb128 0x23
 1268 079e 01       		.uleb128 0x1
 1269 079f 50       		.byte	0x50
 1270 07a0 02       		.uleb128 0x2
 1271 07a1 76       		.byte	0x76
 1272 07a2 00       		.sleb128 0
 1273 07a3 00       		.byte	0
 1274 07a4 22       		.uleb128 0x22
 1275 07a5 44010000 		.4byte	.LVL52
 1276 07a9 5A030000 		.4byte	0x35a
 1277 07ad CC070000 		.4byte	0x7cc
 1278 07b1 23       		.uleb128 0x23
 1279 07b2 01       		.uleb128 0x1
 1280 07b3 51       		.byte	0x51
 1281 07b4 02       		.uleb128 0x2
 1282 07b5 78       		.byte	0x78
 1283 07b6 00       		.sleb128 0
 1284 07b7 23       		.uleb128 0x23
 1285 07b8 01       		.uleb128 0x1
 1286 07b9 50       		.byte	0x50
 1287 07ba 02       		.uleb128 0x2
 1288 07bb 79       		.byte	0x79
 1289 07bc 00       		.sleb128 0
 1290 07bd 23       		.uleb128 0x23
 1291 07be 02       		.uleb128 0x2
 1292 07bf 7D       		.byte	0x7d
 1293 07c0 04       		.sleb128 4
 1294 07c1 02       		.uleb128 0x2
 1295 07c2 75       		.byte	0x75
 1296 07c3 00       		.sleb128 0
 1297 07c4 23       		.uleb128 0x23
 1298 07c5 02       		.uleb128 0x2
 1299 07c6 7D       		.byte	0x7d
 1300 07c7 00       		.sleb128 0
 1301 07c8 02       		.uleb128 0x2
 1302 07c9 74       		.byte	0x74
 1303 07ca 00       		.sleb128 0
 1304 07cb 00       		.byte	0
 1305 07cc 22       		.uleb128 0x22
 1306 07cd 5C010000 		.4byte	.LVL56
 1307 07d1 3F050000 		.4byte	0x53f
 1308 07d5 F4070000 		.4byte	0x7f4
 1309 07d9 23       		.uleb128 0x23
 1310 07da 01       		.uleb128 0x1
ARM GAS  /tmp/ccUWoync.s 			page 24


 1311 07db 51       		.byte	0x51
 1312 07dc 02       		.uleb128 0x2
 1313 07dd 78       		.byte	0x78
 1314 07de 00       		.sleb128 0
 1315 07df 23       		.uleb128 0x23
 1316 07e0 01       		.uleb128 0x1
 1317 07e1 50       		.byte	0x50
 1318 07e2 02       		.uleb128 0x2
 1319 07e3 79       		.byte	0x79
 1320 07e4 00       		.sleb128 0
 1321 07e5 23       		.uleb128 0x23
 1322 07e6 02       		.uleb128 0x2
 1323 07e7 7D       		.byte	0x7d
 1324 07e8 04       		.sleb128 4
 1325 07e9 02       		.uleb128 0x2
 1326 07ea 77       		.byte	0x77
 1327 07eb 00       		.sleb128 0
 1328 07ec 23       		.uleb128 0x23
 1329 07ed 02       		.uleb128 0x2
 1330 07ee 7D       		.byte	0x7d
 1331 07ef 00       		.sleb128 0
 1332 07f0 02       		.uleb128 0x2
 1333 07f1 74       		.byte	0x74
 1334 07f2 00       		.sleb128 0
 1335 07f3 00       		.byte	0
 1336 07f4 24       		.uleb128 0x24
 1337 07f5 68010000 		.4byte	.LVL57
 1338 07f9 16080000 		.4byte	0x816
 1339 07fd 23       		.uleb128 0x23
 1340 07fe 01       		.uleb128 0x1
 1341 07ff 51       		.byte	0x51
 1342 0800 02       		.uleb128 0x2
 1343 0801 74       		.byte	0x74
 1344 0802 00       		.sleb128 0
 1345 0803 23       		.uleb128 0x23
 1346 0804 01       		.uleb128 0x1
 1347 0805 50       		.byte	0x50
 1348 0806 02       		.uleb128 0x2
 1349 0807 76       		.byte	0x76
 1350 0808 00       		.sleb128 0
 1351 0809 00       		.byte	0
 1352 080a 00       		.byte	0
 1353 080b 06       		.uleb128 0x6
 1354 080c 04       		.byte	0x4
 1355 080d 11080000 		.4byte	0x811
 1356 0811 09       		.uleb128 0x9
 1357 0812 E6010000 		.4byte	0x1e6
 1358 0816 25       		.uleb128 0x25
 1359 0817 DD020000 		.4byte	.LASF64
 1360 081b 05       		.byte	0x5
 1361 081c 8908     		.2byte	0x889
 1362 081e 26       		.uleb128 0x26
 1363 081f DB010000 		.4byte	0x1db
 1364 0823 26       		.uleb128 0x26
 1365 0824 10010000 		.4byte	0x110
 1366 0828 26       		.uleb128 0x26
 1367 0829 9E000000 		.4byte	0x9e
ARM GAS  /tmp/ccUWoync.s 			page 25


 1368 082d 26       		.uleb128 0x26
 1369 082e 9E000000 		.4byte	0x9e
 1370 0832 00       		.byte	0
 1371 0833 00       		.byte	0
 1372              		.section	.debug_abbrev,"",%progbits
 1373              	.Ldebug_abbrev0:
 1374 0000 01       		.uleb128 0x1
 1375 0001 11       		.uleb128 0x11
 1376 0002 01       		.byte	0x1
 1377 0003 25       		.uleb128 0x25
 1378 0004 0E       		.uleb128 0xe
 1379 0005 13       		.uleb128 0x13
 1380 0006 0B       		.uleb128 0xb
 1381 0007 03       		.uleb128 0x3
 1382 0008 0E       		.uleb128 0xe
 1383 0009 11       		.uleb128 0x11
 1384 000a 01       		.uleb128 0x1
 1385 000b 12       		.uleb128 0x12
 1386 000c 06       		.uleb128 0x6
 1387 000d 10       		.uleb128 0x10
 1388 000e 17       		.uleb128 0x17
 1389 000f 00       		.byte	0
 1390 0010 00       		.byte	0
 1391 0011 02       		.uleb128 0x2
 1392 0012 24       		.uleb128 0x24
 1393 0013 00       		.byte	0
 1394 0014 0B       		.uleb128 0xb
 1395 0015 0B       		.uleb128 0xb
 1396 0016 3E       		.uleb128 0x3e
 1397 0017 0B       		.uleb128 0xb
 1398 0018 03       		.uleb128 0x3
 1399 0019 0E       		.uleb128 0xe
 1400 001a 00       		.byte	0
 1401 001b 00       		.byte	0
 1402 001c 03       		.uleb128 0x3
 1403 001d 16       		.uleb128 0x16
 1404 001e 00       		.byte	0
 1405 001f 03       		.uleb128 0x3
 1406 0020 0E       		.uleb128 0xe
 1407 0021 3A       		.uleb128 0x3a
 1408 0022 0B       		.uleb128 0xb
 1409 0023 3B       		.uleb128 0x3b
 1410 0024 0B       		.uleb128 0xb
 1411 0025 49       		.uleb128 0x49
 1412 0026 13       		.uleb128 0x13
 1413 0027 00       		.byte	0
 1414 0028 00       		.byte	0
 1415 0029 04       		.uleb128 0x4
 1416 002a 24       		.uleb128 0x24
 1417 002b 00       		.byte	0
 1418 002c 0B       		.uleb128 0xb
 1419 002d 0B       		.uleb128 0xb
 1420 002e 3E       		.uleb128 0x3e
 1421 002f 0B       		.uleb128 0xb
 1422 0030 03       		.uleb128 0x3
 1423 0031 08       		.uleb128 0x8
 1424 0032 00       		.byte	0
ARM GAS  /tmp/ccUWoync.s 			page 26


 1425 0033 00       		.byte	0
 1426 0034 05       		.uleb128 0x5
 1427 0035 16       		.uleb128 0x16
 1428 0036 00       		.byte	0
 1429 0037 03       		.uleb128 0x3
 1430 0038 0E       		.uleb128 0xe
 1431 0039 3A       		.uleb128 0x3a
 1432 003a 0B       		.uleb128 0xb
 1433 003b 3B       		.uleb128 0x3b
 1434 003c 05       		.uleb128 0x5
 1435 003d 49       		.uleb128 0x49
 1436 003e 13       		.uleb128 0x13
 1437 003f 00       		.byte	0
 1438 0040 00       		.byte	0
 1439 0041 06       		.uleb128 0x6
 1440 0042 0F       		.uleb128 0xf
 1441 0043 00       		.byte	0
 1442 0044 0B       		.uleb128 0xb
 1443 0045 0B       		.uleb128 0xb
 1444 0046 49       		.uleb128 0x49
 1445 0047 13       		.uleb128 0x13
 1446 0048 00       		.byte	0
 1447 0049 00       		.byte	0
 1448 004a 07       		.uleb128 0x7
 1449 004b 13       		.uleb128 0x13
 1450 004c 01       		.byte	0x1
 1451 004d 0B       		.uleb128 0xb
 1452 004e 0B       		.uleb128 0xb
 1453 004f 3A       		.uleb128 0x3a
 1454 0050 0B       		.uleb128 0xb
 1455 0051 3B       		.uleb128 0x3b
 1456 0052 05       		.uleb128 0x5
 1457 0053 01       		.uleb128 0x1
 1458 0054 13       		.uleb128 0x13
 1459 0055 00       		.byte	0
 1460 0056 00       		.byte	0
 1461 0057 08       		.uleb128 0x8
 1462 0058 0D       		.uleb128 0xd
 1463 0059 00       		.byte	0
 1464 005a 03       		.uleb128 0x3
 1465 005b 0E       		.uleb128 0xe
 1466 005c 3A       		.uleb128 0x3a
 1467 005d 0B       		.uleb128 0xb
 1468 005e 3B       		.uleb128 0x3b
 1469 005f 05       		.uleb128 0x5
 1470 0060 49       		.uleb128 0x49
 1471 0061 13       		.uleb128 0x13
 1472 0062 38       		.uleb128 0x38
 1473 0063 0B       		.uleb128 0xb
 1474 0064 00       		.byte	0
 1475 0065 00       		.byte	0
 1476 0066 09       		.uleb128 0x9
 1477 0067 26       		.uleb128 0x26
 1478 0068 00       		.byte	0
 1479 0069 49       		.uleb128 0x49
 1480 006a 13       		.uleb128 0x13
 1481 006b 00       		.byte	0
ARM GAS  /tmp/ccUWoync.s 			page 27


 1482 006c 00       		.byte	0
 1483 006d 0A       		.uleb128 0xa
 1484 006e 2E       		.uleb128 0x2e
 1485 006f 01       		.byte	0x1
 1486 0070 03       		.uleb128 0x3
 1487 0071 0E       		.uleb128 0xe
 1488 0072 3A       		.uleb128 0x3a
 1489 0073 0B       		.uleb128 0xb
 1490 0074 3B       		.uleb128 0x3b
 1491 0075 05       		.uleb128 0x5
 1492 0076 27       		.uleb128 0x27
 1493 0077 19       		.uleb128 0x19
 1494 0078 49       		.uleb128 0x49
 1495 0079 13       		.uleb128 0x13
 1496 007a 20       		.uleb128 0x20
 1497 007b 0B       		.uleb128 0xb
 1498 007c 01       		.uleb128 0x1
 1499 007d 13       		.uleb128 0x13
 1500 007e 00       		.byte	0
 1501 007f 00       		.byte	0
 1502 0080 0B       		.uleb128 0xb
 1503 0081 05       		.uleb128 0x5
 1504 0082 00       		.byte	0
 1505 0083 03       		.uleb128 0x3
 1506 0084 08       		.uleb128 0x8
 1507 0085 3A       		.uleb128 0x3a
 1508 0086 0B       		.uleb128 0xb
 1509 0087 3B       		.uleb128 0x3b
 1510 0088 05       		.uleb128 0x5
 1511 0089 49       		.uleb128 0x49
 1512 008a 13       		.uleb128 0x13
 1513 008b 00       		.byte	0
 1514 008c 00       		.byte	0
 1515 008d 0C       		.uleb128 0xc
 1516 008e 34       		.uleb128 0x34
 1517 008f 00       		.byte	0
 1518 0090 03       		.uleb128 0x3
 1519 0091 0E       		.uleb128 0xe
 1520 0092 3A       		.uleb128 0x3a
 1521 0093 0B       		.uleb128 0xb
 1522 0094 3B       		.uleb128 0x3b
 1523 0095 05       		.uleb128 0x5
 1524 0096 49       		.uleb128 0x49
 1525 0097 13       		.uleb128 0x13
 1526 0098 00       		.byte	0
 1527 0099 00       		.byte	0
 1528 009a 0D       		.uleb128 0xd
 1529 009b 2E       		.uleb128 0x2e
 1530 009c 01       		.byte	0x1
 1531 009d 3F       		.uleb128 0x3f
 1532 009e 19       		.uleb128 0x19
 1533 009f 03       		.uleb128 0x3
 1534 00a0 0E       		.uleb128 0xe
 1535 00a1 3A       		.uleb128 0x3a
 1536 00a2 0B       		.uleb128 0xb
 1537 00a3 3B       		.uleb128 0x3b
 1538 00a4 0B       		.uleb128 0xb
ARM GAS  /tmp/ccUWoync.s 			page 28


 1539 00a5 27       		.uleb128 0x27
 1540 00a6 19       		.uleb128 0x19
 1541 00a7 11       		.uleb128 0x11
 1542 00a8 01       		.uleb128 0x1
 1543 00a9 12       		.uleb128 0x12
 1544 00aa 06       		.uleb128 0x6
 1545 00ab 40       		.uleb128 0x40
 1546 00ac 18       		.uleb128 0x18
 1547 00ad 9742     		.uleb128 0x2117
 1548 00af 19       		.uleb128 0x19
 1549 00b0 01       		.uleb128 0x1
 1550 00b1 13       		.uleb128 0x13
 1551 00b2 00       		.byte	0
 1552 00b3 00       		.byte	0
 1553 00b4 0E       		.uleb128 0xe
 1554 00b5 05       		.uleb128 0x5
 1555 00b6 00       		.byte	0
 1556 00b7 03       		.uleb128 0x3
 1557 00b8 0E       		.uleb128 0xe
 1558 00b9 3A       		.uleb128 0x3a
 1559 00ba 0B       		.uleb128 0xb
 1560 00bb 3B       		.uleb128 0x3b
 1561 00bc 0B       		.uleb128 0xb
 1562 00bd 49       		.uleb128 0x49
 1563 00be 13       		.uleb128 0x13
 1564 00bf 02       		.uleb128 0x2
 1565 00c0 17       		.uleb128 0x17
 1566 00c1 00       		.byte	0
 1567 00c2 00       		.byte	0
 1568 00c3 0F       		.uleb128 0xf
 1569 00c4 05       		.uleb128 0x5
 1570 00c5 00       		.byte	0
 1571 00c6 03       		.uleb128 0x3
 1572 00c7 0E       		.uleb128 0xe
 1573 00c8 3A       		.uleb128 0x3a
 1574 00c9 0B       		.uleb128 0xb
 1575 00ca 3B       		.uleb128 0x3b
 1576 00cb 0B       		.uleb128 0xb
 1577 00cc 49       		.uleb128 0x49
 1578 00cd 13       		.uleb128 0x13
 1579 00ce 02       		.uleb128 0x2
 1580 00cf 18       		.uleb128 0x18
 1581 00d0 00       		.byte	0
 1582 00d1 00       		.byte	0
 1583 00d2 10       		.uleb128 0x10
 1584 00d3 34       		.uleb128 0x34
 1585 00d4 00       		.byte	0
 1586 00d5 03       		.uleb128 0x3
 1587 00d6 08       		.uleb128 0x8
 1588 00d7 3A       		.uleb128 0x3a
 1589 00d8 0B       		.uleb128 0xb
 1590 00d9 3B       		.uleb128 0x3b
 1591 00da 0B       		.uleb128 0xb
 1592 00db 49       		.uleb128 0x49
 1593 00dc 13       		.uleb128 0x13
 1594 00dd 02       		.uleb128 0x2
 1595 00de 17       		.uleb128 0x17
ARM GAS  /tmp/ccUWoync.s 			page 29


 1596 00df 00       		.byte	0
 1597 00e0 00       		.byte	0
 1598 00e1 11       		.uleb128 0x11
 1599 00e2 34       		.uleb128 0x34
 1600 00e3 00       		.byte	0
 1601 00e4 03       		.uleb128 0x3
 1602 00e5 0E       		.uleb128 0xe
 1603 00e6 3A       		.uleb128 0x3a
 1604 00e7 0B       		.uleb128 0xb
 1605 00e8 3B       		.uleb128 0x3b
 1606 00e9 0B       		.uleb128 0xb
 1607 00ea 49       		.uleb128 0x49
 1608 00eb 13       		.uleb128 0x13
 1609 00ec 02       		.uleb128 0x2
 1610 00ed 17       		.uleb128 0x17
 1611 00ee 00       		.byte	0
 1612 00ef 00       		.byte	0
 1613 00f0 12       		.uleb128 0x12
 1614 00f1 1D       		.uleb128 0x1d
 1615 00f2 01       		.byte	0x1
 1616 00f3 31       		.uleb128 0x31
 1617 00f4 13       		.uleb128 0x13
 1618 00f5 11       		.uleb128 0x11
 1619 00f6 01       		.uleb128 0x1
 1620 00f7 12       		.uleb128 0x12
 1621 00f8 06       		.uleb128 0x6
 1622 00f9 58       		.uleb128 0x58
 1623 00fa 0B       		.uleb128 0xb
 1624 00fb 59       		.uleb128 0x59
 1625 00fc 0B       		.uleb128 0xb
 1626 00fd 01       		.uleb128 0x1
 1627 00fe 13       		.uleb128 0x13
 1628 00ff 00       		.byte	0
 1629 0100 00       		.byte	0
 1630 0101 13       		.uleb128 0x13
 1631 0102 05       		.uleb128 0x5
 1632 0103 00       		.byte	0
 1633 0104 31       		.uleb128 0x31
 1634 0105 13       		.uleb128 0x13
 1635 0106 02       		.uleb128 0x2
 1636 0107 17       		.uleb128 0x17
 1637 0108 00       		.byte	0
 1638 0109 00       		.byte	0
 1639 010a 14       		.uleb128 0x14
 1640 010b 0B       		.uleb128 0xb
 1641 010c 01       		.byte	0x1
 1642 010d 11       		.uleb128 0x11
 1643 010e 01       		.uleb128 0x1
 1644 010f 12       		.uleb128 0x12
 1645 0110 06       		.uleb128 0x6
 1646 0111 00       		.byte	0
 1647 0112 00       		.byte	0
 1648 0113 15       		.uleb128 0x15
 1649 0114 34       		.uleb128 0x34
 1650 0115 00       		.byte	0
 1651 0116 31       		.uleb128 0x31
 1652 0117 13       		.uleb128 0x13
ARM GAS  /tmp/ccUWoync.s 			page 30


 1653 0118 02       		.uleb128 0x2
 1654 0119 17       		.uleb128 0x17
 1655 011a 00       		.byte	0
 1656 011b 00       		.byte	0
 1657 011c 16       		.uleb128 0x16
 1658 011d 1D       		.uleb128 0x1d
 1659 011e 01       		.byte	0x1
 1660 011f 31       		.uleb128 0x31
 1661 0120 13       		.uleb128 0x13
 1662 0121 11       		.uleb128 0x11
 1663 0122 01       		.uleb128 0x1
 1664 0123 12       		.uleb128 0x12
 1665 0124 06       		.uleb128 0x6
 1666 0125 58       		.uleb128 0x58
 1667 0126 0B       		.uleb128 0xb
 1668 0127 59       		.uleb128 0x59
 1669 0128 0B       		.uleb128 0xb
 1670 0129 00       		.byte	0
 1671 012a 00       		.byte	0
 1672 012b 17       		.uleb128 0x17
 1673 012c 2E       		.uleb128 0x2e
 1674 012d 01       		.byte	0x1
 1675 012e 3F       		.uleb128 0x3f
 1676 012f 19       		.uleb128 0x19
 1677 0130 03       		.uleb128 0x3
 1678 0131 0E       		.uleb128 0xe
 1679 0132 3A       		.uleb128 0x3a
 1680 0133 0B       		.uleb128 0xb
 1681 0134 3B       		.uleb128 0x3b
 1682 0135 05       		.uleb128 0x5
 1683 0136 27       		.uleb128 0x27
 1684 0137 19       		.uleb128 0x19
 1685 0138 11       		.uleb128 0x11
 1686 0139 01       		.uleb128 0x1
 1687 013a 12       		.uleb128 0x12
 1688 013b 06       		.uleb128 0x6
 1689 013c 40       		.uleb128 0x40
 1690 013d 18       		.uleb128 0x18
 1691 013e 9742     		.uleb128 0x2117
 1692 0140 19       		.uleb128 0x19
 1693 0141 01       		.uleb128 0x1
 1694 0142 13       		.uleb128 0x13
 1695 0143 00       		.byte	0
 1696 0144 00       		.byte	0
 1697 0145 18       		.uleb128 0x18
 1698 0146 05       		.uleb128 0x5
 1699 0147 00       		.byte	0
 1700 0148 03       		.uleb128 0x3
 1701 0149 0E       		.uleb128 0xe
 1702 014a 3A       		.uleb128 0x3a
 1703 014b 0B       		.uleb128 0xb
 1704 014c 3B       		.uleb128 0x3b
 1705 014d 05       		.uleb128 0x5
 1706 014e 49       		.uleb128 0x49
 1707 014f 13       		.uleb128 0x13
 1708 0150 02       		.uleb128 0x2
 1709 0151 17       		.uleb128 0x17
ARM GAS  /tmp/ccUWoync.s 			page 31


 1710 0152 00       		.byte	0
 1711 0153 00       		.byte	0
 1712 0154 19       		.uleb128 0x19
 1713 0155 05       		.uleb128 0x5
 1714 0156 00       		.byte	0
 1715 0157 03       		.uleb128 0x3
 1716 0158 0E       		.uleb128 0xe
 1717 0159 3A       		.uleb128 0x3a
 1718 015a 0B       		.uleb128 0xb
 1719 015b 3B       		.uleb128 0x3b
 1720 015c 05       		.uleb128 0x5
 1721 015d 49       		.uleb128 0x49
 1722 015e 13       		.uleb128 0x13
 1723 015f 02       		.uleb128 0x2
 1724 0160 18       		.uleb128 0x18
 1725 0161 00       		.byte	0
 1726 0162 00       		.byte	0
 1727 0163 1A       		.uleb128 0x1a
 1728 0164 34       		.uleb128 0x34
 1729 0165 00       		.byte	0
 1730 0166 03       		.uleb128 0x3
 1731 0167 08       		.uleb128 0x8
 1732 0168 3A       		.uleb128 0x3a
 1733 0169 0B       		.uleb128 0xb
 1734 016a 3B       		.uleb128 0x3b
 1735 016b 05       		.uleb128 0x5
 1736 016c 49       		.uleb128 0x49
 1737 016d 13       		.uleb128 0x13
 1738 016e 02       		.uleb128 0x2
 1739 016f 17       		.uleb128 0x17
 1740 0170 00       		.byte	0
 1741 0171 00       		.byte	0
 1742 0172 1B       		.uleb128 0x1b
 1743 0173 34       		.uleb128 0x34
 1744 0174 00       		.byte	0
 1745 0175 03       		.uleb128 0x3
 1746 0176 0E       		.uleb128 0xe
 1747 0177 3A       		.uleb128 0x3a
 1748 0178 0B       		.uleb128 0xb
 1749 0179 3B       		.uleb128 0x3b
 1750 017a 05       		.uleb128 0x5
 1751 017b 49       		.uleb128 0x49
 1752 017c 13       		.uleb128 0x13
 1753 017d 02       		.uleb128 0x2
 1754 017e 17       		.uleb128 0x17
 1755 017f 00       		.byte	0
 1756 0180 00       		.byte	0
 1757 0181 1C       		.uleb128 0x1c
 1758 0182 34       		.uleb128 0x34
 1759 0183 00       		.byte	0
 1760 0184 03       		.uleb128 0x3
 1761 0185 0E       		.uleb128 0xe
 1762 0186 3A       		.uleb128 0x3a
 1763 0187 0B       		.uleb128 0xb
 1764 0188 3B       		.uleb128 0x3b
 1765 0189 05       		.uleb128 0x5
 1766 018a 49       		.uleb128 0x49
ARM GAS  /tmp/ccUWoync.s 			page 32


 1767 018b 13       		.uleb128 0x13
 1768 018c 02       		.uleb128 0x2
 1769 018d 18       		.uleb128 0x18
 1770 018e 00       		.byte	0
 1771 018f 00       		.byte	0
 1772 0190 1D       		.uleb128 0x1d
 1773 0191 1D       		.uleb128 0x1d
 1774 0192 01       		.byte	0x1
 1775 0193 31       		.uleb128 0x31
 1776 0194 13       		.uleb128 0x13
 1777 0195 11       		.uleb128 0x11
 1778 0196 01       		.uleb128 0x1
 1779 0197 12       		.uleb128 0x12
 1780 0198 06       		.uleb128 0x6
 1781 0199 58       		.uleb128 0x58
 1782 019a 0B       		.uleb128 0xb
 1783 019b 59       		.uleb128 0x59
 1784 019c 05       		.uleb128 0x5
 1785 019d 01       		.uleb128 0x1
 1786 019e 13       		.uleb128 0x13
 1787 019f 00       		.byte	0
 1788 01a0 00       		.byte	0
 1789 01a1 1E       		.uleb128 0x1e
 1790 01a2 1D       		.uleb128 0x1d
 1791 01a3 01       		.byte	0x1
 1792 01a4 31       		.uleb128 0x31
 1793 01a5 13       		.uleb128 0x13
 1794 01a6 11       		.uleb128 0x11
 1795 01a7 01       		.uleb128 0x1
 1796 01a8 12       		.uleb128 0x12
 1797 01a9 06       		.uleb128 0x6
 1798 01aa 58       		.uleb128 0x58
 1799 01ab 0B       		.uleb128 0xb
 1800 01ac 59       		.uleb128 0x59
 1801 01ad 05       		.uleb128 0x5
 1802 01ae 00       		.byte	0
 1803 01af 00       		.byte	0
 1804 01b0 1F       		.uleb128 0x1f
 1805 01b1 05       		.uleb128 0x5
 1806 01b2 00       		.byte	0
 1807 01b3 03       		.uleb128 0x3
 1808 01b4 08       		.uleb128 0x8
 1809 01b5 3A       		.uleb128 0x3a
 1810 01b6 0B       		.uleb128 0xb
 1811 01b7 3B       		.uleb128 0x3b
 1812 01b8 0B       		.uleb128 0xb
 1813 01b9 49       		.uleb128 0x49
 1814 01ba 13       		.uleb128 0x13
 1815 01bb 02       		.uleb128 0x2
 1816 01bc 17       		.uleb128 0x17
 1817 01bd 00       		.byte	0
 1818 01be 00       		.byte	0
 1819 01bf 20       		.uleb128 0x20
 1820 01c0 34       		.uleb128 0x34
 1821 01c1 00       		.byte	0
 1822 01c2 03       		.uleb128 0x3
 1823 01c3 0E       		.uleb128 0xe
ARM GAS  /tmp/ccUWoync.s 			page 33


 1824 01c4 3A       		.uleb128 0x3a
 1825 01c5 0B       		.uleb128 0xb
 1826 01c6 3B       		.uleb128 0x3b
 1827 01c7 0B       		.uleb128 0xb
 1828 01c8 49       		.uleb128 0x49
 1829 01c9 13       		.uleb128 0x13
 1830 01ca 02       		.uleb128 0x2
 1831 01cb 18       		.uleb128 0x18
 1832 01cc 00       		.byte	0
 1833 01cd 00       		.byte	0
 1834 01ce 21       		.uleb128 0x21
 1835 01cf 34       		.uleb128 0x34
 1836 01d0 00       		.byte	0
 1837 01d1 03       		.uleb128 0x3
 1838 01d2 08       		.uleb128 0x8
 1839 01d3 3A       		.uleb128 0x3a
 1840 01d4 0B       		.uleb128 0xb
 1841 01d5 3B       		.uleb128 0x3b
 1842 01d6 0B       		.uleb128 0xb
 1843 01d7 49       		.uleb128 0x49
 1844 01d8 13       		.uleb128 0x13
 1845 01d9 02       		.uleb128 0x2
 1846 01da 18       		.uleb128 0x18
 1847 01db 00       		.byte	0
 1848 01dc 00       		.byte	0
 1849 01dd 22       		.uleb128 0x22
 1850 01de 898201   		.uleb128 0x4109
 1851 01e1 01       		.byte	0x1
 1852 01e2 11       		.uleb128 0x11
 1853 01e3 01       		.uleb128 0x1
 1854 01e4 31       		.uleb128 0x31
 1855 01e5 13       		.uleb128 0x13
 1856 01e6 01       		.uleb128 0x1
 1857 01e7 13       		.uleb128 0x13
 1858 01e8 00       		.byte	0
 1859 01e9 00       		.byte	0
 1860 01ea 23       		.uleb128 0x23
 1861 01eb 8A8201   		.uleb128 0x410a
 1862 01ee 00       		.byte	0
 1863 01ef 02       		.uleb128 0x2
 1864 01f0 18       		.uleb128 0x18
 1865 01f1 9142     		.uleb128 0x2111
 1866 01f3 18       		.uleb128 0x18
 1867 01f4 00       		.byte	0
 1868 01f5 00       		.byte	0
 1869 01f6 24       		.uleb128 0x24
 1870 01f7 898201   		.uleb128 0x4109
 1871 01fa 01       		.byte	0x1
 1872 01fb 11       		.uleb128 0x11
 1873 01fc 01       		.uleb128 0x1
 1874 01fd 31       		.uleb128 0x31
 1875 01fe 13       		.uleb128 0x13
 1876 01ff 00       		.byte	0
 1877 0200 00       		.byte	0
 1878 0201 25       		.uleb128 0x25
 1879 0202 2E       		.uleb128 0x2e
 1880 0203 01       		.byte	0x1
ARM GAS  /tmp/ccUWoync.s 			page 34


 1881 0204 3F       		.uleb128 0x3f
 1882 0205 19       		.uleb128 0x19
 1883 0206 03       		.uleb128 0x3
 1884 0207 0E       		.uleb128 0xe
 1885 0208 3A       		.uleb128 0x3a
 1886 0209 0B       		.uleb128 0xb
 1887 020a 3B       		.uleb128 0x3b
 1888 020b 05       		.uleb128 0x5
 1889 020c 27       		.uleb128 0x27
 1890 020d 19       		.uleb128 0x19
 1891 020e 3C       		.uleb128 0x3c
 1892 020f 19       		.uleb128 0x19
 1893 0210 00       		.byte	0
 1894 0211 00       		.byte	0
 1895 0212 26       		.uleb128 0x26
 1896 0213 05       		.uleb128 0x5
 1897 0214 00       		.byte	0
 1898 0215 49       		.uleb128 0x49
 1899 0216 13       		.uleb128 0x13
 1900 0217 00       		.byte	0
 1901 0218 00       		.byte	0
 1902 0219 00       		.byte	0
 1903              		.section	.debug_loc,"",%progbits
 1904              	.Ldebug_loc0:
 1905              	.LLST0:
 1906 0000 00000000 		.4byte	.LVL0-.Ltext0
 1907 0004 16000000 		.4byte	.LVL1-.Ltext0
 1908 0008 0100     		.2byte	0x1
 1909 000a 50       		.byte	0x50
 1910 000b 16000000 		.4byte	.LVL1-.Ltext0
 1911 000f B6000000 		.4byte	.LFE136-.Ltext0
 1912 0013 0200     		.2byte	0x2
 1913 0015 91       		.byte	0x91
 1914 0016 54       		.sleb128 -44
 1915 0017 00000000 		.4byte	0
 1916 001b 00000000 		.4byte	0
 1917              	.LLST1:
 1918 001f 00000000 		.4byte	.LVL0-.Ltext0
 1919 0023 1C000000 		.4byte	.LVL2-.Ltext0
 1920 0027 0100     		.2byte	0x1
 1921 0029 51       		.byte	0x51
 1922 002a 1C000000 		.4byte	.LVL2-.Ltext0
 1923 002e 42000000 		.4byte	.LVL8-.Ltext0
 1924 0032 0300     		.2byte	0x3
 1925 0034 71       		.byte	0x71
 1926 0035 01       		.sleb128 1
 1927 0036 9F       		.byte	0x9f
 1928 0037 42000000 		.4byte	.LVL8-.Ltext0
 1929 003b B6000000 		.4byte	.LFE136-.Ltext0
 1930 003f 0400     		.2byte	0x4
 1931 0041 F3       		.byte	0xf3
 1932 0042 01       		.uleb128 0x1
 1933 0043 51       		.byte	0x51
 1934 0044 9F       		.byte	0x9f
 1935 0045 00000000 		.4byte	0
 1936 0049 00000000 		.4byte	0
 1937              	.LLST2:
ARM GAS  /tmp/ccUWoync.s 			page 35


 1938 004d 00000000 		.4byte	.LVL0-.Ltext0
 1939 0051 20000000 		.4byte	.LVL3-.Ltext0
 1940 0055 0100     		.2byte	0x1
 1941 0057 52       		.byte	0x52
 1942 0058 20000000 		.4byte	.LVL3-.Ltext0
 1943 005c B6000000 		.4byte	.LFE136-.Ltext0
 1944 0060 0400     		.2byte	0x4
 1945 0062 F3       		.byte	0xf3
 1946 0063 01       		.uleb128 0x1
 1947 0064 52       		.byte	0x52
 1948 0065 9F       		.byte	0x9f
 1949 0066 00000000 		.4byte	0
 1950 006a 00000000 		.4byte	0
 1951              	.LLST3:
 1952 006e 00000000 		.4byte	.LVL0-.Ltext0
 1953 0072 22000000 		.4byte	.LVL4-.Ltext0
 1954 0076 0100     		.2byte	0x1
 1955 0078 53       		.byte	0x53
 1956 0079 22000000 		.4byte	.LVL4-.Ltext0
 1957 007d B6000000 		.4byte	.LFE136-.Ltext0
 1958 0081 0400     		.2byte	0x4
 1959 0083 F3       		.byte	0xf3
 1960 0084 01       		.uleb128 0x1
 1961 0085 53       		.byte	0x53
 1962 0086 9F       		.byte	0x9f
 1963 0087 00000000 		.4byte	0
 1964 008b 00000000 		.4byte	0
 1965              	.LLST4:
 1966 008f 42000000 		.4byte	.LVL8-.Ltext0
 1967 0093 6A000000 		.4byte	.LVL20-.Ltext0
 1968 0097 0100     		.2byte	0x1
 1969 0099 51       		.byte	0x51
 1970 009a 6A000000 		.4byte	.LVL20-.Ltext0
 1971 009e 78000000 		.4byte	.LVL22-.Ltext0
 1972 00a2 0300     		.2byte	0x3
 1973 00a4 71       		.byte	0x71
 1974 00a5 01       		.sleb128 1
 1975 00a6 9F       		.byte	0x9f
 1976 00a7 00000000 		.4byte	0
 1977 00ab 00000000 		.4byte	0
 1978              	.LLST5:
 1979 00af 4E000000 		.4byte	.LVL11-.Ltext0
 1980 00b3 5A000000 		.4byte	.LVL14-.Ltext0
 1981 00b7 0100     		.2byte	0x1
 1982 00b9 55       		.byte	0x55
 1983 00ba 5A000000 		.4byte	.LVL14-.Ltext0
 1984 00be 66000000 		.4byte	.LVL18-.Ltext0
 1985 00c2 0500     		.2byte	0x5
 1986 00c4 75       		.byte	0x75
 1987 00c5 00       		.sleb128 0
 1988 00c6 40       		.byte	0x40
 1989 00c7 25       		.byte	0x25
 1990 00c8 9F       		.byte	0x9f
 1991 00c9 66000000 		.4byte	.LVL18-.Ltext0
 1992 00cd 86000000 		.4byte	.LVL23-.Ltext0
 1993 00d1 0100     		.2byte	0x1
 1994 00d3 54       		.byte	0x54
ARM GAS  /tmp/ccUWoync.s 			page 36


 1995 00d4 00000000 		.4byte	0
 1996 00d8 00000000 		.4byte	0
 1997              	.LLST6:
 1998 00dc 5E000000 		.4byte	.LVL15-.Ltext0
 1999 00e0 62000000 		.4byte	.LVL16-.Ltext0
 2000 00e4 0100     		.2byte	0x1
 2001 00e6 56       		.byte	0x56
 2002 00e7 62000000 		.4byte	.LVL16-.Ltext0
 2003 00eb 64000000 		.4byte	.LVL17-.Ltext0
 2004 00ef 0100     		.2byte	0x1
 2005 00f1 50       		.byte	0x50
 2006 00f2 00000000 		.4byte	0
 2007 00f6 00000000 		.4byte	0
 2008              	.LLST7:
 2009 00fa 20000000 		.4byte	.LVL3-.Ltext0
 2010 00fe 42000000 		.4byte	.LVL8-.Ltext0
 2011 0102 0100     		.2byte	0x1
 2012 0104 52       		.byte	0x52
 2013 0105 42000000 		.4byte	.LVL8-.Ltext0
 2014 0109 74000000 		.4byte	.LVL21-.Ltext0
 2015 010d 0600     		.2byte	0x6
 2016 010f 72       		.byte	0x72
 2017 0110 00       		.sleb128 0
 2018 0111 7C       		.byte	0x7c
 2019 0112 00       		.sleb128 0
 2020 0113 22       		.byte	0x22
 2021 0114 9F       		.byte	0x9f
 2022 0115 00000000 		.4byte	0
 2023 0119 00000000 		.4byte	0
 2024              	.LLST8:
 2025 011d 22000000 		.4byte	.LVL4-.Ltext0
 2026 0121 42000000 		.4byte	.LVL8-.Ltext0
 2027 0125 0100     		.2byte	0x1
 2028 0127 53       		.byte	0x53
 2029 0128 42000000 		.4byte	.LVL8-.Ltext0
 2030 012c 74000000 		.4byte	.LVL21-.Ltext0
 2031 0130 0600     		.2byte	0x6
 2032 0132 73       		.byte	0x73
 2033 0133 00       		.sleb128 0
 2034 0134 7C       		.byte	0x7c
 2035 0135 00       		.sleb128 0
 2036 0136 22       		.byte	0x22
 2037 0137 9F       		.byte	0x9f
 2038 0138 00000000 		.4byte	0
 2039 013c 00000000 		.4byte	0
 2040              	.LLST9:
 2041 0140 22000000 		.4byte	.LVL4-.Ltext0
 2042 0144 42000000 		.4byte	.LVL8-.Ltext0
 2043 0148 0600     		.2byte	0x6
 2044 014a 91       		.byte	0x91
 2045 014b 54       		.sleb128 -44
 2046 014c 06       		.byte	0x6
 2047 014d 23       		.byte	0x23
 2048 014e 04       		.uleb128 0x4
 2049 014f 9F       		.byte	0x9f
 2050 0150 42000000 		.4byte	.LVL8-.Ltext0
 2051 0154 46000000 		.4byte	.LVL9-.Ltext0
ARM GAS  /tmp/ccUWoync.s 			page 37


 2052 0158 0300     		.2byte	0x3
 2053 015a 7B       		.byte	0x7b
 2054 015b 04       		.sleb128 4
 2055 015c 9F       		.byte	0x9f
 2056 015d 46000000 		.4byte	.LVL9-.Ltext0
 2057 0161 5E000000 		.4byte	.LVL15-.Ltext0
 2058 0165 0100     		.2byte	0x1
 2059 0167 5B       		.byte	0x5b
 2060 0168 5E000000 		.4byte	.LVL15-.Ltext0
 2061 016c 86000000 		.4byte	.LVL23-.Ltext0
 2062 0170 0300     		.2byte	0x3
 2063 0172 7B       		.byte	0x7b
 2064 0173 04       		.sleb128 4
 2065 0174 9F       		.byte	0x9f
 2066 0175 00000000 		.4byte	0
 2067 0179 00000000 		.4byte	0
 2068              	.LLST10:
 2069 017d 22000000 		.4byte	.LVL4-.Ltext0
 2070 0181 2E000000 		.4byte	.LVL5-.Ltext0
 2071 0185 0700     		.2byte	0x7
 2072 0187 91       		.byte	0x91
 2073 0188 54       		.sleb128 -44
 2074 0189 06       		.byte	0x6
 2075 018a 70       		.byte	0x70
 2076 018b 00       		.sleb128 0
 2077 018c 22       		.byte	0x22
 2078 018d 9F       		.byte	0x9f
 2079 018e 2E000000 		.4byte	.LVL5-.Ltext0
 2080 0192 42000000 		.4byte	.LVL8-.Ltext0
 2081 0196 0800     		.2byte	0x8
 2082 0198 91       		.byte	0x91
 2083 0199 54       		.sleb128 -44
 2084 019a 06       		.byte	0x6
 2085 019b 7D       		.byte	0x7d
 2086 019c 00       		.sleb128 0
 2087 019d 06       		.byte	0x6
 2088 019e 22       		.byte	0x22
 2089 019f 9F       		.byte	0x9f
 2090 01a0 42000000 		.4byte	.LVL8-.Ltext0
 2091 01a4 52000000 		.4byte	.LVL12-.Ltext0
 2092 01a8 0300     		.2byte	0x3
 2093 01aa 79       		.byte	0x79
 2094 01ab 7C       		.sleb128 -4
 2095 01ac 9F       		.byte	0x9f
 2096 01ad 52000000 		.4byte	.LVL12-.Ltext0
 2097 01b1 5A000000 		.4byte	.LVL14-.Ltext0
 2098 01b5 0100     		.2byte	0x1
 2099 01b7 59       		.byte	0x59
 2100 01b8 5A000000 		.4byte	.LVL14-.Ltext0
 2101 01bc 86000000 		.4byte	.LVL23-.Ltext0
 2102 01c0 0300     		.2byte	0x3
 2103 01c2 79       		.byte	0x79
 2104 01c3 7C       		.sleb128 -4
 2105 01c4 9F       		.byte	0x9f
 2106 01c5 00000000 		.4byte	0
 2107 01c9 00000000 		.4byte	0
 2108              	.LLST11:
ARM GAS  /tmp/ccUWoync.s 			page 38


 2109 01cd 22000000 		.4byte	.LVL4-.Ltext0
 2110 01d1 42000000 		.4byte	.LVL8-.Ltext0
 2111 01d5 0600     		.2byte	0x6
 2112 01d7 91       		.byte	0x91
 2113 01d8 00       		.sleb128 0
 2114 01d9 06       		.byte	0x6
 2115 01da 23       		.byte	0x23
 2116 01db 04       		.uleb128 0x4
 2117 01dc 9F       		.byte	0x9f
 2118 01dd 00000000 		.4byte	0
 2119 01e1 00000000 		.4byte	0
 2120              	.LLST12:
 2121 01e5 22000000 		.4byte	.LVL4-.Ltext0
 2122 01e9 32000000 		.4byte	.LVL6-.Ltext0
 2123 01ed 0900     		.2byte	0x9
 2124 01ef 91       		.byte	0x91
 2125 01f0 00       		.sleb128 0
 2126 01f1 06       		.byte	0x6
 2127 01f2 7E       		.byte	0x7e
 2128 01f3 00       		.sleb128 0
 2129 01f4 22       		.byte	0x22
 2130 01f5 34       		.byte	0x34
 2131 01f6 1C       		.byte	0x1c
 2132 01f7 9F       		.byte	0x9f
 2133 01f8 32000000 		.4byte	.LVL6-.Ltext0
 2134 01fc 34000000 		.4byte	.LVL7-.Ltext0
 2135 0200 0900     		.2byte	0x9
 2136 0202 91       		.byte	0x91
 2137 0203 00       		.sleb128 0
 2138 0204 06       		.byte	0x6
 2139 0205 7E       		.byte	0x7e
 2140 0206 00       		.sleb128 0
 2141 0207 22       		.byte	0x22
 2142 0208 23       		.byte	0x23
 2143 0209 04       		.uleb128 0x4
 2144 020a 9F       		.byte	0x9f
 2145 020b 34000000 		.4byte	.LVL7-.Ltext0
 2146 020f 42000000 		.4byte	.LVL8-.Ltext0
 2147 0213 0B00     		.2byte	0xb
 2148 0215 71       		.byte	0x71
 2149 0216 01       		.sleb128 1
 2150 0217 33       		.byte	0x33
 2151 0218 24       		.byte	0x24
 2152 0219 91       		.byte	0x91
 2153 021a 00       		.sleb128 0
 2154 021b 06       		.byte	0x6
 2155 021c 22       		.byte	0x22
 2156 021d 34       		.byte	0x34
 2157 021e 1C       		.byte	0x1c
 2158 021f 9F       		.byte	0x9f
 2159 0220 42000000 		.4byte	.LVL8-.Ltext0
 2160 0224 52000000 		.4byte	.LVL12-.Ltext0
 2161 0228 1700     		.2byte	0x17
 2162 022a F3       		.byte	0xf3
 2163 022b 01       		.uleb128 0x1
 2164 022c 51       		.byte	0x51
 2165 022d 33       		.byte	0x33
ARM GAS  /tmp/ccUWoync.s 			page 39


 2166 022e 24       		.byte	0x24
 2167 022f 91       		.byte	0x91
 2168 0230 00       		.sleb128 0
 2169 0231 06       		.byte	0x6
 2170 0232 22       		.byte	0x22
 2171 0233 79       		.byte	0x79
 2172 0234 00       		.sleb128 0
 2173 0235 22       		.byte	0x22
 2174 0236 7D       		.byte	0x7d
 2175 0237 00       		.sleb128 0
 2176 0238 06       		.byte	0x6
 2177 0239 1C       		.byte	0x1c
 2178 023a 91       		.byte	0x91
 2179 023b 54       		.sleb128 -44
 2180 023c 06       		.byte	0x6
 2181 023d 1C       		.byte	0x1c
 2182 023e 38       		.byte	0x38
 2183 023f 1C       		.byte	0x1c
 2184 0240 9F       		.byte	0x9f
 2185 0241 52000000 		.4byte	.LVL12-.Ltext0
 2186 0245 78000000 		.4byte	.LVL22-.Ltext0
 2187 0249 1700     		.2byte	0x17
 2188 024b F3       		.byte	0xf3
 2189 024c 01       		.uleb128 0x1
 2190 024d 51       		.byte	0x51
 2191 024e 33       		.byte	0x33
 2192 024f 24       		.byte	0x24
 2193 0250 91       		.byte	0x91
 2194 0251 00       		.sleb128 0
 2195 0252 06       		.byte	0x6
 2196 0253 22       		.byte	0x22
 2197 0254 7D       		.byte	0x7d
 2198 0255 00       		.sleb128 0
 2199 0256 06       		.byte	0x6
 2200 0257 1C       		.byte	0x1c
 2201 0258 79       		.byte	0x79
 2202 0259 00       		.sleb128 0
 2203 025a 22       		.byte	0x22
 2204 025b 91       		.byte	0x91
 2205 025c 54       		.sleb128 -44
 2206 025d 06       		.byte	0x6
 2207 025e 1C       		.byte	0x1c
 2208 025f 34       		.byte	0x34
 2209 0260 1C       		.byte	0x1c
 2210 0261 9F       		.byte	0x9f
 2211 0262 78000000 		.4byte	.LVL22-.Ltext0
 2212 0266 86000000 		.4byte	.LVL23-.Ltext0
 2213 026a 1700     		.2byte	0x17
 2214 026c F3       		.byte	0xf3
 2215 026d 01       		.uleb128 0x1
 2216 026e 51       		.byte	0x51
 2217 026f 33       		.byte	0x33
 2218 0270 24       		.byte	0x24
 2219 0271 91       		.byte	0x91
 2220 0272 00       		.sleb128 0
 2221 0273 06       		.byte	0x6
 2222 0274 22       		.byte	0x22
ARM GAS  /tmp/ccUWoync.s 			page 40


 2223 0275 79       		.byte	0x79
 2224 0276 00       		.sleb128 0
 2225 0277 22       		.byte	0x22
 2226 0278 7D       		.byte	0x7d
 2227 0279 00       		.sleb128 0
 2228 027a 06       		.byte	0x6
 2229 027b 1C       		.byte	0x1c
 2230 027c 91       		.byte	0x91
 2231 027d 54       		.sleb128 -44
 2232 027e 06       		.byte	0x6
 2233 027f 1C       		.byte	0x1c
 2234 0280 38       		.byte	0x38
 2235 0281 1C       		.byte	0x1c
 2236 0282 9F       		.byte	0x9f
 2237 0283 00000000 		.4byte	0
 2238 0287 00000000 		.4byte	0
 2239              	.LLST13:
 2240 028b 4A000000 		.4byte	.LVL10-.Ltext0
 2241 028f 62000000 		.4byte	.LVL16-.Ltext0
 2242 0293 0100     		.2byte	0x1
 2243 0295 50       		.byte	0x50
 2244 0296 62000000 		.4byte	.LVL16-.Ltext0
 2245 029a 74000000 		.4byte	.LVL21-.Ltext0
 2246 029e 0500     		.2byte	0x5
 2247 02a0 72       		.byte	0x72
 2248 02a1 00       		.sleb128 0
 2249 02a2 7C       		.byte	0x7c
 2250 02a3 00       		.sleb128 0
 2251 02a4 22       		.byte	0x22
 2252 02a5 00000000 		.4byte	0
 2253 02a9 00000000 		.4byte	0
 2254              	.LLST14:
 2255 02ad 4A000000 		.4byte	.LVL10-.Ltext0
 2256 02b1 66000000 		.4byte	.LVL18-.Ltext0
 2257 02b5 0100     		.2byte	0x1
 2258 02b7 54       		.byte	0x54
 2259 02b8 66000000 		.4byte	.LVL18-.Ltext0
 2260 02bc 86000000 		.4byte	.LVL23-.Ltext0
 2261 02c0 0200     		.2byte	0x2
 2262 02c2 7B       		.byte	0x7b
 2263 02c3 00       		.sleb128 0
 2264 02c4 00000000 		.4byte	0
 2265 02c8 00000000 		.4byte	0
 2266              	.LLST15:
 2267 02cc 4E000000 		.4byte	.LVL11-.Ltext0
 2268 02d0 5A000000 		.4byte	.LVL14-.Ltext0
 2269 02d4 0100     		.2byte	0x1
 2270 02d6 55       		.byte	0x55
 2271 02d7 00000000 		.4byte	0
 2272 02db 00000000 		.4byte	0
 2273              	.LLST16:
 2274 02df 56000000 		.4byte	.LVL13-.Ltext0
 2275 02e3 5A000000 		.4byte	.LVL14-.Ltext0
 2276 02e7 0100     		.2byte	0x1
 2277 02e9 55       		.byte	0x55
 2278 02ea 00000000 		.4byte	0
 2279 02ee 00000000 		.4byte	0
ARM GAS  /tmp/ccUWoync.s 			page 41


 2280              	.LLST17:
 2281 02f2 56000000 		.4byte	.LVL13-.Ltext0
 2282 02f6 86000000 		.4byte	.LVL23-.Ltext0
 2283 02fa 0100     		.2byte	0x1
 2284 02fc 57       		.byte	0x57
 2285 02fd 00000000 		.4byte	0
 2286 0301 00000000 		.4byte	0
 2287              	.LLST18:
 2288 0305 56000000 		.4byte	.LVL13-.Ltext0
 2289 0309 5E000000 		.4byte	.LVL15-.Ltext0
 2290 030d 0100     		.2byte	0x1
 2291 030f 56       		.byte	0x56
 2292 0310 5E000000 		.4byte	.LVL15-.Ltext0
 2293 0314 86000000 		.4byte	.LVL23-.Ltext0
 2294 0318 0200     		.2byte	0x2
 2295 031a 79       		.byte	0x79
 2296 031b 00       		.sleb128 0
 2297 031c 00000000 		.4byte	0
 2298 0320 00000000 		.4byte	0
 2299              	.LLST19:
 2300 0324 5A000000 		.4byte	.LVL14-.Ltext0
 2301 0328 86000000 		.4byte	.LVL23-.Ltext0
 2302 032c 0100     		.2byte	0x1
 2303 032e 55       		.byte	0x55
 2304 032f 00000000 		.4byte	0
 2305 0333 00000000 		.4byte	0
 2306              	.LLST20:
 2307 0337 5A000000 		.4byte	.LVL14-.Ltext0
 2308 033b 86000000 		.4byte	.LVL23-.Ltext0
 2309 033f 0100     		.2byte	0x1
 2310 0341 57       		.byte	0x57
 2311 0342 00000000 		.4byte	0
 2312 0346 00000000 		.4byte	0
 2313              	.LLST21:
 2314 034a 5A000000 		.4byte	.LVL14-.Ltext0
 2315 034e 5E000000 		.4byte	.LVL15-.Ltext0
 2316 0352 0100     		.2byte	0x1
 2317 0354 56       		.byte	0x56
 2318 0355 5E000000 		.4byte	.LVL15-.Ltext0
 2319 0359 86000000 		.4byte	.LVL23-.Ltext0
 2320 035d 0200     		.2byte	0x2
 2321 035f 79       		.byte	0x79
 2322 0360 00       		.sleb128 0
 2323 0361 00000000 		.4byte	0
 2324 0365 00000000 		.4byte	0
 2325              	.LLST22:
 2326 0369 5E000000 		.4byte	.LVL15-.Ltext0
 2327 036d 68000000 		.4byte	.LVL19-.Ltext0
 2328 0371 0100     		.2byte	0x1
 2329 0373 56       		.byte	0x56
 2330 0374 00000000 		.4byte	0
 2331 0378 00000000 		.4byte	0
 2332              	.LLST24:
 2333 037c 5E000000 		.4byte	.LVL15-.Ltext0
 2334 0380 62000000 		.4byte	.LVL16-.Ltext0
 2335 0384 0100     		.2byte	0x1
 2336 0386 50       		.byte	0x50
ARM GAS  /tmp/ccUWoync.s 			page 42


 2337 0387 62000000 		.4byte	.LVL16-.Ltext0
 2338 038b 74000000 		.4byte	.LVL21-.Ltext0
 2339 038f 0500     		.2byte	0x5
 2340 0391 72       		.byte	0x72
 2341 0392 00       		.sleb128 0
 2342 0393 7C       		.byte	0x7c
 2343 0394 00       		.sleb128 0
 2344 0395 22       		.byte	0x22
 2345 0396 00000000 		.4byte	0
 2346 039a 00000000 		.4byte	0
 2347              	.LLST25:
 2348 039e 5E000000 		.4byte	.LVL15-.Ltext0
 2349 03a2 66000000 		.4byte	.LVL18-.Ltext0
 2350 03a6 0100     		.2byte	0x1
 2351 03a8 54       		.byte	0x54
 2352 03a9 66000000 		.4byte	.LVL18-.Ltext0
 2353 03ad 86000000 		.4byte	.LVL23-.Ltext0
 2354 03b1 0200     		.2byte	0x2
 2355 03b3 7B       		.byte	0x7b
 2356 03b4 00       		.sleb128 0
 2357 03b5 00000000 		.4byte	0
 2358 03b9 00000000 		.4byte	0
 2359              	.LLST26:
 2360 03bd 62000000 		.4byte	.LVL16-.Ltext0
 2361 03c1 64000000 		.4byte	.LVL17-.Ltext0
 2362 03c5 0100     		.2byte	0x1
 2363 03c7 50       		.byte	0x50
 2364 03c8 00000000 		.4byte	0
 2365 03cc 00000000 		.4byte	0
 2366              	.LLST27:
 2367 03d0 C0000000 		.4byte	.LVL24-.Ltext0
 2368 03d4 D6000000 		.4byte	.LVL29-.Ltext0
 2369 03d8 0100     		.2byte	0x1
 2370 03da 50       		.byte	0x50
 2371 03db D6000000 		.4byte	.LVL29-.Ltext0
 2372 03df 0E010000 		.4byte	.LFE137-.Ltext0
 2373 03e3 0400     		.2byte	0x4
 2374 03e5 F3       		.byte	0xf3
 2375 03e6 01       		.uleb128 0x1
 2376 03e7 50       		.byte	0x50
 2377 03e8 9F       		.byte	0x9f
 2378 03e9 00000000 		.4byte	0
 2379 03ed 00000000 		.4byte	0
 2380              	.LLST28:
 2381 03f1 C0000000 		.4byte	.LVL24-.Ltext0
 2382 03f5 D6000000 		.4byte	.LVL29-.Ltext0
 2383 03f9 0100     		.2byte	0x1
 2384 03fb 51       		.byte	0x51
 2385 03fc D6000000 		.4byte	.LVL29-.Ltext0
 2386 0400 0E010000 		.4byte	.LFE137-.Ltext0
 2387 0404 0400     		.2byte	0x4
 2388 0406 F3       		.byte	0xf3
 2389 0407 01       		.uleb128 0x1
 2390 0408 51       		.byte	0x51
 2391 0409 9F       		.byte	0x9f
 2392 040a 00000000 		.4byte	0
 2393 040e 00000000 		.4byte	0
ARM GAS  /tmp/ccUWoync.s 			page 43


 2394              	.LLST29:
 2395 0412 C0000000 		.4byte	.LVL24-.Ltext0
 2396 0416 D6000000 		.4byte	.LVL29-.Ltext0
 2397 041a 0100     		.2byte	0x1
 2398 041c 52       		.byte	0x52
 2399 041d D6000000 		.4byte	.LVL29-.Ltext0
 2400 0421 0E010000 		.4byte	.LFE137-.Ltext0
 2401 0425 0400     		.2byte	0x4
 2402 0427 F3       		.byte	0xf3
 2403 0428 01       		.uleb128 0x1
 2404 0429 52       		.byte	0x52
 2405 042a 9F       		.byte	0x9f
 2406 042b 00000000 		.4byte	0
 2407 042f 00000000 		.4byte	0
 2408              	.LLST30:
 2409 0433 C0000000 		.4byte	.LVL24-.Ltext0
 2410 0437 D6000000 		.4byte	.LVL29-.Ltext0
 2411 043b 0100     		.2byte	0x1
 2412 043d 53       		.byte	0x53
 2413 043e D6000000 		.4byte	.LVL29-.Ltext0
 2414 0442 0E010000 		.4byte	.LFE137-.Ltext0
 2415 0446 0400     		.2byte	0x4
 2416 0448 F3       		.byte	0xf3
 2417 0449 01       		.uleb128 0x1
 2418 044a 53       		.byte	0x53
 2419 044b 9F       		.byte	0x9f
 2420 044c 00000000 		.4byte	0
 2421 0450 00000000 		.4byte	0
 2422              	.LLST31:
 2423 0454 CA000000 		.4byte	.LVL26-.Ltext0
 2424 0458 00010000 		.4byte	.LVL40-.Ltext0
 2425 045c 0100     		.2byte	0x1
 2426 045e 51       		.byte	0x51
 2427 045f 00010000 		.4byte	.LVL40-.Ltext0
 2428 0463 08010000 		.4byte	.LVL43-.Ltext0
 2429 0467 0300     		.2byte	0x3
 2430 0469 71       		.byte	0x71
 2431 046a 01       		.sleb128 1
 2432 046b 9F       		.byte	0x9f
 2433 046c 00000000 		.4byte	0
 2434 0470 00000000 		.4byte	0
 2435              	.LLST32:
 2436 0474 E2000000 		.4byte	.LVL32-.Ltext0
 2437 0478 EC000000 		.4byte	.LVL35-.Ltext0
 2438 047c 0100     		.2byte	0x1
 2439 047e 58       		.byte	0x58
 2440 047f EC000000 		.4byte	.LVL35-.Ltext0
 2441 0483 0A010000 		.4byte	.LVL44-.Ltext0
 2442 0487 0500     		.2byte	0x5
 2443 0489 78       		.byte	0x78
 2444 048a 00       		.sleb128 0
 2445 048b 40       		.byte	0x40
 2446 048c 25       		.byte	0x25
 2447 048d 9F       		.byte	0x9f
 2448 048e 00000000 		.4byte	0
 2449 0492 00000000 		.4byte	0
 2450              	.LLST33:
ARM GAS  /tmp/ccUWoync.s 			page 44


 2451 0496 F0000000 		.4byte	.LVL36-.Ltext0
 2452 049a F2000000 		.4byte	.LVL37-.Ltext0
 2453 049e 0100     		.2byte	0x1
 2454 04a0 56       		.byte	0x56
 2455 04a1 F2000000 		.4byte	.LVL37-.Ltext0
 2456 04a5 F6000000 		.4byte	.LVL38-.Ltext0
 2457 04a9 0400     		.2byte	0x4
 2458 04ab 76       		.byte	0x76
 2459 04ac 00       		.sleb128 0
 2460 04ad 1F       		.byte	0x1f
 2461 04ae 9F       		.byte	0x9f
 2462 04af F6000000 		.4byte	.LVL38-.Ltext0
 2463 04b3 0A010000 		.4byte	.LVL44-.Ltext0
 2464 04b7 0100     		.2byte	0x1
 2465 04b9 55       		.byte	0x55
 2466 04ba 00000000 		.4byte	0
 2467 04be 00000000 		.4byte	0
 2468              	.LLST34:
 2469 04c2 C8000000 		.4byte	.LVL25-.Ltext0
 2470 04c6 E6000000 		.4byte	.LVL33-.Ltext0
 2471 04ca 0100     		.2byte	0x1
 2472 04cc 50       		.byte	0x50
 2473 04cd E6000000 		.4byte	.LVL33-.Ltext0
 2474 04d1 F0000000 		.4byte	.LVL36-.Ltext0
 2475 04d5 0300     		.2byte	0x3
 2476 04d7 70       		.byte	0x70
 2477 04d8 7C       		.sleb128 -4
 2478 04d9 9F       		.byte	0x9f
 2479 04da F0000000 		.4byte	.LVL36-.Ltext0
 2480 04de 0E010000 		.4byte	.LFE137-.Ltext0
 2481 04e2 0100     		.2byte	0x1
 2482 04e4 50       		.byte	0x50
 2483 04e5 00000000 		.4byte	0
 2484 04e9 00000000 		.4byte	0
 2485              	.LLST35:
 2486 04ed CA000000 		.4byte	.LVL26-.Ltext0
 2487 04f1 D0000000 		.4byte	.LVL27-.Ltext0
 2488 04f5 0600     		.2byte	0x6
 2489 04f7 70       		.byte	0x70
 2490 04f8 00       		.sleb128 0
 2491 04f9 77       		.byte	0x77
 2492 04fa 00       		.sleb128 0
 2493 04fb 22       		.byte	0x22
 2494 04fc 9F       		.byte	0x9f
 2495 04fd D0000000 		.4byte	.LVL27-.Ltext0
 2496 0501 D2000000 		.4byte	.LVL28-.Ltext0
 2497 0505 0800     		.2byte	0x8
 2498 0507 70       		.byte	0x70
 2499 0508 00       		.sleb128 0
 2500 0509 77       		.byte	0x77
 2501 050a 00       		.sleb128 0
 2502 050b 22       		.byte	0x22
 2503 050c 34       		.byte	0x34
 2504 050d 1C       		.byte	0x1c
 2505 050e 9F       		.byte	0x9f
 2506 050f D2000000 		.4byte	.LVL28-.Ltext0
 2507 0513 D6000000 		.4byte	.LVL29-.Ltext0
ARM GAS  /tmp/ccUWoync.s 			page 45


 2508 0517 0800     		.2byte	0x8
 2509 0519 71       		.byte	0x71
 2510 051a 00       		.sleb128 0
 2511 051b 32       		.byte	0x32
 2512 051c 24       		.byte	0x24
 2513 051d 70       		.byte	0x70
 2514 051e 00       		.sleb128 0
 2515 051f 22       		.byte	0x22
 2516 0520 9F       		.byte	0x9f
 2517 0521 D6000000 		.4byte	.LVL29-.Ltext0
 2518 0525 DA000000 		.4byte	.LVL30-.Ltext0
 2519 0529 0300     		.2byte	0x3
 2520 052b 77       		.byte	0x77
 2521 052c 7C       		.sleb128 -4
 2522 052d 9F       		.byte	0x9f
 2523 052e DA000000 		.4byte	.LVL30-.Ltext0
 2524 0532 EC000000 		.4byte	.LVL35-.Ltext0
 2525 0536 0100     		.2byte	0x1
 2526 0538 57       		.byte	0x57
 2527 0539 EC000000 		.4byte	.LVL35-.Ltext0
 2528 053d 0A010000 		.4byte	.LVL44-.Ltext0
 2529 0541 0300     		.2byte	0x3
 2530 0543 77       		.byte	0x77
 2531 0544 7C       		.sleb128 -4
 2532 0545 9F       		.byte	0x9f
 2533 0546 00000000 		.4byte	0
 2534 054a 00000000 		.4byte	0
 2535              	.LLST36:
 2536 054e C8000000 		.4byte	.LVL25-.Ltext0
 2537 0552 04010000 		.4byte	.LVL41-.Ltext0
 2538 0556 0100     		.2byte	0x1
 2539 0558 5C       		.byte	0x5c
 2540 0559 04010000 		.4byte	.LVL41-.Ltext0
 2541 055d 08010000 		.4byte	.LVL43-.Ltext0
 2542 0561 0300     		.2byte	0x3
 2543 0563 7C       		.byte	0x7c
 2544 0564 7C       		.sleb128 -4
 2545 0565 9F       		.byte	0x9f
 2546 0566 08010000 		.4byte	.LVL43-.Ltext0
 2547 056a 0E010000 		.4byte	.LFE137-.Ltext0
 2548 056e 0100     		.2byte	0x1
 2549 0570 5C       		.byte	0x5c
 2550 0571 00000000 		.4byte	0
 2551 0575 00000000 		.4byte	0
 2552              	.LLST37:
 2553 0579 DE000000 		.4byte	.LVL31-.Ltext0
 2554 057d 0A010000 		.4byte	.LVL44-.Ltext0
 2555 0581 0100     		.2byte	0x1
 2556 0583 59       		.byte	0x59
 2557 0584 00000000 		.4byte	0
 2558 0588 00000000 		.4byte	0
 2559              	.LLST38:
 2560 058c DE000000 		.4byte	.LVL31-.Ltext0
 2561 0590 F0000000 		.4byte	.LVL36-.Ltext0
 2562 0594 0100     		.2byte	0x1
 2563 0596 56       		.byte	0x56
 2564 0597 F0000000 		.4byte	.LVL36-.Ltext0
ARM GAS  /tmp/ccUWoync.s 			page 46


 2565 059b 04010000 		.4byte	.LVL41-.Ltext0
 2566 059f 0200     		.2byte	0x2
 2567 05a1 77       		.byte	0x77
 2568 05a2 00       		.sleb128 0
 2569 05a3 00000000 		.4byte	0
 2570 05a7 00000000 		.4byte	0
 2571              	.LLST39:
 2572 05ab E2000000 		.4byte	.LVL32-.Ltext0
 2573 05af EC000000 		.4byte	.LVL35-.Ltext0
 2574 05b3 0100     		.2byte	0x1
 2575 05b5 58       		.byte	0x58
 2576 05b6 00000000 		.4byte	0
 2577 05ba 00000000 		.4byte	0
 2578              	.LLST40:
 2579 05be E8000000 		.4byte	.LVL34-.Ltext0
 2580 05c2 EC000000 		.4byte	.LVL35-.Ltext0
 2581 05c6 0100     		.2byte	0x1
 2582 05c8 58       		.byte	0x58
 2583 05c9 00000000 		.4byte	0
 2584 05cd 00000000 		.4byte	0
 2585              	.LLST41:
 2586 05d1 E8000000 		.4byte	.LVL34-.Ltext0
 2587 05d5 F6000000 		.4byte	.LVL38-.Ltext0
 2588 05d9 0100     		.2byte	0x1
 2589 05db 55       		.byte	0x55
 2590 05dc F6000000 		.4byte	.LVL38-.Ltext0
 2591 05e0 04010000 		.4byte	.LVL41-.Ltext0
 2592 05e4 0200     		.2byte	0x2
 2593 05e6 72       		.byte	0x72
 2594 05e7 00       		.sleb128 0
 2595 05e8 00000000 		.4byte	0
 2596 05ec 00000000 		.4byte	0
 2597              	.LLST42:
 2598 05f0 E8000000 		.4byte	.LVL34-.Ltext0
 2599 05f4 F8000000 		.4byte	.LVL39-.Ltext0
 2600 05f8 0100     		.2byte	0x1
 2601 05fa 54       		.byte	0x54
 2602 05fb F8000000 		.4byte	.LVL39-.Ltext0
 2603 05ff 04010000 		.4byte	.LVL41-.Ltext0
 2604 0603 0200     		.2byte	0x2
 2605 0605 70       		.byte	0x70
 2606 0606 7C       		.sleb128 -4
 2607 0607 00000000 		.4byte	0
 2608 060b 00000000 		.4byte	0
 2609              	.LLST43:
 2610 060f EC000000 		.4byte	.LVL35-.Ltext0
 2611 0613 0A010000 		.4byte	.LVL44-.Ltext0
 2612 0617 0100     		.2byte	0x1
 2613 0619 58       		.byte	0x58
 2614 061a 00000000 		.4byte	0
 2615 061e 00000000 		.4byte	0
 2616              	.LLST44:
 2617 0622 EC000000 		.4byte	.LVL35-.Ltext0
 2618 0626 0A010000 		.4byte	.LVL44-.Ltext0
 2619 062a 0100     		.2byte	0x1
 2620 062c 59       		.byte	0x59
 2621 062d 00000000 		.4byte	0
ARM GAS  /tmp/ccUWoync.s 			page 47


 2622 0631 00000000 		.4byte	0
 2623              	.LLST45:
 2624 0635 EC000000 		.4byte	.LVL35-.Ltext0
 2625 0639 F0000000 		.4byte	.LVL36-.Ltext0
 2626 063d 0100     		.2byte	0x1
 2627 063f 56       		.byte	0x56
 2628 0640 F0000000 		.4byte	.LVL36-.Ltext0
 2629 0644 04010000 		.4byte	.LVL41-.Ltext0
 2630 0648 0200     		.2byte	0x2
 2631 064a 77       		.byte	0x77
 2632 064b 00       		.sleb128 0
 2633 064c 00000000 		.4byte	0
 2634 0650 00000000 		.4byte	0
 2635              	.LLST46:
 2636 0654 F0000000 		.4byte	.LVL36-.Ltext0
 2637 0658 F2000000 		.4byte	.LVL37-.Ltext0
 2638 065c 0100     		.2byte	0x1
 2639 065e 56       		.byte	0x56
 2640 065f F2000000 		.4byte	.LVL37-.Ltext0
 2641 0663 0A010000 		.4byte	.LVL44-.Ltext0
 2642 0667 0400     		.2byte	0x4
 2643 0669 76       		.byte	0x76
 2644 066a 00       		.sleb128 0
 2645 066b 1F       		.byte	0x1f
 2646 066c 9F       		.byte	0x9f
 2647 066d 00000000 		.4byte	0
 2648 0671 00000000 		.4byte	0
 2649              	.LLST47:
 2650 0675 F0000000 		.4byte	.LVL36-.Ltext0
 2651 0679 F2000000 		.4byte	.LVL37-.Ltext0
 2652 067d 0400     		.2byte	0x4
 2653 067f 76       		.byte	0x76
 2654 0680 00       		.sleb128 0
 2655 0681 1F       		.byte	0x1f
 2656 0682 9F       		.byte	0x9f
 2657 0683 F2000000 		.4byte	.LVL37-.Ltext0
 2658 0687 0A010000 		.4byte	.LVL44-.Ltext0
 2659 068b 0100     		.2byte	0x1
 2660 068d 56       		.byte	0x56
 2661 068e 00000000 		.4byte	0
 2662 0692 00000000 		.4byte	0
 2663              	.LLST48:
 2664 0696 F0000000 		.4byte	.LVL36-.Ltext0
 2665 069a F8000000 		.4byte	.LVL39-.Ltext0
 2666 069e 0100     		.2byte	0x1
 2667 06a0 54       		.byte	0x54
 2668 06a1 F8000000 		.4byte	.LVL39-.Ltext0
 2669 06a5 04010000 		.4byte	.LVL41-.Ltext0
 2670 06a9 0200     		.2byte	0x2
 2671 06ab 70       		.byte	0x70
 2672 06ac 7C       		.sleb128 -4
 2673 06ad 00000000 		.4byte	0
 2674 06b1 00000000 		.4byte	0
 2675              	.LLST49:
 2676 06b5 F0000000 		.4byte	.LVL36-.Ltext0
 2677 06b9 F6000000 		.4byte	.LVL38-.Ltext0
 2678 06bd 0100     		.2byte	0x1
ARM GAS  /tmp/ccUWoync.s 			page 48


 2679 06bf 55       		.byte	0x55
 2680 06c0 F6000000 		.4byte	.LVL38-.Ltext0
 2681 06c4 04010000 		.4byte	.LVL41-.Ltext0
 2682 06c8 0200     		.2byte	0x2
 2683 06ca 72       		.byte	0x72
 2684 06cb 00       		.sleb128 0
 2685 06cc 00000000 		.4byte	0
 2686 06d0 00000000 		.4byte	0
 2687              	.LLST50:
 2688 06d4 F6000000 		.4byte	.LVL38-.Ltext0
 2689 06d8 0A010000 		.4byte	.LVL44-.Ltext0
 2690 06dc 0100     		.2byte	0x1
 2691 06de 55       		.byte	0x55
 2692 06df 00000000 		.4byte	0
 2693 06e3 00000000 		.4byte	0
 2694              	.LLST51:
 2695 06e7 10010000 		.4byte	.LVL45-.Ltext0
 2696 06eb 2E010000 		.4byte	.LVL49-.Ltext0
 2697 06ef 0100     		.2byte	0x1
 2698 06f1 50       		.byte	0x50
 2699 06f2 2E010000 		.4byte	.LVL49-.Ltext0
 2700 06f6 38010000 		.4byte	.LVL51-.Ltext0
 2701 06fa 0100     		.2byte	0x1
 2702 06fc 55       		.byte	0x55
 2703 06fd 38010000 		.4byte	.LVL51-.Ltext0
 2704 0701 4A010000 		.4byte	.LVL53-.Ltext0
 2705 0705 0400     		.2byte	0x4
 2706 0707 F3       		.byte	0xf3
 2707 0708 01       		.uleb128 0x1
 2708 0709 50       		.byte	0x50
 2709 070a 9F       		.byte	0x9f
 2710 070b 4A010000 		.4byte	.LVL53-.Ltext0
 2711 070f 54010000 		.4byte	.LVL54-.Ltext0
 2712 0713 0100     		.2byte	0x1
 2713 0715 50       		.byte	0x50
 2714 0716 54010000 		.4byte	.LVL54-.Ltext0
 2715 071a 88010000 		.4byte	.LFE135-.Ltext0
 2716 071e 0100     		.2byte	0x1
 2717 0720 55       		.byte	0x55
 2718 0721 00000000 		.4byte	0
 2719 0725 00000000 		.4byte	0
 2720              	.LLST52:
 2721 0729 10010000 		.4byte	.LVL45-.Ltext0
 2722 072d 31010000 		.4byte	.LVL50-1-.Ltext0
 2723 0731 0100     		.2byte	0x1
 2724 0733 51       		.byte	0x51
 2725 0734 31010000 		.4byte	.LVL50-1-.Ltext0
 2726 0738 4A010000 		.4byte	.LVL53-.Ltext0
 2727 073c 0100     		.2byte	0x1
 2728 073e 59       		.byte	0x59
 2729 073f 4A010000 		.4byte	.LVL53-.Ltext0
 2730 0743 58010000 		.4byte	.LVL55-.Ltext0
 2731 0747 0100     		.2byte	0x1
 2732 0749 51       		.byte	0x51
 2733 074a 58010000 		.4byte	.LVL55-.Ltext0
 2734 074e 88010000 		.4byte	.LFE135-.Ltext0
 2735 0752 0100     		.2byte	0x1
ARM GAS  /tmp/ccUWoync.s 			page 49


 2736 0754 59       		.byte	0x59
 2737 0755 00000000 		.4byte	0
 2738 0759 00000000 		.4byte	0
 2739              	.LLST53:
 2740 075d 10010000 		.4byte	.LVL45-.Ltext0
 2741 0761 18010000 		.4byte	.LVL46-.Ltext0
 2742 0765 0100     		.2byte	0x1
 2743 0767 52       		.byte	0x52
 2744 0768 18010000 		.4byte	.LVL46-.Ltext0
 2745 076c 88010000 		.4byte	.LFE135-.Ltext0
 2746 0770 0100     		.2byte	0x1
 2747 0772 54       		.byte	0x54
 2748 0773 00000000 		.4byte	0
 2749 0777 00000000 		.4byte	0
 2750              	.LLST54:
 2751 077b 68010000 		.4byte	.LVL57-.Ltext0
 2752 077f 74010000 		.4byte	.LVL58-.Ltext0
 2753 0783 0200     		.2byte	0x2
 2754 0785 30       		.byte	0x30
 2755 0786 9F       		.byte	0x9f
 2756 0787 00000000 		.4byte	0
 2757 078b 00000000 		.4byte	0
 2758              		.section	.debug_aranges,"",%progbits
 2759 0000 1C000000 		.4byte	0x1c
 2760 0004 0200     		.2byte	0x2
 2761 0006 00000000 		.4byte	.Ldebug_info0
 2762 000a 04       		.byte	0x4
 2763 000b 00       		.byte	0
 2764 000c 0000     		.2byte	0
 2765 000e 0000     		.2byte	0
 2766 0010 00000000 		.4byte	.Ltext0
 2767 0014 88010000 		.4byte	.Letext0-.Ltext0
 2768 0018 00000000 		.4byte	0
 2769 001c 00000000 		.4byte	0
 2770              		.section	.debug_line,"",%progbits
 2771              	.Ldebug_line0:
 2772 0000 7B030000 		.section	.debug_str,"MS",%progbits,1
 2772      02007402 
 2772      00000201 
 2772      FB0E0D00 
 2772      01010101 
 2773              	.LASF2:
 2774 0000 5F5F7569 		.ascii	"__uint8_t\000"
 2774      6E74385F 
 2774      7400
 2775              	.LASF58:
 2776 000a 61726D5F 		.ascii	"arm_split_rifft_q15\000"
 2776      73706C69 
 2776      745F7269 
 2776      6666745F 
 2776      71313500 
 2777              	.LASF12:
 2778 001e 6C6F6E67 		.ascii	"long long unsigned int\000"
 2778      206C6F6E 
 2778      6720756E 
 2778      7369676E 
 2778      65642069 
ARM GAS  /tmp/ccUWoync.s 			page 50


 2779              	.LASF30:
 2780 0035 61726D5F 		.ascii	"arm_cfft_instance_q15\000"
 2780      63666674 
 2780      5F696E73 
 2780      74616E63 
 2780      655F7131 
 2781              	.LASF61:
 2782 004b 535F4346 		.ascii	"S_CFFT\000"
 2782      465400
 2783              	.LASF50:
 2784 0052 6D6F6469 		.ascii	"modifier\000"
 2784      66696572 
 2784      00
 2785              	.LASF15:
 2786 005b 696E7431 		.ascii	"int16_t\000"
 2786      365F7400 
 2787              	.LASF11:
 2788 0063 6C6F6E67 		.ascii	"long long int\000"
 2788      206C6F6E 
 2788      6720696E 
 2788      7400
 2789              	.LASF0:
 2790 0071 7369676E 		.ascii	"signed char\000"
 2790      65642063 
 2790      68617200 
 2791              	.LASF8:
 2792 007d 6C6F6E67 		.ascii	"long int\000"
 2792      20696E74 
 2792      00
 2793              	.LASF49:
 2794 0086 70447374 		.ascii	"pDst\000"
 2794      00
 2795              	.LASF24:
 2796 008b 7131355F 		.ascii	"q15_t\000"
 2796      7400
 2797              	.LASF56:
 2798 0091 70537263 		.ascii	"pSrc2\000"
 2798      3200
 2799              	.LASF28:
 2800 0097 70426974 		.ascii	"pBitRevTable\000"
 2800      52657654 
 2800      61626C65 
 2800      00
 2801              	.LASF16:
 2802 00a4 75696E74 		.ascii	"uint16_t\000"
 2802      31365F74 
 2802      00
 2803              	.LASF21:
 2804 00ad 646F7562 		.ascii	"double\000"
 2804      6C6500
 2805              	.LASF32:
 2806 00b4 69666674 		.ascii	"ifftFlagR\000"
 2806      466C6167 
 2806      5200
 2807              	.LASF9:
 2808 00be 5F5F7569 		.ascii	"__uint32_t\000"
 2808      6E743332 
ARM GAS  /tmp/ccUWoync.s 			page 51


 2808      5F7400
 2809              	.LASF36:
 2810 00c9 70547769 		.ascii	"pTwiddleBReal\000"
 2810      64646C65 
 2810      42526561 
 2810      6C00
 2811              	.LASF3:
 2812 00d7 5F5F696E 		.ascii	"__int16_t\000"
 2812      7431365F 
 2812      7400
 2813              	.LASF26:
 2814 00e1 6666744C 		.ascii	"fftLen\000"
 2814      656E00
 2815              	.LASF13:
 2816 00e8 756E7369 		.ascii	"unsigned int\000"
 2816      676E6564 
 2816      20696E74 
 2816      00
 2817              	.LASF46:
 2818 00f5 70537263 		.ascii	"pSrc\000"
 2818      00
 2819              	.LASF10:
 2820 00fa 6C6F6E67 		.ascii	"long unsigned int\000"
 2820      20756E73 
 2820      69676E65 
 2820      6420696E 
 2820      7400
 2821              	.LASF47:
 2822 010c 70415461 		.ascii	"pATable\000"
 2822      626C6500 
 2823              	.LASF6:
 2824 0114 73686F72 		.ascii	"short unsigned int\000"
 2824      7420756E 
 2824      7369676E 
 2824      65642069 
 2824      6E7400
 2825              	.LASF57:
 2826 0127 61726D5F 		.ascii	"arm_split_rfft_q15\000"
 2826      73706C69 
 2826      745F7266 
 2826      66745F71 
 2826      313500
 2827              	.LASF45:
 2828 013a 5F5F534D 		.ascii	"__SMLSDX\000"
 2828      4C534458 
 2828      00
 2829              	.LASF42:
 2830 0143 5F5F534D 		.ascii	"__SMUSDX\000"
 2830      55534458 
 2830      00
 2831              	.LASF19:
 2832 014c 73697A65 		.ascii	"sizetype\000"
 2832      74797065 
 2832      00
 2833              	.LASF54:
 2834 0155 70436F65 		.ascii	"pCoefB\000"
 2834      664200
ARM GAS  /tmp/ccUWoync.s 			page 52


 2835              	.LASF52:
 2836 015c 6F757449 		.ascii	"outI\000"
 2836      00
 2837              	.LASF23:
 2838 0161 6C6F6E67 		.ascii	"long double\000"
 2838      20646F75 
 2838      626C6500 
 2839              	.LASF33:
 2840 016d 62697452 		.ascii	"bitReverseFlagR\000"
 2840      65766572 
 2840      7365466C 
 2840      61675200 
 2841              	.LASF51:
 2842 017d 6F757452 		.ascii	"outR\000"
 2842      00
 2843              	.LASF39:
 2844 0182 5F5F534D 		.ascii	"__SMUSD\000"
 2844      55534400 
 2845              	.LASF55:
 2846 018a 70537263 		.ascii	"pSrc1\000"
 2846      3100
 2847              	.LASF22:
 2848 0190 666C6F61 		.ascii	"float\000"
 2848      7400
 2849              	.LASF60:
 2850 0196 61726D5F 		.ascii	"arm_rfft_q15\000"
 2850      72666674 
 2850      5F713135 
 2850      00
 2851              	.LASF29:
 2852 01a3 62697452 		.ascii	"bitRevLength\000"
 2852      65764C65 
 2852      6E677468 
 2852      00
 2853              	.LASF17:
 2854 01b0 696E7433 		.ascii	"int32_t\000"
 2854      325F7400 
 2855              	.LASF1:
 2856 01b8 756E7369 		.ascii	"unsigned char\000"
 2856      676E6564 
 2856      20636861 
 2856      7200
 2857              	.LASF35:
 2858 01c6 70547769 		.ascii	"pTwiddleAReal\000"
 2858      64646C65 
 2858      41526561 
 2858      6C00
 2859              	.LASF4:
 2860 01d4 73686F72 		.ascii	"short int\000"
 2860      7420696E 
 2860      7400
 2861              	.LASF37:
 2862 01de 70436666 		.ascii	"pCfft\000"
 2862      7400
 2863              	.LASF25:
 2864 01e4 7133315F 		.ascii	"q31_t\000"
 2864      7400
ARM GAS  /tmp/ccUWoync.s 			page 53


 2865              	.LASF18:
 2866 01ea 75696E74 		.ascii	"uint32_t\000"
 2866      33325F74 
 2866      00
 2867              	.LASF44:
 2868 01f3 5F5F534D 		.ascii	"__SMUADX\000"
 2868      55414458 
 2868      00
 2869              	.LASF34:
 2870 01fc 74776964 		.ascii	"twidCoefRModifier\000"
 2870      436F6566 
 2870      524D6F64 
 2870      69666965 
 2870      7200
 2871              	.LASF20:
 2872 020e 63686172 		.ascii	"char\000"
 2872      00
 2873              	.LASF5:
 2874 0213 5F5F7569 		.ascii	"__uint16_t\000"
 2874      6E743136 
 2874      5F7400
 2875              	.LASF48:
 2876 021e 70425461 		.ascii	"pBTable\000"
 2876      626C6500 
 2877              	.LASF7:
 2878 0226 5F5F696E 		.ascii	"__int32_t\000"
 2878      7433325F 
 2878      7400
 2879              	.LASF38:
 2880 0230 61726D5F 		.ascii	"arm_rfft_instance_q15\000"
 2880      72666674 
 2880      5F696E73 
 2880      74616E63 
 2880      655F7131 
 2881              	.LASF40:
 2882 0246 5F5F534D 		.ascii	"__SMLAD\000"
 2882      4C414400 
 2883              	.LASF63:
 2884 024e 2F686F6D 		.ascii	"/home/sbcu/Dropbox/pcb-layouts/axo-on-discovery-boa"
 2884      652F7362 
 2884      63752F44 
 2884      726F7062 
 2884      6F782F70 
 2885 0281 72642F61 		.ascii	"rd/axoloti/platform_linux/../CMSIS//DSP_Lib/Source/"
 2885      786F6C6F 
 2885      74692F70 
 2885      6C617466 
 2885      6F726D5F 
 2886 02b4 5472616E 		.ascii	"TransformFunctions/arm_rfft_q15.c\000"
 2886      73666F72 
 2886      6D46756E 
 2886      6374696F 
 2886      6E732F61 
 2887              	.LASF53:
 2888 02d6 70436F65 		.ascii	"pCoefA\000"
 2888      664100
 2889              	.LASF64:
ARM GAS  /tmp/ccUWoync.s 			page 54


 2890 02dd 61726D5F 		.ascii	"arm_cfft_q15\000"
 2890      63666674 
 2890      5F713135 
 2890      00
 2891              	.LASF27:
 2892 02ea 70547769 		.ascii	"pTwiddle\000"
 2892      64646C65 
 2892      00
 2893              	.LASF14:
 2894 02f3 75696E74 		.ascii	"uint8_t\000"
 2894      385F7400 
 2895              	.LASF59:
 2896 02fb 70447374 		.ascii	"pDst1\000"
 2896      3100
 2897              	.LASF43:
 2898 0301 5F5F534D 		.ascii	"__SMLADX\000"
 2898      4C414458 
 2898      00
 2899              	.LASF62:
 2900 030a 474E5520 		.ascii	"GNU C 4.9.3 20150529 (release) [ARM/embedded-4_9-br"
 2900      4320342E 
 2900      392E3320 
 2900      32303135 
 2900      30353239 
 2901 033d 616E6368 		.ascii	"anch revision 224288] -mcpu=cortex-m4 -mfloat-abi=h"
 2901      20726576 
 2901      6973696F 
 2901      6E203232 
 2901      34323838 
 2902 0370 61726420 		.ascii	"ard -mfpu=fpv4-sp-d16 -mno-thumb-interwork -mthumb "
 2902      2D6D6670 
 2902      753D6670 
 2902      76342D73 
 2902      702D6431 
 2903 03a3 2D676764 		.ascii	"-ggdb -O2 -fomit-frame-pointer -falign-functions=16"
 2903      62202D4F 
 2903      32202D66 
 2903      6F6D6974 
 2903      2D667261 
 2904 03d6 202D666E 		.ascii	" -fno-math-errno -fsingle-precision-constant\000"
 2904      6F2D6D61 
 2904      74682D65 
 2904      72726E6F 
 2904      202D6673 
 2905              	.LASF31:
 2906 0403 6666744C 		.ascii	"fftLenReal\000"
 2906      656E5265 
 2906      616C00
 2907              	.LASF41:
 2908 040e 72657375 		.ascii	"result\000"
 2908      6C7400
 2909              		.ident	"GCC: (GNU Tools for ARM Embedded Processors) 4.9.3 20150529 (release) [ARM/embedded-4_9-br
ARM GAS  /tmp/ccUWoync.s 			page 55


DEFINED SYMBOLS
                            *ABS*:00000000 arm_rfft_q15.c
     /tmp/ccUWoync.s:20     .text:00000000 $t
     /tmp/ccUWoync.s:26     .text:00000000 arm_split_rfft_q15
     /tmp/ccUWoync.s:208    .text:000000c0 arm_split_rifft_q15
     /tmp/ccUWoync.s:324    .text:00000110 arm_rfft_q15
                     .debug_frame:00000010 $d

UNDEFINED SYMBOLS
arm_cfft_q15
