ARM GAS  /tmp/ccOp4oY9.s 			page 1


   1              		.syntax unified
   2              		.cpu cortex-m4
   3              		.eabi_attribute 27, 1
   4              		.eabi_attribute 28, 1
   5              		.fpu fpv4-sp-d16
   6              		.eabi_attribute 20, 1
   7              		.eabi_attribute 21, 1
   8              		.eabi_attribute 23, 3
   9              		.eabi_attribute 24, 1
  10              		.eabi_attribute 25, 1
  11              		.eabi_attribute 26, 1
  12              		.eabi_attribute 30, 2
  13              		.eabi_attribute 34, 1
  14              		.eabi_attribute 18, 4
  15              		.thumb
  16              		.file	"arm_cfft_f32.c"
  17              		.text
  18              	.Ltext0:
  19              		.cfi_sections	.debug_frame
  20              		.align	2
  21              		.p2align 4,,15
  22              		.global	arm_cfft_radix8by2_f32
  23              		.thumb
  24              		.thumb_func
  25              		.type	arm_cfft_radix8by2_f32, %function
  26              	arm_cfft_radix8by2_f32:
  27              	.LFB135:
  28              		.file 1 "/home/sbcu/Dropbox/pcb-layouts/axo-on-discovery-board/axoloti/platform_linux/../CMSIS//DS
  29              		.loc 1 208 0
  30              		.cfi_startproc
  31              		@ args = 0, pretend = 0, frame = 0
  32              		@ frame_needed = 0, uses_anonymous_args = 0
  33              	.LVL0:
  34 0000 2DE9F047 		push	{r4, r5, r6, r7, r8, r9, r10, lr}
  35              		.cfi_def_cfa_offset 32
  36              		.cfi_offset 4, -32
  37              		.cfi_offset 5, -28
  38              		.cfi_offset 6, -24
  39              		.cfi_offset 7, -20
  40              		.cfi_offset 8, -16
  41              		.cfi_offset 9, -12
  42              		.cfi_offset 10, -8
  43              		.cfi_offset 14, -4
  44              		.loc 1 209 0
  45 0004 B0F800E0 		ldrh	lr, [r0]
  46              	.LVL1:
  47              		.loc 1 212 0
  48 0008 4268     		ldr	r2, [r0, #4]
  49              		.loc 1 208 0
  50 000a 8046     		mov	r8, r0
  51              		.loc 1 211 0
  52 000c 01EB8E09 		add	r9, r1, lr, lsl #2
  53              	.LVL2:
  54              		.loc 1 221 0
  55 0010 4FEA5E00 		lsr	r0, lr, #1
  56              	.LVL3:
  57              		.loc 1 227 0
ARM GAS  /tmp/ccOp4oY9.s 			page 2


  58 0014 5FEADE0E 		lsrs	lr, lr, #3
  59              		.loc 1 208 0
  60 0018 2DED088B 		fstmfdd	sp!, {d8, d9, d10, d11}
  61              		.cfi_def_cfa_offset 64
  62              		.cfi_offset 80, -64
  63              		.cfi_offset 81, -60
  64              		.cfi_offset 82, -56
  65              		.cfi_offset 83, -52
  66              		.cfi_offset 84, -48
  67              		.cfi_offset 85, -44
  68              		.cfi_offset 86, -40
  69              		.cfi_offset 87, -36
  70              		.loc 1 223 0
  71 001c 4FEA8003 		lsl	r3, r0, #2
  72              	.LVL4:
  73              		.loc 1 227 0
  74 0020 00F09F80 		beq	.L4
  75 0024 1033     		adds	r3, r3, #16
  76              	.LVL5:
  77 0026 CE18     		adds	r6, r1, r3
  78 0028 01F11005 		add	r5, r1, #16
  79 002c 4B44     		add	r3, r3, r9
  80              	.LVL6:
  81 002e 02F11007 		add	r7, r2, #16
  82 0032 09F11004 		add	r4, r9, #16
  83              	.LVL7:
  84              	.L3:
  85              		.loc 1 234 0 discriminator 3
  86 0036 14ED042A 		flds	s4, [r4, #-16]
  87              		.loc 1 235 0 discriminator 3
  88 003a 54ED032A 		flds	s5, [r4, #-12]
  89              		.loc 1 244 0 discriminator 3
  90 003e 13ED045A 		flds	s10, [r3, #-16]
  91              		.loc 1 245 0 discriminator 3
  92 0042 53ED035A 		flds	s11, [r3, #-12]
  93              		.loc 1 236 0 discriminator 3
  94 0046 54ED028A 		flds	s17, [r4, #-8]
  95              		.loc 1 239 0 discriminator 3
  96 004a 16ED043A 		flds	s6, [r6, #-16]
  97              		.loc 1 240 0 discriminator 3
  98 004e 56ED033A 		flds	s7, [r6, #-12]
  99              		.loc 1 246 0 discriminator 3
 100 0052 13ED027A 		flds	s14, [r3, #-8]
 101              		.loc 1 247 0 discriminator 3
 102 0056 53ED017A 		flds	s15, [r3, #-4]
 103              		.loc 1 229 0 discriminator 3
 104 005a 55ED044A 		flds	s9, [r5, #-16]
 105              	.LVL8:
 106              		.loc 1 237 0 discriminator 3
 107 005e 14ED018A 		flds	s16, [r4, #-4]
 108              		.loc 1 241 0 discriminator 3
 109 0062 16ED020A 		flds	s0, [r6, #-8]
 110              		.loc 1 242 0 discriminator 3
 111 0066 56ED010A 		flds	s1, [r6, #-4]
 112              		.loc 1 230 0 discriminator 3
 113 006a 15ED034A 		flds	s8, [r5, #-12]
 114              	.LVL9:
ARM GAS  /tmp/ccOp4oY9.s 			page 3


 115              		.loc 1 231 0 discriminator 3
 116 006e 55ED026A 		flds	s13, [r5, #-8]
 117              	.LVL10:
 118              		.loc 1 232 0 discriminator 3
 119 0072 15ED016A 		flds	s12, [r5, #-4]
 120              	.LVL11:
 121              		.loc 1 249 0 discriminator 3
 122 0076 74EE82BA 		fadds	s23, s9, s4
 123              		.loc 1 250 0 discriminator 3
 124 007a 34EE22BA 		fadds	s22, s8, s5
 125              		.loc 1 259 0 discriminator 3
 126 007e 73EE059A 		fadds	s19, s6, s10
 127              		.loc 1 260 0 discriminator 3
 128 0082 33EEA59A 		fadds	s18, s7, s11
 129              		.loc 1 261 0 discriminator 3
 130 0086 30EE071A 		fadds	s2, s0, s14
 131              		.loc 1 262 0 discriminator 3
 132 008a 70EEA71A 		fadds	s3, s1, s15
 133              		.loc 1 251 0 discriminator 3
 134 008e 76EEA8AA 		fadds	s21, s13, s17
 135              		.loc 1 252 0 discriminator 3
 136 0092 36EE08AA 		fadds	s20, s12, s16
 137              		.loc 1 249 0 discriminator 3
 138 0096 45ED04BA 		fsts	s23, [r5, #-16]
 139              	.LVL12:
 140              		.loc 1 250 0 discriminator 3
 141 009a 05ED03BA 		fsts	s22, [r5, #-12]
 142              	.LVL13:
 143              		.loc 1 251 0 discriminator 3
 144 009e 45ED02AA 		fsts	s21, [r5, #-8]
 145              	.LVL14:
 146              		.loc 1 252 0 discriminator 3
 147 00a2 05ED01AA 		fsts	s20, [r5, #-4]
 148              		.loc 1 261 0 discriminator 3
 149 00a6 06ED021A 		fsts	s2, [r6, #-8]
 150              		.loc 1 262 0 discriminator 3
 151 00aa 46ED011A 		fsts	s3, [r6, #-4]
 152              		.loc 1 259 0 discriminator 3
 153 00ae 46ED049A 		fsts	s19, [r6, #-16]
 154              		.loc 1 260 0 discriminator 3
 155 00b2 06ED039A 		fsts	s18, [r6, #-12]
 156              		.loc 1 254 0 discriminator 3
 157 00b6 74EEC24A 		fsubs	s9, s9, s4
 158              	.LVL15:
 159              		.loc 1 255 0 discriminator 3
 160 00ba 34EE624A 		fsubs	s8, s8, s5
 161              	.LVL16:
 162              		.loc 1 264 0 discriminator 3
 163 00be 35EE435A 		fsubs	s10, s10, s6
 164              	.LVL17:
 165              		.loc 1 265 0 discriminator 3
 166 00c2 75EEE35A 		fsubs	s11, s11, s7
 167              	.LVL18:
 168              		.loc 1 269 0 discriminator 3
 169 00c6 17ED043A 		flds	s6, [r7, #-16]
 170              	.LVL19:
 171              		.loc 1 270 0 discriminator 3
ARM GAS  /tmp/ccOp4oY9.s 			page 4


 172 00ca 57ED033A 		flds	s7, [r7, #-12]
 173              	.LVL20:
 174 00ce 23EE652A 		fnmuls	s4, s6, s11
 175              		.loc 1 274 0 discriminator 3
 176 00d2 64EE231A 		fmuls	s3, s8, s7
 177 00d6 23EEE41A 		fnmuls	s2, s7, s9
 178              		.loc 1 288 0 discriminator 3
 179 00da 65EE032A 		fmuls	s5, s10, s6
 180              		.loc 1 281 0 discriminator 3
 181 00de A4EE031A 		vfma.f32	s2, s8, s6
 182              		.loc 1 227 0 discriminator 3
 183 00e2 BEF1010E 		subs	lr, lr, #1
 184              	.LVL21:
 185 00e6 05F11005 		add	r5, r5, #16
 186              	.LVL22:
 187              		.loc 1 279 0 discriminator 3
 188 00ea E4EE831A 		vfma.f32	s3, s9, s6
 189 00ee 06F11006 		add	r6, r6, #16
 190 00f2 07F11007 		add	r7, r7, #16
 191              		.loc 1 290 0 discriminator 3
 192 00f6 A5EE232A 		vfma.f32	s4, s10, s7
 193 00fa 04F11004 		add	r4, r4, #16
 194 00fe 03F11003 		add	r3, r3, #16
 195              		.loc 1 291 0 discriminator 3
 196 0102 E5EEA32A 		vfma.f32	s5, s11, s7
 197              		.loc 1 281 0 discriminator 3
 198 0106 04ED071A 		fsts	s2, [r4, #-28]
 199              		.loc 1 279 0 discriminator 3
 200 010a 44ED081A 		fsts	s3, [r4, #-32]
 201              		.loc 1 290 0 discriminator 3
 202 010e 03ED082A 		fsts	s4, [r3, #-32]
 203              		.loc 1 291 0 discriminator 3
 204 0112 43ED072A 		fsts	s5, [r3, #-28]
 205              		.loc 1 294 0 discriminator 3
 206 0116 57ED055A 		flds	s11, [r7, #-20]
 207              		.loc 1 293 0 discriminator 3
 208 011a 17ED065A 		flds	s10, [r7, #-24]
 209              		.loc 1 256 0 discriminator 3
 210 011e 76EEE86A 		fsubs	s13, s13, s17
 211              	.LVL23:
 212              		.loc 1 257 0 discriminator 3
 213 0122 36EE486A 		fsubs	s12, s12, s16
 214              	.LVL24:
 215              		.loc 1 266 0 discriminator 3
 216 0126 37EE407A 		fsubs	s14, s14, s0
 217              	.LVL25:
 218              		.loc 1 267 0 discriminator 3
 219 012a 77EEE07A 		fsubs	s15, s15, s1
 220              	.LVL26:
 221              		.loc 1 297 0 discriminator 3
 222 012e 26EE253A 		fmuls	s6, s12, s11
 223              	.LVL27:
 224 0132 65EEE63A 		fnmuls	s7, s11, s13
 225 0136 25EE674A 		fnmuls	s8, s10, s15
 226              	.LVL28:
 227              		.loc 1 307 0 discriminator 3
 228 013a 67EE054A 		fmuls	s9, s14, s10
ARM GAS  /tmp/ccOp4oY9.s 			page 5


 229              	.LVL29:
 230              		.loc 1 302 0 discriminator 3
 231 013e E6EE053A 		vfma.f32	s7, s12, s10
 232              		.loc 1 301 0 discriminator 3
 233 0142 A6EE853A 		vfma.f32	s6, s13, s10
 234              	.LVL30:
 235              		.loc 1 309 0 discriminator 3
 236 0146 A7EE254A 		vfma.f32	s8, s14, s11
 237              		.loc 1 310 0 discriminator 3
 238 014a E7EEA54A 		vfma.f32	s9, s15, s11
 239              		.loc 1 301 0 discriminator 3
 240 014e 04ED063A 		fsts	s6, [r4, #-24]
 241              		.loc 1 302 0 discriminator 3
 242 0152 44ED053A 		fsts	s7, [r4, #-20]
 243              	.LVL31:
 244              		.loc 1 309 0 discriminator 3
 245 0156 03ED064A 		fsts	s8, [r3, #-24]
 246              	.LVL32:
 247              		.loc 1 310 0 discriminator 3
 248 015a 43ED054A 		fsts	s9, [r3, #-20]
 249              		.loc 1 227 0 discriminator 3
 250 015e 7FF46AAF 		bne	.L3
 251              	.LVL33:
 252              	.L4:
 253              		.loc 1 314 0
 254 0162 84B2     		uxth	r4, r0
 255 0164 0223     		movs	r3, #2
 256 0166 0846     		mov	r0, r1
 257              	.LVL34:
 258 0168 2146     		mov	r1, r4
 259              	.LVL35:
 260 016a FFF7FEFF 		bl	arm_radix8_butterfly_f32
 261              	.LVL36:
 262              		.loc 1 317 0
 263 016e BDEC088B 		fldmfdd	sp!, {d8-d11}
 264              		.cfi_restore 86
 265              		.cfi_restore 87
 266              		.cfi_restore 84
 267              		.cfi_restore 85
 268              		.cfi_restore 82
 269              		.cfi_restore 83
 270              		.cfi_restore 80
 271              		.cfi_restore 81
 272              		.cfi_def_cfa_offset 32
 273              		.loc 1 316 0
 274 0172 4846     		mov	r0, r9
 275 0174 2146     		mov	r1, r4
 276 0176 D8F80420 		ldr	r2, [r8, #4]
 277 017a 0223     		movs	r3, #2
 278              		.loc 1 317 0
 279 017c BDE8F047 		pop	{r4, r5, r6, r7, r8, r9, r10, lr}
 280              		.cfi_restore 14
 281              		.cfi_restore 10
 282              		.cfi_restore 9
 283              		.cfi_restore 8
 284              		.cfi_restore 7
 285              		.cfi_restore 6
ARM GAS  /tmp/ccOp4oY9.s 			page 6


 286              		.cfi_restore 5
 287              		.cfi_restore 4
 288              		.cfi_def_cfa_offset 0
 289              	.LVL37:
 290              		.loc 1 316 0
 291 0180 FFF7FEBF 		b	arm_radix8_butterfly_f32
 292              	.LVL38:
 293              		.cfi_endproc
 294              	.LFE135:
 295              		.size	arm_cfft_radix8by2_f32, .-arm_cfft_radix8by2_f32
 296              		.align	2
 297 0184 AFF30080 		.p2align 4,,15
 297      AFF30080 
 297      AFF30080 
 298              		.global	arm_cfft_radix8by4_f32
 299              		.thumb
 300              		.thumb_func
 301              		.type	arm_cfft_radix8by4_f32, %function
 302              	arm_cfft_radix8by4_f32:
 303              	.LFB136:
 304              		.loc 1 320 0
 305              		.cfi_startproc
 306              		@ args = 0, pretend = 0, frame = 56
 307              		@ frame_needed = 0, uses_anonymous_args = 0
 308              	.LVL39:
 309 0190 2DE9F04F 		push	{r4, r5, r6, r7, r8, r9, r10, fp, lr}
 310              		.cfi_def_cfa_offset 36
 311              		.cfi_offset 4, -36
 312              		.cfi_offset 5, -32
 313              		.cfi_offset 6, -28
 314              		.cfi_offset 7, -24
 315              		.cfi_offset 8, -20
 316              		.cfi_offset 9, -16
 317              		.cfi_offset 10, -12
 318              		.cfi_offset 11, -8
 319              		.cfi_offset 14, -4
 320 0194 2DED0A8B 		fstmfdd	sp!, {d8, d9, d10, d11, d12}
 321              		.cfi_def_cfa_offset 76
 322              		.cfi_offset 80, -76
 323              		.cfi_offset 81, -72
 324              		.cfi_offset 82, -68
 325              		.cfi_offset 83, -64
 326              		.cfi_offset 84, -60
 327              		.cfi_offset 85, -56
 328              		.cfi_offset 86, -52
 329              		.cfi_offset 87, -48
 330              		.cfi_offset 88, -44
 331              		.cfi_offset 89, -40
 332              		.loc 1 321 0
 333 0198 0488     		ldrh	r4, [r0]
 334              		.loc 1 341 0
 335 019a 4368     		ldr	r3, [r0, #4]
 336              		.loc 1 352 0
 337 019c 91ED006A 		flds	s12, [r1]
 338              		.loc 1 354 0
 339 01a0 91ED017A 		flds	s14, [r1, #4]
 340              		.loc 1 320 0
ARM GAS  /tmp/ccOp4oY9.s 			page 7


 341 01a4 8FB0     		sub	sp, sp, #60
 342              		.cfi_def_cfa_offset 136
 343              		.loc 1 321 0
 344 01a6 6408     		lsrs	r4, r4, #1
 345              	.LVL40:
 346              		.loc 1 341 0
 347 01a8 0193     		str	r3, [sp, #4]
 348              		.loc 1 354 0
 349 01aa 0A46     		mov	r2, r1
 350              		.loc 1 324 0
 351 01ac A300     		lsls	r3, r4, #2
 352 01ae 1A44     		add	r2, r2, r3
 353 01b0 1546     		mov	r5, r2
 354 01b2 0892     		str	r2, [sp, #32]
 355              	.LVL41:
 356              		.loc 1 325 0
 357 01b4 1A44     		add	r2, r2, r3
 358              	.LVL42:
 359              		.loc 1 352 0
 360 01b6 D2ED006A 		flds	s13, [r2]
 361              		.loc 1 359 0
 362 01ba D5ED003A 		flds	s7, [r5]
 363              		.loc 1 320 0
 364 01be 0C91     		str	r1, [sp, #48]
 365 01c0 0E46     		mov	r6, r1
 366              		.loc 1 352 0
 367 01c2 76EE265A 		fadds	s11, s12, s13
 368              		.loc 1 354 0
 369 01c6 1146     		mov	r1, r2
 370              	.LVL43:
 371              		.loc 1 320 0
 372 01c8 0B90     		str	r0, [sp, #44]
 373              		.loc 1 326 0
 374 01ca 0846     		mov	r0, r1
 375              	.LVL44:
 376 01cc 1944     		add	r1, r1, r3
 377              		.loc 1 359 0
 378 01ce 91ED004A 		flds	s8, [r1]
 379              		.loc 1 358 0
 380 01d2 D5ED012A 		flds	s5, [r5, #4]
 381              		.loc 1 354 0
 382 01d6 D2ED017A 		flds	s15, [r2, #4]
 383              		.loc 1 325 0
 384 01da 0992     		str	r2, [sp, #36]
 385              	.LVL45:
 386              		.loc 1 367 0
 387 01dc 75EEA34A 		fadds	s9, s11, s7
 388              		.loc 1 358 0
 389 01e0 2A46     		mov	r2, r5
 390              		.loc 1 367 0
 391 01e2 74EE244A 		fadds	s9, s8, s9
 392 01e6 3546     		mov	r5, r6
 393              	.LVL46:
 394 01e8 14EE90EA 		fmrs	lr, s9
 395              		.loc 1 358 0
 396 01ec 91ED015A 		flds	s10, [r1, #4]
 397              		.loc 1 367 0
ARM GAS  /tmp/ccOp4oY9.s 			page 8


 398 01f0 45F808EB 		str	lr, [r5], #8	@ float
 399              		.loc 1 353 0
 400 01f4 76EE666A 		fsubs	s13, s12, s13
 401              		.loc 1 368 0
 402 01f8 D2ED014A 		flds	s9, [r2, #4]
 403              		.loc 1 326 0
 404 01fc 0091     		str	r1, [sp]
 405              	.LVL47:
 406              		.loc 1 354 0
 407 01fe 37EE276A 		fadds	s12, s14, s15
 408              		.loc 1 358 0
 409 0202 0F46     		mov	r7, r1
 410              		.loc 1 368 0
 411 0204 97ED012A 		flds	s4, [r7, #4]
 412              		.loc 1 367 0
 413 0208 0395     		str	r5, [sp, #12]
 414              		.loc 1 355 0
 415 020a 77EE677A 		fsubs	s15, s14, s15
 416              		.loc 1 358 0
 417 020e 32EEA63A 		fadds	s6, s5, s13
 418              		.loc 1 368 0
 419 0212 36EE247A 		fadds	s14, s12, s9
 420              		.loc 1 361 0
 421 0216 75EEE35A 		fsubs	s11, s11, s7
 422              		.loc 1 359 0
 423 021a 77EEE34A 		fsubs	s9, s15, s7
 424              		.loc 1 362 0
 425 021e 36EE626A 		fsubs	s12, s12, s5
 426              		.loc 1 365 0
 427 0222 77EEA37A 		fadds	s15, s15, s7
 428              		.loc 1 364 0
 429 0226 76EEE26A 		fsubs	s13, s13, s5
 430              		.loc 1 358 0
 431 022a 73EE453A 		fsubs	s7, s6, s10
 432              		.loc 1 368 0
 433 022e 37EE027A 		fadds	s14, s14, s4
 434 0232 1146     		mov	r1, r2
 435              	.LVL48:
 436 0234 86ED017A 		fsts	s14, [r6, #4]
 437              		.loc 1 343 0
 438 0238 6208     		lsrs	r2, r4, #1
 439              	.LVL49:
 440              		.loc 1 362 0
 441 023a 36EE456A 		fsubs	s12, s12, s10
 442              		.loc 1 378 0
 443 023e 019C     		ldr	r4, [sp, #4]
 444              	.LVL50:
 445              		.loc 1 343 0
 446 0240 0A92     		str	r2, [sp, #40]
 447              		.loc 1 364 0
 448 0242 75EE266A 		fadds	s13, s10, s13
 449              		.loc 1 371 0
 450 0246 8846     		mov	r8, r1
 451              		.loc 1 375 0
 452 0248 BC46     		mov	ip, r7
 453              		.loc 1 359 0
 454 024a 34EE845A 		fadds	s10, s9, s8
ARM GAS  /tmp/ccOp4oY9.s 			page 9


 455              		.loc 1 368 0
 456 024e 3546     		mov	r5, r6
 457              		.loc 1 338 0
 458 0250 3E1F     		subs	r6, r7, #4
 459              	.LVL51:
 460              		.loc 1 371 0
 461 0252 13EE907A 		fmrs	r7, s7
 462              	.LVL52:
 463 0256 8E46     		mov	lr, r1
 464              		.loc 1 361 0
 465 0258 75EEC45A 		fsubs	s11, s11, s8
 466              		.loc 1 371 0
 467 025c 48F8087B 		str	r7, [r8], #8	@ float
 468              		.loc 1 372 0
 469 0260 8EED015A 		fsts	s10, [lr, #4]
 470              		.loc 1 336 0
 471 0264 AEF10407 		sub	r7, lr, #4
 472              	.LVL53:
 473              		.loc 1 378 0
 474 0268 04F1080E 		add	lr, r4, #8
 475              		.loc 1 373 0
 476 026c 0146     		mov	r1, r0
 477              	.LVL54:
 478              		.loc 1 378 0
 479 026e CDF810E0 		str	lr, [sp, #16]
 480              		.loc 1 373 0
 481 0272 15EE90EA 		fmrs	lr, s11
 482 0276 41F808EB 		str	lr, [r1], #8	@ float
 483 027a 0691     		str	r1, [sp, #24]
 484              	.LVL55:
 485              		.loc 1 379 0
 486 027c 0199     		ldr	r1, [sp, #4]
 487              	.LVL56:
 488              		.loc 1 374 0
 489 027e 80ED016A 		fsts	s12, [r0, #4]
 490              	.LVL57:
 491              		.loc 1 379 0
 492 0282 01F1100E 		add	lr, r1, #16
 493 0286 CDF808E0 		str	lr, [sp, #8]
 494              		.loc 1 380 0
 495 028a 01F1180E 		add	lr, r1, #24
 496 028e CDF814E0 		str	lr, [sp, #20]
 497              		.loc 1 365 0
 498 0292 77EEC47A 		fsubs	s15, s15, s8
 499              		.loc 1 382 0
 500 0296 023A     		subs	r2, r2, #2
 501              	.LVL58:
 502              		.loc 1 375 0
 503 0298 16EE90EA 		fmrs	lr, s13
 504              		.loc 1 376 0
 505 029c 009C     		ldr	r4, [sp]
 506              	.LVL59:
 507              		.loc 1 375 0
 508 029e 4CF808EB 		str	lr, [ip], #8	@ float
 509              	.LVL60:
 510              		.loc 1 382 0
 511 02a2 5208     		lsrs	r2, r2, #1
ARM GAS  /tmp/ccOp4oY9.s 			page 10


 512              	.LVL61:
 513              		.loc 1 376 0
 514 02a4 C4ED017A 		fsts	s15, [r4, #4]
 515              		.loc 1 382 0
 516 02a8 0792     		str	r2, [sp, #28]
 517 02aa 00F01C81 		beq	.L9
 518 02ae 0446     		mov	r4, r0
 519              	.LVL62:
 520 02b0 083B     		subs	r3, r3, #8
 521              	.LVL63:
 522 02b2 DDF808A0 		ldr	r10, [sp, #8]
 523 02b6 DDF81CB0 		ldr	fp, [sp, #28]
 524 02ba CDF834C0 		str	ip, [sp, #52]
 525 02be A0F10C02 		sub	r2, r0, #12
 526              	.LVL64:
 527 02c2 01F12009 		add	r9, r1, #32
 528 02c6 01F1300E 		add	lr, r1, #48
 529 02ca 3344     		add	r3, r3, r6
 530              	.LVL65:
 531 02cc 1035     		adds	r5, r5, #16
 532              	.LVL66:
 533 02ce 1034     		adds	r4, r4, #16
 534 02d0 6046     		mov	r0, ip
 535              	.LVL67:
 536 02d2 4146     		mov	r1, r8
 537              	.LVL68:
 538              	.L10:
 539              		.loc 1 385 0 discriminator 3
 540 02d4 14ED027A 		flds	s14, [r4, #-8]
 541 02d8 55ED023A 		flds	s7, [r5, #-8]
 542              		.loc 1 391 0 discriminator 3
 543 02dc D1ED005A 		flds	s11, [r1]
 544 02e0 90ED006A 		flds	s12, [r0]
 545              		.loc 1 387 0 discriminator 3
 546 02e4 54ED016A 		flds	s13, [r4, #-4]
 547 02e8 15ED015A 		flds	s10, [r5, #-4]
 548              		.loc 1 390 0 discriminator 3
 549 02ec D0ED014A 		flds	s9, [r0, #4]
 550 02f0 91ED014A 		flds	s8, [r1, #4]
 551              		.loc 1 385 0 discriminator 3
 552 02f4 33EE870A 		fadds	s0, s7, s14
 553              	.LVL69:
 554              		.loc 1 387 0 discriminator 3
 555 02f8 35EE268A 		fadds	s16, s10, s13
 556              		.loc 1 399 0 discriminator 3
 557 02fc 70EE257A 		fadds	s15, s0, s11
 558              		.loc 1 386 0 discriminator 3
 559 0300 73EEC73A 		fsubs	s7, s7, s14
 560              	.LVL70:
 561              		.loc 1 399 0 discriminator 3
 562 0304 76EE277A 		fadds	s15, s12, s15
 563              		.loc 1 388 0 discriminator 3
 564 0308 35EE665A 		fsubs	s10, s10, s13
 565              	.LVL71:
 566              		.loc 1 399 0 discriminator 3
 567 030c 45ED027A 		fsts	s15, [r5, #-8]
 568              		.loc 1 400 0 discriminator 3
ARM GAS  /tmp/ccOp4oY9.s 			page 11


 569 0310 D1ED017A 		flds	s15, [r1, #4]
 570 0314 90ED017A 		flds	s14, [r0, #4]
 571 0318 78EE277A 		fadds	s15, s16, s15
 572              		.loc 1 391 0 discriminator 3
 573 031c 35EE65AA 		fsubs	s20, s10, s11
 574              		.loc 1 400 0 discriminator 3
 575 0320 77EE877A 		fadds	s15, s15, s14
 576              		.loc 1 391 0 discriminator 3
 577 0324 3AEE06AA 		fadds	s20, s20, s12
 578              		.loc 1 400 0 discriminator 3
 579 0328 45ED017A 		fsts	s15, [r5, #-4]
 580              		.loc 1 405 0 discriminator 3
 581 032c 96ED002A 		flds	s4, [r6]
 582 0330 97ED001A 		flds	s2, [r7]
 583              		.loc 1 408 0 discriminator 3
 584 0334 D2ED027A 		flds	s15, [r2, #8]
 585 0338 93ED027A 		flds	s14, [r3, #8]
 586              		.loc 1 409 0 discriminator 3
 587 033c D3ED012A 		flds	s5, [r3, #4]
 588              		.loc 1 403 0 discriminator 3
 589 0340 56ED011A 		flds	s3, [r6, #-4]
 590              		.loc 1 409 0 discriminator 3
 591 0344 92ED013A 		flds	s6, [r2, #4]
 592              		.loc 1 403 0 discriminator 3
 593 0348 57ED019A 		flds	s19, [r7, #-4]
 594              		.loc 1 405 0 discriminator 3
 595 034c 71EE026A 		fadds	s13, s2, s4
 596              		.loc 1 403 0 discriminator 3
 597 0350 79EEA10A 		fadds	s1, s19, s3
 598              		.loc 1 417 0 discriminator 3
 599 0354 76EEA78A 		fadds	s17, s13, s15
 600              		.loc 1 406 0 discriminator 3
 601 0358 31EE422A 		fsubs	s4, s2, s4
 602              		.loc 1 417 0 discriminator 3
 603 035c 77EE288A 		fadds	s17, s14, s17
 604              		.loc 1 390 0 discriminator 3
 605 0360 74EE23AA 		fadds	s21, s8, s7
 606              		.loc 1 417 0 discriminator 3
 607 0364 18EE90CA 		fmrs	ip, s17
 608 0368 47F808C9 		str	ip, [r7], #-8	@ float
 609              	.LVL72:
 610              		.loc 1 418 0 discriminator 3
 611 036c D2ED018A 		flds	s17, [r2, #4]
 612 0370 93ED019A 		flds	s18, [r3, #4]
 613 0374 70EEA88A 		fadds	s17, s1, s17
 614              		.loc 1 408 0 discriminator 3
 615 0378 37EEC71A 		fsubs	s2, s15, s14
 616              		.loc 1 418 0 discriminator 3
 617 037c 78EE898A 		fadds	s17, s17, s18
 618              		.loc 1 390 0 discriminator 3
 619 0380 7AEEE4AA 		fsubs	s21, s21, s9
 620              	.LVL73:
 621              		.loc 1 418 0 discriminator 3
 622 0384 C7ED018A 		fsts	s17, [r7, #4]
 623              		.loc 1 423 0 discriminator 3
 624 0388 5AED018A 		flds	s17, [r10, #-4]
 625              		.loc 1 404 0 discriminator 3
ARM GAS  /tmp/ccOp4oY9.s 			page 12


 626 038c 79EEE11A 		fsubs	s3, s19, s3
 627              		.loc 1 430 0 discriminator 3
 628 0390 2AEE28CA 		fmuls	s24, s20, s17
 629              		.loc 1 422 0 discriminator 3
 630 0394 5AED029A 		flds	s19, [r10, #-8]
 631              		.loc 1 409 0 discriminator 3
 632 0398 32EE439A 		fsubs	s18, s4, s6
 633              		.loc 1 434 0 discriminator 3
 634 039c AAEEA9CA 		vfma.f32	s24, s21, s19
 635              		.loc 1 382 0 discriminator 3
 636 03a0 BBF1010B 		subs	fp, fp, #1
 637              	.LVL74:
 638 03a4 05F10805 		add	r5, r5, #8
 639              	.LVL75:
 640              		.loc 1 409 0 discriminator 3
 641 03a8 39EE229A 		fadds	s18, s18, s5
 642              		.loc 1 408 0 discriminator 3
 643 03ac 71EE21CA 		fadds	s25, s2, s3
 644 03b0 68EEEABA 		fnmuls	s23, s17, s21
 645 03b4 29EEECBA 		fnmuls	s22, s19, s25
 646              		.loc 1 442 0 discriminator 3
 647 03b8 69EE29AA 		fmuls	s21, s18, s19
 648              	.LVL76:
 649              		.loc 1 444 0 discriminator 3
 650 03bc A9EE28BA 		vfma.f32	s22, s18, s17
 651 03c0 0AF1080A 		add	r10, r10, #8
 652 03c4 A2F10802 		sub	r2, r2, #8
 653              		.loc 1 435 0 discriminator 3
 654 03c8 EAEE29BA 		vfma.f32	s23, s20, s19
 655 03cc 09F11009 		add	r9, r9, #16
 656              	.LVL77:
 657 03d0 04F10804 		add	r4, r4, #8
 658              		.loc 1 434 0 discriminator 3
 659 03d4 1CEE10CA 		fmrs	ip, s24
 660              		.loc 1 445 0 discriminator 3
 661 03d8 ECEEA8AA 		vfma.f32	s21, s25, s17
 662              		.loc 1 434 0 discriminator 3
 663 03dc 41F808CB 		str	ip, [r1], #8	@ float
 664              	.LVL78:
 665              		.loc 1 411 0 discriminator 3
 666 03e0 70EEC30A 		fsubs	s1, s1, s6
 667              		.loc 1 435 0 discriminator 3
 668 03e4 41ED01BA 		fsts	s23, [r1, #-4]
 669              		.loc 1 444 0 discriminator 3
 670 03e8 82ED04BA 		fsts	s22, [r2, #16]
 671              		.loc 1 445 0 discriminator 3
 672 03ec C2ED03AA 		fsts	s21, [r2, #12]
 673              		.loc 1 412 0 discriminator 3
 674 03f0 76EEE76A 		fsubs	s13, s13, s15
 675              		.loc 1 393 0 discriminator 3
 676 03f4 30EE650A 		fsubs	s0, s0, s11
 677              	.LVL79:
 678              		.loc 1 449 0 discriminator 3
 679 03f8 59ED077A 		flds	s15, [r9, #-28]
 680              		.loc 1 448 0 discriminator 3
 681 03fc 59ED088A 		flds	s17, [r9, #-32]
 682              		.loc 1 394 0 discriminator 3
ARM GAS  /tmp/ccOp4oY9.s 			page 13


 683 0400 38EE448A 		fsubs	s16, s16, s8
 684              	.LVL80:
 685              		.loc 1 411 0 discriminator 3
 686 0404 70EEE20A 		fsubs	s1, s1, s5
 687              		.loc 1 412 0 discriminator 3
 688 0408 36EEC77A 		fsubs	s14, s13, s14
 689              		.loc 1 393 0 discriminator 3
 690 040c 30EE460A 		fsubs	s0, s0, s12
 691              	.LVL81:
 692              		.loc 1 394 0 discriminator 3
 693 0410 38EE648A 		fsubs	s16, s16, s9
 694              	.LVL82:
 695 0414 67EEE06A 		fnmuls	s13, s15, s1
 696              		.loc 1 453 0 discriminator 3
 697 0418 68EE279A 		fmuls	s19, s16, s15
 698              		.loc 1 467 0 discriminator 3
 699 041c E7EE686A 		vfms.f32	s13, s14, s17
 700 0420 0EF1180E 		add	lr, lr, #24
 701              	.LVL83:
 702 0424 A3F10803 		sub	r3, r3, #8
 703 0428 27EEC09A 		fnmuls	s18, s15, s0
 704              		.loc 1 457 0 discriminator 3
 705 042c E0EE289A 		vfma.f32	s19, s0, s17
 706              		.loc 1 465 0 discriminator 3
 707 0430 67EE277A 		fmuls	s15, s14, s15
 708              		.loc 1 458 0 discriminator 3
 709 0434 A8EE289A 		vfma.f32	s18, s16, s17
 710              		.loc 1 467 0 discriminator 3
 711 0438 16EE90CA 		fmrs	ip, s13
 712              		.loc 1 468 0 discriminator 3
 713 043c E0EEE87A 		vfms.f32	s15, s1, s17
 714              		.loc 1 457 0 discriminator 3
 715 0440 44ED049A 		fsts	s19, [r4, #-16]
 716              		.loc 1 458 0 discriminator 3
 717 0444 04ED039A 		fsts	s18, [r4, #-12]
 718              		.loc 1 467 0 discriminator 3
 719 0448 46F808C9 		str	ip, [r6], #-8	@ float
 720              	.LVL84:
 721              		.loc 1 397 0 discriminator 3
 722 044c 75EE255A 		fadds	s11, s10, s11
 723              		.loc 1 468 0 discriminator 3
 724 0450 C6ED017A 		fsts	s15, [r6, #4]
 725              		.loc 1 472 0 discriminator 3
 726 0454 5EED0B6A 		flds	s13, [lr, #-44]
 727              		.loc 1 397 0 discriminator 3
 728 0458 35EEC66A 		fsubs	s12, s11, s12
 729              		.loc 1 396 0 discriminator 3
 730 045c 33EEC44A 		fsubs	s8, s7, s8
 731              	.LVL85:
 732              		.loc 1 415 0 discriminator 3
 733 0460 72EEC37A 		fsubs	s15, s5, s6
 734              		.loc 1 471 0 discriminator 3
 735 0464 5EED0C5A 		flds	s11, [lr, #-48]
 736              		.loc 1 396 0 discriminator 3
 737 0468 74EE844A 		fadds	s9, s9, s8
 738              	.LVL86:
 739              		.loc 1 414 0 discriminator 3
ARM GAS  /tmp/ccOp4oY9.s 			page 14


 740 046c 31EE617A 		fsubs	s14, s2, s3
 741              	.LVL87:
 742              		.loc 1 476 0 discriminator 3
 743 0470 66EE263A 		fmuls	s7, s12, s13
 744              		.loc 1 415 0 discriminator 3
 745 0474 77EEC27A 		fsubs	s15, s15, s4
 746              	.LVL88:
 747 0478 26EEE44A 		fnmuls	s8, s13, s9
 748              		.loc 1 480 0 discriminator 3
 749 047c E4EEA53A 		vfma.f32	s7, s9, s11
 750              	.LVL89:
 751 0480 65EEC74A 		fnmuls	s9, s11, s14
 752              	.LVL90:
 753              		.loc 1 488 0 discriminator 3
 754 0484 27EEA55A 		fmuls	s10, s15, s11
 755              		.loc 1 481 0 discriminator 3
 756 0488 A6EE254A 		vfma.f32	s8, s12, s11
 757              		.loc 1 490 0 discriminator 3
 758 048c B0EE646A 		fcpys	s12, s9
 759              	.LVL91:
 760 0490 A7EEA66A 		vfma.f32	s12, s15, s13
 761              		.loc 1 491 0 discriminator 3
 762 0494 F0EE457A 		fcpys	s15, s10
 763              	.LVL92:
 764              		.loc 1 480 0 discriminator 3
 765 0498 13EE90CA 		fmrs	ip, s7
 766              		.loc 1 491 0 discriminator 3
 767 049c E7EE267A 		vfma.f32	s15, s14, s13
 768              		.loc 1 480 0 discriminator 3
 769 04a0 40F808CB 		str	ip, [r0], #8	@ float
 770              	.LVL93:
 771              		.loc 1 481 0 discriminator 3
 772 04a4 00ED014A 		fsts	s8, [r0, #-4]
 773              	.LVL94:
 774              		.loc 1 490 0 discriminator 3
 775 04a8 83ED046A 		fsts	s12, [r3, #16]
 776              	.LVL95:
 777              		.loc 1 491 0 discriminator 3
 778 04ac C3ED037A 		fsts	s15, [r3, #12]
 779              		.loc 1 382 0 discriminator 3
 780 04b0 7FF410AF 		bne	.L10
 781 04b4 0799     		ldr	r1, [sp, #28]
 782              	.LVL96:
 783 04b6 0298     		ldr	r0, [sp, #8]
 784              	.LVL97:
 785 04b8 DDF834C0 		ldr	ip, [sp, #52]
 786 04bc CB00     		lsls	r3, r1, #3
 787 04be 01EB4102 		add	r2, r1, r1, lsl #1
 788 04c2 00EB0111 		add	r1, r0, r1, lsl #4
 789 04c6 0291     		str	r1, [sp, #8]
 790 04c8 0399     		ldr	r1, [sp, #12]
 791 04ca 1944     		add	r1, r1, r3
 792 04cc 0391     		str	r1, [sp, #12]
 793 04ce 0499     		ldr	r1, [sp, #16]
 794 04d0 1944     		add	r1, r1, r3
 795 04d2 0491     		str	r1, [sp, #16]
 796 04d4 0699     		ldr	r1, [sp, #24]
ARM GAS  /tmp/ccOp4oY9.s 			page 15


 797 04d6 9844     		add	r8, r8, r3
 798 04d8 1944     		add	r1, r1, r3
 799 04da 9C44     		add	ip, ip, r3
 800 04dc 059B     		ldr	r3, [sp, #20]
 801 04de 0691     		str	r1, [sp, #24]
 802 04e0 03EBC203 		add	r3, r3, r2, lsl #3
 803 04e4 0593     		str	r3, [sp, #20]
 804              	.LVL98:
 805              	.L9:
 806              		.loc 1 497 0
 807 04e6 039A     		ldr	r2, [sp, #12]
 808 04e8 069E     		ldr	r6, [sp, #24]
 809              	.LVL99:
 810 04ea 92ED003A 		flds	s6, [r2]
 811 04ee D6ED006A 		flds	s13, [r6]
 812              		.loc 1 504 0
 813 04f2 D8ED007A 		flds	s15, [r8]
 814 04f6 9CED004A 		flds	s8, [ip]
 815              		.loc 1 499 0
 816 04fa 96ED017A 		flds	s14, [r6, #4]
 817 04fe D2ED013A 		flds	s7, [r2, #4]
 818              		.loc 1 503 0
 819 0502 D8ED012A 		flds	s5, [r8, #4]
 820 0506 DCED014A 		flds	s9, [ip, #4]
 821              		.loc 1 528 0
 822 050a 029D     		ldr	r5, [sp, #8]
 823              		.loc 1 550 0
 824 050c BDF82840 		ldrh	r4, [sp, #40]
 825 0510 0C98     		ldr	r0, [sp, #48]
 826              		.loc 1 497 0
 827 0512 73EE265A 		fadds	s11, s6, s13
 828              	.LVL100:
 829              		.loc 1 499 0
 830 0516 33EE876A 		fadds	s12, s7, s14
 831              		.loc 1 512 0
 832 051a 35EEA75A 		fadds	s10, s11, s15
 833              		.loc 1 498 0
 834 051e 73EE666A 		fsubs	s13, s6, s13
 835              	.LVL101:
 836              		.loc 1 512 0
 837 0522 34EE055A 		fadds	s10, s8, s10
 838              		.loc 1 500 0
 839 0526 33EEC77A 		fsubs	s14, s7, s14
 840              	.LVL102:
 841              		.loc 1 512 0
 842 052a 82ED005A 		fsts	s10, [r2]
 843              		.loc 1 513 0
 844 052e 98ED015A 		flds	s10, [r8, #4]
 845 0532 9CED013A 		flds	s6, [ip, #4]
 846 0536 36EE055A 		fadds	s10, s12, s10
 847              		.loc 1 504 0
 848 053a 77EE673A 		fsubs	s7, s14, s15
 849              		.loc 1 513 0
 850 053e 35EE035A 		fadds	s10, s10, s6
 851              		.loc 1 503 0
 852 0542 32EEA63A 		fadds	s6, s5, s13
 853              		.loc 1 513 0
ARM GAS  /tmp/ccOp4oY9.s 			page 16


 854 0546 82ED015A 		fsts	s10, [r2, #4]
 855              		.loc 1 517 0
 856 054a 049A     		ldr	r2, [sp, #16]
 857              		.loc 1 504 0
 858 054c 73EE843A 		fadds	s7, s7, s8
 859              		.loc 1 517 0
 860 0550 92ED015A 		flds	s10, [r2, #4]
 861              		.loc 1 516 0
 862 0554 D2ED001A 		flds	s3, [r2]
 863              		.loc 1 550 0
 864 0558 019A     		ldr	r2, [sp, #4]
 865              		.loc 1 503 0
 866 055a 33EE643A 		fsubs	s6, s6, s9
 867              	.LVL103:
 868              		.loc 1 520 0
 869 055e 23EE852A 		fmuls	s4, s7, s10
 870 0562 25EE435A 		fnmuls	s10, s10, s6
 871              		.loc 1 524 0
 872 0566 A3EE212A 		vfma.f32	s4, s6, s3
 873              		.loc 1 550 0
 874 056a 2146     		mov	r1, r4
 875 056c 0423     		movs	r3, #4
 876              		.loc 1 525 0
 877 056e A3EEA15A 		vfma.f32	s10, s7, s3
 878              		.loc 1 507 0
 879 0572 36EE626A 		fsubs	s12, s12, s5
 880              	.LVL104:
 881              		.loc 1 506 0
 882 0576 75EEE75A 		fsubs	s11, s11, s15
 883              	.LVL105:
 884              		.loc 1 524 0
 885 057a 88ED002A 		fsts	s4, [r8]
 886              		.loc 1 525 0
 887 057e 88ED015A 		fsts	s10, [r8, #4]
 888              		.loc 1 506 0
 889 0582 75EEC45A 		fsubs	s11, s11, s8
 890              	.LVL106:
 891              		.loc 1 507 0
 892 0586 36EE646A 		fsubs	s12, s12, s9
 893              	.LVL107:
 894              		.loc 1 528 0
 895 058a 95ED015A 		flds	s10, [r5, #4]
 896              		.loc 1 527 0
 897 058e 95ED003A 		flds	s6, [r5]
 898              	.LVL108:
 899              		.loc 1 531 0
 900 0592 66EE053A 		fmuls	s7, s12, s10
 901              	.LVL109:
 902 0596 25EE655A 		fnmuls	s10, s10, s11
 903              		.loc 1 535 0
 904 059a E5EE833A 		vfma.f32	s7, s11, s6
 905 059e 3546     		mov	r5, r6
 906              		.loc 1 536 0
 907 05a0 A6EE035A 		vfma.f32	s10, s12, s6
 908              		.loc 1 535 0
 909 05a4 C5ED003A 		fsts	s7, [r5]
 910              		.loc 1 509 0
ARM GAS  /tmp/ccOp4oY9.s 			page 17


 911 05a8 76EEE26A 		fsubs	s13, s13, s5
 912              	.LVL110:
 913              		.loc 1 536 0
 914 05ac 86ED015A 		fsts	s10, [r6, #4]
 915              		.loc 1 510 0
 916 05b0 37EE277A 		fadds	s14, s14, s15
 917              	.LVL111:
 918              		.loc 1 539 0
 919 05b4 059E     		ldr	r6, [sp, #20]
 920              		.loc 1 510 0
 921 05b6 77EE447A 		fsubs	s15, s14, s8
 922              		.loc 1 509 0
 923 05ba 74EEA66A 		fadds	s13, s9, s13
 924              	.LVL112:
 925              		.loc 1 539 0
 926 05be 96ED017A 		flds	s14, [r6, #4]
 927              		.loc 1 538 0
 928 05c2 D6ED005A 		flds	s11, [r6]
 929              	.LVL113:
 930              		.loc 1 542 0
 931 05c6 27EE876A 		fmuls	s12, s15, s14
 932              	.LVL114:
 933 05ca 27EE667A 		fnmuls	s14, s14, s13
 934              	.LVL115:
 935              		.loc 1 546 0
 936 05ce A6EEA56A 		vfma.f32	s12, s13, s11
 937              	.LVL116:
 938              		.loc 1 547 0
 939 05d2 A7EEA57A 		vfma.f32	s14, s15, s11
 940              		.loc 1 546 0
 941 05d6 8CED006A 		fsts	s12, [ip]
 942              	.LVL117:
 943              		.loc 1 547 0
 944 05da 8CED017A 		fsts	s14, [ip, #4]
 945              		.loc 1 550 0
 946 05de FFF7FEFF 		bl	arm_radix8_butterfly_f32
 947              	.LVL118:
 948              		.loc 1 552 0
 949 05e2 0B9D     		ldr	r5, [sp, #44]
 950              	.LVL119:
 951 05e4 0898     		ldr	r0, [sp, #32]
 952 05e6 6A68     		ldr	r2, [r5, #4]
 953 05e8 2146     		mov	r1, r4
 954 05ea 0423     		movs	r3, #4
 955 05ec FFF7FEFF 		bl	arm_radix8_butterfly_f32
 956              	.LVL120:
 957              		.loc 1 554 0
 958 05f0 0998     		ldr	r0, [sp, #36]
 959 05f2 6A68     		ldr	r2, [r5, #4]
 960 05f4 2146     		mov	r1, r4
 961 05f6 0423     		movs	r3, #4
 962 05f8 FFF7FEFF 		bl	arm_radix8_butterfly_f32
 963              	.LVL121:
 964              		.loc 1 556 0
 965 05fc 0098     		ldr	r0, [sp]
 966 05fe 6A68     		ldr	r2, [r5, #4]
 967 0600 2146     		mov	r1, r4
ARM GAS  /tmp/ccOp4oY9.s 			page 18


 968 0602 0423     		movs	r3, #4
 969              		.loc 1 557 0
 970 0604 0FB0     		add	sp, sp, #60
 971              		.cfi_def_cfa_offset 76
 972              	.LVL122:
 973              		@ sp needed
 974 0606 BDEC0A8B 		fldmfdd	sp!, {d8-d12}
 975              		.cfi_restore 88
 976              		.cfi_restore 89
 977              		.cfi_restore 86
 978              		.cfi_restore 87
 979              		.cfi_restore 84
 980              		.cfi_restore 85
 981              		.cfi_restore 82
 982              		.cfi_restore 83
 983              		.cfi_restore 80
 984              		.cfi_restore 81
 985              		.cfi_def_cfa_offset 36
 986 060a BDE8F04F 		pop	{r4, r5, r6, r7, r8, r9, r10, fp, lr}
 987              		.cfi_restore 14
 988              		.cfi_restore 11
 989              		.cfi_restore 10
 990              		.cfi_restore 9
 991              		.cfi_restore 8
 992              		.cfi_restore 7
 993              		.cfi_restore 6
 994              		.cfi_restore 5
 995              		.cfi_restore 4
 996              		.cfi_def_cfa_offset 0
 997              	.LVL123:
 998              		.loc 1 556 0
 999 060e FFF7FEBF 		b	arm_radix8_butterfly_f32
 1000              	.LVL124:
 1001              		.cfi_endproc
 1002              	.LFE136:
 1003              		.size	arm_cfft_radix8by4_f32, .-arm_cfft_radix8by4_f32
 1004 0612 00BF     		.align	2
 1005 0614 AFF30080 		.p2align 4,,15
 1005      AFF30080 
 1005      AFF30080 
 1006              		.global	arm_cfft_f32
 1007              		.thumb
 1008              		.thumb_func
 1009              		.type	arm_cfft_f32, %function
 1010              	arm_cfft_f32:
 1011              	.LFB137:
 1012              		.loc 1 579 0
 1013              		.cfi_startproc
 1014              		@ args = 0, pretend = 0, frame = 0
 1015              		@ frame_needed = 0, uses_anonymous_args = 0
 1016              	.LVL125:
 1017              		.loc 1 583 0
 1018 0620 012A     		cmp	r2, #1
 1019              		.loc 1 579 0
 1020 0622 2DE9F041 		push	{r4, r5, r6, r7, r8, lr}
 1021              		.cfi_def_cfa_offset 24
 1022              		.cfi_offset 4, -24
ARM GAS  /tmp/ccOp4oY9.s 			page 19


 1023              		.cfi_offset 5, -20
 1024              		.cfi_offset 6, -16
 1025              		.cfi_offset 7, -12
 1026              		.cfi_offset 8, -8
 1027              		.cfi_offset 14, -4
 1028              		.loc 1 579 0
 1029 0626 0646     		mov	r6, r0
 1030 0628 1746     		mov	r7, r2
 1031 062a 0C46     		mov	r4, r1
 1032 062c 9846     		mov	r8, r3
 1033              		.loc 1 580 0
 1034 062e 0588     		ldrh	r5, [r0]
 1035              	.LVL126:
 1036              		.loc 1 583 0
 1037 0630 54D0     		beq	.L17
 1038              	.LVL127:
 1039              	.L25:
 1040              		.loc 1 594 0
 1041 0632 B5F5807F 		cmp	r5, #256
 1042 0636 4CD0     		beq	.L19
 1043 0638 16D9     		bls	.L70
 1044              	.L20:
 1045 063a B5F5806F 		cmp	r5, #1024
 1046 063e 1AD0     		beq	.L22
 1047 0640 5CD9     		bls	.L71
 1048 0642 B5F5006F 		cmp	r5, #2048
 1049 0646 44D0     		beq	.L19
 1050 0648 B5F5805F 		cmp	r5, #4096
 1051 064c 05D1     		bne	.L18
 1052              	.L23:
 1053              		.loc 1 609 0
 1054 064e 2046     		mov	r0, r4
 1055              	.LVL128:
 1056 0650 2946     		mov	r1, r5
 1057              	.LVL129:
 1058 0652 7268     		ldr	r2, [r6, #4]
 1059 0654 0123     		movs	r3, #1
 1060 0656 FFF7FEFF 		bl	arm_radix8_butterfly_f32
 1061              	.LVL130:
 1062              	.L18:
 1063              		.loc 1 613 0
 1064 065a B8F1000F 		cmp	r8, #0
 1065 065e 11D1     		bne	.L72
 1066              	.L27:
 1067              		.loc 1 616 0
 1068 0660 012F     		cmp	r7, #1
 1069 0662 16D0     		beq	.L73
 1070              	.L16:
 1071 0664 BDE8F081 		pop	{r4, r5, r6, r7, r8, pc}
 1072              	.LVL131:
 1073              	.L70:
 1074              		.loc 1 594 0
 1075 0668 202D     		cmp	r5, #32
 1076 066a 32D0     		beq	.L19
 1077 066c 4AD9     		bls	.L74
 1078 066e 402D     		cmp	r5, #64
 1079 0670 EDD0     		beq	.L23
ARM GAS  /tmp/ccOp4oY9.s 			page 20


 1080 0672 802D     		cmp	r5, #128
 1081 0674 F1D1     		bne	.L18
 1082              	.L22:
 1083              		.loc 1 599 0
 1084 0676 3046     		mov	r0, r6
 1085              	.LVL132:
 1086 0678 2146     		mov	r1, r4
 1087              	.LVL133:
 1088 067a FFF7FEFF 		bl	arm_cfft_radix8by2_f32
 1089              	.LVL134:
 1090              		.loc 1 613 0
 1091 067e B8F1000F 		cmp	r8, #0
 1092 0682 EDD0     		beq	.L27
 1093              	.L72:
 1094              		.loc 1 614 0
 1095 0684 2046     		mov	r0, r4
 1096 0686 B189     		ldrh	r1, [r6, #12]
 1097 0688 B268     		ldr	r2, [r6, #8]
 1098 068a FFF7FEFF 		bl	arm_bitreversal_32
 1099              	.LVL135:
 1100              		.loc 1 616 0
 1101 068e 012F     		cmp	r7, #1
 1102 0690 E8D1     		bne	.L16
 1103              	.L73:
 1104              		.loc 1 618 0
 1105 0692 07EE905A 		fmsr	s15, r5	@ int
 1106 0696 F8EE676A 		fuitos	s13, s15
 1107 069a F7EE007A 		fconsts	s15, #112
 1108 069e C7EEA66A 		fdivs	s13, s15, s13
 1109              	.LVL136:
 1110              		.loc 1 621 0
 1111 06a2 002D     		cmp	r5, #0
 1112 06a4 DED0     		beq	.L16
 1113 06a6 04F10801 		add	r1, r4, #8
 1114 06aa 0023     		movs	r3, #0
 1115              	.LVL137:
 1116              	.L30:
 1117              		.loc 1 621 0 is_stmt 0 discriminator 3
 1118 06ac 0133     		adds	r3, r3, #1
 1119              	.LVL138:
 1120 06ae 9D42     		cmp	r5, r3
 1121 06b0 01F10801 		add	r1, r1, #8
 1122              	.LVL139:
 1123              		.loc 1 623 0 is_stmt 1 discriminator 3
 1124 06b4 11ED047A 		flds	s14, [r1, #-16]
 1125              		.loc 1 624 0 discriminator 3
 1126 06b8 51ED037A 		flds	s15, [r1, #-12]
 1127              		.loc 1 623 0 discriminator 3
 1128 06bc 27EE267A 		fmuls	s14, s14, s13
 1129              		.loc 1 624 0 discriminator 3
 1130 06c0 67EEE67A 		fnmuls	s15, s15, s13
 1131              		.loc 1 623 0 discriminator 3
 1132 06c4 01ED047A 		fsts	s14, [r1, #-16]
 1133              		.loc 1 624 0 discriminator 3
 1134 06c8 41ED037A 		fsts	s15, [r1, #-12]
 1135              	.LVL140:
 1136              		.loc 1 621 0 discriminator 3
ARM GAS  /tmp/ccOp4oY9.s 			page 21


 1137 06cc EED1     		bne	.L30
 1138 06ce BDE8F081 		pop	{r4, r5, r6, r7, r8, pc}
 1139              	.LVL141:
 1140              	.L19:
 1141              		.loc 1 604 0
 1142 06d2 3046     		mov	r0, r6
 1143              	.LVL142:
 1144 06d4 2146     		mov	r1, r4
 1145              	.LVL143:
 1146 06d6 FFF7FEFF 		bl	arm_cfft_radix8by4_f32
 1147              	.LVL144:
 1148              		.loc 1 605 0
 1149 06da BEE7     		b	.L18
 1150              	.LVL145:
 1151              	.L17:
 1152              		.loc 1 587 0
 1153 06dc ADB1     		cbz	r5, .L75
 1154 06de 01F10C03 		add	r3, r1, #12
 1155              	.LVL146:
 1156 06e2 0022     		movs	r2, #0
 1157              	.LVL147:
 1158              	.L26:
 1159              		.loc 1 589 0 discriminator 3
 1160 06e4 53ED027A 		flds	s15, [r3, #-8]
 1161              		.loc 1 587 0 discriminator 3
 1162 06e8 0132     		adds	r2, r2, #1
 1163              	.LVL148:
 1164              		.loc 1 589 0 discriminator 3
 1165 06ea F1EE677A 		fnegs	s15, s15
 1166              		.loc 1 587 0 discriminator 3
 1167 06ee 9542     		cmp	r5, r2
 1168              		.loc 1 589 0 discriminator 3
 1169 06f0 43ED027A 		fsts	s15, [r3, #-8]
 1170              	.LVL149:
 1171 06f4 03F10803 		add	r3, r3, #8
 1172              	.LVL150:
 1173              		.loc 1 587 0 discriminator 3
 1174 06f8 F4D1     		bne	.L26
 1175 06fa 9AE7     		b	.L25
 1176              	.LVL151:
 1177              	.L71:
 1178              		.loc 1 594 0
 1179 06fc B5F5007F 		cmp	r5, #512
 1180 0700 A5D0     		beq	.L23
 1181 0702 AAE7     		b	.L18
 1182              	.L74:
 1183 0704 102D     		cmp	r5, #16
 1184 0706 B6D0     		beq	.L22
 1185 0708 A7E7     		b	.L18
 1186              	.LVL152:
 1187              	.L75:
 1188 070a B5F5807F 		cmp	r5, #256
 1189 070e 94D8     		bhi	.L20
 1190 0710 AAE7     		b	.L70
 1191              		.cfi_endproc
 1192              	.LFE137:
 1193              		.size	arm_cfft_f32, .-arm_cfft_f32
ARM GAS  /tmp/ccOp4oY9.s 			page 22


 1194              	.Letext0:
 1195              		.file 2 "/home/sbcu/Dropbox/pcb-layouts/axo-on-discovery-board/axoloti/platform_linux/arm-none-eab
 1196              		.file 3 "/home/sbcu/Dropbox/pcb-layouts/axo-on-discovery-board/axoloti/platform_linux/arm-none-eab
 1197              		.file 4 "/home/sbcu/Dropbox/pcb-layouts/axo-on-discovery-board/axoloti/platform_linux/../CMSIS//DS
 1198 0712 00BF     		.section	.debug_info,"",%progbits
 1199              	.Ldebug_info0:
 1200 0000 96060000 		.4byte	0x696
 1201 0004 0400     		.2byte	0x4
 1202 0006 00000000 		.4byte	.Ldebug_abbrev0
 1203 000a 04       		.byte	0x4
 1204 000b 01       		.uleb128 0x1
 1205 000c F9010000 		.4byte	.LASF52
 1206 0010 01       		.byte	0x1
 1207 0011 A3000000 		.4byte	.LASF53
 1208 0015 00000000 		.4byte	.Ltext0
 1209 0019 12070000 		.4byte	.Letext0-.Ltext0
 1210 001d 00000000 		.4byte	.Ldebug_line0
 1211 0021 02       		.uleb128 0x2
 1212 0022 04       		.byte	0x4
 1213 0023 04       		.byte	0x4
 1214 0024 38010000 		.4byte	.LASF0
 1215 0028 02       		.uleb128 0x2
 1216 0029 01       		.byte	0x1
 1217 002a 06       		.byte	0x6
 1218 002b 98010000 		.4byte	.LASF1
 1219 002f 03       		.uleb128 0x3
 1220 0030 74010000 		.4byte	.LASF4
 1221 0034 02       		.byte	0x2
 1222 0035 1D       		.byte	0x1d
 1223 0036 3A000000 		.4byte	0x3a
 1224 003a 02       		.uleb128 0x2
 1225 003b 01       		.byte	0x1
 1226 003c 08       		.byte	0x8
 1227 003d 8A010000 		.4byte	.LASF2
 1228 0041 02       		.uleb128 0x2
 1229 0042 02       		.byte	0x2
 1230 0043 05       		.byte	0x5
 1231 0044 6B000000 		.4byte	.LASF3
 1232 0048 03       		.uleb128 0x3
 1233 0049 60000000 		.4byte	.LASF5
 1234 004d 02       		.byte	0x2
 1235 004e 2B       		.byte	0x2b
 1236 004f 53000000 		.4byte	0x53
 1237 0053 02       		.uleb128 0x2
 1238 0054 02       		.byte	0x2
 1239 0055 07       		.byte	0x7
 1240 0056 D1010000 		.4byte	.LASF6
 1241 005a 02       		.uleb128 0x2
 1242 005b 04       		.byte	0x4
 1243 005c 05       		.byte	0x5
 1244 005d 55010000 		.4byte	.LASF7
 1245 0061 03       		.uleb128 0x3
 1246 0062 55000000 		.4byte	.LASF8
 1247 0066 02       		.byte	0x2
 1248 0067 41       		.byte	0x41
 1249 0068 6C000000 		.4byte	0x6c
 1250 006c 02       		.uleb128 0x2
ARM GAS  /tmp/ccOp4oY9.s 			page 23


 1251 006d 04       		.byte	0x4
 1252 006e 07       		.byte	0x7
 1253 006f FB020000 		.4byte	.LASF9
 1254 0073 02       		.uleb128 0x2
 1255 0074 08       		.byte	0x8
 1256 0075 05       		.byte	0x5
 1257 0076 47010000 		.4byte	.LASF10
 1258 007a 02       		.uleb128 0x2
 1259 007b 08       		.byte	0x8
 1260 007c 07       		.byte	0x7
 1261 007d A4010000 		.4byte	.LASF11
 1262 0081 04       		.uleb128 0x4
 1263 0082 04       		.byte	0x4
 1264 0083 05       		.byte	0x5
 1265 0084 696E7400 		.ascii	"int\000"
 1266 0088 02       		.uleb128 0x2
 1267 0089 04       		.byte	0x4
 1268 008a 07       		.byte	0x7
 1269 008b C4010000 		.4byte	.LASF12
 1270 008f 03       		.uleb128 0x3
 1271 0090 82000000 		.4byte	.LASF13
 1272 0094 03       		.byte	0x3
 1273 0095 14       		.byte	0x14
 1274 0096 2F000000 		.4byte	0x2f
 1275 009a 03       		.uleb128 0x3
 1276 009b F2020000 		.4byte	.LASF14
 1277 009f 03       		.byte	0x3
 1278 00a0 1A       		.byte	0x1a
 1279 00a1 48000000 		.4byte	0x48
 1280 00a5 03       		.uleb128 0x3
 1281 00a6 BB010000 		.4byte	.LASF15
 1282 00aa 03       		.byte	0x3
 1283 00ab 20       		.byte	0x20
 1284 00ac 61000000 		.4byte	0x61
 1285 00b0 02       		.uleb128 0x2
 1286 00b1 04       		.byte	0x4
 1287 00b2 07       		.byte	0x7
 1288 00b3 28000000 		.4byte	.LASF16
 1289 00b7 02       		.uleb128 0x2
 1290 00b8 01       		.byte	0x1
 1291 00b9 08       		.byte	0x8
 1292 00ba F4010000 		.4byte	.LASF17
 1293 00be 02       		.uleb128 0x2
 1294 00bf 08       		.byte	0x8
 1295 00c0 04       		.byte	0x4
 1296 00c1 73030000 		.4byte	.LASF18
 1297 00c5 02       		.uleb128 0x2
 1298 00c6 08       		.byte	0x8
 1299 00c7 04       		.byte	0x4
 1300 00c8 7E010000 		.4byte	.LASF19
 1301 00cc 05       		.uleb128 0x5
 1302 00cd 6A010000 		.4byte	.LASF20
 1303 00d1 04       		.byte	0x4
 1304 00d2 AA01     		.2byte	0x1aa
 1305 00d4 21000000 		.4byte	0x21
 1306 00d8 06       		.uleb128 0x6
 1307 00d9 04       		.byte	0x4
ARM GAS  /tmp/ccOp4oY9.s 			page 24


 1308 00da CC000000 		.4byte	0xcc
 1309 00de 06       		.uleb128 0x6
 1310 00df 04       		.byte	0x4
 1311 00e0 E4000000 		.4byte	0xe4
 1312 00e4 07       		.uleb128 0x7
 1313 00e5 9A000000 		.4byte	0x9a
 1314 00e9 08       		.uleb128 0x8
 1315 00ea 10       		.byte	0x10
 1316 00eb 04       		.byte	0x4
 1317 00ec A308     		.2byte	0x8a3
 1318 00ee 27010000 		.4byte	0x127
 1319 00f2 09       		.uleb128 0x9
 1320 00f3 31010000 		.4byte	.LASF21
 1321 00f7 04       		.byte	0x4
 1322 00f8 A508     		.2byte	0x8a5
 1323 00fa 9A000000 		.4byte	0x9a
 1324 00fe 00       		.byte	0
 1325 00ff 09       		.uleb128 0x9
 1326 0100 3E010000 		.4byte	.LASF22
 1327 0104 04       		.byte	0x4
 1328 0105 A608     		.2byte	0x8a6
 1329 0107 27010000 		.4byte	0x127
 1330 010b 04       		.byte	0x4
 1331 010c 09       		.uleb128 0x9
 1332 010d 75000000 		.4byte	.LASF23
 1333 0111 04       		.byte	0x4
 1334 0112 A708     		.2byte	0x8a7
 1335 0114 DE000000 		.4byte	0xde
 1336 0118 08       		.byte	0x8
 1337 0119 09       		.uleb128 0x9
 1338 011a 48000000 		.4byte	.LASF24
 1339 011e 04       		.byte	0x4
 1340 011f A808     		.2byte	0x8a8
 1341 0121 9A000000 		.4byte	0x9a
 1342 0125 0C       		.byte	0xc
 1343 0126 00       		.byte	0
 1344 0127 06       		.uleb128 0x6
 1345 0128 04       		.byte	0x4
 1346 0129 2D010000 		.4byte	0x12d
 1347 012d 07       		.uleb128 0x7
 1348 012e CC000000 		.4byte	0xcc
 1349 0132 05       		.uleb128 0x5
 1350 0133 7F030000 		.4byte	.LASF25
 1351 0137 04       		.byte	0x4
 1352 0138 A908     		.2byte	0x8a9
 1353 013a E9000000 		.4byte	0xe9
 1354 013e 0A       		.uleb128 0xa
 1355 013f 31000000 		.4byte	.LASF30
 1356 0143 01       		.byte	0x1
 1357 0144 CF       		.byte	0xcf
 1358 0145 00000000 		.4byte	.LFB135
 1359 0149 84010000 		.4byte	.LFE135-.LFB135
 1360 014d 01       		.uleb128 0x1
 1361 014e 9C       		.byte	0x9c
 1362 014f 9E020000 		.4byte	0x29e
 1363 0153 0B       		.uleb128 0xb
 1364 0154 5300     		.ascii	"S\000"
ARM GAS  /tmp/ccOp4oY9.s 			page 25


 1365 0156 01       		.byte	0x1
 1366 0157 CF       		.byte	0xcf
 1367 0158 9E020000 		.4byte	0x29e
 1368 015c 00000000 		.4byte	.LLST0
 1369 0160 0B       		.uleb128 0xb
 1370 0161 703100   		.ascii	"p1\000"
 1371 0164 01       		.byte	0x1
 1372 0165 CF       		.byte	0xcf
 1373 0166 D8000000 		.4byte	0xd8
 1374 016a 2C000000 		.4byte	.LLST1
 1375 016e 0C       		.uleb128 0xc
 1376 016f 4C00     		.ascii	"L\000"
 1377 0171 01       		.byte	0x1
 1378 0172 D1       		.byte	0xd1
 1379 0173 A5000000 		.4byte	0xa5
 1380 0177 8B000000 		.4byte	.LLST2
 1381 017b 0D       		.uleb128 0xd
 1382 017c 54030000 		.4byte	.LASF26
 1383 0180 01       		.byte	0x1
 1384 0181 D2       		.byte	0xd2
 1385 0182 D8000000 		.4byte	0xd8
 1386 0186 BE000000 		.4byte	.LLST3
 1387 018a 0D       		.uleb128 0xd
 1388 018b 5A030000 		.4byte	.LASF27
 1389 018f 01       		.byte	0x1
 1390 0190 D2       		.byte	0xd2
 1391 0191 D8000000 		.4byte	0xd8
 1392 0195 EA000000 		.4byte	.LLST4
 1393 0199 0D       		.uleb128 0xd
 1394 019a 00000000 		.4byte	.LASF28
 1395 019e 01       		.byte	0x1
 1396 019f D2       		.byte	0xd2
 1397 01a0 D8000000 		.4byte	0xd8
 1398 01a4 08010000 		.4byte	.LLST5
 1399 01a8 0D       		.uleb128 0xd
 1400 01a9 06000000 		.4byte	.LASF29
 1401 01ad 01       		.byte	0x1
 1402 01ae D2       		.byte	0xd2
 1403 01af D8000000 		.4byte	0xd8
 1404 01b3 44010000 		.4byte	.LLST6
 1405 01b7 0C       		.uleb128 0xc
 1406 01b8 703200   		.ascii	"p2\000"
 1407 01bb 01       		.byte	0x1
 1408 01bc D3       		.byte	0xd3
 1409 01bd D8000000 		.4byte	0xd8
 1410 01c1 80010000 		.4byte	.LLST7
 1411 01c5 0C       		.uleb128 0xc
 1412 01c6 747700   		.ascii	"tw\000"
 1413 01c9 01       		.byte	0x1
 1414 01ca D4       		.byte	0xd4
 1415 01cb 27010000 		.4byte	0x127
 1416 01cf 93010000 		.4byte	.LLST8
 1417 01d3 0C       		.uleb128 0xc
 1418 01d4 743100   		.ascii	"t1\000"
 1419 01d7 01       		.byte	0x1
 1420 01d8 D5       		.byte	0xd5
 1421 01d9 A4020000 		.4byte	0x2a4
ARM GAS  /tmp/ccOp4oY9.s 			page 26


 1422 01dd A6010000 		.4byte	.LLST9
 1423 01e1 0C       		.uleb128 0xc
 1424 01e2 743200   		.ascii	"t2\000"
 1425 01e5 01       		.byte	0x1
 1426 01e6 D5       		.byte	0xd5
 1427 01e7 A4020000 		.4byte	0x2a4
 1428 01eb 40020000 		.4byte	.LLST10
 1429 01ef 0C       		.uleb128 0xc
 1430 01f0 743300   		.ascii	"t3\000"
 1431 01f3 01       		.byte	0x1
 1432 01f4 D5       		.byte	0xd5
 1433 01f5 A4020000 		.4byte	0x2a4
 1434 01f9 F6020000 		.4byte	.LLST11
 1435 01fd 0C       		.uleb128 0xc
 1436 01fe 743400   		.ascii	"t4\000"
 1437 0201 01       		.byte	0x1
 1438 0202 D5       		.byte	0xd5
 1439 0203 A4020000 		.4byte	0x2a4
 1440 0207 44030000 		.4byte	.LLST12
 1441 020b 0C       		.uleb128 0xc
 1442 020c 74775200 		.ascii	"twR\000"
 1443 0210 01       		.byte	0x1
 1444 0211 D5       		.byte	0xd5
 1445 0212 CC000000 		.4byte	0xcc
 1446 0216 BA030000 		.4byte	.LLST13
 1447 021a 0C       		.uleb128 0xc
 1448 021b 74774900 		.ascii	"twI\000"
 1449 021f 01       		.byte	0x1
 1450 0220 D5       		.byte	0xd5
 1451 0221 CC000000 		.4byte	0xcc
 1452 0225 CE030000 		.4byte	.LLST14
 1453 0229 0C       		.uleb128 0xc
 1454 022a 6D3000   		.ascii	"m0\000"
 1455 022d 01       		.byte	0x1
 1456 022e D6       		.byte	0xd6
 1457 022f CC000000 		.4byte	0xcc
 1458 0233 E2030000 		.4byte	.LLST15
 1459 0237 0C       		.uleb128 0xc
 1460 0238 6D3100   		.ascii	"m1\000"
 1461 023b 01       		.byte	0x1
 1462 023c D6       		.byte	0xd6
 1463 023d CC000000 		.4byte	0xcc
 1464 0241 0E040000 		.4byte	.LLST16
 1465 0245 0C       		.uleb128 0xc
 1466 0246 6D3200   		.ascii	"m2\000"
 1467 0249 01       		.byte	0x1
 1468 024a D6       		.byte	0xd6
 1469 024b CC000000 		.4byte	0xcc
 1470 024f 58040000 		.4byte	.LLST17
 1471 0253 0C       		.uleb128 0xc
 1472 0254 6D3300   		.ascii	"m3\000"
 1473 0257 01       		.byte	0x1
 1474 0258 D6       		.byte	0xd6
 1475 0259 CC000000 		.4byte	0xcc
 1476 025d 84040000 		.4byte	.LLST18
 1477 0261 0C       		.uleb128 0xc
 1478 0262 6C00     		.ascii	"l\000"
ARM GAS  /tmp/ccOp4oY9.s 			page 27


 1479 0264 01       		.byte	0x1
 1480 0265 D7       		.byte	0xd7
 1481 0266 A5000000 		.4byte	0xa5
 1482 026a B0040000 		.4byte	.LLST19
 1483 026e 0E       		.uleb128 0xe
 1484 026f 6E010000 		.4byte	.LVL36
 1485 0273 58060000 		.4byte	0x658
 1486 0277 8E020000 		.4byte	0x28e
 1487 027b 0F       		.uleb128 0xf
 1488 027c 01       		.uleb128 0x1
 1489 027d 53       		.byte	0x53
 1490 027e 01       		.uleb128 0x1
 1491 027f 32       		.byte	0x32
 1492 0280 0F       		.uleb128 0xf
 1493 0281 01       		.uleb128 0x1
 1494 0282 51       		.byte	0x51
 1495 0283 02       		.uleb128 0x2
 1496 0284 74       		.byte	0x74
 1497 0285 00       		.sleb128 0
 1498 0286 0F       		.uleb128 0xf
 1499 0287 01       		.uleb128 0x1
 1500 0288 50       		.byte	0x50
 1501 0289 03       		.uleb128 0x3
 1502 028a F3       		.byte	0xf3
 1503 028b 01       		.uleb128 0x1
 1504 028c 51       		.byte	0x51
 1505 028d 00       		.byte	0
 1506 028e 10       		.uleb128 0x10
 1507 028f 84010000 		.4byte	.LVL38
 1508 0293 58060000 		.4byte	0x658
 1509 0297 0F       		.uleb128 0xf
 1510 0298 01       		.uleb128 0x1
 1511 0299 53       		.byte	0x53
 1512 029a 01       		.uleb128 0x1
 1513 029b 32       		.byte	0x32
 1514 029c 00       		.byte	0
 1515 029d 00       		.byte	0
 1516 029e 06       		.uleb128 0x6
 1517 029f 04       		.byte	0x4
 1518 02a0 32010000 		.4byte	0x132
 1519 02a4 11       		.uleb128 0x11
 1520 02a5 CC000000 		.4byte	0xcc
 1521 02a9 B4020000 		.4byte	0x2b4
 1522 02ad 12       		.uleb128 0x12
 1523 02ae B0000000 		.4byte	0xb0
 1524 02b2 03       		.byte	0x3
 1525 02b3 00       		.byte	0
 1526 02b4 13       		.uleb128 0x13
 1527 02b5 28030000 		.4byte	.LASF31
 1528 02b9 01       		.byte	0x1
 1529 02ba 3F01     		.2byte	0x13f
 1530 02bc 90010000 		.4byte	.LFB136
 1531 02c0 82040000 		.4byte	.LFE136-.LFB136
 1532 02c4 01       		.uleb128 0x1
 1533 02c5 9C       		.byte	0x9c
 1534 02c6 5C050000 		.4byte	0x55c
 1535 02ca 14       		.uleb128 0x14
ARM GAS  /tmp/ccOp4oY9.s 			page 28


 1536 02cb 5300     		.ascii	"S\000"
 1537 02cd 01       		.byte	0x1
 1538 02ce 3F01     		.2byte	0x13f
 1539 02d0 9E020000 		.4byte	0x29e
 1540 02d4 D0040000 		.4byte	.LLST20
 1541 02d8 14       		.uleb128 0x14
 1542 02d9 703100   		.ascii	"p1\000"
 1543 02dc 01       		.byte	0x1
 1544 02dd 3F01     		.2byte	0x13f
 1545 02df D8000000 		.4byte	0xd8
 1546 02e3 FD040000 		.4byte	.LLST21
 1547 02e7 15       		.uleb128 0x15
 1548 02e8 4C00     		.ascii	"L\000"
 1549 02ea 01       		.byte	0x1
 1550 02eb 4101     		.2byte	0x141
 1551 02ed A5000000 		.4byte	0xa5
 1552 02f1 6F050000 		.4byte	.LLST22
 1553 02f5 16       		.uleb128 0x16
 1554 02f6 54030000 		.4byte	.LASF26
 1555 02fa 01       		.byte	0x1
 1556 02fb 4201     		.2byte	0x142
 1557 02fd D8000000 		.4byte	0xd8
 1558 0301 BE050000 		.4byte	.LLST23
 1559 0305 16       		.uleb128 0x16
 1560 0306 5A030000 		.4byte	.LASF27
 1561 030a 01       		.byte	0x1
 1562 030b 4201     		.2byte	0x142
 1563 030d D8000000 		.4byte	0xd8
 1564 0311 F6050000 		.4byte	.LLST24
 1565 0315 16       		.uleb128 0x16
 1566 0316 60030000 		.4byte	.LASF32
 1567 031a 01       		.byte	0x1
 1568 031b 4201     		.2byte	0x142
 1569 031d D8000000 		.4byte	0xd8
 1570 0321 2E060000 		.4byte	.LLST25
 1571 0325 16       		.uleb128 0x16
 1572 0326 66030000 		.4byte	.LASF33
 1573 032a 01       		.byte	0x1
 1574 032b 4201     		.2byte	0x142
 1575 032d D8000000 		.4byte	0xd8
 1576 0331 5B060000 		.4byte	.LLST26
 1577 0335 16       		.uleb128 0x16
 1578 0336 2B010000 		.4byte	.LASF34
 1579 033a 01       		.byte	0x1
 1580 033b 4201     		.2byte	0x142
 1581 033d D8000000 		.4byte	0xd8
 1582 0341 B5060000 		.4byte	.LLST27
 1583 0345 16       		.uleb128 0x16
 1584 0346 4E030000 		.4byte	.LASF35
 1585 034a 01       		.byte	0x1
 1586 034b 4201     		.2byte	0x142
 1587 034d D8000000 		.4byte	0xd8
 1588 0351 E0060000 		.4byte	.LLST28
 1589 0355 16       		.uleb128 0x16
 1590 0356 5E010000 		.4byte	.LASF36
 1591 035a 01       		.byte	0x1
 1592 035b 4201     		.2byte	0x142
ARM GAS  /tmp/ccOp4oY9.s 			page 29


 1593 035d D8000000 		.4byte	0xd8
 1594 0361 06070000 		.4byte	.LLST29
 1595 0365 16       		.uleb128 0x16
 1596 0366 64010000 		.4byte	.LASF37
 1597 036a 01       		.byte	0x1
 1598 036b 4201     		.2byte	0x142
 1599 036d D8000000 		.4byte	0xd8
 1600 0371 31070000 		.4byte	.LLST30
 1601 0375 15       		.uleb128 0x15
 1602 0376 74773200 		.ascii	"tw2\000"
 1603 037a 01       		.byte	0x1
 1604 037b 4301     		.2byte	0x143
 1605 037d 27010000 		.4byte	0x127
 1606 0381 77070000 		.4byte	.LLST31
 1607 0385 15       		.uleb128 0x15
 1608 0386 74773300 		.ascii	"tw3\000"
 1609 038a 01       		.byte	0x1
 1610 038b 4301     		.2byte	0x143
 1611 038d 27010000 		.4byte	0x127
 1612 0391 A2070000 		.4byte	.LLST32
 1613 0395 15       		.uleb128 0x15
 1614 0396 74773400 		.ascii	"tw4\000"
 1615 039a 01       		.byte	0x1
 1616 039b 4301     		.2byte	0x143
 1617 039d 27010000 		.4byte	0x127
 1618 03a1 E7070000 		.4byte	.LLST33
 1619 03a5 15       		.uleb128 0x15
 1620 03a6 703200   		.ascii	"p2\000"
 1621 03a9 01       		.byte	0x1
 1622 03aa 4401     		.2byte	0x144
 1623 03ac D8000000 		.4byte	0xd8
 1624 03b0 2C080000 		.4byte	.LLST34
 1625 03b4 15       		.uleb128 0x15
 1626 03b5 703300   		.ascii	"p3\000"
 1627 03b8 01       		.byte	0x1
 1628 03b9 4501     		.2byte	0x145
 1629 03bb D8000000 		.4byte	0xd8
 1630 03bf 9B080000 		.4byte	.LLST35
 1631 03c3 15       		.uleb128 0x15
 1632 03c4 703400   		.ascii	"p4\000"
 1633 03c7 01       		.byte	0x1
 1634 03c8 4601     		.2byte	0x146
 1635 03ca D8000000 		.4byte	0xd8
 1636 03ce 02090000 		.4byte	.LLST36
 1637 03d2 15       		.uleb128 0x15
 1638 03d3 743200   		.ascii	"t2\000"
 1639 03d6 01       		.byte	0x1
 1640 03d7 4701     		.2byte	0x147
 1641 03d9 A4020000 		.4byte	0x2a4
 1642 03dd 80090000 		.4byte	.LLST37
 1643 03e1 15       		.uleb128 0x15
 1644 03e2 743300   		.ascii	"t3\000"
 1645 03e5 01       		.byte	0x1
 1646 03e6 4701     		.2byte	0x147
 1647 03e8 A4020000 		.4byte	0x2a4
 1648 03ec 640A0000 		.4byte	.LLST38
 1649 03f0 15       		.uleb128 0x15
ARM GAS  /tmp/ccOp4oY9.s 			page 30


 1650 03f1 743400   		.ascii	"t4\000"
 1651 03f4 01       		.byte	0x1
 1652 03f5 4701     		.2byte	0x147
 1653 03f7 A4020000 		.4byte	0x2a4
 1654 03fb F80A0000 		.4byte	.LLST39
 1655 03ff 15       		.uleb128 0x15
 1656 0400 74775200 		.ascii	"twR\000"
 1657 0404 01       		.byte	0x1
 1658 0405 4701     		.2byte	0x147
 1659 0407 CC000000 		.4byte	0xcc
 1660 040b A40B0000 		.4byte	.LLST40
 1661 040f 15       		.uleb128 0x15
 1662 0410 74774900 		.ascii	"twI\000"
 1663 0414 01       		.byte	0x1
 1664 0415 4701     		.2byte	0x147
 1665 0417 CC000000 		.4byte	0xcc
 1666 041b D00B0000 		.4byte	.LLST41
 1667 041f 16       		.uleb128 0x16
 1668 0420 E4010000 		.4byte	.LASF38
 1669 0424 01       		.byte	0x1
 1670 0425 4801     		.2byte	0x148
 1671 0427 CC000000 		.4byte	0xcc
 1672 042b FC0B0000 		.4byte	.LLST42
 1673 042f 16       		.uleb128 0x16
 1674 0430 95030000 		.4byte	.LASF39
 1675 0434 01       		.byte	0x1
 1676 0435 4801     		.2byte	0x148
 1677 0437 CC000000 		.4byte	0xcc
 1678 043b 1C0C0000 		.4byte	.LLST43
 1679 043f 16       		.uleb128 0x16
 1680 0440 EC010000 		.4byte	.LASF40
 1681 0444 01       		.byte	0x1
 1682 0445 4801     		.2byte	0x148
 1683 0447 CC000000 		.4byte	0xcc
 1684 044b 480C0000 		.4byte	.LLST44
 1685 044f 16       		.uleb128 0x16
 1686 0450 9D030000 		.4byte	.LASF41
 1687 0454 01       		.byte	0x1
 1688 0455 4801     		.2byte	0x148
 1689 0457 CC000000 		.4byte	0xcc
 1690 045b 680C0000 		.4byte	.LLST45
 1691 045f 15       		.uleb128 0x15
 1692 0460 6D3000   		.ascii	"m0\000"
 1693 0463 01       		.byte	0x1
 1694 0464 4901     		.2byte	0x149
 1695 0466 CC000000 		.4byte	0xcc
 1696 046a 940C0000 		.4byte	.LLST46
 1697 046e 15       		.uleb128 0x15
 1698 046f 6D3100   		.ascii	"m1\000"
 1699 0472 01       		.byte	0x1
 1700 0473 4901     		.2byte	0x149
 1701 0475 CC000000 		.4byte	0xcc
 1702 0479 D20C0000 		.4byte	.LLST47
 1703 047d 15       		.uleb128 0x15
 1704 047e 6D3200   		.ascii	"m2\000"
 1705 0481 01       		.byte	0x1
 1706 0482 4901     		.2byte	0x149
ARM GAS  /tmp/ccOp4oY9.s 			page 31


 1707 0484 CC000000 		.4byte	0xcc
 1708 0488 3C0D0000 		.4byte	.LLST48
 1709 048c 15       		.uleb128 0x15
 1710 048d 6D3300   		.ascii	"m3\000"
 1711 0490 01       		.byte	0x1
 1712 0491 4901     		.2byte	0x149
 1713 0493 CC000000 		.4byte	0xcc
 1714 0497 8C0D0000 		.4byte	.LLST49
 1715 049b 15       		.uleb128 0x15
 1716 049c 6C00     		.ascii	"l\000"
 1717 049e 01       		.byte	0x1
 1718 049f 4A01     		.2byte	0x14a
 1719 04a1 A5000000 		.4byte	0xa5
 1720 04a5 CC0D0000 		.4byte	.LLST50
 1721 04a9 17       		.uleb128 0x17
 1722 04aa 0D030000 		.4byte	.LASF42
 1723 04ae 01       		.byte	0x1
 1724 04af 4A01     		.2byte	0x14a
 1725 04b1 A5000000 		.4byte	0xa5
 1726 04b5 02       		.byte	0x2
 1727 04b6 17       		.uleb128 0x17
 1728 04b7 6C030000 		.4byte	.LASF43
 1729 04bb 01       		.byte	0x1
 1730 04bc 4A01     		.2byte	0x14a
 1731 04be A5000000 		.4byte	0xa5
 1732 04c2 04       		.byte	0x4
 1733 04c3 17       		.uleb128 0x17
 1734 04c4 21030000 		.4byte	.LASF44
 1735 04c8 01       		.byte	0x1
 1736 04c9 4A01     		.2byte	0x14a
 1737 04cb A5000000 		.4byte	0xa5
 1738 04cf 06       		.byte	0x6
 1739 04d0 0E       		.uleb128 0xe
 1740 04d1 E2050000 		.4byte	.LVL118
 1741 04d5 58060000 		.4byte	0x658
 1742 04d9 F9040000 		.4byte	0x4f9
 1743 04dd 0F       		.uleb128 0xf
 1744 04de 01       		.uleb128 0x1
 1745 04df 53       		.byte	0x53
 1746 04e0 01       		.uleb128 0x1
 1747 04e1 34       		.byte	0x34
 1748 04e2 0F       		.uleb128 0xf
 1749 04e3 01       		.uleb128 0x1
 1750 04e4 52       		.byte	0x52
 1751 04e5 04       		.uleb128 0x4
 1752 04e6 91       		.byte	0x91
 1753 04e7 FC7E     		.sleb128 -132
 1754 04e9 06       		.byte	0x6
 1755 04ea 0F       		.uleb128 0xf
 1756 04eb 01       		.uleb128 0x1
 1757 04ec 51       		.byte	0x51
 1758 04ed 02       		.uleb128 0x2
 1759 04ee 74       		.byte	0x74
 1760 04ef 00       		.sleb128 0
 1761 04f0 0F       		.uleb128 0xf
 1762 04f1 01       		.uleb128 0x1
 1763 04f2 50       		.byte	0x50
ARM GAS  /tmp/ccOp4oY9.s 			page 32


 1764 04f3 04       		.uleb128 0x4
 1765 04f4 91       		.byte	0x91
 1766 04f5 A87F     		.sleb128 -88
 1767 04f7 06       		.byte	0x6
 1768 04f8 00       		.byte	0
 1769 04f9 0E       		.uleb128 0xe
 1770 04fa F0050000 		.4byte	.LVL120
 1771 04fe 58060000 		.4byte	0x658
 1772 0502 1A050000 		.4byte	0x51a
 1773 0506 0F       		.uleb128 0xf
 1774 0507 01       		.uleb128 0x1
 1775 0508 53       		.byte	0x53
 1776 0509 01       		.uleb128 0x1
 1777 050a 34       		.byte	0x34
 1778 050b 0F       		.uleb128 0xf
 1779 050c 01       		.uleb128 0x1
 1780 050d 51       		.byte	0x51
 1781 050e 02       		.uleb128 0x2
 1782 050f 74       		.byte	0x74
 1783 0510 00       		.sleb128 0
 1784 0511 0F       		.uleb128 0xf
 1785 0512 01       		.uleb128 0x1
 1786 0513 50       		.byte	0x50
 1787 0514 04       		.uleb128 0x4
 1788 0515 91       		.byte	0x91
 1789 0516 987F     		.sleb128 -104
 1790 0518 06       		.byte	0x6
 1791 0519 00       		.byte	0
 1792 051a 0E       		.uleb128 0xe
 1793 051b FC050000 		.4byte	.LVL121
 1794 051f 58060000 		.4byte	0x658
 1795 0523 3B050000 		.4byte	0x53b
 1796 0527 0F       		.uleb128 0xf
 1797 0528 01       		.uleb128 0x1
 1798 0529 53       		.byte	0x53
 1799 052a 01       		.uleb128 0x1
 1800 052b 34       		.byte	0x34
 1801 052c 0F       		.uleb128 0xf
 1802 052d 01       		.uleb128 0x1
 1803 052e 51       		.byte	0x51
 1804 052f 02       		.uleb128 0x2
 1805 0530 74       		.byte	0x74
 1806 0531 00       		.sleb128 0
 1807 0532 0F       		.uleb128 0xf
 1808 0533 01       		.uleb128 0x1
 1809 0534 50       		.byte	0x50
 1810 0535 04       		.uleb128 0x4
 1811 0536 91       		.byte	0x91
 1812 0537 9C7F     		.sleb128 -100
 1813 0539 06       		.byte	0x6
 1814 053a 00       		.byte	0
 1815 053b 10       		.uleb128 0x10
 1816 053c 12060000 		.4byte	.LVL124
 1817 0540 58060000 		.4byte	0x658
 1818 0544 0F       		.uleb128 0xf
 1819 0545 01       		.uleb128 0x1
 1820 0546 53       		.byte	0x53
ARM GAS  /tmp/ccOp4oY9.s 			page 33


 1821 0547 01       		.uleb128 0x1
 1822 0548 34       		.byte	0x34
 1823 0549 0F       		.uleb128 0xf
 1824 054a 01       		.uleb128 0x1
 1825 054b 51       		.byte	0x51
 1826 054c 05       		.uleb128 0x5
 1827 054d 7D       		.byte	0x7d
 1828 054e A07F     		.sleb128 -96
 1829 0550 94       		.byte	0x94
 1830 0551 02       		.byte	0x2
 1831 0552 0F       		.uleb128 0xf
 1832 0553 01       		.uleb128 0x1
 1833 0554 50       		.byte	0x50
 1834 0555 04       		.uleb128 0x4
 1835 0556 7D       		.byte	0x7d
 1836 0557 F87E     		.sleb128 -136
 1837 0559 06       		.byte	0x6
 1838 055a 00       		.byte	0
 1839 055b 00       		.byte	0
 1840 055c 13       		.uleb128 0x13
 1841 055d 14030000 		.4byte	.LASF45
 1842 0561 01       		.byte	0x1
 1843 0562 3E02     		.2byte	0x23e
 1844 0564 20060000 		.4byte	.LFB137
 1845 0568 F2000000 		.4byte	.LFE137-.LFB137
 1846 056c 01       		.uleb128 0x1
 1847 056d 9C       		.byte	0x9c
 1848 056e 4D060000 		.4byte	0x64d
 1849 0572 14       		.uleb128 0x14
 1850 0573 5300     		.ascii	"S\000"
 1851 0575 01       		.byte	0x1
 1852 0576 3F02     		.2byte	0x23f
 1853 0578 4D060000 		.4byte	0x64d
 1854 057c 060E0000 		.4byte	.LLST51
 1855 0580 14       		.uleb128 0x14
 1856 0581 703100   		.ascii	"p1\000"
 1857 0584 01       		.byte	0x1
 1858 0585 4002     		.2byte	0x240
 1859 0587 D8000000 		.4byte	0xd8
 1860 058b 5B0E0000 		.4byte	.LLST52
 1861 058f 18       		.uleb128 0x18
 1862 0590 0C000000 		.4byte	.LASF46
 1863 0594 01       		.byte	0x1
 1864 0595 4102     		.2byte	0x241
 1865 0597 8F000000 		.4byte	0x8f
 1866 059b B00E0000 		.4byte	.LLST53
 1867 059f 18       		.uleb128 0x18
 1868 05a0 3F030000 		.4byte	.LASF47
 1869 05a4 01       		.byte	0x1
 1870 05a5 4202     		.2byte	0x242
 1871 05a7 8F000000 		.4byte	0x8f
 1872 05ab F50E0000 		.4byte	.LLST54
 1873 05af 19       		.uleb128 0x19
 1874 05b0 4C00     		.ascii	"L\000"
 1875 05b2 01       		.byte	0x1
 1876 05b3 4402     		.2byte	0x244
 1877 05b5 A5000000 		.4byte	0xa5
ARM GAS  /tmp/ccOp4oY9.s 			page 34


 1878 05b9 01       		.uleb128 0x1
 1879 05ba 55       		.byte	0x55
 1880 05bb 15       		.uleb128 0x15
 1881 05bc 6C00     		.ascii	"l\000"
 1882 05be 01       		.byte	0x1
 1883 05bf 4402     		.2byte	0x244
 1884 05c1 A5000000 		.4byte	0xa5
 1885 05c5 3A0F0000 		.4byte	.LLST55
 1886 05c9 16       		.uleb128 0x16
 1887 05ca A5030000 		.4byte	.LASF48
 1888 05ce 01       		.byte	0x1
 1889 05cf 4502     		.2byte	0x245
 1890 05d1 CC000000 		.4byte	0xcc
 1891 05d5 AC0F0000 		.4byte	.LLST56
 1892 05d9 16       		.uleb128 0x16
 1893 05da 7A030000 		.4byte	.LASF49
 1894 05de 01       		.byte	0x1
 1895 05df 4502     		.2byte	0x245
 1896 05e1 D8000000 		.4byte	0xd8
 1897 05e5 C00F0000 		.4byte	.LLST57
 1898 05e9 0E       		.uleb128 0xe
 1899 05ea 5A060000 		.4byte	.LVL130
 1900 05ee 58060000 		.4byte	0x658
 1901 05f2 08060000 		.4byte	0x608
 1902 05f6 0F       		.uleb128 0xf
 1903 05f7 01       		.uleb128 0x1
 1904 05f8 53       		.byte	0x53
 1905 05f9 01       		.uleb128 0x1
 1906 05fa 31       		.byte	0x31
 1907 05fb 0F       		.uleb128 0xf
 1908 05fc 01       		.uleb128 0x1
 1909 05fd 51       		.byte	0x51
 1910 05fe 02       		.uleb128 0x2
 1911 05ff 75       		.byte	0x75
 1912 0600 00       		.sleb128 0
 1913 0601 0F       		.uleb128 0xf
 1914 0602 01       		.uleb128 0x1
 1915 0603 50       		.byte	0x50
 1916 0604 02       		.uleb128 0x2
 1917 0605 74       		.byte	0x74
 1918 0606 00       		.sleb128 0
 1919 0607 00       		.byte	0
 1920 0608 0E       		.uleb128 0xe
 1921 0609 7E060000 		.4byte	.LVL134
 1922 060d 3E010000 		.4byte	0x13e
 1923 0611 22060000 		.4byte	0x622
 1924 0615 0F       		.uleb128 0xf
 1925 0616 01       		.uleb128 0x1
 1926 0617 51       		.byte	0x51
 1927 0618 02       		.uleb128 0x2
 1928 0619 74       		.byte	0x74
 1929 061a 00       		.sleb128 0
 1930 061b 0F       		.uleb128 0xf
 1931 061c 01       		.uleb128 0x1
 1932 061d 50       		.byte	0x50
 1933 061e 02       		.uleb128 0x2
 1934 061f 76       		.byte	0x76
ARM GAS  /tmp/ccOp4oY9.s 			page 35


 1935 0620 00       		.sleb128 0
 1936 0621 00       		.byte	0
 1937 0622 0E       		.uleb128 0xe
 1938 0623 8E060000 		.4byte	.LVL135
 1939 0627 78060000 		.4byte	0x678
 1940 062b 36060000 		.4byte	0x636
 1941 062f 0F       		.uleb128 0xf
 1942 0630 01       		.uleb128 0x1
 1943 0631 50       		.byte	0x50
 1944 0632 02       		.uleb128 0x2
 1945 0633 74       		.byte	0x74
 1946 0634 00       		.sleb128 0
 1947 0635 00       		.byte	0
 1948 0636 1A       		.uleb128 0x1a
 1949 0637 DA060000 		.4byte	.LVL144
 1950 063b B4020000 		.4byte	0x2b4
 1951 063f 0F       		.uleb128 0xf
 1952 0640 01       		.uleb128 0x1
 1953 0641 51       		.byte	0x51
 1954 0642 02       		.uleb128 0x2
 1955 0643 74       		.byte	0x74
 1956 0644 00       		.sleb128 0
 1957 0645 0F       		.uleb128 0xf
 1958 0646 01       		.uleb128 0x1
 1959 0647 50       		.byte	0x50
 1960 0648 02       		.uleb128 0x2
 1961 0649 76       		.byte	0x76
 1962 064a 00       		.sleb128 0
 1963 064b 00       		.byte	0
 1964 064c 00       		.byte	0
 1965 064d 06       		.uleb128 0x6
 1966 064e 04       		.byte	0x4
 1967 064f 53060000 		.4byte	0x653
 1968 0653 07       		.uleb128 0x7
 1969 0654 32010000 		.4byte	0x132
 1970 0658 1B       		.uleb128 0x1b
 1971 0659 8A000000 		.4byte	.LASF50
 1972 065d 01       		.byte	0x1
 1973 065e 2C       		.byte	0x2c
 1974 065f 78060000 		.4byte	0x678
 1975 0663 1C       		.uleb128 0x1c
 1976 0664 D8000000 		.4byte	0xd8
 1977 0668 1C       		.uleb128 0x1c
 1978 0669 9A000000 		.4byte	0x9a
 1979 066d 1C       		.uleb128 0x1c
 1980 066e 27010000 		.4byte	0x127
 1981 0672 1C       		.uleb128 0x1c
 1982 0673 9A000000 		.4byte	0x9a
 1983 0677 00       		.byte	0
 1984 0678 1B       		.uleb128 0x1b
 1985 0679 15000000 		.4byte	.LASF51
 1986 067d 01       		.byte	0x1
 1987 067e 32       		.byte	0x32
 1988 067f 93060000 		.4byte	0x693
 1989 0683 1C       		.uleb128 0x1c
 1990 0684 93060000 		.4byte	0x693
 1991 0688 1C       		.uleb128 0x1c
ARM GAS  /tmp/ccOp4oY9.s 			page 36


 1992 0689 E4000000 		.4byte	0xe4
 1993 068d 1C       		.uleb128 0x1c
 1994 068e DE000000 		.4byte	0xde
 1995 0692 00       		.byte	0
 1996 0693 06       		.uleb128 0x6
 1997 0694 04       		.byte	0x4
 1998 0695 A5000000 		.4byte	0xa5
 1999 0699 00       		.byte	0
 2000              		.section	.debug_abbrev,"",%progbits
 2001              	.Ldebug_abbrev0:
 2002 0000 01       		.uleb128 0x1
 2003 0001 11       		.uleb128 0x11
 2004 0002 01       		.byte	0x1
 2005 0003 25       		.uleb128 0x25
 2006 0004 0E       		.uleb128 0xe
 2007 0005 13       		.uleb128 0x13
 2008 0006 0B       		.uleb128 0xb
 2009 0007 03       		.uleb128 0x3
 2010 0008 0E       		.uleb128 0xe
 2011 0009 11       		.uleb128 0x11
 2012 000a 01       		.uleb128 0x1
 2013 000b 12       		.uleb128 0x12
 2014 000c 06       		.uleb128 0x6
 2015 000d 10       		.uleb128 0x10
 2016 000e 17       		.uleb128 0x17
 2017 000f 00       		.byte	0
 2018 0010 00       		.byte	0
 2019 0011 02       		.uleb128 0x2
 2020 0012 24       		.uleb128 0x24
 2021 0013 00       		.byte	0
 2022 0014 0B       		.uleb128 0xb
 2023 0015 0B       		.uleb128 0xb
 2024 0016 3E       		.uleb128 0x3e
 2025 0017 0B       		.uleb128 0xb
 2026 0018 03       		.uleb128 0x3
 2027 0019 0E       		.uleb128 0xe
 2028 001a 00       		.byte	0
 2029 001b 00       		.byte	0
 2030 001c 03       		.uleb128 0x3
 2031 001d 16       		.uleb128 0x16
 2032 001e 00       		.byte	0
 2033 001f 03       		.uleb128 0x3
 2034 0020 0E       		.uleb128 0xe
 2035 0021 3A       		.uleb128 0x3a
 2036 0022 0B       		.uleb128 0xb
 2037 0023 3B       		.uleb128 0x3b
 2038 0024 0B       		.uleb128 0xb
 2039 0025 49       		.uleb128 0x49
 2040 0026 13       		.uleb128 0x13
 2041 0027 00       		.byte	0
 2042 0028 00       		.byte	0
 2043 0029 04       		.uleb128 0x4
 2044 002a 24       		.uleb128 0x24
 2045 002b 00       		.byte	0
 2046 002c 0B       		.uleb128 0xb
 2047 002d 0B       		.uleb128 0xb
 2048 002e 3E       		.uleb128 0x3e
ARM GAS  /tmp/ccOp4oY9.s 			page 37


 2049 002f 0B       		.uleb128 0xb
 2050 0030 03       		.uleb128 0x3
 2051 0031 08       		.uleb128 0x8
 2052 0032 00       		.byte	0
 2053 0033 00       		.byte	0
 2054 0034 05       		.uleb128 0x5
 2055 0035 16       		.uleb128 0x16
 2056 0036 00       		.byte	0
 2057 0037 03       		.uleb128 0x3
 2058 0038 0E       		.uleb128 0xe
 2059 0039 3A       		.uleb128 0x3a
 2060 003a 0B       		.uleb128 0xb
 2061 003b 3B       		.uleb128 0x3b
 2062 003c 05       		.uleb128 0x5
 2063 003d 49       		.uleb128 0x49
 2064 003e 13       		.uleb128 0x13
 2065 003f 00       		.byte	0
 2066 0040 00       		.byte	0
 2067 0041 06       		.uleb128 0x6
 2068 0042 0F       		.uleb128 0xf
 2069 0043 00       		.byte	0
 2070 0044 0B       		.uleb128 0xb
 2071 0045 0B       		.uleb128 0xb
 2072 0046 49       		.uleb128 0x49
 2073 0047 13       		.uleb128 0x13
 2074 0048 00       		.byte	0
 2075 0049 00       		.byte	0
 2076 004a 07       		.uleb128 0x7
 2077 004b 26       		.uleb128 0x26
 2078 004c 00       		.byte	0
 2079 004d 49       		.uleb128 0x49
 2080 004e 13       		.uleb128 0x13
 2081 004f 00       		.byte	0
 2082 0050 00       		.byte	0
 2083 0051 08       		.uleb128 0x8
 2084 0052 13       		.uleb128 0x13
 2085 0053 01       		.byte	0x1
 2086 0054 0B       		.uleb128 0xb
 2087 0055 0B       		.uleb128 0xb
 2088 0056 3A       		.uleb128 0x3a
 2089 0057 0B       		.uleb128 0xb
 2090 0058 3B       		.uleb128 0x3b
 2091 0059 05       		.uleb128 0x5
 2092 005a 01       		.uleb128 0x1
 2093 005b 13       		.uleb128 0x13
 2094 005c 00       		.byte	0
 2095 005d 00       		.byte	0
 2096 005e 09       		.uleb128 0x9
 2097 005f 0D       		.uleb128 0xd
 2098 0060 00       		.byte	0
 2099 0061 03       		.uleb128 0x3
 2100 0062 0E       		.uleb128 0xe
 2101 0063 3A       		.uleb128 0x3a
 2102 0064 0B       		.uleb128 0xb
 2103 0065 3B       		.uleb128 0x3b
 2104 0066 05       		.uleb128 0x5
 2105 0067 49       		.uleb128 0x49
ARM GAS  /tmp/ccOp4oY9.s 			page 38


 2106 0068 13       		.uleb128 0x13
 2107 0069 38       		.uleb128 0x38
 2108 006a 0B       		.uleb128 0xb
 2109 006b 00       		.byte	0
 2110 006c 00       		.byte	0
 2111 006d 0A       		.uleb128 0xa
 2112 006e 2E       		.uleb128 0x2e
 2113 006f 01       		.byte	0x1
 2114 0070 3F       		.uleb128 0x3f
 2115 0071 19       		.uleb128 0x19
 2116 0072 03       		.uleb128 0x3
 2117 0073 0E       		.uleb128 0xe
 2118 0074 3A       		.uleb128 0x3a
 2119 0075 0B       		.uleb128 0xb
 2120 0076 3B       		.uleb128 0x3b
 2121 0077 0B       		.uleb128 0xb
 2122 0078 27       		.uleb128 0x27
 2123 0079 19       		.uleb128 0x19
 2124 007a 11       		.uleb128 0x11
 2125 007b 01       		.uleb128 0x1
 2126 007c 12       		.uleb128 0x12
 2127 007d 06       		.uleb128 0x6
 2128 007e 40       		.uleb128 0x40
 2129 007f 18       		.uleb128 0x18
 2130 0080 9742     		.uleb128 0x2117
 2131 0082 19       		.uleb128 0x19
 2132 0083 01       		.uleb128 0x1
 2133 0084 13       		.uleb128 0x13
 2134 0085 00       		.byte	0
 2135 0086 00       		.byte	0
 2136 0087 0B       		.uleb128 0xb
 2137 0088 05       		.uleb128 0x5
 2138 0089 00       		.byte	0
 2139 008a 03       		.uleb128 0x3
 2140 008b 08       		.uleb128 0x8
 2141 008c 3A       		.uleb128 0x3a
 2142 008d 0B       		.uleb128 0xb
 2143 008e 3B       		.uleb128 0x3b
 2144 008f 0B       		.uleb128 0xb
 2145 0090 49       		.uleb128 0x49
 2146 0091 13       		.uleb128 0x13
 2147 0092 02       		.uleb128 0x2
 2148 0093 17       		.uleb128 0x17
 2149 0094 00       		.byte	0
 2150 0095 00       		.byte	0
 2151 0096 0C       		.uleb128 0xc
 2152 0097 34       		.uleb128 0x34
 2153 0098 00       		.byte	0
 2154 0099 03       		.uleb128 0x3
 2155 009a 08       		.uleb128 0x8
 2156 009b 3A       		.uleb128 0x3a
 2157 009c 0B       		.uleb128 0xb
 2158 009d 3B       		.uleb128 0x3b
 2159 009e 0B       		.uleb128 0xb
 2160 009f 49       		.uleb128 0x49
 2161 00a0 13       		.uleb128 0x13
 2162 00a1 02       		.uleb128 0x2
ARM GAS  /tmp/ccOp4oY9.s 			page 39


 2163 00a2 17       		.uleb128 0x17
 2164 00a3 00       		.byte	0
 2165 00a4 00       		.byte	0
 2166 00a5 0D       		.uleb128 0xd
 2167 00a6 34       		.uleb128 0x34
 2168 00a7 00       		.byte	0
 2169 00a8 03       		.uleb128 0x3
 2170 00a9 0E       		.uleb128 0xe
 2171 00aa 3A       		.uleb128 0x3a
 2172 00ab 0B       		.uleb128 0xb
 2173 00ac 3B       		.uleb128 0x3b
 2174 00ad 0B       		.uleb128 0xb
 2175 00ae 49       		.uleb128 0x49
 2176 00af 13       		.uleb128 0x13
 2177 00b0 02       		.uleb128 0x2
 2178 00b1 17       		.uleb128 0x17
 2179 00b2 00       		.byte	0
 2180 00b3 00       		.byte	0
 2181 00b4 0E       		.uleb128 0xe
 2182 00b5 898201   		.uleb128 0x4109
 2183 00b8 01       		.byte	0x1
 2184 00b9 11       		.uleb128 0x11
 2185 00ba 01       		.uleb128 0x1
 2186 00bb 31       		.uleb128 0x31
 2187 00bc 13       		.uleb128 0x13
 2188 00bd 01       		.uleb128 0x1
 2189 00be 13       		.uleb128 0x13
 2190 00bf 00       		.byte	0
 2191 00c0 00       		.byte	0
 2192 00c1 0F       		.uleb128 0xf
 2193 00c2 8A8201   		.uleb128 0x410a
 2194 00c5 00       		.byte	0
 2195 00c6 02       		.uleb128 0x2
 2196 00c7 18       		.uleb128 0x18
 2197 00c8 9142     		.uleb128 0x2111
 2198 00ca 18       		.uleb128 0x18
 2199 00cb 00       		.byte	0
 2200 00cc 00       		.byte	0
 2201 00cd 10       		.uleb128 0x10
 2202 00ce 898201   		.uleb128 0x4109
 2203 00d1 01       		.byte	0x1
 2204 00d2 11       		.uleb128 0x11
 2205 00d3 01       		.uleb128 0x1
 2206 00d4 9542     		.uleb128 0x2115
 2207 00d6 19       		.uleb128 0x19
 2208 00d7 31       		.uleb128 0x31
 2209 00d8 13       		.uleb128 0x13
 2210 00d9 00       		.byte	0
 2211 00da 00       		.byte	0
 2212 00db 11       		.uleb128 0x11
 2213 00dc 01       		.uleb128 0x1
 2214 00dd 01       		.byte	0x1
 2215 00de 49       		.uleb128 0x49
 2216 00df 13       		.uleb128 0x13
 2217 00e0 01       		.uleb128 0x1
 2218 00e1 13       		.uleb128 0x13
 2219 00e2 00       		.byte	0
ARM GAS  /tmp/ccOp4oY9.s 			page 40


 2220 00e3 00       		.byte	0
 2221 00e4 12       		.uleb128 0x12
 2222 00e5 21       		.uleb128 0x21
 2223 00e6 00       		.byte	0
 2224 00e7 49       		.uleb128 0x49
 2225 00e8 13       		.uleb128 0x13
 2226 00e9 2F       		.uleb128 0x2f
 2227 00ea 0B       		.uleb128 0xb
 2228 00eb 00       		.byte	0
 2229 00ec 00       		.byte	0
 2230 00ed 13       		.uleb128 0x13
 2231 00ee 2E       		.uleb128 0x2e
 2232 00ef 01       		.byte	0x1
 2233 00f0 3F       		.uleb128 0x3f
 2234 00f1 19       		.uleb128 0x19
 2235 00f2 03       		.uleb128 0x3
 2236 00f3 0E       		.uleb128 0xe
 2237 00f4 3A       		.uleb128 0x3a
 2238 00f5 0B       		.uleb128 0xb
 2239 00f6 3B       		.uleb128 0x3b
 2240 00f7 05       		.uleb128 0x5
 2241 00f8 27       		.uleb128 0x27
 2242 00f9 19       		.uleb128 0x19
 2243 00fa 11       		.uleb128 0x11
 2244 00fb 01       		.uleb128 0x1
 2245 00fc 12       		.uleb128 0x12
 2246 00fd 06       		.uleb128 0x6
 2247 00fe 40       		.uleb128 0x40
 2248 00ff 18       		.uleb128 0x18
 2249 0100 9742     		.uleb128 0x2117
 2250 0102 19       		.uleb128 0x19
 2251 0103 01       		.uleb128 0x1
 2252 0104 13       		.uleb128 0x13
 2253 0105 00       		.byte	0
 2254 0106 00       		.byte	0
 2255 0107 14       		.uleb128 0x14
 2256 0108 05       		.uleb128 0x5
 2257 0109 00       		.byte	0
 2258 010a 03       		.uleb128 0x3
 2259 010b 08       		.uleb128 0x8
 2260 010c 3A       		.uleb128 0x3a
 2261 010d 0B       		.uleb128 0xb
 2262 010e 3B       		.uleb128 0x3b
 2263 010f 05       		.uleb128 0x5
 2264 0110 49       		.uleb128 0x49
 2265 0111 13       		.uleb128 0x13
 2266 0112 02       		.uleb128 0x2
 2267 0113 17       		.uleb128 0x17
 2268 0114 00       		.byte	0
 2269 0115 00       		.byte	0
 2270 0116 15       		.uleb128 0x15
 2271 0117 34       		.uleb128 0x34
 2272 0118 00       		.byte	0
 2273 0119 03       		.uleb128 0x3
 2274 011a 08       		.uleb128 0x8
 2275 011b 3A       		.uleb128 0x3a
 2276 011c 0B       		.uleb128 0xb
ARM GAS  /tmp/ccOp4oY9.s 			page 41


 2277 011d 3B       		.uleb128 0x3b
 2278 011e 05       		.uleb128 0x5
 2279 011f 49       		.uleb128 0x49
 2280 0120 13       		.uleb128 0x13
 2281 0121 02       		.uleb128 0x2
 2282 0122 17       		.uleb128 0x17
 2283 0123 00       		.byte	0
 2284 0124 00       		.byte	0
 2285 0125 16       		.uleb128 0x16
 2286 0126 34       		.uleb128 0x34
 2287 0127 00       		.byte	0
 2288 0128 03       		.uleb128 0x3
 2289 0129 0E       		.uleb128 0xe
 2290 012a 3A       		.uleb128 0x3a
 2291 012b 0B       		.uleb128 0xb
 2292 012c 3B       		.uleb128 0x3b
 2293 012d 05       		.uleb128 0x5
 2294 012e 49       		.uleb128 0x49
 2295 012f 13       		.uleb128 0x13
 2296 0130 02       		.uleb128 0x2
 2297 0131 17       		.uleb128 0x17
 2298 0132 00       		.byte	0
 2299 0133 00       		.byte	0
 2300 0134 17       		.uleb128 0x17
 2301 0135 34       		.uleb128 0x34
 2302 0136 00       		.byte	0
 2303 0137 03       		.uleb128 0x3
 2304 0138 0E       		.uleb128 0xe
 2305 0139 3A       		.uleb128 0x3a
 2306 013a 0B       		.uleb128 0xb
 2307 013b 3B       		.uleb128 0x3b
 2308 013c 05       		.uleb128 0x5
 2309 013d 49       		.uleb128 0x49
 2310 013e 13       		.uleb128 0x13
 2311 013f 1C       		.uleb128 0x1c
 2312 0140 0B       		.uleb128 0xb
 2313 0141 00       		.byte	0
 2314 0142 00       		.byte	0
 2315 0143 18       		.uleb128 0x18
 2316 0144 05       		.uleb128 0x5
 2317 0145 00       		.byte	0
 2318 0146 03       		.uleb128 0x3
 2319 0147 0E       		.uleb128 0xe
 2320 0148 3A       		.uleb128 0x3a
 2321 0149 0B       		.uleb128 0xb
 2322 014a 3B       		.uleb128 0x3b
 2323 014b 05       		.uleb128 0x5
 2324 014c 49       		.uleb128 0x49
 2325 014d 13       		.uleb128 0x13
 2326 014e 02       		.uleb128 0x2
 2327 014f 17       		.uleb128 0x17
 2328 0150 00       		.byte	0
 2329 0151 00       		.byte	0
 2330 0152 19       		.uleb128 0x19
 2331 0153 34       		.uleb128 0x34
 2332 0154 00       		.byte	0
 2333 0155 03       		.uleb128 0x3
ARM GAS  /tmp/ccOp4oY9.s 			page 42


 2334 0156 08       		.uleb128 0x8
 2335 0157 3A       		.uleb128 0x3a
 2336 0158 0B       		.uleb128 0xb
 2337 0159 3B       		.uleb128 0x3b
 2338 015a 05       		.uleb128 0x5
 2339 015b 49       		.uleb128 0x49
 2340 015c 13       		.uleb128 0x13
 2341 015d 02       		.uleb128 0x2
 2342 015e 18       		.uleb128 0x18
 2343 015f 00       		.byte	0
 2344 0160 00       		.byte	0
 2345 0161 1A       		.uleb128 0x1a
 2346 0162 898201   		.uleb128 0x4109
 2347 0165 01       		.byte	0x1
 2348 0166 11       		.uleb128 0x11
 2349 0167 01       		.uleb128 0x1
 2350 0168 31       		.uleb128 0x31
 2351 0169 13       		.uleb128 0x13
 2352 016a 00       		.byte	0
 2353 016b 00       		.byte	0
 2354 016c 1B       		.uleb128 0x1b
 2355 016d 2E       		.uleb128 0x2e
 2356 016e 01       		.byte	0x1
 2357 016f 3F       		.uleb128 0x3f
 2358 0170 19       		.uleb128 0x19
 2359 0171 03       		.uleb128 0x3
 2360 0172 0E       		.uleb128 0xe
 2361 0173 3A       		.uleb128 0x3a
 2362 0174 0B       		.uleb128 0xb
 2363 0175 3B       		.uleb128 0x3b
 2364 0176 0B       		.uleb128 0xb
 2365 0177 27       		.uleb128 0x27
 2366 0178 19       		.uleb128 0x19
 2367 0179 3C       		.uleb128 0x3c
 2368 017a 19       		.uleb128 0x19
 2369 017b 01       		.uleb128 0x1
 2370 017c 13       		.uleb128 0x13
 2371 017d 00       		.byte	0
 2372 017e 00       		.byte	0
 2373 017f 1C       		.uleb128 0x1c
 2374 0180 05       		.uleb128 0x5
 2375 0181 00       		.byte	0
 2376 0182 49       		.uleb128 0x49
 2377 0183 13       		.uleb128 0x13
 2378 0184 00       		.byte	0
 2379 0185 00       		.byte	0
 2380 0186 00       		.byte	0
 2381              		.section	.debug_loc,"",%progbits
 2382              	.Ldebug_loc0:
 2383              	.LLST0:
 2384 0000 00000000 		.4byte	.LVL0-.Ltext0
 2385 0004 14000000 		.4byte	.LVL3-.Ltext0
 2386 0008 0100     		.2byte	0x1
 2387 000a 50       		.byte	0x50
 2388 000b 14000000 		.4byte	.LVL3-.Ltext0
 2389 000f 80010000 		.4byte	.LVL37-.Ltext0
 2390 0013 0100     		.2byte	0x1
ARM GAS  /tmp/ccOp4oY9.s 			page 43


 2391 0015 58       		.byte	0x58
 2392 0016 80010000 		.4byte	.LVL37-.Ltext0
 2393 001a 84010000 		.4byte	.LFE135-.Ltext0
 2394 001e 0400     		.2byte	0x4
 2395 0020 F3       		.byte	0xf3
 2396 0021 01       		.uleb128 0x1
 2397 0022 50       		.byte	0x50
 2398 0023 9F       		.byte	0x9f
 2399 0024 00000000 		.4byte	0
 2400 0028 00000000 		.4byte	0
 2401              	.LLST1:
 2402 002c 00000000 		.4byte	.LVL0-.Ltext0
 2403 0030 36000000 		.4byte	.LVL7-.Ltext0
 2404 0034 0100     		.2byte	0x1
 2405 0036 51       		.byte	0x51
 2406 0037 36000000 		.4byte	.LVL7-.Ltext0
 2407 003b 76000000 		.4byte	.LVL11-.Ltext0
 2408 003f 0300     		.2byte	0x3
 2409 0041 75       		.byte	0x75
 2410 0042 70       		.sleb128 -16
 2411 0043 9F       		.byte	0x9f
 2412 0044 76000000 		.4byte	.LVL11-.Ltext0
 2413 0048 9A000000 		.4byte	.LVL12-.Ltext0
 2414 004c 0300     		.2byte	0x3
 2415 004e 75       		.byte	0x75
 2416 004f 74       		.sleb128 -12
 2417 0050 9F       		.byte	0x9f
 2418 0051 9A000000 		.4byte	.LVL12-.Ltext0
 2419 0055 9E000000 		.4byte	.LVL13-.Ltext0
 2420 0059 0300     		.2byte	0x3
 2421 005b 75       		.byte	0x75
 2422 005c 78       		.sleb128 -8
 2423 005d 9F       		.byte	0x9f
 2424 005e 9E000000 		.4byte	.LVL13-.Ltext0
 2425 0062 A2000000 		.4byte	.LVL14-.Ltext0
 2426 0066 0300     		.2byte	0x3
 2427 0068 75       		.byte	0x75
 2428 0069 7C       		.sleb128 -4
 2429 006a 9F       		.byte	0x9f
 2430 006b A2000000 		.4byte	.LVL14-.Ltext0
 2431 006f EA000000 		.4byte	.LVL22-.Ltext0
 2432 0073 0100     		.2byte	0x1
 2433 0075 55       		.byte	0x55
 2434 0076 EA000000 		.4byte	.LVL22-.Ltext0
 2435 007a 62010000 		.4byte	.LVL33-.Ltext0
 2436 007e 0300     		.2byte	0x3
 2437 0080 75       		.byte	0x75
 2438 0081 70       		.sleb128 -16
 2439 0082 9F       		.byte	0x9f
 2440 0083 00000000 		.4byte	0
 2441 0087 00000000 		.4byte	0
 2442              	.LLST2:
 2443 008b 08000000 		.4byte	.LVL1-.Ltext0
 2444 008f 14000000 		.4byte	.LVL3-.Ltext0
 2445 0093 0100     		.2byte	0x1
 2446 0095 5E       		.byte	0x5e
 2447 0096 14000000 		.4byte	.LVL3-.Ltext0
ARM GAS  /tmp/ccOp4oY9.s 			page 44


 2448 009a 68010000 		.4byte	.LVL34-.Ltext0
 2449 009e 0100     		.2byte	0x1
 2450 00a0 50       		.byte	0x50
 2451 00a1 68010000 		.4byte	.LVL34-.Ltext0
 2452 00a5 6D010000 		.4byte	.LVL36-1-.Ltext0
 2453 00a9 0B00     		.2byte	0xb
 2454 00ab 78       		.byte	0x78
 2455 00ac 00       		.sleb128 0
 2456 00ad 94       		.byte	0x94
 2457 00ae 02       		.byte	0x2
 2458 00af 0A       		.byte	0xa
 2459 00b0 FFFF     		.2byte	0xffff
 2460 00b2 1A       		.byte	0x1a
 2461 00b3 31       		.byte	0x31
 2462 00b4 25       		.byte	0x25
 2463 00b5 9F       		.byte	0x9f
 2464 00b6 00000000 		.4byte	0
 2465 00ba 00000000 		.4byte	0
 2466              	.LLST3:
 2467 00be 10000000 		.4byte	.LVL2-.Ltext0
 2468 00c2 6A010000 		.4byte	.LVL35-.Ltext0
 2469 00c6 0100     		.2byte	0x1
 2470 00c8 51       		.byte	0x51
 2471 00c9 6A010000 		.4byte	.LVL35-.Ltext0
 2472 00cd 6D010000 		.4byte	.LVL36-1-.Ltext0
 2473 00d1 0100     		.2byte	0x1
 2474 00d3 50       		.byte	0x50
 2475 00d4 6D010000 		.4byte	.LVL36-1-.Ltext0
 2476 00d8 84010000 		.4byte	.LFE135-.Ltext0
 2477 00dc 0400     		.2byte	0x4
 2478 00de F3       		.byte	0xf3
 2479 00df 01       		.uleb128 0x1
 2480 00e0 51       		.byte	0x51
 2481 00e1 9F       		.byte	0x9f
 2482 00e2 00000000 		.4byte	0
 2483 00e6 00000000 		.4byte	0
 2484              	.LLST4:
 2485 00ea 10000000 		.4byte	.LVL2-.Ltext0
 2486 00ee 80010000 		.4byte	.LVL37-.Ltext0
 2487 00f2 0100     		.2byte	0x1
 2488 00f4 59       		.byte	0x59
 2489 00f5 80010000 		.4byte	.LVL37-.Ltext0
 2490 00f9 83010000 		.4byte	.LVL38-1-.Ltext0
 2491 00fd 0100     		.2byte	0x1
 2492 00ff 50       		.byte	0x50
 2493 0100 00000000 		.4byte	0
 2494 0104 00000000 		.4byte	0
 2495              	.LLST5:
 2496 0108 20000000 		.4byte	.LVL4-.Ltext0
 2497 010c 26000000 		.4byte	.LVL5-.Ltext0
 2498 0110 0600     		.2byte	0x6
 2499 0112 71       		.byte	0x71
 2500 0113 00       		.sleb128 0
 2501 0114 73       		.byte	0x73
 2502 0115 00       		.sleb128 0
 2503 0116 22       		.byte	0x22
 2504 0117 9F       		.byte	0x9f
ARM GAS  /tmp/ccOp4oY9.s 			page 45


 2505 0118 26000000 		.4byte	.LVL5-.Ltext0
 2506 011c 2E000000 		.4byte	.LVL6-.Ltext0
 2507 0120 0800     		.2byte	0x8
 2508 0122 71       		.byte	0x71
 2509 0123 00       		.sleb128 0
 2510 0124 73       		.byte	0x73
 2511 0125 00       		.sleb128 0
 2512 0126 22       		.byte	0x22
 2513 0127 40       		.byte	0x40
 2514 0128 1C       		.byte	0x1c
 2515 0129 9F       		.byte	0x9f
 2516 012a 2E000000 		.4byte	.LVL6-.Ltext0
 2517 012e 36000000 		.4byte	.LVL7-.Ltext0
 2518 0132 0800     		.2byte	0x8
 2519 0134 70       		.byte	0x70
 2520 0135 00       		.sleb128 0
 2521 0136 32       		.byte	0x32
 2522 0137 24       		.byte	0x24
 2523 0138 71       		.byte	0x71
 2524 0139 00       		.sleb128 0
 2525 013a 22       		.byte	0x22
 2526 013b 9F       		.byte	0x9f
 2527 013c 00000000 		.4byte	0
 2528 0140 00000000 		.4byte	0
 2529              	.LLST6:
 2530 0144 20000000 		.4byte	.LVL4-.Ltext0
 2531 0148 26000000 		.4byte	.LVL5-.Ltext0
 2532 014c 0600     		.2byte	0x6
 2533 014e 79       		.byte	0x79
 2534 014f 00       		.sleb128 0
 2535 0150 73       		.byte	0x73
 2536 0151 00       		.sleb128 0
 2537 0152 22       		.byte	0x22
 2538 0153 9F       		.byte	0x9f
 2539 0154 26000000 		.4byte	.LVL5-.Ltext0
 2540 0158 2E000000 		.4byte	.LVL6-.Ltext0
 2541 015c 0800     		.2byte	0x8
 2542 015e 79       		.byte	0x79
 2543 015f 00       		.sleb128 0
 2544 0160 73       		.byte	0x73
 2545 0161 00       		.sleb128 0
 2546 0162 22       		.byte	0x22
 2547 0163 40       		.byte	0x40
 2548 0164 1C       		.byte	0x1c
 2549 0165 9F       		.byte	0x9f
 2550 0166 2E000000 		.4byte	.LVL6-.Ltext0
 2551 016a 36000000 		.4byte	.LVL7-.Ltext0
 2552 016e 0800     		.2byte	0x8
 2553 0170 70       		.byte	0x70
 2554 0171 00       		.sleb128 0
 2555 0172 32       		.byte	0x32
 2556 0173 24       		.byte	0x24
 2557 0174 79       		.byte	0x79
 2558 0175 00       		.sleb128 0
 2559 0176 22       		.byte	0x22
 2560 0177 9F       		.byte	0x9f
 2561 0178 00000000 		.4byte	0
ARM GAS  /tmp/ccOp4oY9.s 			page 46


 2562 017c 00000000 		.4byte	0
 2563              	.LLST7:
 2564 0180 20000000 		.4byte	.LVL4-.Ltext0
 2565 0184 36000000 		.4byte	.LVL7-.Ltext0
 2566 0188 0100     		.2byte	0x1
 2567 018a 59       		.byte	0x59
 2568 018b 00000000 		.4byte	0
 2569 018f 00000000 		.4byte	0
 2570              	.LLST8:
 2571 0193 20000000 		.4byte	.LVL4-.Ltext0
 2572 0197 36000000 		.4byte	.LVL7-.Ltext0
 2573 019b 0100     		.2byte	0x1
 2574 019d 52       		.byte	0x52
 2575 019e 00000000 		.4byte	0
 2576 01a2 00000000 		.4byte	0
 2577              	.LLST9:
 2578 01a6 5E000000 		.4byte	.LVL8-.Ltext0
 2579 01aa 6E000000 		.4byte	.LVL9-.Ltext0
 2580 01ae 0600     		.2byte	0x6
 2581 01b0 90       		.byte	0x90
 2582 01b1 49       		.uleb128 0x49
 2583 01b2 93       		.byte	0x93
 2584 01b3 04       		.uleb128 0x4
 2585 01b4 93       		.byte	0x93
 2586 01b5 0C       		.uleb128 0xc
 2587 01b6 6E000000 		.4byte	.LVL9-.Ltext0
 2588 01ba 72000000 		.4byte	.LVL10-.Ltext0
 2589 01be 0A00     		.2byte	0xa
 2590 01c0 90       		.byte	0x90
 2591 01c1 49       		.uleb128 0x49
 2592 01c2 93       		.byte	0x93
 2593 01c3 04       		.uleb128 0x4
 2594 01c4 90       		.byte	0x90
 2595 01c5 48       		.uleb128 0x48
 2596 01c6 93       		.byte	0x93
 2597 01c7 04       		.uleb128 0x4
 2598 01c8 93       		.byte	0x93
 2599 01c9 08       		.uleb128 0x8
 2600 01ca 72000000 		.4byte	.LVL10-.Ltext0
 2601 01ce 76000000 		.4byte	.LVL11-.Ltext0
 2602 01d2 0E00     		.2byte	0xe
 2603 01d4 90       		.byte	0x90
 2604 01d5 49       		.uleb128 0x49
 2605 01d6 93       		.byte	0x93
 2606 01d7 04       		.uleb128 0x4
 2607 01d8 90       		.byte	0x90
 2608 01d9 48       		.uleb128 0x48
 2609 01da 93       		.byte	0x93
 2610 01db 04       		.uleb128 0x4
 2611 01dc 90       		.byte	0x90
 2612 01dd 4D       		.uleb128 0x4d
 2613 01de 93       		.byte	0x93
 2614 01df 04       		.uleb128 0x4
 2615 01e0 93       		.byte	0x93
 2616 01e1 04       		.uleb128 0x4
 2617 01e2 76000000 		.4byte	.LVL11-.Ltext0
 2618 01e6 BA000000 		.4byte	.LVL15-.Ltext0
ARM GAS  /tmp/ccOp4oY9.s 			page 47


 2619 01ea 1000     		.2byte	0x10
 2620 01ec 90       		.byte	0x90
 2621 01ed 49       		.uleb128 0x49
 2622 01ee 93       		.byte	0x93
 2623 01ef 04       		.uleb128 0x4
 2624 01f0 90       		.byte	0x90
 2625 01f1 48       		.uleb128 0x48
 2626 01f2 93       		.byte	0x93
 2627 01f3 04       		.uleb128 0x4
 2628 01f4 90       		.byte	0x90
 2629 01f5 4D       		.uleb128 0x4d
 2630 01f6 93       		.byte	0x93
 2631 01f7 04       		.uleb128 0x4
 2632 01f8 90       		.byte	0x90
 2633 01f9 4C       		.uleb128 0x4c
 2634 01fa 93       		.byte	0x93
 2635 01fb 04       		.uleb128 0x4
 2636 01fc BA000000 		.4byte	.LVL15-.Ltext0
 2637 0200 BE000000 		.4byte	.LVL16-.Ltext0
 2638 0204 0E00     		.2byte	0xe
 2639 0206 93       		.byte	0x93
 2640 0207 04       		.uleb128 0x4
 2641 0208 90       		.byte	0x90
 2642 0209 48       		.uleb128 0x48
 2643 020a 93       		.byte	0x93
 2644 020b 04       		.uleb128 0x4
 2645 020c 90       		.byte	0x90
 2646 020d 4D       		.uleb128 0x4d
 2647 020e 93       		.byte	0x93
 2648 020f 04       		.uleb128 0x4
 2649 0210 90       		.byte	0x90
 2650 0211 4C       		.uleb128 0x4c
 2651 0212 93       		.byte	0x93
 2652 0213 04       		.uleb128 0x4
 2653 0214 BE000000 		.4byte	.LVL16-.Ltext0
 2654 0218 22010000 		.4byte	.LVL23-.Ltext0
 2655 021c 0A00     		.2byte	0xa
 2656 021e 93       		.byte	0x93
 2657 021f 08       		.uleb128 0x8
 2658 0220 90       		.byte	0x90
 2659 0221 4D       		.uleb128 0x4d
 2660 0222 93       		.byte	0x93
 2661 0223 04       		.uleb128 0x4
 2662 0224 90       		.byte	0x90
 2663 0225 4C       		.uleb128 0x4c
 2664 0226 93       		.byte	0x93
 2665 0227 04       		.uleb128 0x4
 2666 0228 22010000 		.4byte	.LVL23-.Ltext0
 2667 022c 26010000 		.4byte	.LVL24-.Ltext0
 2668 0230 0600     		.2byte	0x6
 2669 0232 93       		.byte	0x93
 2670 0233 0C       		.uleb128 0xc
 2671 0234 90       		.byte	0x90
 2672 0235 4C       		.uleb128 0x4c
 2673 0236 93       		.byte	0x93
 2674 0237 04       		.uleb128 0x4
 2675 0238 00000000 		.4byte	0
ARM GAS  /tmp/ccOp4oY9.s 			page 48


 2676 023c 00000000 		.4byte	0
 2677              	.LLST10:
 2678 0240 76000000 		.4byte	.LVL11-.Ltext0
 2679 0244 BA000000 		.4byte	.LVL15-.Ltext0
 2680 0248 1000     		.2byte	0x10
 2681 024a 90       		.byte	0x90
 2682 024b 44       		.uleb128 0x44
 2683 024c 93       		.byte	0x93
 2684 024d 04       		.uleb128 0x4
 2685 024e 90       		.byte	0x90
 2686 024f 45       		.uleb128 0x45
 2687 0250 93       		.byte	0x93
 2688 0251 04       		.uleb128 0x4
 2689 0252 90       		.byte	0x90
 2690 0253 51       		.uleb128 0x51
 2691 0254 93       		.byte	0x93
 2692 0255 04       		.uleb128 0x4
 2693 0256 90       		.byte	0x90
 2694 0257 50       		.uleb128 0x50
 2695 0258 93       		.byte	0x93
 2696 0259 04       		.uleb128 0x4
 2697 025a BA000000 		.4byte	.LVL15-.Ltext0
 2698 025e BE000000 		.4byte	.LVL16-.Ltext0
 2699 0262 1000     		.2byte	0x10
 2700 0264 90       		.byte	0x90
 2701 0265 49       		.uleb128 0x49
 2702 0266 93       		.byte	0x93
 2703 0267 04       		.uleb128 0x4
 2704 0268 90       		.byte	0x90
 2705 0269 45       		.uleb128 0x45
 2706 026a 93       		.byte	0x93
 2707 026b 04       		.uleb128 0x4
 2708 026c 90       		.byte	0x90
 2709 026d 51       		.uleb128 0x51
 2710 026e 93       		.byte	0x93
 2711 026f 04       		.uleb128 0x4
 2712 0270 90       		.byte	0x90
 2713 0271 50       		.uleb128 0x50
 2714 0272 93       		.byte	0x93
 2715 0273 04       		.uleb128 0x4
 2716 0274 BE000000 		.4byte	.LVL16-.Ltext0
 2717 0278 22010000 		.4byte	.LVL23-.Ltext0
 2718 027c 1000     		.2byte	0x10
 2719 027e 90       		.byte	0x90
 2720 027f 49       		.uleb128 0x49
 2721 0280 93       		.byte	0x93
 2722 0281 04       		.uleb128 0x4
 2723 0282 90       		.byte	0x90
 2724 0283 48       		.uleb128 0x48
 2725 0284 93       		.byte	0x93
 2726 0285 04       		.uleb128 0x4
 2727 0286 90       		.byte	0x90
 2728 0287 51       		.uleb128 0x51
 2729 0288 93       		.byte	0x93
 2730 0289 04       		.uleb128 0x4
 2731 028a 90       		.byte	0x90
 2732 028b 50       		.uleb128 0x50
ARM GAS  /tmp/ccOp4oY9.s 			page 49


 2733 028c 93       		.byte	0x93
 2734 028d 04       		.uleb128 0x4
 2735 028e 22010000 		.4byte	.LVL23-.Ltext0
 2736 0292 26010000 		.4byte	.LVL24-.Ltext0
 2737 0296 1000     		.2byte	0x10
 2738 0298 90       		.byte	0x90
 2739 0299 49       		.uleb128 0x49
 2740 029a 93       		.byte	0x93
 2741 029b 04       		.uleb128 0x4
 2742 029c 90       		.byte	0x90
 2743 029d 48       		.uleb128 0x48
 2744 029e 93       		.byte	0x93
 2745 029f 04       		.uleb128 0x4
 2746 02a0 90       		.byte	0x90
 2747 02a1 4D       		.uleb128 0x4d
 2748 02a2 93       		.byte	0x93
 2749 02a3 04       		.uleb128 0x4
 2750 02a4 90       		.byte	0x90
 2751 02a5 50       		.uleb128 0x50
 2752 02a6 93       		.byte	0x93
 2753 02a7 04       		.uleb128 0x4
 2754 02a8 26010000 		.4byte	.LVL24-.Ltext0
 2755 02ac 3A010000 		.4byte	.LVL28-.Ltext0
 2756 02b0 1000     		.2byte	0x10
 2757 02b2 90       		.byte	0x90
 2758 02b3 49       		.uleb128 0x49
 2759 02b4 93       		.byte	0x93
 2760 02b5 04       		.uleb128 0x4
 2761 02b6 90       		.byte	0x90
 2762 02b7 48       		.uleb128 0x48
 2763 02b8 93       		.byte	0x93
 2764 02b9 04       		.uleb128 0x4
 2765 02ba 90       		.byte	0x90
 2766 02bb 4D       		.uleb128 0x4d
 2767 02bc 93       		.byte	0x93
 2768 02bd 04       		.uleb128 0x4
 2769 02be 90       		.byte	0x90
 2770 02bf 4C       		.uleb128 0x4c
 2771 02c0 93       		.byte	0x93
 2772 02c1 04       		.uleb128 0x4
 2773 02c2 3A010000 		.4byte	.LVL28-.Ltext0
 2774 02c6 3E010000 		.4byte	.LVL29-.Ltext0
 2775 02ca 0E00     		.2byte	0xe
 2776 02cc 90       		.byte	0x90
 2777 02cd 49       		.uleb128 0x49
 2778 02ce 93       		.byte	0x93
 2779 02cf 04       		.uleb128 0x4
 2780 02d0 93       		.byte	0x93
 2781 02d1 04       		.uleb128 0x4
 2782 02d2 90       		.byte	0x90
 2783 02d3 4D       		.uleb128 0x4d
 2784 02d4 93       		.byte	0x93
 2785 02d5 04       		.uleb128 0x4
 2786 02d6 90       		.byte	0x90
 2787 02d7 4C       		.uleb128 0x4c
 2788 02d8 93       		.byte	0x93
 2789 02d9 04       		.uleb128 0x4
ARM GAS  /tmp/ccOp4oY9.s 			page 50


 2790 02da 3E010000 		.4byte	.LVL29-.Ltext0
 2791 02de 62010000 		.4byte	.LVL33-.Ltext0
 2792 02e2 0A00     		.2byte	0xa
 2793 02e4 93       		.byte	0x93
 2794 02e5 08       		.uleb128 0x8
 2795 02e6 90       		.byte	0x90
 2796 02e7 4D       		.uleb128 0x4d
 2797 02e8 93       		.byte	0x93
 2798 02e9 04       		.uleb128 0x4
 2799 02ea 90       		.byte	0x90
 2800 02eb 4C       		.uleb128 0x4c
 2801 02ec 93       		.byte	0x93
 2802 02ed 04       		.uleb128 0x4
 2803 02ee 00000000 		.4byte	0
 2804 02f2 00000000 		.4byte	0
 2805              	.LLST11:
 2806 02f6 76000000 		.4byte	.LVL11-.Ltext0
 2807 02fa CA000000 		.4byte	.LVL19-.Ltext0
 2808 02fe 1000     		.2byte	0x10
 2809 0300 90       		.byte	0x90
 2810 0301 46       		.uleb128 0x46
 2811 0302 93       		.byte	0x93
 2812 0303 04       		.uleb128 0x4
 2813 0304 90       		.byte	0x90
 2814 0305 47       		.uleb128 0x47
 2815 0306 93       		.byte	0x93
 2816 0307 04       		.uleb128 0x4
 2817 0308 90       		.byte	0x90
 2818 0309 40       		.uleb128 0x40
 2819 030a 93       		.byte	0x93
 2820 030b 04       		.uleb128 0x4
 2821 030c 90       		.byte	0x90
 2822 030d 41       		.uleb128 0x41
 2823 030e 93       		.byte	0x93
 2824 030f 04       		.uleb128 0x4
 2825 0310 CA000000 		.4byte	.LVL19-.Ltext0
 2826 0314 CE000000 		.4byte	.LVL20-.Ltext0
 2827 0318 0E00     		.2byte	0xe
 2828 031a 93       		.byte	0x93
 2829 031b 04       		.uleb128 0x4
 2830 031c 90       		.byte	0x90
 2831 031d 47       		.uleb128 0x47
 2832 031e 93       		.byte	0x93
 2833 031f 04       		.uleb128 0x4
 2834 0320 90       		.byte	0x90
 2835 0321 40       		.uleb128 0x40
 2836 0322 93       		.byte	0x93
 2837 0323 04       		.uleb128 0x4
 2838 0324 90       		.byte	0x90
 2839 0325 41       		.uleb128 0x41
 2840 0326 93       		.byte	0x93
 2841 0327 04       		.uleb128 0x4
 2842 0328 CE000000 		.4byte	.LVL20-.Ltext0
 2843 032c 62010000 		.4byte	.LVL33-.Ltext0
 2844 0330 0A00     		.2byte	0xa
 2845 0332 93       		.byte	0x93
 2846 0333 08       		.uleb128 0x8
ARM GAS  /tmp/ccOp4oY9.s 			page 51


 2847 0334 90       		.byte	0x90
 2848 0335 40       		.uleb128 0x40
 2849 0336 93       		.byte	0x93
 2850 0337 04       		.uleb128 0x4
 2851 0338 90       		.byte	0x90
 2852 0339 41       		.uleb128 0x41
 2853 033a 93       		.byte	0x93
 2854 033b 04       		.uleb128 0x4
 2855 033c 00000000 		.4byte	0
 2856 0340 00000000 		.4byte	0
 2857              	.LLST12:
 2858 0344 76000000 		.4byte	.LVL11-.Ltext0
 2859 0348 C2000000 		.4byte	.LVL17-.Ltext0
 2860 034c 1000     		.2byte	0x10
 2861 034e 90       		.byte	0x90
 2862 034f 4A       		.uleb128 0x4a
 2863 0350 93       		.byte	0x93
 2864 0351 04       		.uleb128 0x4
 2865 0352 90       		.byte	0x90
 2866 0353 4B       		.uleb128 0x4b
 2867 0354 93       		.byte	0x93
 2868 0355 04       		.uleb128 0x4
 2869 0356 90       		.byte	0x90
 2870 0357 4E       		.uleb128 0x4e
 2871 0358 93       		.byte	0x93
 2872 0359 04       		.uleb128 0x4
 2873 035a 90       		.byte	0x90
 2874 035b 4F       		.uleb128 0x4f
 2875 035c 93       		.byte	0x93
 2876 035d 04       		.uleb128 0x4
 2877 035e C2000000 		.4byte	.LVL17-.Ltext0
 2878 0362 C6000000 		.4byte	.LVL18-.Ltext0
 2879 0366 0E00     		.2byte	0xe
 2880 0368 93       		.byte	0x93
 2881 0369 04       		.uleb128 0x4
 2882 036a 90       		.byte	0x90
 2883 036b 4B       		.uleb128 0x4b
 2884 036c 93       		.byte	0x93
 2885 036d 04       		.uleb128 0x4
 2886 036e 90       		.byte	0x90
 2887 036f 4E       		.uleb128 0x4e
 2888 0370 93       		.byte	0x93
 2889 0371 04       		.uleb128 0x4
 2890 0372 90       		.byte	0x90
 2891 0373 4F       		.uleb128 0x4f
 2892 0374 93       		.byte	0x93
 2893 0375 04       		.uleb128 0x4
 2894 0376 C6000000 		.4byte	.LVL18-.Ltext0
 2895 037a 2A010000 		.4byte	.LVL25-.Ltext0
 2896 037e 0A00     		.2byte	0xa
 2897 0380 93       		.byte	0x93
 2898 0381 08       		.uleb128 0x8
 2899 0382 90       		.byte	0x90
 2900 0383 4E       		.uleb128 0x4e
 2901 0384 93       		.byte	0x93
 2902 0385 04       		.uleb128 0x4
 2903 0386 90       		.byte	0x90
ARM GAS  /tmp/ccOp4oY9.s 			page 52


 2904 0387 4F       		.uleb128 0x4f
 2905 0388 93       		.byte	0x93
 2906 0389 04       		.uleb128 0x4
 2907 038a 2A010000 		.4byte	.LVL25-.Ltext0
 2908 038e 2E010000 		.4byte	.LVL26-.Ltext0
 2909 0392 0A00     		.2byte	0xa
 2910 0394 93       		.byte	0x93
 2911 0395 08       		.uleb128 0x8
 2912 0396 90       		.byte	0x90
 2913 0397 4E       		.uleb128 0x4e
 2914 0398 93       		.byte	0x93
 2915 0399 04       		.uleb128 0x4
 2916 039a 90       		.byte	0x90
 2917 039b 4F       		.uleb128 0x4f
 2918 039c 93       		.byte	0x93
 2919 039d 04       		.uleb128 0x4
 2920 039e 2E010000 		.4byte	.LVL26-.Ltext0
 2921 03a2 62010000 		.4byte	.LVL33-.Ltext0
 2922 03a6 0A00     		.2byte	0xa
 2923 03a8 93       		.byte	0x93
 2924 03a9 08       		.uleb128 0x8
 2925 03aa 90       		.byte	0x90
 2926 03ab 4E       		.uleb128 0x4e
 2927 03ac 93       		.byte	0x93
 2928 03ad 04       		.uleb128 0x4
 2929 03ae 90       		.byte	0x90
 2930 03af 4F       		.uleb128 0x4f
 2931 03b0 93       		.byte	0x93
 2932 03b1 04       		.uleb128 0x4
 2933 03b2 00000000 		.4byte	0
 2934 03b6 00000000 		.4byte	0
 2935              	.LLST13:
 2936 03ba 2E010000 		.4byte	.LVL26-.Ltext0
 2937 03be 62010000 		.4byte	.LVL33-.Ltext0
 2938 03c2 0200     		.2byte	0x2
 2939 03c4 90       		.byte	0x90
 2940 03c5 4A       		.uleb128 0x4a
 2941 03c6 00000000 		.4byte	0
 2942 03ca 00000000 		.4byte	0
 2943              	.LLST14:
 2944 03ce 2E010000 		.4byte	.LVL26-.Ltext0
 2945 03d2 62010000 		.4byte	.LVL33-.Ltext0
 2946 03d6 0200     		.2byte	0x2
 2947 03d8 90       		.byte	0x90
 2948 03d9 4B       		.uleb128 0x4b
 2949 03da 00000000 		.4byte	0
 2950 03de 00000000 		.4byte	0
 2951              	.LLST15:
 2952 03e2 2E010000 		.4byte	.LVL26-.Ltext0
 2953 03e6 56010000 		.4byte	.LVL31-.Ltext0
 2954 03ea 0800     		.2byte	0x8
 2955 03ec F5       		.byte	0xf5
 2956 03ed 4D       		.uleb128 0x4d
 2957 03ee 21       		.uleb128 0x21
 2958 03ef F5       		.byte	0xf5
 2959 03f0 4A       		.uleb128 0x4a
 2960 03f1 21       		.uleb128 0x21
ARM GAS  /tmp/ccOp4oY9.s 			page 53


 2961 03f2 1E       		.byte	0x1e
 2962 03f3 9F       		.byte	0x9f
 2963 03f4 56010000 		.4byte	.LVL31-.Ltext0
 2964 03f8 62010000 		.4byte	.LVL33-.Ltext0
 2965 03fc 0800     		.2byte	0x8
 2966 03fe F5       		.byte	0xf5
 2967 03ff 4E       		.uleb128 0x4e
 2968 0400 21       		.uleb128 0x21
 2969 0401 F5       		.byte	0xf5
 2970 0402 4B       		.uleb128 0x4b
 2971 0403 21       		.uleb128 0x21
 2972 0404 1E       		.byte	0x1e
 2973 0405 9F       		.byte	0x9f
 2974 0406 00000000 		.4byte	0
 2975 040a 00000000 		.4byte	0
 2976              	.LLST16:
 2977 040e 2E010000 		.4byte	.LVL26-.Ltext0
 2978 0412 32010000 		.4byte	.LVL27-.Ltext0
 2979 0416 0800     		.2byte	0x8
 2980 0418 F5       		.byte	0xf5
 2981 0419 4C       		.uleb128 0x4c
 2982 041a 21       		.uleb128 0x21
 2983 041b F5       		.byte	0xf5
 2984 041c 4B       		.uleb128 0x4b
 2985 041d 21       		.uleb128 0x21
 2986 041e 1E       		.byte	0x1e
 2987 041f 9F       		.byte	0x9f
 2988 0420 32010000 		.4byte	.LVL27-.Ltext0
 2989 0424 46010000 		.4byte	.LVL30-.Ltext0
 2990 0428 0200     		.2byte	0x2
 2991 042a 90       		.byte	0x90
 2992 042b 46       		.uleb128 0x46
 2993 042c 46010000 		.4byte	.LVL30-.Ltext0
 2994 0430 56010000 		.4byte	.LVL31-.Ltext0
 2995 0434 0800     		.2byte	0x8
 2996 0436 F5       		.byte	0xf5
 2997 0437 4C       		.uleb128 0x4c
 2998 0438 21       		.uleb128 0x21
 2999 0439 F5       		.byte	0xf5
 3000 043a 4B       		.uleb128 0x4b
 3001 043b 21       		.uleb128 0x21
 3002 043c 1E       		.byte	0x1e
 3003 043d 9F       		.byte	0x9f
 3004 043e 56010000 		.4byte	.LVL31-.Ltext0
 3005 0442 62010000 		.4byte	.LVL33-.Ltext0
 3006 0446 0800     		.2byte	0x8
 3007 0448 F5       		.byte	0xf5
 3008 0449 4F       		.uleb128 0x4f
 3009 044a 21       		.uleb128 0x21
 3010 044b F5       		.byte	0xf5
 3011 044c 4A       		.uleb128 0x4a
 3012 044d 21       		.uleb128 0x21
 3013 044e 1E       		.byte	0x1e
 3014 044f 9F       		.byte	0x9f
 3015 0450 00000000 		.4byte	0
 3016 0454 00000000 		.4byte	0
 3017              	.LLST17:
ARM GAS  /tmp/ccOp4oY9.s 			page 54


 3018 0458 2E010000 		.4byte	.LVL26-.Ltext0
 3019 045c 56010000 		.4byte	.LVL31-.Ltext0
 3020 0460 0800     		.2byte	0x8
 3021 0462 F5       		.byte	0xf5
 3022 0463 4C       		.uleb128 0x4c
 3023 0464 21       		.uleb128 0x21
 3024 0465 F5       		.byte	0xf5
 3025 0466 4A       		.uleb128 0x4a
 3026 0467 21       		.uleb128 0x21
 3027 0468 1E       		.byte	0x1e
 3028 0469 9F       		.byte	0x9f
 3029 046a 56010000 		.4byte	.LVL31-.Ltext0
 3030 046e 62010000 		.4byte	.LVL33-.Ltext0
 3031 0472 0800     		.2byte	0x8
 3032 0474 F5       		.byte	0xf5
 3033 0475 4F       		.uleb128 0x4f
 3034 0476 21       		.uleb128 0x21
 3035 0477 F5       		.byte	0xf5
 3036 0478 4B       		.uleb128 0x4b
 3037 0479 21       		.uleb128 0x21
 3038 047a 1E       		.byte	0x1e
 3039 047b 9F       		.byte	0x9f
 3040 047c 00000000 		.4byte	0
 3041 0480 00000000 		.4byte	0
 3042              	.LLST18:
 3043 0484 2E010000 		.4byte	.LVL26-.Ltext0
 3044 0488 56010000 		.4byte	.LVL31-.Ltext0
 3045 048c 0800     		.2byte	0x8
 3046 048e F5       		.byte	0xf5
 3047 048f 4D       		.uleb128 0x4d
 3048 0490 21       		.uleb128 0x21
 3049 0491 F5       		.byte	0xf5
 3050 0492 4B       		.uleb128 0x4b
 3051 0493 21       		.uleb128 0x21
 3052 0494 1E       		.byte	0x1e
 3053 0495 9F       		.byte	0x9f
 3054 0496 56010000 		.4byte	.LVL31-.Ltext0
 3055 049a 62010000 		.4byte	.LVL33-.Ltext0
 3056 049e 0800     		.2byte	0x8
 3057 04a0 F5       		.byte	0xf5
 3058 04a1 4E       		.uleb128 0x4e
 3059 04a2 21       		.uleb128 0x21
 3060 04a3 F5       		.byte	0xf5
 3061 04a4 4A       		.uleb128 0x4a
 3062 04a5 21       		.uleb128 0x21
 3063 04a6 1E       		.byte	0x1e
 3064 04a7 9F       		.byte	0x9f
 3065 04a8 00000000 		.4byte	0
 3066 04ac 00000000 		.4byte	0
 3067              	.LLST19:
 3068 04b0 36000000 		.4byte	.LVL7-.Ltext0
 3069 04b4 E6000000 		.4byte	.LVL21-.Ltext0
 3070 04b8 0100     		.2byte	0x1
 3071 04ba 5E       		.byte	0x5e
 3072 04bb E6000000 		.4byte	.LVL21-.Ltext0
 3073 04bf 5A010000 		.4byte	.LVL32-.Ltext0
 3074 04c3 0300     		.2byte	0x3
ARM GAS  /tmp/ccOp4oY9.s 			page 55


 3075 04c5 7E       		.byte	0x7e
 3076 04c6 01       		.sleb128 1
 3077 04c7 9F       		.byte	0x9f
 3078 04c8 00000000 		.4byte	0
 3079 04cc 00000000 		.4byte	0
 3080              	.LLST20:
 3081 04d0 90010000 		.4byte	.LVL39-.Ltext0
 3082 04d4 CC010000 		.4byte	.LVL44-.Ltext0
 3083 04d8 0100     		.2byte	0x1
 3084 04da 50       		.byte	0x50
 3085 04db CC010000 		.4byte	.LVL44-.Ltext0
 3086 04df 0E060000 		.4byte	.LVL123-.Ltext0
 3087 04e3 0300     		.2byte	0x3
 3088 04e5 91       		.byte	0x91
 3089 04e6 A47F     		.sleb128 -92
 3090 04e8 0E060000 		.4byte	.LVL123-.Ltext0
 3091 04ec 12060000 		.4byte	.LFE136-.Ltext0
 3092 04f0 0300     		.2byte	0x3
 3093 04f2 7D       		.byte	0x7d
 3094 04f3 A47F     		.sleb128 -92
 3095 04f5 00000000 		.4byte	0
 3096 04f9 00000000 		.4byte	0
 3097              	.LLST21:
 3098 04fd 90010000 		.4byte	.LVL39-.Ltext0
 3099 0501 C8010000 		.4byte	.LVL43-.Ltext0
 3100 0505 0100     		.2byte	0x1
 3101 0507 51       		.byte	0x51
 3102 0508 C8010000 		.4byte	.LVL43-.Ltext0
 3103 050c 52020000 		.4byte	.LVL51-.Ltext0
 3104 0510 0100     		.2byte	0x1
 3105 0512 56       		.byte	0x56
 3106 0513 52020000 		.4byte	.LVL51-.Ltext0
 3107 0517 68020000 		.4byte	.LVL53-.Ltext0
 3108 051b 0100     		.2byte	0x1
 3109 051d 55       		.byte	0x55
 3110 051e 68020000 		.4byte	.LVL53-.Ltext0
 3111 0522 D4020000 		.4byte	.LVL68-.Ltext0
 3112 0526 0300     		.2byte	0x3
 3113 0528 91       		.byte	0x91
 3114 0529 847F     		.sleb128 -124
 3115 052b D4020000 		.4byte	.LVL68-.Ltext0
 3116 052f A8030000 		.4byte	.LVL75-.Ltext0
 3117 0533 0300     		.2byte	0x3
 3118 0535 75       		.byte	0x75
 3119 0536 78       		.sleb128 -8
 3120 0537 9F       		.byte	0x9f
 3121 0538 A8030000 		.4byte	.LVL75-.Ltext0
 3122 053c 6C040000 		.4byte	.LVL86-.Ltext0
 3123 0540 0300     		.2byte	0x3
 3124 0542 75       		.byte	0x75
 3125 0543 70       		.sleb128 -16
 3126 0544 9F       		.byte	0x9f
 3127 0545 BE050000 		.4byte	.LVL112-.Ltext0
 3128 0549 0E060000 		.4byte	.LVL123-.Ltext0
 3129 054d 0700     		.2byte	0x7
 3130 054f 91       		.byte	0x91
 3131 0550 847F     		.sleb128 -124
ARM GAS  /tmp/ccOp4oY9.s 			page 56


 3132 0552 06       		.byte	0x6
 3133 0553 23       		.byte	0x23
 3134 0554 08       		.uleb128 0x8
 3135 0555 9F       		.byte	0x9f
 3136 0556 0E060000 		.4byte	.LVL123-.Ltext0
 3137 055a 12060000 		.4byte	.LFE136-.Ltext0
 3138 055e 0700     		.2byte	0x7
 3139 0560 7D       		.byte	0x7d
 3140 0561 847F     		.sleb128 -124
 3141 0563 06       		.byte	0x6
 3142 0564 23       		.byte	0x23
 3143 0565 08       		.uleb128 0x8
 3144 0566 9F       		.byte	0x9f
 3145 0567 00000000 		.4byte	0
 3146 056b 00000000 		.4byte	0
 3147              	.LLST22:
 3148 056f A8010000 		.4byte	.LVL40-.Ltext0
 3149 0573 40020000 		.4byte	.LVL50-.Ltext0
 3150 0577 0100     		.2byte	0x1
 3151 0579 54       		.byte	0x54
 3152 057a 40020000 		.4byte	.LVL50-.Ltext0
 3153 057e 68020000 		.4byte	.LVL53-.Ltext0
 3154 0582 0D00     		.2byte	0xd
 3155 0584 91       		.byte	0x91
 3156 0585 A47F     		.sleb128 -92
 3157 0587 06       		.byte	0x6
 3158 0588 94       		.byte	0x94
 3159 0589 02       		.byte	0x2
 3160 058a 0A       		.byte	0xa
 3161 058b FFFF     		.2byte	0xffff
 3162 058d 1A       		.byte	0x1a
 3163 058e 31       		.byte	0x31
 3164 058f 25       		.byte	0x25
 3165 0590 9F       		.byte	0x9f
 3166 0591 68020000 		.4byte	.LVL53-.Ltext0
 3167 0595 98020000 		.4byte	.LVL58-.Ltext0
 3168 0599 0100     		.2byte	0x1
 3169 059b 52       		.byte	0x52
 3170 059c 98020000 		.4byte	.LVL58-.Ltext0
 3171 05a0 0E060000 		.4byte	.LVL123-.Ltext0
 3172 05a4 0300     		.2byte	0x3
 3173 05a6 91       		.byte	0x91
 3174 05a7 A07F     		.sleb128 -96
 3175 05a9 0E060000 		.4byte	.LVL123-.Ltext0
 3176 05ad 12060000 		.4byte	.LFE136-.Ltext0
 3177 05b1 0300     		.2byte	0x3
 3178 05b3 7D       		.byte	0x7d
 3179 05b4 A07F     		.sleb128 -96
 3180 05b6 00000000 		.4byte	0
 3181 05ba 00000000 		.4byte	0
 3182              	.LLST23:
 3183 05be FE010000 		.4byte	.LVL47-.Ltext0
 3184 05c2 52020000 		.4byte	.LVL51-.Ltext0
 3185 05c6 0100     		.2byte	0x1
 3186 05c8 56       		.byte	0x56
 3187 05c9 52020000 		.4byte	.LVL51-.Ltext0
 3188 05cd CE020000 		.4byte	.LVL66-.Ltext0
ARM GAS  /tmp/ccOp4oY9.s 			page 57


 3189 05d1 0100     		.2byte	0x1
 3190 05d3 55       		.byte	0x55
 3191 05d4 CE020000 		.4byte	.LVL66-.Ltext0
 3192 05d8 0E060000 		.4byte	.LVL123-.Ltext0
 3193 05dc 0300     		.2byte	0x3
 3194 05de 91       		.byte	0x91
 3195 05df A87F     		.sleb128 -88
 3196 05e1 0E060000 		.4byte	.LVL123-.Ltext0
 3197 05e5 12060000 		.4byte	.LFE136-.Ltext0
 3198 05e9 0300     		.2byte	0x3
 3199 05eb 7D       		.byte	0x7d
 3200 05ec A87F     		.sleb128 -88
 3201 05ee 00000000 		.4byte	0
 3202 05f2 00000000 		.4byte	0
 3203              	.LLST24:
 3204 05f6 FE010000 		.4byte	.LVL47-.Ltext0
 3205 05fa 3A020000 		.4byte	.LVL49-.Ltext0
 3206 05fe 0100     		.2byte	0x1
 3207 0600 52       		.byte	0x52
 3208 0601 3A020000 		.4byte	.LVL49-.Ltext0
 3209 0605 6E020000 		.4byte	.LVL54-.Ltext0
 3210 0609 0100     		.2byte	0x1
 3211 060b 51       		.byte	0x51
 3212 060c 6E020000 		.4byte	.LVL54-.Ltext0
 3213 0610 0E060000 		.4byte	.LVL123-.Ltext0
 3214 0614 0300     		.2byte	0x3
 3215 0616 91       		.byte	0x91
 3216 0617 987F     		.sleb128 -104
 3217 0619 0E060000 		.4byte	.LVL123-.Ltext0
 3218 061d 12060000 		.4byte	.LFE136-.Ltext0
 3219 0621 0300     		.2byte	0x3
 3220 0623 7D       		.byte	0x7d
 3221 0624 987F     		.sleb128 -104
 3222 0626 00000000 		.4byte	0
 3223 062a 00000000 		.4byte	0
 3224              	.LLST25:
 3225 062e FE010000 		.4byte	.LVL47-.Ltext0
 3226 0632 D2020000 		.4byte	.LVL67-.Ltext0
 3227 0636 0100     		.2byte	0x1
 3228 0638 50       		.byte	0x50
 3229 0639 D2020000 		.4byte	.LVL67-.Ltext0
 3230 063d 0E060000 		.4byte	.LVL123-.Ltext0
 3231 0641 0300     		.2byte	0x3
 3232 0643 91       		.byte	0x91
 3233 0644 9C7F     		.sleb128 -100
 3234 0646 0E060000 		.4byte	.LVL123-.Ltext0
 3235 064a 12060000 		.4byte	.LFE136-.Ltext0
 3236 064e 0300     		.2byte	0x3
 3237 0650 7D       		.byte	0x7d
 3238 0651 9C7F     		.sleb128 -100
 3239 0653 00000000 		.4byte	0
 3240 0657 00000000 		.4byte	0
 3241              	.LLST26:
 3242 065b FE010000 		.4byte	.LVL47-.Ltext0
 3243 065f 34020000 		.4byte	.LVL48-.Ltext0
 3244 0663 0100     		.2byte	0x1
 3245 0665 51       		.byte	0x51
ARM GAS  /tmp/ccOp4oY9.s 			page 58


 3246 0666 34020000 		.4byte	.LVL48-.Ltext0
 3247 066a 56020000 		.4byte	.LVL52-.Ltext0
 3248 066e 0100     		.2byte	0x1
 3249 0670 57       		.byte	0x57
 3250 0671 56020000 		.4byte	.LVL52-.Ltext0
 3251 0675 A2020000 		.4byte	.LVL60-.Ltext0
 3252 0679 0100     		.2byte	0x1
 3253 067b 5C       		.byte	0x5c
 3254 067c A2020000 		.4byte	.LVL60-.Ltext0
 3255 0680 B0020000 		.4byte	.LVL62-.Ltext0
 3256 0684 0100     		.2byte	0x1
 3257 0686 54       		.byte	0x54
 3258 0687 B0020000 		.4byte	.LVL62-.Ltext0
 3259 068b 06060000 		.4byte	.LVL122-.Ltext0
 3260 068f 0200     		.2byte	0x2
 3261 0691 7D       		.byte	0x7d
 3262 0692 00       		.sleb128 0
 3263 0693 06060000 		.4byte	.LVL122-.Ltext0
 3264 0697 0E060000 		.4byte	.LVL123-.Ltext0
 3265 069b 0300     		.2byte	0x3
 3266 069d 91       		.byte	0x91
 3267 069e F87E     		.sleb128 -136
 3268 06a0 0E060000 		.4byte	.LVL123-.Ltext0
 3269 06a4 12060000 		.4byte	.LFE136-.Ltext0
 3270 06a8 0300     		.2byte	0x3
 3271 06aa 7D       		.byte	0x7d
 3272 06ab F87E     		.sleb128 -136
 3273 06ad 00000000 		.4byte	0
 3274 06b1 00000000 		.4byte	0
 3275              	.LLST27:
 3276 06b5 68020000 		.4byte	.LVL53-.Ltext0
 3277 06b9 6C030000 		.4byte	.LVL72-.Ltext0
 3278 06bd 0100     		.2byte	0x1
 3279 06bf 57       		.byte	0x57
 3280 06c0 6C030000 		.4byte	.LVL72-.Ltext0
 3281 06c4 78040000 		.4byte	.LVL88-.Ltext0
 3282 06c8 0300     		.2byte	0x3
 3283 06ca 77       		.byte	0x77
 3284 06cb 08       		.sleb128 8
 3285 06cc 9F       		.byte	0x9f
 3286 06cd 78040000 		.4byte	.LVL88-.Ltext0
 3287 06d1 0E060000 		.4byte	.LVL123-.Ltext0
 3288 06d5 0100     		.2byte	0x1
 3289 06d7 57       		.byte	0x57
 3290 06d8 00000000 		.4byte	0
 3291 06dc 00000000 		.4byte	0
 3292              	.LLST28:
 3293 06e0 68020000 		.4byte	.LVL53-.Ltext0
 3294 06e4 D2020000 		.4byte	.LVL67-.Ltext0
 3295 06e8 0300     		.2byte	0x3
 3296 06ea 70       		.byte	0x70
 3297 06eb 7C       		.sleb128 -4
 3298 06ec 9F       		.byte	0x9f
 3299 06ed D2020000 		.4byte	.LVL67-.Ltext0
 3300 06f1 D4020000 		.4byte	.LVL68-.Ltext0
 3301 06f5 0700     		.2byte	0x7
 3302 06f7 91       		.byte	0x91
ARM GAS  /tmp/ccOp4oY9.s 			page 59


 3303 06f8 9C7F     		.sleb128 -100
 3304 06fa 06       		.byte	0x6
 3305 06fb 34       		.byte	0x34
 3306 06fc 1C       		.byte	0x1c
 3307 06fd 9F       		.byte	0x9f
 3308 06fe 00000000 		.4byte	0
 3309 0702 00000000 		.4byte	0
 3310              	.LLST29:
 3311 0706 68020000 		.4byte	.LVL53-.Ltext0
 3312 070a 4C040000 		.4byte	.LVL84-.Ltext0
 3313 070e 0100     		.2byte	0x1
 3314 0710 56       		.byte	0x56
 3315 0711 4C040000 		.4byte	.LVL84-.Ltext0
 3316 0715 78040000 		.4byte	.LVL88-.Ltext0
 3317 0719 0300     		.2byte	0x3
 3318 071b 76       		.byte	0x76
 3319 071c 08       		.sleb128 8
 3320 071d 9F       		.byte	0x9f
 3321 071e 78040000 		.4byte	.LVL88-.Ltext0
 3322 0722 EA040000 		.4byte	.LVL99-.Ltext0
 3323 0726 0100     		.2byte	0x1
 3324 0728 56       		.byte	0x56
 3325 0729 00000000 		.4byte	0
 3326 072d 00000000 		.4byte	0
 3327              	.LLST30:
 3328 0731 68020000 		.4byte	.LVL53-.Ltext0
 3329 0735 B2020000 		.4byte	.LVL63-.Ltext0
 3330 0739 0600     		.2byte	0x6
 3331 073b 76       		.byte	0x76
 3332 073c 00       		.sleb128 0
 3333 073d 73       		.byte	0x73
 3334 073e 00       		.sleb128 0
 3335 073f 22       		.byte	0x22
 3336 0740 9F       		.byte	0x9f
 3337 0741 B2020000 		.4byte	.LVL63-.Ltext0
 3338 0745 CC020000 		.4byte	.LVL65-.Ltext0
 3339 0749 0800     		.2byte	0x8
 3340 074b 76       		.byte	0x76
 3341 074c 00       		.sleb128 0
 3342 074d 73       		.byte	0x73
 3343 074e 00       		.sleb128 0
 3344 074f 22       		.byte	0x22
 3345 0750 23       		.byte	0x23
 3346 0751 08       		.uleb128 0x8
 3347 0752 9F       		.byte	0x9f
 3348 0753 CC020000 		.4byte	.LVL65-.Ltext0
 3349 0757 D4020000 		.4byte	.LVL68-.Ltext0
 3350 075b 1200     		.2byte	0x12
 3351 075d 91       		.byte	0x91
 3352 075e A47F     		.sleb128 -92
 3353 0760 06       		.byte	0x6
 3354 0761 94       		.byte	0x94
 3355 0762 02       		.byte	0x2
 3356 0763 0A       		.byte	0xa
 3357 0764 FFFF     		.2byte	0xffff
 3358 0766 1A       		.byte	0x1a
 3359 0767 31       		.byte	0x31
ARM GAS  /tmp/ccOp4oY9.s 			page 60


 3360 0768 25       		.byte	0x25
 3361 0769 32       		.byte	0x32
 3362 076a 24       		.byte	0x24
 3363 076b 76       		.byte	0x76
 3364 076c 00       		.sleb128 0
 3365 076d 22       		.byte	0x22
 3366 076e 9F       		.byte	0x9f
 3367 076f 00000000 		.4byte	0
 3368 0773 00000000 		.4byte	0
 3369              	.LLST31:
 3370 0777 68020000 		.4byte	.LVL53-.Ltext0
 3371 077b 9E020000 		.4byte	.LVL59-.Ltext0
 3372 077f 0100     		.2byte	0x1
 3373 0781 54       		.byte	0x54
 3374 0782 9E020000 		.4byte	.LVL59-.Ltext0
 3375 0786 A2020000 		.4byte	.LVL60-.Ltext0
 3376 078a 0100     		.2byte	0x1
 3377 078c 51       		.byte	0x51
 3378 078d A2020000 		.4byte	.LVL60-.Ltext0
 3379 0791 D4020000 		.4byte	.LVL68-.Ltext0
 3380 0795 0300     		.2byte	0x3
 3381 0797 91       		.byte	0x91
 3382 0798 887F     		.sleb128 -120
 3383 079a 00000000 		.4byte	0
 3384 079e 00000000 		.4byte	0
 3385              	.LLST32:
 3386 07a2 68020000 		.4byte	.LVL53-.Ltext0
 3387 07a6 9E020000 		.4byte	.LVL59-.Ltext0
 3388 07aa 0100     		.2byte	0x1
 3389 07ac 54       		.byte	0x54
 3390 07ad 9E020000 		.4byte	.LVL59-.Ltext0
 3391 07b1 A2020000 		.4byte	.LVL60-.Ltext0
 3392 07b5 0100     		.2byte	0x1
 3393 07b7 51       		.byte	0x51
 3394 07b8 A2020000 		.4byte	.LVL60-.Ltext0
 3395 07bc D4020000 		.4byte	.LVL68-.Ltext0
 3396 07c0 0300     		.2byte	0x3
 3397 07c2 91       		.byte	0x91
 3398 07c3 807F     		.sleb128 -128
 3399 07c5 D4020000 		.4byte	.LVL68-.Ltext0
 3400 07c9 D0030000 		.4byte	.LVL77-.Ltext0
 3401 07cd 0300     		.2byte	0x3
 3402 07cf 79       		.byte	0x79
 3403 07d0 70       		.sleb128 -16
 3404 07d1 9F       		.byte	0x9f
 3405 07d2 D0030000 		.4byte	.LVL77-.Ltext0
 3406 07d6 78040000 		.4byte	.LVL88-.Ltext0
 3407 07da 0300     		.2byte	0x3
 3408 07dc 79       		.byte	0x79
 3409 07dd 60       		.sleb128 -32
 3410 07de 9F       		.byte	0x9f
 3411 07df 00000000 		.4byte	0
 3412 07e3 00000000 		.4byte	0
 3413              	.LLST33:
 3414 07e7 68020000 		.4byte	.LVL53-.Ltext0
 3415 07eb 9E020000 		.4byte	.LVL59-.Ltext0
 3416 07ef 0100     		.2byte	0x1
ARM GAS  /tmp/ccOp4oY9.s 			page 61


 3417 07f1 54       		.byte	0x54
 3418 07f2 9E020000 		.4byte	.LVL59-.Ltext0
 3419 07f6 A2020000 		.4byte	.LVL60-.Ltext0
 3420 07fa 0100     		.2byte	0x1
 3421 07fc 51       		.byte	0x51
 3422 07fd A2020000 		.4byte	.LVL60-.Ltext0
 3423 0801 D4020000 		.4byte	.LVL68-.Ltext0
 3424 0805 0300     		.2byte	0x3
 3425 0807 91       		.byte	0x91
 3426 0808 8C7F     		.sleb128 -116
 3427 080a D4020000 		.4byte	.LVL68-.Ltext0
 3428 080e 24040000 		.4byte	.LVL83-.Ltext0
 3429 0812 0300     		.2byte	0x3
 3430 0814 7E       		.byte	0x7e
 3431 0815 68       		.sleb128 -24
 3432 0816 9F       		.byte	0x9f
 3433 0817 24040000 		.4byte	.LVL83-.Ltext0
 3434 081b 78040000 		.4byte	.LVL88-.Ltext0
 3435 081f 0300     		.2byte	0x3
 3436 0821 7E       		.byte	0x7e
 3437 0822 50       		.sleb128 -48
 3438 0823 9F       		.byte	0x9f
 3439 0824 00000000 		.4byte	0
 3440 0828 00000000 		.4byte	0
 3441              	.LLST34:
 3442 082c B4010000 		.4byte	.LVL41-.Ltext0
 3443 0830 B6010000 		.4byte	.LVL42-.Ltext0
 3444 0834 0100     		.2byte	0x1
 3445 0836 52       		.byte	0x52
 3446 0837 B6010000 		.4byte	.LVL42-.Ltext0
 3447 083b E8010000 		.4byte	.LVL46-.Ltext0
 3448 083f 0100     		.2byte	0x1
 3449 0841 55       		.byte	0x55
 3450 0842 E8010000 		.4byte	.LVL46-.Ltext0
 3451 0846 3A020000 		.4byte	.LVL49-.Ltext0
 3452 084a 0100     		.2byte	0x1
 3453 084c 52       		.byte	0x52
 3454 084d 3A020000 		.4byte	.LVL49-.Ltext0
 3455 0851 68020000 		.4byte	.LVL53-.Ltext0
 3456 0855 0100     		.2byte	0x1
 3457 0857 51       		.byte	0x51
 3458 0858 68020000 		.4byte	.LVL53-.Ltext0
 3459 085c D4020000 		.4byte	.LVL68-.Ltext0
 3460 0860 0100     		.2byte	0x1
 3461 0862 58       		.byte	0x58
 3462 0863 D4020000 		.4byte	.LVL68-.Ltext0
 3463 0867 E0030000 		.4byte	.LVL78-.Ltext0
 3464 086b 0100     		.2byte	0x1
 3465 086d 51       		.byte	0x51
 3466 086e E0030000 		.4byte	.LVL78-.Ltext0
 3467 0872 78040000 		.4byte	.LVL88-.Ltext0
 3468 0876 0300     		.2byte	0x3
 3469 0878 71       		.byte	0x71
 3470 0879 78       		.sleb128 -8
 3471 087a 9F       		.byte	0x9f
 3472 087b 78040000 		.4byte	.LVL88-.Ltext0
 3473 087f B6040000 		.4byte	.LVL96-.Ltext0
ARM GAS  /tmp/ccOp4oY9.s 			page 62


 3474 0883 0100     		.2byte	0x1
 3475 0885 51       		.byte	0x51
 3476 0886 BE050000 		.4byte	.LVL112-.Ltext0
 3477 088a 0E060000 		.4byte	.LVL123-.Ltext0
 3478 088e 0300     		.2byte	0x3
 3479 0890 78       		.byte	0x78
 3480 0891 08       		.sleb128 8
 3481 0892 9F       		.byte	0x9f
 3482 0893 00000000 		.4byte	0
 3483 0897 00000000 		.4byte	0
 3484              	.LLST35:
 3485 089b DC010000 		.4byte	.LVL45-.Ltext0
 3486 089f 68020000 		.4byte	.LVL53-.Ltext0
 3487 08a3 0100     		.2byte	0x1
 3488 08a5 50       		.byte	0x50
 3489 08a6 68020000 		.4byte	.LVL53-.Ltext0
 3490 08aa 7C020000 		.4byte	.LVL55-.Ltext0
 3491 08ae 0300     		.2byte	0x3
 3492 08b0 70       		.byte	0x70
 3493 08b1 04       		.sleb128 4
 3494 08b2 9F       		.byte	0x9f
 3495 08b3 7C020000 		.4byte	.LVL55-.Ltext0
 3496 08b7 7E020000 		.4byte	.LVL56-.Ltext0
 3497 08bb 0100     		.2byte	0x1
 3498 08bd 51       		.byte	0x51
 3499 08be 7E020000 		.4byte	.LVL56-.Ltext0
 3500 08c2 D4020000 		.4byte	.LVL68-.Ltext0
 3501 08c6 0300     		.2byte	0x3
 3502 08c8 91       		.byte	0x91
 3503 08c9 907F     		.sleb128 -112
 3504 08cb BE050000 		.4byte	.LVL112-.Ltext0
 3505 08cf E4050000 		.4byte	.LVL119-.Ltext0
 3506 08d3 0300     		.2byte	0x3
 3507 08d5 75       		.byte	0x75
 3508 08d6 08       		.sleb128 8
 3509 08d7 9F       		.byte	0x9f
 3510 08d8 E4050000 		.4byte	.LVL119-.Ltext0
 3511 08dc 0E060000 		.4byte	.LVL123-.Ltext0
 3512 08e0 0700     		.2byte	0x7
 3513 08e2 91       		.byte	0x91
 3514 08e3 907F     		.sleb128 -112
 3515 08e5 06       		.byte	0x6
 3516 08e6 23       		.byte	0x23
 3517 08e7 08       		.uleb128 0x8
 3518 08e8 9F       		.byte	0x9f
 3519 08e9 0E060000 		.4byte	.LVL123-.Ltext0
 3520 08ed 12060000 		.4byte	.LFE136-.Ltext0
 3521 08f1 0700     		.2byte	0x7
 3522 08f3 7D       		.byte	0x7d
 3523 08f4 907F     		.sleb128 -112
 3524 08f6 06       		.byte	0x6
 3525 08f7 23       		.byte	0x23
 3526 08f8 08       		.uleb128 0x8
 3527 08f9 9F       		.byte	0x9f
 3528 08fa 00000000 		.4byte	0
 3529 08fe 00000000 		.4byte	0
 3530              	.LLST36:
ARM GAS  /tmp/ccOp4oY9.s 			page 63


 3531 0902 FE010000 		.4byte	.LVL47-.Ltext0
 3532 0906 34020000 		.4byte	.LVL48-.Ltext0
 3533 090a 0100     		.2byte	0x1
 3534 090c 51       		.byte	0x51
 3535 090d 34020000 		.4byte	.LVL48-.Ltext0
 3536 0911 56020000 		.4byte	.LVL52-.Ltext0
 3537 0915 0100     		.2byte	0x1
 3538 0917 57       		.byte	0x57
 3539 0918 56020000 		.4byte	.LVL52-.Ltext0
 3540 091c 82020000 		.4byte	.LVL57-.Ltext0
 3541 0920 0100     		.2byte	0x1
 3542 0922 5C       		.byte	0x5c
 3543 0923 82020000 		.4byte	.LVL57-.Ltext0
 3544 0927 A2020000 		.4byte	.LVL60-.Ltext0
 3545 092b 0300     		.2byte	0x3
 3546 092d 7C       		.byte	0x7c
 3547 092e 04       		.sleb128 4
 3548 092f 9F       		.byte	0x9f
 3549 0930 A2020000 		.4byte	.LVL60-.Ltext0
 3550 0934 D4020000 		.4byte	.LVL68-.Ltext0
 3551 0938 0100     		.2byte	0x1
 3552 093a 5C       		.byte	0x5c
 3553 093b D4020000 		.4byte	.LVL68-.Ltext0
 3554 093f 78040000 		.4byte	.LVL88-.Ltext0
 3555 0943 0100     		.2byte	0x1
 3556 0945 50       		.byte	0x50
 3557 0946 78040000 		.4byte	.LVL88-.Ltext0
 3558 094a A4040000 		.4byte	.LVL93-.Ltext0
 3559 094e 0300     		.2byte	0x3
 3560 0950 70       		.byte	0x70
 3561 0951 04       		.sleb128 4
 3562 0952 9F       		.byte	0x9f
 3563 0953 A4040000 		.4byte	.LVL93-.Ltext0
 3564 0957 B8040000 		.4byte	.LVL97-.Ltext0
 3565 095b 0100     		.2byte	0x1
 3566 095d 50       		.byte	0x50
 3567 095e C6050000 		.4byte	.LVL113-.Ltext0
 3568 0962 DA050000 		.4byte	.LVL117-.Ltext0
 3569 0966 0300     		.2byte	0x3
 3570 0968 7C       		.byte	0x7c
 3571 0969 04       		.sleb128 4
 3572 096a 9F       		.byte	0x9f
 3573 096b DA050000 		.4byte	.LVL117-.Ltext0
 3574 096f E1050000 		.4byte	.LVL118-1-.Ltext0
 3575 0973 0300     		.2byte	0x3
 3576 0975 7C       		.byte	0x7c
 3577 0976 08       		.sleb128 8
 3578 0977 9F       		.byte	0x9f
 3579 0978 00000000 		.4byte	0
 3580 097c 00000000 		.4byte	0
 3581              	.LLST37:
 3582 0980 84030000 		.4byte	.LVL73-.Ltext0
 3583 0984 BC030000 		.4byte	.LVL76-.Ltext0
 3584 0988 0A00     		.2byte	0xa
 3585 098a 90       		.byte	0x90
 3586 098b 55       		.uleb128 0x55
 3587 098c 93       		.byte	0x93
ARM GAS  /tmp/ccOp4oY9.s 			page 64


 3588 098d 04       		.uleb128 0x4
 3589 098e 90       		.byte	0x90
 3590 098f 54       		.uleb128 0x54
 3591 0990 93       		.byte	0x93
 3592 0991 04       		.uleb128 0x4
 3593 0992 93       		.byte	0x93
 3594 0993 08       		.uleb128 0x8
 3595 0994 BC030000 		.4byte	.LVL76-.Ltext0
 3596 0998 60040000 		.4byte	.LVL85-.Ltext0
 3597 099c 1400     		.2byte	0x14
 3598 099e F5       		.byte	0xf5
 3599 099f 48       		.uleb128 0x48
 3600 09a0 21       		.uleb128 0x21
 3601 09a1 F5       		.byte	0xf5
 3602 09a2 47       		.uleb128 0x47
 3603 09a3 21       		.uleb128 0x21
 3604 09a4 22       		.byte	0x22
 3605 09a5 F5       		.byte	0xf5
 3606 09a6 49       		.uleb128 0x49
 3607 09a7 21       		.uleb128 0x21
 3608 09a8 1C       		.byte	0x1c
 3609 09a9 9F       		.byte	0x9f
 3610 09aa 93       		.byte	0x93
 3611 09ab 04       		.uleb128 0x4
 3612 09ac 90       		.byte	0x90
 3613 09ad 54       		.uleb128 0x54
 3614 09ae 93       		.byte	0x93
 3615 09af 04       		.uleb128 0x4
 3616 09b0 93       		.byte	0x93
 3617 09b1 08       		.uleb128 0x8
 3618 09b2 60040000 		.4byte	.LVL85-.Ltext0
 3619 09b6 6C040000 		.4byte	.LVL86-.Ltext0
 3620 09ba 0800     		.2byte	0x8
 3621 09bc 93       		.byte	0x93
 3622 09bd 04       		.uleb128 0x4
 3623 09be 90       		.byte	0x90
 3624 09bf 54       		.uleb128 0x54
 3625 09c0 93       		.byte	0x93
 3626 09c1 04       		.uleb128 0x4
 3627 09c2 93       		.byte	0x93
 3628 09c3 08       		.uleb128 0x8
 3629 09c4 6C040000 		.4byte	.LVL86-.Ltext0
 3630 09c8 E6040000 		.4byte	.LVL98-.Ltext0
 3631 09cc 1800     		.2byte	0x18
 3632 09ce 93       		.byte	0x93
 3633 09cf 04       		.uleb128 0x4
 3634 09d0 90       		.byte	0x90
 3635 09d1 54       		.uleb128 0x54
 3636 09d2 93       		.byte	0x93
 3637 09d3 04       		.uleb128 0x4
 3638 09d4 90       		.byte	0x90
 3639 09d5 59       		.uleb128 0x59
 3640 09d6 93       		.byte	0x93
 3641 09d7 04       		.uleb128 0x4
 3642 09d8 F5       		.byte	0xf5
 3643 09d9 44       		.uleb128 0x44
 3644 09da 21       		.uleb128 0x21
ARM GAS  /tmp/ccOp4oY9.s 			page 65


 3645 09db F5       		.byte	0xf5
 3646 09dc 46       		.uleb128 0x46
 3647 09dd 21       		.uleb128 0x21
 3648 09de 1C       		.byte	0x1c
 3649 09df F5       		.byte	0xf5
 3650 09e0 45       		.uleb128 0x45
 3651 09e1 21       		.uleb128 0x21
 3652 09e2 22       		.byte	0x22
 3653 09e3 9F       		.byte	0x9f
 3654 09e4 93       		.byte	0x93
 3655 09e5 04       		.uleb128 0x4
 3656 09e6 5E050000 		.4byte	.LVL103-.Ltext0
 3657 09ea 92050000 		.4byte	.LVL108-.Ltext0
 3658 09ee 0A00     		.2byte	0xa
 3659 09f0 90       		.byte	0x90
 3660 09f1 46       		.uleb128 0x46
 3661 09f2 93       		.byte	0x93
 3662 09f3 04       		.uleb128 0x4
 3663 09f4 90       		.byte	0x90
 3664 09f5 47       		.uleb128 0x47
 3665 09f6 93       		.byte	0x93
 3666 09f7 04       		.uleb128 0x4
 3667 09f8 93       		.byte	0x93
 3668 09f9 08       		.uleb128 0x8
 3669 09fa 92050000 		.4byte	.LVL108-.Ltext0
 3670 09fe 96050000 		.4byte	.LVL109-.Ltext0
 3671 0a02 1400     		.2byte	0x14
 3672 0a04 F5       		.byte	0xf5
 3673 0a05 45       		.uleb128 0x45
 3674 0a06 21       		.uleb128 0x21
 3675 0a07 F5       		.byte	0xf5
 3676 0a08 4D       		.uleb128 0x4d
 3677 0a09 21       		.uleb128 0x21
 3678 0a0a 22       		.byte	0x22
 3679 0a0b F5       		.byte	0xf5
 3680 0a0c 49       		.uleb128 0x49
 3681 0a0d 21       		.uleb128 0x21
 3682 0a0e 1C       		.byte	0x1c
 3683 0a0f 9F       		.byte	0x9f
 3684 0a10 93       		.byte	0x93
 3685 0a11 04       		.uleb128 0x4
 3686 0a12 90       		.byte	0x90
 3687 0a13 47       		.uleb128 0x47
 3688 0a14 93       		.byte	0x93
 3689 0a15 04       		.uleb128 0x4
 3690 0a16 93       		.byte	0x93
 3691 0a17 08       		.uleb128 0x8
 3692 0a18 96050000 		.4byte	.LVL109-.Ltext0
 3693 0a1c AC050000 		.4byte	.LVL110-.Ltext0
 3694 0a20 1E00     		.2byte	0x1e
 3695 0a22 F5       		.byte	0xf5
 3696 0a23 45       		.uleb128 0x45
 3697 0a24 21       		.uleb128 0x21
 3698 0a25 F5       		.byte	0xf5
 3699 0a26 4D       		.uleb128 0x4d
 3700 0a27 21       		.uleb128 0x21
 3701 0a28 22       		.byte	0x22
ARM GAS  /tmp/ccOp4oY9.s 			page 66


 3702 0a29 F5       		.byte	0xf5
 3703 0a2a 49       		.uleb128 0x49
 3704 0a2b 21       		.uleb128 0x21
 3705 0a2c 1C       		.byte	0x1c
 3706 0a2d 9F       		.byte	0x9f
 3707 0a2e 93       		.byte	0x93
 3708 0a2f 04       		.uleb128 0x4
 3709 0a30 F5       		.byte	0xf5
 3710 0a31 4E       		.uleb128 0x4e
 3711 0a32 21       		.uleb128 0x21
 3712 0a33 F5       		.byte	0xf5
 3713 0a34 4F       		.uleb128 0x4f
 3714 0a35 21       		.uleb128 0x21
 3715 0a36 1C       		.byte	0x1c
 3716 0a37 F5       		.byte	0xf5
 3717 0a38 48       		.uleb128 0x48
 3718 0a39 21       		.uleb128 0x21
 3719 0a3a 22       		.byte	0x22
 3720 0a3b 9F       		.byte	0x9f
 3721 0a3c 93       		.byte	0x93
 3722 0a3d 04       		.uleb128 0x4
 3723 0a3e 93       		.byte	0x93
 3724 0a3f 08       		.uleb128 0x8
 3725 0a40 AC050000 		.4byte	.LVL110-.Ltext0
 3726 0a44 B4050000 		.4byte	.LVL111-.Ltext0
 3727 0a48 1200     		.2byte	0x12
 3728 0a4a 93       		.byte	0x93
 3729 0a4b 04       		.uleb128 0x4
 3730 0a4c F5       		.byte	0xf5
 3731 0a4d 4E       		.uleb128 0x4e
 3732 0a4e 21       		.uleb128 0x21
 3733 0a4f F5       		.byte	0xf5
 3734 0a50 4F       		.uleb128 0x4f
 3735 0a51 21       		.uleb128 0x21
 3736 0a52 1C       		.byte	0x1c
 3737 0a53 F5       		.byte	0xf5
 3738 0a54 48       		.uleb128 0x48
 3739 0a55 21       		.uleb128 0x21
 3740 0a56 22       		.byte	0x22
 3741 0a57 9F       		.byte	0x9f
 3742 0a58 93       		.byte	0x93
 3743 0a59 04       		.uleb128 0x4
 3744 0a5a 93       		.byte	0x93
 3745 0a5b 08       		.uleb128 0x8
 3746 0a5c 00000000 		.4byte	0
 3747 0a60 00000000 		.4byte	0
 3748              	.LLST38:
 3749 0a64 10040000 		.4byte	.LVL81-.Ltext0
 3750 0a68 14040000 		.4byte	.LVL82-.Ltext0
 3751 0a6c 0600     		.2byte	0x6
 3752 0a6e 90       		.byte	0x90
 3753 0a6f 40       		.uleb128 0x40
 3754 0a70 93       		.byte	0x93
 3755 0a71 04       		.uleb128 0x4
 3756 0a72 93       		.byte	0x93
 3757 0a73 0C       		.uleb128 0xc
 3758 0a74 14040000 		.4byte	.LVL82-.Ltext0
ARM GAS  /tmp/ccOp4oY9.s 			page 67


 3759 0a78 6C040000 		.4byte	.LVL86-.Ltext0
 3760 0a7c 0A00     		.2byte	0xa
 3761 0a7e 90       		.byte	0x90
 3762 0a7f 40       		.uleb128 0x40
 3763 0a80 93       		.byte	0x93
 3764 0a81 04       		.uleb128 0x4
 3765 0a82 90       		.byte	0x90
 3766 0a83 50       		.uleb128 0x50
 3767 0a84 93       		.byte	0x93
 3768 0a85 04       		.uleb128 0x4
 3769 0a86 93       		.byte	0x93
 3770 0a87 08       		.uleb128 0x8
 3771 0a88 6C040000 		.4byte	.LVL86-.Ltext0
 3772 0a8c 70040000 		.4byte	.LVL87-.Ltext0
 3773 0a90 1000     		.2byte	0x10
 3774 0a92 90       		.byte	0x90
 3775 0a93 40       		.uleb128 0x40
 3776 0a94 93       		.byte	0x93
 3777 0a95 04       		.uleb128 0x4
 3778 0a96 90       		.byte	0x90
 3779 0a97 50       		.uleb128 0x50
 3780 0a98 93       		.byte	0x93
 3781 0a99 04       		.uleb128 0x4
 3782 0a9a 90       		.byte	0x90
 3783 0a9b 41       		.uleb128 0x41
 3784 0a9c 93       		.byte	0x93
 3785 0a9d 04       		.uleb128 0x4
 3786 0a9e 90       		.byte	0x90
 3787 0a9f 4E       		.uleb128 0x4e
 3788 0aa0 93       		.byte	0x93
 3789 0aa1 04       		.uleb128 0x4
 3790 0aa2 70040000 		.4byte	.LVL87-.Ltext0
 3791 0aa6 E6040000 		.4byte	.LVL98-.Ltext0
 3792 0aaa 0E00     		.2byte	0xe
 3793 0aac 90       		.byte	0x90
 3794 0aad 40       		.uleb128 0x40
 3795 0aae 93       		.byte	0x93
 3796 0aaf 04       		.uleb128 0x4
 3797 0ab0 90       		.byte	0x90
 3798 0ab1 50       		.uleb128 0x50
 3799 0ab2 93       		.byte	0x93
 3800 0ab3 04       		.uleb128 0x4
 3801 0ab4 90       		.byte	0x90
 3802 0ab5 41       		.uleb128 0x41
 3803 0ab6 93       		.byte	0x93
 3804 0ab7 04       		.uleb128 0x4
 3805 0ab8 93       		.byte	0x93
 3806 0ab9 04       		.uleb128 0x4
 3807 0aba 86050000 		.4byte	.LVL106-.Ltext0
 3808 0abe 8A050000 		.4byte	.LVL107-.Ltext0
 3809 0ac2 0600     		.2byte	0x6
 3810 0ac4 90       		.byte	0x90
 3811 0ac5 4B       		.uleb128 0x4b
 3812 0ac6 93       		.byte	0x93
 3813 0ac7 04       		.uleb128 0x4
 3814 0ac8 93       		.byte	0x93
 3815 0ac9 0C       		.uleb128 0xc
ARM GAS  /tmp/ccOp4oY9.s 			page 68


 3816 0aca 8A050000 		.4byte	.LVL107-.Ltext0
 3817 0ace C6050000 		.4byte	.LVL113-.Ltext0
 3818 0ad2 0A00     		.2byte	0xa
 3819 0ad4 90       		.byte	0x90
 3820 0ad5 4B       		.uleb128 0x4b
 3821 0ad6 93       		.byte	0x93
 3822 0ad7 04       		.uleb128 0x4
 3823 0ad8 90       		.byte	0x90
 3824 0ad9 4C       		.uleb128 0x4c
 3825 0ada 93       		.byte	0x93
 3826 0adb 04       		.uleb128 0x4
 3827 0adc 93       		.byte	0x93
 3828 0add 08       		.uleb128 0x8
 3829 0ade C6050000 		.4byte	.LVL113-.Ltext0
 3830 0ae2 CA050000 		.4byte	.LVL114-.Ltext0
 3831 0ae6 0800     		.2byte	0x8
 3832 0ae8 93       		.byte	0x93
 3833 0ae9 04       		.uleb128 0x4
 3834 0aea 90       		.byte	0x90
 3835 0aeb 4C       		.uleb128 0x4c
 3836 0aec 93       		.byte	0x93
 3837 0aed 04       		.uleb128 0x4
 3838 0aee 93       		.byte	0x93
 3839 0aef 08       		.uleb128 0x8
 3840 0af0 00000000 		.4byte	0
 3841 0af4 00000000 		.4byte	0
 3842              	.LLST39:
 3843 0af8 6C040000 		.4byte	.LVL86-.Ltext0
 3844 0afc 70040000 		.4byte	.LVL87-.Ltext0
 3845 0b00 0A00     		.2byte	0xa
 3846 0b02 90       		.byte	0x90
 3847 0b03 49       		.uleb128 0x49
 3848 0b04 93       		.byte	0x93
 3849 0b05 04       		.uleb128 0x4
 3850 0b06 90       		.byte	0x90
 3851 0b07 4C       		.uleb128 0x4c
 3852 0b08 93       		.byte	0x93
 3853 0b09 04       		.uleb128 0x4
 3854 0b0a 93       		.byte	0x93
 3855 0b0b 08       		.uleb128 0x8
 3856 0b0c 70040000 		.4byte	.LVL87-.Ltext0
 3857 0b10 78040000 		.4byte	.LVL88-.Ltext0
 3858 0b14 0E00     		.2byte	0xe
 3859 0b16 90       		.byte	0x90
 3860 0b17 49       		.uleb128 0x49
 3861 0b18 93       		.byte	0x93
 3862 0b19 04       		.uleb128 0x4
 3863 0b1a 90       		.byte	0x90
 3864 0b1b 4C       		.uleb128 0x4c
 3865 0b1c 93       		.byte	0x93
 3866 0b1d 04       		.uleb128 0x4
 3867 0b1e 90       		.byte	0x90
 3868 0b1f 4E       		.uleb128 0x4e
 3869 0b20 93       		.byte	0x93
 3870 0b21 04       		.uleb128 0x4
 3871 0b22 93       		.byte	0x93
 3872 0b23 04       		.uleb128 0x4
ARM GAS  /tmp/ccOp4oY9.s 			page 69


 3873 0b24 78040000 		.4byte	.LVL88-.Ltext0
 3874 0b28 84040000 		.4byte	.LVL90-.Ltext0
 3875 0b2c 1000     		.2byte	0x10
 3876 0b2e 90       		.byte	0x90
 3877 0b2f 49       		.uleb128 0x49
 3878 0b30 93       		.byte	0x93
 3879 0b31 04       		.uleb128 0x4
 3880 0b32 90       		.byte	0x90
 3881 0b33 4C       		.uleb128 0x4c
 3882 0b34 93       		.byte	0x93
 3883 0b35 04       		.uleb128 0x4
 3884 0b36 90       		.byte	0x90
 3885 0b37 4E       		.uleb128 0x4e
 3886 0b38 93       		.byte	0x93
 3887 0b39 04       		.uleb128 0x4
 3888 0b3a 90       		.byte	0x90
 3889 0b3b 4F       		.uleb128 0x4f
 3890 0b3c 93       		.byte	0x93
 3891 0b3d 04       		.uleb128 0x4
 3892 0b3e 84040000 		.4byte	.LVL90-.Ltext0
 3893 0b42 90040000 		.4byte	.LVL91-.Ltext0
 3894 0b46 0E00     		.2byte	0xe
 3895 0b48 93       		.byte	0x93
 3896 0b49 04       		.uleb128 0x4
 3897 0b4a 90       		.byte	0x90
 3898 0b4b 4C       		.uleb128 0x4c
 3899 0b4c 93       		.byte	0x93
 3900 0b4d 04       		.uleb128 0x4
 3901 0b4e 90       		.byte	0x90
 3902 0b4f 4E       		.uleb128 0x4e
 3903 0b50 93       		.byte	0x93
 3904 0b51 04       		.uleb128 0x4
 3905 0b52 90       		.byte	0x90
 3906 0b53 4F       		.uleb128 0x4f
 3907 0b54 93       		.byte	0x93
 3908 0b55 04       		.uleb128 0x4
 3909 0b56 90040000 		.4byte	.LVL91-.Ltext0
 3910 0b5a 98040000 		.4byte	.LVL92-.Ltext0
 3911 0b5e 0A00     		.2byte	0xa
 3912 0b60 93       		.byte	0x93
 3913 0b61 08       		.uleb128 0x8
 3914 0b62 90       		.byte	0x90
 3915 0b63 4E       		.uleb128 0x4e
 3916 0b64 93       		.byte	0x93
 3917 0b65 04       		.uleb128 0x4
 3918 0b66 90       		.byte	0x90
 3919 0b67 4F       		.uleb128 0x4f
 3920 0b68 93       		.byte	0x93
 3921 0b69 04       		.uleb128 0x4
 3922 0b6a 98040000 		.4byte	.LVL92-.Ltext0
 3923 0b6e E6040000 		.4byte	.LVL98-.Ltext0
 3924 0b72 1400     		.2byte	0x14
 3925 0b74 93       		.byte	0x93
 3926 0b75 08       		.uleb128 0x8
 3927 0b76 90       		.byte	0x90
 3928 0b77 4E       		.uleb128 0x4e
 3929 0b78 93       		.byte	0x93
ARM GAS  /tmp/ccOp4oY9.s 			page 70


 3930 0b79 04       		.uleb128 0x4
 3931 0b7a F5       		.byte	0xf5
 3932 0b7b 45       		.uleb128 0x45
 3933 0b7c 21       		.uleb128 0x21
 3934 0b7d F5       		.byte	0xf5
 3935 0b7e 46       		.uleb128 0x46
 3936 0b7f 21       		.uleb128 0x21
 3937 0b80 1C       		.byte	0x1c
 3938 0b81 F5       		.byte	0xf5
 3939 0b82 44       		.uleb128 0x44
 3940 0b83 21       		.uleb128 0x21
 3941 0b84 1C       		.byte	0x1c
 3942 0b85 9F       		.byte	0x9f
 3943 0b86 93       		.byte	0x93
 3944 0b87 04       		.uleb128 0x4
 3945 0b88 BE050000 		.4byte	.LVL112-.Ltext0
 3946 0b8c E1050000 		.4byte	.LVL118-1-.Ltext0
 3947 0b90 0A00     		.2byte	0xa
 3948 0b92 90       		.byte	0x90
 3949 0b93 4D       		.uleb128 0x4d
 3950 0b94 93       		.byte	0x93
 3951 0b95 04       		.uleb128 0x4
 3952 0b96 90       		.byte	0x90
 3953 0b97 4F       		.uleb128 0x4f
 3954 0b98 93       		.byte	0x93
 3955 0b99 04       		.uleb128 0x4
 3956 0b9a 93       		.byte	0x93
 3957 0b9b 08       		.uleb128 0x8
 3958 0b9c 00000000 		.4byte	0
 3959 0ba0 00000000 		.4byte	0
 3960              	.LLST40:
 3961 0ba4 78040000 		.4byte	.LVL88-.Ltext0
 3962 0ba8 E6040000 		.4byte	.LVL98-.Ltext0
 3963 0bac 0200     		.2byte	0x2
 3964 0bae 90       		.byte	0x90
 3965 0baf 4B       		.uleb128 0x4b
 3966 0bb0 BE050000 		.4byte	.LVL112-.Ltext0
 3967 0bb4 C6050000 		.4byte	.LVL113-.Ltext0
 3968 0bb8 0200     		.2byte	0x2
 3969 0bba 90       		.byte	0x90
 3970 0bbb 46       		.uleb128 0x46
 3971 0bbc C6050000 		.4byte	.LVL113-.Ltext0
 3972 0bc0 E1050000 		.4byte	.LVL118-1-.Ltext0
 3973 0bc4 0200     		.2byte	0x2
 3974 0bc6 90       		.byte	0x90
 3975 0bc7 4B       		.uleb128 0x4b
 3976 0bc8 00000000 		.4byte	0
 3977 0bcc 00000000 		.4byte	0
 3978              	.LLST41:
 3979 0bd0 78040000 		.4byte	.LVL88-.Ltext0
 3980 0bd4 E6040000 		.4byte	.LVL98-.Ltext0
 3981 0bd8 0200     		.2byte	0x2
 3982 0bda 90       		.byte	0x90
 3983 0bdb 4D       		.uleb128 0x4d
 3984 0bdc C6050000 		.4byte	.LVL113-.Ltext0
 3985 0be0 CE050000 		.4byte	.LVL115-.Ltext0
 3986 0be4 0200     		.2byte	0x2
ARM GAS  /tmp/ccOp4oY9.s 			page 71


 3987 0be6 90       		.byte	0x90
 3988 0be7 4E       		.uleb128 0x4e
 3989 0be8 CE050000 		.4byte	.LVL115-.Ltext0
 3990 0bec DA050000 		.4byte	.LVL117-.Ltext0
 3991 0bf0 0200     		.2byte	0x2
 3992 0bf2 76       		.byte	0x76
 3993 0bf3 04       		.sleb128 4
 3994 0bf4 00000000 		.4byte	0
 3995 0bf8 00000000 		.4byte	0
 3996              	.LLST42:
 3997 0bfc F8020000 		.4byte	.LVL69-.Ltext0
 3998 0c00 F8030000 		.4byte	.LVL79-.Ltext0
 3999 0c04 0200     		.2byte	0x2
 4000 0c06 90       		.byte	0x90
 4001 0c07 40       		.uleb128 0x40
 4002 0c08 16050000 		.4byte	.LVL100-.Ltext0
 4003 0c0c 7A050000 		.4byte	.LVL105-.Ltext0
 4004 0c10 0200     		.2byte	0x2
 4005 0c12 90       		.byte	0x90
 4006 0c13 4B       		.uleb128 0x4b
 4007 0c14 00000000 		.4byte	0
 4008 0c18 00000000 		.4byte	0
 4009              	.LLST43:
 4010 0c1c 04030000 		.4byte	.LVL70-.Ltext0
 4011 0c20 6C040000 		.4byte	.LVL86-.Ltext0
 4012 0c24 0200     		.2byte	0x2
 4013 0c26 90       		.byte	0x90
 4014 0c27 47       		.uleb128 0x47
 4015 0c28 6C040000 		.4byte	.LVL86-.Ltext0
 4016 0c2c E6040000 		.4byte	.LVL98-.Ltext0
 4017 0c30 0200     		.2byte	0x2
 4018 0c32 90       		.byte	0x90
 4019 0c33 44       		.uleb128 0x44
 4020 0c34 22050000 		.4byte	.LVL101-.Ltext0
 4021 0c38 AC050000 		.4byte	.LVL110-.Ltext0
 4022 0c3c 0200     		.2byte	0x2
 4023 0c3e 90       		.byte	0x90
 4024 0c3f 4D       		.uleb128 0x4d
 4025 0c40 00000000 		.4byte	0
 4026 0c44 00000000 		.4byte	0
 4027              	.LLST44:
 4028 0c48 04030000 		.4byte	.LVL70-.Ltext0
 4029 0c4c 04040000 		.4byte	.LVL80-.Ltext0
 4030 0c50 0200     		.2byte	0x2
 4031 0c52 90       		.byte	0x90
 4032 0c53 50       		.uleb128 0x50
 4033 0c54 22050000 		.4byte	.LVL101-.Ltext0
 4034 0c58 76050000 		.4byte	.LVL104-.Ltext0
 4035 0c5c 0200     		.2byte	0x2
 4036 0c5e 90       		.byte	0x90
 4037 0c5f 4C       		.uleb128 0x4c
 4038 0c60 00000000 		.4byte	0
 4039 0c64 00000000 		.4byte	0
 4040              	.LLST45:
 4041 0c68 0C030000 		.4byte	.LVL71-.Ltext0
 4042 0c6c 6C040000 		.4byte	.LVL86-.Ltext0
 4043 0c70 0200     		.2byte	0x2
ARM GAS  /tmp/ccOp4oY9.s 			page 72


 4044 0c72 90       		.byte	0x90
 4045 0c73 4A       		.uleb128 0x4a
 4046 0c74 6C040000 		.4byte	.LVL86-.Ltext0
 4047 0c78 E6040000 		.4byte	.LVL98-.Ltext0
 4048 0c7c 0200     		.2byte	0x2
 4049 0c7e 90       		.byte	0x90
 4050 0c7f 43       		.uleb128 0x43
 4051 0c80 2A050000 		.4byte	.LVL102-.Ltext0
 4052 0c84 B4050000 		.4byte	.LVL111-.Ltext0
 4053 0c88 0200     		.2byte	0x2
 4054 0c8a 90       		.byte	0x90
 4055 0c8b 4E       		.uleb128 0x4e
 4056 0c8c 00000000 		.4byte	0
 4057 0c90 00000000 		.4byte	0
 4058              	.LLST46:
 4059 0c94 78040000 		.4byte	.LVL88-.Ltext0
 4060 0c98 84040000 		.4byte	.LVL90-.Ltext0
 4061 0c9c 0800     		.2byte	0x8
 4062 0c9e F5       		.byte	0xf5
 4063 0c9f 49       		.uleb128 0x49
 4064 0ca0 21       		.uleb128 0x21
 4065 0ca1 F5       		.byte	0xf5
 4066 0ca2 4B       		.uleb128 0x4b
 4067 0ca3 21       		.uleb128 0x21
 4068 0ca4 1E       		.byte	0x1e
 4069 0ca5 9F       		.byte	0x9f
 4070 0ca6 BE050000 		.4byte	.LVL112-.Ltext0
 4071 0caa C6050000 		.4byte	.LVL113-.Ltext0
 4072 0cae 0800     		.2byte	0x8
 4073 0cb0 F5       		.byte	0xf5
 4074 0cb1 4B       		.uleb128 0x4b
 4075 0cb2 21       		.uleb128 0x21
 4076 0cb3 F5       		.byte	0xf5
 4077 0cb4 46       		.uleb128 0x46
 4078 0cb5 21       		.uleb128 0x21
 4079 0cb6 1E       		.byte	0x1e
 4080 0cb7 9F       		.byte	0x9f
 4081 0cb8 C6050000 		.4byte	.LVL113-.Ltext0
 4082 0cbc E1050000 		.4byte	.LVL118-1-.Ltext0
 4083 0cc0 0800     		.2byte	0x8
 4084 0cc2 F5       		.byte	0xf5
 4085 0cc3 4D       		.uleb128 0x4d
 4086 0cc4 21       		.uleb128 0x21
 4087 0cc5 F5       		.byte	0xf5
 4088 0cc6 4B       		.uleb128 0x4b
 4089 0cc7 21       		.uleb128 0x21
 4090 0cc8 1E       		.byte	0x1e
 4091 0cc9 9F       		.byte	0x9f
 4092 0cca 00000000 		.4byte	0
 4093 0cce 00000000 		.4byte	0
 4094              	.LLST47:
 4095 0cd2 78040000 		.4byte	.LVL88-.Ltext0
 4096 0cd6 80040000 		.4byte	.LVL89-.Ltext0
 4097 0cda 0200     		.2byte	0x2
 4098 0cdc 90       		.byte	0x90
 4099 0cdd 47       		.uleb128 0x47
 4100 0cde 80040000 		.4byte	.LVL89-.Ltext0
ARM GAS  /tmp/ccOp4oY9.s 			page 73


 4101 0ce2 90040000 		.4byte	.LVL91-.Ltext0
 4102 0ce6 0800     		.2byte	0x8
 4103 0ce8 F5       		.byte	0xf5
 4104 0ce9 4C       		.uleb128 0x4c
 4105 0cea 21       		.uleb128 0x21
 4106 0ceb F5       		.byte	0xf5
 4107 0cec 4D       		.uleb128 0x4d
 4108 0ced 21       		.uleb128 0x21
 4109 0cee 1E       		.byte	0x1e
 4110 0cef 9F       		.byte	0x9f
 4111 0cf0 A8040000 		.4byte	.LVL94-.Ltext0
 4112 0cf4 E6040000 		.4byte	.LVL98-.Ltext0
 4113 0cf8 0800     		.2byte	0x8
 4114 0cfa F5       		.byte	0xf5
 4115 0cfb 4E       		.uleb128 0x4e
 4116 0cfc 21       		.uleb128 0x21
 4117 0cfd F5       		.byte	0xf5
 4118 0cfe 4B       		.uleb128 0x4b
 4119 0cff 21       		.uleb128 0x21
 4120 0d00 1E       		.byte	0x1e
 4121 0d01 9F       		.byte	0x9f
 4122 0d02 C6050000 		.4byte	.LVL113-.Ltext0
 4123 0d06 CA050000 		.4byte	.LVL114-.Ltext0
 4124 0d0a 0800     		.2byte	0x8
 4125 0d0c F5       		.byte	0xf5
 4126 0d0d 4F       		.uleb128 0x4f
 4127 0d0e 21       		.uleb128 0x21
 4128 0d0f F5       		.byte	0xf5
 4129 0d10 4E       		.uleb128 0x4e
 4130 0d11 21       		.uleb128 0x21
 4131 0d12 1E       		.byte	0x1e
 4132 0d13 9F       		.byte	0x9f
 4133 0d14 CA050000 		.4byte	.LVL114-.Ltext0
 4134 0d18 D2050000 		.4byte	.LVL116-.Ltext0
 4135 0d1c 0200     		.2byte	0x2
 4136 0d1e 90       		.byte	0x90
 4137 0d1f 4C       		.uleb128 0x4c
 4138 0d20 D2050000 		.4byte	.LVL116-.Ltext0
 4139 0d24 DA050000 		.4byte	.LVL117-.Ltext0
 4140 0d28 0A00     		.2byte	0xa
 4141 0d2a F5       		.byte	0xf5
 4142 0d2b 4F       		.uleb128 0x4f
 4143 0d2c 21       		.uleb128 0x21
 4144 0d2d 76       		.byte	0x76
 4145 0d2e 04       		.sleb128 4
 4146 0d2f F6       		.byte	0xf6
 4147 0d30 04       		.byte	0x4
 4148 0d31 21       		.uleb128 0x21
 4149 0d32 1E       		.byte	0x1e
 4150 0d33 9F       		.byte	0x9f
 4151 0d34 00000000 		.4byte	0
 4152 0d38 00000000 		.4byte	0
 4153              	.LLST48:
 4154 0d3c 78040000 		.4byte	.LVL88-.Ltext0
 4155 0d40 90040000 		.4byte	.LVL91-.Ltext0
 4156 0d44 0800     		.2byte	0x8
 4157 0d46 F5       		.byte	0xf5
ARM GAS  /tmp/ccOp4oY9.s 			page 74


 4158 0d47 4C       		.uleb128 0x4c
 4159 0d48 21       		.uleb128 0x21
 4160 0d49 F5       		.byte	0xf5
 4161 0d4a 4B       		.uleb128 0x4b
 4162 0d4b 21       		.uleb128 0x21
 4163 0d4c 1E       		.byte	0x1e
 4164 0d4d 9F       		.byte	0x9f
 4165 0d4e A8040000 		.4byte	.LVL94-.Ltext0
 4166 0d52 E6040000 		.4byte	.LVL98-.Ltext0
 4167 0d56 0800     		.2byte	0x8
 4168 0d58 F5       		.byte	0xf5
 4169 0d59 4E       		.uleb128 0x4e
 4170 0d5a 21       		.uleb128 0x21
 4171 0d5b F5       		.byte	0xf5
 4172 0d5c 4D       		.uleb128 0x4d
 4173 0d5d 21       		.uleb128 0x21
 4174 0d5e 1E       		.byte	0x1e
 4175 0d5f 9F       		.byte	0x9f
 4176 0d60 BE050000 		.4byte	.LVL112-.Ltext0
 4177 0d64 C6050000 		.4byte	.LVL113-.Ltext0
 4178 0d68 0800     		.2byte	0x8
 4179 0d6a F5       		.byte	0xf5
 4180 0d6b 4C       		.uleb128 0x4c
 4181 0d6c 21       		.uleb128 0x21
 4182 0d6d F5       		.byte	0xf5
 4183 0d6e 46       		.uleb128 0x46
 4184 0d6f 21       		.uleb128 0x21
 4185 0d70 1E       		.byte	0x1e
 4186 0d71 9F       		.byte	0x9f
 4187 0d72 C6050000 		.4byte	.LVL113-.Ltext0
 4188 0d76 E1050000 		.4byte	.LVL118-1-.Ltext0
 4189 0d7a 0800     		.2byte	0x8
 4190 0d7c F5       		.byte	0xf5
 4191 0d7d 4F       		.uleb128 0x4f
 4192 0d7e 21       		.uleb128 0x21
 4193 0d7f F5       		.byte	0xf5
 4194 0d80 4B       		.uleb128 0x4b
 4195 0d81 21       		.uleb128 0x21
 4196 0d82 1E       		.byte	0x1e
 4197 0d83 9F       		.byte	0x9f
 4198 0d84 00000000 		.4byte	0
 4199 0d88 00000000 		.4byte	0
 4200              	.LLST49:
 4201 0d8c 78040000 		.4byte	.LVL88-.Ltext0
 4202 0d90 84040000 		.4byte	.LVL90-.Ltext0
 4203 0d94 0800     		.2byte	0x8
 4204 0d96 F5       		.byte	0xf5
 4205 0d97 49       		.uleb128 0x49
 4206 0d98 21       		.uleb128 0x21
 4207 0d99 F5       		.byte	0xf5
 4208 0d9a 4D       		.uleb128 0x4d
 4209 0d9b 21       		.uleb128 0x21
 4210 0d9c 1E       		.byte	0x1e
 4211 0d9d 9F       		.byte	0x9f
 4212 0d9e C6050000 		.4byte	.LVL113-.Ltext0
 4213 0da2 CE050000 		.4byte	.LVL115-.Ltext0
 4214 0da6 0800     		.2byte	0x8
ARM GAS  /tmp/ccOp4oY9.s 			page 75


 4215 0da8 F5       		.byte	0xf5
 4216 0da9 4D       		.uleb128 0x4d
 4217 0daa 21       		.uleb128 0x21
 4218 0dab F5       		.byte	0xf5
 4219 0dac 4E       		.uleb128 0x4e
 4220 0dad 21       		.uleb128 0x21
 4221 0dae 1E       		.byte	0x1e
 4222 0daf 9F       		.byte	0x9f
 4223 0db0 CE050000 		.4byte	.LVL115-.Ltext0
 4224 0db4 DA050000 		.4byte	.LVL117-.Ltext0
 4225 0db8 0A00     		.2byte	0xa
 4226 0dba F5       		.byte	0xf5
 4227 0dbb 4D       		.uleb128 0x4d
 4228 0dbc 21       		.uleb128 0x21
 4229 0dbd 76       		.byte	0x76
 4230 0dbe 04       		.sleb128 4
 4231 0dbf F6       		.byte	0xf6
 4232 0dc0 04       		.byte	0x4
 4233 0dc1 21       		.uleb128 0x21
 4234 0dc2 1E       		.byte	0x1e
 4235 0dc3 9F       		.byte	0x9f
 4236 0dc4 00000000 		.4byte	0
 4237 0dc8 00000000 		.4byte	0
 4238              	.LLST50:
 4239 0dcc A2020000 		.4byte	.LVL60-.Ltext0
 4240 0dd0 A4020000 		.4byte	.LVL61-.Ltext0
 4241 0dd4 0500     		.2byte	0x5
 4242 0dd6 72       		.byte	0x72
 4243 0dd7 00       		.sleb128 0
 4244 0dd8 31       		.byte	0x31
 4245 0dd9 25       		.byte	0x25
 4246 0dda 9F       		.byte	0x9f
 4247 0ddb A4020000 		.4byte	.LVL61-.Ltext0
 4248 0ddf C2020000 		.4byte	.LVL64-.Ltext0
 4249 0de3 0100     		.2byte	0x1
 4250 0de5 52       		.byte	0x52
 4251 0de6 C2020000 		.4byte	.LVL64-.Ltext0
 4252 0dea A4030000 		.4byte	.LVL74-.Ltext0
 4253 0dee 0100     		.2byte	0x1
 4254 0df0 5B       		.byte	0x5b
 4255 0df1 A4030000 		.4byte	.LVL74-.Ltext0
 4256 0df5 AC040000 		.4byte	.LVL95-.Ltext0
 4257 0df9 0300     		.2byte	0x3
 4258 0dfb 7B       		.byte	0x7b
 4259 0dfc 01       		.sleb128 1
 4260 0dfd 9F       		.byte	0x9f
 4261 0dfe 00000000 		.4byte	0
 4262 0e02 00000000 		.4byte	0
 4263              	.LLST51:
 4264 0e06 20060000 		.4byte	.LVL125-.Ltext0
 4265 0e0a 50060000 		.4byte	.LVL128-.Ltext0
 4266 0e0e 0100     		.2byte	0x1
 4267 0e10 50       		.byte	0x50
 4268 0e11 50060000 		.4byte	.LVL128-.Ltext0
 4269 0e15 68060000 		.4byte	.LVL131-.Ltext0
 4270 0e19 0100     		.2byte	0x1
 4271 0e1b 56       		.byte	0x56
ARM GAS  /tmp/ccOp4oY9.s 			page 76


 4272 0e1c 68060000 		.4byte	.LVL131-.Ltext0
 4273 0e20 78060000 		.4byte	.LVL132-.Ltext0
 4274 0e24 0100     		.2byte	0x1
 4275 0e26 50       		.byte	0x50
 4276 0e27 78060000 		.4byte	.LVL132-.Ltext0
 4277 0e2b D2060000 		.4byte	.LVL141-.Ltext0
 4278 0e2f 0100     		.2byte	0x1
 4279 0e31 56       		.byte	0x56
 4280 0e32 D2060000 		.4byte	.LVL141-.Ltext0
 4281 0e36 D4060000 		.4byte	.LVL142-.Ltext0
 4282 0e3a 0100     		.2byte	0x1
 4283 0e3c 50       		.byte	0x50
 4284 0e3d D4060000 		.4byte	.LVL142-.Ltext0
 4285 0e41 DC060000 		.4byte	.LVL145-.Ltext0
 4286 0e45 0100     		.2byte	0x1
 4287 0e47 56       		.byte	0x56
 4288 0e48 DC060000 		.4byte	.LVL145-.Ltext0
 4289 0e4c 12070000 		.4byte	.LFE137-.Ltext0
 4290 0e50 0100     		.2byte	0x1
 4291 0e52 50       		.byte	0x50
 4292 0e53 00000000 		.4byte	0
 4293 0e57 00000000 		.4byte	0
 4294              	.LLST52:
 4295 0e5b 20060000 		.4byte	.LVL125-.Ltext0
 4296 0e5f 52060000 		.4byte	.LVL129-.Ltext0
 4297 0e63 0100     		.2byte	0x1
 4298 0e65 51       		.byte	0x51
 4299 0e66 52060000 		.4byte	.LVL129-.Ltext0
 4300 0e6a 68060000 		.4byte	.LVL131-.Ltext0
 4301 0e6e 0100     		.2byte	0x1
 4302 0e70 54       		.byte	0x54
 4303 0e71 68060000 		.4byte	.LVL131-.Ltext0
 4304 0e75 7A060000 		.4byte	.LVL133-.Ltext0
 4305 0e79 0100     		.2byte	0x1
 4306 0e7b 51       		.byte	0x51
 4307 0e7c 7A060000 		.4byte	.LVL133-.Ltext0
 4308 0e80 D2060000 		.4byte	.LVL141-.Ltext0
 4309 0e84 0100     		.2byte	0x1
 4310 0e86 54       		.byte	0x54
 4311 0e87 D2060000 		.4byte	.LVL141-.Ltext0
 4312 0e8b D6060000 		.4byte	.LVL143-.Ltext0
 4313 0e8f 0100     		.2byte	0x1
 4314 0e91 51       		.byte	0x51
 4315 0e92 D6060000 		.4byte	.LVL143-.Ltext0
 4316 0e96 DC060000 		.4byte	.LVL145-.Ltext0
 4317 0e9a 0100     		.2byte	0x1
 4318 0e9c 54       		.byte	0x54
 4319 0e9d DC060000 		.4byte	.LVL145-.Ltext0
 4320 0ea1 12070000 		.4byte	.LFE137-.Ltext0
 4321 0ea5 0100     		.2byte	0x1
 4322 0ea7 51       		.byte	0x51
 4323 0ea8 00000000 		.4byte	0
 4324 0eac 00000000 		.4byte	0
 4325              	.LLST53:
 4326 0eb0 20060000 		.4byte	.LVL125-.Ltext0
 4327 0eb4 32060000 		.4byte	.LVL127-.Ltext0
 4328 0eb8 0100     		.2byte	0x1
ARM GAS  /tmp/ccOp4oY9.s 			page 77


 4329 0eba 52       		.byte	0x52
 4330 0ebb 32060000 		.4byte	.LVL127-.Ltext0
 4331 0ebf DC060000 		.4byte	.LVL145-.Ltext0
 4332 0ec3 0400     		.2byte	0x4
 4333 0ec5 F3       		.byte	0xf3
 4334 0ec6 01       		.uleb128 0x1
 4335 0ec7 52       		.byte	0x52
 4336 0ec8 9F       		.byte	0x9f
 4337 0ec9 DC060000 		.4byte	.LVL145-.Ltext0
 4338 0ecd E4060000 		.4byte	.LVL147-.Ltext0
 4339 0ed1 0100     		.2byte	0x1
 4340 0ed3 52       		.byte	0x52
 4341 0ed4 E4060000 		.4byte	.LVL147-.Ltext0
 4342 0ed8 0A070000 		.4byte	.LVL152-.Ltext0
 4343 0edc 0400     		.2byte	0x4
 4344 0ede F3       		.byte	0xf3
 4345 0edf 01       		.uleb128 0x1
 4346 0ee0 52       		.byte	0x52
 4347 0ee1 9F       		.byte	0x9f
 4348 0ee2 0A070000 		.4byte	.LVL152-.Ltext0
 4349 0ee6 12070000 		.4byte	.LFE137-.Ltext0
 4350 0eea 0100     		.2byte	0x1
 4351 0eec 52       		.byte	0x52
 4352 0eed 00000000 		.4byte	0
 4353 0ef1 00000000 		.4byte	0
 4354              	.LLST54:
 4355 0ef5 20060000 		.4byte	.LVL125-.Ltext0
 4356 0ef9 32060000 		.4byte	.LVL127-.Ltext0
 4357 0efd 0100     		.2byte	0x1
 4358 0eff 53       		.byte	0x53
 4359 0f00 32060000 		.4byte	.LVL127-.Ltext0
 4360 0f04 DC060000 		.4byte	.LVL145-.Ltext0
 4361 0f08 0400     		.2byte	0x4
 4362 0f0a F3       		.byte	0xf3
 4363 0f0b 01       		.uleb128 0x1
 4364 0f0c 53       		.byte	0x53
 4365 0f0d 9F       		.byte	0x9f
 4366 0f0e DC060000 		.4byte	.LVL145-.Ltext0
 4367 0f12 E2060000 		.4byte	.LVL146-.Ltext0
 4368 0f16 0100     		.2byte	0x1
 4369 0f18 53       		.byte	0x53
 4370 0f19 E2060000 		.4byte	.LVL146-.Ltext0
 4371 0f1d 0A070000 		.4byte	.LVL152-.Ltext0
 4372 0f21 0400     		.2byte	0x4
 4373 0f23 F3       		.byte	0xf3
 4374 0f24 01       		.uleb128 0x1
 4375 0f25 53       		.byte	0x53
 4376 0f26 9F       		.byte	0x9f
 4377 0f27 0A070000 		.4byte	.LVL152-.Ltext0
 4378 0f2b 12070000 		.4byte	.LFE137-.Ltext0
 4379 0f2f 0100     		.2byte	0x1
 4380 0f31 53       		.byte	0x53
 4381 0f32 00000000 		.4byte	0
 4382 0f36 00000000 		.4byte	0
 4383              	.LLST55:
 4384 0f3a A2060000 		.4byte	.LVL136-.Ltext0
 4385 0f3e AC060000 		.4byte	.LVL137-.Ltext0
ARM GAS  /tmp/ccOp4oY9.s 			page 78


 4386 0f42 0200     		.2byte	0x2
 4387 0f44 30       		.byte	0x30
 4388 0f45 9F       		.byte	0x9f
 4389 0f46 AC060000 		.4byte	.LVL137-.Ltext0
 4390 0f4a AE060000 		.4byte	.LVL138-.Ltext0
 4391 0f4e 0100     		.2byte	0x1
 4392 0f50 53       		.byte	0x53
 4393 0f51 AE060000 		.4byte	.LVL138-.Ltext0
 4394 0f55 CC060000 		.4byte	.LVL140-.Ltext0
 4395 0f59 0300     		.2byte	0x3
 4396 0f5b 73       		.byte	0x73
 4397 0f5c 7F       		.sleb128 -1
 4398 0f5d 9F       		.byte	0x9f
 4399 0f5e CC060000 		.4byte	.LVL140-.Ltext0
 4400 0f62 D2060000 		.4byte	.LVL141-.Ltext0
 4401 0f66 0100     		.2byte	0x1
 4402 0f68 53       		.byte	0x53
 4403 0f69 DC060000 		.4byte	.LVL145-.Ltext0
 4404 0f6d E4060000 		.4byte	.LVL147-.Ltext0
 4405 0f71 0200     		.2byte	0x2
 4406 0f73 30       		.byte	0x30
 4407 0f74 9F       		.byte	0x9f
 4408 0f75 E4060000 		.4byte	.LVL147-.Ltext0
 4409 0f79 EA060000 		.4byte	.LVL148-.Ltext0
 4410 0f7d 0100     		.2byte	0x1
 4411 0f7f 52       		.byte	0x52
 4412 0f80 EA060000 		.4byte	.LVL148-.Ltext0
 4413 0f84 F4060000 		.4byte	.LVL149-.Ltext0
 4414 0f88 0300     		.2byte	0x3
 4415 0f8a 72       		.byte	0x72
 4416 0f8b 7F       		.sleb128 -1
 4417 0f8c 9F       		.byte	0x9f
 4418 0f8d F4060000 		.4byte	.LVL149-.Ltext0
 4419 0f91 FC060000 		.4byte	.LVL151-.Ltext0
 4420 0f95 0100     		.2byte	0x1
 4421 0f97 52       		.byte	0x52
 4422 0f98 0A070000 		.4byte	.LVL152-.Ltext0
 4423 0f9c 12070000 		.4byte	.LFE137-.Ltext0
 4424 0fa0 0200     		.2byte	0x2
 4425 0fa2 30       		.byte	0x30
 4426 0fa3 9F       		.byte	0x9f
 4427 0fa4 00000000 		.4byte	0
 4428 0fa8 00000000 		.4byte	0
 4429              	.LLST56:
 4430 0fac A2060000 		.4byte	.LVL136-.Ltext0
 4431 0fb0 D2060000 		.4byte	.LVL141-.Ltext0
 4432 0fb4 0200     		.2byte	0x2
 4433 0fb6 90       		.byte	0x90
 4434 0fb7 4D       		.uleb128 0x4d
 4435 0fb8 00000000 		.4byte	0
 4436 0fbc 00000000 		.4byte	0
 4437              	.LLST57:
 4438 0fc0 A2060000 		.4byte	.LVL136-.Ltext0
 4439 0fc4 AC060000 		.4byte	.LVL137-.Ltext0
 4440 0fc8 0100     		.2byte	0x1
 4441 0fca 54       		.byte	0x54
 4442 0fcb AC060000 		.4byte	.LVL137-.Ltext0
ARM GAS  /tmp/ccOp4oY9.s 			page 79


 4443 0fcf B4060000 		.4byte	.LVL139-.Ltext0
 4444 0fd3 0300     		.2byte	0x3
 4445 0fd5 71       		.byte	0x71
 4446 0fd6 7C       		.sleb128 -4
 4447 0fd7 9F       		.byte	0x9f
 4448 0fd8 B4060000 		.4byte	.LVL139-.Ltext0
 4449 0fdc CC060000 		.4byte	.LVL140-.Ltext0
 4450 0fe0 0300     		.2byte	0x3
 4451 0fe2 71       		.byte	0x71
 4452 0fe3 74       		.sleb128 -12
 4453 0fe4 9F       		.byte	0x9f
 4454 0fe5 DC060000 		.4byte	.LVL145-.Ltext0
 4455 0fe9 E4060000 		.4byte	.LVL147-.Ltext0
 4456 0fed 0300     		.2byte	0x3
 4457 0fef 71       		.byte	0x71
 4458 0ff0 04       		.sleb128 4
 4459 0ff1 9F       		.byte	0x9f
 4460 0ff2 E4060000 		.4byte	.LVL147-.Ltext0
 4461 0ff6 F4060000 		.4byte	.LVL149-.Ltext0
 4462 0ffa 0300     		.2byte	0x3
 4463 0ffc 73       		.byte	0x73
 4464 0ffd 78       		.sleb128 -8
 4465 0ffe 9F       		.byte	0x9f
 4466 0fff F4060000 		.4byte	.LVL149-.Ltext0
 4467 1003 F8060000 		.4byte	.LVL150-.Ltext0
 4468 1007 0100     		.2byte	0x1
 4469 1009 53       		.byte	0x53
 4470 100a F8060000 		.4byte	.LVL150-.Ltext0
 4471 100e FC060000 		.4byte	.LVL151-.Ltext0
 4472 1012 0300     		.2byte	0x3
 4473 1014 73       		.byte	0x73
 4474 1015 78       		.sleb128 -8
 4475 1016 9F       		.byte	0x9f
 4476 1017 0A070000 		.4byte	.LVL152-.Ltext0
 4477 101b 12070000 		.4byte	.LFE137-.Ltext0
 4478 101f 0300     		.2byte	0x3
 4479 1021 71       		.byte	0x71
 4480 1022 04       		.sleb128 4
 4481 1023 9F       		.byte	0x9f
 4482 1024 00000000 		.4byte	0
 4483 1028 00000000 		.4byte	0
 4484              		.section	.debug_aranges,"",%progbits
 4485 0000 1C000000 		.4byte	0x1c
 4486 0004 0200     		.2byte	0x2
 4487 0006 00000000 		.4byte	.Ldebug_info0
 4488 000a 04       		.byte	0x4
 4489 000b 00       		.byte	0
 4490 000c 0000     		.2byte	0
 4491 000e 0000     		.2byte	0
 4492 0010 00000000 		.4byte	.Ltext0
 4493 0014 12070000 		.4byte	.Letext0-.Ltext0
 4494 0018 00000000 		.4byte	0
 4495 001c 00000000 		.4byte	0
 4496              		.section	.debug_line,"",%progbits
 4497              	.Ldebug_line0:
 4498 0000 95070000 		.section	.debug_str,"MS",%progbits,1
 4498      02000602 
ARM GAS  /tmp/ccOp4oY9.s 			page 80


 4498      00000201 
 4498      FB0E0D00 
 4498      01010101 
 4499              	.LASF28:
 4500 0000 704D6964 		.ascii	"pMid1\000"
 4500      3100
 4501              	.LASF29:
 4502 0006 704D6964 		.ascii	"pMid2\000"
 4502      3200
 4503              	.LASF46:
 4504 000c 69666674 		.ascii	"ifftFlag\000"
 4504      466C6167 
 4504      00
 4505              	.LASF51:
 4506 0015 61726D5F 		.ascii	"arm_bitreversal_32\000"
 4506      62697472 
 4506      65766572 
 4506      73616C5F 
 4506      333200
 4507              	.LASF16:
 4508 0028 73697A65 		.ascii	"sizetype\000"
 4508      74797065 
 4508      00
 4509              	.LASF30:
 4510 0031 61726D5F 		.ascii	"arm_cfft_radix8by2_f32\000"
 4510      63666674 
 4510      5F726164 
 4510      69783862 
 4510      79325F66 
 4511              	.LASF24:
 4512 0048 62697452 		.ascii	"bitRevLength\000"
 4512      65764C65 
 4512      6E677468 
 4512      00
 4513              	.LASF8:
 4514 0055 5F5F7569 		.ascii	"__uint32_t\000"
 4514      6E743332 
 4514      5F7400
 4515              	.LASF5:
 4516 0060 5F5F7569 		.ascii	"__uint16_t\000"
 4516      6E743136 
 4516      5F7400
 4517              	.LASF3:
 4518 006b 73686F72 		.ascii	"short int\000"
 4518      7420696E 
 4518      7400
 4519              	.LASF23:
 4520 0075 70426974 		.ascii	"pBitRevTable\000"
 4520      52657654 
 4520      61626C65 
 4520      00
 4521              	.LASF13:
 4522 0082 75696E74 		.ascii	"uint8_t\000"
 4522      385F7400 
 4523              	.LASF50:
 4524 008a 61726D5F 		.ascii	"arm_radix8_butterfly_f32\000"
 4524      72616469 
ARM GAS  /tmp/ccOp4oY9.s 			page 81


 4524      78385F62 
 4524      75747465 
 4524      72666C79 
 4525              	.LASF53:
 4526 00a3 2F686F6D 		.ascii	"/home/sbcu/Dropbox/pcb-layouts/axo-on-discovery-boa"
 4526      652F7362 
 4526      63752F44 
 4526      726F7062 
 4526      6F782F70 
 4527 00d6 72642F61 		.ascii	"rd/axoloti/platform_linux/../CMSIS//DSP_Lib/Source/"
 4527      786F6C6F 
 4527      74692F70 
 4527      6C617466 
 4527      6F726D5F 
 4528 0109 5472616E 		.ascii	"TransformFunctions/arm_cfft_f32.c\000"
 4528      73666F72 
 4528      6D46756E 
 4528      6374696F 
 4528      6E732F61 
 4529              	.LASF34:
 4530 012b 70456E64 		.ascii	"pEnd1\000"
 4530      3100
 4531              	.LASF21:
 4532 0131 6666744C 		.ascii	"fftLen\000"
 4532      656E00
 4533              	.LASF0:
 4534 0138 666C6F61 		.ascii	"float\000"
 4534      7400
 4535              	.LASF22:
 4536 013e 70547769 		.ascii	"pTwiddle\000"
 4536      64646C65 
 4536      00
 4537              	.LASF10:
 4538 0147 6C6F6E67 		.ascii	"long long int\000"
 4538      206C6F6E 
 4538      6720696E 
 4538      7400
 4539              	.LASF7:
 4540 0155 6C6F6E67 		.ascii	"long int\000"
 4540      20696E74 
 4540      00
 4541              	.LASF36:
 4542 015e 70456E64 		.ascii	"pEnd3\000"
 4542      3300
 4543              	.LASF37:
 4544 0164 70456E64 		.ascii	"pEnd4\000"
 4544      3400
 4545              	.LASF20:
 4546 016a 666C6F61 		.ascii	"float32_t\000"
 4546      7433325F 
 4546      7400
 4547              	.LASF4:
 4548 0174 5F5F7569 		.ascii	"__uint8_t\000"
 4548      6E74385F 
 4548      7400
 4549              	.LASF19:
 4550 017e 6C6F6E67 		.ascii	"long double\000"
ARM GAS  /tmp/ccOp4oY9.s 			page 82


 4550      20646F75 
 4550      626C6500 
 4551              	.LASF2:
 4552 018a 756E7369 		.ascii	"unsigned char\000"
 4552      676E6564 
 4552      20636861 
 4552      7200
 4553              	.LASF1:
 4554 0198 7369676E 		.ascii	"signed char\000"
 4554      65642063 
 4554      68617200 
 4555              	.LASF11:
 4556 01a4 6C6F6E67 		.ascii	"long long unsigned int\000"
 4556      206C6F6E 
 4556      6720756E 
 4556      7369676E 
 4556      65642069 
 4557              	.LASF15:
 4558 01bb 75696E74 		.ascii	"uint32_t\000"
 4558      33325F74 
 4558      00
 4559              	.LASF12:
 4560 01c4 756E7369 		.ascii	"unsigned int\000"
 4560      676E6564 
 4560      20696E74 
 4560      00
 4561              	.LASF6:
 4562 01d1 73686F72 		.ascii	"short unsigned int\000"
 4562      7420756E 
 4562      7369676E 
 4562      65642069 
 4562      6E7400
 4563              	.LASF38:
 4564 01e4 70316170 		.ascii	"p1ap3_0\000"
 4564      335F3000 
 4565              	.LASF40:
 4566 01ec 70316170 		.ascii	"p1ap3_1\000"
 4566      335F3100 
 4567              	.LASF17:
 4568 01f4 63686172 		.ascii	"char\000"
 4568      00
 4569              	.LASF52:
 4570 01f9 474E5520 		.ascii	"GNU C 4.9.3 20150529 (release) [ARM/embedded-4_9-br"
 4570      4320342E 
 4570      392E3320 
 4570      32303135 
 4570      30353239 
 4571 022c 616E6368 		.ascii	"anch revision 224288] -mcpu=cortex-m4 -mfloat-abi=h"
 4571      20726576 
 4571      6973696F 
 4571      6E203232 
 4571      34323838 
 4572 025f 61726420 		.ascii	"ard -mfpu=fpv4-sp-d16 -mno-thumb-interwork -mthumb "
 4572      2D6D6670 
 4572      753D6670 
 4572      76342D73 
 4572      702D6431 
ARM GAS  /tmp/ccOp4oY9.s 			page 83


 4573 0292 2D676764 		.ascii	"-ggdb -O2 -fomit-frame-pointer -falign-functions=16"
 4573      62202D4F 
 4573      32202D66 
 4573      6F6D6974 
 4573      2D667261 
 4574 02c5 202D666E 		.ascii	" -fno-math-errno -fsingle-precision-constant\000"
 4574      6F2D6D61 
 4574      74682D65 
 4574      72726E6F 
 4574      202D6673 
 4575              	.LASF14:
 4576 02f2 75696E74 		.ascii	"uint16_t\000"
 4576      31365F74 
 4576      00
 4577              	.LASF9:
 4578 02fb 6C6F6E67 		.ascii	"long unsigned int\000"
 4578      20756E73 
 4578      69676E65 
 4578      6420696E 
 4578      7400
 4579              	.LASF42:
 4580 030d 74774D6F 		.ascii	"twMod2\000"
 4580      643200
 4581              	.LASF45:
 4582 0314 61726D5F 		.ascii	"arm_cfft_f32\000"
 4582      63666674 
 4582      5F663332 
 4582      00
 4583              	.LASF44:
 4584 0321 74774D6F 		.ascii	"twMod4\000"
 4584      643400
 4585              	.LASF31:
 4586 0328 61726D5F 		.ascii	"arm_cfft_radix8by4_f32\000"
 4586      63666674 
 4586      5F726164 
 4586      69783862 
 4586      79345F66 
 4587              	.LASF47:
 4588 033f 62697452 		.ascii	"bitReverseFlag\000"
 4588      65766572 
 4588      7365466C 
 4588      616700
 4589              	.LASF35:
 4590 034e 70456E64 		.ascii	"pEnd2\000"
 4590      3200
 4591              	.LASF26:
 4592 0354 70436F6C 		.ascii	"pCol1\000"
 4592      3100
 4593              	.LASF27:
 4594 035a 70436F6C 		.ascii	"pCol2\000"
 4594      3200
 4595              	.LASF32:
 4596 0360 70436F6C 		.ascii	"pCol3\000"
 4596      3300
 4597              	.LASF33:
 4598 0366 70436F6C 		.ascii	"pCol4\000"
 4598      3400
ARM GAS  /tmp/ccOp4oY9.s 			page 84


 4599              	.LASF43:
 4600 036c 74774D6F 		.ascii	"twMod3\000"
 4600      643300
 4601              	.LASF18:
 4602 0373 646F7562 		.ascii	"double\000"
 4602      6C6500
 4603              	.LASF49:
 4604 037a 70537263 		.ascii	"pSrc\000"
 4604      00
 4605              	.LASF25:
 4606 037f 61726D5F 		.ascii	"arm_cfft_instance_f32\000"
 4606      63666674 
 4606      5F696E73 
 4606      74616E63 
 4606      655F6633 
 4607              	.LASF39:
 4608 0395 70317370 		.ascii	"p1sp3_0\000"
 4608      335F3000 
 4609              	.LASF41:
 4610 039d 70317370 		.ascii	"p1sp3_1\000"
 4610      335F3100 
 4611              	.LASF48:
 4612 03a5 696E764C 		.ascii	"invL\000"
 4612      00
 4613              		.ident	"GCC: (GNU Tools for ARM Embedded Processors) 4.9.3 20150529 (release) [ARM/embedded-4_9-br
ARM GAS  /tmp/ccOp4oY9.s 			page 85


DEFINED SYMBOLS
                            *ABS*:00000000 arm_cfft_f32.c
     /tmp/ccOp4oY9.s:20     .text:00000000 $t
     /tmp/ccOp4oY9.s:26     .text:00000000 arm_cfft_radix8by2_f32
     /tmp/ccOp4oY9.s:302    .text:00000190 arm_cfft_radix8by4_f32
     /tmp/ccOp4oY9.s:1010   .text:00000620 arm_cfft_f32
                     .debug_frame:00000010 $d

UNDEFINED SYMBOLS
arm_radix8_butterfly_f32
arm_bitreversal_32
