ARM GAS  /tmp/cc9fwfYh.s 			page 1


   1              		.syntax unified
   2              		.cpu cortex-m4
   3              		.eabi_attribute 27, 1
   4              		.eabi_attribute 28, 1
   5              		.fpu fpv4-sp-d16
   6              		.eabi_attribute 20, 1
   7              		.eabi_attribute 21, 1
   8              		.eabi_attribute 23, 3
   9              		.eabi_attribute 24, 1
  10              		.eabi_attribute 25, 1
  11              		.eabi_attribute 26, 1
  12              		.eabi_attribute 30, 2
  13              		.eabi_attribute 34, 1
  14              		.eabi_attribute 18, 4
  15              		.thumb
  16              		.file	"arm_fir_decimate_q31.c"
  17              		.text
  18              	.Ltext0:
  19              		.cfi_sections	.debug_frame
  20              		.align	2
  21              		.p2align 4,,15
  22              		.global	arm_fir_decimate_q31
  23              		.thumb
  24              		.thumb_func
  25              		.type	arm_fir_decimate_q31, %function
  26              	arm_fir_decimate_q31:
  27              	.LFB135:
  28              		.file 1 "/home/sbcu/Dropbox/pcb-layouts/axo-on-discovery-board/axoloti/platform_linux/../CMSIS//DS
  29              		.loc 1 77 0
  30              		.cfi_startproc
  31              		@ args = 0, pretend = 0, frame = 32
  32              		@ frame_needed = 0, uses_anonymous_args = 0
  33              	.LVL0:
  34 0000 2DE9F04F 		push	{r4, r5, r6, r7, r8, r9, r10, fp, lr}
  35              		.cfi_def_cfa_offset 36
  36              		.cfi_offset 4, -36
  37              		.cfi_offset 5, -32
  38              		.cfi_offset 6, -28
  39              		.cfi_offset 7, -24
  40              		.cfi_offset 8, -20
  41              		.cfi_offset 9, -16
  42              		.cfi_offset 10, -12
  43              		.cfi_offset 11, -8
  44              		.cfi_offset 14, -4
  45 0004 8046     		mov	r8, r0
  46              		.loc 1 85 0
  47 0006 4088     		ldrh	r0, [r0, #2]
  48              	.LVL1:
  49              		.loc 1 78 0
  50 0008 D8F80840 		ldr	r4, [r8, #8]
  51              		.loc 1 79 0
  52 000c D8F80460 		ldr	r6, [r8, #4]
  53              		.loc 1 86 0
  54 0010 98F80050 		ldrb	r5, [r8]	@ zero_extendqisi2
  55 0014 B3FBF5F9 		udiv	r9, r3, r5
  56              		.loc 1 77 0
  57 0018 89B0     		sub	sp, sp, #36
ARM GAS  /tmp/cc9fwfYh.s 			page 2


  58              		.cfi_def_cfa_offset 72
  59              		.loc 1 95 0
  60 001a 00F1804C 		add	ip, r0, #1073741824
  61 001e 0CF1FF3C 		add	ip, ip, #-1
  62              		.loc 1 85 0
  63 0022 0790     		str	r0, [sp, #28]
  64              		.loc 1 78 0
  65 0024 0694     		str	r4, [sp, #24]
  66              	.LVL2:
  67              		.loc 1 79 0
  68 0026 0396     		str	r6, [sp, #12]
  69              	.LVL3:
  70              		.loc 1 95 0
  71 0028 04EB8C0C 		add	ip, r4, ip, lsl #2
  72              	.LVL4:
  73              		.loc 1 100 0
  74 002c B9F1000F 		cmp	r9, #0
  75 0030 72D0     		beq	.L14
  76 0032 4FEA900B 		lsr	fp, r0, #2
  77 0036 9246     		mov	r10, r2
  78              	.LVL5:
  79 0038 4FEA0B12 		lsl	r2, fp, #4
  80 003c 0492     		str	r2, [sp, #16]
  81 003e 00F00303 		and	r3, r0, #3
  82              	.LVL6:
  83 0042 B218     		adds	r2, r6, r2
  84 0044 0592     		str	r2, [sp, #20]
  85 0046 0293     		str	r3, [sp, #8]
  86 0048 A646     		mov	lr, r4
  87              	.LVL7:
  88              	.L8:
  89              		.loc 1 103 0
  90 004a 2B46     		mov	r3, r5
  91              	.LVL8:
  92 004c ACF10400 		sub	r0, ip, #4
  93 0050 0A46     		mov	r2, r1
  94              	.LVL9:
  95              	.L3:
  96              		.loc 1 107 0 discriminator 1
  97 0052 52F8044B 		ldr	r4, [r2], #4
  98              	.LVL10:
  99 0056 40F8044F 		str	r4, [r0, #4]!
 100              		.loc 1 109 0 discriminator 1
 101 005a 013B     		subs	r3, r3, #1
 102              	.LVL11:
 103 005c F9D1     		bne	.L3
 104 005e AD00     		lsls	r5, r5, #2
 105 0060 AC44     		add	ip, ip, r5
 106 0062 2944     		add	r1, r1, r5
 107              	.LVL12:
 108              		.loc 1 125 0
 109 0064 BBF1000F 		cmp	fp, #0
 110 0068 00F08B80 		beq	.L15
 111 006c 039B     		ldr	r3, [sp, #12]
 112              	.LVL13:
 113 006e CDF80090 		str	r9, [sp]
 114 0072 0026     		movs	r6, #0
ARM GAS  /tmp/cc9fwfYh.s 			page 3


 115 0074 0027     		movs	r7, #0
 116 0076 03F11004 		add	r4, r3, #16
 117 007a 0EF11000 		add	r0, lr, #16
 118 007e 5D46     		mov	r5, fp
 119 0080 3246     		mov	r2, r6
 120              	.LVL14:
 121 0082 3B46     		mov	r3, r7
 122 0084 CDF80480 		str	r8, [sp, #4]
 123              	.LVL15:
 124              	.L5:
 125              		.loc 1 128 0
 126 0088 54F8106C 		ldr	r6, [r4, #-16]
 127              	.LVL16:
 128              		.loc 1 131 0
 129 008c 50F8107C 		ldr	r7, [r0, #-16]
 130              	.LVL17:
 131              		.loc 1 134 0
 132 0090 C6FB0723 		smlal	r2, r3, r6, r7
 133              	.LVL18:
 134              		.loc 1 143 0
 135 0094 50F80C6C 		ldr	r6, [r0, #-12]
 136 0098 54F80C7C 		ldr	r7, [r4, #-12]
 137 009c C7FB0623 		smlal	r2, r3, r7, r6
 138              	.LVL19:
 139 00a0 9946     		mov	r9, r3
 140              		.loc 1 152 0
 141 00a2 10E94800 		ldmdb	r0, {r3, r6}
 142              		.loc 1 143 0
 143 00a6 9046     		mov	r8, r2
 144              	.LVL20:
 145              		.loc 1 152 0
 146 00a8 54F8082C 		ldr	r2, [r4, #-8]
 147              		.loc 1 155 0
 148 00ac 54F8047C 		ldr	r7, [r4, #-4]
 149              		.loc 1 152 0
 150 00b0 C2FB0389 		smlal	r8, r9, r2, r3
 151              	.LVL21:
 152 00b4 4246     		mov	r2, r8
 153 00b6 4B46     		mov	r3, r9
 154              	.LVL22:
 155              		.loc 1 125 0
 156 00b8 013D     		subs	r5, r5, #1
 157              	.LVL23:
 158 00ba 04F11004 		add	r4, r4, #16
 159              	.LVL24:
 160              		.loc 1 161 0
 161 00be C7FB0623 		smlal	r2, r3, r7, r6
 162              	.LVL25:
 163 00c2 00F11000 		add	r0, r0, #16
 164              		.loc 1 125 0
 165 00c6 DFD1     		bne	.L5
 166 00c8 1F46     		mov	r7, r3
 167              	.LVL26:
 168 00ca 049B     		ldr	r3, [sp, #16]
 169 00cc DDF80090 		ldr	r9, [sp]
 170 00d0 DDF80480 		ldr	r8, [sp, #4]
 171              		.loc 1 155 0
ARM GAS  /tmp/cc9fwfYh.s 			page 4


 172 00d4 059C     		ldr	r4, [sp, #20]
 173              	.LVL27:
 174 00d6 1646     		mov	r6, r2
 175              	.LVL28:
 176 00d8 0EEB0305 		add	r5, lr, r3
 177              	.LVL29:
 178              	.L4:
 179              		.loc 1 170 0
 180 00dc 029B     		ldr	r3, [sp, #8]
 181 00de 63B1     		cbz	r3, .L6
 182 00e0 1846     		mov	r0, r3
 183 00e2 3246     		mov	r2, r6
 184 00e4 3B46     		mov	r3, r7
 185              	.LVL30:
 186              	.L7:
 187              		.loc 1 173 0
 188 00e6 54F8046B 		ldr	r6, [r4], #4
 189              	.LVL31:
 190              		.loc 1 176 0
 191 00ea 55F8047B 		ldr	r7, [r5], #4
 192              	.LVL32:
 193              		.loc 1 170 0
 194 00ee 0138     		subs	r0, r0, #1
 195              	.LVL33:
 196              		.loc 1 179 0
 197 00f0 C6FB0723 		smlal	r2, r3, r6, r7
 198              	.LVL34:
 199              		.loc 1 170 0
 200 00f4 F7D1     		bne	.L7
 201 00f6 1646     		mov	r6, r2
 202              	.LVL35:
 203 00f8 1F46     		mov	r7, r3
 204              	.LVL36:
 205              	.L6:
 206              		.loc 1 187 0
 207 00fa 98F80000 		ldrb	r0, [r8]	@ zero_extendqisi2
 208              		.loc 1 190 0
 209 00fe F20F     		lsrs	r2, r6, #31
 210 0100 42EA4702 		orr	r2, r2, r7, lsl #1
 211              		.loc 1 100 0
 212 0104 B9F10109 		subs	r9, r9, #1
 213              		.loc 1 190 0
 214 0108 4AF8042B 		str	r2, [r10], #4
 215              	.LVL37:
 216              		.loc 1 187 0
 217 010c 0EEB800E 		add	lr, lr, r0, lsl #2
 218              	.LVL38:
 219              		.loc 1 100 0
 220 0110 04D0     		beq	.L2
 221 0112 98F80050 		ldrb	r5, [r8]	@ zero_extendqisi2
 222              	.LVL39:
 223 0116 98E7     		b	.L8
 224              	.LVL40:
 225              	.L14:
 226              		.loc 1 78 0
 227 0118 DDF818E0 		ldr	lr, [sp, #24]
 228              	.LVL41:
ARM GAS  /tmp/cc9fwfYh.s 			page 5


 229              	.L2:
 230              		.loc 1 203 0
 231 011c 079B     		ldr	r3, [sp, #28]
 232 011e 591E     		subs	r1, r3, #1
 233              	.LVL42:
 234              		.loc 1 206 0
 235 0120 8D08     		lsrs	r5, r1, #2
 236              	.LVL43:
 237 0122 20D0     		beq	.L9
 238 0124 069B     		ldr	r3, [sp, #24]
 239 0126 2846     		mov	r0, r5
 240 0128 03F11002 		add	r2, r3, #16
 241 012c 0EF11003 		add	r3, lr, #16
 242              	.LVL44:
 243              	.L10:
 244              		.loc 1 208 0
 245 0130 53F8104C 		ldr	r4, [r3, #-16]
 246 0134 42F8104C 		str	r4, [r2, #-16]
 247              	.LVL45:
 248              		.loc 1 209 0
 249 0138 53F80C4C 		ldr	r4, [r3, #-12]
 250 013c 42F80C4C 		str	r4, [r2, #-12]
 251              	.LVL46:
 252              		.loc 1 210 0
 253 0140 53F8084C 		ldr	r4, [r3, #-8]
 254 0144 42F8084C 		str	r4, [r2, #-8]
 255              	.LVL47:
 256              		.loc 1 211 0
 257 0148 53F8044C 		ldr	r4, [r3, #-4]
 258 014c 42F8044C 		str	r4, [r2, #-4]
 259              		.loc 1 206 0
 260 0150 0138     		subs	r0, r0, #1
 261              	.LVL48:
 262 0152 03F11003 		add	r3, r3, #16
 263              	.LVL49:
 264 0156 02F11002 		add	r2, r2, #16
 265 015a E9D1     		bne	.L10
 266 015c 069A     		ldr	r2, [sp, #24]
 267 015e 2B01     		lsls	r3, r5, #4
 268              	.LVL50:
 269 0160 1A44     		add	r2, r2, r3
 270 0162 0692     		str	r2, [sp, #24]
 271 0164 9E44     		add	lr, lr, r3
 272              	.LVL51:
 273              	.L9:
 274              		.loc 1 220 0
 275 0166 11F00303 		ands	r3, r1, #3
 276              	.LVL52:
 277 016a 07D0     		beq	.L1
 278 016c 069A     		ldr	r2, [sp, #24]
 279 016e 043A     		subs	r2, r2, #4
 280              	.LVL53:
 281              	.L12:
 282              		.loc 1 222 0
 283 0170 5EF8041B 		ldr	r1, [lr], #4
 284              	.LVL54:
 285 0174 42F8041F 		str	r1, [r2, #4]!
ARM GAS  /tmp/cc9fwfYh.s 			page 6


 286              		.loc 1 220 0
 287 0178 013B     		subs	r3, r3, #1
 288              	.LVL55:
 289 017a F9D1     		bne	.L12
 290              	.LVL56:
 291              	.L1:
 292              		.loc 1 307 0
 293 017c 09B0     		add	sp, sp, #36
 294              		.cfi_remember_state
 295              		.cfi_def_cfa_offset 36
 296              		@ sp needed
 297 017e BDE8F08F 		pop	{r4, r5, r6, r7, r8, r9, r10, fp, pc}
 298              	.LVL57:
 299              	.L15:
 300              		.cfi_restore_state
 301              		.loc 1 118 0
 302 0182 039C     		ldr	r4, [sp, #12]
 303              		.loc 1 125 0
 304 0184 7546     		mov	r5, lr
 305              		.loc 1 112 0
 306 0186 0026     		movs	r6, #0
 307 0188 0027     		movs	r7, #0
 308 018a A7E7     		b	.L4
 309              		.cfi_endproc
 310              	.LFE135:
 311              		.size	arm_fir_decimate_q31, .-arm_fir_decimate_q31
 312              	.Letext0:
 313              		.file 2 "/home/sbcu/Dropbox/pcb-layouts/axo-on-discovery-board/axoloti/platform_linux/arm-none-eab
 314              		.file 3 "/home/sbcu/Dropbox/pcb-layouts/axo-on-discovery-board/axoloti/platform_linux/arm-none-eab
 315              		.file 4 "/home/sbcu/Dropbox/pcb-layouts/axo-on-discovery-board/axoloti/platform_linux/../CMSIS//DS
 316              		.section	.debug_info,"",%progbits
 317              	.Ldebug_info0:
 318 0000 73020000 		.4byte	0x273
 319 0004 0400     		.2byte	0x4
 320 0006 00000000 		.4byte	.Ldebug_abbrev0
 321 000a 04       		.byte	0x4
 322 000b 01       		.uleb128 0x1
 323 000c 00000000 		.4byte	.LASF38
 324 0010 01       		.byte	0x1
 325 0011 98020000 		.4byte	.LASF39
 326 0015 00000000 		.4byte	.Ltext0
 327 0019 8C010000 		.4byte	.Letext0-.Ltext0
 328 001d 00000000 		.4byte	.Ldebug_line0
 329 0021 02       		.uleb128 0x2
 330 0022 01       		.byte	0x1
 331 0023 06       		.byte	0x6
 332 0024 87020000 		.4byte	.LASF0
 333 0028 03       		.uleb128 0x3
 334 0029 F9000000 		.4byte	.LASF3
 335 002d 02       		.byte	0x2
 336 002e 1D       		.byte	0x1d
 337 002f 33000000 		.4byte	0x33
 338 0033 02       		.uleb128 0x2
 339 0034 01       		.byte	0x1
 340 0035 08       		.byte	0x8
 341 0036 33010000 		.4byte	.LASF1
 342 003a 02       		.uleb128 0x2
ARM GAS  /tmp/cc9fwfYh.s 			page 7


 343 003b 02       		.byte	0x2
 344 003c 05       		.byte	0x5
 345 003d 3B020000 		.4byte	.LASF2
 346 0041 03       		.uleb128 0x3
 347 0042 4D020000 		.4byte	.LASF4
 348 0046 02       		.byte	0x2
 349 0047 2B       		.byte	0x2b
 350 0048 4C000000 		.4byte	0x4c
 351 004c 02       		.uleb128 0x2
 352 004d 02       		.byte	0x2
 353 004e 07       		.byte	0x7
 354 004f 5A010000 		.4byte	.LASF5
 355 0053 03       		.uleb128 0x3
 356 0054 03010000 		.4byte	.LASF6
 357 0058 02       		.byte	0x2
 358 0059 3F       		.byte	0x3f
 359 005a 5E000000 		.4byte	0x5e
 360 005e 02       		.uleb128 0x2
 361 005f 04       		.byte	0x4
 362 0060 05       		.byte	0x5
 363 0061 72020000 		.4byte	.LASF7
 364 0065 03       		.uleb128 0x3
 365 0066 A8010000 		.4byte	.LASF8
 366 006a 02       		.byte	0x2
 367 006b 41       		.byte	0x41
 368 006c 70000000 		.4byte	0x70
 369 0070 02       		.uleb128 0x2
 370 0071 04       		.byte	0x4
 371 0072 07       		.byte	0x7
 372 0073 48010000 		.4byte	.LASF9
 373 0077 03       		.uleb128 0x3
 374 0078 90010000 		.4byte	.LASF10
 375 007c 02       		.byte	0x2
 376 007d 59       		.byte	0x59
 377 007e 82000000 		.4byte	0x82
 378 0082 02       		.uleb128 0x2
 379 0083 08       		.byte	0x8
 380 0084 05       		.byte	0x5
 381 0085 0A020000 		.4byte	.LASF11
 382 0089 02       		.uleb128 0x2
 383 008a 08       		.byte	0x8
 384 008b 07       		.byte	0x7
 385 008c CC010000 		.4byte	.LASF12
 386 0090 04       		.uleb128 0x4
 387 0091 04       		.byte	0x4
 388 0092 05       		.byte	0x5
 389 0093 696E7400 		.ascii	"int\000"
 390 0097 02       		.uleb128 0x2
 391 0098 04       		.byte	0x4
 392 0099 07       		.byte	0x7
 393 009a BF010000 		.4byte	.LASF13
 394 009e 03       		.uleb128 0x3
 395 009f E3010000 		.4byte	.LASF14
 396 00a3 03       		.byte	0x3
 397 00a4 14       		.byte	0x14
 398 00a5 28000000 		.4byte	0x28
 399 00a9 03       		.uleb128 0x3
ARM GAS  /tmp/cc9fwfYh.s 			page 8


 400 00aa 58020000 		.4byte	.LASF15
 401 00ae 03       		.byte	0x3
 402 00af 1A       		.byte	0x1a
 403 00b0 41000000 		.4byte	0x41
 404 00b4 03       		.uleb128 0x3
 405 00b5 F1010000 		.4byte	.LASF16
 406 00b9 03       		.byte	0x3
 407 00ba 1F       		.byte	0x1f
 408 00bb 53000000 		.4byte	0x53
 409 00bf 03       		.uleb128 0x3
 410 00c0 69020000 		.4byte	.LASF17
 411 00c4 03       		.byte	0x3
 412 00c5 20       		.byte	0x20
 413 00c6 65000000 		.4byte	0x65
 414 00ca 03       		.uleb128 0x3
 415 00cb 02020000 		.4byte	.LASF18
 416 00cf 03       		.byte	0x3
 417 00d0 25       		.byte	0x25
 418 00d1 77000000 		.4byte	0x77
 419 00d5 02       		.uleb128 0x2
 420 00d6 04       		.byte	0x4
 421 00d7 07       		.byte	0x7
 422 00d8 F9010000 		.4byte	.LASF19
 423 00dc 02       		.uleb128 0x2
 424 00dd 01       		.byte	0x1
 425 00de 08       		.byte	0x8
 426 00df 29020000 		.4byte	.LASF20
 427 00e3 02       		.uleb128 0x2
 428 00e4 08       		.byte	0x8
 429 00e5 04       		.byte	0x4
 430 00e6 A1010000 		.4byte	.LASF21
 431 00ea 02       		.uleb128 0x2
 432 00eb 04       		.byte	0x4
 433 00ec 04       		.byte	0x4
 434 00ed 27010000 		.4byte	.LASF22
 435 00f1 02       		.uleb128 0x2
 436 00f2 08       		.byte	0x8
 437 00f3 04       		.byte	0x4
 438 00f4 7B020000 		.4byte	.LASF23
 439 00f8 05       		.uleb128 0x5
 440 00f9 2D010000 		.4byte	.LASF24
 441 00fd 04       		.byte	0x4
 442 00fe A001     		.2byte	0x1a0
 443 0100 B4000000 		.4byte	0xb4
 444 0104 05       		.uleb128 0x5
 445 0105 EB010000 		.4byte	.LASF25
 446 0109 04       		.byte	0x4
 447 010a A501     		.2byte	0x1a5
 448 010c CA000000 		.4byte	0xca
 449 0110 06       		.uleb128 0x6
 450 0111 04       		.byte	0x4
 451 0112 F8000000 		.4byte	0xf8
 452 0116 07       		.uleb128 0x7
 453 0117 0C       		.byte	0xc
 454 0118 04       		.byte	0x4
 455 0119 160D     		.2byte	0xd16
 456 011b 52010000 		.4byte	0x152
ARM GAS  /tmp/cc9fwfYh.s 			page 9


 457 011f 08       		.uleb128 0x8
 458 0120 4D00     		.ascii	"M\000"
 459 0122 04       		.byte	0x4
 460 0123 180D     		.2byte	0xd18
 461 0125 9E000000 		.4byte	0x9e
 462 0129 00       		.byte	0
 463 012a 09       		.uleb128 0x9
 464 012b 45020000 		.4byte	.LASF26
 465 012f 04       		.byte	0x4
 466 0130 190D     		.2byte	0xd19
 467 0132 A9000000 		.4byte	0xa9
 468 0136 02       		.byte	0x2
 469 0137 09       		.uleb128 0x9
 470 0138 61020000 		.4byte	.LASF27
 471 013c 04       		.byte	0x4
 472 013d 1A0D     		.2byte	0xd1a
 473 013f 10010000 		.4byte	0x110
 474 0143 04       		.byte	0x4
 475 0144 09       		.uleb128 0x9
 476 0145 22020000 		.4byte	.LASF28
 477 0149 04       		.byte	0x4
 478 014a 1B0D     		.2byte	0xd1b
 479 014c 10010000 		.4byte	0x110
 480 0150 08       		.byte	0x8
 481 0151 00       		.byte	0
 482 0152 05       		.uleb128 0x5
 483 0153 72010000 		.4byte	.LASF29
 484 0157 04       		.byte	0x4
 485 0158 1C0D     		.2byte	0xd1c
 486 015a 16010000 		.4byte	0x116
 487 015e 0A       		.uleb128 0xa
 488 015f 12010000 		.4byte	.LASF40
 489 0163 01       		.byte	0x1
 490 0164 48       		.byte	0x48
 491 0165 00000000 		.4byte	.LFB135
 492 0169 8C010000 		.4byte	.LFE135-.LFB135
 493 016d 01       		.uleb128 0x1
 494 016e 9C       		.byte	0x9c
 495 016f 6B020000 		.4byte	0x26b
 496 0173 0B       		.uleb128 0xb
 497 0174 5300     		.ascii	"S\000"
 498 0176 01       		.byte	0x1
 499 0177 49       		.byte	0x49
 500 0178 6B020000 		.4byte	0x26b
 501 017c 00000000 		.4byte	.LLST0
 502 0180 0C       		.uleb128 0xc
 503 0181 93020000 		.4byte	.LASF30
 504 0185 01       		.byte	0x1
 505 0186 4A       		.byte	0x4a
 506 0187 10010000 		.4byte	0x110
 507 018b 45000000 		.4byte	.LLST1
 508 018f 0C       		.uleb128 0xc
 509 0190 6D010000 		.4byte	.LASF31
 510 0194 01       		.byte	0x1
 511 0195 4B       		.byte	0x4b
 512 0196 10010000 		.4byte	0x110
 513 019a 88000000 		.4byte	.LLST2
ARM GAS  /tmp/cc9fwfYh.s 			page 10


 514 019e 0C       		.uleb128 0xc
 515 019f 18020000 		.4byte	.LASF32
 516 01a3 01       		.byte	0x1
 517 01a4 4C       		.byte	0x4c
 518 01a5 BF000000 		.4byte	0xbf
 519 01a9 D4000000 		.4byte	.LLST3
 520 01ad 0D       		.uleb128 0xd
 521 01ae 22020000 		.4byte	.LASF28
 522 01b2 01       		.byte	0x1
 523 01b3 4E       		.byte	0x4e
 524 01b4 10010000 		.4byte	0x110
 525 01b8 0E010000 		.4byte	.LLST4
 526 01bc 0D       		.uleb128 0xd
 527 01bd 61020000 		.4byte	.LASF27
 528 01c1 01       		.byte	0x1
 529 01c2 4F       		.byte	0x4f
 530 01c3 10010000 		.4byte	0x110
 531 01c7 8C010000 		.4byte	.LLST5
 532 01cb 0D       		.uleb128 0xd
 533 01cc B3010000 		.4byte	.LASF33
 534 01d0 01       		.byte	0x1
 535 01d1 50       		.byte	0x50
 536 01d2 10010000 		.4byte	0x110
 537 01d6 C2010000 		.4byte	.LLST6
 538 01da 0E       		.uleb128 0xe
 539 01db 783000   		.ascii	"x0\000"
 540 01de 01       		.byte	0x1
 541 01df 51       		.byte	0x51
 542 01e0 F8000000 		.4byte	0xf8
 543 01e4 08020000 		.4byte	.LLST7
 544 01e8 0E       		.uleb128 0xe
 545 01e9 633000   		.ascii	"c0\000"
 546 01ec 01       		.byte	0x1
 547 01ed 51       		.byte	0x51
 548 01ee F8000000 		.4byte	0xf8
 549 01f2 54020000 		.4byte	.LLST8
 550 01f6 0E       		.uleb128 0xe
 551 01f7 707800   		.ascii	"px\000"
 552 01fa 01       		.byte	0x1
 553 01fb 52       		.byte	0x52
 554 01fc 10010000 		.4byte	0x110
 555 0200 AD020000 		.4byte	.LLST9
 556 0204 0E       		.uleb128 0xe
 557 0205 706200   		.ascii	"pb\000"
 558 0208 01       		.byte	0x1
 559 0209 53       		.byte	0x53
 560 020a 10010000 		.4byte	0x110
 561 020e EE020000 		.4byte	.LLST10
 562 0212 0D       		.uleb128 0xd
 563 0213 0D010000 		.4byte	.LASF34
 564 0217 01       		.byte	0x1
 565 0218 54       		.byte	0x54
 566 0219 04010000 		.4byte	0x104
 567 021d 58030000 		.4byte	.LLST11
 568 0221 0D       		.uleb128 0xd
 569 0222 45020000 		.4byte	.LASF26
 570 0226 01       		.byte	0x1
ARM GAS  /tmp/cc9fwfYh.s 			page 11


 571 0227 55       		.byte	0x55
 572 0228 BF000000 		.4byte	0xbf
 573 022c D8030000 		.4byte	.LLST12
 574 0230 0E       		.uleb128 0xe
 575 0231 6900     		.ascii	"i\000"
 576 0233 01       		.byte	0x1
 577 0234 56       		.byte	0x56
 578 0235 BF000000 		.4byte	0xbf
 579 0239 0E040000 		.4byte	.LLST13
 580 023d 0D       		.uleb128 0xd
 581 023e 9A010000 		.4byte	.LASF35
 582 0242 01       		.byte	0x1
 583 0243 56       		.byte	0x56
 584 0244 BF000000 		.4byte	0xbf
 585 0248 A8040000 		.4byte	.LLST14
 586 024c 0D       		.uleb128 0xd
 587 024d 41010000 		.4byte	.LASF36
 588 0251 01       		.byte	0x1
 589 0252 56       		.byte	0x56
 590 0253 BF000000 		.4byte	0xbf
 591 0257 02050000 		.4byte	.LLST15
 592 025b 0D       		.uleb128 0xd
 593 025c 2E020000 		.4byte	.LASF37
 594 0260 01       		.byte	0x1
 595 0261 56       		.byte	0x56
 596 0262 BF000000 		.4byte	0xbf
 597 0266 37050000 		.4byte	.LLST16
 598 026a 00       		.byte	0
 599 026b 06       		.uleb128 0x6
 600 026c 04       		.byte	0x4
 601 026d 71020000 		.4byte	0x271
 602 0271 0F       		.uleb128 0xf
 603 0272 52010000 		.4byte	0x152
 604 0276 00       		.byte	0
 605              		.section	.debug_abbrev,"",%progbits
 606              	.Ldebug_abbrev0:
 607 0000 01       		.uleb128 0x1
 608 0001 11       		.uleb128 0x11
 609 0002 01       		.byte	0x1
 610 0003 25       		.uleb128 0x25
 611 0004 0E       		.uleb128 0xe
 612 0005 13       		.uleb128 0x13
 613 0006 0B       		.uleb128 0xb
 614 0007 03       		.uleb128 0x3
 615 0008 0E       		.uleb128 0xe
 616 0009 11       		.uleb128 0x11
 617 000a 01       		.uleb128 0x1
 618 000b 12       		.uleb128 0x12
 619 000c 06       		.uleb128 0x6
 620 000d 10       		.uleb128 0x10
 621 000e 17       		.uleb128 0x17
 622 000f 00       		.byte	0
 623 0010 00       		.byte	0
 624 0011 02       		.uleb128 0x2
 625 0012 24       		.uleb128 0x24
 626 0013 00       		.byte	0
 627 0014 0B       		.uleb128 0xb
ARM GAS  /tmp/cc9fwfYh.s 			page 12


 628 0015 0B       		.uleb128 0xb
 629 0016 3E       		.uleb128 0x3e
 630 0017 0B       		.uleb128 0xb
 631 0018 03       		.uleb128 0x3
 632 0019 0E       		.uleb128 0xe
 633 001a 00       		.byte	0
 634 001b 00       		.byte	0
 635 001c 03       		.uleb128 0x3
 636 001d 16       		.uleb128 0x16
 637 001e 00       		.byte	0
 638 001f 03       		.uleb128 0x3
 639 0020 0E       		.uleb128 0xe
 640 0021 3A       		.uleb128 0x3a
 641 0022 0B       		.uleb128 0xb
 642 0023 3B       		.uleb128 0x3b
 643 0024 0B       		.uleb128 0xb
 644 0025 49       		.uleb128 0x49
 645 0026 13       		.uleb128 0x13
 646 0027 00       		.byte	0
 647 0028 00       		.byte	0
 648 0029 04       		.uleb128 0x4
 649 002a 24       		.uleb128 0x24
 650 002b 00       		.byte	0
 651 002c 0B       		.uleb128 0xb
 652 002d 0B       		.uleb128 0xb
 653 002e 3E       		.uleb128 0x3e
 654 002f 0B       		.uleb128 0xb
 655 0030 03       		.uleb128 0x3
 656 0031 08       		.uleb128 0x8
 657 0032 00       		.byte	0
 658 0033 00       		.byte	0
 659 0034 05       		.uleb128 0x5
 660 0035 16       		.uleb128 0x16
 661 0036 00       		.byte	0
 662 0037 03       		.uleb128 0x3
 663 0038 0E       		.uleb128 0xe
 664 0039 3A       		.uleb128 0x3a
 665 003a 0B       		.uleb128 0xb
 666 003b 3B       		.uleb128 0x3b
 667 003c 05       		.uleb128 0x5
 668 003d 49       		.uleb128 0x49
 669 003e 13       		.uleb128 0x13
 670 003f 00       		.byte	0
 671 0040 00       		.byte	0
 672 0041 06       		.uleb128 0x6
 673 0042 0F       		.uleb128 0xf
 674 0043 00       		.byte	0
 675 0044 0B       		.uleb128 0xb
 676 0045 0B       		.uleb128 0xb
 677 0046 49       		.uleb128 0x49
 678 0047 13       		.uleb128 0x13
 679 0048 00       		.byte	0
 680 0049 00       		.byte	0
 681 004a 07       		.uleb128 0x7
 682 004b 13       		.uleb128 0x13
 683 004c 01       		.byte	0x1
 684 004d 0B       		.uleb128 0xb
ARM GAS  /tmp/cc9fwfYh.s 			page 13


 685 004e 0B       		.uleb128 0xb
 686 004f 3A       		.uleb128 0x3a
 687 0050 0B       		.uleb128 0xb
 688 0051 3B       		.uleb128 0x3b
 689 0052 05       		.uleb128 0x5
 690 0053 01       		.uleb128 0x1
 691 0054 13       		.uleb128 0x13
 692 0055 00       		.byte	0
 693 0056 00       		.byte	0
 694 0057 08       		.uleb128 0x8
 695 0058 0D       		.uleb128 0xd
 696 0059 00       		.byte	0
 697 005a 03       		.uleb128 0x3
 698 005b 08       		.uleb128 0x8
 699 005c 3A       		.uleb128 0x3a
 700 005d 0B       		.uleb128 0xb
 701 005e 3B       		.uleb128 0x3b
 702 005f 05       		.uleb128 0x5
 703 0060 49       		.uleb128 0x49
 704 0061 13       		.uleb128 0x13
 705 0062 38       		.uleb128 0x38
 706 0063 0B       		.uleb128 0xb
 707 0064 00       		.byte	0
 708 0065 00       		.byte	0
 709 0066 09       		.uleb128 0x9
 710 0067 0D       		.uleb128 0xd
 711 0068 00       		.byte	0
 712 0069 03       		.uleb128 0x3
 713 006a 0E       		.uleb128 0xe
 714 006b 3A       		.uleb128 0x3a
 715 006c 0B       		.uleb128 0xb
 716 006d 3B       		.uleb128 0x3b
 717 006e 05       		.uleb128 0x5
 718 006f 49       		.uleb128 0x49
 719 0070 13       		.uleb128 0x13
 720 0071 38       		.uleb128 0x38
 721 0072 0B       		.uleb128 0xb
 722 0073 00       		.byte	0
 723 0074 00       		.byte	0
 724 0075 0A       		.uleb128 0xa
 725 0076 2E       		.uleb128 0x2e
 726 0077 01       		.byte	0x1
 727 0078 3F       		.uleb128 0x3f
 728 0079 19       		.uleb128 0x19
 729 007a 03       		.uleb128 0x3
 730 007b 0E       		.uleb128 0xe
 731 007c 3A       		.uleb128 0x3a
 732 007d 0B       		.uleb128 0xb
 733 007e 3B       		.uleb128 0x3b
 734 007f 0B       		.uleb128 0xb
 735 0080 27       		.uleb128 0x27
 736 0081 19       		.uleb128 0x19
 737 0082 11       		.uleb128 0x11
 738 0083 01       		.uleb128 0x1
 739 0084 12       		.uleb128 0x12
 740 0085 06       		.uleb128 0x6
 741 0086 40       		.uleb128 0x40
ARM GAS  /tmp/cc9fwfYh.s 			page 14


 742 0087 18       		.uleb128 0x18
 743 0088 9742     		.uleb128 0x2117
 744 008a 19       		.uleb128 0x19
 745 008b 01       		.uleb128 0x1
 746 008c 13       		.uleb128 0x13
 747 008d 00       		.byte	0
 748 008e 00       		.byte	0
 749 008f 0B       		.uleb128 0xb
 750 0090 05       		.uleb128 0x5
 751 0091 00       		.byte	0
 752 0092 03       		.uleb128 0x3
 753 0093 08       		.uleb128 0x8
 754 0094 3A       		.uleb128 0x3a
 755 0095 0B       		.uleb128 0xb
 756 0096 3B       		.uleb128 0x3b
 757 0097 0B       		.uleb128 0xb
 758 0098 49       		.uleb128 0x49
 759 0099 13       		.uleb128 0x13
 760 009a 02       		.uleb128 0x2
 761 009b 17       		.uleb128 0x17
 762 009c 00       		.byte	0
 763 009d 00       		.byte	0
 764 009e 0C       		.uleb128 0xc
 765 009f 05       		.uleb128 0x5
 766 00a0 00       		.byte	0
 767 00a1 03       		.uleb128 0x3
 768 00a2 0E       		.uleb128 0xe
 769 00a3 3A       		.uleb128 0x3a
 770 00a4 0B       		.uleb128 0xb
 771 00a5 3B       		.uleb128 0x3b
 772 00a6 0B       		.uleb128 0xb
 773 00a7 49       		.uleb128 0x49
 774 00a8 13       		.uleb128 0x13
 775 00a9 02       		.uleb128 0x2
 776 00aa 17       		.uleb128 0x17
 777 00ab 00       		.byte	0
 778 00ac 00       		.byte	0
 779 00ad 0D       		.uleb128 0xd
 780 00ae 34       		.uleb128 0x34
 781 00af 00       		.byte	0
 782 00b0 03       		.uleb128 0x3
 783 00b1 0E       		.uleb128 0xe
 784 00b2 3A       		.uleb128 0x3a
 785 00b3 0B       		.uleb128 0xb
 786 00b4 3B       		.uleb128 0x3b
 787 00b5 0B       		.uleb128 0xb
 788 00b6 49       		.uleb128 0x49
 789 00b7 13       		.uleb128 0x13
 790 00b8 02       		.uleb128 0x2
 791 00b9 17       		.uleb128 0x17
 792 00ba 00       		.byte	0
 793 00bb 00       		.byte	0
 794 00bc 0E       		.uleb128 0xe
 795 00bd 34       		.uleb128 0x34
 796 00be 00       		.byte	0
 797 00bf 03       		.uleb128 0x3
 798 00c0 08       		.uleb128 0x8
ARM GAS  /tmp/cc9fwfYh.s 			page 15


 799 00c1 3A       		.uleb128 0x3a
 800 00c2 0B       		.uleb128 0xb
 801 00c3 3B       		.uleb128 0x3b
 802 00c4 0B       		.uleb128 0xb
 803 00c5 49       		.uleb128 0x49
 804 00c6 13       		.uleb128 0x13
 805 00c7 02       		.uleb128 0x2
 806 00c8 17       		.uleb128 0x17
 807 00c9 00       		.byte	0
 808 00ca 00       		.byte	0
 809 00cb 0F       		.uleb128 0xf
 810 00cc 26       		.uleb128 0x26
 811 00cd 00       		.byte	0
 812 00ce 49       		.uleb128 0x49
 813 00cf 13       		.uleb128 0x13
 814 00d0 00       		.byte	0
 815 00d1 00       		.byte	0
 816 00d2 00       		.byte	0
 817              		.section	.debug_loc,"",%progbits
 818              	.Ldebug_loc0:
 819              	.LLST0:
 820 0000 00000000 		.4byte	.LVL0-.Ltext0
 821 0004 08000000 		.4byte	.LVL1-.Ltext0
 822 0008 0100     		.2byte	0x1
 823 000a 50       		.byte	0x50
 824 000b 08000000 		.4byte	.LVL1-.Ltext0
 825 000f 4A000000 		.4byte	.LVL7-.Ltext0
 826 0013 0100     		.2byte	0x1
 827 0015 58       		.byte	0x58
 828 0016 4A000000 		.4byte	.LVL7-.Ltext0
 829 001a 18010000 		.4byte	.LVL40-.Ltext0
 830 001e 0400     		.2byte	0x4
 831 0020 F3       		.byte	0xf3
 832 0021 01       		.uleb128 0x1
 833 0022 50       		.byte	0x50
 834 0023 9F       		.byte	0x9f
 835 0024 18010000 		.4byte	.LVL40-.Ltext0
 836 0028 1C010000 		.4byte	.LVL41-.Ltext0
 837 002c 0100     		.2byte	0x1
 838 002e 58       		.byte	0x58
 839 002f 1C010000 		.4byte	.LVL41-.Ltext0
 840 0033 8C010000 		.4byte	.LFE135-.Ltext0
 841 0037 0400     		.2byte	0x4
 842 0039 F3       		.byte	0xf3
 843 003a 01       		.uleb128 0x1
 844 003b 50       		.byte	0x50
 845 003c 9F       		.byte	0x9f
 846 003d 00000000 		.4byte	0
 847 0041 00000000 		.4byte	0
 848              	.LLST1:
 849 0045 00000000 		.4byte	.LVL0-.Ltext0
 850 0049 52000000 		.4byte	.LVL9-.Ltext0
 851 004d 0100     		.2byte	0x1
 852 004f 51       		.byte	0x51
 853 0050 52000000 		.4byte	.LVL9-.Ltext0
 854 0054 56000000 		.4byte	.LVL10-.Ltext0
 855 0058 0100     		.2byte	0x1
ARM GAS  /tmp/cc9fwfYh.s 			page 16


 856 005a 52       		.byte	0x52
 857 005b 56000000 		.4byte	.LVL10-.Ltext0
 858 005f 82000000 		.4byte	.LVL14-.Ltext0
 859 0063 0300     		.2byte	0x3
 860 0065 72       		.byte	0x72
 861 0066 7C       		.sleb128 -4
 862 0067 9F       		.byte	0x9f
 863 0068 10010000 		.4byte	.LVL38-.Ltext0
 864 006c 20010000 		.4byte	.LVL42-.Ltext0
 865 0070 0100     		.2byte	0x1
 866 0072 51       		.byte	0x51
 867 0073 82010000 		.4byte	.LVL57-.Ltext0
 868 0077 8C010000 		.4byte	.LFE135-.Ltext0
 869 007b 0300     		.2byte	0x3
 870 007d 72       		.byte	0x72
 871 007e 7C       		.sleb128 -4
 872 007f 9F       		.byte	0x9f
 873 0080 00000000 		.4byte	0
 874 0084 00000000 		.4byte	0
 875              	.LLST2:
 876 0088 00000000 		.4byte	.LVL0-.Ltext0
 877 008c 2C000000 		.4byte	.LVL4-.Ltext0
 878 0090 0100     		.2byte	0x1
 879 0092 52       		.byte	0x52
 880 0093 2C000000 		.4byte	.LVL4-.Ltext0
 881 0097 38000000 		.4byte	.LVL5-.Ltext0
 882 009b 0100     		.2byte	0x1
 883 009d 5A       		.byte	0x5a
 884 009e 4A000000 		.4byte	.LVL7-.Ltext0
 885 00a2 0C010000 		.4byte	.LVL37-.Ltext0
 886 00a6 0100     		.2byte	0x1
 887 00a8 5A       		.byte	0x5a
 888 00a9 0C010000 		.4byte	.LVL37-.Ltext0
 889 00ad 10010000 		.4byte	.LVL38-.Ltext0
 890 00b1 0300     		.2byte	0x3
 891 00b3 7A       		.byte	0x7a
 892 00b4 7C       		.sleb128 -4
 893 00b5 9F       		.byte	0x9f
 894 00b6 10010000 		.4byte	.LVL38-.Ltext0
 895 00ba 1C010000 		.4byte	.LVL41-.Ltext0
 896 00be 0100     		.2byte	0x1
 897 00c0 5A       		.byte	0x5a
 898 00c1 82010000 		.4byte	.LVL57-.Ltext0
 899 00c5 8C010000 		.4byte	.LFE135-.Ltext0
 900 00c9 0100     		.2byte	0x1
 901 00cb 5A       		.byte	0x5a
 902 00cc 00000000 		.4byte	0
 903 00d0 00000000 		.4byte	0
 904              	.LLST3:
 905 00d4 00000000 		.4byte	.LVL0-.Ltext0
 906 00d8 42000000 		.4byte	.LVL6-.Ltext0
 907 00dc 0100     		.2byte	0x1
 908 00de 53       		.byte	0x53
 909 00df 42000000 		.4byte	.LVL6-.Ltext0
 910 00e3 18010000 		.4byte	.LVL40-.Ltext0
 911 00e7 0400     		.2byte	0x4
 912 00e9 F3       		.byte	0xf3
ARM GAS  /tmp/cc9fwfYh.s 			page 17


 913 00ea 01       		.uleb128 0x1
 914 00eb 53       		.byte	0x53
 915 00ec 9F       		.byte	0x9f
 916 00ed 18010000 		.4byte	.LVL40-.Ltext0
 917 00f1 1C010000 		.4byte	.LVL41-.Ltext0
 918 00f5 0100     		.2byte	0x1
 919 00f7 53       		.byte	0x53
 920 00f8 1C010000 		.4byte	.LVL41-.Ltext0
 921 00fc 8C010000 		.4byte	.LFE135-.Ltext0
 922 0100 0400     		.2byte	0x4
 923 0102 F3       		.byte	0xf3
 924 0103 01       		.uleb128 0x1
 925 0104 53       		.byte	0x53
 926 0105 9F       		.byte	0x9f
 927 0106 00000000 		.4byte	0
 928 010a 00000000 		.4byte	0
 929              	.LLST4:
 930 010e 26000000 		.4byte	.LVL2-.Ltext0
 931 0112 4A000000 		.4byte	.LVL7-.Ltext0
 932 0116 0100     		.2byte	0x1
 933 0118 54       		.byte	0x54
 934 0119 4A000000 		.4byte	.LVL7-.Ltext0
 935 011d 18010000 		.4byte	.LVL40-.Ltext0
 936 0121 0100     		.2byte	0x1
 937 0123 5E       		.byte	0x5e
 938 0124 18010000 		.4byte	.LVL40-.Ltext0
 939 0128 1C010000 		.4byte	.LVL41-.Ltext0
 940 012c 0100     		.2byte	0x1
 941 012e 54       		.byte	0x54
 942 012f 20010000 		.4byte	.LVL42-.Ltext0
 943 0133 30010000 		.4byte	.LVL44-.Ltext0
 944 0137 0100     		.2byte	0x1
 945 0139 5E       		.byte	0x5e
 946 013a 30010000 		.4byte	.LVL44-.Ltext0
 947 013e 38010000 		.4byte	.LVL45-.Ltext0
 948 0142 0300     		.2byte	0x3
 949 0144 73       		.byte	0x73
 950 0145 74       		.sleb128 -12
 951 0146 9F       		.byte	0x9f
 952 0147 38010000 		.4byte	.LVL45-.Ltext0
 953 014b 40010000 		.4byte	.LVL46-.Ltext0
 954 014f 0300     		.2byte	0x3
 955 0151 73       		.byte	0x73
 956 0152 78       		.sleb128 -8
 957 0153 9F       		.byte	0x9f
 958 0154 40010000 		.4byte	.LVL46-.Ltext0
 959 0158 48010000 		.4byte	.LVL47-.Ltext0
 960 015c 0300     		.2byte	0x3
 961 015e 73       		.byte	0x73
 962 015f 7C       		.sleb128 -4
 963 0160 9F       		.byte	0x9f
 964 0161 48010000 		.4byte	.LVL47-.Ltext0
 965 0165 56010000 		.4byte	.LVL49-.Ltext0
 966 0169 0100     		.2byte	0x1
 967 016b 53       		.byte	0x53
 968 016c 56010000 		.4byte	.LVL49-.Ltext0
 969 0170 60010000 		.4byte	.LVL50-.Ltext0
ARM GAS  /tmp/cc9fwfYh.s 			page 18


 970 0174 0300     		.2byte	0x3
 971 0176 73       		.byte	0x73
 972 0177 70       		.sleb128 -16
 973 0178 9F       		.byte	0x9f
 974 0179 66010000 		.4byte	.LVL51-.Ltext0
 975 017d 8C010000 		.4byte	.LFE135-.Ltext0
 976 0181 0100     		.2byte	0x1
 977 0183 5E       		.byte	0x5e
 978 0184 00000000 		.4byte	0
 979 0188 00000000 		.4byte	0
 980              	.LLST5:
 981 018c 28000000 		.4byte	.LVL3-.Ltext0
 982 0190 4A000000 		.4byte	.LVL7-.Ltext0
 983 0194 0100     		.2byte	0x1
 984 0196 56       		.byte	0x56
 985 0197 4A000000 		.4byte	.LVL7-.Ltext0
 986 019b 18010000 		.4byte	.LVL40-.Ltext0
 987 019f 0200     		.2byte	0x2
 988 01a1 91       		.byte	0x91
 989 01a2 44       		.sleb128 -60
 990 01a3 18010000 		.4byte	.LVL40-.Ltext0
 991 01a7 1C010000 		.4byte	.LVL41-.Ltext0
 992 01ab 0100     		.2byte	0x1
 993 01ad 56       		.byte	0x56
 994 01ae 1C010000 		.4byte	.LVL41-.Ltext0
 995 01b2 8C010000 		.4byte	.LFE135-.Ltext0
 996 01b6 0200     		.2byte	0x2
 997 01b8 91       		.byte	0x91
 998 01b9 44       		.sleb128 -60
 999 01ba 00000000 		.4byte	0
 1000 01be 00000000 		.4byte	0
 1001              	.LLST6:
 1002 01c2 2C000000 		.4byte	.LVL4-.Ltext0
 1003 01c6 52000000 		.4byte	.LVL9-.Ltext0
 1004 01ca 0100     		.2byte	0x1
 1005 01cc 5C       		.byte	0x5c
 1006 01cd 10010000 		.4byte	.LVL38-.Ltext0
 1007 01d1 1C010000 		.4byte	.LVL41-.Ltext0
 1008 01d5 0100     		.2byte	0x1
 1009 01d7 5C       		.byte	0x5c
 1010 01d8 1C010000 		.4byte	.LVL41-.Ltext0
 1011 01dc 30010000 		.4byte	.LVL44-.Ltext0
 1012 01e0 0200     		.2byte	0x2
 1013 01e2 91       		.byte	0x91
 1014 01e3 50       		.sleb128 -48
 1015 01e4 66010000 		.4byte	.LVL51-.Ltext0
 1016 01e8 70010000 		.4byte	.LVL53-.Ltext0
 1017 01ec 0200     		.2byte	0x2
 1018 01ee 91       		.byte	0x91
 1019 01ef 50       		.sleb128 -48
 1020 01f0 70010000 		.4byte	.LVL53-.Ltext0
 1021 01f4 7C010000 		.4byte	.LVL56-.Ltext0
 1022 01f8 0600     		.2byte	0x6
 1023 01fa 91       		.byte	0x91
 1024 01fb 50       		.sleb128 -48
 1025 01fc 06       		.byte	0x6
 1026 01fd 23       		.byte	0x23
ARM GAS  /tmp/cc9fwfYh.s 			page 19


 1027 01fe 04       		.uleb128 0x4
 1028 01ff 9F       		.byte	0x9f
 1029 0200 00000000 		.4byte	0
 1030 0204 00000000 		.4byte	0
 1031              	.LLST7:
 1032 0208 90000000 		.4byte	.LVL17-.Ltext0
 1033 020c 94000000 		.4byte	.LVL18-.Ltext0
 1034 0210 0100     		.2byte	0x1
 1035 0212 57       		.byte	0x57
 1036 0213 94000000 		.4byte	.LVL18-.Ltext0
 1037 0217 A8000000 		.4byte	.LVL20-.Ltext0
 1038 021b 0200     		.2byte	0x2
 1039 021d 70       		.byte	0x70
 1040 021e 74       		.sleb128 -12
 1041 021f A8000000 		.4byte	.LVL20-.Ltext0
 1042 0223 B8000000 		.4byte	.LVL22-.Ltext0
 1043 0227 0100     		.2byte	0x1
 1044 0229 53       		.byte	0x53
 1045 022a B8000000 		.4byte	.LVL22-.Ltext0
 1046 022e D8000000 		.4byte	.LVL28-.Ltext0
 1047 0232 0100     		.2byte	0x1
 1048 0234 56       		.byte	0x56
 1049 0235 D8000000 		.4byte	.LVL28-.Ltext0
 1050 0239 DC000000 		.4byte	.LVL29-.Ltext0
 1051 023d 0200     		.2byte	0x2
 1052 023f 70       		.byte	0x70
 1053 0240 6C       		.sleb128 -20
 1054 0241 EE000000 		.4byte	.LVL32-.Ltext0
 1055 0245 FA000000 		.4byte	.LVL36-.Ltext0
 1056 0249 0100     		.2byte	0x1
 1057 024b 57       		.byte	0x57
 1058 024c 00000000 		.4byte	0
 1059 0250 00000000 		.4byte	0
 1060              	.LLST8:
 1061 0254 8C000000 		.4byte	.LVL16-.Ltext0
 1062 0258 94000000 		.4byte	.LVL18-.Ltext0
 1063 025c 0100     		.2byte	0x1
 1064 025e 56       		.byte	0x56
 1065 025f 94000000 		.4byte	.LVL18-.Ltext0
 1066 0263 A8000000 		.4byte	.LVL20-.Ltext0
 1067 0267 0200     		.2byte	0x2
 1068 0269 74       		.byte	0x74
 1069 026a 74       		.sleb128 -12
 1070 026b A8000000 		.4byte	.LVL20-.Ltext0
 1071 026f B8000000 		.4byte	.LVL22-.Ltext0
 1072 0273 0200     		.2byte	0x2
 1073 0275 74       		.byte	0x74
 1074 0276 78       		.sleb128 -8
 1075 0277 B8000000 		.4byte	.LVL22-.Ltext0
 1076 027b CA000000 		.4byte	.LVL26-.Ltext0
 1077 027f 0100     		.2byte	0x1
 1078 0281 57       		.byte	0x57
 1079 0282 CA000000 		.4byte	.LVL26-.Ltext0
 1080 0286 D6000000 		.4byte	.LVL27-.Ltext0
 1081 028a 0200     		.2byte	0x2
 1082 028c 74       		.byte	0x74
 1083 028d 6C       		.sleb128 -20
ARM GAS  /tmp/cc9fwfYh.s 			page 20


 1084 028e EA000000 		.4byte	.LVL31-.Ltext0
 1085 0292 F8000000 		.4byte	.LVL35-.Ltext0
 1086 0296 0100     		.2byte	0x1
 1087 0298 56       		.byte	0x56
 1088 0299 F8000000 		.4byte	.LVL35-.Ltext0
 1089 029d FA000000 		.4byte	.LVL36-.Ltext0
 1090 02a1 0200     		.2byte	0x2
 1091 02a3 74       		.byte	0x74
 1092 02a4 7C       		.sleb128 -4
 1093 02a5 00000000 		.4byte	0
 1094 02a9 00000000 		.4byte	0
 1095              	.LLST9:
 1096 02ad 64000000 		.4byte	.LVL12-.Ltext0
 1097 02b1 88000000 		.4byte	.LVL15-.Ltext0
 1098 02b5 0100     		.2byte	0x1
 1099 02b7 5E       		.byte	0x5e
 1100 02b8 DC000000 		.4byte	.LVL29-.Ltext0
 1101 02bc EE000000 		.4byte	.LVL32-.Ltext0
 1102 02c0 0100     		.2byte	0x1
 1103 02c2 55       		.byte	0x55
 1104 02c3 EE000000 		.4byte	.LVL32-.Ltext0
 1105 02c7 F4000000 		.4byte	.LVL34-.Ltext0
 1106 02cb 0300     		.2byte	0x3
 1107 02cd 75       		.byte	0x75
 1108 02ce 7C       		.sleb128 -4
 1109 02cf 9F       		.byte	0x9f
 1110 02d0 F4000000 		.4byte	.LVL34-.Ltext0
 1111 02d4 16010000 		.4byte	.LVL39-.Ltext0
 1112 02d8 0100     		.2byte	0x1
 1113 02da 55       		.byte	0x55
 1114 02db 82010000 		.4byte	.LVL57-.Ltext0
 1115 02df 8C010000 		.4byte	.LFE135-.Ltext0
 1116 02e3 0100     		.2byte	0x1
 1117 02e5 5E       		.byte	0x5e
 1118 02e6 00000000 		.4byte	0
 1119 02ea 00000000 		.4byte	0
 1120              	.LLST10:
 1121 02ee 88000000 		.4byte	.LVL15-.Ltext0
 1122 02f2 94000000 		.4byte	.LVL18-.Ltext0
 1123 02f6 0300     		.2byte	0x3
 1124 02f8 74       		.byte	0x74
 1125 02f9 74       		.sleb128 -12
 1126 02fa 9F       		.byte	0x9f
 1127 02fb 94000000 		.4byte	.LVL18-.Ltext0
 1128 02ff A8000000 		.4byte	.LVL20-.Ltext0
 1129 0303 0300     		.2byte	0x3
 1130 0305 74       		.byte	0x74
 1131 0306 78       		.sleb128 -8
 1132 0307 9F       		.byte	0x9f
 1133 0308 A8000000 		.4byte	.LVL20-.Ltext0
 1134 030c B8000000 		.4byte	.LVL22-.Ltext0
 1135 0310 0300     		.2byte	0x3
 1136 0312 74       		.byte	0x74
 1137 0313 7C       		.sleb128 -4
 1138 0314 9F       		.byte	0x9f
 1139 0315 B8000000 		.4byte	.LVL22-.Ltext0
 1140 0319 BE000000 		.4byte	.LVL24-.Ltext0
ARM GAS  /tmp/cc9fwfYh.s 			page 21


 1141 031d 0100     		.2byte	0x1
 1142 031f 54       		.byte	0x54
 1143 0320 BE000000 		.4byte	.LVL24-.Ltext0
 1144 0324 D6000000 		.4byte	.LVL27-.Ltext0
 1145 0328 0300     		.2byte	0x3
 1146 032a 74       		.byte	0x74
 1147 032b 70       		.sleb128 -16
 1148 032c 9F       		.byte	0x9f
 1149 032d DC000000 		.4byte	.LVL29-.Ltext0
 1150 0331 EA000000 		.4byte	.LVL31-.Ltext0
 1151 0335 0100     		.2byte	0x1
 1152 0337 54       		.byte	0x54
 1153 0338 EA000000 		.4byte	.LVL31-.Ltext0
 1154 033c F4000000 		.4byte	.LVL34-.Ltext0
 1155 0340 0300     		.2byte	0x3
 1156 0342 74       		.byte	0x74
 1157 0343 7C       		.sleb128 -4
 1158 0344 9F       		.byte	0x9f
 1159 0345 F4000000 		.4byte	.LVL34-.Ltext0
 1160 0349 18010000 		.4byte	.LVL40-.Ltext0
 1161 034d 0100     		.2byte	0x1
 1162 034f 54       		.byte	0x54
 1163 0350 00000000 		.4byte	0
 1164 0354 00000000 		.4byte	0
 1165              	.LLST11:
 1166 0358 64000000 		.4byte	.LVL12-.Ltext0
 1167 035c 88000000 		.4byte	.LVL15-.Ltext0
 1168 0360 0A00     		.2byte	0xa
 1169 0362 9E       		.byte	0x9e
 1170 0363 08       		.uleb128 0x8
 1171 0364 00000000 		.8byte	0
 1171      00000000 
 1172 036c 88000000 		.4byte	.LVL15-.Ltext0
 1173 0370 A0000000 		.4byte	.LVL19-.Ltext0
 1174 0374 0600     		.2byte	0x6
 1175 0376 52       		.byte	0x52
 1176 0377 93       		.byte	0x93
 1177 0378 04       		.uleb128 0x4
 1178 0379 53       		.byte	0x53
 1179 037a 93       		.byte	0x93
 1180 037b 04       		.uleb128 0x4
 1181 037c A8000000 		.4byte	.LVL20-.Ltext0
 1182 0380 B4000000 		.4byte	.LVL21-.Ltext0
 1183 0384 0600     		.2byte	0x6
 1184 0386 58       		.byte	0x58
 1185 0387 93       		.byte	0x93
 1186 0388 04       		.uleb128 0x4
 1187 0389 59       		.byte	0x59
 1188 038a 93       		.byte	0x93
 1189 038b 04       		.uleb128 0x4
 1190 038c B8000000 		.4byte	.LVL22-.Ltext0
 1191 0390 DC000000 		.4byte	.LVL29-.Ltext0
 1192 0394 0600     		.2byte	0x6
 1193 0396 52       		.byte	0x52
 1194 0397 93       		.byte	0x93
 1195 0398 04       		.uleb128 0x4
 1196 0399 53       		.byte	0x53
ARM GAS  /tmp/cc9fwfYh.s 			page 22


 1197 039a 93       		.byte	0x93
 1198 039b 04       		.uleb128 0x4
 1199 039c DC000000 		.4byte	.LVL29-.Ltext0
 1200 03a0 E6000000 		.4byte	.LVL30-.Ltext0
 1201 03a4 0600     		.2byte	0x6
 1202 03a6 56       		.byte	0x56
 1203 03a7 93       		.byte	0x93
 1204 03a8 04       		.uleb128 0x4
 1205 03a9 57       		.byte	0x57
 1206 03aa 93       		.byte	0x93
 1207 03ab 04       		.uleb128 0x4
 1208 03ac E6000000 		.4byte	.LVL30-.Ltext0
 1209 03b0 FA000000 		.4byte	.LVL36-.Ltext0
 1210 03b4 0600     		.2byte	0x6
 1211 03b6 52       		.byte	0x52
 1212 03b7 93       		.byte	0x93
 1213 03b8 04       		.uleb128 0x4
 1214 03b9 53       		.byte	0x53
 1215 03ba 93       		.byte	0x93
 1216 03bb 04       		.uleb128 0x4
 1217 03bc 82010000 		.4byte	.LVL57-.Ltext0
 1218 03c0 8C010000 		.4byte	.LFE135-.Ltext0
 1219 03c4 0A00     		.2byte	0xa
 1220 03c6 9E       		.byte	0x9e
 1221 03c7 08       		.uleb128 0x8
 1222 03c8 00000000 		.8byte	0
 1222      00000000 
 1223 03d0 00000000 		.4byte	0
 1224 03d4 00000000 		.4byte	0
 1225              	.LLST12:
 1226 03d8 28000000 		.4byte	.LVL3-.Ltext0
 1227 03dc 4A000000 		.4byte	.LVL7-.Ltext0
 1228 03e0 0100     		.2byte	0x1
 1229 03e2 50       		.byte	0x50
 1230 03e3 4A000000 		.4byte	.LVL7-.Ltext0
 1231 03e7 18010000 		.4byte	.LVL40-.Ltext0
 1232 03eb 0200     		.2byte	0x2
 1233 03ed 91       		.byte	0x91
 1234 03ee 54       		.sleb128 -44
 1235 03ef 18010000 		.4byte	.LVL40-.Ltext0
 1236 03f3 1C010000 		.4byte	.LVL41-.Ltext0
 1237 03f7 0100     		.2byte	0x1
 1238 03f9 50       		.byte	0x50
 1239 03fa 1C010000 		.4byte	.LVL41-.Ltext0
 1240 03fe 8C010000 		.4byte	.LFE135-.Ltext0
 1241 0402 0200     		.2byte	0x2
 1242 0404 91       		.byte	0x91
 1243 0405 54       		.sleb128 -44
 1244 0406 00000000 		.4byte	0
 1245 040a 00000000 		.4byte	0
 1246              	.LLST13:
 1247 040e 4C000000 		.4byte	.LVL8-.Ltext0
 1248 0412 52000000 		.4byte	.LVL9-.Ltext0
 1249 0416 0100     		.2byte	0x1
 1250 0418 53       		.byte	0x53
 1251 0419 52000000 		.4byte	.LVL9-.Ltext0
 1252 041d 5C000000 		.4byte	.LVL11-.Ltext0
ARM GAS  /tmp/cc9fwfYh.s 			page 23


 1253 0421 0300     		.2byte	0x3
 1254 0423 73       		.byte	0x73
 1255 0424 7F       		.sleb128 -1
 1256 0425 9F       		.byte	0x9f
 1257 0426 5C000000 		.4byte	.LVL11-.Ltext0
 1258 042a 6E000000 		.4byte	.LVL13-.Ltext0
 1259 042e 0100     		.2byte	0x1
 1260 0430 53       		.byte	0x53
 1261 0431 20010000 		.4byte	.LVL42-.Ltext0
 1262 0435 22010000 		.4byte	.LVL43-.Ltext0
 1263 0439 0500     		.2byte	0x5
 1264 043b 71       		.byte	0x71
 1265 043c 00       		.sleb128 0
 1266 043d 32       		.byte	0x32
 1267 043e 25       		.byte	0x25
 1268 043f 9F       		.byte	0x9f
 1269 0440 22010000 		.4byte	.LVL43-.Ltext0
 1270 0444 30010000 		.4byte	.LVL44-.Ltext0
 1271 0448 0100     		.2byte	0x1
 1272 044a 55       		.byte	0x55
 1273 044b 30010000 		.4byte	.LVL44-.Ltext0
 1274 044f 48010000 		.4byte	.LVL47-.Ltext0
 1275 0453 0100     		.2byte	0x1
 1276 0455 50       		.byte	0x50
 1277 0456 48010000 		.4byte	.LVL47-.Ltext0
 1278 045a 52010000 		.4byte	.LVL48-.Ltext0
 1279 045e 0300     		.2byte	0x3
 1280 0460 70       		.byte	0x70
 1281 0461 7F       		.sleb128 -1
 1282 0462 9F       		.byte	0x9f
 1283 0463 52010000 		.4byte	.LVL48-.Ltext0
 1284 0467 66010000 		.4byte	.LVL51-.Ltext0
 1285 046b 0100     		.2byte	0x1
 1286 046d 50       		.byte	0x50
 1287 046e 66010000 		.4byte	.LVL51-.Ltext0
 1288 0472 6A010000 		.4byte	.LVL52-.Ltext0
 1289 0476 0500     		.2byte	0x5
 1290 0478 71       		.byte	0x71
 1291 0479 00       		.sleb128 0
 1292 047a 33       		.byte	0x33
 1293 047b 1A       		.byte	0x1a
 1294 047c 9F       		.byte	0x9f
 1295 047d 6A010000 		.4byte	.LVL52-.Ltext0
 1296 0481 70010000 		.4byte	.LVL53-.Ltext0
 1297 0485 0100     		.2byte	0x1
 1298 0487 53       		.byte	0x53
 1299 0488 70010000 		.4byte	.LVL53-.Ltext0
 1300 048c 7A010000 		.4byte	.LVL55-.Ltext0
 1301 0490 0300     		.2byte	0x3
 1302 0492 73       		.byte	0x73
 1303 0493 7F       		.sleb128 -1
 1304 0494 9F       		.byte	0x9f
 1305 0495 7A010000 		.4byte	.LVL55-.Ltext0
 1306 0499 8C010000 		.4byte	.LFE135-.Ltext0
 1307 049d 0100     		.2byte	0x1
 1308 049f 53       		.byte	0x53
 1309 04a0 00000000 		.4byte	0
ARM GAS  /tmp/cc9fwfYh.s 			page 24


 1310 04a4 00000000 		.4byte	0
 1311              	.LLST14:
 1312 04a8 64000000 		.4byte	.LVL12-.Ltext0
 1313 04ac 88000000 		.4byte	.LVL15-.Ltext0
 1314 04b0 0100     		.2byte	0x1
 1315 04b2 5B       		.byte	0x5b
 1316 04b3 88000000 		.4byte	.LVL15-.Ltext0
 1317 04b7 BA000000 		.4byte	.LVL23-.Ltext0
 1318 04bb 0100     		.2byte	0x1
 1319 04bd 55       		.byte	0x55
 1320 04be BA000000 		.4byte	.LVL23-.Ltext0
 1321 04c2 C2000000 		.4byte	.LVL25-.Ltext0
 1322 04c6 0300     		.2byte	0x3
 1323 04c8 75       		.byte	0x75
 1324 04c9 01       		.sleb128 1
 1325 04ca 9F       		.byte	0x9f
 1326 04cb DC000000 		.4byte	.LVL29-.Ltext0
 1327 04cf E6000000 		.4byte	.LVL30-.Ltext0
 1328 04d3 0200     		.2byte	0x2
 1329 04d5 91       		.byte	0x91
 1330 04d6 40       		.sleb128 -64
 1331 04d7 E6000000 		.4byte	.LVL30-.Ltext0
 1332 04db F0000000 		.4byte	.LVL33-.Ltext0
 1333 04df 0100     		.2byte	0x1
 1334 04e1 50       		.byte	0x50
 1335 04e2 F0000000 		.4byte	.LVL33-.Ltext0
 1336 04e6 F4000000 		.4byte	.LVL34-.Ltext0
 1337 04ea 0300     		.2byte	0x3
 1338 04ec 70       		.byte	0x70
 1339 04ed 01       		.sleb128 1
 1340 04ee 9F       		.byte	0x9f
 1341 04ef 82010000 		.4byte	.LVL57-.Ltext0
 1342 04f3 8C010000 		.4byte	.LFE135-.Ltext0
 1343 04f7 0100     		.2byte	0x1
 1344 04f9 5B       		.byte	0x5b
 1345 04fa 00000000 		.4byte	0
 1346 04fe 00000000 		.4byte	0
 1347              	.LLST15:
 1348 0502 2C000000 		.4byte	.LVL4-.Ltext0
 1349 0506 88000000 		.4byte	.LVL15-.Ltext0
 1350 050a 0100     		.2byte	0x1
 1351 050c 59       		.byte	0x59
 1352 050d 88000000 		.4byte	.LVL15-.Ltext0
 1353 0511 DC000000 		.4byte	.LVL29-.Ltext0
 1354 0515 0200     		.2byte	0x2
 1355 0517 7D       		.byte	0x7d
 1356 0518 00       		.sleb128 0
 1357 0519 18010000 		.4byte	.LVL40-.Ltext0
 1358 051d 1C010000 		.4byte	.LVL41-.Ltext0
 1359 0521 0100     		.2byte	0x1
 1360 0523 59       		.byte	0x59
 1361 0524 82010000 		.4byte	.LVL57-.Ltext0
 1362 0528 8C010000 		.4byte	.LFE135-.Ltext0
 1363 052c 0100     		.2byte	0x1
 1364 052e 59       		.byte	0x59
 1365 052f 00000000 		.4byte	0
 1366 0533 00000000 		.4byte	0
ARM GAS  /tmp/cc9fwfYh.s 			page 25


 1367              	.LLST16:
 1368 0537 28000000 		.4byte	.LVL3-.Ltext0
 1369 053b 4A000000 		.4byte	.LVL7-.Ltext0
 1370 053f 0100     		.2byte	0x1
 1371 0541 59       		.byte	0x59
 1372 0542 18010000 		.4byte	.LVL40-.Ltext0
 1373 0546 1C010000 		.4byte	.LVL41-.Ltext0
 1374 054a 0100     		.2byte	0x1
 1375 054c 59       		.byte	0x59
 1376 054d 00000000 		.4byte	0
 1377 0551 00000000 		.4byte	0
 1378              		.section	.debug_aranges,"",%progbits
 1379 0000 1C000000 		.4byte	0x1c
 1380 0004 0200     		.2byte	0x2
 1381 0006 00000000 		.4byte	.Ldebug_info0
 1382 000a 04       		.byte	0x4
 1383 000b 00       		.byte	0
 1384 000c 0000     		.2byte	0
 1385 000e 0000     		.2byte	0
 1386 0010 00000000 		.4byte	.Ltext0
 1387 0014 8C010000 		.4byte	.Letext0-.Ltext0
 1388 0018 00000000 		.4byte	0
 1389 001c 00000000 		.4byte	0
 1390              		.section	.debug_line,"",%progbits
 1391              	.Ldebug_line0:
 1392 0000 A4020000 		.section	.debug_str,"MS",%progbits,1
 1392      02000E02 
 1392      00000201 
 1392      FB0E0D00 
 1392      01010101 
 1393              	.LASF38:
 1394 0000 474E5520 		.ascii	"GNU C 4.9.3 20150529 (release) [ARM/embedded-4_9-br"
 1394      4320342E 
 1394      392E3320 
 1394      32303135 
 1394      30353239 
 1395 0033 616E6368 		.ascii	"anch revision 224288] -mcpu=cortex-m4 -mfloat-abi=h"
 1395      20726576 
 1395      6973696F 
 1395      6E203232 
 1395      34323838 
 1396 0066 61726420 		.ascii	"ard -mfpu=fpv4-sp-d16 -mno-thumb-interwork -mthumb "
 1396      2D6D6670 
 1396      753D6670 
 1396      76342D73 
 1396      702D6431 
 1397 0099 2D676764 		.ascii	"-ggdb -O2 -fomit-frame-pointer -falign-functions=16"
 1397      62202D4F 
 1397      32202D66 
 1397      6F6D6974 
 1397      2D667261 
 1398 00cc 202D666E 		.ascii	" -fno-math-errno -fsingle-precision-constant\000"
 1398      6F2D6D61 
 1398      74682D65 
 1398      72726E6F 
 1398      202D6673 
 1399              	.LASF3:
ARM GAS  /tmp/cc9fwfYh.s 			page 26


 1400 00f9 5F5F7569 		.ascii	"__uint8_t\000"
 1400      6E74385F 
 1400      7400
 1401              	.LASF6:
 1402 0103 5F5F696E 		.ascii	"__int32_t\000"
 1402      7433325F 
 1402      7400
 1403              	.LASF34:
 1404 010d 73756D30 		.ascii	"sum0\000"
 1404      00
 1405              	.LASF40:
 1406 0112 61726D5F 		.ascii	"arm_fir_decimate_q31\000"
 1406      6669725F 
 1406      64656369 
 1406      6D617465 
 1406      5F713331 
 1407              	.LASF22:
 1408 0127 666C6F61 		.ascii	"float\000"
 1408      7400
 1409              	.LASF24:
 1410 012d 7133315F 		.ascii	"q31_t\000"
 1410      7400
 1411              	.LASF1:
 1412 0133 756E7369 		.ascii	"unsigned char\000"
 1412      676E6564 
 1412      20636861 
 1412      7200
 1413              	.LASF36:
 1414 0141 626C6B43 		.ascii	"blkCnt\000"
 1414      6E7400
 1415              	.LASF9:
 1416 0148 6C6F6E67 		.ascii	"long unsigned int\000"
 1416      20756E73 
 1416      69676E65 
 1416      6420696E 
 1416      7400
 1417              	.LASF5:
 1418 015a 73686F72 		.ascii	"short unsigned int\000"
 1418      7420756E 
 1418      7369676E 
 1418      65642069 
 1418      6E7400
 1419              	.LASF31:
 1420 016d 70447374 		.ascii	"pDst\000"
 1420      00
 1421              	.LASF29:
 1422 0172 61726D5F 		.ascii	"arm_fir_decimate_instance_q31\000"
 1422      6669725F 
 1422      64656369 
 1422      6D617465 
 1422      5F696E73 
 1423              	.LASF10:
 1424 0190 5F5F696E 		.ascii	"__int64_t\000"
 1424      7436345F 
 1424      7400
 1425              	.LASF35:
 1426 019a 74617043 		.ascii	"tapCnt\000"
ARM GAS  /tmp/cc9fwfYh.s 			page 27


 1426      6E7400
 1427              	.LASF21:
 1428 01a1 646F7562 		.ascii	"double\000"
 1428      6C6500
 1429              	.LASF8:
 1430 01a8 5F5F7569 		.ascii	"__uint32_t\000"
 1430      6E743332 
 1430      5F7400
 1431              	.LASF33:
 1432 01b3 70537461 		.ascii	"pStateCurnt\000"
 1432      74654375 
 1432      726E7400 
 1433              	.LASF13:
 1434 01bf 756E7369 		.ascii	"unsigned int\000"
 1434      676E6564 
 1434      20696E74 
 1434      00
 1435              	.LASF12:
 1436 01cc 6C6F6E67 		.ascii	"long long unsigned int\000"
 1436      206C6F6E 
 1436      6720756E 
 1436      7369676E 
 1436      65642069 
 1437              	.LASF14:
 1438 01e3 75696E74 		.ascii	"uint8_t\000"
 1438      385F7400 
 1439              	.LASF25:
 1440 01eb 7136335F 		.ascii	"q63_t\000"
 1440      7400
 1441              	.LASF16:
 1442 01f1 696E7433 		.ascii	"int32_t\000"
 1442      325F7400 
 1443              	.LASF19:
 1444 01f9 73697A65 		.ascii	"sizetype\000"
 1444      74797065 
 1444      00
 1445              	.LASF18:
 1446 0202 696E7436 		.ascii	"int64_t\000"
 1446      345F7400 
 1447              	.LASF11:
 1448 020a 6C6F6E67 		.ascii	"long long int\000"
 1448      206C6F6E 
 1448      6720696E 
 1448      7400
 1449              	.LASF32:
 1450 0218 626C6F63 		.ascii	"blockSize\000"
 1450      6B53697A 
 1450      6500
 1451              	.LASF28:
 1452 0222 70537461 		.ascii	"pState\000"
 1452      746500
 1453              	.LASF20:
 1454 0229 63686172 		.ascii	"char\000"
 1454      00
 1455              	.LASF37:
 1456 022e 6F757442 		.ascii	"outBlockSize\000"
 1456      6C6F636B 
ARM GAS  /tmp/cc9fwfYh.s 			page 28


 1456      53697A65 
 1456      00
 1457              	.LASF2:
 1458 023b 73686F72 		.ascii	"short int\000"
 1458      7420696E 
 1458      7400
 1459              	.LASF26:
 1460 0245 6E756D54 		.ascii	"numTaps\000"
 1460      61707300 
 1461              	.LASF4:
 1462 024d 5F5F7569 		.ascii	"__uint16_t\000"
 1462      6E743136 
 1462      5F7400
 1463              	.LASF15:
 1464 0258 75696E74 		.ascii	"uint16_t\000"
 1464      31365F74 
 1464      00
 1465              	.LASF27:
 1466 0261 70436F65 		.ascii	"pCoeffs\000"
 1466      66667300 
 1467              	.LASF17:
 1468 0269 75696E74 		.ascii	"uint32_t\000"
 1468      33325F74 
 1468      00
 1469              	.LASF7:
 1470 0272 6C6F6E67 		.ascii	"long int\000"
 1470      20696E74 
 1470      00
 1471              	.LASF23:
 1472 027b 6C6F6E67 		.ascii	"long double\000"
 1472      20646F75 
 1472      626C6500 
 1473              	.LASF0:
 1474 0287 7369676E 		.ascii	"signed char\000"
 1474      65642063 
 1474      68617200 
 1475              	.LASF30:
 1476 0293 70537263 		.ascii	"pSrc\000"
 1476      00
 1477              	.LASF39:
 1478 0298 2F686F6D 		.ascii	"/home/sbcu/Dropbox/pcb-layouts/axo-on-discovery-boa"
 1478      652F7362 
 1478      63752F44 
 1478      726F7062 
 1478      6F782F70 
 1479 02cb 72642F61 		.ascii	"rd/axoloti/platform_linux/../CMSIS//DSP_Lib/Source/"
 1479      786F6C6F 
 1479      74692F70 
 1479      6C617466 
 1479      6F726D5F 
 1480 02fe 46696C74 		.ascii	"FilteringFunctions/arm_fir_decimate_q31.c\000"
 1480      6572696E 
 1480      6746756E 
 1480      6374696F 
 1480      6E732F61 
 1481              		.ident	"GCC: (GNU Tools for ARM Embedded Processors) 4.9.3 20150529 (release) [ARM/embedded-4_9-br
ARM GAS  /tmp/cc9fwfYh.s 			page 29


DEFINED SYMBOLS
                            *ABS*:00000000 arm_fir_decimate_q31.c
     /tmp/cc9fwfYh.s:20     .text:00000000 $t
     /tmp/cc9fwfYh.s:26     .text:00000000 arm_fir_decimate_q31
                     .debug_frame:00000010 $d

NO UNDEFINED SYMBOLS
