ARM GAS  /tmp/cc29KpfF.s 			page 1


   1              		.syntax unified
   2              		.cpu cortex-m4
   3              		.eabi_attribute 27, 1
   4              		.eabi_attribute 28, 1
   5              		.fpu fpv4-sp-d16
   6              		.eabi_attribute 20, 1
   7              		.eabi_attribute 21, 1
   8              		.eabi_attribute 23, 3
   9              		.eabi_attribute 24, 1
  10              		.eabi_attribute 25, 1
  11              		.eabi_attribute 26, 1
  12              		.eabi_attribute 30, 2
  13              		.eabi_attribute 34, 1
  14              		.eabi_attribute 18, 4
  15              		.thumb
  16              		.file	"arm_mult_q15.c"
  17              		.text
  18              	.Ltext0:
  19              		.cfi_sections	.debug_frame
  20              		.align	2
  21              		.p2align 4,,15
  22              		.global	arm_mult_q15
  23              		.thumb
  24              		.thumb_func
  25              		.type	arm_mult_q15, %function
  26              	arm_mult_q15:
  27              	.LFB135:
  28              		.file 1 "/home/sbcu/Dropbox/pcb-layouts/axo-on-discovery-board/axoloti/platform_linux/../CMSIS//DS
  29              		.loc 1 72 0
  30              		.cfi_startproc
  31              		@ args = 0, pretend = 0, frame = 0
  32              		@ frame_needed = 0, uses_anonymous_args = 0
  33              	.LVL0:
  34 0000 2DE9F04F 		push	{r4, r5, r6, r7, r8, r9, r10, fp, lr}
  35              		.cfi_def_cfa_offset 36
  36              		.cfi_offset 4, -36
  37              		.cfi_offset 5, -32
  38              		.cfi_offset 6, -28
  39              		.cfi_offset 7, -24
  40              		.cfi_offset 8, -20
  41              		.cfi_offset 9, -16
  42              		.cfi_offset 10, -12
  43              		.cfi_offset 11, -8
  44              		.cfi_offset 14, -4
  45              		.loc 1 87 0
  46 0004 5FEA9309 		lsrs	r9, r3, #2
  47              	.LVL1:
  48 0008 3BD0     		beq	.L2
  49 000a 00F1080C 		add	ip, r0, #8
  50 000e 01F1080E 		add	lr, r1, #8
  51 0012 02F10807 		add	r7, r2, #8
  52 0016 C846     		mov	r8, r9
  53              	.LVL2:
  54              	.L3:
  55              		.loc 1 92 0
  56 0018 5EF8084C 		ldr	r4, [lr, #-8]
  57              		.loc 1 90 0
ARM GAS  /tmp/cc29KpfF.s 			page 2


  58 001c 5CF808AC 		ldr	r10, [ip, #-8]
  59              	.LVL3:
  60              		.loc 1 94 0
  61 0020 5CF804BC 		ldr	fp, [ip, #-4]
  62              	.LVL4:
  63              		.loc 1 96 0
  64 0024 5EF8046C 		ldr	r6, [lr, #-4]
  65              	.LVL5:
  66              		.loc 1 100 0
  67 0028 1AFB04F5 		smulbb	r5, r10, r4
  68              	.LVL6:
  69              		.loc 1 99 0
  70 002c 1AFB34FA 		smultt	r10, r10, r4
  71              	.LVL7:
  72              		.loc 1 102 0
  73 0030 1BFB06F4 		smulbb	r4, fp, r6
  74              	.LVL8:
  75              	.LBB2:
  76              		.loc 1 106 0
  77 0034 ED13     		asrs	r5, r5, #15
  78              	.LVL9:
  79              	.LBE2:
  80              	.LBB3:
  81              		.loc 1 108 0
  82 0036 E413     		asrs	r4, r4, #15
  83              	.LVL10:
  84              	.LBE3:
  85              	.LBB4:
  86              		.loc 1 106 0
  87              	@ 106 "/home/sbcu/Dropbox/pcb-layouts/axo-on-discovery-board/axoloti/platform_linux/../CMSIS//DSP_L
  88 0038 05F30F05 		ssat r5, #16, r5
  89              	@ 0 "" 2
  90              		.thumb
  91              	.LBE4:
  92              	.LBB5:
  93              		.loc 1 108 0
  94              	@ 108 "/home/sbcu/Dropbox/pcb-layouts/axo-on-discovery-board/axoloti/platform_linux/../CMSIS//DSP_L
  95 003c 04F30F04 		ssat r4, #16, r4
  96              	@ 0 "" 2
  97              		.thumb
  98              	.LBE5:
  99              		.loc 1 113 0
 100 0040 ADB2     		uxth	r5, r5
 101              		.loc 1 101 0
 102 0042 1BFB36F6 		smultt	r6, fp, r6
 103              	.LVL11:
 104              		.loc 1 114 0
 105 0046 A4B2     		uxth	r4, r4
 106              	.LBB6:
 107              		.loc 1 105 0
 108 0048 4FEAEA3A 		asr	r10, r10, #15
 109              	.LBE6:
 110              	.LBB7:
 111              		.loc 1 107 0
 112 004c F613     		asrs	r6, r6, #15
 113              	.LBE7:
 114              	.LBB8:
ARM GAS  /tmp/cc29KpfF.s 			page 3


 115              		.loc 1 105 0
 116              	@ 105 "/home/sbcu/Dropbox/pcb-layouts/axo-on-discovery-board/axoloti/platform_linux/../CMSIS//DSP_L
 117 004e 0AF30F0A 		ssat r10, #16, r10
 118              	@ 0 "" 2
 119              	.LVL12:
 120              		.thumb
 121              	.LBE8:
 122              	.LBB9:
 123              		.loc 1 107 0
 124              	@ 107 "/home/sbcu/Dropbox/pcb-layouts/axo-on-discovery-board/axoloti/platform_linux/../CMSIS//DSP_L
 125 0052 06F30F06 		ssat r6, #16, r6
 126              	@ 0 "" 2
 127              	.LVL13:
 128              		.thumb
 129              	.LBE9:
 130              		.loc 1 113 0
 131 0056 45EA0A45 		orr	r5, r5, r10, lsl #16
 132              		.loc 1 114 0
 133 005a 44EA0644 		orr	r4, r4, r6, lsl #16
 134              		.loc 1 87 0
 135 005e B8F10108 		subs	r8, r8, #1
 136              	.LVL14:
 137              		.loc 1 113 0
 138 0062 47F8085C 		str	r5, [r7, #-8]
 139              	.LVL15:
 140              		.loc 1 114 0
 141 0066 47F8044C 		str	r4, [r7, #-4]
 142 006a 0CF1080C 		add	ip, ip, #8
 143              	.LVL16:
 144 006e 0EF1080E 		add	lr, lr, #8
 145 0072 07F10807 		add	r7, r7, #8
 146              		.loc 1 87 0
 147 0076 CFD1     		bne	.L3
 148 0078 4FEAC909 		lsl	r9, r9, #3
 149 007c 4844     		add	r0, r0, r9
 150 007e 4944     		add	r1, r1, r9
 151 0080 4A44     		add	r2, r2, r9
 152              	.LVL17:
 153              	.L2:
 154              		.loc 1 141 0
 155 0082 13F00303 		ands	r3, r3, #3
 156              	.LVL18:
 157 0086 0ED0     		beq	.L1
 158 0088 023A     		subs	r2, r2, #2
 159              	.LVL19:
 160              	.L5:
 161              	.LBB10:
 162              		.loc 1 145 0
 163 008a 30F8025B 		ldrh	r5, [r0], #2
 164              	.LVL20:
 165 008e 31F8024B 		ldrh	r4, [r1], #2
 166              	.LVL21:
 167              	.LBE10:
 168              		.loc 1 141 0
 169 0092 013B     		subs	r3, r3, #1
 170              	.LVL22:
 171              	.LBB11:
ARM GAS  /tmp/cc29KpfF.s 			page 4


 172              		.loc 1 145 0
 173 0094 15FB04F4 		smulbb	r4, r5, r4
 174              	.LVL23:
 175 0098 4FEAE434 		asr	r4, r4, #15
 176              	.LVL24:
 177              	@ 145 "/home/sbcu/Dropbox/pcb-layouts/axo-on-discovery-board/axoloti/platform_linux/../CMSIS//DSP_L
 178 009c 04F30F04 		ssat r4, #16, r4
 179              	@ 0 "" 2
 180              	.LVL25:
 181              		.thumb
 182              	.LBE11:
 183 00a0 22F8024F 		strh	r4, [r2, #2]!	@ movhi
 184              	.LVL26:
 185              		.loc 1 141 0
 186 00a4 F1D1     		bne	.L5
 187              	.LVL27:
 188              	.L1:
 189 00a6 BDE8F08F 		pop	{r4, r5, r6, r7, r8, r9, r10, fp, pc}
 190              		.cfi_endproc
 191              	.LFE135:
 192              		.size	arm_mult_q15, .-arm_mult_q15
 193              	.Letext0:
 194              		.file 2 "/home/sbcu/Dropbox/pcb-layouts/axo-on-discovery-board/axoloti/platform_linux/arm-none-eab
 195              		.file 3 "/home/sbcu/Dropbox/pcb-layouts/axo-on-discovery-board/axoloti/platform_linux/arm-none-eab
 196              		.file 4 "/home/sbcu/Dropbox/pcb-layouts/axo-on-discovery-board/axoloti/platform_linux/../CMSIS//DS