ARM GAS  /tmp/ccqcFZkz.s 			page 1


   1              		.syntax unified
   2              		.cpu cortex-m4
   3              		.eabi_attribute 27, 1
   4              		.eabi_attribute 28, 1
   5              		.fpu fpv4-sp-d16
   6              		.eabi_attribute 20, 1
   7              		.eabi_attribute 21, 1
   8              		.eabi_attribute 23, 3
   9              		.eabi_attribute 24, 1
  10              		.eabi_attribute 25, 1
  11              		.eabi_attribute 26, 1
  12              		.eabi_attribute 30, 2
  13              		.eabi_attribute 34, 1
  14              		.eabi_attribute 18, 4
  15              		.thumb
  16              		.file	"arm_iir_lattice_q31.c"
  17              		.text
  18              	.Ltext0:
  19              		.cfi_sections	.debug_frame
  20              		.align	2
  21              		.p2align 4,,15
  22              		.global	arm_iir_lattice_q31
  23              		.thumb
  24              		.thumb_func
  25              		.type	arm_iir_lattice_q31, %function
  26              	arm_iir_lattice_q31:
  27              	.LFB135:
  28              		.file 1 "/home/sbcu/Dropbox/pcb-layouts/axo-on-discovery-board/axoloti/platform_linux/../CMSIS//DS
  29              		.loc 1 75 0
  30              		.cfi_startproc
  31              		@ args = 0, pretend = 0, frame = 72
  32              		@ frame_needed = 0, uses_anonymous_args = 0
  33              	.LVL0:
  34 0000 2DE9F04F 		push	{r4, r5, r6, r7, r8, r9, r10, fp, lr}
  35              		.cfi_def_cfa_offset 36
  36              		.cfi_offset 4, -36
  37              		.cfi_offset 5, -32
  38              		.cfi_offset 6, -28
  39              		.cfi_offset 7, -24
  40              		.cfi_offset 8, -20
  41              		.cfi_offset 9, -16
  42              		.cfi_offset 10, -12
  43              		.cfi_offset 11, -8
  44              		.cfi_offset 14, -4
  45 0004 93B0     		sub	sp, sp, #76
  46              		.cfi_def_cfa_offset 112
  47              		.loc 1 75 0
  48 0006 0592     		str	r2, [sp, #20]
  49              		.loc 1 80 0
  50 0008 0288     		ldrh	r2, [r0]
  51              	.LVL1:
  52 000a 0E92     		str	r2, [sp, #56]
  53              	.LVL2:
  54              		.loc 1 86 0
  55 000c 4268     		ldr	r2, [r0, #4]
  56              	.LVL3:
  57              		.loc 1 75 0
ARM GAS  /tmp/ccqcFZkz.s 			page 2


  58 000e 0491     		str	r1, [sp, #16]
  59              		.loc 1 86 0
  60 0010 0D92     		str	r2, [sp, #52]
  61              	.LVL4:
  62              		.loc 1 94 0
  63 0012 0F93     		str	r3, [sp, #60]
  64 0014 002B     		cmp	r3, #0
  65 0016 00F00281 		beq	.L11
  66 001a 0E9B     		ldr	r3, [sp, #56]
  67              	.LVL5:
  68 001c 8168     		ldr	r1, [r0, #8]
  69              	.LVL6:
  70 001e 0D9D     		ldr	r5, [sp, #52]
  71 0020 C068     		ldr	r0, [r0, #12]
  72              	.LVL7:
  73 0022 0891     		str	r1, [sp, #32]
  74 0024 5A1E     		subs	r2, r3, #1
  75              	.LVL8:
  76 0026 9308     		lsrs	r3, r2, #2
  77 0028 0793     		str	r3, [sp, #28]
  78 002a 02F00302 		and	r2, r2, #3
  79 002e 1B01     		lsls	r3, r3, #4
  80 0030 1446     		mov	r4, r2
  81 0032 0692     		str	r2, [sp, #24]
  82 0034 1A1D     		adds	r2, r3, #4
  83 0036 0431     		adds	r1, r1, #4
  84 0038 AA18     		adds	r2, r5, r2
  85 003a 0990     		str	r0, [sp, #36]
  86 003c 0430     		adds	r0, r0, #4
  87 003e 0192     		str	r2, [sp, #4]
  88 0040 CA18     		adds	r2, r1, r3
  89 0042 C318     		adds	r3, r0, r3
  90 0044 0B93     		str	r3, [sp, #44]
  91 0046 A300     		lsls	r3, r4, #2
  92 0048 0A93     		str	r3, [sp, #40]
  93 004a 0F9B     		ldr	r3, [sp, #60]
  94 004c 1191     		str	r1, [sp, #68]
  95 004e 1090     		str	r0, [sp, #64]
  96 0050 0C92     		str	r2, [sp, #48]
  97 0052 0295     		str	r5, [sp, #8]
  98 0054 0393     		str	r3, [sp, #12]
  99              	.LVL9:
 100              	.L10:
 101              		.loc 1 113 0
 102 0056 029B     		ldr	r3, [sp, #8]
 103              		.loc 1 115 0
 104 0058 089E     		ldr	r6, [sp, #32]
 105              		.loc 1 113 0
 106 005a 53F8044B 		ldr	r4, [r3], #4
 107 005e 0293     		str	r3, [sp, #8]
 108              	.LVL10:
 109 0060 1D46     		mov	r5, r3
 110              	.LBB26:
 111              	.LBB27:
 112              		.file 2 "/home/sbcu/Dropbox/pcb-layouts/axo-on-discovery-board/axoloti/platform_linux/../CMSIS//In
 113              		.loc 2 1853 0
 114 0062 049B     		ldr	r3, [sp, #16]
ARM GAS  /tmp/ccqcFZkz.s 			page 3


 115              	.LVL11:
 116              	.LBE27:
 117              	.LBE26:
 118              		.loc 1 115 0
 119 0064 3068     		ldr	r0, [r6]
 120              	.LVL12:
 121              	.LBB30:
 122              	.LBB28:
 123              		.loc 2 1853 0
 124 0066 53F8041B 		ldr	r1, [r3], #4
 125 006a 0493     		str	r3, [sp, #16]
 126              	.LVL13:
 127              	.LBE28:
 128              	.LBE30:
 129              		.loc 1 115 0
 130 006c 84FB0023 		smull	r2, r3, r4, r0
 131 0070 D20F     		lsrs	r2, r2, #31
 132 0072 42EA4302 		orr	r2, r2, r3, lsl #1
 133              	.LBB31:
 134              	.LBB29:
 135              		.loc 2 1853 0
 136              	@ 1853 "/home/sbcu/Dropbox/pcb-layouts/axo-on-discovery-board/axoloti/platform_linux/../CMSIS//Incl
 137 0076 82FAA1F3 		qsub r3, r1, r2
 138              	@ 0 "" 2
 139              	.LVL14:
 140              		.thumb
 141              	.LBE29:
 142              	.LBE31:
 143              		.loc 1 117 0
 144 007a 80FB0301 		smull	r0, r1, r0, r3
 145              	.LVL15:
 146 007e 4FEAD07A 		lsr	r10, r0, #31
 147 0082 4AEA410A 		orr	r10, r10, r1, lsl #1
 148              	.LBB32:
 149              	.LBB33:
 150              		.loc 2 1845 0
 151              	@ 1845 "/home/sbcu/Dropbox/pcb-layouts/axo-on-discovery-board/axoloti/platform_linux/../CMSIS//Incl
 152 0086 8AFA84F4 		qadd r4, r4, r10
 153              	@ 0 "" 2
 154              	.LVL16:
 155              		.thumb
 156              	.LBE33:
 157              	.LBE32:
 158              		.loc 1 119 0
 159 008a 45F8044C 		str	r4, [r5, #-4]
 160              	.LVL17:
 161 008e 2946     		mov	r1, r5
 162              		.loc 1 121 0
 163 0090 099D     		ldr	r5, [sp, #36]
 164              	.LVL18:
 165 0092 2A68     		ldr	r2, [r5]
 166 0094 84FB02AB 		smull	r10, fp, r4, r2
 167              	.LVL19:
 168              		.loc 1 129 0
 169 0098 079C     		ldr	r4, [sp, #28]
 170              	.LVL20:
 171 009a 002C     		cmp	r4, #0
ARM GAS  /tmp/ccqcFZkz.s 			page 4


 172 009c 00F0F980 		beq	.L16
 173 00a0 0A46     		mov	r2, r1
 174 00a2 2946     		mov	r1, r5
 175              	.LVL21:
 176 00a4 1032     		adds	r2, r2, #16
 177              	.LVL22:
 178 00a6 06F11400 		add	r0, r6, #20
 179 00aa 1431     		adds	r1, r1, #20
 180 00ac A646     		mov	lr, r4
 181              	.LVL23:
 182              	.L6:
 183              		.loc 1 134 0
 184 00ae 52F8106C 		ldr	r6, [r2, #-16]
 185              	.LVL24:
 186              		.loc 1 136 0
 187 00b2 50F810CC 		ldr	ip, [r0, #-16]
 188              	.LVL25:
 189 00b6 86FB0C45 		smull	r4, r5, r6, ip
 190 00ba E70F     		lsrs	r7, r4, #31
 191 00bc 47EA4507 		orr	r7, r7, r5, lsl #1
 192              	.LBB34:
 193              	.LBB35:
 194              		.loc 2 1853 0
 195              	@ 1853 "/home/sbcu/Dropbox/pcb-layouts/axo-on-discovery-board/axoloti/platform_linux/../CMSIS//Incl
 196 00c0 87FAA3F3 		qsub r3, r3, r7
 197              	@ 0 "" 2
 198              	.LVL26:
 199              		.thumb
 200              	.LBE35:
 201              	.LBE34:
 202              		.loc 1 138 0
 203 00c4 8CFB0345 		smull	r4, r5, ip, r3
 204 00c8 E40F     		lsrs	r4, r4, #31
 205 00ca 44EA4504 		orr	r4, r4, r5, lsl #1
 206              	.LBB36:
 207              	.LBB37:
 208              		.loc 2 1845 0
 209              	@ 1845 "/home/sbcu/Dropbox/pcb-layouts/axo-on-discovery-board/axoloti/platform_linux/../CMSIS//Incl
 210 00ce 84FA86F5 		qadd r5, r6, r4
 211              	@ 0 "" 2
 212              	.LVL27:
 213              		.thumb
 214              	.LBE37:
 215              	.LBE36:
 216              		.loc 1 141 0
 217 00d2 51F8108C 		ldr	r8, [r1, #-16]
 218              		.loc 1 143 0
 219 00d6 42F8105C 		str	r5, [r2, #-16]
 220              		.loc 1 150 0
 221 00da 50F80C4C 		ldr	r4, [r0, #-12]
 222              		.loc 1 147 0
 223 00de 52F80CCC 		ldr	ip, [r2, #-12]
 224              	.LVL28:
 225              		.loc 1 150 0
 226 00e2 8CFB0467 		smull	r6, r7, ip, r4
 227              	.LVL29:
 228              		.loc 1 141 0
ARM GAS  /tmp/ccqcFZkz.s 			page 5


 229 00e6 C8FB05AB 		smlal	r10, fp, r8, r5
 230              	.LVL30:
 231              		.loc 1 150 0
 232 00ea F50F     		lsrs	r5, r6, #31
 233              	.LVL31:
 234 00ec 45EA4705 		orr	r5, r5, r7, lsl #1
 235              	.LBB38:
 236              	.LBB39:
 237              		.loc 2 1853 0
 238              	@ 1853 "/home/sbcu/Dropbox/pcb-layouts/axo-on-discovery-board/axoloti/platform_linux/../CMSIS//Incl
 239 00f0 85FAA3F3 		qsub r3, r3, r5
 240              	@ 0 "" 2
 241              	.LVL32:
 242              		.thumb
 243              	.LBE39:
 244              	.LBE38:
 245              		.loc 1 152 0
 246 00f4 84FB0345 		smull	r4, r5, r4, r3
 247              	.LVL33:
 248 00f8 E40F     		lsrs	r4, r4, #31
 249 00fa 44EA4504 		orr	r4, r4, r5, lsl #1
 250              	.LBB40:
 251              	.LBB41:
 252              		.loc 2 1845 0
 253              	@ 1845 "/home/sbcu/Dropbox/pcb-layouts/axo-on-discovery-board/axoloti/platform_linux/../CMSIS//Incl
 254 00fe 84FA8CF5 		qadd r5, ip, r4
 255              	@ 0 "" 2
 256              	.LVL34:
 257              		.thumb
 258              	.LBE41:
 259              	.LBE40:
 260              		.loc 1 155 0
 261 0102 51F80C8C 		ldr	r8, [r1, #-12]
 262              		.loc 1 157 0
 263 0106 42F80C5C 		str	r5, [r2, #-12]
 264              	.LVL35:
 265              		.loc 1 165 0
 266 010a 50F8084C 		ldr	r4, [r0, #-8]
 267              		.loc 1 162 0
 268 010e 52F808CC 		ldr	ip, [r2, #-8]
 269              	.LVL36:
 270              		.loc 1 165 0
 271 0112 8CFB0467 		smull	r6, r7, ip, r4
 272              		.loc 1 155 0
 273 0116 C8FB05AB 		smlal	r10, fp, r8, r5
 274              	.LVL37:
 275              		.loc 1 165 0
 276 011a F50F     		lsrs	r5, r6, #31
 277              	.LVL38:
 278 011c 45EA4705 		orr	r5, r5, r7, lsl #1
 279              	.LBB42:
 280              	.LBB43:
 281              		.loc 2 1853 0
 282              	@ 1853 "/home/sbcu/Dropbox/pcb-layouts/axo-on-discovery-board/axoloti/platform_linux/../CMSIS//Incl
 283 0120 85FAA3F3 		qsub r3, r3, r5
 284              	@ 0 "" 2
 285              	.LVL39:
ARM GAS  /tmp/ccqcFZkz.s 			page 6


 286              		.thumb
 287              	.LBE43:
 288              	.LBE42:
 289              		.loc 1 167 0
 290 0124 84FB0345 		smull	r4, r5, r4, r3
 291              	.LVL40:
 292 0128 E40F     		lsrs	r4, r4, #31
 293 012a 44EA4504 		orr	r4, r4, r5, lsl #1
 294              	.LBB44:
 295              	.LBB45:
 296              		.loc 2 1845 0
 297              	@ 1845 "/home/sbcu/Dropbox/pcb-layouts/axo-on-discovery-board/axoloti/platform_linux/../CMSIS//Incl
 298 012e 84FA8CFC 		qadd ip, ip, r4
 299              	@ 0 "" 2
 300              	.LVL41:
 301              		.thumb
 302              	.LBE45:
 303              	.LBE44:
 304              		.loc 1 170 0
 305 0132 51F8088C 		ldr	r8, [r1, #-8]
 306              		.loc 1 172 0
 307 0136 42F808CC 		str	ip, [r2, #-8]
 308              	.LVL42:
 309              		.loc 1 180 0
 310 013a 50F8047C 		ldr	r7, [r0, #-4]
 311              		.loc 1 177 0
 312 013e 52F8046C 		ldr	r6, [r2, #-4]
 313              		.loc 1 180 0
 314 0142 86FB0745 		smull	r4, r5, r6, r7
 315 0146 E40F     		lsrs	r4, r4, #31
 316              		.loc 1 170 0
 317 0148 C8FB0CAB 		smlal	r10, fp, r8, ip
 318              	.LVL43:
 319              		.loc 1 180 0
 320 014c 44EA4504 		orr	r4, r4, r5, lsl #1
 321              	.LBB46:
 322              	.LBB47:
 323              		.loc 2 1853 0
 324              	@ 1853 "/home/sbcu/Dropbox/pcb-layouts/axo-on-discovery-board/axoloti/platform_linux/../CMSIS//Incl
 325 0150 84FAA3F3 		qsub r3, r3, r4
 326              	@ 0 "" 2
 327              	.LVL44:
 328              		.thumb
 329              	.LBE47:
 330              	.LBE46:
 331              		.loc 1 182 0
 332 0154 87FB0345 		smull	r4, r5, r7, r3
 333 0158 E40F     		lsrs	r4, r4, #31
 334 015a 44EA4504 		orr	r4, r4, r5, lsl #1
 335              	.LBB48:
 336              	.LBB49:
 337              		.loc 2 1845 0
 338              	@ 1845 "/home/sbcu/Dropbox/pcb-layouts/axo-on-discovery-board/axoloti/platform_linux/../CMSIS//Incl
 339 015e 84FA86F6 		qadd r6, r6, r4
 340              	@ 0 "" 2
 341              	.LVL45:
 342              		.thumb
ARM GAS  /tmp/ccqcFZkz.s 			page 7


 343              	.LBE49:
 344              	.LBE48:
 345              		.loc 1 185 0
 346 0162 51F8044C 		ldr	r4, [r1, #-4]
 347              		.loc 1 187 0
 348 0166 42F8046C 		str	r6, [r2, #-4]
 349              	.LVL46:
 350              		.loc 1 129 0
 351 016a BEF1010E 		subs	lr, lr, #1
 352              	.LVL47:
 353 016e 00F11000 		add	r0, r0, #16
 354              		.loc 1 185 0
 355 0172 C4FB06AB 		smlal	r10, fp, r4, r6
 356              	.LVL48:
 357 0176 02F11002 		add	r2, r2, #16
 358              	.LVL49:
 359 017a 01F11001 		add	r1, r1, #16
 360              		.loc 1 129 0
 361 017e 96D1     		bne	.L6
 362              		.loc 1 185 0
 363 0180 0B9A     		ldr	r2, [sp, #44]
 364              	.LVL50:
 365 0182 DDF80490 		ldr	r9, [sp, #4]
 366              		.loc 1 182 0
 367 0186 0C9D     		ldr	r5, [sp, #48]
 368              		.loc 1 185 0
 369 0188 0092     		str	r2, [sp]
 370              	.LVL51:
 371              	.L5:
 372              		.loc 1 198 0
 373 018a 069A     		ldr	r2, [sp, #24]
 374 018c 002A     		cmp	r2, #0
 375 018e 7DD0     		beq	.L24
 376 0190 DDF80080 		ldr	r8, [sp]
 377 0194 069C     		ldr	r4, [sp, #24]
 378 0196 CC46     		mov	ip, r9
 379 0198 CE46     		mov	lr, r9
 380              	.LVL52:
 381              	.L9:
 382              		.loc 1 200 0
 383 019a 5EF8042B 		ldr	r2, [lr], #4
 384              	.LVL53:
 385              		.loc 1 202 0
 386 019e 55F8040B 		ldr	r0, [r5], #4
 387              	.LVL54:
 388 01a2 82FB0067 		smull	r6, r7, r2, r0
 389 01a6 F10F     		lsrs	r1, r6, #31
 390 01a8 41EA4701 		orr	r1, r1, r7, lsl #1
 391              	.LBB50:
 392              	.LBB51:
 393              		.loc 2 1853 0
 394              	@ 1853 "/home/sbcu/Dropbox/pcb-layouts/axo-on-discovery-board/axoloti/platform_linux/../CMSIS//Incl
 395 01ac 81FAA3F3 		qsub r3, r3, r1
 396              	@ 0 "" 2
 397              	.LVL55:
 398              		.thumb
 399              	.LBE51:
ARM GAS  /tmp/ccqcFZkz.s 			page 8


 400              	.LBE50:
 401              		.loc 1 203 0
 402 01b0 80FB0301 		smull	r0, r1, r0, r3
 403              	.LVL56:
 404 01b4 C60F     		lsrs	r6, r0, #31
 405 01b6 46EA4106 		orr	r6, r6, r1, lsl #1
 406 01ba 1846     		mov	r0, r3
 407 01bc D917     		asrs	r1, r3, #31
 408              	.LVL57:
 409              	.LBB52:
 410              	.LBB53:
 411              		.loc 2 1845 0
 412              	@ 1845 "/home/sbcu/Dropbox/pcb-layouts/axo-on-discovery-board/axoloti/platform_linux/../CMSIS//Incl
 413 01be 86FA82F2 		qadd r2, r2, r6
 414              	@ 0 "" 2
 415              	.LVL58:
 416              		.thumb
 417              	.LBE53:
 418              	.LBE52:
 419              		.loc 1 205 0
 420 01c2 58F8046B 		ldr	r6, [r8], #4
 421              	.LVL59:
 422              		.loc 1 206 0
 423 01c6 4CF8042B 		str	r2, [ip], #4
 424              	.LVL60:
 425              		.loc 1 198 0
 426 01ca 013C     		subs	r4, r4, #1
 427              	.LVL61:
 428              		.loc 1 205 0
 429 01cc C6FB02AB 		smlal	r10, fp, r6, r2
 430              	.LVL62:
 431              		.loc 1 198 0
 432 01d0 E3D1     		bne	.L9
 433 01d2 009A     		ldr	r2, [sp]
 434              	.LVL63:
 435 01d4 0A9C     		ldr	r4, [sp, #40]
 436 01d6 1546     		mov	r5, r2
 437              	.LVL64:
 438 01d8 2544     		add	r5, r5, r4
 439 01da 0095     		str	r5, [sp]
 440 01dc A144     		add	r9, r9, r4
 441              	.LVL65:
 442              	.L8:
 443              		.loc 1 214 0
 444 01de 009A     		ldr	r2, [sp]
 445 01e0 1468     		ldr	r4, [r2]
 446              		.loc 1 217 0
 447 01e2 C9F80030 		str	r3, [r9]
 448              		.loc 1 214 0
 449 01e6 04FB01F2 		mul	r2, r4, r1
 450 01ea E317     		asrs	r3, r4, #31
 451 01ec 00FB0323 		mla	r3, r0, r3, r2
 452 01f0 019A     		ldr	r2, [sp, #4]
 453 01f2 A4FB0001 		umull	r0, r1, r4, r0
 454              	.LVL66:
 455 01f6 10EB0A04 		adds	r4, r0, r10
 456 01fa 1944     		add	r1, r1, r3
ARM GAS  /tmp/ccqcFZkz.s 			page 9


 457 01fc 02F10402 		add	r2, r2, #4
 458 0200 41EB0B05 		adc	r5, r1, fp
 459              	.LVL67:
 460              		.loc 1 220 0
 461 0204 E30F     		lsrs	r3, r4, #31
 462 0206 0192     		str	r2, [sp, #4]
 463 0208 059A     		ldr	r2, [sp, #20]
 464 020a 43EA4503 		orr	r3, r3, r5, lsl #1
 465 020e 42F8043B 		str	r3, [r2], #4
 466              	.LVL68:
 467              		.loc 1 94 0
 468 0212 039B     		ldr	r3, [sp, #12]
 469              		.loc 1 220 0
 470 0214 0592     		str	r2, [sp, #20]
 471              	.LVL69:
 472              		.loc 1 94 0
 473 0216 013B     		subs	r3, r3, #1
 474              	.LVL70:
 475 0218 0393     		str	r3, [sp, #12]
 476 021a 7FF41CAF 		bne	.L10
 477              	.LVL71:
 478              	.L11:
 479              		.loc 1 233 0
 480 021e 0D9B     		ldr	r3, [sp, #52]
 481              	.LVL72:
 482 0220 0F9A     		ldr	r2, [sp, #60]
 483 0222 03EB8200 		add	r0, r3, r2, lsl #2
 484              	.LVL73:
 485              		.loc 1 238 0
 486 0226 0E9B     		ldr	r3, [sp, #56]
 487 0228 9D08     		lsrs	r5, r3, #2
 488              	.LVL74:
 489 022a 20D0     		beq	.L4
 490 022c 0D9B     		ldr	r3, [sp, #52]
 491 022e 2946     		mov	r1, r5
 492 0230 03F11002 		add	r2, r3, #16
 493 0234 00F11003 		add	r3, r0, #16
 494              	.LVL75:
 495              	.L12:
 496              		.loc 1 240 0
 497 0238 53F8104C 		ldr	r4, [r3, #-16]
 498 023c 42F8104C 		str	r4, [r2, #-16]
 499              	.LVL76:
 500              		.loc 1 241 0
 501 0240 53F80C4C 		ldr	r4, [r3, #-12]
 502 0244 42F80C4C 		str	r4, [r2, #-12]
 503              	.LVL77:
 504              		.loc 1 242 0
 505 0248 53F8084C 		ldr	r4, [r3, #-8]
 506 024c 42F8084C 		str	r4, [r2, #-8]
 507              	.LVL78:
 508              		.loc 1 243 0
 509 0250 53F8044C 		ldr	r4, [r3, #-4]
 510 0254 42F8044C 		str	r4, [r2, #-4]
 511              		.loc 1 238 0
 512 0258 0139     		subs	r1, r1, #1
 513              	.LVL79:
ARM GAS  /tmp/ccqcFZkz.s 			page 10


 514 025a 03F11003 		add	r3, r3, #16
 515              	.LVL80:
 516 025e 02F11002 		add	r2, r2, #16
 517 0262 E9D1     		bne	.L12
 518 0264 0D9A     		ldr	r2, [sp, #52]
 519 0266 2B01     		lsls	r3, r5, #4
 520              	.LVL81:
 521 0268 1A44     		add	r2, r2, r3
 522 026a 0D92     		str	r2, [sp, #52]
 523 026c 1844     		add	r0, r0, r3
 524              	.LVL82:
 525              	.L4:
 526              		.loc 1 254 0
 527 026e 0E9B     		ldr	r3, [sp, #56]
 528 0270 13F00303 		ands	r3, r3, #3
 529              	.LVL83:
 530 0274 07D0     		beq	.L1
 531 0276 0D9A     		ldr	r2, [sp, #52]
 532 0278 043A     		subs	r2, r2, #4
 533              	.LVL84:
 534              	.L14:
 535              		.loc 1 256 0
 536 027a 50F8041B 		ldr	r1, [r0], #4
 537              	.LVL85:
 538 027e 42F8041F 		str	r1, [r2, #4]!
 539              		.loc 1 254 0
 540 0282 013B     		subs	r3, r3, #1
 541              	.LVL86:
 542 0284 F9D1     		bne	.L14
 543              	.LVL87:
 544              	.L1:
 545              		.loc 1 343 0
 546 0286 13B0     		add	sp, sp, #76
 547              		.cfi_remember_state
 548              		.cfi_def_cfa_offset 36
 549              		@ sp needed
 550 0288 BDE8F08F 		pop	{r4, r5, r6, r7, r8, r9, r10, fp, pc}
 551              	.LVL88:
 552              	.L24:
 553              		.cfi_restore_state
 554 028c 1846     		mov	r0, r3
 555 028e D917     		asrs	r1, r3, #31
 556 0290 A5E7     		b	.L8
 557              	.LVL89:
 558              	.L16:
 559              		.loc 1 121 0
 560 0292 109A     		ldr	r2, [sp, #64]
 561 0294 0092     		str	r2, [sp]
 562              		.loc 1 117 0
 563 0296 119D     		ldr	r5, [sp, #68]
 564              		.loc 1 129 0
 565 0298 DDF80890 		ldr	r9, [sp, #8]
 566 029c 75E7     		b	.L5
 567              		.cfi_endproc
 568              	.LFE135:
 569              		.size	arm_iir_lattice_q31, .-arm_iir_lattice_q31
 570              	.Letext0:
ARM GAS  /tmp/ccqcFZkz.s 			page 11


 571              		.file 3 "/home/sbcu/Dropbox/pcb-layouts/axo-on-discovery-board/axoloti/platform_linux/arm-none-eab
 572              		.file 4 "/home/sbcu/Dropbox/pcb-layouts/axo-on-discovery-board/axoloti/platform_linux/arm-none-eab
 573              		.file 5 "/home/sbcu/Dropbox/pcb-layouts/axo-on-discovery-board/axoloti/platform_linux/../CMSIS//DS
 574 029e 00BF     		.section	.debug_info,"",%progbits
 575              	.Ldebug_info0:
 576 0000 7E050000 		.4byte	0x57e
 577 0004 0400     		.2byte	0x4
 578 0006 00000000 		.4byte	.Ldebug_abbrev0
 579 000a 04       		.byte	0x4
 580 000b 01       		.uleb128 0x1
 581 000c 00000000 		.4byte	.LASF42
 582 0010 01       		.byte	0x1
 583 0011 38010000 		.4byte	.LASF43
 584 0015 00000000 		.4byte	.Ltext0
 585 0019 9E020000 		.4byte	.Letext0-.Ltext0
 586 001d 00000000 		.4byte	.Ldebug_line0
 587 0021 02       		.uleb128 0x2
 588 0022 08       		.byte	0x8
 589 0023 07       		.byte	0x7
 590 0024 4B020000 		.4byte	.LASF0
 591 0028 03       		.uleb128 0x3
 592 0029 04       		.byte	0x4
 593 002a 05       		.byte	0x5
 594 002b 696E7400 		.ascii	"int\000"
 595 002f 02       		.uleb128 0x2
 596 0030 04       		.byte	0x4
 597 0031 07       		.byte	0x7
 598 0032 3E020000 		.4byte	.LASF1
 599 0036 02       		.uleb128 0x2
 600 0037 01       		.byte	0x1
 601 0038 06       		.byte	0x6
 602 0039 02030000 		.4byte	.LASF2
 603 003d 02       		.uleb128 0x2
 604 003e 01       		.byte	0x1
 605 003f 08       		.byte	0x8
 606 0040 23010000 		.4byte	.LASF3
 607 0044 02       		.uleb128 0x2
 608 0045 02       		.byte	0x2
 609 0046 05       		.byte	0x5
 610 0047 B2020000 		.4byte	.LASF4
 611 004b 04       		.uleb128 0x4
 612 004c BC020000 		.4byte	.LASF6
 613 0050 03       		.byte	0x3
 614 0051 2B       		.byte	0x2b
 615 0052 56000000 		.4byte	0x56
 616 0056 02       		.uleb128 0x2
 617 0057 02       		.byte	0x2
 618 0058 07       		.byte	0x7
 619 0059 DF010000 		.4byte	.LASF5
 620 005d 04       		.uleb128 0x4
 621 005e 06010000 		.4byte	.LASF7
 622 0062 03       		.byte	0x3
 623 0063 3F       		.byte	0x3f
 624 0064 68000000 		.4byte	0x68
 625 0068 02       		.uleb128 0x2
 626 0069 04       		.byte	0x4
 627 006a 05       		.byte	0x5
ARM GAS  /tmp/ccqcFZkz.s 			page 12


 628 006b ED020000 		.4byte	.LASF8
 629 006f 04       		.uleb128 0x4
 630 0070 1E020000 		.4byte	.LASF9
 631 0074 03       		.byte	0x3
 632 0075 41       		.byte	0x41
 633 0076 7A000000 		.4byte	0x7a
 634 007a 02       		.uleb128 0x2
 635 007b 04       		.byte	0x4
 636 007c 07       		.byte	0x7
 637 007d C7010000 		.4byte	.LASF10
 638 0081 04       		.uleb128 0x4
 639 0082 06020000 		.4byte	.LASF11
 640 0086 03       		.byte	0x3
 641 0087 59       		.byte	0x59
 642 0088 8C000000 		.4byte	0x8c
 643 008c 02       		.uleb128 0x2
 644 008d 08       		.byte	0x8
 645 008e 05       		.byte	0x5
 646 008f 95020000 		.4byte	.LASF12
 647 0093 04       		.uleb128 0x4
 648 0094 C7020000 		.4byte	.LASF13
 649 0098 04       		.byte	0x4
 650 0099 1A       		.byte	0x1a
 651 009a 4B000000 		.4byte	0x4b
 652 009e 04       		.uleb128 0x4
 653 009f 7C020000 		.4byte	.LASF14
 654 00a3 04       		.byte	0x4
 655 00a4 1F       		.byte	0x1f
 656 00a5 5D000000 		.4byte	0x5d
 657 00a9 04       		.uleb128 0x4
 658 00aa E4020000 		.4byte	.LASF15
 659 00ae 04       		.byte	0x4
 660 00af 20       		.byte	0x20
 661 00b0 6F000000 		.4byte	0x6f
 662 00b4 04       		.uleb128 0x4
 663 00b5 8D020000 		.4byte	.LASF16
 664 00b9 04       		.byte	0x4
 665 00ba 25       		.byte	0x25
 666 00bb 81000000 		.4byte	0x81
 667 00bf 02       		.uleb128 0x2
 668 00c0 04       		.byte	0x4
 669 00c1 07       		.byte	0x7
 670 00c2 84020000 		.4byte	.LASF17
 671 00c6 02       		.uleb128 0x2
 672 00c7 01       		.byte	0x1
 673 00c8 08       		.byte	0x8
 674 00c9 AD020000 		.4byte	.LASF18
 675 00cd 02       		.uleb128 0x2
 676 00ce 08       		.byte	0x8
 677 00cf 04       		.byte	0x4
 678 00d0 17020000 		.4byte	.LASF19
 679 00d4 02       		.uleb128 0x2
 680 00d5 04       		.byte	0x4
 681 00d6 04       		.byte	0x4
 682 00d7 17010000 		.4byte	.LASF20
 683 00db 02       		.uleb128 0x2
 684 00dc 08       		.byte	0x8
ARM GAS  /tmp/ccqcFZkz.s 			page 13


 685 00dd 04       		.byte	0x4
 686 00de F6020000 		.4byte	.LASF21
 687 00e2 05       		.uleb128 0x5
 688 00e3 1D010000 		.4byte	.LASF22
 689 00e7 05       		.byte	0x5
 690 00e8 A001     		.2byte	0x1a0
 691 00ea 9E000000 		.4byte	0x9e
 692 00ee 05       		.uleb128 0x5
 693 00ef 6F020000 		.4byte	.LASF23
 694 00f3 05       		.byte	0x5
 695 00f4 A501     		.2byte	0x1a5
 696 00f6 B4000000 		.4byte	0xb4
 697 00fa 06       		.uleb128 0x6
 698 00fb 04       		.byte	0x4
 699 00fc E2000000 		.4byte	0xe2
 700 0100 07       		.uleb128 0x7
 701 0101 10       		.byte	0x10
 702 0102 05       		.byte	0x5
 703 0103 4F0F     		.2byte	0xf4f
 704 0105 3E010000 		.4byte	0x13e
 705 0109 08       		.uleb128 0x8
 706 010a 13030000 		.4byte	.LASF24
 707 010e 05       		.byte	0x5
 708 010f 510F     		.2byte	0xf51
 709 0111 93000000 		.4byte	0x93
 710 0115 00       		.byte	0
 711 0116 08       		.uleb128 0x8
 712 0117 F9000000 		.4byte	.LASF25
 713 011b 05       		.byte	0x5
 714 011c 520F     		.2byte	0xf52
 715 011e FA000000 		.4byte	0xfa
 716 0122 04       		.byte	0x4
 717 0123 08       		.uleb128 0x8
 718 0124 35020000 		.4byte	.LASF26
 719 0128 05       		.byte	0x5
 720 0129 530F     		.2byte	0xf53
 721 012b FA000000 		.4byte	0xfa
 722 012f 08       		.byte	0x8
 723 0130 08       		.uleb128 0x8
 724 0131 FD010000 		.4byte	.LASF27
 725 0135 05       		.byte	0x5
 726 0136 540F     		.2byte	0xf54
 727 0138 FA000000 		.4byte	0xfa
 728 013c 0C       		.byte	0xc
 729 013d 00       		.byte	0
 730 013e 05       		.uleb128 0x5
 731 013f 1D030000 		.4byte	.LASF28
 732 0143 05       		.byte	0x5
 733 0144 550F     		.2byte	0xf55
 734 0146 00010000 		.4byte	0x100
 735 014a 09       		.uleb128 0x9
 736 014b 75020000 		.4byte	.LASF29
 737 014f 02       		.byte	0x2
 738 0150 3907     		.2byte	0x739
 739 0152 9E000000 		.4byte	0x9e
 740 0156 03       		.byte	0x3
 741 0157 80010000 		.4byte	0x180
ARM GAS  /tmp/ccqcFZkz.s 			page 14


 742 015b 0A       		.uleb128 0xa
 743 015c 6F703100 		.ascii	"op1\000"
 744 0160 02       		.byte	0x2
 745 0161 3907     		.2byte	0x739
 746 0163 9E000000 		.4byte	0x9e
 747 0167 0A       		.uleb128 0xa
 748 0168 6F703200 		.ascii	"op2\000"
 749 016c 02       		.byte	0x2
 750 016d 3907     		.2byte	0x739
 751 016f 9E000000 		.4byte	0x9e
 752 0173 0B       		.uleb128 0xb
 753 0174 68020000 		.4byte	.LASF31
 754 0178 02       		.byte	0x2
 755 0179 3B07     		.2byte	0x73b
 756 017b 9E000000 		.4byte	0x9e
 757 017f 00       		.byte	0
 758 0180 09       		.uleb128 0x9
 759 0181 10010000 		.4byte	.LASF30
 760 0185 02       		.byte	0x2
 761 0186 3107     		.2byte	0x731
 762 0188 9E000000 		.4byte	0x9e
 763 018c 03       		.byte	0x3
 764 018d B6010000 		.4byte	0x1b6
 765 0191 0A       		.uleb128 0xa
 766 0192 6F703100 		.ascii	"op1\000"
 767 0196 02       		.byte	0x2
 768 0197 3107     		.2byte	0x731
 769 0199 9E000000 		.4byte	0x9e
 770 019d 0A       		.uleb128 0xa
 771 019e 6F703200 		.ascii	"op2\000"
 772 01a2 02       		.byte	0x2
 773 01a3 3107     		.2byte	0x731
 774 01a5 9E000000 		.4byte	0x9e
 775 01a9 0B       		.uleb128 0xb
 776 01aa 68020000 		.4byte	.LASF31
 777 01ae 02       		.byte	0x2
 778 01af 3307     		.2byte	0x733
 779 01b1 9E000000 		.4byte	0x9e
 780 01b5 00       		.byte	0
 781 01b6 0C       		.uleb128 0xc
 782 01b7 D0020000 		.4byte	.LASF44
 783 01bb 01       		.byte	0x1
 784 01bc 46       		.byte	0x46
 785 01bd 00000000 		.4byte	.LFB135
 786 01c1 9E020000 		.4byte	.LFE135-.LFB135
 787 01c5 01       		.uleb128 0x1
 788 01c6 9C       		.byte	0x9c
 789 01c7 76050000 		.4byte	0x576
 790 01cb 0D       		.uleb128 0xd
 791 01cc 5300     		.ascii	"S\000"
 792 01ce 01       		.byte	0x1
 793 01cf 47       		.byte	0x47
 794 01d0 76050000 		.4byte	0x576
 795 01d4 00000000 		.4byte	.LLST0
 796 01d8 0E       		.uleb128 0xe
 797 01d9 0E030000 		.4byte	.LASF32
 798 01dd 01       		.byte	0x1
ARM GAS  /tmp/ccqcFZkz.s 			page 15


 799 01de 48       		.byte	0x48
 800 01df FA000000 		.4byte	0xfa
 801 01e3 21000000 		.4byte	.LLST1
 802 01e7 0E       		.uleb128 0xe
 803 01e8 F8010000 		.4byte	.LASF33
 804 01ec 01       		.byte	0x1
 805 01ed 49       		.byte	0x49
 806 01ee FA000000 		.4byte	0xfa
 807 01f2 7D000000 		.4byte	.LLST2
 808 01f6 0E       		.uleb128 0xe
 809 01f7 A3020000 		.4byte	.LASF34
 810 01fb 01       		.byte	0x1
 811 01fc 4A       		.byte	0x4a
 812 01fd A9000000 		.4byte	0xa9
 813 0201 B5000000 		.4byte	.LLST3
 814 0205 0F       		.uleb128 0xf
 815 0206 F2010000 		.4byte	.LASF35
 816 020a 01       		.byte	0x1
 817 020b 4C       		.byte	0x4c
 818 020c E2000000 		.4byte	0xe2
 819 0210 D4000000 		.4byte	.LLST4
 820 0214 0F       		.uleb128 0xf
 821 0215 D9010000 		.4byte	.LASF36
 822 0219 01       		.byte	0x1
 823 021a 4C       		.byte	0x4c
 824 021b E2000000 		.4byte	0xe2
 825 021f 4B010000 		.4byte	.LLST5
 826 0223 0F       		.uleb128 0xf
 827 0224 00010000 		.4byte	.LASF37
 828 0228 01       		.byte	0x1
 829 0229 4C       		.byte	0x4c
 830 022a E2000000 		.4byte	0xe2
 831 022e 97010000 		.4byte	.LLST6
 832 0232 10       		.uleb128 0x10
 833 0233 62020000 		.4byte	.LASF38
 834 0237 01       		.byte	0x1
 835 0238 4C       		.byte	0x4c
 836 0239 E2000000 		.4byte	0xe2
 837 023d 11       		.uleb128 0x11
 838 023e 61636300 		.ascii	"acc\000"
 839 0242 01       		.byte	0x1
 840 0243 4D       		.byte	0x4d
 841 0244 EE000000 		.4byte	0xee
 842 0248 1D020000 		.4byte	.LLST7
 843 024c 0F       		.uleb128 0xf
 844 024d 31010000 		.4byte	.LASF39
 845 0251 01       		.byte	0x1
 846 0252 4E       		.byte	0x4e
 847 0253 A9000000 		.4byte	0xa9
 848 0257 69020000 		.4byte	.LLST8
 849 025b 0F       		.uleb128 0xf
 850 025c 10020000 		.4byte	.LASF40
 851 0260 01       		.byte	0x1
 852 0261 4E       		.byte	0x4e
 853 0262 A9000000 		.4byte	0xa9
 854 0266 BA020000 		.4byte	.LLST9
 855 026a 11       		.uleb128 0x11
ARM GAS  /tmp/ccqcFZkz.s 			page 16


 856 026b 70783100 		.ascii	"px1\000"
 857 026f 01       		.byte	0x1
 858 0270 4F       		.byte	0x4f
 859 0271 FA000000 		.4byte	0xfa
 860 0275 93030000 		.4byte	.LLST10
 861 0279 11       		.uleb128 0x11
 862 027a 70783200 		.ascii	"px2\000"
 863 027e 01       		.byte	0x1
 864 027f 4F       		.byte	0x4f
 865 0280 FA000000 		.4byte	0xfa
 866 0284 75040000 		.4byte	.LLST11
 867 0288 11       		.uleb128 0x11
 868 0289 706B00   		.ascii	"pk\000"
 869 028c 01       		.byte	0x1
 870 028d 4F       		.byte	0x4f
 871 028e FA000000 		.4byte	0xfa
 872 0292 6F050000 		.4byte	.LLST12
 873 0296 11       		.uleb128 0x11
 874 0297 707600   		.ascii	"pv\000"
 875 029a 01       		.byte	0x1
 876 029b 4F       		.byte	0x4f
 877 029c FA000000 		.4byte	0xfa
 878 02a0 B2050000 		.4byte	.LLST13
 879 02a4 0F       		.uleb128 0xf
 880 02a5 13030000 		.4byte	.LASF24
 881 02a9 01       		.byte	0x1
 882 02aa 50       		.byte	0x50
 883 02ab A9000000 		.4byte	0xa9
 884 02af 12060000 		.4byte	.LLST14
 885 02b3 0F       		.uleb128 0xf
 886 02b4 F9000000 		.4byte	.LASF25
 887 02b8 01       		.byte	0x1
 888 02b9 51       		.byte	0x51
 889 02ba FA000000 		.4byte	0xfa
 890 02be 31060000 		.4byte	.LLST15
 891 02c2 0F       		.uleb128 0xf
 892 02c3 29020000 		.4byte	.LASF41
 893 02c7 01       		.byte	0x1
 894 02c8 52       		.byte	0x52
 895 02c9 FA000000 		.4byte	0xfa
 896 02cd 21070000 		.4byte	.LLST16
 897 02d1 12       		.uleb128 0x12
 898 02d2 4A010000 		.4byte	0x14a
 899 02d6 62000000 		.4byte	.LBB26
 900 02da 00000000 		.4byte	.Ldebug_ranges0+0
 901 02de 01       		.byte	0x1
 902 02df 73       		.byte	0x73
 903 02e0 06030000 		.4byte	0x306
 904 02e4 13       		.uleb128 0x13
 905 02e5 67010000 		.4byte	0x167
 906 02e9 51070000 		.4byte	.LLST17
 907 02ed 13       		.uleb128 0x13
 908 02ee 5B010000 		.4byte	0x15b
 909 02f2 BA070000 		.4byte	.LLST18
 910 02f6 14       		.uleb128 0x14
 911 02f7 00000000 		.4byte	.Ldebug_ranges0+0
 912 02fb 15       		.uleb128 0x15
ARM GAS  /tmp/ccqcFZkz.s 			page 17


 913 02fc 73010000 		.4byte	0x173
 914 0300 EE070000 		.4byte	.LLST19
 915 0304 00       		.byte	0
 916 0305 00       		.byte	0
 917 0306 16       		.uleb128 0x16
 918 0307 80010000 		.4byte	0x180
 919 030b 86000000 		.4byte	.LBB32
 920 030f 04000000 		.4byte	.LBE32-.LBB32
 921 0313 01       		.byte	0x1
 922 0314 75       		.byte	0x75
 923 0315 3F030000 		.4byte	0x33f
 924 0319 13       		.uleb128 0x13
 925 031a 9D010000 		.4byte	0x19d
 926 031e 0C080000 		.4byte	.LLST20
 927 0322 13       		.uleb128 0x13
 928 0323 91010000 		.4byte	0x191
 929 0327 53080000 		.4byte	.LLST21
 930 032b 17       		.uleb128 0x17
 931 032c 86000000 		.4byte	.LBB33
 932 0330 04000000 		.4byte	.LBE33-.LBB33
 933 0334 15       		.uleb128 0x15
 934 0335 A9010000 		.4byte	0x1a9
 935 0339 72080000 		.4byte	.LLST22
 936 033d 00       		.byte	0
 937 033e 00       		.byte	0
 938 033f 16       		.uleb128 0x16
 939 0340 4A010000 		.4byte	0x14a
 940 0344 C0000000 		.4byte	.LBB34
 941 0348 04000000 		.4byte	.LBE34-.LBB34
 942 034c 01       		.byte	0x1
 943 034d 88       		.byte	0x88
 944 034e 78030000 		.4byte	0x378
 945 0352 13       		.uleb128 0x13
 946 0353 67010000 		.4byte	0x167
 947 0357 B9080000 		.4byte	.LLST23
 948 035b 13       		.uleb128 0x13
 949 035c 5B010000 		.4byte	0x15b
 950 0360 DF080000 		.4byte	.LLST24
 951 0364 17       		.uleb128 0x17
 952 0365 C0000000 		.4byte	.LBB35
 953 0369 04000000 		.4byte	.LBE35-.LBB35
 954 036d 15       		.uleb128 0x15
 955 036e 73010000 		.4byte	0x173
 956 0372 F2080000 		.4byte	.LLST25
 957 0376 00       		.byte	0
 958 0377 00       		.byte	0
 959 0378 16       		.uleb128 0x16
 960 0379 80010000 		.4byte	0x180
 961 037d CE000000 		.4byte	.LBB36
 962 0381 04000000 		.4byte	.LBE36-.LBB36
 963 0385 01       		.byte	0x1
 964 0386 8A       		.byte	0x8a
 965 0387 B1030000 		.4byte	0x3b1
 966 038b 13       		.uleb128 0x13
 967 038c 9D010000 		.4byte	0x19d
 968 0390 05090000 		.4byte	.LLST26
 969 0394 13       		.uleb128 0x13
ARM GAS  /tmp/ccqcFZkz.s 			page 18


 970 0395 91010000 		.4byte	0x191
 971 0399 2B090000 		.4byte	.LLST27
 972 039d 17       		.uleb128 0x17
 973 039e CE000000 		.4byte	.LBB37
 974 03a2 04000000 		.4byte	.LBE37-.LBB37
 975 03a6 15       		.uleb128 0x15
 976 03a7 A9010000 		.4byte	0x1a9
 977 03ab 3E090000 		.4byte	.LLST28
 978 03af 00       		.byte	0
 979 03b0 00       		.byte	0
 980 03b1 16       		.uleb128 0x16
 981 03b2 4A010000 		.4byte	0x14a
 982 03b6 F0000000 		.4byte	.LBB38
 983 03ba 04000000 		.4byte	.LBE38-.LBB38
 984 03be 01       		.byte	0x1
 985 03bf 96       		.byte	0x96
 986 03c0 EA030000 		.4byte	0x3ea
 987 03c4 13       		.uleb128 0x13
 988 03c5 67010000 		.4byte	0x167
 989 03c9 69090000 		.4byte	.LLST29
 990 03cd 13       		.uleb128 0x13
 991 03ce 5B010000 		.4byte	0x15b
 992 03d2 AE090000 		.4byte	.LLST30
 993 03d6 17       		.uleb128 0x17
 994 03d7 F0000000 		.4byte	.LBB39
 995 03db 04000000 		.4byte	.LBE39-.LBB39
 996 03df 15       		.uleb128 0x15
 997 03e0 73010000 		.4byte	0x173
 998 03e4 C1090000 		.4byte	.LLST31
 999 03e8 00       		.byte	0
 1000 03e9 00       		.byte	0
 1001 03ea 16       		.uleb128 0x16
 1002 03eb 80010000 		.4byte	0x180
 1003 03ef FE000000 		.4byte	.LBB40
 1004 03f3 04000000 		.4byte	.LBE40-.LBB40
 1005 03f7 01       		.byte	0x1
 1006 03f8 98       		.byte	0x98
 1007 03f9 23040000 		.4byte	0x423
 1008 03fd 13       		.uleb128 0x13
 1009 03fe 9D010000 		.4byte	0x19d
 1010 0402 D4090000 		.4byte	.LLST32
 1011 0406 13       		.uleb128 0x13
 1012 0407 91010000 		.4byte	0x191
 1013 040b 190A0000 		.4byte	.LLST33
 1014 040f 17       		.uleb128 0x17
 1015 0410 FE000000 		.4byte	.LBB41
 1016 0414 04000000 		.4byte	.LBE41-.LBB41
 1017 0418 15       		.uleb128 0x15
 1018 0419 A9010000 		.4byte	0x1a9
 1019 041d 2C0A0000 		.4byte	.LLST34
 1020 0421 00       		.byte	0
 1021 0422 00       		.byte	0
 1022 0423 16       		.uleb128 0x16
 1023 0424 4A010000 		.4byte	0x14a
 1024 0428 20010000 		.4byte	.LBB42
 1025 042c 04000000 		.4byte	.LBE42-.LBB42
 1026 0430 01       		.byte	0x1
ARM GAS  /tmp/ccqcFZkz.s 			page 19


 1027 0431 A5       		.byte	0xa5
 1028 0432 5C040000 		.4byte	0x45c
 1029 0436 13       		.uleb128 0x13
 1030 0437 67010000 		.4byte	0x167
 1031 043b 570A0000 		.4byte	.LLST35
 1032 043f 13       		.uleb128 0x13
 1033 0440 5B010000 		.4byte	0x15b
 1034 0444 BC0A0000 		.4byte	.LLST36
 1035 0448 17       		.uleb128 0x17
 1036 0449 20010000 		.4byte	.LBB43
 1037 044d 04000000 		.4byte	.LBE43-.LBB43
 1038 0451 15       		.uleb128 0x15
 1039 0452 73010000 		.4byte	0x173
 1040 0456 CF0A0000 		.4byte	.LLST37
 1041 045a 00       		.byte	0
 1042 045b 00       		.byte	0
 1043 045c 16       		.uleb128 0x16
 1044 045d 80010000 		.4byte	0x180
 1045 0461 2E010000 		.4byte	.LBB44
 1046 0465 04000000 		.4byte	.LBE44-.LBB44
 1047 0469 01       		.byte	0x1
 1048 046a A7       		.byte	0xa7
 1049 046b 95040000 		.4byte	0x495
 1050 046f 13       		.uleb128 0x13
 1051 0470 9D010000 		.4byte	0x19d
 1052 0474 E20A0000 		.4byte	.LLST38
 1053 0478 13       		.uleb128 0x13
 1054 0479 91010000 		.4byte	0x191
 1055 047d 270B0000 		.4byte	.LLST39
 1056 0481 17       		.uleb128 0x17
 1057 0482 2E010000 		.4byte	.LBB45
 1058 0486 04000000 		.4byte	.LBE45-.LBB45
 1059 048a 15       		.uleb128 0x15
 1060 048b A9010000 		.4byte	0x1a9
 1061 048f 460B0000 		.4byte	.LLST40
 1062 0493 00       		.byte	0
 1063 0494 00       		.byte	0
 1064 0495 16       		.uleb128 0x16
 1065 0496 4A010000 		.4byte	0x14a
 1066 049a 50010000 		.4byte	.LBB46
 1067 049e 04000000 		.4byte	.LBE46-.LBB46
 1068 04a2 01       		.byte	0x1
 1069 04a3 B4       		.byte	0xb4
 1070 04a4 CE040000 		.4byte	0x4ce
 1071 04a8 13       		.uleb128 0x13
 1072 04a9 67010000 		.4byte	0x167
 1073 04ad 590B0000 		.4byte	.LLST41
 1074 04b1 13       		.uleb128 0x13
 1075 04b2 5B010000 		.4byte	0x15b
 1076 04b6 9E0B0000 		.4byte	.LLST42
 1077 04ba 17       		.uleb128 0x17
 1078 04bb 50010000 		.4byte	.LBB47
 1079 04bf 04000000 		.4byte	.LBE47-.LBB47
 1080 04c3 15       		.uleb128 0x15
 1081 04c4 73010000 		.4byte	0x173
 1082 04c8 B10B0000 		.4byte	.LLST43
 1083 04cc 00       		.byte	0
ARM GAS  /tmp/ccqcFZkz.s 			page 20


 1084 04cd 00       		.byte	0
 1085 04ce 16       		.uleb128 0x16
 1086 04cf 80010000 		.4byte	0x180
 1087 04d3 5E010000 		.4byte	.LBB48
 1088 04d7 04000000 		.4byte	.LBE48-.LBB48
 1089 04db 01       		.byte	0x1
 1090 04dc B6       		.byte	0xb6
 1091 04dd 07050000 		.4byte	0x507
 1092 04e1 13       		.uleb128 0x13
 1093 04e2 9D010000 		.4byte	0x19d
 1094 04e6 C40B0000 		.4byte	.LLST44
 1095 04ea 13       		.uleb128 0x13
 1096 04eb 91010000 		.4byte	0x191
 1097 04ef EA0B0000 		.4byte	.LLST45
 1098 04f3 17       		.uleb128 0x17
 1099 04f4 5E010000 		.4byte	.LBB49
 1100 04f8 04000000 		.4byte	.LBE49-.LBB49
 1101 04fc 15       		.uleb128 0x15
 1102 04fd A9010000 		.4byte	0x1a9
 1103 0501 090C0000 		.4byte	.LLST46
 1104 0505 00       		.byte	0
 1105 0506 00       		.byte	0
 1106 0507 16       		.uleb128 0x16
 1107 0508 4A010000 		.4byte	0x14a
 1108 050c AC010000 		.4byte	.LBB50
 1109 0510 04000000 		.4byte	.LBE50-.LBB50
 1110 0514 01       		.byte	0x1
 1111 0515 CA       		.byte	0xca
 1112 0516 40050000 		.4byte	0x540
 1113 051a 13       		.uleb128 0x13
 1114 051b 67010000 		.4byte	0x167
 1115 051f 1C0C0000 		.4byte	.LLST47
 1116 0523 13       		.uleb128 0x13
 1117 0524 5B010000 		.4byte	0x15b
 1118 0528 810C0000 		.4byte	.LLST48
 1119 052c 17       		.uleb128 0x17
 1120 052d AC010000 		.4byte	.LBB51
 1121 0531 04000000 		.4byte	.LBE51-.LBB51
 1122 0535 15       		.uleb128 0x15
 1123 0536 73010000 		.4byte	0x173
 1124 053a 940C0000 		.4byte	.LLST49
 1125 053e 00       		.byte	0
 1126 053f 00       		.byte	0
 1127 0540 18       		.uleb128 0x18
 1128 0541 80010000 		.4byte	0x180
 1129 0545 BE010000 		.4byte	.LBB52
 1130 0549 04000000 		.4byte	.LBE52-.LBB52
 1131 054d 01       		.byte	0x1
 1132 054e CB       		.byte	0xcb
 1133 054f 13       		.uleb128 0x13
 1134 0550 9D010000 		.4byte	0x19d
 1135 0554 A70C0000 		.4byte	.LLST50
 1136 0558 13       		.uleb128 0x13
 1137 0559 91010000 		.4byte	0x191
 1138 055d CE0C0000 		.4byte	.LLST51
 1139 0561 17       		.uleb128 0x17
 1140 0562 BE010000 		.4byte	.LBB53
ARM GAS  /tmp/ccqcFZkz.s 			page 21


 1141 0566 04000000 		.4byte	.LBE53-.LBB53
 1142 056a 15       		.uleb128 0x15
 1143 056b A9010000 		.4byte	0x1a9
 1144 056f ED0C0000 		.4byte	.LLST52
 1145 0573 00       		.byte	0
 1146 0574 00       		.byte	0
 1147 0575 00       		.byte	0
 1148 0576 06       		.uleb128 0x6
 1149 0577 04       		.byte	0x4
 1150 0578 7C050000 		.4byte	0x57c
 1151 057c 19       		.uleb128 0x19
 1152 057d 3E010000 		.4byte	0x13e
 1153 0581 00       		.byte	0
 1154              		.section	.debug_abbrev,"",%progbits
 1155              	.Ldebug_abbrev0:
 1156 0000 01       		.uleb128 0x1
 1157 0001 11       		.uleb128 0x11
 1158 0002 01       		.byte	0x1
 1159 0003 25       		.uleb128 0x25
 1160 0004 0E       		.uleb128 0xe
 1161 0005 13       		.uleb128 0x13
 1162 0006 0B       		.uleb128 0xb
 1163 0007 03       		.uleb128 0x3
 1164 0008 0E       		.uleb128 0xe
 1165 0009 11       		.uleb128 0x11
 1166 000a 01       		.uleb128 0x1
 1167 000b 12       		.uleb128 0x12
 1168 000c 06       		.uleb128 0x6
 1169 000d 10       		.uleb128 0x10
 1170 000e 17       		.uleb128 0x17
 1171 000f 00       		.byte	0
 1172 0010 00       		.byte	0
 1173 0011 02       		.uleb128 0x2
 1174 0012 24       		.uleb128 0x24
 1175 0013 00       		.byte	0
 1176 0014 0B       		.uleb128 0xb
 1177 0015 0B       		.uleb128 0xb
 1178 0016 3E       		.uleb128 0x3e
 1179 0017 0B       		.uleb128 0xb
 1180 0018 03       		.uleb128 0x3
 1181 0019 0E       		.uleb128 0xe
 1182 001a 00       		.byte	0
 1183 001b 00       		.byte	0
 1184 001c 03       		.uleb128 0x3
 1185 001d 24       		.uleb128 0x24
 1186 001e 00       		.byte	0
 1187 001f 0B       		.uleb128 0xb
 1188 0020 0B       		.uleb128 0xb
 1189 0021 3E       		.uleb128 0x3e
 1190 0022 0B       		.uleb128 0xb
 1191 0023 03       		.uleb128 0x3
 1192 0024 08       		.uleb128 0x8
 1193 0025 00       		.byte	0
 1194 0026 00       		.byte	0
 1195 0027 04       		.uleb128 0x4
 1196 0028 16       		.uleb128 0x16
 1197 0029 00       		.byte	0
ARM GAS  /tmp/ccqcFZkz.s 			page 22


 1198 002a 03       		.uleb128 0x3
 1199 002b 0E       		.uleb128 0xe
 1200 002c 3A       		.uleb128 0x3a
 1201 002d 0B       		.uleb128 0xb
 1202 002e 3B       		.uleb128 0x3b
 1203 002f 0B       		.uleb128 0xb
 1204 0030 49       		.uleb128 0x49
 1205 0031 13       		.uleb128 0x13
 1206 0032 00       		.byte	0
 1207 0033 00       		.byte	0
 1208 0034 05       		.uleb128 0x5
 1209 0035 16       		.uleb128 0x16
 1210 0036 00       		.byte	0
 1211 0037 03       		.uleb128 0x3
 1212 0038 0E       		.uleb128 0xe
 1213 0039 3A       		.uleb128 0x3a
 1214 003a 0B       		.uleb128 0xb
 1215 003b 3B       		.uleb128 0x3b
 1216 003c 05       		.uleb128 0x5
 1217 003d 49       		.uleb128 0x49
 1218 003e 13       		.uleb128 0x13
 1219 003f 00       		.byte	0
 1220 0040 00       		.byte	0
 1221 0041 06       		.uleb128 0x6
 1222 0042 0F       		.uleb128 0xf
 1223 0043 00       		.byte	0
 1224 0044 0B       		.uleb128 0xb
 1225 0045 0B       		.uleb128 0xb
 1226 0046 49       		.uleb128 0x49
 1227 0047 13       		.uleb128 0x13
 1228 0048 00       		.byte	0
 1229 0049 00       		.byte	0
 1230 004a 07       		.uleb128 0x7
 1231 004b 13       		.uleb128 0x13
 1232 004c 01       		.byte	0x1
 1233 004d 0B       		.uleb128 0xb
 1234 004e 0B       		.uleb128 0xb
 1235 004f 3A       		.uleb128 0x3a
 1236 0050 0B       		.uleb128 0xb
 1237 0051 3B       		.uleb128 0x3b
 1238 0052 05       		.uleb128 0x5
 1239 0053 01       		.uleb128 0x1
 1240 0054 13       		.uleb128 0x13
 1241 0055 00       		.byte	0
 1242 0056 00       		.byte	0
 1243 0057 08       		.uleb128 0x8
 1244 0058 0D       		.uleb128 0xd
 1245 0059 00       		.byte	0
 1246 005a 03       		.uleb128 0x3
 1247 005b 0E       		.uleb128 0xe
 1248 005c 3A       		.uleb128 0x3a
 1249 005d 0B       		.uleb128 0xb
 1250 005e 3B       		.uleb128 0x3b
 1251 005f 05       		.uleb128 0x5
 1252 0060 49       		.uleb128 0x49
 1253 0061 13       		.uleb128 0x13
 1254 0062 38       		.uleb128 0x38
ARM GAS  /tmp/ccqcFZkz.s 			page 23


 1255 0063 0B       		.uleb128 0xb
 1256 0064 00       		.byte	0
 1257 0065 00       		.byte	0
 1258 0066 09       		.uleb128 0x9
 1259 0067 2E       		.uleb128 0x2e
 1260 0068 01       		.byte	0x1
 1261 0069 03       		.uleb128 0x3
 1262 006a 0E       		.uleb128 0xe
 1263 006b 3A       		.uleb128 0x3a
 1264 006c 0B       		.uleb128 0xb
 1265 006d 3B       		.uleb128 0x3b
 1266 006e 05       		.uleb128 0x5
 1267 006f 27       		.uleb128 0x27
 1268 0070 19       		.uleb128 0x19
 1269 0071 49       		.uleb128 0x49
 1270 0072 13       		.uleb128 0x13
 1271 0073 20       		.uleb128 0x20
 1272 0074 0B       		.uleb128 0xb
 1273 0075 01       		.uleb128 0x1
 1274 0076 13       		.uleb128 0x13
 1275 0077 00       		.byte	0
 1276 0078 00       		.byte	0
 1277 0079 0A       		.uleb128 0xa
 1278 007a 05       		.uleb128 0x5
 1279 007b 00       		.byte	0
 1280 007c 03       		.uleb128 0x3
 1281 007d 08       		.uleb128 0x8
 1282 007e 3A       		.uleb128 0x3a
 1283 007f 0B       		.uleb128 0xb
 1284 0080 3B       		.uleb128 0x3b
 1285 0081 05       		.uleb128 0x5
 1286 0082 49       		.uleb128 0x49
 1287 0083 13       		.uleb128 0x13
 1288 0084 00       		.byte	0
 1289 0085 00       		.byte	0
 1290 0086 0B       		.uleb128 0xb
 1291 0087 34       		.uleb128 0x34
 1292 0088 00       		.byte	0
 1293 0089 03       		.uleb128 0x3
 1294 008a 0E       		.uleb128 0xe
 1295 008b 3A       		.uleb128 0x3a
 1296 008c 0B       		.uleb128 0xb
 1297 008d 3B       		.uleb128 0x3b
 1298 008e 05       		.uleb128 0x5
 1299 008f 49       		.uleb128 0x49
 1300 0090 13       		.uleb128 0x13
 1301 0091 00       		.byte	0
 1302 0092 00       		.byte	0
 1303 0093 0C       		.uleb128 0xc
 1304 0094 2E       		.uleb128 0x2e
 1305 0095 01       		.byte	0x1
 1306 0096 3F       		.uleb128 0x3f
 1307 0097 19       		.uleb128 0x19
 1308 0098 03       		.uleb128 0x3
 1309 0099 0E       		.uleb128 0xe
 1310 009a 3A       		.uleb128 0x3a
 1311 009b 0B       		.uleb128 0xb
ARM GAS  /tmp/ccqcFZkz.s 			page 24


 1312 009c 3B       		.uleb128 0x3b
 1313 009d 0B       		.uleb128 0xb
 1314 009e 27       		.uleb128 0x27
 1315 009f 19       		.uleb128 0x19
 1316 00a0 11       		.uleb128 0x11
 1317 00a1 01       		.uleb128 0x1
 1318 00a2 12       		.uleb128 0x12
 1319 00a3 06       		.uleb128 0x6
 1320 00a4 40       		.uleb128 0x40
 1321 00a5 18       		.uleb128 0x18
 1322 00a6 9742     		.uleb128 0x2117
 1323 00a8 19       		.uleb128 0x19
 1324 00a9 01       		.uleb128 0x1
 1325 00aa 13       		.uleb128 0x13
 1326 00ab 00       		.byte	0
 1327 00ac 00       		.byte	0
 1328 00ad 0D       		.uleb128 0xd
 1329 00ae 05       		.uleb128 0x5
 1330 00af 00       		.byte	0
 1331 00b0 03       		.uleb128 0x3
 1332 00b1 08       		.uleb128 0x8
 1333 00b2 3A       		.uleb128 0x3a
 1334 00b3 0B       		.uleb128 0xb
 1335 00b4 3B       		.uleb128 0x3b
 1336 00b5 0B       		.uleb128 0xb
 1337 00b6 49       		.uleb128 0x49
 1338 00b7 13       		.uleb128 0x13
 1339 00b8 02       		.uleb128 0x2
 1340 00b9 17       		.uleb128 0x17
 1341 00ba 00       		.byte	0
 1342 00bb 00       		.byte	0
 1343 00bc 0E       		.uleb128 0xe
 1344 00bd 05       		.uleb128 0x5
 1345 00be 00       		.byte	0
 1346 00bf 03       		.uleb128 0x3
 1347 00c0 0E       		.uleb128 0xe
 1348 00c1 3A       		.uleb128 0x3a
 1349 00c2 0B       		.uleb128 0xb
 1350 00c3 3B       		.uleb128 0x3b
 1351 00c4 0B       		.uleb128 0xb
 1352 00c5 49       		.uleb128 0x49
 1353 00c6 13       		.uleb128 0x13
 1354 00c7 02       		.uleb128 0x2
 1355 00c8 17       		.uleb128 0x17
 1356 00c9 00       		.byte	0
 1357 00ca 00       		.byte	0
 1358 00cb 0F       		.uleb128 0xf
 1359 00cc 34       		.uleb128 0x34
 1360 00cd 00       		.byte	0
 1361 00ce 03       		.uleb128 0x3
 1362 00cf 0E       		.uleb128 0xe
 1363 00d0 3A       		.uleb128 0x3a
 1364 00d1 0B       		.uleb128 0xb
 1365 00d2 3B       		.uleb128 0x3b
 1366 00d3 0B       		.uleb128 0xb
 1367 00d4 49       		.uleb128 0x49
 1368 00d5 13       		.uleb128 0x13
ARM GAS  /tmp/ccqcFZkz.s 			page 25


 1369 00d6 02       		.uleb128 0x2
 1370 00d7 17       		.uleb128 0x17
 1371 00d8 00       		.byte	0
 1372 00d9 00       		.byte	0
 1373 00da 10       		.uleb128 0x10
 1374 00db 34       		.uleb128 0x34
 1375 00dc 00       		.byte	0
 1376 00dd 03       		.uleb128 0x3
 1377 00de 0E       		.uleb128 0xe
 1378 00df 3A       		.uleb128 0x3a
 1379 00e0 0B       		.uleb128 0xb
 1380 00e1 3B       		.uleb128 0x3b
 1381 00e2 0B       		.uleb128 0xb
 1382 00e3 49       		.uleb128 0x49
 1383 00e4 13       		.uleb128 0x13
 1384 00e5 00       		.byte	0
 1385 00e6 00       		.byte	0
 1386 00e7 11       		.uleb128 0x11
 1387 00e8 34       		.uleb128 0x34
 1388 00e9 00       		.byte	0
 1389 00ea 03       		.uleb128 0x3
 1390 00eb 08       		.uleb128 0x8
 1391 00ec 3A       		.uleb128 0x3a
 1392 00ed 0B       		.uleb128 0xb
 1393 00ee 3B       		.uleb128 0x3b
 1394 00ef 0B       		.uleb128 0xb
 1395 00f0 49       		.uleb128 0x49
 1396 00f1 13       		.uleb128 0x13
 1397 00f2 02       		.uleb128 0x2
 1398 00f3 17       		.uleb128 0x17
 1399 00f4 00       		.byte	0
 1400 00f5 00       		.byte	0
 1401 00f6 12       		.uleb128 0x12
 1402 00f7 1D       		.uleb128 0x1d
 1403 00f8 01       		.byte	0x1
 1404 00f9 31       		.uleb128 0x31
 1405 00fa 13       		.uleb128 0x13
 1406 00fb 52       		.uleb128 0x52
 1407 00fc 01       		.uleb128 0x1
 1408 00fd 55       		.uleb128 0x55
 1409 00fe 17       		.uleb128 0x17
 1410 00ff 58       		.uleb128 0x58
 1411 0100 0B       		.uleb128 0xb
 1412 0101 59       		.uleb128 0x59
 1413 0102 0B       		.uleb128 0xb
 1414 0103 01       		.uleb128 0x1
 1415 0104 13       		.uleb128 0x13
 1416 0105 00       		.byte	0
 1417 0106 00       		.byte	0
 1418 0107 13       		.uleb128 0x13
 1419 0108 05       		.uleb128 0x5
 1420 0109 00       		.byte	0
 1421 010a 31       		.uleb128 0x31
 1422 010b 13       		.uleb128 0x13
 1423 010c 02       		.uleb128 0x2
 1424 010d 17       		.uleb128 0x17
 1425 010e 00       		.byte	0
ARM GAS  /tmp/ccqcFZkz.s 			page 26


 1426 010f 00       		.byte	0
 1427 0110 14       		.uleb128 0x14
 1428 0111 0B       		.uleb128 0xb
 1429 0112 01       		.byte	0x1
 1430 0113 55       		.uleb128 0x55
 1431 0114 17       		.uleb128 0x17
 1432 0115 00       		.byte	0
 1433 0116 00       		.byte	0
 1434 0117 15       		.uleb128 0x15
 1435 0118 34       		.uleb128 0x34
 1436 0119 00       		.byte	0
 1437 011a 31       		.uleb128 0x31
 1438 011b 13       		.uleb128 0x13
 1439 011c 02       		.uleb128 0x2
 1440 011d 17       		.uleb128 0x17
 1441 011e 00       		.byte	0
 1442 011f 00       		.byte	0
 1443 0120 16       		.uleb128 0x16
 1444 0121 1D       		.uleb128 0x1d
 1445 0122 01       		.byte	0x1
 1446 0123 31       		.uleb128 0x31
 1447 0124 13       		.uleb128 0x13
 1448 0125 11       		.uleb128 0x11
 1449 0126 01       		.uleb128 0x1
 1450 0127 12       		.uleb128 0x12
 1451 0128 06       		.uleb128 0x6
 1452 0129 58       		.uleb128 0x58
 1453 012a 0B       		.uleb128 0xb
 1454 012b 59       		.uleb128 0x59
 1455 012c 0B       		.uleb128 0xb
 1456 012d 01       		.uleb128 0x1
 1457 012e 13       		.uleb128 0x13
 1458 012f 00       		.byte	0
 1459 0130 00       		.byte	0
 1460 0131 17       		.uleb128 0x17
 1461 0132 0B       		.uleb128 0xb
 1462 0133 01       		.byte	0x1
 1463 0134 11       		.uleb128 0x11
 1464 0135 01       		.uleb128 0x1
 1465 0136 12       		.uleb128 0x12
 1466 0137 06       		.uleb128 0x6
 1467 0138 00       		.byte	0
 1468 0139 00       		.byte	0
 1469 013a 18       		.uleb128 0x18
 1470 013b 1D       		.uleb128 0x1d
 1471 013c 01       		.byte	0x1
 1472 013d 31       		.uleb128 0x31
 1473 013e 13       		.uleb128 0x13
 1474 013f 11       		.uleb128 0x11
 1475 0140 01       		.uleb128 0x1
 1476 0141 12       		.uleb128 0x12
 1477 0142 06       		.uleb128 0x6
 1478 0143 58       		.uleb128 0x58
 1479 0144 0B       		.uleb128 0xb
 1480 0145 59       		.uleb128 0x59
 1481 0146 0B       		.uleb128 0xb
 1482 0147 00       		.byte	0
ARM GAS  /tmp/ccqcFZkz.s 			page 27


 1483 0148 00       		.byte	0
 1484 0149 19       		.uleb128 0x19
 1485 014a 26       		.uleb128 0x26
 1486 014b 00       		.byte	0
 1487 014c 49       		.uleb128 0x49
 1488 014d 13       		.uleb128 0x13
 1489 014e 00       		.byte	0
 1490 014f 00       		.byte	0
 1491 0150 00       		.byte	0
 1492              		.section	.debug_loc,"",%progbits
 1493              	.Ldebug_loc0:
 1494              	.LLST0:
 1495 0000 00000000 		.4byte	.LVL0-.Ltext0
 1496 0004 22000000 		.4byte	.LVL7-.Ltext0
 1497 0008 0100     		.2byte	0x1
 1498 000a 50       		.byte	0x50
 1499 000b 22000000 		.4byte	.LVL7-.Ltext0
 1500 000f 9E020000 		.4byte	.LFE135-.Ltext0
 1501 0013 0400     		.2byte	0x4
 1502 0015 F3       		.byte	0xf3
 1503 0016 01       		.uleb128 0x1
 1504 0017 50       		.byte	0x50
 1505 0018 9F       		.byte	0x9f
 1506 0019 00000000 		.4byte	0
 1507 001d 00000000 		.4byte	0
 1508              	.LLST1:
 1509 0021 00000000 		.4byte	.LVL0-.Ltext0
 1510 0025 1E000000 		.4byte	.LVL6-.Ltext0
 1511 0029 0100     		.2byte	0x1
 1512 002b 51       		.byte	0x51
 1513 002c 1E000000 		.4byte	.LVL6-.Ltext0
 1514 0030 6C000000 		.4byte	.LVL13-.Ltext0
 1515 0034 0300     		.2byte	0x3
 1516 0036 91       		.byte	0x91
 1517 0037 A07F     		.sleb128 -96
 1518 0039 6C000000 		.4byte	.LVL13-.Ltext0
 1519 003d 7A000000 		.4byte	.LVL14-.Ltext0
 1520 0041 0300     		.2byte	0x3
 1521 0043 73       		.byte	0x73
 1522 0044 7C       		.sleb128 -4
 1523 0045 9F       		.byte	0x9f
 1524 0046 7A000000 		.4byte	.LVL14-.Ltext0
 1525 004a 16020000 		.4byte	.LVL69-.Ltext0
 1526 004e 0700     		.2byte	0x7
 1527 0050 91       		.byte	0x91
 1528 0051 A07F     		.sleb128 -96
 1529 0053 06       		.byte	0x6
 1530 0054 34       		.byte	0x34
 1531 0055 1C       		.byte	0x1c
 1532 0056 9F       		.byte	0x9f
 1533 0057 16020000 		.4byte	.LVL69-.Ltext0
 1534 005b 8C020000 		.4byte	.LVL88-.Ltext0
 1535 005f 0300     		.2byte	0x3
 1536 0061 91       		.byte	0x91
 1537 0062 A07F     		.sleb128 -96
 1538 0064 8C020000 		.4byte	.LVL88-.Ltext0
 1539 0068 9E020000 		.4byte	.LFE135-.Ltext0
ARM GAS  /tmp/ccqcFZkz.s 			page 28


 1540 006c 0700     		.2byte	0x7
 1541 006e 91       		.byte	0x91
 1542 006f A07F     		.sleb128 -96
 1543 0071 06       		.byte	0x6
 1544 0072 34       		.byte	0x34
 1545 0073 1C       		.byte	0x1c
 1546 0074 9F       		.byte	0x9f
 1547 0075 00000000 		.4byte	0
 1548 0079 00000000 		.4byte	0
 1549              	.LLST2:
 1550 007d 00000000 		.4byte	.LVL0-.Ltext0
 1551 0081 0A000000 		.4byte	.LVL1-.Ltext0
 1552 0085 0100     		.2byte	0x1
 1553 0087 52       		.byte	0x52
 1554 0088 0A000000 		.4byte	.LVL1-.Ltext0
 1555 008c 16020000 		.4byte	.LVL69-.Ltext0
 1556 0090 0300     		.2byte	0x3
 1557 0092 91       		.byte	0x91
 1558 0093 A47F     		.sleb128 -92
 1559 0095 16020000 		.4byte	.LVL69-.Ltext0
 1560 0099 1E020000 		.4byte	.LVL71-.Ltext0
 1561 009d 0100     		.2byte	0x1
 1562 009f 52       		.byte	0x52
 1563 00a0 1E020000 		.4byte	.LVL71-.Ltext0
 1564 00a4 9E020000 		.4byte	.LFE135-.Ltext0
 1565 00a8 0300     		.2byte	0x3
 1566 00aa 91       		.byte	0x91
 1567 00ab A47F     		.sleb128 -92
 1568 00ad 00000000 		.4byte	0
 1569 00b1 00000000 		.4byte	0
 1570              	.LLST3:
 1571 00b5 00000000 		.4byte	.LVL0-.Ltext0
 1572 00b9 1C000000 		.4byte	.LVL5-.Ltext0
 1573 00bd 0100     		.2byte	0x1
 1574 00bf 53       		.byte	0x53
 1575 00c0 1C000000 		.4byte	.LVL5-.Ltext0
 1576 00c4 9E020000 		.4byte	.LFE135-.Ltext0
 1577 00c8 0200     		.2byte	0x2
 1578 00ca 91       		.byte	0x91
 1579 00cb 4C       		.sleb128 -52
 1580 00cc 00000000 		.4byte	0
 1581 00d0 00000000 		.4byte	0
 1582              	.LLST4:
 1583 00d4 56000000 		.4byte	.LVL9-.Ltext0
 1584 00d8 6C000000 		.4byte	.LVL13-.Ltext0
 1585 00dc 0600     		.2byte	0x6
 1586 00de 91       		.byte	0x91
 1587 00df A07F     		.sleb128 -96
 1588 00e1 06       		.byte	0x6
 1589 00e2 34       		.byte	0x34
 1590 00e3 1C       		.byte	0x1c
 1591 00e4 6C000000 		.4byte	.LVL13-.Ltext0
 1592 00e8 7A000000 		.4byte	.LVL14-.Ltext0
 1593 00ec 0200     		.2byte	0x2
 1594 00ee 73       		.byte	0x73
 1595 00ef 78       		.sleb128 -8
 1596 00f0 7A000000 		.4byte	.LVL14-.Ltext0
ARM GAS  /tmp/ccqcFZkz.s 			page 29


 1597 00f4 8E000000 		.4byte	.LVL17-.Ltext0
 1598 00f8 0600     		.2byte	0x6
 1599 00fa 91       		.byte	0x91
 1600 00fb A07F     		.sleb128 -96
 1601 00fd 06       		.byte	0x6
 1602 00fe 38       		.byte	0x38
 1603 00ff 1C       		.byte	0x1c
 1604 0100 98000000 		.4byte	.LVL19-.Ltext0
 1605 0104 C4000000 		.4byte	.LVL26-.Ltext0
 1606 0108 0100     		.2byte	0x1
 1607 010a 53       		.byte	0x53
 1608 010b 76010000 		.4byte	.LVL48-.Ltext0
 1609 010f B0010000 		.4byte	.LVL55-.Ltext0
 1610 0113 0100     		.2byte	0x1
 1611 0115 53       		.byte	0x53
 1612 0116 D0010000 		.4byte	.LVL62-.Ltext0
 1613 011a DE010000 		.4byte	.LVL65-.Ltext0
 1614 011e 0100     		.2byte	0x1
 1615 0120 53       		.byte	0x53
 1616 0121 DE010000 		.4byte	.LVL65-.Ltext0
 1617 0125 F6010000 		.4byte	.LVL66-.Ltext0
 1618 0129 0100     		.2byte	0x1
 1619 012b 50       		.byte	0x50
 1620 012c F6010000 		.4byte	.LVL66-.Ltext0
 1621 0130 12020000 		.4byte	.LVL68-.Ltext0
 1622 0134 0200     		.2byte	0x2
 1623 0136 79       		.byte	0x79
 1624 0137 00       		.sleb128 0
 1625 0138 8C020000 		.4byte	.LVL88-.Ltext0
 1626 013c 9E020000 		.4byte	.LFE135-.Ltext0
 1627 0140 0100     		.2byte	0x1
 1628 0142 53       		.byte	0x53
 1629 0143 00000000 		.4byte	0
 1630 0147 00000000 		.4byte	0
 1631              	.LLST5:
 1632 014b 00000000 		.4byte	.LVL0-.Ltext0
 1633 014f 56000000 		.4byte	.LVL9-.Ltext0
 1634 0153 0200     		.2byte	0x2
 1635 0155 30       		.byte	0x30
 1636 0156 9F       		.byte	0x9f
 1637 0157 8A010000 		.4byte	.LVL51-.Ltext0
 1638 015b B0010000 		.4byte	.LVL55-.Ltext0
 1639 015f 0100     		.2byte	0x1
 1640 0161 53       		.byte	0x53
 1641 0162 D0010000 		.4byte	.LVL62-.Ltext0
 1642 0166 DE010000 		.4byte	.LVL65-.Ltext0
 1643 016a 0100     		.2byte	0x1
 1644 016c 53       		.byte	0x53
 1645 016d DE010000 		.4byte	.LVL65-.Ltext0
 1646 0171 F6010000 		.4byte	.LVL66-.Ltext0
 1647 0175 0100     		.2byte	0x1
 1648 0177 50       		.byte	0x50
 1649 0178 F6010000 		.4byte	.LVL66-.Ltext0
 1650 017c 12020000 		.4byte	.LVL68-.Ltext0
 1651 0180 0200     		.2byte	0x2
 1652 0182 79       		.byte	0x79
 1653 0183 00       		.sleb128 0
ARM GAS  /tmp/ccqcFZkz.s 			page 30


 1654 0184 8C020000 		.4byte	.LVL88-.Ltext0
 1655 0188 92020000 		.4byte	.LVL89-.Ltext0
 1656 018c 0100     		.2byte	0x1
 1657 018e 53       		.byte	0x53
 1658 018f 00000000 		.4byte	0
 1659 0193 00000000 		.4byte	0
 1660              	.LLST6:
 1661 0197 00000000 		.4byte	.LVL0-.Ltext0
 1662 019b 56000000 		.4byte	.LVL9-.Ltext0
 1663 019f 0200     		.2byte	0x2
 1664 01a1 30       		.byte	0x30
 1665 01a2 9F       		.byte	0x9f
 1666 01a3 60000000 		.4byte	.LVL10-.Ltext0
 1667 01a7 8A000000 		.4byte	.LVL16-.Ltext0
 1668 01ab 0100     		.2byte	0x1
 1669 01ad 54       		.byte	0x54
 1670 01ae 8A000000 		.4byte	.LVL16-.Ltext0
 1671 01b2 8E000000 		.4byte	.LVL17-.Ltext0
 1672 01b6 0200     		.2byte	0x2
 1673 01b8 75       		.byte	0x75
 1674 01b9 7C       		.sleb128 -4
 1675 01ba B2000000 		.4byte	.LVL24-.Ltext0
 1676 01be E6000000 		.4byte	.LVL29-.Ltext0
 1677 01c2 0100     		.2byte	0x1
 1678 01c4 56       		.byte	0x56
 1679 01c5 EA000000 		.4byte	.LVL30-.Ltext0
 1680 01c9 12010000 		.4byte	.LVL36-.Ltext0
 1681 01cd 0100     		.2byte	0x1
 1682 01cf 5C       		.byte	0x5c
 1683 01d0 1A010000 		.4byte	.LVL37-.Ltext0
 1684 01d4 32010000 		.4byte	.LVL41-.Ltext0
 1685 01d8 0100     		.2byte	0x1
 1686 01da 5C       		.byte	0x5c
 1687 01db 32010000 		.4byte	.LVL41-.Ltext0
 1688 01df 3A010000 		.4byte	.LVL42-.Ltext0
 1689 01e3 0200     		.2byte	0x2
 1690 01e5 72       		.byte	0x72
 1691 01e6 78       		.sleb128 -8
 1692 01e7 4C010000 		.4byte	.LVL43-.Ltext0
 1693 01eb 62010000 		.4byte	.LVL45-.Ltext0
 1694 01ef 0100     		.2byte	0x1
 1695 01f1 56       		.byte	0x56
 1696 01f2 62010000 		.4byte	.LVL45-.Ltext0
 1697 01f6 6A010000 		.4byte	.LVL46-.Ltext0
 1698 01fa 0200     		.2byte	0x2
 1699 01fc 72       		.byte	0x72
 1700 01fd 7C       		.sleb128 -4
 1701 01fe 9E010000 		.4byte	.LVL53-.Ltext0
 1702 0202 C2010000 		.4byte	.LVL58-.Ltext0
 1703 0206 0100     		.2byte	0x1
 1704 0208 52       		.byte	0x52
 1705 0209 C2010000 		.4byte	.LVL58-.Ltext0
 1706 020d CA010000 		.4byte	.LVL60-.Ltext0
 1707 0211 0200     		.2byte	0x2
 1708 0213 7E       		.byte	0x7e
 1709 0214 7C       		.sleb128 -4
 1710 0215 00000000 		.4byte	0
ARM GAS  /tmp/ccqcFZkz.s 			page 31


 1711 0219 00000000 		.4byte	0
 1712              	.LLST7:
 1713 021d 56000000 		.4byte	.LVL9-.Ltext0
 1714 0221 98000000 		.4byte	.LVL19-.Ltext0
 1715 0225 0A00     		.2byte	0xa
 1716 0227 9E       		.byte	0x9e
 1717 0228 08       		.uleb128 0x8
 1718 0229 00000000 		.8byte	0
 1718      00000000 
 1719 0231 98000000 		.4byte	.LVL19-.Ltext0
 1720 0235 04020000 		.4byte	.LVL67-.Ltext0
 1721 0239 0600     		.2byte	0x6
 1722 023b 5A       		.byte	0x5a
 1723 023c 93       		.byte	0x93
 1724 023d 04       		.uleb128 0x4
 1725 023e 5B       		.byte	0x5b
 1726 023f 93       		.byte	0x93
 1727 0240 04       		.uleb128 0x4
 1728 0241 04020000 		.4byte	.LVL67-.Ltext0
 1729 0245 1E020000 		.4byte	.LVL71-.Ltext0
 1730 0249 0600     		.2byte	0x6
 1731 024b 54       		.byte	0x54
 1732 024c 93       		.byte	0x93
 1733 024d 04       		.uleb128 0x4
 1734 024e 55       		.byte	0x55
 1735 024f 93       		.byte	0x93
 1736 0250 04       		.uleb128 0x4
 1737 0251 8C020000 		.4byte	.LVL88-.Ltext0
 1738 0255 9E020000 		.4byte	.LFE135-.Ltext0
 1739 0259 0600     		.2byte	0x6
 1740 025b 5A       		.byte	0x5a
 1741 025c 93       		.byte	0x93
 1742 025d 04       		.uleb128 0x4
 1743 025e 5B       		.byte	0x5b
 1744 025f 93       		.byte	0x93
 1745 0260 04       		.uleb128 0x4
 1746 0261 00000000 		.4byte	0
 1747 0265 00000000 		.4byte	0
 1748              	.LLST8:
 1749 0269 0C000000 		.4byte	.LVL2-.Ltext0
 1750 026d 1C000000 		.4byte	.LVL5-.Ltext0
 1751 0271 0100     		.2byte	0x1
 1752 0273 53       		.byte	0x53
 1753 0274 1C000000 		.4byte	.LVL5-.Ltext0
 1754 0278 56000000 		.4byte	.LVL9-.Ltext0
 1755 027c 0200     		.2byte	0x2
 1756 027e 91       		.byte	0x91
 1757 027f 4C       		.sleb128 -52
 1758 0280 56000000 		.4byte	.LVL9-.Ltext0
 1759 0284 16020000 		.4byte	.LVL69-.Ltext0
 1760 0288 0300     		.2byte	0x3
 1761 028a 91       		.byte	0x91
 1762 028b 9C7F     		.sleb128 -100
 1763 028d 16020000 		.4byte	.LVL69-.Ltext0
 1764 0291 18020000 		.4byte	.LVL70-.Ltext0
 1765 0295 0300     		.2byte	0x3
 1766 0297 73       		.byte	0x73
ARM GAS  /tmp/ccqcFZkz.s 			page 32


 1767 0298 7F       		.sleb128 -1
 1768 0299 9F       		.byte	0x9f
 1769 029a 18020000 		.4byte	.LVL70-.Ltext0
 1770 029e 20020000 		.4byte	.LVL72-.Ltext0
 1771 02a2 0100     		.2byte	0x1
 1772 02a4 53       		.byte	0x53
 1773 02a5 8C020000 		.4byte	.LVL88-.Ltext0
 1774 02a9 9E020000 		.4byte	.LFE135-.Ltext0
 1775 02ad 0300     		.2byte	0x3
 1776 02af 91       		.byte	0x91
 1777 02b0 9C7F     		.sleb128 -100
 1778 02b2 00000000 		.4byte	0
 1779 02b6 00000000 		.4byte	0
 1780              	.LLST9:
 1781 02ba 98000000 		.4byte	.LVL19-.Ltext0
 1782 02be AE000000 		.4byte	.LVL23-.Ltext0
 1783 02c2 0300     		.2byte	0x3
 1784 02c4 91       		.byte	0x91
 1785 02c5 AC7F     		.sleb128 -84
 1786 02c7 AE000000 		.4byte	.LVL23-.Ltext0
 1787 02cb 6E010000 		.4byte	.LVL47-.Ltext0
 1788 02cf 0100     		.2byte	0x1
 1789 02d1 5E       		.byte	0x5e
 1790 02d2 6E010000 		.4byte	.LVL47-.Ltext0
 1791 02d6 76010000 		.4byte	.LVL48-.Ltext0
 1792 02da 0300     		.2byte	0x3
 1793 02dc 7E       		.byte	0x7e
 1794 02dd 01       		.sleb128 1
 1795 02de 9F       		.byte	0x9f
 1796 02df 8A010000 		.4byte	.LVL51-.Ltext0
 1797 02e3 9A010000 		.4byte	.LVL52-.Ltext0
 1798 02e7 0300     		.2byte	0x3
 1799 02e9 91       		.byte	0x91
 1800 02ea A87F     		.sleb128 -88
 1801 02ec 9A010000 		.4byte	.LVL52-.Ltext0
 1802 02f0 CC010000 		.4byte	.LVL61-.Ltext0
 1803 02f4 0100     		.2byte	0x1
 1804 02f6 54       		.byte	0x54
 1805 02f7 CC010000 		.4byte	.LVL61-.Ltext0
 1806 02fb D0010000 		.4byte	.LVL62-.Ltext0
 1807 02ff 0300     		.2byte	0x3
 1808 0301 74       		.byte	0x74
 1809 0302 01       		.sleb128 1
 1810 0303 9F       		.byte	0x9f
 1811 0304 26020000 		.4byte	.LVL73-.Ltext0
 1812 0308 2A020000 		.4byte	.LVL74-.Ltext0
 1813 030c 0600     		.2byte	0x6
 1814 030e 91       		.byte	0x91
 1815 030f 48       		.sleb128 -56
 1816 0310 06       		.byte	0x6
 1817 0311 32       		.byte	0x32
 1818 0312 25       		.byte	0x25
 1819 0313 9F       		.byte	0x9f
 1820 0314 2A020000 		.4byte	.LVL74-.Ltext0
 1821 0318 38020000 		.4byte	.LVL75-.Ltext0
 1822 031c 0100     		.2byte	0x1
 1823 031e 55       		.byte	0x55
ARM GAS  /tmp/ccqcFZkz.s 			page 33


 1824 031f 38020000 		.4byte	.LVL75-.Ltext0
 1825 0323 50020000 		.4byte	.LVL78-.Ltext0
 1826 0327 0100     		.2byte	0x1
 1827 0329 51       		.byte	0x51
 1828 032a 50020000 		.4byte	.LVL78-.Ltext0
 1829 032e 5A020000 		.4byte	.LVL79-.Ltext0
 1830 0332 0300     		.2byte	0x3
 1831 0334 71       		.byte	0x71
 1832 0335 7F       		.sleb128 -1
 1833 0336 9F       		.byte	0x9f
 1834 0337 5A020000 		.4byte	.LVL79-.Ltext0
 1835 033b 6E020000 		.4byte	.LVL82-.Ltext0
 1836 033f 0100     		.2byte	0x1
 1837 0341 51       		.byte	0x51
 1838 0342 6E020000 		.4byte	.LVL82-.Ltext0
 1839 0346 74020000 		.4byte	.LVL83-.Ltext0
 1840 034a 0600     		.2byte	0x6
 1841 034c 91       		.byte	0x91
 1842 034d 48       		.sleb128 -56
 1843 034e 06       		.byte	0x6
 1844 034f 33       		.byte	0x33
 1845 0350 1A       		.byte	0x1a
 1846 0351 9F       		.byte	0x9f
 1847 0352 74020000 		.4byte	.LVL83-.Ltext0
 1848 0356 7E020000 		.4byte	.LVL85-.Ltext0
 1849 035a 0100     		.2byte	0x1
 1850 035c 53       		.byte	0x53
 1851 035d 7E020000 		.4byte	.LVL85-.Ltext0
 1852 0361 84020000 		.4byte	.LVL86-.Ltext0
 1853 0365 0300     		.2byte	0x3
 1854 0367 73       		.byte	0x73
 1855 0368 7F       		.sleb128 -1
 1856 0369 9F       		.byte	0x9f
 1857 036a 84020000 		.4byte	.LVL86-.Ltext0
 1858 036e 8C020000 		.4byte	.LVL88-.Ltext0
 1859 0372 0100     		.2byte	0x1
 1860 0374 53       		.byte	0x53
 1861 0375 8C020000 		.4byte	.LVL88-.Ltext0
 1862 0379 92020000 		.4byte	.LVL89-.Ltext0
 1863 037d 0100     		.2byte	0x1
 1864 037f 52       		.byte	0x52
 1865 0380 92020000 		.4byte	.LVL89-.Ltext0
 1866 0384 9E020000 		.4byte	.LFE135-.Ltext0
 1867 0388 0100     		.2byte	0x1
 1868 038a 54       		.byte	0x54
 1869 038b 00000000 		.4byte	0
 1870 038f 00000000 		.4byte	0
 1871              	.LLST10:
 1872 0393 56000000 		.4byte	.LVL9-.Ltext0
 1873 0397 60000000 		.4byte	.LVL10-.Ltext0
 1874 039b 0300     		.2byte	0x3
 1875 039d 91       		.byte	0x91
 1876 039e 987F     		.sleb128 -104
 1877 03a0 60000000 		.4byte	.LVL10-.Ltext0
 1878 03a4 64000000 		.4byte	.LVL11-.Ltext0
 1879 03a8 0300     		.2byte	0x3
 1880 03aa 73       		.byte	0x73
ARM GAS  /tmp/ccqcFZkz.s 			page 34


 1881 03ab 7C       		.sleb128 -4
 1882 03ac 9F       		.byte	0x9f
 1883 03ad 64000000 		.4byte	.LVL11-.Ltext0
 1884 03b1 92000000 		.4byte	.LVL18-.Ltext0
 1885 03b5 0300     		.2byte	0x3
 1886 03b7 75       		.byte	0x75
 1887 03b8 7C       		.sleb128 -4
 1888 03b9 9F       		.byte	0x9f
 1889 03ba 92000000 		.4byte	.LVL18-.Ltext0
 1890 03be 98000000 		.4byte	.LVL19-.Ltext0
 1891 03c2 0300     		.2byte	0x3
 1892 03c4 71       		.byte	0x71
 1893 03c5 7C       		.sleb128 -4
 1894 03c6 9F       		.byte	0x9f
 1895 03c7 98000000 		.4byte	.LVL19-.Ltext0
 1896 03cb A4000000 		.4byte	.LVL21-.Ltext0
 1897 03cf 0100     		.2byte	0x1
 1898 03d1 51       		.byte	0x51
 1899 03d2 A4000000 		.4byte	.LVL21-.Ltext0
 1900 03d6 A6000000 		.4byte	.LVL22-.Ltext0
 1901 03da 0100     		.2byte	0x1
 1902 03dc 52       		.byte	0x52
 1903 03dd A6000000 		.4byte	.LVL22-.Ltext0
 1904 03e1 AE000000 		.4byte	.LVL23-.Ltext0
 1905 03e5 0300     		.2byte	0x3
 1906 03e7 91       		.byte	0x91
 1907 03e8 987F     		.sleb128 -104
 1908 03ea AE000000 		.4byte	.LVL23-.Ltext0
 1909 03ee EA000000 		.4byte	.LVL30-.Ltext0
 1910 03f2 0300     		.2byte	0x3
 1911 03f4 72       		.byte	0x72
 1912 03f5 74       		.sleb128 -12
 1913 03f6 9F       		.byte	0x9f
 1914 03f7 EA000000 		.4byte	.LVL30-.Ltext0
 1915 03fb 1A010000 		.4byte	.LVL37-.Ltext0
 1916 03ff 0300     		.2byte	0x3
 1917 0401 72       		.byte	0x72
 1918 0402 78       		.sleb128 -8
 1919 0403 9F       		.byte	0x9f
 1920 0404 1A010000 		.4byte	.LVL37-.Ltext0
 1921 0408 4C010000 		.4byte	.LVL43-.Ltext0
 1922 040c 0300     		.2byte	0x3
 1923 040e 72       		.byte	0x72
 1924 040f 7C       		.sleb128 -4
 1925 0410 9F       		.byte	0x9f
 1926 0411 4C010000 		.4byte	.LVL43-.Ltext0
 1927 0415 7A010000 		.4byte	.LVL49-.Ltext0
 1928 0419 0100     		.2byte	0x1
 1929 041b 52       		.byte	0x52
 1930 041c 7A010000 		.4byte	.LVL49-.Ltext0
 1931 0420 82010000 		.4byte	.LVL50-.Ltext0
 1932 0424 0300     		.2byte	0x3
 1933 0426 72       		.byte	0x72
 1934 0427 70       		.sleb128 -16
 1935 0428 9F       		.byte	0x9f
 1936 0429 8A010000 		.4byte	.LVL51-.Ltext0
 1937 042d 9A010000 		.4byte	.LVL52-.Ltext0
ARM GAS  /tmp/ccqcFZkz.s 			page 35


 1938 0431 0100     		.2byte	0x1
 1939 0433 59       		.byte	0x59
 1940 0434 9A010000 		.4byte	.LVL52-.Ltext0
 1941 0438 9E010000 		.4byte	.LVL53-.Ltext0
 1942 043c 0100     		.2byte	0x1
 1943 043e 5E       		.byte	0x5e
 1944 043f 9E010000 		.4byte	.LVL53-.Ltext0
 1945 0443 D0010000 		.4byte	.LVL62-.Ltext0
 1946 0447 0300     		.2byte	0x3
 1947 0449 7E       		.byte	0x7e
 1948 044a 7C       		.sleb128 -4
 1949 044b 9F       		.byte	0x9f
 1950 044c D0010000 		.4byte	.LVL62-.Ltext0
 1951 0450 DE010000 		.4byte	.LVL65-.Ltext0
 1952 0454 0100     		.2byte	0x1
 1953 0456 5E       		.byte	0x5e
 1954 0457 8C020000 		.4byte	.LVL88-.Ltext0
 1955 045b 92020000 		.4byte	.LVL89-.Ltext0
 1956 045f 0100     		.2byte	0x1
 1957 0461 59       		.byte	0x59
 1958 0462 92020000 		.4byte	.LVL89-.Ltext0
 1959 0466 9E020000 		.4byte	.LFE135-.Ltext0
 1960 046a 0100     		.2byte	0x1
 1961 046c 51       		.byte	0x51
 1962 046d 00000000 		.4byte	0
 1963 0471 00000000 		.4byte	0
 1964              	.LLST11:
 1965 0475 56000000 		.4byte	.LVL9-.Ltext0
 1966 0479 60000000 		.4byte	.LVL10-.Ltext0
 1967 047d 0300     		.2byte	0x3
 1968 047f 91       		.byte	0x91
 1969 0480 987F     		.sleb128 -104
 1970 0482 60000000 		.4byte	.LVL10-.Ltext0
 1971 0486 64000000 		.4byte	.LVL11-.Ltext0
 1972 048a 0300     		.2byte	0x3
 1973 048c 73       		.byte	0x73
 1974 048d 7C       		.sleb128 -4
 1975 048e 9F       		.byte	0x9f
 1976 048f 64000000 		.4byte	.LVL11-.Ltext0
 1977 0493 8A000000 		.4byte	.LVL16-.Ltext0
 1978 0497 0300     		.2byte	0x3
 1979 0499 75       		.byte	0x75
 1980 049a 7C       		.sleb128 -4
 1981 049b 9F       		.byte	0x9f
 1982 049c 8A000000 		.4byte	.LVL16-.Ltext0
 1983 04a0 92000000 		.4byte	.LVL18-.Ltext0
 1984 04a4 0100     		.2byte	0x1
 1985 04a6 55       		.byte	0x55
 1986 04a7 92000000 		.4byte	.LVL18-.Ltext0
 1987 04ab A4000000 		.4byte	.LVL21-.Ltext0
 1988 04af 0100     		.2byte	0x1
 1989 04b1 51       		.byte	0x51
 1990 04b2 A4000000 		.4byte	.LVL21-.Ltext0
 1991 04b6 A6000000 		.4byte	.LVL22-.Ltext0
 1992 04ba 0100     		.2byte	0x1
 1993 04bc 52       		.byte	0x52
 1994 04bd A6000000 		.4byte	.LVL22-.Ltext0
ARM GAS  /tmp/ccqcFZkz.s 			page 36


 1995 04c1 AE000000 		.4byte	.LVL23-.Ltext0
 1996 04c5 0300     		.2byte	0x3
 1997 04c7 91       		.byte	0x91
 1998 04c8 987F     		.sleb128 -104
 1999 04ca AE000000 		.4byte	.LVL23-.Ltext0
 2000 04ce EA000000 		.4byte	.LVL30-.Ltext0
 2001 04d2 0300     		.2byte	0x3
 2002 04d4 72       		.byte	0x72
 2003 04d5 70       		.sleb128 -16
 2004 04d6 9F       		.byte	0x9f
 2005 04d7 EA000000 		.4byte	.LVL30-.Ltext0
 2006 04db 1A010000 		.4byte	.LVL37-.Ltext0
 2007 04df 0300     		.2byte	0x3
 2008 04e1 72       		.byte	0x72
 2009 04e2 74       		.sleb128 -12
 2010 04e3 9F       		.byte	0x9f
 2011 04e4 1A010000 		.4byte	.LVL37-.Ltext0
 2012 04e8 4C010000 		.4byte	.LVL43-.Ltext0
 2013 04ec 0300     		.2byte	0x3
 2014 04ee 72       		.byte	0x72
 2015 04ef 78       		.sleb128 -8
 2016 04f0 9F       		.byte	0x9f
 2017 04f1 4C010000 		.4byte	.LVL43-.Ltext0
 2018 04f5 76010000 		.4byte	.LVL48-.Ltext0
 2019 04f9 0300     		.2byte	0x3
 2020 04fb 72       		.byte	0x72
 2021 04fc 7C       		.sleb128 -4
 2022 04fd 9F       		.byte	0x9f
 2023 04fe 76010000 		.4byte	.LVL48-.Ltext0
 2024 0502 7A010000 		.4byte	.LVL49-.Ltext0
 2025 0506 0100     		.2byte	0x1
 2026 0508 52       		.byte	0x52
 2027 0509 7A010000 		.4byte	.LVL49-.Ltext0
 2028 050d 82010000 		.4byte	.LVL50-.Ltext0
 2029 0511 0300     		.2byte	0x3
 2030 0513 72       		.byte	0x72
 2031 0514 70       		.sleb128 -16
 2032 0515 9F       		.byte	0x9f
 2033 0516 8A010000 		.4byte	.LVL51-.Ltext0
 2034 051a 9A010000 		.4byte	.LVL52-.Ltext0
 2035 051e 0100     		.2byte	0x1
 2036 0520 59       		.byte	0x59
 2037 0521 9A010000 		.4byte	.LVL52-.Ltext0
 2038 0525 CA010000 		.4byte	.LVL60-.Ltext0
 2039 0529 0100     		.2byte	0x1
 2040 052b 5C       		.byte	0x5c
 2041 052c CA010000 		.4byte	.LVL60-.Ltext0
 2042 0530 D0010000 		.4byte	.LVL62-.Ltext0
 2043 0534 0300     		.2byte	0x3
 2044 0536 7C       		.byte	0x7c
 2045 0537 7C       		.sleb128 -4
 2046 0538 9F       		.byte	0x9f
 2047 0539 D0010000 		.4byte	.LVL62-.Ltext0
 2048 053d DE010000 		.4byte	.LVL65-.Ltext0
 2049 0541 0100     		.2byte	0x1
 2050 0543 5C       		.byte	0x5c
 2051 0544 04020000 		.4byte	.LVL67-.Ltext0
ARM GAS  /tmp/ccqcFZkz.s 			page 37


 2052 0548 1E020000 		.4byte	.LVL71-.Ltext0
 2053 054c 0300     		.2byte	0x3
 2054 054e 79       		.byte	0x79
 2055 054f 04       		.sleb128 4
 2056 0550 9F       		.byte	0x9f
 2057 0551 8C020000 		.4byte	.LVL88-.Ltext0
 2058 0555 92020000 		.4byte	.LVL89-.Ltext0
 2059 0559 0100     		.2byte	0x1
 2060 055b 59       		.byte	0x59
 2061 055c 92020000 		.4byte	.LVL89-.Ltext0
 2062 0560 9E020000 		.4byte	.LFE135-.Ltext0
 2063 0564 0100     		.2byte	0x1
 2064 0566 51       		.byte	0x51
 2065 0567 00000000 		.4byte	0
 2066 056b 00000000 		.4byte	0
 2067              	.LLST12:
 2068 056f 56000000 		.4byte	.LVL9-.Ltext0
 2069 0573 7A000000 		.4byte	.LVL14-.Ltext0
 2070 0577 0300     		.2byte	0x3
 2071 0579 91       		.byte	0x91
 2072 057a B07F     		.sleb128 -80
 2073 057c 8A010000 		.4byte	.LVL51-.Ltext0
 2074 0580 A2010000 		.4byte	.LVL54-.Ltext0
 2075 0584 0100     		.2byte	0x1
 2076 0586 55       		.byte	0x55
 2077 0587 A2010000 		.4byte	.LVL54-.Ltext0
 2078 058b BE010000 		.4byte	.LVL57-.Ltext0
 2079 058f 0300     		.2byte	0x3
 2080 0591 75       		.byte	0x75
 2081 0592 7C       		.sleb128 -4
 2082 0593 9F       		.byte	0x9f
 2083 0594 BE010000 		.4byte	.LVL57-.Ltext0
 2084 0598 D8010000 		.4byte	.LVL64-.Ltext0
 2085 059c 0100     		.2byte	0x1
 2086 059e 55       		.byte	0x55
 2087 059f 8C020000 		.4byte	.LVL88-.Ltext0
 2088 05a3 92020000 		.4byte	.LVL89-.Ltext0
 2089 05a7 0100     		.2byte	0x1
 2090 05a9 55       		.byte	0x55
 2091 05aa 00000000 		.4byte	0
 2092 05ae 00000000 		.4byte	0
 2093              	.LLST13:
 2094 05b2 56000000 		.4byte	.LVL9-.Ltext0
 2095 05b6 8E000000 		.4byte	.LVL17-.Ltext0
 2096 05ba 0300     		.2byte	0x3
 2097 05bc 91       		.byte	0x91
 2098 05bd B47F     		.sleb128 -76
 2099 05bf 8A010000 		.4byte	.LVL51-.Ltext0
 2100 05c3 9A010000 		.4byte	.LVL52-.Ltext0
 2101 05c7 0200     		.2byte	0x2
 2102 05c9 7D       		.byte	0x7d
 2103 05ca 00       		.sleb128 0
 2104 05cb 9A010000 		.4byte	.LVL52-.Ltext0
 2105 05cf C6010000 		.4byte	.LVL59-.Ltext0
 2106 05d3 0100     		.2byte	0x1
 2107 05d5 58       		.byte	0x58
 2108 05d6 C6010000 		.4byte	.LVL59-.Ltext0
ARM GAS  /tmp/ccqcFZkz.s 			page 38


 2109 05da D0010000 		.4byte	.LVL62-.Ltext0
 2110 05de 0300     		.2byte	0x3
 2111 05e0 78       		.byte	0x78
 2112 05e1 7C       		.sleb128 -4
 2113 05e2 9F       		.byte	0x9f
 2114 05e3 D0010000 		.4byte	.LVL62-.Ltext0
 2115 05e7 DE010000 		.4byte	.LVL65-.Ltext0
 2116 05eb 0100     		.2byte	0x1
 2117 05ed 58       		.byte	0x58
 2118 05ee DE010000 		.4byte	.LVL65-.Ltext0
 2119 05f2 1E020000 		.4byte	.LVL71-.Ltext0
 2120 05f6 0600     		.2byte	0x6
 2121 05f8 7D       		.byte	0x7d
 2122 05f9 00       		.sleb128 0
 2123 05fa 06       		.byte	0x6
 2124 05fb 23       		.byte	0x23
 2125 05fc 04       		.uleb128 0x4
 2126 05fd 9F       		.byte	0x9f
 2127 05fe 8C020000 		.4byte	.LVL88-.Ltext0
 2128 0602 92020000 		.4byte	.LVL89-.Ltext0
 2129 0606 0200     		.2byte	0x2
 2130 0608 7D       		.byte	0x7d
 2131 0609 00       		.sleb128 0
 2132 060a 00000000 		.4byte	0
 2133 060e 00000000 		.4byte	0
 2134              	.LLST14:
 2135 0612 0C000000 		.4byte	.LVL2-.Ltext0
 2136 0616 0E000000 		.4byte	.LVL3-.Ltext0
 2137 061a 0100     		.2byte	0x1
 2138 061c 52       		.byte	0x52
 2139 061d 0E000000 		.4byte	.LVL3-.Ltext0
 2140 0621 9E020000 		.4byte	.LFE135-.Ltext0
 2141 0625 0200     		.2byte	0x2
 2142 0627 91       		.byte	0x91
 2143 0628 48       		.sleb128 -56
 2144 0629 00000000 		.4byte	0
 2145 062d 00000000 		.4byte	0
 2146              	.LLST15:
 2147 0631 12000000 		.4byte	.LVL4-.Ltext0
 2148 0635 26000000 		.4byte	.LVL8-.Ltext0
 2149 0639 0100     		.2byte	0x1
 2150 063b 52       		.byte	0x52
 2151 063c 26000000 		.4byte	.LVL8-.Ltext0
 2152 0640 56000000 		.4byte	.LVL9-.Ltext0
 2153 0644 0100     		.2byte	0x1
 2154 0646 55       		.byte	0x55
 2155 0647 56000000 		.4byte	.LVL9-.Ltext0
 2156 064b 60000000 		.4byte	.LVL10-.Ltext0
 2157 064f 0300     		.2byte	0x3
 2158 0651 91       		.byte	0x91
 2159 0652 987F     		.sleb128 -104
 2160 0654 60000000 		.4byte	.LVL10-.Ltext0
 2161 0658 64000000 		.4byte	.LVL11-.Ltext0
 2162 065c 0300     		.2byte	0x3
 2163 065e 73       		.byte	0x73
 2164 065f 7C       		.sleb128 -4
 2165 0660 9F       		.byte	0x9f
ARM GAS  /tmp/ccqcFZkz.s 			page 39


 2166 0661 64000000 		.4byte	.LVL11-.Ltext0
 2167 0665 92000000 		.4byte	.LVL18-.Ltext0
 2168 0669 0300     		.2byte	0x3
 2169 066b 75       		.byte	0x75
 2170 066c 7C       		.sleb128 -4
 2171 066d 9F       		.byte	0x9f
 2172 066e 92000000 		.4byte	.LVL18-.Ltext0
 2173 0672 A4000000 		.4byte	.LVL21-.Ltext0
 2174 0676 0300     		.2byte	0x3
 2175 0678 71       		.byte	0x71
 2176 0679 7C       		.sleb128 -4
 2177 067a 9F       		.byte	0x9f
 2178 067b A4000000 		.4byte	.LVL21-.Ltext0
 2179 067f A6000000 		.4byte	.LVL22-.Ltext0
 2180 0683 0300     		.2byte	0x3
 2181 0685 72       		.byte	0x72
 2182 0686 7C       		.sleb128 -4
 2183 0687 9F       		.byte	0x9f
 2184 0688 A6000000 		.4byte	.LVL22-.Ltext0
 2185 068c 16020000 		.4byte	.LVL69-.Ltext0
 2186 0690 0700     		.2byte	0x7
 2187 0692 91       		.byte	0x91
 2188 0693 987F     		.sleb128 -104
 2189 0695 06       		.byte	0x6
 2190 0696 34       		.byte	0x34
 2191 0697 1C       		.byte	0x1c
 2192 0698 9F       		.byte	0x9f
 2193 0699 16020000 		.4byte	.LVL69-.Ltext0
 2194 069d 1E020000 		.4byte	.LVL71-.Ltext0
 2195 06a1 0300     		.2byte	0x3
 2196 06a3 91       		.byte	0x91
 2197 06a4 987F     		.sleb128 -104
 2198 06a6 26020000 		.4byte	.LVL73-.Ltext0
 2199 06aa 38020000 		.4byte	.LVL75-.Ltext0
 2200 06ae 0100     		.2byte	0x1
 2201 06b0 50       		.byte	0x50
 2202 06b1 38020000 		.4byte	.LVL75-.Ltext0
 2203 06b5 40020000 		.4byte	.LVL76-.Ltext0
 2204 06b9 0300     		.2byte	0x3
 2205 06bb 73       		.byte	0x73
 2206 06bc 74       		.sleb128 -12
 2207 06bd 9F       		.byte	0x9f
 2208 06be 40020000 		.4byte	.LVL76-.Ltext0
 2209 06c2 48020000 		.4byte	.LVL77-.Ltext0
 2210 06c6 0300     		.2byte	0x3
 2211 06c8 73       		.byte	0x73
 2212 06c9 78       		.sleb128 -8
 2213 06ca 9F       		.byte	0x9f
 2214 06cb 48020000 		.4byte	.LVL77-.Ltext0
 2215 06cf 50020000 		.4byte	.LVL78-.Ltext0
 2216 06d3 0300     		.2byte	0x3
 2217 06d5 73       		.byte	0x73
 2218 06d6 7C       		.sleb128 -4
 2219 06d7 9F       		.byte	0x9f
 2220 06d8 50020000 		.4byte	.LVL78-.Ltext0
 2221 06dc 5E020000 		.4byte	.LVL80-.Ltext0
 2222 06e0 0100     		.2byte	0x1
ARM GAS  /tmp/ccqcFZkz.s 			page 40


 2223 06e2 53       		.byte	0x53
 2224 06e3 5E020000 		.4byte	.LVL80-.Ltext0
 2225 06e7 68020000 		.4byte	.LVL81-.Ltext0
 2226 06eb 0300     		.2byte	0x3
 2227 06ed 73       		.byte	0x73
 2228 06ee 70       		.sleb128 -16
 2229 06ef 9F       		.byte	0x9f
 2230 06f0 6E020000 		.4byte	.LVL82-.Ltext0
 2231 06f4 8C020000 		.4byte	.LVL88-.Ltext0
 2232 06f8 0100     		.2byte	0x1
 2233 06fa 50       		.byte	0x50
 2234 06fb 8C020000 		.4byte	.LVL88-.Ltext0
 2235 06ff 92020000 		.4byte	.LVL89-.Ltext0
 2236 0703 0700     		.2byte	0x7
 2237 0705 91       		.byte	0x91
 2238 0706 987F     		.sleb128 -104
 2239 0708 06       		.byte	0x6
 2240 0709 34       		.byte	0x34
 2241 070a 1C       		.byte	0x1c
 2242 070b 9F       		.byte	0x9f
 2243 070c 92020000 		.4byte	.LVL89-.Ltext0
 2244 0710 9E020000 		.4byte	.LFE135-.Ltext0
 2245 0714 0300     		.2byte	0x3
 2246 0716 71       		.byte	0x71
 2247 0717 7C       		.sleb128 -4
 2248 0718 9F       		.byte	0x9f
 2249 0719 00000000 		.4byte	0
 2250 071d 00000000 		.4byte	0
 2251              	.LLST16:
 2252 0721 1E020000 		.4byte	.LVL71-.Ltext0
 2253 0725 38020000 		.4byte	.LVL75-.Ltext0
 2254 0729 0200     		.2byte	0x2
 2255 072b 91       		.byte	0x91
 2256 072c 44       		.sleb128 -60
 2257 072d 6E020000 		.4byte	.LVL82-.Ltext0
 2258 0731 7A020000 		.4byte	.LVL84-.Ltext0
 2259 0735 0200     		.2byte	0x2
 2260 0737 91       		.byte	0x91
 2261 0738 44       		.sleb128 -60
 2262 0739 7A020000 		.4byte	.LVL84-.Ltext0
 2263 073d 86020000 		.4byte	.LVL87-.Ltext0
 2264 0741 0600     		.2byte	0x6
 2265 0743 91       		.byte	0x91
 2266 0744 44       		.sleb128 -60
 2267 0745 06       		.byte	0x6
 2268 0746 23       		.byte	0x23
 2269 0747 04       		.uleb128 0x4
 2270 0748 9F       		.byte	0x9f
 2271 0749 00000000 		.4byte	0
 2272 074d 00000000 		.4byte	0
 2273              	.LLST17:
 2274 0751 66000000 		.4byte	.LVL12-.Ltext0
 2275 0755 7E000000 		.4byte	.LVL15-.Ltext0
 2276 0759 1400     		.2byte	0x14
 2277 075b 74       		.byte	0x74
 2278 075c 00       		.sleb128 0
 2279 075d F7       		.byte	0xf7
ARM GAS  /tmp/ccqcFZkz.s 			page 41


 2280 075e 28       		.uleb128 0x28
 2281 075f F7       		.byte	0xf7
 2282 0760 21       		.uleb128 0x21
 2283 0761 70       		.byte	0x70
 2284 0762 00       		.sleb128 0
 2285 0763 F7       		.byte	0xf7
 2286 0764 28       		.uleb128 0x28
 2287 0765 F7       		.byte	0xf7
 2288 0766 21       		.uleb128 0x21
 2289 0767 1E       		.byte	0x1e
 2290 0768 4F       		.byte	0x4f
 2291 0769 F7       		.byte	0xf7
 2292 076a 21       		.uleb128 0x21
 2293 076b 26       		.byte	0x26
 2294 076c F7       		.byte	0xf7
 2295 076d 2F       		.uleb128 0x2f
 2296 076e 9F       		.byte	0x9f
 2297 076f 7E000000 		.4byte	.LVL15-.Ltext0
 2298 0773 8A000000 		.4byte	.LVL16-.Ltext0
 2299 0777 1700     		.2byte	0x17
 2300 0779 74       		.byte	0x74
 2301 077a 00       		.sleb128 0
 2302 077b F7       		.byte	0xf7
 2303 077c 28       		.uleb128 0x28
 2304 077d F7       		.byte	0xf7
 2305 077e 21       		.uleb128 0x21
 2306 077f 91       		.byte	0x91
 2307 0780 B07F     		.sleb128 -80
 2308 0782 06       		.byte	0x6
 2309 0783 06       		.byte	0x6
 2310 0784 F7       		.byte	0xf7
 2311 0785 28       		.uleb128 0x28
 2312 0786 F7       		.byte	0xf7
 2313 0787 21       		.uleb128 0x21
 2314 0788 1E       		.byte	0x1e
 2315 0789 4F       		.byte	0x4f
 2316 078a F7       		.byte	0xf7
 2317 078b 21       		.uleb128 0x21
 2318 078c 26       		.byte	0x26
 2319 078d F7       		.byte	0xf7
 2320 078e 2F       		.uleb128 0x2f
 2321 078f 9F       		.byte	0x9f
 2322 0790 8A000000 		.4byte	.LVL16-.Ltext0
 2323 0794 8E000000 		.4byte	.LVL17-.Ltext0
 2324 0798 1800     		.2byte	0x18
 2325 079a 75       		.byte	0x75
 2326 079b 7C       		.sleb128 -4
 2327 079c 06       		.byte	0x6
 2328 079d F7       		.byte	0xf7
 2329 079e 28       		.uleb128 0x28
 2330 079f F7       		.byte	0xf7
 2331 07a0 21       		.uleb128 0x21
 2332 07a1 91       		.byte	0x91
 2333 07a2 B07F     		.sleb128 -80
 2334 07a4 06       		.byte	0x6
 2335 07a5 06       		.byte	0x6
 2336 07a6 F7       		.byte	0xf7
ARM GAS  /tmp/ccqcFZkz.s 			page 42


 2337 07a7 28       		.uleb128 0x28
 2338 07a8 F7       		.byte	0xf7
 2339 07a9 21       		.uleb128 0x21
 2340 07aa 1E       		.byte	0x1e
 2341 07ab 4F       		.byte	0x4f
 2342 07ac F7       		.byte	0xf7
 2343 07ad 21       		.uleb128 0x21
 2344 07ae 26       		.byte	0x26
 2345 07af F7       		.byte	0xf7
 2346 07b0 2F       		.uleb128 0x2f
 2347 07b1 9F       		.byte	0x9f
 2348 07b2 00000000 		.4byte	0
 2349 07b6 00000000 		.4byte	0
 2350              	.LLST18:
 2351 07ba 66000000 		.4byte	.LVL12-.Ltext0
 2352 07be 6C000000 		.4byte	.LVL13-.Ltext0
 2353 07c2 0600     		.2byte	0x6
 2354 07c4 91       		.byte	0x91
 2355 07c5 A07F     		.sleb128 -96
 2356 07c7 06       		.byte	0x6
 2357 07c8 34       		.byte	0x34
 2358 07c9 1C       		.byte	0x1c
 2359 07ca 6C000000 		.4byte	.LVL13-.Ltext0
 2360 07ce 7A000000 		.4byte	.LVL14-.Ltext0
 2361 07d2 0200     		.2byte	0x2
 2362 07d4 73       		.byte	0x73
 2363 07d5 78       		.sleb128 -8
 2364 07d6 7A000000 		.4byte	.LVL14-.Ltext0
 2365 07da 8E000000 		.4byte	.LVL17-.Ltext0
 2366 07de 0600     		.2byte	0x6
 2367 07e0 91       		.byte	0x91
 2368 07e1 A07F     		.sleb128 -96
 2369 07e3 06       		.byte	0x6
 2370 07e4 38       		.byte	0x38
 2371 07e5 1C       		.byte	0x1c
 2372 07e6 00000000 		.4byte	0
 2373 07ea 00000000 		.4byte	0
 2374              	.LLST19:
 2375 07ee 7A000000 		.4byte	.LVL14-.Ltext0
 2376 07f2 AE000000 		.4byte	.LVL23-.Ltext0
 2377 07f6 0100     		.2byte	0x1
 2378 07f8 53       		.byte	0x53
 2379 07f9 92020000 		.4byte	.LVL89-.Ltext0
 2380 07fd 9E020000 		.4byte	.LFE135-.Ltext0
 2381 0801 0100     		.2byte	0x1
 2382 0803 53       		.byte	0x53
 2383 0804 00000000 		.4byte	0
 2384 0808 00000000 		.4byte	0
 2385              	.LLST20:
 2386 080c 7A000000 		.4byte	.LVL14-.Ltext0
 2387 0810 7E000000 		.4byte	.LVL15-.Ltext0
 2388 0814 1400     		.2byte	0x14
 2389 0816 70       		.byte	0x70
 2390 0817 00       		.sleb128 0
 2391 0818 F7       		.byte	0xf7
 2392 0819 28       		.uleb128 0x28
 2393 081a F7       		.byte	0xf7
ARM GAS  /tmp/ccqcFZkz.s 			page 43


 2394 081b 21       		.uleb128 0x21
 2395 081c 73       		.byte	0x73
 2396 081d 00       		.sleb128 0
 2397 081e F7       		.byte	0xf7
 2398 081f 28       		.uleb128 0x28
 2399 0820 F7       		.byte	0xf7
 2400 0821 21       		.uleb128 0x21
 2401 0822 1E       		.byte	0x1e
 2402 0823 4F       		.byte	0x4f
 2403 0824 F7       		.byte	0xf7
 2404 0825 21       		.uleb128 0x21
 2405 0826 26       		.byte	0x26
 2406 0827 F7       		.byte	0xf7
 2407 0828 2F       		.uleb128 0x2f
 2408 0829 9F       		.byte	0x9f
 2409 082a 7E000000 		.4byte	.LVL15-.Ltext0
 2410 082e 8E000000 		.4byte	.LVL17-.Ltext0
 2411 0832 1700     		.2byte	0x17
 2412 0834 91       		.byte	0x91
 2413 0835 B07F     		.sleb128 -80
 2414 0837 06       		.byte	0x6
 2415 0838 06       		.byte	0x6
 2416 0839 F7       		.byte	0xf7
 2417 083a 28       		.uleb128 0x28
 2418 083b F7       		.byte	0xf7
 2419 083c 21       		.uleb128 0x21
 2420 083d 73       		.byte	0x73
 2421 083e 00       		.sleb128 0
 2422 083f F7       		.byte	0xf7
 2423 0840 28       		.uleb128 0x28
 2424 0841 F7       		.byte	0xf7
 2425 0842 21       		.uleb128 0x21
 2426 0843 1E       		.byte	0x1e
 2427 0844 4F       		.byte	0x4f
 2428 0845 F7       		.byte	0xf7
 2429 0846 21       		.uleb128 0x21
 2430 0847 26       		.byte	0x26
 2431 0848 F7       		.byte	0xf7
 2432 0849 2F       		.uleb128 0x2f
 2433 084a 9F       		.byte	0x9f
 2434 084b 00000000 		.4byte	0
 2435 084f 00000000 		.4byte	0
 2436              	.LLST21:
 2437 0853 7A000000 		.4byte	.LVL14-.Ltext0
 2438 0857 8A000000 		.4byte	.LVL16-.Ltext0
 2439 085b 0100     		.2byte	0x1
 2440 085d 54       		.byte	0x54
 2441 085e 8A000000 		.4byte	.LVL16-.Ltext0
 2442 0862 8E000000 		.4byte	.LVL17-.Ltext0
 2443 0866 0200     		.2byte	0x2
 2444 0868 75       		.byte	0x75
 2445 0869 7C       		.sleb128 -4
 2446 086a 00000000 		.4byte	0
 2447 086e 00000000 		.4byte	0
 2448              	.LLST22:
 2449 0872 8A000000 		.4byte	.LVL16-.Ltext0
 2450 0876 9A000000 		.4byte	.LVL20-.Ltext0
ARM GAS  /tmp/ccqcFZkz.s 			page 44


 2451 087a 0100     		.2byte	0x1
 2452 087c 54       		.byte	0x54
 2453 087d 9A000000 		.4byte	.LVL20-.Ltext0
 2454 0881 A4000000 		.4byte	.LVL21-.Ltext0
 2455 0885 0200     		.2byte	0x2
 2456 0887 71       		.byte	0x71
 2457 0888 7C       		.sleb128 -4
 2458 0889 A4000000 		.4byte	.LVL21-.Ltext0
 2459 088d A6000000 		.4byte	.LVL22-.Ltext0
 2460 0891 0200     		.2byte	0x2
 2461 0893 72       		.byte	0x72
 2462 0894 7C       		.sleb128 -4
 2463 0895 A6000000 		.4byte	.LVL22-.Ltext0
 2464 0899 AE000000 		.4byte	.LVL23-.Ltext0
 2465 089d 0600     		.2byte	0x6
 2466 089f 91       		.byte	0x91
 2467 08a0 987F     		.sleb128 -104
 2468 08a2 06       		.byte	0x6
 2469 08a3 34       		.byte	0x34
 2470 08a4 1C       		.byte	0x1c
 2471 08a5 92020000 		.4byte	.LVL89-.Ltext0
 2472 08a9 9E020000 		.4byte	.LFE135-.Ltext0
 2473 08ad 0200     		.2byte	0x2
 2474 08af 71       		.byte	0x71
 2475 08b0 7C       		.sleb128 -4
 2476 08b1 00000000 		.4byte	0
 2477 08b5 00000000 		.4byte	0
 2478              	.LLST23:
 2479 08b9 B6000000 		.4byte	.LVL25-.Ltext0
 2480 08bd E2000000 		.4byte	.LVL28-.Ltext0
 2481 08c1 1400     		.2byte	0x14
 2482 08c3 76       		.byte	0x76
 2483 08c4 00       		.sleb128 0
 2484 08c5 F7       		.byte	0xf7
 2485 08c6 28       		.uleb128 0x28
 2486 08c7 F7       		.byte	0xf7
 2487 08c8 21       		.uleb128 0x21
 2488 08c9 7C       		.byte	0x7c
 2489 08ca 00       		.sleb128 0
 2490 08cb F7       		.byte	0xf7
 2491 08cc 28       		.uleb128 0x28
 2492 08cd F7       		.byte	0xf7
 2493 08ce 21       		.uleb128 0x21
 2494 08cf 1E       		.byte	0x1e
 2495 08d0 4F       		.byte	0x4f
 2496 08d1 F7       		.byte	0xf7
 2497 08d2 21       		.uleb128 0x21
 2498 08d3 26       		.byte	0x26
 2499 08d4 F7       		.byte	0xf7
 2500 08d5 2F       		.uleb128 0x2f
 2501 08d6 9F       		.byte	0x9f
 2502 08d7 00000000 		.4byte	0
 2503 08db 00000000 		.4byte	0
 2504              	.LLST24:
 2505 08df B6000000 		.4byte	.LVL25-.Ltext0
 2506 08e3 C4000000 		.4byte	.LVL26-.Ltext0
 2507 08e7 0100     		.2byte	0x1
ARM GAS  /tmp/ccqcFZkz.s 			page 45


 2508 08e9 53       		.byte	0x53
 2509 08ea 00000000 		.4byte	0
 2510 08ee 00000000 		.4byte	0
 2511              	.LLST25:
 2512 08f2 C4000000 		.4byte	.LVL26-.Ltext0
 2513 08f6 F4000000 		.4byte	.LVL32-.Ltext0
 2514 08fa 0100     		.2byte	0x1
 2515 08fc 53       		.byte	0x53
 2516 08fd 00000000 		.4byte	0
 2517 0901 00000000 		.4byte	0
 2518              	.LLST26:
 2519 0905 C4000000 		.4byte	.LVL26-.Ltext0
 2520 0909 E2000000 		.4byte	.LVL28-.Ltext0
 2521 090d 1400     		.2byte	0x14
 2522 090f 7C       		.byte	0x7c
 2523 0910 00       		.sleb128 0
 2524 0911 F7       		.byte	0xf7
 2525 0912 28       		.uleb128 0x28
 2526 0913 F7       		.byte	0xf7
 2527 0914 21       		.uleb128 0x21
 2528 0915 73       		.byte	0x73
 2529 0916 00       		.sleb128 0
 2530 0917 F7       		.byte	0xf7
 2531 0918 28       		.uleb128 0x28
 2532 0919 F7       		.byte	0xf7
 2533 091a 21       		.uleb128 0x21
 2534 091b 1E       		.byte	0x1e
 2535 091c 4F       		.byte	0x4f
 2536 091d F7       		.byte	0xf7
 2537 091e 21       		.uleb128 0x21
 2538 091f 26       		.byte	0x26
 2539 0920 F7       		.byte	0xf7
 2540 0921 2F       		.uleb128 0x2f
 2541 0922 9F       		.byte	0x9f
 2542 0923 00000000 		.4byte	0
 2543 0927 00000000 		.4byte	0
 2544              	.LLST27:
 2545 092b C4000000 		.4byte	.LVL26-.Ltext0
 2546 092f E6000000 		.4byte	.LVL29-.Ltext0
 2547 0933 0100     		.2byte	0x1
 2548 0935 56       		.byte	0x56
 2549 0936 00000000 		.4byte	0
 2550 093a 00000000 		.4byte	0
 2551              	.LLST28:
 2552 093e D2000000 		.4byte	.LVL27-.Ltext0
 2553 0942 EC000000 		.4byte	.LVL31-.Ltext0
 2554 0946 0100     		.2byte	0x1
 2555 0948 55       		.byte	0x55
 2556 0949 EC000000 		.4byte	.LVL31-.Ltext0
 2557 094d 7A010000 		.4byte	.LVL49-.Ltext0
 2558 0951 0200     		.2byte	0x2
 2559 0953 72       		.byte	0x72
 2560 0954 70       		.sleb128 -16
 2561 0955 7A010000 		.4byte	.LVL49-.Ltext0
 2562 0959 82010000 		.4byte	.LVL50-.Ltext0
 2563 095d 0200     		.2byte	0x2
 2564 095f 72       		.byte	0x72
ARM GAS  /tmp/ccqcFZkz.s 			page 46


 2565 0960 60       		.sleb128 -32
 2566 0961 00000000 		.4byte	0
 2567 0965 00000000 		.4byte	0
 2568              	.LLST29:
 2569 0969 EA000000 		.4byte	.LVL30-.Ltext0
 2570 096d F8000000 		.4byte	.LVL33-.Ltext0
 2571 0971 1400     		.2byte	0x14
 2572 0973 7C       		.byte	0x7c
 2573 0974 00       		.sleb128 0
 2574 0975 F7       		.byte	0xf7
 2575 0976 28       		.uleb128 0x28
 2576 0977 F7       		.byte	0xf7
 2577 0978 21       		.uleb128 0x21
 2578 0979 74       		.byte	0x74
 2579 097a 00       		.sleb128 0
 2580 097b F7       		.byte	0xf7
 2581 097c 28       		.uleb128 0x28
 2582 097d F7       		.byte	0xf7
 2583 097e 21       		.uleb128 0x21
 2584 097f 1E       		.byte	0x1e
 2585 0980 4F       		.byte	0x4f
 2586 0981 F7       		.byte	0xf7
 2587 0982 21       		.uleb128 0x21
 2588 0983 26       		.byte	0x26
 2589 0984 F7       		.byte	0xf7
 2590 0985 2F       		.uleb128 0x2f
 2591 0986 9F       		.byte	0x9f
 2592 0987 F8000000 		.4byte	.LVL33-.Ltext0
 2593 098b 0A010000 		.4byte	.LVL35-.Ltext0
 2594 098f 1500     		.2byte	0x15
 2595 0991 7C       		.byte	0x7c
 2596 0992 00       		.sleb128 0
 2597 0993 F7       		.byte	0xf7
 2598 0994 28       		.uleb128 0x28
 2599 0995 F7       		.byte	0xf7
 2600 0996 21       		.uleb128 0x21
 2601 0997 70       		.byte	0x70
 2602 0998 74       		.sleb128 -12
 2603 0999 06       		.byte	0x6
 2604 099a F7       		.byte	0xf7
 2605 099b 28       		.uleb128 0x28
 2606 099c F7       		.byte	0xf7
 2607 099d 21       		.uleb128 0x21
 2608 099e 1E       		.byte	0x1e
 2609 099f 4F       		.byte	0x4f
 2610 09a0 F7       		.byte	0xf7
 2611 09a1 21       		.uleb128 0x21
 2612 09a2 26       		.byte	0x26
 2613 09a3 F7       		.byte	0xf7
 2614 09a4 2F       		.uleb128 0x2f
 2615 09a5 9F       		.byte	0x9f
 2616 09a6 00000000 		.4byte	0
 2617 09aa 00000000 		.4byte	0
 2618              	.LLST30:
 2619 09ae EA000000 		.4byte	.LVL30-.Ltext0
 2620 09b2 F4000000 		.4byte	.LVL32-.Ltext0
 2621 09b6 0100     		.2byte	0x1
ARM GAS  /tmp/ccqcFZkz.s 			page 47


 2622 09b8 53       		.byte	0x53
 2623 09b9 00000000 		.4byte	0
 2624 09bd 00000000 		.4byte	0
 2625              	.LLST31:
 2626 09c1 F4000000 		.4byte	.LVL32-.Ltext0
 2627 09c5 24010000 		.4byte	.LVL39-.Ltext0
 2628 09c9 0100     		.2byte	0x1
 2629 09cb 53       		.byte	0x53
 2630 09cc 00000000 		.4byte	0
 2631 09d0 00000000 		.4byte	0
 2632              	.LLST32:
 2633 09d4 F4000000 		.4byte	.LVL32-.Ltext0
 2634 09d8 F8000000 		.4byte	.LVL33-.Ltext0
 2635 09dc 1400     		.2byte	0x14
 2636 09de 74       		.byte	0x74
 2637 09df 00       		.sleb128 0
 2638 09e0 F7       		.byte	0xf7
 2639 09e1 28       		.uleb128 0x28
 2640 09e2 F7       		.byte	0xf7
 2641 09e3 21       		.uleb128 0x21
 2642 09e4 73       		.byte	0x73
 2643 09e5 00       		.sleb128 0
 2644 09e6 F7       		.byte	0xf7
 2645 09e7 28       		.uleb128 0x28
 2646 09e8 F7       		.byte	0xf7
 2647 09e9 21       		.uleb128 0x21
 2648 09ea 1E       		.byte	0x1e
 2649 09eb 4F       		.byte	0x4f
 2650 09ec F7       		.byte	0xf7
 2651 09ed 21       		.uleb128 0x21
 2652 09ee 26       		.byte	0x26
 2653 09ef F7       		.byte	0xf7
 2654 09f0 2F       		.uleb128 0x2f
 2655 09f1 9F       		.byte	0x9f
 2656 09f2 F8000000 		.4byte	.LVL33-.Ltext0
 2657 09f6 0A010000 		.4byte	.LVL35-.Ltext0
 2658 09fa 1500     		.2byte	0x15
 2659 09fc 70       		.byte	0x70
 2660 09fd 74       		.sleb128 -12
 2661 09fe 06       		.byte	0x6
 2662 09ff F7       		.byte	0xf7
 2663 0a00 28       		.uleb128 0x28
 2664 0a01 F7       		.byte	0xf7
 2665 0a02 21       		.uleb128 0x21
 2666 0a03 73       		.byte	0x73
 2667 0a04 00       		.sleb128 0
 2668 0a05 F7       		.byte	0xf7
 2669 0a06 28       		.uleb128 0x28
 2670 0a07 F7       		.byte	0xf7
 2671 0a08 21       		.uleb128 0x21
 2672 0a09 1E       		.byte	0x1e
 2673 0a0a 4F       		.byte	0x4f
 2674 0a0b F7       		.byte	0xf7
 2675 0a0c 21       		.uleb128 0x21
 2676 0a0d 26       		.byte	0x26
 2677 0a0e F7       		.byte	0xf7
 2678 0a0f 2F       		.uleb128 0x2f
ARM GAS  /tmp/ccqcFZkz.s 			page 48


 2679 0a10 9F       		.byte	0x9f
 2680 0a11 00000000 		.4byte	0
 2681 0a15 00000000 		.4byte	0
 2682              	.LLST33:
 2683 0a19 F4000000 		.4byte	.LVL32-.Ltext0
 2684 0a1d 12010000 		.4byte	.LVL36-.Ltext0
 2685 0a21 0100     		.2byte	0x1
 2686 0a23 5C       		.byte	0x5c
 2687 0a24 00000000 		.4byte	0
 2688 0a28 00000000 		.4byte	0
 2689              	.LLST34:
 2690 0a2c 02010000 		.4byte	.LVL34-.Ltext0
 2691 0a30 1C010000 		.4byte	.LVL38-.Ltext0
 2692 0a34 0100     		.2byte	0x1
 2693 0a36 55       		.byte	0x55
 2694 0a37 1C010000 		.4byte	.LVL38-.Ltext0
 2695 0a3b 7A010000 		.4byte	.LVL49-.Ltext0
 2696 0a3f 0200     		.2byte	0x2
 2697 0a41 72       		.byte	0x72
 2698 0a42 74       		.sleb128 -12
 2699 0a43 7A010000 		.4byte	.LVL49-.Ltext0
 2700 0a47 82010000 		.4byte	.LVL50-.Ltext0
 2701 0a4b 0200     		.2byte	0x2
 2702 0a4d 72       		.byte	0x72
 2703 0a4e 64       		.sleb128 -28
 2704 0a4f 00000000 		.4byte	0
 2705 0a53 00000000 		.4byte	0
 2706              	.LLST35:
 2707 0a57 1A010000 		.4byte	.LVL37-.Ltext0
 2708 0a5b 28010000 		.4byte	.LVL40-.Ltext0
 2709 0a5f 1400     		.2byte	0x14
 2710 0a61 7C       		.byte	0x7c
 2711 0a62 00       		.sleb128 0
 2712 0a63 F7       		.byte	0xf7
 2713 0a64 28       		.uleb128 0x28
 2714 0a65 F7       		.byte	0xf7
 2715 0a66 21       		.uleb128 0x21
 2716 0a67 74       		.byte	0x74
 2717 0a68 00       		.sleb128 0
 2718 0a69 F7       		.byte	0xf7
 2719 0a6a 28       		.uleb128 0x28
 2720 0a6b F7       		.byte	0xf7
 2721 0a6c 21       		.uleb128 0x21
 2722 0a6d 1E       		.byte	0x1e
 2723 0a6e 4F       		.byte	0x4f
 2724 0a6f F7       		.byte	0xf7
 2725 0a70 21       		.uleb128 0x21
 2726 0a71 26       		.byte	0x26
 2727 0a72 F7       		.byte	0xf7
 2728 0a73 2F       		.uleb128 0x2f
 2729 0a74 9F       		.byte	0x9f
 2730 0a75 28010000 		.4byte	.LVL40-.Ltext0
 2731 0a79 32010000 		.4byte	.LVL41-.Ltext0
 2732 0a7d 1500     		.2byte	0x15
 2733 0a7f 7C       		.byte	0x7c
 2734 0a80 00       		.sleb128 0
 2735 0a81 F7       		.byte	0xf7
ARM GAS  /tmp/ccqcFZkz.s 			page 49


 2736 0a82 28       		.uleb128 0x28
 2737 0a83 F7       		.byte	0xf7
 2738 0a84 21       		.uleb128 0x21
 2739 0a85 70       		.byte	0x70
 2740 0a86 78       		.sleb128 -8
 2741 0a87 06       		.byte	0x6
 2742 0a88 F7       		.byte	0xf7
 2743 0a89 28       		.uleb128 0x28
 2744 0a8a F7       		.byte	0xf7
 2745 0a8b 21       		.uleb128 0x21
 2746 0a8c 1E       		.byte	0x1e
 2747 0a8d 4F       		.byte	0x4f
 2748 0a8e F7       		.byte	0xf7
 2749 0a8f 21       		.uleb128 0x21
 2750 0a90 26       		.byte	0x26
 2751 0a91 F7       		.byte	0xf7
 2752 0a92 2F       		.uleb128 0x2f
 2753 0a93 9F       		.byte	0x9f
 2754 0a94 32010000 		.4byte	.LVL41-.Ltext0
 2755 0a98 3A010000 		.4byte	.LVL42-.Ltext0
 2756 0a9c 1600     		.2byte	0x16
 2757 0a9e 72       		.byte	0x72
 2758 0a9f 78       		.sleb128 -8
 2759 0aa0 06       		.byte	0x6
 2760 0aa1 F7       		.byte	0xf7
 2761 0aa2 28       		.uleb128 0x28
 2762 0aa3 F7       		.byte	0xf7
 2763 0aa4 21       		.uleb128 0x21
 2764 0aa5 70       		.byte	0x70
 2765 0aa6 78       		.sleb128 -8
 2766 0aa7 06       		.byte	0x6
 2767 0aa8 F7       		.byte	0xf7
 2768 0aa9 28       		.uleb128 0x28
 2769 0aaa F7       		.byte	0xf7
 2770 0aab 21       		.uleb128 0x21
 2771 0aac 1E       		.byte	0x1e
 2772 0aad 4F       		.byte	0x4f
 2773 0aae F7       		.byte	0xf7
 2774 0aaf 21       		.uleb128 0x21
 2775 0ab0 26       		.byte	0x26
 2776 0ab1 F7       		.byte	0xf7
 2777 0ab2 2F       		.uleb128 0x2f
 2778 0ab3 9F       		.byte	0x9f
 2779 0ab4 00000000 		.4byte	0
 2780 0ab8 00000000 		.4byte	0
 2781              	.LLST36:
 2782 0abc 1A010000 		.4byte	.LVL37-.Ltext0
 2783 0ac0 24010000 		.4byte	.LVL39-.Ltext0
 2784 0ac4 0100     		.2byte	0x1
 2785 0ac6 53       		.byte	0x53
 2786 0ac7 00000000 		.4byte	0
 2787 0acb 00000000 		.4byte	0
 2788              	.LLST37:
 2789 0acf 24010000 		.4byte	.LVL39-.Ltext0
 2790 0ad3 54010000 		.4byte	.LVL44-.Ltext0
 2791 0ad7 0100     		.2byte	0x1
 2792 0ad9 53       		.byte	0x53
ARM GAS  /tmp/ccqcFZkz.s 			page 50


 2793 0ada 00000000 		.4byte	0
 2794 0ade 00000000 		.4byte	0
 2795              	.LLST38:
 2796 0ae2 24010000 		.4byte	.LVL39-.Ltext0
 2797 0ae6 28010000 		.4byte	.LVL40-.Ltext0
 2798 0aea 1400     		.2byte	0x14
 2799 0aec 74       		.byte	0x74
 2800 0aed 00       		.sleb128 0
 2801 0aee F7       		.byte	0xf7
 2802 0aef 28       		.uleb128 0x28
 2803 0af0 F7       		.byte	0xf7
 2804 0af1 21       		.uleb128 0x21
 2805 0af2 73       		.byte	0x73
 2806 0af3 00       		.sleb128 0
 2807 0af4 F7       		.byte	0xf7
 2808 0af5 28       		.uleb128 0x28
 2809 0af6 F7       		.byte	0xf7
 2810 0af7 21       		.uleb128 0x21
 2811 0af8 1E       		.byte	0x1e
 2812 0af9 4F       		.byte	0x4f
 2813 0afa F7       		.byte	0xf7
 2814 0afb 21       		.uleb128 0x21
 2815 0afc 26       		.byte	0x26
 2816 0afd F7       		.byte	0xf7
 2817 0afe 2F       		.uleb128 0x2f
 2818 0aff 9F       		.byte	0x9f
 2819 0b00 28010000 		.4byte	.LVL40-.Ltext0
 2820 0b04 3A010000 		.4byte	.LVL42-.Ltext0
 2821 0b08 1500     		.2byte	0x15
 2822 0b0a 70       		.byte	0x70
 2823 0b0b 78       		.sleb128 -8
 2824 0b0c 06       		.byte	0x6
 2825 0b0d F7       		.byte	0xf7
 2826 0b0e 28       		.uleb128 0x28
 2827 0b0f F7       		.byte	0xf7
 2828 0b10 21       		.uleb128 0x21
 2829 0b11 73       		.byte	0x73
 2830 0b12 00       		.sleb128 0
 2831 0b13 F7       		.byte	0xf7
 2832 0b14 28       		.uleb128 0x28
 2833 0b15 F7       		.byte	0xf7
 2834 0b16 21       		.uleb128 0x21
 2835 0b17 1E       		.byte	0x1e
 2836 0b18 4F       		.byte	0x4f
 2837 0b19 F7       		.byte	0xf7
 2838 0b1a 21       		.uleb128 0x21
 2839 0b1b 26       		.byte	0x26
 2840 0b1c F7       		.byte	0xf7
 2841 0b1d 2F       		.uleb128 0x2f
 2842 0b1e 9F       		.byte	0x9f
 2843 0b1f 00000000 		.4byte	0
 2844 0b23 00000000 		.4byte	0
 2845              	.LLST39:
 2846 0b27 24010000 		.4byte	.LVL39-.Ltext0
 2847 0b2b 32010000 		.4byte	.LVL41-.Ltext0
 2848 0b2f 0100     		.2byte	0x1
 2849 0b31 5C       		.byte	0x5c
ARM GAS  /tmp/ccqcFZkz.s 			page 51


 2850 0b32 32010000 		.4byte	.LVL41-.Ltext0
 2851 0b36 3A010000 		.4byte	.LVL42-.Ltext0
 2852 0b3a 0200     		.2byte	0x2
 2853 0b3c 72       		.byte	0x72
 2854 0b3d 78       		.sleb128 -8
 2855 0b3e 00000000 		.4byte	0
 2856 0b42 00000000 		.4byte	0
 2857              	.LLST40:
 2858 0b46 32010000 		.4byte	.LVL41-.Ltext0
 2859 0b4a 8A010000 		.4byte	.LVL51-.Ltext0
 2860 0b4e 0100     		.2byte	0x1
 2861 0b50 5C       		.byte	0x5c
 2862 0b51 00000000 		.4byte	0
 2863 0b55 00000000 		.4byte	0
 2864              	.LLST41:
 2865 0b59 4C010000 		.4byte	.LVL43-.Ltext0
 2866 0b5d 62010000 		.4byte	.LVL45-.Ltext0
 2867 0b61 1400     		.2byte	0x14
 2868 0b63 76       		.byte	0x76
 2869 0b64 00       		.sleb128 0
 2870 0b65 F7       		.byte	0xf7
 2871 0b66 28       		.uleb128 0x28
 2872 0b67 F7       		.byte	0xf7
 2873 0b68 21       		.uleb128 0x21
 2874 0b69 77       		.byte	0x77
 2875 0b6a 00       		.sleb128 0
 2876 0b6b F7       		.byte	0xf7
 2877 0b6c 28       		.uleb128 0x28
 2878 0b6d F7       		.byte	0xf7
 2879 0b6e 21       		.uleb128 0x21
 2880 0b6f 1E       		.byte	0x1e
 2881 0b70 4F       		.byte	0x4f
 2882 0b71 F7       		.byte	0xf7
 2883 0b72 21       		.uleb128 0x21
 2884 0b73 26       		.byte	0x26
 2885 0b74 F7       		.byte	0xf7
 2886 0b75 2F       		.uleb128 0x2f
 2887 0b76 9F       		.byte	0x9f
 2888 0b77 62010000 		.4byte	.LVL45-.Ltext0
 2889 0b7b 6A010000 		.4byte	.LVL46-.Ltext0
 2890 0b7f 1500     		.2byte	0x15
 2891 0b81 72       		.byte	0x72
 2892 0b82 7C       		.sleb128 -4
 2893 0b83 06       		.byte	0x6
 2894 0b84 F7       		.byte	0xf7
 2895 0b85 28       		.uleb128 0x28
 2896 0b86 F7       		.byte	0xf7
 2897 0b87 21       		.uleb128 0x21
 2898 0b88 77       		.byte	0x77
 2899 0b89 00       		.sleb128 0
 2900 0b8a F7       		.byte	0xf7
 2901 0b8b 28       		.uleb128 0x28
 2902 0b8c F7       		.byte	0xf7
 2903 0b8d 21       		.uleb128 0x21
 2904 0b8e 1E       		.byte	0x1e
 2905 0b8f 4F       		.byte	0x4f
 2906 0b90 F7       		.byte	0xf7
ARM GAS  /tmp/ccqcFZkz.s 			page 52


 2907 0b91 21       		.uleb128 0x21
 2908 0b92 26       		.byte	0x26
 2909 0b93 F7       		.byte	0xf7
 2910 0b94 2F       		.uleb128 0x2f
 2911 0b95 9F       		.byte	0x9f
 2912 0b96 00000000 		.4byte	0
 2913 0b9a 00000000 		.4byte	0
 2914              	.LLST42:
 2915 0b9e 4C010000 		.4byte	.LVL43-.Ltext0
 2916 0ba2 54010000 		.4byte	.LVL44-.Ltext0
 2917 0ba6 0100     		.2byte	0x1
 2918 0ba8 53       		.byte	0x53
 2919 0ba9 00000000 		.4byte	0
 2920 0bad 00000000 		.4byte	0
 2921              	.LLST43:
 2922 0bb1 54010000 		.4byte	.LVL44-.Ltext0
 2923 0bb5 8A010000 		.4byte	.LVL51-.Ltext0
 2924 0bb9 0100     		.2byte	0x1
 2925 0bbb 53       		.byte	0x53
 2926 0bbc 00000000 		.4byte	0
 2927 0bc0 00000000 		.4byte	0
 2928              	.LLST44:
 2929 0bc4 54010000 		.4byte	.LVL44-.Ltext0
 2930 0bc8 8A010000 		.4byte	.LVL51-.Ltext0
 2931 0bcc 1400     		.2byte	0x14
 2932 0bce 77       		.byte	0x77
 2933 0bcf 00       		.sleb128 0
 2934 0bd0 F7       		.byte	0xf7
 2935 0bd1 28       		.uleb128 0x28
 2936 0bd2 F7       		.byte	0xf7
 2937 0bd3 21       		.uleb128 0x21
 2938 0bd4 73       		.byte	0x73
 2939 0bd5 00       		.sleb128 0
 2940 0bd6 F7       		.byte	0xf7
 2941 0bd7 28       		.uleb128 0x28
 2942 0bd8 F7       		.byte	0xf7
 2943 0bd9 21       		.uleb128 0x21
 2944 0bda 1E       		.byte	0x1e
 2945 0bdb 4F       		.byte	0x4f
 2946 0bdc F7       		.byte	0xf7
 2947 0bdd 21       		.uleb128 0x21
 2948 0bde 26       		.byte	0x26
 2949 0bdf F7       		.byte	0xf7
 2950 0be0 2F       		.uleb128 0x2f
 2951 0be1 9F       		.byte	0x9f
 2952 0be2 00000000 		.4byte	0
 2953 0be6 00000000 		.4byte	0
 2954              	.LLST45:
 2955 0bea 54010000 		.4byte	.LVL44-.Ltext0
 2956 0bee 62010000 		.4byte	.LVL45-.Ltext0
 2957 0bf2 0100     		.2byte	0x1
 2958 0bf4 56       		.byte	0x56
 2959 0bf5 62010000 		.4byte	.LVL45-.Ltext0
 2960 0bf9 6A010000 		.4byte	.LVL46-.Ltext0
 2961 0bfd 0200     		.2byte	0x2
 2962 0bff 72       		.byte	0x72
 2963 0c00 7C       		.sleb128 -4
ARM GAS  /tmp/ccqcFZkz.s 			page 53


 2964 0c01 00000000 		.4byte	0
 2965 0c05 00000000 		.4byte	0
 2966              	.LLST46:
 2967 0c09 62010000 		.4byte	.LVL45-.Ltext0
 2968 0c0d 8A010000 		.4byte	.LVL51-.Ltext0
 2969 0c11 0100     		.2byte	0x1
 2970 0c13 56       		.byte	0x56
 2971 0c14 00000000 		.4byte	0
 2972 0c18 00000000 		.4byte	0
 2973              	.LLST47:
 2974 0c1c A2010000 		.4byte	.LVL54-.Ltext0
 2975 0c20 B4010000 		.4byte	.LVL56-.Ltext0
 2976 0c24 1400     		.2byte	0x14
 2977 0c26 72       		.byte	0x72
 2978 0c27 00       		.sleb128 0
 2979 0c28 F7       		.byte	0xf7
 2980 0c29 28       		.uleb128 0x28
 2981 0c2a F7       		.byte	0xf7
 2982 0c2b 21       		.uleb128 0x21
 2983 0c2c 70       		.byte	0x70
 2984 0c2d 00       		.sleb128 0
 2985 0c2e F7       		.byte	0xf7
 2986 0c2f 28       		.uleb128 0x28
 2987 0c30 F7       		.byte	0xf7
 2988 0c31 21       		.uleb128 0x21
 2989 0c32 1E       		.byte	0x1e
 2990 0c33 4F       		.byte	0x4f
 2991 0c34 F7       		.byte	0xf7
 2992 0c35 21       		.uleb128 0x21
 2993 0c36 26       		.byte	0x26
 2994 0c37 F7       		.byte	0xf7
 2995 0c38 2F       		.uleb128 0x2f
 2996 0c39 9F       		.byte	0x9f
 2997 0c3a B4010000 		.4byte	.LVL56-.Ltext0
 2998 0c3e C2010000 		.4byte	.LVL58-.Ltext0
 2999 0c42 1500     		.2byte	0x15
 3000 0c44 72       		.byte	0x72
 3001 0c45 00       		.sleb128 0
 3002 0c46 F7       		.byte	0xf7
 3003 0c47 28       		.uleb128 0x28
 3004 0c48 F7       		.byte	0xf7
 3005 0c49 21       		.uleb128 0x21
 3006 0c4a 75       		.byte	0x75
 3007 0c4b 7C       		.sleb128 -4
 3008 0c4c 06       		.byte	0x6
 3009 0c4d F7       		.byte	0xf7
 3010 0c4e 28       		.uleb128 0x28
 3011 0c4f F7       		.byte	0xf7
 3012 0c50 21       		.uleb128 0x21
 3013 0c51 1E       		.byte	0x1e
 3014 0c52 4F       		.byte	0x4f
 3015 0c53 F7       		.byte	0xf7
 3016 0c54 21       		.uleb128 0x21
 3017 0c55 26       		.byte	0x26
 3018 0c56 F7       		.byte	0xf7
 3019 0c57 2F       		.uleb128 0x2f
 3020 0c58 9F       		.byte	0x9f
ARM GAS  /tmp/ccqcFZkz.s 			page 54


 3021 0c59 C2010000 		.4byte	.LVL58-.Ltext0
 3022 0c5d CA010000 		.4byte	.LVL60-.Ltext0
 3023 0c61 1600     		.2byte	0x16
 3024 0c63 7E       		.byte	0x7e
 3025 0c64 7C       		.sleb128 -4
 3026 0c65 06       		.byte	0x6
 3027 0c66 F7       		.byte	0xf7
 3028 0c67 28       		.uleb128 0x28
 3029 0c68 F7       		.byte	0xf7
 3030 0c69 21       		.uleb128 0x21
 3031 0c6a 75       		.byte	0x75
 3032 0c6b 7C       		.sleb128 -4
 3033 0c6c 06       		.byte	0x6
 3034 0c6d F7       		.byte	0xf7
 3035 0c6e 28       		.uleb128 0x28
 3036 0c6f F7       		.byte	0xf7
 3037 0c70 21       		.uleb128 0x21
 3038 0c71 1E       		.byte	0x1e
 3039 0c72 4F       		.byte	0x4f
 3040 0c73 F7       		.byte	0xf7
 3041 0c74 21       		.uleb128 0x21
 3042 0c75 26       		.byte	0x26
 3043 0c76 F7       		.byte	0xf7
 3044 0c77 2F       		.uleb128 0x2f
 3045 0c78 9F       		.byte	0x9f
 3046 0c79 00000000 		.4byte	0
 3047 0c7d 00000000 		.4byte	0
 3048              	.LLST48:
 3049 0c81 A2010000 		.4byte	.LVL54-.Ltext0
 3050 0c85 B0010000 		.4byte	.LVL55-.Ltext0
 3051 0c89 0100     		.2byte	0x1
 3052 0c8b 53       		.byte	0x53
 3053 0c8c 00000000 		.4byte	0
 3054 0c90 00000000 		.4byte	0
 3055              	.LLST49:
 3056 0c94 B0010000 		.4byte	.LVL55-.Ltext0
 3057 0c98 DE010000 		.4byte	.LVL65-.Ltext0
 3058 0c9c 0100     		.2byte	0x1
 3059 0c9e 53       		.byte	0x53
 3060 0c9f 00000000 		.4byte	0
 3061 0ca3 00000000 		.4byte	0
 3062              	.LLST50:
 3063 0ca7 BE010000 		.4byte	.LVL57-.Ltext0
 3064 0cab CA010000 		.4byte	.LVL60-.Ltext0
 3065 0caf 1500     		.2byte	0x15
 3066 0cb1 75       		.byte	0x75
 3067 0cb2 7C       		.sleb128 -4
 3068 0cb3 06       		.byte	0x6
 3069 0cb4 F7       		.byte	0xf7
 3070 0cb5 28       		.uleb128 0x28
 3071 0cb6 F7       		.byte	0xf7
 3072 0cb7 21       		.uleb128 0x21
 3073 0cb8 73       		.byte	0x73
 3074 0cb9 00       		.sleb128 0
 3075 0cba F7       		.byte	0xf7
 3076 0cbb 28       		.uleb128 0x28
 3077 0cbc F7       		.byte	0xf7
ARM GAS  /tmp/ccqcFZkz.s 			page 55


 3078 0cbd 21       		.uleb128 0x21
 3079 0cbe 1E       		.byte	0x1e
 3080 0cbf 4F       		.byte	0x4f
 3081 0cc0 F7       		.byte	0xf7
 3082 0cc1 21       		.uleb128 0x21
 3083 0cc2 26       		.byte	0x26
 3084 0cc3 F7       		.byte	0xf7
 3085 0cc4 2F       		.uleb128 0x2f
 3086 0cc5 9F       		.byte	0x9f
 3087 0cc6 00000000 		.4byte	0
 3088 0cca 00000000 		.4byte	0
 3089              	.LLST51:
 3090 0cce BE010000 		.4byte	.LVL57-.Ltext0
 3091 0cd2 C2010000 		.4byte	.LVL58-.Ltext0
 3092 0cd6 0100     		.2byte	0x1
 3093 0cd8 52       		.byte	0x52
 3094 0cd9 C2010000 		.4byte	.LVL58-.Ltext0
 3095 0cdd CA010000 		.4byte	.LVL60-.Ltext0
 3096 0ce1 0200     		.2byte	0x2
 3097 0ce3 7E       		.byte	0x7e
 3098 0ce4 7C       		.sleb128 -4
 3099 0ce5 00000000 		.4byte	0
 3100 0ce9 00000000 		.4byte	0
 3101              	.LLST52:
 3102 0ced C2010000 		.4byte	.LVL58-.Ltext0
 3103 0cf1 D4010000 		.4byte	.LVL63-.Ltext0
 3104 0cf5 0100     		.2byte	0x1
 3105 0cf7 52       		.byte	0x52
 3106 0cf8 D4010000 		.4byte	.LVL63-.Ltext0
 3107 0cfc DE010000 		.4byte	.LVL65-.Ltext0
 3108 0d00 0200     		.2byte	0x2
 3109 0d02 7C       		.byte	0x7c
 3110 0d03 7C       		.sleb128 -4
 3111 0d04 00000000 		.4byte	0
 3112 0d08 00000000 		.4byte	0
 3113              		.section	.debug_aranges,"",%progbits
 3114 0000 1C000000 		.4byte	0x1c
 3115 0004 0200     		.2byte	0x2
 3116 0006 00000000 		.4byte	.Ldebug_info0
 3117 000a 04       		.byte	0x4
 3118 000b 00       		.byte	0
 3119 000c 0000     		.2byte	0
 3120 000e 0000     		.2byte	0
 3121 0010 00000000 		.4byte	.Ltext0
 3122 0014 9E020000 		.4byte	.Letext0-.Ltext0
 3123 0018 00000000 		.4byte	0
 3124 001c 00000000 		.4byte	0
 3125              		.section	.debug_ranges,"",%progbits
 3126              	.Ldebug_ranges0:
 3127 0000 62000000 		.4byte	.LBB26-.Ltext0
 3128 0004 64000000 		.4byte	.LBE26-.Ltext0
 3129 0008 66000000 		.4byte	.LBB30-.Ltext0
 3130 000c 6C000000 		.4byte	.LBE30-.Ltext0
 3131 0010 76000000 		.4byte	.LBB31-.Ltext0
 3132 0014 7A000000 		.4byte	.LBE31-.Ltext0
 3133 0018 00000000 		.4byte	0
 3134 001c 00000000 		.4byte	0
ARM GAS  /tmp/ccqcFZkz.s 			page 56


 3135              		.section	.debug_line,"",%progbits
 3136              	.Ldebug_line0:
 3137 0000 B5030000 		.section	.debug_str,"MS",%progbits,1
 3137      02007B02 
 3137      00000201 
 3137      FB0E0D00 
 3137      01010101 
 3138              	.LASF42:
 3139 0000 474E5520 		.ascii	"GNU C 4.9.3 20150529 (release) [ARM/embedded-4_9-br"
 3139      4320342E 
 3139      392E3320 
 3139      32303135 
 3139      30353239 
 3140 0033 616E6368 		.ascii	"anch revision 224288] -mcpu=cortex-m4 -mfloat-abi=h"
 3140      20726576 
 3140      6973696F 
 3140      6E203232 
 3140      34323838 
 3141 0066 61726420 		.ascii	"ard -mfpu=fpv4-sp-d16 -mno-thumb-interwork -mthumb "
 3141      2D6D6670 
 3141      753D6670 
 3141      76342D73 
 3141      702D6431 
 3142 0099 2D676764 		.ascii	"-ggdb -O2 -fomit-frame-pointer -falign-functions=16"
 3142      62202D4F 
 3142      32202D66 
 3142      6F6D6974 
 3142      2D667261 
 3143 00cc 202D666E 		.ascii	" -fno-math-errno -fsingle-precision-constant\000"
 3143      6F2D6D61 
 3143      74682D65 
 3143      72726E6F 
 3143      202D6673 
 3144              	.LASF25:
 3145 00f9 70537461 		.ascii	"pState\000"
 3145      746500
 3146              	.LASF37:
 3147 0100 67637572 		.ascii	"gcurr\000"
 3147      7200
 3148              	.LASF7:
 3149 0106 5F5F696E 		.ascii	"__int32_t\000"
 3149      7433325F 
 3149      7400
 3150              	.LASF30:
 3151 0110 5F5F5141 		.ascii	"__QADD\000"
 3151      444400
 3152              	.LASF20:
 3153 0117 666C6F61 		.ascii	"float\000"
 3153      7400
 3154              	.LASF22:
 3155 011d 7133315F 		.ascii	"q31_t\000"
 3155      7400
 3156              	.LASF3:
 3157 0123 756E7369 		.ascii	"unsigned char\000"
 3157      676E6564 
 3157      20636861 
 3157      7200
ARM GAS  /tmp/ccqcFZkz.s 			page 57


 3158              	.LASF39:
 3159 0131 626C6B43 		.ascii	"blkCnt\000"
 3159      6E7400
 3160              	.LASF43:
 3161 0138 2F686F6D 		.ascii	"/home/sbcu/Dropbox/pcb-layouts/axo-on-discovery-boa"
 3161      652F7362 
 3161      63752F44 
 3161      726F7062 
 3161      6F782F70 
 3162 016b 72642F61 		.ascii	"rd/axoloti/platform_linux/../CMSIS//DSP_Lib/Source/"
 3162      786F6C6F 
 3162      74692F70 
 3162      6C617466 
 3162      6F726D5F 
 3163 019e 46696C74 		.ascii	"FilteringFunctions/arm_iir_lattice_q31.c\000"
 3163      6572696E 
 3163      6746756E 
 3163      6374696F 
 3163      6E732F61 
 3164              	.LASF10:
 3165 01c7 6C6F6E67 		.ascii	"long unsigned int\000"
 3165      20756E73 
 3165      69676E65 
 3165      6420696E 
 3165      7400
 3166              	.LASF36:
 3167 01d9 666E6578 		.ascii	"fnext\000"
 3167      7400
 3168              	.LASF5:
 3169 01df 73686F72 		.ascii	"short unsigned int\000"
 3169      7420756E 
 3169      7369676E 
 3169      65642069 
 3169      6E7400
 3170              	.LASF35:
 3171 01f2 66637572 		.ascii	"fcurr\000"
 3171      7200
 3172              	.LASF33:
 3173 01f8 70447374 		.ascii	"pDst\000"
 3173      00
 3174              	.LASF27:
 3175 01fd 7076436F 		.ascii	"pvCoeffs\000"
 3175      65666673 
 3175      00
 3176              	.LASF11:
 3177 0206 5F5F696E 		.ascii	"__int64_t\000"
 3177      7436345F 
 3177      7400
 3178              	.LASF40:
 3179 0210 74617043 		.ascii	"tapCnt\000"
 3179      6E7400
 3180              	.LASF19:
 3181 0217 646F7562 		.ascii	"double\000"
 3181      6C6500
 3182              	.LASF9:
 3183 021e 5F5F7569 		.ascii	"__uint32_t\000"
 3183      6E743332 
ARM GAS  /tmp/ccqcFZkz.s 			page 58


 3183      5F7400
 3184              	.LASF41:
 3185 0229 70537461 		.ascii	"pStateCurnt\000"
 3185      74654375 
 3185      726E7400 
 3186              	.LASF26:
 3187 0235 706B436F 		.ascii	"pkCoeffs\000"
 3187      65666673 
 3187      00
 3188              	.LASF1:
 3189 023e 756E7369 		.ascii	"unsigned int\000"
 3189      676E6564 
 3189      20696E74 
 3189      00
 3190              	.LASF0:
 3191 024b 6C6F6E67 		.ascii	"long long unsigned int\000"
 3191      206C6F6E 
 3191      6720756E 
 3191      7369676E 
 3191      65642069 
 3192              	.LASF38:
 3193 0262 676E6578 		.ascii	"gnext\000"
 3193      7400
 3194              	.LASF31:
 3195 0268 72657375 		.ascii	"result\000"
 3195      6C7400
 3196              	.LASF23:
 3197 026f 7136335F 		.ascii	"q63_t\000"
 3197      7400
 3198              	.LASF29:
 3199 0275 5F5F5153 		.ascii	"__QSUB\000"
 3199      554200
 3200              	.LASF14:
 3201 027c 696E7433 		.ascii	"int32_t\000"
 3201      325F7400 
 3202              	.LASF17:
 3203 0284 73697A65 		.ascii	"sizetype\000"
 3203      74797065 
 3203      00
 3204              	.LASF16:
 3205 028d 696E7436 		.ascii	"int64_t\000"
 3205      345F7400 
 3206              	.LASF12:
 3207 0295 6C6F6E67 		.ascii	"long long int\000"
 3207      206C6F6E 
 3207      6720696E 
 3207      7400
 3208              	.LASF34:
 3209 02a3 626C6F63 		.ascii	"blockSize\000"
 3209      6B53697A 
 3209      6500
 3210              	.LASF18:
 3211 02ad 63686172 		.ascii	"char\000"
 3211      00
 3212              	.LASF4:
 3213 02b2 73686F72 		.ascii	"short int\000"
 3213      7420696E 
ARM GAS  /tmp/ccqcFZkz.s 			page 59


 3213      7400
 3214              	.LASF6:
 3215 02bc 5F5F7569 		.ascii	"__uint16_t\000"
 3215      6E743136 
 3215      5F7400
 3216              	.LASF13:
 3217 02c7 75696E74 		.ascii	"uint16_t\000"
 3217      31365F74 
 3217      00
 3218              	.LASF44:
 3219 02d0 61726D5F 		.ascii	"arm_iir_lattice_q31\000"
 3219      6969725F 
 3219      6C617474 
 3219      6963655F 
 3219      71333100 
 3220              	.LASF15:
 3221 02e4 75696E74 		.ascii	"uint32_t\000"
 3221      33325F74 
 3221      00
 3222              	.LASF8:
 3223 02ed 6C6F6E67 		.ascii	"long int\000"
 3223      20696E74 
 3223      00
 3224              	.LASF21:
 3225 02f6 6C6F6E67 		.ascii	"long double\000"
 3225      20646F75 
 3225      626C6500 
 3226              	.LASF2:
 3227 0302 7369676E 		.ascii	"signed char\000"
 3227      65642063 
 3227      68617200 
 3228              	.LASF32:
 3229 030e 70537263 		.ascii	"pSrc\000"
 3229      00
 3230              	.LASF24:
 3231 0313 6E756D53 		.ascii	"numStages\000"
 3231      74616765 
 3231      7300
 3232              	.LASF28:
 3233 031d 61726D5F 		.ascii	"arm_iir_lattice_instance_q31\000"
 3233      6969725F 
 3233      6C617474 
 3233      6963655F 
 3233      696E7374 
 3234              		.ident	"GCC: (GNU Tools for ARM Embedded Processors) 4.9.3 20150529 (release) [ARM/embedded-4_9-br
ARM GAS  /tmp/ccqcFZkz.s 			page 60


DEFINED SYMBOLS
                            *ABS*:00000000 arm_iir_lattice_q31.c
     /tmp/ccqcFZkz.s:20     .text:00000000 $t
     /tmp/ccqcFZkz.s:26     .text:00000000 arm_iir_lattice_q31
                     .debug_frame:00000010 $d

NO UNDEFINED SYMBOLS
