ARM GAS  /tmp/ccYBX92y.s 			page 1


   1              		.syntax unified
   2              		.cpu cortex-m4
   3              		.eabi_attribute 27, 1
   4              		.eabi_attribute 28, 1
   5              		.fpu fpv4-sp-d16
   6              		.eabi_attribute 20, 1
   7              		.eabi_attribute 21, 1
   8              		.eabi_attribute 23, 3
   9              		.eabi_attribute 24, 1
  10              		.eabi_attribute 25, 1
  11              		.eabi_attribute 26, 1
  12              		.eabi_attribute 30, 2
  13              		.eabi_attribute 34, 1
  14              		.eabi_attribute 18, 4
  15              		.thumb
  16              		.file	"arm_bitreversal.c"
  17              		.text
  18              	.Ltext0:
  19              		.cfi_sections	.debug_frame
  20              		.align	2
  21              		.p2align 4,,15
  22              		.global	arm_bitreversal_f32
  23              		.thumb
  24              		.thumb_func
  25              		.type	arm_bitreversal_f32, %function
  26              	arm_bitreversal_f32:
  27              	.LFB135:
  28              		.file 1 "/home/sbcu/Dropbox/pcb-layouts/axo-on-discovery-board/axoloti/platform_linux/../CMSIS//DS
  29              		.loc 1 58 0
  30              		.cfi_startproc
  31              		@ args = 0, pretend = 0, frame = 24
  32              		@ frame_needed = 0, uses_anonymous_args = 0
  33              	.LVL0:
  34 0000 2DE9F04F 		push	{r4, r5, r6, r7, r8, r9, r10, fp, lr}
  35              		.cfi_def_cfa_offset 36
  36              		.cfi_offset 4, -36
  37              		.cfi_offset 5, -32
  38              		.cfi_offset 6, -28
  39              		.cfi_offset 7, -24
  40              		.cfi_offset 8, -20
  41              		.cfi_offset 9, -16
  42              		.cfi_offset 10, -12
  43              		.cfi_offset 11, -8
  44              		.cfi_offset 14, -4
  45 0004 87B0     		sub	sp, sp, #28
  46              		.cfi_def_cfa_offset 64
  47              		.loc 1 65 0
  48 0006 4908     		lsrs	r1, r1, #1
  49              	.LVL1:
  50 0008 5200     		lsls	r2, r2, #1
  51              	.LVL2:
  52              		.loc 1 69 0
  53 000a 0025     		movs	r5, #0
  54 000c 0592     		str	r2, [sp, #20]
  55 000e 8A1E     		subs	r2, r1, #2
  56 0010 0492     		str	r2, [sp, #16]
  57              		.loc 1 65 0
ARM GAS  /tmp/ccYBX92y.s 			page 2


  58 0012 0391     		str	r1, [sp, #12]
  59              	.LVL3:
  60              		.loc 1 66 0
  61 0014 01F10108 		add	r8, r1, #1
  62              	.LVL4:
  63              		.loc 1 69 0
  64 0018 2A46     		mov	r2, r5
  65 001a 2C46     		mov	r4, r5
  66 001c 0193     		str	r3, [sp, #4]
  67              	.LVL5:
  68              	.L2:
  69              		.loc 1 97 0 discriminator 2
  70 001e 611C     		adds	r1, r4, #1
  71              		.loc 1 98 0 discriminator 2
  72 0020 039C     		ldr	r4, [sp, #12]
  73              		.loc 1 107 0 discriminator 2
  74 0022 019B     		ldr	r3, [sp, #4]
  75              		.loc 1 98 0 discriminator 2
  76 0024 2244     		add	r2, r2, r4
  77 0026 D400     		lsls	r4, r2, #3
  78              		.loc 1 97 0 discriminator 2
  79 0028 C900     		lsls	r1, r1, #3
  80 002a 4618     		adds	r6, r0, r1
  81              		.loc 1 98 0 discriminator 2
  82 002c 0719     		adds	r7, r0, r4
  83              		.loc 1 69 0 discriminator 2
  84 002e 0235     		adds	r5, r5, #2
  85              		.loc 1 97 0 discriminator 2
  86 0030 D6F800E0 		ldr	lr, [r6]	@ float
  87              	.LVL6:
  88              		.loc 1 98 0 discriminator 2
  89 0034 D7F800C0 		ldr	ip, [r7]	@ float
  90              		.loc 1 107 0 discriminator 2
  91 0038 1A88     		ldrh	r2, [r3]
  92              	.LVL7:
  93              		.loc 1 98 0 discriminator 2
  94 003a C6F800C0 		str	ip, [r6]	@ float
  95              		.loc 1 69 0 discriminator 2
  96 003e ADB2     		uxth	r5, r5
  97              		.loc 1 103 0 discriminator 2
  98 0040 0434     		adds	r4, r4, #4
  99              		.loc 1 99 0 discriminator 2
 100 0042 C7F800E0 		str	lr, [r7]	@ float
 101              		.loc 1 103 0 discriminator 2
 102 0046 0444     		add	r4, r4, r0
 103              		.loc 1 84 0 discriminator 2
 104 0048 05EB0807 		add	r7, r5, r8
 105              		.loc 1 103 0 discriminator 2
 106 004c 94ED007A 		flds	s14, [r4]
 107              		.loc 1 84 0 discriminator 2
 108 0050 FF00     		lsls	r7, r7, #3
 109              		.loc 1 102 0 discriminator 2
 110 0052 0431     		adds	r1, r1, #4
 111 0054 0144     		add	r1, r1, r0
 112              		.loc 1 84 0 discriminator 2
 113 0056 C319     		adds	r3, r0, r7
 114              		.loc 1 102 0 discriminator 2
ARM GAS  /tmp/ccYBX92y.s 			page 3


 115 0058 D1ED007A 		flds	s15, [r1]
 116              	.LVL8:
 117              		.loc 1 84 0 discriminator 2
 118 005c 0293     		str	r3, [sp, #8]
 119              		.loc 1 75 0 discriminator 2
 120 005e D600     		lsls	r6, r2, #3
 121              		.loc 1 103 0 discriminator 2
 122 0060 81ED007A 		fsts	s14, [r1]
 123              		.loc 1 110 0 discriminator 2
 124 0064 059B     		ldr	r3, [sp, #20]
 125 0066 0199     		ldr	r1, [sp, #4]
 126              		.loc 1 104 0 discriminator 2
 127 0068 C4ED007A 		fsts	s15, [r4]
 128              		.loc 1 75 0 discriminator 2
 129 006c 00EB060B 		add	fp, r0, r6
 130              		.loc 1 80 0 discriminator 2
 131 0070 0436     		adds	r6, r6, #4
 132              		.loc 1 110 0 discriminator 2
 133 0072 1944     		add	r1, r1, r3
 134              		.loc 1 80 0 discriminator 2
 135 0074 00EB060C 		add	ip, r0, r6
 136              		.loc 1 69 0 discriminator 2
 137 0078 049B     		ldr	r3, [sp, #16]
 138              		.loc 1 110 0 discriminator 2
 139 007a 0191     		str	r1, [sp, #4]
 140              	.LVL9:
 141              		.loc 1 85 0 discriminator 2
 142 007c 08EB0206 		add	r6, r8, r2
 143 0080 F600     		lsls	r6, r6, #3
 144              		.loc 1 74 0 discriminator 2
 145 0082 4FEAC50E 		lsl	lr, r5, #3
 146              		.loc 1 85 0 discriminator 2
 147 0086 00EB060A 		add	r10, r0, r6
 148              		.loc 1 74 0 discriminator 2
 149 008a 00EB0E09 		add	r9, r0, lr
 150              		.loc 1 89 0 discriminator 2
 151 008e 0437     		adds	r7, r7, #4
 152              		.loc 1 79 0 discriminator 2
 153 0090 0EF1040E 		add	lr, lr, #4
 154              		.loc 1 91 0 discriminator 2
 155 0094 0436     		adds	r6, r6, #4
 156              		.loc 1 69 0 discriminator 2
 157 0096 9D42     		cmp	r5, r3
 158              		.loc 1 79 0 discriminator 2
 159 0098 8644     		add	lr, lr, r0
 160              		.loc 1 69 0 discriminator 2
 161 009a 2C46     		mov	r4, r5
 162              		.loc 1 89 0 discriminator 2
 163 009c 0744     		add	r7, r7, r0
 164              		.loc 1 91 0 discriminator 2
 165 009e 0644     		add	r6, r6, r0
 166              		.loc 1 69 0 discriminator 2
 167 00a0 20D8     		bhi	.L7
 168              		.loc 1 71 0
 169 00a2 AA42     		cmp	r2, r5
 170 00a4 BBD9     		bls	.L2
 171              		.loc 1 75 0
ARM GAS  /tmp/ccYBX92y.s 			page 4


 172 00a6 DBED007A 		flds	s15, [fp]
 173              	.LVL10:
 174              		.loc 1 74 0
 175 00aa D9F80010 		ldr	r1, [r9]	@ float
 176              	.LVL11:
 177              		.loc 1 75 0
 178 00ae C9ED007A 		fsts	s15, [r9]
 179              		.loc 1 76 0
 180 00b2 CBF80010 		str	r1, [fp]	@ float
 181              		.loc 1 79 0
 182 00b6 DEF80010 		ldr	r1, [lr]	@ float
 183              	.LVL12:
 184              		.loc 1 80 0
 185 00ba DCF80090 		ldr	r9, [ip]	@ float
 186              		.loc 1 84 0
 187 00be 029B     		ldr	r3, [sp, #8]
 188              		.loc 1 80 0
 189 00c0 CEF80090 		str	r9, [lr]	@ float
 190              		.loc 1 81 0
 191 00c4 CCF80010 		str	r1, [ip]	@ float
 192              		.loc 1 84 0
 193 00c8 1968     		ldr	r1, [r3]	@ float
 194              	.LVL13:
 195              		.loc 1 85 0
 196 00ca DAF800E0 		ldr	lr, [r10]	@ float
 197 00ce C3F800E0 		str	lr, [r3]	@ float
 198              		.loc 1 86 0
 199 00d2 CAF80010 		str	r1, [r10]	@ float
 200              		.loc 1 89 0
 201 00d6 3968     		ldr	r1, [r7]	@ float
 202              	.LVL14:
 203              		.loc 1 91 0
 204 00d8 D6F800E0 		ldr	lr, [r6]	@ float
 205              		.loc 1 90 0
 206 00dc C7F800E0 		str	lr, [r7]	@ float
 207              		.loc 1 92 0
 208 00e0 3160     		str	r1, [r6]	@ float
 209 00e2 9CE7     		b	.L2
 210              	.LVL15:
 211              	.L7:
 212              		.loc 1 112 0
 213 00e4 07B0     		add	sp, sp, #28
 214              		.cfi_def_cfa_offset 36
 215              		@ sp needed
 216 00e6 BDE8F08F 		pop	{r4, r5, r6, r7, r8, r9, r10, fp, pc}
 217              		.cfi_endproc
 218              	.LFE135:
 219              		.size	arm_bitreversal_f32, .-arm_bitreversal_f32
 220 00ea 00BF     		.align	2
 221 00ec AFF30080 		.p2align 4,,15
 222              		.global	arm_bitreversal_q31
 223              		.thumb
 224              		.thumb_func
 225              		.type	arm_bitreversal_q31, %function
 226              	arm_bitreversal_q31:
 227              	.LFB136:
 228              		.loc 1 130 0
ARM GAS  /tmp/ccYBX92y.s 			page 5


 229              		.cfi_startproc
 230              		@ args = 0, pretend = 0, frame = 8
 231              		@ frame_needed = 0, uses_anonymous_args = 0
 232              	.LVL16:
 233 00f0 2DE9F04F 		push	{r4, r5, r6, r7, r8, r9, r10, fp, lr}
 234              		.cfi_def_cfa_offset 36
 235              		.cfi_offset 4, -36
 236              		.cfi_offset 5, -32
 237              		.cfi_offset 6, -28
 238              		.cfi_offset 7, -24
 239              		.cfi_offset 8, -20
 240              		.cfi_offset 9, -16
 241              		.cfi_offset 10, -12
 242              		.cfi_offset 11, -8
 243              		.cfi_offset 14, -4
 244              		.loc 1 136 0
 245 00f4 4908     		lsrs	r1, r1, #1
 246              	.LVL17:
 247              		.loc 1 130 0
 248 00f6 83B0     		sub	sp, sp, #12
 249              		.cfi_def_cfa_offset 48
 250              		.loc 1 140 0
 251 00f8 0027     		movs	r7, #0
 252 00fa 4FEA420B 		lsl	fp, r2, #1
 253 00fe 8A1E     		subs	r2, r1, #2
 254              	.LVL18:
 255              		.loc 1 137 0
 256 0100 01F1010A 		add	r10, r1, #1
 257              	.LVL19:
 258              		.loc 1 140 0
 259 0104 0192     		str	r2, [sp, #4]
 260 0106 0546     		mov	r5, r0
 261 0108 00EBC108 		add	r8, r0, r1, lsl #3
 262              		.loc 1 135 0
 263 010c 3C46     		mov	r4, r7
 264 010e 8946     		mov	r9, r1
 265 0110 1EE0     		b	.L9
 266              	.LVL20:
 267              	.L11:
 268              		.loc 1 142 0
 269 0112 BC42     		cmp	r4, r7
 270 0114 19D9     		bls	.L10
 271              		.loc 1 146 0
 272 0116 50F83410 		ldr	r1, [r0, r4, lsl #3]
 273              	.LVL21:
 274              		.loc 1 145 0
 275 011a 2A69     		ldr	r2, [r5, #16]
 276              	.LVL22:
 277              		.loc 1 146 0
 278 011c 2961     		str	r1, [r5, #16]
 279              		.loc 1 147 0
 280 011e 40F83420 		str	r2, [r0, r4, lsl #3]
 281              		.loc 1 150 0
 282 0122 6A69     		ldr	r2, [r5, #20]
 283              	.LVL23:
 284              		.loc 1 151 0
 285 0124 50F80E10 		ldr	r1, [r0, lr]
ARM GAS  /tmp/ccYBX92y.s 			page 6


 286 0128 6961     		str	r1, [r5, #20]
 287              		.loc 1 152 0
 288 012a 40F80E20 		str	r2, [r0, lr]
 289              		.loc 1 156 0
 290 012e 50F83C20 		ldr	r2, [r0, ip, lsl #3]
 291              	.LVL24:
 292              		.loc 1 155 0
 293 0132 D8F81810 		ldr	r1, [r8, #24]
 294              	.LVL25:
 295              		.loc 1 156 0
 296 0136 C8F81820 		str	r2, [r8, #24]
 297              		.loc 1 157 0
 298 013a 40F83C10 		str	r1, [r0, ip, lsl #3]
 299              		.loc 1 160 0
 300 013e D8F81C10 		ldr	r1, [r8, #28]
 301              	.LVL26:
 302              		.loc 1 162 0
 303 0142 8259     		ldr	r2, [r0, r6]
 304              		.loc 1 161 0
 305 0144 C8F81C20 		str	r2, [r8, #28]
 306              		.loc 1 163 0
 307 0148 8151     		str	r1, [r0, r6]
 308              	.L10:
 309 014a 1035     		adds	r5, r5, #16
 310 014c 08F11008 		add	r8, r8, #16
 311              	.LVL27:
 312              	.L9:
 313              		.loc 1 169 0 discriminator 2
 314 0150 4C44     		add	r4, r4, r9
 315              		.loc 1 168 0 discriminator 2
 316 0152 A968     		ldr	r1, [r5, #8]
 317              	.LVL28:
 318              		.loc 1 169 0 discriminator 2
 319 0154 50F83420 		ldr	r2, [r0, r4, lsl #3]
 320 0158 AA60     		str	r2, [r5, #8]
 321 015a E200     		lsls	r2, r4, #3
 322              		.loc 1 170 0 discriminator 2
 323 015c 40F83410 		str	r1, [r0, r4, lsl #3]
 324              		.loc 1 174 0 discriminator 2
 325 0160 0432     		adds	r2, r2, #4
 326              		.loc 1 178 0 discriminator 2
 327 0162 1C88     		ldrh	r4, [r3]
 328              		.loc 1 174 0 discriminator 2
 329 0164 8658     		ldr	r6, [r0, r2]
 330              		.loc 1 173 0 discriminator 2
 331 0166 E968     		ldr	r1, [r5, #12]
 332              	.LVL29:
 333              		.loc 1 174 0 discriminator 2
 334 0168 EE60     		str	r6, [r5, #12]
 335              		.loc 1 175 0 discriminator 2
 336 016a 8150     		str	r1, [r0, r2]
 337              		.loc 1 140 0 discriminator 2
 338 016c 019A     		ldr	r2, [sp, #4]
 339 016e 0237     		adds	r7, r7, #2
 340              	.LVL30:
 341              		.loc 1 156 0 discriminator 2
 342 0170 04EB0A0C 		add	ip, r4, r10
ARM GAS  /tmp/ccYBX92y.s 			page 7


 343              		.loc 1 146 0 discriminator 2
 344 0174 4FEAC40E 		lsl	lr, r4, #3
 345              		.loc 1 156 0 discriminator 2
 346 0178 4FEACC06 		lsl	r6, ip, #3
 347              		.loc 1 140 0 discriminator 2
 348 017c 9742     		cmp	r7, r2
 349              		.loc 1 151 0 discriminator 2
 350 017e 0EF1040E 		add	lr, lr, #4
 351              		.loc 1 162 0 discriminator 2
 352 0182 06F10406 		add	r6, r6, #4
 353              		.loc 1 181 0 discriminator 2
 354 0186 5B44     		add	r3, r3, fp
 355              	.LVL31:
 356              		.loc 1 140 0 discriminator 2
 357 0188 C3D9     		bls	.L11
 358              		.loc 1 183 0
 359 018a 03B0     		add	sp, sp, #12
 360              		.cfi_def_cfa_offset 36
 361              		@ sp needed
 362 018c BDE8F08F 		pop	{r4, r5, r6, r7, r8, r9, r10, fp, pc}
 363              		.cfi_endproc
 364              	.LFE136:
 365              		.size	arm_bitreversal_q31, .-arm_bitreversal_q31
 366              		.align	2
 367              		.p2align 4,,15
 368              		.global	arm_bitreversal_q15
 369              		.thumb
 370              		.thumb_func
 371              		.type	arm_bitreversal_q15, %function
 372              	arm_bitreversal_q15:
 373              	.LFB137:
 374              		.loc 1 201 0
 375              		.cfi_startproc
 376              		@ args = 0, pretend = 0, frame = 0
 377              		@ frame_needed = 0, uses_anonymous_args = 0
 378              	.LVL32:
 379 0190 2DE9F04F 		push	{r4, r5, r6, r7, r8, r9, r10, fp, lr}
 380              		.cfi_def_cfa_offset 36
 381              		.cfi_offset 4, -36
 382              		.cfi_offset 5, -32
 383              		.cfi_offset 6, -28
 384              		.cfi_offset 7, -24
 385              		.cfi_offset 8, -20
 386              		.cfi_offset 9, -16
 387              		.cfi_offset 10, -12
 388              		.cfi_offset 11, -8
 389              		.cfi_offset 14, -4
 390              		.loc 1 209 0
 391 0194 4908     		lsrs	r1, r1, #1
 392              	.LVL33:
 393              		.loc 1 213 0
 394 0196 0026     		movs	r6, #0
 395 0198 4FEA420B 		lsl	fp, r2, #1
 396              		.loc 1 210 0
 397 019c 01F10108 		add	r8, r1, #1
 398              	.LVL34:
 399              		.loc 1 213 0
ARM GAS  /tmp/ccYBX92y.s 			page 8


 400 01a0 A1F1020C 		sub	ip, r1, #2
 401 01a4 0546     		mov	r5, r0
 402 01a6 00EB810E 		add	lr, r0, r1, lsl #2
 403              		.loc 1 208 0
 404 01aa 3446     		mov	r4, r6
 405 01ac 12E0     		b	.L14
 406              	.LVL35:
 407              	.L16:
 408              		.loc 1 215 0
 409 01ae B442     		cmp	r4, r6
 410 01b0 0DD9     		bls	.L15
 411              		.loc 1 219 0
 412 01b2 AF68     		ldr	r7, [r5, #8]
 413              	.LVL36:
 414              		.loc 1 220 0
 415 01b4 50F82420 		ldr	r2, [r0, r4, lsl #2]
 416 01b8 AA60     		str	r2, [r5, #8]
 417              		.loc 1 221 0
 418 01ba 40F82470 		str	r7, [r0, r4, lsl #2]
 419              		.loc 1 225 0
 420 01be DEF80C70 		ldr	r7, [lr, #12]
 421              	.LVL37:
 422              		.loc 1 226 0
 423 01c2 50F82920 		ldr	r2, [r0, r9, lsl #2]
 424 01c6 CEF80C20 		str	r2, [lr, #12]
 425              		.loc 1 227 0
 426 01ca 40F82970 		str	r7, [r0, r9, lsl #2]
 427              	.LVL38:
 428              	.L15:
 429 01ce 0835     		adds	r5, r5, #8
 430 01d0 0EF1080E 		add	lr, lr, #8
 431              	.LVL39:
 432              	.L14:
 433              		.loc 1 233 0 discriminator 2
 434 01d4 6718     		adds	r7, r4, r1
 435              		.loc 1 213 0 discriminator 2
 436 01d6 0236     		adds	r6, r6, #2
 437              		.loc 1 237 0 discriminator 2
 438 01d8 1C88     		ldrh	r4, [r3]
 439              		.loc 1 232 0 discriminator 2
 440 01da D5F804A0 		ldr	r10, [r5, #4]
 441              	.LVL40:
 442              		.loc 1 233 0 discriminator 2
 443 01de 50F82720 		ldr	r2, [r0, r7, lsl #2]
 444 01e2 6A60     		str	r2, [r5, #4]
 445              		.loc 1 213 0 discriminator 2
 446 01e4 6645     		cmp	r6, ip
 447              		.loc 1 226 0 discriminator 2
 448 01e6 04EB0809 		add	r9, r4, r8
 449              		.loc 1 234 0 discriminator 2
 450 01ea 40F827A0 		str	r10, [r0, r7, lsl #2]
 451              		.loc 1 240 0 discriminator 2
 452 01ee 5B44     		add	r3, r3, fp
 453              	.LVL41:
 454              		.loc 1 213 0 discriminator 2
 455 01f0 DDD9     		bls	.L16
 456              		.loc 1 242 0
ARM GAS  /tmp/ccYBX92y.s 			page 9


 457 01f2 BDE8F08F 		pop	{r4, r5, r6, r7, r8, r9, r10, fp, pc}
 458              		.cfi_endproc
 459              	.LFE137:
 460              		.size	arm_bitreversal_q15, .-arm_bitreversal_q15
 461              	.Letext0:
 462              		.file 2 "/home/sbcu/Dropbox/pcb-layouts/axo-on-discovery-board/axoloti/platform_linux/arm-none-eab
 463              		.file 3 "/home/sbcu/Dropbox/pcb-layouts/axo-on-discovery-board/axoloti/platform_linux/arm-none-eab
 464              		.file 4 "/home/sbcu/Dropbox/pcb-layouts/axo-on-discovery-board/axoloti/platform_linux/../CMSIS//DS