ARM GAS  /tmp/ccK2G0IT.s 			page 1


   1              		.syntax unified
   2              		.cpu cortex-m4
   3              		.eabi_attribute 27, 1
   4              		.eabi_attribute 28, 1
   5              		.fpu fpv4-sp-d16
   6              		.eabi_attribute 20, 1
   7              		.eabi_attribute 21, 1
   8              		.eabi_attribute 23, 3
   9              		.eabi_attribute 24, 1
  10              		.eabi_attribute 25, 1
  11              		.eabi_attribute 26, 1
  12              		.eabi_attribute 30, 2
  13              		.eabi_attribute 34, 1
  14              		.eabi_attribute 18, 4
  15              		.thumb
  16              		.file	"arm_mult_f32.c"
  17              		.text
  18              	.Ltext0:
  19              		.cfi_sections	.debug_frame
  20              		.align	2
  21              		.p2align 4,,15
  22              		.global	arm_mult_f32
  23              		.thumb
  24              		.thumb_func
  25              		.type	arm_mult_f32, %function
  26              	arm_mult_f32:
  27              	.LFB135:
  28              		.file 1 "/home/sbcu/Dropbox/pcb-layouts/axo-on-discovery-board/axoloti/platform_linux/../CMSIS//DS
  29              		.loc 1 78 0
  30              		.cfi_startproc
  31              		@ args = 0, pretend = 0, frame = 0
  32              		@ frame_needed = 0, uses_anonymous_args = 0
  33              	.LVL0:
  34 0000 F0B5     		push	{r4, r5, r6, r7, lr}
  35              		.cfi_def_cfa_offset 20
  36              		.cfi_offset 4, -20
  37              		.cfi_offset 5, -16
  38              		.cfi_offset 6, -12
  39              		.cfi_offset 7, -8
  40              		.cfi_offset 14, -4
  41              		.loc 1 92 0
  42 0002 5FEA930E 		lsrs	lr, r3, #2
  43              	.LVL1:
  44 0006 33D0     		beq	.L2
  45 0008 00F11006 		add	r6, r0, #16
  46 000c 01F11005 		add	r5, r1, #16
  47 0010 02F11004 		add	r4, r2, #16
  48 0014 7746     		mov	r7, lr
  49              	.LVL2:
  50              	.L3:
  51              		.loc 1 106 0
  52 0016 16ED046A 		flds	s12, [r6, #-16]
  53 001a 55ED044A 		flds	s9, [r5, #-16]
  54              		.loc 1 109 0
  55 001e 56ED026A 		flds	s13, [r6, #-8]
  56              	.LVL3:
  57              		.loc 1 111 0
ARM GAS  /tmp/ccK2G0IT.s 			page 2


  58 0022 15ED025A 		flds	s10, [r5, #-8]
  59              	.LVL4:
  60              		.loc 1 114 0
  61 0026 16ED037A 		flds	s14, [r6, #-12]
  62 002a 55ED035A 		flds	s11, [r5, #-12]
  63              		.loc 1 117 0
  64 002e 56ED017A 		flds	s15, [r6, #-4]
  65              		.loc 1 106 0
  66 0032 26EE246A 		fmuls	s12, s12, s9
  67              	.LVL5:
  68              		.loc 1 126 0
  69 0036 66EE856A 		fmuls	s13, s13, s10
  70              	.LVL6:
  71              		.loc 1 120 0
  72 003a 04ED046A 		fsts	s12, [r4, #-16]
  73              	.LVL7:
  74              		.loc 1 123 0
  75 003e 15ED016A 		flds	s12, [r5, #-4]
  76              	.LVL8:
  77              		.loc 1 134 0
  78 0042 44ED026A 		fsts	s13, [r4, #-8]
  79              		.loc 1 114 0
  80 0046 27EE257A 		fmuls	s14, s14, s11
  81              	.LVL9:
  82              		.loc 1 132 0
  83 004a 67EE867A 		fmuls	s15, s15, s12
  84              	.LVL10:
  85              		.loc 1 92 0
  86 004e 013F     		subs	r7, r7, #1
  87              	.LVL11:
  88              		.loc 1 129 0
  89 0050 04ED037A 		fsts	s14, [r4, #-12]
  90              	.LVL12:
  91              		.loc 1 136 0
  92 0054 44ED017A 		fsts	s15, [r4, #-4]
  93              	.LVL13:
  94 0058 06F11006 		add	r6, r6, #16
  95 005c 05F11005 		add	r5, r5, #16
  96 0060 04F11004 		add	r4, r4, #16
  97              	.LVL14:
  98              		.loc 1 92 0
  99 0064 D7D1     		bne	.L3
 100 0066 4FEA0E14 		lsl	r4, lr, #4
 101              	.LVL15:
 102 006a 2044     		add	r0, r0, r4
 103 006c 2144     		add	r1, r1, r4
 104 006e 2244     		add	r2, r2, r4
 105              	.LVL16:
 106              	.L2:
 107              		.loc 1 161 0
 108 0070 13F00303 		ands	r3, r3, #3
 109              	.LVL17:
 110 0074 09D0     		beq	.L1
 111              	.LVL18:
 112              	.L5:
 113              		.loc 1 165 0
 114 0076 F0EC017A 		fldmias	r0!, {s15}
ARM GAS  /tmp/ccK2G0IT.s 			page 3


 115              	.LVL19:
 116 007a B1EC017A 		fldmias	r1!, {s14}
 117              	.LVL20:
 118 007e 67EE877A 		fmuls	s15, s15, s14
 119              		.loc 1 161 0
 120 0082 013B     		subs	r3, r3, #1
 121              	.LVL21:
 122              		.loc 1 165 0
 123 0084 E2EC017A 		fstmias	r2!, {s15}
 124              		.loc 1 161 0
 125 0088 F5D1     		bne	.L5
 126              	.L1:
 127 008a F0BD     		pop	{r4, r5, r6, r7, pc}
 128              		.cfi_endproc
 129              	.LFE135:
 130              		.size	arm_mult_f32, .-arm_mult_f32
 131              	.Letext0:
 132              		.file 2 "/home/sbcu/Dropbox/pcb-layouts/axo-on-discovery-board/axoloti/platform_linux/arm-none-eab
 133              		.file 3 "/home/sbcu/Dropbox/pcb-layouts/axo-on-discovery-board/axoloti/platform_linux/arm-none-eab
 134              		.file 4 "/home/sbcu/Dropbox/pcb-layouts/axo-on-discovery-board/axoloti/platform_linux/../CMSIS//DS