ARM GAS  /tmp/ccBZwrrQ.s 			page 1


   1              		.syntax unified
   2              		.cpu cortex-m4
   3              		.eabi_attribute 27, 1
   4              		.eabi_attribute 28, 1
   5              		.fpu fpv4-sp-d16
   6              		.eabi_attribute 20, 1
   7              		.eabi_attribute 21, 1
   8              		.eabi_attribute 23, 3
   9              		.eabi_attribute 24, 1
  10              		.eabi_attribute 25, 1
  11              		.eabi_attribute 26, 1
  12              		.eabi_attribute 30, 2
  13              		.eabi_attribute 34, 1
  14              		.eabi_attribute 18, 4
  15              		.thumb
  16              		.file	"arm_sqrt_q15.c"
  17              		.text
  18              	.Ltext0:
  19              		.cfi_sections	.debug_frame
  20              		.align	2
  21              		.p2align 4,,15
  22              		.global	arm_sqrt_q15
  23              		.thumb
  24              		.thumb_func
  25              		.type	arm_sqrt_q15, %function
  26              	arm_sqrt_q15:
  27              	.LFB135:
  28              		.file 1 "/home/sbcu/Dropbox/pcb-layouts/axo-on-discovery-board/axoloti/platform_linux/../CMSIS//DS
  29              		.loc 1 65 0
  30              		.cfi_startproc
  31              		@ args = 0, pretend = 0, frame = 8
  32              		@ frame_needed = 0, uses_anonymous_args = 0
  33              	.LVL0:
  34              		.loc 1 78 0
  35 0000 0028     		cmp	r0, #0
  36              	.LVL1:
  37 0002 70DD     		ble	.L2
  38              		.loc 1 65 0
  39 0004 F0B5     		push	{r4, r5, r6, r7, lr}
  40              		.cfi_def_cfa_offset 20
  41              		.cfi_offset 4, -20
  42              		.cfi_offset 5, -16
  43              		.cfi_offset 6, -12
  44              		.cfi_offset 7, -8
  45              		.cfi_offset 14, -4
  46              		.loc 1 80 0
  47 0006 B0FA80F6 		clz	r6, r0
  48 000a 113E     		subs	r6, r6, #17
  49 000c B6B2     		uxth	r6, r6
  50              	.LVL2:
  51              		.loc 1 83 0
  52 000e 16F00107 		ands	r7, r6, #1
  53              		.loc 1 89 0
  54 0012 1ABF     		itte	ne
  55 0014 06F1FF32 		addne	r2, r6, #-1
  56 0018 00FA02F3 		lslne	r3, r0, r2
  57              		.loc 1 85 0
ARM GAS  /tmp/ccBZwrrQ.s 			page 2


  58 001c 00FA06F3 		lsleq	r3, r0, r6
  59              		.loc 1 89 0
  60 0020 9BB2     		uxth	r3, r3
  61              	.LVL3:
  62              		.loc 1 93 0
  63 0022 1CB2     		sxth	r4, r3
  64              		.loc 1 98 0
  65 0024 07EE904A 		fmsr	s15, r4	@ int
  66 0028 FAEEE87A 		vcvt.f32.s32	s15, s15, #15
  67              		.loc 1 103 0
  68 002c 3048     		ldr	r0, .L12
  69              		.loc 1 98 0
  70 002e 17EE905A 		fmrs	r5, s15
  71              		.loc 1 103 0
  72 0032 6D10     		asrs	r5, r5, #1
  73 0034 401B     		subs	r0, r0, r5
  74              		.loc 1 108 0
  75 0036 07EE900A 		fmsr	s15, r0
  76 003a FEEEC97A 		vcvt.s32.f32	s15, s15, #14
  77              		.loc 1 65 0
  78 003e 83B0     		sub	sp, sp, #12
  79              		.cfi_def_cfa_offset 32
  80              		.loc 1 108 0
  81 0040 CDED017A 		fsts	s15, [sp, #4]	@ int
  82 0044 BDF80450 		ldrh	r5, [sp, #4]
  83              		.loc 1 114 0
  84 0048 15FB05F0 		smulbb	r0, r5, r5
  85              		.loc 1 93 0
  86 004c C4F34F04 		ubfx	r4, r4, #1, #16
  87              	.LVL4:
  88              		.loc 1 113 0
  89 0050 C0F3CF30 		ubfx	r0, r0, #15, #16
  90              		.loc 1 114 0
  91 0054 10FB04F0 		smulbb	r0, r0, r4
  92              		.loc 1 111 0
  93 0058 40F3CF32 		sbfx	r2, r0, #15, #16
  94 005c C2F54050 		rsb	r0, r2, #12288
  95              		.loc 1 114 0
  96 0060 2AB2     		sxth	r2, r5
  97              		.loc 1 111 0
  98 0062 00FB02F2 		mul	r2, r0, r2
  99              		.loc 1 115 0
 100 0066 42F3CF32 		sbfx	r2, r2, #15, #16
 101 006a 9200     		lsls	r2, r2, #2
 102              		.loc 1 111 0
 103 006c 92B2     		uxth	r2, r2
 104              	.LVL5:
 105              		.loc 1 120 0
 106 006e 12FB02F0 		smulbb	r0, r2, r2
 107              		.loc 1 119 0
 108 0072 C0F3CF30 		ubfx	r0, r0, #15, #16
 109              		.loc 1 120 0
 110 0076 14FB00F0 		smulbb	r0, r4, r0
 111              		.loc 1 117 0
 112 007a 40F3CF3E 		sbfx	lr, r0, #15, #16
 113 007e CEF54050 		rsb	r0, lr, #12288
 114              		.loc 1 120 0
ARM GAS  /tmp/ccBZwrrQ.s 			page 3


 115 0082 0FFA82FE 		sxth	lr, r2
 116              		.loc 1 117 0
 117 0086 00FB0EFE 		mul	lr, r0, lr
 118              		.loc 1 121 0
 119 008a 4EF3CF3E 		sbfx	lr, lr, #15, #16
 120 008e 4FEA8E0E 		lsl	lr, lr, #2
 121              		.loc 1 117 0
 122 0092 1FFA8EFE 		uxth	lr, lr
 123              	.LVL6:
 124              		.loc 1 126 0
 125 0096 1EFB0EF5 		smulbb	r5, lr, lr
 126              		.loc 1 125 0
 127 009a C5F3CF35 		ubfx	r5, r5, #15, #16
 128              		.loc 1 126 0
 129 009e 14FB05F4 		smulbb	r4, r4, r5
 130              	.LVL7:
 131              		.loc 1 123 0
 132 00a2 44F3CF32 		sbfx	r2, r4, #15, #16
 133 00a6 C2F54054 		rsb	r4, r2, #12288
 134              		.loc 1 126 0
 135 00aa 0FFA8EF2 		sxth	r2, lr
 136              		.loc 1 123 0
 137 00ae 04FB02F2 		mul	r2, r4, r2
 138              		.loc 1 127 0
 139 00b2 42F3CF32 		sbfx	r2, r2, #15, #16
 140 00b6 9200     		lsls	r2, r2, #2
 141              	.LVL8:
 142              		.loc 1 130 0
 143 00b8 13FB02F3 		smulbb	r3, r3, r2
 144              	.LVL9:
 145 00bc 43F3CF33 		sbfx	r3, r3, #15, #16
 146 00c0 5B00     		lsls	r3, r3, #1
 147 00c2 9BB2     		uxth	r3, r3
 148              	.LVL10:
 149              		.loc 1 133 0
 150 00c4 4FB1     		cbz	r7, .L11
 151              		.loc 1 139 0
 152 00c6 013E     		subs	r6, r6, #1
 153              	.LVL11:
 154 00c8 7610     		asrs	r6, r6, #1
 155              	.LVL12:
 156 00ca 1BB2     		sxth	r3, r3
 157 00cc 3341     		asrs	r3, r3, r6
 158              	.LVL13:
 159 00ce 9BB2     		uxth	r3, r3
 160              	.LVL14:
 161              	.L6:
 162              		.loc 1 143 0
 163 00d0 0020     		movs	r0, #0
 164              		.loc 1 151 0
 165 00d2 40B2     		sxtb	r0, r0
 166              		.loc 1 141 0
 167 00d4 0B80     		strh	r3, [r1]	@ movhi
 168              		.loc 1 151 0
 169 00d6 03B0     		add	sp, sp, #12
 170              		.cfi_remember_state
 171              		.cfi_def_cfa_offset 20
ARM GAS  /tmp/ccBZwrrQ.s 			page 4


 172              		@ sp needed
 173 00d8 F0BD     		pop	{r4, r5, r6, r7, pc}
 174              	.LVL15:
 175              	.L11:
 176              		.cfi_restore_state
 177              		.loc 1 135 0
 178 00da 1BB2     		sxth	r3, r3
 179 00dc 46F34E06 		sbfx	r6, r6, #1, #15
 180              	.LVL16:
 181 00e0 3341     		asrs	r3, r3, r6
 182              	.LVL17:
 183 00e2 9BB2     		uxth	r3, r3
 184              	.LVL18:
 185 00e4 F4E7     		b	.L6
 186              	.LVL19:
 187              	.L2:
 188              		.cfi_def_cfa_offset 0
 189              		.cfi_restore 4
 190              		.cfi_restore 5
 191              		.cfi_restore 6
 192              		.cfi_restore 7
 193              		.cfi_restore 14
 194              		.loc 1 148 0
 195 00e6 0023     		movs	r3, #0
 196              		.loc 1 149 0
 197 00e8 FF20     		movs	r0, #255
 198              		.loc 1 148 0
 199 00ea 0B80     		strh	r3, [r1]	@ movhi
 200              		.loc 1 151 0
 201 00ec 40B2     		sxtb	r0, r0
 202 00ee 7047     		bx	lr
 203              	.L13:
 204              		.align	2
 205              	.L12:
 206 00f0 DF59375F 		.word	1597463007
 207              		.cfi_endproc
 208              	.LFE135:
 209              		.size	arm_sqrt_q15, .-arm_sqrt_q15
 210              	.Letext0:
 211              		.file 2 "/home/sbcu/Dropbox/pcb-layouts/axo-on-discovery-board/axoloti/platform_linux/arm-none-eab
 212              		.file 3 "/home/sbcu/Dropbox/pcb-layouts/axo-on-discovery-board/axoloti/platform_linux/arm-none-eab
 213              		.file 4 "/home/sbcu/Dropbox/pcb-layouts/axo-on-discovery-board/axoloti/platform_linux/../CMSIS//DS