ARM GAS  /tmp/ccMVu7sD.s 			page 1


   1              		.syntax unified
   2              		.cpu cortex-m4
   3              		.eabi_attribute 27, 1
   4              		.eabi_attribute 28, 1
   5              		.fpu fpv4-sp-d16
   6              		.eabi_attribute 20, 1
   7              		.eabi_attribute 21, 1
   8              		.eabi_attribute 23, 3
   9              		.eabi_attribute 24, 1
  10              		.eabi_attribute 25, 1
  11              		.eabi_attribute 26, 1
  12              		.eabi_attribute 30, 2
  13              		.eabi_attribute 34, 1
  14              		.eabi_attribute 18, 4
  15              		.thumb
  16              		.file	"arm_mult_q31.c"
  17              		.text
  18              	.Ltext0:
  19              		.cfi_sections	.debug_frame
  20              		.align	2
  21              		.p2align 4,,15
  22              		.global	arm_mult_q31
  23              		.thumb
  24              		.thumb_func
  25              		.type	arm_mult_q31, %function
  26              	arm_mult_q31:
  27              	.LFB135:
  28              		.file 1 "/home/sbcu/Dropbox/pcb-layouts/axo-on-discovery-board/axoloti/platform_linux/../CMSIS//DS
  29              		.loc 1 71 0
  30              		.cfi_startproc
  31              		@ args = 0, pretend = 0, frame = 16
  32              		@ frame_needed = 0, uses_anonymous_args = 0
  33              	.LVL0:
  34 0000 2DE9F04F 		push	{r4, r5, r6, r7, r8, r9, r10, fp, lr}
  35              		.cfi_def_cfa_offset 36
  36              		.cfi_offset 4, -36
  37              		.cfi_offset 5, -32
  38              		.cfi_offset 6, -28
  39              		.cfi_offset 7, -24
  40              		.cfi_offset 8, -20
  41              		.cfi_offset 9, -16
  42              		.cfi_offset 10, -12
  43              		.cfi_offset 11, -8
  44              		.cfi_offset 14, -4
  45 0004 85B0     		sub	sp, sp, #20
  46              		.cfi_def_cfa_offset 56
  47              		.loc 1 71 0
  48 0006 8346     		mov	fp, r0
  49 0008 0093     		str	r3, [sp]
  50              	.LVL1:
  51              		.loc 1 86 0
  52 000a 9B08     		lsrs	r3, r3, #2
  53              	.LVL2:
  54              		.loc 1 71 0
  55 000c 8A46     		mov	r10, r1
  56 000e 9146     		mov	r9, r2
  57              		.loc 1 86 0
ARM GAS  /tmp/ccMVu7sD.s 			page 2


  58 0010 0193     		str	r3, [sp, #4]
  59 0012 41D0     		beq	.L2
  60 0014 00F1100C 		add	ip, r0, #16
  61 0018 01F1100E 		add	lr, r1, #16
  62 001c 02F11008 		add	r8, r2, #16
  63 0020 0291     		str	r1, [sp, #8]
  64 0022 0392     		str	r2, [sp, #12]
  65 0024 9946     		mov	r9, r3
  66              	.LVL3:
  67              	.L3:
  68              		.loc 1 97 0
  69 0026 1EE90C00 		ldmdb	lr, {r2, r3}
  70              		.loc 1 90 0
  71 002a 5CF8107C 		ldr	r7, [ip, #-16]
  72              	.LVL4:
  73              		.loc 1 94 0
  74 002e 5EF8101C 		ldr	r1, [lr, #-16]
  75              		.loc 1 95 0
  76 0032 5EF80C5C 		ldr	r5, [lr, #-12]
  77              		.loc 1 91 0
  78 0036 5CF80C6C 		ldr	r6, [ip, #-12]
  79              	.LVL5:
  80              		.loc 1 92 0
  81 003a 5CF8084C 		ldr	r4, [ip, #-8]
  82              	.LVL6:
  83              		.loc 1 99 0
  84 003e 87FB01AB 		smull	r10, fp, r7, r1
  85              		.loc 1 100 0
  86 0042 86FB0567 		smull	r6, r7, r6, r5
  87              	.LVL7:
  88              	.LBB2:
  89              		.loc 1 104 0
  90              	@ 104 "/home/sbcu/Dropbox/pcb-layouts/axo-on-discovery-board/axoloti/platform_linux/../CMSIS//DSP_L
  91 0046 0BF31E05 		ssat r5, #31, fp
  92              	@ 0 "" 2
  93              	.LVL8:
  94              		.thumb
  95              	.LBE2:
  96              		.loc 1 109 0
  97 004a 6E00     		lsls	r6, r5, #1
  98              		.loc 1 101 0
  99 004c 84FB0245 		smull	r4, r5, r4, r2
 100              	.LVL9:
 101              		.loc 1 102 0
 102 0050 5CF8042C 		ldr	r2, [ip, #-4]
 103              	.LVL10:
 104              	.LBB3:
 105              		.loc 1 105 0
 106              	@ 105 "/home/sbcu/Dropbox/pcb-layouts/axo-on-discovery-board/axoloti/platform_linux/../CMSIS//DSP_L
 107 0054 07F31E01 		ssat r1, #31, r7
 108              	@ 0 "" 2
 109              	.LVL11:
 110              		.thumb
 111              	.LBE3:
 112              		.loc 1 102 0
 113 0058 82FB0323 		smull	r2, r3, r2, r3
 114              		.loc 1 110 0
ARM GAS  /tmp/ccMVu7sD.s 			page 3


 115 005c 4900     		lsls	r1, r1, #1
 116              	.LVL12:
 117              	.LBB4:
 118              		.loc 1 106 0
 119              	@ 106 "/home/sbcu/Dropbox/pcb-layouts/axo-on-discovery-board/axoloti/platform_linux/../CMSIS//DSP_L
 120 005e 05F31E04 		ssat r4, #31, r5
 121              	@ 0 "" 2
 122              	.LVL13:
 123              		.thumb
 124              	.LBE4:
 125              	.LBB5:
 126              		.loc 1 107 0
 127              	@ 107 "/home/sbcu/Dropbox/pcb-layouts/axo-on-discovery-board/axoloti/platform_linux/../CMSIS//DSP_L
 128 0062 03F31E03 		ssat r3, #31, r3
 129              	@ 0 "" 2
 130              	.LVL14:
 131              		.thumb
 132              	.LBE5:
 133              		.loc 1 111 0
 134 0066 6200     		lsls	r2, r4, #1
 135              		.loc 1 112 0
 136 0068 5B00     		lsls	r3, r3, #1
 137              	.LVL15:
 138              		.loc 1 86 0
 139 006a B9F10109 		subs	r9, r9, #1
 140              	.LVL16:
 141              		.loc 1 109 0
 142 006e 48F8106C 		str	r6, [r8, #-16]
 143              	.LVL17:
 144              		.loc 1 112 0
 145 0072 08E90E00 		stmdb	r8, {r1, r2, r3}
 146 0076 0CF1100C 		add	ip, ip, #16
 147              	.LVL18:
 148 007a 0EF1100E 		add	lr, lr, #16
 149 007e 08F11008 		add	r8, r8, #16
 150              		.loc 1 86 0
 151 0082 D0D1     		bne	.L3
 152 0084 019B     		ldr	r3, [sp, #4]
 153 0086 DDF808A0 		ldr	r10, [sp, #8]
 154 008a DDF80C90 		ldr	r9, [sp, #12]
 155              	.LVL19:
 156 008e 1B01     		lsls	r3, r3, #4
 157 0090 8346     		mov	fp, r0
 158 0092 9B44     		add	fp, fp, r3
 159 0094 9A44     		add	r10, r10, r3
 160 0096 9944     		add	r9, r9, r3
 161              	.LVL20:
 162              	.L2:
 163              		.loc 1 122 0
 164 0098 009B     		ldr	r3, [sp]
 165 009a 13F00300 		ands	r0, r3, #3
 166              	.LVL21:
 167 009e 0DD0     		beq	.L1
 168              	.LVL22:
 169              	.L5:
 170              		.loc 1 126 0
 171 00a0 5BF8043B 		ldr	r3, [fp], #4
ARM GAS  /tmp/ccMVu7sD.s 			page 4


 172              	.LVL23:
 173              		.loc 1 127 0
 174 00a4 5AF8042B 		ldr	r2, [r10], #4
 175              	.LVL24:
 176              		.loc 1 122 0
 177 00a8 0138     		subs	r0, r0, #1
 178              	.LVL25:
 179              		.loc 1 128 0
 180 00aa 83FB0223 		smull	r2, r3, r3, r2
 181              	.LVL26:
 182              	.LBB6:
 183              		.loc 1 129 0
 184              	@ 129 "/home/sbcu/Dropbox/pcb-layouts/axo-on-discovery-board/axoloti/platform_linux/../CMSIS//DSP_L
 185 00ae 03F31E03 		ssat r3, #31, r3
 186              	@ 0 "" 2
 187              	.LVL27:
 188              		.thumb
 189              	.LBE6:
 190              		.loc 1 130 0
 191 00b2 4FEA4303 		lsl	r3, r3, #1
 192              	.LVL28:
 193 00b6 49F8043B 		str	r3, [r9], #4
 194              	.LVL29:
 195              		.loc 1 122 0
 196 00ba F1D1     		bne	.L5
 197              	.L1:
 198              		.loc 1 156 0
 199 00bc 05B0     		add	sp, sp, #20
 200              		.cfi_def_cfa_offset 36
 201              	.LVL30:
 202              		@ sp needed
 203 00be BDE8F08F 		pop	{r4, r5, r6, r7, r8, r9, r10, fp, pc}
 204              		.cfi_endproc
 205              	.LFE135:
 206              		.size	arm_mult_q31, .-arm_mult_q31
 207              	.Letext0:
 208              		.file 2 "/home/sbcu/Dropbox/pcb-layouts/axo-on-discovery-board/axoloti/platform_linux/arm-none-eab
 209              		.file 3 "/home/sbcu/Dropbox/pcb-layouts/axo-on-discovery-board/axoloti/platform_linux/arm-none-eab
 210              		.file 4 "/home/sbcu/Dropbox/pcb-layouts/axo-on-discovery-board/axoloti/platform_linux/../CMSIS//DS
 211 00c2 00BF     		.section	.debug_info,"",%progbits
 212              	.Ldebug_info0:
 213 0000 BA020000 		.4byte	0x2ba
 214 0004 0400     		.2byte	0x4
 215 0006 00000000 		.4byte	.Ldebug_abbrev0
 216 000a 04       		.byte	0x4
 217 000b 01       		.uleb128 0x1
 218 000c 0E000000 		.4byte	.LASF41
 219 0010 01       		.byte	0x1
 220 0011 36020000 		.4byte	.LASF42
 221 0015 00000000 		.4byte	.Ltext0
 222 0019 C2000000 		.4byte	.Letext0-.Ltext0
 223 001d 00000000 		.4byte	.Ldebug_line0
 224 0021 02       		.uleb128 0x2
 225 0022 01       		.byte	0x1
 226 0023 06       		.byte	0x6
 227 0024 DC020000 		.4byte	.LASF0
 228 0028 02       		.uleb128 0x2
ARM GAS  /tmp/ccMVu7sD.s 			page 5


 229 0029 01       		.byte	0x1
 230 002a 08       		.byte	0x8
 231 002b 56010000 		.4byte	.LASF1
 232 002f 02       		.uleb128 0x2
 233 0030 02       		.byte	0x2
 234 0031 05       		.byte	0x5
 235 0032 2C020000 		.4byte	.LASF2
 236 0036 02       		.uleb128 0x2
 237 0037 02       		.byte	0x2
 238 0038 07       		.byte	0x7
 239 0039 7D010000 		.4byte	.LASF3
 240 003d 03       		.uleb128 0x3
 241 003e 18010000 		.4byte	.LASF5
 242 0042 02       		.byte	0x2
 243 0043 3F       		.byte	0x3f
 244 0044 48000000 		.4byte	0x48
 245 0048 02       		.uleb128 0x2
 246 0049 04       		.byte	0x4
 247 004a 05       		.byte	0x5
 248 004b C7020000 		.4byte	.LASF4
 249 004f 03       		.uleb128 0x3
 250 0050 BA010000 		.4byte	.LASF6
 251 0054 02       		.byte	0x2
 252 0055 41       		.byte	0x41
 253 0056 5A000000 		.4byte	0x5a
 254 005a 02       		.uleb128 0x2
 255 005b 04       		.byte	0x4
 256 005c 07       		.byte	0x7
 257 005d 6B010000 		.4byte	.LASF7
 258 0061 03       		.uleb128 0x3
 259 0062 9C010000 		.4byte	.LASF8
 260 0066 02       		.byte	0x2
 261 0067 59       		.byte	0x59
 262 0068 6C000000 		.4byte	0x6c
 263 006c 02       		.uleb128 0x2
 264 006d 08       		.byte	0x8
 265 006e 05       		.byte	0x5
 266 006f 00000000 		.4byte	.LASF9
 267 0073 02       		.uleb128 0x2
 268 0074 08       		.byte	0x8
 269 0075 07       		.byte	0x7
 270 0076 E1010000 		.4byte	.LASF10
 271 007a 04       		.uleb128 0x4
 272 007b 04       		.byte	0x4
 273 007c 05       		.byte	0x5
 274 007d 696E7400 		.ascii	"int\000"
 275 0081 02       		.uleb128 0x2
 276 0082 04       		.byte	0x4
 277 0083 07       		.byte	0x7
 278 0084 CA010000 		.4byte	.LASF11
 279 0088 03       		.uleb128 0x3
 280 0089 FE010000 		.4byte	.LASF12
 281 008d 03       		.byte	0x3
 282 008e 1F       		.byte	0x1f
 283 008f 3D000000 		.4byte	0x3d
 284 0093 03       		.uleb128 0x3
 285 0094 BE020000 		.4byte	.LASF13
ARM GAS  /tmp/ccMVu7sD.s 			page 6


 286 0098 03       		.byte	0x3
 287 0099 20       		.byte	0x20
 288 009a 4F000000 		.4byte	0x4f
 289 009e 03       		.uleb128 0x3
 290 009f 0F020000 		.4byte	.LASF14
 291 00a3 03       		.byte	0x3
 292 00a4 25       		.byte	0x25
 293 00a5 61000000 		.4byte	0x61
 294 00a9 02       		.uleb128 0x2
 295 00aa 04       		.byte	0x4
 296 00ab 07       		.byte	0x7
 297 00ac 06020000 		.4byte	.LASF15
 298 00b0 02       		.uleb128 0x2
 299 00b1 01       		.byte	0x1
 300 00b2 08       		.byte	0x8
 301 00b3 27020000 		.4byte	.LASF16
 302 00b7 02       		.uleb128 0x2
 303 00b8 08       		.byte	0x8
 304 00b9 04       		.byte	0x4
 305 00ba B3010000 		.4byte	.LASF17
 306 00be 02       		.uleb128 0x2
 307 00bf 04       		.byte	0x4
 308 00c0 04       		.byte	0x4
 309 00c1 45010000 		.4byte	.LASF18
 310 00c5 02       		.uleb128 0x2
 311 00c6 08       		.byte	0x8
 312 00c7 04       		.byte	0x4
 313 00c8 D0020000 		.4byte	.LASF19
 314 00cc 05       		.uleb128 0x5
 315 00cd 50010000 		.4byte	.LASF20
 316 00d1 04       		.byte	0x4
 317 00d2 A001     		.2byte	0x1a0
 318 00d4 88000000 		.4byte	0x88
 319 00d8 05       		.uleb128 0x5
 320 00d9 F8010000 		.4byte	.LASF21
 321 00dd 04       		.byte	0x4
 322 00de A501     		.2byte	0x1a5
 323 00e0 9E000000 		.4byte	0x9e
 324 00e4 06       		.uleb128 0x6
 325 00e5 04       		.byte	0x4
 326 00e6 CC000000 		.4byte	0xcc
 327 00ea 07       		.uleb128 0x7
 328 00eb A6010000 		.4byte	.LASF43
 329 00ef 01       		.byte	0x1
 330 00f0 42       		.byte	0x42
 331 00f1 00000000 		.4byte	.LFB135
 332 00f5 C2000000 		.4byte	.LFE135-.LFB135
 333 00f9 01       		.uleb128 0x1
 334 00fa 9C       		.byte	0x9c
 335 00fb 08       		.uleb128 0x8
 336 00fc 07010000 		.4byte	.LASF22
 337 0100 01       		.byte	0x1
 338 0101 43       		.byte	0x43
 339 0102 E4000000 		.4byte	0xe4
 340 0106 00000000 		.4byte	.LLST0
 341 010a 08       		.uleb128 0x8
 342 010b 0D010000 		.4byte	.LASF23
ARM GAS  /tmp/ccMVu7sD.s 			page 7


 343 010f 01       		.byte	0x1
 344 0110 44       		.byte	0x44
 345 0111 E4000000 		.4byte	0xe4
 346 0115 75000000 		.4byte	.LLST1
 347 0119 08       		.uleb128 0x8
 348 011a 97010000 		.4byte	.LASF24
 349 011e 01       		.byte	0x1
 350 011f 45       		.byte	0x45
 351 0120 E4000000 		.4byte	0xe4
 352 0124 AB000000 		.4byte	.LLST2
 353 0128 08       		.uleb128 0x8
 354 0129 1D020000 		.4byte	.LASF25
 355 012d 01       		.byte	0x1
 356 012e 46       		.byte	0x46
 357 012f 93000000 		.4byte	0x93
 358 0133 C9000000 		.4byte	.LLST3
 359 0137 09       		.uleb128 0x9
 360 0138 64010000 		.4byte	.LASF26
 361 013c 01       		.byte	0x1
 362 013d 48       		.byte	0x48
 363 013e 93000000 		.4byte	0x93
 364 0142 F4000000 		.4byte	.LLST4
 365 0146 09       		.uleb128 0x9
 366 0147 C5010000 		.4byte	.LASF27
 367 014b 01       		.byte	0x1
 368 014c 4D       		.byte	0x4d
 369 014d CC000000 		.4byte	0xcc
 370 0151 56010000 		.4byte	.LLST5
 371 0155 09       		.uleb128 0x9
 372 0156 22010000 		.4byte	.LASF28
 373 015a 01       		.byte	0x1
 374 015b 4D       		.byte	0x4d
 375 015c CC000000 		.4byte	0xcc
 376 0160 80010000 		.4byte	.LLST6
 377 0164 09       		.uleb128 0x9
 378 0165 D7010000 		.4byte	.LASF29
 379 0169 01       		.byte	0x1
 380 016a 4D       		.byte	0x4d
 381 016b CC000000 		.4byte	0xcc
 382 016f 9F010000 		.4byte	.LLST7
 383 0173 09       		.uleb128 0x9
 384 0174 DC010000 		.4byte	.LASF30
 385 0178 01       		.byte	0x1
 386 0179 4D       		.byte	0x4d
 387 017a CC000000 		.4byte	0xcc
 388 017e BE010000 		.4byte	.LLST8
 389 0182 09       		.uleb128 0x9
 390 0183 4B010000 		.4byte	.LASF31
 391 0187 01       		.byte	0x1
 392 0188 4E       		.byte	0x4e
 393 0189 CC000000 		.4byte	0xcc
 394 018d D2010000 		.4byte	.LLST9
 395 0191 09       		.uleb128 0x9
 396 0192 3B010000 		.4byte	.LASF32
 397 0196 01       		.byte	0x1
 398 0197 4E       		.byte	0x4e
 399 0198 CC000000 		.4byte	0xcc
ARM GAS  /tmp/ccMVu7sD.s 			page 8


 400 019c 08020000 		.4byte	.LLST10
 401 01a0 0A       		.uleb128 0xa
 402 01a1 13010000 		.4byte	.LASF33
 403 01a5 01       		.byte	0x1
 404 01a6 4E       		.byte	0x4e
 405 01a7 CC000000 		.4byte	0xcc
 406 01ab 01       		.uleb128 0x1
 407 01ac 52       		.byte	0x52
 408 01ad 09       		.uleb128 0x9
 409 01ae 40010000 		.4byte	.LASF34
 410 01b2 01       		.byte	0x1
 411 01b3 4E       		.byte	0x4e
 412 01b4 CC000000 		.4byte	0xcc
 413 01b8 27020000 		.4byte	.LLST11
 414 01bc 09       		.uleb128 0x9
 415 01bd 27010000 		.4byte	.LASF35
 416 01c1 01       		.byte	0x1
 417 01c2 4F       		.byte	0x4f
 418 01c3 CC000000 		.4byte	0xcc
 419 01c7 46020000 		.4byte	.LLST12
 420 01cb 09       		.uleb128 0x9
 421 01cc 2C010000 		.4byte	.LASF36
 422 01d0 01       		.byte	0x1
 423 01d1 4F       		.byte	0x4f
 424 01d2 CC000000 		.4byte	0xcc
 425 01d6 64020000 		.4byte	.LLST13
 426 01da 09       		.uleb128 0x9
 427 01db 31010000 		.4byte	.LASF37
 428 01df 01       		.byte	0x1
 429 01e0 4F       		.byte	0x4f
 430 01e1 CC000000 		.4byte	0xcc
 431 01e5 77020000 		.4byte	.LLST14
 432 01e9 09       		.uleb128 0x9
 433 01ea 36010000 		.4byte	.LASF38
 434 01ee 01       		.byte	0x1
 435 01ef 4F       		.byte	0x4f
 436 01f0 CC000000 		.4byte	0xcc
 437 01f4 8A020000 		.4byte	.LLST15
 438 01f8 0B       		.uleb128 0xb
 439 01f9 46000000 		.4byte	.LBB2
 440 01fd 04000000 		.4byte	.LBE2-.LBB2
 441 0201 20020000 		.4byte	0x220
 442 0205 09       		.uleb128 0x9
 443 0206 17020000 		.4byte	.LASF39
 444 020a 01       		.byte	0x1
 445 020b 68       		.byte	0x68
 446 020c 88000000 		.4byte	0x88
 447 0210 9D020000 		.4byte	.LLST16
 448 0214 0C       		.uleb128 0xc
 449 0215 90010000 		.4byte	.LASF40
 450 0219 01       		.byte	0x1
 451 021a 68       		.byte	0x68
 452 021b 88000000 		.4byte	0x88
 453 021f 00       		.byte	0
 454 0220 0B       		.uleb128 0xb
 455 0221 54000000 		.4byte	.LBB3
 456 0225 04000000 		.4byte	.LBE3-.LBB3
ARM GAS  /tmp/ccMVu7sD.s 			page 9


 457 0229 48020000 		.4byte	0x248
 458 022d 09       		.uleb128 0x9
 459 022e 17020000 		.4byte	.LASF39
 460 0232 01       		.byte	0x1
 461 0233 69       		.byte	0x69
 462 0234 88000000 		.4byte	0x88
 463 0238 64020000 		.4byte	.LLST13
 464 023c 0C       		.uleb128 0xc
 465 023d 90010000 		.4byte	.LASF40
 466 0241 01       		.byte	0x1
 467 0242 69       		.byte	0x69
 468 0243 88000000 		.4byte	0x88
 469 0247 00       		.byte	0
 470 0248 0B       		.uleb128 0xb
 471 0249 5E000000 		.4byte	.LBB4
 472 024d 04000000 		.4byte	.LBE4-.LBB4
 473 0251 70020000 		.4byte	0x270
 474 0255 09       		.uleb128 0x9
 475 0256 17020000 		.4byte	.LASF39
 476 025a 01       		.byte	0x1
 477 025b 6A       		.byte	0x6a
 478 025c 88000000 		.4byte	0x88
 479 0260 77020000 		.4byte	.LLST14
 480 0264 0C       		.uleb128 0xc
 481 0265 90010000 		.4byte	.LASF40
 482 0269 01       		.byte	0x1
 483 026a 6A       		.byte	0x6a
 484 026b 88000000 		.4byte	0x88
 485 026f 00       		.byte	0
 486 0270 0B       		.uleb128 0xb
 487 0271 62000000 		.4byte	.LBB5
 488 0275 04000000 		.4byte	.LBE5-.LBB5
 489 0279 98020000 		.4byte	0x298
 490 027d 09       		.uleb128 0x9
 491 027e 17020000 		.4byte	.LASF39
 492 0282 01       		.byte	0x1
 493 0283 6B       		.byte	0x6b
 494 0284 88000000 		.4byte	0x88
 495 0288 8A020000 		.4byte	.LLST15
 496 028c 0C       		.uleb128 0xc
 497 028d 90010000 		.4byte	.LASF40
 498 0291 01       		.byte	0x1
 499 0292 6B       		.byte	0x6b
 500 0293 88000000 		.4byte	0x88
 501 0297 00       		.byte	0
 502 0298 0D       		.uleb128 0xd
 503 0299 AE000000 		.4byte	.LBB6
 504 029d 04000000 		.4byte	.LBE6-.LBB6
 505 02a1 09       		.uleb128 0x9
 506 02a2 17020000 		.4byte	.LASF39
 507 02a6 01       		.byte	0x1
 508 02a7 81       		.byte	0x81
 509 02a8 88000000 		.4byte	0x88
 510 02ac B0020000 		.4byte	.LLST20
 511 02b0 0C       		.uleb128 0xc
 512 02b1 90010000 		.4byte	.LASF40
 513 02b5 01       		.byte	0x1
ARM GAS  /tmp/ccMVu7sD.s 			page 10


 514 02b6 81       		.byte	0x81
 515 02b7 88000000 		.4byte	0x88
 516 02bb 00       		.byte	0
 517 02bc 00       		.byte	0
 518 02bd 00       		.byte	0
 519              		.section	.debug_abbrev,"",%progbits
 520              	.Ldebug_abbrev0:
 521 0000 01       		.uleb128 0x1
 522 0001 11       		.uleb128 0x11
 523 0002 01       		.byte	0x1
 524 0003 25       		.uleb128 0x25
 525 0004 0E       		.uleb128 0xe
 526 0005 13       		.uleb128 0x13
 527 0006 0B       		.uleb128 0xb
 528 0007 03       		.uleb128 0x3
 529 0008 0E       		.uleb128 0xe
 530 0009 11       		.uleb128 0x11
 531 000a 01       		.uleb128 0x1
 532 000b 12       		.uleb128 0x12
 533 000c 06       		.uleb128 0x6
 534 000d 10       		.uleb128 0x10
 535 000e 17       		.uleb128 0x17
 536 000f 00       		.byte	0
 537 0010 00       		.byte	0
 538 0011 02       		.uleb128 0x2
 539 0012 24       		.uleb128 0x24
 540 0013 00       		.byte	0
 541 0014 0B       		.uleb128 0xb
 542 0015 0B       		.uleb128 0xb
 543 0016 3E       		.uleb128 0x3e
 544 0017 0B       		.uleb128 0xb
 545 0018 03       		.uleb128 0x3
 546 0019 0E       		.uleb128 0xe
 547 001a 00       		.byte	0
 548 001b 00       		.byte	0
 549 001c 03       		.uleb128 0x3
 550 001d 16       		.uleb128 0x16
 551 001e 00       		.byte	0
 552 001f 03       		.uleb128 0x3
 553 0020 0E       		.uleb128 0xe
 554 0021 3A       		.uleb128 0x3a
 555 0022 0B       		.uleb128 0xb
 556 0023 3B       		.uleb128 0x3b
 557 0024 0B       		.uleb128 0xb
 558 0025 49       		.uleb128 0x49
 559 0026 13       		.uleb128 0x13
 560 0027 00       		.byte	0
 561 0028 00       		.byte	0
 562 0029 04       		.uleb128 0x4
 563 002a 24       		.uleb128 0x24
 564 002b 00       		.byte	0
 565 002c 0B       		.uleb128 0xb
 566 002d 0B       		.uleb128 0xb
 567 002e 3E       		.uleb128 0x3e
 568 002f 0B       		.uleb128 0xb
 569 0030 03       		.uleb128 0x3
 570 0031 08       		.uleb128 0x8
ARM GAS  /tmp/ccMVu7sD.s 			page 11


 571 0032 00       		.byte	0
 572 0033 00       		.byte	0
 573 0034 05       		.uleb128 0x5
 574 0035 16       		.uleb128 0x16
 575 0036 00       		.byte	0
 576 0037 03       		.uleb128 0x3
 577 0038 0E       		.uleb128 0xe
 578 0039 3A       		.uleb128 0x3a
 579 003a 0B       		.uleb128 0xb
 580 003b 3B       		.uleb128 0x3b
 581 003c 05       		.uleb128 0x5
 582 003d 49       		.uleb128 0x49
 583 003e 13       		.uleb128 0x13
 584 003f 00       		.byte	0
 585 0040 00       		.byte	0
 586 0041 06       		.uleb128 0x6
 587 0042 0F       		.uleb128 0xf
 588 0043 00       		.byte	0
 589 0044 0B       		.uleb128 0xb
 590 0045 0B       		.uleb128 0xb
 591 0046 49       		.uleb128 0x49
 592 0047 13       		.uleb128 0x13
 593 0048 00       		.byte	0
 594 0049 00       		.byte	0
 595 004a 07       		.uleb128 0x7
 596 004b 2E       		.uleb128 0x2e
 597 004c 01       		.byte	0x1
 598 004d 3F       		.uleb128 0x3f
 599 004e 19       		.uleb128 0x19
 600 004f 03       		.uleb128 0x3
 601 0050 0E       		.uleb128 0xe
 602 0051 3A       		.uleb128 0x3a
 603 0052 0B       		.uleb128 0xb
 604 0053 3B       		.uleb128 0x3b
 605 0054 0B       		.uleb128 0xb
 606 0055 27       		.uleb128 0x27
 607 0056 19       		.uleb128 0x19
 608 0057 11       		.uleb128 0x11
 609 0058 01       		.uleb128 0x1
 610 0059 12       		.uleb128 0x12
 611 005a 06       		.uleb128 0x6
 612 005b 40       		.uleb128 0x40
 613 005c 18       		.uleb128 0x18
 614 005d 9742     		.uleb128 0x2117
 615 005f 19       		.uleb128 0x19
 616 0060 00       		.byte	0
 617 0061 00       		.byte	0
 618 0062 08       		.uleb128 0x8
 619 0063 05       		.uleb128 0x5
 620 0064 00       		.byte	0
 621 0065 03       		.uleb128 0x3
 622 0066 0E       		.uleb128 0xe
 623 0067 3A       		.uleb128 0x3a
 624 0068 0B       		.uleb128 0xb
 625 0069 3B       		.uleb128 0x3b
 626 006a 0B       		.uleb128 0xb
 627 006b 49       		.uleb128 0x49
ARM GAS  /tmp/ccMVu7sD.s 			page 12


 628 006c 13       		.uleb128 0x13
 629 006d 02       		.uleb128 0x2
 630 006e 17       		.uleb128 0x17
 631 006f 00       		.byte	0
 632 0070 00       		.byte	0
 633 0071 09       		.uleb128 0x9
 634 0072 34       		.uleb128 0x34
 635 0073 00       		.byte	0
 636 0074 03       		.uleb128 0x3
 637 0075 0E       		.uleb128 0xe
 638 0076 3A       		.uleb128 0x3a
 639 0077 0B       		.uleb128 0xb
 640 0078 3B       		.uleb128 0x3b
 641 0079 0B       		.uleb128 0xb
 642 007a 49       		.uleb128 0x49
 643 007b 13       		.uleb128 0x13
 644 007c 02       		.uleb128 0x2
 645 007d 17       		.uleb128 0x17
 646 007e 00       		.byte	0
 647 007f 00       		.byte	0
 648 0080 0A       		.uleb128 0xa
 649 0081 34       		.uleb128 0x34
 650 0082 00       		.byte	0
 651 0083 03       		.uleb128 0x3
 652 0084 0E       		.uleb128 0xe
 653 0085 3A       		.uleb128 0x3a
 654 0086 0B       		.uleb128 0xb
 655 0087 3B       		.uleb128 0x3b
 656 0088 0B       		.uleb128 0xb
 657 0089 49       		.uleb128 0x49
 658 008a 13       		.uleb128 0x13
 659 008b 02       		.uleb128 0x2
 660 008c 18       		.uleb128 0x18
 661 008d 00       		.byte	0
 662 008e 00       		.byte	0
 663 008f 0B       		.uleb128 0xb
 664 0090 0B       		.uleb128 0xb
 665 0091 01       		.byte	0x1
 666 0092 11       		.uleb128 0x11
 667 0093 01       		.uleb128 0x1
 668 0094 12       		.uleb128 0x12
 669 0095 06       		.uleb128 0x6
 670 0096 01       		.uleb128 0x1
 671 0097 13       		.uleb128 0x13
 672 0098 00       		.byte	0
 673 0099 00       		.byte	0
 674 009a 0C       		.uleb128 0xc
 675 009b 34       		.uleb128 0x34
 676 009c 00       		.byte	0
 677 009d 03       		.uleb128 0x3
 678 009e 0E       		.uleb128 0xe
 679 009f 3A       		.uleb128 0x3a
 680 00a0 0B       		.uleb128 0xb
 681 00a1 3B       		.uleb128 0x3b
 682 00a2 0B       		.uleb128 0xb
 683 00a3 49       		.uleb128 0x49
 684 00a4 13       		.uleb128 0x13
ARM GAS  /tmp/ccMVu7sD.s 			page 13


 685 00a5 00       		.byte	0
 686 00a6 00       		.byte	0
 687 00a7 0D       		.uleb128 0xd
 688 00a8 0B       		.uleb128 0xb
 689 00a9 01       		.byte	0x1
 690 00aa 11       		.uleb128 0x11
 691 00ab 01       		.uleb128 0x1
 692 00ac 12       		.uleb128 0x12
 693 00ad 06       		.uleb128 0x6
 694 00ae 00       		.byte	0
 695 00af 00       		.byte	0
 696 00b0 00       		.byte	0
 697              		.section	.debug_loc,"",%progbits
 698              	.Ldebug_loc0:
 699              	.LLST0:
 700 0000 00000000 		.4byte	.LVL0-.Ltext0
 701 0004 26000000 		.4byte	.LVL3-.Ltext0
 702 0008 0100     		.2byte	0x1
 703 000a 50       		.byte	0x50
 704 000b 26000000 		.4byte	.LVL3-.Ltext0
 705 000f 2E000000 		.4byte	.LVL4-.Ltext0
 706 0013 0300     		.2byte	0x3
 707 0015 7C       		.byte	0x7c
 708 0016 74       		.sleb128 -12
 709 0017 9F       		.byte	0x9f
 710 0018 2E000000 		.4byte	.LVL4-.Ltext0
 711 001c 3A000000 		.4byte	.LVL5-.Ltext0
 712 0020 0300     		.2byte	0x3
 713 0022 7C       		.byte	0x7c
 714 0023 78       		.sleb128 -8
 715 0024 9F       		.byte	0x9f
 716 0025 3A000000 		.4byte	.LVL5-.Ltext0
 717 0029 3E000000 		.4byte	.LVL6-.Ltext0
 718 002d 0300     		.2byte	0x3
 719 002f 7C       		.byte	0x7c
 720 0030 7C       		.sleb128 -4
 721 0031 9F       		.byte	0x9f
 722 0032 3E000000 		.4byte	.LVL6-.Ltext0
 723 0036 7A000000 		.4byte	.LVL18-.Ltext0
 724 003a 0100     		.2byte	0x1
 725 003c 5C       		.byte	0x5c
 726 003d 7A000000 		.4byte	.LVL18-.Ltext0
 727 0041 98000000 		.4byte	.LVL20-.Ltext0
 728 0045 0300     		.2byte	0x3
 729 0047 7C       		.byte	0x7c
 730 0048 70       		.sleb128 -16
 731 0049 9F       		.byte	0x9f
 732 004a 98000000 		.4byte	.LVL20-.Ltext0
 733 004e A4000000 		.4byte	.LVL23-.Ltext0
 734 0052 0100     		.2byte	0x1
 735 0054 5B       		.byte	0x5b
 736 0055 A4000000 		.4byte	.LVL23-.Ltext0
 737 0059 BA000000 		.4byte	.LVL29-.Ltext0
 738 005d 0300     		.2byte	0x3
 739 005f 7B       		.byte	0x7b
 740 0060 7C       		.sleb128 -4
 741 0061 9F       		.byte	0x9f
ARM GAS  /tmp/ccMVu7sD.s 			page 14


 742 0062 BA000000 		.4byte	.LVL29-.Ltext0
 743 0066 C2000000 		.4byte	.LFE135-.Ltext0
 744 006a 0100     		.2byte	0x1
 745 006c 5B       		.byte	0x5b
 746 006d 00000000 		.4byte	0
 747 0071 00000000 		.4byte	0
 748              	.LLST1:
 749 0075 00000000 		.4byte	.LVL0-.Ltext0
 750 0079 26000000 		.4byte	.LVL3-.Ltext0
 751 007d 0100     		.2byte	0x1
 752 007f 51       		.byte	0x51
 753 0080 98000000 		.4byte	.LVL20-.Ltext0
 754 0084 A8000000 		.4byte	.LVL24-.Ltext0
 755 0088 0100     		.2byte	0x1
 756 008a 5A       		.byte	0x5a
 757 008b A8000000 		.4byte	.LVL24-.Ltext0
 758 008f BA000000 		.4byte	.LVL29-.Ltext0
 759 0093 0300     		.2byte	0x3
 760 0095 7A       		.byte	0x7a
 761 0096 7C       		.sleb128 -4
 762 0097 9F       		.byte	0x9f
 763 0098 BA000000 		.4byte	.LVL29-.Ltext0
 764 009c C2000000 		.4byte	.LFE135-.Ltext0
 765 00a0 0100     		.2byte	0x1
 766 00a2 5A       		.byte	0x5a
 767 00a3 00000000 		.4byte	0
 768 00a7 00000000 		.4byte	0
 769              	.LLST2:
 770 00ab 00000000 		.4byte	.LVL0-.Ltext0
 771 00af 26000000 		.4byte	.LVL3-.Ltext0
 772 00b3 0100     		.2byte	0x1
 773 00b5 52       		.byte	0x52
 774 00b6 98000000 		.4byte	.LVL20-.Ltext0
 775 00ba C2000000 		.4byte	.LFE135-.Ltext0
 776 00be 0100     		.2byte	0x1
 777 00c0 59       		.byte	0x59
 778 00c1 00000000 		.4byte	0
 779 00c5 00000000 		.4byte	0
 780              	.LLST3:
 781 00c9 00000000 		.4byte	.LVL0-.Ltext0
 782 00cd 0C000000 		.4byte	.LVL2-.Ltext0
 783 00d1 0100     		.2byte	0x1
 784 00d3 53       		.byte	0x53
 785 00d4 0C000000 		.4byte	.LVL2-.Ltext0
 786 00d8 BE000000 		.4byte	.LVL30-.Ltext0
 787 00dc 0200     		.2byte	0x2
 788 00de 7D       		.byte	0x7d
 789 00df 00       		.sleb128 0
 790 00e0 BE000000 		.4byte	.LVL30-.Ltext0
 791 00e4 C2000000 		.4byte	.LFE135-.Ltext0
 792 00e8 0200     		.2byte	0x2
 793 00ea 91       		.byte	0x91
 794 00eb 48       		.sleb128 -56
 795 00ec 00000000 		.4byte	0
 796 00f0 00000000 		.4byte	0
 797              	.LLST4:
 798 00f4 0A000000 		.4byte	.LVL1-.Ltext0
ARM GAS  /tmp/ccMVu7sD.s 			page 15


 799 00f8 0C000000 		.4byte	.LVL2-.Ltext0
 800 00fc 0500     		.2byte	0x5
 801 00fe 73       		.byte	0x73
 802 00ff 00       		.sleb128 0
 803 0100 32       		.byte	0x32
 804 0101 25       		.byte	0x25
 805 0102 9F       		.byte	0x9f
 806 0103 0C000000 		.4byte	.LVL2-.Ltext0
 807 0107 26000000 		.4byte	.LVL3-.Ltext0
 808 010b 0100     		.2byte	0x1
 809 010d 53       		.byte	0x53
 810 010e 26000000 		.4byte	.LVL3-.Ltext0
 811 0112 6E000000 		.4byte	.LVL16-.Ltext0
 812 0116 0100     		.2byte	0x1
 813 0118 59       		.byte	0x59
 814 0119 6E000000 		.4byte	.LVL16-.Ltext0
 815 011d 8E000000 		.4byte	.LVL19-.Ltext0
 816 0121 0300     		.2byte	0x3
 817 0123 79       		.byte	0x79
 818 0124 01       		.sleb128 1
 819 0125 9F       		.byte	0x9f
 820 0126 98000000 		.4byte	.LVL20-.Ltext0
 821 012a 9E000000 		.4byte	.LVL21-.Ltext0
 822 012e 0600     		.2byte	0x6
 823 0130 7D       		.byte	0x7d
 824 0131 00       		.sleb128 0
 825 0132 06       		.byte	0x6
 826 0133 33       		.byte	0x33
 827 0134 1A       		.byte	0x1a
 828 0135 9F       		.byte	0x9f
 829 0136 9E000000 		.4byte	.LVL21-.Ltext0
 830 013a AA000000 		.4byte	.LVL25-.Ltext0
 831 013e 0100     		.2byte	0x1
 832 0140 50       		.byte	0x50
 833 0141 AA000000 		.4byte	.LVL25-.Ltext0
 834 0145 B2000000 		.4byte	.LVL27-.Ltext0
 835 0149 0300     		.2byte	0x3
 836 014b 70       		.byte	0x70
 837 014c 01       		.sleb128 1
 838 014d 9F       		.byte	0x9f
 839 014e 00000000 		.4byte	0
 840 0152 00000000 		.4byte	0
 841              	.LLST5:
 842 0156 2E000000 		.4byte	.LVL4-.Ltext0
 843 015a 98000000 		.4byte	.LVL20-.Ltext0
 844 015e 0100     		.2byte	0x1
 845 0160 57       		.byte	0x57
 846 0161 A4000000 		.4byte	.LVL23-.Ltext0
 847 0165 B2000000 		.4byte	.LVL27-.Ltext0
 848 0169 0100     		.2byte	0x1
 849 016b 53       		.byte	0x53
 850 016c B2000000 		.4byte	.LVL27-.Ltext0
 851 0170 BA000000 		.4byte	.LVL29-.Ltext0
 852 0174 0200     		.2byte	0x2
 853 0176 7B       		.byte	0x7b
 854 0177 7C       		.sleb128 -4
 855 0178 00000000 		.4byte	0
ARM GAS  /tmp/ccMVu7sD.s 			page 16


 856 017c 00000000 		.4byte	0
 857              	.LLST6:
 858 0180 3A000000 		.4byte	.LVL5-.Ltext0
 859 0184 46000000 		.4byte	.LVL7-.Ltext0
 860 0188 0100     		.2byte	0x1
 861 018a 56       		.byte	0x56
 862 018b 46000000 		.4byte	.LVL7-.Ltext0
 863 018f 72000000 		.4byte	.LVL17-.Ltext0
 864 0193 0200     		.2byte	0x2
 865 0195 7C       		.byte	0x7c
 866 0196 74       		.sleb128 -12
 867 0197 00000000 		.4byte	0
 868 019b 00000000 		.4byte	0
 869              	.LLST7:
 870 019f 3E000000 		.4byte	.LVL6-.Ltext0
 871 01a3 50000000 		.4byte	.LVL9-.Ltext0
 872 01a7 0100     		.2byte	0x1
 873 01a9 54       		.byte	0x54
 874 01aa 50000000 		.4byte	.LVL9-.Ltext0
 875 01ae 72000000 		.4byte	.LVL17-.Ltext0
 876 01b2 0200     		.2byte	0x2
 877 01b4 7C       		.byte	0x7c
 878 01b5 78       		.sleb128 -8
 879 01b6 00000000 		.4byte	0
 880 01ba 00000000 		.4byte	0
 881              	.LLST8:
 882 01be 3E000000 		.4byte	.LVL6-.Ltext0
 883 01c2 72000000 		.4byte	.LVL17-.Ltext0
 884 01c6 0200     		.2byte	0x2
 885 01c8 7C       		.byte	0x7c
 886 01c9 7C       		.sleb128 -4
 887 01ca 00000000 		.4byte	0
 888 01ce 00000000 		.4byte	0
 889              	.LLST9:
 890 01d2 3E000000 		.4byte	.LVL6-.Ltext0
 891 01d6 58000000 		.4byte	.LVL11-.Ltext0
 892 01da 0100     		.2byte	0x1
 893 01dc 51       		.byte	0x51
 894 01dd 58000000 		.4byte	.LVL11-.Ltext0
 895 01e1 72000000 		.4byte	.LVL17-.Ltext0
 896 01e5 0200     		.2byte	0x2
 897 01e7 7E       		.byte	0x7e
 898 01e8 70       		.sleb128 -16
 899 01e9 A8000000 		.4byte	.LVL24-.Ltext0
 900 01ed AE000000 		.4byte	.LVL26-.Ltext0
 901 01f1 0100     		.2byte	0x1
 902 01f3 52       		.byte	0x52
 903 01f4 AE000000 		.4byte	.LVL26-.Ltext0
 904 01f8 BA000000 		.4byte	.LVL29-.Ltext0
 905 01fc 0200     		.2byte	0x2
 906 01fe 7A       		.byte	0x7a
 907 01ff 7C       		.sleb128 -4
 908 0200 00000000 		.4byte	0
 909 0204 00000000 		.4byte	0
 910              	.LLST10:
 911 0208 3E000000 		.4byte	.LVL6-.Ltext0
 912 020c 4A000000 		.4byte	.LVL8-.Ltext0
ARM GAS  /tmp/ccMVu7sD.s 			page 17


 913 0210 0100     		.2byte	0x1
 914 0212 55       		.byte	0x55
 915 0213 4A000000 		.4byte	.LVL8-.Ltext0
 916 0217 72000000 		.4byte	.LVL17-.Ltext0
 917 021b 0200     		.2byte	0x2
 918 021d 7E       		.byte	0x7e
 919 021e 74       		.sleb128 -12
 920 021f 00000000 		.4byte	0
 921 0223 00000000 		.4byte	0
 922              	.LLST11:
 923 0227 3E000000 		.4byte	.LVL6-.Ltext0
 924 022b 66000000 		.4byte	.LVL14-.Ltext0
 925 022f 0100     		.2byte	0x1
 926 0231 53       		.byte	0x53
 927 0232 66000000 		.4byte	.LVL14-.Ltext0
 928 0236 72000000 		.4byte	.LVL17-.Ltext0
 929 023a 0200     		.2byte	0x2
 930 023c 7E       		.byte	0x7e
 931 023d 7C       		.sleb128 -4
 932 023e 00000000 		.4byte	0
 933 0242 00000000 		.4byte	0
 934              	.LLST12:
 935 0246 4A000000 		.4byte	.LVL8-.Ltext0
 936 024a 98000000 		.4byte	.LVL20-.Ltext0
 937 024e 0100     		.2byte	0x1
 938 0250 55       		.byte	0x55
 939 0251 B2000000 		.4byte	.LVL27-.Ltext0
 940 0255 B6000000 		.4byte	.LVL28-.Ltext0
 941 0259 0100     		.2byte	0x1
 942 025b 53       		.byte	0x53
 943 025c 00000000 		.4byte	0
 944 0260 00000000 		.4byte	0
 945              	.LLST13:
 946 0264 58000000 		.4byte	.LVL11-.Ltext0
 947 0268 5E000000 		.4byte	.LVL12-.Ltext0
 948 026c 0100     		.2byte	0x1
 949 026e 51       		.byte	0x51
 950 026f 00000000 		.4byte	0
 951 0273 00000000 		.4byte	0
 952              	.LLST14:
 953 0277 62000000 		.4byte	.LVL13-.Ltext0
 954 027b 98000000 		.4byte	.LVL20-.Ltext0
 955 027f 0100     		.2byte	0x1
 956 0281 54       		.byte	0x54
 957 0282 00000000 		.4byte	0
 958 0286 00000000 		.4byte	0
 959              	.LLST15:
 960 028a 66000000 		.4byte	.LVL14-.Ltext0
 961 028e 6A000000 		.4byte	.LVL15-.Ltext0
 962 0292 0100     		.2byte	0x1
 963 0294 53       		.byte	0x53
 964 0295 00000000 		.4byte	0
 965 0299 00000000 		.4byte	0
 966              	.LLST16:
 967 029d 4A000000 		.4byte	.LVL8-.Ltext0
 968 02a1 98000000 		.4byte	.LVL20-.Ltext0
 969 02a5 0100     		.2byte	0x1
ARM GAS  /tmp/ccMVu7sD.s 			page 18


 970 02a7 55       		.byte	0x55
 971 02a8 00000000 		.4byte	0
 972 02ac 00000000 		.4byte	0
 973              	.LLST20:
 974 02b0 B2000000 		.4byte	.LVL27-.Ltext0
 975 02b4 B6000000 		.4byte	.LVL28-.Ltext0
 976 02b8 0100     		.2byte	0x1
 977 02ba 53       		.byte	0x53
 978 02bb 00000000 		.4byte	0
 979 02bf 00000000 		.4byte	0
 980              		.section	.debug_aranges,"",%progbits
 981 0000 1C000000 		.4byte	0x1c
 982 0004 0200     		.2byte	0x2
 983 0006 00000000 		.4byte	.Ldebug_info0
 984 000a 04       		.byte	0x4
 985 000b 00       		.byte	0
 986 000c 0000     		.2byte	0
 987 000e 0000     		.2byte	0
 988 0010 00000000 		.4byte	.Ltext0
 989 0014 C2000000 		.4byte	.Letext0-.Ltext0
 990 0018 00000000 		.4byte	0
 991 001c 00000000 		.4byte	0
 992              		.section	.debug_line,"",%progbits
 993              	.Ldebug_line0:
 994 0000 58020000 		.section	.debug_str,"MS",%progbits,1
 994      02000602 
 994      00000201 
 994      FB0E0D00 
 994      01010101 
 995              	.LASF9:
 996 0000 6C6F6E67 		.ascii	"long long int\000"
 996      206C6F6E 
 996      6720696E 
 996      7400
 997              	.LASF41:
 998 000e 474E5520 		.ascii	"GNU C 4.9.3 20150529 (release) [ARM/embedded-4_9-br"
 998      4320342E 
 998      392E3320 
 998      32303135 
 998      30353239 
 999 0041 616E6368 		.ascii	"anch revision 224288] -mcpu=cortex-m4 -mfloat-abi=h"
 999      20726576 
 999      6973696F 
 999      6E203232 
 999      34323838 
 1000 0074 61726420 		.ascii	"ard -mfpu=fpv4-sp-d16 -mno-thumb-interwork -mthumb "
 1000      2D6D6670 
 1000      753D6670 
 1000      76342D73 
 1000      702D6431 
 1001 00a7 2D676764 		.ascii	"-ggdb -O2 -fomit-frame-pointer -falign-functions=16"
 1001      62202D4F 
 1001      32202D66 
 1001      6F6D6974 
 1001      2D667261 
 1002 00da 202D666E 		.ascii	" -fno-math-errno -fsingle-precision-constant\000"
 1002      6F2D6D61 
ARM GAS  /tmp/ccMVu7sD.s 			page 19


 1002      74682D65 
 1002      72726E6F 
 1002      202D6673 
 1003              	.LASF22:
 1004 0107 70537263 		.ascii	"pSrcA\000"
 1004      4100
 1005              	.LASF23:
 1006 010d 70537263 		.ascii	"pSrcB\000"
 1006      4200
 1007              	.LASF33:
 1008 0113 696E4233 		.ascii	"inB3\000"
 1008      00
 1009              	.LASF5:
 1010 0118 5F5F696E 		.ascii	"__int32_t\000"
 1010      7433325F 
 1010      7400
 1011              	.LASF28:
 1012 0122 696E4132 		.ascii	"inA2\000"
 1012      00
 1013              	.LASF35:
 1014 0127 6F757431 		.ascii	"out1\000"
 1014      00
 1015              	.LASF36:
 1016 012c 6F757432 		.ascii	"out2\000"
 1016      00
 1017              	.LASF37:
 1018 0131 6F757433 		.ascii	"out3\000"
 1018      00
 1019              	.LASF38:
 1020 0136 6F757434 		.ascii	"out4\000"
 1020      00
 1021              	.LASF32:
 1022 013b 696E4232 		.ascii	"inB2\000"
 1022      00
 1023              	.LASF34:
 1024 0140 696E4234 		.ascii	"inB4\000"
 1024      00
 1025              	.LASF18:
 1026 0145 666C6F61 		.ascii	"float\000"
 1026      7400
 1027              	.LASF31:
 1028 014b 696E4231 		.ascii	"inB1\000"
 1028      00
 1029              	.LASF20:
 1030 0150 7133315F 		.ascii	"q31_t\000"
 1030      7400
 1031              	.LASF1:
 1032 0156 756E7369 		.ascii	"unsigned char\000"
 1032      676E6564 
 1032      20636861 
 1032      7200
 1033              	.LASF26:
 1034 0164 626C6B43 		.ascii	"blkCnt\000"
 1034      6E7400
 1035              	.LASF7:
 1036 016b 6C6F6E67 		.ascii	"long unsigned int\000"
 1036      20756E73 
ARM GAS  /tmp/ccMVu7sD.s 			page 20


 1036      69676E65 
 1036      6420696E 
 1036      7400
 1037              	.LASF3:
 1038 017d 73686F72 		.ascii	"short unsigned int\000"
 1038      7420756E 
 1038      7369676E 
 1038      65642069 
 1038      6E7400
 1039              	.LASF40:
 1040 0190 5F5F4152 		.ascii	"__ARG1\000"
 1040      473100
 1041              	.LASF24:
 1042 0197 70447374 		.ascii	"pDst\000"
 1042      00
 1043              	.LASF8:
 1044 019c 5F5F696E 		.ascii	"__int64_t\000"
 1044      7436345F 
 1044      7400
 1045              	.LASF43:
 1046 01a6 61726D5F 		.ascii	"arm_mult_q31\000"
 1046      6D756C74 
 1046      5F713331 
 1046      00
 1047              	.LASF17:
 1048 01b3 646F7562 		.ascii	"double\000"
 1048      6C6500
 1049              	.LASF6:
 1050 01ba 5F5F7569 		.ascii	"__uint32_t\000"
 1050      6E743332 
 1050      5F7400
 1051              	.LASF27:
 1052 01c5 696E4131 		.ascii	"inA1\000"
 1052      00
 1053              	.LASF11:
 1054 01ca 756E7369 		.ascii	"unsigned int\000"
 1054      676E6564 
 1054      20696E74 
 1054      00
 1055              	.LASF29:
 1056 01d7 696E4133 		.ascii	"inA3\000"
 1056      00
 1057              	.LASF30:
 1058 01dc 696E4134 		.ascii	"inA4\000"
 1058      00
 1059              	.LASF10:
 1060 01e1 6C6F6E67 		.ascii	"long long unsigned int\000"
 1060      206C6F6E 
 1060      6720756E 
 1060      7369676E 
 1060      65642069 
 1061              	.LASF21:
 1062 01f8 7136335F 		.ascii	"q63_t\000"
 1062      7400
 1063              	.LASF12:
 1064 01fe 696E7433 		.ascii	"int32_t\000"
 1064      325F7400 
ARM GAS  /tmp/ccMVu7sD.s 			page 21


 1065              	.LASF15:
 1066 0206 73697A65 		.ascii	"sizetype\000"
 1066      74797065 
 1066      00
 1067              	.LASF14:
 1068 020f 696E7436 		.ascii	"int64_t\000"
 1068      345F7400 
 1069              	.LASF39:
 1070 0217 5F5F5245 		.ascii	"__RES\000"
 1070      5300
 1071              	.LASF25:
 1072 021d 626C6F63 		.ascii	"blockSize\000"
 1072      6B53697A 
 1072      6500
 1073              	.LASF16:
 1074 0227 63686172 		.ascii	"char\000"
 1074      00
 1075              	.LASF2:
 1076 022c 73686F72 		.ascii	"short int\000"
 1076      7420696E 
 1076      7400
 1077              	.LASF42:
 1078 0236 2F686F6D 		.ascii	"/home/sbcu/Dropbox/pcb-layouts/axo-on-discovery-boa"
 1078      652F7362 
 1078      63752F44 
 1078      726F7062 
 1078      6F782F70 
 1079 0269 72642F61 		.ascii	"rd/axoloti/platform_linux/../CMSIS//DSP_Lib/Source/"
 1079      786F6C6F 
 1079      74692F70 
 1079      6C617466 
 1079      6F726D5F 
 1080 029c 42617369 		.ascii	"BasicMathFunctions/arm_mult_q31.c\000"
 1080      634D6174 
 1080      6846756E 
 1080      6374696F 
 1080      6E732F61 
 1081              	.LASF13:
 1082 02be 75696E74 		.ascii	"uint32_t\000"
 1082      33325F74 
 1082      00
 1083              	.LASF4:
 1084 02c7 6C6F6E67 		.ascii	"long int\000"
 1084      20696E74 
 1084      00
 1085              	.LASF19:
 1086 02d0 6C6F6E67 		.ascii	"long double\000"
 1086      20646F75 
 1086      626C6500 
 1087              	.LASF0:
 1088 02dc 7369676E 		.ascii	"signed char\000"
 1088      65642063 
 1088      68617200 
 1089              		.ident	"GCC: (GNU Tools for ARM Embedded Processors) 4.9.3 20150529 (release) [ARM/embedded-4_9-br
ARM GAS  /tmp/ccMVu7sD.s 			page 22


DEFINED SYMBOLS
                            *ABS*:00000000 arm_mult_q31.c
     /tmp/ccMVu7sD.s:20     .text:00000000 $t
     /tmp/ccMVu7sD.s:26     .text:00000000 arm_mult_q31
                     .debug_frame:00000010 $d

NO UNDEFINED SYMBOLS
