ARM GAS  /tmp/ccOp4oY9.s 			page 1


   1              		.syntax unified
   2              		.cpu cortex-m4
   3              		.eabi_attribute 27, 1
   4              		.eabi_attribute 28, 1
   5              		.fpu fpv4-sp-d16
   6              		.eabi_attribute 20, 1
   7              		.eabi_attribute 21, 1
   8              		.eabi_attribute 23, 3
   9              		.eabi_attribute 24, 1
  10              		.eabi_attribute 25, 1
  11              		.eabi_attribute 26, 1
  12              		.eabi_attribute 30, 2
  13              		.eabi_attribute 34, 1
  14              		.eabi_attribute 18, 4
  15              		.thumb
  16              		.file	"arm_cfft_f32.c"
  17              		.text
  18              	.Ltext0:
  19              		.cfi_sections	.debug_frame
  20              		.align	2
  21              		.p2align 4,,15
  22              		.global	arm_cfft_radix8by2_f32
  23              		.thumb
  24              		.thumb_func
  25              		.type	arm_cfft_radix8by2_f32, %function
  26              	arm_cfft_radix8by2_f32:
  27              	.LFB135:
  28              		.file 1 "/home/sbcu/Dropbox/pcb-layouts/axo-on-discovery-board/axoloti/platform_linux/../CMSIS//DS
  29              		.loc 1 208 0
  30              		.cfi_startproc
  31              		@ args = 0, pretend = 0, frame = 0
  32              		@ frame_needed = 0, uses_anonymous_args = 0
  33              	.LVL0:
  34 0000 2DE9F047 		push	{r4, r5, r6, r7, r8, r9, r10, lr}
  35              		.cfi_def_cfa_offset 32
  36              		.cfi_offset 4, -32
  37              		.cfi_offset 5, -28
  38              		.cfi_offset 6, -24
  39              		.cfi_offset 7, -20
  40              		.cfi_offset 8, -16
  41              		.cfi_offset 9, -12
  42              		.cfi_offset 10, -8
  43              		.cfi_offset 14, -4
  44              		.loc 1 209 0
  45 0004 B0F800E0 		ldrh	lr, [r0]
  46              	.LVL1:
  47              		.loc 1 212 0
  48 0008 4268     		ldr	r2, [r0, #4]
  49              		.loc 1 208 0
  50 000a 8046     		mov	r8, r0
  51              		.loc 1 211 0
  52 000c 01EB8E09 		add	r9, r1, lr, lsl #2
  53              	.LVL2:
  54              		.loc 1 221 0
  55 0010 4FEA5E00 		lsr	r0, lr, #1
  56              	.LVL3:
  57              		.loc 1 227 0
ARM GAS  /tmp/ccOp4oY9.s 			page 2


  58 0014 5FEADE0E 		lsrs	lr, lr, #3
  59              		.loc 1 208 0
  60 0018 2DED088B 		fstmfdd	sp!, {d8, d9, d10, d11}
  61              		.cfi_def_cfa_offset 64
  62              		.cfi_offset 80, -64
  63              		.cfi_offset 81, -60
  64              		.cfi_offset 82, -56
  65              		.cfi_offset 83, -52
  66              		.cfi_offset 84, -48
  67              		.cfi_offset 85, -44
  68              		.cfi_offset 86, -40
  69              		.cfi_offset 87, -36
  70              		.loc 1 223 0
  71 001c 4FEA8003 		lsl	r3, r0, #2
  72              	.LVL4:
  73              		.loc 1 227 0
  74 0020 00F09F80 		beq	.L4
  75 0024 1033     		adds	r3, r3, #16
  76              	.LVL5:
  77 0026 CE18     		adds	r6, r1, r3
  78 0028 01F11005 		add	r5, r1, #16
  79 002c 4B44     		add	r3, r3, r9
  80              	.LVL6:
  81 002e 02F11007 		add	r7, r2, #16
  82 0032 09F11004 		add	r4, r9, #16
  83              	.LVL7:
  84              	.L3:
  85              		.loc 1 234 0 discriminator 3
  86 0036 14ED042A 		flds	s4, [r4, #-16]
  87              		.loc 1 235 0 discriminator 3
  88 003a 54ED032A 		flds	s5, [r4, #-12]
  89              		.loc 1 244 0 discriminator 3
  90 003e 13ED045A 		flds	s10, [r3, #-16]
  91              		.loc 1 245 0 discriminator 3
  92 0042 53ED035A 		flds	s11, [r3, #-12]
  93              		.loc 1 236 0 discriminator 3
  94 0046 54ED028A 		flds	s17, [r4, #-8]
  95              		.loc 1 239 0 discriminator 3
  96 004a 16ED043A 		flds	s6, [r6, #-16]
  97              		.loc 1 240 0 discriminator 3
  98 004e 56ED033A 		flds	s7, [r6, #-12]
  99              		.loc 1 246 0 discriminator 3
 100 0052 13ED027A 		flds	s14, [r3, #-8]
 101              		.loc 1 247 0 discriminator 3
 102 0056 53ED017A 		flds	s15, [r3, #-4]
 103              		.loc 1 229 0 discriminator 3
 104 005a 55ED044A 		flds	s9, [r5, #-16]
 105              	.LVL8:
 106              		.loc 1 237 0 discriminator 3
 107 005e 14ED018A 		flds	s16, [r4, #-4]
 108              		.loc 1 241 0 discriminator 3
 109 0062 16ED020A 		flds	s0, [r6, #-8]
 110              		.loc 1 242 0 discriminator 3
 111 0066 56ED010A 		flds	s1, [r6, #-4]
 112              		.loc 1 230 0 discriminator 3
 113 006a 15ED034A 		flds	s8, [r5, #-12]
 114              	.LVL9:
ARM GAS  /tmp/ccOp4oY9.s 			page 3


 115              		.loc 1 231 0 discriminator 3
 116 006e 55ED026A 		flds	s13, [r5, #-8]
 117              	.LVL10:
 118              		.loc 1 232 0 discriminator 3
 119 0072 15ED016A 		flds	s12, [r5, #-4]
 120              	.LVL11:
 121              		.loc 1 249 0 discriminator 3
 122 0076 74EE82BA 		fadds	s23, s9, s4
 123              		.loc 1 250 0 discriminator 3
 124 007a 34EE22BA 		fadds	s22, s8, s5
 125              		.loc 1 259 0 discriminator 3
 126 007e 73EE059A 		fadds	s19, s6, s10
 127              		.loc 1 260 0 discriminator 3
 128 0082 33EEA59A 		fadds	s18, s7, s11
 129              		.loc 1 261 0 discriminator 3
 130 0086 30EE071A 		fadds	s2, s0, s14
 131              		.loc 1 262 0 discriminator 3
 132 008a 70EEA71A 		fadds	s3, s1, s15
 133              		.loc 1 251 0 discriminator 3
 134 008e 76EEA8AA 		fadds	s21, s13, s17
 135              		.loc 1 252 0 discriminator 3
 136 0092 36EE08AA 		fadds	s20, s12, s16
 137              		.loc 1 249 0 discriminator 3
 138 0096 45ED04BA 		fsts	s23, [r5, #-16]
 139              	.LVL12:
 140              		.loc 1 250 0 discriminator 3
 141 009a 05ED03BA 		fsts	s22, [r5, #-12]
 142              	.LVL13:
 143              		.loc 1 251 0 discriminator 3
 144 009e 45ED02AA 		fsts	s21, [r5, #-8]
 145              	.LVL14:
 146              		.loc 1 252 0 discriminator 3
 147 00a2 05ED01AA 		fsts	s20, [r5, #-4]
 148              		.loc 1 261 0 discriminator 3
 149 00a6 06ED021A 		fsts	s2, [r6, #-8]
 150              		.loc 1 262 0 discriminator 3
 151 00aa 46ED011A 		fsts	s3, [r6, #-4]
 152              		.loc 1 259 0 discriminator 3
 153 00ae 46ED049A 		fsts	s19, [r6, #-16]
 154              		.loc 1 260 0 discriminator 3
 155 00b2 06ED039A 		fsts	s18, [r6, #-12]
 156              		.loc 1 254 0 discriminator 3
 157 00b6 74EEC24A 		fsubs	s9, s9, s4
 158              	.LVL15:
 159              		.loc 1 255 0 discriminator 3
 160 00ba 34EE624A 		fsubs	s8, s8, s5
 161              	.LVL16:
 162              		.loc 1 264 0 discriminator 3
 163 00be 35EE435A 		fsubs	s10, s10, s6
 164              	.LVL17:
 165              		.loc 1 265 0 discriminator 3
 166 00c2 75EEE35A 		fsubs	s11, s11, s7
 167              	.LVL18:
 168              		.loc 1 269 0 discriminator 3
 169 00c6 17ED043A 		flds	s6, [r7, #-16]
 170              	.LVL19:
 171              		.loc 1 270 0 discriminator 3
ARM GAS  /tmp/ccOp4oY9.s 			page 4


 172 00ca 57ED033A 		flds	s7, [r7, #-12]
 173              	.LVL20:
 174 00ce 23EE652A 		fnmuls	s4, s6, s11
 175              		.loc 1 274 0 discriminator 3
 176 00d2 64EE231A 		fmuls	s3, s8, s7
 177 00d6 23EEE41A 		fnmuls	s2, s7, s9
 178              		.loc 1 288 0 discriminator 3
 179 00da 65EE032A 		fmuls	s5, s10, s6
 180              		.loc 1 281 0 discriminator 3
 181 00de A4EE031A 		vfma.f32	s2, s8, s6
 182              		.loc 1 227 0 discriminator 3
 183 00e2 BEF1010E 		subs	lr, lr, #1
 184              	.LVL21:
 185 00e6 05F11005 		add	r5, r5, #16
 186              	.LVL22:
 187              		.loc 1 279 0 discriminator 3
 188 00ea E4EE831A 		vfma.f32	s3, s9, s6
 189 00ee 06F11006 		add	r6, r6, #16
 190 00f2 07F11007 		add	r7, r7, #16
 191              		.loc 1 290 0 discriminator 3
 192 00f6 A5EE232A 		vfma.f32	s4, s10, s7
 193 00fa 04F11004 		add	r4, r4, #16
 194 00fe 03F11003 		add	r3, r3, #16
 195              		.loc 1 291 0 discriminator 3
 196 0102 E5EEA32A 		vfma.f32	s5, s11, s7
 197              		.loc 1 281 0 discriminator 3
 198 0106 04ED071A 		fsts	s2, [r4, #-28]
 199              		.loc 1 279 0 discriminator 3
 200 010a 44ED081A 		fsts	s3, [r4, #-32]
 201              		.loc 1 290 0 discriminator 3
 202 010e 03ED082A 		fsts	s4, [r3, #-32]
 203              		.loc 1 291 0 discriminator 3
 204 0112 43ED072A 		fsts	s5, [r3, #-28]
 205              		.loc 1 294 0 discriminator 3
 206 0116 57ED055A 		flds	s11, [r7, #-20]
 207              		.loc 1 293 0 discriminator 3
 208 011a 17ED065A 		flds	s10, [r7, #-24]
 209              		.loc 1 256 0 discriminator 3
 210 011e 76EEE86A 		fsubs	s13, s13, s17
 211              	.LVL23:
 212              		.loc 1 257 0 discriminator 3
 213 0122 36EE486A 		fsubs	s12, s12, s16
 214              	.LVL24:
 215              		.loc 1 266 0 discriminator 3
 216 0126 37EE407A 		fsubs	s14, s14, s0
 217              	.LVL25:
 218              		.loc 1 267 0 discriminator 3
 219 012a 77EEE07A 		fsubs	s15, s15, s1
 220              	.LVL26:
 221              		.loc 1 297 0 discriminator 3
 222 012e 26EE253A 		fmuls	s6, s12, s11
 223              	.LVL27:
 224 0132 65EEE63A 		fnmuls	s7, s11, s13
 225 0136 25EE674A 		fnmuls	s8, s10, s15
 226              	.LVL28:
 227              		.loc 1 307 0 discriminator 3
 228 013a 67EE054A 		fmuls	s9, s14, s10
ARM GAS  /tmp/ccOp4oY9.s 			page 5


 229              	.LVL29:
 230              		.loc 1 302 0 discriminator 3
 231 013e E6EE053A 		vfma.f32	s7, s12, s10
 232              		.loc 1 301 0 discriminator 3
 233 0142 A6EE853A 		vfma.f32	s6, s13, s10
 234              	.LVL30:
 235              		.loc 1 309 0 discriminator 3
 236 0146 A7EE254A 		vfma.f32	s8, s14, s11
 237              		.loc 1 310 0 discriminator 3
 238 014a E7EEA54A 		vfma.f32	s9, s15, s11
 239              		.loc 1 301 0 discriminator 3
 240 014e 04ED063A 		fsts	s6, [r4, #-24]
 241              		.loc 1 302 0 discriminator 3
 242 0152 44ED053A 		fsts	s7, [r4, #-20]
 243              	.LVL31:
 244              		.loc 1 309 0 discriminator 3
 245 0156 03ED064A 		fsts	s8, [r3, #-24]
 246              	.LVL32:
 247              		.loc 1 310 0 discriminator 3
 248 015a 43ED054A 		fsts	s9, [r3, #-20]
 249              		.loc 1 227 0 discriminator 3
 250 015e 7FF46AAF 		bne	.L3
 251              	.LVL33:
 252              	.L4:
 253              		.loc 1 314 0
 254 0162 84B2     		uxth	r4, r0
 255 0164 0223     		movs	r3, #2
 256 0166 0846     		mov	r0, r1
 257              	.LVL34:
 258 0168 2146     		mov	r1, r4
 259              	.LVL35:
 260 016a FFF7FEFF 		bl	arm_radix8_butterfly_f32
 261              	.LVL36:
 262              		.loc 1 317 0
 263 016e BDEC088B 		fldmfdd	sp!, {d8-d11}
 264              		.cfi_restore 86
 265              		.cfi_restore 87
 266              		.cfi_restore 84
 267              		.cfi_restore 85
 268              		.cfi_restore 82
 269              		.cfi_restore 83
 270              		.cfi_restore 80
 271              		.cfi_restore 81
 272              		.cfi_def_cfa_offset 32
 273              		.loc 1 316 0
 274 0172 4846     		mov	r0, r9
 275 0174 2146     		mov	r1, r4
 276 0176 D8F80420 		ldr	r2, [r8, #4]
 277 017a 0223     		movs	r3, #2
 278              		.loc 1 317 0
 279 017c BDE8F047 		pop	{r4, r5, r6, r7, r8, r9, r10, lr}
 280              		.cfi_restore 14
 281              		.cfi_restore 10
 282              		.cfi_restore 9
 283              		.cfi_restore 8
 284              		.cfi_restore 7
 285              		.cfi_restore 6
ARM GAS  /tmp/ccOp4oY9.s 			page 6


 286              		.cfi_restore 5
 287              		.cfi_restore 4
 288              		.cfi_def_cfa_offset 0
 289              	.LVL37:
 290              		.loc 1 316 0
 291 0180 FFF7FEBF 		b	arm_radix8_butterfly_f32
 292              	.LVL38:
 293              		.cfi_endproc
 294              	.LFE135:
 295              		.size	arm_cfft_radix8by2_f32, .-arm_cfft_radix8by2_f32
 296              		.align	2
 297 0184 AFF30080 		.p2align 4,,15
 297      AFF30080 
 297      AFF30080 
 298              		.global	arm_cfft_radix8by4_f32
 299              		.thumb
 300              		.thumb_func
 301              		.type	arm_cfft_radix8by4_f32, %function
 302              	arm_cfft_radix8by4_f32:
 303              	.LFB136:
 304              		.loc 1 320 0
 305              		.cfi_startproc
 306              		@ args = 0, pretend = 0, frame = 56
 307              		@ frame_needed = 0, uses_anonymous_args = 0
 308              	.LVL39:
 309 0190 2DE9F04F 		push	{r4, r5, r6, r7, r8, r9, r10, fp, lr}
 310              		.cfi_def_cfa_offset 36
 311              		.cfi_offset 4, -36
 312              		.cfi_offset 5, -32
 313              		.cfi_offset 6, -28
 314              		.cfi_offset 7, -24
 315              		.cfi_offset 8, -20
 316              		.cfi_offset 9, -16
 317              		.cfi_offset 10, -12
 318              		.cfi_offset 11, -8
 319              		.cfi_offset 14, -4
 320 0194 2DED0A8B 		fstmfdd	sp!, {d8, d9, d10, d11, d12}
 321              		.cfi_def_cfa_offset 76
 322              		.cfi_offset 80, -76
 323              		.cfi_offset 81, -72
 324              		.cfi_offset 82, -68
 325              		.cfi_offset 83, -64
 326              		.cfi_offset 84, -60
 327              		.cfi_offset 85, -56
 328              		.cfi_offset 86, -52
 329              		.cfi_offset 87, -48
 330              		.cfi_offset 88, -44
 331              		.cfi_offset 89, -40
 332              		.loc 1 321 0
 333 0198 0488     		ldrh	r4, [r0]
 334              		.loc 1 341 0
 335 019a 4368     		ldr	r3, [r0, #4]
 336              		.loc 1 352 0
 337 019c 91ED006A 		flds	s12, [r1]
 338              		.loc 1 354 0
 339 01a0 91ED017A 		flds	s14, [r1, #4]
 340              		.loc 1 320 0
ARM GAS  /tmp/ccOp4oY9.s 			page 7


 341 01a4 8FB0     		sub	sp, sp, #60
 342              		.cfi_def_cfa_offset 136
 343              		.loc 1 321 0
 344 01a6 6408     		lsrs	r4, r4, #1
 345              	.LVL40:
 346              		.loc 1 341 0
 347 01a8 0193     		str	r3, [sp, #4]
 348              		.loc 1 354 0
 349 01aa 0A46     		mov	r2, r1
 350              		.loc 1 324 0
 351 01ac A300     		lsls	r3, r4, #2
 352 01ae 1A44     		add	r2, r2, r3
 353 01b0 1546     		mov	r5, r2
 354 01b2 0892     		str	r2, [sp, #32]
 355              	.LVL41:
 356              		.loc 1 325 0
 357 01b4 1A44     		add	r2, r2, r3
 358              	.LVL42:
 359              		.loc 1 352 0
 360 01b6 D2ED006A 		flds	s13, [r2]
 361              		.loc 1 359 0
 362 01ba D5ED003A 		flds	s7, [r5]
 363              		.loc 1 320 0
 364 01be 0C91     		str	r1, [sp, #48]
 365 01c0 0E46     		mov	r6, r1
 366              		.loc 1 352 0
 367 01c2 76EE265A 		fadds	s11, s12, s13
 368              		.loc 1 354 0
 369 01c6 1146     		mov	r1, r2
 370              	.LVL43:
 371              		.loc 1 320 0
 372 01c8 0B90     		str	r0, [sp, #44]
 373              		.loc 1 326 0
 374 01ca 0846     		mov	r0, r1
 375              	.LVL44:
 376 01cc 1944     		add	r1, r1, r3
 377              		.loc 1 359 0
 378 01ce 91ED004A 		flds	s8, [r1]
 379              		.loc 1 358 0
 380 01d2 D5ED012A 		flds	s5, [r5, #4]
 381              		.loc 1 354 0
 382 01d6 D2ED017A 		flds	s15, [r2, #4]
 383              		.loc 1 325 0
 384 01da 0992     		str	r2, [sp, #36]
 385              	.LVL45:
 386              		.loc 1 367 0
 387 01dc 75EEA34A 		fadds	s9, s11, s7
 388              		.loc 1 358 0
 389 01e0 2A46     		mov	r2, r5
 390              		.loc 1 367 0
 391 01e2 74EE244A 		fadds	s9, s8, s9
 392 01e6 3546     		mov	r5, r6
 393              	.LVL46:
 394 01e8 14EE90EA 		fmrs	lr, s9
 395              		.loc 1 358 0
 396 01ec 91ED015A 		flds	s10, [r1, #4]
 397              		.loc 1 367 0
ARM GAS  /tmp/ccOp4oY9.s 			page 8


 398 01f0 45F808EB 		str	lr, [r5], #8	@ float
 399              		.loc 1 353 0
 400 01f4 76EE666A 		fsubs	s13, s12, s13
 401              		.loc 1 368 0
 402 01f8 D2ED014A 		flds	s9, [r2, #4]
 403              		.loc 1 326 0
 404 01fc 0091     		str	r1, [sp]
 405              	.LVL47:
 406              		.loc 1 354 0
 407 01fe 37EE276A 		fadds	s12, s14, s15
 408              		.loc 1 358 0
 409 0202 0F46     		mov	r7, r1
 410              		.loc 1 368 0
 411 0204 97ED012A 		flds	s4, [r7, #4]
 412              		.loc 1 367 0
 413 0208 0395     		str	r5, [sp, #12]
 414              		.loc 1 355 0
 415 020a 77EE677A 		fsubs	s15, s14, s15
 416              		.loc 1 358 0
 417 020e 32EEA63A 		fadds	s6, s5, s13
 418              		.loc 1 368 0
 419 0212 36EE247A 		fadds	s14, s12, s9
 420              		.loc 1 361 0
 421 0216 75EEE35A 		fsubs	s11, s11, s7
 422              		.loc 1 359 0
 423 021a 77EEE34A 		fsubs	s9, s15, s7
 424              		.loc 1 362 0
 425 021e 36EE626A 		fsubs	s12, s12, s5
 426              		.loc 1 365 0
 427 0222 77EEA37A 		fadds	s15, s15, s7
 428              		.loc 1 364 0
 429 0226 76EEE26A 		fsubs	s13, s13, s5
 430              		.loc 1 358 0
 431 022a 73EE453A 		fsubs	s7, s6, s10
 432              		.loc 1 368 0
 433 022e 37EE027A 		fadds	s14, s14, s4
 434 0232 1146     		mov	r1, r2
 435              	.LVL48:
 436 0234 86ED017A 		fsts	s14, [r6, #4]
 437              		.loc 1 343 0
 438 0238 6208     		lsrs	r2, r4, #1
 439              	.LVL49:
 440              		.loc 1 362 0
 441 023a 36EE456A 		fsubs	s12, s12, s10
 442              		.loc 1 378 0
 443 023e 019C     		ldr	r4, [sp, #4]
 444              	.LVL50:
 445              		.loc 1 343 0
 446 0240 0A92     		str	r2, [sp, #40]
 447              		.loc 1 364 0
 448 0242 75EE266A 		fadds	s13, s10, s13
 449              		.loc 1 371 0
 450 0246 8846     		mov	r8, r1
 451              		.loc 1 375 0
 452 0248 BC46     		mov	ip, r7
 453              		.loc 1 359 0
 454 024a 34EE845A 		fadds	s10, s9, s8
ARM GAS  /tmp/ccOp4oY9.s 			page 9


 455              		.loc 1 368 0
 456 024e 3546     		mov	r5, r6
 457              		.loc 1 338 0
 458 0250 3E1F     		subs	r6, r7, #4
 459              	.LVL51:
 460              		.loc 1 371 0
 461 0252 13EE907A 		fmrs	r7, s7
 462              	.LVL52:
 463 0256 8E46     		mov	lr, r1
 464              		.loc 1 361 0
 465 0258 75EEC45A 		fsubs	s11, s11, s8
 466              		.loc 1 371 0
 467 025c 48F8087B 		str	r7, [r8], #8	@ float
 468              		.loc 1 372 0
 469 0260 8EED015A 		fsts	s10, [lr, #4]
 470              		.loc 1 336 0
 471 0264 AEF10407 		sub	r7, lr, #4
 472              	.LVL53:
 473              		.loc 1 378 0
 474 0268 04F1080E 		add	lr, r4, #8
 475              		.loc 1 373 0
 476 026c 0146     		mov	r1, r0
 477              	.LVL54:
 478              		.loc 1 378 0
 479 026e CDF810E0 		str	lr, [sp, #16]
 480              		.loc 1 373 0
 481 0272 15EE90EA 		fmrs	lr, s11
 482 0276 41F808EB 		str	lr, [r1], #8	@ float
 483 027a 0691     		str	r1, [sp, #24]
 484              	.LVL55:
 485              		.loc 1 379 0
 486 027c 0199     		ldr	r1, [sp, #4]
 487              	.LVL56:
 488              		.loc 1 374 0
 489 027e 80ED016A 		fsts	s12, [r0, #4]
 490              	.LVL57:
 491              		.loc 1 379 0
 492 0282 01F1100E 		add	lr, r1, #16
 493 0286 CDF808E0 		str	lr, [sp, #8]
 494              		.loc 1 380 0
 495 028a 01F1180E 		add	lr, r1, #24
 496 028e CDF814E0 		str	lr, [sp, #20]
 497              		.loc 1 365 0
 498 0292 77EEC47A 		fsubs	s15, s15, s8
 499              		.loc 1 382 0
 500 0296 023A     		subs	r2, r2, #2
 501              	.LVL58:
 502              		.loc 1 375 0
 503 0298 16EE90EA 		fmrs	lr, s13
 504              		.loc 1 376 0
 505 029c 009C     		ldr	r4, [sp]
 506              	.LVL59:
 507              		.loc 1 375 0
 508 029e 4CF808EB 		str	lr, [ip], #8	@ float
 509              	.LVL60:
 510              		.loc 1 382 0
 511 02a2 5208     		lsrs	r2, r2, #1
ARM GAS  /tmp/ccOp4oY9.s 			page 10


 512              	.LVL61:
 513              		.loc 1 376 0
 514 02a4 C4ED017A 		fsts	s15, [r4, #4]
 515              		.loc 1 382 0
 516 02a8 0792     		str	r2, [sp, #28]
 517 02aa 00F01C81 		beq	.L9
 518 02ae 0446     		mov	r4, r0
 519              	.LVL62:
 520 02b0 083B     		subs	r3, r3, #8
 521              	.LVL63:
 522 02b2 DDF808A0 		ldr	r10, [sp, #8]
 523 02b6 DDF81CB0 		ldr	fp, [sp, #28]
 524 02ba CDF834C0 		str	ip, [sp, #52]
 525 02be A0F10C02 		sub	r2, r0, #12
 526              	.LVL64:
 527 02c2 01F12009 		add	r9, r1, #32
 528 02c6 01F1300E 		add	lr, r1, #48
 529 02ca 3344     		add	r3, r3, r6
 530              	.LVL65:
 531 02cc 1035     		adds	r5, r5, #16
 532              	.LVL66:
 533 02ce 1034     		adds	r4, r4, #16
 534 02d0 6046     		mov	r0, ip
 535              	.LVL67:
 536 02d2 4146     		mov	r1, r8
 537              	.LVL68:
 538              	.L10:
 539              		.loc 1 385 0 discriminator 3
 540 02d4 14ED027A 		flds	s14, [r4, #-8]
 541 02d8 55ED023A 		flds	s7, [r5, #-8]
 542              		.loc 1 391 0 discriminator 3
 543 02dc D1ED005A 		flds	s11, [r1]
 544 02e0 90ED006A 		flds	s12, [r0]
 545              		.loc 1 387 0 discriminator 3
 546 02e4 54ED016A 		flds	s13, [r4, #-4]
 547 02e8 15ED015A 		flds	s10, [r5, #-4]
 548              		.loc 1 390 0 discriminator 3
 549 02ec D0ED014A 		flds	s9, [r0, #4]
 550 02f0 91ED014A 		flds	s8, [r1, #4]
 551              		.loc 1 385 0 discriminator 3
 552 02f4 33EE870A 		fadds	s0, s7, s14
 553              	.LVL69:
 554              		.loc 1 387 0 discriminator 3
 555 02f8 35EE268A 		fadds	s16, s10, s13
 556              		.loc 1 399 0 discriminator 3
 557 02fc 70EE257A 		fadds	s15, s0, s11
 558              		.loc 1 386 0 discriminator 3
 559 0300 73EEC73A 		fsubs	s7, s7, s14
 560              	.LVL70:
 561              		.loc 1 399 0 discriminator 3
 562 0304 76EE277A 		fadds	s15, s12, s15
 563              		.loc 1 388 0 discriminator 3
 564 0308 35EE665A 		fsubs	s10, s10, s13
 565              	.LVL71:
 566              		.loc 1 399 0 discriminator 3
 567 030c 45ED027A 		fsts	s15, [r5, #-8]
 568              		.loc 1 400 0 discriminator 3
ARM GAS  /tmp/ccOp4oY9.s 			page 11


 569 0310 D1ED017A 		flds	s15, [r1, #4]
 570 0314 90ED017A 		flds	s14, [r0, #4]
 571 0318 78EE277A 		fadds	s15, s16, s15
 572              		.loc 1 391 0 discriminator 3
 573 031c 35EE65AA 		fsubs	s20, s10, s11
 574              		.loc 1 400 0 discriminator 3
 575 0320 77EE877A 		fadds	s15, s15, s14
 576              		.loc 1 391 0 discriminator 3
 577 0324 3AEE06AA 		fadds	s20, s20, s12
 578              		.loc 1 400 0 discriminator 3
 579 0328 45ED017A 		fsts	s15, [r5, #-4]
 580              		.loc 1 405 0 discriminator 3
 581 032c 96ED002A 		flds	s4, [r6]
 582 0330 97ED001A 		flds	s2, [r7]
 583              		.loc 1 408 0 discriminator 3
 584 0334 D2ED027A 		flds	s15, [r2, #8]
 585 0338 93ED027A 		flds	s14, [r3, #8]
 586              		.loc 1 409 0 discriminator 3
 587 033c D3ED012A 		flds	s5, [r3, #4]
 588              		.loc 1 403 0 discriminator 3
 589 0340 56ED011A 		flds	s3, [r6, #-4]
 590              		.loc 1 409 0 discriminator 3
 591 0344 92ED013A 		flds	s6, [r2, #4]
 592              		.loc 1 403 0 discriminator 3
 593 0348 57ED019A 		flds	s19, [r7, #-4]
 594              		.loc 1 405 0 discriminator 3
 595 034c 71EE026A 		fadds	s13, s2, s4
 596              		.loc 1 403 0 discriminator 3
 597 0350 79EEA10A 		fadds	s1, s19, s3
 598              		.loc 1 417 0 discriminator 3
 599 0354 76EEA78A 		fadds	s17, s13, s15
 600              		.loc 1 406 0 discriminator 3
 601 0358 31EE422A 		fsubs	s4, s2, s4
 602              		.loc 1 417 0 discriminator 3
 603 035c 77EE288A 		fadds	s17, s14, s17
 604              		.loc 1 390 0 discriminator 3
 605 0360 74EE23AA 		fadds	s21, s8, s7
 606              		.loc 1 417 0 discriminator 3
 607 0364 18EE90CA 		fmrs	ip, s17
 608 0368 47F808C9 		str	ip, [r7], #-8	@ float
 609              	.LVL72:
 610              		.loc 1 418 0 discriminator 3
 611 036c D2ED018A 		flds	s17, [r2, #4]
 612 0370 93ED019A 		flds	s18, [r3, #4]
 613 0374 70EEA88A 		fadds	s17, s1, s17
 614              		.loc 1 408 0 discriminator 3
 615 0378 37EEC71A 		fsubs	s2, s15, s14
 616              		.loc 1 418 0 discriminator 3
 617 037c 78EE898A 		fadds	s17, s17, s18
 618              		.loc 1 390 0 discriminator 3
 619 0380 7AEEE4AA 		fsubs	s21, s21, s9
 620              	.LVL73:
 621              		.loc 1 418 0 discriminator 3
 622 0384 C7ED018A 		fsts	s17, [r7, #4]
 623              		.loc 1 423 0 discriminator 3
 624 0388 5AED018A 		flds	s17, [r10, #-4]
 625              		.loc 1 404 0 discriminator 3
ARM GAS  /tmp/ccOp4oY9.s 			page 12


 626 038c 79EEE11A 		fsubs	s3, s19, s3
 627              		.loc 1 430 0 discriminator 3
 628 0390 2AEE28CA 		fmuls	s24, s20, s17
 629              		.loc 1 422 0 discriminator 3
 630 0394 5AED029A 		flds	s19, [r10, #-8]
 631              		.loc 1 409 0 discriminator 3
 632 0398 32EE439A 		fsubs	s18, s4, s6
 633              		.loc 1 434 0 discriminator 3
 634 039c AAEEA9CA 		vfma.f32	s24, s21, s19
 635              		.loc 1 382 0 discriminator 3
 636 03a0 BBF1010B 		subs	fp, fp, #1
 637              	.LVL74:
 638 03a4 05F10805 		add	r5, r5, #8
 639              	.LVL75:
 640              		.loc 1 409 0 discriminator 3
 641 03a8 39EE229A 		fadds	s18, s18, s5
 642              		.loc 1 408 0 discriminator 3
 643 03ac 71EE21CA 		fadds	s25, s2, s3
 644 03b0 68EEEABA 		fnmuls	s23, s17, s21
 645 03b4 29EEECBA 		fnmuls	s22, s19, s25
 646              		.loc 1 442 0 discriminator 3
 647 03b8 69EE29AA 		fmuls	s21, s18, s19
 648              	.LVL76:
 649              		.loc 1 444 0 discriminator 3
 650 03bc A9EE28BA 		vfma.f32	s22, s18, s17
 651 03c0 0AF1080A 		add	r10, r10, #8
 652 03c4 A2F10802 		sub	r2, r2, #8
 653              		.loc 1 435 0 discriminator 3
 654 03c8 EAEE29BA 		vfma.f32	s23, s20, s19
 655 03cc 09F11009 		add	r9, r9, #16
 656              	.LVL77:
 657 03d0 04F10804 		add	r4, r4, #8
 658              		.loc 1 434 0 discriminator 3
 659 03d4 1CEE10CA 		fmrs	ip, s24
 660              		.loc 1 445 0 discriminator 3
 661 03d8 ECEEA8AA 		vfma.f32	s21, s25, s17
 662              		.loc 1 434 0 discriminator 3
 663 03dc 41F808CB 		str	ip, [r1], #8	@ float
 664              	.LVL78:
 665              		.loc 1 411 0 discriminator 3
 666 03e0 70EEC30A 		fsubs	s1, s1, s6
 667              		.loc 1 435 0 discriminator 3
 668 03e4 41ED01BA 		fsts	s23, [r1, #-4]
 669              		.loc 1 444 0 discriminator 3
 670 03e8 82ED04BA 		fsts	s22, [r2, #16]
 671              		.loc 1 445 0 discriminator 3
 672 03ec C2ED03AA 		fsts	s21, [r2, #12]
 673              		.loc 1 412 0 discriminator 3
 674 03f0 76EEE76A 		fsubs	s13, s13, s15
 675              		.loc 1 393 0 discriminator 3
 676 03f4 30EE650A 		fsubs	s0, s0, s11
 677              	.LVL79:
 678              		.loc 1 449 0 discriminator 3
 679 03f8 59ED077A 		flds	s15, [r9, #-28]
 680              		.loc 1 448 0 discriminator 3
 681 03fc 59ED088A 		flds	s17, [r9, #-32]
 682              		.loc 1 394 0 discriminator 3
ARM GAS  /tmp/ccOp4oY9.s 			page 13


 683 0400 38EE448A 		fsubs	s16, s16, s8
 684              	.LVL80:
 685              		.loc 1 411 0 discriminator 3
 686 0404 70EEE20A 		fsubs	s1, s1, s5
 687              		.loc 1 412 0 discriminator 3
 688 0408 36EEC77A 		fsubs	s14, s13, s14
 689              		.loc 1 393 0 discriminator 3
 690 040c 30EE460A 		fsubs	s0, s0, s12
 691              	.LVL81:
 692              		.loc 1 394 0 discriminator 3
 693 0410 38EE648A 		fsubs	s16, s16, s9
 694              	.LVL82:
 695 0414 67EEE06A 		fnmuls	s13, s15, s1
 696              		.loc 1 453 0 discriminator 3
 697 0418 68EE279A 		fmuls	s19, s16, s15
 698              		.loc 1 467 0 discriminator 3
 699 041c E7EE686A 		vfms.f32	s13, s14, s17
 700 0420 0EF1180E 		add	lr, lr, #24
 701              	.LVL83:
 702 0424 A3F10803 		sub	r3, r3, #8
 703 0428 27EEC09A 		fnmuls	s18, s15, s0
 704              		.loc 1 457 0 discriminator 3
 705 042c E0EE289A 		vfma.f32	s19, s0, s17
 706              		.loc 1 465 0 discriminator 3
 707 0430 67EE277A 		fmuls	s15, s14, s15
 708              		.loc 1 458 0 discriminator 3
 709 0434 A8EE289A 		vfma.f32	s18, s16, s17
 710              		.loc 1 467 0 discriminator 3
 711 0438 16EE90CA 		fmrs	ip, s13
 712              		.loc 1 468 0 discriminator 3
 713 043c E0EEE87A 		vfms.f32	s15, s1, s17
 714              		.loc 1 457 0 discriminator 3
 715 0440 44ED049A 		fsts	s19, [r4, #-16]
 716              		.loc 1 458 0 discriminator 3
 717 0444 04ED039A 		fsts	s18, [r4, #-12]
 718              		.loc 1 467 0 discriminator 3
 719 0448 46F808C9 		str	ip, [r6], #-8	@ float
 720              	.LVL84:
 721              		.loc 1 397 0 discriminator 3
 722 044c 75EE255A 		fadds	s11, s10, s11
 723              		.loc 1 468 0 discriminator 3
 724 0450 C6ED017A 		fsts	s15, [r6, #4]
 725              		.loc 1 472 0 discriminator 3
 726 0454 5EED0B6A 		flds	s13, [lr, #-44]
 727              		.loc 1 397 0 discriminator 3
 728 0458 35EEC66A 		fsubs	s12, s11, s12
 729              		.loc 1 396 0 discriminator 3
 730 045c 33EEC44A 		fsubs	s8, s7, s8
 731              	.LVL85:
 732              		.loc 1 415 0 discriminator 3
 733 0460 72EEC37A 		fsubs	s15, s5, s6
 734              		.loc 1 471 0 discriminator 3
 735 0464 5EED0C5A 		flds	s11, [lr, #-48]
 736              		.loc 1 396 0 discriminator 3
 737 0468 74EE844A 		fadds	s9, s9, s8
 738              	.LVL86:
 739              		.loc 1 414 0 discriminator 3
ARM GAS  /tmp/ccOp4oY9.s 			page 14


 740 046c 31EE617A 		fsubs	s14, s2, s3
 741              	.LVL87:
 742              		.loc 1 476 0 discriminator 3
 743 0470 66EE263A 		fmuls	s7, s12, s13
 744              		.loc 1 415 0 discriminator 3
 745 0474 77EEC27A 		fsubs	s15, s15, s4
 746              	.LVL88:
 747 0478 26EEE44A 		fnmuls	s8, s13, s9
 748              		.loc 1 480 0 discriminator 3
 749 047c E4EEA53A 		vfma.f32	s7, s9, s11
 750              	.LVL89:
 751 0480 65EEC74A 		fnmuls	s9, s11, s14
 752              	.LVL90:
 753              		.loc 1 488 0 discriminator 3
 754 0484 27EEA55A 		fmuls	s10, s15, s11
 755              		.loc 1 481 0 discriminator 3
 756 0488 A6EE254A 		vfma.f32	s8, s12, s11
 757              		.loc 1 490 0 discriminator 3
 758 048c B0EE646A 		fcpys	s12, s9
 759              	.LVL91:
 760 0490 A7EEA66A 		vfma.f32	s12, s15, s13
 761              		.loc 1 491 0 discriminator 3
 762 0494 F0EE457A 		fcpys	s15, s10
 763              	.LVL92:
 764              		.loc 1 480 0 discriminator 3
 765 0498 13EE90CA 		fmrs	ip, s7
 766              		.loc 1 491 0 discriminator 3
 767 049c E7EE267A 		vfma.f32	s15, s14, s13
 768              		.loc 1 480 0 discriminator 3
 769 04a0 40F808CB 		str	ip, [r0], #8	@ float
 770              	.LVL93:
 771              		.loc 1 481 0 discriminator 3
 772 04a4 00ED014A 		fsts	s8, [r0, #-4]
 773              	.LVL94:
 774              		.loc 1 490 0 discriminator 3
 775 04a8 83ED046A 		fsts	s12, [r3, #16]
 776              	.LVL95:
 777              		.loc 1 491 0 discriminator 3
 778 04ac C3ED037A 		fsts	s15, [r3, #12]
 779              		.loc 1 382 0 discriminator 3
 780 04b0 7FF410AF 		bne	.L10
 781 04b4 0799     		ldr	r1, [sp, #28]
 782              	.LVL96:
 783 04b6 0298     		ldr	r0, [sp, #8]
 784              	.LVL97:
 785 04b8 DDF834C0 		ldr	ip, [sp, #52]
 786 04bc CB00     		lsls	r3, r1, #3
 787 04be 01EB4102 		add	r2, r1, r1, lsl #1
 788 04c2 00EB0111 		add	r1, r0, r1, lsl #4
 789 04c6 0291     		str	r1, [sp, #8]
 790 04c8 0399     		ldr	r1, [sp, #12]
 791 04ca 1944     		add	r1, r1, r3
 792 04cc 0391     		str	r1, [sp, #12]
 793 04ce 0499     		ldr	r1, [sp, #16]
 794 04d0 1944     		add	r1, r1, r3
 795 04d2 0491     		str	r1, [sp, #16]
 796 04d4 0699     		ldr	r1, [sp, #24]
ARM GAS  /tmp/ccOp4oY9.s 			page 15


 797 04d6 9844     		add	r8, r8, r3
 798 04d8 1944     		add	r1, r1, r3
 799 04da 9C44     		add	ip, ip, r3
 800 04dc 059B     		ldr	r3, [sp, #20]
 801 04de 0691     		str	r1, [sp, #24]
 802 04e0 03EBC203 		add	r3, r3, r2, lsl #3
 803 04e4 0593     		str	r3, [sp, #20]
 804              	.LVL98:
 805              	.L9:
 806              		.loc 1 497 0
 807 04e6 039A     		ldr	r2, [sp, #12]
 808 04e8 069E     		ldr	r6, [sp, #24]
 809              	.LVL99:
 810 04ea 92ED003A 		flds	s6, [r2]
 811 04ee D6ED006A 		flds	s13, [r6]
 812              		.loc 1 504 0
 813 04f2 D8ED007A 		flds	s15, [r8]
 814 04f6 9CED004A 		flds	s8, [ip]
 815              		.loc 1 499 0
 816 04fa 96ED017A 		flds	s14, [r6, #4]
 817 04fe D2ED013A 		flds	s7, [r2, #4]
 818              		.loc 1 503 0
 819 0502 D8ED012A 		flds	s5, [r8, #4]
 820 0506 DCED014A 		flds	s9, [ip, #4]
 821              		.loc 1 528 0
 822 050a 029D     		ldr	r5, [sp, #8]
 823              		.loc 1 550 0
 824 050c BDF82840 		ldrh	r4, [sp, #40]
 825 0510 0C98     		ldr	r0, [sp, #48]
 826              		.loc 1 497 0
 827 0512 73EE265A 		fadds	s11, s6, s13
 828              	.LVL100:
 829              		.loc 1 499 0
 830 0516 33EE876A 		fadds	s12, s7, s14
 831              		.loc 1 512 0
 832 051a 35EEA75A 		fadds	s10, s11, s15
 833              		.loc 1 498 0
 834 051e 73EE666A 		fsubs	s13, s6, s13
 835              	.LVL101:
 836              		.loc 1 512 0
 837 0522 34EE055A 		fadds	s10, s8, s10
 838              		.loc 1 500 0
 839 0526 33EEC77A 		fsubs	s14, s7, s14
 840              	.LVL102:
 841              		.loc 1 512 0
 842 052a 82ED005A 		fsts	s10, [r2]
 843              		.loc 1 513 0
 844 052e 98ED015A 		flds	s10, [r8, #4]
 845 0532 9CED013A 		flds	s6, [ip, #4]
 846 0536 36EE055A 		fadds	s10, s12, s10
 847              		.loc 1 504 0
 848 053a 77EE673A 		fsubs	s7, s14, s15
 849              		.loc 1 513 0
 850 053e 35EE035A 		fadds	s10, s10, s6
 851              		.loc 1 503 0
 852 0542 32EEA63A 		fadds	s6, s5, s13
 853              		.loc 1 513 0
ARM GAS  /tmp/ccOp4oY9.s 			page 16


 854 0546 82ED015A 		fsts	s10, [r2, #4]
 855              		.loc 1 517 0
 856 054a 049A     		ldr	r2, [sp, #16]
 857              		.loc 1 504 0
 858 054c 73EE843A 		fadds	s7, s7, s8
 859              		.loc 1 517 0
 860 0550 92ED015A 		flds	s10, [r2, #4]
 861              		.loc 1 516 0
 862 0554 D2ED001A 		flds	s3, [r2]
 863              		.loc 1 550 0
 864 0558 019A     		ldr	r2, [sp, #4]
 865              		.loc 1 503 0
 866 055a 33EE643A 		fsubs	s6, s6, s9
 867              	.LVL103:
 868              		.loc 1 520 0
 869 055e 23EE852A 		fmuls	s4, s7, s10
 870 0562 25EE435A 		fnmuls	s10, s10, s6
 871              		.loc 1 524 0
 872 0566 A3EE212A 		vfma.f32	s4, s6, s3
 873              		.loc 1 550 0
 874 056a 2146     		mov	r1, r4
 875 056c 0423     		movs	r3, #4
 876              		.loc 1 525 0
 877 056e A3EEA15A 		vfma.f32	s10, s7, s3
 878              		.loc 1 507 0
 879 0572 36EE626A 		fsubs	s12, s12, s5
 880              	.LVL104:
 881              		.loc 1 506 0
 882 0576 75EEE75A 		fsubs	s11, s11, s15
 883              	.LVL105:
 884              		.loc 1 524 0
 885 057a 88ED002A 		fsts	s4, [r8]
 886              		.loc 1 525 0
 887 057e 88ED015A 		fsts	s10, [r8, #4]
 888              		.loc 1 506 0
 889 0582 75EEC45A 		fsubs	s11, s11, s8
 890              	.LVL106:
 891              		.loc 1 507 0
 892 0586 36EE646A 		fsubs	s12, s12, s9
 893              	.LVL107:
 894              		.loc 1 528 0
 895 058a 95ED015A 		flds	s10, [r5, #4]
 896              		.loc 1 527 0
 897 058e 95ED003A 		flds	s6, [r5]
 898              	.LVL108:
 899              		.loc 1 531 0
 900 0592 66EE053A 		fmuls	s7, s12, s10
 901              	.LVL109:
 902 0596 25EE655A 		fnmuls	s10, s10, s11
 903              		.loc 1 535 0
 904 059a E5EE833A 		vfma.f32	s7, s11, s6
 905 059e 3546     		mov	r5, r6
 906              		.loc 1 536 0
 907 05a0 A6EE035A 		vfma.f32	s10, s12, s6
 908              		.loc 1 535 0
 909 05a4 C5ED003A 		fsts	s7, [r5]
 910              		.loc 1 509 0
ARM GAS  /tmp/ccOp4oY9.s 			page 17


 911 05a8 76EEE26A 		fsubs	s13, s13, s5
 912              	.LVL110:
 913              		.loc 1 536 0
 914 05ac 86ED015A 		fsts	s10, [r6, #4]
 915              		.loc 1 510 0
 916 05b0 37EE277A 		fadds	s14, s14, s15
 917              	.LVL111:
 918              		.loc 1 539 0
 919 05b4 059E     		ldr	r6, [sp, #20]
 920              		.loc 1 510 0
 921 05b6 77EE447A 		fsubs	s15, s14, s8
 922              		.loc 1 509 0
 923 05ba 74EEA66A 		fadds	s13, s9, s13
 924              	.LVL112:
 925              		.loc 1 539 0
 926 05be 96ED017A 		flds	s14, [r6, #4]
 927              		.loc 1 538 0
 928 05c2 D6ED005A 		flds	s11, [r6]
 929              	.LVL113:
 930              		.loc 1 542 0
 931 05c6 27EE876A 		fmuls	s12, s15, s14
 932              	.LVL114:
 933 05ca 27EE667A 		fnmuls	s14, s14, s13
 934              	.LVL115:
 935              		.loc 1 546 0
 936 05ce A6EEA56A 		vfma.f32	s12, s13, s11
 937              	.LVL116:
 938              		.loc 1 547 0
 939 05d2 A7EEA57A 		vfma.f32	s14, s15, s11
 940              		.loc 1 546 0
 941 05d6 8CED006A 		fsts	s12, [ip]
 942              	.LVL117:
 943              		.loc 1 547 0
 944 05da 8CED017A 		fsts	s14, [ip, #4]
 945              		.loc 1 550 0
 946 05de FFF7FEFF 		bl	arm_radix8_butterfly_f32
 947              	.LVL118:
 948              		.loc 1 552 0
 949 05e2 0B9D     		ldr	r5, [sp, #44]
 950              	.LVL119:
 951 05e4 0898     		ldr	r0, [sp, #32]
 952 05e6 6A68     		ldr	r2, [r5, #4]
 953 05e8 2146     		mov	r1, r4
 954 05ea 0423     		movs	r3, #4
 955 05ec FFF7FEFF 		bl	arm_radix8_butterfly_f32
 956              	.LVL120:
 957              		.loc 1 554 0
 958 05f0 0998     		ldr	r0, [sp, #36]
 959 05f2 6A68     		ldr	r2, [r5, #4]
 960 05f4 2146     		mov	r1, r4
 961 05f6 0423     		movs	r3, #4
 962 05f8 FFF7FEFF 		bl	arm_radix8_butterfly_f32
 963              	.LVL121:
 964              		.loc 1 556 0
 965 05fc 0098     		ldr	r0, [sp]
 966 05fe 6A68     		ldr	r2, [r5, #4]
 967 0600 2146     		mov	r1, r4
ARM GAS  /tmp/ccOp4oY9.s 			page 18


 968 0602 0423     		movs	r3, #4
 969              		.loc 1 557 0
 970 0604 0FB0     		add	sp, sp, #60
 971              		.cfi_def_cfa_offset 76
 972              	.LVL122:
 973              		@ sp needed
 974 0606 BDEC0A8B 		fldmfdd	sp!, {d8-d12}
 975              		.cfi_restore 88
 976              		.cfi_restore 89
 977              		.cfi_restore 86
 978              		.cfi_restore 87
 979              		.cfi_restore 84
 980              		.cfi_restore 85
 981              		.cfi_restore 82
 982              		.cfi_restore 83
 983              		.cfi_restore 80
 984              		.cfi_restore 81
 985              		.cfi_def_cfa_offset 36
 986 060a BDE8F04F 		pop	{r4, r5, r6, r7, r8, r9, r10, fp, lr}
 987              		.cfi_restore 14
 988              		.cfi_restore 11
 989              		.cfi_restore 10
 990              		.cfi_restore 9
 991              		.cfi_restore 8
 992              		.cfi_restore 7
 993              		.cfi_restore 6
 994              		.cfi_restore 5
 995              		.cfi_restore 4
 996              		.cfi_def_cfa_offset 0
 997              	.LVL123:
 998              		.loc 1 556 0
 999 060e FFF7FEBF 		b	arm_radix8_butterfly_f32
 1000              	.LVL124:
 1001              		.cfi_endproc
 1002              	.LFE136:
 1003              		.size	arm_cfft_radix8by4_f32, .-arm_cfft_radix8by4_f32
 1004 0612 00BF     		.align	2
 1005 0614 AFF30080 		.p2align 4,,15
 1005      AFF30080 
 1005      AFF30080 
 1006              		.global	arm_cfft_f32
 1007              		.thumb
 1008              		.thumb_func
 1009              		.type	arm_cfft_f32, %function
 1010              	arm_cfft_f32:
 1011              	.LFB137:
 1012              		.loc 1 579 0
 1013              		.cfi_startproc
 1014              		@ args = 0, pretend = 0, frame = 0
 1015              		@ frame_needed = 0, uses_anonymous_args = 0
 1016              	.LVL125:
 1017              		.loc 1 583 0
 1018 0620 012A     		cmp	r2, #1
 1019              		.loc 1 579 0
 1020 0622 2DE9F041 		push	{r4, r5, r6, r7, r8, lr}
 1021              		.cfi_def_cfa_offset 24
 1022              		.cfi_offset 4, -24
ARM GAS  /tmp/ccOp4oY9.s 			page 19


 1023              		.cfi_offset 5, -20
 1024              		.cfi_offset 6, -16
 1025              		.cfi_offset 7, -12
 1026              		.cfi_offset 8, -8
 1027              		.cfi_offset 14, -4
 1028              		.loc 1 579 0
 1029 0626 0646     		mov	r6, r0
 1030 0628 1746     		mov	r7, r2
 1031 062a 0C46     		mov	r4, r1
 1032 062c 9846     		mov	r8, r3
 1033              		.loc 1 580 0
 1034 062e 0588     		ldrh	r5, [r0]
 1035              	.LVL126:
 1036              		.loc 1 583 0
 1037 0630 54D0     		beq	.L17
 1038              	.LVL127:
 1039              	.L25:
 1040              		.loc 1 594 0
 1041 0632 B5F5807F 		cmp	r5, #256
 1042 0636 4CD0     		beq	.L19
 1043 0638 16D9     		bls	.L70
 1044              	.L20:
 1045 063a B5F5806F 		cmp	r5, #1024
 1046 063e 1AD0     		beq	.L22
 1047 0640 5CD9     		bls	.L71
 1048 0642 B5F5006F 		cmp	r5, #2048
 1049 0646 44D0     		beq	.L19
 1050 0648 B5F5805F 		cmp	r5, #4096
 1051 064c 05D1     		bne	.L18
 1052              	.L23:
 1053              		.loc 1 609 0
 1054 064e 2046     		mov	r0, r4
 1055              	.LVL128:
 1056 0650 2946     		mov	r1, r5
 1057              	.LVL129:
 1058 0652 7268     		ldr	r2, [r6, #4]
 1059 0654 0123     		movs	r3, #1
 1060 0656 FFF7FEFF 		bl	arm_radix8_butterfly_f32
 1061              	.LVL130:
 1062              	.L18:
 1063              		.loc 1 613 0
 1064 065a B8F1000F 		cmp	r8, #0
 1065 065e 11D1     		bne	.L72
 1066              	.L27:
 1067              		.loc 1 616 0
 1068 0660 012F     		cmp	r7, #1
 1069 0662 16D0     		beq	.L73
 1070              	.L16:
 1071 0664 BDE8F081 		pop	{r4, r5, r6, r7, r8, pc}
 1072              	.LVL131:
 1073              	.L70:
 1074              		.loc 1 594 0
 1075 0668 202D     		cmp	r5, #32
 1076 066a 32D0     		beq	.L19
 1077 066c 4AD9     		bls	.L74
 1078 066e 402D     		cmp	r5, #64
 1079 0670 EDD0     		beq	.L23
ARM GAS  /tmp/ccOp4oY9.s 			page 20


 1080 0672 802D     		cmp	r5, #128
 1081 0674 F1D1     		bne	.L18
 1082              	.L22:
 1083              		.loc 1 599 0
 1084 0676 3046     		mov	r0, r6
 1085              	.LVL132:
 1086 0678 2146     		mov	r1, r4
 1087              	.LVL133:
 1088 067a FFF7FEFF 		bl	arm_cfft_radix8by2_f32
 1089              	.LVL134:
 1090              		.loc 1 613 0
 1091 067e B8F1000F 		cmp	r8, #0
 1092 0682 EDD0     		beq	.L27
 1093              	.L72:
 1094              		.loc 1 614 0
 1095 0684 2046     		mov	r0, r4
 1096 0686 B189     		ldrh	r1, [r6, #12]
 1097 0688 B268     		ldr	r2, [r6, #8]
 1098 068a FFF7FEFF 		bl	arm_bitreversal_32
 1099              	.LVL135:
 1100              		.loc 1 616 0
 1101 068e 012F     		cmp	r7, #1
 1102 0690 E8D1     		bne	.L16
 1103              	.L73:
 1104              		.loc 1 618 0
 1105 0692 07EE905A 		fmsr	s15, r5	@ int
 1106 0696 F8EE676A 		fuitos	s13, s15
 1107 069a F7EE007A 		fconsts	s15, #112
 1108 069e C7EEA66A 		fdivs	s13, s15, s13
 1109              	.LVL136:
 1110              		.loc 1 621 0
 1111 06a2 002D     		cmp	r5, #0
 1112 06a4 DED0     		beq	.L16
 1113 06a6 04F10801 		add	r1, r4, #8
 1114 06aa 0023     		movs	r3, #0
 1115              	.LVL137:
 1116              	.L30:
 1117              		.loc 1 621 0 is_stmt 0 discriminator 3
 1118 06ac 0133     		adds	r3, r3, #1
 1119              	.LVL138:
 1120 06ae 9D42     		cmp	r5, r3
 1121 06b0 01F10801 		add	r1, r1, #8
 1122              	.LVL139:
 1123              		.loc 1 623 0 is_stmt 1 discriminator 3
 1124 06b4 11ED047A 		flds	s14, [r1, #-16]
 1125              		.loc 1 624 0 discriminator 3
 1126 06b8 51ED037A 		flds	s15, [r1, #-12]
 1127              		.loc 1 623 0 discriminator 3
 1128 06bc 27EE267A 		fmuls	s14, s14, s13
 1129              		.loc 1 624 0 discriminator 3
 1130 06c0 67EEE67A 		fnmuls	s15, s15, s13
 1131              		.loc 1 623 0 discriminator 3
 1132 06c4 01ED047A 		fsts	s14, [r1, #-16]
 1133              		.loc 1 624 0 discriminator 3
 1134 06c8 41ED037A 		fsts	s15, [r1, #-12]
 1135              	.LVL140:
 1136              		.loc 1 621 0 discriminator 3
ARM GAS  /tmp/ccOp4oY9.s 			page 21


 1137 06cc EED1     		bne	.L30
 1138 06ce BDE8F081 		pop	{r4, r5, r6, r7, r8, pc}
 1139              	.LVL141:
 1140              	.L19:
 1141              		.loc 1 604 0
 1142 06d2 3046     		mov	r0, r6
 1143              	.LVL142:
 1144 06d4 2146     		mov	r1, r4
 1145              	.LVL143:
 1146 06d6 FFF7FEFF 		bl	arm_cfft_radix8by4_f32
 1147              	.LVL144:
 1148              		.loc 1 605 0
 1149 06da BEE7     		b	.L18
 1150              	.LVL145:
 1151              	.L17:
 1152              		.loc 1 587 0
 1153 06dc ADB1     		cbz	r5, .L75
 1154 06de 01F10C03 		add	r3, r1, #12
 1155              	.LVL146:
 1156 06e2 0022     		movs	r2, #0
 1157              	.LVL147:
 1158              	.L26:
 1159              		.loc 1 589 0 discriminator 3
 1160 06e4 53ED027A 		flds	s15, [r3, #-8]
 1161              		.loc 1 587 0 discriminator 3
 1162 06e8 0132     		adds	r2, r2, #1
 1163              	.LVL148:
 1164              		.loc 1 589 0 discriminator 3
 1165 06ea F1EE677A 		fnegs	s15, s15
 1166              		.loc 1 587 0 discriminator 3
 1167 06ee 9542     		cmp	r5, r2
 1168              		.loc 1 589 0 discriminator 3
 1169 06f0 43ED027A 		fsts	s15, [r3, #-8]
 1170              	.LVL149:
 1171 06f4 03F10803 		add	r3, r3, #8
 1172              	.LVL150:
 1173              		.loc 1 587 0 discriminator 3
 1174 06f8 F4D1     		bne	.L26
 1175 06fa 9AE7     		b	.L25
 1176              	.LVL151:
 1177              	.L71:
 1178              		.loc 1 594 0
 1179 06fc B5F5007F 		cmp	r5, #512
 1180 0700 A5D0     		beq	.L23
 1181 0702 AAE7     		b	.L18
 1182              	.L74:
 1183 0704 102D     		cmp	r5, #16
 1184 0706 B6D0     		beq	.L22
 1185 0708 A7E7     		b	.L18
 1186              	.LVL152:
 1187              	.L75:
 1188 070a B5F5807F 		cmp	r5, #256
 1189 070e 94D8     		bhi	.L20
 1190 0710 AAE7     		b	.L70
 1191              		.cfi_endproc
 1192              	.LFE137:
 1193              		.size	arm_cfft_f32, .-arm_cfft_f32
ARM GAS  /tmp/ccOp4oY9.s 			page 22


 1194              	.Letext0:
 1195              		.file 2 "/home/sbcu/Dropbox/pcb-layouts/axo-on-discovery-board/axoloti/platform_linux/arm-none-eab
 1196              		.file 3 "/home/sbcu/Dropbox/pcb-layouts/axo-on-discovery-board/axoloti/platform_linux/arm-none-eab
 1197              		.file 4 "/home/sbcu/Dropbox/pcb-layouts/axo-on-discovery-board/axoloti/platform_linux/../CMSIS//DS