ARM GAS  /tmp/cccdQp3d.s 			page 1


   1              		.syntax unified
   2              		.cpu cortex-m4
   3              		.eabi_attribute 27, 1
   4              		.eabi_attribute 28, 1
   5              		.fpu fpv4-sp-d16
   6              		.eabi_attribute 20, 1
   7              		.eabi_attribute 21, 1
   8              		.eabi_attribute 23, 3
   9              		.eabi_attribute 24, 1
  10              		.eabi_attribute 25, 1
  11              		.eabi_attribute 26, 1
  12              		.eabi_attribute 30, 2
  13              		.eabi_attribute 34, 1
  14              		.eabi_attribute 18, 4
  15              		.thumb
  16              		.file	"arm_cfft_radix2_f32.c"
  17              		.text
  18              	.Ltext0:
  19              		.cfi_sections	.debug_frame
  20              		.align	2
  21              		.p2align 4,,15
  22              		.global	arm_radix2_butterfly_f32
  23              		.thumb
  24              		.thumb_func
  25              		.type	arm_radix2_butterfly_f32, %function
  26              	arm_radix2_butterfly_f32:
  27              	.LFB136:
  28              		.file 1 "/d_drive/axoloti/platform_linux/../CMSIS//DSP_Lib/Source/TransformFunctions/arm_cfft_radi
  29              		.loc 1 133 0
  30              		.cfi_startproc
  31              		@ args = 0, pretend = 0, frame = 16
  32              		@ frame_needed = 0, uses_anonymous_args = 0
  33              	.LVL0:
  34 0000 2DE9F04F 		push	{r4, r5, r6, r7, r8, r9, r10, fp, lr}
  35              		.cfi_def_cfa_offset 36
  36              		.cfi_offset 4, -36
  37              		.cfi_offset 5, -32
  38              		.cfi_offset 6, -28
  39              		.cfi_offset 7, -24
  40              		.cfi_offset 8, -20
  41              		.cfi_offset 9, -16
  42              		.cfi_offset 10, -12
  43              		.cfi_offset 11, -8
  44              		.cfi_offset 14, -4
  45 0004 85B0     		sub	sp, sp, #20
  46              		.cfi_def_cfa_offset 56
  47              		.loc 1 149 0
  48 0006 4E08     		lsrs	r6, r1, #1
  49              	.LVL1:
  50              		.loc 1 133 0
  51 0008 0290     		str	r0, [sp, #8]
  52 000a 0392     		str	r2, [sp, #12]
  53              		.loc 1 149 0
  54 000c 00F08B80 		beq	.L19
  55 0010 029C     		ldr	r4, [sp, #8]
  56 0012 F500     		lsls	r5, r6, #3
  57 0014 281D     		adds	r0, r5, #4
ARM GAS  /tmp/cccdQp3d.s 			page 2


  58              	.LVL2:
  59 0016 04EB050C 		add	ip, r4, r5
  60 001a 2246     		mov	r2, r4
  61              	.LVL3:
  62 001c 2044     		add	r0, r0, r4
  63 001e 271D     		adds	r7, r4, #4
  64 0020 039C     		ldr	r4, [sp, #12]
  65              	.LVL4:
  66 0022 E646     		mov	lr, ip
  67 0024 4FEAC308 		lsl	r8, r3, #3
  68              	.LVL5:
  69              	.L5:
  70              		.loc 1 165 0 discriminator 3
  71 0028 92ED017A 		flds	s14, [r2, #4]
  72              		.loc 1 162 0 discriminator 3
  73 002c 17ED016A 		flds	s12, [r7, #-4]
  74 0030 50ED016A 		flds	s13, [r0, #-4]
  75              		.loc 1 165 0 discriminator 3
  76 0034 DEED017A 		flds	s15, [lr, #4]
  77              		.loc 1 152 0 discriminator 3
  78 0038 D4ED015A 		flds	s11, [r4, #4]
  79              		.loc 1 151 0 discriminator 3
  80 003c D4ED004A 		flds	s9, [r4]
  81              	.LVL6:
  82              		.loc 1 163 0 discriminator 3
  83 0040 36EE664A 		fsubs	s8, s12, s13
  84              	.LVL7:
  85              		.loc 1 165 0 discriminator 3
  86 0044 77EE673A 		fsubs	s7, s14, s15
  87              	.LVL8:
  88 0048 25EEC45A 		fnmuls	s10, s11, s8
  89              		.loc 1 169 0 discriminator 3
  90 004c 63EEA55A 		fmuls	s11, s7, s11
  91              	.LVL9:
  92              		.loc 1 177 0 discriminator 3
  93 0050 A3EEA45A 		vfma.f32	s10, s7, s9
  94 0054 0832     		adds	r2, r2, #8
  95 0056 4444     		add	r4, r4, r8
  96              	.LVL10:
  97              		.loc 1 176 0 discriminator 3
  98 0058 E4EE245A 		vfma.f32	s11, s8, s9
  99              	.LVL11:
 100 005c 0837     		adds	r7, r7, #8
 101 005e 0830     		adds	r0, r0, #8
 102              		.loc 1 162 0 discriminator 3
 103 0060 76EE266A 		fadds	s13, s12, s13
 104              	.LVL12:
 105              		.loc 1 166 0 discriminator 3
 106 0064 77EE277A 		fadds	s15, s14, s15
 107              	.LVL13:
 108              		.loc 1 173 0 discriminator 3
 109 0068 47ED036A 		fsts	s13, [r7, #-12]
 110              		.loc 1 174 0 discriminator 3
 111 006c 42ED017A 		fsts	s15, [r2, #-4]
 112              		.loc 1 149 0 discriminator 3
 113 0070 9445     		cmp	ip, r2
 114              		.loc 1 176 0 discriminator 3
ARM GAS  /tmp/cccdQp3d.s 			page 3


 115 0072 40ED035A 		fsts	s11, [r0, #-12]
 116 0076 0EF1080E 		add	lr, lr, #8
 117              		.loc 1 177 0 discriminator 3
 118 007a 0EED015A 		fsts	s10, [lr, #-4]
 119              		.loc 1 149 0 discriminator 3
 120 007e D3D1     		bne	.L5
 121              		.loc 1 182 0
 122 0080 5B00     		lsls	r3, r3, #1
 123              	.LVL14:
 124              		.loc 1 185 0
 125 0082 022E     		cmp	r6, #2
 126              		.loc 1 182 0
 127 0084 1FFA83FB 		uxth	fp, r3
 128              	.LVL15:
 129              		.loc 1 185 0
 130 0088 4ED9     		bls	.L3
 131 008a 0196     		str	r6, [sp, #4]
 132              	.LVL16:
 133              	.L9:
 134              		.loc 1 188 0
 135 008c 4FEA5608 		lsr	r8, r6, #1
 136              	.LVL17:
 137 0090 029F     		ldr	r7, [sp, #8]
 138 0092 DDF80CC0 		ldr	ip, [sp, #12]
 139 0096 4FEAC80A 		lsl	r10, r8, #3
 140 009a 4FEACB09 		lsl	r9, fp, #3
 141              		.loc 1 192 0
 142 009e 4FF0000E 		mov	lr, #0
 143              	.LVL18:
 144              	.L8:
 145              		.loc 1 195 0
 146 00a2 9CED003A 		flds	s6, [ip]
 147              	.LVL19:
 148              		.loc 1 196 0
 149 00a6 DCED013A 		flds	s7, [ip, #4]
 150              	.LVL20:
 151 00aa 07EB0A03 		add	r3, r7, r10
 152 00ae 381D     		adds	r0, r7, #4
 153 00b0 3A46     		mov	r2, r7
 154              		.loc 1 200 0
 155 00b2 7446     		mov	r4, lr
 156              	.LVL21:
 157              	.L7:
 158              		.loc 1 204 0 discriminator 1
 159 00b4 10ED016A 		flds	s12, [r0, #-4]
 160              		.loc 1 207 0 discriminator 1
 161 00b8 92ED017A 		flds	s14, [r2, #4]
 162              		.loc 1 204 0 discriminator 1
 163 00bc D3ED006A 		flds	s13, [r3]
 164              	.LVL22:
 165              		.loc 1 207 0 discriminator 1
 166 00c0 D3ED017A 		flds	s15, [r3, #4]
 167              	.LVL23:
 168              		.loc 1 205 0 discriminator 1
 169 00c4 76EE664A 		fsubs	s9, s12, s13
 170              	.LVL24:
 171              		.loc 1 207 0 discriminator 1
ARM GAS  /tmp/cccdQp3d.s 			page 4


 172 00c8 37EE674A 		fsubs	s8, s14, s15
 173              	.LVL25:
 174 00cc 63EEE45A 		fnmuls	s11, s7, s9
 175              		.loc 1 211 0 discriminator 1
 176 00d0 24EE235A 		fmuls	s10, s8, s7
 177              	.LVL26:
 178              		.loc 1 219 0 discriminator 1
 179 00d4 E4EE035A 		vfma.f32	s11, s8, s6
 180              		.loc 1 221 0 discriminator 1
 181 00d8 3444     		add	r4, r4, r6
 182              	.LVL27:
 183              		.loc 1 222 0 discriminator 1
 184 00da A142     		cmp	r1, r4
 185              		.loc 1 218 0 discriminator 1
 186 00dc A4EE835A 		vfma.f32	s10, s9, s6
 187              	.LVL28:
 188              		.loc 1 204 0 discriminator 1
 189 00e0 76EE266A 		fadds	s13, s12, s13
 190              	.LVL29:
 191              		.loc 1 208 0 discriminator 1
 192 00e4 77EE277A 		fadds	s15, s14, s15
 193              	.LVL30:
 194              		.loc 1 215 0 discriminator 1
 195 00e8 40ED016A 		fsts	s13, [r0, #-4]
 196              		.loc 1 216 0 discriminator 1
 197 00ec C2ED017A 		fsts	s15, [r2, #4]
 198 00f0 2844     		add	r0, r0, r5
 199              		.loc 1 218 0 discriminator 1
 200 00f2 83ED005A 		fsts	s10, [r3]
 201              		.loc 1 219 0 discriminator 1
 202 00f6 C3ED015A 		fsts	s11, [r3, #4]
 203 00fa 2A44     		add	r2, r2, r5
 204 00fc 2B44     		add	r3, r3, r5
 205              		.loc 1 222 0 discriminator 1
 206 00fe D9D8     		bhi	.L7
 207              		.loc 1 223 0
 208 0100 0EF1010E 		add	lr, lr, #1
 209              	.LVL31:
 210              		.loc 1 224 0
 211 0104 F045     		cmp	r8, lr
 212 0106 CC44     		add	ip, ip, r9
 213 0108 07F10807 		add	r7, r7, #8
 214 010c C9D8     		bhi	.L8
 215              		.loc 1 185 0 discriminator 2
 216 010e 019B     		ldr	r3, [sp, #4]
 217 0110 5B08     		lsrs	r3, r3, #1
 218              		.loc 1 225 0 discriminator 2
 219 0112 4FEA4B0B 		lsl	fp, fp, #1
 220              	.LVL32:
 221              		.loc 1 185 0 discriminator 2
 222 0116 022B     		cmp	r3, #2
 223 0118 0193     		str	r3, [sp, #4]
 224              	.LVL33:
 225              		.loc 1 225 0 discriminator 2
 226 011a 1FFA8BFB 		uxth	fp, fp
 227              	.LVL34:
 228 011e 4646     		mov	r6, r8
ARM GAS  /tmp/cccdQp3d.s 			page 5


 229              	.LVL35:
 230              		.loc 1 185 0 discriminator 2
 231 0120 02D9     		bls	.L3
 232              	.LVL36:
 233 0122 F500     		lsls	r5, r6, #3
 234 0124 B2E7     		b	.L9
 235              	.LVL37:
 236              	.L19:
 237              		.loc 1 229 0
 238 0126 11B3     		cbz	r1, .L1
 239              	.LVL38:
 240              	.L3:
 241 0128 029B     		ldr	r3, [sp, #8]
 242              		.loc 1 200 0
 243 012a 0020     		movs	r0, #0
 244 012c 03F10802 		add	r2, r3, #8
 245              	.LVL39:
 246              	.L10:
 247              		.loc 1 231 0 discriminator 3
 248 0130 12ED026A 		flds	s12, [r2, #-8]
 249 0134 D3ED026A 		flds	s13, [r3, #8]
 250              	.LVL40:
 251              		.loc 1 234 0 discriminator 3
 252 0138 93ED017A 		flds	s14, [r3, #4]
 253 013c D3ED037A 		flds	s15, [r3, #12]
 254              	.LVL41:
 255              		.loc 1 231 0 discriminator 3
 256 0140 76EE265A 		fadds	s11, s12, s13
 257              	.LVL42:
 258              		.loc 1 229 0 discriminator 3
 259 0144 0230     		adds	r0, r0, #2
 260              	.LVL43:
 261              		.loc 1 232 0 discriminator 3
 262 0146 76EE666A 		fsubs	s13, s12, s13
 263              	.LVL44:
 264              		.loc 1 235 0 discriminator 3
 265 014a 37EE276A 		fadds	s12, s14, s15
 266              	.LVL45:
 267              		.loc 1 234 0 discriminator 3
 268 014e 77EE677A 		fsubs	s15, s14, s15
 269              	.LVL46:
 270              		.loc 1 229 0 discriminator 3
 271 0152 8142     		cmp	r1, r0
 272              		.loc 1 237 0 discriminator 3
 273 0154 42ED025A 		fsts	s11, [r2, #-8]
 274 0158 03F11003 		add	r3, r3, #16
 275              		.loc 1 239 0 discriminator 3
 276 015c 43ED026A 		fsts	s13, [r3, #-8]
 277              		.loc 1 238 0 discriminator 3
 278 0160 03ED036A 		fsts	s12, [r3, #-12]
 279              		.loc 1 240 0 discriminator 3
 280 0164 43ED017A 		fsts	s15, [r3, #-4]
 281 0168 02F11002 		add	r2, r2, #16
 282              		.loc 1 229 0 discriminator 3
 283 016c E0D8     		bhi	.L10
 284              	.LVL47:
 285              	.L1:
ARM GAS  /tmp/cccdQp3d.s 			page 6


 286              		.loc 1 293 0
 287 016e 05B0     		add	sp, sp, #20
 288              		.cfi_def_cfa_offset 36
 289              		@ sp needed
 290 0170 BDE8F08F 		pop	{r4, r5, r6, r7, r8, r9, r10, fp, pc}
 291              		.cfi_endproc
 292              	.LFE136:
 293              		.size	arm_radix2_butterfly_f32, .-arm_radix2_butterfly_f32
 294              		.align	2
 295 0174 AFF30080 		.p2align 4,,15
 295      AFF30080 
 295      AFF30080 
 296              		.global	arm_radix2_butterfly_inverse_f32
 297              		.thumb
 298              		.thumb_func
 299              		.type	arm_radix2_butterfly_inverse_f32, %function
 300              	arm_radix2_butterfly_inverse_f32:
 301              	.LFB137:
 302              		.loc 1 302 0
 303              		.cfi_startproc
 304              		@ args = 0, pretend = 0, frame = 16
 305              		@ frame_needed = 0, uses_anonymous_args = 0
 306              	.LVL48:
 307 0180 2DE9F04F 		push	{r4, r5, r6, r7, r8, r9, r10, fp, lr}
 308              		.cfi_def_cfa_offset 36
 309              		.cfi_offset 4, -36
 310              		.cfi_offset 5, -32
 311              		.cfi_offset 6, -28
 312              		.cfi_offset 7, -24
 313              		.cfi_offset 8, -20
 314              		.cfi_offset 9, -16
 315              		.cfi_offset 10, -12
 316              		.cfi_offset 11, -8
 317              		.cfi_offset 14, -4
 318 0184 85B0     		sub	sp, sp, #20
 319              		.cfi_def_cfa_offset 56
 320              		.loc 1 316 0
 321 0186 4E08     		lsrs	r6, r1, #1
 322              	.LVL49:
 323              		.loc 1 302 0
 324 0188 0290     		str	r0, [sp, #8]
 325 018a 0392     		str	r2, [sp, #12]
 326              		.loc 1 316 0
 327 018c 00F08B80 		beq	.L37
 328 0190 029C     		ldr	r4, [sp, #8]
 329 0192 F500     		lsls	r5, r6, #3
 330 0194 281D     		adds	r0, r5, #4
 331              	.LVL50:
 332 0196 04EB050C 		add	ip, r4, r5
 333 019a 2246     		mov	r2, r4
 334              	.LVL51:
 335 019c 2044     		add	r0, r0, r4
 336 019e 271D     		adds	r7, r4, #4
 337 01a0 039C     		ldr	r4, [sp, #12]
 338              	.LVL52:
 339 01a2 E646     		mov	lr, ip
 340 01a4 4FEAC308 		lsl	r8, r3, #3
ARM GAS  /tmp/cccdQp3d.s 			page 7


 341              	.LVL53:
 342              	.L24:
 343              		.loc 1 326 0 discriminator 3
 344 01a8 92ED017A 		flds	s14, [r2, #4]
 345              		.loc 1 323 0 discriminator 3
 346 01ac 17ED016A 		flds	s12, [r7, #-4]
 347 01b0 50ED016A 		flds	s13, [r0, #-4]
 348              		.loc 1 326 0 discriminator 3
 349 01b4 DEED017A 		flds	s15, [lr, #4]
 350              		.loc 1 319 0 discriminator 3
 351 01b8 D4ED015A 		flds	s11, [r4, #4]
 352              		.loc 1 318 0 discriminator 3
 353 01bc D4ED004A 		flds	s9, [r4]
 354              	.LVL54:
 355              		.loc 1 324 0 discriminator 3
 356 01c0 36EE664A 		fsubs	s8, s12, s13
 357              	.LVL55:
 358              		.loc 1 326 0 discriminator 3
 359 01c4 77EE673A 		fsubs	s7, s14, s15
 360              	.LVL56:
 361              		.loc 1 332 0 discriminator 3
 362 01c8 24EE255A 		fmuls	s10, s8, s11
 363              	.LVL57:
 364 01cc 65EEE35A 		fnmuls	s11, s11, s7
 365              	.LVL58:
 366              		.loc 1 338 0 discriminator 3
 367 01d0 A3EEA45A 		vfma.f32	s10, s7, s9
 368              	.LVL59:
 369 01d4 0832     		adds	r2, r2, #8
 370 01d6 4444     		add	r4, r4, r8
 371              	.LVL60:
 372              		.loc 1 337 0 discriminator 3
 373 01d8 E4EE245A 		vfma.f32	s11, s8, s9
 374 01dc 0837     		adds	r7, r7, #8
 375 01de 0830     		adds	r0, r0, #8
 376              		.loc 1 323 0 discriminator 3
 377 01e0 76EE266A 		fadds	s13, s12, s13
 378              	.LVL61:
 379              		.loc 1 327 0 discriminator 3
 380 01e4 77EE277A 		fadds	s15, s14, s15
 381              	.LVL62:
 382              		.loc 1 334 0 discriminator 3
 383 01e8 47ED036A 		fsts	s13, [r7, #-12]
 384              		.loc 1 335 0 discriminator 3
 385 01ec 42ED017A 		fsts	s15, [r2, #-4]
 386              		.loc 1 316 0 discriminator 3
 387 01f0 9445     		cmp	ip, r2
 388              		.loc 1 337 0 discriminator 3
 389 01f2 40ED035A 		fsts	s11, [r0, #-12]
 390 01f6 0EF1080E 		add	lr, lr, #8
 391              		.loc 1 338 0 discriminator 3
 392 01fa 0EED015A 		fsts	s10, [lr, #-4]
 393              		.loc 1 316 0 discriminator 3
 394 01fe D3D1     		bne	.L24
 395              		.loc 1 341 0
 396 0200 5B00     		lsls	r3, r3, #1
 397              	.LVL63:
ARM GAS  /tmp/cccdQp3d.s 			page 8


 398              		.loc 1 344 0
 399 0202 022E     		cmp	r6, #2
 400              		.loc 1 341 0
 401 0204 1FFA83FB 		uxth	fp, r3
 402              	.LVL64:
 403              		.loc 1 344 0
 404 0208 4ED9     		bls	.L22
 405 020a 0196     		str	r6, [sp, #4]
 406              	.LVL65:
 407              	.L28:
 408              		.loc 1 347 0
 409 020c 4FEA5608 		lsr	r8, r6, #1
 410              	.LVL66:
 411 0210 029F     		ldr	r7, [sp, #8]
 412 0212 DDF80CC0 		ldr	ip, [sp, #12]
 413 0216 4FEAC80A 		lsl	r10, r8, #3
 414 021a 4FEACB09 		lsl	r9, fp, #3
 415              		.loc 1 351 0
 416 021e 4FF0000E 		mov	lr, #0
 417              	.LVL67:
 418              	.L27:
 419              		.loc 1 354 0
 420 0222 9CED003A 		flds	s6, [ip]
 421              	.LVL68:
 422              		.loc 1 355 0
 423 0226 DCED013A 		flds	s7, [ip, #4]
 424              	.LVL69:
 425 022a 07EB0A03 		add	r3, r7, r10
 426 022e 381D     		adds	r0, r7, #4
 427 0230 3A46     		mov	r2, r7
 428              		.loc 1 359 0
 429 0232 7446     		mov	r4, lr
 430              	.LVL70:
 431              	.L26:
 432              		.loc 1 363 0 discriminator 1
 433 0234 10ED016A 		flds	s12, [r0, #-4]
 434              		.loc 1 366 0 discriminator 1
 435 0238 92ED017A 		flds	s14, [r2, #4]
 436              		.loc 1 363 0 discriminator 1
 437 023c D3ED006A 		flds	s13, [r3]
 438              	.LVL71:
 439              		.loc 1 366 0 discriminator 1
 440 0240 D3ED017A 		flds	s15, [r3, #4]
 441              	.LVL72:
 442              		.loc 1 364 0 discriminator 1
 443 0244 76EE664A 		fsubs	s9, s12, s13
 444              	.LVL73:
 445              		.loc 1 366 0 discriminator 1
 446 0248 37EE674A 		fsubs	s8, s14, s15
 447              	.LVL74:
 448              		.loc 1 372 0 discriminator 1
 449 024c 64EEA35A 		fmuls	s11, s9, s7
 450              	.LVL75:
 451 0250 23EEC45A 		fnmuls	s10, s7, s8
 452              		.loc 1 378 0 discriminator 1
 453 0254 E4EE035A 		vfma.f32	s11, s8, s6
 454              	.LVL76:
ARM GAS  /tmp/cccdQp3d.s 			page 9


 455              		.loc 1 380 0 discriminator 1
 456 0258 3444     		add	r4, r4, r6
 457              	.LVL77:
 458              		.loc 1 381 0 discriminator 1
 459 025a A142     		cmp	r1, r4
 460              		.loc 1 377 0 discriminator 1
 461 025c A4EE835A 		vfma.f32	s10, s9, s6
 462              		.loc 1 363 0 discriminator 1
 463 0260 76EE266A 		fadds	s13, s12, s13
 464              	.LVL78:
 465              		.loc 1 367 0 discriminator 1
 466 0264 77EE277A 		fadds	s15, s14, s15
 467              	.LVL79:
 468              		.loc 1 374 0 discriminator 1
 469 0268 40ED016A 		fsts	s13, [r0, #-4]
 470              		.loc 1 375 0 discriminator 1
 471 026c C2ED017A 		fsts	s15, [r2, #4]
 472 0270 2844     		add	r0, r0, r5
 473              		.loc 1 377 0 discriminator 1
 474 0272 83ED005A 		fsts	s10, [r3]
 475              		.loc 1 378 0 discriminator 1
 476 0276 C3ED015A 		fsts	s11, [r3, #4]
 477 027a 2A44     		add	r2, r2, r5
 478 027c 2B44     		add	r3, r3, r5
 479              		.loc 1 381 0 discriminator 1
 480 027e D9D8     		bhi	.L26
 481              		.loc 1 382 0
 482 0280 0EF1010E 		add	lr, lr, #1
 483              	.LVL80:
 484              		.loc 1 383 0
 485 0284 F045     		cmp	r8, lr
 486 0286 CC44     		add	ip, ip, r9
 487 0288 07F10807 		add	r7, r7, #8
 488 028c C9D8     		bhi	.L27
 489              		.loc 1 344 0 discriminator 2
 490 028e 019B     		ldr	r3, [sp, #4]
 491 0290 5B08     		lsrs	r3, r3, #1
 492              		.loc 1 385 0 discriminator 2
 493 0292 4FEA4B0B 		lsl	fp, fp, #1
 494              	.LVL81:
 495              		.loc 1 344 0 discriminator 2
 496 0296 022B     		cmp	r3, #2
 497 0298 0193     		str	r3, [sp, #4]
 498              	.LVL82:
 499              		.loc 1 385 0 discriminator 2
 500 029a 1FFA8BFB 		uxth	fp, fp
 501              	.LVL83:
 502 029e 4646     		mov	r6, r8
 503              	.LVL84:
 504              		.loc 1 344 0 discriminator 2
 505 02a0 02D9     		bls	.L22
 506              	.LVL85:
 507 02a2 F500     		lsls	r5, r6, #3
 508 02a4 B2E7     		b	.L28
 509              	.LVL86:
 510              	.L37:
 511              		.loc 1 389 0
ARM GAS  /tmp/cccdQp3d.s 			page 10


 512 02a6 51B3     		cbz	r1, .L20
 513              	.LVL87:
 514              	.L22:
 515 02a8 029B     		ldr	r3, [sp, #8]
 516              		.loc 1 359 0
 517 02aa 0020     		movs	r0, #0
 518 02ac 03F10802 		add	r2, r3, #8
 519              	.LVL88:
 520              	.L29:
 521              		.loc 1 391 0 discriminator 3
 522 02b0 12ED026A 		flds	s12, [r2, #-8]
 523              		.loc 1 394 0 discriminator 3
 524 02b4 93ED017A 		flds	s14, [r3, #4]
 525              		.loc 1 391 0 discriminator 3
 526 02b8 D3ED026A 		flds	s13, [r3, #8]
 527              	.LVL89:
 528              		.loc 1 394 0 discriminator 3
 529 02bc D3ED037A 		flds	s15, [r3, #12]
 530              	.LVL90:
 531              		.loc 1 391 0 discriminator 3
 532 02c0 76EE265A 		fadds	s11, s12, s13
 533              	.LVL91:
 534              		.loc 1 392 0 discriminator 3
 535 02c4 76EE666A 		fsubs	s13, s12, s13
 536              	.LVL92:
 537              		.loc 1 394 0 discriminator 3
 538 02c8 37EE876A 		fadds	s12, s15, s14
 539              	.LVL93:
 540              		.loc 1 395 0 discriminator 3
 541 02cc 77EE677A 		fsubs	s15, s14, s15
 542              	.LVL94:
 543              		.loc 1 397 0 discriminator 3
 544 02d0 65EE805A 		fmuls	s11, s11, s0
 545              	.LVL95:
 546              		.loc 1 398 0 discriminator 3
 547 02d4 26EE807A 		fmuls	s14, s13, s0
 548              	.LVL96:
 549              		.loc 1 400 0 discriminator 3
 550 02d8 67EE807A 		fmuls	s15, s15, s0
 551              	.LVL97:
 552              		.loc 1 399 0 discriminator 3
 553 02dc 66EE006A 		fmuls	s13, s12, s0
 554              	.LVL98:
 555              		.loc 1 389 0 discriminator 3
 556 02e0 0230     		adds	r0, r0, #2
 557              	.LVL99:
 558 02e2 8142     		cmp	r1, r0
 559              		.loc 1 402 0 discriminator 3
 560 02e4 42ED025A 		fsts	s11, [r2, #-8]
 561              	.LVL100:
 562 02e8 03F11003 		add	r3, r3, #16
 563              		.loc 1 404 0 discriminator 3
 564 02ec 03ED027A 		fsts	s14, [r3, #-8]
 565              		.loc 1 403 0 discriminator 3
 566 02f0 43ED036A 		fsts	s13, [r3, #-12]
 567              		.loc 1 405 0 discriminator 3
 568 02f4 43ED017A 		fsts	s15, [r3, #-4]
ARM GAS  /tmp/cccdQp3d.s 			page 11


 569 02f8 02F11002 		add	r2, r2, #16
 570              		.loc 1 389 0 discriminator 3
 571 02fc D8D8     		bhi	.L29
 572              	.LVL101:
 573              	.L20:
 574              		.loc 1 485 0
 575 02fe 05B0     		add	sp, sp, #20
 576              		.cfi_def_cfa_offset 36
 577              		@ sp needed
 578 0300 BDE8F08F 		pop	{r4, r5, r6, r7, r8, r9, r10, fp, pc}
 579              		.cfi_endproc
 580              	.LFE137:
 581              		.size	arm_radix2_butterfly_inverse_f32, .-arm_radix2_butterfly_inverse_f32
 582              		.align	2
 583 0304 AFF30080 		.p2align 4,,15
 583      AFF30080 
 583      AFF30080 
 584              		.global	arm_cfft_radix2_f32
 585              		.thumb
 586              		.thumb_func
 587              		.type	arm_cfft_radix2_f32, %function
 588              	arm_cfft_radix2_f32:
 589              	.LFB135:
 590              		.loc 1 85 0
 591              		.cfi_startproc
 592              		@ args = 0, pretend = 0, frame = 0
 593              		@ frame_needed = 0, uses_anonymous_args = 0
 594              	.LVL102:
 595 0310 70B5     		push	{r4, r5, r6, lr}
 596              		.cfi_def_cfa_offset 16
 597              		.cfi_offset 4, -16
 598              		.cfi_offset 5, -12
 599              		.cfi_offset 6, -8
 600              		.cfi_offset 14, -4
 601              		.loc 1 87 0
 602 0312 8378     		ldrb	r3, [r0, #2]	@ zero_extendqisi2
 603              		.loc 1 85 0
 604 0314 0446     		mov	r4, r0
 605              		.loc 1 87 0
 606 0316 012B     		cmp	r3, #1
 607              		.loc 1 85 0
 608 0318 0D46     		mov	r5, r1
 609              		.loc 1 90 0
 610 031a 0846     		mov	r0, r1
 611              	.LVL103:
 612 031c 6268     		ldr	r2, [r4, #4]
 613 031e 2188     		ldrh	r1, [r4]
 614              	.LVL104:
 615 0320 A389     		ldrh	r3, [r4, #12]
 616              		.loc 1 87 0
 617 0322 05D0     		beq	.L43
 618              		.loc 1 96 0
 619 0324 FFF7FEFF 		bl	arm_radix2_butterfly_f32
 620              	.LVL105:
 621              		.loc 1 100 0
 622 0328 E378     		ldrb	r3, [r4, #3]	@ zero_extendqisi2
 623 032a 012B     		cmp	r3, #1
ARM GAS  /tmp/cccdQp3d.s 			page 12


 624 032c 07D0     		beq	.L44
 625              	.L38:
 626 032e 70BD     		pop	{r4, r5, r6, pc}
 627              	.LVL106:
 628              	.L43:
 629              		.loc 1 90 0
 630 0330 94ED040A 		flds	s0, [r4, #16]
 631 0334 FFF7FEFF 		bl	arm_radix2_butterfly_inverse_f32
 632              	.LVL107:
 633              		.loc 1 100 0
 634 0338 E378     		ldrb	r3, [r4, #3]	@ zero_extendqisi2
 635 033a 012B     		cmp	r3, #1
 636 033c F7D1     		bne	.L38
 637              	.L44:
 638              		.loc 1 103 0
 639 033e 2846     		mov	r0, r5
 640 0340 2188     		ldrh	r1, [r4]
 641 0342 E289     		ldrh	r2, [r4, #14]
 642 0344 A368     		ldr	r3, [r4, #8]
 643              		.loc 1 106 0
 644 0346 BDE87040 		pop	{r4, r5, r6, lr}
 645              		.cfi_restore 14
 646              		.cfi_restore 6
 647              		.cfi_restore 5
 648              		.cfi_restore 4
 649              		.cfi_def_cfa_offset 0
 650              	.LVL108:
 651              		.loc 1 103 0
 652 034a FFF7FEBF 		b	arm_bitreversal_f32
 653              	.LVL109:
 654              		.cfi_endproc
 655              	.LFE135:
 656              		.size	arm_cfft_radix2_f32, .-arm_cfft_radix2_f32
 657              	.Letext0:
 658              		.file 2 "/d_drive/axoloti/platform_linux/arm-none-eabi/include/machine/_default_types.h"
 659              		.file 3 "/d_drive/axoloti/platform_linux/arm-none-eabi/include/sys/_stdint.h"
 660              		.file 4 "/d_drive/axoloti/platform_linux/../CMSIS//DSP_Lib/Include/arm_math.h"
 661 034e 00BF     		.section	.debug_info,"",%progbits
 662              	.Ldebug_info0:
 663 0000 7B040000 		.4byte	0x47b
 664 0004 0400     		.2byte	0x4
 665 0006 00000000 		.4byte	.Ldebug_abbrev0
 666 000a 04       		.byte	0x4
 667 000b 01       		.uleb128 0x1
 668 000c 09000000 		.4byte	.LASF37
 669 0010 01       		.byte	0x1
 670 0011 E2010000 		.4byte	.LASF38
 671 0015 00000000 		.4byte	.Ltext0
 672 0019 4E030000 		.4byte	.Letext0-.Ltext0
 673 001d 00000000 		.4byte	.Ldebug_line0
 674 0021 02       		.uleb128 0x2
 675 0022 04       		.byte	0x4
 676 0023 04       		.byte	0x4
 677 0024 68010000 		.4byte	.LASF0
 678 0028 02       		.uleb128 0x2
 679 0029 01       		.byte	0x1
 680 002a 06       		.byte	0x6
ARM GAS  /tmp/cccdQp3d.s 			page 13


 681 002b 1C030000 		.4byte	.LASF1
 682 002f 03       		.uleb128 0x3
 683 0030 02010000 		.4byte	.LASF4
 684 0034 02       		.byte	0x2
 685 0035 1D       		.byte	0x1d
 686 0036 3A000000 		.4byte	0x3a
 687 003a 02       		.uleb128 0x2
 688 003b 01       		.byte	0x1
 689 003c 08       		.byte	0x8
 690 003d 75010000 		.4byte	.LASF2
 691 0041 02       		.uleb128 0x2
 692 0042 02       		.byte	0x2
 693 0043 05       		.byte	0x5
 694 0044 D2020000 		.4byte	.LASF3
 695 0048 03       		.uleb128 0x3
 696 0049 BB010000 		.4byte	.LASF5
 697 004d 02       		.byte	0x2
 698 004e 2B       		.byte	0x2b
 699 004f 53000000 		.4byte	0x53
 700 0053 02       		.uleb128 0x2
 701 0054 02       		.byte	0x2
 702 0055 07       		.byte	0x7
 703 0056 A1010000 		.4byte	.LASF6
 704 005a 02       		.uleb128 0x2
 705 005b 04       		.byte	0x4
 706 005c 05       		.byte	0x5
 707 005d 07030000 		.4byte	.LASF7
 708 0061 03       		.uleb128 0x3
 709 0062 D7010000 		.4byte	.LASF8
 710 0066 02       		.byte	0x2
 711 0067 41       		.byte	0x41
 712 0068 6C000000 		.4byte	0x6c
 713 006c 02       		.uleb128 0x2
 714 006d 04       		.byte	0x4
 715 006e 07       		.byte	0x7
 716 006f 8F010000 		.4byte	.LASF9
 717 0073 02       		.uleb128 0x2
 718 0074 08       		.byte	0x8
 719 0075 05       		.byte	0x5
 720 0076 A2020000 		.4byte	.LASF10
 721 007a 02       		.uleb128 0x2
 722 007b 08       		.byte	0x8
 723 007c 07       		.byte	0x7
 724 007d 6B020000 		.4byte	.LASF11
 725 0081 04       		.uleb128 0x4
 726 0082 04       		.byte	0x4
 727 0083 05       		.byte	0x5
 728 0084 696E7400 		.ascii	"int\000"
 729 0088 02       		.uleb128 0x2
 730 0089 04       		.byte	0x4
 731 008a 07       		.byte	0x7
 732 008b 5E020000 		.4byte	.LASF12
 733 008f 03       		.uleb128 0x3
 734 0090 82020000 		.4byte	.LASF13
 735 0094 03       		.byte	0x3
 736 0095 14       		.byte	0x14
 737 0096 2F000000 		.4byte	0x2f
ARM GAS  /tmp/cccdQp3d.s 			page 14


 738 009a 03       		.uleb128 0x3
 739 009b F5020000 		.4byte	.LASF14
 740 009f 03       		.byte	0x3
 741 00a0 1A       		.byte	0x1a
 742 00a1 48000000 		.4byte	0x48
 743 00a5 03       		.uleb128 0x3
 744 00a6 FE020000 		.4byte	.LASF15
 745 00aa 03       		.byte	0x3
 746 00ab 20       		.byte	0x20
 747 00ac 61000000 		.4byte	0x61
 748 00b0 02       		.uleb128 0x2
 749 00b1 04       		.byte	0x4
 750 00b2 07       		.byte	0x7
 751 00b3 99020000 		.4byte	.LASF16
 752 00b7 02       		.uleb128 0x2
 753 00b8 01       		.byte	0x1
 754 00b9 08       		.byte	0x8
 755 00ba B9020000 		.4byte	.LASF17
 756 00be 02       		.uleb128 0x2
 757 00bf 08       		.byte	0x8
 758 00c0 04       		.byte	0x4
 759 00c1 C6010000 		.4byte	.LASF18
 760 00c5 02       		.uleb128 0x2
 761 00c6 08       		.byte	0x8
 762 00c7 04       		.byte	0x4
 763 00c8 10030000 		.4byte	.LASF19
 764 00cc 05       		.uleb128 0x5
 765 00cd CD010000 		.4byte	.LASF20
 766 00d1 04       		.byte	0x4
 767 00d2 AA01     		.2byte	0x1aa
 768 00d4 21000000 		.4byte	0x21
 769 00d8 06       		.uleb128 0x6
 770 00d9 04       		.byte	0x4
 771 00da CC000000 		.4byte	0xcc
 772 00de 06       		.uleb128 0x6
 773 00df 04       		.byte	0x4
 774 00e0 9A000000 		.4byte	0x9a
 775 00e4 07       		.uleb128 0x7
 776 00e5 14       		.byte	0x14
 777 00e6 04       		.byte	0x4
 778 00e7 4B08     		.2byte	0x84b
 779 00e9 56010000 		.4byte	0x156
 780 00ed 08       		.uleb128 0x8
 781 00ee B4010000 		.4byte	.LASF21
 782 00f2 04       		.byte	0x4
 783 00f3 4D08     		.2byte	0x84d
 784 00f5 9A000000 		.4byte	0x9a
 785 00f9 00       		.byte	0
 786 00fa 08       		.uleb128 0x8
 787 00fb 00000000 		.4byte	.LASF22
 788 00ff 04       		.byte	0x4
 789 0100 4E08     		.2byte	0x84e
 790 0102 8F000000 		.4byte	0x8f
 791 0106 02       		.byte	0x2
 792 0107 08       		.uleb128 0x8
 793 0108 8A020000 		.4byte	.LASF23
 794 010c 04       		.byte	0x4
ARM GAS  /tmp/cccdQp3d.s 			page 15


 795 010d 4F08     		.2byte	0x84f
 796 010f 8F000000 		.4byte	0x8f
 797 0113 03       		.byte	0x3
 798 0114 08       		.uleb128 0x8
 799 0115 B0020000 		.4byte	.LASF24
 800 0119 04       		.byte	0x4
 801 011a 5008     		.2byte	0x850
 802 011c D8000000 		.4byte	0xd8
 803 0120 04       		.byte	0x4
 804 0121 08       		.uleb128 0x8
 805 0122 5B010000 		.4byte	.LASF25
 806 0126 04       		.byte	0x4
 807 0127 5108     		.2byte	0x851
 808 0129 DE000000 		.4byte	0xde
 809 012d 08       		.byte	0x8
 810 012e 08       		.uleb128 0x8
 811 012f 4A010000 		.4byte	.LASF26
 812 0133 04       		.byte	0x4
 813 0134 5208     		.2byte	0x852
 814 0136 9A000000 		.4byte	0x9a
 815 013a 0C       		.byte	0xc
 816 013b 08       		.uleb128 0x8
 817 013c C5020000 		.4byte	.LASF27
 818 0140 04       		.byte	0x4
 819 0141 5308     		.2byte	0x853
 820 0143 9A000000 		.4byte	0x9a
 821 0147 0E       		.byte	0xe
 822 0148 08       		.uleb128 0x8
 823 0149 83010000 		.4byte	.LASF28
 824 014d 04       		.byte	0x4
 825 014e 5408     		.2byte	0x854
 826 0150 CC000000 		.4byte	0xcc
 827 0154 10       		.byte	0x10
 828 0155 00       		.byte	0
 829 0156 05       		.uleb128 0x5
 830 0157 2D010000 		.4byte	.LASF29
 831 015b 04       		.byte	0x4
 832 015c 5508     		.2byte	0x855
 833 015e E4000000 		.4byte	0xe4
 834 0162 09       		.uleb128 0x9
 835 0163 DC020000 		.4byte	.LASF34
 836 0167 01       		.byte	0x1
 837 0168 80       		.byte	0x80
 838 0169 00000000 		.4byte	.LFB136
 839 016d 74010000 		.4byte	.LFE136-.LFB136
 840 0171 01       		.uleb128 0x1
 841 0172 9C       		.byte	0x9c
 842 0173 9A020000 		.4byte	0x29a
 843 0177 0A       		.uleb128 0xa
 844 0178 28030000 		.4byte	.LASF30
 845 017c 01       		.byte	0x1
 846 017d 81       		.byte	0x81
 847 017e D8000000 		.4byte	0xd8
 848 0182 00000000 		.4byte	.LLST0
 849 0186 0B       		.uleb128 0xb
 850 0187 B4010000 		.4byte	.LASF21
 851 018b 01       		.byte	0x1
ARM GAS  /tmp/cccdQp3d.s 			page 16


 852 018c 82       		.byte	0x82
 853 018d A5000000 		.4byte	0xa5
 854 0191 01       		.uleb128 0x1
 855 0192 51       		.byte	0x51
 856 0193 0A       		.uleb128 0xa
 857 0194 58020000 		.4byte	.LASF31
 858 0198 01       		.byte	0x1
 859 0199 83       		.byte	0x83
 860 019a D8000000 		.4byte	0xd8
 861 019e 4C000000 		.4byte	.LLST1
 862 01a2 0A       		.uleb128 0xa
 863 01a3 4A010000 		.4byte	.LASF26
 864 01a7 01       		.byte	0x1
 865 01a8 84       		.byte	0x84
 866 01a9 9A000000 		.4byte	0x9a
 867 01ad 82000000 		.4byte	.LLST2
 868 01b1 0C       		.uleb128 0xc
 869 01b2 6900     		.ascii	"i\000"
 870 01b4 01       		.byte	0x1
 871 01b5 87       		.byte	0x87
 872 01b6 A5000000 		.4byte	0xa5
 873 01ba C4000000 		.4byte	.LLST3
 874 01be 0C       		.uleb128 0xc
 875 01bf 6A00     		.ascii	"j\000"
 876 01c1 01       		.byte	0x1
 877 01c2 87       		.byte	0x87
 878 01c3 A5000000 		.4byte	0xa5
 879 01c7 05010000 		.4byte	.LLST4
 880 01cb 0C       		.uleb128 0xc
 881 01cc 6B00     		.ascii	"k\000"
 882 01ce 01       		.byte	0x1
 883 01cf 87       		.byte	0x87
 884 01d0 A5000000 		.4byte	0xa5
 885 01d4 24010000 		.4byte	.LLST5
 886 01d8 0D       		.uleb128 0xd
 887 01d9 6C00     		.ascii	"l\000"
 888 01db 01       		.byte	0x1
 889 01dc 87       		.byte	0x87
 890 01dd A5000000 		.4byte	0xa5
 891 01e1 0C       		.uleb128 0xc
 892 01e2 6E3100   		.ascii	"n1\000"
 893 01e5 01       		.byte	0x1
 894 01e6 88       		.byte	0x88
 895 01e7 A5000000 		.4byte	0xa5
 896 01eb 73010000 		.4byte	.LLST6
 897 01ef 0C       		.uleb128 0xc
 898 01f0 6E3200   		.ascii	"n2\000"
 899 01f3 01       		.byte	0x1
 900 01f4 88       		.byte	0x88
 901 01f5 A5000000 		.4byte	0xa5
 902 01f9 86010000 		.4byte	.LLST7
 903 01fd 0C       		.uleb128 0xc
 904 01fe 696100   		.ascii	"ia\000"
 905 0201 01       		.byte	0x1
 906 0202 88       		.byte	0x88
 907 0203 A5000000 		.4byte	0xa5
 908 0207 BE010000 		.4byte	.LLST8
ARM GAS  /tmp/cccdQp3d.s 			page 17


 909 020b 0C       		.uleb128 0xc
 910 020c 787400   		.ascii	"xt\000"
 911 020f 01       		.byte	0x1
 912 0210 89       		.byte	0x89
 913 0211 CC000000 		.4byte	0xcc
 914 0215 EA010000 		.4byte	.LLST9
 915 0219 0C       		.uleb128 0xc
 916 021a 797400   		.ascii	"yt\000"
 917 021d 01       		.byte	0x1
 918 021e 89       		.byte	0x89
 919 021f CC000000 		.4byte	0xcc
 920 0223 28020000 		.4byte	.LLST10
 921 0227 0E       		.uleb128 0xe
 922 0228 BE020000 		.4byte	.LASF32
 923 022c 01       		.byte	0x1
 924 022d 89       		.byte	0x89
 925 022e CC000000 		.4byte	0xcc
 926 0232 66020000 		.4byte	.LLST11
 927 0236 0E       		.uleb128 0xe
 928 0237 6E010000 		.4byte	.LASF33
 929 023b 01       		.byte	0x1
 930 023c 89       		.byte	0x89
 931 023d CC000000 		.4byte	0xcc
 932 0241 86020000 		.4byte	.LLST12
 933 0245 0C       		.uleb128 0xc
 934 0246 703000   		.ascii	"p0\000"
 935 0249 01       		.byte	0x1
 936 024a 8A       		.byte	0x8a
 937 024b CC000000 		.4byte	0xcc
 938 024f B2020000 		.4byte	.LLST13
 939 0253 0C       		.uleb128 0xc
 940 0254 703100   		.ascii	"p1\000"
 941 0257 01       		.byte	0x1
 942 0258 8A       		.byte	0x8a
 943 0259 CC000000 		.4byte	0xcc
 944 025d DE020000 		.4byte	.LLST14
 945 0261 0C       		.uleb128 0xc
 946 0262 703200   		.ascii	"p2\000"
 947 0265 01       		.byte	0x1
 948 0266 8A       		.byte	0x8a
 949 0267 CC000000 		.4byte	0xcc
 950 026b 34030000 		.4byte	.LLST15
 951 026f 0C       		.uleb128 0xc
 952 0270 703300   		.ascii	"p3\000"
 953 0273 01       		.byte	0x1
 954 0274 8A       		.byte	0x8a
 955 0275 CC000000 		.4byte	0xcc
 956 0279 60030000 		.4byte	.LLST16
 957 027d 0C       		.uleb128 0xc
 958 027e 613000   		.ascii	"a0\000"
 959 0281 01       		.byte	0x1
 960 0282 8B       		.byte	0x8b
 961 0283 CC000000 		.4byte	0xcc
 962 0287 A0030000 		.4byte	.LLST17
 963 028b 0C       		.uleb128 0xc
 964 028c 613100   		.ascii	"a1\000"
 965 028f 01       		.byte	0x1
ARM GAS  /tmp/cccdQp3d.s 			page 18


 966 0290 8B       		.byte	0x8b
 967 0291 CC000000 		.4byte	0xcc
 968 0295 02040000 		.4byte	.LLST18
 969 0299 00       		.byte	0
 970 029a 0F       		.uleb128 0xf
 971 029b 0C010000 		.4byte	.LASF35
 972 029f 01       		.byte	0x1
 973 02a0 2801     		.2byte	0x128
 974 02a2 80010000 		.4byte	.LFB137
 975 02a6 84010000 		.4byte	.LFE137-.LFB137
 976 02aa 01       		.uleb128 0x1
 977 02ab 9C       		.byte	0x9c
 978 02ac F7030000 		.4byte	0x3f7
 979 02b0 10       		.uleb128 0x10
 980 02b1 28030000 		.4byte	.LASF30
 981 02b5 01       		.byte	0x1
 982 02b6 2901     		.2byte	0x129
 983 02b8 D8000000 		.4byte	0xd8
 984 02bc 64040000 		.4byte	.LLST19
 985 02c0 11       		.uleb128 0x11
 986 02c1 B4010000 		.4byte	.LASF21
 987 02c5 01       		.byte	0x1
 988 02c6 2A01     		.2byte	0x12a
 989 02c8 A5000000 		.4byte	0xa5
 990 02cc 01       		.uleb128 0x1
 991 02cd 51       		.byte	0x51
 992 02ce 10       		.uleb128 0x10
 993 02cf 58020000 		.4byte	.LASF31
 994 02d3 01       		.byte	0x1
 995 02d4 2B01     		.2byte	0x12b
 996 02d6 D8000000 		.4byte	0xd8
 997 02da B0040000 		.4byte	.LLST20
 998 02de 10       		.uleb128 0x10
 999 02df 4A010000 		.4byte	.LASF26
 1000 02e3 01       		.byte	0x1
 1001 02e4 2C01     		.2byte	0x12c
 1002 02e6 9A000000 		.4byte	0x9a
 1003 02ea E6040000 		.4byte	.LLST21
 1004 02ee 11       		.uleb128 0x11
 1005 02ef 83010000 		.4byte	.LASF28
 1006 02f3 01       		.byte	0x1
 1007 02f4 2D01     		.2byte	0x12d
 1008 02f6 CC000000 		.4byte	0xcc
 1009 02fa 02       		.uleb128 0x2
 1010 02fb 90       		.byte	0x90
 1011 02fc 40       		.uleb128 0x40
 1012 02fd 12       		.uleb128 0x12
 1013 02fe 6900     		.ascii	"i\000"
 1014 0300 01       		.byte	0x1
 1015 0301 3001     		.2byte	0x130
 1016 0303 A5000000 		.4byte	0xa5
 1017 0307 28050000 		.4byte	.LLST22
 1018 030b 12       		.uleb128 0x12
 1019 030c 6A00     		.ascii	"j\000"
 1020 030e 01       		.byte	0x1
 1021 030f 3001     		.2byte	0x130
 1022 0311 A5000000 		.4byte	0xa5
ARM GAS  /tmp/cccdQp3d.s 			page 19


 1023 0315 69050000 		.4byte	.LLST23
 1024 0319 12       		.uleb128 0x12
 1025 031a 6B00     		.ascii	"k\000"
 1026 031c 01       		.byte	0x1
 1027 031d 3001     		.2byte	0x130
 1028 031f A5000000 		.4byte	0xa5
 1029 0323 88050000 		.4byte	.LLST24
 1030 0327 13       		.uleb128 0x13
 1031 0328 6C00     		.ascii	"l\000"
 1032 032a 01       		.byte	0x1
 1033 032b 3001     		.2byte	0x130
 1034 032d A5000000 		.4byte	0xa5
 1035 0331 12       		.uleb128 0x12
 1036 0332 6E3100   		.ascii	"n1\000"
 1037 0335 01       		.byte	0x1
 1038 0336 3101     		.2byte	0x131
 1039 0338 A5000000 		.4byte	0xa5
 1040 033c B2050000 		.4byte	.LLST25
 1041 0340 12       		.uleb128 0x12
 1042 0341 6E3200   		.ascii	"n2\000"
 1043 0344 01       		.byte	0x1
 1044 0345 3101     		.2byte	0x131
 1045 0347 A5000000 		.4byte	0xa5
 1046 034b C5050000 		.4byte	.LLST26
 1047 034f 12       		.uleb128 0x12
 1048 0350 696100   		.ascii	"ia\000"
 1049 0353 01       		.byte	0x1
 1050 0354 3101     		.2byte	0x131
 1051 0356 A5000000 		.4byte	0xa5
 1052 035a FD050000 		.4byte	.LLST27
 1053 035e 12       		.uleb128 0x12
 1054 035f 787400   		.ascii	"xt\000"
 1055 0362 01       		.byte	0x1
 1056 0363 3201     		.2byte	0x132
 1057 0365 CC000000 		.4byte	0xcc
 1058 0369 29060000 		.4byte	.LLST28
 1059 036d 12       		.uleb128 0x12
 1060 036e 797400   		.ascii	"yt\000"
 1061 0371 01       		.byte	0x1
 1062 0372 3201     		.2byte	0x132
 1063 0374 CC000000 		.4byte	0xcc
 1064 0378 7D060000 		.4byte	.LLST29
 1065 037c 14       		.uleb128 0x14
 1066 037d BE020000 		.4byte	.LASF32
 1067 0381 01       		.byte	0x1
 1068 0382 3201     		.2byte	0x132
 1069 0384 CC000000 		.4byte	0xcc
 1070 0388 D1060000 		.4byte	.LLST30
 1071 038c 14       		.uleb128 0x14
 1072 038d 6E010000 		.4byte	.LASF33
 1073 0391 01       		.byte	0x1
 1074 0392 3201     		.2byte	0x132
 1075 0394 CC000000 		.4byte	0xcc
 1076 0398 F1060000 		.4byte	.LLST31
 1077 039c 12       		.uleb128 0x12
 1078 039d 703000   		.ascii	"p0\000"
 1079 03a0 01       		.byte	0x1
ARM GAS  /tmp/cccdQp3d.s 			page 20


 1080 03a1 3301     		.2byte	0x133
 1081 03a3 CC000000 		.4byte	0xcc
 1082 03a7 1D070000 		.4byte	.LLST32
 1083 03ab 12       		.uleb128 0x12
 1084 03ac 703100   		.ascii	"p1\000"
 1085 03af 01       		.byte	0x1
 1086 03b0 3301     		.2byte	0x133
 1087 03b2 CC000000 		.4byte	0xcc
 1088 03b6 9D070000 		.4byte	.LLST33
 1089 03ba 12       		.uleb128 0x12
 1090 03bb 703200   		.ascii	"p2\000"
 1091 03be 01       		.byte	0x1
 1092 03bf 3301     		.2byte	0x133
 1093 03c1 CC000000 		.4byte	0xcc
 1094 03c5 31080000 		.4byte	.LLST34
 1095 03c9 12       		.uleb128 0x12
 1096 03ca 703300   		.ascii	"p3\000"
 1097 03cd 01       		.byte	0x1
 1098 03ce 3301     		.2byte	0x133
 1099 03d0 CC000000 		.4byte	0xcc
 1100 03d4 B1080000 		.4byte	.LLST35
 1101 03d8 12       		.uleb128 0x12
 1102 03d9 613000   		.ascii	"a0\000"
 1103 03dc 01       		.byte	0x1
 1104 03dd 3401     		.2byte	0x134
 1105 03df CC000000 		.4byte	0xcc
 1106 03e3 6F090000 		.4byte	.LLST36
 1107 03e7 12       		.uleb128 0x12
 1108 03e8 613100   		.ascii	"a1\000"
 1109 03eb 01       		.byte	0x1
 1110 03ec 3401     		.2byte	0x134
 1111 03ee CC000000 		.4byte	0xcc
 1112 03f2 E7090000 		.4byte	.LLST37
 1113 03f6 00       		.byte	0
 1114 03f7 09       		.uleb128 0x9
 1115 03f8 2D030000 		.4byte	.LASF36
 1116 03fc 01       		.byte	0x1
 1117 03fd 52       		.byte	0x52
 1118 03fe 10030000 		.4byte	.LFB135
 1119 0402 3E000000 		.4byte	.LFE135-.LFB135
 1120 0406 01       		.uleb128 0x1
 1121 0407 9C       		.byte	0x9c
 1122 0408 57040000 		.4byte	0x457
 1123 040c 15       		.uleb128 0x15
 1124 040d 5300     		.ascii	"S\000"
 1125 040f 01       		.byte	0x1
 1126 0410 53       		.byte	0x53
 1127 0411 57040000 		.4byte	0x457
 1128 0415 490A0000 		.4byte	.LLST38
 1129 0419 0A       		.uleb128 0xa
 1130 041a 28030000 		.4byte	.LASF30
 1131 041e 01       		.byte	0x1
 1132 041f 54       		.byte	0x54
 1133 0420 D8000000 		.4byte	0xd8
 1134 0424 750A0000 		.4byte	.LLST39
 1135 0428 16       		.uleb128 0x16
 1136 0429 28030000 		.4byte	.LVL105
ARM GAS  /tmp/cccdQp3d.s 			page 21


 1137 042d 62010000 		.4byte	0x162
 1138 0431 3C040000 		.4byte	0x43c
 1139 0435 17       		.uleb128 0x17
 1140 0436 01       		.uleb128 0x1
 1141 0437 50       		.byte	0x50
 1142 0438 02       		.uleb128 0x2
 1143 0439 75       		.byte	0x75
 1144 043a 00       		.sleb128 0
 1145 043b 00       		.byte	0
 1146 043c 18       		.uleb128 0x18
 1147 043d 38030000 		.4byte	.LVL107
 1148 0441 9A020000 		.4byte	0x29a
 1149 0445 19       		.uleb128 0x19
 1150 0446 4E030000 		.4byte	.LVL109
 1151 044a 62040000 		.4byte	0x462
 1152 044e 17       		.uleb128 0x17
 1153 044f 01       		.uleb128 0x1
 1154 0450 50       		.byte	0x50
 1155 0451 03       		.uleb128 0x3
 1156 0452 F3       		.byte	0xf3
 1157 0453 01       		.uleb128 0x1
 1158 0454 51       		.byte	0x51
 1159 0455 00       		.byte	0
 1160 0456 00       		.byte	0
 1161 0457 06       		.uleb128 0x6
 1162 0458 04       		.byte	0x4
 1163 0459 5D040000 		.4byte	0x45d
 1164 045d 1A       		.uleb128 0x1a
 1165 045e 56010000 		.4byte	0x156
 1166 0462 1B       		.uleb128 0x1b
 1167 0463 44020000 		.4byte	.LASF39
 1168 0467 01       		.byte	0x1
 1169 0468 39       		.byte	0x39
 1170 0469 1C       		.uleb128 0x1c
 1171 046a D8000000 		.4byte	0xd8
 1172 046e 1C       		.uleb128 0x1c
 1173 046f 9A000000 		.4byte	0x9a
 1174 0473 1C       		.uleb128 0x1c
 1175 0474 9A000000 		.4byte	0x9a
 1176 0478 1C       		.uleb128 0x1c
 1177 0479 DE000000 		.4byte	0xde
 1178 047d 00       		.byte	0
 1179 047e 00       		.byte	0
 1180              		.section	.debug_abbrev,"",%progbits
 1181              	.Ldebug_abbrev0:
 1182 0000 01       		.uleb128 0x1
 1183 0001 11       		.uleb128 0x11
 1184 0002 01       		.byte	0x1
 1185 0003 25       		.uleb128 0x25
 1186 0004 0E       		.uleb128 0xe
 1187 0005 13       		.uleb128 0x13
 1188 0006 0B       		.uleb128 0xb
 1189 0007 03       		.uleb128 0x3
 1190 0008 0E       		.uleb128 0xe
 1191 0009 11       		.uleb128 0x11
 1192 000a 01       		.uleb128 0x1
 1193 000b 12       		.uleb128 0x12
ARM GAS  /tmp/cccdQp3d.s 			page 22


 1194 000c 06       		.uleb128 0x6
 1195 000d 10       		.uleb128 0x10
 1196 000e 17       		.uleb128 0x17
 1197 000f 00       		.byte	0
 1198 0010 00       		.byte	0
 1199 0011 02       		.uleb128 0x2
 1200 0012 24       		.uleb128 0x24
 1201 0013 00       		.byte	0
 1202 0014 0B       		.uleb128 0xb
 1203 0015 0B       		.uleb128 0xb
 1204 0016 3E       		.uleb128 0x3e
 1205 0017 0B       		.uleb128 0xb
 1206 0018 03       		.uleb128 0x3
 1207 0019 0E       		.uleb128 0xe
 1208 001a 00       		.byte	0
 1209 001b 00       		.byte	0
 1210 001c 03       		.uleb128 0x3
 1211 001d 16       		.uleb128 0x16
 1212 001e 00       		.byte	0
 1213 001f 03       		.uleb128 0x3
 1214 0020 0E       		.uleb128 0xe
 1215 0021 3A       		.uleb128 0x3a
 1216 0022 0B       		.uleb128 0xb
 1217 0023 3B       		.uleb128 0x3b
 1218 0024 0B       		.uleb128 0xb
 1219 0025 49       		.uleb128 0x49
 1220 0026 13       		.uleb128 0x13
 1221 0027 00       		.byte	0
 1222 0028 00       		.byte	0
 1223 0029 04       		.uleb128 0x4
 1224 002a 24       		.uleb128 0x24
 1225 002b 00       		.byte	0
 1226 002c 0B       		.uleb128 0xb
 1227 002d 0B       		.uleb128 0xb
 1228 002e 3E       		.uleb128 0x3e
 1229 002f 0B       		.uleb128 0xb
 1230 0030 03       		.uleb128 0x3
 1231 0031 08       		.uleb128 0x8
 1232 0032 00       		.byte	0
 1233 0033 00       		.byte	0
 1234 0034 05       		.uleb128 0x5
 1235 0035 16       		.uleb128 0x16
 1236 0036 00       		.byte	0
 1237 0037 03       		.uleb128 0x3
 1238 0038 0E       		.uleb128 0xe
 1239 0039 3A       		.uleb128 0x3a
 1240 003a 0B       		.uleb128 0xb
 1241 003b 3B       		.uleb128 0x3b
 1242 003c 05       		.uleb128 0x5
 1243 003d 49       		.uleb128 0x49
 1244 003e 13       		.uleb128 0x13
 1245 003f 00       		.byte	0
 1246 0040 00       		.byte	0
 1247 0041 06       		.uleb128 0x6
 1248 0042 0F       		.uleb128 0xf
 1249 0043 00       		.byte	0
 1250 0044 0B       		.uleb128 0xb
ARM GAS  /tmp/cccdQp3d.s 			page 23


 1251 0045 0B       		.uleb128 0xb
 1252 0046 49       		.uleb128 0x49
 1253 0047 13       		.uleb128 0x13
 1254 0048 00       		.byte	0
 1255 0049 00       		.byte	0
 1256 004a 07       		.uleb128 0x7
 1257 004b 13       		.uleb128 0x13
 1258 004c 01       		.byte	0x1
 1259 004d 0B       		.uleb128 0xb
 1260 004e 0B       		.uleb128 0xb
 1261 004f 3A       		.uleb128 0x3a
 1262 0050 0B       		.uleb128 0xb
 1263 0051 3B       		.uleb128 0x3b
 1264 0052 05       		.uleb128 0x5
 1265 0053 01       		.uleb128 0x1
 1266 0054 13       		.uleb128 0x13
 1267 0055 00       		.byte	0
 1268 0056 00       		.byte	0
 1269 0057 08       		.uleb128 0x8
 1270 0058 0D       		.uleb128 0xd
 1271 0059 00       		.byte	0
 1272 005a 03       		.uleb128 0x3
 1273 005b 0E       		.uleb128 0xe
 1274 005c 3A       		.uleb128 0x3a
 1275 005d 0B       		.uleb128 0xb
 1276 005e 3B       		.uleb128 0x3b
 1277 005f 05       		.uleb128 0x5
 1278 0060 49       		.uleb128 0x49
 1279 0061 13       		.uleb128 0x13
 1280 0062 38       		.uleb128 0x38
 1281 0063 0B       		.uleb128 0xb
 1282 0064 00       		.byte	0
 1283 0065 00       		.byte	0
 1284 0066 09       		.uleb128 0x9
 1285 0067 2E       		.uleb128 0x2e
 1286 0068 01       		.byte	0x1
 1287 0069 3F       		.uleb128 0x3f
 1288 006a 19       		.uleb128 0x19
 1289 006b 03       		.uleb128 0x3
 1290 006c 0E       		.uleb128 0xe
 1291 006d 3A       		.uleb128 0x3a
 1292 006e 0B       		.uleb128 0xb
 1293 006f 3B       		.uleb128 0x3b
 1294 0070 0B       		.uleb128 0xb
 1295 0071 27       		.uleb128 0x27
 1296 0072 19       		.uleb128 0x19
 1297 0073 11       		.uleb128 0x11
 1298 0074 01       		.uleb128 0x1
 1299 0075 12       		.uleb128 0x12
 1300 0076 06       		.uleb128 0x6
 1301 0077 40       		.uleb128 0x40
 1302 0078 18       		.uleb128 0x18
 1303 0079 9742     		.uleb128 0x2117
 1304 007b 19       		.uleb128 0x19
 1305 007c 01       		.uleb128 0x1
 1306 007d 13       		.uleb128 0x13
 1307 007e 00       		.byte	0
ARM GAS  /tmp/cccdQp3d.s 			page 24


 1308 007f 00       		.byte	0
 1309 0080 0A       		.uleb128 0xa
 1310 0081 05       		.uleb128 0x5
 1311 0082 00       		.byte	0
 1312 0083 03       		.uleb128 0x3
 1313 0084 0E       		.uleb128 0xe
 1314 0085 3A       		.uleb128 0x3a
 1315 0086 0B       		.uleb128 0xb
 1316 0087 3B       		.uleb128 0x3b
 1317 0088 0B       		.uleb128 0xb
 1318 0089 49       		.uleb128 0x49
 1319 008a 13       		.uleb128 0x13
 1320 008b 02       		.uleb128 0x2
 1321 008c 17       		.uleb128 0x17
 1322 008d 00       		.byte	0
 1323 008e 00       		.byte	0
 1324 008f 0B       		.uleb128 0xb
 1325 0090 05       		.uleb128 0x5
 1326 0091 00       		.byte	0
 1327 0092 03       		.uleb128 0x3
 1328 0093 0E       		.uleb128 0xe
 1329 0094 3A       		.uleb128 0x3a
 1330 0095 0B       		.uleb128 0xb
 1331 0096 3B       		.uleb128 0x3b
 1332 0097 0B       		.uleb128 0xb
 1333 0098 49       		.uleb128 0x49
 1334 0099 13       		.uleb128 0x13
 1335 009a 02       		.uleb128 0x2
 1336 009b 18       		.uleb128 0x18
 1337 009c 00       		.byte	0
 1338 009d 00       		.byte	0
 1339 009e 0C       		.uleb128 0xc
 1340 009f 34       		.uleb128 0x34
 1341 00a0 00       		.byte	0
 1342 00a1 03       		.uleb128 0x3
 1343 00a2 08       		.uleb128 0x8
 1344 00a3 3A       		.uleb128 0x3a
 1345 00a4 0B       		.uleb128 0xb
 1346 00a5 3B       		.uleb128 0x3b
 1347 00a6 0B       		.uleb128 0xb
 1348 00a7 49       		.uleb128 0x49
 1349 00a8 13       		.uleb128 0x13
 1350 00a9 02       		.uleb128 0x2
 1351 00aa 17       		.uleb128 0x17
 1352 00ab 00       		.byte	0
 1353 00ac 00       		.byte	0
 1354 00ad 0D       		.uleb128 0xd
 1355 00ae 34       		.uleb128 0x34
 1356 00af 00       		.byte	0
 1357 00b0 03       		.uleb128 0x3
 1358 00b1 08       		.uleb128 0x8
 1359 00b2 3A       		.uleb128 0x3a
 1360 00b3 0B       		.uleb128 0xb
 1361 00b4 3B       		.uleb128 0x3b
 1362 00b5 0B       		.uleb128 0xb
 1363 00b6 49       		.uleb128 0x49
 1364 00b7 13       		.uleb128 0x13
ARM GAS  /tmp/cccdQp3d.s 			page 25


 1365 00b8 00       		.byte	0
 1366 00b9 00       		.byte	0
 1367 00ba 0E       		.uleb128 0xe
 1368 00bb 34       		.uleb128 0x34
 1369 00bc 00       		.byte	0
 1370 00bd 03       		.uleb128 0x3
 1371 00be 0E       		.uleb128 0xe
 1372 00bf 3A       		.uleb128 0x3a
 1373 00c0 0B       		.uleb128 0xb
 1374 00c1 3B       		.uleb128 0x3b
 1375 00c2 0B       		.uleb128 0xb
 1376 00c3 49       		.uleb128 0x49
 1377 00c4 13       		.uleb128 0x13
 1378 00c5 02       		.uleb128 0x2
 1379 00c6 17       		.uleb128 0x17
 1380 00c7 00       		.byte	0
 1381 00c8 00       		.byte	0
 1382 00c9 0F       		.uleb128 0xf
 1383 00ca 2E       		.uleb128 0x2e
 1384 00cb 01       		.byte	0x1
 1385 00cc 3F       		.uleb128 0x3f
 1386 00cd 19       		.uleb128 0x19
 1387 00ce 03       		.uleb128 0x3
 1388 00cf 0E       		.uleb128 0xe
 1389 00d0 3A       		.uleb128 0x3a
 1390 00d1 0B       		.uleb128 0xb
 1391 00d2 3B       		.uleb128 0x3b
 1392 00d3 05       		.uleb128 0x5
 1393 00d4 27       		.uleb128 0x27
 1394 00d5 19       		.uleb128 0x19
 1395 00d6 11       		.uleb128 0x11
 1396 00d7 01       		.uleb128 0x1
 1397 00d8 12       		.uleb128 0x12
 1398 00d9 06       		.uleb128 0x6
 1399 00da 40       		.uleb128 0x40
 1400 00db 18       		.uleb128 0x18
 1401 00dc 9742     		.uleb128 0x2117
 1402 00de 19       		.uleb128 0x19
 1403 00df 01       		.uleb128 0x1
 1404 00e0 13       		.uleb128 0x13
 1405 00e1 00       		.byte	0
 1406 00e2 00       		.byte	0
 1407 00e3 10       		.uleb128 0x10
 1408 00e4 05       		.uleb128 0x5
 1409 00e5 00       		.byte	0
 1410 00e6 03       		.uleb128 0x3
 1411 00e7 0E       		.uleb128 0xe
 1412 00e8 3A       		.uleb128 0x3a
 1413 00e9 0B       		.uleb128 0xb
 1414 00ea 3B       		.uleb128 0x3b
 1415 00eb 05       		.uleb128 0x5
 1416 00ec 49       		.uleb128 0x49
 1417 00ed 13       		.uleb128 0x13
 1418 00ee 02       		.uleb128 0x2
 1419 00ef 17       		.uleb128 0x17
 1420 00f0 00       		.byte	0
 1421 00f1 00       		.byte	0
ARM GAS  /tmp/cccdQp3d.s 			page 26


 1422 00f2 11       		.uleb128 0x11
 1423 00f3 05       		.uleb128 0x5
 1424 00f4 00       		.byte	0
 1425 00f5 03       		.uleb128 0x3
 1426 00f6 0E       		.uleb128 0xe
 1427 00f7 3A       		.uleb128 0x3a
 1428 00f8 0B       		.uleb128 0xb
 1429 00f9 3B       		.uleb128 0x3b
 1430 00fa 05       		.uleb128 0x5
 1431 00fb 49       		.uleb128 0x49
 1432 00fc 13       		.uleb128 0x13
 1433 00fd 02       		.uleb128 0x2
 1434 00fe 18       		.uleb128 0x18
 1435 00ff 00       		.byte	0
 1436 0100 00       		.byte	0
 1437 0101 12       		.uleb128 0x12
 1438 0102 34       		.uleb128 0x34
 1439 0103 00       		.byte	0
 1440 0104 03       		.uleb128 0x3
 1441 0105 08       		.uleb128 0x8
 1442 0106 3A       		.uleb128 0x3a
 1443 0107 0B       		.uleb128 0xb
 1444 0108 3B       		.uleb128 0x3b
 1445 0109 05       		.uleb128 0x5
 1446 010a 49       		.uleb128 0x49
 1447 010b 13       		.uleb128 0x13
 1448 010c 02       		.uleb128 0x2
 1449 010d 17       		.uleb128 0x17
 1450 010e 00       		.byte	0
 1451 010f 00       		.byte	0
 1452 0110 13       		.uleb128 0x13
 1453 0111 34       		.uleb128 0x34
 1454 0112 00       		.byte	0
 1455 0113 03       		.uleb128 0x3
 1456 0114 08       		.uleb128 0x8
 1457 0115 3A       		.uleb128 0x3a
 1458 0116 0B       		.uleb128 0xb
 1459 0117 3B       		.uleb128 0x3b
 1460 0118 05       		.uleb128 0x5
 1461 0119 49       		.uleb128 0x49
 1462 011a 13       		.uleb128 0x13
 1463 011b 00       		.byte	0
 1464 011c 00       		.byte	0
 1465 011d 14       		.uleb128 0x14
 1466 011e 34       		.uleb128 0x34
 1467 011f 00       		.byte	0
 1468 0120 03       		.uleb128 0x3
 1469 0121 0E       		.uleb128 0xe
 1470 0122 3A       		.uleb128 0x3a
 1471 0123 0B       		.uleb128 0xb
 1472 0124 3B       		.uleb128 0x3b
 1473 0125 05       		.uleb128 0x5
 1474 0126 49       		.uleb128 0x49
 1475 0127 13       		.uleb128 0x13
 1476 0128 02       		.uleb128 0x2
 1477 0129 17       		.uleb128 0x17
 1478 012a 00       		.byte	0
ARM GAS  /tmp/cccdQp3d.s 			page 27


 1479 012b 00       		.byte	0
 1480 012c 15       		.uleb128 0x15
 1481 012d 05       		.uleb128 0x5
 1482 012e 00       		.byte	0
 1483 012f 03       		.uleb128 0x3
 1484 0130 08       		.uleb128 0x8
 1485 0131 3A       		.uleb128 0x3a
 1486 0132 0B       		.uleb128 0xb
 1487 0133 3B       		.uleb128 0x3b
 1488 0134 0B       		.uleb128 0xb
 1489 0135 49       		.uleb128 0x49
 1490 0136 13       		.uleb128 0x13
 1491 0137 02       		.uleb128 0x2
 1492 0138 17       		.uleb128 0x17
 1493 0139 00       		.byte	0
 1494 013a 00       		.byte	0
 1495 013b 16       		.uleb128 0x16
 1496 013c 898201   		.uleb128 0x4109
 1497 013f 01       		.byte	0x1
 1498 0140 11       		.uleb128 0x11
 1499 0141 01       		.uleb128 0x1
 1500 0142 31       		.uleb128 0x31
 1501 0143 13       		.uleb128 0x13
 1502 0144 01       		.uleb128 0x1
 1503 0145 13       		.uleb128 0x13
 1504 0146 00       		.byte	0
 1505 0147 00       		.byte	0
 1506 0148 17       		.uleb128 0x17
 1507 0149 8A8201   		.uleb128 0x410a
 1508 014c 00       		.byte	0
 1509 014d 02       		.uleb128 0x2
 1510 014e 18       		.uleb128 0x18
 1511 014f 9142     		.uleb128 0x2111
 1512 0151 18       		.uleb128 0x18
 1513 0152 00       		.byte	0
 1514 0153 00       		.byte	0
 1515 0154 18       		.uleb128 0x18
 1516 0155 898201   		.uleb128 0x4109
 1517 0158 00       		.byte	0
 1518 0159 11       		.uleb128 0x11
 1519 015a 01       		.uleb128 0x1
 1520 015b 31       		.uleb128 0x31
 1521 015c 13       		.uleb128 0x13
 1522 015d 00       		.byte	0
 1523 015e 00       		.byte	0
 1524 015f 19       		.uleb128 0x19
 1525 0160 898201   		.uleb128 0x4109
 1526 0163 01       		.byte	0x1
 1527 0164 11       		.uleb128 0x11
 1528 0165 01       		.uleb128 0x1
 1529 0166 9542     		.uleb128 0x2115
 1530 0168 19       		.uleb128 0x19
 1531 0169 31       		.uleb128 0x31
 1532 016a 13       		.uleb128 0x13
 1533 016b 00       		.byte	0
 1534 016c 00       		.byte	0
 1535 016d 1A       		.uleb128 0x1a
ARM GAS  /tmp/cccdQp3d.s 			page 28


 1536 016e 26       		.uleb128 0x26
 1537 016f 00       		.byte	0
 1538 0170 49       		.uleb128 0x49
 1539 0171 13       		.uleb128 0x13
 1540 0172 00       		.byte	0
 1541 0173 00       		.byte	0
 1542 0174 1B       		.uleb128 0x1b
 1543 0175 2E       		.uleb128 0x2e
 1544 0176 01       		.byte	0x1
 1545 0177 3F       		.uleb128 0x3f
 1546 0178 19       		.uleb128 0x19
 1547 0179 03       		.uleb128 0x3
 1548 017a 0E       		.uleb128 0xe
 1549 017b 3A       		.uleb128 0x3a
 1550 017c 0B       		.uleb128 0xb
 1551 017d 3B       		.uleb128 0x3b
 1552 017e 0B       		.uleb128 0xb
 1553 017f 27       		.uleb128 0x27
 1554 0180 19       		.uleb128 0x19
 1555 0181 3C       		.uleb128 0x3c
 1556 0182 19       		.uleb128 0x19
 1557 0183 00       		.byte	0
 1558 0184 00       		.byte	0
 1559 0185 1C       		.uleb128 0x1c
 1560 0186 05       		.uleb128 0x5
 1561 0187 00       		.byte	0
 1562 0188 49       		.uleb128 0x49
 1563 0189 13       		.uleb128 0x13
 1564 018a 00       		.byte	0
 1565 018b 00       		.byte	0
 1566 018c 00       		.byte	0
 1567              		.section	.debug_loc,"",%progbits
 1568              	.Ldebug_loc0:
 1569              	.LLST0:
 1570 0000 00000000 		.4byte	.LVL0-.Ltext0
 1571 0004 16000000 		.4byte	.LVL2-.Ltext0
 1572 0008 0100     		.2byte	0x1
 1573 000a 50       		.byte	0x50
 1574 000b 16000000 		.4byte	.LVL2-.Ltext0
 1575 000f 22000000 		.4byte	.LVL4-.Ltext0
 1576 0013 0100     		.2byte	0x1
 1577 0015 54       		.byte	0x54
 1578 0016 22000000 		.4byte	.LVL4-.Ltext0
 1579 001a 28000000 		.4byte	.LVL5-.Ltext0
 1580 001e 0100     		.2byte	0x1
 1581 0020 52       		.byte	0x52
 1582 0021 28000000 		.4byte	.LVL5-.Ltext0
 1583 0025 26010000 		.4byte	.LVL37-.Ltext0
 1584 0029 0200     		.2byte	0x2
 1585 002b 91       		.byte	0x91
 1586 002c 50       		.sleb128 -48
 1587 002d 26010000 		.4byte	.LVL37-.Ltext0
 1588 0031 28010000 		.4byte	.LVL38-.Ltext0
 1589 0035 0100     		.2byte	0x1
 1590 0037 50       		.byte	0x50
 1591 0038 28010000 		.4byte	.LVL38-.Ltext0
 1592 003c 74010000 		.4byte	.LFE136-.Ltext0
ARM GAS  /tmp/cccdQp3d.s 			page 29


 1593 0040 0200     		.2byte	0x2
 1594 0042 91       		.byte	0x91
 1595 0043 50       		.sleb128 -48
 1596 0044 00000000 		.4byte	0
 1597 0048 00000000 		.4byte	0
 1598              	.LLST1:
 1599 004c 00000000 		.4byte	.LVL0-.Ltext0
 1600 0050 1C000000 		.4byte	.LVL3-.Ltext0
 1601 0054 0100     		.2byte	0x1
 1602 0056 52       		.byte	0x52
 1603 0057 1C000000 		.4byte	.LVL3-.Ltext0
 1604 005b 26010000 		.4byte	.LVL37-.Ltext0
 1605 005f 0200     		.2byte	0x2
 1606 0061 91       		.byte	0x91
 1607 0062 54       		.sleb128 -44
 1608 0063 26010000 		.4byte	.LVL37-.Ltext0
 1609 0067 28010000 		.4byte	.LVL38-.Ltext0
 1610 006b 0100     		.2byte	0x1
 1611 006d 52       		.byte	0x52
 1612 006e 28010000 		.4byte	.LVL38-.Ltext0
 1613 0072 74010000 		.4byte	.LFE136-.Ltext0
 1614 0076 0200     		.2byte	0x2
 1615 0078 91       		.byte	0x91
 1616 0079 54       		.sleb128 -44
 1617 007a 00000000 		.4byte	0
 1618 007e 00000000 		.4byte	0
 1619              	.LLST2:
 1620 0082 00000000 		.4byte	.LVL0-.Ltext0
 1621 0086 82000000 		.4byte	.LVL14-.Ltext0
 1622 008a 0100     		.2byte	0x1
 1623 008c 53       		.byte	0x53
 1624 008d 82000000 		.4byte	.LVL14-.Ltext0
 1625 0091 88000000 		.4byte	.LVL15-.Ltext0
 1626 0095 0400     		.2byte	0x4
 1627 0097 F3       		.byte	0xf3
 1628 0098 01       		.uleb128 0x1
 1629 0099 53       		.byte	0x53
 1630 009a 9F       		.byte	0x9f
 1631 009b 88000000 		.4byte	.LVL15-.Ltext0
 1632 009f 16010000 		.4byte	.LVL32-.Ltext0
 1633 00a3 0100     		.2byte	0x1
 1634 00a5 5B       		.byte	0x5b
 1635 00a6 1E010000 		.4byte	.LVL34-.Ltext0
 1636 00aa 26010000 		.4byte	.LVL37-.Ltext0
 1637 00ae 0100     		.2byte	0x1
 1638 00b0 5B       		.byte	0x5b
 1639 00b1 26010000 		.4byte	.LVL37-.Ltext0
 1640 00b5 28010000 		.4byte	.LVL38-.Ltext0
 1641 00b9 0100     		.2byte	0x1
 1642 00bb 53       		.byte	0x53
 1643 00bc 00000000 		.4byte	0
 1644 00c0 00000000 		.4byte	0
 1645              	.LLST3:
 1646 00c4 00000000 		.4byte	.LVL0-.Ltext0
 1647 00c8 28000000 		.4byte	.LVL5-.Ltext0
 1648 00cc 0200     		.2byte	0x2
 1649 00ce 30       		.byte	0x30
ARM GAS  /tmp/cccdQp3d.s 			page 30


 1650 00cf 9F       		.byte	0x9f
 1651 00d0 AA000000 		.4byte	.LVL20-.Ltext0
 1652 00d4 B4000000 		.4byte	.LVL21-.Ltext0
 1653 00d8 0100     		.2byte	0x1
 1654 00da 5E       		.byte	0x5e
 1655 00db B4000000 		.4byte	.LVL21-.Ltext0
 1656 00df 26010000 		.4byte	.LVL37-.Ltext0
 1657 00e3 0100     		.2byte	0x1
 1658 00e5 54       		.byte	0x54
 1659 00e6 26010000 		.4byte	.LVL37-.Ltext0
 1660 00ea 30010000 		.4byte	.LVL39-.Ltext0
 1661 00ee 0200     		.2byte	0x2
 1662 00f0 30       		.byte	0x30
 1663 00f1 9F       		.byte	0x9f
 1664 00f2 30010000 		.4byte	.LVL39-.Ltext0
 1665 00f6 6E010000 		.4byte	.LVL47-.Ltext0
 1666 00fa 0100     		.2byte	0x1
 1667 00fc 50       		.byte	0x50
 1668 00fd 00000000 		.4byte	0
 1669 0101 00000000 		.4byte	0
 1670              	.LLST4:
 1671 0105 90000000 		.4byte	.LVL17-.Ltext0
 1672 0109 A2000000 		.4byte	.LVL18-.Ltext0
 1673 010d 0200     		.2byte	0x2
 1674 010f 30       		.byte	0x30
 1675 0110 9F       		.byte	0x9f
 1676 0111 A2000000 		.4byte	.LVL18-.Ltext0
 1677 0115 26010000 		.4byte	.LVL37-.Ltext0
 1678 0119 0100     		.2byte	0x1
 1679 011b 5E       		.byte	0x5e
 1680 011c 00000000 		.4byte	0
 1681 0120 00000000 		.4byte	0
 1682              	.LLST5:
 1683 0124 00000000 		.4byte	.LVL0-.Ltext0
 1684 0128 08000000 		.4byte	.LVL1-.Ltext0
 1685 012c 0500     		.2byte	0x5
 1686 012e 71       		.byte	0x71
 1687 012f 00       		.sleb128 0
 1688 0130 31       		.byte	0x31
 1689 0131 25       		.byte	0x25
 1690 0132 9F       		.byte	0x9f
 1691 0133 08000000 		.4byte	.LVL1-.Ltext0
 1692 0137 28000000 		.4byte	.LVL5-.Ltext0
 1693 013b 0100     		.2byte	0x1
 1694 013d 56       		.byte	0x56
 1695 013e 88000000 		.4byte	.LVL15-.Ltext0
 1696 0142 8C000000 		.4byte	.LVL16-.Ltext0
 1697 0146 0100     		.2byte	0x1
 1698 0148 56       		.byte	0x56
 1699 0149 8C000000 		.4byte	.LVL16-.Ltext0
 1700 014d 1A010000 		.4byte	.LVL33-.Ltext0
 1701 0151 0200     		.2byte	0x2
 1702 0153 91       		.byte	0x91
 1703 0154 4C       		.sleb128 -52
 1704 0155 1E010000 		.4byte	.LVL34-.Ltext0
 1705 0159 26010000 		.4byte	.LVL37-.Ltext0
 1706 015d 0100     		.2byte	0x1
ARM GAS  /tmp/cccdQp3d.s 			page 31


 1707 015f 53       		.byte	0x53
 1708 0160 26010000 		.4byte	.LVL37-.Ltext0
 1709 0164 28010000 		.4byte	.LVL38-.Ltext0
 1710 0168 0100     		.2byte	0x1
 1711 016a 56       		.byte	0x56
 1712 016b 00000000 		.4byte	0
 1713 016f 00000000 		.4byte	0
 1714              	.LLST6:
 1715 0173 8C000000 		.4byte	.LVL16-.Ltext0
 1716 0177 20010000 		.4byte	.LVL35-.Ltext0
 1717 017b 0100     		.2byte	0x1
 1718 017d 56       		.byte	0x56
 1719 017e 00000000 		.4byte	0
 1720 0182 00000000 		.4byte	0
 1721              	.LLST7:
 1722 0186 00000000 		.4byte	.LVL0-.Ltext0
 1723 018a 08000000 		.4byte	.LVL1-.Ltext0
 1724 018e 0500     		.2byte	0x5
 1725 0190 71       		.byte	0x71
 1726 0191 00       		.sleb128 0
 1727 0192 31       		.byte	0x31
 1728 0193 25       		.byte	0x25
 1729 0194 9F       		.byte	0x9f
 1730 0195 08000000 		.4byte	.LVL1-.Ltext0
 1731 0199 90000000 		.4byte	.LVL17-.Ltext0
 1732 019d 0100     		.2byte	0x1
 1733 019f 56       		.byte	0x56
 1734 01a0 90000000 		.4byte	.LVL17-.Ltext0
 1735 01a4 22010000 		.4byte	.LVL36-.Ltext0
 1736 01a8 0100     		.2byte	0x1
 1737 01aa 58       		.byte	0x58
 1738 01ab 22010000 		.4byte	.LVL36-.Ltext0
 1739 01af 74010000 		.4byte	.LFE136-.Ltext0
 1740 01b3 0100     		.2byte	0x1
 1741 01b5 56       		.byte	0x56
 1742 01b6 00000000 		.4byte	0
 1743 01ba 00000000 		.4byte	0
 1744              	.LLST8:
 1745 01be 00000000 		.4byte	.LVL0-.Ltext0
 1746 01c2 28000000 		.4byte	.LVL5-.Ltext0
 1747 01c6 0200     		.2byte	0x2
 1748 01c8 30       		.byte	0x30
 1749 01c9 9F       		.byte	0x9f
 1750 01ca 90000000 		.4byte	.LVL17-.Ltext0
 1751 01ce A2000000 		.4byte	.LVL18-.Ltext0
 1752 01d2 0200     		.2byte	0x2
 1753 01d4 30       		.byte	0x30
 1754 01d5 9F       		.byte	0x9f
 1755 01d6 26010000 		.4byte	.LVL37-.Ltext0
 1756 01da 28010000 		.4byte	.LVL38-.Ltext0
 1757 01de 0200     		.2byte	0x2
 1758 01e0 30       		.byte	0x30
 1759 01e1 9F       		.byte	0x9f
 1760 01e2 00000000 		.4byte	0
 1761 01e6 00000000 		.4byte	0
 1762              	.LLST9:
 1763 01ea 44000000 		.4byte	.LVL7-.Ltext0
ARM GAS  /tmp/cccdQp3d.s 			page 32


 1764 01ee 8C000000 		.4byte	.LVL16-.Ltext0
 1765 01f2 0200     		.2byte	0x2
 1766 01f4 90       		.byte	0x90
 1767 01f5 48       		.uleb128 0x48
 1768 01f6 C8000000 		.4byte	.LVL24-.Ltext0
 1769 01fa 26010000 		.4byte	.LVL37-.Ltext0
 1770 01fe 0200     		.2byte	0x2
 1771 0200 90       		.byte	0x90
 1772 0201 49       		.uleb128 0x49
 1773 0202 38010000 		.4byte	.LVL40-.Ltext0
 1774 0206 4A010000 		.4byte	.LVL44-.Ltext0
 1775 020a 0800     		.2byte	0x8
 1776 020c F5       		.byte	0xf5
 1777 020d 4C       		.uleb128 0x4c
 1778 020e 21       		.uleb128 0x21
 1779 020f F5       		.byte	0xf5
 1780 0210 4D       		.uleb128 0x4d
 1781 0211 21       		.uleb128 0x21
 1782 0212 1C       		.byte	0x1c
 1783 0213 9F       		.byte	0x9f
 1784 0214 4A010000 		.4byte	.LVL44-.Ltext0
 1785 0218 6E010000 		.4byte	.LVL47-.Ltext0
 1786 021c 0200     		.2byte	0x2
 1787 021e 90       		.byte	0x90
 1788 021f 4D       		.uleb128 0x4d
 1789 0220 00000000 		.4byte	0
 1790 0224 00000000 		.4byte	0
 1791              	.LLST10:
 1792 0228 48000000 		.4byte	.LVL8-.Ltext0
 1793 022c 8C000000 		.4byte	.LVL16-.Ltext0
 1794 0230 0200     		.2byte	0x2
 1795 0232 90       		.byte	0x90
 1796 0233 47       		.uleb128 0x47
 1797 0234 CC000000 		.4byte	.LVL25-.Ltext0
 1798 0238 26010000 		.4byte	.LVL37-.Ltext0
 1799 023c 0200     		.2byte	0x2
 1800 023e 90       		.byte	0x90
 1801 023f 48       		.uleb128 0x48
 1802 0240 40010000 		.4byte	.LVL41-.Ltext0
 1803 0244 52010000 		.4byte	.LVL46-.Ltext0
 1804 0248 0800     		.2byte	0x8
 1805 024a F5       		.byte	0xf5
 1806 024b 4E       		.uleb128 0x4e
 1807 024c 21       		.uleb128 0x21
 1808 024d F5       		.byte	0xf5
 1809 024e 4F       		.uleb128 0x4f
 1810 024f 21       		.uleb128 0x21
 1811 0250 1C       		.byte	0x1c
 1812 0251 9F       		.byte	0x9f
 1813 0252 52010000 		.4byte	.LVL46-.Ltext0
 1814 0256 6E010000 		.4byte	.LVL47-.Ltext0
 1815 025a 0200     		.2byte	0x2
 1816 025c 90       		.byte	0x90
 1817 025d 4F       		.uleb128 0x4f
 1818 025e 00000000 		.4byte	0
 1819 0262 00000000 		.4byte	0
 1820              	.LLST11:
ARM GAS  /tmp/cccdQp3d.s 			page 33


 1821 0266 40000000 		.4byte	.LVL6-.Ltext0
 1822 026a 8C000000 		.4byte	.LVL16-.Ltext0
 1823 026e 0200     		.2byte	0x2
 1824 0270 90       		.byte	0x90
 1825 0271 49       		.uleb128 0x49
 1826 0272 A6000000 		.4byte	.LVL19-.Ltext0
 1827 0276 26010000 		.4byte	.LVL37-.Ltext0
 1828 027a 0200     		.2byte	0x2
 1829 027c 90       		.byte	0x90
 1830 027d 46       		.uleb128 0x46
 1831 027e 00000000 		.4byte	0
 1832 0282 00000000 		.4byte	0
 1833              	.LLST12:
 1834 0286 40000000 		.4byte	.LVL6-.Ltext0
 1835 028a 50000000 		.4byte	.LVL9-.Ltext0
 1836 028e 0200     		.2byte	0x2
 1837 0290 90       		.byte	0x90
 1838 0291 4B       		.uleb128 0x4b
 1839 0292 50000000 		.4byte	.LVL9-.Ltext0
 1840 0296 58000000 		.4byte	.LVL10-.Ltext0
 1841 029a 0200     		.2byte	0x2
 1842 029c 74       		.byte	0x74
 1843 029d 04       		.sleb128 4
 1844 029e AA000000 		.4byte	.LVL20-.Ltext0
 1845 02a2 26010000 		.4byte	.LVL37-.Ltext0
 1846 02a6 0200     		.2byte	0x2
 1847 02a8 90       		.byte	0x90
 1848 02a9 47       		.uleb128 0x47
 1849 02aa 00000000 		.4byte	0
 1850 02ae 00000000 		.4byte	0
 1851              	.LLST13:
 1852 02b2 48000000 		.4byte	.LVL8-.Ltext0
 1853 02b6 8C000000 		.4byte	.LVL16-.Ltext0
 1854 02ba 0800     		.2byte	0x8
 1855 02bc F5       		.byte	0xf5
 1856 02bd 48       		.uleb128 0x48
 1857 02be 21       		.uleb128 0x21
 1858 02bf F5       		.byte	0xf5
 1859 02c0 49       		.uleb128 0x49
 1860 02c1 21       		.uleb128 0x21
 1861 02c2 1E       		.byte	0x1e
 1862 02c3 9F       		.byte	0x9f
 1863 02c4 CC000000 		.4byte	.LVL25-.Ltext0
 1864 02c8 26010000 		.4byte	.LVL37-.Ltext0
 1865 02cc 0800     		.2byte	0x8
 1866 02ce F5       		.byte	0xf5
 1867 02cf 49       		.uleb128 0x49
 1868 02d0 21       		.uleb128 0x21
 1869 02d1 F5       		.byte	0xf5
 1870 02d2 46       		.uleb128 0x46
 1871 02d3 21       		.uleb128 0x21
 1872 02d4 1E       		.byte	0x1e
 1873 02d5 9F       		.byte	0x9f
 1874 02d6 00000000 		.4byte	0
 1875 02da 00000000 		.4byte	0
 1876              	.LLST14:
 1877 02de 48000000 		.4byte	.LVL8-.Ltext0
ARM GAS  /tmp/cccdQp3d.s 			page 34


 1878 02e2 50000000 		.4byte	.LVL9-.Ltext0
 1879 02e6 0800     		.2byte	0x8
 1880 02e8 F5       		.byte	0xf5
 1881 02e9 47       		.uleb128 0x47
 1882 02ea 21       		.uleb128 0x21
 1883 02eb F5       		.byte	0xf5
 1884 02ec 4B       		.uleb128 0x4b
 1885 02ed 21       		.uleb128 0x21
 1886 02ee 1E       		.byte	0x1e
 1887 02ef 9F       		.byte	0x9f
 1888 02f0 50000000 		.4byte	.LVL9-.Ltext0
 1889 02f4 5C000000 		.4byte	.LVL11-.Ltext0
 1890 02f8 0200     		.2byte	0x2
 1891 02fa 90       		.byte	0x90
 1892 02fb 4B       		.uleb128 0x4b
 1893 02fc CC000000 		.4byte	.LVL25-.Ltext0
 1894 0300 D4000000 		.4byte	.LVL26-.Ltext0
 1895 0304 0800     		.2byte	0x8
 1896 0306 F5       		.byte	0xf5
 1897 0307 48       		.uleb128 0x48
 1898 0308 21       		.uleb128 0x21
 1899 0309 F5       		.byte	0xf5
 1900 030a 47       		.uleb128 0x47
 1901 030b 21       		.uleb128 0x21
 1902 030c 1E       		.byte	0x1e
 1903 030d 9F       		.byte	0x9f
 1904 030e D4000000 		.4byte	.LVL26-.Ltext0
 1905 0312 E0000000 		.4byte	.LVL28-.Ltext0
 1906 0316 0200     		.2byte	0x2
 1907 0318 90       		.byte	0x90
 1908 0319 4A       		.uleb128 0x4a
 1909 031a E0000000 		.4byte	.LVL28-.Ltext0
 1910 031e 26010000 		.4byte	.LVL37-.Ltext0
 1911 0322 0800     		.2byte	0x8
 1912 0324 F5       		.byte	0xf5
 1913 0325 48       		.uleb128 0x48
 1914 0326 21       		.uleb128 0x21
 1915 0327 F5       		.byte	0xf5
 1916 0328 47       		.uleb128 0x47
 1917 0329 21       		.uleb128 0x21
 1918 032a 1E       		.byte	0x1e
 1919 032b 9F       		.byte	0x9f
 1920 032c 00000000 		.4byte	0
 1921 0330 00000000 		.4byte	0
 1922              	.LLST15:
 1923 0334 48000000 		.4byte	.LVL8-.Ltext0
 1924 0338 8C000000 		.4byte	.LVL16-.Ltext0
 1925 033c 0800     		.2byte	0x8
 1926 033e F5       		.byte	0xf5
 1927 033f 47       		.uleb128 0x47
 1928 0340 21       		.uleb128 0x21
 1929 0341 F5       		.byte	0xf5
 1930 0342 49       		.uleb128 0x49
 1931 0343 21       		.uleb128 0x21
 1932 0344 1E       		.byte	0x1e
 1933 0345 9F       		.byte	0x9f
 1934 0346 CC000000 		.4byte	.LVL25-.Ltext0
ARM GAS  /tmp/cccdQp3d.s 			page 35


 1935 034a 26010000 		.4byte	.LVL37-.Ltext0
 1936 034e 0800     		.2byte	0x8
 1937 0350 F5       		.byte	0xf5
 1938 0351 48       		.uleb128 0x48
 1939 0352 21       		.uleb128 0x21
 1940 0353 F5       		.byte	0xf5
 1941 0354 46       		.uleb128 0x46
 1942 0355 21       		.uleb128 0x21
 1943 0356 1E       		.byte	0x1e
 1944 0357 9F       		.byte	0x9f
 1945 0358 00000000 		.4byte	0
 1946 035c 00000000 		.4byte	0
 1947              	.LLST16:
 1948 0360 48000000 		.4byte	.LVL8-.Ltext0
 1949 0364 50000000 		.4byte	.LVL9-.Ltext0
 1950 0368 0800     		.2byte	0x8
 1951 036a F5       		.byte	0xf5
 1952 036b 48       		.uleb128 0x48
 1953 036c 21       		.uleb128 0x21
 1954 036d F5       		.byte	0xf5
 1955 036e 4B       		.uleb128 0x4b
 1956 036f 21       		.uleb128 0x21
 1957 0370 1E       		.byte	0x1e
 1958 0371 9F       		.byte	0x9f
 1959 0372 50000000 		.4byte	.LVL9-.Ltext0
 1960 0376 58000000 		.4byte	.LVL10-.Ltext0
 1961 037a 0A00     		.2byte	0xa
 1962 037c F5       		.byte	0xf5
 1963 037d 48       		.uleb128 0x48
 1964 037e 21       		.uleb128 0x21
 1965 037f 74       		.byte	0x74
 1966 0380 04       		.sleb128 4
 1967 0381 F6       		.byte	0xf6
 1968 0382 04       		.byte	0x4
 1969 0383 21       		.uleb128 0x21
 1970 0384 1E       		.byte	0x1e
 1971 0385 9F       		.byte	0x9f
 1972 0386 CC000000 		.4byte	.LVL25-.Ltext0
 1973 038a 26010000 		.4byte	.LVL37-.Ltext0
 1974 038e 0800     		.2byte	0x8
 1975 0390 F5       		.byte	0xf5
 1976 0391 49       		.uleb128 0x49
 1977 0392 21       		.uleb128 0x21
 1978 0393 F5       		.byte	0xf5
 1979 0394 47       		.uleb128 0x47
 1980 0395 21       		.uleb128 0x21
 1981 0396 1E       		.byte	0x1e
 1982 0397 9F       		.byte	0x9f
 1983 0398 00000000 		.4byte	0
 1984 039c 00000000 		.4byte	0
 1985              	.LLST17:
 1986 03a0 40000000 		.4byte	.LVL6-.Ltext0
 1987 03a4 64000000 		.4byte	.LVL12-.Ltext0
 1988 03a8 0800     		.2byte	0x8
 1989 03aa F5       		.byte	0xf5
 1990 03ab 4C       		.uleb128 0x4c
 1991 03ac 21       		.uleb128 0x21
ARM GAS  /tmp/cccdQp3d.s 			page 36


 1992 03ad F5       		.byte	0xf5
 1993 03ae 4D       		.uleb128 0x4d
 1994 03af 21       		.uleb128 0x21
 1995 03b0 22       		.byte	0x22
 1996 03b1 9F       		.byte	0x9f
 1997 03b2 64000000 		.4byte	.LVL12-.Ltext0
 1998 03b6 C0000000 		.4byte	.LVL22-.Ltext0
 1999 03ba 0200     		.2byte	0x2
 2000 03bc 90       		.byte	0x90
 2001 03bd 4D       		.uleb128 0x4d
 2002 03be C0000000 		.4byte	.LVL22-.Ltext0
 2003 03c2 E4000000 		.4byte	.LVL29-.Ltext0
 2004 03c6 0800     		.2byte	0x8
 2005 03c8 F5       		.byte	0xf5
 2006 03c9 4C       		.uleb128 0x4c
 2007 03ca 21       		.uleb128 0x21
 2008 03cb F5       		.byte	0xf5
 2009 03cc 4D       		.uleb128 0x4d
 2010 03cd 21       		.uleb128 0x21
 2011 03ce 22       		.byte	0x22
 2012 03cf 9F       		.byte	0x9f
 2013 03d0 E4000000 		.4byte	.LVL29-.Ltext0
 2014 03d4 26010000 		.4byte	.LVL37-.Ltext0
 2015 03d8 0200     		.2byte	0x2
 2016 03da 90       		.byte	0x90
 2017 03db 4D       		.uleb128 0x4d
 2018 03dc 38010000 		.4byte	.LVL40-.Ltext0
 2019 03e0 44010000 		.4byte	.LVL42-.Ltext0
 2020 03e4 0800     		.2byte	0x8
 2021 03e6 F5       		.byte	0xf5
 2022 03e7 4C       		.uleb128 0x4c
 2023 03e8 21       		.uleb128 0x21
 2024 03e9 F5       		.byte	0xf5
 2025 03ea 4D       		.uleb128 0x4d
 2026 03eb 21       		.uleb128 0x21
 2027 03ec 22       		.byte	0x22
 2028 03ed 9F       		.byte	0x9f
 2029 03ee 44010000 		.4byte	.LVL42-.Ltext0
 2030 03f2 6E010000 		.4byte	.LVL47-.Ltext0
 2031 03f6 0200     		.2byte	0x2
 2032 03f8 90       		.byte	0x90
 2033 03f9 4B       		.uleb128 0x4b
 2034 03fa 00000000 		.4byte	0
 2035 03fe 00000000 		.4byte	0
 2036              	.LLST18:
 2037 0402 48000000 		.4byte	.LVL8-.Ltext0
 2038 0406 68000000 		.4byte	.LVL13-.Ltext0
 2039 040a 0800     		.2byte	0x8
 2040 040c F5       		.byte	0xf5
 2041 040d 4E       		.uleb128 0x4e
 2042 040e 21       		.uleb128 0x21
 2043 040f F5       		.byte	0xf5
 2044 0410 4F       		.uleb128 0x4f
 2045 0411 21       		.uleb128 0x21
 2046 0412 22       		.byte	0x22
 2047 0413 9F       		.byte	0x9f
 2048 0414 68000000 		.4byte	.LVL13-.Ltext0
ARM GAS  /tmp/cccdQp3d.s 			page 37


 2049 0418 C4000000 		.4byte	.LVL23-.Ltext0
 2050 041c 0200     		.2byte	0x2
 2051 041e 90       		.byte	0x90
 2052 041f 4F       		.uleb128 0x4f
 2053 0420 CC000000 		.4byte	.LVL25-.Ltext0
 2054 0424 E8000000 		.4byte	.LVL30-.Ltext0
 2055 0428 0800     		.2byte	0x8
 2056 042a F5       		.byte	0xf5
 2057 042b 4E       		.uleb128 0x4e
 2058 042c 21       		.uleb128 0x21
 2059 042d F5       		.byte	0xf5
 2060 042e 4F       		.uleb128 0x4f
 2061 042f 21       		.uleb128 0x21
 2062 0430 22       		.byte	0x22
 2063 0431 9F       		.byte	0x9f
 2064 0432 E8000000 		.4byte	.LVL30-.Ltext0
 2065 0436 26010000 		.4byte	.LVL37-.Ltext0
 2066 043a 0200     		.2byte	0x2
 2067 043c 90       		.byte	0x90
 2068 043d 4F       		.uleb128 0x4f
 2069 043e 40010000 		.4byte	.LVL41-.Ltext0
 2070 0442 4E010000 		.4byte	.LVL45-.Ltext0
 2071 0446 0800     		.2byte	0x8
 2072 0448 F5       		.byte	0xf5
 2073 0449 4E       		.uleb128 0x4e
 2074 044a 21       		.uleb128 0x21
 2075 044b F5       		.byte	0xf5
 2076 044c 4F       		.uleb128 0x4f
 2077 044d 21       		.uleb128 0x21
 2078 044e 22       		.byte	0x22
 2079 044f 9F       		.byte	0x9f
 2080 0450 4E010000 		.4byte	.LVL45-.Ltext0
 2081 0454 6E010000 		.4byte	.LVL47-.Ltext0
 2082 0458 0200     		.2byte	0x2
 2083 045a 90       		.byte	0x90
 2084 045b 4C       		.uleb128 0x4c
 2085 045c 00000000 		.4byte	0
 2086 0460 00000000 		.4byte	0
 2087              	.LLST19:
 2088 0464 80010000 		.4byte	.LVL48-.Ltext0
 2089 0468 96010000 		.4byte	.LVL50-.Ltext0
 2090 046c 0100     		.2byte	0x1
 2091 046e 50       		.byte	0x50
 2092 046f 96010000 		.4byte	.LVL50-.Ltext0
 2093 0473 A2010000 		.4byte	.LVL52-.Ltext0
 2094 0477 0100     		.2byte	0x1
 2095 0479 54       		.byte	0x54
 2096 047a A2010000 		.4byte	.LVL52-.Ltext0
 2097 047e A8010000 		.4byte	.LVL53-.Ltext0
 2098 0482 0100     		.2byte	0x1
 2099 0484 52       		.byte	0x52
 2100 0485 A8010000 		.4byte	.LVL53-.Ltext0
 2101 0489 A6020000 		.4byte	.LVL86-.Ltext0
 2102 048d 0200     		.2byte	0x2
 2103 048f 91       		.byte	0x91
 2104 0490 50       		.sleb128 -48
 2105 0491 A6020000 		.4byte	.LVL86-.Ltext0
ARM GAS  /tmp/cccdQp3d.s 			page 38


 2106 0495 A8020000 		.4byte	.LVL87-.Ltext0
 2107 0499 0100     		.2byte	0x1
 2108 049b 50       		.byte	0x50
 2109 049c A8020000 		.4byte	.LVL87-.Ltext0
 2110 04a0 04030000 		.4byte	.LFE137-.Ltext0
 2111 04a4 0200     		.2byte	0x2
 2112 04a6 91       		.byte	0x91
 2113 04a7 50       		.sleb128 -48
 2114 04a8 00000000 		.4byte	0
 2115 04ac 00000000 		.4byte	0
 2116              	.LLST20:
 2117 04b0 80010000 		.4byte	.LVL48-.Ltext0
 2118 04b4 9C010000 		.4byte	.LVL51-.Ltext0
 2119 04b8 0100     		.2byte	0x1
 2120 04ba 52       		.byte	0x52
 2121 04bb 9C010000 		.4byte	.LVL51-.Ltext0
 2122 04bf A6020000 		.4byte	.LVL86-.Ltext0
 2123 04c3 0200     		.2byte	0x2
 2124 04c5 91       		.byte	0x91
 2125 04c6 54       		.sleb128 -44
 2126 04c7 A6020000 		.4byte	.LVL86-.Ltext0
 2127 04cb A8020000 		.4byte	.LVL87-.Ltext0
 2128 04cf 0100     		.2byte	0x1
 2129 04d1 52       		.byte	0x52
 2130 04d2 A8020000 		.4byte	.LVL87-.Ltext0
 2131 04d6 04030000 		.4byte	.LFE137-.Ltext0
 2132 04da 0200     		.2byte	0x2
 2133 04dc 91       		.byte	0x91
 2134 04dd 54       		.sleb128 -44
 2135 04de 00000000 		.4byte	0
 2136 04e2 00000000 		.4byte	0
 2137              	.LLST21:
 2138 04e6 80010000 		.4byte	.LVL48-.Ltext0
 2139 04ea 02020000 		.4byte	.LVL63-.Ltext0
 2140 04ee 0100     		.2byte	0x1
 2141 04f0 53       		.byte	0x53
 2142 04f1 02020000 		.4byte	.LVL63-.Ltext0
 2143 04f5 08020000 		.4byte	.LVL64-.Ltext0
 2144 04f9 0400     		.2byte	0x4
 2145 04fb F3       		.byte	0xf3
 2146 04fc 01       		.uleb128 0x1
 2147 04fd 53       		.byte	0x53
 2148 04fe 9F       		.byte	0x9f
 2149 04ff 08020000 		.4byte	.LVL64-.Ltext0
 2150 0503 96020000 		.4byte	.LVL81-.Ltext0
 2151 0507 0100     		.2byte	0x1
 2152 0509 5B       		.byte	0x5b
 2153 050a 9E020000 		.4byte	.LVL83-.Ltext0
 2154 050e A6020000 		.4byte	.LVL86-.Ltext0
 2155 0512 0100     		.2byte	0x1
 2156 0514 5B       		.byte	0x5b
 2157 0515 A6020000 		.4byte	.LVL86-.Ltext0
 2158 0519 A8020000 		.4byte	.LVL87-.Ltext0
 2159 051d 0100     		.2byte	0x1
 2160 051f 53       		.byte	0x53
 2161 0520 00000000 		.4byte	0
 2162 0524 00000000 		.4byte	0
ARM GAS  /tmp/cccdQp3d.s 			page 39


 2163              	.LLST22:
 2164 0528 80010000 		.4byte	.LVL48-.Ltext0
 2165 052c A8010000 		.4byte	.LVL53-.Ltext0
 2166 0530 0200     		.2byte	0x2
 2167 0532 30       		.byte	0x30
 2168 0533 9F       		.byte	0x9f
 2169 0534 2A020000 		.4byte	.LVL69-.Ltext0
 2170 0538 34020000 		.4byte	.LVL70-.Ltext0
 2171 053c 0100     		.2byte	0x1
 2172 053e 5E       		.byte	0x5e
 2173 053f 34020000 		.4byte	.LVL70-.Ltext0
 2174 0543 A6020000 		.4byte	.LVL86-.Ltext0
 2175 0547 0100     		.2byte	0x1
 2176 0549 54       		.byte	0x54
 2177 054a A6020000 		.4byte	.LVL86-.Ltext0
 2178 054e B0020000 		.4byte	.LVL88-.Ltext0
 2179 0552 0200     		.2byte	0x2
 2180 0554 30       		.byte	0x30
 2181 0555 9F       		.byte	0x9f
 2182 0556 B0020000 		.4byte	.LVL88-.Ltext0
 2183 055a FE020000 		.4byte	.LVL101-.Ltext0
 2184 055e 0100     		.2byte	0x1
 2185 0560 50       		.byte	0x50
 2186 0561 00000000 		.4byte	0
 2187 0565 00000000 		.4byte	0
 2188              	.LLST23:
 2189 0569 10020000 		.4byte	.LVL66-.Ltext0
 2190 056d 22020000 		.4byte	.LVL67-.Ltext0
 2191 0571 0200     		.2byte	0x2
 2192 0573 30       		.byte	0x30
 2193 0574 9F       		.byte	0x9f
 2194 0575 22020000 		.4byte	.LVL67-.Ltext0
 2195 0579 A6020000 		.4byte	.LVL86-.Ltext0
 2196 057d 0100     		.2byte	0x1
 2197 057f 5E       		.byte	0x5e
 2198 0580 00000000 		.4byte	0
 2199 0584 00000000 		.4byte	0
 2200              	.LLST24:
 2201 0588 08020000 		.4byte	.LVL64-.Ltext0
 2202 058c 0C020000 		.4byte	.LVL65-.Ltext0
 2203 0590 0100     		.2byte	0x1
 2204 0592 56       		.byte	0x56
 2205 0593 0C020000 		.4byte	.LVL65-.Ltext0
 2206 0597 9A020000 		.4byte	.LVL82-.Ltext0
 2207 059b 0200     		.2byte	0x2
 2208 059d 91       		.byte	0x91
 2209 059e 4C       		.sleb128 -52
 2210 059f 9E020000 		.4byte	.LVL83-.Ltext0
 2211 05a3 A6020000 		.4byte	.LVL86-.Ltext0
 2212 05a7 0100     		.2byte	0x1
 2213 05a9 53       		.byte	0x53
 2214 05aa 00000000 		.4byte	0
 2215 05ae 00000000 		.4byte	0
 2216              	.LLST25:
 2217 05b2 0C020000 		.4byte	.LVL65-.Ltext0
 2218 05b6 A0020000 		.4byte	.LVL84-.Ltext0
 2219 05ba 0100     		.2byte	0x1
ARM GAS  /tmp/cccdQp3d.s 			page 40


 2220 05bc 56       		.byte	0x56
 2221 05bd 00000000 		.4byte	0
 2222 05c1 00000000 		.4byte	0
 2223              	.LLST26:
 2224 05c5 80010000 		.4byte	.LVL48-.Ltext0
 2225 05c9 88010000 		.4byte	.LVL49-.Ltext0
 2226 05cd 0500     		.2byte	0x5
 2227 05cf 71       		.byte	0x71
 2228 05d0 00       		.sleb128 0
 2229 05d1 31       		.byte	0x31
 2230 05d2 25       		.byte	0x25
 2231 05d3 9F       		.byte	0x9f
 2232 05d4 88010000 		.4byte	.LVL49-.Ltext0
 2233 05d8 10020000 		.4byte	.LVL66-.Ltext0
 2234 05dc 0100     		.2byte	0x1
 2235 05de 56       		.byte	0x56
 2236 05df 10020000 		.4byte	.LVL66-.Ltext0
 2237 05e3 A2020000 		.4byte	.LVL85-.Ltext0
 2238 05e7 0100     		.2byte	0x1
 2239 05e9 58       		.byte	0x58
 2240 05ea A2020000 		.4byte	.LVL85-.Ltext0
 2241 05ee 04030000 		.4byte	.LFE137-.Ltext0
 2242 05f2 0100     		.2byte	0x1
 2243 05f4 56       		.byte	0x56
 2244 05f5 00000000 		.4byte	0
 2245 05f9 00000000 		.4byte	0
 2246              	.LLST27:
 2247 05fd 80010000 		.4byte	.LVL48-.Ltext0
 2248 0601 A8010000 		.4byte	.LVL53-.Ltext0
 2249 0605 0200     		.2byte	0x2
 2250 0607 30       		.byte	0x30
 2251 0608 9F       		.byte	0x9f
 2252 0609 10020000 		.4byte	.LVL66-.Ltext0
 2253 060d 22020000 		.4byte	.LVL67-.Ltext0
 2254 0611 0200     		.2byte	0x2
 2255 0613 30       		.byte	0x30
 2256 0614 9F       		.byte	0x9f
 2257 0615 A6020000 		.4byte	.LVL86-.Ltext0
 2258 0619 A8020000 		.4byte	.LVL87-.Ltext0
 2259 061d 0200     		.2byte	0x2
 2260 061f 30       		.byte	0x30
 2261 0620 9F       		.byte	0x9f
 2262 0621 00000000 		.4byte	0
 2263 0625 00000000 		.4byte	0
 2264              	.LLST28:
 2265 0629 C4010000 		.4byte	.LVL55-.Ltext0
 2266 062d 0C020000 		.4byte	.LVL65-.Ltext0
 2267 0631 0200     		.2byte	0x2
 2268 0633 90       		.byte	0x90
 2269 0634 48       		.uleb128 0x48
 2270 0635 48020000 		.4byte	.LVL73-.Ltext0
 2271 0639 A6020000 		.4byte	.LVL86-.Ltext0
 2272 063d 0200     		.2byte	0x2
 2273 063f 90       		.byte	0x90
 2274 0640 49       		.uleb128 0x49
 2275 0641 BC020000 		.4byte	.LVL89-.Ltext0
 2276 0645 C8020000 		.4byte	.LVL92-.Ltext0
ARM GAS  /tmp/cccdQp3d.s 			page 41


 2277 0649 0800     		.2byte	0x8
 2278 064b F5       		.byte	0xf5
 2279 064c 4C       		.uleb128 0x4c
 2280 064d 21       		.uleb128 0x21
 2281 064e F5       		.byte	0xf5
 2282 064f 4D       		.uleb128 0x4d
 2283 0650 21       		.uleb128 0x21
 2284 0651 1C       		.byte	0x1c
 2285 0652 9F       		.byte	0x9f
 2286 0653 C8020000 		.4byte	.LVL92-.Ltext0
 2287 0657 E0020000 		.4byte	.LVL98-.Ltext0
 2288 065b 0200     		.2byte	0x2
 2289 065d 90       		.byte	0x90
 2290 065e 4D       		.uleb128 0x4d
 2291 065f E0020000 		.4byte	.LVL98-.Ltext0
 2292 0663 E8020000 		.4byte	.LVL100-.Ltext0
 2293 0667 0C00     		.2byte	0xc
 2294 0669 72       		.byte	0x72
 2295 066a 78       		.sleb128 -8
 2296 066b F6       		.byte	0xf6
 2297 066c 04       		.byte	0x4
 2298 066d 21       		.uleb128 0x21
 2299 066e 73       		.byte	0x73
 2300 066f 08       		.sleb128 8
 2301 0670 F6       		.byte	0xf6
 2302 0671 04       		.byte	0x4
 2303 0672 21       		.uleb128 0x21
 2304 0673 1C       		.byte	0x1c
 2305 0674 9F       		.byte	0x9f
 2306 0675 00000000 		.4byte	0
 2307 0679 00000000 		.4byte	0
 2308              	.LLST29:
 2309 067d C8010000 		.4byte	.LVL56-.Ltext0
 2310 0681 0C020000 		.4byte	.LVL65-.Ltext0
 2311 0685 0200     		.2byte	0x2
 2312 0687 90       		.byte	0x90
 2313 0688 47       		.uleb128 0x47
 2314 0689 4C020000 		.4byte	.LVL74-.Ltext0
 2315 068d A6020000 		.4byte	.LVL86-.Ltext0
 2316 0691 0200     		.2byte	0x2
 2317 0693 90       		.byte	0x90
 2318 0694 48       		.uleb128 0x48
 2319 0695 C0020000 		.4byte	.LVL90-.Ltext0
 2320 0699 D0020000 		.4byte	.LVL94-.Ltext0
 2321 069d 0800     		.2byte	0x8
 2322 069f F5       		.byte	0xf5
 2323 06a0 4E       		.uleb128 0x4e
 2324 06a1 21       		.uleb128 0x21
 2325 06a2 F5       		.byte	0xf5
 2326 06a3 4F       		.uleb128 0x4f
 2327 06a4 21       		.uleb128 0x21
 2328 06a5 1C       		.byte	0x1c
 2329 06a6 9F       		.byte	0x9f
 2330 06a7 D0020000 		.4byte	.LVL94-.Ltext0
 2331 06ab DC020000 		.4byte	.LVL97-.Ltext0
 2332 06af 0200     		.2byte	0x2
 2333 06b1 90       		.byte	0x90
ARM GAS  /tmp/cccdQp3d.s 			page 42


 2334 06b2 4F       		.uleb128 0x4f
 2335 06b3 DC020000 		.4byte	.LVL97-.Ltext0
 2336 06b7 E8020000 		.4byte	.LVL100-.Ltext0
 2337 06bb 0C00     		.2byte	0xc
 2338 06bd 73       		.byte	0x73
 2339 06be 04       		.sleb128 4
 2340 06bf F6       		.byte	0xf6
 2341 06c0 04       		.byte	0x4
 2342 06c1 21       		.uleb128 0x21
 2343 06c2 73       		.byte	0x73
 2344 06c3 0C       		.sleb128 12
 2345 06c4 F6       		.byte	0xf6
 2346 06c5 04       		.byte	0x4
 2347 06c6 21       		.uleb128 0x21
 2348 06c7 1C       		.byte	0x1c
 2349 06c8 9F       		.byte	0x9f
 2350 06c9 00000000 		.4byte	0
 2351 06cd 00000000 		.4byte	0
 2352              	.LLST30:
 2353 06d1 C0010000 		.4byte	.LVL54-.Ltext0
 2354 06d5 0C020000 		.4byte	.LVL65-.Ltext0
 2355 06d9 0200     		.2byte	0x2
 2356 06db 90       		.byte	0x90
 2357 06dc 49       		.uleb128 0x49
 2358 06dd 26020000 		.4byte	.LVL68-.Ltext0
 2359 06e1 A6020000 		.4byte	.LVL86-.Ltext0
 2360 06e5 0200     		.2byte	0x2
 2361 06e7 90       		.byte	0x90
 2362 06e8 46       		.uleb128 0x46
 2363 06e9 00000000 		.4byte	0
 2364 06ed 00000000 		.4byte	0
 2365              	.LLST31:
 2366 06f1 C0010000 		.4byte	.LVL54-.Ltext0
 2367 06f5 D0010000 		.4byte	.LVL58-.Ltext0
 2368 06f9 0200     		.2byte	0x2
 2369 06fb 90       		.byte	0x90
 2370 06fc 4B       		.uleb128 0x4b
 2371 06fd D0010000 		.4byte	.LVL58-.Ltext0
 2372 0701 D8010000 		.4byte	.LVL60-.Ltext0
 2373 0705 0200     		.2byte	0x2
 2374 0707 74       		.byte	0x74
 2375 0708 04       		.sleb128 4
 2376 0709 2A020000 		.4byte	.LVL69-.Ltext0
 2377 070d A6020000 		.4byte	.LVL86-.Ltext0
 2378 0711 0200     		.2byte	0x2
 2379 0713 90       		.byte	0x90
 2380 0714 47       		.uleb128 0x47
 2381 0715 00000000 		.4byte	0
 2382 0719 00000000 		.4byte	0
 2383              	.LLST32:
 2384 071d C8010000 		.4byte	.LVL56-.Ltext0
 2385 0721 0C020000 		.4byte	.LVL65-.Ltext0
 2386 0725 0800     		.2byte	0x8
 2387 0727 F5       		.byte	0xf5
 2388 0728 48       		.uleb128 0x48
 2389 0729 21       		.uleb128 0x21
 2390 072a F5       		.byte	0xf5
ARM GAS  /tmp/cccdQp3d.s 			page 43


 2391 072b 49       		.uleb128 0x49
 2392 072c 21       		.uleb128 0x21
 2393 072d 1E       		.byte	0x1e
 2394 072e 9F       		.byte	0x9f
 2395 072f 4C020000 		.4byte	.LVL74-.Ltext0
 2396 0733 A6020000 		.4byte	.LVL86-.Ltext0
 2397 0737 0800     		.2byte	0x8
 2398 0739 F5       		.byte	0xf5
 2399 073a 49       		.uleb128 0x49
 2400 073b 21       		.uleb128 0x21
 2401 073c F5       		.byte	0xf5
 2402 073d 46       		.uleb128 0x46
 2403 073e 21       		.uleb128 0x21
 2404 073f 1E       		.byte	0x1e
 2405 0740 9F       		.byte	0x9f
 2406 0741 C0020000 		.4byte	.LVL90-.Ltext0
 2407 0745 C8020000 		.4byte	.LVL92-.Ltext0
 2408 0749 0C00     		.2byte	0xc
 2409 074b F5       		.byte	0xf5
 2410 074c 4C       		.uleb128 0x4c
 2411 074d 21       		.uleb128 0x21
 2412 074e F5       		.byte	0xf5
 2413 074f 4D       		.uleb128 0x4d
 2414 0750 21       		.uleb128 0x21
 2415 0751 22       		.byte	0x22
 2416 0752 F5       		.byte	0xf5
 2417 0753 40       		.uleb128 0x40
 2418 0754 21       		.uleb128 0x21
 2419 0755 1E       		.byte	0x1e
 2420 0756 9F       		.byte	0x9f
 2421 0757 C8020000 		.4byte	.LVL92-.Ltext0
 2422 075b CC020000 		.4byte	.LVL93-.Ltext0
 2423 075f 0E00     		.2byte	0xe
 2424 0761 F5       		.byte	0xf5
 2425 0762 4C       		.uleb128 0x4c
 2426 0763 21       		.uleb128 0x21
 2427 0764 73       		.byte	0x73
 2428 0765 08       		.sleb128 8
 2429 0766 F6       		.byte	0xf6
 2430 0767 04       		.byte	0x4
 2431 0768 21       		.uleb128 0x21
 2432 0769 22       		.byte	0x22
 2433 076a F5       		.byte	0xf5
 2434 076b 40       		.uleb128 0x40
 2435 076c 21       		.uleb128 0x21
 2436 076d 1E       		.byte	0x1e
 2437 076e 9F       		.byte	0x9f
 2438 076f CC020000 		.4byte	.LVL93-.Ltext0
 2439 0773 D4020000 		.4byte	.LVL95-.Ltext0
 2440 0777 1000     		.2byte	0x10
 2441 0779 72       		.byte	0x72
 2442 077a 78       		.sleb128 -8
 2443 077b F6       		.byte	0xf6
 2444 077c 04       		.byte	0x4
 2445 077d 21       		.uleb128 0x21
 2446 077e 73       		.byte	0x73
 2447 077f 08       		.sleb128 8
ARM GAS  /tmp/cccdQp3d.s 			page 44


 2448 0780 F6       		.byte	0xf6
 2449 0781 04       		.byte	0x4
 2450 0782 21       		.uleb128 0x21
 2451 0783 22       		.byte	0x22
 2452 0784 F5       		.byte	0xf5
 2453 0785 40       		.uleb128 0x40
 2454 0786 21       		.uleb128 0x21
 2455 0787 1E       		.byte	0x1e
 2456 0788 9F       		.byte	0x9f
 2457 0789 D4020000 		.4byte	.LVL95-.Ltext0
 2458 078d FE020000 		.4byte	.LVL101-.Ltext0
 2459 0791 0200     		.2byte	0x2
 2460 0793 90       		.byte	0x90
 2461 0794 4B       		.uleb128 0x4b
 2462 0795 00000000 		.4byte	0
 2463 0799 00000000 		.4byte	0
 2464              	.LLST33:
 2465 079d C8010000 		.4byte	.LVL56-.Ltext0
 2466 07a1 D0010000 		.4byte	.LVL58-.Ltext0
 2467 07a5 0800     		.2byte	0x8
 2468 07a7 F5       		.byte	0xf5
 2469 07a8 47       		.uleb128 0x47
 2470 07a9 21       		.uleb128 0x21
 2471 07aa F5       		.byte	0xf5
 2472 07ab 4B       		.uleb128 0x4b
 2473 07ac 21       		.uleb128 0x21
 2474 07ad 1E       		.byte	0x1e
 2475 07ae 9F       		.byte	0x9f
 2476 07af D0010000 		.4byte	.LVL58-.Ltext0
 2477 07b3 D8010000 		.4byte	.LVL60-.Ltext0
 2478 07b7 0A00     		.2byte	0xa
 2479 07b9 F5       		.byte	0xf5
 2480 07ba 47       		.uleb128 0x47
 2481 07bb 21       		.uleb128 0x21
 2482 07bc 74       		.byte	0x74
 2483 07bd 04       		.sleb128 4
 2484 07be F6       		.byte	0xf6
 2485 07bf 04       		.byte	0x4
 2486 07c0 21       		.uleb128 0x21
 2487 07c1 1E       		.byte	0x1e
 2488 07c2 9F       		.byte	0x9f
 2489 07c3 4C020000 		.4byte	.LVL74-.Ltext0
 2490 07c7 A6020000 		.4byte	.LVL86-.Ltext0
 2491 07cb 0800     		.2byte	0x8
 2492 07cd F5       		.byte	0xf5
 2493 07ce 48       		.uleb128 0x48
 2494 07cf 21       		.uleb128 0x21
 2495 07d0 F5       		.byte	0xf5
 2496 07d1 47       		.uleb128 0x47
 2497 07d2 21       		.uleb128 0x21
 2498 07d3 1E       		.byte	0x1e
 2499 07d4 9F       		.byte	0x9f
 2500 07d5 C0020000 		.4byte	.LVL90-.Ltext0
 2501 07d9 D0020000 		.4byte	.LVL94-.Ltext0
 2502 07dd 0C00     		.2byte	0xc
 2503 07df F5       		.byte	0xf5
 2504 07e0 4F       		.uleb128 0x4f
ARM GAS  /tmp/cccdQp3d.s 			page 45


 2505 07e1 21       		.uleb128 0x21
 2506 07e2 F5       		.byte	0xf5
 2507 07e3 4E       		.uleb128 0x4e
 2508 07e4 21       		.uleb128 0x21
 2509 07e5 22       		.byte	0x22
 2510 07e6 F5       		.byte	0xf5
 2511 07e7 40       		.uleb128 0x40
 2512 07e8 21       		.uleb128 0x21
 2513 07e9 1E       		.byte	0x1e
 2514 07ea 9F       		.byte	0x9f
 2515 07eb D0020000 		.4byte	.LVL94-.Ltext0
 2516 07ef D8020000 		.4byte	.LVL96-.Ltext0
 2517 07f3 0E00     		.2byte	0xe
 2518 07f5 73       		.byte	0x73
 2519 07f6 0C       		.sleb128 12
 2520 07f7 F6       		.byte	0xf6
 2521 07f8 04       		.byte	0x4
 2522 07f9 21       		.uleb128 0x21
 2523 07fa F5       		.byte	0xf5
 2524 07fb 4E       		.uleb128 0x4e
 2525 07fc 21       		.uleb128 0x21
 2526 07fd 22       		.byte	0x22
 2527 07fe F5       		.byte	0xf5
 2528 07ff 40       		.uleb128 0x40
 2529 0800 21       		.uleb128 0x21
 2530 0801 1E       		.byte	0x1e
 2531 0802 9F       		.byte	0x9f
 2532 0803 D8020000 		.4byte	.LVL96-.Ltext0
 2533 0807 E0020000 		.4byte	.LVL98-.Ltext0
 2534 080b 1000     		.2byte	0x10
 2535 080d 73       		.byte	0x73
 2536 080e 0C       		.sleb128 12
 2537 080f F6       		.byte	0xf6
 2538 0810 04       		.byte	0x4
 2539 0811 21       		.uleb128 0x21
 2540 0812 73       		.byte	0x73
 2541 0813 04       		.sleb128 4
 2542 0814 F6       		.byte	0xf6
 2543 0815 04       		.byte	0x4
 2544 0816 21       		.uleb128 0x21
 2545 0817 22       		.byte	0x22
 2546 0818 F5       		.byte	0xf5
 2547 0819 40       		.uleb128 0x40
 2548 081a 21       		.uleb128 0x21
 2549 081b 1E       		.byte	0x1e
 2550 081c 9F       		.byte	0x9f
 2551 081d E0020000 		.4byte	.LVL98-.Ltext0
 2552 0821 FE020000 		.4byte	.LVL101-.Ltext0
 2553 0825 0200     		.2byte	0x2
 2554 0827 90       		.byte	0x90
 2555 0828 4D       		.uleb128 0x4d
 2556 0829 00000000 		.4byte	0
 2557 082d 00000000 		.4byte	0
 2558              	.LLST34:
 2559 0831 C8010000 		.4byte	.LVL56-.Ltext0
 2560 0835 0C020000 		.4byte	.LVL65-.Ltext0
 2561 0839 0800     		.2byte	0x8
ARM GAS  /tmp/cccdQp3d.s 			page 46


 2562 083b F5       		.byte	0xf5
 2563 083c 47       		.uleb128 0x47
 2564 083d 21       		.uleb128 0x21
 2565 083e F5       		.byte	0xf5
 2566 083f 49       		.uleb128 0x49
 2567 0840 21       		.uleb128 0x21
 2568 0841 1E       		.byte	0x1e
 2569 0842 9F       		.byte	0x9f
 2570 0843 4C020000 		.4byte	.LVL74-.Ltext0
 2571 0847 A6020000 		.4byte	.LVL86-.Ltext0
 2572 084b 0800     		.2byte	0x8
 2573 084d F5       		.byte	0xf5
 2574 084e 48       		.uleb128 0x48
 2575 084f 21       		.uleb128 0x21
 2576 0850 F5       		.byte	0xf5
 2577 0851 46       		.uleb128 0x46
 2578 0852 21       		.uleb128 0x21
 2579 0853 1E       		.byte	0x1e
 2580 0854 9F       		.byte	0x9f
 2581 0855 C0020000 		.4byte	.LVL90-.Ltext0
 2582 0859 C8020000 		.4byte	.LVL92-.Ltext0
 2583 085d 0C00     		.2byte	0xc
 2584 085f F5       		.byte	0xf5
 2585 0860 4C       		.uleb128 0x4c
 2586 0861 21       		.uleb128 0x21
 2587 0862 F5       		.byte	0xf5
 2588 0863 4D       		.uleb128 0x4d
 2589 0864 21       		.uleb128 0x21
 2590 0865 1C       		.byte	0x1c
 2591 0866 F5       		.byte	0xf5
 2592 0867 40       		.uleb128 0x40
 2593 0868 21       		.uleb128 0x21
 2594 0869 1E       		.byte	0x1e
 2595 086a 9F       		.byte	0x9f
 2596 086b C8020000 		.4byte	.LVL92-.Ltext0
 2597 086f CC020000 		.4byte	.LVL93-.Ltext0
 2598 0873 0E00     		.2byte	0xe
 2599 0875 F5       		.byte	0xf5
 2600 0876 4C       		.uleb128 0x4c
 2601 0877 21       		.uleb128 0x21
 2602 0878 73       		.byte	0x73
 2603 0879 08       		.sleb128 8
 2604 087a F6       		.byte	0xf6
 2605 087b 04       		.byte	0x4
 2606 087c 21       		.uleb128 0x21
 2607 087d 1C       		.byte	0x1c
 2608 087e F5       		.byte	0xf5
 2609 087f 40       		.uleb128 0x40
 2610 0880 21       		.uleb128 0x21
 2611 0881 1E       		.byte	0x1e
 2612 0882 9F       		.byte	0x9f
 2613 0883 CC020000 		.4byte	.LVL93-.Ltext0
 2614 0887 D8020000 		.4byte	.LVL96-.Ltext0
 2615 088b 1000     		.2byte	0x10
 2616 088d 72       		.byte	0x72
 2617 088e 78       		.sleb128 -8
 2618 088f F6       		.byte	0xf6
ARM GAS  /tmp/cccdQp3d.s 			page 47


 2619 0890 04       		.byte	0x4
 2620 0891 21       		.uleb128 0x21
 2621 0892 73       		.byte	0x73
 2622 0893 08       		.sleb128 8
 2623 0894 F6       		.byte	0xf6
 2624 0895 04       		.byte	0x4
 2625 0896 21       		.uleb128 0x21
 2626 0897 1C       		.byte	0x1c
 2627 0898 F5       		.byte	0xf5
 2628 0899 40       		.uleb128 0x40
 2629 089a 21       		.uleb128 0x21
 2630 089b 1E       		.byte	0x1e
 2631 089c 9F       		.byte	0x9f
 2632 089d D8020000 		.4byte	.LVL96-.Ltext0
 2633 08a1 FE020000 		.4byte	.LVL101-.Ltext0
 2634 08a5 0200     		.2byte	0x2
 2635 08a7 90       		.byte	0x90
 2636 08a8 4E       		.uleb128 0x4e
 2637 08a9 00000000 		.4byte	0
 2638 08ad 00000000 		.4byte	0
 2639              	.LLST35:
 2640 08b1 C8010000 		.4byte	.LVL56-.Ltext0
 2641 08b5 CC010000 		.4byte	.LVL57-.Ltext0
 2642 08b9 0800     		.2byte	0x8
 2643 08bb F5       		.byte	0xf5
 2644 08bc 48       		.uleb128 0x48
 2645 08bd 21       		.uleb128 0x21
 2646 08be F5       		.byte	0xf5
 2647 08bf 4B       		.uleb128 0x4b
 2648 08c0 21       		.uleb128 0x21
 2649 08c1 1E       		.byte	0x1e
 2650 08c2 9F       		.byte	0x9f
 2651 08c3 CC010000 		.4byte	.LVL57-.Ltext0
 2652 08c7 D4010000 		.4byte	.LVL59-.Ltext0
 2653 08cb 0200     		.2byte	0x2
 2654 08cd 90       		.byte	0x90
 2655 08ce 4A       		.uleb128 0x4a
 2656 08cf D4010000 		.4byte	.LVL59-.Ltext0
 2657 08d3 D8010000 		.4byte	.LVL60-.Ltext0
 2658 08d7 0A00     		.2byte	0xa
 2659 08d9 F5       		.byte	0xf5
 2660 08da 48       		.uleb128 0x48
 2661 08db 21       		.uleb128 0x21
 2662 08dc 74       		.byte	0x74
 2663 08dd 04       		.sleb128 4
 2664 08de F6       		.byte	0xf6
 2665 08df 04       		.byte	0x4
 2666 08e0 21       		.uleb128 0x21
 2667 08e1 1E       		.byte	0x1e
 2668 08e2 9F       		.byte	0x9f
 2669 08e3 4C020000 		.4byte	.LVL74-.Ltext0
 2670 08e7 50020000 		.4byte	.LVL75-.Ltext0
 2671 08eb 0800     		.2byte	0x8
 2672 08ed F5       		.byte	0xf5
 2673 08ee 49       		.uleb128 0x49
 2674 08ef 21       		.uleb128 0x21
 2675 08f0 F5       		.byte	0xf5
ARM GAS  /tmp/cccdQp3d.s 			page 48


 2676 08f1 47       		.uleb128 0x47
 2677 08f2 21       		.uleb128 0x21
 2678 08f3 1E       		.byte	0x1e
 2679 08f4 9F       		.byte	0x9f
 2680 08f5 50020000 		.4byte	.LVL75-.Ltext0
 2681 08f9 58020000 		.4byte	.LVL76-.Ltext0
 2682 08fd 0200     		.2byte	0x2
 2683 08ff 90       		.byte	0x90
 2684 0900 4B       		.uleb128 0x4b
 2685 0901 58020000 		.4byte	.LVL76-.Ltext0
 2686 0905 A6020000 		.4byte	.LVL86-.Ltext0
 2687 0909 0800     		.2byte	0x8
 2688 090b F5       		.byte	0xf5
 2689 090c 49       		.uleb128 0x49
 2690 090d 21       		.uleb128 0x21
 2691 090e F5       		.byte	0xf5
 2692 090f 47       		.uleb128 0x47
 2693 0910 21       		.uleb128 0x21
 2694 0911 1E       		.byte	0x1e
 2695 0912 9F       		.byte	0x9f
 2696 0913 C0020000 		.4byte	.LVL90-.Ltext0
 2697 0917 D0020000 		.4byte	.LVL94-.Ltext0
 2698 091b 0C00     		.2byte	0xc
 2699 091d F5       		.byte	0xf5
 2700 091e 4E       		.uleb128 0x4e
 2701 091f 21       		.uleb128 0x21
 2702 0920 F5       		.byte	0xf5
 2703 0921 4F       		.uleb128 0x4f
 2704 0922 21       		.uleb128 0x21
 2705 0923 1C       		.byte	0x1c
 2706 0924 F5       		.byte	0xf5
 2707 0925 40       		.uleb128 0x40
 2708 0926 21       		.uleb128 0x21
 2709 0927 1E       		.byte	0x1e
 2710 0928 9F       		.byte	0x9f
 2711 0929 D0020000 		.4byte	.LVL94-.Ltext0
 2712 092d D8020000 		.4byte	.LVL96-.Ltext0
 2713 0931 0E00     		.2byte	0xe
 2714 0933 F5       		.byte	0xf5
 2715 0934 4E       		.uleb128 0x4e
 2716 0935 21       		.uleb128 0x21
 2717 0936 73       		.byte	0x73
 2718 0937 0C       		.sleb128 12
 2719 0938 F6       		.byte	0xf6
 2720 0939 04       		.byte	0x4
 2721 093a 21       		.uleb128 0x21
 2722 093b 1C       		.byte	0x1c
 2723 093c F5       		.byte	0xf5
 2724 093d 40       		.uleb128 0x40
 2725 093e 21       		.uleb128 0x21
 2726 093f 1E       		.byte	0x1e
 2727 0940 9F       		.byte	0x9f
 2728 0941 D8020000 		.4byte	.LVL96-.Ltext0
 2729 0945 DC020000 		.4byte	.LVL97-.Ltext0
 2730 0949 1000     		.2byte	0x10
 2731 094b 73       		.byte	0x73
 2732 094c 04       		.sleb128 4
ARM GAS  /tmp/cccdQp3d.s 			page 49


 2733 094d F6       		.byte	0xf6
 2734 094e 04       		.byte	0x4
 2735 094f 21       		.uleb128 0x21
 2736 0950 73       		.byte	0x73
 2737 0951 0C       		.sleb128 12
 2738 0952 F6       		.byte	0xf6
 2739 0953 04       		.byte	0x4
 2740 0954 21       		.uleb128 0x21
 2741 0955 1C       		.byte	0x1c
 2742 0956 F5       		.byte	0xf5
 2743 0957 40       		.uleb128 0x40
 2744 0958 21       		.uleb128 0x21
 2745 0959 1E       		.byte	0x1e
 2746 095a 9F       		.byte	0x9f
 2747 095b DC020000 		.4byte	.LVL97-.Ltext0
 2748 095f FE020000 		.4byte	.LVL101-.Ltext0
 2749 0963 0200     		.2byte	0x2
 2750 0965 90       		.byte	0x90
 2751 0966 4F       		.uleb128 0x4f
 2752 0967 00000000 		.4byte	0
 2753 096b 00000000 		.4byte	0
 2754              	.LLST36:
 2755 096f C0010000 		.4byte	.LVL54-.Ltext0
 2756 0973 E4010000 		.4byte	.LVL61-.Ltext0
 2757 0977 0800     		.2byte	0x8
 2758 0979 F5       		.byte	0xf5
 2759 097a 4C       		.uleb128 0x4c
 2760 097b 21       		.uleb128 0x21
 2761 097c F5       		.byte	0xf5
 2762 097d 4D       		.uleb128 0x4d
 2763 097e 21       		.uleb128 0x21
 2764 097f 22       		.byte	0x22
 2765 0980 9F       		.byte	0x9f
 2766 0981 E4010000 		.4byte	.LVL61-.Ltext0
 2767 0985 40020000 		.4byte	.LVL71-.Ltext0
 2768 0989 0200     		.2byte	0x2
 2769 098b 90       		.byte	0x90
 2770 098c 4D       		.uleb128 0x4d
 2771 098d 40020000 		.4byte	.LVL71-.Ltext0
 2772 0991 64020000 		.4byte	.LVL78-.Ltext0
 2773 0995 0800     		.2byte	0x8
 2774 0997 F5       		.byte	0xf5
 2775 0998 4C       		.uleb128 0x4c
 2776 0999 21       		.uleb128 0x21
 2777 099a F5       		.byte	0xf5
 2778 099b 4D       		.uleb128 0x4d
 2779 099c 21       		.uleb128 0x21
 2780 099d 22       		.byte	0x22
 2781 099e 9F       		.byte	0x9f
 2782 099f 64020000 		.4byte	.LVL78-.Ltext0
 2783 09a3 A6020000 		.4byte	.LVL86-.Ltext0
 2784 09a7 0200     		.2byte	0x2
 2785 09a9 90       		.byte	0x90
 2786 09aa 4D       		.uleb128 0x4d
 2787 09ab BC020000 		.4byte	.LVL89-.Ltext0
 2788 09af C4020000 		.4byte	.LVL91-.Ltext0
 2789 09b3 0800     		.2byte	0x8
ARM GAS  /tmp/cccdQp3d.s 			page 50


 2790 09b5 F5       		.byte	0xf5
 2791 09b6 4C       		.uleb128 0x4c
 2792 09b7 21       		.uleb128 0x21
 2793 09b8 F5       		.byte	0xf5
 2794 09b9 4D       		.uleb128 0x4d
 2795 09ba 21       		.uleb128 0x21
 2796 09bb 22       		.byte	0x22
 2797 09bc 9F       		.byte	0x9f
 2798 09bd C4020000 		.4byte	.LVL91-.Ltext0
 2799 09c1 D4020000 		.4byte	.LVL95-.Ltext0
 2800 09c5 0200     		.2byte	0x2
 2801 09c7 90       		.byte	0x90
 2802 09c8 4B       		.uleb128 0x4b
 2803 09c9 D4020000 		.4byte	.LVL95-.Ltext0
 2804 09cd E8020000 		.4byte	.LVL100-.Ltext0
 2805 09d1 0C00     		.2byte	0xc
 2806 09d3 72       		.byte	0x72
 2807 09d4 78       		.sleb128 -8
 2808 09d5 F6       		.byte	0xf6
 2809 09d6 04       		.byte	0x4
 2810 09d7 21       		.uleb128 0x21
 2811 09d8 73       		.byte	0x73
 2812 09d9 08       		.sleb128 8
 2813 09da F6       		.byte	0xf6
 2814 09db 04       		.byte	0x4
 2815 09dc 21       		.uleb128 0x21
 2816 09dd 22       		.byte	0x22
 2817 09de 9F       		.byte	0x9f
 2818 09df 00000000 		.4byte	0
 2819 09e3 00000000 		.4byte	0
 2820              	.LLST37:
 2821 09e7 C8010000 		.4byte	.LVL56-.Ltext0
 2822 09eb E8010000 		.4byte	.LVL62-.Ltext0
 2823 09ef 0800     		.2byte	0x8
 2824 09f1 F5       		.byte	0xf5
 2825 09f2 4E       		.uleb128 0x4e
 2826 09f3 21       		.uleb128 0x21
 2827 09f4 F5       		.byte	0xf5
 2828 09f5 4F       		.uleb128 0x4f
 2829 09f6 21       		.uleb128 0x21
 2830 09f7 22       		.byte	0x22
 2831 09f8 9F       		.byte	0x9f
 2832 09f9 E8010000 		.4byte	.LVL62-.Ltext0
 2833 09fd 44020000 		.4byte	.LVL72-.Ltext0
 2834 0a01 0200     		.2byte	0x2
 2835 0a03 90       		.byte	0x90
 2836 0a04 4F       		.uleb128 0x4f
 2837 0a05 4C020000 		.4byte	.LVL74-.Ltext0
 2838 0a09 68020000 		.4byte	.LVL79-.Ltext0
 2839 0a0d 0800     		.2byte	0x8
 2840 0a0f F5       		.byte	0xf5
 2841 0a10 4E       		.uleb128 0x4e
 2842 0a11 21       		.uleb128 0x21
 2843 0a12 F5       		.byte	0xf5
 2844 0a13 4F       		.uleb128 0x4f
 2845 0a14 21       		.uleb128 0x21
 2846 0a15 22       		.byte	0x22
ARM GAS  /tmp/cccdQp3d.s 			page 51


 2847 0a16 9F       		.byte	0x9f
 2848 0a17 68020000 		.4byte	.LVL79-.Ltext0
 2849 0a1b A6020000 		.4byte	.LVL86-.Ltext0
 2850 0a1f 0200     		.2byte	0x2
 2851 0a21 90       		.byte	0x90
 2852 0a22 4F       		.uleb128 0x4f
 2853 0a23 C0020000 		.4byte	.LVL90-.Ltext0
 2854 0a27 CC020000 		.4byte	.LVL93-.Ltext0
 2855 0a2b 0800     		.2byte	0x8
 2856 0a2d F5       		.byte	0xf5
 2857 0a2e 4F       		.uleb128 0x4f
 2858 0a2f 21       		.uleb128 0x21
 2859 0a30 F5       		.byte	0xf5
 2860 0a31 4E       		.uleb128 0x4e
 2861 0a32 21       		.uleb128 0x21
 2862 0a33 22       		.byte	0x22
 2863 0a34 9F       		.byte	0x9f
 2864 0a35 CC020000 		.4byte	.LVL93-.Ltext0
 2865 0a39 FE020000 		.4byte	.LVL101-.Ltext0
 2866 0a3d 0200     		.2byte	0x2
 2867 0a3f 90       		.byte	0x90
 2868 0a40 4C       		.uleb128 0x4c
 2869 0a41 00000000 		.4byte	0
 2870 0a45 00000000 		.4byte	0
 2871              	.LLST38:
 2872 0a49 10030000 		.4byte	.LVL102-.Ltext0
 2873 0a4d 1C030000 		.4byte	.LVL103-.Ltext0
 2874 0a51 0100     		.2byte	0x1
 2875 0a53 50       		.byte	0x50
 2876 0a54 1C030000 		.4byte	.LVL103-.Ltext0
 2877 0a58 4A030000 		.4byte	.LVL108-.Ltext0
 2878 0a5c 0100     		.2byte	0x1
 2879 0a5e 54       		.byte	0x54
 2880 0a5f 4A030000 		.4byte	.LVL108-.Ltext0
 2881 0a63 4E030000 		.4byte	.LFE135-.Ltext0
 2882 0a67 0400     		.2byte	0x4
 2883 0a69 F3       		.byte	0xf3
 2884 0a6a 01       		.uleb128 0x1
 2885 0a6b 50       		.byte	0x50
 2886 0a6c 9F       		.byte	0x9f
 2887 0a6d 00000000 		.4byte	0
 2888 0a71 00000000 		.4byte	0
 2889              	.LLST39:
 2890 0a75 10030000 		.4byte	.LVL102-.Ltext0
 2891 0a79 20030000 		.4byte	.LVL104-.Ltext0
 2892 0a7d 0100     		.2byte	0x1
 2893 0a7f 51       		.byte	0x51
 2894 0a80 20030000 		.4byte	.LVL104-.Ltext0
 2895 0a84 27030000 		.4byte	.LVL105-1-.Ltext0
 2896 0a88 0100     		.2byte	0x1
 2897 0a8a 50       		.byte	0x50
 2898 0a8b 27030000 		.4byte	.LVL105-1-.Ltext0
 2899 0a8f 30030000 		.4byte	.LVL106-.Ltext0
 2900 0a93 0100     		.2byte	0x1
 2901 0a95 55       		.byte	0x55
 2902 0a96 30030000 		.4byte	.LVL106-.Ltext0
 2903 0a9a 37030000 		.4byte	.LVL107-1-.Ltext0
ARM GAS  /tmp/cccdQp3d.s 			page 52


 2904 0a9e 0100     		.2byte	0x1
 2905 0aa0 50       		.byte	0x50
 2906 0aa1 37030000 		.4byte	.LVL107-1-.Ltext0
 2907 0aa5 4A030000 		.4byte	.LVL108-.Ltext0
 2908 0aa9 0100     		.2byte	0x1
 2909 0aab 55       		.byte	0x55
 2910 0aac 4A030000 		.4byte	.LVL108-.Ltext0
 2911 0ab0 4D030000 		.4byte	.LVL109-1-.Ltext0
 2912 0ab4 0100     		.2byte	0x1
 2913 0ab6 50       		.byte	0x50
 2914 0ab7 4D030000 		.4byte	.LVL109-1-.Ltext0
 2915 0abb 4E030000 		.4byte	.LFE135-.Ltext0
 2916 0abf 0400     		.2byte	0x4
 2917 0ac1 F3       		.byte	0xf3
 2918 0ac2 01       		.uleb128 0x1
 2919 0ac3 51       		.byte	0x51
 2920 0ac4 9F       		.byte	0x9f
 2921 0ac5 00000000 		.4byte	0
 2922 0ac9 00000000 		.4byte	0
 2923              		.section	.debug_aranges,"",%progbits
 2924 0000 1C000000 		.4byte	0x1c
 2925 0004 0200     		.2byte	0x2
 2926 0006 00000000 		.4byte	.Ldebug_info0
 2927 000a 04       		.byte	0x4
 2928 000b 00       		.byte	0
 2929 000c 0000     		.2byte	0
 2930 000e 0000     		.2byte	0
 2931 0010 00000000 		.4byte	.Ltext0
 2932 0014 4E030000 		.4byte	.Letext0-.Ltext0
 2933 0018 00000000 		.4byte	0
 2934 001c 00000000 		.4byte	0
 2935              		.section	.debug_line,"",%progbits
 2936              	.Ldebug_line0:
 2937 0000 3C040000 		.section	.debug_str,"MS",%progbits,1
 2937      02005901 
 2937      00000201 
 2937      FB0E0D00 
 2937      01010101 
 2938              	.LASF22:
 2939 0000 69666674 		.ascii	"ifftFlag\000"
 2939      466C6167 
 2939      00
 2940              	.LASF37:
 2941 0009 474E5520 		.ascii	"GNU C 4.9.3 20150529 (release) [ARM/embedded-4_9-br"
 2941      4320342E 
 2941      392E3320 
 2941      32303135 
 2941      30353239 
 2942 003c 616E6368 		.ascii	"anch revision 224288] -mcpu=cortex-m4 -mfloat-abi=h"
 2942      20726576 
 2942      6973696F 
 2942      6E203232 
 2942      34323838 
 2943 006f 61726420 		.ascii	"ard -mfpu=fpv4-sp-d16 -mno-thumb-interwork -mthumb "
 2943      2D6D6670 
 2943      753D6670 
 2943      76342D73 
ARM GAS  /tmp/cccdQp3d.s 			page 53


 2943      702D6431 
 2944 00a2 2D676764 		.ascii	"-ggdb -O2 -fomit-frame-pointer -falign-functions=16"
 2944      62202D4F 
 2944      32202D66 
 2944      6F6D6974 
 2944      2D667261 
 2945 00d5 202D666E 		.ascii	" -fno-math-errno -fsingle-precision-constant\000"
 2945      6F2D6D61 
 2945      74682D65 
 2945      72726E6F 
 2945      202D6673 
 2946              	.LASF4:
 2947 0102 5F5F7569 		.ascii	"__uint8_t\000"
 2947      6E74385F 
 2947      7400
 2948              	.LASF35:
 2949 010c 61726D5F 		.ascii	"arm_radix2_butterfly_inverse_f32\000"
 2949      72616469 
 2949      78325F62 
 2949      75747465 
 2949      72666C79 
 2950              	.LASF29:
 2951 012d 61726D5F 		.ascii	"arm_cfft_radix2_instance_f32\000"
 2951      63666674 
 2951      5F726164 
 2951      6978325F 
 2951      696E7374 
 2952              	.LASF26:
 2953 014a 74776964 		.ascii	"twidCoefModifier\000"
 2953      436F6566 
 2953      4D6F6469 
 2953      66696572 
 2953      00
 2954              	.LASF25:
 2955 015b 70426974 		.ascii	"pBitRevTable\000"
 2955      52657654 
 2955      61626C65 
 2955      00
 2956              	.LASF0:
 2957 0168 666C6F61 		.ascii	"float\000"
 2957      7400
 2958              	.LASF33:
 2959 016e 73696E56 		.ascii	"sinVal\000"
 2959      616C00
 2960              	.LASF2:
 2961 0175 756E7369 		.ascii	"unsigned char\000"
 2961      676E6564 
 2961      20636861 
 2961      7200
 2962              	.LASF28:
 2963 0183 6F6E6562 		.ascii	"onebyfftLen\000"
 2963      79666674 
 2963      4C656E00 
 2964              	.LASF9:
 2965 018f 6C6F6E67 		.ascii	"long unsigned int\000"
 2965      20756E73 
 2965      69676E65 
ARM GAS  /tmp/cccdQp3d.s 			page 54


 2965      6420696E 
 2965      7400
 2966              	.LASF6:
 2967 01a1 73686F72 		.ascii	"short unsigned int\000"
 2967      7420756E 
 2967      7369676E 
 2967      65642069 
 2967      6E7400
 2968              	.LASF21:
 2969 01b4 6666744C 		.ascii	"fftLen\000"
 2969      656E00
 2970              	.LASF5:
 2971 01bb 5F5F7569 		.ascii	"__uint16_t\000"
 2971      6E743136 
 2971      5F7400
 2972              	.LASF18:
 2973 01c6 646F7562 		.ascii	"double\000"
 2973      6C6500
 2974              	.LASF20:
 2975 01cd 666C6F61 		.ascii	"float32_t\000"
 2975      7433325F 
 2975      7400
 2976              	.LASF8:
 2977 01d7 5F5F7569 		.ascii	"__uint32_t\000"
 2977      6E743332 
 2977      5F7400
 2978              	.LASF38:
 2979 01e2 2F645F64 		.ascii	"/d_drive/axoloti/platform_linux/../CMSIS//DSP_Lib/S"
 2979      72697665 
 2979      2F61786F 
 2979      6C6F7469 
 2979      2F706C61 
 2980 0215 6F757263 		.ascii	"ource/TransformFunctions/arm_cfft_radix2_f32.c\000"
 2980      652F5472 
 2980      616E7366 
 2980      6F726D46 
 2980      756E6374 
 2981              	.LASF39:
 2982 0244 61726D5F 		.ascii	"arm_bitreversal_f32\000"
 2982      62697472 
 2982      65766572 
 2982      73616C5F 
 2982      66333200 
 2983              	.LASF31:
 2984 0258 70436F65 		.ascii	"pCoef\000"
 2984      6600
 2985              	.LASF12:
 2986 025e 756E7369 		.ascii	"unsigned int\000"
 2986      676E6564 
 2986      20696E74 
 2986      00
 2987              	.LASF11:
 2988 026b 6C6F6E67 		.ascii	"long long unsigned int\000"
 2988      206C6F6E 
 2988      6720756E 
 2988      7369676E 
 2988      65642069 
ARM GAS  /tmp/cccdQp3d.s 			page 55


 2989              	.LASF13:
 2990 0282 75696E74 		.ascii	"uint8_t\000"
 2990      385F7400 
 2991              	.LASF23:
 2992 028a 62697452 		.ascii	"bitReverseFlag\000"
 2992      65766572 
 2992      7365466C 
 2992      616700
 2993              	.LASF16:
 2994 0299 73697A65 		.ascii	"sizetype\000"
 2994      74797065 
 2994      00
 2995              	.LASF10:
 2996 02a2 6C6F6E67 		.ascii	"long long int\000"
 2996      206C6F6E 
 2996      6720696E 
 2996      7400
 2997              	.LASF24:
 2998 02b0 70547769 		.ascii	"pTwiddle\000"
 2998      64646C65 
 2998      00
 2999              	.LASF17:
 3000 02b9 63686172 		.ascii	"char\000"
 3000      00
 3001              	.LASF32:
 3002 02be 636F7356 		.ascii	"cosVal\000"
 3002      616C00
 3003              	.LASF27:
 3004 02c5 62697452 		.ascii	"bitRevFactor\000"
 3004      65764661 
 3004      63746F72 
 3004      00
 3005              	.LASF3:
 3006 02d2 73686F72 		.ascii	"short int\000"
 3006      7420696E 
 3006      7400
 3007              	.LASF34:
 3008 02dc 61726D5F 		.ascii	"arm_radix2_butterfly_f32\000"
 3008      72616469 
 3008      78325F62 
 3008      75747465 
 3008      72666C79 
 3009              	.LASF14:
 3010 02f5 75696E74 		.ascii	"uint16_t\000"
 3010      31365F74 
 3010      00
 3011              	.LASF15:
 3012 02fe 75696E74 		.ascii	"uint32_t\000"
 3012      33325F74 
 3012      00
 3013              	.LASF7:
 3014 0307 6C6F6E67 		.ascii	"long int\000"
 3014      20696E74 
 3014      00
 3015              	.LASF19:
 3016 0310 6C6F6E67 		.ascii	"long double\000"
 3016      20646F75 
ARM GAS  /tmp/cccdQp3d.s 			page 56


 3016      626C6500 
 3017              	.LASF1:
 3018 031c 7369676E 		.ascii	"signed char\000"
 3018      65642063 
 3018      68617200 
 3019              	.LASF30:
 3020 0328 70537263 		.ascii	"pSrc\000"
 3020      00
 3021              	.LASF36:
 3022 032d 61726D5F 		.ascii	"arm_cfft_radix2_f32\000"
 3022      63666674 
 3022      5F726164 
 3022      6978325F 
 3022      66333200 
 3023              		.ident	"GCC: (GNU Tools for ARM Embedded Processors) 4.9.3 20150529 (release) [ARM/embedded-4_9-br
ARM GAS  /tmp/cccdQp3d.s 			page 57


DEFINED SYMBOLS
                            *ABS*:00000000 arm_cfft_radix2_f32.c
     /tmp/cccdQp3d.s:20     .text:00000000 $t
     /tmp/cccdQp3d.s:26     .text:00000000 arm_radix2_butterfly_f32
     /tmp/cccdQp3d.s:300    .text:00000180 arm_radix2_butterfly_inverse_f32
     /tmp/cccdQp3d.s:588    .text:00000310 arm_cfft_radix2_f32
                     .debug_frame:00000010 $d

UNDEFINED SYMBOLS
arm_bitreversal_f32
