ARM GAS  /tmp/cchxx0FN.s 			page 1


   1              		.syntax unified
   2              		.cpu cortex-m4
   3              		.eabi_attribute 27, 1
   4              		.eabi_attribute 28, 1
   5              		.fpu fpv4-sp-d16
   6              		.eabi_attribute 20, 1
   7              		.eabi_attribute 21, 1
   8              		.eabi_attribute 23, 3
   9              		.eabi_attribute 24, 1
  10              		.eabi_attribute 25, 1
  11              		.eabi_attribute 26, 1
  12              		.eabi_attribute 30, 2
  13              		.eabi_attribute 34, 1
  14              		.eabi_attribute 18, 4
  15              		.thumb
  16              		.file	"arm_cmplx_mult_cmplx_q15.c"
  17              		.text
  18              	.Ltext0:
  19              		.cfi_sections	.debug_frame
  20              		.align	2
  21              		.p2align 4,,15
  22              		.global	arm_cmplx_mult_cmplx_q15
  23              		.thumb
  24              		.thumb_func
  25              		.type	arm_cmplx_mult_cmplx_q15, %function
  26              	arm_cmplx_mult_cmplx_q15:
  27              	.LFB135:
  28              		.file 1 "/d_drive/axoloti/platform_linux/../CMSIS//DSP_Lib/Source/ComplexMathFunctions/arm_cmplx_m
  29              		.loc 1 70 0
  30              		.cfi_startproc
  31              		@ args = 0, pretend = 0, frame = 0
  32              		@ frame_needed = 0, uses_anonymous_args = 0
  33              	.LVL0:
  34 0000 2DE9F04F 		push	{r4, r5, r6, r7, r8, r9, r10, fp, lr}
  35              		.cfi_def_cfa_offset 36
  36              		.cfi_offset 4, -36
  37              		.cfi_offset 5, -32
  38              		.cfi_offset 6, -28
  39              		.cfi_offset 7, -24
  40              		.cfi_offset 8, -20
  41              		.cfi_offset 9, -16
  42              		.cfi_offset 10, -12
  43              		.cfi_offset 11, -8
  44              		.cfi_offset 14, -4
  45              		.loc 1 83 0
  46 0004 5FEA9308 		lsrs	r8, r3, #2
  47              	.LVL1:
  48 0008 00F08180 		beq	.L2
  49 000c 00F11006 		add	r6, r0, #16
  50 0010 01F11005 		add	r5, r1, #16
  51 0014 02F11004 		add	r4, r2, #16
  52 0018 C446     		mov	ip, r8
  53              	.LVL2:
  54              	.L3:
  55              		.loc 1 87 0
  56 001a 36F810BC 		ldrh	fp, [r6, #-16]
  57              	.LVL3:
ARM GAS  /tmp/cchxx0FN.s 			page 2


  58              		.loc 1 90 0
  59 001e 35F80E7C 		ldrh	r7, [r5, #-14]
  60              		.loc 1 88 0
  61 0022 36F80EAC 		ldrh	r10, [r6, #-14]
  62              	.LVL4:
  63              		.loc 1 89 0
  64 0026 35F8109C 		ldrh	r9, [r5, #-16]
  65              	.LVL5:
  66              		.loc 1 97 0
  67 002a 1BFB07FE 		smulbb	lr, fp, r7
  68              		.loc 1 94 0
  69 002e 1AFB07F7 		smulbb	r7, r10, r7
  70              	.LVL6:
  71 0032 7F14     		asrs	r7, r7, #17
  72              		.loc 1 97 0
  73 0034 19FB0AFA 		smulbb	r10, r9, r10
  74              	.LVL7:
  75 0038 4FEA6E4E 		asr	lr, lr, #17
  76              		.loc 1 94 0
  77 003c 1BFB09F9 		smulbb	r9, fp, r9
  78              	.LVL8:
  79              		.loc 1 96 0
  80 0040 0EEB6A4E 		add	lr, lr, r10, asr #17
  81              		.loc 1 93 0
  82 0044 C7EB6949 		rsb	r9, r7, r9, asr #17
  83              		.loc 1 96 0
  84 0048 24F80EEC 		strh	lr, [r4, #-14]	@ movhi
  85              	.LVL9:
  86              		.loc 1 93 0
  87 004c 24F8109C 		strh	r9, [r4, #-16]	@ movhi
  88              	.LVL10:
  89              		.loc 1 99 0
  90 0050 36F80CBC 		ldrh	fp, [r6, #-12]
  91              	.LVL11:
  92              		.loc 1 102 0
  93 0054 35F80A7C 		ldrh	r7, [r5, #-10]
  94              		.loc 1 100 0
  95 0058 36F80AAC 		ldrh	r10, [r6, #-10]
  96              	.LVL12:
  97              		.loc 1 101 0
  98 005c 35F80C9C 		ldrh	r9, [r5, #-12]
  99              	.LVL13:
 100              		.loc 1 109 0
 101 0060 1BFB07FE 		smulbb	lr, fp, r7
 102              		.loc 1 106 0
 103 0064 1AFB07F7 		smulbb	r7, r10, r7
 104              	.LVL14:
 105 0068 7F14     		asrs	r7, r7, #17
 106              		.loc 1 109 0
 107 006a 19FB0AFA 		smulbb	r10, r9, r10
 108              	.LVL15:
 109 006e 4FEA6E4E 		asr	lr, lr, #17
 110              		.loc 1 106 0
 111 0072 1BFB09F9 		smulbb	r9, fp, r9
 112              	.LVL16:
 113              		.loc 1 108 0
 114 0076 0EEB6A4E 		add	lr, lr, r10, asr #17
ARM GAS  /tmp/cchxx0FN.s 			page 3


 115              		.loc 1 105 0
 116 007a C7EB6949 		rsb	r9, r7, r9, asr #17
 117              		.loc 1 108 0
 118 007e 24F80AEC 		strh	lr, [r4, #-10]	@ movhi
 119              	.LVL17:
 120              		.loc 1 105 0
 121 0082 24F80C9C 		strh	r9, [r4, #-12]	@ movhi
 122              	.LVL18:
 123              		.loc 1 111 0
 124 0086 36F808BC 		ldrh	fp, [r6, #-8]
 125              	.LVL19:
 126              		.loc 1 114 0
 127 008a 35F8067C 		ldrh	r7, [r5, #-6]
 128              		.loc 1 112 0
 129 008e 36F806AC 		ldrh	r10, [r6, #-6]
 130              	.LVL20:
 131              		.loc 1 113 0
 132 0092 35F8089C 		ldrh	r9, [r5, #-8]
 133              	.LVL21:
 134              		.loc 1 121 0
 135 0096 1BFB07FE 		smulbb	lr, fp, r7
 136              		.loc 1 118 0
 137 009a 1AFB07F7 		smulbb	r7, r10, r7
 138              	.LVL22:
 139 009e 7F14     		asrs	r7, r7, #17
 140              		.loc 1 121 0
 141 00a0 19FB0AFA 		smulbb	r10, r9, r10
 142              	.LVL23:
 143 00a4 4FEA6E4E 		asr	lr, lr, #17
 144              		.loc 1 118 0
 145 00a8 1BFB09F9 		smulbb	r9, fp, r9
 146              	.LVL24:
 147              		.loc 1 120 0
 148 00ac 0EEB6A4E 		add	lr, lr, r10, asr #17
 149              		.loc 1 117 0
 150 00b0 C7EB6949 		rsb	r9, r7, r9, asr #17
 151              		.loc 1 120 0
 152 00b4 24F806EC 		strh	lr, [r4, #-6]	@ movhi
 153              	.LVL25:
 154              		.loc 1 117 0
 155 00b8 24F8089C 		strh	r9, [r4, #-8]	@ movhi
 156              	.LVL26:
 157              		.loc 1 123 0
 158 00bc 36F804BC 		ldrh	fp, [r6, #-4]
 159              	.LVL27:
 160              		.loc 1 126 0
 161 00c0 35F8027C 		ldrh	r7, [r5, #-2]
 162              		.loc 1 124 0
 163 00c4 36F802AC 		ldrh	r10, [r6, #-2]
 164              	.LVL28:
 165              		.loc 1 125 0
 166 00c8 35F8049C 		ldrh	r9, [r5, #-4]
 167              	.LVL29:
 168              		.loc 1 133 0
 169 00cc 1BFB07FE 		smulbb	lr, fp, r7
 170              		.loc 1 130 0
 171 00d0 1AFB07F7 		smulbb	r7, r10, r7
ARM GAS  /tmp/cchxx0FN.s 			page 4


 172              	.LVL30:
 173              		.loc 1 133 0
 174 00d4 4FEA6E4E 		asr	lr, lr, #17
 175 00d8 19FB0AFA 		smulbb	r10, r9, r10
 176              	.LVL31:
 177              		.loc 1 130 0
 178 00dc 7F14     		asrs	r7, r7, #17
 179 00de 1BFB09F9 		smulbb	r9, fp, r9
 180              	.LVL32:
 181              		.loc 1 132 0
 182 00e2 0EEB6A4E 		add	lr, lr, r10, asr #17
 183              		.loc 1 129 0
 184 00e6 C7EB6949 		rsb	r9, r7, r9, asr #17
 185              		.loc 1 83 0
 186 00ea BCF1010C 		subs	ip, ip, #1
 187              	.LVL33:
 188              		.loc 1 132 0
 189 00ee 24F802EC 		strh	lr, [r4, #-2]	@ movhi
 190              	.LVL34:
 191              		.loc 1 129 0
 192 00f2 24F8049C 		strh	r9, [r4, #-4]	@ movhi
 193              	.LVL35:
 194 00f6 06F11006 		add	r6, r6, #16
 195              	.LVL36:
 196 00fa 05F11005 		add	r5, r5, #16
 197 00fe 04F11004 		add	r4, r4, #16
 198              		.loc 1 83 0
 199 0102 8AD1     		bne	.L3
 200 0104 4FEA0818 		lsl	r8, r8, #4
 201              	.LVL37:
 202 0108 4044     		add	r0, r0, r8
 203              	.LVL38:
 204 010a 4144     		add	r1, r1, r8
 205              	.LVL39:
 206 010c 4244     		add	r2, r2, r8
 207              	.LVL40:
 208              	.L2:
 209              		.loc 1 143 0
 210 010e 13F00303 		ands	r3, r3, #3
 211              	.LVL41:
 212 0112 24D0     		beq	.L1
 213 0114 0430     		adds	r0, r0, #4
 214              	.LVL42:
 215 0116 0431     		adds	r1, r1, #4
 216              	.LVL43:
 217 0118 0432     		adds	r2, r2, #4
 218              	.LVL44:
 219              	.L5:
 220              		.loc 1 147 0
 221 011a 30F804CC 		ldrh	ip, [r0, #-4]
 222              	.LVL45:
 223              		.loc 1 150 0
 224 011e 31F8024C 		ldrh	r4, [r1, #-2]
 225              		.loc 1 148 0
 226 0122 30F8026C 		ldrh	r6, [r0, #-2]
 227              	.LVL46:
 228              		.loc 1 149 0
ARM GAS  /tmp/cchxx0FN.s 			page 5


 229 0126 31F804EC 		ldrh	lr, [r1, #-4]
 230              	.LVL47:
 231              		.loc 1 157 0
 232 012a 1CFB04F7 		smulbb	r7, ip, r4
 233              		.loc 1 154 0
 234 012e 16FB04F4 		smulbb	r4, r6, r4
 235              	.LVL48:
 236 0132 6514     		asrs	r5, r4, #17
 237              		.loc 1 157 0
 238 0134 7F14     		asrs	r7, r7, #17
 239 0136 1EFB06F6 		smulbb	r6, lr, r6
 240              	.LVL49:
 241              		.loc 1 154 0
 242 013a 1CFB0EF4 		smulbb	r4, ip, lr
 243              		.loc 1 156 0
 244 013e 07EB6646 		add	r6, r7, r6, asr #17
 245              		.loc 1 153 0
 246 0142 C5EB6444 		rsb	r4, r5, r4, asr #17
 247              		.loc 1 143 0
 248 0146 013B     		subs	r3, r3, #1
 249              	.LVL50:
 250              		.loc 1 156 0
 251 0148 22F8026C 		strh	r6, [r2, #-2]	@ movhi
 252              	.LVL51:
 253              		.loc 1 153 0
 254 014c 22F8044C 		strh	r4, [r2, #-4]	@ movhi
 255              	.LVL52:
 256 0150 00F10400 		add	r0, r0, #4
 257              	.LVL53:
 258 0154 01F10401 		add	r1, r1, #4
 259 0158 02F10402 		add	r2, r2, #4
 260              		.loc 1 143 0
 261 015c DDD1     		bne	.L5
 262              	.LVL54:
 263              	.L1:
 264 015e BDE8F08F 		pop	{r4, r5, r6, r7, r8, r9, r10, fp, pc}
 265              		.cfi_endproc
 266              	.LFE135:
 267              		.size	arm_cmplx_mult_cmplx_q15, .-arm_cmplx_mult_cmplx_q15
 268              	.Letext0:
 269              		.file 2 "/d_drive/axoloti/platform_linux/arm-none-eabi/include/machine/_default_types.h"
 270              		.file 3 "/d_drive/axoloti/platform_linux/arm-none-eabi/include/sys/_stdint.h"
 271              		.file 4 "/d_drive/axoloti/platform_linux/../CMSIS//DSP_Lib/Include/arm_math.h"