ARM GAS  /tmp/ccAY9sSr.s 			page 1


   1              		.syntax unified
   2              		.cpu cortex-m4
   3              		.eabi_attribute 27, 1
   4              		.eabi_attribute 28, 1
   5              		.fpu fpv4-sp-d16
   6              		.eabi_attribute 20, 1
   7              		.eabi_attribute 21, 1
   8              		.eabi_attribute 23, 3
   9              		.eabi_attribute 24, 1
  10              		.eabi_attribute 25, 1
  11              		.eabi_attribute 26, 1
  12              		.eabi_attribute 30, 2
  13              		.eabi_attribute 34, 1
  14              		.eabi_attribute 18, 4
  15              		.thumb
  16              		.file	"arm_fir_lattice_q31.c"
  17              		.text
  18              	.Ltext0:
  19              		.cfi_sections	.debug_frame
  20              		.align	2
  21              		.p2align 4,,15
  22              		.global	arm_fir_lattice_q31
  23              		.thumb
  24              		.thumb_func
  25              		.type	arm_fir_lattice_q31, %function
  26              	arm_fir_lattice_q31:
  27              	.LFB135:
  28              		.file 1 "/d_drive/axoloti/platform_linux/../CMSIS//DSP_Lib/Source/FilteringFunctions/arm_fir_latti
  29              		.loc 1 75 0
  30              		.cfi_startproc
  31              		@ args = 0, pretend = 0, frame = 56
  32              		@ frame_needed = 0, uses_anonymous_args = 0
  33              	.LVL0:
  34 0000 2DE9F04F 		push	{r4, r5, r6, r7, r8, r9, r10, fp, lr}
  35              		.cfi_def_cfa_offset 36
  36              		.cfi_offset 4, -36
  37              		.cfi_offset 5, -32
  38              		.cfi_offset 6, -28
  39              		.cfi_offset 7, -24
  40              		.cfi_offset 8, -20
  41              		.cfi_offset 9, -16
  42              		.cfi_offset 10, -12
  43              		.cfi_offset 11, -8
  44              		.cfi_offset 14, -4
  45 0004 8FB0     		sub	sp, sp, #60
  46              		.cfi_def_cfa_offset 96
  47              		.loc 1 77 0
  48 0006 8468     		ldr	r4, [r0, #8]
  49              		.loc 1 82 0
  50 0008 0588     		ldrh	r5, [r0]
  51              		.loc 1 75 0
  52 000a 0D93     		str	r3, [sp, #52]
  53              		.loc 1 86 0
  54 000c 4068     		ldr	r0, [r0, #4]
  55              	.LVL1:
  56              		.loc 1 75 0
  57 000e 0691     		str	r1, [sp, #24]
ARM GAS  /tmp/ccAY9sSr.s 			page 2


  58              		.loc 1 92 0
  59 0010 5B08     		lsrs	r3, r3, #1
  60              	.LVL2:
  61              		.loc 1 75 0
  62 0012 0792     		str	r2, [sp, #28]
  63              		.loc 1 77 0
  64 0014 0194     		str	r4, [sp, #4]
  65              	.LVL3:
  66              		.loc 1 82 0
  67 0016 0895     		str	r5, [sp, #32]
  68              	.LVL4:
  69              		.loc 1 86 0
  70 0018 0390     		str	r0, [sp, #12]
  71              	.LVL5:
  72              		.loc 1 92 0
  73 001a 0C93     		str	r3, [sp, #48]
  74 001c 59D0     		beq	.L2
  75 001e 0430     		adds	r0, r0, #4
  76              	.LVL6:
  77 0020 0434     		adds	r4, r4, #4
  78              	.LVL7:
  79 0022 0B90     		str	r0, [sp, #44]
  80 0024 0831     		adds	r1, r1, #8
  81              	.LVL8:
  82 0026 681E     		subs	r0, r5, #1
  83 0028 0832     		adds	r2, r2, #8
  84              	.LVL9:
  85 002a 0A94     		str	r4, [sp, #40]
  86 002c 0990     		str	r0, [sp, #36]
  87 002e 0291     		str	r1, [sp, #8]
  88 0030 0592     		str	r2, [sp, #20]
  89 0032 0493     		str	r3, [sp, #16]
  90              	.LVL10:
  91              	.L5:
  92              		.loc 1 107 0
  93 0034 039D     		ldr	r5, [sp, #12]
  94              		.loc 1 95 0
  95 0036 0298     		ldr	r0, [sp, #8]
  96              		.loc 1 110 0
  97 0038 019B     		ldr	r3, [sp, #4]
  98              		.loc 1 95 0
  99 003a 50F8081C 		ldr	r1, [r0, #-8]
 100              	.LVL11:
 101              		.loc 1 110 0
 102 003e 1A68     		ldr	r2, [r3]
 103              		.loc 1 107 0
 104 0040 2C68     		ldr	r4, [r5]
 105              		.loc 1 98 0
 106 0042 50F8040C 		ldr	r0, [r0, #-4]
 107              	.LVL12:
 108              		.loc 1 131 0
 109 0046 2860     		str	r0, [r5]
 110              		.loc 1 114 0
 111 0048 84FB0267 		smull	r6, r7, r4, r2
 112              		.loc 1 117 0
 113 004c 82FB0189 		smull	r8, r9, r2, r1
 114              		.loc 1 126 0
ARM GAS  /tmp/ccAY9sSr.s 			page 3


 115 0050 82FB0023 		smull	r2, r3, r2, r0
 116              	.LVL13:
 117              		.loc 1 118 0
 118 0054 01EB4702 		add	r2, r1, r7, lsl #1
 119              		.loc 1 128 0
 120 0058 01EB4301 		add	r1, r1, r3, lsl #1
 121              	.LVL14:
 122              		.loc 1 141 0
 123 005c 099B     		ldr	r3, [sp, #36]
 124              		.loc 1 119 0
 125 005e 4FEA4905 		lsl	r5, r9, #1
 126              	.LVL15:
 127 0062 2C44     		add	r4, r4, r5
 128              	.LVL16:
 129              		.loc 1 127 0
 130 0064 2844     		add	r0, r0, r5
 131              	.LVL17:
 132              		.loc 1 141 0
 133 0066 002B     		cmp	r3, #0
 134 0068 62D0     		beq	.L9
 135 006a DDF828E0 		ldr	lr, [sp, #40]
 136 006e 0B9D     		ldr	r5, [sp, #44]
 137 0070 1E46     		mov	r6, r3
 138              	.LVL18:
 139              	.L4:
 140              		.loc 1 145 0
 141 0072 5EF8043B 		ldr	r3, [lr], #4
 142              	.LVL19:
 143              		.loc 1 148 0
 144 0076 2F68     		ldr	r7, [r5]
 145              	.LVL20:
 146              		.loc 1 151 0
 147 0078 45F8041B 		str	r1, [r5], #4
 148              	.LVL21:
 149              		.loc 1 155 0
 150 007c 87FB03AB 		smull	r10, fp, r7, r3
 151              		.loc 1 156 0
 152 0080 83FB0489 		smull	r8, r9, r3, r4
 153              		.loc 1 158 0
 154 0084 02EB4B0C 		add	ip, r2, fp, lsl #1
 155              	.LVL22:
 156              		.loc 1 159 0
 157 0088 00EB4908 		add	r8, r0, r9, lsl #1
 158              	.LVL23:
 159              		.loc 1 166 0
 160 008c 83FB02AB 		smull	r10, fp, r3, r2
 161              		.loc 1 162 0
 162 0090 83FB0001 		smull	r0, r1, r3, r0
 163              	.LVL24:
 164              		.loc 1 141 0
 165 0094 013E     		subs	r6, r6, #1
 166              	.LVL25:
 167              		.loc 1 163 0
 168 0096 04EB4101 		add	r1, r4, r1, lsl #1
 169              	.LVL26:
 170              		.loc 1 158 0
 171 009a 6246     		mov	r2, ip
ARM GAS  /tmp/ccAY9sSr.s 			page 4


 172              	.LVL27:
 173              		.loc 1 167 0
 174 009c 07EB4B04 		add	r4, r7, fp, lsl #1
 175              	.LVL28:
 176              		.loc 1 159 0
 177 00a0 4046     		mov	r0, r8
 178              		.loc 1 141 0
 179 00a2 E6D1     		bne	.L4
 180              	.LVL29:
 181              	.L3:
 182              		.loc 1 179 0
 183 00a4 059A     		ldr	r2, [sp, #20]
 184              	.LVL30:
 185 00a6 1346     		mov	r3, r2
 186 00a8 0833     		adds	r3, r3, #8
 187 00aa 42F808CC 		str	ip, [r2, #-8]
 188              	.LVL31:
 189              		.loc 1 180 0
 190 00ae 42F8048C 		str	r8, [r2, #-4]
 191 00b2 0593     		str	r3, [sp, #20]
 192 00b4 029A     		ldr	r2, [sp, #8]
 193              		.loc 1 92 0
 194 00b6 049B     		ldr	r3, [sp, #16]
 195 00b8 0832     		adds	r2, r2, #8
 196 00ba 013B     		subs	r3, r3, #1
 197              	.LVL32:
 198 00bc 0292     		str	r2, [sp, #8]
 199              	.LVL33:
 200 00be 0493     		str	r3, [sp, #16]
 201 00c0 B8D1     		bne	.L5
 202 00c2 0C9B     		ldr	r3, [sp, #48]
 203              	.LVL34:
 204 00c4 069A     		ldr	r2, [sp, #24]
 205 00c6 DB00     		lsls	r3, r3, #3
 206 00c8 1A44     		add	r2, r2, r3
 207 00ca 0692     		str	r2, [sp, #24]
 208 00cc 079A     		ldr	r2, [sp, #28]
 209 00ce 1A44     		add	r2, r2, r3
 210 00d0 0792     		str	r2, [sp, #28]
 211              	.LVL35:
 212              	.L2:
 213              		.loc 1 190 0
 214 00d2 0D9B     		ldr	r3, [sp, #52]
 215 00d4 DB07     		lsls	r3, r3, #31
 216 00d6 26D5     		bpl	.L1
 217              	.LVL36:
 218              		.loc 1 202 0
 219 00d8 039D     		ldr	r5, [sp, #12]
 220              		.loc 1 193 0
 221 00da 069B     		ldr	r3, [sp, #24]
 222              		.loc 1 202 0
 223 00dc 2946     		mov	r1, r5
 224              		.loc 1 193 0
 225 00de 1A68     		ldr	r2, [r3]
 226              	.LVL37:
 227              		.loc 1 205 0
 228 00e0 019B     		ldr	r3, [sp, #4]
ARM GAS  /tmp/ccAY9sSr.s 			page 5


 229              		.loc 1 202 0
 230 00e2 51F8040B 		ldr	r0, [r1], #4
 231              	.LVL38:
 232              		.loc 1 205 0
 233 00e6 1C68     		ldr	r4, [r3]
 234              		.loc 1 217 0
 235 00e8 2A60     		str	r2, [r5]
 236              		.loc 1 209 0
 237 00ea 80FB0467 		smull	r6, r7, r0, r4
 238              		.loc 1 213 0
 239 00ee 84FB0245 		smull	r4, r5, r4, r2
 240              		.loc 1 205 0
 241 00f2 1C1D     		adds	r4, r3, #4
 242              	.LVL39:
 243              		.loc 1 210 0
 244 00f4 02EB4703 		add	r3, r2, r7, lsl #1
 245              	.LVL40:
 246              		.loc 1 226 0
 247 00f8 089A     		ldr	r2, [sp, #32]
 248              	.LVL41:
 249              		.loc 1 214 0
 250 00fa 00EB4506 		add	r6, r0, r5, lsl #1
 251              	.LVL42:
 252              		.loc 1 226 0
 253 00fe 501E     		subs	r0, r2, #1
 254              	.LVL43:
 255 0100 14D0     		beq	.L10
 256              	.LVL44:
 257              	.L8:
 258              		.loc 1 229 0
 259 0102 54F8042B 		ldr	r2, [r4], #4
 260              	.LVL45:
 261              		.loc 1 232 0
 262 0106 0D68     		ldr	r5, [r1]
 263              	.LVL46:
 264              		.loc 1 235 0
 265 0108 41F8046B 		str	r6, [r1], #4
 266              	.LVL47:
 267              		.loc 1 239 0
 268 010c 85FB0267 		smull	r6, r7, r5, r2
 269              	.LVL48:
 270              		.loc 1 240 0
 271 0110 03EB4707 		add	r7, r3, r7, lsl #1
 272              	.LVL49:
 273              		.loc 1 226 0
 274 0114 0138     		subs	r0, r0, #1
 275              	.LVL50:
 276              		.loc 1 243 0
 277 0116 82FB0323 		smull	r2, r3, r2, r3
 278              	.LVL51:
 279              		.loc 1 244 0
 280 011a 05EB4306 		add	r6, r5, r3, lsl #1
 281              	.LVL52:
 282              		.loc 1 240 0
 283 011e 3B46     		mov	r3, r7
 284              		.loc 1 226 0
 285 0120 EFD1     		bne	.L8
ARM GAS  /tmp/ccAY9sSr.s 			page 6


 286              	.LVL53:
 287              	.L7:
 288              		.loc 1 256 0
 289 0122 079B     		ldr	r3, [sp, #28]
 290              	.LVL54:
 291 0124 1F60     		str	r7, [r3]
 292              	.LVL55:
 293              	.L1:
 294              		.loc 1 263 0
 295 0126 0FB0     		add	sp, sp, #60
 296              		.cfi_remember_state
 297              		.cfi_def_cfa_offset 36
 298              		@ sp needed
 299 0128 BDE8F08F 		pop	{r4, r5, r6, r7, r8, r9, r10, fp, pc}
 300              	.LVL56:
 301              	.L10:
 302              		.cfi_restore_state
 303              		.loc 1 221 0
 304 012c 1F46     		mov	r7, r3
 305 012e F8E7     		b	.L7
 306              	.LVL57:
 307              	.L9:
 308              		.loc 1 136 0
 309 0130 8046     		mov	r8, r0
 310              		.loc 1 135 0
 311 0132 9446     		mov	ip, r2
 312 0134 B6E7     		b	.L3
 313              		.cfi_endproc
 314              	.LFE135:
 315              		.size	arm_fir_lattice_q31, .-arm_fir_lattice_q31
 316              	.Letext0:
 317              		.file 2 "/d_drive/axoloti/platform_linux/arm-none-eabi/include/machine/_default_types.h"
 318              		.file 3 "/d_drive/axoloti/platform_linux/arm-none-eabi/include/sys/_stdint.h"
 319              		.file 4 "/d_drive/axoloti/platform_linux/../CMSIS//DSP_Lib/Include/arm_math.h"