ARM GAS  /tmp/ccUp6Xac.s 			page 1


   1              		.syntax unified
   2              		.cpu cortex-m4
   3              		.eabi_attribute 27, 1
   4              		.eabi_attribute 28, 1
   5              		.fpu fpv4-sp-d16
   6              		.eabi_attribute 20, 1
   7              		.eabi_attribute 21, 1
   8              		.eabi_attribute 23, 3
   9              		.eabi_attribute 24, 1
  10              		.eabi_attribute 25, 1
  11              		.eabi_attribute 26, 1
  12              		.eabi_attribute 30, 2
  13              		.eabi_attribute 34, 1
  14              		.eabi_attribute 18, 4
  15              		.thumb
  16              		.file	"arm_cfft_radix4_q31.c"
  17              		.text
  18              	.Ltext0:
  19              		.cfi_sections	.debug_frame
  20              		.align	2
  21              		.p2align 4,,15
  22              		.global	arm_radix4_butterfly_q31
  23              		.thumb
  24              		.thumb_func
  25              		.type	arm_radix4_butterfly_q31, %function
  26              	arm_radix4_butterfly_q31:
  27              	.LFB136:
  28              		.file 1 "/home/sbcu/Dropbox/pcb-layouts/axo-on-discovery-board/axoloti/platform_linux/../CMSIS//DS
  29              		.loc 1 165 0
  30              		.cfi_startproc
  31              		@ args = 0, pretend = 0, frame = 128
  32              		@ frame_needed = 0, uses_anonymous_args = 0
  33              	.LVL0:
  34 0000 2DE9F04F 		push	{r4, r5, r6, r7, r8, r9, r10, fp, lr}
  35              		.cfi_def_cfa_offset 36
  36              		.cfi_offset 4, -36
  37              		.cfi_offset 5, -32
  38              		.cfi_offset 6, -28
  39              		.cfi_offset 7, -24
  40              		.cfi_offset 8, -20
  41              		.cfi_offset 9, -16
  42              		.cfi_offset 10, -12
  43              		.cfi_offset 11, -8
  44              		.cfi_offset 14, -4
  45 0004 A1B0     		sub	sp, sp, #132
  46              		.cfi_def_cfa_offset 168
  47              		.loc 1 165 0
  48 0006 1E46     		mov	r6, r3
  49 0008 0F91     		str	r1, [sp, #60]
  50              	.LVL1:
  51              		.loc 1 430 0
  52 000a 8908     		lsrs	r1, r1, #2
  53              	.LVL2:
  54 000c 0C46     		mov	r4, r1
  55 000e 1F91     		str	r1, [sp, #124]
  56              	.LVL3:
  57              		.loc 1 437 0
ARM GAS  /tmp/ccUp6Xac.s 			page 2


  58 0010 C900     		lsls	r1, r1, #3
  59              	.LVL4:
  60              		.loc 1 165 0
  61 0012 0746     		mov	r7, r0
  62 0014 1E90     		str	r0, [sp, #120]
  63              	.LVL5:
  64              		.loc 1 437 0
  65 0016 0844     		add	r0, r0, r1
  66              	.LVL6:
  67              		.loc 1 165 0
  68 0018 9446     		mov	ip, r2
  69 001a 0C93     		str	r3, [sp, #48]
  70 001c 1892     		str	r2, [sp, #96]
  71              		.loc 1 438 0
  72 001e 4318     		adds	r3, r0, r1
  73              	.LVL7:
  74 0020 06EB4602 		add	r2, r6, r6, lsl #1
  75              	.LVL8:
  76 0024 0831     		adds	r1, r1, #8
  77              	.LVL9:
  78 0026 03EB010B 		add	fp, r3, r1
  79 002a D100     		lsls	r1, r2, #3
  80              	.LVL10:
  81 002c 0B91     		str	r1, [sp, #44]
  82 002e 3101     		lsls	r1, r6, #4
  83 0030 03F10808 		add	r8, r3, #8
  84 0034 07F1080E 		add	lr, r7, #8
  85 0038 0A91     		str	r1, [sp, #40]
  86 003a F100     		lsls	r1, r6, #3
  87              		.loc 1 439 0
  88 003c C246     		mov	r10, r8
  89 003e 00F10809 		add	r9, r0, #8
  90              		.loc 1 430 0
  91 0042 0394     		str	r4, [sp, #12]
  92 0044 0991     		str	r1, [sp, #36]
  93              		.loc 1 439 0
  94 0046 CDF810C0 		str	ip, [sp, #16]
  95 004a CDF804C0 		str	ip, [sp, #4]
  96 004e CDF808C0 		str	ip, [sp, #8]
  97 0052 F046     		mov	r8, lr
  98              	.LVL11:
  99              	.L2:
 100              		.loc 1 448 0 discriminator 1
 101 0054 58F8080C 		ldr	r0, [r8, #-8]
 102 0058 5AF8082C 		ldr	r2, [r10, #-8]
 103              		.loc 1 453 0 discriminator 1
 104 005c 5BF8083C 		ldr	r3, [fp, #-8]
 105 0060 59F8081C 		ldr	r1, [r9, #-8]
 106              		.loc 1 456 0 discriminator 1
 107 0064 5AF8046C 		ldr	r6, [r10, #-4]
 108              		.loc 1 448 0 discriminator 1
 109 0068 4FEA201C 		asr	ip, r0, #4
 110 006c 1211     		asrs	r2, r2, #4
 111              		.loc 1 453 0 discriminator 1
 112 006e 1B11     		asrs	r3, r3, #4
 113              		.loc 1 448 0 discriminator 1
 114 0070 0CEB0205 		add	r5, ip, r2
ARM GAS  /tmp/ccUp6Xac.s 			page 3


 115              	.LVL12:
 116              		.loc 1 453 0 discriminator 1
 117 0074 03EB2113 		add	r3, r3, r1, asr #4
 118              		.loc 1 448 0 discriminator 1
 119 0078 0692     		str	r2, [sp, #24]
 120              		.loc 1 461 0 discriminator 1
 121 007a EA18     		adds	r2, r5, r3
 122 007c 48F8082C 		str	r2, [r8, #-8]
 123              		.loc 1 465 0 discriminator 1
 124 0080 5BF8044C 		ldr	r4, [fp, #-4]
 125              		.loc 1 456 0 discriminator 1
 126 0084 58F8041C 		ldr	r1, [r8, #-4]
 127              		.loc 1 465 0 discriminator 1
 128 0088 59F8040C 		ldr	r0, [r9, #-4]
 129              		.loc 1 456 0 discriminator 1
 130 008c 4FEA261E 		asr	lr, r6, #4
 131 0090 0911     		asrs	r1, r1, #4
 132              		.loc 1 465 0 discriminator 1
 133 0092 2411     		asrs	r4, r4, #4
 134 0094 04EB2014 		add	r4, r4, r0, asr #4
 135              		.loc 1 456 0 discriminator 1
 136 0098 0891     		str	r1, [sp, #32]
 137 009a 7144     		add	r1, r1, lr
 138              		.loc 1 468 0 discriminator 1
 139 009c 0A19     		adds	r2, r1, r4
 140 009e 48F8042C 		str	r2, [r8, #-4]
 141              		.loc 1 480 0 discriminator 1
 142 00a2 029A     		ldr	r2, [sp, #8]
 143 00a4 1068     		ldr	r0, [r2]
 144              		.loc 1 481 0 discriminator 1
 145 00a6 5268     		ldr	r2, [r2, #4]
 146              		.loc 1 471 0 discriminator 1
 147 00a8 091B     		subs	r1, r1, r4
 148              		.loc 1 485 0 discriminator 1
 149 00aa 81FB0267 		smull	r6, r7, r1, r2
 150              		.loc 1 463 0 discriminator 1
 151 00ae EB1A     		subs	r3, r5, r3
 152              		.loc 1 484 0 discriminator 1
 153 00b0 83FB0045 		smull	r4, r5, r3, r0
 154 00b4 3E46     		mov	r6, r7
 155              		.loc 1 489 0 discriminator 1
 156 00b6 83FB0223 		smull	r2, r3, r3, r2
 157              		.loc 1 488 0 discriminator 1
 158 00ba 80FB0101 		smull	r0, r1, r0, r1
 159              		.loc 1 476 0 discriminator 1
 160 00be 5BF8082C 		ldr	r2, [fp, #-8]
 161              		.loc 1 484 0 discriminator 1
 162 00c2 2E44     		add	r6, r6, r5
 163              		.loc 1 474 0 discriminator 1
 164 00c4 5BF8045C 		ldr	r5, [fp, #-4]
 165              	.LVL13:
 166              		.loc 1 488 0 discriminator 1
 167 00c8 C91A     		subs	r1, r1, r3
 168              		.loc 1 474 0 discriminator 1
 169 00ca 19E91800 		ldmdb	r9, {r3, r4}
 170 00ce 2811     		asrs	r0, r5, #4
 171              		.loc 1 476 0 discriminator 1
ARM GAS  /tmp/ccUp6Xac.s 			page 4


 172 00d0 1511     		asrs	r5, r2, #4
 173              		.loc 1 450 0 discriminator 1
 174 00d2 069A     		ldr	r2, [sp, #24]
 175              		.loc 1 485 0 discriminator 1
 176 00d4 7600     		lsls	r6, r6, #1
 177              		.loc 1 450 0 discriminator 1
 178 00d6 C2EB0C02 		rsb	r2, r2, ip
 179              	.LVL14:
 180              		.loc 1 489 0 discriminator 1
 181 00da 4900     		lsls	r1, r1, #1
 182              		.loc 1 474 0 discriminator 1
 183 00dc C0EB241C 		rsb	ip, r0, r4, asr #4
 184              	.LVL15:
 185              		.loc 1 501 0 discriminator 1
 186 00e0 0198     		ldr	r0, [sp, #4]
 187              		.loc 1 484 0 discriminator 1
 188 00e2 49F8086C 		str	r6, [r9, #-8]
 189              		.loc 1 488 0 discriminator 1
 190 00e6 49F8041C 		str	r1, [r9, #-4]
 191              		.loc 1 458 0 discriminator 1
 192 00ea 089E     		ldr	r6, [sp, #32]
 193              		.loc 1 502 0 discriminator 1
 194 00ec 4168     		ldr	r1, [r0, #4]
 195              		.loc 1 476 0 discriminator 1
 196 00ee C5EB2313 		rsb	r3, r5, r3, asr #4
 197              		.loc 1 501 0 discriminator 1
 198 00f2 0568     		ldr	r5, [r0]
 199              		.loc 1 458 0 discriminator 1
 200 00f4 CEEB060E 		rsb	lr, lr, r6
 201              	.LVL16:
 202              		.loc 1 492 0 discriminator 1
 203 00f8 02EB0C00 		add	r0, r2, ip
 204              	.LVL17:
 205              		.loc 1 505 0 discriminator 1
 206 00fc 80FB0567 		smull	r6, r7, r0, r5
 207              		.loc 1 497 0 discriminator 1
 208 0100 C3EB0E04 		rsb	r4, r3, lr
 209              		.loc 1 505 0 discriminator 1
 210 0104 CDE90667 		strd	r6, [sp, #24]
 211              		.loc 1 506 0 discriminator 1
 212 0108 84FB0167 		smull	r6, r7, r4, r1
 213              		.loc 1 505 0 discriminator 1
 214 010c 3E46     		mov	r6, r7
 215 010e 079F     		ldr	r7, [sp, #28]
 216              		.loc 1 509 0 discriminator 1
 217 0110 85FB0445 		smull	r4, r5, r5, r4
 218              		.loc 1 510 0 discriminator 1
 219 0114 80FB0101 		smull	r0, r1, r0, r1
 220              	.LVL18:
 221              		.loc 1 505 0 discriminator 1
 222 0118 3E44     		add	r6, r6, r7
 223              		.loc 1 509 0 discriminator 1
 224 011a 691A     		subs	r1, r5, r1
 225              		.loc 1 506 0 discriminator 1
 226 011c 7000     		lsls	r0, r6, #1
 227              		.loc 1 510 0 discriminator 1
 228 011e 4900     		lsls	r1, r1, #1
ARM GAS  /tmp/ccUp6Xac.s 			page 5


 229              		.loc 1 509 0 discriminator 1
 230 0120 0AE90300 		stmdb	r10, {r0, r1}
 231              		.loc 1 514 0 discriminator 1
 232 0124 049F     		ldr	r7, [sp, #16]
 233 0126 3968     		ldr	r1, [r7]
 234              		.loc 1 515 0 discriminator 1
 235 0128 7E68     		ldr	r6, [r7, #4]
 236              		.loc 1 494 0 discriminator 1
 237 012a CCEB0202 		rsb	r2, ip, r2
 238              	.LVL19:
 239              		.loc 1 518 0 discriminator 1
 240 012e 82FB0145 		smull	r4, r5, r2, r1
 241              		.loc 1 499 0 discriminator 1
 242 0132 7344     		add	r3, r3, lr
 243              	.LVL20:
 244              		.loc 1 518 0 discriminator 1
 245 0134 CDE90445 		strd	r4, [sp, #16]
 246              		.loc 1 522 0 discriminator 1
 247 0138 81FB0301 		smull	r0, r1, r1, r3
 248              		.loc 1 519 0 discriminator 1
 249 013c 83FB0645 		smull	r4, r5, r3, r6
 250              		.loc 1 523 0 discriminator 1
 251 0140 82FB0623 		smull	r2, r3, r2, r6
 252              	.LVL21:
 253              		.loc 1 522 0 discriminator 1
 254 0144 CB1A     		subs	r3, r1, r3
 255              	.LVL22:
 256 0146 0A9E     		ldr	r6, [sp, #40]
 257              	.LVL23:
 258 0148 0299     		ldr	r1, [sp, #8]
 259              	.LVL24:
 260              		.loc 1 518 0 discriminator 1
 261 014a 059C     		ldr	r4, [sp, #20]
 262 014c 0198     		ldr	r0, [sp, #4]
 263 014e 3144     		add	r1, r1, r6
 264 0150 0291     		str	r1, [sp, #8]
 265 0152 0999     		ldr	r1, [sp, #36]
 266 0154 2C44     		add	r4, r4, r5
 267              		.loc 1 523 0 discriminator 1
 268 0156 5B00     		lsls	r3, r3, #1
 269 0158 4118     		adds	r1, r0, r1
 270              		.loc 1 519 0 discriminator 1
 271 015a 6200     		lsls	r2, r4, #1
 272              		.loc 1 522 0 discriminator 1
 273 015c 0BE90C00 		stmdb	fp, {r2, r3}
 274              	.LVL25:
 275 0160 0191     		str	r1, [sp, #4]
 276              		.loc 1 528 0 discriminator 1
 277 0162 039B     		ldr	r3, [sp, #12]
 278 0164 0B99     		ldr	r1, [sp, #44]
 279 0166 013B     		subs	r3, r3, #1
 280              	.LVL26:
 281 0168 3944     		add	r1, r7, r1
 282 016a 08F10808 		add	r8, r8, #8
 283              	.LVL27:
 284 016e 09F10809 		add	r9, r9, #8
 285 0172 0AF1080A 		add	r10, r10, #8
ARM GAS  /tmp/ccUp6Xac.s 			page 6


 286 0176 0491     		str	r1, [sp, #16]
 287 0178 0BF1080B 		add	fp, fp, #8
 288 017c 0393     		str	r3, [sp, #12]
 289 017e 7FF469AF 		bne	.L2
 290              		.loc 1 540 0
 291 0182 0C9B     		ldr	r3, [sp, #48]
 292              	.LVL28:
 293 0184 9B00     		lsls	r3, r3, #2
 294 0186 1793     		str	r3, [sp, #92]
 295              	.LVL29:
 296              		.loc 1 543 0
 297 0188 1F9B     		ldr	r3, [sp, #124]
 298              	.LVL30:
 299 018a 042B     		cmp	r3, #4
 300 018c 40F2F680 		bls	.L11
 301 0190 1F9B     		ldr	r3, [sp, #124]
 302 0192 1C93     		str	r3, [sp, #112]
 303 0194 0E93     		str	r3, [sp, #56]
 304              	.LVL31:
 305              	.L10:
 306              		.loc 1 547 0
 307 0196 0E98     		ldr	r0, [sp, #56]
 308 0198 8308     		lsrs	r3, r0, #2
 309 019a 1A46     		mov	r2, r3
 310 019c 1D93     		str	r3, [sp, #116]
 311              	.LVL32:
 312 019e 179B     		ldr	r3, [sp, #92]
 313 01a0 03EB4303 		add	r3, r3, r3, lsl #1
 314              		.loc 1 551 0
 315 01a4 0021     		movs	r1, #0
 316 01a6 DB00     		lsls	r3, r3, #3
 317 01a8 0C46     		mov	r4, r1
 318 01aa 1391     		str	r1, [sp, #76]
 319 01ac 1A93     		str	r3, [sp, #104]
 320 01ae 1146     		mov	r1, r2
 321 01b0 1E9B     		ldr	r3, [sp, #120]
 322 01b2 1593     		str	r3, [sp, #84]
 323 01b4 013A     		subs	r2, r2, #1
 324              	.LVL33:
 325 01b6 1992     		str	r2, [sp, #100]
 326 01b8 4FEAC00E 		lsl	lr, r0, #3
 327 01bc CA00     		lsls	r2, r1, #3
 328 01be 189B     		ldr	r3, [sp, #96]
 329 01c0 1B92     		str	r2, [sp, #108]
 330              		.loc 1 548 0
 331 01c2 1694     		str	r4, [sp, #88]
 332              		.loc 1 551 0
 333 01c4 1493     		str	r3, [sp, #80]
 334 01c6 CDF848E0 		str	lr, [sp, #72]
 335              	.LVL34:
 336              	.L6:
 337 01ca 169B     		ldr	r3, [sp, #88]
 338 01cc 189C     		ldr	r4, [sp, #96]
 339 01ce 1B9D     		ldr	r5, [sp, #108]
 340 01d0 159F     		ldr	r7, [sp, #84]
 341 01d2 D900     		lsls	r1, r3, #3
 342 01d4 2246     		mov	r2, r4
ARM GAS  /tmp/ccUp6Xac.s 			page 7


 343 01d6 0A44     		add	r2, r2, r1
 344 01d8 1144     		add	r1, r1, r2
 345 01da 1846     		mov	r0, r3
 346 01dc 1B01     		lsls	r3, r3, #4
 347              		.loc 1 559 0
 348 01de 4968     		ldr	r1, [r1, #4]
 349              		.loc 1 557 0
 350 01e0 5268     		ldr	r2, [r2, #4]
 351              		.loc 1 558 0
 352 01e2 E358     		ldr	r3, [r4, r3]
 353              		.loc 1 559 0
 354 01e4 0691     		str	r1, [sp, #24]
 355              		.loc 1 560 0
 356 01e6 1499     		ldr	r1, [sp, #80]
 357              		.loc 1 557 0
 358 01e8 0492     		str	r2, [sp, #16]
 359              		.loc 1 558 0
 360 01ea 1093     		str	r3, [sp, #64]
 361              		.loc 1 556 0
 362 01ec 54F83020 		ldr	r2, [r4, r0, lsl #3]
 363              		.loc 1 563 0
 364 01f0 179B     		ldr	r3, [sp, #92]
 365              		.loc 1 556 0
 366 01f2 0392     		str	r2, [sp, #12]
 367              	.LVL35:
 368              		.loc 1 560 0
 369 01f4 0A68     		ldr	r2, [r1]
 370              	.LVL36:
 371 01f6 0892     		str	r2, [sp, #32]
 372              	.LVL37:
 373              		.loc 1 563 0
 374 01f8 C318     		adds	r3, r0, r3
 375              		.loc 1 561 0
 376 01fa 4A68     		ldr	r2, [r1, #4]
 377              	.LVL38:
 378 01fc 1192     		str	r2, [sp, #68]
 379              	.LVL39:
 380              		.loc 1 563 0
 381 01fe 1693     		str	r3, [sp, #88]
 382              	.LVL40:
 383              		.loc 1 570 0
 384 0200 139A     		ldr	r2, [sp, #76]
 385              	.LVL41:
 386 0202 0F9B     		ldr	r3, [sp, #60]
 387              	.LVL42:
 388 0204 07EB050A 		add	r10, r7, r5
 389 0208 0AEB050E 		add	lr, r10, r5
 390 020c 9342     		cmp	r3, r2
 391 020e 0EEB050C 		add	ip, lr, r5
 392              	.LVL43:
 393 0212 40F29A80 		bls	.L9
 394 0216 139B     		ldr	r3, [sp, #76]
 395 0218 0E9A     		ldr	r2, [sp, #56]
 396 021a 0197     		str	r7, [sp, #4]
 397 021c 1344     		add	r3, r3, r2
 398 021e D346     		mov	fp, r10
 399 0220 0993     		str	r3, [sp, #36]
ARM GAS  /tmp/ccUp6Xac.s 			page 8


 400 0222 CDF808E0 		str	lr, [sp, #8]
 401 0226 E246     		mov	r10, ip
 402              	.LVL44:
 403              	.L8:
 404              		.loc 1 574 0 discriminator 3
 405 0228 019F     		ldr	r7, [sp, #4]
 406 022a 029C     		ldr	r4, [sp, #8]
 407 022c 3D68     		ldr	r5, [r7]
 408 022e 2068     		ldr	r0, [r4]
 409              		.loc 1 588 0 discriminator 3
 410 0230 DBF80010 		ldr	r1, [fp]
 411 0234 DAF80020 		ldr	r2, [r10]
 412              		.loc 1 581 0 discriminator 3
 413 0238 6368     		ldr	r3, [r4, #4]
 414 023a 7C68     		ldr	r4, [r7, #4]
 415              		.loc 1 574 0 discriminator 3
 416 023c 05EB000C 		add	ip, r5, r0
 417              	.LVL45:
 418              		.loc 1 588 0 discriminator 3
 419 0240 0A44     		add	r2, r2, r1
 420              		.loc 1 592 0 discriminator 3
 421 0242 0CEB0201 		add	r1, ip, r2
 422 0246 8910     		asrs	r1, r1, #2
 423 0248 3960     		str	r1, [r7]
 424              		.loc 1 597 0 discriminator 3
 425 024a DAF80410 		ldr	r1, [r10, #4]
 426 024e DBF80460 		ldr	r6, [fp, #4]
 427              		.loc 1 581 0 discriminator 3
 428 0252 04EB0308 		add	r8, r4, r3
 429              		.loc 1 597 0 discriminator 3
 430 0256 0E44     		add	r6, r6, r1
 431              		.loc 1 600 0 discriminator 3
 432 0258 08EB0601 		add	r1, r8, r6
 433 025c 8910     		asrs	r1, r1, #2
 434 025e 7960     		str	r1, [r7, #4]
 435              		.loc 1 584 0 discriminator 3
 436 0260 E41A     		subs	r4, r4, r3
 437              		.loc 1 607 0 discriminator 3
 438 0262 DAF80410 		ldr	r1, [r10, #4]
 439 0266 DBF80430 		ldr	r3, [fp, #4]
 440              		.loc 1 610 0 discriminator 3
 441 026a DAF80070 		ldr	r7, [r10]
 442              		.loc 1 607 0 discriminator 3
 443 026e 591A     		subs	r1, r3, r1
 444              		.loc 1 610 0 discriminator 3
 445 0270 DBF80030 		ldr	r3, [fp]
 446              		.loc 1 577 0 discriminator 3
 447 0274 C0EB050E 		rsb	lr, r0, r5
 448              	.LVL46:
 449              		.loc 1 610 0 discriminator 3
 450 0278 DB1B     		subs	r3, r3, r7
 451              		.loc 1 623 0 discriminator 3
 452 027a 0EEB0100 		add	r0, lr, r1
 453              		.loc 1 594 0 discriminator 3
 454 027e C2EB0C02 		rsb	r2, r2, ip
 455              	.LVL47:
 456              		.loc 1 625 0 discriminator 3
ARM GAS  /tmp/ccUp6Xac.s 			page 9


 457 0282 C1EB0E01 		rsb	r1, r1, lr
 458              		.loc 1 604 0 discriminator 3
 459 0286 C6EB080C 		rsb	ip, r6, r8
 460              		.loc 1 628 0 discriminator 3
 461 028a C3EB040E 		rsb	lr, r3, r4
 462              	.LVL48:
 463              		.loc 1 634 0 discriminator 3
 464 028e 049D     		ldr	r5, [sp, #16]
 465              		.loc 1 633 0 discriminator 3
 466 0290 039E     		ldr	r6, [sp, #12]
 467              	.LVL49:
 468              		.loc 1 630 0 discriminator 3
 469 0292 2344     		add	r3, r3, r4
 470              		.loc 1 615 0 discriminator 3
 471 0294 069C     		ldr	r4, [sp, #24]
 472              	.LVL50:
 473              		.loc 1 630 0 discriminator 3
 474 0296 0A93     		str	r3, [sp, #40]
 475              		.loc 1 634 0 discriminator 3
 476 0298 8EFB0589 		smull	r8, r9, lr, r5
 477              	.LVL51:
 478              		.loc 1 633 0 discriminator 3
 479 029c 80FB0667 		smull	r6, r7, r0, r6
 480              		.loc 1 615 0 discriminator 3
 481 02a0 2346     		mov	r3, r4
 482 02a2 8CFB0345 		smull	r4, r5, ip, r3
 483              		.loc 1 633 0 discriminator 3
 484 02a6 09EB0703 		add	r3, r9, r7
 485 02aa 0B93     		str	r3, [sp, #44]
 486              		.loc 1 614 0 discriminator 3
 487 02ac 109B     		ldr	r3, [sp, #64]
 488              		.loc 1 619 0 discriminator 3
 489 02ae 069C     		ldr	r4, [sp, #24]
 490              		.loc 1 614 0 discriminator 3
 491 02b0 82FB0367 		smull	r6, r7, r2, r3
 492              		.loc 1 618 0 discriminator 3
 493 02b4 8CFB0389 		smull	r8, r9, ip, r3
 494              		.loc 1 614 0 discriminator 3
 495 02b8 05EB070C 		add	ip, r5, r7
 496              		.loc 1 619 0 discriminator 3
 497 02bc 82FB0445 		smull	r4, r5, r2, r4
 498              		.loc 1 637 0 discriminator 3
 499 02c0 039A     		ldr	r2, [sp, #12]
 500              	.LVL52:
 501 02c2 8EFB0267 		smull	r6, r7, lr, r2
 502              		.loc 1 638 0 discriminator 3
 503 02c6 049A     		ldr	r2, [sp, #16]
 504 02c8 80FB0223 		smull	r2, r3, r0, r2
 505 02cc CDE90C23 		strd	r2, [sp, #48]
 506              		.loc 1 642 0 discriminator 3
 507 02d0 089B     		ldr	r3, [sp, #32]
 508              		.loc 1 637 0 discriminator 3
 509 02d2 0D9A     		ldr	r2, [sp, #52]
 510              		.loc 1 618 0 discriminator 3
 511 02d4 C5EB090E 		rsb	lr, r5, r9
 512              		.loc 1 642 0 discriminator 3
 513 02d8 81FB0345 		smull	r4, r5, r1, r3
ARM GAS  /tmp/ccUp6Xac.s 			page 10


 514              		.loc 1 647 0 discriminator 3
 515 02dc 119B     		ldr	r3, [sp, #68]
 516              		.loc 1 637 0 discriminator 3
 517 02de BE1A     		subs	r6, r7, r2
 518              		.loc 1 647 0 discriminator 3
 519 02e0 1846     		mov	r0, r3
 520              		.loc 1 643 0 discriminator 3
 521 02e2 0A9A     		ldr	r2, [sp, #40]
 522              		.loc 1 637 0 discriminator 3
 523 02e4 0C96     		str	r6, [sp, #48]
 524              		.loc 1 643 0 discriminator 3
 525 02e6 1E46     		mov	r6, r3
 526              		.loc 1 646 0 discriminator 3
 527 02e8 089B     		ldr	r3, [sp, #32]
 528              		.loc 1 647 0 discriminator 3
 529 02ea 81FB0001 		smull	r0, r1, r1, r0
 530              		.loc 1 646 0 discriminator 3
 531 02ee 82FB0389 		smull	r8, r9, r2, r3
 532              		.loc 1 643 0 discriminator 3
 533 02f2 82FB0667 		smull	r6, r7, r2, r6
 534              		.loc 1 646 0 discriminator 3
 535 02f6 C1EB0903 		rsb	r3, r1, r9
 536              		.loc 1 642 0 discriminator 3
 537 02fa 7C19     		adds	r4, r7, r5
 538              		.loc 1 634 0 discriminator 3
 539 02fc 0B99     		ldr	r1, [sp, #44]
 540              		.loc 1 638 0 discriminator 3
 541 02fe 0C98     		ldr	r0, [sp, #48]
 542              		.loc 1 601 0 discriminator 3
 543 0300 019F     		ldr	r7, [sp, #4]
 544              		.loc 1 615 0 discriminator 3
 545 0302 4FEA6C05 		asr	r5, ip, #1
 546              		.loc 1 647 0 discriminator 3
 547 0306 4FEA630C 		asr	ip, r3, #1
 548              		.loc 1 601 0 discriminator 3
 549 030a 129B     		ldr	r3, [sp, #72]
 550              		.loc 1 614 0 discriminator 3
 551 030c CBF80050 		str	r5, [fp]
 552              		.loc 1 619 0 discriminator 3
 553 0310 4FEA6E02 		asr	r2, lr, #1
 554              		.loc 1 601 0 discriminator 3
 555 0314 1F44     		add	r7, r7, r3
 556 0316 DDF824E0 		ldr	lr, [sp, #36]
 557 031a 0197     		str	r7, [sp, #4]
 558              	.LVL53:
 559 031c 0E9F     		ldr	r7, [sp, #56]
 560              	.LVL54:
 561              		.loc 1 618 0 discriminator 3
 562 031e CBF80420 		str	r2, [fp, #4]
 563              		.loc 1 633 0 discriminator 3
 564 0322 029D     		ldr	r5, [sp, #8]
 565 0324 7246     		mov	r2, lr
 566 0326 3A44     		add	r2, r2, r7
 567 0328 0992     		str	r2, [sp, #36]
 568              	.LVL55:
 569              		.loc 1 620 0 discriminator 3
 570 032a 9B44     		add	fp, fp, r3
ARM GAS  /tmp/ccUp6Xac.s 			page 11


 571              	.LVL56:
 572 032c 1A46     		mov	r2, r3
 573              		.loc 1 639 0 discriminator 3
 574 032e EB18     		adds	r3, r5, r3
 575 0330 0293     		str	r3, [sp, #8]
 576              	.LVL57:
 577              		.loc 1 570 0 discriminator 3
 578 0332 0F9B     		ldr	r3, [sp, #60]
 579              	.LVL58:
 580              		.loc 1 634 0 discriminator 3
 581 0334 4910     		asrs	r1, r1, #1
 582              		.loc 1 638 0 discriminator 3
 583 0336 4010     		asrs	r0, r0, #1
 584              		.loc 1 643 0 discriminator 3
 585 0338 6410     		asrs	r4, r4, #1
 586              		.loc 1 570 0 discriminator 3
 587 033a 7345     		cmp	r3, lr
 588              		.loc 1 633 0 discriminator 3
 589 033c 2960     		str	r1, [r5]
 590              		.loc 1 637 0 discriminator 3
 591 033e 6860     		str	r0, [r5, #4]
 592              		.loc 1 646 0 discriminator 3
 593 0340 8AE81010 		stmia	r10, {r4, ip}
 594              		.loc 1 648 0 discriminator 3
 595 0344 9244     		add	r10, r10, r2
 596              	.LVL59:
 597              		.loc 1 570 0 discriminator 3
 598 0346 3FF66FAF 		bhi	.L8
 599              	.LVL60:
 600              	.L9:
 601 034a 149A     		ldr	r2, [sp, #80]
 602 034c 1A99     		ldr	r1, [sp, #104]
 603              		.loc 1 551 0
 604 034e 139B     		ldr	r3, [sp, #76]
 605 0350 0A44     		add	r2, r2, r1
 606 0352 1492     		str	r2, [sp, #80]
 607 0354 159A     		ldr	r2, [sp, #84]
 608 0356 0832     		adds	r2, r2, #8
 609 0358 1592     		str	r2, [sp, #84]
 610 035a 199A     		ldr	r2, [sp, #100]
 611 035c 0133     		adds	r3, r3, #1
 612 035e 9342     		cmp	r3, r2
 613 0360 1393     		str	r3, [sp, #76]
 614              	.LVL61:
 615 0362 7FF632AF 		bls	.L6
 616              		.loc 1 543 0 discriminator 2
 617 0366 1C9B     		ldr	r3, [sp, #112]
 618              	.LVL62:
 619              		.loc 1 651 0 discriminator 2
 620 0368 179A     		ldr	r2, [sp, #92]
 621              		.loc 1 543 0 discriminator 2
 622 036a 9B08     		lsrs	r3, r3, #2
 623              		.loc 1 651 0 discriminator 2
 624 036c 9200     		lsls	r2, r2, #2
 625 036e 1792     		str	r2, [sp, #92]
 626              	.LVL63:
 627              		.loc 1 543 0 discriminator 2
ARM GAS  /tmp/ccUp6Xac.s 			page 12


 628 0370 042B     		cmp	r3, #4
 629              		.loc 1 547 0 discriminator 2
 630 0372 1D9A     		ldr	r2, [sp, #116]
 631              	.LVL64:
 632              		.loc 1 543 0 discriminator 2
 633 0374 1C93     		str	r3, [sp, #112]
 634              		.loc 1 547 0 discriminator 2
 635 0376 0E92     		str	r2, [sp, #56]
 636              	.LVL65:
 637              		.loc 1 543 0 discriminator 2
 638 0378 3FF60DAF 		bhi	.L10
 639              	.LVL66:
 640              	.L11:
 641 037c 1E98     		ldr	r0, [sp, #120]
 642 037e DDF87C90 		ldr	r9, [sp, #124]
 643 0382 2030     		adds	r0, r0, #32
 644              	.LVL67:
 645              	.L4:
 646              		.loc 1 675 0 discriminator 1
 647 0384 50F8202C 		ldr	r2, [r0, #-32]
 648              		.loc 1 680 0 discriminator 1
 649 0388 50F8183C 		ldr	r3, [r0, #-24]
 650 038c 50F8141C 		ldr	r1, [r0, #-20]
 651              		.loc 1 675 0 discriminator 1
 652 0390 50F81C8C 		ldr	r8, [r0, #-28]
 653              	.LVL68:
 654              		.loc 1 685 0 discriminator 1
 655 0394 50F810AC 		ldr	r10, [r0, #-16]
 656 0398 50F80CCC 		ldr	ip, [r0, #-12]
 657              	.LVL69:
 658              		.loc 1 690 0 discriminator 1
 659 039c 10E98040 		ldmdb	r0, {r7, lr}
 660              	.LVL70:
 661              		.loc 1 720 0 discriminator 1
 662 03a0 D618     		adds	r6, r2, r3
 663              		.loc 1 732 0 discriminator 1
 664 03a2 D51A     		subs	r5, r2, r3
 665              		.loc 1 739 0 discriminator 1
 666 03a4 5418     		adds	r4, r2, r1
 667              		.loc 1 746 0 discriminator 1
 668 03a6 521A     		subs	r2, r2, r1
 669              	.LVL71:
 670              		.loc 1 723 0 discriminator 1
 671 03a8 08EB010B 		add	fp, r8, r1
 672              		.loc 1 720 0 discriminator 1
 673 03ac 5644     		add	r6, r6, r10
 674              		.loc 1 733 0 discriminator 1
 675 03ae C1EB0801 		rsb	r1, r1, r8
 676              	.LVL72:
 677              		.loc 1 732 0 discriminator 1
 678 03b2 5544     		add	r5, r5, r10
 679              		.loc 1 739 0 discriminator 1
 680 03b4 CAEB0404 		rsb	r4, r10, r4
 681              		.loc 1 746 0 discriminator 1
 682 03b8 CAEB0202 		rsb	r2, r10, r2
 683              		.loc 1 740 0 discriminator 1
 684 03bc C3EB080A 		rsb	r10, r3, r8
ARM GAS  /tmp/ccUp6Xac.s 			page 13


 685              	.LVL73:
 686              		.loc 1 747 0 discriminator 1
 687 03c0 4344     		add	r3, r3, r8
 688              	.LVL74:
 689              		.loc 1 733 0 discriminator 1
 690 03c2 6144     		add	r1, r1, ip
 691              		.loc 1 723 0 discriminator 1
 692 03c4 E344     		add	fp, fp, ip
 693              		.loc 1 740 0 discriminator 1
 694 03c6 CCEB0A08 		rsb	r8, ip, r10
 695              	.LVL75:
 696              		.loc 1 747 0 discriminator 1
 697 03ca CCEB0303 		rsb	r3, ip, r3
 698              		.loc 1 739 0 discriminator 1
 699 03ce CEEB0404 		rsb	r4, lr, r4
 700              		.loc 1 746 0 discriminator 1
 701 03d2 7244     		add	r2, r2, lr
 702              		.loc 1 723 0 discriminator 1
 703 03d4 F344     		add	fp, fp, lr
 704              	.LVL76:
 705              		.loc 1 720 0 discriminator 1
 706 03d6 3E44     		add	r6, r6, r7
 707              	.LVL77:
 708              		.loc 1 733 0 discriminator 1
 709 03d8 CEEB010E 		rsb	lr, lr, r1
 710              	.LVL78:
 711              		.loc 1 732 0 discriminator 1
 712 03dc ED1B     		subs	r5, r5, r7
 713              		.loc 1 740 0 discriminator 1
 714 03de 08EB0701 		add	r1, r8, r7
 715              		.loc 1 747 0 discriminator 1
 716 03e2 DB1B     		subs	r3, r3, r7
 717              		.loc 1 754 0 discriminator 1
 718 03e4 B9F10109 		subs	r9, r9, #1
 719              	.LVL79:
 720              		.loc 1 729 0 discriminator 1
 721 03e8 40F8206C 		str	r6, [r0, #-32]
 722              	.LVL80:
 723              		.loc 1 736 0 discriminator 1
 724 03ec 40F8185C 		str	r5, [r0, #-24]
 725              	.LVL81:
 726              		.loc 1 743 0 discriminator 1
 727 03f0 40F8104C 		str	r4, [r0, #-16]
 728              	.LVL82:
 729              		.loc 1 750 0 discriminator 1
 730 03f4 40F8082C 		str	r2, [r0, #-8]
 731              		.loc 1 730 0 discriminator 1
 732 03f8 40F81CBC 		str	fp, [r0, #-28]
 733              	.LVL83:
 734              		.loc 1 737 0 discriminator 1
 735 03fc 40F814EC 		str	lr, [r0, #-20]
 736              	.LVL84:
 737              		.loc 1 744 0 discriminator 1
 738 0400 40F80C1C 		str	r1, [r0, #-12]
 739              	.LVL85:
 740              		.loc 1 751 0 discriminator 1
 741 0404 40F8043C 		str	r3, [r0, #-4]
ARM GAS  /tmp/ccUp6Xac.s 			page 14


 742              	.LVL86:
 743 0408 00F12000 		add	r0, r0, #32
 744              	.LVL87:
 745              		.loc 1 754 0 discriminator 1
 746 040c BAD1     		bne	.L4
 747              		.loc 1 763 0
 748 040e 21B0     		add	sp, sp, #132
 749              		.cfi_def_cfa_offset 36
 750              		@ sp needed
 751 0410 BDE8F08F 		pop	{r4, r5, r6, r7, r8, r9, r10, fp, pc}
 752              		.cfi_endproc
 753              	.LFE136:
 754              		.size	arm_radix4_butterfly_q31, .-arm_radix4_butterfly_q31
 755              		.align	2
 756 0414 AFF30080 		.p2align 4,,15
 756      AFF30080 
 756      AFF30080 
 757              		.global	arm_radix4_butterfly_inverse_q31
 758              		.thumb
 759              		.thumb_func
 760              		.type	arm_radix4_butterfly_inverse_q31, %function
 761              	arm_radix4_butterfly_inverse_q31:
 762              	.LFB137:
 763              		.loc 1 821 0
 764              		.cfi_startproc
 765              		@ args = 0, pretend = 0, frame = 120
 766              		@ frame_needed = 0, uses_anonymous_args = 0
 767              	.LVL88:
 768 0420 2DE9F04F 		push	{r4, r5, r6, r7, r8, r9, r10, fp, lr}
 769              		.cfi_def_cfa_offset 36
 770              		.cfi_offset 4, -36
 771              		.cfi_offset 5, -32
 772              		.cfi_offset 6, -28
 773              		.cfi_offset 7, -24
 774              		.cfi_offset 8, -20
 775              		.cfi_offset 9, -16
 776              		.cfi_offset 10, -12
 777              		.cfi_offset 11, -8
 778              		.cfi_offset 14, -4
 779 0424 9FB0     		sub	sp, sp, #124
 780              		.cfi_def_cfa_offset 160
 781              		.loc 1 821 0
 782 0426 1E46     		mov	r6, r3
 783 0428 0F91     		str	r1, [sp, #60]
 784              	.LVL89:
 785              		.loc 1 1078 0
 786 042a 8908     		lsrs	r1, r1, #2
 787              	.LVL90:
 788 042c 0C46     		mov	r4, r1
 789 042e 1D91     		str	r1, [sp, #116]
 790              	.LVL91:
 791              		.loc 1 1085 0
 792 0430 C900     		lsls	r1, r1, #3
 793              	.LVL92:
 794              		.loc 1 821 0
 795 0432 0746     		mov	r7, r0
 796 0434 1C90     		str	r0, [sp, #112]
ARM GAS  /tmp/ccUp6Xac.s 			page 15


 797              	.LVL93:
 798              		.loc 1 1085 0
 799 0436 0844     		add	r0, r0, r1
 800              	.LVL94:
 801              		.loc 1 821 0
 802 0438 9246     		mov	r10, r2
 803 043a 0C93     		str	r3, [sp, #48]
 804 043c 1692     		str	r2, [sp, #88]
 805              		.loc 1 1086 0
 806 043e 4318     		adds	r3, r0, r1
 807              	.LVL95:
 808 0440 06EB4602 		add	r2, r6, r6, lsl #1
 809              	.LVL96:
 810 0444 0831     		adds	r1, r1, #8
 811              	.LVL97:
 812 0446 03F1080E 		add	lr, r3, #8
 813 044a 03EB010B 		add	fp, r3, r1
 814 044e D300     		lsls	r3, r2, #3
 815 0450 0B93     		str	r3, [sp, #44]
 816 0452 3301     		lsls	r3, r6, #4
 817 0454 0837     		adds	r7, r7, #8
 818              	.LVL98:
 819 0456 0A93     		str	r3, [sp, #40]
 820 0458 F300     		lsls	r3, r6, #3
 821              		.loc 1 1087 0
 822 045a F146     		mov	r9, lr
 823 045c 00F1080C 		add	ip, r0, #8
 824              		.loc 1 1078 0
 825 0460 0394     		str	r4, [sp, #12]
 826 0462 0993     		str	r3, [sp, #36]
 827              		.loc 1 1087 0
 828 0464 D046     		mov	r8, r10
 829 0466 BE46     		mov	lr, r7
 830 0468 CDF808A0 		str	r10, [sp, #8]
 831 046c CDF804A0 		str	r10, [sp, #4]
 832              	.LVL99:
 833              	.L22:
 834              		.loc 1 1093 0 discriminator 1
 835 0470 59F8080C 		ldr	r0, [r9, #-8]
 836 0474 5EF8084C 		ldr	r4, [lr, #-8]
 837              		.loc 1 1098 0 discriminator 1
 838 0478 5BF8082C 		ldr	r2, [fp, #-8]
 839              		.loc 1 1101 0 discriminator 1
 840 047c 59F8041C 		ldr	r1, [r9, #-4]
 841              		.loc 1 1093 0 discriminator 1
 842 0480 0311     		asrs	r3, r0, #4
 843 0482 1846     		mov	r0, r3
 844 0484 4FEA241A 		asr	r10, r4, #4
 845 0488 0AEB0005 		add	r5, r10, r0
 846              	.LVL100:
 847 048c 0890     		str	r0, [sp, #32]
 848              		.loc 1 1098 0 discriminator 1
 849 048e 5CF8080C 		ldr	r0, [ip, #-8]
 850 0492 1311     		asrs	r3, r2, #4
 851 0494 03EB2013 		add	r3, r3, r0, asr #4
 852              		.loc 1 1106 0 discriminator 1
 853 0498 EA18     		adds	r2, r5, r3
ARM GAS  /tmp/ccUp6Xac.s 			page 16


 854 049a 4EF8082C 		str	r2, [lr, #-8]
 855              		.loc 1 1110 0 discriminator 1
 856 049e 5BF8044C 		ldr	r4, [fp, #-4]
 857              		.loc 1 1101 0 discriminator 1
 858 04a2 5EF8042C 		ldr	r2, [lr, #-4]
 859              		.loc 1 1110 0 discriminator 1
 860 04a6 5CF8040C 		ldr	r0, [ip, #-4]
 861              		.loc 1 1101 0 discriminator 1
 862 04aa 1211     		asrs	r2, r2, #4
 863 04ac 0911     		asrs	r1, r1, #4
 864              		.loc 1 1110 0 discriminator 1
 865 04ae 2411     		asrs	r4, r4, #4
 866 04b0 04EB2014 		add	r4, r4, r0, asr #4
 867              		.loc 1 1101 0 discriminator 1
 868 04b4 0691     		str	r1, [sp, #24]
 869 04b6 5118     		adds	r1, r2, r1
 870 04b8 0492     		str	r2, [sp, #16]
 871              		.loc 1 1112 0 discriminator 1
 872 04ba 0A19     		adds	r2, r1, r4
 873 04bc 4EF8042C 		str	r2, [lr, #-4]
 874              		.loc 1 1124 0 discriminator 1
 875 04c0 029A     		ldr	r2, [sp, #8]
 876              		.loc 1 1118 0 discriminator 1
 877 04c2 5BF8046C 		ldr	r6, [fp, #-4]
 878              		.loc 1 1124 0 discriminator 1
 879 04c6 1068     		ldr	r0, [r2]
 880              		.loc 1 1125 0 discriminator 1
 881 04c8 5268     		ldr	r2, [r2, #4]
 882              		.loc 1 1108 0 discriminator 1
 883 04ca EB1A     		subs	r3, r5, r3
 884              		.loc 1 1115 0 discriminator 1
 885 04cc 091B     		subs	r1, r1, r4
 886              		.loc 1 1128 0 discriminator 1
 887 04ce 83FB0045 		smull	r4, r5, r3, r0
 888 04d2 2F46     		mov	r7, r5
 889              		.loc 1 1129 0 discriminator 1
 890 04d4 81FB0245 		smull	r4, r5, r1, r2
 891              		.loc 1 1133 0 discriminator 1
 892 04d8 83FB0223 		smull	r2, r3, r3, r2
 893              		.loc 1 1132 0 discriminator 1
 894 04dc 80FB0101 		smull	r0, r1, r0, r1
 895 04e0 1944     		add	r1, r1, r3
 896              		.loc 1 1120 0 discriminator 1
 897 04e2 5BF8083C 		ldr	r3, [fp, #-8]
 898 04e6 5CF8084C 		ldr	r4, [ip, #-8]
 899              		.loc 1 1118 0 discriminator 1
 900 04ea 5CF8040C 		ldr	r0, [ip, #-4]
 901 04ee 3211     		asrs	r2, r6, #4
 902              		.loc 1 1120 0 discriminator 1
 903 04f0 1E11     		asrs	r6, r3, #4
 904              		.loc 1 1095 0 discriminator 1
 905 04f2 089B     		ldr	r3, [sp, #32]
 906              		.loc 1 1133 0 discriminator 1
 907 04f4 4900     		lsls	r1, r1, #1
 908              		.loc 1 1132 0 discriminator 1
 909 04f6 4CF8041C 		str	r1, [ip, #-4]
 910              		.loc 1 1095 0 discriminator 1
ARM GAS  /tmp/ccUp6Xac.s 			page 17


 911 04fa C3EB0A0A 		rsb	r10, r3, r10
 912              	.LVL101:
 913              		.loc 1 1103 0 discriminator 1
 914 04fe 0699     		ldr	r1, [sp, #24]
 915 0500 049B     		ldr	r3, [sp, #16]
 916              		.loc 1 1128 0 discriminator 1
 917 0502 7D1B     		subs	r5, r7, r5
 918              	.LVL102:
 919              		.loc 1 1103 0 discriminator 1
 920 0504 5B1A     		subs	r3, r3, r1
 921              	.LVL103:
 922              		.loc 1 1129 0 discriminator 1
 923 0506 6D00     		lsls	r5, r5, #1
 924              		.loc 1 1120 0 discriminator 1
 925 0508 C6EB2411 		rsb	r1, r6, r4, asr #4
 926              		.loc 1 1145 0 discriminator 1
 927 050c 019C     		ldr	r4, [sp, #4]
 928              		.loc 1 1128 0 discriminator 1
 929 050e 4CF8085C 		str	r5, [ip, #-8]
 930              		.loc 1 1118 0 discriminator 1
 931 0512 C2EB2012 		rsb	r2, r2, r0, asr #4
 932              	.LVL104:
 933              		.loc 1 1145 0 discriminator 1
 934 0516 2068     		ldr	r0, [r4]
 935              		.loc 1 1146 0 discriminator 1
 936 0518 6468     		ldr	r4, [r4, #4]
 937              		.loc 1 1141 0 discriminator 1
 938 051a 0891     		str	r1, [sp, #32]
 939              		.loc 1 1136 0 discriminator 1
 940 051c C2EB0A05 		rsb	r5, r2, r10
 941              	.LVL105:
 942              		.loc 1 1149 0 discriminator 1
 943 0520 85FB0067 		smull	r6, r7, r5, r0
 944              		.loc 1 1141 0 discriminator 1
 945 0524 5918     		adds	r1, r3, r1
 946              	.LVL106:
 947              		.loc 1 1149 0 discriminator 1
 948 0526 CDE90467 		strd	r6, [sp, #16]
 949              		.loc 1 1150 0 discriminator 1
 950 052a 81FB0467 		smull	r6, r7, r1, r4
 951 052e CDE90667 		strd	r6, [sp, #24]
 952              		.loc 1 1149 0 discriminator 1
 953 0532 079F     		ldr	r7, [sp, #28]
 954 0534 059E     		ldr	r6, [sp, #20]
 955              		.loc 1 1153 0 discriminator 1
 956 0536 80FB0101 		smull	r0, r1, r0, r1
 957              		.loc 1 1154 0 discriminator 1
 958 053a 85FB0445 		smull	r4, r5, r5, r4
 959              		.loc 1 1149 0 discriminator 1
 960 053e F61B     		subs	r6, r6, r7
 961              		.loc 1 1153 0 discriminator 1
 962 0540 2944     		add	r1, r1, r5
 963              		.loc 1 1150 0 discriminator 1
 964 0542 7000     		lsls	r0, r6, #1
 965              		.loc 1 1154 0 discriminator 1
 966 0544 4900     		lsls	r1, r1, #1
 967              		.loc 1 1153 0 discriminator 1
ARM GAS  /tmp/ccUp6Xac.s 			page 18


 968 0546 09E90300 		stmdb	r9, {r0, r1}
 969              		.loc 1 1143 0 discriminator 1
 970 054a 0898     		ldr	r0, [sp, #32]
 971              		.loc 1 1158 0 discriminator 1
 972 054c D8F80010 		ldr	r1, [r8]
 973              		.loc 1 1143 0 discriminator 1
 974 0550 1B1A     		subs	r3, r3, r0
 975              	.LVL107:
 976              		.loc 1 1138 0 discriminator 1
 977 0552 5244     		add	r2, r2, r10
 978              	.LVL108:
 979              		.loc 1 1163 0 discriminator 1
 980 0554 D8F80400 		ldr	r0, [r8, #4]
 981              		.loc 1 1162 0 discriminator 1
 982 0558 82FB0145 		smull	r4, r5, r2, r1
 983 055c 2F46     		mov	r7, r5
 984              		.loc 1 1163 0 discriminator 1
 985 055e 83FB0045 		smull	r4, r5, r3, r0
 986              		.loc 1 1166 0 discriminator 1
 987 0562 81FB0301 		smull	r0, r1, r1, r3
 988              		.loc 1 1167 0 discriminator 1
 989 0566 D8F80430 		ldr	r3, [r8, #4]
 990              	.LVL109:
 991 056a 0198     		ldr	r0, [sp, #4]
 992 056c 82FB0323 		smull	r2, r3, r2, r3
 993              	.LVL110:
 994              		.loc 1 1162 0 discriminator 1
 995 0570 7C1B     		subs	r4, r7, r5
 996              		.loc 1 1166 0 discriminator 1
 997 0572 0B44     		add	r3, r3, r1
 998 0574 029D     		ldr	r5, [sp, #8]
 999              	.LVL111:
 1000 0576 0A99     		ldr	r1, [sp, #40]
 1001              	.LVL112:
 1002              		.loc 1 1167 0 discriminator 1
 1003 0578 5B00     		lsls	r3, r3, #1
 1004 057a 0D44     		add	r5, r5, r1
 1005              		.loc 1 1163 0 discriminator 1
 1006 057c 6200     		lsls	r2, r4, #1
 1007 057e 0999     		ldr	r1, [sp, #36]
 1008 0580 0295     		str	r5, [sp, #8]
 1009              		.loc 1 1166 0 discriminator 1
 1010 0582 0BE90C00 		stmdb	fp, {r2, r3}
 1011              	.LVL113:
 1012              		.loc 1 1172 0 discriminator 1
 1013 0586 039B     		ldr	r3, [sp, #12]
 1014 0588 0844     		add	r0, r0, r1
 1015 058a 0B99     		ldr	r1, [sp, #44]
 1016 058c 0190     		str	r0, [sp, #4]
 1017 058e 013B     		subs	r3, r3, #1
 1018              	.LVL114:
 1019 0590 0EF1080E 		add	lr, lr, #8
 1020              	.LVL115:
 1021 0594 0CF1080C 		add	ip, ip, #8
 1022 0598 09F10809 		add	r9, r9, #8
 1023 059c 8844     		add	r8, r8, r1
 1024 059e 0BF1080B 		add	fp, fp, #8
ARM GAS  /tmp/ccUp6Xac.s 			page 19


 1025 05a2 0393     		str	r3, [sp, #12]
 1026 05a4 7FF464AF 		bne	.L22
 1027              		.loc 1 1180 0
 1028 05a8 0C9B     		ldr	r3, [sp, #48]
 1029              	.LVL116:
 1030 05aa 9B00     		lsls	r3, r3, #2
 1031 05ac 1593     		str	r3, [sp, #84]
 1032              	.LVL117:
 1033              		.loc 1 1183 0
 1034 05ae 1D9B     		ldr	r3, [sp, #116]
 1035              	.LVL118:
 1036 05b0 042B     		cmp	r3, #4
 1037 05b2 40F2F280 		bls	.L31
 1038 05b6 1D9B     		ldr	r3, [sp, #116]
 1039 05b8 1A93     		str	r3, [sp, #104]
 1040 05ba 0E93     		str	r3, [sp, #56]
 1041              	.LVL119:
 1042              	.L30:
 1043              		.loc 1 1187 0
 1044 05bc 0E98     		ldr	r0, [sp, #56]
 1045 05be 8308     		lsrs	r3, r0, #2
 1046 05c0 1A46     		mov	r2, r3
 1047 05c2 1B93     		str	r3, [sp, #108]
 1048              	.LVL120:
 1049 05c4 159B     		ldr	r3, [sp, #84]
 1050 05c6 03EB4303 		add	r3, r3, r3, lsl #1
 1051              		.loc 1 1190 0
 1052 05ca 0021     		movs	r1, #0
 1053 05cc DB00     		lsls	r3, r3, #3
 1054 05ce 0C46     		mov	r4, r1
 1055 05d0 1191     		str	r1, [sp, #68]
 1056 05d2 1893     		str	r3, [sp, #96]
 1057 05d4 1146     		mov	r1, r2
 1058 05d6 1C9B     		ldr	r3, [sp, #112]
 1059 05d8 1393     		str	r3, [sp, #76]
 1060 05da 013A     		subs	r2, r2, #1
 1061              	.LVL121:
 1062 05dc 1792     		str	r2, [sp, #92]
 1063 05de 4FEAC00E 		lsl	lr, r0, #3
 1064 05e2 CA00     		lsls	r2, r1, #3
 1065 05e4 169B     		ldr	r3, [sp, #88]
 1066 05e6 1992     		str	r2, [sp, #100]
 1067              		.loc 1 1188 0
 1068 05e8 1494     		str	r4, [sp, #80]
 1069              		.loc 1 1190 0
 1070 05ea 1293     		str	r3, [sp, #72]
 1071 05ec CDF82CE0 		str	lr, [sp, #44]
 1072              	.LVL122:
 1073              	.L26:
 1074 05f0 149B     		ldr	r3, [sp, #80]
 1075 05f2 169C     		ldr	r4, [sp, #88]
 1076 05f4 199D     		ldr	r5, [sp, #100]
 1077 05f6 139F     		ldr	r7, [sp, #76]
 1078 05f8 D900     		lsls	r1, r3, #3
 1079 05fa 2246     		mov	r2, r4
 1080 05fc 0A44     		add	r2, r2, r1
 1081 05fe 1144     		add	r1, r1, r2
ARM GAS  /tmp/ccUp6Xac.s 			page 20


 1082 0600 1846     		mov	r0, r3
 1083 0602 1B01     		lsls	r3, r3, #4
 1084              		.loc 1 1198 0
 1085 0604 4968     		ldr	r1, [r1, #4]
 1086              		.loc 1 1196 0
 1087 0606 5268     		ldr	r2, [r2, #4]
 1088              		.loc 1 1197 0
 1089 0608 E358     		ldr	r3, [r4, r3]
 1090              		.loc 1 1198 0
 1091 060a 0491     		str	r1, [sp, #16]
 1092              		.loc 1 1199 0
 1093 060c 1299     		ldr	r1, [sp, #72]
 1094              		.loc 1 1196 0
 1095 060e 0892     		str	r2, [sp, #32]
 1096              		.loc 1 1197 0
 1097 0610 1093     		str	r3, [sp, #64]
 1098              		.loc 1 1195 0
 1099 0612 54F83020 		ldr	r2, [r4, r0, lsl #3]
 1100              		.loc 1 1202 0
 1101 0616 159B     		ldr	r3, [sp, #84]
 1102              		.loc 1 1195 0
 1103 0618 0392     		str	r2, [sp, #12]
 1104              	.LVL123:
 1105              		.loc 1 1199 0
 1106 061a 0A68     		ldr	r2, [r1]
 1107              	.LVL124:
 1108 061c 0692     		str	r2, [sp, #24]
 1109              	.LVL125:
 1110              		.loc 1 1202 0
 1111 061e C318     		adds	r3, r0, r3
 1112              		.loc 1 1200 0
 1113 0620 4A68     		ldr	r2, [r1, #4]
 1114              	.LVL126:
 1115 0622 0992     		str	r2, [sp, #36]
 1116              	.LVL127:
 1117              		.loc 1 1202 0
 1118 0624 1493     		str	r3, [sp, #80]
 1119              	.LVL128:
 1120              		.loc 1 1209 0
 1121 0626 119A     		ldr	r2, [sp, #68]
 1122              	.LVL129:
 1123 0628 0F9B     		ldr	r3, [sp, #60]
 1124              	.LVL130:
 1125 062a 07EB050A 		add	r10, r7, r5
 1126 062e 0AEB050E 		add	lr, r10, r5
 1127 0632 9342     		cmp	r3, r2
 1128 0634 0EEB050C 		add	ip, lr, r5
 1129              	.LVL131:
 1130 0638 40F29680 		bls	.L29
 1131 063c 119B     		ldr	r3, [sp, #68]
 1132 063e 0E9A     		ldr	r2, [sp, #56]
 1133 0640 CDF804E0 		str	lr, [sp, #4]
 1134 0644 1344     		add	r3, r3, r2
 1135 0646 D346     		mov	fp, r10
 1136 0648 0A93     		str	r3, [sp, #40]
 1137 064a BE46     		mov	lr, r7
 1138              	.LVL132:
ARM GAS  /tmp/ccUp6Xac.s 			page 21


 1139 064c E246     		mov	r10, ip
 1140              	.LVL133:
 1141              	.L28:
 1142              		.loc 1 1213 0 discriminator 3
 1143 064e 0198     		ldr	r0, [sp, #4]
 1144 0650 DEF80070 		ldr	r7, [lr]
 1145 0654 0568     		ldr	r5, [r0]
 1146              		.loc 1 1227 0 discriminator 3
 1147 0656 DAF80020 		ldr	r2, [r10]
 1148 065a DBF80010 		ldr	r1, [fp]
 1149              		.loc 1 1220 0 discriminator 3
 1150 065e 4368     		ldr	r3, [r0, #4]
 1151 0660 DEF80440 		ldr	r4, [lr, #4]
 1152              		.loc 1 1213 0 discriminator 3
 1153 0664 7819     		adds	r0, r7, r5
 1154              	.LVL134:
 1155              		.loc 1 1227 0 discriminator 3
 1156 0666 1144     		add	r1, r1, r2
 1157              		.loc 1 1231 0 discriminator 3
 1158 0668 4218     		adds	r2, r0, r1
 1159 066a 9210     		asrs	r2, r2, #2
 1160 066c CEF80020 		str	r2, [lr]
 1161              		.loc 1 1235 0 discriminator 3
 1162 0670 DAF80420 		ldr	r2, [r10, #4]
 1163 0674 DBF80460 		ldr	r6, [fp, #4]
 1164              		.loc 1 1220 0 discriminator 3
 1165 0678 04EB0308 		add	r8, r4, r3
 1166              		.loc 1 1235 0 discriminator 3
 1167 067c 1644     		add	r6, r6, r2
 1168              		.loc 1 1238 0 discriminator 3
 1169 067e 08EB0602 		add	r2, r8, r6
 1170 0682 9210     		asrs	r2, r2, #2
 1171 0684 CEF80420 		str	r2, [lr, #4]
 1172              		.loc 1 1216 0 discriminator 3
 1173 0688 C5EB0709 		rsb	r9, r5, r7
 1174              	.LVL135:
 1175              		.loc 1 1245 0 discriminator 3
 1176 068c DAF80420 		ldr	r2, [r10, #4]
 1177 0690 DBF80450 		ldr	r5, [fp, #4]
 1178              		.loc 1 1248 0 discriminator 3
 1179 0694 DAF80070 		ldr	r7, [r10]
 1180              		.loc 1 1245 0 discriminator 3
 1181 0698 AA1A     		subs	r2, r5, r2
 1182              		.loc 1 1248 0 discriminator 3
 1183 069a DBF80050 		ldr	r5, [fp]
 1184              		.loc 1 1223 0 discriminator 3
 1185 069e E41A     		subs	r4, r4, r3
 1186              	.LVL136:
 1187              		.loc 1 1248 0 discriminator 3
 1188 06a0 EB1B     		subs	r3, r5, r7
 1189              		.loc 1 1273 0 discriminator 3
 1190 06a2 039F     		ldr	r7, [sp, #12]
 1191              		.loc 1 1263 0 discriminator 3
 1192 06a4 C2EB0905 		rsb	r5, r2, r9
 1193              		.loc 1 1242 0 discriminator 3
 1194 06a8 C6EB080C 		rsb	ip, r6, r8
 1195              		.loc 1 1233 0 discriminator 3
ARM GAS  /tmp/ccUp6Xac.s 			page 22


 1196 06ac 411A     		subs	r1, r0, r1
 1197              	.LVL137:
 1198              		.loc 1 1273 0 discriminator 3
 1199 06ae 0C95     		str	r5, [sp, #48]
 1200              		.loc 1 1268 0 discriminator 3
 1201 06b0 E018     		adds	r0, r4, r3
 1202              		.loc 1 1265 0 discriminator 3
 1203 06b2 4A44     		add	r2, r2, r9
 1204              		.loc 1 1270 0 discriminator 3
 1205 06b4 E31A     		subs	r3, r4, r3
 1206              		.loc 1 1273 0 discriminator 3
 1207 06b6 85FB0789 		smull	r8, r9, r5, r7
 1208              	.LVL138:
 1209              		.loc 1 1253 0 discriminator 3
 1210 06ba 049C     		ldr	r4, [sp, #16]
 1211              	.LVL139:
 1212              		.loc 1 1274 0 discriminator 3
 1213 06bc 089D     		ldr	r5, [sp, #32]
 1214              		.loc 1 1265 0 discriminator 3
 1215 06be 0292     		str	r2, [sp, #8]
 1216              		.loc 1 1274 0 discriminator 3
 1217 06c0 80FB0567 		smull	r6, r7, r0, r5
 1218              	.LVL140:
 1219              		.loc 1 1253 0 discriminator 3
 1220 06c4 2246     		mov	r2, r4
 1221 06c6 8CFB0245 		smull	r4, r5, ip, r2
 1222              		.loc 1 1273 0 discriminator 3
 1223 06ca C7EB0902 		rsb	r2, r7, r9
 1224 06ce 0D92     		str	r2, [sp, #52]
 1225              		.loc 1 1252 0 discriminator 3
 1226 06d0 109A     		ldr	r2, [sp, #64]
 1227              		.loc 1 1259 0 discriminator 3
 1228 06d2 049C     		ldr	r4, [sp, #16]
 1229              		.loc 1 1252 0 discriminator 3
 1230 06d4 1646     		mov	r6, r2
 1231 06d6 81FB0667 		smull	r6, r7, r1, r6
 1232              		.loc 1 1258 0 discriminator 3
 1233 06da 9046     		mov	r8, r2
 1234 06dc 8CFB0889 		smull	r8, r9, ip, r8
 1235              		.loc 1 1282 0 discriminator 3
 1236 06e0 069A     		ldr	r2, [sp, #24]
 1237              		.loc 1 1278 0 discriminator 3
 1238 06e2 0C9E     		ldr	r6, [sp, #48]
 1239              		.loc 1 1252 0 discriminator 3
 1240 06e4 C5EB070C 		rsb	ip, r5, r7
 1241              		.loc 1 1259 0 discriminator 3
 1242 06e8 81FB0445 		smull	r4, r5, r1, r4
 1243              		.loc 1 1258 0 discriminator 3
 1244 06ec 05EB0904 		add	r4, r5, r9
 1245              		.loc 1 1277 0 discriminator 3
 1246 06f0 039F     		ldr	r7, [sp, #12]
 1247              		.loc 1 1258 0 discriminator 3
 1248 06f2 0C94     		str	r4, [sp, #48]
 1249              		.loc 1 1282 0 discriminator 3
 1250 06f4 1446     		mov	r4, r2
 1251              		.loc 1 1287 0 discriminator 3
 1252 06f6 099A     		ldr	r2, [sp, #36]
ARM GAS  /tmp/ccUp6Xac.s 			page 23


 1253              		.loc 1 1282 0 discriminator 3
 1254 06f8 029D     		ldr	r5, [sp, #8]
 1255              		.loc 1 1277 0 discriminator 3
 1256 06fa 80FB0701 		smull	r0, r1, r0, r7
 1257              		.loc 1 1287 0 discriminator 3
 1258 06fe 9046     		mov	r8, r2
 1259              		.loc 1 1278 0 discriminator 3
 1260 0700 089F     		ldr	r7, [sp, #32]
 1261              		.loc 1 1287 0 discriminator 3
 1262 0702 029A     		ldr	r2, [sp, #8]
 1263              		.loc 1 1278 0 discriminator 3
 1264 0704 86FB0767 		smull	r6, r7, r6, r7
 1265              		.loc 1 1287 0 discriminator 3
 1266 0708 82FB0889 		smull	r8, r9, r2, r8
 1267              		.loc 1 1283 0 discriminator 3
 1268 070c 099E     		ldr	r6, [sp, #36]
 1269              		.loc 1 1286 0 discriminator 3
 1270 070e 069A     		ldr	r2, [sp, #24]
 1271              		.loc 1 1277 0 discriminator 3
 1272 0710 3944     		add	r1, r1, r7
 1273              	.LVL141:
 1274              		.loc 1 1283 0 discriminator 3
 1275 0712 83FB0667 		smull	r6, r7, r3, r6
 1276              		.loc 1 1286 0 discriminator 3
 1277 0716 83FB0223 		smull	r2, r3, r3, r2
 1278              		.loc 1 1274 0 discriminator 3
 1279 071a 0D9A     		ldr	r2, [sp, #52]
 1280              		.loc 1 1282 0 discriminator 3
 1281 071c 85FB0445 		smull	r4, r5, r5, r4
 1282              		.loc 1 1274 0 discriminator 3
 1283 0720 5410     		asrs	r4, r2, #1
 1284              		.loc 1 1259 0 discriminator 3
 1285 0722 0C9A     		ldr	r2, [sp, #48]
 1286 0724 5010     		asrs	r0, r2, #1
 1287              		.loc 1 1256 0 discriminator 3
 1288 0726 CBF80400 		str	r0, [fp, #4]
 1289              		.loc 1 1282 0 discriminator 3
 1290 072a EE1B     		subs	r6, r5, r7
 1291              		.loc 1 1273 0 discriminator 3
 1292 072c 0198     		ldr	r0, [sp, #4]
 1293              		.loc 1 1239 0 discriminator 3
 1294 072e 0B9F     		ldr	r7, [sp, #44]
 1295              		.loc 1 1286 0 discriminator 3
 1296 0730 4B44     		add	r3, r3, r9
 1297              		.loc 1 1253 0 discriminator 3
 1298 0732 4FEA6C05 		asr	r5, ip, #1
 1299              		.loc 1 1278 0 discriminator 3
 1300 0736 4910     		asrs	r1, r1, #1
 1301 0738 DDF828C0 		ldr	ip, [sp, #40]
 1302              		.loc 1 1252 0 discriminator 3
 1303 073c CBF80050 		str	r5, [fp]
 1304              		.loc 1 1283 0 discriminator 3
 1305 0740 7210     		asrs	r2, r6, #1
 1306              		.loc 1 1287 0 discriminator 3
 1307 0742 5B10     		asrs	r3, r3, #1
 1308              		.loc 1 1277 0 discriminator 3
 1309 0744 4160     		str	r1, [r0, #4]
ARM GAS  /tmp/ccUp6Xac.s 			page 24


 1310 0746 0E9D     		ldr	r5, [sp, #56]
 1311              		.loc 1 1273 0 discriminator 3
 1312 0748 0460     		str	r4, [r0]
 1313              		.loc 1 1286 0 discriminator 3
 1314 074a 8AE80C00 		stmia	r10, {r2, r3}
 1315              		.loc 1 1209 0 discriminator 3
 1316 074e 0F9B     		ldr	r3, [sp, #60]
 1317 0750 6646     		mov	r6, ip
 1318              		.loc 1 1279 0 discriminator 3
 1319 0752 C119     		adds	r1, r0, r7
 1320 0754 AC44     		add	ip, ip, r5
 1321              		.loc 1 1209 0 discriminator 3
 1322 0756 B342     		cmp	r3, r6
 1323              		.loc 1 1239 0 discriminator 3
 1324 0758 BE44     		add	lr, lr, r7
 1325              	.LVL142:
 1326 075a CDF828C0 		str	ip, [sp, #40]
 1327              	.LVL143:
 1328              		.loc 1 1260 0 discriminator 3
 1329 075e BB44     		add	fp, fp, r7
 1330              	.LVL144:
 1331              		.loc 1 1279 0 discriminator 3
 1332 0760 0191     		str	r1, [sp, #4]
 1333              	.LVL145:
 1334              		.loc 1 1288 0 discriminator 3
 1335 0762 BA44     		add	r10, r10, r7
 1336              	.LVL146:
 1337              		.loc 1 1209 0 discriminator 3
 1338 0764 3FF673AF 		bhi	.L28
 1339              	.LVL147:
 1340              	.L29:
 1341 0768 129A     		ldr	r2, [sp, #72]
 1342 076a 1899     		ldr	r1, [sp, #96]
 1343              		.loc 1 1190 0
 1344 076c 119B     		ldr	r3, [sp, #68]
 1345 076e 0A44     		add	r2, r2, r1
 1346 0770 1292     		str	r2, [sp, #72]
 1347 0772 139A     		ldr	r2, [sp, #76]
 1348 0774 0832     		adds	r2, r2, #8
 1349 0776 1392     		str	r2, [sp, #76]
 1350 0778 179A     		ldr	r2, [sp, #92]
 1351 077a 0133     		adds	r3, r3, #1
 1352 077c 9342     		cmp	r3, r2
 1353 077e 1193     		str	r3, [sp, #68]
 1354              	.LVL148:
 1355 0780 7FF636AF 		bls	.L26
 1356              		.loc 1 1183 0 discriminator 2
 1357 0784 1A9B     		ldr	r3, [sp, #104]
 1358              	.LVL149:
 1359              		.loc 1 1291 0 discriminator 2
 1360 0786 159A     		ldr	r2, [sp, #84]
 1361              		.loc 1 1183 0 discriminator 2
 1362 0788 9B08     		lsrs	r3, r3, #2
 1363              		.loc 1 1291 0 discriminator 2
 1364 078a 9200     		lsls	r2, r2, #2
 1365 078c 1592     		str	r2, [sp, #84]
 1366              	.LVL150:
ARM GAS  /tmp/ccUp6Xac.s 			page 25


 1367              		.loc 1 1183 0 discriminator 2
 1368 078e 042B     		cmp	r3, #4
 1369              		.loc 1 1187 0 discriminator 2
 1370 0790 1B9A     		ldr	r2, [sp, #108]
 1371              	.LVL151:
 1372              		.loc 1 1183 0 discriminator 2
 1373 0792 1A93     		str	r3, [sp, #104]
 1374              		.loc 1 1187 0 discriminator 2
 1375 0794 0E92     		str	r2, [sp, #56]
 1376              	.LVL152:
 1377              		.loc 1 1183 0 discriminator 2
 1378 0796 3FF611AF 		bhi	.L30
 1379              	.LVL153:
 1380              	.L31:
 1381 079a 1C98     		ldr	r0, [sp, #112]
 1382 079c DDF87480 		ldr	r8, [sp, #116]
 1383 07a0 2030     		adds	r0, r0, #32
 1384              	.LVL154:
 1385              	.L24:
 1386              		.loc 1 1315 0 discriminator 1
 1387 07a2 50F8202C 		ldr	r2, [r0, #-32]
 1388              		.loc 1 1320 0 discriminator 1
 1389 07a6 50F8181C 		ldr	r1, [r0, #-24]
 1390 07aa 50F8143C 		ldr	r3, [r0, #-20]
 1391              		.loc 1 1315 0 discriminator 1
 1392 07ae 50F81C9C 		ldr	r9, [r0, #-28]
 1393              	.LVL155:
 1394              		.loc 1 1325 0 discriminator 1
 1395 07b2 50F810AC 		ldr	r10, [r0, #-16]
 1396 07b6 50F80CCC 		ldr	ip, [r0, #-12]
 1397              	.LVL156:
 1398              		.loc 1 1330 0 discriminator 1
 1399 07ba 10E91040 		ldmdb	r0, {r4, lr}
 1400              	.LVL157:
 1401              		.loc 1 1360 0 discriminator 1
 1402 07be 5718     		adds	r7, r2, r1
 1403              		.loc 1 1372 0 discriminator 1
 1404 07c0 561A     		subs	r6, r2, r1
 1405              		.loc 1 1379 0 discriminator 1
 1406 07c2 D51A     		subs	r5, r2, r3
 1407              		.loc 1 1386 0 discriminator 1
 1408 07c4 1A44     		add	r2, r2, r3
 1409              	.LVL158:
 1410              		.loc 1 1363 0 discriminator 1
 1411 07c6 09EB030B 		add	fp, r9, r3
 1412              		.loc 1 1360 0 discriminator 1
 1413 07ca 5744     		add	r7, r7, r10
 1414              		.loc 1 1372 0 discriminator 1
 1415 07cc 5644     		add	r6, r6, r10
 1416              		.loc 1 1379 0 discriminator 1
 1417 07ce CAEB0505 		rsb	r5, r10, r5
 1418              		.loc 1 1373 0 discriminator 1
 1419 07d2 C3EB0903 		rsb	r3, r3, r9
 1420              	.LVL159:
 1421              		.loc 1 1386 0 discriminator 1
 1422 07d6 CAEB020A 		rsb	r10, r10, r2
 1423              	.LVL160:
ARM GAS  /tmp/ccUp6Xac.s 			page 26


 1424              		.loc 1 1380 0 discriminator 1
 1425 07da 09EB0102 		add	r2, r9, r1
 1426              		.loc 1 1387 0 discriminator 1
 1427 07de C1EB0901 		rsb	r1, r1, r9
 1428              	.LVL161:
 1429              		.loc 1 1373 0 discriminator 1
 1430 07e2 6344     		add	r3, r3, ip
 1431              		.loc 1 1363 0 discriminator 1
 1432 07e4 E344     		add	fp, fp, ip
 1433              		.loc 1 1380 0 discriminator 1
 1434 07e6 CCEB0202 		rsb	r2, ip, r2
 1435              		.loc 1 1387 0 discriminator 1
 1436 07ea CCEB0101 		rsb	r1, ip, r1
 1437              		.loc 1 1379 0 discriminator 1
 1438 07ee 7544     		add	r5, r5, lr
 1439              		.loc 1 1386 0 discriminator 1
 1440 07f0 CEEB0A0A 		rsb	r10, lr, r10
 1441              		.loc 1 1363 0 discriminator 1
 1442 07f4 F344     		add	fp, fp, lr
 1443              	.LVL162:
 1444              		.loc 1 1360 0 discriminator 1
 1445 07f6 2744     		add	r7, r7, r4
 1446              	.LVL163:
 1447              		.loc 1 1373 0 discriminator 1
 1448 07f8 CEEB030E 		rsb	lr, lr, r3
 1449              	.LVL164:
 1450              		.loc 1 1372 0 discriminator 1
 1451 07fc 361B     		subs	r6, r6, r4
 1452              		.loc 1 1380 0 discriminator 1
 1453 07fe 121B     		subs	r2, r2, r4
 1454              		.loc 1 1387 0 discriminator 1
 1455 0800 0B19     		adds	r3, r1, r4
 1456              		.loc 1 1393 0 discriminator 1
 1457 0802 B8F10108 		subs	r8, r8, #1
 1458              	.LVL165:
 1459              		.loc 1 1369 0 discriminator 1
 1460 0806 40F8207C 		str	r7, [r0, #-32]
 1461              	.LVL166:
 1462              		.loc 1 1376 0 discriminator 1
 1463 080a 40F8186C 		str	r6, [r0, #-24]
 1464              	.LVL167:
 1465              		.loc 1 1383 0 discriminator 1
 1466 080e 40F8105C 		str	r5, [r0, #-16]
 1467              	.LVL168:
 1468              		.loc 1 1390 0 discriminator 1
 1469 0812 40F808AC 		str	r10, [r0, #-8]
 1470              		.loc 1 1370 0 discriminator 1
 1471 0816 40F81CBC 		str	fp, [r0, #-28]
 1472              	.LVL169:
 1473              		.loc 1 1377 0 discriminator 1
 1474 081a 40F814EC 		str	lr, [r0, #-20]
 1475              	.LVL170:
 1476              		.loc 1 1384 0 discriminator 1
 1477 081e 40F80C2C 		str	r2, [r0, #-12]
 1478              	.LVL171:
 1479              		.loc 1 1391 0 discriminator 1
 1480 0822 40F8043C 		str	r3, [r0, #-4]
ARM GAS  /tmp/ccUp6Xac.s 			page 27


 1481              	.LVL172:
 1482 0826 00F12000 		add	r0, r0, #32
 1483              	.LVL173:
 1484              		.loc 1 1393 0 discriminator 1
 1485 082a BAD1     		bne	.L24
 1486              		.loc 1 1401 0
 1487 082c 1FB0     		add	sp, sp, #124
 1488              		.cfi_def_cfa_offset 36
 1489              		@ sp needed
 1490 082e BDE8F08F 		pop	{r4, r5, r6, r7, r8, r9, r10, fp, pc}
 1491              		.cfi_endproc
 1492              	.LFE137:
 1493              		.size	arm_radix4_butterfly_inverse_q31, .-arm_radix4_butterfly_inverse_q31
 1494 0832 00BF     		.align	2
 1495 0834 AFF30080 		.p2align 4,,15
 1495      AFF30080 
 1495      AFF30080 
 1496              		.global	arm_cfft_radix4_q31
 1497              		.thumb
 1498              		.thumb_func
 1499              		.type	arm_cfft_radix4_q31, %function
 1500              	arm_cfft_radix4_q31:
 1501              	.LFB135:
 1502              		.loc 1 93 0
 1503              		.cfi_startproc
 1504              		@ args = 0, pretend = 0, frame = 0
 1505              		@ frame_needed = 0, uses_anonymous_args = 0
 1506              	.LVL174:
 1507 0840 70B5     		push	{r4, r5, r6, lr}
 1508              		.cfi_def_cfa_offset 16
 1509              		.cfi_offset 4, -16
 1510              		.cfi_offset 5, -12
 1511              		.cfi_offset 6, -8
 1512              		.cfi_offset 14, -4
 1513              		.loc 1 94 0
 1514 0842 8378     		ldrb	r3, [r0, #2]	@ zero_extendqisi2
 1515              		.loc 1 93 0
 1516 0844 0446     		mov	r4, r0
 1517              		.loc 1 94 0
 1518 0846 012B     		cmp	r3, #1
 1519              		.loc 1 93 0
 1520 0848 0D46     		mov	r5, r1
 1521              		.loc 1 97 0
 1522 084a 0846     		mov	r0, r1
 1523              	.LVL175:
 1524 084c 6268     		ldr	r2, [r4, #4]
 1525 084e 2188     		ldrh	r1, [r4]
 1526              	.LVL176:
 1527 0850 A389     		ldrh	r3, [r4, #12]
 1528              		.loc 1 94 0
 1529 0852 05D0     		beq	.L45
 1530              		.loc 1 102 0
 1531 0854 FFF7FEFF 		bl	arm_radix4_butterfly_q31
 1532              	.LVL177:
 1533              		.loc 1 105 0
 1534 0858 E378     		ldrb	r3, [r4, #3]	@ zero_extendqisi2
 1535 085a 012B     		cmp	r3, #1
ARM GAS  /tmp/ccUp6Xac.s 			page 28


 1536 085c 05D0     		beq	.L46
 1537              	.L40:
 1538 085e 70BD     		pop	{r4, r5, r6, pc}
 1539              	.LVL178:
 1540              	.L45:
 1541              		.loc 1 97 0
 1542 0860 FFF7FEFF 		bl	arm_radix4_butterfly_inverse_q31
 1543              	.LVL179:
 1544              		.loc 1 105 0
 1545 0864 E378     		ldrb	r3, [r4, #3]	@ zero_extendqisi2
 1546 0866 012B     		cmp	r3, #1
 1547 0868 F9D1     		bne	.L40
 1548              	.L46:
 1549              		.loc 1 108 0
 1550 086a 2846     		mov	r0, r5
 1551 086c 2188     		ldrh	r1, [r4]
 1552 086e E289     		ldrh	r2, [r4, #14]
 1553 0870 A368     		ldr	r3, [r4, #8]
 1554              		.loc 1 111 0
 1555 0872 BDE87040 		pop	{r4, r5, r6, lr}
 1556              		.cfi_restore 14
 1557              		.cfi_restore 6
 1558              		.cfi_restore 5
 1559              		.cfi_restore 4
 1560              		.cfi_def_cfa_offset 0
 1561              	.LVL180:
 1562              		.loc 1 108 0
 1563 0876 FFF7FEBF 		b	arm_bitreversal_q31
 1564              	.LVL181:
 1565              		.cfi_endproc
 1566              	.LFE135:
 1567              		.size	arm_cfft_radix4_q31, .-arm_cfft_radix4_q31
 1568              	.Letext0:
 1569              		.file 2 "/home/sbcu/Dropbox/pcb-layouts/axo-on-discovery-board/axoloti/platform_linux/arm-none-eab
 1570              		.file 3 "/home/sbcu/Dropbox/pcb-layouts/axo-on-discovery-board/axoloti/platform_linux/arm-none-eab
 1571              		.file 4 "/home/sbcu/Dropbox/pcb-layouts/axo-on-discovery-board/axoloti/platform_linux/../CMSIS//DS