ARM GAS  /tmp/cc240WPN.s 			page 1


   1              		.syntax unified
   2              		.cpu cortex-m4
   3              		.eabi_attribute 27, 1
   4              		.eabi_attribute 28, 1
   5              		.fpu fpv4-sp-d16
   6              		.eabi_attribute 20, 1
   7              		.eabi_attribute 21, 1
   8              		.eabi_attribute 23, 3
   9              		.eabi_attribute 24, 1
  10              		.eabi_attribute 25, 1
  11              		.eabi_attribute 26, 1
  12              		.eabi_attribute 30, 2
  13              		.eabi_attribute 34, 1
  14              		.eabi_attribute 18, 4
  15              		.thumb
  16              		.file	"arm_fir_interpolate_init_q31.c"
  17              		.text
  18              	.Ltext0:
  19              		.cfi_sections	.debug_frame
  20              		.align	2
  21              		.p2align 4,,15
  22              		.global	arm_fir_interpolate_init_q31
  23              		.thumb
  24              		.thumb_func
  25              		.type	arm_fir_interpolate_init_q31, %function
  26              	arm_fir_interpolate_init_q31:
  27              	.LFB135:
  28              		.file 1 "/home/sbcu/Dropbox/pcb-layouts/axo-on-discovery-board/axoloti/platform_linux/../CMSIS//DS
  29              		.loc 1 84 0
  30              		.cfi_startproc
  31              		@ args = 8, pretend = 0, frame = 0
  32              		@ frame_needed = 0, uses_anonymous_args = 0
  33              	.LVL0:
  34 0000 70B5     		push	{r4, r5, r6, lr}
  35              		.cfi_def_cfa_offset 16
  36              		.cfi_offset 4, -16
  37              		.cfi_offset 5, -12
  38              		.cfi_offset 6, -8
  39              		.cfi_offset 14, -4
  40              		.loc 1 88 0
  41 0002 92FBF1F6 		sdiv	r6, r2, r1
  42 0006 01FB1624 		mls	r4, r1, r6, r2
  43 000a 94B9     		cbnz	r4, .L3
  44 000c 059A     		ldr	r2, [sp, #20]
  45              	.LVL1:
  46              		.loc 1 97 0
  47 000e 4360     		str	r3, [r0, #4]
  48 0010 02F18042 		add	r2, r2, #1073741824
  49 0014 013A     		subs	r2, r2, #1
  50              		.loc 1 106 0
  51 0016 3244     		add	r2, r2, r6
  52              		.loc 1 100 0
  53 0018 0170     		strb	r1, [r0]
  54 001a 0546     		mov	r5, r0
  55              		.loc 1 103 0
  56 001c 4680     		strh	r6, [r0, #2]	@ movhi
  57              		.loc 1 106 0
ARM GAS  /tmp/cc240WPN.s 			page 2


  58 001e 9200     		lsls	r2, r2, #2
  59 0020 0498     		ldr	r0, [sp, #16]
  60              	.LVL2:
  61 0022 2146     		mov	r1, r4
  62              	.LVL3:
  63 0024 FFF7FEFF 		bl	memset
  64              	.LVL4:
  65              		.loc 1 110 0
  66 0028 049B     		ldr	r3, [sp, #16]
  67 002a AB60     		str	r3, [r5, #8]
  68              	.LVL5:
  69              		.loc 1 112 0
  70 002c 2046     		mov	r0, r4
  71              	.LVL6:
  72              	.L2:
  73              		.loc 1 117 0
  74 002e 40B2     		sxtb	r0, r0
  75 0030 70BD     		pop	{r4, r5, r6, pc}
  76              	.LVL7:
  77              	.L3:
  78              		.loc 1 91 0
  79 0032 FE20     		movs	r0, #254
  80              	.LVL8:
  81 0034 FBE7     		b	.L2
  82              		.cfi_endproc
  83              	.LFE135:
  84              		.size	arm_fir_interpolate_init_q31, .-arm_fir_interpolate_init_q31
  85              	.Letext0:
  86              		.file 2 "/home/sbcu/Dropbox/pcb-layouts/axo-on-discovery-board/axoloti/platform_linux/arm-none-eab
  87              		.file 3 "/home/sbcu/Dropbox/pcb-layouts/axo-on-discovery-board/axoloti/platform_linux/arm-none-eab
  88              		.file 4 "/home/sbcu/Dropbox/pcb-layouts/axo-on-discovery-board/axoloti/platform_linux/../CMSIS//DS
  89 0036 00BF     		.section	.debug_info,"",%progbits
  90              	.Ldebug_info0:
  91 0000 42020000 		.4byte	0x242
  92 0004 0400     		.2byte	0x4
  93 0006 00000000 		.4byte	.Ldebug_abbrev0
  94 000a 04       		.byte	0x4
  95 000b 01       		.uleb128 0x1
  96 000c 00000000 		.4byte	.LASF37
  97 0010 01       		.byte	0x1
  98 0011 2B020000 		.4byte	.LASF38
  99 0015 00000000 		.4byte	.Ltext0
 100 0019 36000000 		.4byte	.Letext0-.Ltext0
 101 001d 00000000 		.4byte	.Ldebug_line0
 102 0021 02       		.uleb128 0x2
 103 0022 01       		.byte	0x1
 104 0023 06       		.byte	0x6
 105 0024 56030000 		.4byte	.LASF0
 106 0028 03       		.uleb128 0x3
 107 0029 F9000000 		.4byte	.LASF3
 108 002d 02       		.byte	0x2
 109 002e 1D       		.byte	0x1d
 110 002f 33000000 		.4byte	0x33
 111 0033 02       		.uleb128 0x2
 112 0034 01       		.byte	0x1
 113 0035 08       		.byte	0x8
 114 0036 6A010000 		.4byte	.LASF1
ARM GAS  /tmp/cc240WPN.s 			page 3


 115 003a 02       		.uleb128 0x2
 116 003b 02       		.byte	0x2
 117 003c 05       		.byte	0x5
 118 003d 09030000 		.4byte	.LASF2
 119 0041 03       		.uleb128 0x3
 120 0042 BA010000 		.4byte	.LASF4
 121 0046 02       		.byte	0x2
 122 0047 2B       		.byte	0x2b
 123 0048 4C000000 		.4byte	0x4c
 124 004c 02       		.uleb128 0x2
 125 004d 02       		.byte	0x2
 126 004e 07       		.byte	0x7
 127 004f 8A010000 		.4byte	.LASF5
 128 0053 03       		.uleb128 0x3
 129 0054 36010000 		.4byte	.LASF6
 130 0058 02       		.byte	0x2
 131 0059 3F       		.byte	0x3f
 132 005a 5E000000 		.4byte	0x5e
 133 005e 02       		.uleb128 0x2
 134 005f 04       		.byte	0x4
 135 0060 05       		.byte	0x5
 136 0061 41030000 		.4byte	.LASF7
 137 0065 03       		.uleb128 0x3
 138 0066 CC010000 		.4byte	.LASF8
 139 006a 02       		.byte	0x2
 140 006b 41       		.byte	0x41
 141 006c 70000000 		.4byte	0x70
 142 0070 02       		.uleb128 0x2
 143 0071 04       		.byte	0x4
 144 0072 07       		.byte	0x7
 145 0073 78010000 		.4byte	.LASF9
 146 0077 02       		.uleb128 0x2
 147 0078 08       		.byte	0x8
 148 0079 05       		.byte	0x5
 149 007a D4020000 		.4byte	.LASF10
 150 007e 02       		.uleb128 0x2
 151 007f 08       		.byte	0x8
 152 0080 07       		.byte	0x7
 153 0081 FC010000 		.4byte	.LASF11
 154 0085 04       		.uleb128 0x4
 155 0086 04       		.byte	0x4
 156 0087 05       		.byte	0x5
 157 0088 696E7400 		.ascii	"int\000"
 158 008c 02       		.uleb128 0x2
 159 008d 04       		.byte	0x4
 160 008e 07       		.byte	0x7
 161 008f EF010000 		.4byte	.LASF12
 162 0093 03       		.uleb128 0x3
 163 0094 13020000 		.4byte	.LASF13
 164 0098 03       		.byte	0x3
 165 0099 14       		.byte	0x14
 166 009a 28000000 		.4byte	0x28
 167 009e 03       		.uleb128 0x3
 168 009f 1B030000 		.4byte	.LASF14
 169 00a3 03       		.byte	0x3
 170 00a4 1A       		.byte	0x1a
 171 00a5 41000000 		.4byte	0x41
ARM GAS  /tmp/cc240WPN.s 			page 4


 172 00a9 03       		.uleb128 0x3
 173 00aa C3020000 		.4byte	.LASF15
 174 00ae 03       		.byte	0x3
 175 00af 1F       		.byte	0x1f
 176 00b0 53000000 		.4byte	0x53
 177 00b4 03       		.uleb128 0x3
 178 00b5 38030000 		.4byte	.LASF16
 179 00b9 03       		.byte	0x3
 180 00ba 20       		.byte	0x20
 181 00bb 65000000 		.4byte	0x65
 182 00bf 02       		.uleb128 0x2
 183 00c0 04       		.byte	0x4
 184 00c1 07       		.byte	0x7
 185 00c2 CB020000 		.4byte	.LASF17
 186 00c6 05       		.uleb128 0x5
 187 00c7 04       		.byte	0x4
 188 00c8 02       		.uleb128 0x2
 189 00c9 01       		.byte	0x1
 190 00ca 08       		.byte	0x8
 191 00cb F3020000 		.4byte	.LASF18
 192 00cf 02       		.uleb128 0x2
 193 00d0 08       		.byte	0x8
 194 00d1 04       		.byte	0x4
 195 00d2 C5010000 		.4byte	.LASF19
 196 00d6 02       		.uleb128 0x2
 197 00d7 04       		.byte	0x4
 198 00d8 04       		.byte	0x4
 199 00d9 5E010000 		.4byte	.LASF20
 200 00dd 02       		.uleb128 0x2
 201 00de 08       		.byte	0x8
 202 00df 04       		.byte	0x4
 203 00e0 4A030000 		.4byte	.LASF21
 204 00e4 06       		.uleb128 0x6
 205 00e5 01       		.byte	0x1
 206 00e6 04       		.byte	0x4
 207 00e7 8901     		.2byte	0x189
 208 00e9 18010000 		.4byte	0x118
 209 00ed 07       		.uleb128 0x7
 210 00ee F8020000 		.4byte	.LASF22
 211 00f2 00       		.sleb128 0
 212 00f3 07       		.uleb128 0x7
 213 00f4 D7010000 		.4byte	.LASF23
 214 00f8 7F       		.sleb128 -1
 215 00f9 07       		.uleb128 0x7
 216 00fa 03010000 		.4byte	.LASF24
 217 00fe 7E       		.sleb128 -2
 218 00ff 07       		.uleb128 0x7
 219 0100 47010000 		.4byte	.LASF25
 220 0104 7D       		.sleb128 -3
 221 0105 07       		.uleb128 0x7
 222 0106 1B020000 		.4byte	.LASF26
 223 010a 7C       		.sleb128 -4
 224 010b 07       		.uleb128 0x7
 225 010c 8E030000 		.4byte	.LASF27
 226 0110 7B       		.sleb128 -5
 227 0111 07       		.uleb128 0x7
 228 0112 9D010000 		.4byte	.LASF28
ARM GAS  /tmp/cc240WPN.s 			page 5


 229 0116 7A       		.sleb128 -6
 230 0117 00       		.byte	0
 231 0118 08       		.uleb128 0x8
 232 0119 83030000 		.4byte	.LASF29
 233 011d 04       		.byte	0x4
 234 011e 9101     		.2byte	0x191
 235 0120 E4000000 		.4byte	0xe4
 236 0124 08       		.uleb128 0x8
 237 0125 64010000 		.4byte	.LASF30
 238 0129 04       		.byte	0x4
 239 012a A001     		.2byte	0x1a0
 240 012c A9000000 		.4byte	0xa9
 241 0130 09       		.uleb128 0x9
 242 0131 04       		.byte	0x4
 243 0132 24010000 		.4byte	0x124
 244 0136 0A       		.uleb128 0xa
 245 0137 0C       		.byte	0xc
 246 0138 04       		.byte	0x4
 247 0139 B90D     		.2byte	0xdb9
 248 013b 72010000 		.4byte	0x172
 249 013f 0B       		.uleb128 0xb
 250 0140 4C00     		.ascii	"L\000"
 251 0142 04       		.byte	0x4
 252 0143 BB0D     		.2byte	0xdbb
 253 0145 93000000 		.4byte	0x93
 254 0149 00       		.byte	0
 255 014a 0C       		.uleb128 0xc
 256 014b 24030000 		.4byte	.LASF31
 257 014f 04       		.byte	0x4
 258 0150 BC0D     		.2byte	0xdbc
 259 0152 9E000000 		.4byte	0x9e
 260 0156 02       		.byte	0x2
 261 0157 0C       		.uleb128 0xc
 262 0158 30030000 		.4byte	.LASF32
 263 015c 04       		.byte	0x4
 264 015d BD0D     		.2byte	0xdbd
 265 015f 30010000 		.4byte	0x130
 266 0163 04       		.byte	0x4
 267 0164 0C       		.uleb128 0xc
 268 0165 EC020000 		.4byte	.LASF33
 269 0169 04       		.byte	0x4
 270 016a BE0D     		.2byte	0xdbe
 271 016c 30010000 		.4byte	0x130
 272 0170 08       		.byte	0x8
 273 0171 00       		.byte	0
 274 0172 08       		.uleb128 0x8
 275 0173 62030000 		.4byte	.LASF34
 276 0177 04       		.byte	0x4
 277 0178 BF0D     		.2byte	0xdbf
 278 017a 36010000 		.4byte	0x136
 279 017e 0D       		.uleb128 0xd
 280 017f 19010000 		.4byte	.LASF39
 281 0183 01       		.byte	0x1
 282 0184 4D       		.byte	0x4d
 283 0185 18010000 		.4byte	0x118
 284 0189 00000000 		.4byte	.LFB135
 285 018d 36000000 		.4byte	.LFE135-.LFB135
ARM GAS  /tmp/cc240WPN.s 			page 6


 286 0191 01       		.uleb128 0x1
 287 0192 9C       		.byte	0x9c
 288 0193 26020000 		.4byte	0x226
 289 0197 0E       		.uleb128 0xe
 290 0198 5300     		.ascii	"S\000"
 291 019a 01       		.byte	0x1
 292 019b 4E       		.byte	0x4e
 293 019c 26020000 		.4byte	0x226
 294 01a0 00000000 		.4byte	.LLST0
 295 01a4 0E       		.uleb128 0xe
 296 01a5 4C00     		.ascii	"L\000"
 297 01a7 01       		.byte	0x1
 298 01a8 4F       		.byte	0x4f
 299 01a9 93000000 		.4byte	0x93
 300 01ad 45000000 		.4byte	.LLST1
 301 01b1 0F       		.uleb128 0xf
 302 01b2 13030000 		.4byte	.LASF35
 303 01b6 01       		.byte	0x1
 304 01b7 50       		.byte	0x50
 305 01b8 9E000000 		.4byte	0x9e
 306 01bc 7D000000 		.4byte	.LLST2
 307 01c0 0F       		.uleb128 0xf
 308 01c1 30030000 		.4byte	.LASF32
 309 01c5 01       		.byte	0x1
 310 01c6 51       		.byte	0x51
 311 01c7 30010000 		.4byte	0x130
 312 01cb A9000000 		.4byte	.LLST3
 313 01cf 0F       		.uleb128 0xf
 314 01d0 EC020000 		.4byte	.LASF33
 315 01d4 01       		.byte	0x1
 316 01d5 52       		.byte	0x52
 317 01d6 30010000 		.4byte	0x130
 318 01da D5000000 		.4byte	.LLST4
 319 01de 0F       		.uleb128 0xf
 320 01df E2020000 		.4byte	.LASF36
 321 01e3 01       		.byte	0x1
 322 01e4 53       		.byte	0x53
 323 01e5 B4000000 		.4byte	0xb4
 324 01e9 F5000000 		.4byte	.LLST5
 325 01ed 10       		.uleb128 0x10
 326 01ee 40010000 		.4byte	.LASF40
 327 01f2 01       		.byte	0x1
 328 01f3 55       		.byte	0x55
 329 01f4 18010000 		.4byte	0x118
 330 01f8 15010000 		.4byte	.LLST6
 331 01fc 11       		.uleb128 0x11
 332 01fd 28000000 		.4byte	.LVL4
 333 0201 2C020000 		.4byte	0x22c
 334 0205 12       		.uleb128 0x12
 335 0206 01       		.uleb128 0x1
 336 0207 52       		.byte	0x52
 337 0208 0E       		.uleb128 0xe
 338 0209 91       		.byte	0x91
 339 020a 04       		.sleb128 4
 340 020b 06       		.byte	0x6
 341 020c 76       		.byte	0x76
 342 020d 00       		.sleb128 0
ARM GAS  /tmp/cc240WPN.s 			page 7


 343 020e 22       		.byte	0x22
 344 020f 23       		.byte	0x23
 345 0210 FFFFFFFF 		.uleb128 0x3fffffff
 345      03
 346 0215 32       		.byte	0x32
 347 0216 24       		.byte	0x24
 348 0217 12       		.uleb128 0x12
 349 0218 01       		.uleb128 0x1
 350 0219 51       		.byte	0x51
 351 021a 02       		.uleb128 0x2
 352 021b 74       		.byte	0x74
 353 021c 00       		.sleb128 0
 354 021d 12       		.uleb128 0x12
 355 021e 01       		.uleb128 0x1
 356 021f 50       		.byte	0x50
 357 0220 03       		.uleb128 0x3
 358 0221 91       		.byte	0x91
 359 0222 00       		.sleb128 0
 360 0223 06       		.byte	0x6
 361 0224 00       		.byte	0
 362 0225 00       		.byte	0
 363 0226 09       		.uleb128 0x9
 364 0227 04       		.byte	0x4
 365 0228 72010000 		.4byte	0x172
 366 022c 13       		.uleb128 0x13
 367 022d B3010000 		.4byte	.LASF41
 368 0231 C6000000 		.4byte	0xc6
 369 0235 14       		.uleb128 0x14
 370 0236 C6000000 		.4byte	0xc6
 371 023a 14       		.uleb128 0x14
 372 023b 85000000 		.4byte	0x85
 373 023f 14       		.uleb128 0x14
 374 0240 BF000000 		.4byte	0xbf
 375 0244 00       		.byte	0
 376 0245 00       		.byte	0
 377              		.section	.debug_abbrev,"",%progbits
 378              	.Ldebug_abbrev0:
 379 0000 01       		.uleb128 0x1
 380 0001 11       		.uleb128 0x11
 381 0002 01       		.byte	0x1
 382 0003 25       		.uleb128 0x25
 383 0004 0E       		.uleb128 0xe
 384 0005 13       		.uleb128 0x13
 385 0006 0B       		.uleb128 0xb
 386 0007 03       		.uleb128 0x3
 387 0008 0E       		.uleb128 0xe
 388 0009 11       		.uleb128 0x11
 389 000a 01       		.uleb128 0x1
 390 000b 12       		.uleb128 0x12
 391 000c 06       		.uleb128 0x6
 392 000d 10       		.uleb128 0x10
 393 000e 17       		.uleb128 0x17
 394 000f 00       		.byte	0
 395 0010 00       		.byte	0
 396 0011 02       		.uleb128 0x2
 397 0012 24       		.uleb128 0x24
 398 0013 00       		.byte	0
ARM GAS  /tmp/cc240WPN.s 			page 8


 399 0014 0B       		.uleb128 0xb
 400 0015 0B       		.uleb128 0xb
 401 0016 3E       		.uleb128 0x3e
 402 0017 0B       		.uleb128 0xb
 403 0018 03       		.uleb128 0x3
 404 0019 0E       		.uleb128 0xe
 405 001a 00       		.byte	0
 406 001b 00       		.byte	0
 407 001c 03       		.uleb128 0x3
 408 001d 16       		.uleb128 0x16
 409 001e 00       		.byte	0
 410 001f 03       		.uleb128 0x3
 411 0020 0E       		.uleb128 0xe
 412 0021 3A       		.uleb128 0x3a
 413 0022 0B       		.uleb128 0xb
 414 0023 3B       		.uleb128 0x3b
 415 0024 0B       		.uleb128 0xb
 416 0025 49       		.uleb128 0x49
 417 0026 13       		.uleb128 0x13
 418 0027 00       		.byte	0
 419 0028 00       		.byte	0
 420 0029 04       		.uleb128 0x4
 421 002a 24       		.uleb128 0x24
 422 002b 00       		.byte	0
 423 002c 0B       		.uleb128 0xb
 424 002d 0B       		.uleb128 0xb
 425 002e 3E       		.uleb128 0x3e
 426 002f 0B       		.uleb128 0xb
 427 0030 03       		.uleb128 0x3
 428 0031 08       		.uleb128 0x8
 429 0032 00       		.byte	0
 430 0033 00       		.byte	0
 431 0034 05       		.uleb128 0x5
 432 0035 0F       		.uleb128 0xf
 433 0036 00       		.byte	0
 434 0037 0B       		.uleb128 0xb
 435 0038 0B       		.uleb128 0xb
 436 0039 00       		.byte	0
 437 003a 00       		.byte	0
 438 003b 06       		.uleb128 0x6
 439 003c 04       		.uleb128 0x4
 440 003d 01       		.byte	0x1
 441 003e 0B       		.uleb128 0xb
 442 003f 0B       		.uleb128 0xb
 443 0040 3A       		.uleb128 0x3a
 444 0041 0B       		.uleb128 0xb
 445 0042 3B       		.uleb128 0x3b
 446 0043 05       		.uleb128 0x5
 447 0044 01       		.uleb128 0x1
 448 0045 13       		.uleb128 0x13
 449 0046 00       		.byte	0
 450 0047 00       		.byte	0
 451 0048 07       		.uleb128 0x7
 452 0049 28       		.uleb128 0x28
 453 004a 00       		.byte	0
 454 004b 03       		.uleb128 0x3
 455 004c 0E       		.uleb128 0xe
ARM GAS  /tmp/cc240WPN.s 			page 9


 456 004d 1C       		.uleb128 0x1c
 457 004e 0D       		.uleb128 0xd
 458 004f 00       		.byte	0
 459 0050 00       		.byte	0
 460 0051 08       		.uleb128 0x8
 461 0052 16       		.uleb128 0x16
 462 0053 00       		.byte	0
 463 0054 03       		.uleb128 0x3
 464 0055 0E       		.uleb128 0xe
 465 0056 3A       		.uleb128 0x3a
 466 0057 0B       		.uleb128 0xb
 467 0058 3B       		.uleb128 0x3b
 468 0059 05       		.uleb128 0x5
 469 005a 49       		.uleb128 0x49
 470 005b 13       		.uleb128 0x13
 471 005c 00       		.byte	0
 472 005d 00       		.byte	0
 473 005e 09       		.uleb128 0x9
 474 005f 0F       		.uleb128 0xf
 475 0060 00       		.byte	0
 476 0061 0B       		.uleb128 0xb
 477 0062 0B       		.uleb128 0xb
 478 0063 49       		.uleb128 0x49
 479 0064 13       		.uleb128 0x13
 480 0065 00       		.byte	0
 481 0066 00       		.byte	0
 482 0067 0A       		.uleb128 0xa
 483 0068 13       		.uleb128 0x13
 484 0069 01       		.byte	0x1
 485 006a 0B       		.uleb128 0xb
 486 006b 0B       		.uleb128 0xb
 487 006c 3A       		.uleb128 0x3a
 488 006d 0B       		.uleb128 0xb
 489 006e 3B       		.uleb128 0x3b
 490 006f 05       		.uleb128 0x5
 491 0070 01       		.uleb128 0x1
 492 0071 13       		.uleb128 0x13
 493 0072 00       		.byte	0
 494 0073 00       		.byte	0
 495 0074 0B       		.uleb128 0xb
 496 0075 0D       		.uleb128 0xd
 497 0076 00       		.byte	0
 498 0077 03       		.uleb128 0x3
 499 0078 08       		.uleb128 0x8
 500 0079 3A       		.uleb128 0x3a
 501 007a 0B       		.uleb128 0xb
 502 007b 3B       		.uleb128 0x3b
 503 007c 05       		.uleb128 0x5
 504 007d 49       		.uleb128 0x49
 505 007e 13       		.uleb128 0x13
 506 007f 38       		.uleb128 0x38
 507 0080 0B       		.uleb128 0xb
 508 0081 00       		.byte	0
 509 0082 00       		.byte	0
 510 0083 0C       		.uleb128 0xc
 511 0084 0D       		.uleb128 0xd
 512 0085 00       		.byte	0
ARM GAS  /tmp/cc240WPN.s 			page 10


 513 0086 03       		.uleb128 0x3
 514 0087 0E       		.uleb128 0xe
 515 0088 3A       		.uleb128 0x3a
 516 0089 0B       		.uleb128 0xb
 517 008a 3B       		.uleb128 0x3b
 518 008b 05       		.uleb128 0x5
 519 008c 49       		.uleb128 0x49
 520 008d 13       		.uleb128 0x13
 521 008e 38       		.uleb128 0x38
 522 008f 0B       		.uleb128 0xb
 523 0090 00       		.byte	0
 524 0091 00       		.byte	0
 525 0092 0D       		.uleb128 0xd
 526 0093 2E       		.uleb128 0x2e
 527 0094 01       		.byte	0x1
 528 0095 3F       		.uleb128 0x3f
 529 0096 19       		.uleb128 0x19
 530 0097 03       		.uleb128 0x3
 531 0098 0E       		.uleb128 0xe
 532 0099 3A       		.uleb128 0x3a
 533 009a 0B       		.uleb128 0xb
 534 009b 3B       		.uleb128 0x3b
 535 009c 0B       		.uleb128 0xb
 536 009d 27       		.uleb128 0x27
 537 009e 19       		.uleb128 0x19
 538 009f 49       		.uleb128 0x49
 539 00a0 13       		.uleb128 0x13
 540 00a1 11       		.uleb128 0x11
 541 00a2 01       		.uleb128 0x1
 542 00a3 12       		.uleb128 0x12
 543 00a4 06       		.uleb128 0x6
 544 00a5 40       		.uleb128 0x40
 545 00a6 18       		.uleb128 0x18
 546 00a7 9742     		.uleb128 0x2117
 547 00a9 19       		.uleb128 0x19
 548 00aa 01       		.uleb128 0x1
 549 00ab 13       		.uleb128 0x13
 550 00ac 00       		.byte	0
 551 00ad 00       		.byte	0
 552 00ae 0E       		.uleb128 0xe
 553 00af 05       		.uleb128 0x5
 554 00b0 00       		.byte	0
 555 00b1 03       		.uleb128 0x3
 556 00b2 08       		.uleb128 0x8
 557 00b3 3A       		.uleb128 0x3a
 558 00b4 0B       		.uleb128 0xb
 559 00b5 3B       		.uleb128 0x3b
 560 00b6 0B       		.uleb128 0xb
 561 00b7 49       		.uleb128 0x49
 562 00b8 13       		.uleb128 0x13
 563 00b9 02       		.uleb128 0x2
 564 00ba 17       		.uleb128 0x17
 565 00bb 00       		.byte	0
 566 00bc 00       		.byte	0
 567 00bd 0F       		.uleb128 0xf
 568 00be 05       		.uleb128 0x5
 569 00bf 00       		.byte	0
ARM GAS  /tmp/cc240WPN.s 			page 11


 570 00c0 03       		.uleb128 0x3
 571 00c1 0E       		.uleb128 0xe
 572 00c2 3A       		.uleb128 0x3a
 573 00c3 0B       		.uleb128 0xb
 574 00c4 3B       		.uleb128 0x3b
 575 00c5 0B       		.uleb128 0xb
 576 00c6 49       		.uleb128 0x49
 577 00c7 13       		.uleb128 0x13
 578 00c8 02       		.uleb128 0x2
 579 00c9 17       		.uleb128 0x17
 580 00ca 00       		.byte	0
 581 00cb 00       		.byte	0
 582 00cc 10       		.uleb128 0x10
 583 00cd 34       		.uleb128 0x34
 584 00ce 00       		.byte	0
 585 00cf 03       		.uleb128 0x3
 586 00d0 0E       		.uleb128 0xe
 587 00d1 3A       		.uleb128 0x3a
 588 00d2 0B       		.uleb128 0xb
 589 00d3 3B       		.uleb128 0x3b
 590 00d4 0B       		.uleb128 0xb
 591 00d5 49       		.uleb128 0x49
 592 00d6 13       		.uleb128 0x13
 593 00d7 02       		.uleb128 0x2
 594 00d8 17       		.uleb128 0x17
 595 00d9 00       		.byte	0
 596 00da 00       		.byte	0
 597 00db 11       		.uleb128 0x11
 598 00dc 898201   		.uleb128 0x4109
 599 00df 01       		.byte	0x1
 600 00e0 11       		.uleb128 0x11
 601 00e1 01       		.uleb128 0x1
 602 00e2 31       		.uleb128 0x31
 603 00e3 13       		.uleb128 0x13
 604 00e4 00       		.byte	0
 605 00e5 00       		.byte	0
 606 00e6 12       		.uleb128 0x12
 607 00e7 8A8201   		.uleb128 0x410a
 608 00ea 00       		.byte	0
 609 00eb 02       		.uleb128 0x2
 610 00ec 18       		.uleb128 0x18
 611 00ed 9142     		.uleb128 0x2111
 612 00ef 18       		.uleb128 0x18
 613 00f0 00       		.byte	0
 614 00f1 00       		.byte	0
 615 00f2 13       		.uleb128 0x13
 616 00f3 2E       		.uleb128 0x2e
 617 00f4 01       		.byte	0x1
 618 00f5 3F       		.uleb128 0x3f
 619 00f6 19       		.uleb128 0x19
 620 00f7 03       		.uleb128 0x3
 621 00f8 0E       		.uleb128 0xe
 622 00f9 27       		.uleb128 0x27
 623 00fa 19       		.uleb128 0x19
 624 00fb 49       		.uleb128 0x49
 625 00fc 13       		.uleb128 0x13
 626 00fd 34       		.uleb128 0x34
ARM GAS  /tmp/cc240WPN.s 			page 12


 627 00fe 19       		.uleb128 0x19
 628 00ff 3C       		.uleb128 0x3c
 629 0100 19       		.uleb128 0x19
 630 0101 00       		.byte	0
 631 0102 00       		.byte	0
 632 0103 14       		.uleb128 0x14
 633 0104 05       		.uleb128 0x5
 634 0105 00       		.byte	0
 635 0106 49       		.uleb128 0x49
 636 0107 13       		.uleb128 0x13
 637 0108 00       		.byte	0
 638 0109 00       		.byte	0
 639 010a 00       		.byte	0
 640              		.section	.debug_loc,"",%progbits
 641              	.Ldebug_loc0:
 642              	.LLST0:
 643 0000 00000000 		.4byte	.LVL0-.Ltext0
 644 0004 22000000 		.4byte	.LVL2-.Ltext0
 645 0008 0100     		.2byte	0x1
 646 000a 50       		.byte	0x50
 647 000b 22000000 		.4byte	.LVL2-.Ltext0
 648 000f 2E000000 		.4byte	.LVL6-.Ltext0
 649 0013 0100     		.2byte	0x1
 650 0015 55       		.byte	0x55
 651 0016 2E000000 		.4byte	.LVL6-.Ltext0
 652 001a 32000000 		.4byte	.LVL7-.Ltext0
 653 001e 0400     		.2byte	0x4
 654 0020 F3       		.byte	0xf3
 655 0021 01       		.uleb128 0x1
 656 0022 50       		.byte	0x50
 657 0023 9F       		.byte	0x9f
 658 0024 32000000 		.4byte	.LVL7-.Ltext0
 659 0028 34000000 		.4byte	.LVL8-.Ltext0
 660 002c 0100     		.2byte	0x1
 661 002e 50       		.byte	0x50
 662 002f 34000000 		.4byte	.LVL8-.Ltext0
 663 0033 36000000 		.4byte	.LFE135-.Ltext0
 664 0037 0400     		.2byte	0x4
 665 0039 F3       		.byte	0xf3
 666 003a 01       		.uleb128 0x1
 667 003b 50       		.byte	0x50
 668 003c 9F       		.byte	0x9f
 669 003d 00000000 		.4byte	0
 670 0041 00000000 		.4byte	0
 671              	.LLST1:
 672 0045 00000000 		.4byte	.LVL0-.Ltext0
 673 0049 24000000 		.4byte	.LVL3-.Ltext0
 674 004d 0100     		.2byte	0x1
 675 004f 51       		.byte	0x51
 676 0050 24000000 		.4byte	.LVL3-.Ltext0
 677 0054 27000000 		.4byte	.LVL4-1-.Ltext0
 678 0058 0200     		.2byte	0x2
 679 005a 75       		.byte	0x75
 680 005b 00       		.sleb128 0
 681 005c 27000000 		.4byte	.LVL4-1-.Ltext0
 682 0060 32000000 		.4byte	.LVL7-.Ltext0
 683 0064 0400     		.2byte	0x4
ARM GAS  /tmp/cc240WPN.s 			page 13


 684 0066 F3       		.byte	0xf3
 685 0067 01       		.uleb128 0x1
 686 0068 51       		.byte	0x51
 687 0069 9F       		.byte	0x9f
 688 006a 32000000 		.4byte	.LVL7-.Ltext0
 689 006e 36000000 		.4byte	.LFE135-.Ltext0
 690 0072 0100     		.2byte	0x1
 691 0074 51       		.byte	0x51
 692 0075 00000000 		.4byte	0
 693 0079 00000000 		.4byte	0
 694              	.LLST2:
 695 007d 00000000 		.4byte	.LVL0-.Ltext0
 696 0081 0E000000 		.4byte	.LVL1-.Ltext0
 697 0085 0100     		.2byte	0x1
 698 0087 52       		.byte	0x52
 699 0088 0E000000 		.4byte	.LVL1-.Ltext0
 700 008c 32000000 		.4byte	.LVL7-.Ltext0
 701 0090 0400     		.2byte	0x4
 702 0092 F3       		.byte	0xf3
 703 0093 01       		.uleb128 0x1
 704 0094 52       		.byte	0x52
 705 0095 9F       		.byte	0x9f
 706 0096 32000000 		.4byte	.LVL7-.Ltext0
 707 009a 36000000 		.4byte	.LFE135-.Ltext0
 708 009e 0100     		.2byte	0x1
 709 00a0 52       		.byte	0x52
 710 00a1 00000000 		.4byte	0
 711 00a5 00000000 		.4byte	0
 712              	.LLST3:
 713 00a9 00000000 		.4byte	.LVL0-.Ltext0
 714 00ad 27000000 		.4byte	.LVL4-1-.Ltext0
 715 00b1 0100     		.2byte	0x1
 716 00b3 53       		.byte	0x53
 717 00b4 27000000 		.4byte	.LVL4-1-.Ltext0
 718 00b8 32000000 		.4byte	.LVL7-.Ltext0
 719 00bc 0400     		.2byte	0x4
 720 00be F3       		.byte	0xf3
 721 00bf 01       		.uleb128 0x1
 722 00c0 53       		.byte	0x53
 723 00c1 9F       		.byte	0x9f
 724 00c2 32000000 		.4byte	.LVL7-.Ltext0
 725 00c6 36000000 		.4byte	.LFE135-.Ltext0
 726 00ca 0100     		.2byte	0x1
 727 00cc 53       		.byte	0x53
 728 00cd 00000000 		.4byte	0
 729 00d1 00000000 		.4byte	0
 730              	.LLST4:
 731 00d5 00000000 		.4byte	.LVL0-.Ltext0
 732 00d9 32000000 		.4byte	.LVL7-.Ltext0
 733 00dd 0200     		.2byte	0x2
 734 00df 91       		.byte	0x91
 735 00e0 00       		.sleb128 0
 736 00e1 32000000 		.4byte	.LVL7-.Ltext0
 737 00e5 36000000 		.4byte	.LFE135-.Ltext0
 738 00e9 0200     		.2byte	0x2
 739 00eb 91       		.byte	0x91
 740 00ec 00       		.sleb128 0
ARM GAS  /tmp/cc240WPN.s 			page 14


 741 00ed 00000000 		.4byte	0
 742 00f1 00000000 		.4byte	0
 743              	.LLST5:
 744 00f5 00000000 		.4byte	.LVL0-.Ltext0
 745 00f9 32000000 		.4byte	.LVL7-.Ltext0
 746 00fd 0200     		.2byte	0x2
 747 00ff 91       		.byte	0x91
 748 0100 04       		.sleb128 4
 749 0101 32000000 		.4byte	.LVL7-.Ltext0
 750 0105 36000000 		.4byte	.LFE135-.Ltext0
 751 0109 0200     		.2byte	0x2
 752 010b 91       		.byte	0x91
 753 010c 04       		.sleb128 4
 754 010d 00000000 		.4byte	0
 755 0111 00000000 		.4byte	0
 756              	.LLST6:
 757 0115 2C000000 		.4byte	.LVL5-.Ltext0
 758 0119 2E000000 		.4byte	.LVL6-.Ltext0
 759 011d 0200     		.2byte	0x2
 760 011f 30       		.byte	0x30
 761 0120 9F       		.byte	0x9f
 762 0121 2E000000 		.4byte	.LVL6-.Ltext0
 763 0125 32000000 		.4byte	.LVL7-.Ltext0
 764 0129 0100     		.2byte	0x1
 765 012b 50       		.byte	0x50
 766 012c 00000000 		.4byte	0
 767 0130 00000000 		.4byte	0
 768              		.section	.debug_aranges,"",%progbits
 769 0000 1C000000 		.4byte	0x1c
 770 0004 0200     		.2byte	0x2
 771 0006 00000000 		.4byte	.Ldebug_info0
 772 000a 04       		.byte	0x4
 773 000b 00       		.byte	0
 774 000c 0000     		.2byte	0
 775 000e 0000     		.2byte	0
 776 0010 00000000 		.4byte	.Ltext0
 777 0014 36000000 		.4byte	.Letext0-.Ltext0
 778 0018 00000000 		.4byte	0
 779 001c 00000000 		.4byte	0
 780              		.section	.debug_line,"",%progbits
 781              	.Ldebug_line0:
 782 0000 3E020000 		.section	.debug_str,"MS",%progbits,1
 782      02001602 
 782      00000201 
 782      FB0E0D00 
 782      01010101 
 783              	.LASF37:
 784 0000 474E5520 		.ascii	"GNU C 4.9.3 20150529 (release) [ARM/embedded-4_9-br"
 784      4320342E 
 784      392E3320 
 784      32303135 
 784      30353239 
 785 0033 616E6368 		.ascii	"anch revision 224288] -mcpu=cortex-m4 -mfloat-abi=h"
 785      20726576 
 785      6973696F 
 785      6E203232 
 785      34323838 
ARM GAS  /tmp/cc240WPN.s 			page 15


 786 0066 61726420 		.ascii	"ard -mfpu=fpv4-sp-d16 -mno-thumb-interwork -mthumb "
 786      2D6D6670 
 786      753D6670 
 786      76342D73 
 786      702D6431 
 787 0099 2D676764 		.ascii	"-ggdb -O2 -fomit-frame-pointer -falign-functions=16"
 787      62202D4F 
 787      32202D66 
 787      6F6D6974 
 787      2D667261 
 788 00cc 202D666E 		.ascii	" -fno-math-errno -fsingle-precision-constant\000"
 788      6F2D6D61 
 788      74682D65 
 788      72726E6F 
 788      202D6673 
 789              	.LASF3:
 790 00f9 5F5F7569 		.ascii	"__uint8_t\000"
 790      6E74385F 
 790      7400
 791              	.LASF24:
 792 0103 41524D5F 		.ascii	"ARM_MATH_LENGTH_ERROR\000"
 792      4D415448 
 792      5F4C454E 
 792      4754485F 
 792      4552524F 
 793              	.LASF39:
 794 0119 61726D5F 		.ascii	"arm_fir_interpolate_init_q31\000"
 794      6669725F 
 794      696E7465 
 794      72706F6C 
 794      6174655F 
 795              	.LASF6:
 796 0136 5F5F696E 		.ascii	"__int32_t\000"
 796      7433325F 
 796      7400
 797              	.LASF40:
 798 0140 73746174 		.ascii	"status\000"
 798      757300
 799              	.LASF25:
 800 0147 41524D5F 		.ascii	"ARM_MATH_SIZE_MISMATCH\000"
 800      4D415448 
 800      5F53495A 
 800      455F4D49 
 800      534D4154 
 801              	.LASF20:
 802 015e 666C6F61 		.ascii	"float\000"
 802      7400
 803              	.LASF30:
 804 0164 7133315F 		.ascii	"q31_t\000"
 804      7400
 805              	.LASF1:
 806 016a 756E7369 		.ascii	"unsigned char\000"
 806      676E6564 
 806      20636861 
 806      7200
 807              	.LASF9:
 808 0178 6C6F6E67 		.ascii	"long unsigned int\000"
ARM GAS  /tmp/cc240WPN.s 			page 16


 808      20756E73 
 808      69676E65 
 808      6420696E 
 808      7400
 809              	.LASF5:
 810 018a 73686F72 		.ascii	"short unsigned int\000"
 810      7420756E 
 810      7369676E 
 810      65642069 
 810      6E7400
 811              	.LASF28:
 812 019d 41524D5F 		.ascii	"ARM_MATH_TEST_FAILURE\000"
 812      4D415448 
 812      5F544553 
 812      545F4641 
 812      494C5552 
 813              	.LASF41:
 814 01b3 6D656D73 		.ascii	"memset\000"
 814      657400
 815              	.LASF4:
 816 01ba 5F5F7569 		.ascii	"__uint16_t\000"
 816      6E743136 
 816      5F7400
 817              	.LASF19:
 818 01c5 646F7562 		.ascii	"double\000"
 818      6C6500
 819              	.LASF8:
 820 01cc 5F5F7569 		.ascii	"__uint32_t\000"
 820      6E743332 
 820      5F7400
 821              	.LASF23:
 822 01d7 41524D5F 		.ascii	"ARM_MATH_ARGUMENT_ERROR\000"
 822      4D415448 
 822      5F415247 
 822      554D454E 
 822      545F4552 
 823              	.LASF12:
 824 01ef 756E7369 		.ascii	"unsigned int\000"
 824      676E6564 
 824      20696E74 
 824      00
 825              	.LASF11:
 826 01fc 6C6F6E67 		.ascii	"long long unsigned int\000"
 826      206C6F6E 
 826      6720756E 
 826      7369676E 
 826      65642069 
 827              	.LASF13:
 828 0213 75696E74 		.ascii	"uint8_t\000"
 828      385F7400 
 829              	.LASF26:
 830 021b 41524D5F 		.ascii	"ARM_MATH_NANINF\000"
 830      4D415448 
 830      5F4E414E 
 830      494E4600 
 831              	.LASF38:
 832 022b 2F686F6D 		.ascii	"/home/sbcu/Dropbox/pcb-layouts/axo-on-discovery-boa"
ARM GAS  /tmp/cc240WPN.s 			page 17


 832      652F7362 
 832      63752F44 
 832      726F7062 
 832      6F782F70 
 833 025e 72642F61 		.ascii	"rd/axoloti/platform_linux/../CMSIS//DSP_Lib/Source/"
 833      786F6C6F 
 833      74692F70 
 833      6C617466 
 833      6F726D5F 
 834 0291 46696C74 		.ascii	"FilteringFunctions/arm_fir_interpolate_init_q31.c\000"
 834      6572696E 
 834      6746756E 
 834      6374696F 
 834      6E732F61 
 835              	.LASF15:
 836 02c3 696E7433 		.ascii	"int32_t\000"
 836      325F7400 
 837              	.LASF17:
 838 02cb 73697A65 		.ascii	"sizetype\000"
 838      74797065 
 838      00
 839              	.LASF10:
 840 02d4 6C6F6E67 		.ascii	"long long int\000"
 840      206C6F6E 
 840      6720696E 
 840      7400
 841              	.LASF36:
 842 02e2 626C6F63 		.ascii	"blockSize\000"
 842      6B53697A 
 842      6500
 843              	.LASF33:
 844 02ec 70537461 		.ascii	"pState\000"
 844      746500
 845              	.LASF18:
 846 02f3 63686172 		.ascii	"char\000"
 846      00
 847              	.LASF22:
 848 02f8 41524D5F 		.ascii	"ARM_MATH_SUCCESS\000"
 848      4D415448 
 848      5F535543 
 848      43455353 
 848      00
 849              	.LASF2:
 850 0309 73686F72 		.ascii	"short int\000"
 850      7420696E 
 850      7400
 851              	.LASF35:
 852 0313 6E756D54 		.ascii	"numTaps\000"
 852      61707300 
 853              	.LASF14:
 854 031b 75696E74 		.ascii	"uint16_t\000"
 854      31365F74 
 854      00
 855              	.LASF31:
 856 0324 70686173 		.ascii	"phaseLength\000"
 856      654C656E 
 856      67746800 
ARM GAS  /tmp/cc240WPN.s 			page 18


 857              	.LASF32:
 858 0330 70436F65 		.ascii	"pCoeffs\000"
 858      66667300 
 859              	.LASF16:
 860 0338 75696E74 		.ascii	"uint32_t\000"
 860      33325F74 
 860      00
 861              	.LASF7:
 862 0341 6C6F6E67 		.ascii	"long int\000"
 862      20696E74 
 862      00
 863              	.LASF21:
 864 034a 6C6F6E67 		.ascii	"long double\000"
 864      20646F75 
 864      626C6500 
 865              	.LASF0:
 866 0356 7369676E 		.ascii	"signed char\000"
 866      65642063 
 866      68617200 
 867              	.LASF34:
 868 0362 61726D5F 		.ascii	"arm_fir_interpolate_instance_q31\000"
 868      6669725F 
 868      696E7465 
 868      72706F6C 
 868      6174655F 
 869              	.LASF29:
 870 0383 61726D5F 		.ascii	"arm_status\000"
 870      73746174 
 870      757300
 871              	.LASF27:
 872 038e 41524D5F 		.ascii	"ARM_MATH_SINGULAR\000"
 872      4D415448 
 872      5F53494E 
 872      47554C41 
 872      5200
 873              		.ident	"GCC: (GNU Tools for ARM Embedded Processors) 4.9.3 20150529 (release) [ARM/embedded-4_9-br
ARM GAS  /tmp/cc240WPN.s 			page 19


DEFINED SYMBOLS
                            *ABS*:00000000 arm_fir_interpolate_init_q31.c
     /tmp/cc240WPN.s:20     .text:00000000 $t
     /tmp/cc240WPN.s:26     .text:00000000 arm_fir_interpolate_init_q31
                     .debug_frame:00000010 $d

UNDEFINED SYMBOLS
memset
