ARM GAS  /tmp/ccaJcdPP.s 			page 1


   1              		.syntax unified
   2              		.cpu cortex-m4
   3              		.eabi_attribute 27, 1
   4              		.eabi_attribute 28, 1
   5              		.fpu fpv4-sp-d16
   6              		.eabi_attribute 20, 1
   7              		.eabi_attribute 21, 1
   8              		.eabi_attribute 23, 3
   9              		.eabi_attribute 24, 1
  10              		.eabi_attribute 25, 1
  11              		.eabi_attribute 26, 1
  12              		.eabi_attribute 30, 2
  13              		.eabi_attribute 34, 1
  14              		.eabi_attribute 18, 4
  15              		.thumb
  16              		.file	"arm_biquad_cascade_df1_fast_q31.c"
  17              		.text
  18              	.Ltext0:
  19              		.cfi_sections	.debug_frame
  20              		.align	2
  21              		.p2align 4,,15
  22              		.global	arm_biquad_cascade_df1_fast_q31
  23              		.thumb
  24              		.thumb_func
  25              		.type	arm_biquad_cascade_df1_fast_q31, %function
  26              	arm_biquad_cascade_df1_fast_q31:
  27              	.LFB135:
  28              		.file 1 "/home/sbcu/Dropbox/pcb-layouts/axo-on-discovery-board/axoloti/platform_linux/../CMSIS//DS
  29              		.loc 1 82 0
  30              		.cfi_startproc
  31              		@ args = 0, pretend = 0, frame = 40
  32              		@ frame_needed = 0, uses_anonymous_args = 0
  33              	.LVL0:
  34 0000 2DE9F04F 		push	{r4, r5, r6, r7, r8, r9, r10, fp, lr}
  35              		.cfi_def_cfa_offset 36
  36              		.cfi_offset 4, -36
  37              		.cfi_offset 5, -32
  38              		.cfi_offset 6, -28
  39              		.cfi_offset 7, -24
  40              		.cfi_offset 8, -20
  41              		.cfi_offset 9, -16
  42              		.cfi_offset 10, -12
  43              		.cfi_offset 11, -8
  44              		.cfi_offset 14, -4
  45 0004 8BB0     		sub	sp, sp, #44
  46              		.cfi_def_cfa_offset 80
  47 0006 9C08     		lsrs	r4, r3, #2
  48 0008 2746     		mov	r7, r4
  49              		.loc 1 91 0
  50 000a 067B     		ldrb	r6, [r0, #12]	@ zero_extendqisi2
  51 000c 0694     		str	r4, [sp, #24]
  52              		.loc 1 92 0
  53 000e 31C8     		ldmia	r0, {r0, r4, r5}
  54              	.LVL1:
  55 0010 03F00303 		and	r3, r3, #3
  56              	.LVL2:
  57 0014 0490     		str	r0, [sp, #16]
ARM GAS  /tmp/ccaJcdPP.s 			page 2


  58 0016 0793     		str	r3, [sp, #28]
  59 0018 3801     		lsls	r0, r7, #4
  60 001a 1346     		mov	r3, r2
  61 001c 0344     		add	r3, r3, r0
  62 001e 0893     		str	r3, [sp, #32]
  63 0020 05F11403 		add	r3, r5, #20
  64 0024 0393     		str	r3, [sp, #12]
  65 0026 04F11003 		add	r3, r4, #16
  66              		.loc 1 82 0
  67 002a 0592     		str	r2, [sp, #20]
  68 002c 0990     		str	r0, [sp, #36]
  69 002e 0191     		str	r1, [sp, #4]
  70              	.LVL3:
  71              		.loc 1 91 0
  72 0030 06F1010B 		add	fp, r6, #1
  73              	.LVL4:
  74 0034 0293     		str	r3, [sp, #8]
  75              	.LVL5:
  76              	.L6:
  77              		.loc 1 98 0
  78 0036 039A     		ldr	r2, [sp, #12]
  79 0038 52F814EC 		ldr	lr, [r2, #-20]
  80              	.LVL6:
  81              		.loc 1 99 0
  82 003c 52F810CC 		ldr	ip, [r2, #-16]
  83              	.LVL7:
  84              		.loc 1 100 0
  85 0040 52F80C8C 		ldr	r8, [r2, #-12]
  86              	.LVL8:
  87              		.loc 1 102 0
  88 0044 12E90006 		ldmdb	r2, {r9, r10}
  89              	.LVL9:
  90              		.loc 1 105 0
  91 0048 029A     		ldr	r2, [sp, #8]
  92 004a 52F8104C 		ldr	r4, [r2, #-16]
  93              	.LVL10:
  94              		.loc 1 106 0
  95 004e 52F80C5C 		ldr	r5, [r2, #-12]
  96              	.LVL11:
  97              		.loc 1 107 0
  98 0052 52F8083C 		ldr	r3, [r2, #-8]
  99              	.LVL12:
 100              		.loc 1 108 0
 101 0056 52F8041C 		ldr	r1, [r2, #-4]
 102              	.LVL13:
 103              		.loc 1 120 0
 104 005a 069A     		ldr	r2, [sp, #24]
 105 005c 002A     		cmp	r2, #0
 106 005e 00F09180 		beq	.L7
 107 0062 0198     		ldr	r0, [sp, #4]
 108 0064 0092     		str	r2, [sp]
 109 0066 00F11007 		add	r7, r0, #16
 110 006a 0598     		ldr	r0, [sp, #20]
 111 006c 00F11006 		add	r6, r0, #16
 112              	.LVL14:
 113              	.L3:
 114              		.loc 1 123 0
ARM GAS  /tmp/ccaJcdPP.s 			page 3


 115 0070 57F8100C 		ldr	r0, [r7, #-16]
 116              	.LVL15:
 117              		.loc 1 128 0
 118              	@ 128 "/home/sbcu/Dropbox/pcb-layouts/axo-on-discovery-board/axoloti/platform_linux/../CMSIS//DSP_L
 119 0074 5CFB14F2 		smmulr r2, ip, r4
 120              	@ 0 "" 2
 121              	.LVL16:
 122              		.loc 1 131 0
 123              	@ 131 "/home/sbcu/Dropbox/pcb-layouts/axo-on-discovery-board/axoloti/platform_linux/../CMSIS//DSP_L
 124 0078 5EFB1022 		smmlar r2, lr, r0, r2
 125              	@ 0 "" 2
 126              	.LVL17:
 127              		.loc 1 134 0
 128              	@ 134 "/home/sbcu/Dropbox/pcb-layouts/axo-on-discovery-board/axoloti/platform_linux/../CMSIS//DSP_L
 129 007c 58FB1525 		smmlar r5, r8, r5, r2
 130              	@ 0 "" 2
 131              	.LVL18:
 132              		.loc 1 137 0
 133              	@ 137 "/home/sbcu/Dropbox/pcb-layouts/axo-on-discovery-board/axoloti/platform_linux/../CMSIS//DSP_L
 134 0080 59FB1355 		smmlar r5, r9, r3, r5
 135              	@ 0 "" 2
 136              	.LVL19:
 137              		.loc 1 140 0
 138              	@ 140 "/home/sbcu/Dropbox/pcb-layouts/axo-on-discovery-board/axoloti/platform_linux/../CMSIS//DSP_L
 139 0084 5AFB1151 		smmlar r1, r10, r1, r5
 140              	@ 0 "" 2
 141              	.LVL20:
 142              		.loc 1 143 0
 143              		.thumb
 144 0088 01FA0BF1 		lsl	r1, r1, fp
 145              	.LVL21:
 146              		.loc 1 146 0
 147 008c 57F80C2C 		ldr	r2, [r7, #-12]
 148              	.LVL22:
 149              		.loc 1 149 0
 150 0090 46F8101C 		str	r1, [r6, #-16]
 151              		.loc 1 154 0
 152              	@ 154 "/home/sbcu/Dropbox/pcb-layouts/axo-on-discovery-board/axoloti/platform_linux/../CMSIS//DSP_L
 153 0094 5EFB12F5 		smmulr r5, lr, r2
 154              	@ 0 "" 2
 155              	.LVL23:
 156              		.loc 1 157 0
 157              	@ 157 "/home/sbcu/Dropbox/pcb-layouts/axo-on-discovery-board/axoloti/platform_linux/../CMSIS//DSP_L
 158 0098 5CFB1055 		smmlar r5, ip, r0, r5
 159              	@ 0 "" 2
 160              	.LVL24:
 161              		.loc 1 160 0
 162              	@ 160 "/home/sbcu/Dropbox/pcb-layouts/axo-on-discovery-board/axoloti/platform_linux/../CMSIS//DSP_L
 163 009c 58FB1454 		smmlar r4, r8, r4, r5
 164              	@ 0 "" 2
 165              	.LVL25:
 166              		.loc 1 163 0
 167              	@ 163 "/home/sbcu/Dropbox/pcb-layouts/axo-on-discovery-board/axoloti/platform_linux/../CMSIS//DSP_L
 168 00a0 59FB1144 		smmlar r4, r9, r1, r4
 169              	@ 0 "" 2
 170              	.LVL26:
 171              		.loc 1 166 0
ARM GAS  /tmp/ccaJcdPP.s 			page 4


 172              	@ 166 "/home/sbcu/Dropbox/pcb-layouts/axo-on-discovery-board/axoloti/platform_linux/../CMSIS//DSP_L
 173 00a4 5AFB1343 		smmlar r3, r10, r3, r4
 174              	@ 0 "" 2
 175              	.LVL27:
 176              		.loc 1 169 0
 177              		.thumb
 178 00a8 03FA0BF3 		lsl	r3, r3, fp
 179              	.LVL28:
 180              		.loc 1 172 0
 181 00ac 57F8085C 		ldr	r5, [r7, #-8]
 182              	.LVL29:
 183              		.loc 1 175 0
 184 00b0 46F80C3C 		str	r3, [r6, #-12]
 185              		.loc 1 180 0
 186              	@ 180 "/home/sbcu/Dropbox/pcb-layouts/axo-on-discovery-board/axoloti/platform_linux/../CMSIS//DSP_L
 187 00b4 5EFB15F4 		smmulr r4, lr, r5
 188              	@ 0 "" 2
 189              	.LVL30:
 190              		.loc 1 183 0
 191              	@ 183 "/home/sbcu/Dropbox/pcb-layouts/axo-on-discovery-board/axoloti/platform_linux/../CMSIS//DSP_L
 192 00b8 5CFB1244 		smmlar r4, ip, r2, r4
 193              	@ 0 "" 2
 194              	.LVL31:
 195              		.loc 1 186 0
 196              	@ 186 "/home/sbcu/Dropbox/pcb-layouts/axo-on-discovery-board/axoloti/platform_linux/../CMSIS//DSP_L
 197 00bc 58FB1040 		smmlar r0, r8, r0, r4
 198              	@ 0 "" 2
 199              	.LVL32:
 200              		.loc 1 189 0
 201              	@ 189 "/home/sbcu/Dropbox/pcb-layouts/axo-on-discovery-board/axoloti/platform_linux/../CMSIS//DSP_L
 202 00c0 59FB1300 		smmlar r0, r9, r3, r0
 203              	@ 0 "" 2
 204              	.LVL33:
 205              		.loc 1 192 0
 206              	@ 192 "/home/sbcu/Dropbox/pcb-layouts/axo-on-discovery-board/axoloti/platform_linux/../CMSIS//DSP_L
 207 00c4 5AFB1101 		smmlar r1, r10, r1, r0
 208              	@ 0 "" 2
 209              	.LVL34:
 210              		.loc 1 195 0
 211              		.thumb
 212 00c8 01FA0BF1 		lsl	r1, r1, fp
 213              	.LVL35:
 214              		.loc 1 198 0
 215 00cc 57F8044C 		ldr	r4, [r7, #-4]
 216              	.LVL36:
 217              		.loc 1 201 0
 218 00d0 46F8081C 		str	r1, [r6, #-8]
 219              	.LVL37:
 220              		.loc 1 207 0
 221              	@ 207 "/home/sbcu/Dropbox/pcb-layouts/axo-on-discovery-board/axoloti/platform_linux/../CMSIS//DSP_L
 222 00d4 5EFB14F0 		smmulr r0, lr, r4
 223              	@ 0 "" 2
 224              	.LVL38:
 225              		.loc 1 210 0
 226              	@ 210 "/home/sbcu/Dropbox/pcb-layouts/axo-on-discovery-board/axoloti/platform_linux/../CMSIS//DSP_L
 227 00d8 5CFB1500 		smmlar r0, ip, r5, r0
 228              	@ 0 "" 2
ARM GAS  /tmp/ccaJcdPP.s 			page 5


 229              	.LVL39:
 230              		.loc 1 213 0
 231              	@ 213 "/home/sbcu/Dropbox/pcb-layouts/axo-on-discovery-board/axoloti/platform_linux/../CMSIS//DSP_L
 232 00dc 58FB1202 		smmlar r2, r8, r2, r0
 233              	@ 0 "" 2
 234              	.LVL40:
 235              		.loc 1 216 0
 236              	@ 216 "/home/sbcu/Dropbox/pcb-layouts/axo-on-discovery-board/axoloti/platform_linux/../CMSIS//DSP_L
 237 00e0 59FB1122 		smmlar r2, r9, r1, r2
 238              	@ 0 "" 2
 239              	.LVL41:
 240              		.loc 1 219 0
 241              	@ 219 "/home/sbcu/Dropbox/pcb-layouts/axo-on-discovery-board/axoloti/platform_linux/../CMSIS//DSP_L
 242 00e4 5AFB1323 		smmlar r3, r10, r3, r2
 243              	@ 0 "" 2
 244              	.LVL42:
 245              		.loc 1 120 0
 246              		.thumb
 247 00e8 009A     		ldr	r2, [sp]
 248              		.loc 1 227 0
 249 00ea 03FA0BF3 		lsl	r3, r3, fp
 250              	.LVL43:
 251              		.loc 1 120 0
 252 00ee 013A     		subs	r2, r2, #1
 253              		.loc 1 233 0
 254 00f0 46F8043C 		str	r3, [r6, #-4]
 255              	.LVL44:
 256 00f4 07F11007 		add	r7, r7, #16
 257              	.LVL45:
 258 00f8 06F11006 		add	r6, r6, #16
 259              		.loc 1 120 0
 260 00fc 0092     		str	r2, [sp]
 261 00fe B7D1     		bne	.L3
 262 0100 019A     		ldr	r2, [sp, #4]
 263              	.LVL46:
 264 0102 0998     		ldr	r0, [sp, #36]
 265              		.loc 1 234 0
 266 0104 089F     		ldr	r7, [sp, #32]
 267              	.LVL47:
 268 0106 0244     		add	r2, r2, r0
 269 0108 0192     		str	r2, [sp, #4]
 270              	.LVL48:
 271              	.L2:
 272              		.loc 1 244 0
 273 010a 079A     		ldr	r2, [sp, #28]
 274 010c AAB3     		cbz	r2, .L8
 275 010e CDF800E0 		str	lr, [sp]
 276 0112 1046     		mov	r0, r2
 277 0114 DDF804E0 		ldr	lr, [sp, #4]
 278              	.LVL49:
 279 0118 01E0     		b	.L5
 280              	.LVL50:
 281              	.L9:
 282              		.loc 1 267 0
 283 011a 1346     		mov	r3, r2
 284              		.loc 1 247 0
 285 011c 3446     		mov	r4, r6
ARM GAS  /tmp/ccaJcdPP.s 			page 6


 286              	.LVL51:
 287              	.L5:
 288 011e 5EF8046B 		ldr	r6, [lr], #4
 289              	.LVL52:
 290              		.loc 1 252 0
 291 0122 009A     		ldr	r2, [sp]
 292              	@ 252 "/home/sbcu/Dropbox/pcb-layouts/axo-on-discovery-board/axoloti/platform_linux/../CMSIS//DSP_L
 293 0124 52FB16F2 		smmulr r2, r2, r6
 294              	@ 0 "" 2
 295              	.LVL53:
 296              		.loc 1 255 0
 297              	@ 255 "/home/sbcu/Dropbox/pcb-layouts/axo-on-discovery-board/axoloti/platform_linux/../CMSIS//DSP_L
 298 0128 5CFB1422 		smmlar r2, ip, r4, r2
 299              	@ 0 "" 2
 300              	.LVL54:
 301              		.loc 1 258 0
 302              	@ 258 "/home/sbcu/Dropbox/pcb-layouts/axo-on-discovery-board/axoloti/platform_linux/../CMSIS//DSP_L
 303 012c 58FB1522 		smmlar r2, r8, r5, r2
 304              	@ 0 "" 2
 305              	.LVL55:
 306              		.loc 1 261 0
 307              	@ 261 "/home/sbcu/Dropbox/pcb-layouts/axo-on-discovery-board/axoloti/platform_linux/../CMSIS//DSP_L
 308 0130 59FB1322 		smmlar r2, r9, r3, r2
 309              	@ 0 "" 2
 310              	.LVL56:
 311              		.loc 1 264 0
 312              	@ 264 "/home/sbcu/Dropbox/pcb-layouts/axo-on-discovery-board/axoloti/platform_linux/../CMSIS//DSP_L
 313 0134 5AFB1122 		smmlar r2, r10, r1, r2
 314              	@ 0 "" 2
 315              	.LVL57:
 316              		.loc 1 267 0
 317              		.thumb
 318 0138 02FA0BF2 		lsl	r2, r2, fp
 319              	.LVL58:
 320              		.loc 1 244 0
 321 013c 0138     		subs	r0, r0, #1
 322              	.LVL59:
 323              		.loc 1 281 0
 324 013e 47F8042B 		str	r2, [r7], #4
 325              	.LVL60:
 326 0142 2546     		mov	r5, r4
 327 0144 1946     		mov	r1, r3
 328              		.loc 1 244 0
 329 0146 E8D1     		bne	.L9
 330              	.LVL61:
 331              	.L4:
 332              		.loc 1 295 0
 333 0148 0298     		ldr	r0, [sp, #8]
 334              		.loc 1 298 0
 335 014a 40F8043C 		str	r3, [r0, #-4]
 336 014e 039B     		ldr	r3, [sp, #12]
 337              		.loc 1 295 0
 338 0150 40F8106C 		str	r6, [r0, #-16]
 339              	.LVL62:
 340 0154 1433     		adds	r3, r3, #20
 341 0156 0393     		str	r3, [sp, #12]
 342              	.LVL63:
ARM GAS  /tmp/ccaJcdPP.s 			page 7


 343 0158 00F11003 		add	r3, r0, #16
 344 015c 0293     		str	r3, [sp, #8]
 345              	.LVL64:
 346              		.loc 1 289 0
 347 015e 059B     		ldr	r3, [sp, #20]
 348 0160 0193     		str	r3, [sp, #4]
 349              		.loc 1 300 0
 350 0162 049B     		ldr	r3, [sp, #16]
 351              		.loc 1 296 0
 352 0164 40F80C4C 		str	r4, [r0, #-12]
 353              		.loc 1 300 0
 354 0168 013B     		subs	r3, r3, #1
 355              		.loc 1 297 0
 356 016a 40F8082C 		str	r2, [r0, #-8]
 357              	.LVL65:
 358              		.loc 1 300 0
 359 016e 0493     		str	r3, [sp, #16]
 360 0170 7FF461AF 		bne	.L6
 361              		.loc 1 301 0
 362 0174 0BB0     		add	sp, sp, #44
 363              		.cfi_remember_state
 364              		.cfi_def_cfa_offset 36
 365              		@ sp needed
 366 0176 BDE8F08F 		pop	{r4, r5, r6, r7, r8, r9, r10, fp, pc}
 367              	.LVL66:
 368              	.L8:
 369              		.cfi_restore_state
 370              		.loc 1 244 0
 371 017a 1A46     		mov	r2, r3
 372              	.LVL67:
 373 017c 2646     		mov	r6, r4
 374 017e 0B46     		mov	r3, r1
 375              	.LVL68:
 376 0180 2C46     		mov	r4, r5
 377              	.LVL69:
 378 0182 E1E7     		b	.L4
 379              	.LVL70:
 380              	.L7:
 381              		.loc 1 120 0
 382 0184 059F     		ldr	r7, [sp, #20]
 383 0186 C0E7     		b	.L2
 384              		.cfi_endproc
 385              	.LFE135:
 386              		.size	arm_biquad_cascade_df1_fast_q31, .-arm_biquad_cascade_df1_fast_q31
 387              	.Letext0:
 388              		.file 2 "/home/sbcu/Dropbox/pcb-layouts/axo-on-discovery-board/axoloti/platform_linux/arm-none-eab
 389              		.file 3 "/home/sbcu/Dropbox/pcb-layouts/axo-on-discovery-board/axoloti/platform_linux/arm-none-eab
 390              		.file 4 "/home/sbcu/Dropbox/pcb-layouts/axo-on-discovery-board/axoloti/platform_linux/../CMSIS//DS