ARM GAS  /tmp/cc9fwfYh.s 			page 1


   1              		.syntax unified
   2              		.cpu cortex-m4
   3              		.eabi_attribute 27, 1
   4              		.eabi_attribute 28, 1
   5              		.fpu fpv4-sp-d16
   6              		.eabi_attribute 20, 1
   7              		.eabi_attribute 21, 1
   8              		.eabi_attribute 23, 3
   9              		.eabi_attribute 24, 1
  10              		.eabi_attribute 25, 1
  11              		.eabi_attribute 26, 1
  12              		.eabi_attribute 30, 2
  13              		.eabi_attribute 34, 1
  14              		.eabi_attribute 18, 4
  15              		.thumb
  16              		.file	"arm_fir_decimate_q31.c"
  17              		.text
  18              	.Ltext0:
  19              		.cfi_sections	.debug_frame
  20              		.align	2
  21              		.p2align 4,,15
  22              		.global	arm_fir_decimate_q31
  23              		.thumb
  24              		.thumb_func
  25              		.type	arm_fir_decimate_q31, %function
  26              	arm_fir_decimate_q31:
  27              	.LFB135:
  28              		.file 1 "/home/sbcu/Dropbox/pcb-layouts/axo-on-discovery-board/axoloti/platform_linux/../CMSIS//DS
  29              		.loc 1 77 0
  30              		.cfi_startproc
  31              		@ args = 0, pretend = 0, frame = 32
  32              		@ frame_needed = 0, uses_anonymous_args = 0
  33              	.LVL0:
  34 0000 2DE9F04F 		push	{r4, r5, r6, r7, r8, r9, r10, fp, lr}
  35              		.cfi_def_cfa_offset 36
  36              		.cfi_offset 4, -36
  37              		.cfi_offset 5, -32
  38              		.cfi_offset 6, -28
  39              		.cfi_offset 7, -24
  40              		.cfi_offset 8, -20
  41              		.cfi_offset 9, -16
  42              		.cfi_offset 10, -12
  43              		.cfi_offset 11, -8
  44              		.cfi_offset 14, -4
  45 0004 8046     		mov	r8, r0
  46              		.loc 1 85 0
  47 0006 4088     		ldrh	r0, [r0, #2]
  48              	.LVL1:
  49              		.loc 1 78 0
  50 0008 D8F80840 		ldr	r4, [r8, #8]
  51              		.loc 1 79 0
  52 000c D8F80460 		ldr	r6, [r8, #4]
  53              		.loc 1 86 0
  54 0010 98F80050 		ldrb	r5, [r8]	@ zero_extendqisi2
  55 0014 B3FBF5F9 		udiv	r9, r3, r5
  56              		.loc 1 77 0
  57 0018 89B0     		sub	sp, sp, #36
ARM GAS  /tmp/cc9fwfYh.s 			page 2


  58              		.cfi_def_cfa_offset 72
  59              		.loc 1 95 0
  60 001a 00F1804C 		add	ip, r0, #1073741824
  61 001e 0CF1FF3C 		add	ip, ip, #-1
  62              		.loc 1 85 0
  63 0022 0790     		str	r0, [sp, #28]
  64              		.loc 1 78 0
  65 0024 0694     		str	r4, [sp, #24]
  66              	.LVL2:
  67              		.loc 1 79 0
  68 0026 0396     		str	r6, [sp, #12]
  69              	.LVL3:
  70              		.loc 1 95 0
  71 0028 04EB8C0C 		add	ip, r4, ip, lsl #2
  72              	.LVL4:
  73              		.loc 1 100 0
  74 002c B9F1000F 		cmp	r9, #0
  75 0030 72D0     		beq	.L14
  76 0032 4FEA900B 		lsr	fp, r0, #2
  77 0036 9246     		mov	r10, r2
  78              	.LVL5:
  79 0038 4FEA0B12 		lsl	r2, fp, #4
  80 003c 0492     		str	r2, [sp, #16]
  81 003e 00F00303 		and	r3, r0, #3
  82              	.LVL6:
  83 0042 B218     		adds	r2, r6, r2
  84 0044 0592     		str	r2, [sp, #20]
  85 0046 0293     		str	r3, [sp, #8]
  86 0048 A646     		mov	lr, r4
  87              	.LVL7:
  88              	.L8:
  89              		.loc 1 103 0
  90 004a 2B46     		mov	r3, r5
  91              	.LVL8:
  92 004c ACF10400 		sub	r0, ip, #4
  93 0050 0A46     		mov	r2, r1
  94              	.LVL9:
  95              	.L3:
  96              		.loc 1 107 0 discriminator 1
  97 0052 52F8044B 		ldr	r4, [r2], #4
  98              	.LVL10:
  99 0056 40F8044F 		str	r4, [r0, #4]!
 100              		.loc 1 109 0 discriminator 1
 101 005a 013B     		subs	r3, r3, #1
 102              	.LVL11:
 103 005c F9D1     		bne	.L3
 104 005e AD00     		lsls	r5, r5, #2
 105 0060 AC44     		add	ip, ip, r5
 106 0062 2944     		add	r1, r1, r5
 107              	.LVL12:
 108              		.loc 1 125 0
 109 0064 BBF1000F 		cmp	fp, #0
 110 0068 00F08B80 		beq	.L15
 111 006c 039B     		ldr	r3, [sp, #12]
 112              	.LVL13:
 113 006e CDF80090 		str	r9, [sp]
 114 0072 0026     		movs	r6, #0
ARM GAS  /tmp/cc9fwfYh.s 			page 3


 115 0074 0027     		movs	r7, #0
 116 0076 03F11004 		add	r4, r3, #16
 117 007a 0EF11000 		add	r0, lr, #16
 118 007e 5D46     		mov	r5, fp
 119 0080 3246     		mov	r2, r6
 120              	.LVL14:
 121 0082 3B46     		mov	r3, r7
 122 0084 CDF80480 		str	r8, [sp, #4]
 123              	.LVL15:
 124              	.L5:
 125              		.loc 1 128 0
 126 0088 54F8106C 		ldr	r6, [r4, #-16]
 127              	.LVL16:
 128              		.loc 1 131 0
 129 008c 50F8107C 		ldr	r7, [r0, #-16]
 130              	.LVL17:
 131              		.loc 1 134 0
 132 0090 C6FB0723 		smlal	r2, r3, r6, r7
 133              	.LVL18:
 134              		.loc 1 143 0
 135 0094 50F80C6C 		ldr	r6, [r0, #-12]
 136 0098 54F80C7C 		ldr	r7, [r4, #-12]
 137 009c C7FB0623 		smlal	r2, r3, r7, r6
 138              	.LVL19:
 139 00a0 9946     		mov	r9, r3
 140              		.loc 1 152 0
 141 00a2 10E94800 		ldmdb	r0, {r3, r6}
 142              		.loc 1 143 0
 143 00a6 9046     		mov	r8, r2
 144              	.LVL20:
 145              		.loc 1 152 0
 146 00a8 54F8082C 		ldr	r2, [r4, #-8]
 147              		.loc 1 155 0
 148 00ac 54F8047C 		ldr	r7, [r4, #-4]
 149              		.loc 1 152 0
 150 00b0 C2FB0389 		smlal	r8, r9, r2, r3
 151              	.LVL21:
 152 00b4 4246     		mov	r2, r8
 153 00b6 4B46     		mov	r3, r9
 154              	.LVL22:
 155              		.loc 1 125 0
 156 00b8 013D     		subs	r5, r5, #1
 157              	.LVL23:
 158 00ba 04F11004 		add	r4, r4, #16
 159              	.LVL24:
 160              		.loc 1 161 0
 161 00be C7FB0623 		smlal	r2, r3, r7, r6
 162              	.LVL25:
 163 00c2 00F11000 		add	r0, r0, #16
 164              		.loc 1 125 0
 165 00c6 DFD1     		bne	.L5
 166 00c8 1F46     		mov	r7, r3
 167              	.LVL26:
 168 00ca 049B     		ldr	r3, [sp, #16]
 169 00cc DDF80090 		ldr	r9, [sp]
 170 00d0 DDF80480 		ldr	r8, [sp, #4]
 171              		.loc 1 155 0
ARM GAS  /tmp/cc9fwfYh.s 			page 4


 172 00d4 059C     		ldr	r4, [sp, #20]
 173              	.LVL27:
 174 00d6 1646     		mov	r6, r2
 175              	.LVL28:
 176 00d8 0EEB0305 		add	r5, lr, r3
 177              	.LVL29:
 178              	.L4:
 179              		.loc 1 170 0
 180 00dc 029B     		ldr	r3, [sp, #8]
 181 00de 63B1     		cbz	r3, .L6
 182 00e0 1846     		mov	r0, r3
 183 00e2 3246     		mov	r2, r6
 184 00e4 3B46     		mov	r3, r7
 185              	.LVL30:
 186              	.L7:
 187              		.loc 1 173 0
 188 00e6 54F8046B 		ldr	r6, [r4], #4
 189              	.LVL31:
 190              		.loc 1 176 0
 191 00ea 55F8047B 		ldr	r7, [r5], #4
 192              	.LVL32:
 193              		.loc 1 170 0
 194 00ee 0138     		subs	r0, r0, #1
 195              	.LVL33:
 196              		.loc 1 179 0
 197 00f0 C6FB0723 		smlal	r2, r3, r6, r7
 198              	.LVL34:
 199              		.loc 1 170 0
 200 00f4 F7D1     		bne	.L7
 201 00f6 1646     		mov	r6, r2
 202              	.LVL35:
 203 00f8 1F46     		mov	r7, r3
 204              	.LVL36:
 205              	.L6:
 206              		.loc 1 187 0
 207 00fa 98F80000 		ldrb	r0, [r8]	@ zero_extendqisi2
 208              		.loc 1 190 0
 209 00fe F20F     		lsrs	r2, r6, #31
 210 0100 42EA4702 		orr	r2, r2, r7, lsl #1
 211              		.loc 1 100 0
 212 0104 B9F10109 		subs	r9, r9, #1
 213              		.loc 1 190 0
 214 0108 4AF8042B 		str	r2, [r10], #4
 215              	.LVL37:
 216              		.loc 1 187 0
 217 010c 0EEB800E 		add	lr, lr, r0, lsl #2
 218              	.LVL38:
 219              		.loc 1 100 0
 220 0110 04D0     		beq	.L2
 221 0112 98F80050 		ldrb	r5, [r8]	@ zero_extendqisi2
 222              	.LVL39:
 223 0116 98E7     		b	.L8
 224              	.LVL40:
 225              	.L14:
 226              		.loc 1 78 0
 227 0118 DDF818E0 		ldr	lr, [sp, #24]
 228              	.LVL41:
ARM GAS  /tmp/cc9fwfYh.s 			page 5


 229              	.L2:
 230              		.loc 1 203 0
 231 011c 079B     		ldr	r3, [sp, #28]
 232 011e 591E     		subs	r1, r3, #1
 233              	.LVL42:
 234              		.loc 1 206 0
 235 0120 8D08     		lsrs	r5, r1, #2
 236              	.LVL43:
 237 0122 20D0     		beq	.L9
 238 0124 069B     		ldr	r3, [sp, #24]
 239 0126 2846     		mov	r0, r5
 240 0128 03F11002 		add	r2, r3, #16
 241 012c 0EF11003 		add	r3, lr, #16
 242              	.LVL44:
 243              	.L10:
 244              		.loc 1 208 0
 245 0130 53F8104C 		ldr	r4, [r3, #-16]
 246 0134 42F8104C 		str	r4, [r2, #-16]
 247              	.LVL45:
 248              		.loc 1 209 0
 249 0138 53F80C4C 		ldr	r4, [r3, #-12]
 250 013c 42F80C4C 		str	r4, [r2, #-12]
 251              	.LVL46:
 252              		.loc 1 210 0
 253 0140 53F8084C 		ldr	r4, [r3, #-8]
 254 0144 42F8084C 		str	r4, [r2, #-8]
 255              	.LVL47:
 256              		.loc 1 211 0
 257 0148 53F8044C 		ldr	r4, [r3, #-4]
 258 014c 42F8044C 		str	r4, [r2, #-4]
 259              		.loc 1 206 0
 260 0150 0138     		subs	r0, r0, #1
 261              	.LVL48:
 262 0152 03F11003 		add	r3, r3, #16
 263              	.LVL49:
 264 0156 02F11002 		add	r2, r2, #16
 265 015a E9D1     		bne	.L10
 266 015c 069A     		ldr	r2, [sp, #24]
 267 015e 2B01     		lsls	r3, r5, #4
 268              	.LVL50:
 269 0160 1A44     		add	r2, r2, r3
 270 0162 0692     		str	r2, [sp, #24]
 271 0164 9E44     		add	lr, lr, r3
 272              	.LVL51:
 273              	.L9:
 274              		.loc 1 220 0
 275 0166 11F00303 		ands	r3, r1, #3
 276              	.LVL52:
 277 016a 07D0     		beq	.L1
 278 016c 069A     		ldr	r2, [sp, #24]
 279 016e 043A     		subs	r2, r2, #4
 280              	.LVL53:
 281              	.L12:
 282              		.loc 1 222 0
 283 0170 5EF8041B 		ldr	r1, [lr], #4
 284              	.LVL54:
 285 0174 42F8041F 		str	r1, [r2, #4]!
ARM GAS  /tmp/cc9fwfYh.s 			page 6


 286              		.loc 1 220 0
 287 0178 013B     		subs	r3, r3, #1
 288              	.LVL55:
 289 017a F9D1     		bne	.L12
 290              	.LVL56:
 291              	.L1:
 292              		.loc 1 307 0
 293 017c 09B0     		add	sp, sp, #36
 294              		.cfi_remember_state
 295              		.cfi_def_cfa_offset 36
 296              		@ sp needed
 297 017e BDE8F08F 		pop	{r4, r5, r6, r7, r8, r9, r10, fp, pc}
 298              	.LVL57:
 299              	.L15:
 300              		.cfi_restore_state
 301              		.loc 1 118 0
 302 0182 039C     		ldr	r4, [sp, #12]
 303              		.loc 1 125 0
 304 0184 7546     		mov	r5, lr
 305              		.loc 1 112 0
 306 0186 0026     		movs	r6, #0
 307 0188 0027     		movs	r7, #0
 308 018a A7E7     		b	.L4
 309              		.cfi_endproc
 310              	.LFE135:
 311              		.size	arm_fir_decimate_q31, .-arm_fir_decimate_q31
 312              	.Letext0:
 313              		.file 2 "/home/sbcu/Dropbox/pcb-layouts/axo-on-discovery-board/axoloti/platform_linux/arm-none-eab
 314              		.file 3 "/home/sbcu/Dropbox/pcb-layouts/axo-on-discovery-board/axoloti/platform_linux/arm-none-eab
 315              		.file 4 "/home/sbcu/Dropbox/pcb-layouts/axo-on-discovery-board/axoloti/platform_linux/../CMSIS//DS