ARM GAS  /tmp/cc8tg0oa.s 			page 1


   1              		.syntax unified
   2              		.cpu cortex-m4
   3              		.eabi_attribute 27, 1
   4              		.eabi_attribute 28, 1
   5              		.fpu fpv4-sp-d16
   6              		.eabi_attribute 20, 1
   7              		.eabi_attribute 21, 1
   8              		.eabi_attribute 23, 3
   9              		.eabi_attribute 24, 1
  10              		.eabi_attribute 25, 1
  11              		.eabi_attribute 26, 1
  12              		.eabi_attribute 30, 2
  13              		.eabi_attribute 34, 1
  14              		.eabi_attribute 18, 4
  15              		.thumb
  16              		.file	"arm_fir_interpolate_q31.c"
  17              		.text
  18              	.Ltext0:
  19              		.cfi_sections	.debug_frame
  20              		.align	2
  21              		.p2align 4,,15
  22              		.global	arm_fir_interpolate_q31
  23              		.thumb
  24              		.thumb_func
  25              		.type	arm_fir_interpolate_q31, %function
  26              	arm_fir_interpolate_q31:
  27              	.LFB135:
  28              		.file 1 "/d_drive/axoloti/platform_linux/../CMSIS//DSP_Lib/Source/FilteringFunctions/arm_fir_inter
  29              		.loc 1 79 0
  30              		.cfi_startproc
  31              		@ args = 0, pretend = 0, frame = 112
  32              		@ frame_needed = 0, uses_anonymous_args = 0
  33              	.LVL0:
  34 0000 2DE9F04F 		push	{r4, r5, r6, r7, r8, r9, r10, fp, lr}
  35              		.cfi_def_cfa_offset 36
  36              		.cfi_offset 4, -36
  37              		.cfi_offset 5, -32
  38              		.cfi_offset 6, -28
  39              		.cfi_offset 7, -24
  40              		.cfi_offset 8, -20
  41              		.cfi_offset 9, -16
  42              		.cfi_offset 10, -12
  43              		.cfi_offset 11, -8
  44              		.cfi_offset 14, -4
  45 0004 9DB0     		sub	sp, sp, #116
  46              		.cfi_def_cfa_offset 152
  47              		.loc 1 79 0
  48 0006 0646     		mov	r6, r0
  49 0008 0590     		str	r0, [sp, #20]
  50              		.loc 1 87 0
  51 000a 4088     		ldrh	r0, [r0, #2]
  52              	.LVL1:
  53              		.loc 1 80 0
  54 000c B468     		ldr	r4, [r6, #8]
  55              		.loc 1 79 0
  56 000e 1491     		str	r1, [sp, #80]
  57 0010 8E46     		mov	lr, r1
ARM GAS  /tmp/cc8tg0oa.s 			page 2


  58              		.loc 1 95 0
  59 0012 00F18041 		add	r1, r0, #1073741824
  60              	.LVL2:
  61              		.loc 1 80 0
  62 0016 2546     		mov	r5, r4
  63              		.loc 1 95 0
  64 0018 0139     		subs	r1, r1, #1
  65              		.loc 1 79 0
  66 001a 1092     		str	r2, [sp, #64]
  67              		.loc 1 95 0
  68 001c 05EB8102 		add	r2, r5, r1, lsl #2
  69              	.LVL3:
  70              		.loc 1 80 0
  71 0020 1794     		str	r4, [sp, #92]
  72              	.LVL4:
  73              		.loc 1 95 0
  74 0022 1892     		str	r2, [sp, #96]
  75              		.loc 1 81 0
  76 0024 7468     		ldr	r4, [r6, #4]
  77              	.LVL5:
  78              		.loc 1 87 0
  79 0026 1990     		str	r0, [sp, #100]
  80              		.loc 1 95 0
  81 0028 1646     		mov	r6, r2
  82              	.LVL6:
  83              		.loc 1 99 0
  84 002a 03F00102 		and	r2, r3, #1
  85              		.loc 1 102 0
  86 002e 5B08     		lsrs	r3, r3, #1
  87              	.LVL7:
  88              		.loc 1 81 0
  89 0030 0794     		str	r4, [sp, #28]
  90              	.LVL8:
  91              		.loc 1 99 0
  92 0032 1A92     		str	r2, [sp, #104]
  93              	.LVL9:
  94              		.loc 1 102 0
  95 0034 1F46     		mov	r7, r3
  96 0036 1B93     		str	r3, [sp, #108]
  97 0038 00F0E481 		beq	.L25
  98 003c 8308     		lsrs	r3, r0, #2
  99 003e 5A1E     		subs	r2, r3, #1
 100              	.LVL10:
 101 0040 0C93     		str	r3, [sp, #48]
 102 0042 00F00303 		and	r3, r0, #3
 103 0046 0D93     		str	r3, [sp, #52]
 104 0048 013B     		subs	r3, r3, #1
 105 004a 9BB2     		uxth	r3, r3
 106 004c 9B00     		lsls	r3, r3, #2
 107 004e 0E93     		str	r3, [sp, #56]
 108 0050 06F10803 		add	r3, r6, #8
 109 0054 92B2     		uxth	r2, r2
 110 0056 1293     		str	r3, [sp, #72]
 111 0058 7346     		mov	r3, lr
 112 005a 05EB0211 		add	r1, r5, r2, lsl #4
 113              	.LVL11:
 114 005e 0833     		adds	r3, r3, #8
ARM GAS  /tmp/cc8tg0oa.s 			page 3


 115 0060 01F12400 		add	r0, r1, #36
 116              	.LVL12:
 117 0064 0132     		adds	r2, r2, #1
 118 0066 1393     		str	r3, [sp, #76]
 119 0068 2B1D     		adds	r3, r5, #4
 120 006a 1190     		str	r0, [sp, #68]
 121 006c 0F92     		str	r2, [sp, #60]
 122 006e 0A93     		str	r3, [sp, #40]
 123 0070 1697     		str	r7, [sp, #88]
 124              	.LVL13:
 125              	.L10:
 126              		.loc 1 105 0
 127 0072 139A     		ldr	r2, [sp, #76]
 128 0074 1298     		ldr	r0, [sp, #72]
 129 0076 52F8083C 		ldr	r3, [r2, #-8]
 130 007a 40F8083C 		str	r3, [r0, #-8]
 131              	.LVL14:
 132              		.loc 1 106 0
 133 007e 52F8043C 		ldr	r3, [r2, #-4]
 134 0082 40F8043C 		str	r3, [r0, #-4]
 135              	.LVL15:
 136              		.loc 1 112 0
 137 0086 059B     		ldr	r3, [sp, #20]
 138 0088 1B78     		ldrb	r3, [r3]	@ zero_extendqisi2
 139 008a 1593     		str	r3, [sp, #84]
 140              	.LVL16:
 141              		.loc 1 114 0
 142 008c 002B     		cmp	r3, #0
 143 008e 00F0B781 		beq	.L26
 144 0092 5A1C     		adds	r2, r3, #1
 145 0094 0493     		str	r3, [sp, #16]
 146 0096 109B     		ldr	r3, [sp, #64]
 147              	.LVL17:
 148 0098 0693     		str	r3, [sp, #24]
 149 009a DDF844C0 		ldr	ip, [sp, #68]
 150 009e 0B92     		str	r2, [sp, #44]
 151 00a0 0123     		movs	r3, #1
 152 00a2 0393     		str	r3, [sp, #12]
 153              	.LVL18:
 154              	.L9:
 155              		.loc 1 124 0
 156 00a4 049A     		ldr	r2, [sp, #16]
 157 00a6 0399     		ldr	r1, [sp, #12]
 158 00a8 079B     		ldr	r3, [sp, #28]
 159              		.loc 1 130 0
 160 00aa 0A9E     		ldr	r6, [sp, #40]
 161              		.loc 1 124 0
 162 00ac C1EB020B 		rsb	fp, r1, r2
 163 00b0 03EB8B0B 		add	fp, r3, fp, lsl #2
 164              	.LVL19:
 165              		.loc 1 132 0
 166 00b4 0C9B     		ldr	r3, [sp, #48]
 167              		.loc 1 130 0
 168 00b6 56F8049C 		ldr	r9, [r6, #-4]
 169              	.LVL20:
 170              		.loc 1 132 0
 171 00ba 002B     		cmp	r3, #0
ARM GAS  /tmp/cc8tg0oa.s 			page 4


 172 00bc 00F08C80 		beq	.L27
 173 00c0 13B2     		sxth	r3, r2
 174 00c2 0024     		movs	r4, #0
 175 00c4 0025     		movs	r5, #0
 176 00c6 4FEA8308 		lsl	r8, r3, #2
 177 00ca 1B01     		lsls	r3, r3, #4
 178 00cc 06F11002 		add	r2, r6, #16
 179 00d0 DE46     		mov	lr, fp
 180 00d2 4E46     		mov	r6, r9
 181              	.LVL21:
 182 00d4 CDF824B0 		str	fp, [sp, #36]
 183 00d8 0893     		str	r3, [sp, #32]
 184 00da 2046     		mov	r0, r4
 185 00dc 2946     		mov	r1, r5
 186 00de E146     		mov	r9, ip
 187              	.LVL22:
 188 00e0 A246     		mov	r10, r4
 189 00e2 AB46     		mov	fp, r5
 190              	.LVL23:
 191              	.L5:
 192              		.loc 1 136 0
 193 00e4 52F8104C 		ldr	r4, [r2, #-16]
 194              	.LVL24:
 195              		.loc 1 139 0
 196 00e8 DEF80030 		ldr	r3, [lr]
 197              	.LVL25:
 198              		.loc 1 147 0
 199 00ec 5EF80850 		ldr	r5, [lr, r8]
 200              		.loc 1 158 0
 201 00f0 5EF818C0 		ldr	ip, [lr, r8, lsl #1]
 202              		.loc 1 142 0
 203 00f4 C3FB06AB 		smlal	r10, fp, r3, r6
 204              	.LVL26:
 205              		.loc 1 143 0
 206 00f8 C4FB0301 		smlal	r0, r1, r4, r3
 207              	.LVL27:
 208 00fc CDE90001 		strd	r0, [sp]
 209              		.loc 1 142 0
 210 0100 5046     		mov	r0, r10
 211 0102 5946     		mov	r1, fp
 212              	.LVL28:
 213              		.loc 1 153 0
 214 0104 C5FB0401 		smlal	r0, r1, r5, r4
 215              	.LVL29:
 216 0108 8246     		mov	r10, r0
 217 010a 8B46     		mov	fp, r1
 218              	.LVL30:
 219              		.loc 1 154 0
 220 010c DDE90001 		ldrd	r0, [sp]
 221 0110 52F80C6C 		ldr	r6, [r2, #-12]
 222 0114 C6FB0501 		smlal	r0, r1, r6, r5
 223 0118 0EEB0803 		add	r3, lr, r8
 224 011c 0D46     		mov	r5, r1
 225              	.LVL31:
 226              		.loc 1 164 0
 227 011e 52F80C1C 		ldr	r1, [r2, #-12]
 228              		.loc 1 161 0
ARM GAS  /tmp/cc8tg0oa.s 			page 5


 229 0122 52F808EC 		ldr	lr, [r2, #-8]
 230              	.LVL32:
 231              		.loc 1 168 0
 232 0126 53F81870 		ldr	r7, [r3, r8, lsl #1]
 233              		.loc 1 171 0
 234 012a 52F8046C 		ldr	r6, [r2, #-4]
 235              		.loc 1 164 0
 236 012e CCFB01AB 		smlal	r10, fp, ip, r1
 237              	.LVL33:
 238              		.loc 1 154 0
 239 0132 0446     		mov	r4, r0
 240              	.LVL34:
 241              		.loc 1 164 0
 242 0134 5946     		mov	r1, fp
 243 0136 5046     		mov	r0, r10
 244              	.LVL35:
 245              		.loc 1 174 0
 246 0138 C7FB0E01 		smlal	r0, r1, r7, lr
 247              	.LVL36:
 248              		.loc 1 165 0
 249 013c CEFB0C45 		smlal	r4, r5, lr, ip
 250              	.LVL37:
 251 0140 1032     		adds	r2, r2, #16
 252              	.LVL38:
 253 0142 03EB4803 		add	r3, r3, r8, lsl #1
 254              		.loc 1 174 0
 255 0146 8246     		mov	r10, r0
 256 0148 8B46     		mov	fp, r1
 257              	.LVL39:
 258              		.loc 1 175 0
 259 014a 2046     		mov	r0, r4
 260 014c 2946     		mov	r1, r5
 261              		.loc 1 132 0
 262 014e 9145     		cmp	r9, r2
 263              		.loc 1 181 0
 264 0150 03EB080E 		add	lr, r3, r8
 265              	.LVL40:
 266              		.loc 1 175 0
 267 0154 C6FB0701 		smlal	r0, r1, r6, r7
 268              	.LVL41:
 269              		.loc 1 132 0
 270 0158 C4D1     		bne	.L5
 271 015a 0D46     		mov	r5, r1
 272 015c 0F9B     		ldr	r3, [sp, #60]
 273 015e 089A     		ldr	r2, [sp, #32]
 274              	.LVL42:
 275 0160 5946     		mov	r1, fp
 276 0162 DDF824B0 		ldr	fp, [sp, #36]
 277 0166 CC46     		mov	ip, r9
 278 0168 0446     		mov	r4, r0
 279 016a B146     		mov	r9, r6
 280 016c 5046     		mov	r0, r10
 281              	.LVL43:
 282 016e 02FB03BB 		mla	fp, r2, r3, fp
 283 0172 ACF11007 		sub	r7, ip, #16
 284              	.LVL44:
 285              	.L4:
ARM GAS  /tmp/cc8tg0oa.s 			page 6


 286              		.loc 1 190 0
 287 0176 0D9B     		ldr	r3, [sp, #52]
 288 0178 BBB1     		cbz	r3, .L6
 289 017a 049B     		ldr	r3, [sp, #16]
 290 017c 0E9A     		ldr	r2, [sp, #56]
 291 017e 4FEA830E 		lsl	lr, r3, #2
 292 0182 3B1F     		subs	r3, r7, #4
 293 0184 1744     		add	r7, r7, r2
 294              	.LVL45:
 295 0186 3A46     		mov	r2, r7
 296 0188 0646     		mov	r6, r0
 297 018a 0F46     		mov	r7, r1
 298 018c 1046     		mov	r0, r2
 299              	.LVL46:
 300              	.L7:
 301              		.loc 1 194 0
 302 018e 53F8042F 		ldr	r2, [r3, #4]!
 303              	.LVL47:
 304              		.loc 1 197 0
 305 0192 DBF80010 		ldr	r1, [fp]
 306              	.LVL48:
 307              		.loc 1 190 0
 308 0196 8342     		cmp	r3, r0
 309              		.loc 1 200 0
 310 0198 C1FB0967 		smlal	r6, r7, r1, r9
 311              	.LVL49:
 312              		.loc 1 204 0
 313 019c F344     		add	fp, fp, lr
 314              	.LVL50:
 315              		.loc 1 201 0
 316 019e C2FB0145 		smlal	r4, r5, r2, r1
 317              	.LVL51:
 318              		.loc 1 207 0
 319 01a2 9146     		mov	r9, r2
 320              		.loc 1 190 0
 321 01a4 F3D1     		bne	.L7
 322 01a6 3046     		mov	r0, r6
 323 01a8 3946     		mov	r1, r7
 324              	.LVL52:
 325              	.L6:
 326              		.loc 1 214 0
 327 01aa C30F     		lsrs	r3, r0, #31
 328 01ac 43EA4103 		orr	r3, r3, r1, lsl #1
 329 01b0 0699     		ldr	r1, [sp, #24]
 330              		.loc 1 215 0
 331 01b2 059F     		ldr	r7, [sp, #20]
 332              		.loc 1 214 0
 333 01b4 0B60     		str	r3, [r1]
 334              		.loc 1 215 0
 335 01b6 3B78     		ldrb	r3, [r7]	@ zero_extendqisi2
 336              		.loc 1 221 0
 337 01b8 0398     		ldr	r0, [sp, #12]
 338              		.loc 1 215 0
 339 01ba E20F     		lsrs	r2, r4, #31
 340 01bc 42EA4502 		orr	r2, r2, r5, lsl #1
 341 01c0 41F82320 		str	r2, [r1, r3, lsl #2]
 342              		.loc 1 218 0
ARM GAS  /tmp/cc8tg0oa.s 			page 7


 343 01c4 0B1D     		adds	r3, r1, #4
 344 01c6 0693     		str	r3, [sp, #24]
 345              	.LVL53:
 346              		.loc 1 114 0
 347 01c8 0B9B     		ldr	r3, [sp, #44]
 348              		.loc 1 221 0
 349 01ca 0130     		adds	r0, r0, #1
 350              	.LVL54:
 351              		.loc 1 114 0
 352 01cc 9842     		cmp	r0, r3
 353              		.loc 1 221 0
 354 01ce 0390     		str	r0, [sp, #12]
 355              		.loc 1 114 0
 356 01d0 08D0     		beq	.L8
 357 01d2 3B78     		ldrb	r3, [r7]	@ zero_extendqisi2
 358 01d4 0493     		str	r3, [sp, #16]
 359 01d6 65E7     		b	.L9
 360              	.LVL55:
 361              	.L27:
 362              		.loc 1 118 0
 363 01d8 0024     		movs	r4, #0
 364 01da 0025     		movs	r5, #0
 365              		.loc 1 117 0
 366 01dc 2046     		mov	r0, r4
 367 01de 2946     		mov	r1, r5
 368              	.LVL56:
 369              		.loc 1 132 0
 370 01e0 0A9F     		ldr	r7, [sp, #40]
 371 01e2 C8E7     		b	.L4
 372              	.LVL57:
 373              	.L8:
 374 01e4 109B     		ldr	r3, [sp, #64]
 375 01e6 159A     		ldr	r2, [sp, #84]
 376 01e8 03EB8203 		add	r3, r3, r2, lsl #2
 377 01ec 1093     		str	r3, [sp, #64]
 378 01ee 059B     		ldr	r3, [sp, #20]
 379 01f0 1B78     		ldrb	r3, [r3]	@ zero_extendqisi2
 380              	.LVL58:
 381              	.L3:
 382              		.loc 1 231 0
 383 01f2 109A     		ldr	r2, [sp, #64]
 384 01f4 02EB8303 		add	r3, r2, r3, lsl #2
 385 01f8 1093     		str	r3, [sp, #64]
 386              	.LVL59:
 387 01fa 129B     		ldr	r3, [sp, #72]
 388              	.LVL60:
 389 01fc 0833     		adds	r3, r3, #8
 390 01fe 1293     		str	r3, [sp, #72]
 391 0200 139B     		ldr	r3, [sp, #76]
 392 0202 0833     		adds	r3, r3, #8
 393 0204 1393     		str	r3, [sp, #76]
 394              	.LVL61:
 395 0206 0A9B     		ldr	r3, [sp, #40]
 396 0208 0833     		adds	r3, r3, #8
 397 020a 0A93     		str	r3, [sp, #40]
 398 020c 119B     		ldr	r3, [sp, #68]
 399 020e 0833     		adds	r3, r3, #8
ARM GAS  /tmp/cc8tg0oa.s 			page 8


 400 0210 1193     		str	r3, [sp, #68]
 401              		.loc 1 102 0
 402 0212 169B     		ldr	r3, [sp, #88]
 403 0214 013B     		subs	r3, r3, #1
 404              	.LVL62:
 405 0216 1693     		str	r3, [sp, #88]
 406 0218 7FF42BAF 		bne	.L10
 407 021c 1B9B     		ldr	r3, [sp, #108]
 408              	.LVL63:
 409 021e 189A     		ldr	r2, [sp, #96]
 410 0220 DB00     		lsls	r3, r3, #3
 411 0222 1A44     		add	r2, r2, r3
 412 0224 1892     		str	r2, [sp, #96]
 413 0226 149A     		ldr	r2, [sp, #80]
 414 0228 1A44     		add	r2, r2, r3
 415 022a 1492     		str	r2, [sp, #80]
 416 022c 179A     		ldr	r2, [sp, #92]
 417 022e D318     		adds	r3, r2, r3
 418 0230 0F93     		str	r3, [sp, #60]
 419              	.LVL64:
 420              	.L2:
 421              		.loc 1 242 0
 422 0232 1A99     		ldr	r1, [sp, #104]
 423 0234 0029     		cmp	r1, #0
 424 0236 00F09E80 		beq	.L11
 425 023a 1998     		ldr	r0, [sp, #100]
 426 023c 0F9C     		ldr	r4, [sp, #60]
 427 023e 0D91     		str	r1, [sp, #52]
 428 0240 8308     		lsrs	r3, r0, #2
 429 0242 5A1E     		subs	r2, r3, #1
 430 0244 0893     		str	r3, [sp, #32]
 431 0246 00F00303 		and	r3, r0, #3
 432 024a 0993     		str	r3, [sp, #36]
 433 024c 92B2     		uxth	r2, r2
 434 024e 013B     		subs	r3, r3, #1
 435 0250 1898     		ldr	r0, [sp, #96]
 436 0252 0394     		str	r4, [sp, #12]
 437 0254 0132     		adds	r2, r2, #1
 438 0256 9BB2     		uxth	r3, r3
 439 0258 0A92     		str	r2, [sp, #40]
 440 025a 0438     		subs	r0, r0, #4
 441 025c 04EB0212 		add	r2, r4, r2, lsl #4
 442 0260 9B00     		lsls	r3, r3, #2
 443 0262 0C90     		str	r0, [sp, #48]
 444 0264 0492     		str	r2, [sp, #16]
 445 0266 0B93     		str	r3, [sp, #44]
 446              	.LVL65:
 447              	.L19:
 448              		.loc 1 245 0
 449 0268 149A     		ldr	r2, [sp, #80]
 450 026a 52F8043B 		ldr	r3, [r2], #4
 451 026e 1492     		str	r2, [sp, #80]
 452              	.LVL66:
 453 0270 0C9A     		ldr	r2, [sp, #48]
 454              	.LVL67:
 455 0272 42F8043F 		str	r3, [r2, #4]!
 456              		.loc 1 251 0
ARM GAS  /tmp/cc8tg0oa.s 			page 9


 457 0276 059B     		ldr	r3, [sp, #20]
 458              		.loc 1 245 0
 459 0278 0C92     		str	r2, [sp, #48]
 460              	.LVL68:
 461              		.loc 1 251 0
 462 027a 1B78     		ldrb	r3, [r3]	@ zero_extendqisi2
 463 027c 0E93     		str	r3, [sp, #56]
 464              	.LVL69:
 465              		.loc 1 252 0
 466 027e 002B     		cmp	r3, #0
 467 0280 69D0     		beq	.L12
 468 0282 5A1C     		adds	r2, r3, #1
 469 0284 9946     		mov	r9, r3
 470 0286 049B     		ldr	r3, [sp, #16]
 471              	.LVL70:
 472 0288 DDF840B0 		ldr	fp, [sp, #64]
 473 028c 0692     		str	r2, [sp, #24]
 474 028e 4FF0010A 		mov	r10, #1
 475 0292 03F1100E 		add	lr, r3, #16
 476              	.LVL71:
 477              	.L18:
 478              		.loc 1 261 0
 479 0296 079B     		ldr	r3, [sp, #28]
 480 0298 CAEB0905 		rsb	r5, r10, r9
 481 029c 03EB8505 		add	r5, r3, r5, lsl #2
 482              	.LVL72:
 483              		.loc 1 266 0
 484 02a0 089B     		ldr	r3, [sp, #32]
 485 02a2 002B     		cmp	r3, #0
 486 02a4 00F0A680 		beq	.L28
 487 02a8 039B     		ldr	r3, [sp, #12]
 488 02aa 4FEA8904 		lsl	r4, r9, #2
 489 02ae 03F11000 		add	r0, r3, #16
 490 02b2 2946     		mov	r1, r5
 491 02b4 0022     		movs	r2, #0
 492 02b6 0023     		movs	r3, #0
 493 02b8 A846     		mov	r8, r5
 494              	.LVL73:
 495              	.L14:
 496              		.loc 1 278 0
 497 02ba 50F8106C 		ldr	r6, [r0, #-16]
 498              		.loc 1 270 0
 499 02be 0F68     		ldr	r7, [r1]
 500              	.LVL74:
 501              		.loc 1 284 0
 502 02c0 0D59     		ldr	r5, [r1, r4]
 503              		.loc 1 281 0
 504 02c2 C7FB0623 		smlal	r2, r3, r7, r6
 505              	.LVL75:
 506 02c6 1646     		mov	r6, r2
 507              		.loc 1 293 0
 508 02c8 50F80C2C 		ldr	r2, [r0, #-12]
 509              		.loc 1 281 0
 510 02cc 1F46     		mov	r7, r3
 511              	.LVL76:
 512              		.loc 1 293 0
 513 02ce C5FB0267 		smlal	r6, r7, r5, r2
ARM GAS  /tmp/cc8tg0oa.s 			page 10


 514              		.loc 1 305 0
 515 02d2 10E92400 		ldmdb	r0, {r2, r5}
 516 02d6 0B19     		adds	r3, r1, r4
 517              	.LVL77:
 518              		.loc 1 296 0
 519 02d8 51F81410 		ldr	r1, [r1, r4, lsl #1]
 520              	.LVL78:
 521              		.loc 1 308 0
 522 02dc 53F814C0 		ldr	ip, [r3, r4, lsl #1]
 523              		.loc 1 305 0
 524 02e0 C1FB0267 		smlal	r6, r7, r1, r2
 525              	.LVL79:
 526 02e4 1030     		adds	r0, r0, #16
 527              	.LVL80:
 528 02e6 03EB4401 		add	r1, r3, r4, lsl #1
 529              	.LVL81:
 530              		.loc 1 317 0
 531 02ea 3246     		mov	r2, r6
 532 02ec 3B46     		mov	r3, r7
 533              		.loc 1 266 0
 534 02ee 8645     		cmp	lr, r0
 535 02f0 2144     		add	r1, r1, r4
 536              	.LVL82:
 537              		.loc 1 317 0
 538 02f2 CCFB0523 		smlal	r2, r3, ip, r5
 539              	.LVL83:
 540              		.loc 1 266 0
 541 02f6 E0D1     		bne	.L14
 542 02f8 CDE90023 		strd	r2, [sp]
 543 02fc 0A9B     		ldr	r3, [sp, #40]
 544 02fe 049E     		ldr	r6, [sp, #16]
 545 0300 A400     		lsls	r4, r4, #2
 546 0302 03FB0485 		mla	r5, r3, r4, r8
 547              	.LVL84:
 548              	.L13:
 549              		.loc 1 326 0
 550 0306 099B     		ldr	r3, [sp, #36]
 551 0308 83B1     		cbz	r3, .L15
 552 030a 0B9B     		ldr	r3, [sp, #44]
 553 030c 311F     		subs	r1, r6, #4
 554 030e 1E44     		add	r6, r6, r3
 555              	.LVL85:
 556 0310 DDE90023 		ldrd	r2, [sp]
 557 0314 4FEA8909 		lsl	r9, r9, #2
 558              	.LVL86:
 559              	.L16:
 560              		.loc 1 335 0
 561 0318 51F8044F 		ldr	r4, [r1, #4]!
 562              	.LVL87:
 563              		.loc 1 329 0
 564 031c 2868     		ldr	r0, [r5]
 565              	.LVL88:
 566              		.loc 1 326 0
 567 031e B142     		cmp	r1, r6
 568              		.loc 1 332 0
 569 0320 4D44     		add	r5, r5, r9
 570              	.LVL89:
ARM GAS  /tmp/cc8tg0oa.s 			page 11


 571              		.loc 1 338 0
 572 0322 C0FB0423 		smlal	r2, r3, r0, r4
 573              	.LVL90:
 574              		.loc 1 326 0
 575 0326 F7D1     		bne	.L16
 576 0328 CDE90023 		strd	r2, [sp]
 577              	.LVL91:
 578              	.L15:
 579              		.loc 1 345 0
 580 032c DDE90001 		ldrd	r0, [sp]
 581              		.loc 1 252 0
 582 0330 069B     		ldr	r3, [sp, #24]
 583              		.loc 1 345 0
 584 0332 C20F     		lsrs	r2, r0, #31
 585              		.loc 1 348 0
 586 0334 0AF1010A 		add	r10, r10, #1
 587              	.LVL92:
 588              		.loc 1 345 0
 589 0338 42EA4102 		orr	r2, r2, r1, lsl #1
 590              		.loc 1 252 0
 591 033c 9A45     		cmp	r10, r3
 592              		.loc 1 345 0
 593 033e 4BF8042B 		str	r2, [fp], #4
 594              	.LVL93:
 595              		.loc 1 252 0
 596 0342 03D0     		beq	.L17
 597 0344 059B     		ldr	r3, [sp, #20]
 598 0346 93F80090 		ldrb	r9, [r3]	@ zero_extendqisi2
 599 034a A4E7     		b	.L18
 600              	.L17:
 601 034c 109B     		ldr	r3, [sp, #64]
 602 034e 0E9A     		ldr	r2, [sp, #56]
 603 0350 03EB8203 		add	r3, r3, r2, lsl #2
 604 0354 1093     		str	r3, [sp, #64]
 605              	.LVL94:
 606              	.L12:
 607              		.loc 1 356 0
 608 0356 039B     		ldr	r3, [sp, #12]
 609 0358 0433     		adds	r3, r3, #4
 610 035a 0393     		str	r3, [sp, #12]
 611              	.LVL95:
 612 035c 049B     		ldr	r3, [sp, #16]
 613              	.LVL96:
 614 035e 0433     		adds	r3, r3, #4
 615 0360 0493     		str	r3, [sp, #16]
 616              		.loc 1 242 0
 617 0362 0D9B     		ldr	r3, [sp, #52]
 618 0364 013B     		subs	r3, r3, #1
 619              	.LVL97:
 620 0366 0D93     		str	r3, [sp, #52]
 621 0368 7FF47EAF 		bne	.L19
 622 036c 0F9B     		ldr	r3, [sp, #60]
 623              	.LVL98:
 624 036e 1A9A     		ldr	r2, [sp, #104]
 625 0370 03EB8203 		add	r3, r3, r2, lsl #2
 626 0374 0F93     		str	r3, [sp, #60]
 627              	.LVL99:
ARM GAS  /tmp/cc8tg0oa.s 			page 12


 628              	.L11:
 629              		.loc 1 369 0
 630 0376 199B     		ldr	r3, [sp, #100]
 631 0378 591E     		subs	r1, r3, #1
 632 037a C1F38F03 		ubfx	r3, r1, #2, #16
 633              	.LVL100:
 634              		.loc 1 372 0
 635 037e 33B3     		cbz	r3, .L20
 636 0380 013B     		subs	r3, r3, #1
 637              	.LVL101:
 638 0382 179A     		ldr	r2, [sp, #92]
 639 0384 9CB2     		uxth	r4, r3
 640 0386 A51C     		adds	r5, r4, #2
 641 0388 1346     		mov	r3, r2
 642              	.LVL102:
 643 038a 02EB0515 		add	r5, r2, r5, lsl #4
 644 038e 0F9A     		ldr	r2, [sp, #60]
 645 0390 1033     		adds	r3, r3, #16
 646 0392 1032     		adds	r2, r2, #16
 647              	.LVL103:
 648              	.L21:
 649              		.loc 1 374 0
 650 0394 52F8100C 		ldr	r0, [r2, #-16]
 651 0398 43F8100C 		str	r0, [r3, #-16]
 652              	.LVL104:
 653              		.loc 1 375 0
 654 039c 52F80C0C 		ldr	r0, [r2, #-12]
 655 03a0 43F80C0C 		str	r0, [r3, #-12]
 656              	.LVL105:
 657              		.loc 1 376 0
 658 03a4 52F8080C 		ldr	r0, [r2, #-8]
 659 03a8 43F8080C 		str	r0, [r3, #-8]
 660              	.LVL106:
 661              		.loc 1 377 0
 662 03ac 52F8040C 		ldr	r0, [r2, #-4]
 663 03b0 43F8040C 		str	r0, [r3, #-4]
 664 03b4 1033     		adds	r3, r3, #16
 665              		.loc 1 372 0
 666 03b6 AB42     		cmp	r3, r5
 667 03b8 02F11002 		add	r2, r2, #16
 668              	.LVL107:
 669 03bc EAD1     		bne	.L21
 670 03be 179A     		ldr	r2, [sp, #92]
 671              	.LVL108:
 672 03c0 631C     		adds	r3, r4, #1
 673 03c2 1B01     		lsls	r3, r3, #4
 674 03c4 1A44     		add	r2, r2, r3
 675 03c6 1792     		str	r2, [sp, #92]
 676 03c8 0F9A     		ldr	r2, [sp, #60]
 677 03ca 1A44     		add	r2, r2, r3
 678 03cc 0F92     		str	r2, [sp, #60]
 679              	.L20:
 680              	.LVL109:
 681              		.loc 1 386 0
 682 03ce 11F00302 		ands	r2, r1, #3
 683 03d2 0CD0     		beq	.L1
 684 03d4 1799     		ldr	r1, [sp, #92]
ARM GAS  /tmp/cc8tg0oa.s 			page 13


 685              	.LVL110:
 686 03d6 013A     		subs	r2, r2, #1
 687 03d8 92B2     		uxth	r2, r2
 688 03da 01EB8202 		add	r2, r1, r2, lsl #2
 689 03de 0B1F     		subs	r3, r1, #4
 690 03e0 0F99     		ldr	r1, [sp, #60]
 691              	.LVL111:
 692              	.L23:
 693              		.loc 1 388 0
 694 03e2 51F8040B 		ldr	r0, [r1], #4
 695              	.LVL112:
 696 03e6 43F8040F 		str	r0, [r3, #4]!
 697              	.LVL113:
 698              		.loc 1 386 0
 699 03ea 9342     		cmp	r3, r2
 700 03ec F9D1     		bne	.L23
 701              	.LVL114:
 702              	.L1:
 703              		.loc 1 394 0
 704 03ee 1DB0     		add	sp, sp, #116
 705              		.cfi_remember_state
 706              		.cfi_def_cfa_offset 36
 707              		@ sp needed
 708 03f0 BDE8F08F 		pop	{r4, r5, r6, r7, r8, r9, r10, fp, pc}
 709              	.LVL115:
 710              	.L28:
 711              		.cfi_restore_state
 712              		.loc 1 255 0
 713 03f4 0022     		movs	r2, #0
 714 03f6 0023     		movs	r3, #0
 715              		.loc 1 266 0
 716 03f8 039E     		ldr	r6, [sp, #12]
 717              		.loc 1 255 0
 718 03fa CDE90023 		strd	r2, [sp]
 719 03fe 82E7     		b	.L13
 720              	.LVL116:
 721              	.L26:
 722              		.loc 1 114 0
 723 0400 159B     		ldr	r3, [sp, #84]
 724              	.LVL117:
 725 0402 F6E6     		b	.L3
 726              	.LVL118:
 727              	.L25:
 728              		.loc 1 80 0
 729 0404 179B     		ldr	r3, [sp, #92]
 730 0406 0F93     		str	r3, [sp, #60]
 731 0408 13E7     		b	.L2
 732              		.cfi_endproc
 733              	.LFE135:
 734              		.size	arm_fir_interpolate_q31, .-arm_fir_interpolate_q31
 735              	.Letext0:
 736              		.file 2 "/d_drive/axoloti/platform_linux/arm-none-eabi/include/machine/_default_types.h"
 737              		.file 3 "/d_drive/axoloti/platform_linux/arm-none-eabi/include/sys/_stdint.h"
 738              		.file 4 "/d_drive/axoloti/platform_linux/../CMSIS//DSP_Lib/Include/arm_math.h"
 739 040a 00BF     		.section	.debug_info,"",%progbits
 740              	.Ldebug_info0:
 741 0000 AE020000 		.4byte	0x2ae
ARM GAS  /tmp/cc8tg0oa.s 			page 14


 742 0004 0400     		.2byte	0x4
 743 0006 00000000 		.4byte	.Ldebug_abbrev0
 744 000a 04       		.byte	0x4
 745 000b 01       		.uleb128 0x1
 746 000c 05000000 		.4byte	.LASF43
 747 0010 01       		.byte	0x1
 748 0011 17010000 		.4byte	.LASF44
 749 0015 00000000 		.4byte	.Ltext0
 750 0019 0A040000 		.4byte	.Letext0-.Ltext0
 751 001d 00000000 		.4byte	.Ldebug_line0
 752 0021 02       		.uleb128 0x2
 753 0022 01       		.byte	0x1
 754 0023 06       		.byte	0x6
 755 0024 E5020000 		.4byte	.LASF0
 756 0028 03       		.uleb128 0x3
 757 0029 03010000 		.4byte	.LASF3
 758 002d 02       		.byte	0x2
 759 002e 1D       		.byte	0x1d
 760 002f 33000000 		.4byte	0x33
 761 0033 02       		.uleb128 0x2
 762 0034 01       		.byte	0x1
 763 0035 08       		.byte	0x8
 764 0036 9B010000 		.4byte	.LASF1
 765 003a 02       		.uleb128 0x2
 766 003b 02       		.byte	0x2
 767 003c 05       		.byte	0x5
 768 003d 95020000 		.4byte	.LASF2
 769 0041 03       		.uleb128 0x3
 770 0042 9F020000 		.4byte	.LASF4
 771 0046 02       		.byte	0x2
 772 0047 2B       		.byte	0x2b
 773 0048 4C000000 		.4byte	0x4c
 774 004c 02       		.uleb128 0x2
 775 004d 02       		.byte	0x2
 776 004e 07       		.byte	0x7
 777 004f C2010000 		.4byte	.LASF5
 778 0053 03       		.uleb128 0x3
 779 0054 0D010000 		.4byte	.LASF6
 780 0058 02       		.byte	0x2
 781 0059 3F       		.byte	0x3f
 782 005a 5E000000 		.4byte	0x5e
 783 005e 02       		.uleb128 0x2
 784 005f 04       		.byte	0x4
 785 0060 05       		.byte	0x5
 786 0061 D0020000 		.4byte	.LASF7
 787 0065 03       		.uleb128 0x3
 788 0066 F7010000 		.4byte	.LASF8
 789 006a 02       		.byte	0x2
 790 006b 41       		.byte	0x41
 791 006c 70000000 		.4byte	0x70
 792 0070 02       		.uleb128 0x2
 793 0071 04       		.byte	0x4
 794 0072 07       		.byte	0x7
 795 0073 B0010000 		.4byte	.LASF9
 796 0077 03       		.uleb128 0x3
 797 0078 DF010000 		.4byte	.LASF10
 798 007c 02       		.byte	0x2
ARM GAS  /tmp/cc8tg0oa.s 			page 15


 799 007d 59       		.byte	0x59
 800 007e 82000000 		.4byte	0x82
 801 0082 02       		.uleb128 0x2
 802 0083 08       		.byte	0x8
 803 0084 05       		.byte	0x5
 804 0085 59020000 		.4byte	.LASF11
 805 0089 02       		.uleb128 0x2
 806 008a 08       		.byte	0x8
 807 008b 07       		.byte	0x7
 808 008c 1B020000 		.4byte	.LASF12
 809 0090 04       		.uleb128 0x4
 810 0091 04       		.byte	0x4
 811 0092 05       		.byte	0x5
 812 0093 696E7400 		.ascii	"int\000"
 813 0097 02       		.uleb128 0x2
 814 0098 04       		.byte	0x4
 815 0099 07       		.byte	0x7
 816 009a 0E020000 		.4byte	.LASF13
 817 009e 03       		.uleb128 0x3
 818 009f 32020000 		.4byte	.LASF14
 819 00a3 03       		.byte	0x3
 820 00a4 14       		.byte	0x14
 821 00a5 28000000 		.4byte	0x28
 822 00a9 03       		.uleb128 0x3
 823 00aa AA020000 		.4byte	.LASF15
 824 00ae 03       		.byte	0x3
 825 00af 1A       		.byte	0x1a
 826 00b0 41000000 		.4byte	0x41
 827 00b4 03       		.uleb128 0x3
 828 00b5 40020000 		.4byte	.LASF16
 829 00b9 03       		.byte	0x3
 830 00ba 1F       		.byte	0x1f
 831 00bb 53000000 		.4byte	0x53
 832 00bf 03       		.uleb128 0x3
 833 00c0 C7020000 		.4byte	.LASF17
 834 00c4 03       		.byte	0x3
 835 00c5 20       		.byte	0x20
 836 00c6 65000000 		.4byte	0x65
 837 00ca 03       		.uleb128 0x3
 838 00cb 51020000 		.4byte	.LASF18
 839 00cf 03       		.byte	0x3
 840 00d0 25       		.byte	0x25
 841 00d1 77000000 		.4byte	0x77
 842 00d5 02       		.uleb128 0x2
 843 00d6 04       		.byte	0x4
 844 00d7 07       		.byte	0x7
 845 00d8 48020000 		.4byte	.LASF19
 846 00dc 02       		.uleb128 0x2
 847 00dd 01       		.byte	0x1
 848 00de 08       		.byte	0x8
 849 00df 78020000 		.4byte	.LASF20
 850 00e3 02       		.uleb128 0x2
 851 00e4 08       		.byte	0x8
 852 00e5 04       		.byte	0x4
 853 00e6 F0010000 		.4byte	.LASF21
 854 00ea 02       		.uleb128 0x2
 855 00eb 04       		.byte	0x4
ARM GAS  /tmp/cc8tg0oa.s 			page 16


 856 00ec 04       		.byte	0x4
 857 00ed 8F010000 		.4byte	.LASF22
 858 00f1 02       		.uleb128 0x2
 859 00f2 08       		.byte	0x8
 860 00f3 04       		.byte	0x4
 861 00f4 D9020000 		.4byte	.LASF23
 862 00f8 05       		.uleb128 0x5
 863 00f9 95010000 		.4byte	.LASF24
 864 00fd 04       		.byte	0x4
 865 00fe A001     		.2byte	0x1a0
 866 0100 B4000000 		.4byte	0xb4
 867 0104 05       		.uleb128 0x5
 868 0105 3A020000 		.4byte	.LASF25
 869 0109 04       		.byte	0x4
 870 010a A501     		.2byte	0x1a5
 871 010c CA000000 		.4byte	0xca
 872 0110 06       		.uleb128 0x6
 873 0111 04       		.byte	0x4
 874 0112 F8000000 		.4byte	0xf8
 875 0116 07       		.uleb128 0x7
 876 0117 0C       		.byte	0xc
 877 0118 04       		.byte	0x4
 878 0119 B90D     		.2byte	0xdb9
 879 011b 52010000 		.4byte	0x152
 880 011f 08       		.uleb128 0x8
 881 0120 4C00     		.ascii	"L\000"
 882 0122 04       		.byte	0x4
 883 0123 BB0D     		.2byte	0xdbb
 884 0125 9E000000 		.4byte	0x9e
 885 0129 00       		.byte	0
 886 012a 09       		.uleb128 0x9
 887 012b B3020000 		.4byte	.LASF26
 888 012f 04       		.byte	0x4
 889 0130 BC0D     		.2byte	0xdbc
 890 0132 A9000000 		.4byte	0xa9
 891 0136 02       		.byte	0x2
 892 0137 09       		.uleb128 0x9
 893 0138 BF020000 		.4byte	.LASF27
 894 013c 04       		.byte	0x4
 895 013d BD0D     		.2byte	0xdbd
 896 013f 10010000 		.4byte	0x110
 897 0143 04       		.byte	0x4
 898 0144 09       		.uleb128 0x9
 899 0145 71020000 		.4byte	.LASF28
 900 0149 04       		.byte	0x4
 901 014a BE0D     		.2byte	0xdbe
 902 014c 10010000 		.4byte	0x110
 903 0150 08       		.byte	0x8
 904 0151 00       		.byte	0
 905 0152 05       		.uleb128 0x5
 906 0153 F6020000 		.4byte	.LASF29
 907 0157 04       		.byte	0x4
 908 0158 BF0D     		.2byte	0xdbf
 909 015a 16010000 		.4byte	0x116
 910 015e 0A       		.uleb128 0xa
 911 015f 7D020000 		.4byte	.LASF45
 912 0163 01       		.byte	0x1
ARM GAS  /tmp/cc8tg0oa.s 			page 17


 913 0164 4A       		.byte	0x4a
 914 0165 00000000 		.4byte	.LFB135
 915 0169 0A040000 		.4byte	.LFE135-.LFB135
 916 016d 01       		.uleb128 0x1
 917 016e 9C       		.byte	0x9c
 918 016f A6020000 		.4byte	0x2a6
 919 0173 0B       		.uleb128 0xb
 920 0174 5300     		.ascii	"S\000"
 921 0176 01       		.byte	0x1
 922 0177 4B       		.byte	0x4b
 923 0178 A6020000 		.4byte	0x2a6
 924 017c 00000000 		.4byte	.LLST0
 925 0180 0C       		.uleb128 0xc
 926 0181 F1020000 		.4byte	.LASF30
 927 0185 01       		.byte	0x1
 928 0186 4C       		.byte	0x4c
 929 0187 10010000 		.4byte	0x110
 930 018b 2B000000 		.4byte	.LLST1
 931 018f 0C       		.uleb128 0xc
 932 0190 DA010000 		.4byte	.LASF31
 933 0194 01       		.byte	0x1
 934 0195 4D       		.byte	0x4d
 935 0196 10010000 		.4byte	0x110
 936 019a C6000000 		.4byte	.LLST2
 937 019e 0C       		.uleb128 0xc
 938 019f 67020000 		.4byte	.LASF32
 939 01a3 01       		.byte	0x1
 940 01a4 4E       		.byte	0x4e
 941 01a5 BF000000 		.4byte	0xbf
 942 01a9 48010000 		.4byte	.LLST3
 943 01ad 0D       		.uleb128 0xd
 944 01ae 71020000 		.4byte	.LASF28
 945 01b2 01       		.byte	0x1
 946 01b3 50       		.byte	0x50
 947 01b4 10010000 		.4byte	0x110
 948 01b8 69010000 		.4byte	.LLST4
 949 01bc 0D       		.uleb128 0xd
 950 01bd BF020000 		.4byte	.LASF27
 951 01c1 01       		.byte	0x1
 952 01c2 51       		.byte	0x51
 953 01c3 10010000 		.4byte	0x110
 954 01c7 4D020000 		.4byte	.LLST5
 955 01cb 0D       		.uleb128 0xd
 956 01cc 02020000 		.4byte	.LASF33
 957 01d0 01       		.byte	0x1
 958 01d1 52       		.byte	0x52
 959 01d2 10010000 		.4byte	0x110
 960 01d6 7B020000 		.4byte	.LLST6
 961 01da 0D       		.uleb128 0xd
 962 01db 00000000 		.4byte	.LASF34
 963 01df 01       		.byte	0x1
 964 01e0 53       		.byte	0x53
 965 01e1 10010000 		.4byte	0x110
 966 01e5 02030000 		.4byte	.LLST7
 967 01e9 0D       		.uleb128 0xd
 968 01ea FE000000 		.4byte	.LASF35
 969 01ee 01       		.byte	0x1
ARM GAS  /tmp/cc8tg0oa.s 			page 18


 970 01ef 53       		.byte	0x53
 971 01f0 10010000 		.4byte	0x110
 972 01f4 F5030000 		.4byte	.LLST8
 973 01f8 0D       		.uleb128 0xd
 974 01f9 D5010000 		.4byte	.LASF36
 975 01fd 01       		.byte	0x1
 976 01fe 54       		.byte	0x54
 977 01ff 04010000 		.4byte	0x104
 978 0203 7B040000 		.4byte	.LLST9
 979 0207 0E       		.uleb128 0xe
 980 0208 783000   		.ascii	"x0\000"
 981 020b 01       		.byte	0x1
 982 020c 55       		.byte	0x55
 983 020d F8000000 		.4byte	0xf8
 984 0211 13050000 		.4byte	.LLST10
 985 0215 0E       		.uleb128 0xe
 986 0216 633000   		.ascii	"c0\000"
 987 0219 01       		.byte	0x1
 988 021a 55       		.byte	0x55
 989 021b F8000000 		.4byte	0xf8
 990 021f 97050000 		.4byte	.LLST11
 991 0223 0E       		.uleb128 0xe
 992 0224 6900     		.ascii	"i\000"
 993 0226 01       		.byte	0x1
 994 0227 56       		.byte	0x56
 995 0228 BF000000 		.4byte	0xbf
 996 022c 1A060000 		.4byte	.LLST12
 997 0230 0D       		.uleb128 0xd
 998 0231 A9010000 		.4byte	.LASF37
 999 0235 01       		.byte	0x1
 1000 0236 56       		.byte	0x56
 1001 0237 BF000000 		.4byte	0xbf
 1002 023b 68060000 		.4byte	.LLST13
 1003 023f 0E       		.uleb128 0xe
 1004 0240 6A00     		.ascii	"j\000"
 1005 0242 01       		.byte	0x1
 1006 0243 56       		.byte	0x56
 1007 0244 BF000000 		.4byte	0xbf
 1008 0248 FE060000 		.4byte	.LLST14
 1009 024c 0D       		.uleb128 0xd
 1010 024d 7D010000 		.4byte	.LASF38
 1011 0251 01       		.byte	0x1
 1012 0252 57       		.byte	0x57
 1013 0253 A9000000 		.4byte	0xa9
 1014 0257 7B070000 		.4byte	.LLST15
 1015 025b 0D       		.uleb128 0xd
 1016 025c E9010000 		.4byte	.LASF39
 1017 0260 01       		.byte	0x1
 1018 0261 57       		.byte	0x57
 1019 0262 A9000000 		.4byte	0xa9
 1020 0266 A5070000 		.4byte	.LLST16
 1021 026a 0D       		.uleb128 0xd
 1022 026b 86010000 		.4byte	.LASF40
 1023 026f 01       		.byte	0x1
 1024 0270 59       		.byte	0x59
 1025 0271 BF000000 		.4byte	0xbf
 1026 0275 2D080000 		.4byte	.LLST17
ARM GAS  /tmp/cc8tg0oa.s 			page 19


 1027 0279 0D       		.uleb128 0xd
 1028 027a 17030000 		.4byte	.LASF41
 1029 027e 01       		.byte	0x1
 1030 027f 5A       		.byte	0x5a
 1031 0280 04010000 		.4byte	0x104
 1032 0284 57080000 		.4byte	.LLST18
 1033 0288 0D       		.uleb128 0xd
 1034 0289 1C030000 		.4byte	.LASF42
 1035 028d 01       		.byte	0x1
 1036 028e 5A       		.byte	0x5a
 1037 028f 04010000 		.4byte	0x104
 1038 0293 F7080000 		.4byte	.LLST19
 1039 0297 0E       		.uleb128 0xe
 1040 0298 783100   		.ascii	"x1\000"
 1041 029b 01       		.byte	0x1
 1042 029c 5B       		.byte	0x5b
 1043 029d F8000000 		.4byte	0xf8
 1044 02a1 83090000 		.4byte	.LLST20
 1045 02a5 00       		.byte	0
 1046 02a6 06       		.uleb128 0x6
 1047 02a7 04       		.byte	0x4
 1048 02a8 AC020000 		.4byte	0x2ac
 1049 02ac 0F       		.uleb128 0xf
 1050 02ad 52010000 		.4byte	0x152
 1051 02b1 00       		.byte	0
 1052              		.section	.debug_abbrev,"",%progbits
 1053              	.Ldebug_abbrev0:
 1054 0000 01       		.uleb128 0x1
 1055 0001 11       		.uleb128 0x11
 1056 0002 01       		.byte	0x1
 1057 0003 25       		.uleb128 0x25
 1058 0004 0E       		.uleb128 0xe
 1059 0005 13       		.uleb128 0x13
 1060 0006 0B       		.uleb128 0xb
 1061 0007 03       		.uleb128 0x3
 1062 0008 0E       		.uleb128 0xe
 1063 0009 11       		.uleb128 0x11
 1064 000a 01       		.uleb128 0x1
 1065 000b 12       		.uleb128 0x12
 1066 000c 06       		.uleb128 0x6
 1067 000d 10       		.uleb128 0x10
 1068 000e 17       		.uleb128 0x17
 1069 000f 00       		.byte	0
 1070 0010 00       		.byte	0
 1071 0011 02       		.uleb128 0x2
 1072 0012 24       		.uleb128 0x24
 1073 0013 00       		.byte	0
 1074 0014 0B       		.uleb128 0xb
 1075 0015 0B       		.uleb128 0xb
 1076 0016 3E       		.uleb128 0x3e
 1077 0017 0B       		.uleb128 0xb
 1078 0018 03       		.uleb128 0x3
 1079 0019 0E       		.uleb128 0xe
 1080 001a 00       		.byte	0
 1081 001b 00       		.byte	0
 1082 001c 03       		.uleb128 0x3
 1083 001d 16       		.uleb128 0x16
ARM GAS  /tmp/cc8tg0oa.s 			page 20


 1084 001e 00       		.byte	0
 1085 001f 03       		.uleb128 0x3
 1086 0020 0E       		.uleb128 0xe
 1087 0021 3A       		.uleb128 0x3a
 1088 0022 0B       		.uleb128 0xb
 1089 0023 3B       		.uleb128 0x3b
 1090 0024 0B       		.uleb128 0xb
 1091 0025 49       		.uleb128 0x49
 1092 0026 13       		.uleb128 0x13
 1093 0027 00       		.byte	0
 1094 0028 00       		.byte	0
 1095 0029 04       		.uleb128 0x4
 1096 002a 24       		.uleb128 0x24
 1097 002b 00       		.byte	0
 1098 002c 0B       		.uleb128 0xb
 1099 002d 0B       		.uleb128 0xb
 1100 002e 3E       		.uleb128 0x3e
 1101 002f 0B       		.uleb128 0xb
 1102 0030 03       		.uleb128 0x3
 1103 0031 08       		.uleb128 0x8
 1104 0032 00       		.byte	0
 1105 0033 00       		.byte	0
 1106 0034 05       		.uleb128 0x5
 1107 0035 16       		.uleb128 0x16
 1108 0036 00       		.byte	0
 1109 0037 03       		.uleb128 0x3
 1110 0038 0E       		.uleb128 0xe
 1111 0039 3A       		.uleb128 0x3a
 1112 003a 0B       		.uleb128 0xb
 1113 003b 3B       		.uleb128 0x3b
 1114 003c 05       		.uleb128 0x5
 1115 003d 49       		.uleb128 0x49
 1116 003e 13       		.uleb128 0x13
 1117 003f 00       		.byte	0
 1118 0040 00       		.byte	0
 1119 0041 06       		.uleb128 0x6
 1120 0042 0F       		.uleb128 0xf
 1121 0043 00       		.byte	0
 1122 0044 0B       		.uleb128 0xb
 1123 0045 0B       		.uleb128 0xb
 1124 0046 49       		.uleb128 0x49
 1125 0047 13       		.uleb128 0x13
 1126 0048 00       		.byte	0
 1127 0049 00       		.byte	0
 1128 004a 07       		.uleb128 0x7
 1129 004b 13       		.uleb128 0x13
 1130 004c 01       		.byte	0x1
 1131 004d 0B       		.uleb128 0xb
 1132 004e 0B       		.uleb128 0xb
 1133 004f 3A       		.uleb128 0x3a
 1134 0050 0B       		.uleb128 0xb
 1135 0051 3B       		.uleb128 0x3b
 1136 0052 05       		.uleb128 0x5
 1137 0053 01       		.uleb128 0x1
 1138 0054 13       		.uleb128 0x13
 1139 0055 00       		.byte	0
 1140 0056 00       		.byte	0
ARM GAS  /tmp/cc8tg0oa.s 			page 21


 1141 0057 08       		.uleb128 0x8
 1142 0058 0D       		.uleb128 0xd
 1143 0059 00       		.byte	0
 1144 005a 03       		.uleb128 0x3
 1145 005b 08       		.uleb128 0x8
 1146 005c 3A       		.uleb128 0x3a
 1147 005d 0B       		.uleb128 0xb
 1148 005e 3B       		.uleb128 0x3b
 1149 005f 05       		.uleb128 0x5
 1150 0060 49       		.uleb128 0x49
 1151 0061 13       		.uleb128 0x13
 1152 0062 38       		.uleb128 0x38
 1153 0063 0B       		.uleb128 0xb
 1154 0064 00       		.byte	0
 1155 0065 00       		.byte	0
 1156 0066 09       		.uleb128 0x9
 1157 0067 0D       		.uleb128 0xd
 1158 0068 00       		.byte	0
 1159 0069 03       		.uleb128 0x3
 1160 006a 0E       		.uleb128 0xe
 1161 006b 3A       		.uleb128 0x3a
 1162 006c 0B       		.uleb128 0xb
 1163 006d 3B       		.uleb128 0x3b
 1164 006e 05       		.uleb128 0x5
 1165 006f 49       		.uleb128 0x49
 1166 0070 13       		.uleb128 0x13
 1167 0071 38       		.uleb128 0x38
 1168 0072 0B       		.uleb128 0xb
 1169 0073 00       		.byte	0
 1170 0074 00       		.byte	0
 1171 0075 0A       		.uleb128 0xa
 1172 0076 2E       		.uleb128 0x2e
 1173 0077 01       		.byte	0x1
 1174 0078 3F       		.uleb128 0x3f
 1175 0079 19       		.uleb128 0x19
 1176 007a 03       		.uleb128 0x3
 1177 007b 0E       		.uleb128 0xe
 1178 007c 3A       		.uleb128 0x3a
 1179 007d 0B       		.uleb128 0xb
 1180 007e 3B       		.uleb128 0x3b
 1181 007f 0B       		.uleb128 0xb
 1182 0080 27       		.uleb128 0x27
 1183 0081 19       		.uleb128 0x19
 1184 0082 11       		.uleb128 0x11
 1185 0083 01       		.uleb128 0x1
 1186 0084 12       		.uleb128 0x12
 1187 0085 06       		.uleb128 0x6
 1188 0086 40       		.uleb128 0x40
 1189 0087 18       		.uleb128 0x18
 1190 0088 9742     		.uleb128 0x2117
 1191 008a 19       		.uleb128 0x19
 1192 008b 01       		.uleb128 0x1
 1193 008c 13       		.uleb128 0x13
 1194 008d 00       		.byte	0
 1195 008e 00       		.byte	0
 1196 008f 0B       		.uleb128 0xb
 1197 0090 05       		.uleb128 0x5
ARM GAS  /tmp/cc8tg0oa.s 			page 22


 1198 0091 00       		.byte	0
 1199 0092 03       		.uleb128 0x3
 1200 0093 08       		.uleb128 0x8
 1201 0094 3A       		.uleb128 0x3a
 1202 0095 0B       		.uleb128 0xb
 1203 0096 3B       		.uleb128 0x3b
 1204 0097 0B       		.uleb128 0xb
 1205 0098 49       		.uleb128 0x49
 1206 0099 13       		.uleb128 0x13
 1207 009a 02       		.uleb128 0x2
 1208 009b 17       		.uleb128 0x17
 1209 009c 00       		.byte	0
 1210 009d 00       		.byte	0
 1211 009e 0C       		.uleb128 0xc
 1212 009f 05       		.uleb128 0x5
 1213 00a0 00       		.byte	0
 1214 00a1 03       		.uleb128 0x3
 1215 00a2 0E       		.uleb128 0xe
 1216 00a3 3A       		.uleb128 0x3a
 1217 00a4 0B       		.uleb128 0xb
 1218 00a5 3B       		.uleb128 0x3b
 1219 00a6 0B       		.uleb128 0xb
 1220 00a7 49       		.uleb128 0x49
 1221 00a8 13       		.uleb128 0x13
 1222 00a9 02       		.uleb128 0x2
 1223 00aa 17       		.uleb128 0x17
 1224 00ab 00       		.byte	0
 1225 00ac 00       		.byte	0
 1226 00ad 0D       		.uleb128 0xd
 1227 00ae 34       		.uleb128 0x34
 1228 00af 00       		.byte	0
 1229 00b0 03       		.uleb128 0x3
 1230 00b1 0E       		.uleb128 0xe
 1231 00b2 3A       		.uleb128 0x3a
 1232 00b3 0B       		.uleb128 0xb
 1233 00b4 3B       		.uleb128 0x3b
 1234 00b5 0B       		.uleb128 0xb
 1235 00b6 49       		.uleb128 0x49
 1236 00b7 13       		.uleb128 0x13
 1237 00b8 02       		.uleb128 0x2
 1238 00b9 17       		.uleb128 0x17
 1239 00ba 00       		.byte	0
 1240 00bb 00       		.byte	0
 1241 00bc 0E       		.uleb128 0xe
 1242 00bd 34       		.uleb128 0x34
 1243 00be 00       		.byte	0
 1244 00bf 03       		.uleb128 0x3
 1245 00c0 08       		.uleb128 0x8
 1246 00c1 3A       		.uleb128 0x3a
 1247 00c2 0B       		.uleb128 0xb
 1248 00c3 3B       		.uleb128 0x3b
 1249 00c4 0B       		.uleb128 0xb
 1250 00c5 49       		.uleb128 0x49
 1251 00c6 13       		.uleb128 0x13
 1252 00c7 02       		.uleb128 0x2
 1253 00c8 17       		.uleb128 0x17
 1254 00c9 00       		.byte	0
ARM GAS  /tmp/cc8tg0oa.s 			page 23


 1255 00ca 00       		.byte	0
 1256 00cb 0F       		.uleb128 0xf
 1257 00cc 26       		.uleb128 0x26
 1258 00cd 00       		.byte	0
 1259 00ce 49       		.uleb128 0x49
 1260 00cf 13       		.uleb128 0x13
 1261 00d0 00       		.byte	0
 1262 00d1 00       		.byte	0
 1263 00d2 00       		.byte	0
 1264              		.section	.debug_loc,"",%progbits
 1265              	.Ldebug_loc0:
 1266              	.LLST0:
 1267 0000 00000000 		.4byte	.LVL0-.Ltext0
 1268 0004 0C000000 		.4byte	.LVL1-.Ltext0
 1269 0008 0100     		.2byte	0x1
 1270 000a 50       		.byte	0x50
 1271 000b 0C000000 		.4byte	.LVL1-.Ltext0
 1272 000f 2A000000 		.4byte	.LVL6-.Ltext0
 1273 0013 0100     		.2byte	0x1
 1274 0015 56       		.byte	0x56
 1275 0016 2A000000 		.4byte	.LVL6-.Ltext0
 1276 001a 0A040000 		.4byte	.LFE135-.Ltext0
 1277 001e 0300     		.2byte	0x3
 1278 0020 91       		.byte	0x91
 1279 0021 FC7E     		.sleb128 -132
 1280 0023 00000000 		.4byte	0
 1281 0027 00000000 		.4byte	0
 1282              	.LLST1:
 1283 002b 00000000 		.4byte	.LVL0-.Ltext0
 1284 002f 16000000 		.4byte	.LVL2-.Ltext0
 1285 0033 0100     		.2byte	0x1
 1286 0035 51       		.byte	0x51
 1287 0036 16000000 		.4byte	.LVL2-.Ltext0
 1288 003a 72000000 		.4byte	.LVL13-.Ltext0
 1289 003e 0100     		.2byte	0x1
 1290 0040 5E       		.byte	0x5e
 1291 0041 72000000 		.4byte	.LVL13-.Ltext0
 1292 0045 7E000000 		.4byte	.LVL14-.Ltext0
 1293 0049 0700     		.2byte	0x7
 1294 004b 91       		.byte	0x91
 1295 004c B47F     		.sleb128 -76
 1296 004e 06       		.byte	0x6
 1297 004f 34       		.byte	0x34
 1298 0050 1C       		.byte	0x1c
 1299 0051 9F       		.byte	0x9f
 1300 0052 7E000000 		.4byte	.LVL14-.Ltext0
 1301 0056 06020000 		.4byte	.LVL61-.Ltext0
 1302 005a 0300     		.2byte	0x3
 1303 005c 91       		.byte	0x91
 1304 005d B47F     		.sleb128 -76
 1305 005f 32020000 		.4byte	.LVL64-.Ltext0
 1306 0063 70020000 		.4byte	.LVL66-.Ltext0
 1307 0067 0300     		.2byte	0x3
 1308 0069 91       		.byte	0x91
 1309 006a B87F     		.sleb128 -72
 1310 006c 70020000 		.4byte	.LVL66-.Ltext0
 1311 0070 72020000 		.4byte	.LVL67-.Ltext0
ARM GAS  /tmp/cc8tg0oa.s 			page 24


 1312 0074 0300     		.2byte	0x3
 1313 0076 72       		.byte	0x72
 1314 0077 7C       		.sleb128 -4
 1315 0078 9F       		.byte	0x9f
 1316 0079 72020000 		.4byte	.LVL67-.Ltext0
 1317 007d 5C030000 		.4byte	.LVL95-.Ltext0
 1318 0081 0700     		.2byte	0x7
 1319 0083 91       		.byte	0x91
 1320 0084 B87F     		.sleb128 -72
 1321 0086 06       		.byte	0x6
 1322 0087 34       		.byte	0x34
 1323 0088 1C       		.byte	0x1c
 1324 0089 9F       		.byte	0x9f
 1325 008a 5C030000 		.4byte	.LVL95-.Ltext0
 1326 008e F4030000 		.4byte	.LVL115-.Ltext0
 1327 0092 0300     		.2byte	0x3
 1328 0094 91       		.byte	0x91
 1329 0095 B87F     		.sleb128 -72
 1330 0097 F4030000 		.4byte	.LVL115-.Ltext0
 1331 009b 00040000 		.4byte	.LVL116-.Ltext0
 1332 009f 0700     		.2byte	0x7
 1333 00a1 91       		.byte	0x91
 1334 00a2 B87F     		.sleb128 -72
 1335 00a4 06       		.byte	0x6
 1336 00a5 34       		.byte	0x34
 1337 00a6 1C       		.byte	0x1c
 1338 00a7 9F       		.byte	0x9f
 1339 00a8 00040000 		.4byte	.LVL116-.Ltext0
 1340 00ac 04040000 		.4byte	.LVL118-.Ltext0
 1341 00b0 0100     		.2byte	0x1
 1342 00b2 52       		.byte	0x52
 1343 00b3 04040000 		.4byte	.LVL118-.Ltext0
 1344 00b7 0A040000 		.4byte	.LFE135-.Ltext0
 1345 00bb 0100     		.2byte	0x1
 1346 00bd 5E       		.byte	0x5e
 1347 00be 00000000 		.4byte	0
 1348 00c2 00000000 		.4byte	0
 1349              	.LLST2:
 1350 00c6 00000000 		.4byte	.LVL0-.Ltext0
 1351 00ca 20000000 		.4byte	.LVL3-.Ltext0
 1352 00ce 0100     		.2byte	0x1
 1353 00d0 52       		.byte	0x52
 1354 00d1 20000000 		.4byte	.LVL3-.Ltext0
 1355 00d5 A4000000 		.4byte	.LVL18-.Ltext0
 1356 00d9 0300     		.2byte	0x3
 1357 00db 91       		.byte	0x91
 1358 00dc A87F     		.sleb128 -88
 1359 00de A4000000 		.4byte	.LVL18-.Ltext0
 1360 00e2 C8010000 		.4byte	.LVL53-.Ltext0
 1361 00e6 0300     		.2byte	0x3
 1362 00e8 91       		.byte	0x91
 1363 00e9 807F     		.sleb128 -128
 1364 00eb CC010000 		.4byte	.LVL54-.Ltext0
 1365 00ef F2010000 		.4byte	.LVL58-.Ltext0
 1366 00f3 0300     		.2byte	0x3
 1367 00f5 91       		.byte	0x91
 1368 00f6 807F     		.sleb128 -128
ARM GAS  /tmp/cc8tg0oa.s 			page 25


 1369 00f8 FA010000 		.4byte	.LVL59-.Ltext0
 1370 00fc FC010000 		.4byte	.LVL60-.Ltext0
 1371 0100 0100     		.2byte	0x1
 1372 0102 53       		.byte	0x53
 1373 0103 FC010000 		.4byte	.LVL60-.Ltext0
 1374 0107 96020000 		.4byte	.LVL71-.Ltext0
 1375 010b 0300     		.2byte	0x3
 1376 010d 91       		.byte	0x91
 1377 010e A87F     		.sleb128 -88
 1378 0110 96020000 		.4byte	.LVL71-.Ltext0
 1379 0114 56030000 		.4byte	.LVL94-.Ltext0
 1380 0118 0100     		.2byte	0x1
 1381 011a 5B       		.byte	0x5b
 1382 011b 5C030000 		.4byte	.LVL95-.Ltext0
 1383 011f F4030000 		.4byte	.LVL115-.Ltext0
 1384 0123 0300     		.2byte	0x3
 1385 0125 91       		.byte	0x91
 1386 0126 A87F     		.sleb128 -88
 1387 0128 F4030000 		.4byte	.LVL115-.Ltext0
 1388 012c 00040000 		.4byte	.LVL116-.Ltext0
 1389 0130 0100     		.2byte	0x1
 1390 0132 5B       		.byte	0x5b
 1391 0133 00040000 		.4byte	.LVL116-.Ltext0
 1392 0137 0A040000 		.4byte	.LFE135-.Ltext0
 1393 013b 0300     		.2byte	0x3
 1394 013d 91       		.byte	0x91
 1395 013e A87F     		.sleb128 -88
 1396 0140 00000000 		.4byte	0
 1397 0144 00000000 		.4byte	0
 1398              	.LLST3:
 1399 0148 00000000 		.4byte	.LVL0-.Ltext0
 1400 014c 30000000 		.4byte	.LVL7-.Ltext0
 1401 0150 0100     		.2byte	0x1
 1402 0152 53       		.byte	0x53
 1403 0153 30000000 		.4byte	.LVL7-.Ltext0
 1404 0157 0A040000 		.4byte	.LFE135-.Ltext0
 1405 015b 0400     		.2byte	0x4
 1406 015d F3       		.byte	0xf3
 1407 015e 01       		.uleb128 0x1
 1408 015f 53       		.byte	0x53
 1409 0160 9F       		.byte	0x9f
 1410 0161 00000000 		.4byte	0
 1411 0165 00000000 		.4byte	0
 1412              	.LLST4:
 1413 0169 22000000 		.4byte	.LVL4-.Ltext0
 1414 016d 26000000 		.4byte	.LVL5-.Ltext0
 1415 0171 0100     		.2byte	0x1
 1416 0173 54       		.byte	0x54
 1417 0174 26000000 		.4byte	.LVL5-.Ltext0
 1418 0178 72000000 		.4byte	.LVL13-.Ltext0
 1419 017c 0100     		.2byte	0x1
 1420 017e 55       		.byte	0x55
 1421 017f 32020000 		.4byte	.LVL64-.Ltext0
 1422 0183 68020000 		.4byte	.LVL65-.Ltext0
 1423 0187 0300     		.2byte	0x3
 1424 0189 91       		.byte	0x91
 1425 018a A47F     		.sleb128 -92
ARM GAS  /tmp/cc8tg0oa.s 			page 26


 1426 018c 68020000 		.4byte	.LVL65-.Ltext0
 1427 0190 5C030000 		.4byte	.LVL95-.Ltext0
 1428 0194 0300     		.2byte	0x3
 1429 0196 91       		.byte	0x91
 1430 0197 F47E     		.sleb128 -140
 1431 0199 5C030000 		.4byte	.LVL95-.Ltext0
 1432 019d 5E030000 		.4byte	.LVL96-.Ltext0
 1433 01a1 0100     		.2byte	0x1
 1434 01a3 53       		.byte	0x53
 1435 01a4 5E030000 		.4byte	.LVL96-.Ltext0
 1436 01a8 76030000 		.4byte	.LVL99-.Ltext0
 1437 01ac 0300     		.2byte	0x3
 1438 01ae 91       		.byte	0x91
 1439 01af F47E     		.sleb128 -140
 1440 01b1 7E030000 		.4byte	.LVL100-.Ltext0
 1441 01b5 94030000 		.4byte	.LVL103-.Ltext0
 1442 01b9 0300     		.2byte	0x3
 1443 01bb 91       		.byte	0x91
 1444 01bc A47F     		.sleb128 -92
 1445 01be 94030000 		.4byte	.LVL103-.Ltext0
 1446 01c2 9C030000 		.4byte	.LVL104-.Ltext0
 1447 01c6 0300     		.2byte	0x3
 1448 01c8 72       		.byte	0x72
 1449 01c9 74       		.sleb128 -12
 1450 01ca 9F       		.byte	0x9f
 1451 01cb 9C030000 		.4byte	.LVL104-.Ltext0
 1452 01cf A4030000 		.4byte	.LVL105-.Ltext0
 1453 01d3 0300     		.2byte	0x3
 1454 01d5 72       		.byte	0x72
 1455 01d6 78       		.sleb128 -8
 1456 01d7 9F       		.byte	0x9f
 1457 01d8 A4030000 		.4byte	.LVL105-.Ltext0
 1458 01dc AC030000 		.4byte	.LVL106-.Ltext0
 1459 01e0 0300     		.2byte	0x3
 1460 01e2 72       		.byte	0x72
 1461 01e3 7C       		.sleb128 -4
 1462 01e4 9F       		.byte	0x9f
 1463 01e5 AC030000 		.4byte	.LVL106-.Ltext0
 1464 01e9 BC030000 		.4byte	.LVL107-.Ltext0
 1465 01ed 0100     		.2byte	0x1
 1466 01ef 52       		.byte	0x52
 1467 01f0 BC030000 		.4byte	.LVL107-.Ltext0
 1468 01f4 C0030000 		.4byte	.LVL108-.Ltext0
 1469 01f8 0300     		.2byte	0x3
 1470 01fa 72       		.byte	0x72
 1471 01fb 70       		.sleb128 -16
 1472 01fc 9F       		.byte	0x9f
 1473 01fd CE030000 		.4byte	.LVL109-.Ltext0
 1474 0201 E2030000 		.4byte	.LVL111-.Ltext0
 1475 0205 0300     		.2byte	0x3
 1476 0207 91       		.byte	0x91
 1477 0208 A47F     		.sleb128 -92
 1478 020a E2030000 		.4byte	.LVL111-.Ltext0
 1479 020e E6030000 		.4byte	.LVL112-.Ltext0
 1480 0212 0100     		.2byte	0x1
 1481 0214 51       		.byte	0x51
 1482 0215 E6030000 		.4byte	.LVL112-.Ltext0
ARM GAS  /tmp/cc8tg0oa.s 			page 27


 1483 0219 EA030000 		.4byte	.LVL113-.Ltext0
 1484 021d 0300     		.2byte	0x3
 1485 021f 71       		.byte	0x71
 1486 0220 7C       		.sleb128 -4
 1487 0221 9F       		.byte	0x9f
 1488 0222 EA030000 		.4byte	.LVL113-.Ltext0
 1489 0226 EE030000 		.4byte	.LVL114-.Ltext0
 1490 022a 0100     		.2byte	0x1
 1491 022c 51       		.byte	0x51
 1492 022d F4030000 		.4byte	.LVL115-.Ltext0
 1493 0231 00040000 		.4byte	.LVL116-.Ltext0
 1494 0235 0300     		.2byte	0x3
 1495 0237 91       		.byte	0x91
 1496 0238 F47E     		.sleb128 -140
 1497 023a 04040000 		.4byte	.LVL118-.Ltext0
 1498 023e 0A040000 		.4byte	.LFE135-.Ltext0
 1499 0242 0100     		.2byte	0x1
 1500 0244 55       		.byte	0x55
 1501 0245 00000000 		.4byte	0
 1502 0249 00000000 		.4byte	0
 1503              	.LLST5:
 1504 024d 32000000 		.4byte	.LVL8-.Ltext0
 1505 0251 72000000 		.4byte	.LVL13-.Ltext0
 1506 0255 0100     		.2byte	0x1
 1507 0257 54       		.byte	0x54
 1508 0258 72000000 		.4byte	.LVL13-.Ltext0
 1509 025c 04040000 		.4byte	.LVL118-.Ltext0
 1510 0260 0600     		.2byte	0x6
 1511 0262 91       		.byte	0x91
 1512 0263 FC7E     		.sleb128 -132
 1513 0265 06       		.byte	0x6
 1514 0266 23       		.byte	0x23
 1515 0267 04       		.uleb128 0x4
 1516 0268 04040000 		.4byte	.LVL118-.Ltext0
 1517 026c 0A040000 		.4byte	.LFE135-.Ltext0
 1518 0270 0100     		.2byte	0x1
 1519 0272 54       		.byte	0x54
 1520 0273 00000000 		.4byte	0
 1521 0277 00000000 		.4byte	0
 1522              	.LLST6:
 1523 027b 32000000 		.4byte	.LVL8-.Ltext0
 1524 027f 5E000000 		.4byte	.LVL11-.Ltext0
 1525 0283 0800     		.2byte	0x8
 1526 0285 71       		.byte	0x71
 1527 0286 00       		.sleb128 0
 1528 0287 32       		.byte	0x32
 1529 0288 24       		.byte	0x24
 1530 0289 75       		.byte	0x75
 1531 028a 00       		.sleb128 0
 1532 028b 22       		.byte	0x22
 1533 028c 9F       		.byte	0x9f
 1534 028d 5E000000 		.4byte	.LVL11-.Ltext0
 1535 0291 64000000 		.4byte	.LVL12-.Ltext0
 1536 0295 0C00     		.2byte	0xc
 1537 0297 70       		.byte	0x70
 1538 0298 FFFFFFFF 		.sleb128 1073741823
 1538      03
ARM GAS  /tmp/cc8tg0oa.s 			page 28


 1539 029d 32       		.byte	0x32
 1540 029e 24       		.byte	0x24
 1541 029f 75       		.byte	0x75
 1542 02a0 00       		.sleb128 0
 1543 02a1 22       		.byte	0x22
 1544 02a2 9F       		.byte	0x9f
 1545 02a3 64000000 		.4byte	.LVL12-.Ltext0
 1546 02a7 72000000 		.4byte	.LVL13-.Ltext0
 1547 02ab 0F00     		.2byte	0xf
 1548 02ad 91       		.byte	0x91
 1549 02ae 4C       		.sleb128 -52
 1550 02af 06       		.byte	0x6
 1551 02b0 23       		.byte	0x23
 1552 02b1 FFFFFFFF 		.uleb128 0x3fffffff
 1552      03
 1553 02b6 32       		.byte	0x32
 1554 02b7 24       		.byte	0x24
 1555 02b8 75       		.byte	0x75
 1556 02b9 00       		.sleb128 0
 1557 02ba 22       		.byte	0x22
 1558 02bb 9F       		.byte	0x9f
 1559 02bc 76030000 		.4byte	.LVL99-.Ltext0
 1560 02c0 94030000 		.4byte	.LVL103-.Ltext0
 1561 02c4 0600     		.2byte	0x6
 1562 02c6 91       		.byte	0x91
 1563 02c7 FC7E     		.sleb128 -132
 1564 02c9 06       		.byte	0x6
 1565 02ca 23       		.byte	0x23
 1566 02cb 08       		.uleb128 0x8
 1567 02cc CE030000 		.4byte	.LVL109-.Ltext0
 1568 02d0 E2030000 		.4byte	.LVL111-.Ltext0
 1569 02d4 0200     		.2byte	0x2
 1570 02d6 91       		.byte	0x91
 1571 02d7 44       		.sleb128 -60
 1572 02d8 E2030000 		.4byte	.LVL111-.Ltext0
 1573 02dc EE030000 		.4byte	.LVL114-.Ltext0
 1574 02e0 0600     		.2byte	0x6
 1575 02e2 91       		.byte	0x91
 1576 02e3 44       		.sleb128 -60
 1577 02e4 06       		.byte	0x6
 1578 02e5 23       		.byte	0x23
 1579 02e6 04       		.uleb128 0x4
 1580 02e7 9F       		.byte	0x9f
 1581 02e8 04040000 		.4byte	.LVL118-.Ltext0
 1582 02ec 0A040000 		.4byte	.LFE135-.Ltext0
 1583 02f0 0800     		.2byte	0x8
 1584 02f2 71       		.byte	0x71
 1585 02f3 00       		.sleb128 0
 1586 02f4 32       		.byte	0x32
 1587 02f5 24       		.byte	0x24
 1588 02f6 75       		.byte	0x75
 1589 02f7 00       		.sleb128 0
 1590 02f8 22       		.byte	0x22
 1591 02f9 9F       		.byte	0x9f
 1592 02fa 00000000 		.4byte	0
 1593 02fe 00000000 		.4byte	0
 1594              	.LLST7:
ARM GAS  /tmp/cc8tg0oa.s 			page 29


 1595 0302 B4000000 		.4byte	.LVL19-.Ltext0
 1596 0306 D4000000 		.4byte	.LVL21-.Ltext0
 1597 030a 0100     		.2byte	0x1
 1598 030c 56       		.byte	0x56
 1599 030d D4000000 		.4byte	.LVL21-.Ltext0
 1600 0311 E4000000 		.4byte	.LVL23-.Ltext0
 1601 0315 0300     		.2byte	0x3
 1602 0317 91       		.byte	0x91
 1603 0318 907F     		.sleb128 -112
 1604 031a E4000000 		.4byte	.LVL23-.Ltext0
 1605 031e 04010000 		.4byte	.LVL28-.Ltext0
 1606 0322 0300     		.2byte	0x3
 1607 0324 72       		.byte	0x72
 1608 0325 74       		.sleb128 -12
 1609 0326 9F       		.byte	0x9f
 1610 0327 04010000 		.4byte	.LVL28-.Ltext0
 1611 032b 34010000 		.4byte	.LVL34-.Ltext0
 1612 032f 0300     		.2byte	0x3
 1613 0331 72       		.byte	0x72
 1614 0332 78       		.sleb128 -8
 1615 0333 9F       		.byte	0x9f
 1616 0334 34010000 		.4byte	.LVL34-.Ltext0
 1617 0338 40010000 		.4byte	.LVL37-.Ltext0
 1618 033c 0300     		.2byte	0x3
 1619 033e 72       		.byte	0x72
 1620 033f 7C       		.sleb128 -4
 1621 0340 9F       		.byte	0x9f
 1622 0341 40010000 		.4byte	.LVL37-.Ltext0
 1623 0345 42010000 		.4byte	.LVL38-.Ltext0
 1624 0349 0100     		.2byte	0x1
 1625 034b 52       		.byte	0x52
 1626 034c 42010000 		.4byte	.LVL38-.Ltext0
 1627 0350 60010000 		.4byte	.LVL42-.Ltext0
 1628 0354 0300     		.2byte	0x3
 1629 0356 72       		.byte	0x72
 1630 0357 70       		.sleb128 -16
 1631 0358 9F       		.byte	0x9f
 1632 0359 76010000 		.4byte	.LVL44-.Ltext0
 1633 035d 86010000 		.4byte	.LVL45-.Ltext0
 1634 0361 0100     		.2byte	0x1
 1635 0363 57       		.byte	0x57
 1636 0364 86010000 		.4byte	.LVL45-.Ltext0
 1637 0368 8E010000 		.4byte	.LVL46-.Ltext0
 1638 036c 0300     		.2byte	0x3
 1639 036e 73       		.byte	0x73
 1640 036f 04       		.sleb128 4
 1641 0370 9F       		.byte	0x9f
 1642 0371 8E010000 		.4byte	.LVL46-.Ltext0
 1643 0375 92010000 		.4byte	.LVL47-.Ltext0
 1644 0379 0300     		.2byte	0x3
 1645 037b 73       		.byte	0x73
 1646 037c 08       		.sleb128 8
 1647 037d 9F       		.byte	0x9f
 1648 037e 92010000 		.4byte	.LVL47-.Ltext0
 1649 0382 AA010000 		.4byte	.LVL52-.Ltext0
 1650 0386 0300     		.2byte	0x3
 1651 0388 73       		.byte	0x73
ARM GAS  /tmp/cc8tg0oa.s 			page 30


 1652 0389 04       		.sleb128 4
 1653 038a 9F       		.byte	0x9f
 1654 038b D8010000 		.4byte	.LVL55-.Ltext0
 1655 038f E4010000 		.4byte	.LVL57-.Ltext0
 1656 0393 0100     		.2byte	0x1
 1657 0395 56       		.byte	0x56
 1658 0396 BA020000 		.4byte	.LVL73-.Ltext0
 1659 039a D8020000 		.4byte	.LVL77-.Ltext0
 1660 039e 0300     		.2byte	0x3
 1661 03a0 70       		.byte	0x70
 1662 03a1 70       		.sleb128 -16
 1663 03a2 9F       		.byte	0x9f
 1664 03a3 D8020000 		.4byte	.LVL77-.Ltext0
 1665 03a7 E6020000 		.4byte	.LVL80-.Ltext0
 1666 03ab 0300     		.2byte	0x3
 1667 03ad 70       		.byte	0x70
 1668 03ae 78       		.sleb128 -8
 1669 03af 9F       		.byte	0x9f
 1670 03b0 E6020000 		.4byte	.LVL80-.Ltext0
 1671 03b4 EA020000 		.4byte	.LVL81-.Ltext0
 1672 03b8 0300     		.2byte	0x3
 1673 03ba 70       		.byte	0x70
 1674 03bb 68       		.sleb128 -24
 1675 03bc 9F       		.byte	0x9f
 1676 03bd EA020000 		.4byte	.LVL81-.Ltext0
 1677 03c1 F2020000 		.4byte	.LVL82-.Ltext0
 1678 03c5 0300     		.2byte	0x3
 1679 03c7 70       		.byte	0x70
 1680 03c8 6C       		.sleb128 -20
 1681 03c9 9F       		.byte	0x9f
 1682 03ca 06030000 		.4byte	.LVL84-.Ltext0
 1683 03ce 10030000 		.4byte	.LVL85-.Ltext0
 1684 03d2 0100     		.2byte	0x1
 1685 03d4 56       		.byte	0x56
 1686 03d5 10030000 		.4byte	.LVL85-.Ltext0
 1687 03d9 1C030000 		.4byte	.LVL87-.Ltext0
 1688 03dd 0300     		.2byte	0x3
 1689 03df 71       		.byte	0x71
 1690 03e0 04       		.sleb128 4
 1691 03e1 9F       		.byte	0x9f
 1692 03e2 1C030000 		.4byte	.LVL87-.Ltext0
 1693 03e6 22030000 		.4byte	.LVL89-.Ltext0
 1694 03ea 0100     		.2byte	0x1
 1695 03ec 51       		.byte	0x51
 1696 03ed 00000000 		.4byte	0
 1697 03f1 00000000 		.4byte	0
 1698              	.LLST8:
 1699 03f5 B4000000 		.4byte	.LVL19-.Ltext0
 1700 03f9 E4000000 		.4byte	.LVL23-.Ltext0
 1701 03fd 0100     		.2byte	0x1
 1702 03ff 5B       		.byte	0x5b
 1703 0400 E4000000 		.4byte	.LVL23-.Ltext0
 1704 0404 26010000 		.4byte	.LVL32-.Ltext0
 1705 0408 0100     		.2byte	0x1
 1706 040a 5E       		.byte	0x5e
 1707 040b 58010000 		.4byte	.LVL41-.Ltext0
 1708 040f 76010000 		.4byte	.LVL44-.Ltext0
ARM GAS  /tmp/cc8tg0oa.s 			page 31


 1709 0413 0100     		.2byte	0x1
 1710 0415 5E       		.byte	0x5e
 1711 0416 76010000 		.4byte	.LVL44-.Ltext0
 1712 041a 9E010000 		.4byte	.LVL50-.Ltext0
 1713 041e 0100     		.2byte	0x1
 1714 0420 5B       		.byte	0x5b
 1715 0421 A2010000 		.4byte	.LVL51-.Ltext0
 1716 0425 F2010000 		.4byte	.LVL58-.Ltext0
 1717 0429 0100     		.2byte	0x1
 1718 042b 5B       		.byte	0x5b
 1719 042c A0020000 		.4byte	.LVL72-.Ltext0
 1720 0430 BA020000 		.4byte	.LVL73-.Ltext0
 1721 0434 0100     		.2byte	0x1
 1722 0436 55       		.byte	0x55
 1723 0437 BA020000 		.4byte	.LVL73-.Ltext0
 1724 043b D8020000 		.4byte	.LVL77-.Ltext0
 1725 043f 0100     		.2byte	0x1
 1726 0441 51       		.byte	0x51
 1727 0442 D8020000 		.4byte	.LVL77-.Ltext0
 1728 0446 EA020000 		.4byte	.LVL81-.Ltext0
 1729 044a 0600     		.2byte	0x6
 1730 044c 73       		.byte	0x73
 1731 044d 00       		.sleb128 0
 1732 044e 74       		.byte	0x74
 1733 044f 00       		.sleb128 0
 1734 0450 22       		.byte	0x22
 1735 0451 9F       		.byte	0x9f
 1736 0452 EA020000 		.4byte	.LVL81-.Ltext0
 1737 0456 06030000 		.4byte	.LVL84-.Ltext0
 1738 045a 0100     		.2byte	0x1
 1739 045c 51       		.byte	0x51
 1740 045d 06030000 		.4byte	.LVL84-.Ltext0
 1741 0461 56030000 		.4byte	.LVL94-.Ltext0
 1742 0465 0100     		.2byte	0x1
 1743 0467 55       		.byte	0x55
 1744 0468 F4030000 		.4byte	.LVL115-.Ltext0
 1745 046c 00040000 		.4byte	.LVL116-.Ltext0
 1746 0470 0100     		.2byte	0x1
 1747 0472 55       		.byte	0x55
 1748 0473 00000000 		.4byte	0
 1749 0477 00000000 		.4byte	0
 1750              	.LLST9:
 1751 047b 96020000 		.4byte	.LVL71-.Ltext0
 1752 047f BA020000 		.4byte	.LVL73-.Ltext0
 1753 0483 0A00     		.2byte	0xa
 1754 0485 9E       		.byte	0x9e
 1755 0486 08       		.uleb128 0x8
 1756 0487 00000000 		.8byte	0
 1756      00000000 
 1757 048f BA020000 		.4byte	.LVL73-.Ltext0
 1758 0493 C6020000 		.4byte	.LVL75-.Ltext0
 1759 0497 0600     		.2byte	0x6
 1760 0499 52       		.byte	0x52
 1761 049a 93       		.byte	0x93
 1762 049b 04       		.uleb128 0x4
 1763 049c 53       		.byte	0x53
 1764 049d 93       		.byte	0x93
ARM GAS  /tmp/cc8tg0oa.s 			page 32


 1765 049e 04       		.uleb128 0x4
 1766 049f D8020000 		.4byte	.LVL77-.Ltext0
 1767 04a3 E4020000 		.4byte	.LVL79-.Ltext0
 1768 04a7 0600     		.2byte	0x6
 1769 04a9 56       		.byte	0x56
 1770 04aa 93       		.byte	0x93
 1771 04ab 04       		.uleb128 0x4
 1772 04ac 57       		.byte	0x57
 1773 04ad 93       		.byte	0x93
 1774 04ae 04       		.uleb128 0x4
 1775 04af EA020000 		.4byte	.LVL81-.Ltext0
 1776 04b3 F6020000 		.4byte	.LVL83-.Ltext0
 1777 04b7 0600     		.2byte	0x6
 1778 04b9 56       		.byte	0x56
 1779 04ba 93       		.byte	0x93
 1780 04bb 04       		.uleb128 0x4
 1781 04bc 57       		.byte	0x57
 1782 04bd 93       		.byte	0x93
 1783 04be 04       		.uleb128 0x4
 1784 04bf F6020000 		.4byte	.LVL83-.Ltext0
 1785 04c3 06030000 		.4byte	.LVL84-.Ltext0
 1786 04c7 0600     		.2byte	0x6
 1787 04c9 52       		.byte	0x52
 1788 04ca 93       		.byte	0x93
 1789 04cb 04       		.uleb128 0x4
 1790 04cc 53       		.byte	0x53
 1791 04cd 93       		.byte	0x93
 1792 04ce 04       		.uleb128 0x4
 1793 04cf 06030000 		.4byte	.LVL84-.Ltext0
 1794 04d3 18030000 		.4byte	.LVL86-.Ltext0
 1795 04d7 0200     		.2byte	0x2
 1796 04d9 7D       		.byte	0x7d
 1797 04da 00       		.sleb128 0
 1798 04db 18030000 		.4byte	.LVL86-.Ltext0
 1799 04df 2C030000 		.4byte	.LVL91-.Ltext0
 1800 04e3 0600     		.2byte	0x6
 1801 04e5 52       		.byte	0x52
 1802 04e6 93       		.byte	0x93
 1803 04e7 04       		.uleb128 0x4
 1804 04e8 53       		.byte	0x53
 1805 04e9 93       		.byte	0x93
 1806 04ea 04       		.uleb128 0x4
 1807 04eb 2C030000 		.4byte	.LVL91-.Ltext0
 1808 04ef 56030000 		.4byte	.LVL94-.Ltext0
 1809 04f3 0200     		.2byte	0x2
 1810 04f5 7D       		.byte	0x7d
 1811 04f6 00       		.sleb128 0
 1812 04f7 F4030000 		.4byte	.LVL115-.Ltext0
 1813 04fb 00040000 		.4byte	.LVL116-.Ltext0
 1814 04ff 0A00     		.2byte	0xa
 1815 0501 9E       		.byte	0x9e
 1816 0502 08       		.uleb128 0x8
 1817 0503 00000000 		.8byte	0
 1817      00000000 
 1818 050b 00000000 		.4byte	0
 1819 050f 00000000 		.4byte	0
 1820              	.LLST10:
ARM GAS  /tmp/cc8tg0oa.s 			page 33


 1821 0513 BA000000 		.4byte	.LVL20-.Ltext0
 1822 0517 E0000000 		.4byte	.LVL22-.Ltext0
 1823 051b 0100     		.2byte	0x1
 1824 051d 59       		.byte	0x59
 1825 051e E0000000 		.4byte	.LVL22-.Ltext0
 1826 0522 04010000 		.4byte	.LVL28-.Ltext0
 1827 0526 0100     		.2byte	0x1
 1828 0528 56       		.byte	0x56
 1829 0529 04010000 		.4byte	.LVL28-.Ltext0
 1830 052d 40010000 		.4byte	.LVL37-.Ltext0
 1831 0531 0200     		.2byte	0x2
 1832 0533 72       		.byte	0x72
 1833 0534 74       		.sleb128 -12
 1834 0535 40010000 		.4byte	.LVL37-.Ltext0
 1835 0539 76010000 		.4byte	.LVL44-.Ltext0
 1836 053d 0100     		.2byte	0x1
 1837 053f 56       		.byte	0x56
 1838 0540 76010000 		.4byte	.LVL44-.Ltext0
 1839 0544 A2010000 		.4byte	.LVL51-.Ltext0
 1840 0548 0100     		.2byte	0x1
 1841 054a 59       		.byte	0x59
 1842 054b A2010000 		.4byte	.LVL51-.Ltext0
 1843 054f AA010000 		.4byte	.LVL52-.Ltext0
 1844 0553 0100     		.2byte	0x1
 1845 0555 52       		.byte	0x52
 1846 0556 AA010000 		.4byte	.LVL52-.Ltext0
 1847 055a F2010000 		.4byte	.LVL58-.Ltext0
 1848 055e 0100     		.2byte	0x1
 1849 0560 59       		.byte	0x59
 1850 0561 D8020000 		.4byte	.LVL77-.Ltext0
 1851 0565 E6020000 		.4byte	.LVL80-.Ltext0
 1852 0569 0200     		.2byte	0x2
 1853 056b 70       		.byte	0x70
 1854 056c 74       		.sleb128 -12
 1855 056d E6020000 		.4byte	.LVL80-.Ltext0
 1856 0571 EA020000 		.4byte	.LVL81-.Ltext0
 1857 0575 0200     		.2byte	0x2
 1858 0577 70       		.byte	0x70
 1859 0578 64       		.sleb128 -28
 1860 0579 F2020000 		.4byte	.LVL82-.Ltext0
 1861 057d 06030000 		.4byte	.LVL84-.Ltext0
 1862 0581 0100     		.2byte	0x1
 1863 0583 55       		.byte	0x55
 1864 0584 22030000 		.4byte	.LVL89-.Ltext0
 1865 0588 2C030000 		.4byte	.LVL91-.Ltext0
 1866 058c 0100     		.2byte	0x1
 1867 058e 54       		.byte	0x54
 1868 058f 00000000 		.4byte	0
 1869 0593 00000000 		.4byte	0
 1870              	.LLST11:
 1871 0597 EC000000 		.4byte	.LVL25-.Ltext0
 1872 059b 04010000 		.4byte	.LVL28-.Ltext0
 1873 059f 0100     		.2byte	0x1
 1874 05a1 53       		.byte	0x53
 1875 05a2 04010000 		.4byte	.LVL28-.Ltext0
 1876 05a6 1E010000 		.4byte	.LVL31-.Ltext0
 1877 05aa 0100     		.2byte	0x1
ARM GAS  /tmp/cc8tg0oa.s 			page 34


 1878 05ac 55       		.byte	0x55
 1879 05ad 1E010000 		.4byte	.LVL31-.Ltext0
 1880 05b1 34010000 		.4byte	.LVL34-.Ltext0
 1881 05b5 0200     		.2byte	0x2
 1882 05b7 73       		.byte	0x73
 1883 05b8 00       		.sleb128 0
 1884 05b9 34010000 		.4byte	.LVL34-.Ltext0
 1885 05bd 40010000 		.4byte	.LVL37-.Ltext0
 1886 05c1 0100     		.2byte	0x1
 1887 05c3 5C       		.byte	0x5c
 1888 05c4 40010000 		.4byte	.LVL37-.Ltext0
 1889 05c8 76010000 		.4byte	.LVL44-.Ltext0
 1890 05cc 0100     		.2byte	0x1
 1891 05ce 57       		.byte	0x57
 1892 05cf 96010000 		.4byte	.LVL48-.Ltext0
 1893 05d3 AA010000 		.4byte	.LVL52-.Ltext0
 1894 05d7 0100     		.2byte	0x1
 1895 05d9 51       		.byte	0x51
 1896 05da C0020000 		.4byte	.LVL74-.Ltext0
 1897 05de CE020000 		.4byte	.LVL76-.Ltext0
 1898 05e2 0100     		.2byte	0x1
 1899 05e4 57       		.byte	0x57
 1900 05e5 CE020000 		.4byte	.LVL76-.Ltext0
 1901 05e9 D8020000 		.4byte	.LVL77-.Ltext0
 1902 05ed 0200     		.2byte	0x2
 1903 05ef 71       		.byte	0x71
 1904 05f0 00       		.sleb128 0
 1905 05f1 DC020000 		.4byte	.LVL78-.Ltext0
 1906 05f5 EA020000 		.4byte	.LVL81-.Ltext0
 1907 05f9 0100     		.2byte	0x1
 1908 05fb 51       		.byte	0x51
 1909 05fc EA020000 		.4byte	.LVL81-.Ltext0
 1910 0600 06030000 		.4byte	.LVL84-.Ltext0
 1911 0604 0100     		.2byte	0x1
 1912 0606 5C       		.byte	0x5c
 1913 0607 1E030000 		.4byte	.LVL88-.Ltext0
 1914 060b 2C030000 		.4byte	.LVL91-.Ltext0
 1915 060f 0100     		.2byte	0x1
 1916 0611 50       		.byte	0x50
 1917 0612 00000000 		.4byte	0
 1918 0616 00000000 		.4byte	0
 1919              	.LLST12:
 1920 061a 8C000000 		.4byte	.LVL16-.Ltext0
 1921 061e 98000000 		.4byte	.LVL17-.Ltext0
 1922 0622 0100     		.2byte	0x1
 1923 0624 53       		.byte	0x53
 1924 0625 98000000 		.4byte	.LVL17-.Ltext0
 1925 0629 A4000000 		.4byte	.LVL18-.Ltext0
 1926 062d 0300     		.2byte	0x3
 1927 062f 91       		.byte	0x91
 1928 0630 BC7F     		.sleb128 -68
 1929 0632 7E020000 		.4byte	.LVL69-.Ltext0
 1930 0636 88020000 		.4byte	.LVL70-.Ltext0
 1931 063a 0100     		.2byte	0x1
 1932 063c 53       		.byte	0x53
 1933 063d 88020000 		.4byte	.LVL70-.Ltext0
 1934 0641 96020000 		.4byte	.LVL71-.Ltext0
ARM GAS  /tmp/cc8tg0oa.s 			page 35


 1935 0645 0100     		.2byte	0x1
 1936 0647 59       		.byte	0x59
 1937 0648 00040000 		.4byte	.LVL116-.Ltext0
 1938 064c 02040000 		.4byte	.LVL117-.Ltext0
 1939 0650 0100     		.2byte	0x1
 1940 0652 53       		.byte	0x53
 1941 0653 02040000 		.4byte	.LVL117-.Ltext0
 1942 0657 04040000 		.4byte	.LVL118-.Ltext0
 1943 065b 0300     		.2byte	0x3
 1944 065d 91       		.byte	0x91
 1945 065e BC7F     		.sleb128 -68
 1946 0660 00000000 		.4byte	0
 1947 0664 00000000 		.4byte	0
 1948              	.LLST13:
 1949 0668 72000000 		.4byte	.LVL13-.Ltext0
 1950 066c FA010000 		.4byte	.LVL59-.Ltext0
 1951 0670 0200     		.2byte	0x2
 1952 0672 91       		.byte	0x91
 1953 0673 40       		.sleb128 -64
 1954 0674 FA010000 		.4byte	.LVL59-.Ltext0
 1955 0678 16020000 		.4byte	.LVL62-.Ltext0
 1956 067c 0600     		.2byte	0x6
 1957 067e 91       		.byte	0x91
 1958 067f 40       		.sleb128 -64
 1959 0680 06       		.byte	0x6
 1960 0681 31       		.byte	0x31
 1961 0682 1C       		.byte	0x1c
 1962 0683 9F       		.byte	0x9f
 1963 0684 16020000 		.4byte	.LVL62-.Ltext0
 1964 0688 1E020000 		.4byte	.LVL63-.Ltext0
 1965 068c 0100     		.2byte	0x1
 1966 068e 53       		.byte	0x53
 1967 068f 1E020000 		.4byte	.LVL63-.Ltext0
 1968 0693 32020000 		.4byte	.LVL64-.Ltext0
 1969 0697 0200     		.2byte	0x2
 1970 0699 91       		.byte	0x91
 1971 069a 40       		.sleb128 -64
 1972 069b 32020000 		.4byte	.LVL64-.Ltext0
 1973 069f 68020000 		.4byte	.LVL65-.Ltext0
 1974 06a3 0200     		.2byte	0x2
 1975 06a5 91       		.byte	0x91
 1976 06a6 50       		.sleb128 -48
 1977 06a7 68020000 		.4byte	.LVL65-.Ltext0
 1978 06ab 5C030000 		.4byte	.LVL95-.Ltext0
 1979 06af 0300     		.2byte	0x3
 1980 06b1 91       		.byte	0x91
 1981 06b2 9C7F     		.sleb128 -100
 1982 06b4 5C030000 		.4byte	.LVL95-.Ltext0
 1983 06b8 66030000 		.4byte	.LVL97-.Ltext0
 1984 06bc 0700     		.2byte	0x7
 1985 06be 91       		.byte	0x91
 1986 06bf 9C7F     		.sleb128 -100
 1987 06c1 06       		.byte	0x6
 1988 06c2 31       		.byte	0x31
 1989 06c3 1C       		.byte	0x1c
 1990 06c4 9F       		.byte	0x9f
 1991 06c5 66030000 		.4byte	.LVL97-.Ltext0
ARM GAS  /tmp/cc8tg0oa.s 			page 36


 1992 06c9 6E030000 		.4byte	.LVL98-.Ltext0
 1993 06cd 0100     		.2byte	0x1
 1994 06cf 53       		.byte	0x53
 1995 06d0 6E030000 		.4byte	.LVL98-.Ltext0
 1996 06d4 76030000 		.4byte	.LVL99-.Ltext0
 1997 06d8 0300     		.2byte	0x3
 1998 06da 91       		.byte	0x91
 1999 06db 9C7F     		.sleb128 -100
 2000 06dd F4030000 		.4byte	.LVL115-.Ltext0
 2001 06e1 00040000 		.4byte	.LVL116-.Ltext0
 2002 06e5 0300     		.2byte	0x3
 2003 06e7 91       		.byte	0x91
 2004 06e8 9C7F     		.sleb128 -100
 2005 06ea 00040000 		.4byte	.LVL116-.Ltext0
 2006 06ee 04040000 		.4byte	.LVL118-.Ltext0
 2007 06f2 0200     		.2byte	0x2
 2008 06f4 91       		.byte	0x91
 2009 06f5 40       		.sleb128 -64
 2010 06f6 00000000 		.4byte	0
 2011 06fa 00000000 		.4byte	0
 2012              	.LLST14:
 2013 06fe 86000000 		.4byte	.LVL15-.Ltext0
 2014 0702 A4000000 		.4byte	.LVL18-.Ltext0
 2015 0706 0200     		.2byte	0x2
 2016 0708 31       		.byte	0x31
 2017 0709 9F       		.byte	0x9f
 2018 070a A4000000 		.4byte	.LVL18-.Ltext0
 2019 070e CC010000 		.4byte	.LVL54-.Ltext0
 2020 0712 0300     		.2byte	0x3
 2021 0714 91       		.byte	0x91
 2022 0715 F47E     		.sleb128 -140
 2023 0717 CC010000 		.4byte	.LVL54-.Ltext0
 2024 071b D8010000 		.4byte	.LVL55-.Ltext0
 2025 071f 0100     		.2byte	0x1
 2026 0721 50       		.byte	0x50
 2027 0722 D8010000 		.4byte	.LVL55-.Ltext0
 2028 0726 E0010000 		.4byte	.LVL56-.Ltext0
 2029 072a 0100     		.2byte	0x1
 2030 072c 51       		.byte	0x51
 2031 072d E0010000 		.4byte	.LVL56-.Ltext0
 2032 0731 E4010000 		.4byte	.LVL57-.Ltext0
 2033 0735 0300     		.2byte	0x3
 2034 0737 91       		.byte	0x91
 2035 0738 F47E     		.sleb128 -140
 2036 073a E4010000 		.4byte	.LVL57-.Ltext0
 2037 073e F2010000 		.4byte	.LVL58-.Ltext0
 2038 0742 0100     		.2byte	0x1
 2039 0744 50       		.byte	0x50
 2040 0745 7A020000 		.4byte	.LVL68-.Ltext0
 2041 0749 96020000 		.4byte	.LVL71-.Ltext0
 2042 074d 0200     		.2byte	0x2
 2043 074f 31       		.byte	0x31
 2044 0750 9F       		.byte	0x9f
 2045 0751 96020000 		.4byte	.LVL71-.Ltext0
 2046 0755 56030000 		.4byte	.LVL94-.Ltext0
 2047 0759 0100     		.2byte	0x1
 2048 075b 5A       		.byte	0x5a
ARM GAS  /tmp/cc8tg0oa.s 			page 37


 2049 075c F4030000 		.4byte	.LVL115-.Ltext0
 2050 0760 00040000 		.4byte	.LVL116-.Ltext0
 2051 0764 0100     		.2byte	0x1
 2052 0766 5A       		.byte	0x5a
 2053 0767 00040000 		.4byte	.LVL116-.Ltext0
 2054 076b 04040000 		.4byte	.LVL118-.Ltext0
 2055 076f 0200     		.2byte	0x2
 2056 0771 31       		.byte	0x31
 2057 0772 9F       		.byte	0x9f
 2058 0773 00000000 		.4byte	0
 2059 0777 00000000 		.4byte	0
 2060              	.LLST15:
 2061 077b 32000000 		.4byte	.LVL8-.Ltext0
 2062 077f 64000000 		.4byte	.LVL12-.Ltext0
 2063 0783 0100     		.2byte	0x1
 2064 0785 50       		.byte	0x50
 2065 0786 64000000 		.4byte	.LVL12-.Ltext0
 2066 078a 04040000 		.4byte	.LVL118-.Ltext0
 2067 078e 0200     		.2byte	0x2
 2068 0790 91       		.byte	0x91
 2069 0791 4C       		.sleb128 -52
 2070 0792 04040000 		.4byte	.LVL118-.Ltext0
 2071 0796 0A040000 		.4byte	.LFE135-.Ltext0
 2072 079a 0100     		.2byte	0x1
 2073 079c 50       		.byte	0x50
 2074 079d 00000000 		.4byte	0
 2075 07a1 00000000 		.4byte	0
 2076              	.LLST16:
 2077 07a5 B4000000 		.4byte	.LVL19-.Ltext0
 2078 07a9 E4000000 		.4byte	.LVL23-.Ltext0
 2079 07ad 0300     		.2byte	0x3
 2080 07af 91       		.byte	0x91
 2081 07b0 987F     		.sleb128 -104
 2082 07b2 D8010000 		.4byte	.LVL55-.Ltext0
 2083 07b6 E4010000 		.4byte	.LVL57-.Ltext0
 2084 07ba 0300     		.2byte	0x3
 2085 07bc 91       		.byte	0x91
 2086 07bd 987F     		.sleb128 -104
 2087 07bf A0020000 		.4byte	.LVL72-.Ltext0
 2088 07c3 BA020000 		.4byte	.LVL73-.Ltext0
 2089 07c7 0300     		.2byte	0x3
 2090 07c9 91       		.byte	0x91
 2091 07ca 887F     		.sleb128 -120
 2092 07cc 7E030000 		.4byte	.LVL100-.Ltext0
 2093 07d0 82030000 		.4byte	.LVL101-.Ltext0
 2094 07d4 0100     		.2byte	0x1
 2095 07d6 53       		.byte	0x53
 2096 07d7 82030000 		.4byte	.LVL101-.Ltext0
 2097 07db 8A030000 		.4byte	.LVL102-.Ltext0
 2098 07df 0300     		.2byte	0x3
 2099 07e1 73       		.byte	0x73
 2100 07e2 01       		.sleb128 1
 2101 07e3 9F       		.byte	0x9f
 2102 07e4 8A030000 		.4byte	.LVL102-.Ltext0
 2103 07e8 94030000 		.4byte	.LVL103-.Ltext0
 2104 07ec 0900     		.2byte	0x9
 2105 07ee 71       		.byte	0x71
ARM GAS  /tmp/cc8tg0oa.s 			page 38


 2106 07ef 00       		.sleb128 0
 2107 07f0 09       		.byte	0x9
 2108 07f1 F2       		.byte	0xf2
 2109 07f2 24       		.byte	0x24
 2110 07f3 09       		.byte	0x9
 2111 07f4 F4       		.byte	0xf4
 2112 07f5 25       		.byte	0x25
 2113 07f6 9F       		.byte	0x9f
 2114 07f7 CE030000 		.4byte	.LVL109-.Ltext0
 2115 07fb D6030000 		.4byte	.LVL110-.Ltext0
 2116 07ff 0500     		.2byte	0x5
 2117 0801 71       		.byte	0x71
 2118 0802 00       		.sleb128 0
 2119 0803 33       		.byte	0x33
 2120 0804 1A       		.byte	0x1a
 2121 0805 9F       		.byte	0x9f
 2122 0806 D6030000 		.4byte	.LVL110-.Ltext0
 2123 080a E2030000 		.4byte	.LVL111-.Ltext0
 2124 080e 0800     		.2byte	0x8
 2125 0810 91       		.byte	0x91
 2126 0811 4C       		.sleb128 -52
 2127 0812 06       		.byte	0x6
 2128 0813 31       		.byte	0x31
 2129 0814 1C       		.byte	0x1c
 2130 0815 33       		.byte	0x33
 2131 0816 1A       		.byte	0x1a
 2132 0817 9F       		.byte	0x9f
 2133 0818 F4030000 		.4byte	.LVL115-.Ltext0
 2134 081c 00040000 		.4byte	.LVL116-.Ltext0
 2135 0820 0300     		.2byte	0x3
 2136 0822 91       		.byte	0x91
 2137 0823 887F     		.sleb128 -120
 2138 0825 00000000 		.4byte	0
 2139 0829 00000000 		.4byte	0
 2140              	.LLST17:
 2141 082d 34000000 		.4byte	.LVL9-.Ltext0
 2142 0831 40000000 		.4byte	.LVL10-.Ltext0
 2143 0835 0100     		.2byte	0x1
 2144 0837 52       		.byte	0x52
 2145 0838 40000000 		.4byte	.LVL10-.Ltext0
 2146 083c 04040000 		.4byte	.LVL118-.Ltext0
 2147 0840 0200     		.2byte	0x2
 2148 0842 91       		.byte	0x91
 2149 0843 50       		.sleb128 -48
 2150 0844 04040000 		.4byte	.LVL118-.Ltext0
 2151 0848 0A040000 		.4byte	.LFE135-.Ltext0
 2152 084c 0100     		.2byte	0x1
 2153 084e 52       		.byte	0x52
 2154 084f 00000000 		.4byte	0
 2155 0853 00000000 		.4byte	0
 2156              	.LLST18:
 2157 0857 A4000000 		.4byte	.LVL18-.Ltext0
 2158 085b E4000000 		.4byte	.LVL23-.Ltext0
 2159 085f 0A00     		.2byte	0xa
 2160 0861 9E       		.byte	0x9e
 2161 0862 08       		.uleb128 0x8
 2162 0863 00000000 		.8byte	0
ARM GAS  /tmp/cc8tg0oa.s 			page 39


 2162      00000000 
 2163 086b E4000000 		.4byte	.LVL23-.Ltext0
 2164 086f F8000000 		.4byte	.LVL26-.Ltext0
 2165 0873 0600     		.2byte	0x6
 2166 0875 5A       		.byte	0x5a
 2167 0876 93       		.byte	0x93
 2168 0877 04       		.uleb128 0x4
 2169 0878 5B       		.byte	0x5b
 2170 0879 93       		.byte	0x93
 2171 087a 04       		.uleb128 0x4
 2172 087b 04010000 		.4byte	.LVL28-.Ltext0
 2173 087f 08010000 		.4byte	.LVL29-.Ltext0
 2174 0883 0600     		.2byte	0x6
 2175 0885 50       		.byte	0x50
 2176 0886 93       		.byte	0x93
 2177 0887 04       		.uleb128 0x4
 2178 0888 51       		.byte	0x51
 2179 0889 93       		.byte	0x93
 2180 088a 04       		.uleb128 0x4
 2181 088b 0C010000 		.4byte	.LVL30-.Ltext0
 2182 088f 32010000 		.4byte	.LVL33-.Ltext0
 2183 0893 0600     		.2byte	0x6
 2184 0895 5A       		.byte	0x5a
 2185 0896 93       		.byte	0x93
 2186 0897 04       		.uleb128 0x4
 2187 0898 5B       		.byte	0x5b
 2188 0899 93       		.byte	0x93
 2189 089a 04       		.uleb128 0x4
 2190 089b 38010000 		.4byte	.LVL35-.Ltext0
 2191 089f 3C010000 		.4byte	.LVL36-.Ltext0
 2192 08a3 0600     		.2byte	0x6
 2193 08a5 50       		.byte	0x50
 2194 08a6 93       		.byte	0x93
 2195 08a7 04       		.uleb128 0x4
 2196 08a8 51       		.byte	0x51
 2197 08a9 93       		.byte	0x93
 2198 08aa 04       		.uleb128 0x4
 2199 08ab 4A010000 		.4byte	.LVL39-.Ltext0
 2200 08af 76010000 		.4byte	.LVL44-.Ltext0
 2201 08b3 0600     		.2byte	0x6
 2202 08b5 5A       		.byte	0x5a
 2203 08b6 93       		.byte	0x93
 2204 08b7 04       		.uleb128 0x4
 2205 08b8 5B       		.byte	0x5b
 2206 08b9 93       		.byte	0x93
 2207 08ba 04       		.uleb128 0x4
 2208 08bb 76010000 		.4byte	.LVL44-.Ltext0
 2209 08bf 8E010000 		.4byte	.LVL46-.Ltext0
 2210 08c3 0600     		.2byte	0x6
 2211 08c5 50       		.byte	0x50
 2212 08c6 93       		.byte	0x93
 2213 08c7 04       		.uleb128 0x4
 2214 08c8 51       		.byte	0x51
 2215 08c9 93       		.byte	0x93
 2216 08ca 04       		.uleb128 0x4
 2217 08cb 8E010000 		.4byte	.LVL46-.Ltext0
 2218 08cf AA010000 		.4byte	.LVL52-.Ltext0
ARM GAS  /tmp/cc8tg0oa.s 			page 40


 2219 08d3 0600     		.2byte	0x6
 2220 08d5 56       		.byte	0x56
 2221 08d6 93       		.byte	0x93
 2222 08d7 04       		.uleb128 0x4
 2223 08d8 57       		.byte	0x57
 2224 08d9 93       		.byte	0x93
 2225 08da 04       		.uleb128 0x4
 2226 08db D8010000 		.4byte	.LVL55-.Ltext0
 2227 08df E4010000 		.4byte	.LVL57-.Ltext0
 2228 08e3 0A00     		.2byte	0xa
 2229 08e5 9E       		.byte	0x9e
 2230 08e6 08       		.uleb128 0x8
 2231 08e7 00000000 		.8byte	0
 2231      00000000 
 2232 08ef 00000000 		.4byte	0
 2233 08f3 00000000 		.4byte	0
 2234              	.LLST19:
 2235 08f7 A4000000 		.4byte	.LVL18-.Ltext0
 2236 08fb E4000000 		.4byte	.LVL23-.Ltext0
 2237 08ff 0A00     		.2byte	0xa
 2238 0901 9E       		.byte	0x9e
 2239 0902 08       		.uleb128 0x8
 2240 0903 00000000 		.8byte	0
 2240      00000000 
 2241 090b E4000000 		.4byte	.LVL23-.Ltext0
 2242 090f FC000000 		.4byte	.LVL27-.Ltext0
 2243 0913 0600     		.2byte	0x6
 2244 0915 50       		.byte	0x50
 2245 0916 93       		.byte	0x93
 2246 0917 04       		.uleb128 0x4
 2247 0918 51       		.byte	0x51
 2248 0919 93       		.byte	0x93
 2249 091a 04       		.uleb128 0x4
 2250 091b 04010000 		.4byte	.LVL28-.Ltext0
 2251 091f 34010000 		.4byte	.LVL34-.Ltext0
 2252 0923 0200     		.2byte	0x2
 2253 0925 7D       		.byte	0x7d
 2254 0926 00       		.sleb128 0
 2255 0927 34010000 		.4byte	.LVL34-.Ltext0
 2256 092b 58010000 		.4byte	.LVL41-.Ltext0
 2257 092f 0600     		.2byte	0x6
 2258 0931 54       		.byte	0x54
 2259 0932 93       		.byte	0x93
 2260 0933 04       		.uleb128 0x4
 2261 0934 55       		.byte	0x55
 2262 0935 93       		.byte	0x93
 2263 0936 04       		.uleb128 0x4
 2264 0937 58010000 		.4byte	.LVL41-.Ltext0
 2265 093b 6E010000 		.4byte	.LVL43-.Ltext0
 2266 093f 0600     		.2byte	0x6
 2267 0941 50       		.byte	0x50
 2268 0942 93       		.byte	0x93
 2269 0943 04       		.uleb128 0x4
 2270 0944 51       		.byte	0x51
 2271 0945 93       		.byte	0x93
 2272 0946 04       		.uleb128 0x4
 2273 0947 76010000 		.4byte	.LVL44-.Ltext0
ARM GAS  /tmp/cc8tg0oa.s 			page 41


 2274 094b D8010000 		.4byte	.LVL55-.Ltext0
 2275 094f 0600     		.2byte	0x6
 2276 0951 54       		.byte	0x54
 2277 0952 93       		.byte	0x93
 2278 0953 04       		.uleb128 0x4
 2279 0954 55       		.byte	0x55
 2280 0955 93       		.byte	0x93
 2281 0956 04       		.uleb128 0x4
 2282 0957 D8010000 		.4byte	.LVL55-.Ltext0
 2283 095b E4010000 		.4byte	.LVL57-.Ltext0
 2284 095f 0A00     		.2byte	0xa
 2285 0961 9E       		.byte	0x9e
 2286 0962 08       		.uleb128 0x8
 2287 0963 00000000 		.8byte	0
 2287      00000000 
 2288 096b E4010000 		.4byte	.LVL57-.Ltext0
 2289 096f F2010000 		.4byte	.LVL58-.Ltext0
 2290 0973 0600     		.2byte	0x6
 2291 0975 54       		.byte	0x54
 2292 0976 93       		.byte	0x93
 2293 0977 04       		.uleb128 0x4
 2294 0978 55       		.byte	0x55
 2295 0979 93       		.byte	0x93
 2296 097a 04       		.uleb128 0x4
 2297 097b 00000000 		.4byte	0
 2298 097f 00000000 		.4byte	0
 2299              	.LLST20:
 2300 0983 E8000000 		.4byte	.LVL24-.Ltext0
 2301 0987 34010000 		.4byte	.LVL34-.Ltext0
 2302 098b 0100     		.2byte	0x1
 2303 098d 54       		.byte	0x54
 2304 098e 34010000 		.4byte	.LVL34-.Ltext0
 2305 0992 54010000 		.4byte	.LVL40-.Ltext0
 2306 0996 0100     		.2byte	0x1
 2307 0998 5E       		.byte	0x5e
 2308 0999 54010000 		.4byte	.LVL40-.Ltext0
 2309 099d 60010000 		.4byte	.LVL42-.Ltext0
 2310 09a1 0200     		.2byte	0x2
 2311 09a3 72       		.byte	0x72
 2312 09a4 68       		.sleb128 -24
 2313 09a5 92010000 		.4byte	.LVL47-.Ltext0
 2314 09a9 AA010000 		.4byte	.LVL52-.Ltext0
 2315 09ad 0100     		.2byte	0x1
 2316 09af 52       		.byte	0x52
 2317 09b0 00000000 		.4byte	0
 2318 09b4 00000000 		.4byte	0
 2319              		.section	.debug_aranges,"",%progbits
 2320 0000 1C000000 		.4byte	0x1c
 2321 0004 0200     		.2byte	0x2
 2322 0006 00000000 		.4byte	.Ldebug_info0
 2323 000a 04       		.byte	0x4
 2324 000b 00       		.byte	0
 2325 000c 0000     		.2byte	0
 2326 000e 0000     		.2byte	0
 2327 0010 00000000 		.4byte	.Ltext0
 2328 0014 0A040000 		.4byte	.Letext0-.Ltext0
 2329 0018 00000000 		.4byte	0
ARM GAS  /tmp/cc8tg0oa.s 			page 42


 2330 001c 00000000 		.4byte	0
 2331              		.section	.debug_line,"",%progbits
 2332              	.Ldebug_line0:
 2333 0000 A7020000 		.section	.debug_str,"MS",%progbits,1
 2333      02005D01 
 2333      00000201 
 2333      FB0E0D00 
 2333      01010101 
 2334              	.LASF34:
 2335 0000 70747231 		.ascii	"ptr1\000"
 2335      00
 2336              	.LASF43:
 2337 0005 474E5520 		.ascii	"GNU C 4.9.3 20150529 (release) [ARM/embedded-4_9-br"
 2337      4320342E 
 2337      392E3320 
 2337      32303135 
 2337      30353239 
 2338 0038 616E6368 		.ascii	"anch revision 224288] -mcpu=cortex-m4 -mfloat-abi=h"
 2338      20726576 
 2338      6973696F 
 2338      6E203232 
 2338      34323838 
 2339 006b 61726420 		.ascii	"ard -mfpu=fpv4-sp-d16 -mno-thumb-interwork -mthumb "
 2339      2D6D6670 
 2339      753D6670 
 2339      76342D73 
 2339      702D6431 
 2340 009e 2D676764 		.ascii	"-ggdb -O2 -fomit-frame-pointer -falign-functions=16"
 2340      62202D4F 
 2340      32202D66 
 2340      6F6D6974 
 2340      2D667261 
 2341 00d1 202D666E 		.ascii	" -fno-math-errno -fsingle-precision-constant\000"
 2341      6F2D6D61 
 2341      74682D65 
 2341      72726E6F 
 2341      202D6673 
 2342              	.LASF35:
 2343 00fe 70747232 		.ascii	"ptr2\000"
 2343      00
 2344              	.LASF3:
 2345 0103 5F5F7569 		.ascii	"__uint8_t\000"
 2345      6E74385F 
 2345      7400
 2346              	.LASF6:
 2347 010d 5F5F696E 		.ascii	"__int32_t\000"
 2347      7433325F 
 2347      7400
 2348              	.LASF44:
 2349 0117 2F645F64 		.ascii	"/d_drive/axoloti/platform_linux/../CMSIS//DSP_Lib/S"
 2349      72697665 
 2349      2F61786F 
 2349      6C6F7469 
 2349      2F706C61 
 2350 014a 6F757263 		.ascii	"ource/FilteringFunctions/arm_fir_interpolate_q31.c\000"
 2350      652F4669 
 2350      6C746572 
ARM GAS  /tmp/cc8tg0oa.s 			page 43


 2350      696E6746 
 2350      756E6374 
 2351              	.LASF38:
 2352 017d 70686173 		.ascii	"phaseLen\000"
 2352      654C656E 
 2352      00
 2353              	.LASF40:
 2354 0186 626C6B43 		.ascii	"blkCntN2\000"
 2354      6E744E32 
 2354      00
 2355              	.LASF22:
 2356 018f 666C6F61 		.ascii	"float\000"
 2356      7400
 2357              	.LASF24:
 2358 0195 7133315F 		.ascii	"q31_t\000"
 2358      7400
 2359              	.LASF1:
 2360 019b 756E7369 		.ascii	"unsigned char\000"
 2360      676E6564 
 2360      20636861 
 2360      7200
 2361              	.LASF37:
 2362 01a9 626C6B43 		.ascii	"blkCnt\000"
 2362      6E7400
 2363              	.LASF9:
 2364 01b0 6C6F6E67 		.ascii	"long unsigned int\000"
 2364      20756E73 
 2364      69676E65 
 2364      6420696E 
 2364      7400
 2365              	.LASF5:
 2366 01c2 73686F72 		.ascii	"short unsigned int\000"
 2366      7420756E 
 2366      7369676E 
 2366      65642069 
 2366      6E7400
 2367              	.LASF36:
 2368 01d5 73756D30 		.ascii	"sum0\000"
 2368      00
 2369              	.LASF31:
 2370 01da 70447374 		.ascii	"pDst\000"
 2370      00
 2371              	.LASF10:
 2372 01df 5F5F696E 		.ascii	"__int64_t\000"
 2372      7436345F 
 2372      7400
 2373              	.LASF39:
 2374 01e9 74617043 		.ascii	"tapCnt\000"
 2374      6E7400
 2375              	.LASF21:
 2376 01f0 646F7562 		.ascii	"double\000"
 2376      6C6500
 2377              	.LASF8:
 2378 01f7 5F5F7569 		.ascii	"__uint32_t\000"
 2378      6E743332 
 2378      5F7400
 2379              	.LASF33:
ARM GAS  /tmp/cc8tg0oa.s 			page 44


 2380 0202 70537461 		.ascii	"pStateCurnt\000"
 2380      74654375 
 2380      726E7400 
 2381              	.LASF13:
 2382 020e 756E7369 		.ascii	"unsigned int\000"
 2382      676E6564 
 2382      20696E74 
 2382      00
 2383              	.LASF12:
 2384 021b 6C6F6E67 		.ascii	"long long unsigned int\000"
 2384      206C6F6E 
 2384      6720756E 
 2384      7369676E 
 2384      65642069 
 2385              	.LASF14:
 2386 0232 75696E74 		.ascii	"uint8_t\000"
 2386      385F7400 
 2387              	.LASF25:
 2388 023a 7136335F 		.ascii	"q63_t\000"
 2388      7400
 2389              	.LASF16:
 2390 0240 696E7433 		.ascii	"int32_t\000"
 2390      325F7400 
 2391              	.LASF19:
 2392 0248 73697A65 		.ascii	"sizetype\000"
 2392      74797065 
 2392      00
 2393              	.LASF18:
 2394 0251 696E7436 		.ascii	"int64_t\000"
 2394      345F7400 
 2395              	.LASF11:
 2396 0259 6C6F6E67 		.ascii	"long long int\000"
 2396      206C6F6E 
 2396      6720696E 
 2396      7400
 2397              	.LASF32:
 2398 0267 626C6F63 		.ascii	"blockSize\000"
 2398      6B53697A 
 2398      6500
 2399              	.LASF28:
 2400 0271 70537461 		.ascii	"pState\000"
 2400      746500
 2401              	.LASF20:
 2402 0278 63686172 		.ascii	"char\000"
 2402      00
 2403              	.LASF45:
 2404 027d 61726D5F 		.ascii	"arm_fir_interpolate_q31\000"
 2404      6669725F 
 2404      696E7465 
 2404      72706F6C 
 2404      6174655F 
 2405              	.LASF2:
 2406 0295 73686F72 		.ascii	"short int\000"
 2406      7420696E 
 2406      7400
 2407              	.LASF4:
 2408 029f 5F5F7569 		.ascii	"__uint16_t\000"
ARM GAS  /tmp/cc8tg0oa.s 			page 45


 2408      6E743136 
 2408      5F7400
 2409              	.LASF15:
 2410 02aa 75696E74 		.ascii	"uint16_t\000"
 2410      31365F74 
 2410      00
 2411              	.LASF26:
 2412 02b3 70686173 		.ascii	"phaseLength\000"
 2412      654C656E 
 2412      67746800 
 2413              	.LASF27:
 2414 02bf 70436F65 		.ascii	"pCoeffs\000"
 2414      66667300 
 2415              	.LASF17:
 2416 02c7 75696E74 		.ascii	"uint32_t\000"
 2416      33325F74 
 2416      00
 2417              	.LASF7:
 2418 02d0 6C6F6E67 		.ascii	"long int\000"
 2418      20696E74 
 2418      00
 2419              	.LASF23:
 2420 02d9 6C6F6E67 		.ascii	"long double\000"
 2420      20646F75 
 2420      626C6500 
 2421              	.LASF0:
 2422 02e5 7369676E 		.ascii	"signed char\000"
 2422      65642063 
 2422      68617200 
 2423              	.LASF30:
 2424 02f1 70537263 		.ascii	"pSrc\000"
 2424      00
 2425              	.LASF29:
 2426 02f6 61726D5F 		.ascii	"arm_fir_interpolate_instance_q31\000"
 2426      6669725F 
 2426      696E7465 
 2426      72706F6C 
 2426      6174655F 
 2427              	.LASF41:
 2428 0317 61636330 		.ascii	"acc0\000"
 2428      00
 2429              	.LASF42:
 2430 031c 61636331 		.ascii	"acc1\000"
 2430      00
 2431              		.ident	"GCC: (GNU Tools for ARM Embedded Processors) 4.9.3 20150529 (release) [ARM/embedded-4_9-br
ARM GAS  /tmp/cc8tg0oa.s 			page 46


DEFINED SYMBOLS
                            *ABS*:00000000 arm_fir_interpolate_q31.c
     /tmp/cc8tg0oa.s:20     .text:00000000 $t
     /tmp/cc8tg0oa.s:26     .text:00000000 arm_fir_interpolate_q31
                     .debug_frame:00000010 $d

NO UNDEFINED SYMBOLS
