ARM GAS  /tmp/ccuecsUq.s 			page 1


   1              		.syntax unified
   2              		.cpu cortex-m4
   3              		.eabi_attribute 27, 1
   4              		.eabi_attribute 28, 1
   5              		.fpu fpv4-sp-d16
   6              		.eabi_attribute 20, 1
   7              		.eabi_attribute 21, 1
   8              		.eabi_attribute 23, 3
   9              		.eabi_attribute 24, 1
  10              		.eabi_attribute 25, 1
  11              		.eabi_attribute 26, 1
  12              		.eabi_attribute 30, 2
  13              		.eabi_attribute 34, 1
  14              		.eabi_attribute 18, 4
  15              		.thumb
  16              		.file	"arm_biquad_cascade_df1_32x64_q31.c"
  17              		.text
  18              	.Ltext0:
  19              		.cfi_sections	.debug_frame
  20              		.align	2
  21              		.p2align 4,,15
  22              		.global	arm_biquad_cas_df1_32x64_q31
  23              		.thumb
  24              		.thumb_func
  25              		.type	arm_biquad_cas_df1_32x64_q31, %function
  26              	arm_biquad_cas_df1_32x64_q31:
  27              	.LFB135:
  28              		.file 1 "/home/sbcu/Dropbox/pcb-layouts/axo-on-discovery-board/axoloti/platform_linux/../CMSIS//DS
  29              		.loc 1 192 0
  30              		.cfi_startproc
  31              		@ args = 0, pretend = 0, frame = 264
  32              		@ frame_needed = 0, uses_anonymous_args = 0
  33              	.LVL0:
  34 0000 2DE9F04F 		push	{r4, r5, r6, r7, r8, r9, r10, fp, lr}
  35              		.cfi_def_cfa_offset 36
  36              		.cfi_offset 4, -36
  37              		.cfi_offset 5, -32
  38              		.cfi_offset 6, -28
  39              		.cfi_offset 7, -24
  40              		.cfi_offset 8, -20
  41              		.cfi_offset 9, -16
  42              		.cfi_offset 10, -12
  43              		.cfi_offset 11, -8
  44              		.cfi_offset 14, -4
  45 0004 C3B0     		sub	sp, sp, #268
  46              		.cfi_def_cfa_offset 304
  47              		.loc 1 202 0
  48 0006 047B     		ldrb	r4, [r0, #12]	@ zero_extendqisi2
  49 0008 8568     		ldr	r5, [r0, #8]
  50 000a 4668     		ldr	r6, [r0, #4]
  51              		.loc 1 203 0
  52 000c 0078     		ldrb	r0, [r0]	@ zero_extendqisi2
  53              	.LVL1:
  54 000e 3C90     		str	r0, [sp, #240]
  55 0010 9808     		lsrs	r0, r3, #2
  56 0012 03F00303 		and	r3, r3, #3
  57              	.LVL2:
ARM GAS  /tmp/ccuecsUq.s 			page 2


  58 0016 3E90     		str	r0, [sp, #248]
  59 0018 3F93     		str	r3, [sp, #252]
  60 001a 0001     		lsls	r0, r0, #4
  61 001c 1346     		mov	r3, r2
  62 001e 0344     		add	r3, r3, r0
  63 0020 4193     		str	r3, [sp, #260]
  64              		.loc 1 206 0
  65 0022 C4F11F03 		rsb	r3, r4, #31
  66 0026 1493     		str	r3, [sp, #80]
  67 0028 A4F11F03 		sub	r3, r4, #31
  68              		.loc 1 202 0
  69 002c 04F1010C 		add	ip, r4, #1
  70 0030 1593     		str	r3, [sp, #84]
  71 0032 05F11403 		add	r3, r5, #20
  72              		.loc 1 192 0
  73 0036 3491     		str	r1, [sp, #208]
  74              	.LVL3:
  75 0038 3993     		str	r3, [sp, #228]
  76 003a CCF12001 		rsb	r1, ip, #32
  77              	.LVL4:
  78 003e 06F12003 		add	r3, r6, #32
  79 0042 3D92     		str	r2, [sp, #244]
  80 0044 4090     		str	r0, [sp, #256]
  81 0046 3291     		str	r1, [sp, #200]
  82 0048 3893     		str	r3, [sp, #224]
  83              	.LVL5:
  84              	.L7:
  85              		.loc 1 216 0
  86 004a 399A     		ldr	r2, [sp, #228]
  87 004c 52F8143C 		ldr	r3, [r2, #-20]
  88 0050 0E93     		str	r3, [sp, #56]
  89              	.LVL6:
  90              		.loc 1 217 0
  91 0052 1346     		mov	r3, r2
  92              	.LVL7:
  93 0054 52F8102C 		ldr	r2, [r2, #-16]
  94 0058 0F92     		str	r2, [sp, #60]
  95              	.LVL8:
  96              		.loc 1 218 0
  97 005a 1A46     		mov	r2, r3
  98              	.LVL9:
  99 005c 53F80C3C 		ldr	r3, [r3, #-12]
 100 0060 1093     		str	r3, [sp, #64]
 101              	.LVL10:
 102              		.loc 1 219 0
 103 0062 52F8083C 		ldr	r3, [r2, #-8]
 104              	.LVL11:
 105 0066 3A93     		str	r3, [sp, #232]
 106              	.LVL12:
 107              		.loc 1 220 0
 108 0068 52F8043C 		ldr	r3, [r2, #-4]
 109              	.LVL13:
 110              		.loc 1 223 0
 111 006c 389A     		ldr	r2, [sp, #224]
 112              		.loc 1 220 0
 113 006e 3B93     		str	r3, [sp, #236]
 114              	.LVL14:
ARM GAS  /tmp/ccuecsUq.s 			page 3


 115              		.loc 1 223 0
 116 0070 52F8203C 		ldr	r3, [r2, #-32]
 117              	.LVL15:
 118 0074 1293     		str	r3, [sp, #72]
 119              	.LVL16:
 120              		.loc 1 224 0
 121 0076 1346     		mov	r3, r2
 122              	.LVL17:
 123 0078 52F8182C 		ldr	r2, [r2, #-24]
 124 007c 0C92     		str	r2, [sp, #48]
 125              	.LVL18:
 126              		.loc 1 225 0
 127 007e 53E90401 		ldrd	r0, [r3, #-16]
 128              		.loc 1 226 0
 129 0082 53E90223 		ldrd	r2, [r3, #-8]
 130              	.LVL19:
 131 0086 CDE90223 		strd	r2, [sp, #8]
 132              		.loc 1 238 0
 133 008a 3E9B     		ldr	r3, [sp, #248]
 134              		.loc 1 225 0
 135 008c CDE90A01 		strd	r0, [sp, #40]
 136              	.LVL20:
 137              		.loc 1 238 0
 138 0090 002B     		cmp	r3, #0
 139 0092 00F01C83 		beq	.L14
 140 0096 3A9B     		ldr	r3, [sp, #232]
 141              	.LVL21:
 142 0098 1846     		mov	r0, r3
 143              	.LVL22:
 144 009a D917     		asrs	r1, r3, #31
 145 009c 3B9B     		ldr	r3, [sp, #236]
 146 009e 1C46     		mov	r4, r3
 147 00a0 DD17     		asrs	r5, r3, #31
 148 00a2 349B     		ldr	r3, [sp, #208]
 149 00a4 1033     		adds	r3, r3, #16
 150 00a6 0D93     		str	r3, [sp, #52]
 151 00a8 3D9B     		ldr	r3, [sp, #244]
 152 00aa CDE90445 		strd	r4, [sp, #16]
 153 00ae 1033     		adds	r3, r3, #16
 154 00b0 DDE90245 		ldrd	r4, [sp, #8]
 155 00b4 1193     		str	r3, [sp, #68]
 156 00b6 3E9B     		ldr	r3, [sp, #248]
 157 00b8 3593     		str	r3, [sp, #212]
 158 00ba 0023     		movs	r3, #0
 159 00bc 1F46     		mov	r7, r3
 160 00be 2646     		mov	r6, r4
 161 00c0 159B     		ldr	r3, [sp, #84]
 162 00c2 2A93     		str	r3, [sp, #168]
 163 00c4 CDE90001 		strd	r0, [sp]
 164 00c8 CDE91867 		strd	r6, [sp, #96]
 165 00cc 4FEAE57B 		asr	fp, r5, #31
 166 00d0 329B     		ldr	r3, [sp, #200]
 167 00d2 3393     		str	r3, [sp, #204]
 168 00d4 CDF8D8B0 		str	fp, [sp, #216]
 169              	.LVL23:
 170              	.L4:
 171              	.LBB22:
ARM GAS  /tmp/ccuecsUq.s 			page 4


 172              	.LBB23:
 173              		.file 2 "/home/sbcu/Dropbox/pcb-layouts/axo-on-discovery-board/axoloti/platform_linux/../CMSIS//DS
 174              		.loc 2 560 0
 175 00d8 DDE90A89 		ldrd	r8, [sp, #40]
 176 00dc DDE90045 		ldrd	r4, [sp]
 177 00e0 A8FB0423 		umull	r2, r3, r8, r4
 178 00e4 CDE91623 		strd	r2, [sp, #88]
 179              	.LBE23:
 180              	.LBE22:
 181              		.loc 1 241 0
 182 00e8 0D98     		ldr	r0, [sp, #52]
 183              	.LBB36:
 184              	.LBB24:
 185              		.loc 2 560 0
 186 00ea 179B     		ldr	r3, [sp, #92]
 187 00ec 4FF0000B 		mov	fp, #0
 188 00f0 08FB05F1 		mul	r1, r8, r5
 189 00f4 04FB0B11 		mla	r1, r4, fp, r1
 190              	.LBE24:
 191              	.LBE36:
 192              		.loc 1 241 0
 193 00f8 50F8104C 		ldr	r4, [r0, #-16]
 194              	.LBB37:
 195              	.LBB38:
 196              		.loc 2 560 0
 197 00fc 1898     		ldr	r0, [sp, #96]
 198              	.LBE38:
 199              	.LBE37:
 200              	.LBB52:
 201              	.LBB25:
 202 00fe 1944     		add	r1, r1, r3
 203              		.loc 2 561 0
 204 0100 019B     		ldr	r3, [sp, #4]
 205              		.loc 2 560 0
 206 0102 1791     		str	r1, [sp, #92]
 207              	.LBE25:
 208              	.LBE52:
 209              		.loc 1 241 0
 210 0104 2546     		mov	r5, r4
 211              	.LVL24:
 212              	.LBB53:
 213              	.LBB39:
 214              		.loc 2 560 0
 215 0106 DDE90467 		ldrd	r6, [sp, #16]
 216              	.LBE39:
 217              	.LBE53:
 218              	.LBB54:
 219              	.LBB26:
 220              		.loc 2 561 0
 221 010a 4C46     		mov	r4, r9
 222              	.LVL25:
 223              		.loc 2 560 0
 224 010c C246     		mov	r10, r8
 225              		.loc 2 561 0
 226 010e 4FEAE97E 		asr	lr, r9, #31
 227 0112 04FB03F4 		mul	r4, r4, r3
 228 0116 DDE90089 		ldrd	r8, [sp]
ARM GAS  /tmp/ccuecsUq.s 			page 5


 229              	.LBE26:
 230              	.LBE54:
 231              	.LBB55:
 232              	.LBB40:
 233              		.loc 2 560 0
 234 011a DDE91823 		ldrd	r2, [sp, #96]
 235 011e 00FB07F0 		mul	r0, r0, r7
 236 0122 06FB0300 		mla	r0, r6, r3, r0
 237              	.LBE40:
 238              	.LBE55:
 239              	.LBB56:
 240              	.LBB27:
 241 0126 1C91     		str	r1, [sp, #112]
 242 0128 179B     		ldr	r3, [sp, #92]
 243              	.LBE27:
 244              	.LBE56:
 245              		.loc 1 246 0
 246 012a 1A95     		str	r5, [sp, #104]
 247              	.LBB57:
 248              	.LBB28:
 249              		.loc 2 561 0
 250 012c 0EFB0841 		mla	r1, lr, r8, r4
 251 0130 0C46     		mov	r4, r1
 252 0132 0B99     		ldr	r1, [sp, #44]
 253              	.LBE28:
 254              	.LBE57:
 255              	.LBB58:
 256              	.LBB41:
 257              		.loc 2 560 0
 258 0134 A2FB0667 		umull	r6, r7, r2, r6
 259              	.LBE41:
 260              	.LBE58:
 261              	.LBB59:
 262              	.LBB29:
 263 0138 DB17     		asrs	r3, r3, #31
 264              	.LBE29:
 265              	.LBE59:
 266              	.LBB60:
 267              	.LBB42:
 268 013a C219     		adds	r2, r0, r7
 269              	.LBE42:
 270              	.LBE60:
 271              	.LBB61:
 272              	.LBB30:
 273 013c 1D93     		str	r3, [sp, #116]
 274              		.loc 2 561 0
 275 013e A1FB0801 		umull	r0, r1, r1, r8
 276              	.LBE30:
 277              	.LBE61:
 278              		.loc 1 246 0
 279 0142 0E9B     		ldr	r3, [sp, #56]
 280              	.LBB62:
 281              	.LBB43:
 282              		.loc 2 560 0
 283 0144 1E92     		str	r2, [sp, #120]
 284              	.LBE43:
 285              	.LBE62:
ARM GAS  /tmp/ccuecsUq.s 			page 6


 286              	.LBB63:
 287              	.LBB31:
 288              		.loc 2 561 0
 289 0146 8946     		mov	r9, r1
 290 0148 8046     		mov	r8, r0
 291 014a CDE91889 		strd	r8, [sp, #96]
 292              	.LBE31:
 293              	.LBE63:
 294              		.loc 1 246 0
 295 014e 85FB0301 		smull	r0, r1, r5, r3
 296              	.LVL26:
 297              	.LBB64:
 298              	.LBB32:
 299              		.loc 2 561 0
 300 0152 4B46     		mov	r3, r9
 301              	.LBE32:
 302              	.LBE64:
 303              	.LBB65:
 304              	.LBB44:
 305 0154 DDE90289 		ldrd	r8, [sp, #8]
 306              	.LBE44:
 307              	.LBE65:
 308              	.LBB66:
 309              	.LBB33:
 310 0158 2344     		add	r3, r3, r4
 311              	.LBE33:
 312              	.LBE66:
 313              	.LBB67:
 314              	.LBB45:
 315 015a 059C     		ldr	r4, [sp, #20]
 316              	.LBE45:
 317              	.LBE67:
 318              	.LBB68:
 319              	.LBB34:
 320 015c 1993     		str	r3, [sp, #100]
 321              	.LBE34:
 322              	.LBE68:
 323              	.LBB69:
 324              	.LBB46:
 325 015e 09FB04F3 		mul	r3, r9, r4
 326              	.LBE46:
 327              	.LBE69:
 328              		.loc 1 249 0
 329 0162 129C     		ldr	r4, [sp, #72]
 330 0164 2546     		mov	r5, r4
 331              	.LVL27:
 332 0166 0F9C     		ldr	r4, [sp, #60]
 333              	.LBB70:
 334              	.LBB47:
 335              		.loc 2 560 0
 336 0168 1746     		mov	r7, r2
 337              	.LBE47:
 338              	.LBE70:
 339              		.loc 1 249 0
 340 016a C4FB0501 		smlal	r0, r1, r4, r5
 341              	.LVL28:
 342              	.LBB71:
ARM GAS  /tmp/ccuecsUq.s 			page 7


 343              	.LBB48:
 344              		.loc 2 561 0
 345 016e 049A     		ldr	r2, [sp, #16]
 346 0170 369D     		ldr	r5, [sp, #216]
 347 0172 05FB0236 		mla	r6, r5, r2, r3
 348 0176 049D     		ldr	r5, [sp, #16]
 349 0178 A9FB0523 		umull	r2, r3, r9, r5
 350              	.LBE48:
 351              	.LBE71:
 352              	.LBB72:
 353              	.LBB35:
 354              		.loc 2 560 0
 355 017c DDE91C45 		ldrd	r4, [sp, #112]
 356 0180 DDE91889 		ldrd	r8, [sp, #96]
 357 0184 18EB0408 		adds	r8, r8, r4
 358 0188 49EB0509 		adc	r9, r9, r5
 359 018c 4446     		mov	r4, r8
 360 018e 4D46     		mov	r5, r9
 361 0190 CDE91645 		strd	r4, [sp, #88]
 362              	.LBE35:
 363              	.LBE72:
 364              		.loc 1 252 0
 365 0194 0C9D     		ldr	r5, [sp, #48]
 366 0196 A846     		mov	r8, r5
 367 0198 109D     		ldr	r5, [sp, #64]
 368              	.LBB73:
 369              	.LBB49:
 370              		.loc 2 560 0
 371 019a FF17     		asrs	r7, r7, #31
 372 019c 1F97     		str	r7, [sp, #124]
 373              	.LBE49:
 374              	.LBE73:
 375              		.loc 1 252 0
 376 019e C5FB0801 		smlal	r0, r1, r5, r8
 377              	.LVL29:
 378              		.loc 1 255 0
 379 01a2 DDE91645 		ldrd	r4, [sp, #88]
 380              	.LBB74:
 381              	.LBB50:
 382              		.loc 2 561 0
 383 01a6 3344     		add	r3, r3, r6
 384              		.loc 2 560 0
 385 01a8 DDE91E67 		ldrd	r6, [sp, #120]
 386              	.LBE50:
 387              	.LBE74:
 388              		.loc 1 255 0
 389 01ac 2418     		adds	r4, r4, r0
 390 01ae 4D41     		adcs	r5, r5, r1
 391              	.LVL30:
 392              	.LBB75:
 393              	.LBB51:
 394              		.loc 2 560 0
 395 01b0 B618     		adds	r6, r6, r2
 396 01b2 5F41     		adcs	r7, r7, r3
 397              	.LBE51:
 398              	.LBE75:
 399              		.loc 1 258 0
ARM GAS  /tmp/ccuecsUq.s 			page 8


 400 01b4 A019     		adds	r0, r4, r6
 401 01b6 45EB0701 		adc	r1, r5, r7
 402              	.LVL31:
 403              		.loc 1 261 0
 404 01ba 01FA0CF6 		lsl	r6, r1, ip
 405 01be 0796     		str	r6, [sp, #28]
 406 01c0 2A9E     		ldr	r6, [sp, #168]
 407 01c2 00FA06F3 		lsl	r3, r0, r6
 408 01c6 079E     		ldr	r6, [sp, #28]
 409 01c8 1E43     		orrs	r6, r6, r3
 410 01ca 0796     		str	r6, [sp, #28]
 411 01cc 339E     		ldr	r6, [sp, #204]
 412 01ce 20FA06F3 		lsr	r3, r0, r6
 413 01d2 079E     		ldr	r6, [sp, #28]
 414 01d4 1E43     		orrs	r6, r6, r3
 415 01d6 0796     		str	r6, [sp, #28]
 416 01d8 00FA0CF6 		lsl	r6, r0, ip
 417 01dc 0696     		str	r6, [sp, #24]
 418              	.LVL32:
 419              	.LBB76:
 420              	.LBB77:
 421              		.loc 2 560 0
 422 01de DDE90667 		ldrd	r6, [sp, #24]
 423 01e2 DDE90089 		ldrd	r8, [sp]
 424 01e6 3446     		mov	r4, r6
 425              	.LBE77:
 426              	.LBE76:
 427              		.loc 1 270 0
 428 01e8 149E     		ldr	r6, [sp, #80]
 429              	.LBB93:
 430              	.LBB78:
 431              		.loc 2 560 0
 432 01ea 4B46     		mov	r3, r9
 433 01ec 0027     		movs	r7, #0
 434              	.LBE78:
 435              	.LBE93:
 436              		.loc 1 270 0
 437 01ee F040     		lsrs	r0, r0, r6
 438              	.LVL33:
 439              	.LBB94:
 440              	.LBB79:
 441              		.loc 2 560 0
 442 01f0 04FB03F3 		mul	r3, r4, r3
 443              	.LBE79:
 444              	.LBE94:
 445              		.loc 1 270 0
 446 01f4 01FA0CF2 		lsl	r2, r1, ip
 447              	.LBB95:
 448              	.LBB80:
 449              		.loc 2 560 0
 450 01f8 3D46     		mov	r5, r7
 451              	.LBE80:
 452              	.LBE95:
 453              		.loc 1 270 0
 454 01fa 0243     		orrs	r2, r2, r0
 455              	.LVL34:
 456              	.LBB96:
ARM GAS  /tmp/ccuecsUq.s 			page 9


 457              	.LBB81:
 458              		.loc 2 560 0
 459 01fc 08FB0730 		mla	r0, r8, r7, r3
 460              		.loc 2 561 0
 461 0200 DDE90667 		ldrd	r6, [sp, #24]
 462              	.LBE81:
 463              	.LBE96:
 464              		.loc 1 273 0
 465 0204 119B     		ldr	r3, [sp, #68]
 466              	.LBB97:
 467              	.LBB82:
 468              		.loc 2 561 0
 469 0206 019E     		ldr	r6, [sp, #4]
 470              	.LBE82:
 471              	.LBE97:
 472              		.loc 1 273 0
 473 0208 43F8102C 		str	r2, [r3, #-16]
 474              	.LVL35:
 475              	.LBB98:
 476              	.LBB83:
 477              		.loc 2 560 0
 478 020c 2146     		mov	r1, r4
 479              		.loc 2 561 0
 480 020e FA17     		asrs	r2, r7, #31
 481              	.LVL36:
 482              		.loc 2 560 0
 483 0210 CDE91845 		strd	r4, [sp, #96]
 484 0214 A1FB0845 		umull	r4, r5, r1, r8
 485              		.loc 2 561 0
 486 0218 3946     		mov	r1, r7
 487              	.LBE83:
 488              	.LBE98:
 489              		.loc 1 276 0
 490 021a 0D9F     		ldr	r7, [sp, #52]
 491              	.LBB99:
 492              	.LBB84:
 493              		.loc 2 561 0
 494 021c 2A92     		str	r2, [sp, #168]
 495              	.LBE84:
 496              	.LBE99:
 497              	.LBB100:
 498              	.LBB101:
 499              		.loc 2 560 0
 500 021e DDE90489 		ldrd	r8, [sp, #16]
 501              	.LBE101:
 502              	.LBE100:
 503              		.loc 1 276 0
 504 0222 57F80C2C 		ldr	r2, [r7, #-12]
 505 0226 1692     		str	r2, [sp, #88]
 506              	.LVL37:
 507              	.LBB112:
 508              	.LBB85:
 509              		.loc 2 560 0
 510 0228 2844     		add	r0, r0, r5
 511              	.LBE85:
 512              	.LBE112:
 513              		.loc 1 308 0
ARM GAS  /tmp/ccuecsUq.s 			page 10


 514 022a 57F8082C 		ldr	r2, [r7, #-8]
 515              	.LBB113:
 516              	.LBB86:
 517              		.loc 2 560 0
 518 022e 2090     		str	r0, [sp, #128]
 519 0230 0546     		mov	r5, r0
 520              		.loc 2 561 0
 521 0232 0098     		ldr	r0, [sp]
 522              	.LBE86:
 523              	.LBE113:
 524              		.loc 1 308 0
 525 0234 0C92     		str	r2, [sp, #48]
 526              	.LBB114:
 527              	.LBB102:
 528              		.loc 2 561 0
 529 0236 0B9A     		ldr	r2, [sp, #44]
 530              		.loc 2 560 0
 531 0238 049F     		ldr	r7, [sp, #16]
 532 023a 0AFB09F3 		mul	r3, r10, r9
 533              	.LVL38:
 534              	.LBE102:
 535              	.LBE114:
 536              	.LBB115:
 537              	.LBB87:
 538              		.loc 2 561 0
 539 023e 8146     		mov	r9, r0
 540 0240 2A98     		ldr	r0, [sp, #168]
 541              	.LBE87:
 542              	.LBE115:
 543              	.LBB116:
 544              	.LBB103:
 545              		.loc 2 560 0
 546 0242 08FB0B33 		mla	r3, r8, fp, r3
 547              	.LBE103:
 548              	.LBE116:
 549              	.LBB117:
 550              	.LBB88:
 551              		.loc 2 561 0
 552 0246 01FB06F1 		mul	r1, r1, r6
 553              	.LBE88:
 554              	.LBE117:
 555              	.LBB118:
 556              	.LBB104:
 557 024a 9046     		mov	r8, r2
 558 024c 059A     		ldr	r2, [sp, #20]
 559              	.LBE104:
 560              	.LBE118:
 561              	.LBB119:
 562              	.LBB89:
 563 024e 00FB0911 		mla	r1, r0, r9, r1
 564              	.LBE89:
 565              	.LBE119:
 566              	.LBB120:
 567              	.LBB105:
 568 0252 0498     		ldr	r0, [sp, #16]
 569              		.loc 2 560 0
 570 0254 AAFB0767 		umull	r6, r7, r10, r7
ARM GAS  /tmp/ccuecsUq.s 			page 11


 571              		.loc 2 561 0
 572 0258 08FB02FA 		mul	r10, r8, r2
 573 025c 0EFB00AE 		mla	lr, lr, r0, r10
 574 0260 0498     		ldr	r0, [sp, #16]
 575 0262 A8FB00AB 		umull	r10, fp, r8, r0
 576              	.LBE105:
 577              	.LBE120:
 578              	.LBB121:
 579              	.LBB90:
 580              		.loc 2 560 0
 581 0266 E817     		asrs	r0, r5, #31
 582 0268 2190     		str	r0, [sp, #132]
 583              		.loc 2 561 0
 584 026a 0798     		ldr	r0, [sp, #28]
 585              	.LBE90:
 586              	.LBE121:
 587              		.loc 1 284 0
 588 026c 169A     		ldr	r2, [sp, #88]
 589              	.LBB122:
 590              	.LBB91:
 591              		.loc 2 561 0
 592 026e A0FB0945 		umull	r4, r5, r0, r9
 593 0272 0D44     		add	r5, r5, r1
 594              	.LBE91:
 595              	.LBE122:
 596              		.loc 1 281 0
 597 0274 1A99     		ldr	r1, [sp, #104]
 598 0276 8846     		mov	r8, r1
 599 0278 0F99     		ldr	r1, [sp, #60]
 600 027a 88FB0101 		smull	r0, r1, r8, r1
 601              	.LVL39:
 602              		.loc 1 284 0
 603 027e 9046     		mov	r8, r2
 604 0280 0E9A     		ldr	r2, [sp, #56]
 605              	.LBB123:
 606              	.LBB106:
 607              		.loc 2 560 0
 608 0282 3B44     		add	r3, r3, r7
 609              	.LBE106:
 610              	.LBE123:
 611              		.loc 1 284 0
 612 0284 C2FB0801 		smlal	r0, r1, r2, r8
 613              	.LVL40:
 614              	.LBB124:
 615              	.LBB107:
 616              		.loc 2 560 0
 617 0288 2293     		str	r3, [sp, #136]
 618 028a 1F46     		mov	r7, r3
 619              	.LBE107:
 620              	.LBE124:
 621              	.LBB125:
 622              	.LBB92:
 623 028c DDE92023 		ldrd	r2, [sp, #128]
 624 0290 1219     		adds	r2, r2, r4
 625 0292 6B41     		adcs	r3, r3, r5
 626 0294 1D46     		mov	r5, r3
 627              	.LBE92:
ARM GAS  /tmp/ccuecsUq.s 			page 12


 628              	.LBE125:
 629              		.loc 1 287 0
 630 0296 129B     		ldr	r3, [sp, #72]
 631              	.LBB126:
 632              	.LBB108:
 633              		.loc 2 561 0
 634 0298 F344     		add	fp, fp, lr
 635              	.LBE108:
 636              	.LBE126:
 637              		.loc 1 287 0
 638 029a 9E46     		mov	lr, r3
 639 029c 109B     		ldr	r3, [sp, #64]
 640              	.LBB127:
 641              	.LBB109:
 642              		.loc 2 560 0
 643 029e FF17     		asrs	r7, r7, #31
 644              	.LBE109:
 645              	.LBE127:
 646              		.loc 1 287 0
 647 02a0 C3FB0E01 		smlal	r0, r1, r3, lr
 648              	.LVL41:
 649              		.loc 1 290 0
 650 02a4 1418     		adds	r4, r2, r0
 651              	.LBB128:
 652              	.LBB110:
 653              		.loc 2 560 0
 654 02a6 2397     		str	r7, [sp, #140]
 655              	.LBE110:
 656              	.LBE128:
 657              		.loc 1 290 0
 658 02a8 4D41     		adcs	r5, r5, r1
 659              	.LVL42:
 660              	.LBB129:
 661              	.LBB111:
 662              		.loc 2 560 0
 663 02aa DDE92201 		ldrd	r0, [sp, #136]
 664 02ae 10EB0A00 		adds	r0, r0, r10
 665 02b2 41EB0B01 		adc	r1, r1, fp
 666              	.LBE111:
 667              	.LBE129:
 668              		.loc 1 293 0
 669 02b6 0619     		adds	r6, r0, r4
 670 02b8 41EB0507 		adc	r7, r1, r5
 671              		.loc 1 296 0
 672 02bc 07FA0CF0 		lsl	r0, r7, ip
 673 02c0 0990     		str	r0, [sp, #36]
 674 02c2 1598     		ldr	r0, [sp, #84]
 675 02c4 099C     		ldr	r4, [sp, #36]
 676              	.LVL43:
 677 02c6 3346     		mov	r3, r6
 678 02c8 8340     		lsls	r3, r3, r0
 679 02ca 1C43     		orrs	r4, r4, r3
 680 02cc 0994     		str	r4, [sp, #36]
 681 02ce 329C     		ldr	r4, [sp, #200]
 682 02d0 099D     		ldr	r5, [sp, #36]
 683 02d2 26FA04F3 		lsr	r3, r6, r4
 684 02d6 1D43     		orrs	r5, r5, r3
ARM GAS  /tmp/ccuecsUq.s 			page 13


 685 02d8 0995     		str	r5, [sp, #36]
 686 02da 06FA0CF5 		lsl	r5, r6, ip
 687              	.LBB130:
 688              	.LBB131:
 689              		.loc 2 560 0
 690 02de DDE90089 		ldrd	r8, [sp]
 691              	.LBE131:
 692              	.LBE130:
 693              		.loc 1 296 0
 694 02e2 0895     		str	r5, [sp, #32]
 695              	.LBB150:
 696              	.LBB132:
 697              		.loc 2 560 0
 698 02e4 DDE90801 		ldrd	r0, [sp, #32]
 699              	.LBE132:
 700              	.LBE150:
 701              		.loc 1 293 0
 702 02e8 B246     		mov	r10, r6
 703 02ea BB46     		mov	fp, r7
 704              	.LVL44:
 705              		.loc 1 296 0
 706 02ec CDE936AB 		strd	r10, [sp, #216]
 707              	.LVL45:
 708              	.LBB151:
 709              	.LBB133:
 710              		.loc 2 560 0
 711 02f0 4B46     		mov	r3, r9
 712              	.LBE133:
 713              	.LBE151:
 714              	.LBB152:
 715              	.LBB153:
 716 02f2 DDE904AB 		ldrd	r10, [sp, #16]
 717              	.LVL46:
 718              	.LBE153:
 719              	.LBE152:
 720              	.LBB170:
 721              	.LBB134:
 722 02f6 A0FB0867 		umull	r6, r7, r0, r8
 723 02fa 0446     		mov	r4, r0
 724 02fc 00FB03F3 		mul	r3, r0, r3
 725              	.LBE134:
 726              	.LBE170:
 727              	.LBB171:
 728              	.LBB154:
 729 0300 1898     		ldr	r0, [sp, #96]
 730              	.LVL47:
 731              	.LBE154:
 732              	.LBE171:
 733              	.LBB172:
 734              	.LBB135:
 735 0302 0021     		movs	r1, #0
 736 0304 0D46     		mov	r5, r1
 737              	.LBE135:
 738              	.LBE172:
 739              	.LBB173:
 740              	.LBB155:
 741 0306 00FB0BF1 		mul	r1, r0, fp
ARM GAS  /tmp/ccuecsUq.s 			page 14


 742 030a 1998     		ldr	r0, [sp, #100]
 743 030c 8646     		mov	lr, r0
 744 030e 1898     		ldr	r0, [sp, #96]
 745 0310 0AFB0E1E 		mla	lr, r10, lr, r1
 746              	.LBE155:
 747              	.LBE173:
 748              	.LBB174:
 749              	.LBB136:
 750 0314 08FB0533 		mla	r3, r8, r5, r3
 751              	.LBE136:
 752              	.LBE174:
 753              	.LBB175:
 754              	.LBB156:
 755 0318 A0FB0A01 		umull	r0, r1, r0, r10
 756 031c CDE91201 		strd	r0, [sp, #72]
 757              	.LVL48:
 758              	.LBE156:
 759              	.LBE175:
 760              	.LBB176:
 761              	.LBB137:
 762 0320 3B44     		add	r3, r3, r7
 763              	.LBE137:
 764              	.LBE176:
 765              	.LBB177:
 766              	.LBB157:
 767 0322 7246     		mov	r2, lr
 768              	.LBE157:
 769              	.LBE177:
 770              	.LBB178:
 771              	.LBB138:
 772 0324 1F46     		mov	r7, r3
 773 0326 2493     		str	r3, [sp, #144]
 774              	.LBE138:
 775              	.LBE178:
 776              	.LBB179:
 777              	.LBB158:
 778 0328 1346     		mov	r3, r2
 779 032a 139A     		ldr	r2, [sp, #76]
 780              		.loc 2 561 0
 781 032c 0798     		ldr	r0, [sp, #28]
 782              	.LBE158:
 783              	.LBE179:
 784              		.loc 1 317 0
 785 032e 0E99     		ldr	r1, [sp, #56]
 786              	.LBB180:
 787              	.LBB159:
 788              		.loc 2 560 0
 789 0330 9E18     		adds	r6, r3, r2
 790              	.LBE159:
 791              	.LBE180:
 792              	.LBB181:
 793              	.LBB139:
 794              		.loc 2 561 0
 795 0332 099B     		ldr	r3, [sp, #36]
 796 0334 DB17     		asrs	r3, r3, #31
 797              	.LBE139:
 798              	.LBE181:
ARM GAS  /tmp/ccuecsUq.s 			page 15


 799              	.LBB182:
 800              	.LBB160:
 801 0336 00FB0BFE 		mul	lr, r0, fp
 802              	.LBE160:
 803              	.LBE182:
 804              		.loc 1 317 0
 805 033a 0C98     		ldr	r0, [sp, #48]
 806              	.LBB183:
 807              	.LBB140:
 808              		.loc 2 561 0
 809 033c 3393     		str	r3, [sp, #204]
 810              	.LBE140:
 811              	.LBE183:
 812              	.LBB184:
 813              	.LBB161:
 814 033e 079B     		ldr	r3, [sp, #28]
 815 0340 2A9A     		ldr	r2, [sp, #168]
 816              		.loc 2 560 0
 817 0342 1396     		str	r6, [sp, #76]
 818              		.loc 2 561 0
 819 0344 02FB0AE2 		mla	r2, r2, r10, lr
 820 0348 9E46     		mov	lr, r3
 821              	.LBE161:
 822              	.LBE184:
 823              		.loc 1 320 0
 824 034a 169B     		ldr	r3, [sp, #88]
 825              	.LBB185:
 826              	.LBB162:
 827              		.loc 2 560 0
 828 034c 2696     		str	r6, [sp, #152]
 829              		.loc 2 561 0
 830 034e AEFB0A89 		umull	r8, r9, lr, r10
 831              	.LBE162:
 832              	.LBE185:
 833              	.LBB186:
 834              	.LBB141:
 835              		.loc 2 560 0
 836 0352 FF17     		asrs	r7, r7, #31
 837              		.loc 2 561 0
 838 0354 DDE908AB 		ldrd	r10, [sp, #32]
 839              	.LBE141:
 840              	.LBE186:
 841              		.loc 1 320 0
 842 0358 9E46     		mov	lr, r3
 843              	.LBB187:
 844              	.LBB142:
 845              		.loc 2 560 0
 846 035a 2597     		str	r7, [sp, #148]
 847              	.LBE142:
 848              	.LBE187:
 849              		.loc 1 320 0
 850 035c 0F9B     		ldr	r3, [sp, #60]
 851              	.LBB188:
 852              	.LBB143:
 853              		.loc 2 561 0
 854 035e 019F     		ldr	r7, [sp, #4]
 855              	.LBE143:
ARM GAS  /tmp/ccuecsUq.s 			page 16


 856              	.LBE188:
 857              		.loc 1 317 0
 858 0360 80FB0101 		smull	r0, r1, r0, r1
 859              		.loc 1 320 0
 860 0364 C3FB0E01 		smlal	r0, r1, r3, lr
 861              	.LBB189:
 862              	.LBB144:
 863              		.loc 2 561 0
 864 0368 0BFB07FE 		mul	lr, fp, r7
 865 036c 009F     		ldr	r7, [sp]
 866              	.LBE144:
 867              	.LBE189:
 868              	.LBB190:
 869              	.LBB163:
 870 036e 4A44     		add	r2, r2, r9
 871              	.LBE163:
 872              	.LBE190:
 873              	.LBB191:
 874              	.LBB145:
 875 0370 3B46     		mov	r3, r7
 876 0372 339F     		ldr	r7, [sp, #204]
 877              	.LBE145:
 878              	.LBE191:
 879              	.LBB192:
 880              	.LBB164:
 881 0374 CDE91889 		strd	r8, [sp, #96]
 882 0378 1992     		str	r2, [sp, #100]
 883              	.LBE164:
 884              	.LBE192:
 885              		.loc 1 323 0
 886 037a 1A9A     		ldr	r2, [sp, #104]
 887              	.LBB193:
 888              	.LBB146:
 889              		.loc 2 561 0
 890 037c 07FB03EE 		mla	lr, r7, r3, lr
 891 0380 ABFB0367 		umull	r6, r7, fp, r3
 892 0384 7744     		add	r7, r7, lr
 893              	.LBE146:
 894              	.LBE193:
 895              		.loc 1 323 0
 896 0386 9646     		mov	lr, r2
 897 0388 109A     		ldr	r2, [sp, #64]
 898              	.LBB194:
 899              	.LBB147:
 900              		.loc 2 560 0
 901 038a DDE92489 		ldrd	r8, [sp, #144]
 902              	.LBE147:
 903              	.LBE194:
 904              		.loc 1 323 0
 905 038e C2FB0E01 		smlal	r0, r1, r2, lr
 906              	.LBB195:
 907              	.LBB165:
 908              		.loc 2 560 0
 909 0392 139A     		ldr	r2, [sp, #76]
 910              	.LBE165:
 911              	.LBE195:
 912              	.LBB196:
ARM GAS  /tmp/ccuecsUq.s 			page 17


 913              	.LBB148:
 914 0394 18EB0608 		adds	r8, r8, r6
 915              	.LBE148:
 916              	.LBE196:
 917              	.LBB197:
 918              	.LBB166:
 919 0398 4FEAE272 		asr	r2, r2, #31
 920              	.LBE166:
 921              	.LBE197:
 922              	.LBB198:
 923              	.LBB149:
 924 039c 49EB0709 		adc	r9, r9, r7
 925              	.LBE149:
 926              	.LBE198:
 927              	.LBB199:
 928              	.LBB167:
 929 03a0 2792     		str	r2, [sp, #156]
 930              	.LBE167:
 931              	.LBE199:
 932              		.loc 1 326 0
 933 03a2 10EB0800 		adds	r0, r0, r8
 934              	.LBB200:
 935              	.LBB168:
 936              		.loc 2 560 0
 937 03a6 DDE918AB 		ldrd	r10, [sp, #96]
 938              	.LBE168:
 939              	.LBE200:
 940              		.loc 1 326 0
 941 03aa 41EB0901 		adc	r1, r1, r9
 942              	.LBB201:
 943              	.LBB169:
 944              		.loc 2 560 0
 945 03ae DDE92689 		ldrd	r8, [sp, #152]
 946 03b2 18EB0A08 		adds	r8, r8, r10
 947 03b6 49EB0B09 		adc	r9, r9, fp
 948              	.LBE169:
 949              	.LBE201:
 950              		.loc 1 329 0
 951 03ba 10EB0800 		adds	r0, r0, r8
 952 03be 41EB0901 		adc	r1, r1, r9
 953              		.loc 1 332 0
 954 03c2 01FA0CFE 		lsl	lr, r1, ip
 955 03c6 CDF80CE0 		str	lr, [sp, #12]
 956              	.LVL49:
 957 03ca 159F     		ldr	r7, [sp, #84]
 958 03cc 039E     		ldr	r6, [sp, #12]
 959 03ce 00FA07F2 		lsl	r2, r0, r7
 960 03d2 1643     		orrs	r6, r6, r2
 961 03d4 329A     		ldr	r2, [sp, #200]
 962              		.loc 1 305 0
 963 03d6 DDE936AB 		ldrd	r10, [sp, #216]
 964              		.loc 1 332 0
 965 03da 3346     		mov	r3, r6
 966              		.loc 1 341 0
 967 03dc 149E     		ldr	r6, [sp, #80]
 968              		.loc 1 332 0
 969 03de 20FA02F2 		lsr	r2, r0, r2
ARM GAS  /tmp/ccuecsUq.s 			page 18


 970 03e2 00FA0CFE 		lsl	lr, r0, ip
 971 03e6 1343     		orrs	r3, r3, r2
 972 03e8 CDF808E0 		str	lr, [sp, #8]
 973              		.loc 1 305 0
 974 03ec B646     		mov	lr, r6
 975              		.loc 1 332 0
 976 03ee 0393     		str	r3, [sp, #12]
 977              		.loc 1 341 0
 978 03f0 01FA0CF2 		lsl	r2, r1, ip
 979              		.loc 1 305 0
 980 03f4 2AFA0EFA 		lsr	r10, r10, lr
 981 03f8 0BFA0CF1 		lsl	r1, fp, ip
 982 03fc 41EA0A01 		orr	r1, r1, r10
 983              	.LVL50:
 984              	.LBB202:
 985              	.LBB203:
 986              		.loc 2 560 0
 987 0400 DDE902AB 		ldrd	r10, [sp, #8]
 988              	.LBE203:
 989              	.LBE202:
 990              		.loc 1 344 0
 991 0404 119B     		ldr	r3, [sp, #68]
 992              		.loc 1 341 0
 993 0406 F040     		lsrs	r0, r0, r6
 994 0408 1043     		orrs	r0, r0, r2
 995              	.LVL51:
 996              	.LBB219:
 997              	.LBB204:
 998              		.loc 2 560 0
 999 040a 4FF0000B 		mov	fp, #0
 1000              	.LBE204:
 1001              	.LBE219:
 1002              		.loc 1 344 0
 1003 040e 43F8080C 		str	r0, [r3, #-8]
 1004              	.LVL52:
 1005              		.loc 1 312 0
 1006 0412 43F80C1C 		str	r1, [r3, #-12]
 1007              	.LBB220:
 1008              	.LBB205:
 1009              		.loc 2 560 0
 1010 0416 CDE918AB 		strd	r10, [sp, #96]
 1011 041a DDE90089 		ldrd	r8, [sp]
 1012 041e 5246     		mov	r2, r10
 1013 0420 4946     		mov	r1, r9
 1014 0422 02FB01F2 		mul	r2, r2, r1
 1015              	.LBE205:
 1016              	.LBE220:
 1017              		.loc 1 347 0
 1018 0426 0D99     		ldr	r1, [sp, #52]
 1019              	.LBB221:
 1020              	.LBB206:
 1021              		.loc 2 561 0
 1022 0428 0198     		ldr	r0, [sp, #4]
 1023              	.LVL53:
 1024              	.LBE206:
 1025              	.LBE221:
 1026              		.loc 1 347 0
ARM GAS  /tmp/ccuecsUq.s 			page 19


 1027 042a 51F8041C 		ldr	r1, [r1, #-4]
 1028              	.LBB222:
 1029              	.LBB207:
 1030              		.loc 2 561 0
 1031 042e 039E     		ldr	r6, [sp, #12]
 1032              	.LBE207:
 1033              	.LBE222:
 1034              	.LBB223:
 1035              	.LBB224:
 1036 0430 339B     		ldr	r3, [sp, #204]
 1037              	.LBE224:
 1038              	.LBE223:
 1039              	.LBB237:
 1040              	.LBB208:
 1041              		.loc 2 560 0
 1042 0432 08FB0B22 		mla	r2, r8, fp, r2
 1043 0436 AAFB0889 		umull	r8, r9, r10, r8
 1044              	.LBE208:
 1045              	.LBE237:
 1046              	.LBB238:
 1047              	.LBB225:
 1048 043a DDE904AB 		ldrd	r10, [sp, #16]
 1049              	.LBE225:
 1050              	.LBE238:
 1051              		.loc 1 347 0
 1052 043e 0F46     		mov	r7, r1
 1053              	.LVL54:
 1054              	.LBB239:
 1055              	.LBB226:
 1056              		.loc 2 560 0
 1057 0440 04FB0BF1 		mul	r1, r4, fp
 1058              	.LVL55:
 1059              	.LBE226:
 1060              	.LBE239:
 1061              	.LBB240:
 1062              	.LBB209:
 1063 0444 4A44     		add	r2, r2, r9
 1064              	.LBE209:
 1065              	.LBE240:
 1066              	.LBB241:
 1067              	.LBB227:
 1068 0446 0AFB0511 		mla	r1, r10, r5, r1
 1069              	.LBE227:
 1070              	.LBE241:
 1071              	.LBB242:
 1072              	.LBB210:
 1073              		.loc 2 561 0
 1074 044a 039D     		ldr	r5, [sp, #12]
 1075              		.loc 2 560 0
 1076 044c 2892     		str	r2, [sp, #160]
 1077 044e CDE91A89 		strd	r8, [sp, #104]
 1078 0452 1B92     		str	r2, [sp, #108]
 1079              		.loc 2 561 0
 1080 0454 009A     		ldr	r2, [sp]
 1081              	.LBE210:
 1082              	.LBE242:
 1083              		.loc 1 351 0
ARM GAS  /tmp/ccuecsUq.s 			page 20


 1084 0456 1297     		str	r7, [sp, #72]
 1085              	.LBB243:
 1086              	.LBB211:
 1087              		.loc 2 561 0
 1088 0458 F617     		asrs	r6, r6, #31
 1089 045a 05FB00FE 		mul	lr, r5, r0
 1090              	.LBE211:
 1091              	.LBE243:
 1092              	.LBB244:
 1093              	.LBB228:
 1094 045e 099D     		ldr	r5, [sp, #36]
 1095              	.LBE228:
 1096              	.LBE244:
 1097              	.LBB245:
 1098              	.LBB212:
 1099 0460 3696     		str	r6, [sp, #216]
 1100 0462 06FB02EE 		mla	lr, r6, r2, lr
 1101              	.LBE212:
 1102              	.LBE245:
 1103              	.LBB246:
 1104              	.LBB229:
 1105 0466 099A     		ldr	r2, [sp, #36]
 1106              		.loc 2 560 0
 1107 0468 A4FB0A89 		umull	r8, r9, r4, r10
 1108              		.loc 2 561 0
 1109 046c 05FB0BF0 		mul	r0, r5, fp
 1110              	.LBE229:
 1111              	.LBE246:
 1112              		.loc 1 351 0
 1113 0470 0E9C     		ldr	r4, [sp, #56]
 1114              	.LBB247:
 1115              	.LBB230:
 1116              		.loc 2 561 0
 1117 0472 03FB0A00 		mla	r0, r3, r10, r0
 1118 0476 A2FB0AAB 		umull	r10, fp, r2, r10
 1119              	.LBE230:
 1120              	.LBE247:
 1121              		.loc 1 354 0
 1122 047a 0F9B     		ldr	r3, [sp, #60]
 1123 047c 0C9A     		ldr	r2, [sp, #48]
 1124              		.loc 1 351 0
 1125 047e 87FB0445 		smull	r4, r5, r7, r4
 1126              	.LVL56:
 1127              		.loc 1 354 0
 1128 0482 C3FB0245 		smlal	r4, r5, r3, r2
 1129              	.LVL57:
 1130              	.LBB248:
 1131              	.LBB213:
 1132              		.loc 2 560 0
 1133 0486 1B9B     		ldr	r3, [sp, #108]
 1134              	.LBE213:
 1135              	.LBE248:
 1136              		.loc 1 357 0
 1137 0488 169F     		ldr	r7, [sp, #88]
 1138              	.LVL58:
 1139              	.LBB249:
 1140              	.LBB214:
ARM GAS  /tmp/ccuecsUq.s 			page 21


 1141              		.loc 2 560 0
 1142 048a DB17     		asrs	r3, r3, #31
 1143 048c 2993     		str	r3, [sp, #164]
 1144              		.loc 2 561 0
 1145 048e 039B     		ldr	r3, [sp, #12]
 1146              	.LBE214:
 1147              	.LBE249:
 1148              	.LBB250:
 1149              	.LBB231:
 1150              		.loc 2 560 0
 1151 0490 CDE92A89 		strd	r8, [sp, #168]
 1152 0494 4944     		add	r1, r1, r9
 1153              	.LBE231:
 1154              	.LBE250:
 1155              	.LBB251:
 1156              	.LBB215:
 1157              		.loc 2 561 0
 1158 0496 9846     		mov	r8, r3
 1159 0498 009B     		ldr	r3, [sp]
 1160              	.LBE215:
 1161              	.LBE251:
 1162              	.LBB252:
 1163              	.LBB232:
 1164              		.loc 2 560 0
 1165 049a 2B91     		str	r1, [sp, #172]
 1166 049c 2C91     		str	r1, [sp, #176]
 1167              	.LBE232:
 1168              	.LBE252:
 1169              		.loc 1 357 0
 1170 049e 1099     		ldr	r1, [sp, #64]
 1171              	.LBB253:
 1172              	.LBB216:
 1173              		.loc 2 561 0
 1174 04a0 A8FB0323 		umull	r2, r3, r8, r3
 1175              		.loc 2 560 0
 1176 04a4 DDE92889 		ldrd	r8, [sp, #160]
 1177              	.LBE216:
 1178              	.LBE253:
 1179              		.loc 1 357 0
 1180 04a8 C1FB0745 		smlal	r4, r5, r1, r7
 1181              	.LVL59:
 1182              	.LBB254:
 1183              	.LBB233:
 1184              		.loc 2 560 0
 1185 04ac 2B99     		ldr	r1, [sp, #172]
 1186              	.LBE233:
 1187              	.LBE254:
 1188              		.loc 1 366 0
 1189 04ae 159F     		ldr	r7, [sp, #84]
 1190              	.LBB255:
 1191              	.LBB217:
 1192              		.loc 2 560 0
 1193 04b0 18EB0208 		adds	r8, r8, r2
 1194              		.loc 2 561 0
 1195 04b4 7344     		add	r3, r3, lr
 1196              	.LBE217:
 1197              	.LBE255:
ARM GAS  /tmp/ccuecsUq.s 			page 22


 1198              	.LBB256:
 1199              	.LBB234:
 1200              		.loc 2 560 0
 1201 04b6 4FEAE171 		asr	r1, r1, #31
 1202              	.LBE234:
 1203              	.LBE256:
 1204              	.LBB257:
 1205              	.LBB218:
 1206 04ba 49EB0309 		adc	r9, r9, r3
 1207              	.LBE218:
 1208              	.LBE257:
 1209              	.LBB258:
 1210              	.LBB235:
 1211 04be 2D91     		str	r1, [sp, #180]
 1212              	.LBE235:
 1213              	.LBE258:
 1214              		.loc 1 360 0
 1215 04c0 14EB0804 		adds	r4, r4, r8
 1216              	.LVL60:
 1217 04c4 45EB0905 		adc	r5, r5, r9
 1218              	.LVL61:
 1219              	.LBB259:
 1220              	.LBB236:
 1221              		.loc 2 560 0
 1222 04c8 DDE92C89 		ldrd	r8, [sp, #176]
 1223              		.loc 2 561 0
 1224 04cc 8344     		add	fp, fp, r0
 1225              		.loc 2 560 0
 1226 04ce 18EB0A08 		adds	r8, r8, r10
 1227 04d2 49EB0B09 		adc	r9, r9, fp
 1228              	.LBE236:
 1229              	.LBE259:
 1230              		.loc 1 363 0
 1231 04d6 14EB0804 		adds	r4, r4, r8
 1232              	.LVL62:
 1233 04da 45EB0905 		adc	r5, r5, r9
 1234              	.LVL63:
 1235              		.loc 1 366 0
 1236 04de 05FA0CFE 		lsl	lr, r5, ip
 1237 04e2 04FA07F3 		lsl	r3, r4, r7
 1238 04e6 7146     		mov	r1, lr
 1239 04e8 1943     		orrs	r1, r1, r3
 1240 04ea 0B91     		str	r1, [sp, #44]
 1241              	.LVL64:
 1242 04ec 329E     		ldr	r6, [sp, #200]
 1243 04ee 0B98     		ldr	r0, [sp, #44]
 1244              		.loc 1 375 0
 1245 04f0 149B     		ldr	r3, [sp, #80]
 1246              		.loc 1 366 0
 1247 04f2 3396     		str	r6, [sp, #204]
 1248 04f4 24FA06F2 		lsr	r2, r4, r6
 1249 04f8 1043     		orrs	r0, r0, r2
 1250 04fa 0B90     		str	r0, [sp, #44]
 1251 04fc 0D98     		ldr	r0, [sp, #52]
 1252              		.loc 1 238 0
 1253 04fe 359E     		ldr	r6, [sp, #212]
 1254              		.loc 1 366 0
ARM GAS  /tmp/ccuecsUq.s 			page 23


 1255 0500 2A97     		str	r7, [sp, #168]
 1256              		.loc 1 375 0
 1257 0502 24FA03F3 		lsr	r3, r4, r3
 1258 0506 00F1100E 		add	lr, r0, #16
 1259 050a 05FA0CF1 		lsl	r1, r5, ip
 1260              		.loc 1 378 0
 1261 050e 1198     		ldr	r0, [sp, #68]
 1262 0510 CDF834E0 		str	lr, [sp, #52]
 1263              	.LVL65:
 1264              		.loc 1 375 0
 1265 0514 1943     		orrs	r1, r1, r3
 1266              		.loc 1 351 0
 1267 0516 129B     		ldr	r3, [sp, #72]
 1268              		.loc 1 378 0
 1269 0518 40F8041C 		str	r1, [r0, #-4]
 1270              		.loc 1 317 0
 1271 051c 0C99     		ldr	r1, [sp, #48]
 1272              		.loc 1 351 0
 1273 051e 4FEAE37B 		asr	fp, r3, #31
 1274              		.loc 1 366 0
 1275 0522 04FA0CF4 		lsl	r4, r4, ip
 1276              	.LVL66:
 1277 0526 1030     		adds	r0, r0, #16
 1278              		.loc 1 238 0
 1279 0528 013E     		subs	r6, r6, #1
 1280              		.loc 1 351 0
 1281 052a 1A46     		mov	r2, r3
 1282              		.loc 1 366 0
 1283 052c 0A94     		str	r4, [sp, #40]
 1284              	.LVL67:
 1285              		.loc 1 351 0
 1286 052e 5B46     		mov	r3, fp
 1287 0530 1190     		str	r0, [sp, #68]
 1288              		.loc 1 317 0
 1289 0532 8A46     		mov	r10, r1
 1290 0534 4FEAE17B 		asr	fp, r1, #31
 1291              		.loc 1 238 0
 1292 0538 3596     		str	r6, [sp, #212]
 1293 053a 7FF4CDAD 		bne	.L4
 1294 053e CDE91623 		strd	r2, [sp, #88]
 1295 0542 1646     		mov	r6, r2
 1296              	.LVL68:
 1297 0544 1F46     		mov	r7, r3
 1298 0546 409A     		ldr	r2, [sp, #256]
 1299 0548 349B     		ldr	r3, [sp, #208]
 1300 054a 1344     		add	r3, r3, r2
 1301 054c 3493     		str	r3, [sp, #208]
 1302              		.loc 1 390 0
 1303 054e 419B     		ldr	r3, [sp, #260]
 1304 0550 0D93     		str	r3, [sp, #52]
 1305 0552 D046     		mov	r8, r10
 1306 0554 D946     		mov	r9, fp
 1307              	.LVL69:
 1308              	.L3:
 1309              		.loc 1 400 0
 1310 0556 3F9B     		ldr	r3, [sp, #252]
 1311 0558 002B     		cmp	r3, #0
ARM GAS  /tmp/ccuecsUq.s 			page 24


 1312 055a 00F0B080 		beq	.L8
 1313 055e 3A9A     		ldr	r2, [sp, #232]
 1314 0560 1193     		str	r3, [sp, #68]
 1315 0562 1046     		mov	r0, r2
 1316 0564 D117     		asrs	r1, r2, #31
 1317 0566 3B9A     		ldr	r2, [sp, #236]
 1318 0568 DDF848E0 		ldr	lr, [sp, #72]
 1319 056c 4FEAE27B 		asr	fp, r2, #31
 1320 0570 D946     		mov	r9, fp
 1321 0572 CDE90401 		strd	r0, [sp, #16]
 1322 0576 9046     		mov	r8, r2
 1323 0578 DDE90AAB 		ldrd	r10, [sp, #40]
 1324 057c 05E0     		b	.L6
 1325              	.LVL70:
 1326              	.L9:
 1327 057e CDE91601 		strd	r0, [sp, #88]
 1328              		.loc 1 403 0
 1329 0582 DDF800E0 		ldr	lr, [sp]
 1330              	.LVL71:
 1331              		.loc 1 428 0
 1332 0586 A246     		mov	r10, r4
 1333              	.LVL72:
 1334 0588 9B46     		mov	fp, r3
 1335              	.LVL73:
 1336              	.L6:
 1337              	.LBB260:
 1338              	.LBB261:
 1339              		.loc 2 560 0
 1340 058a DDE90467 		ldrd	r6, [sp, #16]
 1341 058e 0023     		movs	r3, #0
 1342 0590 0AFB07F4 		mul	r4, r10, r7
 1343 0594 5246     		mov	r2, r10
 1344 0596 06FB0344 		mla	r4, r6, r3, r4
 1345 059a A2FB0623 		umull	r2, r3, r2, r6
 1346              	.LBE261:
 1347              	.LBE260:
 1348              		.loc 1 403 0
 1349 059e 3499     		ldr	r1, [sp, #208]
 1350              	.LBB267:
 1351              	.LBB262:
 1352              		.loc 2 560 0
 1353 05a0 1C44     		add	r4, r4, r3
 1354 05a2 2346     		mov	r3, r4
 1355              	.LBE262:
 1356              	.LBE267:
 1357              		.loc 1 403 0
 1358 05a4 51F8040B 		ldr	r0, [r1], #4
 1359 05a8 0090     		str	r0, [sp]
 1360              	.LBB268:
 1361              	.LBB263:
 1362              		.loc 2 560 0
 1363 05aa DB17     		asrs	r3, r3, #31
 1364 05ac 2F93     		str	r3, [sp, #188]
 1365              	.LBE263:
 1366              	.LBE268:
 1367              		.loc 1 403 0
 1368 05ae 3491     		str	r1, [sp, #208]
ARM GAS  /tmp/ccuecsUq.s 			page 25


 1369              	.LVL74:
 1370              	.LBB269:
 1371              	.LBB264:
 1372              		.loc 2 561 0
 1373 05b0 049B     		ldr	r3, [sp, #16]
 1374              		.loc 2 560 0
 1375 05b2 2E94     		str	r4, [sp, #184]
 1376              	.LBE264:
 1377              	.LBE269:
 1378              	.LBB270:
 1379              	.LBB271:
 1380 05b4 DDE90201 		ldrd	r0, [sp, #8]
 1381              	.LVL75:
 1382              	.LBE271:
 1383              	.LBE270:
 1384              	.LBB278:
 1385              	.LBB265:
 1386              		.loc 2 561 0
 1387 05b8 0BFB07F4 		mul	r4, fp, r7
 1388 05bc 4FEAEB75 		asr	r5, fp, #31
 1389 05c0 05FB0642 		mla	r2, r5, r6, r4
 1390 05c4 ABFB0345 		umull	r4, r5, fp, r3
 1391 05c8 1544     		add	r5, r5, r2
 1392              	.LBE265:
 1393              	.LBE278:
 1394              	.LBB279:
 1395              	.LBB272:
 1396              		.loc 2 560 0
 1397 05ca 0021     		movs	r1, #0
 1398              	.LVL76:
 1399 05cc 00FB09F6 		mul	r6, r0, r9
 1400              	.LBE272:
 1401              	.LBE279:
 1402              		.loc 1 408 0
 1403 05d0 0E9B     		ldr	r3, [sp, #56]
 1404 05d2 009A     		ldr	r2, [sp]
 1405              		.loc 1 410 0
 1406 05d4 0F9F     		ldr	r7, [sp, #60]
 1407              	.LBB280:
 1408              	.LBB273:
 1409              		.loc 2 560 0
 1410 05d6 08FB0166 		mla	r6, r8, r1, r6
 1411 05da A0FB0801 		umull	r0, r1, r0, r8
 1412 05de 0E44     		add	r6, r6, r1
 1413              	.LBE273:
 1414              	.LBE280:
 1415              		.loc 1 408 0
 1416 05e0 82FB0323 		smull	r2, r3, r2, r3
 1417              	.LVL77:
 1418              		.loc 1 410 0
 1419 05e4 C7FB0E23 		smlal	r2, r3, r7, lr
 1420              	.LVL78:
 1421              	.LBB281:
 1422              	.LBB274:
 1423              		.loc 2 560 0
 1424 05e8 3146     		mov	r1, r6
 1425 05ea 3096     		str	r6, [sp, #192]
ARM GAS  /tmp/ccuecsUq.s 			page 26


 1426              	.LBE274:
 1427              	.LBE281:
 1428              	.LBB282:
 1429              	.LBB266:
 1430 05ec DDE92E67 		ldrd	r6, [sp, #184]
 1431 05f0 3619     		adds	r6, r6, r4
 1432 05f2 6F41     		adcs	r7, r7, r5
 1433 05f4 3446     		mov	r4, r6
 1434 05f6 3D46     		mov	r5, r7
 1435              	.LBE266:
 1436              	.LBE282:
 1437              		.loc 1 412 0
 1438 05f8 0C9E     		ldr	r6, [sp, #48]
 1439 05fa 109F     		ldr	r7, [sp, #64]
 1440 05fc CDF830E0 		str	lr, [sp, #48]
 1441              	.LVL79:
 1442              	.LBB283:
 1443              	.LBB275:
 1444              		.loc 2 560 0
 1445 0600 C917     		asrs	r1, r1, #31
 1446 0602 3191     		str	r1, [sp, #196]
 1447              		.loc 2 561 0
 1448 0604 0399     		ldr	r1, [sp, #12]
 1449              	.LBE275:
 1450              	.LBE283:
 1451              		.loc 1 412 0
 1452 0606 C7FB0623 		smlal	r2, r3, r7, r6
 1453              	.LVL80:
 1454              		.loc 1 414 0
 1455 060a A418     		adds	r4, r4, r2
 1456              	.LBB284:
 1457              	.LBB276:
 1458              		.loc 2 561 0
 1459 060c 4FEAE176 		asr	r6, r1, #31
 1460              	.LVL81:
 1461 0610 01FB09F1 		mul	r1, r1, r9
 1462 0614 06FB0816 		mla	r6, r6, r8, r1
 1463              	.LBE276:
 1464              	.LBE284:
 1465              		.loc 1 414 0
 1466 0618 5D41     		adcs	r5, r5, r3
 1467              	.LVL82:
 1468              	.LBB285:
 1469              	.LBB277:
 1470              		.loc 2 561 0
 1471 061a 0399     		ldr	r1, [sp, #12]
 1472              		.loc 2 560 0
 1473 061c DDE93023 		ldrd	r2, [sp, #192]
 1474              		.loc 2 561 0
 1475 0620 A1FB0801 		umull	r0, r1, r1, r8
 1476              		.loc 2 560 0
 1477 0624 1218     		adds	r2, r2, r0
 1478              		.loc 2 561 0
 1479 0626 3144     		add	r1, r1, r6
 1480              		.loc 2 560 0
 1481 0628 4B41     		adcs	r3, r3, r1
 1482              	.LBE277:
ARM GAS  /tmp/ccuecsUq.s 			page 27


 1483              	.LBE285:
 1484              		.loc 1 416 0
 1485 062a A418     		adds	r4, r4, r2
 1486              	.LVL83:
 1487              		.loc 1 428 0
 1488 062c 159A     		ldr	r2, [sp, #84]
 1489              		.loc 1 416 0
 1490 062e 5D41     		adcs	r5, r5, r3
 1491              	.LVL84:
 1492              		.loc 1 428 0
 1493 0630 04FA02F0 		lsl	r0, r4, r2
 1494 0634 05FA0CF3 		lsl	r3, r5, ip
 1495              		.loc 1 437 0
 1496 0638 149A     		ldr	r2, [sp, #80]
 1497 063a 1946     		mov	r1, r3
 1498              		.loc 1 428 0
 1499 063c 0343     		orrs	r3, r3, r0
 1500 063e 3298     		ldr	r0, [sp, #200]
 1501              		.loc 1 437 0
 1502 0640 24FA02F2 		lsr	r2, r4, r2
 1503              		.loc 1 428 0
 1504 0644 24FA00F5 		lsr	r5, r4, r0
 1505              		.loc 1 437 0
 1506 0648 0A43     		orrs	r2, r2, r1
 1507              		.loc 1 410 0
 1508 064a DDE91601 		ldrd	r0, [sp, #88]
 1509 064e 0F46     		mov	r7, r1
 1510              		.loc 1 440 0
 1511 0650 0D99     		ldr	r1, [sp, #52]
 1512 0652 41F8042B 		str	r2, [r1], #4
 1513              		.loc 1 408 0
 1514 0656 009A     		ldr	r2, [sp]
 1515              		.loc 1 440 0
 1516 0658 0D91     		str	r1, [sp, #52]
 1517              	.LVL85:
 1518              		.loc 1 410 0
 1519 065a 0646     		mov	r6, r0
 1520              		.loc 1 408 0
 1521 065c D117     		asrs	r1, r2, #31
 1522              	.LVL86:
 1523 065e 1046     		mov	r0, r2
 1524              		.loc 1 400 0
 1525 0660 119A     		ldr	r2, [sp, #68]
 1526 0662 013A     		subs	r2, r2, #1
 1527              		.loc 1 428 0
 1528 0664 43EA0503 		orr	r3, r3, r5
 1529 0668 04FA0CF4 		lsl	r4, r4, ip
 1530              	.LVL87:
 1531 066c CDE902AB 		strd	r10, [sp, #8]
 1532              	.LVL88:
 1533              		.loc 1 400 0
 1534 0670 1192     		str	r2, [sp, #68]
 1535 0672 84D1     		bne	.L9
 1536 0674 CDE90AAB 		strd	r10, [sp, #40]
 1537 0678 B046     		mov	r8, r6
 1538 067a B946     		mov	r9, r7
 1539 067c 0646     		mov	r6, r0
ARM GAS  /tmp/ccuecsUq.s 			page 28


 1540 067e 0F46     		mov	r7, r1
 1541 0680 2046     		mov	r0, r4
 1542              	.LVL89:
 1543              	.L5:
 1544              		.loc 1 458 0
 1545 0682 3899     		ldr	r1, [sp, #224]
 1546              		.loc 1 460 0
 1547 0684 41F80C3C 		str	r3, [r1, #-12]
 1548 0688 399B     		ldr	r3, [sp, #228]
 1549 068a 41F8100C 		str	r0, [r1, #-16]
 1550              		.loc 1 458 0
 1551 068e 0A46     		mov	r2, r1
 1552 0690 1433     		adds	r3, r3, #20
 1553 0692 3993     		str	r3, [sp, #228]
 1554              	.LVL90:
 1555 0694 1346     		mov	r3, r2
 1556 0696 2033     		adds	r3, r3, #32
 1557 0698 3893     		str	r3, [sp, #224]
 1558              	.LVL91:
 1559              		.loc 1 451 0
 1560 069a 3D9B     		ldr	r3, [sp, #244]
 1561 069c 3493     		str	r3, [sp, #208]
 1562              		.loc 1 458 0
 1563 069e 41E90867 		strd	r6, [r1, #-32]
 1564              		.loc 1 459 0
 1565 06a2 41E90689 		strd	r8, [r1, #-24]
 1566              	.LVL92:
 1567              		.loc 1 463 0
 1568 06a6 3C9B     		ldr	r3, [sp, #240]
 1569              		.loc 1 461 0
 1570 06a8 DDE90A01 		ldrd	r0, [sp, #40]
 1571              		.loc 1 463 0
 1572 06ac 013B     		subs	r3, r3, #1
 1573              	.LVL93:
 1574              		.loc 1 461 0
 1575 06ae 42E90201 		strd	r0, [r2, #-8]
 1576              		.loc 1 463 0
 1577 06b2 3C93     		str	r3, [sp, #240]
 1578 06b4 7FF4C9AC 		bne	.L7
 1579              		.loc 1 557 0
 1580 06b8 43B0     		add	sp, sp, #268
 1581              		.cfi_remember_state
 1582              		.cfi_def_cfa_offset 36
 1583              		@ sp needed
 1584 06ba BDE8F08F 		pop	{r4, r5, r6, r7, r8, r9, r10, fp, pc}
 1585              	.LVL94:
 1586              	.L8:
 1587              		.cfi_restore_state
 1588              		.loc 1 400 0
 1589 06be DDE90A23 		ldrd	r2, [sp, #40]
 1590 06c2 DDE90245 		ldrd	r4, [sp, #8]
 1591 06c6 1046     		mov	r0, r2
 1592 06c8 CDE90A45 		strd	r4, [sp, #40]
 1593              	.LVL95:
 1594 06cc D9E7     		b	.L5
 1595              	.LVL96:
 1596              	.L14:
ARM GAS  /tmp/ccuecsUq.s 			page 29


 1597 06ce 129B     		ldr	r3, [sp, #72]
 1598              	.LVL97:
 1599 06d0 D917     		asrs	r1, r3, #31
 1600 06d2 1846     		mov	r0, r3
 1601              	.LVL98:
 1602 06d4 1E46     		mov	r6, r3
 1603 06d6 0C9B     		ldr	r3, [sp, #48]
 1604 06d8 9846     		mov	r8, r3
 1605 06da 4FEAE379 		asr	r9, r3, #31
 1606              		.loc 1 238 0
 1607 06de 3D9B     		ldr	r3, [sp, #244]
 1608 06e0 0D93     		str	r3, [sp, #52]
 1609 06e2 CDE91601 		strd	r0, [sp, #88]
 1610 06e6 0F46     		mov	r7, r1
 1611 06e8 35E7     		b	.L3
 1612              		.cfi_endproc
 1613              	.LFE135:
 1614              		.size	arm_biquad_cas_df1_32x64_q31, .-arm_biquad_cas_df1_32x64_q31
 1615              	.Letext0:
 1616              		.file 3 "/home/sbcu/Dropbox/pcb-layouts/axo-on-discovery-board/axoloti/platform_linux/arm-none-eab
 1617              		.file 4 "/home/sbcu/Dropbox/pcb-layouts/axo-on-discovery-board/axoloti/platform_linux/arm-none-eab