ARM GAS  /tmp/ccWfXb6d.s 			page 1


   1              		.syntax unified
   2              		.cpu cortex-m4
   3              		.eabi_attribute 27, 1
   4              		.eabi_attribute 28, 1
   5              		.fpu fpv4-sp-d16
   6              		.eabi_attribute 20, 1
   7              		.eabi_attribute 21, 1
   8              		.eabi_attribute 23, 3
   9              		.eabi_attribute 24, 1
  10              		.eabi_attribute 25, 1
  11              		.eabi_attribute 26, 1
  12              		.eabi_attribute 30, 2
  13              		.eabi_attribute 34, 1
  14              		.eabi_attribute 18, 4
  15              		.thumb
  16              		.file	"arm_cfft_q15.c"
  17              		.text
  18              	.Ltext0:
  19              		.cfi_sections	.debug_frame
  20              		.align	2
  21              		.p2align 4,,15
  22              		.global	arm_cfft_radix4by2_q15
  23              		.thumb
  24              		.thumb_func
  25              		.type	arm_cfft_radix4by2_q15, %function
  26              	arm_cfft_radix4by2_q15:
  27              	.LFB136:
  28              		.file 1 "/home/sbcu/Dropbox/pcb-layouts/axo-on-discovery-board/axoloti/platform_linux/../CMSIS//DS
  29              		.loc 1 150 0
  30              		.cfi_startproc
  31              		@ args = 0, pretend = 0, frame = 0
  32              		@ frame_needed = 0, uses_anonymous_args = 0
  33              	.LVL0:
  34 0000 2DE9F04F 		push	{r4, r5, r6, r7, r8, r9, r10, fp, lr}
  35              		.cfi_def_cfa_offset 36
  36              		.cfi_offset 4, -36
  37              		.cfi_offset 5, -32
  38              		.cfi_offset 6, -28
  39              		.cfi_offset 7, -24
  40              		.cfi_offset 8, -20
  41              		.cfi_offset 9, -16
  42              		.cfi_offset 10, -12
  43              		.cfi_offset 11, -8
  44              		.cfi_offset 14, -4
  45              		.loc 1 169 0
  46 0004 4D08     		lsrs	r5, r1, #1
  47              		.loc 1 150 0
  48 0006 81B0     		sub	sp, sp, #4
  49              		.cfi_def_cfa_offset 40
  50              		.loc 1 150 0
  51 0008 0446     		mov	r4, r0
  52              		.loc 1 159 0
  53 000a 00EB4107 		add	r7, r0, r1, lsl #1
  54              		.loc 1 150 0
  55 000e 1646     		mov	r6, r2
  56              	.LVL1:
  57              		.loc 1 169 0
ARM GAS  /tmp/ccWfXb6d.s 			page 2


  58 0010 4CD0     		beq	.L2
  59              		.loc 1 169 0 is_stmt 0 discriminator 3
  60 0012 BC46     		mov	ip, r7
  61 0014 8646     		mov	lr, r0
  62 0016 9146     		mov	r9, r2
  63 0018 2946     		mov	r1, r5
  64              	.LVL2:
  65              	.LBB26:
  66              	.LBB27:
  67              		.file 2 "/home/sbcu/Dropbox/pcb-layouts/axo-on-discovery-board/axoloti/platform_linux/../CMSIS//In
  68              		.loc 2 1467 0 is_stmt 1 discriminator 3
  69 001a 4FF00008 		mov	r8, #0
  70              	.LVL3:
  71              	.L3:
  72              	.LBE27:
  73              	.LBE26:
  74              		.loc 1 171 0 discriminator 3
  75 001e 59F8042B 		ldr	r2, [r9], #4
  76              	.LVL4:
  77              	.LBB29:
  78              	.LBB28:
  79              		.loc 2 1467 0 discriminator 3
  80 0022 DEF80030 		ldr	r3, [lr]
  81              	@ 1467 "/home/sbcu/Dropbox/pcb-layouts/axo-on-discovery-board/axoloti/platform_linux/../CMSIS//Incl
  82 0026 93FA28FA 		shadd16 r10, r3, r8
  83              	@ 0 "" 2
  84              	.LVL5:
  85              		.thumb
  86              	.LBE28:
  87              	.LBE29:
  88              	.LBB30:
  89              	.LBB31:
  90 002a DCF80000 		ldr	r0, [ip]
  91              	@ 1467 "/home/sbcu/Dropbox/pcb-layouts/axo-on-discovery-board/axoloti/platform_linux/../CMSIS//Incl
  92 002e 90FA28F0 		shadd16 r0, r0, r8
  93              	@ 0 "" 2
  94              	.LVL6:
  95              		.thumb
  96              	.LBE31:
  97              	.LBE30:
  98              	.LBB32:
  99              	.LBB33:
 100              		.loc 2 1507 0 discriminator 3
 101              	@ 1507 "/home/sbcu/Dropbox/pcb-layouts/axo-on-discovery-board/axoloti/platform_linux/../CMSIS//Incl
 102 0032 DAFA10FB 		qsub16 fp, r10, r0
 103              	@ 0 "" 2
 104              	.LVL7:
 105              		.thumb
 106              	.LBE33:
 107              	.LBE32:
 108              	.LBB34:
 109              	.LBB35:
 110              		.loc 2 1467 0 discriminator 3
 111              	@ 1467 "/home/sbcu/Dropbox/pcb-layouts/axo-on-discovery-board/axoloti/platform_linux/../CMSIS//Incl
 112 0036 9AFA20F0 		shadd16 r0, r10, r0
 113              	@ 0 "" 2
 114              	.LVL8:
ARM GAS  /tmp/ccWfXb6d.s 			page 3


 115              		.thumb
 116              	.LBE35:
 117              	.LBE34:
 118              		.loc 1 182 0 discriminator 3
 119 003a 4EF8040B 		str	r0, [lr], #4
 120              	.LVL9:
 121              	.LBB36:
 122              	.LBB37:
 123              		.loc 2 1705 0 discriminator 3
 124              	@ 1705 "/home/sbcu/Dropbox/pcb-layouts/axo-on-discovery-board/axoloti/platform_linux/../CMSIS//Incl
 125 003e 22FB0BF0 		smuad r0, r2, fp
 126              	@ 0 "" 2
 127              	.LVL10:
 128              		.thumb
 129              	.LBE37:
 130              	.LBE36:
 131              	.LBB38:
 132              	.LBB39:
 133              		.loc 2 1779 0 discriminator 3
 134              	@ 1779 "/home/sbcu/Dropbox/pcb-layouts/axo-on-discovery-board/axoloti/platform_linux/../CMSIS//Incl
 135 0042 42FB1BF2 		smusdx r2, r2, fp
 136              	@ 0 "" 2
 137              	.LVL11:
 138              		.thumb
 139              	.LBE39:
 140              	.LBE38:
 141              		.loc 1 198 0 discriminator 3
 142 0046 130C     		lsrs	r3, r2, #16
 143              	.LVL12:
 144 0048 1B04     		lsls	r3, r3, #16
 145 004a 43EA1043 		orr	r3, r3, r0, lsr #16
 146              		.loc 1 169 0 discriminator 3
 147 004e 0139     		subs	r1, r1, #1
 148              	.LVL13:
 149              		.loc 1 197 0 discriminator 3
 150 0050 4CF8043B 		str	r3, [ip], #4
 151              	.LVL14:
 152              		.loc 1 169 0 discriminator 3
 153 0054 E3D1     		bne	.L3
 154              		.loc 1 230 0
 155 0056 2946     		mov	r1, r5
 156 0058 2046     		mov	r0, r4
 157              	.LVL15:
 158 005a 3246     		mov	r2, r6
 159              	.LVL16:
 160 005c 0223     		movs	r3, #2
 161 005e FFF7FEFF 		bl	arm_radix4_butterfly_q15
 162              	.LVL17:
 163              		.loc 1 232 0
 164 0062 2946     		mov	r1, r5
 165 0064 0223     		movs	r3, #2
 166 0066 3846     		mov	r0, r7
 167 0068 3246     		mov	r2, r6
 168 006a FFF7FEFF 		bl	arm_radix4_butterfly_q15
 169              	.LVL18:
 170 006e 04EBC505 		add	r5, r4, r5, lsl #3
 171              	.LVL19:
ARM GAS  /tmp/ccWfXb6d.s 			page 4


 172 0072 A31C     		adds	r3, r4, #2
 173              	.LVL20:
 174              	.L5:
 175              		.loc 1 241 0 discriminator 3
 176 0074 33F9027C 		ldrsh	r7, [r3, #-2]
 177              		.loc 1 242 0 discriminator 3
 178 0078 B4F90260 		ldrsh	r6, [r4, #2]
 179              		.loc 1 243 0 discriminator 3
 180 007c B4F90400 		ldrsh	r0, [r4, #4]
 181              		.loc 1 244 0 discriminator 3
 182 0080 B4F90620 		ldrsh	r2, [r4, #6]
 183              		.loc 1 241 0 discriminator 3
 184 0084 7F00     		lsls	r7, r7, #1
 185              	.LVL21:
 186              		.loc 1 242 0 discriminator 3
 187 0086 7600     		lsls	r6, r6, #1
 188              	.LVL22:
 189              		.loc 1 243 0 discriminator 3
 190 0088 4000     		lsls	r0, r0, #1
 191              	.LVL23:
 192              		.loc 1 244 0 discriminator 3
 193 008a 5200     		lsls	r2, r2, #1
 194              	.LVL24:
 195              		.loc 1 241 0 discriminator 3
 196 008c 23F8027C 		strh	r7, [r3, #-2]	@ movhi
 197 0090 0834     		adds	r4, r4, #8
 198              		.loc 1 242 0 discriminator 3
 199 0092 24F8066C 		strh	r6, [r4, #-6]	@ movhi
 200              		.loc 1 243 0 discriminator 3
 201 0096 24F8040C 		strh	r0, [r4, #-4]	@ movhi
 202              		.loc 1 244 0 discriminator 3
 203 009a 24F8022C 		strh	r2, [r4, #-2]	@ movhi
 204              		.loc 1 234 0 discriminator 3
 205 009e AC42     		cmp	r4, r5
 206 00a0 03F10803 		add	r3, r3, #8
 207 00a4 E6D1     		bne	.L5
 208              		.loc 1 251 0
 209 00a6 01B0     		add	sp, sp, #4
 210              		.cfi_remember_state
 211              		.cfi_def_cfa_offset 36
 212              		@ sp needed
 213 00a8 BDE8F08F 		pop	{r4, r5, r6, r7, r8, r9, r10, fp, pc}
 214              	.LVL25:
 215              	.L2:
 216              		.cfi_restore_state
 217              		.loc 1 230 0
 218 00ac 2946     		mov	r1, r5
 219              	.LVL26:
 220 00ae 0223     		movs	r3, #2
 221 00b0 FFF7FEFF 		bl	arm_radix4_butterfly_q15
 222              	.LVL27:
 223              		.loc 1 232 0
 224 00b4 3846     		mov	r0, r7
 225 00b6 2946     		mov	r1, r5
 226 00b8 3246     		mov	r2, r6
 227 00ba 0223     		movs	r3, #2
 228              		.loc 1 251 0
ARM GAS  /tmp/ccWfXb6d.s 			page 5


 229 00bc 01B0     		add	sp, sp, #4
 230              		.cfi_def_cfa_offset 36
 231              		@ sp needed
 232 00be BDE8F04F 		pop	{r4, r5, r6, r7, r8, r9, r10, fp, lr}
 233              		.cfi_restore 14
 234              		.cfi_restore 11
 235              		.cfi_restore 10
 236              		.cfi_restore 9
 237              		.cfi_restore 8
 238              		.cfi_restore 7
 239              		.cfi_restore 6
 240              		.cfi_restore 5
 241              		.cfi_restore 4
 242              		.cfi_def_cfa_offset 0
 243              	.LVL28:
 244              		.loc 1 232 0
 245 00c2 FFF7FEBF 		b	arm_radix4_butterfly_q15
 246              	.LVL29:
 247              		.cfi_endproc
 248              	.LFE136:
 249              		.size	arm_cfft_radix4by2_q15, .-arm_cfft_radix4by2_q15
 250 00c6 00BF     		.align	2
 251 00c8 AFF30080 		.p2align 4,,15
 251      AFF30080 
 252              		.global	arm_cfft_radix4by2_inverse_q15
 253              		.thumb
 254              		.thumb_func
 255              		.type	arm_cfft_radix4by2_inverse_q15, %function
 256              	arm_cfft_radix4by2_inverse_q15:
 257              	.LFB137:
 258              		.loc 1 257 0
 259              		.cfi_startproc
 260              		@ args = 0, pretend = 0, frame = 0
 261              		@ frame_needed = 0, uses_anonymous_args = 0
 262              	.LVL30:
 263 00d0 2DE9F04F 		push	{r4, r5, r6, r7, r8, r9, r10, fp, lr}
 264              		.cfi_def_cfa_offset 36
 265              		.cfi_offset 4, -36
 266              		.cfi_offset 5, -32
 267              		.cfi_offset 6, -28
 268              		.cfi_offset 7, -24
 269              		.cfi_offset 8, -20
 270              		.cfi_offset 9, -16
 271              		.cfi_offset 10, -12
 272              		.cfi_offset 11, -8
 273              		.cfi_offset 14, -4
 274              		.loc 1 276 0
 275 00d4 4D08     		lsrs	r5, r1, #1
 276              		.loc 1 257 0
 277 00d6 81B0     		sub	sp, sp, #4
 278              		.cfi_def_cfa_offset 40
 279              		.loc 1 257 0
 280 00d8 0446     		mov	r4, r0
 281              		.loc 1 266 0
 282 00da 00EB4107 		add	r7, r0, r1, lsl #1
 283              		.loc 1 257 0
 284 00de 1646     		mov	r6, r2
ARM GAS  /tmp/ccWfXb6d.s 			page 6


 285              	.LVL31:
 286              		.loc 1 276 0
 287 00e0 4CD0     		beq	.L15
 288              		.loc 1 276 0 is_stmt 0 discriminator 3
 289 00e2 BC46     		mov	ip, r7
 290 00e4 8646     		mov	lr, r0
 291 00e6 9146     		mov	r9, r2
 292 00e8 2946     		mov	r1, r5
 293              	.LVL32:
 294              	.LBB40:
 295              	.LBB41:
 296              		.loc 2 1467 0 is_stmt 1 discriminator 3
 297 00ea 4FF00008 		mov	r8, #0
 298              	.LVL33:
 299              	.L16:
 300              	.LBE41:
 301              	.LBE40:
 302              		.loc 1 278 0 discriminator 3
 303 00ee 59F8042B 		ldr	r2, [r9], #4
 304              	.LVL34:
 305              	.LBB43:
 306              	.LBB42:
 307              		.loc 2 1467 0 discriminator 3
 308 00f2 DEF80030 		ldr	r3, [lr]
 309              	@ 1467 "/home/sbcu/Dropbox/pcb-layouts/axo-on-discovery-board/axoloti/platform_linux/../CMSIS//Incl
 310 00f6 93FA28FA 		shadd16 r10, r3, r8
 311              	@ 0 "" 2
 312              	.LVL35:
 313              		.thumb
 314              	.LBE42:
 315              	.LBE43:
 316              	.LBB44:
 317              	.LBB45:
 318 00fa DCF80000 		ldr	r0, [ip]
 319              	@ 1467 "/home/sbcu/Dropbox/pcb-layouts/axo-on-discovery-board/axoloti/platform_linux/../CMSIS//Incl
 320 00fe 90FA28F0 		shadd16 r0, r0, r8
 321              	@ 0 "" 2
 322              	.LVL36:
 323              		.thumb
 324              	.LBE45:
 325              	.LBE44:
 326              	.LBB46:
 327              	.LBB47:
 328              		.loc 2 1507 0 discriminator 3
 329              	@ 1507 "/home/sbcu/Dropbox/pcb-layouts/axo-on-discovery-board/axoloti/platform_linux/../CMSIS//Incl
 330 0102 DAFA10FB 		qsub16 fp, r10, r0
 331              	@ 0 "" 2
 332              	.LVL37:
 333              		.thumb
 334              	.LBE47:
 335              	.LBE46:
 336              	.LBB48:
 337              	.LBB49:
 338              		.loc 2 1467 0 discriminator 3
 339              	@ 1467 "/home/sbcu/Dropbox/pcb-layouts/axo-on-discovery-board/axoloti/platform_linux/../CMSIS//Incl
 340 0106 9AFA20F0 		shadd16 r0, r10, r0
 341              	@ 0 "" 2
ARM GAS  /tmp/ccWfXb6d.s 			page 7


 342              	.LVL38:
 343              		.thumb
 344              	.LBE49:
 345              	.LBE48:
 346              		.loc 1 289 0 discriminator 3
 347 010a 4EF8040B 		str	r0, [lr], #4
 348              	.LVL39:
 349              	.LBB50:
 350              	.LBB51:
 351              		.loc 2 1771 0 discriminator 3
 352              	@ 1771 "/home/sbcu/Dropbox/pcb-layouts/axo-on-discovery-board/axoloti/platform_linux/../CMSIS//Incl
 353 010e 42FB0BF0 		smusd r0, r2, fp
 354              	@ 0 "" 2
 355              	.LVL40:
 356              		.thumb
 357              	.LBE51:
 358              	.LBE50:
 359              	.LBB52:
 360              	.LBB53:
 361              		.loc 2 1713 0 discriminator 3
 362              	@ 1713 "/home/sbcu/Dropbox/pcb-layouts/axo-on-discovery-board/axoloti/platform_linux/../CMSIS//Incl
 363 0112 22FB1BF2 		smuadx r2, r2, fp
 364              	@ 0 "" 2
 365              	.LVL41:
 366              		.thumb
 367              	.LBE53:
 368              	.LBE52:
 369              		.loc 1 304 0 discriminator 3
 370 0116 130C     		lsrs	r3, r2, #16
 371              	.LVL42:
 372 0118 1B04     		lsls	r3, r3, #16
 373 011a 43EA1043 		orr	r3, r3, r0, lsr #16
 374              		.loc 1 276 0 discriminator 3
 375 011e 0139     		subs	r1, r1, #1
 376              	.LVL43:
 377              		.loc 1 303 0 discriminator 3
 378 0120 4CF8043B 		str	r3, [ip], #4
 379              	.LVL44:
 380              		.loc 1 276 0 discriminator 3
 381 0124 E3D1     		bne	.L16
 382              		.loc 1 335 0
 383 0126 2946     		mov	r1, r5
 384 0128 2046     		mov	r0, r4
 385              	.LVL45:
 386 012a 3246     		mov	r2, r6
 387              	.LVL46:
 388 012c 0223     		movs	r3, #2
 389 012e FFF7FEFF 		bl	arm_radix4_butterfly_inverse_q15
 390              	.LVL47:
 391              		.loc 1 337 0
 392 0132 2946     		mov	r1, r5
 393 0134 0223     		movs	r3, #2
 394 0136 3846     		mov	r0, r7
 395 0138 3246     		mov	r2, r6
 396 013a FFF7FEFF 		bl	arm_radix4_butterfly_inverse_q15
 397              	.LVL48:
 398 013e 04EBC505 		add	r5, r4, r5, lsl #3
ARM GAS  /tmp/ccWfXb6d.s 			page 8


 399              	.LVL49:
 400 0142 A31C     		adds	r3, r4, #2
 401              	.LVL50:
 402              	.L18:
 403              		.loc 1 346 0 discriminator 3
 404 0144 33F9027C 		ldrsh	r7, [r3, #-2]
 405              		.loc 1 347 0 discriminator 3
 406 0148 B4F90260 		ldrsh	r6, [r4, #2]
 407              		.loc 1 348 0 discriminator 3
 408 014c B4F90400 		ldrsh	r0, [r4, #4]
 409              		.loc 1 349 0 discriminator 3
 410 0150 B4F90620 		ldrsh	r2, [r4, #6]
 411              		.loc 1 346 0 discriminator 3
 412 0154 7F00     		lsls	r7, r7, #1
 413              	.LVL51:
 414              		.loc 1 347 0 discriminator 3
 415 0156 7600     		lsls	r6, r6, #1
 416              	.LVL52:
 417              		.loc 1 348 0 discriminator 3
 418 0158 4000     		lsls	r0, r0, #1
 419              	.LVL53:
 420              		.loc 1 349 0 discriminator 3
 421 015a 5200     		lsls	r2, r2, #1
 422              	.LVL54:
 423              		.loc 1 346 0 discriminator 3
 424 015c 23F8027C 		strh	r7, [r3, #-2]	@ movhi
 425 0160 0834     		adds	r4, r4, #8
 426              		.loc 1 347 0 discriminator 3
 427 0162 24F8066C 		strh	r6, [r4, #-6]	@ movhi
 428              		.loc 1 348 0 discriminator 3
 429 0166 24F8040C 		strh	r0, [r4, #-4]	@ movhi
 430              		.loc 1 349 0 discriminator 3
 431 016a 24F8022C 		strh	r2, [r4, #-2]	@ movhi
 432              		.loc 1 339 0 discriminator 3
 433 016e AC42     		cmp	r4, r5
 434 0170 03F10803 		add	r3, r3, #8
 435 0174 E6D1     		bne	.L18
 436              		.loc 1 356 0
 437 0176 01B0     		add	sp, sp, #4
 438              		.cfi_remember_state
 439              		.cfi_def_cfa_offset 36
 440              		@ sp needed
 441 0178 BDE8F08F 		pop	{r4, r5, r6, r7, r8, r9, r10, fp, pc}
 442              	.LVL55:
 443              	.L15:
 444              		.cfi_restore_state
 445              		.loc 1 335 0
 446 017c 2946     		mov	r1, r5
 447              	.LVL56:
 448 017e 0223     		movs	r3, #2
 449 0180 FFF7FEFF 		bl	arm_radix4_butterfly_inverse_q15
 450              	.LVL57:
 451              		.loc 1 337 0
 452 0184 3846     		mov	r0, r7
 453 0186 2946     		mov	r1, r5
 454 0188 3246     		mov	r2, r6
 455 018a 0223     		movs	r3, #2
ARM GAS  /tmp/ccWfXb6d.s 			page 9


 456              		.loc 1 356 0
 457 018c 01B0     		add	sp, sp, #4
 458              		.cfi_def_cfa_offset 36
 459              		@ sp needed
 460 018e BDE8F04F 		pop	{r4, r5, r6, r7, r8, r9, r10, fp, lr}
 461              		.cfi_restore 14
 462              		.cfi_restore 11
 463              		.cfi_restore 10
 464              		.cfi_restore 9
 465              		.cfi_restore 8
 466              		.cfi_restore 7
 467              		.cfi_restore 6
 468              		.cfi_restore 5
 469              		.cfi_restore 4
 470              		.cfi_def_cfa_offset 0
 471              	.LVL58:
 472              		.loc 1 337 0
 473 0192 FFF7FEBF 		b	arm_radix4_butterfly_inverse_q15
 474              	.LVL59:
 475              		.cfi_endproc
 476              	.LFE137:
 477              		.size	arm_cfft_radix4by2_inverse_q15, .-arm_cfft_radix4by2_inverse_q15
 478 0196 00BF     		.align	2
 479 0198 AFF30080 		.p2align 4,,15
 479      AFF30080 
 480              		.global	arm_cfft_q15
 481              		.thumb
 482              		.thumb_func
 483              		.type	arm_cfft_q15, %function
 484              	arm_cfft_q15:
 485              	.LFB135:
 486              		.loc 1 94 0
 487              		.cfi_startproc
 488              		@ args = 0, pretend = 0, frame = 0
 489              		@ frame_needed = 0, uses_anonymous_args = 0
 490              	.LVL60:
 491              		.loc 1 97 0
 492 01a0 012A     		cmp	r2, #1
 493              		.loc 1 94 0
 494 01a2 70B5     		push	{r4, r5, r6, lr}
 495              		.cfi_def_cfa_offset 16
 496              		.cfi_offset 4, -16
 497              		.cfi_offset 5, -12
 498              		.cfi_offset 6, -8
 499              		.cfi_offset 14, -4
 500              		.loc 1 94 0
 501 01a4 0D46     		mov	r5, r1
 502 01a6 0446     		mov	r4, r0
 503 01a8 1E46     		mov	r6, r3
 504              		.loc 1 95 0
 505 01aa 0188     		ldrh	r1, [r0]
 506              	.LVL61:
 507              		.loc 1 97 0
 508 01ac 24D0     		beq	.L95
 509              		.loc 1 119 0
 510 01ae B1F5807F 		cmp	r1, #256
 511 01b2 13D0     		beq	.L34
ARM GAS  /tmp/ccWfXb6d.s 			page 10


 512 01b4 08D8     		bhi	.L35
 513 01b6 2029     		cmp	r1, #32
 514 01b8 31D0     		beq	.L36
 515 01ba 45D9     		bls	.L96
 516 01bc 4029     		cmp	r1, #64
 517 01be 0DD0     		beq	.L34
 518 01c0 8029     		cmp	r1, #128
 519 01c2 2CD0     		beq	.L36
 520              	.LVL62:
 521              	.L28:
 522              		.loc 1 138 0
 523 01c4 8EB9     		cbnz	r6, .L97
 524              	.L26:
 525 01c6 70BD     		pop	{r4, r5, r6, pc}
 526              	.LVL63:
 527              	.L35:
 528              		.loc 1 119 0
 529 01c8 B1F5806F 		cmp	r1, #1024
 530 01cc 06D0     		beq	.L34
 531 01ce 23D9     		bls	.L98
 532 01d0 B1F5006F 		cmp	r1, #2048
 533 01d4 23D0     		beq	.L36
 534 01d6 B1F5805F 		cmp	r1, #4096
 535 01da F3D1     		bne	.L28
 536              	.L34:
 537              		.loc 1 126 0
 538 01dc 2846     		mov	r0, r5
 539              	.LVL64:
 540 01de 6268     		ldr	r2, [r4, #4]
 541              	.LVL65:
 542 01e0 0123     		movs	r3, #1
 543              	.LVL66:
 544 01e2 FFF7FEFF 		bl	arm_radix4_butterfly_q15
 545              	.LVL67:
 546              		.loc 1 138 0
 547 01e6 002E     		cmp	r6, #0
 548 01e8 EDD0     		beq	.L26
 549              	.L97:
 550              		.loc 1 139 0
 551 01ea 2846     		mov	r0, r5
 552 01ec A189     		ldrh	r1, [r4, #12]
 553 01ee A268     		ldr	r2, [r4, #8]
 554              		.loc 1 140 0
 555 01f0 BDE87040 		pop	{r4, r5, r6, lr}
 556              		.cfi_remember_state
 557              		.cfi_restore 14
 558              		.cfi_restore 6
 559              		.cfi_restore 5
 560              		.cfi_restore 4
 561              		.cfi_def_cfa_offset 0
 562              	.LVL68:
 563              		.loc 1 139 0
 564 01f4 FFF7FEBF 		b	arm_bitreversal_16
 565              	.LVL69:
 566              	.L95:
 567              		.cfi_restore_state
 568              		.loc 1 99 0
ARM GAS  /tmp/ccWfXb6d.s 			page 11


 569 01f8 B1F5807F 		cmp	r1, #256
 570 01fc 1ED0     		beq	.L29
 571 01fe 13D8     		bhi	.L30
 572 0200 2029     		cmp	r1, #32
 573 0202 04D0     		beq	.L31
 574 0204 27D9     		bls	.L99
 575 0206 4029     		cmp	r1, #64
 576 0208 18D0     		beq	.L29
 577 020a 8029     		cmp	r1, #128
 578 020c DAD1     		bne	.L28
 579              	.L31:
 580              		.loc 1 113 0
 581 020e 2846     		mov	r0, r5
 582              	.LVL70:
 583 0210 6268     		ldr	r2, [r4, #4]
 584              	.LVL71:
 585 0212 FFF7FEFF 		bl	arm_cfft_radix4by2_inverse_q15
 586              	.LVL72:
 587              		.loc 1 114 0
 588 0216 D5E7     		b	.L28
 589              	.LVL73:
 590              	.L98:
 591              		.loc 1 119 0
 592 0218 B1F5007F 		cmp	r1, #512
 593 021c D2D1     		bne	.L28
 594              	.L36:
 595              		.loc 1 133 0
 596 021e 2846     		mov	r0, r5
 597              	.LVL74:
 598 0220 6268     		ldr	r2, [r4, #4]
 599              	.LVL75:
 600 0222 FFF7FEFF 		bl	arm_cfft_radix4by2_q15
 601              	.LVL76:
 602              		.loc 1 134 0
 603 0226 CDE7     		b	.L28
 604              	.LVL77:
 605              	.L30:
 606              		.loc 1 99 0
 607 0228 B1F5806F 		cmp	r1, #1024
 608 022c 06D0     		beq	.L29
 609 022e 0ED9     		bls	.L100
 610 0230 B1F5006F 		cmp	r1, #2048
 611 0234 EBD0     		beq	.L31
 612 0236 B1F5805F 		cmp	r1, #4096
 613 023a C3D1     		bne	.L28
 614              	.L29:
 615              		.loc 1 106 0
 616 023c 2846     		mov	r0, r5
 617              	.LVL78:
 618 023e 6268     		ldr	r2, [r4, #4]
 619              	.LVL79:
 620 0240 0123     		movs	r3, #1
 621              	.LVL80:
 622 0242 FFF7FEFF 		bl	arm_radix4_butterfly_inverse_q15
 623              	.LVL81:
 624              		.loc 1 107 0
 625 0246 BDE7     		b	.L28
ARM GAS  /tmp/ccWfXb6d.s 			page 12


 626              	.LVL82:
 627              	.L96:
 628              		.loc 1 119 0
 629 0248 1029     		cmp	r1, #16
 630 024a BBD1     		bne	.L28
 631 024c C6E7     		b	.L34
 632              	.L100:
 633              		.loc 1 99 0
 634 024e B1F5007F 		cmp	r1, #512
 635 0252 DCD0     		beq	.L31
 636 0254 B6E7     		b	.L28
 637              	.L99:
 638 0256 1029     		cmp	r1, #16
 639 0258 B4D1     		bne	.L28
 640 025a EFE7     		b	.L29
 641              		.cfi_endproc
 642              	.LFE135:
 643              		.size	arm_cfft_q15, .-arm_cfft_q15
 644              	.Letext0:
 645              		.file 3 "/home/sbcu/Dropbox/pcb-layouts/axo-on-discovery-board/axoloti/platform_linux/arm-none-eab
 646              		.file 4 "/home/sbcu/Dropbox/pcb-layouts/axo-on-discovery-board/axoloti/platform_linux/arm-none-eab
 647              		.file 5 "/home/sbcu/Dropbox/pcb-layouts/axo-on-discovery-board/axoloti/platform_linux/../CMSIS//DS
 648              		.section	.debug_info,"",%progbits
 649              	.Ldebug_info0:
 650 0000 EA090000 		.4byte	0x9ea
 651 0004 0400     		.2byte	0x4
 652 0006 00000000 		.4byte	.Ldebug_abbrev0
 653 000a 04       		.byte	0x4
 654 000b 01       		.uleb128 0x1
 655 000c 94020000 		.4byte	.LASF50
 656 0010 01       		.byte	0x1
 657 0011 0A000000 		.4byte	.LASF51
 658 0015 00000000 		.4byte	.Ltext0
 659 0019 5C020000 		.4byte	.Letext0-.Ltext0
 660 001d 00000000 		.4byte	.Ldebug_line0
 661 0021 02       		.uleb128 0x2
 662 0022 01       		.byte	0x1
 663 0023 06       		.byte	0x6
 664 0024 EC000000 		.4byte	.LASF0
 665 0028 03       		.uleb128 0x3
 666 0029 00000000 		.4byte	.LASF2
 667 002d 03       		.byte	0x3
 668 002e 1D       		.byte	0x1d
 669 002f 33000000 		.4byte	0x33
 670 0033 02       		.uleb128 0x2
 671 0034 01       		.byte	0x1
 672 0035 08       		.byte	0x8
 673 0036 20020000 		.4byte	.LASF1
 674 003a 03       		.uleb128 0x3
 675 003b 6B010000 		.4byte	.LASF3
 676 003f 03       		.byte	0x3
 677 0040 29       		.byte	0x29
 678 0041 45000000 		.4byte	0x45
 679 0045 02       		.uleb128 0x2
 680 0046 02       		.byte	0x2
 681 0047 05       		.byte	0x5
 682 0048 2E020000 		.4byte	.LASF4
ARM GAS  /tmp/ccWfXb6d.s 			page 13


 683 004c 03       		.uleb128 0x3
 684 004d 55020000 		.4byte	.LASF5
 685 0051 03       		.byte	0x3
 686 0052 2B       		.byte	0x2b
 687 0053 57000000 		.4byte	0x57
 688 0057 02       		.uleb128 0x2
 689 0058 02       		.byte	0x2
 690 0059 07       		.byte	0x7
 691 005a B3010000 		.4byte	.LASF6
 692 005e 03       		.uleb128 0x3
 693 005f 60020000 		.4byte	.LASF7
 694 0063 03       		.byte	0x3
 695 0064 3F       		.byte	0x3f
 696 0065 69000000 		.4byte	0x69
 697 0069 02       		.uleb128 0x2
 698 006a 04       		.byte	0x4
 699 006b 05       		.byte	0x5
 700 006c 00010000 		.4byte	.LASF8
 701 0070 03       		.uleb128 0x3
 702 0071 60010000 		.4byte	.LASF9
 703 0075 03       		.byte	0x3
 704 0076 41       		.byte	0x41
 705 0077 7B000000 		.4byte	0x7b
 706 007b 02       		.uleb128 0x2
 707 007c 04       		.byte	0x4
 708 007d 07       		.byte	0x7
 709 007e A1010000 		.4byte	.LASF10
 710 0082 02       		.uleb128 0x2
 711 0083 08       		.byte	0x8
 712 0084 05       		.byte	0x5
 713 0085 DE000000 		.4byte	.LASF11
 714 0089 02       		.uleb128 0x2
 715 008a 08       		.byte	0x8
 716 008b 07       		.byte	0x7
 717 008c 92000000 		.4byte	.LASF12
 718 0090 04       		.uleb128 0x4
 719 0091 04       		.byte	0x4
 720 0092 05       		.byte	0x5
 721 0093 696E7400 		.ascii	"int\000"
 722 0097 02       		.uleb128 0x2
 723 0098 04       		.byte	0x4
 724 0099 07       		.byte	0x7
 725 009a 8F010000 		.4byte	.LASF13
 726 009e 03       		.uleb128 0x3
 727 009f 8C020000 		.4byte	.LASF14
 728 00a3 04       		.byte	0x4
 729 00a4 14       		.byte	0x14
 730 00a5 28000000 		.4byte	0x28
 731 00a9 03       		.uleb128 0x3
 732 00aa D6000000 		.4byte	.LASF15
 733 00ae 04       		.byte	0x4
 734 00af 19       		.byte	0x19
 735 00b0 3A000000 		.4byte	0x3a
 736 00b4 03       		.uleb128 0x3
 737 00b5 25010000 		.4byte	.LASF16
 738 00b9 04       		.byte	0x4
 739 00ba 1A       		.byte	0x1a
ARM GAS  /tmp/ccWfXb6d.s 			page 14


 740 00bb 4C000000 		.4byte	0x4c
 741 00bf 03       		.uleb128 0x3
 742 00c0 18020000 		.4byte	.LASF17
 743 00c4 04       		.byte	0x4
 744 00c5 1F       		.byte	0x1f
 745 00c6 5E000000 		.4byte	0x5e
 746 00ca 03       		.uleb128 0x3
 747 00cb 3E020000 		.4byte	.LASF18
 748 00cf 04       		.byte	0x4
 749 00d0 20       		.byte	0x20
 750 00d1 70000000 		.4byte	0x70
 751 00d5 02       		.uleb128 0x2
 752 00d6 04       		.byte	0x4
 753 00d7 07       		.byte	0x7
 754 00d8 D9010000 		.4byte	.LASF19
 755 00dc 02       		.uleb128 0x2
 756 00dd 01       		.byte	0x1
 757 00de 08       		.byte	0x8
 758 00df 50020000 		.4byte	.LASF20
 759 00e3 02       		.uleb128 0x2
 760 00e4 08       		.byte	0x8
 761 00e5 04       		.byte	0x4
 762 00e6 2E010000 		.4byte	.LASF21
 763 00ea 02       		.uleb128 0x2
 764 00eb 04       		.byte	0x4
 765 00ec 04       		.byte	0x4
 766 00ed 05020000 		.4byte	.LASF22
 767 00f1 02       		.uleb128 0x2
 768 00f2 08       		.byte	0x8
 769 00f3 04       		.byte	0x4
 770 00f4 E2010000 		.4byte	.LASF23
 771 00f8 05       		.uleb128 0x5
 772 00f9 09010000 		.4byte	.LASF24
 773 00fd 05       		.byte	0x5
 774 00fe 9B01     		.2byte	0x19b
 775 0100 A9000000 		.4byte	0xa9
 776 0104 05       		.uleb128 0x5
 777 0105 38020000 		.4byte	.LASF25
 778 0109 05       		.byte	0x5
 779 010a A001     		.2byte	0x1a0
 780 010c BF000000 		.4byte	0xbf
 781 0110 06       		.uleb128 0x6
 782 0111 04       		.byte	0x4
 783 0112 F8000000 		.4byte	0xf8
 784 0116 06       		.uleb128 0x6
 785 0117 04       		.byte	0x4
 786 0118 B4000000 		.4byte	0xb4
 787 011c 07       		.uleb128 0x7
 788 011d 10       		.byte	0x10
 789 011e 05       		.byte	0x5
 790 011f 8108     		.2byte	0x881
 791 0121 5A010000 		.4byte	0x15a
 792 0125 08       		.uleb128 0x8
 793 0126 88010000 		.4byte	.LASF26
 794 012a 05       		.byte	0x5
 795 012b 8308     		.2byte	0x883
 796 012d B4000000 		.4byte	0xb4
ARM GAS  /tmp/ccWfXb6d.s 			page 15


 797 0131 00       		.byte	0
 798 0132 08       		.uleb128 0x8
 799 0133 7D020000 		.4byte	.LASF27
 800 0137 05       		.byte	0x5
 801 0138 8408     		.2byte	0x884
 802 013a 5A010000 		.4byte	0x15a
 803 013e 04       		.byte	0x4
 804 013f 08       		.uleb128 0x8
 805 0140 18010000 		.4byte	.LASF28
 806 0144 05       		.byte	0x5
 807 0145 8508     		.2byte	0x885
 808 0147 65010000 		.4byte	0x165
 809 014b 08       		.byte	0x8
 810 014c 08       		.uleb128 0x8
 811 014d 0B020000 		.4byte	.LASF29
 812 0151 05       		.byte	0x5
 813 0152 8608     		.2byte	0x886
 814 0154 B4000000 		.4byte	0xb4
 815 0158 0C       		.byte	0xc
 816 0159 00       		.byte	0
 817 015a 06       		.uleb128 0x6
 818 015b 04       		.byte	0x4
 819 015c 60010000 		.4byte	0x160
 820 0160 09       		.uleb128 0x9
 821 0161 F8000000 		.4byte	0xf8
 822 0165 06       		.uleb128 0x6
 823 0166 04       		.byte	0x4
 824 0167 6B010000 		.4byte	0x16b
 825 016b 09       		.uleb128 0x9
 826 016c B4000000 		.4byte	0xb4
 827 0170 05       		.uleb128 0x5
 828 0171 A9000000 		.4byte	.LASF30
 829 0175 05       		.byte	0x5
 830 0176 8708     		.2byte	0x887
 831 0178 1C010000 		.4byte	0x11c
 832 017c 06       		.uleb128 0x6
 833 017d 04       		.byte	0x4
 834 017e 82010000 		.4byte	0x182
 835 0182 09       		.uleb128 0x9
 836 0183 70010000 		.4byte	0x170
 837 0187 0A       		.uleb128 0xa
 838 0188 35010000 		.4byte	.LASF31
 839 018c 02       		.byte	0x2
 840 018d B705     		.2byte	0x5b7
 841 018f CA000000 		.4byte	0xca
 842 0193 03       		.byte	0x3
 843 0194 BD010000 		.4byte	0x1bd
 844 0198 0B       		.uleb128 0xb
 845 0199 6F703100 		.ascii	"op1\000"
 846 019d 02       		.byte	0x2
 847 019e B705     		.2byte	0x5b7
 848 01a0 CA000000 		.4byte	0xca
 849 01a4 0B       		.uleb128 0xb
 850 01a5 6F703200 		.ascii	"op2\000"
 851 01a9 02       		.byte	0x2
 852 01aa B705     		.2byte	0x5b7
 853 01ac CA000000 		.4byte	0xca
ARM GAS  /tmp/ccWfXb6d.s 			page 16


 854 01b0 0C       		.uleb128 0xc
 855 01b1 A6030000 		.4byte	.LASF33
 856 01b5 02       		.byte	0x2
 857 01b6 B905     		.2byte	0x5b9
 858 01b8 CA000000 		.4byte	0xca
 859 01bc 00       		.byte	0
 860 01bd 0A       		.uleb128 0xa
 861 01be 0F010000 		.4byte	.LASF32
 862 01c2 02       		.byte	0x2
 863 01c3 DF05     		.2byte	0x5df
 864 01c5 CA000000 		.4byte	0xca
 865 01c9 03       		.byte	0x3
 866 01ca F3010000 		.4byte	0x1f3
 867 01ce 0B       		.uleb128 0xb
 868 01cf 6F703100 		.ascii	"op1\000"
 869 01d3 02       		.byte	0x2
 870 01d4 DF05     		.2byte	0x5df
 871 01d6 CA000000 		.4byte	0xca
 872 01da 0B       		.uleb128 0xb
 873 01db 6F703200 		.ascii	"op2\000"
 874 01df 02       		.byte	0x2
 875 01e0 DF05     		.2byte	0x5df
 876 01e2 CA000000 		.4byte	0xca
 877 01e6 0C       		.uleb128 0xc
 878 01e7 A6030000 		.4byte	.LASF33
 879 01eb 02       		.byte	0x2
 880 01ec E105     		.2byte	0x5e1
 881 01ee CA000000 		.4byte	0xca
 882 01f2 00       		.byte	0
 883 01f3 0A       		.uleb128 0xa
 884 01f4 F8000000 		.4byte	.LASF34
 885 01f8 02       		.byte	0x2
 886 01f9 A506     		.2byte	0x6a5
 887 01fb CA000000 		.4byte	0xca
 888 01ff 03       		.byte	0x3
 889 0200 29020000 		.4byte	0x229
 890 0204 0B       		.uleb128 0xb
 891 0205 6F703100 		.ascii	"op1\000"
 892 0209 02       		.byte	0x2
 893 020a A506     		.2byte	0x6a5
 894 020c CA000000 		.4byte	0xca
 895 0210 0B       		.uleb128 0xb
 896 0211 6F703200 		.ascii	"op2\000"
 897 0215 02       		.byte	0x2
 898 0216 A506     		.2byte	0x6a5
 899 0218 CA000000 		.4byte	0xca
 900 021c 0C       		.uleb128 0xc
 901 021d A6030000 		.4byte	.LASF33
 902 0221 02       		.byte	0x2
 903 0222 A706     		.2byte	0x6a7
 904 0224 CA000000 		.4byte	0xca
 905 0228 00       		.byte	0
 906 0229 0A       		.uleb128 0xa
 907 022a D0010000 		.4byte	.LASF35
 908 022e 02       		.byte	0x2
 909 022f EF06     		.2byte	0x6ef
 910 0231 CA000000 		.4byte	0xca
ARM GAS  /tmp/ccWfXb6d.s 			page 17


 911 0235 03       		.byte	0x3
 912 0236 5F020000 		.4byte	0x25f
 913 023a 0B       		.uleb128 0xb
 914 023b 6F703100 		.ascii	"op1\000"
 915 023f 02       		.byte	0x2
 916 0240 EF06     		.2byte	0x6ef
 917 0242 CA000000 		.4byte	0xca
 918 0246 0B       		.uleb128 0xb
 919 0247 6F703200 		.ascii	"op2\000"
 920 024b 02       		.byte	0x2
 921 024c EF06     		.2byte	0x6ef
 922 024e CA000000 		.4byte	0xca
 923 0252 0C       		.uleb128 0xc
 924 0253 A6030000 		.4byte	.LASF33
 925 0257 02       		.byte	0x2
 926 0258 F106     		.2byte	0x6f1
 927 025a CA000000 		.4byte	0xca
 928 025e 00       		.byte	0
 929 025f 0A       		.uleb128 0xa
 930 0260 EE010000 		.4byte	.LASF36
 931 0264 02       		.byte	0x2
 932 0265 E706     		.2byte	0x6e7
 933 0267 CA000000 		.4byte	0xca
 934 026b 03       		.byte	0x3
 935 026c 95020000 		.4byte	0x295
 936 0270 0B       		.uleb128 0xb
 937 0271 6F703100 		.ascii	"op1\000"
 938 0275 02       		.byte	0x2
 939 0276 E706     		.2byte	0x6e7
 940 0278 CA000000 		.4byte	0xca
 941 027c 0B       		.uleb128 0xb
 942 027d 6F703200 		.ascii	"op2\000"
 943 0281 02       		.byte	0x2
 944 0282 E706     		.2byte	0x6e7
 945 0284 CA000000 		.4byte	0xca
 946 0288 0C       		.uleb128 0xc
 947 0289 A6030000 		.4byte	.LASF33
 948 028d 02       		.byte	0x2
 949 028e E906     		.2byte	0x6e9
 950 0290 CA000000 		.4byte	0xca
 951 0294 00       		.byte	0
 952 0295 0A       		.uleb128 0xa
 953 0296 47020000 		.4byte	.LASF37
 954 029a 02       		.byte	0x2
 955 029b AD06     		.2byte	0x6ad
 956 029d CA000000 		.4byte	0xca
 957 02a1 03       		.byte	0x3
 958 02a2 CB020000 		.4byte	0x2cb
 959 02a6 0B       		.uleb128 0xb
 960 02a7 6F703100 		.ascii	"op1\000"
 961 02ab 02       		.byte	0x2
 962 02ac AD06     		.2byte	0x6ad
 963 02ae CA000000 		.4byte	0xca
 964 02b2 0B       		.uleb128 0xb
 965 02b3 6F703200 		.ascii	"op2\000"
 966 02b7 02       		.byte	0x2
 967 02b8 AD06     		.2byte	0x6ad
ARM GAS  /tmp/ccWfXb6d.s 			page 18


 968 02ba CA000000 		.4byte	0xca
 969 02be 0C       		.uleb128 0xc
 970 02bf A6030000 		.4byte	.LASF33
 971 02c3 02       		.byte	0x2
 972 02c4 AF06     		.2byte	0x6af
 973 02c6 CA000000 		.4byte	0xca
 974 02ca 00       		.byte	0
 975 02cb 0D       		.uleb128 0xd
 976 02cc BF000000 		.4byte	.LASF43
 977 02d0 01       		.byte	0x1
 978 02d1 92       		.byte	0x92
 979 02d2 00000000 		.4byte	.LFB136
 980 02d6 C6000000 		.4byte	.LFE136-.LFB136
 981 02da 01       		.uleb128 0x1
 982 02db 9C       		.byte	0x9c
 983 02dc C2050000 		.4byte	0x5c2
 984 02e0 0E       		.uleb128 0xe
 985 02e1 9C010000 		.4byte	.LASF38
 986 02e5 01       		.byte	0x1
 987 02e6 93       		.byte	0x93
 988 02e7 10010000 		.4byte	0x110
 989 02eb 00000000 		.4byte	.LLST0
 990 02ef 0E       		.uleb128 0xe
 991 02f0 88010000 		.4byte	.LASF26
 992 02f4 01       		.byte	0x1
 993 02f5 94       		.byte	0x94
 994 02f6 CA000000 		.4byte	0xca
 995 02fa 50000000 		.4byte	.LLST1
 996 02fe 0E       		.uleb128 0xe
 997 02ff 86020000 		.4byte	.LASF39
 998 0303 01       		.byte	0x1
 999 0304 95       		.byte	0x95
 1000 0305 5A010000 		.4byte	0x15a
 1001 0309 8A000000 		.4byte	.LLST2
 1002 030d 0F       		.uleb128 0xf
 1003 030e 6900     		.ascii	"i\000"
 1004 0310 01       		.byte	0x1
 1005 0311 97       		.byte	0x97
 1006 0312 CA000000 		.4byte	0xca
 1007 0316 E5000000 		.4byte	.LLST3
 1008 031a 0F       		.uleb128 0xf
 1009 031b 6E3200   		.ascii	"n2\000"
 1010 031e 01       		.byte	0x1
 1011 031f 98       		.byte	0x98
 1012 0320 CA000000 		.4byte	0xca
 1013 0324 42010000 		.4byte	.LLST4
 1014 0328 0F       		.uleb128 0xf
 1015 0329 703000   		.ascii	"p0\000"
 1016 032c 01       		.byte	0x1
 1017 032d 99       		.byte	0x99
 1018 032e F8000000 		.4byte	0xf8
 1019 0332 8B010000 		.4byte	.LLST5
 1020 0336 0F       		.uleb128 0xf
 1021 0337 703100   		.ascii	"p1\000"
 1022 033a 01       		.byte	0x1
 1023 033b 99       		.byte	0x99
 1024 033c F8000000 		.4byte	0xf8
ARM GAS  /tmp/ccWfXb6d.s 			page 19


 1025 0340 AA010000 		.4byte	.LLST6
 1026 0344 0F       		.uleb128 0xf
 1027 0345 703200   		.ascii	"p2\000"
 1028 0348 01       		.byte	0x1
 1029 0349 99       		.byte	0x99
 1030 034a F8000000 		.4byte	0xf8
 1031 034e C9010000 		.4byte	.LLST7
 1032 0352 0F       		.uleb128 0xf
 1033 0353 703300   		.ascii	"p3\000"
 1034 0356 01       		.byte	0x1
 1035 0357 99       		.byte	0x99
 1036 0358 F8000000 		.4byte	0xf8
 1037 035c E8010000 		.4byte	.LLST8
 1038 0360 0F       		.uleb128 0xf
 1039 0361 5400     		.ascii	"T\000"
 1040 0363 01       		.byte	0x1
 1041 0364 9B       		.byte	0x9b
 1042 0365 04010000 		.4byte	0x104
 1043 0369 07020000 		.4byte	.LLST9
 1044 036d 0F       		.uleb128 0xf
 1045 036e 5300     		.ascii	"S\000"
 1046 0370 01       		.byte	0x1
 1047 0371 9B       		.byte	0x9b
 1048 0372 04010000 		.4byte	0x104
 1049 0376 26020000 		.4byte	.LLST10
 1050 037a 0F       		.uleb128 0xf
 1051 037b 5200     		.ascii	"R\000"
 1052 037d 01       		.byte	0x1
 1053 037e 9B       		.byte	0x9b
 1054 037f 04010000 		.4byte	0x104
 1055 0383 45020000 		.4byte	.LLST11
 1056 0387 10       		.uleb128 0x10
 1057 0388 6A020000 		.4byte	.LASF40
 1058 038c 01       		.byte	0x1
 1059 038d 9C       		.byte	0x9c
 1060 038e 04010000 		.4byte	0x104
 1061 0392 58020000 		.4byte	.LLST12
 1062 0396 10       		.uleb128 0x10
 1063 0397 C6010000 		.4byte	.LASF41
 1064 039b 01       		.byte	0x1
 1065 039c 9C       		.byte	0x9c
 1066 039d 04010000 		.4byte	0x104
 1067 03a1 6B020000 		.4byte	.LLST13
 1068 03a5 10       		.uleb128 0x10
 1069 03a6 CB010000 		.4byte	.LASF42
 1070 03aa 01       		.byte	0x1
 1071 03ab 9C       		.byte	0x9c
 1072 03ac 04010000 		.4byte	0x104
 1073 03b0 82020000 		.4byte	.LLST14
 1074 03b4 0F       		.uleb128 0xf
 1075 03b5 704300   		.ascii	"pC\000"
 1076 03b8 01       		.byte	0x1
 1077 03b9 9D       		.byte	0x9d
 1078 03ba 5A010000 		.4byte	0x15a
 1079 03be 95020000 		.4byte	.LLST15
 1080 03c2 0F       		.uleb128 0xf
 1081 03c3 70536900 		.ascii	"pSi\000"
ARM GAS  /tmp/ccWfXb6d.s 			page 20


 1082 03c7 01       		.byte	0x1
 1083 03c8 9E       		.byte	0x9e
 1084 03c9 10010000 		.4byte	0x110
 1085 03cd E2020000 		.4byte	.LLST16
 1086 03d1 0F       		.uleb128 0xf
 1087 03d2 70536C00 		.ascii	"pSl\000"
 1088 03d6 01       		.byte	0x1
 1089 03d7 9F       		.byte	0x9f
 1090 03d8 10010000 		.4byte	0x110
 1091 03dc 24030000 		.4byte	.LLST17
 1092 03e0 11       		.uleb128 0x11
 1093 03e1 87010000 		.4byte	0x187
 1094 03e5 1A000000 		.4byte	.LBB26
 1095 03e9 00000000 		.4byte	.Ldebug_ranges0+0
 1096 03ed 01       		.byte	0x1
 1097 03ee AF       		.byte	0xaf
 1098 03ef 15040000 		.4byte	0x415
 1099 03f3 12       		.uleb128 0x12
 1100 03f4 A4010000 		.4byte	0x1a4
 1101 03f8 6C030000 		.4byte	.LLST18
 1102 03fc 12       		.uleb128 0x12
 1103 03fd 98010000 		.4byte	0x198
 1104 0401 80030000 		.4byte	.LLST19
 1105 0405 13       		.uleb128 0x13
 1106 0406 00000000 		.4byte	.Ldebug_ranges0+0
 1107 040a 14       		.uleb128 0x14
 1108 040b B0010000 		.4byte	0x1b0
 1109 040f 9F030000 		.4byte	.LLST20
 1110 0413 00       		.byte	0
 1111 0414 00       		.byte	0
 1112 0415 15       		.uleb128 0x15
 1113 0416 87010000 		.4byte	0x187
 1114 041a 2A000000 		.4byte	.LBB30
 1115 041e 08000000 		.4byte	.LBE30-.LBB30
 1116 0422 01       		.byte	0x1
 1117 0423 B2       		.byte	0xb2
 1118 0424 4E040000 		.4byte	0x44e
 1119 0428 12       		.uleb128 0x12
 1120 0429 A4010000 		.4byte	0x1a4
 1121 042d B2030000 		.4byte	.LLST21
 1122 0431 12       		.uleb128 0x12
 1123 0432 98010000 		.4byte	0x198
 1124 0436 C6030000 		.4byte	.LLST22
 1125 043a 16       		.uleb128 0x16
 1126 043b 2A000000 		.4byte	.LBB31
 1127 043f 08000000 		.4byte	.LBE31-.LBB31
 1128 0443 14       		.uleb128 0x14
 1129 0444 B0010000 		.4byte	0x1b0
 1130 0448 DA030000 		.4byte	.LLST23
 1131 044c 00       		.byte	0
 1132 044d 00       		.byte	0
 1133 044e 15       		.uleb128 0x15
 1134 044f BD010000 		.4byte	0x1bd
 1135 0453 32000000 		.4byte	.LBB32
 1136 0457 04000000 		.4byte	.LBE32-.LBB32
 1137 045b 01       		.byte	0x1
 1138 045c B4       		.byte	0xb4
ARM GAS  /tmp/ccWfXb6d.s 			page 21


 1139 045d 87040000 		.4byte	0x487
 1140 0461 12       		.uleb128 0x12
 1141 0462 DA010000 		.4byte	0x1da
 1142 0466 DA030000 		.4byte	.LLST23
 1143 046a 12       		.uleb128 0x12
 1144 046b CE010000 		.4byte	0x1ce
 1145 046f ED030000 		.4byte	.LLST25
 1146 0473 16       		.uleb128 0x16
 1147 0474 32000000 		.4byte	.LBB33
 1148 0478 04000000 		.4byte	.LBE33-.LBB33
 1149 047c 14       		.uleb128 0x14
 1150 047d E6010000 		.4byte	0x1e6
 1151 0481 45020000 		.4byte	.LLST11
 1152 0485 00       		.byte	0
 1153 0486 00       		.byte	0
 1154 0487 15       		.uleb128 0x15
 1155 0488 87010000 		.4byte	0x187
 1156 048c 36000000 		.4byte	.LBB34
 1157 0490 04000000 		.4byte	.LBE34-.LBB34
 1158 0494 01       		.byte	0x1
 1159 0495 B6       		.byte	0xb6
 1160 0496 C0040000 		.4byte	0x4c0
 1161 049a 12       		.uleb128 0x12
 1162 049b A4010000 		.4byte	0x1a4
 1163 049f 00040000 		.4byte	.LLST27
 1164 04a3 12       		.uleb128 0x12
 1165 04a4 98010000 		.4byte	0x198
 1166 04a8 13040000 		.4byte	.LLST28
 1167 04ac 16       		.uleb128 0x16
 1168 04ad 36000000 		.4byte	.LBB35
 1169 04b1 04000000 		.4byte	.LBE35-.LBB35
 1170 04b5 14       		.uleb128 0x14
 1171 04b6 B0010000 		.4byte	0x1b0
 1172 04ba 26040000 		.4byte	.LLST29
 1173 04be 00       		.byte	0
 1174 04bf 00       		.byte	0
 1175 04c0 15       		.uleb128 0x15
 1176 04c1 F3010000 		.4byte	0x1f3
 1177 04c5 3E000000 		.4byte	.LBB36
 1178 04c9 04000000 		.4byte	.LBE36-.LBB36
 1179 04cd 01       		.byte	0x1
 1180 04ce BB       		.byte	0xbb
 1181 04cf F9040000 		.4byte	0x4f9
 1182 04d3 12       		.uleb128 0x12
 1183 04d4 10020000 		.4byte	0x210
 1184 04d8 45040000 		.4byte	.LLST30
 1185 04dc 12       		.uleb128 0x12
 1186 04dd 04020000 		.4byte	0x204
 1187 04e1 58040000 		.4byte	.LLST31
 1188 04e5 16       		.uleb128 0x16
 1189 04e6 3E000000 		.4byte	.LBB37
 1190 04ea 04000000 		.4byte	.LBE37-.LBB37
 1191 04ee 14       		.uleb128 0x14
 1192 04ef 1C020000 		.4byte	0x21c
 1193 04f3 6B040000 		.4byte	.LLST32
 1194 04f7 00       		.byte	0
 1195 04f8 00       		.byte	0
ARM GAS  /tmp/ccWfXb6d.s 			page 22


 1196 04f9 15       		.uleb128 0x15
 1197 04fa 29020000 		.4byte	0x229
 1198 04fe 42000000 		.4byte	.LBB38
 1199 0502 04000000 		.4byte	.LBE38-.LBB38
 1200 0506 01       		.byte	0x1
 1201 0507 BC       		.byte	0xbc
 1202 0508 32050000 		.4byte	0x532
 1203 050c 12       		.uleb128 0x12
 1204 050d 46020000 		.4byte	0x246
 1205 0511 7E040000 		.4byte	.LLST33
 1206 0515 12       		.uleb128 0x12
 1207 0516 3A020000 		.4byte	0x23a
 1208 051a 91040000 		.4byte	.LLST34
 1209 051e 16       		.uleb128 0x16
 1210 051f 42000000 		.4byte	.LBB39
 1211 0523 04000000 		.4byte	.LBE39-.LBB39
 1212 0527 14       		.uleb128 0x14
 1213 0528 52020000 		.4byte	0x252
 1214 052c 82020000 		.4byte	.LLST14
 1215 0530 00       		.byte	0
 1216 0531 00       		.byte	0
 1217 0532 17       		.uleb128 0x17
 1218 0533 62000000 		.4byte	.LVL17
 1219 0537 96090000 		.4byte	0x996
 1220 053b 57050000 		.4byte	0x557
 1221 053f 18       		.uleb128 0x18
 1222 0540 01       		.uleb128 0x1
 1223 0541 53       		.byte	0x53
 1224 0542 01       		.uleb128 0x1
 1225 0543 32       		.byte	0x32
 1226 0544 18       		.uleb128 0x18
 1227 0545 01       		.uleb128 0x1
 1228 0546 52       		.byte	0x52
 1229 0547 02       		.uleb128 0x2
 1230 0548 76       		.byte	0x76
 1231 0549 00       		.sleb128 0
 1232 054a 18       		.uleb128 0x18
 1233 054b 01       		.uleb128 0x1
 1234 054c 51       		.byte	0x51
 1235 054d 02       		.uleb128 0x2
 1236 054e 75       		.byte	0x75
 1237 054f 00       		.sleb128 0
 1238 0550 18       		.uleb128 0x18
 1239 0551 01       		.uleb128 0x1
 1240 0552 50       		.byte	0x50
 1241 0553 02       		.uleb128 0x2
 1242 0554 74       		.byte	0x74
 1243 0555 00       		.sleb128 0
 1244 0556 00       		.byte	0
 1245 0557 17       		.uleb128 0x17
 1246 0558 6E000000 		.4byte	.LVL18
 1247 055c 96090000 		.4byte	0x996
 1248 0560 7C050000 		.4byte	0x57c
 1249 0564 18       		.uleb128 0x18
 1250 0565 01       		.uleb128 0x1
 1251 0566 53       		.byte	0x53
 1252 0567 01       		.uleb128 0x1
ARM GAS  /tmp/ccWfXb6d.s 			page 23


 1253 0568 32       		.byte	0x32
 1254 0569 18       		.uleb128 0x18
 1255 056a 01       		.uleb128 0x1
 1256 056b 52       		.byte	0x52
 1257 056c 02       		.uleb128 0x2
 1258 056d 76       		.byte	0x76
 1259 056e 00       		.sleb128 0
 1260 056f 18       		.uleb128 0x18
 1261 0570 01       		.uleb128 0x1
 1262 0571 51       		.byte	0x51
 1263 0572 02       		.uleb128 0x2
 1264 0573 75       		.byte	0x75
 1265 0574 00       		.sleb128 0
 1266 0575 18       		.uleb128 0x18
 1267 0576 01       		.uleb128 0x1
 1268 0577 50       		.byte	0x50
 1269 0578 02       		.uleb128 0x2
 1270 0579 77       		.byte	0x77
 1271 057a 00       		.sleb128 0
 1272 057b 00       		.byte	0
 1273 057c 17       		.uleb128 0x17
 1274 057d B4000000 		.4byte	.LVL27
 1275 0581 96090000 		.4byte	0x996
 1276 0585 95050000 		.4byte	0x595
 1277 0589 18       		.uleb128 0x18
 1278 058a 01       		.uleb128 0x1
 1279 058b 53       		.byte	0x53
 1280 058c 01       		.uleb128 0x1
 1281 058d 32       		.byte	0x32
 1282 058e 18       		.uleb128 0x18
 1283 058f 01       		.uleb128 0x1
 1284 0590 51       		.byte	0x51
 1285 0591 02       		.uleb128 0x2
 1286 0592 75       		.byte	0x75
 1287 0593 00       		.sleb128 0
 1288 0594 00       		.byte	0
 1289 0595 19       		.uleb128 0x19
 1290 0596 C6000000 		.4byte	.LVL29
 1291 059a 96090000 		.4byte	0x996
 1292 059e 18       		.uleb128 0x18
 1293 059f 01       		.uleb128 0x1
 1294 05a0 53       		.byte	0x53
 1295 05a1 01       		.uleb128 0x1
 1296 05a2 32       		.byte	0x32
 1297 05a3 18       		.uleb128 0x18
 1298 05a4 01       		.uleb128 0x1
 1299 05a5 52       		.byte	0x52
 1300 05a6 03       		.uleb128 0x3
 1301 05a7 F3       		.byte	0xf3
 1302 05a8 01       		.uleb128 0x1
 1303 05a9 52       		.byte	0x52
 1304 05aa 18       		.uleb128 0x18
 1305 05ab 01       		.uleb128 0x1
 1306 05ac 51       		.byte	0x51
 1307 05ad 05       		.uleb128 0x5
 1308 05ae F3       		.byte	0xf3
 1309 05af 01       		.uleb128 0x1
ARM GAS  /tmp/ccWfXb6d.s 			page 24


 1310 05b0 51       		.byte	0x51
 1311 05b1 31       		.byte	0x31
 1312 05b2 25       		.byte	0x25
 1313 05b3 18       		.uleb128 0x18
 1314 05b4 01       		.uleb128 0x1
 1315 05b5 50       		.byte	0x50
 1316 05b6 09       		.uleb128 0x9
 1317 05b7 F3       		.byte	0xf3
 1318 05b8 01       		.uleb128 0x1
 1319 05b9 51       		.byte	0x51
 1320 05ba 31       		.byte	0x31
 1321 05bb 24       		.byte	0x24
 1322 05bc F3       		.byte	0xf3
 1323 05bd 01       		.uleb128 0x1
 1324 05be 50       		.byte	0x50
 1325 05bf 22       		.byte	0x22
 1326 05c0 00       		.byte	0
 1327 05c1 00       		.byte	0
 1328 05c2 0D       		.uleb128 0xd
 1329 05c3 AD030000 		.4byte	.LASF44
 1330 05c7 01       		.byte	0x1
 1331 05c8 FD       		.byte	0xfd
 1332 05c9 D0000000 		.4byte	.LFB137
 1333 05cd C6000000 		.4byte	.LFE137-.LFB137
 1334 05d1 01       		.uleb128 0x1
 1335 05d2 9C       		.byte	0x9c
 1336 05d3 CF080000 		.4byte	0x8cf
 1337 05d7 0E       		.uleb128 0xe
 1338 05d8 9C010000 		.4byte	.LASF38
 1339 05dc 01       		.byte	0x1
 1340 05dd FE       		.byte	0xfe
 1341 05de 10010000 		.4byte	0x110
 1342 05e2 A4040000 		.4byte	.LLST36
 1343 05e6 0E       		.uleb128 0xe
 1344 05e7 88010000 		.4byte	.LASF26
 1345 05eb 01       		.byte	0x1
 1346 05ec FF       		.byte	0xff
 1347 05ed CA000000 		.4byte	0xca
 1348 05f1 F4040000 		.4byte	.LLST37
 1349 05f5 1A       		.uleb128 0x1a
 1350 05f6 86020000 		.4byte	.LASF39
 1351 05fa 01       		.byte	0x1
 1352 05fb 0001     		.2byte	0x100
 1353 05fd 5A010000 		.4byte	0x15a
 1354 0601 2E050000 		.4byte	.LLST38
 1355 0605 1B       		.uleb128 0x1b
 1356 0606 6900     		.ascii	"i\000"
 1357 0608 01       		.byte	0x1
 1358 0609 0201     		.2byte	0x102
 1359 060b CA000000 		.4byte	0xca
 1360 060f 89050000 		.4byte	.LLST39
 1361 0613 1B       		.uleb128 0x1b
 1362 0614 6E3200   		.ascii	"n2\000"
 1363 0617 01       		.byte	0x1
 1364 0618 0301     		.2byte	0x103
 1365 061a CA000000 		.4byte	0xca
 1366 061e E6050000 		.4byte	.LLST40
ARM GAS  /tmp/ccWfXb6d.s 			page 25


 1367 0622 1B       		.uleb128 0x1b
 1368 0623 703000   		.ascii	"p0\000"
 1369 0626 01       		.byte	0x1
 1370 0627 0401     		.2byte	0x104
 1371 0629 F8000000 		.4byte	0xf8
 1372 062d 2F060000 		.4byte	.LLST41
 1373 0631 1B       		.uleb128 0x1b
 1374 0632 703100   		.ascii	"p1\000"
 1375 0635 01       		.byte	0x1
 1376 0636 0401     		.2byte	0x104
 1377 0638 F8000000 		.4byte	0xf8
 1378 063c 4E060000 		.4byte	.LLST42
 1379 0640 1B       		.uleb128 0x1b
 1380 0641 703200   		.ascii	"p2\000"
 1381 0644 01       		.byte	0x1
 1382 0645 0401     		.2byte	0x104
 1383 0647 F8000000 		.4byte	0xf8
 1384 064b 6D060000 		.4byte	.LLST43
 1385 064f 1B       		.uleb128 0x1b
 1386 0650 703300   		.ascii	"p3\000"
 1387 0653 01       		.byte	0x1
 1388 0654 0401     		.2byte	0x104
 1389 0656 F8000000 		.4byte	0xf8
 1390 065a 8C060000 		.4byte	.LLST44
 1391 065e 1B       		.uleb128 0x1b
 1392 065f 5400     		.ascii	"T\000"
 1393 0661 01       		.byte	0x1
 1394 0662 0601     		.2byte	0x106
 1395 0664 04010000 		.4byte	0x104
 1396 0668 AB060000 		.4byte	.LLST45
 1397 066c 1B       		.uleb128 0x1b
 1398 066d 5300     		.ascii	"S\000"
 1399 066f 01       		.byte	0x1
 1400 0670 0601     		.2byte	0x106
 1401 0672 04010000 		.4byte	0x104
 1402 0676 CA060000 		.4byte	.LLST46
 1403 067a 1B       		.uleb128 0x1b
 1404 067b 5200     		.ascii	"R\000"
 1405 067d 01       		.byte	0x1
 1406 067e 0601     		.2byte	0x106
 1407 0680 04010000 		.4byte	0x104
 1408 0684 E9060000 		.4byte	.LLST47
 1409 0688 1C       		.uleb128 0x1c
 1410 0689 6A020000 		.4byte	.LASF40
 1411 068d 01       		.byte	0x1
 1412 068e 0701     		.2byte	0x107
 1413 0690 04010000 		.4byte	0x104
 1414 0694 FC060000 		.4byte	.LLST48
 1415 0698 1C       		.uleb128 0x1c
 1416 0699 C6010000 		.4byte	.LASF41
 1417 069d 01       		.byte	0x1
 1418 069e 0701     		.2byte	0x107
 1419 06a0 04010000 		.4byte	0x104
 1420 06a4 0F070000 		.4byte	.LLST49
 1421 06a8 1C       		.uleb128 0x1c
 1422 06a9 CB010000 		.4byte	.LASF42
 1423 06ad 01       		.byte	0x1
ARM GAS  /tmp/ccWfXb6d.s 			page 26


 1424 06ae 0701     		.2byte	0x107
 1425 06b0 04010000 		.4byte	0x104
 1426 06b4 26070000 		.4byte	.LLST50
 1427 06b8 1B       		.uleb128 0x1b
 1428 06b9 704300   		.ascii	"pC\000"
 1429 06bc 01       		.byte	0x1
 1430 06bd 0801     		.2byte	0x108
 1431 06bf 5A010000 		.4byte	0x15a
 1432 06c3 39070000 		.4byte	.LLST51
 1433 06c7 1B       		.uleb128 0x1b
 1434 06c8 70536900 		.ascii	"pSi\000"
 1435 06cc 01       		.byte	0x1
 1436 06cd 0901     		.2byte	0x109
 1437 06cf 10010000 		.4byte	0x110
 1438 06d3 86070000 		.4byte	.LLST52
 1439 06d7 1B       		.uleb128 0x1b
 1440 06d8 70536C00 		.ascii	"pSl\000"
 1441 06dc 01       		.byte	0x1
 1442 06dd 0A01     		.2byte	0x10a
 1443 06df 10010000 		.4byte	0x110
 1444 06e3 C8070000 		.4byte	.LLST53
 1445 06e7 1D       		.uleb128 0x1d
 1446 06e8 87010000 		.4byte	0x187
 1447 06ec EA000000 		.4byte	.LBB40
 1448 06f0 18000000 		.4byte	.Ldebug_ranges0+0x18
 1449 06f4 01       		.byte	0x1
 1450 06f5 1A01     		.2byte	0x11a
 1451 06f7 1D070000 		.4byte	0x71d
 1452 06fb 12       		.uleb128 0x12
 1453 06fc A4010000 		.4byte	0x1a4
 1454 0700 10080000 		.4byte	.LLST54
 1455 0704 12       		.uleb128 0x12
 1456 0705 98010000 		.4byte	0x198
 1457 0709 24080000 		.4byte	.LLST55
 1458 070d 13       		.uleb128 0x13
 1459 070e 18000000 		.4byte	.Ldebug_ranges0+0x18
 1460 0712 14       		.uleb128 0x14
 1461 0713 B0010000 		.4byte	0x1b0
 1462 0717 43080000 		.4byte	.LLST56
 1463 071b 00       		.byte	0
 1464 071c 00       		.byte	0
 1465 071d 1E       		.uleb128 0x1e
 1466 071e 87010000 		.4byte	0x187
 1467 0722 FA000000 		.4byte	.LBB44
 1468 0726 08000000 		.4byte	.LBE44-.LBB44
 1469 072a 01       		.byte	0x1
 1470 072b 1D01     		.2byte	0x11d
 1471 072d 57070000 		.4byte	0x757
 1472 0731 12       		.uleb128 0x12
 1473 0732 A4010000 		.4byte	0x1a4
 1474 0736 56080000 		.4byte	.LLST57
 1475 073a 12       		.uleb128 0x12
 1476 073b 98010000 		.4byte	0x198
 1477 073f 6A080000 		.4byte	.LLST58
 1478 0743 16       		.uleb128 0x16
 1479 0744 FA000000 		.4byte	.LBB45
 1480 0748 08000000 		.4byte	.LBE45-.LBB45
ARM GAS  /tmp/ccWfXb6d.s 			page 27


 1481 074c 14       		.uleb128 0x14
 1482 074d B0010000 		.4byte	0x1b0
 1483 0751 7E080000 		.4byte	.LLST59
 1484 0755 00       		.byte	0
 1485 0756 00       		.byte	0
 1486 0757 1E       		.uleb128 0x1e
 1487 0758 BD010000 		.4byte	0x1bd
 1488 075c 02010000 		.4byte	.LBB46
 1489 0760 04000000 		.4byte	.LBE46-.LBB46
 1490 0764 01       		.byte	0x1
 1491 0765 1F01     		.2byte	0x11f
 1492 0767 91070000 		.4byte	0x791
 1493 076b 12       		.uleb128 0x12
 1494 076c DA010000 		.4byte	0x1da
 1495 0770 7E080000 		.4byte	.LLST59
 1496 0774 12       		.uleb128 0x12
 1497 0775 CE010000 		.4byte	0x1ce
 1498 0779 91080000 		.4byte	.LLST61
 1499 077d 16       		.uleb128 0x16
 1500 077e 02010000 		.4byte	.LBB47
 1501 0782 04000000 		.4byte	.LBE47-.LBB47
 1502 0786 14       		.uleb128 0x14
 1503 0787 E6010000 		.4byte	0x1e6
 1504 078b E9060000 		.4byte	.LLST47
 1505 078f 00       		.byte	0
 1506 0790 00       		.byte	0
 1507 0791 1E       		.uleb128 0x1e
 1508 0792 87010000 		.4byte	0x187
 1509 0796 06010000 		.4byte	.LBB48
 1510 079a 04000000 		.4byte	.LBE48-.LBB48
 1511 079e 01       		.byte	0x1
 1512 079f 2101     		.2byte	0x121
 1513 07a1 CB070000 		.4byte	0x7cb
 1514 07a5 12       		.uleb128 0x12
 1515 07a6 A4010000 		.4byte	0x1a4
 1516 07aa A4080000 		.4byte	.LLST63
 1517 07ae 12       		.uleb128 0x12
 1518 07af 98010000 		.4byte	0x198
 1519 07b3 B7080000 		.4byte	.LLST64
 1520 07b7 16       		.uleb128 0x16
 1521 07b8 06010000 		.4byte	.LBB49
 1522 07bc 04000000 		.4byte	.LBE49-.LBB49
 1523 07c0 14       		.uleb128 0x14
 1524 07c1 B0010000 		.4byte	0x1b0
 1525 07c5 CA080000 		.4byte	.LLST65
 1526 07c9 00       		.byte	0
 1527 07ca 00       		.byte	0
 1528 07cb 1E       		.uleb128 0x1e
 1529 07cc 5F020000 		.4byte	0x25f
 1530 07d0 0E010000 		.4byte	.LBB50
 1531 07d4 04000000 		.4byte	.LBE50-.LBB50
 1532 07d8 01       		.byte	0x1
 1533 07d9 2601     		.2byte	0x126
 1534 07db 05080000 		.4byte	0x805
 1535 07df 12       		.uleb128 0x12
 1536 07e0 7C020000 		.4byte	0x27c
 1537 07e4 E9080000 		.4byte	.LLST66
ARM GAS  /tmp/ccWfXb6d.s 			page 28


 1538 07e8 12       		.uleb128 0x12
 1539 07e9 70020000 		.4byte	0x270
 1540 07ed FC080000 		.4byte	.LLST67
 1541 07f1 16       		.uleb128 0x16
 1542 07f2 0E010000 		.4byte	.LBB51
 1543 07f6 04000000 		.4byte	.LBE51-.LBB51
 1544 07fa 14       		.uleb128 0x14
 1545 07fb 88020000 		.4byte	0x288
 1546 07ff 0F090000 		.4byte	.LLST68
 1547 0803 00       		.byte	0
 1548 0804 00       		.byte	0
 1549 0805 1E       		.uleb128 0x1e
 1550 0806 95020000 		.4byte	0x295
 1551 080a 12010000 		.4byte	.LBB52
 1552 080e 04000000 		.4byte	.LBE52-.LBB52
 1553 0812 01       		.byte	0x1
 1554 0813 2701     		.2byte	0x127
 1555 0815 3F080000 		.4byte	0x83f
 1556 0819 12       		.uleb128 0x12
 1557 081a B2020000 		.4byte	0x2b2
 1558 081e 22090000 		.4byte	.LLST69
 1559 0822 12       		.uleb128 0x12
 1560 0823 A6020000 		.4byte	0x2a6
 1561 0827 35090000 		.4byte	.LLST70
 1562 082b 16       		.uleb128 0x16
 1563 082c 12010000 		.4byte	.LBB53
 1564 0830 04000000 		.4byte	.LBE53-.LBB53
 1565 0834 14       		.uleb128 0x14
 1566 0835 BE020000 		.4byte	0x2be
 1567 0839 26070000 		.4byte	.LLST50
 1568 083d 00       		.byte	0
 1569 083e 00       		.byte	0
 1570 083f 17       		.uleb128 0x17
 1571 0840 32010000 		.4byte	.LVL47
 1572 0844 B6090000 		.4byte	0x9b6
 1573 0848 64080000 		.4byte	0x864
 1574 084c 18       		.uleb128 0x18
 1575 084d 01       		.uleb128 0x1
 1576 084e 53       		.byte	0x53
 1577 084f 01       		.uleb128 0x1
 1578 0850 32       		.byte	0x32
 1579 0851 18       		.uleb128 0x18
 1580 0852 01       		.uleb128 0x1
 1581 0853 52       		.byte	0x52
 1582 0854 02       		.uleb128 0x2
 1583 0855 76       		.byte	0x76
 1584 0856 00       		.sleb128 0
 1585 0857 18       		.uleb128 0x18
 1586 0858 01       		.uleb128 0x1
 1587 0859 51       		.byte	0x51
 1588 085a 02       		.uleb128 0x2
 1589 085b 75       		.byte	0x75
 1590 085c 00       		.sleb128 0
 1591 085d 18       		.uleb128 0x18
 1592 085e 01       		.uleb128 0x1
 1593 085f 50       		.byte	0x50
 1594 0860 02       		.uleb128 0x2
ARM GAS  /tmp/ccWfXb6d.s 			page 29


 1595 0861 74       		.byte	0x74
 1596 0862 00       		.sleb128 0
 1597 0863 00       		.byte	0
 1598 0864 17       		.uleb128 0x17
 1599 0865 3E010000 		.4byte	.LVL48
 1600 0869 B6090000 		.4byte	0x9b6
 1601 086d 89080000 		.4byte	0x889
 1602 0871 18       		.uleb128 0x18
 1603 0872 01       		.uleb128 0x1
 1604 0873 53       		.byte	0x53
 1605 0874 01       		.uleb128 0x1
 1606 0875 32       		.byte	0x32
 1607 0876 18       		.uleb128 0x18
 1608 0877 01       		.uleb128 0x1
 1609 0878 52       		.byte	0x52
 1610 0879 02       		.uleb128 0x2
 1611 087a 76       		.byte	0x76
 1612 087b 00       		.sleb128 0
 1613 087c 18       		.uleb128 0x18
 1614 087d 01       		.uleb128 0x1
 1615 087e 51       		.byte	0x51
 1616 087f 02       		.uleb128 0x2
 1617 0880 75       		.byte	0x75
 1618 0881 00       		.sleb128 0
 1619 0882 18       		.uleb128 0x18
 1620 0883 01       		.uleb128 0x1
 1621 0884 50       		.byte	0x50
 1622 0885 02       		.uleb128 0x2
 1623 0886 77       		.byte	0x77
 1624 0887 00       		.sleb128 0
 1625 0888 00       		.byte	0
 1626 0889 17       		.uleb128 0x17
 1627 088a 84010000 		.4byte	.LVL57
 1628 088e B6090000 		.4byte	0x9b6
 1629 0892 A2080000 		.4byte	0x8a2
 1630 0896 18       		.uleb128 0x18
 1631 0897 01       		.uleb128 0x1
 1632 0898 53       		.byte	0x53
 1633 0899 01       		.uleb128 0x1
 1634 089a 32       		.byte	0x32
 1635 089b 18       		.uleb128 0x18
 1636 089c 01       		.uleb128 0x1
 1637 089d 51       		.byte	0x51
 1638 089e 02       		.uleb128 0x2
 1639 089f 75       		.byte	0x75
 1640 08a0 00       		.sleb128 0
 1641 08a1 00       		.byte	0
 1642 08a2 19       		.uleb128 0x19
 1643 08a3 96010000 		.4byte	.LVL59
 1644 08a7 B6090000 		.4byte	0x9b6
 1645 08ab 18       		.uleb128 0x18
 1646 08ac 01       		.uleb128 0x1
 1647 08ad 53       		.byte	0x53
 1648 08ae 01       		.uleb128 0x1
 1649 08af 32       		.byte	0x32
 1650 08b0 18       		.uleb128 0x18
 1651 08b1 01       		.uleb128 0x1
ARM GAS  /tmp/ccWfXb6d.s 			page 30


 1652 08b2 52       		.byte	0x52
 1653 08b3 03       		.uleb128 0x3
 1654 08b4 F3       		.byte	0xf3
 1655 08b5 01       		.uleb128 0x1
 1656 08b6 52       		.byte	0x52
 1657 08b7 18       		.uleb128 0x18
 1658 08b8 01       		.uleb128 0x1
 1659 08b9 51       		.byte	0x51
 1660 08ba 05       		.uleb128 0x5
 1661 08bb F3       		.byte	0xf3
 1662 08bc 01       		.uleb128 0x1
 1663 08bd 51       		.byte	0x51
 1664 08be 31       		.byte	0x31
 1665 08bf 25       		.byte	0x25
 1666 08c0 18       		.uleb128 0x18
 1667 08c1 01       		.uleb128 0x1
 1668 08c2 50       		.byte	0x50
 1669 08c3 09       		.uleb128 0x9
 1670 08c4 F3       		.byte	0xf3
 1671 08c5 01       		.uleb128 0x1
 1672 08c6 51       		.byte	0x51
 1673 08c7 31       		.byte	0x31
 1674 08c8 24       		.byte	0x24
 1675 08c9 F3       		.byte	0xf3
 1676 08ca 01       		.uleb128 0x1
 1677 08cb 50       		.byte	0x50
 1678 08cc 22       		.byte	0x22
 1679 08cd 00       		.byte	0
 1680 08ce 00       		.byte	0
 1681 08cf 0D       		.uleb128 0xd
 1682 08d0 70020000 		.4byte	.LASF45
 1683 08d4 01       		.byte	0x1
 1684 08d5 59       		.byte	0x59
 1685 08d6 A0010000 		.4byte	.LFB135
 1686 08da BC000000 		.4byte	.LFE135-.LFB135
 1687 08de 01       		.uleb128 0x1
 1688 08df 9C       		.byte	0x9c
 1689 08e0 96090000 		.4byte	0x996
 1690 08e4 1F       		.uleb128 0x1f
 1691 08e5 5300     		.ascii	"S\000"
 1692 08e7 01       		.byte	0x1
 1693 08e8 5A       		.byte	0x5a
 1694 08e9 7C010000 		.4byte	0x17c
 1695 08ed 48090000 		.4byte	.LLST72
 1696 08f1 1F       		.uleb128 0x1f
 1697 08f2 703100   		.ascii	"p1\000"
 1698 08f5 01       		.byte	0x1
 1699 08f6 5B       		.byte	0x5b
 1700 08f7 10010000 		.4byte	0x110
 1701 08fb D7090000 		.4byte	.LLST73
 1702 08ff 0E       		.uleb128 0xe
 1703 0900 CC030000 		.4byte	.LASF46
 1704 0904 01       		.byte	0x1
 1705 0905 5C       		.byte	0x5c
 1706 0906 9E000000 		.4byte	0x9e
 1707 090a 190A0000 		.4byte	.LLST74
 1708 090e 0E       		.uleb128 0xe
ARM GAS  /tmp/ccWfXb6d.s 			page 31


 1709 090f F6010000 		.4byte	.LASF47
 1710 0913 01       		.byte	0x1
 1711 0914 5D       		.byte	0x5d
 1712 0915 9E000000 		.4byte	0x9e
 1713 0919 A90A0000 		.4byte	.LLST75
 1714 091d 0F       		.uleb128 0xf
 1715 091e 4C00     		.ascii	"L\000"
 1716 0920 01       		.byte	0x1
 1717 0921 5F       		.byte	0x5f
 1718 0922 CA000000 		.4byte	0xca
 1719 0926 390B0000 		.4byte	.LLST76
 1720 092a 17       		.uleb128 0x17
 1721 092b E6010000 		.4byte	.LVL67
 1722 092f 96090000 		.4byte	0x996
 1723 0933 43090000 		.4byte	0x943
 1724 0937 18       		.uleb128 0x18
 1725 0938 01       		.uleb128 0x1
 1726 0939 53       		.byte	0x53
 1727 093a 01       		.uleb128 0x1
 1728 093b 31       		.byte	0x31
 1729 093c 18       		.uleb128 0x18
 1730 093d 01       		.uleb128 0x1
 1731 093e 50       		.byte	0x50
 1732 093f 02       		.uleb128 0x2
 1733 0940 75       		.byte	0x75
 1734 0941 00       		.sleb128 0
 1735 0942 00       		.byte	0
 1736 0943 20       		.uleb128 0x20
 1737 0944 F8010000 		.4byte	.LVL69
 1738 0948 D6090000 		.4byte	0x9d6
 1739 094c 58090000 		.4byte	0x958
 1740 0950 18       		.uleb128 0x18
 1741 0951 01       		.uleb128 0x1
 1742 0952 50       		.byte	0x50
 1743 0953 03       		.uleb128 0x3
 1744 0954 F3       		.byte	0xf3
 1745 0955 01       		.uleb128 0x1
 1746 0956 51       		.byte	0x51
 1747 0957 00       		.byte	0
 1748 0958 17       		.uleb128 0x17
 1749 0959 16020000 		.4byte	.LVL72
 1750 095d C2050000 		.4byte	0x5c2
 1751 0961 6C090000 		.4byte	0x96c
 1752 0965 18       		.uleb128 0x18
 1753 0966 01       		.uleb128 0x1
 1754 0967 50       		.byte	0x50
 1755 0968 02       		.uleb128 0x2
 1756 0969 75       		.byte	0x75
 1757 096a 00       		.sleb128 0
 1758 096b 00       		.byte	0
 1759 096c 17       		.uleb128 0x17
 1760 096d 26020000 		.4byte	.LVL76
 1761 0971 CB020000 		.4byte	0x2cb
 1762 0975 80090000 		.4byte	0x980
 1763 0979 18       		.uleb128 0x18
 1764 097a 01       		.uleb128 0x1
 1765 097b 50       		.byte	0x50
ARM GAS  /tmp/ccWfXb6d.s 			page 32


 1766 097c 02       		.uleb128 0x2
 1767 097d 75       		.byte	0x75
 1768 097e 00       		.sleb128 0
 1769 097f 00       		.byte	0
 1770 0980 21       		.uleb128 0x21
 1771 0981 46020000 		.4byte	.LVL81
 1772 0985 B6090000 		.4byte	0x9b6
 1773 0989 18       		.uleb128 0x18
 1774 098a 01       		.uleb128 0x1
 1775 098b 53       		.byte	0x53
 1776 098c 01       		.uleb128 0x1
 1777 098d 31       		.byte	0x31
 1778 098e 18       		.uleb128 0x18
 1779 098f 01       		.uleb128 0x1
 1780 0990 50       		.byte	0x50
 1781 0991 02       		.uleb128 0x2
 1782 0992 75       		.byte	0x75
 1783 0993 00       		.sleb128 0
 1784 0994 00       		.byte	0
 1785 0995 00       		.byte	0
 1786 0996 22       		.uleb128 0x22
 1787 0997 8D030000 		.4byte	.LASF48
 1788 099b 01       		.byte	0x1
 1789 099c 2B       		.byte	0x2b
 1790 099d B6090000 		.4byte	0x9b6
 1791 09a1 23       		.uleb128 0x23
 1792 09a2 10010000 		.4byte	0x110
 1793 09a6 23       		.uleb128 0x23
 1794 09a7 CA000000 		.4byte	0xca
 1795 09ab 23       		.uleb128 0x23
 1796 09ac 10010000 		.4byte	0x110
 1797 09b0 23       		.uleb128 0x23
 1798 09b1 CA000000 		.4byte	0xca
 1799 09b5 00       		.byte	0
 1800 09b6 22       		.uleb128 0x22
 1801 09b7 3F010000 		.4byte	.LASF49
 1802 09bb 01       		.byte	0x1
 1803 09bc 31       		.byte	0x31
 1804 09bd D6090000 		.4byte	0x9d6
 1805 09c1 23       		.uleb128 0x23
 1806 09c2 10010000 		.4byte	0x110
 1807 09c6 23       		.uleb128 0x23
 1808 09c7 CA000000 		.4byte	0xca
 1809 09cb 23       		.uleb128 0x23
 1810 09cc 10010000 		.4byte	0x110
 1811 09d0 23       		.uleb128 0x23
 1812 09d1 CA000000 		.4byte	0xca
 1813 09d5 00       		.byte	0
 1814 09d6 24       		.uleb128 0x24
 1815 09d7 75010000 		.4byte	.LASF52
 1816 09db 01       		.byte	0x1
 1817 09dc 37       		.byte	0x37
 1818 09dd 23       		.uleb128 0x23
 1819 09de 16010000 		.4byte	0x116
 1820 09e2 23       		.uleb128 0x23
 1821 09e3 6B010000 		.4byte	0x16b
 1822 09e7 23       		.uleb128 0x23
ARM GAS  /tmp/ccWfXb6d.s 			page 33


 1823 09e8 65010000 		.4byte	0x165
 1824 09ec 00       		.byte	0
 1825 09ed 00       		.byte	0
 1826              		.section	.debug_abbrev,"",%progbits
 1827              	.Ldebug_abbrev0:
 1828 0000 01       		.uleb128 0x1
 1829 0001 11       		.uleb128 0x11
 1830 0002 01       		.byte	0x1
 1831 0003 25       		.uleb128 0x25
 1832 0004 0E       		.uleb128 0xe
 1833 0005 13       		.uleb128 0x13
 1834 0006 0B       		.uleb128 0xb
 1835 0007 03       		.uleb128 0x3
 1836 0008 0E       		.uleb128 0xe
 1837 0009 11       		.uleb128 0x11
 1838 000a 01       		.uleb128 0x1
 1839 000b 12       		.uleb128 0x12
 1840 000c 06       		.uleb128 0x6
 1841 000d 10       		.uleb128 0x10
 1842 000e 17       		.uleb128 0x17
 1843 000f 00       		.byte	0
 1844 0010 00       		.byte	0
 1845 0011 02       		.uleb128 0x2
 1846 0012 24       		.uleb128 0x24
 1847 0013 00       		.byte	0
 1848 0014 0B       		.uleb128 0xb
 1849 0015 0B       		.uleb128 0xb
 1850 0016 3E       		.uleb128 0x3e
 1851 0017 0B       		.uleb128 0xb
 1852 0018 03       		.uleb128 0x3
 1853 0019 0E       		.uleb128 0xe
 1854 001a 00       		.byte	0
 1855 001b 00       		.byte	0
 1856 001c 03       		.uleb128 0x3
 1857 001d 16       		.uleb128 0x16
 1858 001e 00       		.byte	0
 1859 001f 03       		.uleb128 0x3
 1860 0020 0E       		.uleb128 0xe
 1861 0021 3A       		.uleb128 0x3a
 1862 0022 0B       		.uleb128 0xb
 1863 0023 3B       		.uleb128 0x3b
 1864 0024 0B       		.uleb128 0xb
 1865 0025 49       		.uleb128 0x49
 1866 0026 13       		.uleb128 0x13
 1867 0027 00       		.byte	0
 1868 0028 00       		.byte	0
 1869 0029 04       		.uleb128 0x4
 1870 002a 24       		.uleb128 0x24
 1871 002b 00       		.byte	0
 1872 002c 0B       		.uleb128 0xb
 1873 002d 0B       		.uleb128 0xb
 1874 002e 3E       		.uleb128 0x3e
 1875 002f 0B       		.uleb128 0xb
 1876 0030 03       		.uleb128 0x3
 1877 0031 08       		.uleb128 0x8
 1878 0032 00       		.byte	0
 1879 0033 00       		.byte	0
ARM GAS  /tmp/ccWfXb6d.s 			page 34


 1880 0034 05       		.uleb128 0x5
 1881 0035 16       		.uleb128 0x16
 1882 0036 00       		.byte	0
 1883 0037 03       		.uleb128 0x3
 1884 0038 0E       		.uleb128 0xe
 1885 0039 3A       		.uleb128 0x3a
 1886 003a 0B       		.uleb128 0xb
 1887 003b 3B       		.uleb128 0x3b
 1888 003c 05       		.uleb128 0x5
 1889 003d 49       		.uleb128 0x49
 1890 003e 13       		.uleb128 0x13
 1891 003f 00       		.byte	0
 1892 0040 00       		.byte	0
 1893 0041 06       		.uleb128 0x6
 1894 0042 0F       		.uleb128 0xf
 1895 0043 00       		.byte	0
 1896 0044 0B       		.uleb128 0xb
 1897 0045 0B       		.uleb128 0xb
 1898 0046 49       		.uleb128 0x49
 1899 0047 13       		.uleb128 0x13
 1900 0048 00       		.byte	0
 1901 0049 00       		.byte	0
 1902 004a 07       		.uleb128 0x7
 1903 004b 13       		.uleb128 0x13
 1904 004c 01       		.byte	0x1
 1905 004d 0B       		.uleb128 0xb
 1906 004e 0B       		.uleb128 0xb
 1907 004f 3A       		.uleb128 0x3a
 1908 0050 0B       		.uleb128 0xb
 1909 0051 3B       		.uleb128 0x3b
 1910 0052 05       		.uleb128 0x5
 1911 0053 01       		.uleb128 0x1
 1912 0054 13       		.uleb128 0x13
 1913 0055 00       		.byte	0
 1914 0056 00       		.byte	0
 1915 0057 08       		.uleb128 0x8
 1916 0058 0D       		.uleb128 0xd
 1917 0059 00       		.byte	0
 1918 005a 03       		.uleb128 0x3
 1919 005b 0E       		.uleb128 0xe
 1920 005c 3A       		.uleb128 0x3a
 1921 005d 0B       		.uleb128 0xb
 1922 005e 3B       		.uleb128 0x3b
 1923 005f 05       		.uleb128 0x5
 1924 0060 49       		.uleb128 0x49
 1925 0061 13       		.uleb128 0x13
 1926 0062 38       		.uleb128 0x38
 1927 0063 0B       		.uleb128 0xb
 1928 0064 00       		.byte	0
 1929 0065 00       		.byte	0
 1930 0066 09       		.uleb128 0x9
 1931 0067 26       		.uleb128 0x26
 1932 0068 00       		.byte	0
 1933 0069 49       		.uleb128 0x49
 1934 006a 13       		.uleb128 0x13
 1935 006b 00       		.byte	0
 1936 006c 00       		.byte	0
ARM GAS  /tmp/ccWfXb6d.s 			page 35


 1937 006d 0A       		.uleb128 0xa
 1938 006e 2E       		.uleb128 0x2e
 1939 006f 01       		.byte	0x1
 1940 0070 03       		.uleb128 0x3
 1941 0071 0E       		.uleb128 0xe
 1942 0072 3A       		.uleb128 0x3a
 1943 0073 0B       		.uleb128 0xb
 1944 0074 3B       		.uleb128 0x3b
 1945 0075 05       		.uleb128 0x5
 1946 0076 27       		.uleb128 0x27
 1947 0077 19       		.uleb128 0x19
 1948 0078 49       		.uleb128 0x49
 1949 0079 13       		.uleb128 0x13
 1950 007a 20       		.uleb128 0x20
 1951 007b 0B       		.uleb128 0xb
 1952 007c 01       		.uleb128 0x1
 1953 007d 13       		.uleb128 0x13
 1954 007e 00       		.byte	0
 1955 007f 00       		.byte	0
 1956 0080 0B       		.uleb128 0xb
 1957 0081 05       		.uleb128 0x5
 1958 0082 00       		.byte	0
 1959 0083 03       		.uleb128 0x3
 1960 0084 08       		.uleb128 0x8
 1961 0085 3A       		.uleb128 0x3a
 1962 0086 0B       		.uleb128 0xb
 1963 0087 3B       		.uleb128 0x3b
 1964 0088 05       		.uleb128 0x5
 1965 0089 49       		.uleb128 0x49
 1966 008a 13       		.uleb128 0x13
 1967 008b 00       		.byte	0
 1968 008c 00       		.byte	0
 1969 008d 0C       		.uleb128 0xc
 1970 008e 34       		.uleb128 0x34
 1971 008f 00       		.byte	0
 1972 0090 03       		.uleb128 0x3
 1973 0091 0E       		.uleb128 0xe
 1974 0092 3A       		.uleb128 0x3a
 1975 0093 0B       		.uleb128 0xb
 1976 0094 3B       		.uleb128 0x3b
 1977 0095 05       		.uleb128 0x5
 1978 0096 49       		.uleb128 0x49
 1979 0097 13       		.uleb128 0x13
 1980 0098 00       		.byte	0
 1981 0099 00       		.byte	0
 1982 009a 0D       		.uleb128 0xd
 1983 009b 2E       		.uleb128 0x2e
 1984 009c 01       		.byte	0x1
 1985 009d 3F       		.uleb128 0x3f
 1986 009e 19       		.uleb128 0x19
 1987 009f 03       		.uleb128 0x3
 1988 00a0 0E       		.uleb128 0xe
 1989 00a1 3A       		.uleb128 0x3a
 1990 00a2 0B       		.uleb128 0xb
 1991 00a3 3B       		.uleb128 0x3b
 1992 00a4 0B       		.uleb128 0xb
 1993 00a5 27       		.uleb128 0x27
ARM GAS  /tmp/ccWfXb6d.s 			page 36


 1994 00a6 19       		.uleb128 0x19
 1995 00a7 11       		.uleb128 0x11
 1996 00a8 01       		.uleb128 0x1
 1997 00a9 12       		.uleb128 0x12
 1998 00aa 06       		.uleb128 0x6
 1999 00ab 40       		.uleb128 0x40
 2000 00ac 18       		.uleb128 0x18
 2001 00ad 9742     		.uleb128 0x2117
 2002 00af 19       		.uleb128 0x19
 2003 00b0 01       		.uleb128 0x1
 2004 00b1 13       		.uleb128 0x13
 2005 00b2 00       		.byte	0
 2006 00b3 00       		.byte	0
 2007 00b4 0E       		.uleb128 0xe
 2008 00b5 05       		.uleb128 0x5
 2009 00b6 00       		.byte	0
 2010 00b7 03       		.uleb128 0x3
 2011 00b8 0E       		.uleb128 0xe
 2012 00b9 3A       		.uleb128 0x3a
 2013 00ba 0B       		.uleb128 0xb
 2014 00bb 3B       		.uleb128 0x3b
 2015 00bc 0B       		.uleb128 0xb
 2016 00bd 49       		.uleb128 0x49
 2017 00be 13       		.uleb128 0x13
 2018 00bf 02       		.uleb128 0x2
 2019 00c0 17       		.uleb128 0x17
 2020 00c1 00       		.byte	0
 2021 00c2 00       		.byte	0
 2022 00c3 0F       		.uleb128 0xf
 2023 00c4 34       		.uleb128 0x34
 2024 00c5 00       		.byte	0
 2025 00c6 03       		.uleb128 0x3
 2026 00c7 08       		.uleb128 0x8
 2027 00c8 3A       		.uleb128 0x3a
 2028 00c9 0B       		.uleb128 0xb
 2029 00ca 3B       		.uleb128 0x3b
 2030 00cb 0B       		.uleb128 0xb
 2031 00cc 49       		.uleb128 0x49
 2032 00cd 13       		.uleb128 0x13
 2033 00ce 02       		.uleb128 0x2
 2034 00cf 17       		.uleb128 0x17
 2035 00d0 00       		.byte	0
 2036 00d1 00       		.byte	0
 2037 00d2 10       		.uleb128 0x10
 2038 00d3 34       		.uleb128 0x34
 2039 00d4 00       		.byte	0
 2040 00d5 03       		.uleb128 0x3
 2041 00d6 0E       		.uleb128 0xe
 2042 00d7 3A       		.uleb128 0x3a
 2043 00d8 0B       		.uleb128 0xb
 2044 00d9 3B       		.uleb128 0x3b
 2045 00da 0B       		.uleb128 0xb
 2046 00db 49       		.uleb128 0x49
 2047 00dc 13       		.uleb128 0x13
 2048 00dd 02       		.uleb128 0x2
 2049 00de 17       		.uleb128 0x17
 2050 00df 00       		.byte	0
ARM GAS  /tmp/ccWfXb6d.s 			page 37


 2051 00e0 00       		.byte	0
 2052 00e1 11       		.uleb128 0x11
 2053 00e2 1D       		.uleb128 0x1d
 2054 00e3 01       		.byte	0x1
 2055 00e4 31       		.uleb128 0x31
 2056 00e5 13       		.uleb128 0x13
 2057 00e6 52       		.uleb128 0x52
 2058 00e7 01       		.uleb128 0x1
 2059 00e8 55       		.uleb128 0x55
 2060 00e9 17       		.uleb128 0x17
 2061 00ea 58       		.uleb128 0x58
 2062 00eb 0B       		.uleb128 0xb
 2063 00ec 59       		.uleb128 0x59
 2064 00ed 0B       		.uleb128 0xb
 2065 00ee 01       		.uleb128 0x1
 2066 00ef 13       		.uleb128 0x13
 2067 00f0 00       		.byte	0
 2068 00f1 00       		.byte	0
 2069 00f2 12       		.uleb128 0x12
 2070 00f3 05       		.uleb128 0x5
 2071 00f4 00       		.byte	0
 2072 00f5 31       		.uleb128 0x31
 2073 00f6 13       		.uleb128 0x13
 2074 00f7 02       		.uleb128 0x2
 2075 00f8 17       		.uleb128 0x17
 2076 00f9 00       		.byte	0
 2077 00fa 00       		.byte	0
 2078 00fb 13       		.uleb128 0x13
 2079 00fc 0B       		.uleb128 0xb
 2080 00fd 01       		.byte	0x1
 2081 00fe 55       		.uleb128 0x55
 2082 00ff 17       		.uleb128 0x17
 2083 0100 00       		.byte	0
 2084 0101 00       		.byte	0
 2085 0102 14       		.uleb128 0x14
 2086 0103 34       		.uleb128 0x34
 2087 0104 00       		.byte	0
 2088 0105 31       		.uleb128 0x31
 2089 0106 13       		.uleb128 0x13
 2090 0107 02       		.uleb128 0x2
 2091 0108 17       		.uleb128 0x17
 2092 0109 00       		.byte	0
 2093 010a 00       		.byte	0
 2094 010b 15       		.uleb128 0x15
 2095 010c 1D       		.uleb128 0x1d
 2096 010d 01       		.byte	0x1
 2097 010e 31       		.uleb128 0x31
 2098 010f 13       		.uleb128 0x13
 2099 0110 11       		.uleb128 0x11
 2100 0111 01       		.uleb128 0x1
 2101 0112 12       		.uleb128 0x12
 2102 0113 06       		.uleb128 0x6
 2103 0114 58       		.uleb128 0x58
 2104 0115 0B       		.uleb128 0xb
 2105 0116 59       		.uleb128 0x59
 2106 0117 0B       		.uleb128 0xb
 2107 0118 01       		.uleb128 0x1
ARM GAS  /tmp/ccWfXb6d.s 			page 38


 2108 0119 13       		.uleb128 0x13
 2109 011a 00       		.byte	0
 2110 011b 00       		.byte	0
 2111 011c 16       		.uleb128 0x16
 2112 011d 0B       		.uleb128 0xb
 2113 011e 01       		.byte	0x1
 2114 011f 11       		.uleb128 0x11
 2115 0120 01       		.uleb128 0x1
 2116 0121 12       		.uleb128 0x12
 2117 0122 06       		.uleb128 0x6
 2118 0123 00       		.byte	0
 2119 0124 00       		.byte	0
 2120 0125 17       		.uleb128 0x17
 2121 0126 898201   		.uleb128 0x4109
 2122 0129 01       		.byte	0x1
 2123 012a 11       		.uleb128 0x11
 2124 012b 01       		.uleb128 0x1
 2125 012c 31       		.uleb128 0x31
 2126 012d 13       		.uleb128 0x13
 2127 012e 01       		.uleb128 0x1
 2128 012f 13       		.uleb128 0x13
 2129 0130 00       		.byte	0
 2130 0131 00       		.byte	0
 2131 0132 18       		.uleb128 0x18
 2132 0133 8A8201   		.uleb128 0x410a
 2133 0136 00       		.byte	0
 2134 0137 02       		.uleb128 0x2
 2135 0138 18       		.uleb128 0x18
 2136 0139 9142     		.uleb128 0x2111
 2137 013b 18       		.uleb128 0x18
 2138 013c 00       		.byte	0
 2139 013d 00       		.byte	0
 2140 013e 19       		.uleb128 0x19
 2141 013f 898201   		.uleb128 0x4109
 2142 0142 01       		.byte	0x1
 2143 0143 11       		.uleb128 0x11
 2144 0144 01       		.uleb128 0x1
 2145 0145 9542     		.uleb128 0x2115
 2146 0147 19       		.uleb128 0x19
 2147 0148 31       		.uleb128 0x31
 2148 0149 13       		.uleb128 0x13
 2149 014a 00       		.byte	0
 2150 014b 00       		.byte	0
 2151 014c 1A       		.uleb128 0x1a
 2152 014d 05       		.uleb128 0x5
 2153 014e 00       		.byte	0
 2154 014f 03       		.uleb128 0x3
 2155 0150 0E       		.uleb128 0xe
 2156 0151 3A       		.uleb128 0x3a
 2157 0152 0B       		.uleb128 0xb
 2158 0153 3B       		.uleb128 0x3b
 2159 0154 05       		.uleb128 0x5
 2160 0155 49       		.uleb128 0x49
 2161 0156 13       		.uleb128 0x13
 2162 0157 02       		.uleb128 0x2
 2163 0158 17       		.uleb128 0x17
 2164 0159 00       		.byte	0
ARM GAS  /tmp/ccWfXb6d.s 			page 39


 2165 015a 00       		.byte	0
 2166 015b 1B       		.uleb128 0x1b
 2167 015c 34       		.uleb128 0x34
 2168 015d 00       		.byte	0
 2169 015e 03       		.uleb128 0x3
 2170 015f 08       		.uleb128 0x8
 2171 0160 3A       		.uleb128 0x3a
 2172 0161 0B       		.uleb128 0xb
 2173 0162 3B       		.uleb128 0x3b
 2174 0163 05       		.uleb128 0x5
 2175 0164 49       		.uleb128 0x49
 2176 0165 13       		.uleb128 0x13
 2177 0166 02       		.uleb128 0x2
 2178 0167 17       		.uleb128 0x17
 2179 0168 00       		.byte	0
 2180 0169 00       		.byte	0
 2181 016a 1C       		.uleb128 0x1c
 2182 016b 34       		.uleb128 0x34
 2183 016c 00       		.byte	0
 2184 016d 03       		.uleb128 0x3
 2185 016e 0E       		.uleb128 0xe
 2186 016f 3A       		.uleb128 0x3a
 2187 0170 0B       		.uleb128 0xb
 2188 0171 3B       		.uleb128 0x3b
 2189 0172 05       		.uleb128 0x5
 2190 0173 49       		.uleb128 0x49
 2191 0174 13       		.uleb128 0x13
 2192 0175 02       		.uleb128 0x2
 2193 0176 17       		.uleb128 0x17
 2194 0177 00       		.byte	0
 2195 0178 00       		.byte	0
 2196 0179 1D       		.uleb128 0x1d
 2197 017a 1D       		.uleb128 0x1d
 2198 017b 01       		.byte	0x1
 2199 017c 31       		.uleb128 0x31
 2200 017d 13       		.uleb128 0x13
 2201 017e 52       		.uleb128 0x52
 2202 017f 01       		.uleb128 0x1
 2203 0180 55       		.uleb128 0x55
 2204 0181 17       		.uleb128 0x17
 2205 0182 58       		.uleb128 0x58
 2206 0183 0B       		.uleb128 0xb
 2207 0184 59       		.uleb128 0x59
 2208 0185 05       		.uleb128 0x5
 2209 0186 01       		.uleb128 0x1
 2210 0187 13       		.uleb128 0x13
 2211 0188 00       		.byte	0
 2212 0189 00       		.byte	0
 2213 018a 1E       		.uleb128 0x1e
 2214 018b 1D       		.uleb128 0x1d
 2215 018c 01       		.byte	0x1
 2216 018d 31       		.uleb128 0x31
 2217 018e 13       		.uleb128 0x13
 2218 018f 11       		.uleb128 0x11
 2219 0190 01       		.uleb128 0x1
 2220 0191 12       		.uleb128 0x12
 2221 0192 06       		.uleb128 0x6
ARM GAS  /tmp/ccWfXb6d.s 			page 40


 2222 0193 58       		.uleb128 0x58
 2223 0194 0B       		.uleb128 0xb
 2224 0195 59       		.uleb128 0x59
 2225 0196 05       		.uleb128 0x5
 2226 0197 01       		.uleb128 0x1
 2227 0198 13       		.uleb128 0x13
 2228 0199 00       		.byte	0
 2229 019a 00       		.byte	0
 2230 019b 1F       		.uleb128 0x1f
 2231 019c 05       		.uleb128 0x5
 2232 019d 00       		.byte	0
 2233 019e 03       		.uleb128 0x3
 2234 019f 08       		.uleb128 0x8
 2235 01a0 3A       		.uleb128 0x3a
 2236 01a1 0B       		.uleb128 0xb
 2237 01a2 3B       		.uleb128 0x3b
 2238 01a3 0B       		.uleb128 0xb
 2239 01a4 49       		.uleb128 0x49
 2240 01a5 13       		.uleb128 0x13
 2241 01a6 02       		.uleb128 0x2
 2242 01a7 17       		.uleb128 0x17
 2243 01a8 00       		.byte	0
 2244 01a9 00       		.byte	0
 2245 01aa 20       		.uleb128 0x20
 2246 01ab 898201   		.uleb128 0x4109
 2247 01ae 01       		.byte	0x1
 2248 01af 11       		.uleb128 0x11
 2249 01b0 01       		.uleb128 0x1
 2250 01b1 9542     		.uleb128 0x2115
 2251 01b3 19       		.uleb128 0x19
 2252 01b4 31       		.uleb128 0x31
 2253 01b5 13       		.uleb128 0x13
 2254 01b6 01       		.uleb128 0x1
 2255 01b7 13       		.uleb128 0x13
 2256 01b8 00       		.byte	0
 2257 01b9 00       		.byte	0
 2258 01ba 21       		.uleb128 0x21
 2259 01bb 898201   		.uleb128 0x4109
 2260 01be 01       		.byte	0x1
 2261 01bf 11       		.uleb128 0x11
 2262 01c0 01       		.uleb128 0x1
 2263 01c1 31       		.uleb128 0x31
 2264 01c2 13       		.uleb128 0x13
 2265 01c3 00       		.byte	0
 2266 01c4 00       		.byte	0
 2267 01c5 22       		.uleb128 0x22
 2268 01c6 2E       		.uleb128 0x2e
 2269 01c7 01       		.byte	0x1
 2270 01c8 3F       		.uleb128 0x3f
 2271 01c9 19       		.uleb128 0x19
 2272 01ca 03       		.uleb128 0x3
 2273 01cb 0E       		.uleb128 0xe
 2274 01cc 3A       		.uleb128 0x3a
 2275 01cd 0B       		.uleb128 0xb
 2276 01ce 3B       		.uleb128 0x3b
 2277 01cf 0B       		.uleb128 0xb
 2278 01d0 27       		.uleb128 0x27
ARM GAS  /tmp/ccWfXb6d.s 			page 41


 2279 01d1 19       		.uleb128 0x19
 2280 01d2 3C       		.uleb128 0x3c
 2281 01d3 19       		.uleb128 0x19
 2282 01d4 01       		.uleb128 0x1
 2283 01d5 13       		.uleb128 0x13
 2284 01d6 00       		.byte	0
 2285 01d7 00       		.byte	0
 2286 01d8 23       		.uleb128 0x23
 2287 01d9 05       		.uleb128 0x5
 2288 01da 00       		.byte	0
 2289 01db 49       		.uleb128 0x49
 2290 01dc 13       		.uleb128 0x13
 2291 01dd 00       		.byte	0
 2292 01de 00       		.byte	0
 2293 01df 24       		.uleb128 0x24
 2294 01e0 2E       		.uleb128 0x2e
 2295 01e1 01       		.byte	0x1
 2296 01e2 3F       		.uleb128 0x3f
 2297 01e3 19       		.uleb128 0x19
 2298 01e4 03       		.uleb128 0x3
 2299 01e5 0E       		.uleb128 0xe
 2300 01e6 3A       		.uleb128 0x3a
 2301 01e7 0B       		.uleb128 0xb
 2302 01e8 3B       		.uleb128 0x3b
 2303 01e9 0B       		.uleb128 0xb
 2304 01ea 27       		.uleb128 0x27
 2305 01eb 19       		.uleb128 0x19
 2306 01ec 3C       		.uleb128 0x3c
 2307 01ed 19       		.uleb128 0x19
 2308 01ee 00       		.byte	0
 2309 01ef 00       		.byte	0
 2310 01f0 00       		.byte	0
 2311              		.section	.debug_loc,"",%progbits
 2312              	.Ldebug_loc0:
 2313              	.LLST0:
 2314 0000 00000000 		.4byte	.LVL0-.Ltext0
 2315 0004 1E000000 		.4byte	.LVL3-.Ltext0
 2316 0008 0100     		.2byte	0x1
 2317 000a 50       		.byte	0x50
 2318 000b 1E000000 		.4byte	.LVL3-.Ltext0
 2319 000f 74000000 		.4byte	.LVL20-.Ltext0
 2320 0013 0100     		.2byte	0x1
 2321 0015 54       		.byte	0x54
 2322 0016 74000000 		.4byte	.LVL20-.Ltext0
 2323 001a AC000000 		.4byte	.LVL25-.Ltext0
 2324 001e 0400     		.2byte	0x4
 2325 0020 F3       		.byte	0xf3
 2326 0021 01       		.uleb128 0x1
 2327 0022 50       		.byte	0x50
 2328 0023 9F       		.byte	0x9f
 2329 0024 AC000000 		.4byte	.LVL25-.Ltext0
 2330 0028 B3000000 		.4byte	.LVL27-1-.Ltext0
 2331 002c 0100     		.2byte	0x1
 2332 002e 50       		.byte	0x50
 2333 002f B3000000 		.4byte	.LVL27-1-.Ltext0
 2334 0033 C2000000 		.4byte	.LVL28-.Ltext0
 2335 0037 0100     		.2byte	0x1
ARM GAS  /tmp/ccWfXb6d.s 			page 42


 2336 0039 54       		.byte	0x54
 2337 003a C2000000 		.4byte	.LVL28-.Ltext0
 2338 003e C6000000 		.4byte	.LFE136-.Ltext0
 2339 0042 0400     		.2byte	0x4
 2340 0044 F3       		.byte	0xf3
 2341 0045 01       		.uleb128 0x1
 2342 0046 50       		.byte	0x50
 2343 0047 9F       		.byte	0x9f
 2344 0048 00000000 		.4byte	0
 2345 004c 00000000 		.4byte	0
 2346              	.LLST1:
 2347 0050 00000000 		.4byte	.LVL0-.Ltext0
 2348 0054 1A000000 		.4byte	.LVL2-.Ltext0
 2349 0058 0100     		.2byte	0x1
 2350 005a 51       		.byte	0x51
 2351 005b 1A000000 		.4byte	.LVL2-.Ltext0
 2352 005f AC000000 		.4byte	.LVL25-.Ltext0
 2353 0063 0400     		.2byte	0x4
 2354 0065 F3       		.byte	0xf3
 2355 0066 01       		.uleb128 0x1
 2356 0067 51       		.byte	0x51
 2357 0068 9F       		.byte	0x9f
 2358 0069 AC000000 		.4byte	.LVL25-.Ltext0
 2359 006d AE000000 		.4byte	.LVL26-.Ltext0
 2360 0071 0100     		.2byte	0x1
 2361 0073 51       		.byte	0x51
 2362 0074 AE000000 		.4byte	.LVL26-.Ltext0
 2363 0078 C6000000 		.4byte	.LFE136-.Ltext0
 2364 007c 0400     		.2byte	0x4
 2365 007e F3       		.byte	0xf3
 2366 007f 01       		.uleb128 0x1
 2367 0080 51       		.byte	0x51
 2368 0081 9F       		.byte	0x9f
 2369 0082 00000000 		.4byte	0
 2370 0086 00000000 		.4byte	0
 2371              	.LLST2:
 2372 008a 00000000 		.4byte	.LVL0-.Ltext0
 2373 008e 1E000000 		.4byte	.LVL3-.Ltext0
 2374 0092 0100     		.2byte	0x1
 2375 0094 52       		.byte	0x52
 2376 0095 1E000000 		.4byte	.LVL3-.Ltext0
 2377 0099 74000000 		.4byte	.LVL20-.Ltext0
 2378 009d 0100     		.2byte	0x1
 2379 009f 56       		.byte	0x56
 2380 00a0 74000000 		.4byte	.LVL20-.Ltext0
 2381 00a4 AC000000 		.4byte	.LVL25-.Ltext0
 2382 00a8 0400     		.2byte	0x4
 2383 00aa F3       		.byte	0xf3
 2384 00ab 01       		.uleb128 0x1
 2385 00ac 52       		.byte	0x52
 2386 00ad 9F       		.byte	0x9f
 2387 00ae AC000000 		.4byte	.LVL25-.Ltext0
 2388 00b2 B3000000 		.4byte	.LVL27-1-.Ltext0
 2389 00b6 0100     		.2byte	0x1
 2390 00b8 52       		.byte	0x52
 2391 00b9 B3000000 		.4byte	.LVL27-1-.Ltext0
 2392 00bd C2000000 		.4byte	.LVL28-.Ltext0
ARM GAS  /tmp/ccWfXb6d.s 			page 43


 2393 00c1 0100     		.2byte	0x1
 2394 00c3 56       		.byte	0x56
 2395 00c4 C2000000 		.4byte	.LVL28-.Ltext0
 2396 00c8 C5000000 		.4byte	.LVL29-1-.Ltext0
 2397 00cc 0100     		.2byte	0x1
 2398 00ce 52       		.byte	0x52
 2399 00cf C5000000 		.4byte	.LVL29-1-.Ltext0
 2400 00d3 C6000000 		.4byte	.LFE136-.Ltext0
 2401 00d7 0400     		.2byte	0x4
 2402 00d9 F3       		.byte	0xf3
 2403 00da 01       		.uleb128 0x1
 2404 00db 52       		.byte	0x52
 2405 00dc 9F       		.byte	0x9f
 2406 00dd 00000000 		.4byte	0
 2407 00e1 00000000 		.4byte	0
 2408              	.LLST3:
 2409 00e5 10000000 		.4byte	.LVL1-.Ltext0
 2410 00e9 1E000000 		.4byte	.LVL3-.Ltext0
 2411 00ed 0100     		.2byte	0x1
 2412 00ef 55       		.byte	0x55
 2413 00f0 1E000000 		.4byte	.LVL3-.Ltext0
 2414 00f4 50000000 		.4byte	.LVL13-.Ltext0
 2415 00f8 0100     		.2byte	0x1
 2416 00fa 51       		.byte	0x51
 2417 00fb 50000000 		.4byte	.LVL13-.Ltext0
 2418 00ff 54000000 		.4byte	.LVL14-.Ltext0
 2419 0103 0300     		.2byte	0x3
 2420 0105 71       		.byte	0x71
 2421 0106 01       		.sleb128 1
 2422 0107 9F       		.byte	0x9f
 2423 0108 6E000000 		.4byte	.LVL18-.Ltext0
 2424 010c 74000000 		.4byte	.LVL20-.Ltext0
 2425 0110 0200     		.2byte	0x2
 2426 0112 30       		.byte	0x30
 2427 0113 9F       		.byte	0x9f
 2428 0114 AC000000 		.4byte	.LVL25-.Ltext0
 2429 0118 C2000000 		.4byte	.LVL28-.Ltext0
 2430 011c 0100     		.2byte	0x1
 2431 011e 55       		.byte	0x55
 2432 011f C2000000 		.4byte	.LVL28-.Ltext0
 2433 0123 C5000000 		.4byte	.LVL29-1-.Ltext0
 2434 0127 0100     		.2byte	0x1
 2435 0129 51       		.byte	0x51
 2436 012a C5000000 		.4byte	.LVL29-1-.Ltext0
 2437 012e C6000000 		.4byte	.LFE136-.Ltext0
 2438 0132 0600     		.2byte	0x6
 2439 0134 F3       		.byte	0xf3
 2440 0135 01       		.uleb128 0x1
 2441 0136 51       		.byte	0x51
 2442 0137 31       		.byte	0x31
 2443 0138 25       		.byte	0x25
 2444 0139 9F       		.byte	0x9f
 2445 013a 00000000 		.4byte	0
 2446 013e 00000000 		.4byte	0
 2447              	.LLST4:
 2448 0142 10000000 		.4byte	.LVL1-.Ltext0
 2449 0146 72000000 		.4byte	.LVL19-.Ltext0
ARM GAS  /tmp/ccWfXb6d.s 			page 44


 2450 014a 0100     		.2byte	0x1
 2451 014c 55       		.byte	0x55
 2452 014d 72000000 		.4byte	.LVL19-.Ltext0
 2453 0151 AC000000 		.4byte	.LVL25-.Ltext0
 2454 0155 0600     		.2byte	0x6
 2455 0157 F3       		.byte	0xf3
 2456 0158 01       		.uleb128 0x1
 2457 0159 51       		.byte	0x51
 2458 015a 31       		.byte	0x31
 2459 015b 25       		.byte	0x25
 2460 015c 9F       		.byte	0x9f
 2461 015d AC000000 		.4byte	.LVL25-.Ltext0
 2462 0161 C2000000 		.4byte	.LVL28-.Ltext0
 2463 0165 0100     		.2byte	0x1
 2464 0167 55       		.byte	0x55
 2465 0168 C2000000 		.4byte	.LVL28-.Ltext0
 2466 016c C5000000 		.4byte	.LVL29-1-.Ltext0
 2467 0170 0100     		.2byte	0x1
 2468 0172 51       		.byte	0x51
 2469 0173 C5000000 		.4byte	.LVL29-1-.Ltext0
 2470 0177 C6000000 		.4byte	.LFE136-.Ltext0
 2471 017b 0600     		.2byte	0x6
 2472 017d F3       		.byte	0xf3
 2473 017e 01       		.uleb128 0x1
 2474 017f 51       		.byte	0x51
 2475 0180 31       		.byte	0x31
 2476 0181 25       		.byte	0x25
 2477 0182 9F       		.byte	0x9f
 2478 0183 00000000 		.4byte	0
 2479 0187 00000000 		.4byte	0
 2480              	.LLST5:
 2481 018b 74000000 		.4byte	.LVL20-.Ltext0
 2482 018f 86000000 		.4byte	.LVL21-.Ltext0
 2483 0193 0200     		.2byte	0x2
 2484 0195 73       		.byte	0x73
 2485 0196 7E       		.sleb128 -2
 2486 0197 86000000 		.4byte	.LVL21-.Ltext0
 2487 019b AC000000 		.4byte	.LVL25-.Ltext0
 2488 019f 0100     		.2byte	0x1
 2489 01a1 57       		.byte	0x57
 2490 01a2 00000000 		.4byte	0
 2491 01a6 00000000 		.4byte	0
 2492              	.LLST6:
 2493 01aa 74000000 		.4byte	.LVL20-.Ltext0
 2494 01ae 88000000 		.4byte	.LVL22-.Ltext0
 2495 01b2 0200     		.2byte	0x2
 2496 01b4 74       		.byte	0x74
 2497 01b5 02       		.sleb128 2
 2498 01b6 88000000 		.4byte	.LVL22-.Ltext0
 2499 01ba AC000000 		.4byte	.LVL25-.Ltext0
 2500 01be 0100     		.2byte	0x1
 2501 01c0 56       		.byte	0x56
 2502 01c1 00000000 		.4byte	0
 2503 01c5 00000000 		.4byte	0
 2504              	.LLST7:
 2505 01c9 74000000 		.4byte	.LVL20-.Ltext0
 2506 01cd 8A000000 		.4byte	.LVL23-.Ltext0
ARM GAS  /tmp/ccWfXb6d.s 			page 45


 2507 01d1 0200     		.2byte	0x2
 2508 01d3 74       		.byte	0x74
 2509 01d4 04       		.sleb128 4
 2510 01d5 8A000000 		.4byte	.LVL23-.Ltext0
 2511 01d9 AC000000 		.4byte	.LVL25-.Ltext0
 2512 01dd 0100     		.2byte	0x1
 2513 01df 50       		.byte	0x50
 2514 01e0 00000000 		.4byte	0
 2515 01e4 00000000 		.4byte	0
 2516              	.LLST8:
 2517 01e8 74000000 		.4byte	.LVL20-.Ltext0
 2518 01ec 8C000000 		.4byte	.LVL24-.Ltext0
 2519 01f0 0200     		.2byte	0x2
 2520 01f2 74       		.byte	0x74
 2521 01f3 06       		.sleb128 6
 2522 01f4 8C000000 		.4byte	.LVL24-.Ltext0
 2523 01f8 AC000000 		.4byte	.LVL25-.Ltext0
 2524 01fc 0100     		.2byte	0x1
 2525 01fe 52       		.byte	0x52
 2526 01ff 00000000 		.4byte	0
 2527 0203 00000000 		.4byte	0
 2528              	.LLST9:
 2529 0207 22000000 		.4byte	.LVL4-.Ltext0
 2530 020b 2A000000 		.4byte	.LVL5-.Ltext0
 2531 020f 0200     		.2byte	0x2
 2532 0211 7E       		.byte	0x7e
 2533 0212 00       		.sleb128 0
 2534 0213 2A000000 		.4byte	.LVL5-.Ltext0
 2535 0217 AC000000 		.4byte	.LVL25-.Ltext0
 2536 021b 0100     		.2byte	0x1
 2537 021d 5A       		.byte	0x5a
 2538 021e 00000000 		.4byte	0
 2539 0222 00000000 		.4byte	0
 2540              	.LLST10:
 2541 0226 2A000000 		.4byte	.LVL5-.Ltext0
 2542 022a 32000000 		.4byte	.LVL6-.Ltext0
 2543 022e 0200     		.2byte	0x2
 2544 0230 7C       		.byte	0x7c
 2545 0231 00       		.sleb128 0
 2546 0232 32000000 		.4byte	.LVL6-.Ltext0
 2547 0236 3A000000 		.4byte	.LVL8-.Ltext0
 2548 023a 0100     		.2byte	0x1
 2549 023c 50       		.byte	0x50
 2550 023d 00000000 		.4byte	0
 2551 0241 00000000 		.4byte	0
 2552              	.LLST11:
 2553 0245 36000000 		.4byte	.LVL7-.Ltext0
 2554 0249 AC000000 		.4byte	.LVL25-.Ltext0
 2555 024d 0100     		.2byte	0x1
 2556 024f 5B       		.byte	0x5b
 2557 0250 00000000 		.4byte	0
 2558 0254 00000000 		.4byte	0
 2559              	.LLST12:
 2560 0258 22000000 		.4byte	.LVL4-.Ltext0
 2561 025c 46000000 		.4byte	.LVL11-.Ltext0
 2562 0260 0100     		.2byte	0x1
 2563 0262 52       		.byte	0x52
ARM GAS  /tmp/ccWfXb6d.s 			page 46


 2564 0263 00000000 		.4byte	0
 2565 0267 00000000 		.4byte	0
 2566              	.LLST13:
 2567 026b 42000000 		.4byte	.LVL10-.Ltext0
 2568 026f 5A000000 		.4byte	.LVL15-.Ltext0
 2569 0273 0500     		.2byte	0x5
 2570 0275 70       		.byte	0x70
 2571 0276 00       		.sleb128 0
 2572 0277 40       		.byte	0x40
 2573 0278 25       		.byte	0x25
 2574 0279 9F       		.byte	0x9f
 2575 027a 00000000 		.4byte	0
 2576 027e 00000000 		.4byte	0
 2577              	.LLST14:
 2578 0282 46000000 		.4byte	.LVL11-.Ltext0
 2579 0286 5C000000 		.4byte	.LVL16-.Ltext0
 2580 028a 0100     		.2byte	0x1
 2581 028c 52       		.byte	0x52
 2582 028d 00000000 		.4byte	0
 2583 0291 00000000 		.4byte	0
 2584              	.LLST15:
 2585 0295 10000000 		.4byte	.LVL1-.Ltext0
 2586 0299 1E000000 		.4byte	.LVL3-.Ltext0
 2587 029d 0100     		.2byte	0x1
 2588 029f 52       		.byte	0x52
 2589 02a0 1E000000 		.4byte	.LVL3-.Ltext0
 2590 02a4 AC000000 		.4byte	.LVL25-.Ltext0
 2591 02a8 0100     		.2byte	0x1
 2592 02aa 59       		.byte	0x59
 2593 02ab AC000000 		.4byte	.LVL25-.Ltext0
 2594 02af B3000000 		.4byte	.LVL27-1-.Ltext0
 2595 02b3 0100     		.2byte	0x1
 2596 02b5 52       		.byte	0x52
 2597 02b6 B3000000 		.4byte	.LVL27-1-.Ltext0
 2598 02ba C2000000 		.4byte	.LVL28-.Ltext0
 2599 02be 0100     		.2byte	0x1
 2600 02c0 56       		.byte	0x56
 2601 02c1 C2000000 		.4byte	.LVL28-.Ltext0
 2602 02c5 C5000000 		.4byte	.LVL29-1-.Ltext0
 2603 02c9 0100     		.2byte	0x1
 2604 02cb 52       		.byte	0x52
 2605 02cc C5000000 		.4byte	.LVL29-1-.Ltext0
 2606 02d0 C6000000 		.4byte	.LFE136-.Ltext0
 2607 02d4 0400     		.2byte	0x4
 2608 02d6 F3       		.byte	0xf3
 2609 02d7 01       		.uleb128 0x1
 2610 02d8 52       		.byte	0x52
 2611 02d9 9F       		.byte	0x9f
 2612 02da 00000000 		.4byte	0
 2613 02de 00000000 		.4byte	0
 2614              	.LLST16:
 2615 02e2 10000000 		.4byte	.LVL1-.Ltext0
 2616 02e6 1E000000 		.4byte	.LVL3-.Ltext0
 2617 02ea 0100     		.2byte	0x1
 2618 02ec 50       		.byte	0x50
 2619 02ed 1E000000 		.4byte	.LVL3-.Ltext0
 2620 02f1 61000000 		.4byte	.LVL17-1-.Ltext0
ARM GAS  /tmp/ccWfXb6d.s 			page 47


 2621 02f5 0100     		.2byte	0x1
 2622 02f7 5E       		.byte	0x5e
 2623 02f8 AC000000 		.4byte	.LVL25-.Ltext0
 2624 02fc B3000000 		.4byte	.LVL27-1-.Ltext0
 2625 0300 0100     		.2byte	0x1
 2626 0302 50       		.byte	0x50
 2627 0303 B3000000 		.4byte	.LVL27-1-.Ltext0
 2628 0307 C2000000 		.4byte	.LVL28-.Ltext0
 2629 030b 0100     		.2byte	0x1
 2630 030d 54       		.byte	0x54
 2631 030e C2000000 		.4byte	.LVL28-.Ltext0
 2632 0312 C6000000 		.4byte	.LFE136-.Ltext0
 2633 0316 0400     		.2byte	0x4
 2634 0318 F3       		.byte	0xf3
 2635 0319 01       		.uleb128 0x1
 2636 031a 50       		.byte	0x50
 2637 031b 9F       		.byte	0x9f
 2638 031c 00000000 		.4byte	0
 2639 0320 00000000 		.4byte	0
 2640              	.LLST17:
 2641 0324 10000000 		.4byte	.LVL1-.Ltext0
 2642 0328 1E000000 		.4byte	.LVL3-.Ltext0
 2643 032c 0100     		.2byte	0x1
 2644 032e 57       		.byte	0x57
 2645 032f 1E000000 		.4byte	.LVL3-.Ltext0
 2646 0333 61000000 		.4byte	.LVL17-1-.Ltext0
 2647 0337 0100     		.2byte	0x1
 2648 0339 5C       		.byte	0x5c
 2649 033a AC000000 		.4byte	.LVL25-.Ltext0
 2650 033e C2000000 		.4byte	.LVL28-.Ltext0
 2651 0342 0100     		.2byte	0x1
 2652 0344 57       		.byte	0x57
 2653 0345 C2000000 		.4byte	.LVL28-.Ltext0
 2654 0349 C5000000 		.4byte	.LVL29-1-.Ltext0
 2655 034d 0100     		.2byte	0x1
 2656 034f 50       		.byte	0x50
 2657 0350 C5000000 		.4byte	.LVL29-1-.Ltext0
 2658 0354 C6000000 		.4byte	.LFE136-.Ltext0
 2659 0358 0A00     		.2byte	0xa
 2660 035a F3       		.byte	0xf3
 2661 035b 01       		.uleb128 0x1
 2662 035c 51       		.byte	0x51
 2663 035d 31       		.byte	0x31
 2664 035e 24       		.byte	0x24
 2665 035f F3       		.byte	0xf3
 2666 0360 01       		.uleb128 0x1
 2667 0361 50       		.byte	0x50
 2668 0362 22       		.byte	0x22
 2669 0363 9F       		.byte	0x9f
 2670 0364 00000000 		.4byte	0
 2671 0368 00000000 		.4byte	0
 2672              	.LLST18:
 2673 036c 22000000 		.4byte	.LVL4-.Ltext0
 2674 0370 AC000000 		.4byte	.LVL25-.Ltext0
 2675 0374 0200     		.2byte	0x2
 2676 0376 30       		.byte	0x30
 2677 0377 9F       		.byte	0x9f
ARM GAS  /tmp/ccWfXb6d.s 			page 48


 2678 0378 00000000 		.4byte	0
 2679 037c 00000000 		.4byte	0
 2680              	.LLST19:
 2681 0380 22000000 		.4byte	.LVL4-.Ltext0
 2682 0384 3E000000 		.4byte	.LVL9-.Ltext0
 2683 0388 0200     		.2byte	0x2
 2684 038a 7E       		.byte	0x7e
 2685 038b 00       		.sleb128 0
 2686 038c 3E000000 		.4byte	.LVL9-.Ltext0
 2687 0390 48000000 		.4byte	.LVL12-.Ltext0
 2688 0394 0100     		.2byte	0x1
 2689 0396 53       		.byte	0x53
 2690 0397 00000000 		.4byte	0
 2691 039b 00000000 		.4byte	0
 2692              	.LLST20:
 2693 039f 2A000000 		.4byte	.LVL5-.Ltext0
 2694 03a3 AC000000 		.4byte	.LVL25-.Ltext0
 2695 03a7 0100     		.2byte	0x1
 2696 03a9 5A       		.byte	0x5a
 2697 03aa 00000000 		.4byte	0
 2698 03ae 00000000 		.4byte	0
 2699              	.LLST21:
 2700 03b2 2A000000 		.4byte	.LVL5-.Ltext0
 2701 03b6 AC000000 		.4byte	.LVL25-.Ltext0
 2702 03ba 0200     		.2byte	0x2
 2703 03bc 30       		.byte	0x30
 2704 03bd 9F       		.byte	0x9f
 2705 03be 00000000 		.4byte	0
 2706 03c2 00000000 		.4byte	0
 2707              	.LLST22:
 2708 03c6 2A000000 		.4byte	.LVL5-.Ltext0
 2709 03ca 3E000000 		.4byte	.LVL9-.Ltext0
 2710 03ce 0200     		.2byte	0x2
 2711 03d0 7C       		.byte	0x7c
 2712 03d1 00       		.sleb128 0
 2713 03d2 00000000 		.4byte	0
 2714 03d6 00000000 		.4byte	0
 2715              	.LLST23:
 2716 03da 32000000 		.4byte	.LVL6-.Ltext0
 2717 03de 3A000000 		.4byte	.LVL8-.Ltext0
 2718 03e2 0100     		.2byte	0x1
 2719 03e4 50       		.byte	0x50
 2720 03e5 00000000 		.4byte	0
 2721 03e9 00000000 		.4byte	0
 2722              	.LLST25:
 2723 03ed 32000000 		.4byte	.LVL6-.Ltext0
 2724 03f1 AC000000 		.4byte	.LVL25-.Ltext0
 2725 03f5 0100     		.2byte	0x1
 2726 03f7 5A       		.byte	0x5a
 2727 03f8 00000000 		.4byte	0
 2728 03fc 00000000 		.4byte	0
 2729              	.LLST27:
 2730 0400 36000000 		.4byte	.LVL7-.Ltext0
 2731 0404 3A000000 		.4byte	.LVL8-.Ltext0
 2732 0408 0100     		.2byte	0x1
 2733 040a 50       		.byte	0x50
 2734 040b 00000000 		.4byte	0
ARM GAS  /tmp/ccWfXb6d.s 			page 49


 2735 040f 00000000 		.4byte	0
 2736              	.LLST28:
 2737 0413 36000000 		.4byte	.LVL7-.Ltext0
 2738 0417 AC000000 		.4byte	.LVL25-.Ltext0
 2739 041b 0100     		.2byte	0x1
 2740 041d 5A       		.byte	0x5a
 2741 041e 00000000 		.4byte	0
 2742 0422 00000000 		.4byte	0
 2743              	.LLST29:
 2744 0426 3A000000 		.4byte	.LVL8-.Ltext0
 2745 042a 42000000 		.4byte	.LVL10-.Ltext0
 2746 042e 0100     		.2byte	0x1
 2747 0430 50       		.byte	0x50
 2748 0431 42000000 		.4byte	.LVL10-.Ltext0
 2749 0435 54000000 		.4byte	.LVL14-.Ltext0
 2750 0439 0200     		.2byte	0x2
 2751 043b 7E       		.byte	0x7e
 2752 043c 7C       		.sleb128 -4
 2753 043d 00000000 		.4byte	0
 2754 0441 00000000 		.4byte	0
 2755              	.LLST30:
 2756 0445 3E000000 		.4byte	.LVL9-.Ltext0
 2757 0449 AC000000 		.4byte	.LVL25-.Ltext0
 2758 044d 0100     		.2byte	0x1
 2759 044f 5B       		.byte	0x5b
 2760 0450 00000000 		.4byte	0
 2761 0454 00000000 		.4byte	0
 2762              	.LLST31:
 2763 0458 3E000000 		.4byte	.LVL9-.Ltext0
 2764 045c 46000000 		.4byte	.LVL11-.Ltext0
 2765 0460 0100     		.2byte	0x1
 2766 0462 52       		.byte	0x52
 2767 0463 00000000 		.4byte	0
 2768 0467 00000000 		.4byte	0
 2769              	.LLST32:
 2770 046b 42000000 		.4byte	.LVL10-.Ltext0
 2771 046f 5A000000 		.4byte	.LVL15-.Ltext0
 2772 0473 0100     		.2byte	0x1
 2773 0475 50       		.byte	0x50
 2774 0476 00000000 		.4byte	0
 2775 047a 00000000 		.4byte	0
 2776              	.LLST33:
 2777 047e 42000000 		.4byte	.LVL10-.Ltext0
 2778 0482 AC000000 		.4byte	.LVL25-.Ltext0
 2779 0486 0100     		.2byte	0x1
 2780 0488 5B       		.byte	0x5b
 2781 0489 00000000 		.4byte	0
 2782 048d 00000000 		.4byte	0
 2783              	.LLST34:
 2784 0491 42000000 		.4byte	.LVL10-.Ltext0
 2785 0495 46000000 		.4byte	.LVL11-.Ltext0
 2786 0499 0100     		.2byte	0x1
 2787 049b 52       		.byte	0x52
 2788 049c 00000000 		.4byte	0
 2789 04a0 00000000 		.4byte	0
 2790              	.LLST36:
 2791 04a4 D0000000 		.4byte	.LVL30-.Ltext0
ARM GAS  /tmp/ccWfXb6d.s 			page 50


 2792 04a8 EE000000 		.4byte	.LVL33-.Ltext0
 2793 04ac 0100     		.2byte	0x1
 2794 04ae 50       		.byte	0x50
 2795 04af EE000000 		.4byte	.LVL33-.Ltext0
 2796 04b3 44010000 		.4byte	.LVL50-.Ltext0
 2797 04b7 0100     		.2byte	0x1
 2798 04b9 54       		.byte	0x54
 2799 04ba 44010000 		.4byte	.LVL50-.Ltext0
 2800 04be 7C010000 		.4byte	.LVL55-.Ltext0
 2801 04c2 0400     		.2byte	0x4
 2802 04c4 F3       		.byte	0xf3
 2803 04c5 01       		.uleb128 0x1
 2804 04c6 50       		.byte	0x50
 2805 04c7 9F       		.byte	0x9f
 2806 04c8 7C010000 		.4byte	.LVL55-.Ltext0
 2807 04cc 83010000 		.4byte	.LVL57-1-.Ltext0
 2808 04d0 0100     		.2byte	0x1
 2809 04d2 50       		.byte	0x50
 2810 04d3 83010000 		.4byte	.LVL57-1-.Ltext0
 2811 04d7 92010000 		.4byte	.LVL58-.Ltext0
 2812 04db 0100     		.2byte	0x1
 2813 04dd 54       		.byte	0x54
 2814 04de 92010000 		.4byte	.LVL58-.Ltext0
 2815 04e2 96010000 		.4byte	.LFE137-.Ltext0
 2816 04e6 0400     		.2byte	0x4
 2817 04e8 F3       		.byte	0xf3
 2818 04e9 01       		.uleb128 0x1
 2819 04ea 50       		.byte	0x50
 2820 04eb 9F       		.byte	0x9f
 2821 04ec 00000000 		.4byte	0
 2822 04f0 00000000 		.4byte	0
 2823              	.LLST37:
 2824 04f4 D0000000 		.4byte	.LVL30-.Ltext0
 2825 04f8 EA000000 		.4byte	.LVL32-.Ltext0
 2826 04fc 0100     		.2byte	0x1
 2827 04fe 51       		.byte	0x51
 2828 04ff EA000000 		.4byte	.LVL32-.Ltext0
 2829 0503 7C010000 		.4byte	.LVL55-.Ltext0
 2830 0507 0400     		.2byte	0x4
 2831 0509 F3       		.byte	0xf3
 2832 050a 01       		.uleb128 0x1
 2833 050b 51       		.byte	0x51
 2834 050c 9F       		.byte	0x9f
 2835 050d 7C010000 		.4byte	.LVL55-.Ltext0
 2836 0511 7E010000 		.4byte	.LVL56-.Ltext0
 2837 0515 0100     		.2byte	0x1
 2838 0517 51       		.byte	0x51
 2839 0518 7E010000 		.4byte	.LVL56-.Ltext0
 2840 051c 96010000 		.4byte	.LFE137-.Ltext0
 2841 0520 0400     		.2byte	0x4
 2842 0522 F3       		.byte	0xf3
 2843 0523 01       		.uleb128 0x1
 2844 0524 51       		.byte	0x51
 2845 0525 9F       		.byte	0x9f
 2846 0526 00000000 		.4byte	0
 2847 052a 00000000 		.4byte	0
 2848              	.LLST38:
ARM GAS  /tmp/ccWfXb6d.s 			page 51


 2849 052e D0000000 		.4byte	.LVL30-.Ltext0
 2850 0532 EE000000 		.4byte	.LVL33-.Ltext0
 2851 0536 0100     		.2byte	0x1
 2852 0538 52       		.byte	0x52
 2853 0539 EE000000 		.4byte	.LVL33-.Ltext0
 2854 053d 44010000 		.4byte	.LVL50-.Ltext0
 2855 0541 0100     		.2byte	0x1
 2856 0543 56       		.byte	0x56
 2857 0544 44010000 		.4byte	.LVL50-.Ltext0
 2858 0548 7C010000 		.4byte	.LVL55-.Ltext0
 2859 054c 0400     		.2byte	0x4
 2860 054e F3       		.byte	0xf3
 2861 054f 01       		.uleb128 0x1
 2862 0550 52       		.byte	0x52
 2863 0551 9F       		.byte	0x9f
 2864 0552 7C010000 		.4byte	.LVL55-.Ltext0
 2865 0556 83010000 		.4byte	.LVL57-1-.Ltext0
 2866 055a 0100     		.2byte	0x1
 2867 055c 52       		.byte	0x52
 2868 055d 83010000 		.4byte	.LVL57-1-.Ltext0
 2869 0561 92010000 		.4byte	.LVL58-.Ltext0
 2870 0565 0100     		.2byte	0x1
 2871 0567 56       		.byte	0x56
 2872 0568 92010000 		.4byte	.LVL58-.Ltext0
 2873 056c 95010000 		.4byte	.LVL59-1-.Ltext0
 2874 0570 0100     		.2byte	0x1
 2875 0572 52       		.byte	0x52
 2876 0573 95010000 		.4byte	.LVL59-1-.Ltext0
 2877 0577 96010000 		.4byte	.LFE137-.Ltext0
 2878 057b 0400     		.2byte	0x4
 2879 057d F3       		.byte	0xf3
 2880 057e 01       		.uleb128 0x1
 2881 057f 52       		.byte	0x52
 2882 0580 9F       		.byte	0x9f
 2883 0581 00000000 		.4byte	0
 2884 0585 00000000 		.4byte	0
 2885              	.LLST39:
 2886 0589 E0000000 		.4byte	.LVL31-.Ltext0
 2887 058d EE000000 		.4byte	.LVL33-.Ltext0
 2888 0591 0100     		.2byte	0x1
 2889 0593 55       		.byte	0x55
 2890 0594 EE000000 		.4byte	.LVL33-.Ltext0
 2891 0598 20010000 		.4byte	.LVL43-.Ltext0
 2892 059c 0100     		.2byte	0x1
 2893 059e 51       		.byte	0x51
 2894 059f 20010000 		.4byte	.LVL43-.Ltext0
 2895 05a3 24010000 		.4byte	.LVL44-.Ltext0
 2896 05a7 0300     		.2byte	0x3
 2897 05a9 71       		.byte	0x71
 2898 05aa 01       		.sleb128 1
 2899 05ab 9F       		.byte	0x9f
 2900 05ac 3E010000 		.4byte	.LVL48-.Ltext0
 2901 05b0 44010000 		.4byte	.LVL50-.Ltext0
 2902 05b4 0200     		.2byte	0x2
 2903 05b6 30       		.byte	0x30
 2904 05b7 9F       		.byte	0x9f
 2905 05b8 7C010000 		.4byte	.LVL55-.Ltext0
ARM GAS  /tmp/ccWfXb6d.s 			page 52


 2906 05bc 92010000 		.4byte	.LVL58-.Ltext0
 2907 05c0 0100     		.2byte	0x1
 2908 05c2 55       		.byte	0x55
 2909 05c3 92010000 		.4byte	.LVL58-.Ltext0
 2910 05c7 95010000 		.4byte	.LVL59-1-.Ltext0
 2911 05cb 0100     		.2byte	0x1
 2912 05cd 51       		.byte	0x51
 2913 05ce 95010000 		.4byte	.LVL59-1-.Ltext0
 2914 05d2 96010000 		.4byte	.LFE137-.Ltext0
 2915 05d6 0600     		.2byte	0x6
 2916 05d8 F3       		.byte	0xf3
 2917 05d9 01       		.uleb128 0x1
 2918 05da 51       		.byte	0x51
 2919 05db 31       		.byte	0x31
 2920 05dc 25       		.byte	0x25
 2921 05dd 9F       		.byte	0x9f
 2922 05de 00000000 		.4byte	0
 2923 05e2 00000000 		.4byte	0
 2924              	.LLST40:
 2925 05e6 E0000000 		.4byte	.LVL31-.Ltext0
 2926 05ea 42010000 		.4byte	.LVL49-.Ltext0
 2927 05ee 0100     		.2byte	0x1
 2928 05f0 55       		.byte	0x55
 2929 05f1 42010000 		.4byte	.LVL49-.Ltext0
 2930 05f5 7C010000 		.4byte	.LVL55-.Ltext0
 2931 05f9 0600     		.2byte	0x6
 2932 05fb F3       		.byte	0xf3
 2933 05fc 01       		.uleb128 0x1
 2934 05fd 51       		.byte	0x51
 2935 05fe 31       		.byte	0x31
 2936 05ff 25       		.byte	0x25
 2937 0600 9F       		.byte	0x9f
 2938 0601 7C010000 		.4byte	.LVL55-.Ltext0
 2939 0605 92010000 		.4byte	.LVL58-.Ltext0
 2940 0609 0100     		.2byte	0x1
 2941 060b 55       		.byte	0x55
 2942 060c 92010000 		.4byte	.LVL58-.Ltext0
 2943 0610 95010000 		.4byte	.LVL59-1-.Ltext0
 2944 0614 0100     		.2byte	0x1
 2945 0616 51       		.byte	0x51
 2946 0617 95010000 		.4byte	.LVL59-1-.Ltext0
 2947 061b 96010000 		.4byte	.LFE137-.Ltext0
 2948 061f 0600     		.2byte	0x6
 2949 0621 F3       		.byte	0xf3
 2950 0622 01       		.uleb128 0x1
 2951 0623 51       		.byte	0x51
 2952 0624 31       		.byte	0x31
 2953 0625 25       		.byte	0x25
 2954 0626 9F       		.byte	0x9f
 2955 0627 00000000 		.4byte	0
 2956 062b 00000000 		.4byte	0
 2957              	.LLST41:
 2958 062f 44010000 		.4byte	.LVL50-.Ltext0
 2959 0633 56010000 		.4byte	.LVL51-.Ltext0
 2960 0637 0200     		.2byte	0x2
 2961 0639 73       		.byte	0x73
 2962 063a 7E       		.sleb128 -2
ARM GAS  /tmp/ccWfXb6d.s 			page 53


 2963 063b 56010000 		.4byte	.LVL51-.Ltext0
 2964 063f 7C010000 		.4byte	.LVL55-.Ltext0
 2965 0643 0100     		.2byte	0x1
 2966 0645 57       		.byte	0x57
 2967 0646 00000000 		.4byte	0
 2968 064a 00000000 		.4byte	0
 2969              	.LLST42:
 2970 064e 44010000 		.4byte	.LVL50-.Ltext0
 2971 0652 58010000 		.4byte	.LVL52-.Ltext0
 2972 0656 0200     		.2byte	0x2
 2973 0658 74       		.byte	0x74
 2974 0659 02       		.sleb128 2
 2975 065a 58010000 		.4byte	.LVL52-.Ltext0
 2976 065e 7C010000 		.4byte	.LVL55-.Ltext0
 2977 0662 0100     		.2byte	0x1
 2978 0664 56       		.byte	0x56
 2979 0665 00000000 		.4byte	0
 2980 0669 00000000 		.4byte	0
 2981              	.LLST43:
 2982 066d 44010000 		.4byte	.LVL50-.Ltext0
 2983 0671 5A010000 		.4byte	.LVL53-.Ltext0
 2984 0675 0200     		.2byte	0x2
 2985 0677 74       		.byte	0x74
 2986 0678 04       		.sleb128 4
 2987 0679 5A010000 		.4byte	.LVL53-.Ltext0
 2988 067d 7C010000 		.4byte	.LVL55-.Ltext0
 2989 0681 0100     		.2byte	0x1
 2990 0683 50       		.byte	0x50
 2991 0684 00000000 		.4byte	0
 2992 0688 00000000 		.4byte	0
 2993              	.LLST44:
 2994 068c 44010000 		.4byte	.LVL50-.Ltext0
 2995 0690 5C010000 		.4byte	.LVL54-.Ltext0
 2996 0694 0200     		.2byte	0x2
 2997 0696 74       		.byte	0x74
 2998 0697 06       		.sleb128 6
 2999 0698 5C010000 		.4byte	.LVL54-.Ltext0
 3000 069c 7C010000 		.4byte	.LVL55-.Ltext0
 3001 06a0 0100     		.2byte	0x1
 3002 06a2 52       		.byte	0x52
 3003 06a3 00000000 		.4byte	0
 3004 06a7 00000000 		.4byte	0
 3005              	.LLST45:
 3006 06ab F2000000 		.4byte	.LVL34-.Ltext0
 3007 06af FA000000 		.4byte	.LVL35-.Ltext0
 3008 06b3 0200     		.2byte	0x2
 3009 06b5 7E       		.byte	0x7e
 3010 06b6 00       		.sleb128 0
 3011 06b7 FA000000 		.4byte	.LVL35-.Ltext0
 3012 06bb 7C010000 		.4byte	.LVL55-.Ltext0
 3013 06bf 0100     		.2byte	0x1
 3014 06c1 5A       		.byte	0x5a
 3015 06c2 00000000 		.4byte	0
 3016 06c6 00000000 		.4byte	0
 3017              	.LLST46:
 3018 06ca FA000000 		.4byte	.LVL35-.Ltext0
 3019 06ce 02010000 		.4byte	.LVL36-.Ltext0
ARM GAS  /tmp/ccWfXb6d.s 			page 54


 3020 06d2 0200     		.2byte	0x2
 3021 06d4 7C       		.byte	0x7c
 3022 06d5 00       		.sleb128 0
 3023 06d6 02010000 		.4byte	.LVL36-.Ltext0
 3024 06da 0A010000 		.4byte	.LVL38-.Ltext0
 3025 06de 0100     		.2byte	0x1
 3026 06e0 50       		.byte	0x50
 3027 06e1 00000000 		.4byte	0
 3028 06e5 00000000 		.4byte	0
 3029              	.LLST47:
 3030 06e9 06010000 		.4byte	.LVL37-.Ltext0
 3031 06ed 7C010000 		.4byte	.LVL55-.Ltext0
 3032 06f1 0100     		.2byte	0x1
 3033 06f3 5B       		.byte	0x5b
 3034 06f4 00000000 		.4byte	0
 3035 06f8 00000000 		.4byte	0
 3036              	.LLST48:
 3037 06fc F2000000 		.4byte	.LVL34-.Ltext0
 3038 0700 16010000 		.4byte	.LVL41-.Ltext0
 3039 0704 0100     		.2byte	0x1
 3040 0706 52       		.byte	0x52
 3041 0707 00000000 		.4byte	0
 3042 070b 00000000 		.4byte	0
 3043              	.LLST49:
 3044 070f 12010000 		.4byte	.LVL40-.Ltext0
 3045 0713 2A010000 		.4byte	.LVL45-.Ltext0
 3046 0717 0500     		.2byte	0x5
 3047 0719 70       		.byte	0x70
 3048 071a 00       		.sleb128 0
 3049 071b 40       		.byte	0x40
 3050 071c 25       		.byte	0x25
 3051 071d 9F       		.byte	0x9f
 3052 071e 00000000 		.4byte	0
 3053 0722 00000000 		.4byte	0
 3054              	.LLST50:
 3055 0726 16010000 		.4byte	.LVL41-.Ltext0
 3056 072a 2C010000 		.4byte	.LVL46-.Ltext0
 3057 072e 0100     		.2byte	0x1
 3058 0730 52       		.byte	0x52
 3059 0731 00000000 		.4byte	0
 3060 0735 00000000 		.4byte	0
 3061              	.LLST51:
 3062 0739 E0000000 		.4byte	.LVL31-.Ltext0
 3063 073d EE000000 		.4byte	.LVL33-.Ltext0
 3064 0741 0100     		.2byte	0x1
 3065 0743 52       		.byte	0x52
 3066 0744 EE000000 		.4byte	.LVL33-.Ltext0
 3067 0748 7C010000 		.4byte	.LVL55-.Ltext0
 3068 074c 0100     		.2byte	0x1
 3069 074e 59       		.byte	0x59
 3070 074f 7C010000 		.4byte	.LVL55-.Ltext0
 3071 0753 83010000 		.4byte	.LVL57-1-.Ltext0
 3072 0757 0100     		.2byte	0x1
 3073 0759 52       		.byte	0x52
 3074 075a 83010000 		.4byte	.LVL57-1-.Ltext0
 3075 075e 92010000 		.4byte	.LVL58-.Ltext0
 3076 0762 0100     		.2byte	0x1
ARM GAS  /tmp/ccWfXb6d.s 			page 55


 3077 0764 56       		.byte	0x56
 3078 0765 92010000 		.4byte	.LVL58-.Ltext0
 3079 0769 95010000 		.4byte	.LVL59-1-.Ltext0
 3080 076d 0100     		.2byte	0x1
 3081 076f 52       		.byte	0x52
 3082 0770 95010000 		.4byte	.LVL59-1-.Ltext0
 3083 0774 96010000 		.4byte	.LFE137-.Ltext0
 3084 0778 0400     		.2byte	0x4
 3085 077a F3       		.byte	0xf3
 3086 077b 01       		.uleb128 0x1
 3087 077c 52       		.byte	0x52
 3088 077d 9F       		.byte	0x9f
 3089 077e 00000000 		.4byte	0
 3090 0782 00000000 		.4byte	0
 3091              	.LLST52:
 3092 0786 E0000000 		.4byte	.LVL31-.Ltext0
 3093 078a EE000000 		.4byte	.LVL33-.Ltext0
 3094 078e 0100     		.2byte	0x1
 3095 0790 50       		.byte	0x50
 3096 0791 EE000000 		.4byte	.LVL33-.Ltext0
 3097 0795 31010000 		.4byte	.LVL47-1-.Ltext0
 3098 0799 0100     		.2byte	0x1
 3099 079b 5E       		.byte	0x5e
 3100 079c 7C010000 		.4byte	.LVL55-.Ltext0
 3101 07a0 83010000 		.4byte	.LVL57-1-.Ltext0
 3102 07a4 0100     		.2byte	0x1
 3103 07a6 50       		.byte	0x50
 3104 07a7 83010000 		.4byte	.LVL57-1-.Ltext0
 3105 07ab 92010000 		.4byte	.LVL58-.Ltext0
 3106 07af 0100     		.2byte	0x1
 3107 07b1 54       		.byte	0x54
 3108 07b2 92010000 		.4byte	.LVL58-.Ltext0
 3109 07b6 96010000 		.4byte	.LFE137-.Ltext0
 3110 07ba 0400     		.2byte	0x4
 3111 07bc F3       		.byte	0xf3
 3112 07bd 01       		.uleb128 0x1
 3113 07be 50       		.byte	0x50
 3114 07bf 9F       		.byte	0x9f
 3115 07c0 00000000 		.4byte	0
 3116 07c4 00000000 		.4byte	0
 3117              	.LLST53:
 3118 07c8 E0000000 		.4byte	.LVL31-.Ltext0
 3119 07cc EE000000 		.4byte	.LVL33-.Ltext0
 3120 07d0 0100     		.2byte	0x1
 3121 07d2 57       		.byte	0x57
 3122 07d3 EE000000 		.4byte	.LVL33-.Ltext0
 3123 07d7 31010000 		.4byte	.LVL47-1-.Ltext0
 3124 07db 0100     		.2byte	0x1
 3125 07dd 5C       		.byte	0x5c
 3126 07de 7C010000 		.4byte	.LVL55-.Ltext0
 3127 07e2 92010000 		.4byte	.LVL58-.Ltext0
 3128 07e6 0100     		.2byte	0x1
 3129 07e8 57       		.byte	0x57
 3130 07e9 92010000 		.4byte	.LVL58-.Ltext0
 3131 07ed 95010000 		.4byte	.LVL59-1-.Ltext0
 3132 07f1 0100     		.2byte	0x1
 3133 07f3 50       		.byte	0x50
ARM GAS  /tmp/ccWfXb6d.s 			page 56


 3134 07f4 95010000 		.4byte	.LVL59-1-.Ltext0
 3135 07f8 96010000 		.4byte	.LFE137-.Ltext0
 3136 07fc 0A00     		.2byte	0xa
 3137 07fe F3       		.byte	0xf3
 3138 07ff 01       		.uleb128 0x1
 3139 0800 51       		.byte	0x51
 3140 0801 31       		.byte	0x31
 3141 0802 24       		.byte	0x24
 3142 0803 F3       		.byte	0xf3
 3143 0804 01       		.uleb128 0x1
 3144 0805 50       		.byte	0x50
 3145 0806 22       		.byte	0x22
 3146 0807 9F       		.byte	0x9f
 3147 0808 00000000 		.4byte	0
 3148 080c 00000000 		.4byte	0
 3149              	.LLST54:
 3150 0810 F2000000 		.4byte	.LVL34-.Ltext0
 3151 0814 7C010000 		.4byte	.LVL55-.Ltext0
 3152 0818 0200     		.2byte	0x2
 3153 081a 30       		.byte	0x30
 3154 081b 9F       		.byte	0x9f
 3155 081c 00000000 		.4byte	0
 3156 0820 00000000 		.4byte	0
 3157              	.LLST55:
 3158 0824 F2000000 		.4byte	.LVL34-.Ltext0
 3159 0828 0E010000 		.4byte	.LVL39-.Ltext0
 3160 082c 0200     		.2byte	0x2
 3161 082e 7E       		.byte	0x7e
 3162 082f 00       		.sleb128 0
 3163 0830 0E010000 		.4byte	.LVL39-.Ltext0
 3164 0834 18010000 		.4byte	.LVL42-.Ltext0
 3165 0838 0100     		.2byte	0x1
 3166 083a 53       		.byte	0x53
 3167 083b 00000000 		.4byte	0
 3168 083f 00000000 		.4byte	0
 3169              	.LLST56:
 3170 0843 FA000000 		.4byte	.LVL35-.Ltext0
 3171 0847 7C010000 		.4byte	.LVL55-.Ltext0
 3172 084b 0100     		.2byte	0x1
 3173 084d 5A       		.byte	0x5a
 3174 084e 00000000 		.4byte	0
 3175 0852 00000000 		.4byte	0
 3176              	.LLST57:
 3177 0856 FA000000 		.4byte	.LVL35-.Ltext0
 3178 085a 7C010000 		.4byte	.LVL55-.Ltext0
 3179 085e 0200     		.2byte	0x2
 3180 0860 30       		.byte	0x30
 3181 0861 9F       		.byte	0x9f
 3182 0862 00000000 		.4byte	0
 3183 0866 00000000 		.4byte	0
 3184              	.LLST58:
 3185 086a FA000000 		.4byte	.LVL35-.Ltext0
 3186 086e 0E010000 		.4byte	.LVL39-.Ltext0
 3187 0872 0200     		.2byte	0x2
 3188 0874 7C       		.byte	0x7c
 3189 0875 00       		.sleb128 0
 3190 0876 00000000 		.4byte	0
ARM GAS  /tmp/ccWfXb6d.s 			page 57


 3191 087a 00000000 		.4byte	0
 3192              	.LLST59:
 3193 087e 02010000 		.4byte	.LVL36-.Ltext0
 3194 0882 0A010000 		.4byte	.LVL38-.Ltext0
 3195 0886 0100     		.2byte	0x1
 3196 0888 50       		.byte	0x50
 3197 0889 00000000 		.4byte	0
 3198 088d 00000000 		.4byte	0
 3199              	.LLST61:
 3200 0891 02010000 		.4byte	.LVL36-.Ltext0
 3201 0895 7C010000 		.4byte	.LVL55-.Ltext0
 3202 0899 0100     		.2byte	0x1
 3203 089b 5A       		.byte	0x5a
 3204 089c 00000000 		.4byte	0
 3205 08a0 00000000 		.4byte	0
 3206              	.LLST63:
 3207 08a4 06010000 		.4byte	.LVL37-.Ltext0
 3208 08a8 0A010000 		.4byte	.LVL38-.Ltext0
 3209 08ac 0100     		.2byte	0x1
 3210 08ae 50       		.byte	0x50
 3211 08af 00000000 		.4byte	0
 3212 08b3 00000000 		.4byte	0
 3213              	.LLST64:
 3214 08b7 06010000 		.4byte	.LVL37-.Ltext0
 3215 08bb 7C010000 		.4byte	.LVL55-.Ltext0
 3216 08bf 0100     		.2byte	0x1
 3217 08c1 5A       		.byte	0x5a
 3218 08c2 00000000 		.4byte	0
 3219 08c6 00000000 		.4byte	0
 3220              	.LLST65:
 3221 08ca 0A010000 		.4byte	.LVL38-.Ltext0
 3222 08ce 12010000 		.4byte	.LVL40-.Ltext0
 3223 08d2 0100     		.2byte	0x1
 3224 08d4 50       		.byte	0x50
 3225 08d5 12010000 		.4byte	.LVL40-.Ltext0
 3226 08d9 24010000 		.4byte	.LVL44-.Ltext0
 3227 08dd 0200     		.2byte	0x2
 3228 08df 7E       		.byte	0x7e
 3229 08e0 7C       		.sleb128 -4
 3230 08e1 00000000 		.4byte	0
 3231 08e5 00000000 		.4byte	0
 3232              	.LLST66:
 3233 08e9 0E010000 		.4byte	.LVL39-.Ltext0
 3234 08ed 7C010000 		.4byte	.LVL55-.Ltext0
 3235 08f1 0100     		.2byte	0x1
 3236 08f3 5B       		.byte	0x5b
 3237 08f4 00000000 		.4byte	0
 3238 08f8 00000000 		.4byte	0
 3239              	.LLST67:
 3240 08fc 0E010000 		.4byte	.LVL39-.Ltext0
 3241 0900 16010000 		.4byte	.LVL41-.Ltext0
 3242 0904 0100     		.2byte	0x1
 3243 0906 52       		.byte	0x52
 3244 0907 00000000 		.4byte	0
 3245 090b 00000000 		.4byte	0
 3246              	.LLST68:
 3247 090f 12010000 		.4byte	.LVL40-.Ltext0
ARM GAS  /tmp/ccWfXb6d.s 			page 58


 3248 0913 2A010000 		.4byte	.LVL45-.Ltext0
 3249 0917 0100     		.2byte	0x1
 3250 0919 50       		.byte	0x50
 3251 091a 00000000 		.4byte	0
 3252 091e 00000000 		.4byte	0
 3253              	.LLST69:
 3254 0922 12010000 		.4byte	.LVL40-.Ltext0
 3255 0926 7C010000 		.4byte	.LVL55-.Ltext0
 3256 092a 0100     		.2byte	0x1
 3257 092c 5B       		.byte	0x5b
 3258 092d 00000000 		.4byte	0
 3259 0931 00000000 		.4byte	0
 3260              	.LLST70:
 3261 0935 12010000 		.4byte	.LVL40-.Ltext0
 3262 0939 16010000 		.4byte	.LVL41-.Ltext0
 3263 093d 0100     		.2byte	0x1
 3264 093f 52       		.byte	0x52
 3265 0940 00000000 		.4byte	0
 3266 0944 00000000 		.4byte	0
 3267              	.LLST72:
 3268 0948 A0010000 		.4byte	.LVL60-.Ltext0
 3269 094c C4010000 		.4byte	.LVL62-.Ltext0
 3270 0950 0100     		.2byte	0x1
 3271 0952 50       		.byte	0x50
 3272 0953 C4010000 		.4byte	.LVL62-.Ltext0
 3273 0957 C8010000 		.4byte	.LVL63-.Ltext0
 3274 095b 0100     		.2byte	0x1
 3275 095d 54       		.byte	0x54
 3276 095e C8010000 		.4byte	.LVL63-.Ltext0
 3277 0962 DE010000 		.4byte	.LVL64-.Ltext0
 3278 0966 0100     		.2byte	0x1
 3279 0968 50       		.byte	0x50
 3280 0969 DE010000 		.4byte	.LVL64-.Ltext0
 3281 096d F4010000 		.4byte	.LVL68-.Ltext0
 3282 0971 0100     		.2byte	0x1
 3283 0973 54       		.byte	0x54
 3284 0974 F4010000 		.4byte	.LVL68-.Ltext0
 3285 0978 F8010000 		.4byte	.LVL69-.Ltext0
 3286 097c 0400     		.2byte	0x4
 3287 097e F3       		.byte	0xf3
 3288 097f 01       		.uleb128 0x1
 3289 0980 50       		.byte	0x50
 3290 0981 9F       		.byte	0x9f
 3291 0982 F8010000 		.4byte	.LVL69-.Ltext0
 3292 0986 10020000 		.4byte	.LVL70-.Ltext0
 3293 098a 0100     		.2byte	0x1
 3294 098c 50       		.byte	0x50
 3295 098d 10020000 		.4byte	.LVL70-.Ltext0
 3296 0991 18020000 		.4byte	.LVL73-.Ltext0
 3297 0995 0100     		.2byte	0x1
 3298 0997 54       		.byte	0x54
 3299 0998 18020000 		.4byte	.LVL73-.Ltext0
 3300 099c 20020000 		.4byte	.LVL74-.Ltext0
 3301 09a0 0100     		.2byte	0x1
 3302 09a2 50       		.byte	0x50
 3303 09a3 20020000 		.4byte	.LVL74-.Ltext0
 3304 09a7 28020000 		.4byte	.LVL77-.Ltext0
ARM GAS  /tmp/ccWfXb6d.s 			page 59


 3305 09ab 0100     		.2byte	0x1
 3306 09ad 54       		.byte	0x54
 3307 09ae 28020000 		.4byte	.LVL77-.Ltext0
 3308 09b2 3E020000 		.4byte	.LVL78-.Ltext0
 3309 09b6 0100     		.2byte	0x1
 3310 09b8 50       		.byte	0x50
 3311 09b9 3E020000 		.4byte	.LVL78-.Ltext0
 3312 09bd 48020000 		.4byte	.LVL82-.Ltext0
 3313 09c1 0100     		.2byte	0x1
 3314 09c3 54       		.byte	0x54
 3315 09c4 48020000 		.4byte	.LVL82-.Ltext0
 3316 09c8 5C020000 		.4byte	.LFE135-.Ltext0
 3317 09cc 0100     		.2byte	0x1
 3318 09ce 50       		.byte	0x50
 3319 09cf 00000000 		.4byte	0
 3320 09d3 00000000 		.4byte	0
 3321              	.LLST73:
 3322 09d7 A0010000 		.4byte	.LVL60-.Ltext0
 3323 09db AC010000 		.4byte	.LVL61-.Ltext0
 3324 09df 0100     		.2byte	0x1
 3325 09e1 51       		.byte	0x51
 3326 09e2 AC010000 		.4byte	.LVL61-.Ltext0
 3327 09e6 F4010000 		.4byte	.LVL68-.Ltext0
 3328 09ea 0100     		.2byte	0x1
 3329 09ec 55       		.byte	0x55
 3330 09ed F4010000 		.4byte	.LVL68-.Ltext0
 3331 09f1 F7010000 		.4byte	.LVL69-1-.Ltext0
 3332 09f5 0100     		.2byte	0x1
 3333 09f7 50       		.byte	0x50
 3334 09f8 F7010000 		.4byte	.LVL69-1-.Ltext0
 3335 09fc F8010000 		.4byte	.LVL69-.Ltext0
 3336 0a00 0400     		.2byte	0x4
 3337 0a02 F3       		.byte	0xf3
 3338 0a03 01       		.uleb128 0x1
 3339 0a04 51       		.byte	0x51
 3340 0a05 9F       		.byte	0x9f
 3341 0a06 F8010000 		.4byte	.LVL69-.Ltext0
 3342 0a0a 5C020000 		.4byte	.LFE135-.Ltext0
 3343 0a0e 0100     		.2byte	0x1
 3344 0a10 55       		.byte	0x55
 3345 0a11 00000000 		.4byte	0
 3346 0a15 00000000 		.4byte	0
 3347              	.LLST74:
 3348 0a19 A0010000 		.4byte	.LVL60-.Ltext0
 3349 0a1d C4010000 		.4byte	.LVL62-.Ltext0
 3350 0a21 0100     		.2byte	0x1
 3351 0a23 52       		.byte	0x52
 3352 0a24 C4010000 		.4byte	.LVL62-.Ltext0
 3353 0a28 C8010000 		.4byte	.LVL63-.Ltext0
 3354 0a2c 0400     		.2byte	0x4
 3355 0a2e F3       		.byte	0xf3
 3356 0a2f 01       		.uleb128 0x1
 3357 0a30 52       		.byte	0x52
 3358 0a31 9F       		.byte	0x9f
 3359 0a32 C8010000 		.4byte	.LVL63-.Ltext0
 3360 0a36 E0010000 		.4byte	.LVL65-.Ltext0
 3361 0a3a 0100     		.2byte	0x1
ARM GAS  /tmp/ccWfXb6d.s 			page 60


 3362 0a3c 52       		.byte	0x52
 3363 0a3d E0010000 		.4byte	.LVL65-.Ltext0
 3364 0a41 F8010000 		.4byte	.LVL69-.Ltext0
 3365 0a45 0400     		.2byte	0x4
 3366 0a47 F3       		.byte	0xf3
 3367 0a48 01       		.uleb128 0x1
 3368 0a49 52       		.byte	0x52
 3369 0a4a 9F       		.byte	0x9f
 3370 0a4b F8010000 		.4byte	.LVL69-.Ltext0
 3371 0a4f 12020000 		.4byte	.LVL71-.Ltext0
 3372 0a53 0100     		.2byte	0x1
 3373 0a55 52       		.byte	0x52
 3374 0a56 12020000 		.4byte	.LVL71-.Ltext0
 3375 0a5a 18020000 		.4byte	.LVL73-.Ltext0
 3376 0a5e 0400     		.2byte	0x4
 3377 0a60 F3       		.byte	0xf3
 3378 0a61 01       		.uleb128 0x1
 3379 0a62 52       		.byte	0x52
 3380 0a63 9F       		.byte	0x9f
 3381 0a64 18020000 		.4byte	.LVL73-.Ltext0
 3382 0a68 22020000 		.4byte	.LVL75-.Ltext0
 3383 0a6c 0100     		.2byte	0x1
 3384 0a6e 52       		.byte	0x52
 3385 0a6f 22020000 		.4byte	.LVL75-.Ltext0
 3386 0a73 28020000 		.4byte	.LVL77-.Ltext0
 3387 0a77 0400     		.2byte	0x4
 3388 0a79 F3       		.byte	0xf3
 3389 0a7a 01       		.uleb128 0x1
 3390 0a7b 52       		.byte	0x52
 3391 0a7c 9F       		.byte	0x9f
 3392 0a7d 28020000 		.4byte	.LVL77-.Ltext0
 3393 0a81 40020000 		.4byte	.LVL79-.Ltext0
 3394 0a85 0100     		.2byte	0x1
 3395 0a87 52       		.byte	0x52
 3396 0a88 40020000 		.4byte	.LVL79-.Ltext0
 3397 0a8c 48020000 		.4byte	.LVL82-.Ltext0
 3398 0a90 0400     		.2byte	0x4
 3399 0a92 F3       		.byte	0xf3
 3400 0a93 01       		.uleb128 0x1
 3401 0a94 52       		.byte	0x52
 3402 0a95 9F       		.byte	0x9f
 3403 0a96 48020000 		.4byte	.LVL82-.Ltext0
 3404 0a9a 5C020000 		.4byte	.LFE135-.Ltext0
 3405 0a9e 0100     		.2byte	0x1
 3406 0aa0 52       		.byte	0x52
 3407 0aa1 00000000 		.4byte	0
 3408 0aa5 00000000 		.4byte	0
 3409              	.LLST75:
 3410 0aa9 A0010000 		.4byte	.LVL60-.Ltext0
 3411 0aad C4010000 		.4byte	.LVL62-.Ltext0
 3412 0ab1 0100     		.2byte	0x1
 3413 0ab3 53       		.byte	0x53
 3414 0ab4 C4010000 		.4byte	.LVL62-.Ltext0
 3415 0ab8 C8010000 		.4byte	.LVL63-.Ltext0
 3416 0abc 0400     		.2byte	0x4
 3417 0abe F3       		.byte	0xf3
 3418 0abf 01       		.uleb128 0x1
ARM GAS  /tmp/ccWfXb6d.s 			page 61


 3419 0ac0 53       		.byte	0x53
 3420 0ac1 9F       		.byte	0x9f
 3421 0ac2 C8010000 		.4byte	.LVL63-.Ltext0
 3422 0ac6 E2010000 		.4byte	.LVL66-.Ltext0
 3423 0aca 0100     		.2byte	0x1
 3424 0acc 53       		.byte	0x53
 3425 0acd E2010000 		.4byte	.LVL66-.Ltext0
 3426 0ad1 F8010000 		.4byte	.LVL69-.Ltext0
 3427 0ad5 0400     		.2byte	0x4
 3428 0ad7 F3       		.byte	0xf3
 3429 0ad8 01       		.uleb128 0x1
 3430 0ad9 53       		.byte	0x53
 3431 0ada 9F       		.byte	0x9f
 3432 0adb F8010000 		.4byte	.LVL69-.Ltext0
 3433 0adf 15020000 		.4byte	.LVL72-1-.Ltext0
 3434 0ae3 0100     		.2byte	0x1
 3435 0ae5 53       		.byte	0x53
 3436 0ae6 15020000 		.4byte	.LVL72-1-.Ltext0
 3437 0aea 18020000 		.4byte	.LVL73-.Ltext0
 3438 0aee 0400     		.2byte	0x4
 3439 0af0 F3       		.byte	0xf3
 3440 0af1 01       		.uleb128 0x1
 3441 0af2 53       		.byte	0x53
 3442 0af3 9F       		.byte	0x9f
 3443 0af4 18020000 		.4byte	.LVL73-.Ltext0
 3444 0af8 25020000 		.4byte	.LVL76-1-.Ltext0
 3445 0afc 0100     		.2byte	0x1
 3446 0afe 53       		.byte	0x53
 3447 0aff 25020000 		.4byte	.LVL76-1-.Ltext0
 3448 0b03 28020000 		.4byte	.LVL77-.Ltext0
 3449 0b07 0400     		.2byte	0x4
 3450 0b09 F3       		.byte	0xf3
 3451 0b0a 01       		.uleb128 0x1
 3452 0b0b 53       		.byte	0x53
 3453 0b0c 9F       		.byte	0x9f
 3454 0b0d 28020000 		.4byte	.LVL77-.Ltext0
 3455 0b11 42020000 		.4byte	.LVL80-.Ltext0
 3456 0b15 0100     		.2byte	0x1
 3457 0b17 53       		.byte	0x53
 3458 0b18 42020000 		.4byte	.LVL80-.Ltext0
 3459 0b1c 48020000 		.4byte	.LVL82-.Ltext0
 3460 0b20 0400     		.2byte	0x4
 3461 0b22 F3       		.byte	0xf3
 3462 0b23 01       		.uleb128 0x1
 3463 0b24 53       		.byte	0x53
 3464 0b25 9F       		.byte	0x9f
 3465 0b26 48020000 		.4byte	.LVL82-.Ltext0
 3466 0b2a 5C020000 		.4byte	.LFE135-.Ltext0
 3467 0b2e 0100     		.2byte	0x1
 3468 0b30 53       		.byte	0x53
 3469 0b31 00000000 		.4byte	0
 3470 0b35 00000000 		.4byte	0
 3471              	.LLST76:
 3472 0b39 AC010000 		.4byte	.LVL61-.Ltext0
 3473 0b3d C4010000 		.4byte	.LVL62-.Ltext0
 3474 0b41 0100     		.2byte	0x1
 3475 0b43 51       		.byte	0x51
ARM GAS  /tmp/ccWfXb6d.s 			page 62


 3476 0b44 C8010000 		.4byte	.LVL63-.Ltext0
 3477 0b48 E5010000 		.4byte	.LVL67-1-.Ltext0
 3478 0b4c 0100     		.2byte	0x1
 3479 0b4e 51       		.byte	0x51
 3480 0b4f F8010000 		.4byte	.LVL69-.Ltext0
 3481 0b53 15020000 		.4byte	.LVL72-1-.Ltext0
 3482 0b57 0100     		.2byte	0x1
 3483 0b59 51       		.byte	0x51
 3484 0b5a 18020000 		.4byte	.LVL73-.Ltext0
 3485 0b5e 25020000 		.4byte	.LVL76-1-.Ltext0
 3486 0b62 0100     		.2byte	0x1
 3487 0b64 51       		.byte	0x51
 3488 0b65 28020000 		.4byte	.LVL77-.Ltext0
 3489 0b69 45020000 		.4byte	.LVL81-1-.Ltext0
 3490 0b6d 0100     		.2byte	0x1
 3491 0b6f 51       		.byte	0x51
 3492 0b70 48020000 		.4byte	.LVL82-.Ltext0
 3493 0b74 5C020000 		.4byte	.LFE135-.Ltext0
 3494 0b78 0100     		.2byte	0x1
 3495 0b7a 51       		.byte	0x51
 3496 0b7b 00000000 		.4byte	0
 3497 0b7f 00000000 		.4byte	0
 3498              		.section	.debug_aranges,"",%progbits
 3499 0000 1C000000 		.4byte	0x1c
 3500 0004 0200     		.2byte	0x2
 3501 0006 00000000 		.4byte	.Ldebug_info0
 3502 000a 04       		.byte	0x4
 3503 000b 00       		.byte	0
 3504 000c 0000     		.2byte	0
 3505 000e 0000     		.2byte	0
 3506 0010 00000000 		.4byte	.Ltext0
 3507 0014 5C020000 		.4byte	.Letext0-.Ltext0
 3508 0018 00000000 		.4byte	0
 3509 001c 00000000 		.4byte	0
 3510              		.section	.debug_ranges,"",%progbits
 3511              	.Ldebug_ranges0:
 3512 0000 1A000000 		.4byte	.LBB26-.Ltext0
 3513 0004 1E000000 		.4byte	.LBE26-.Ltext0
 3514 0008 22000000 		.4byte	.LBB29-.Ltext0
 3515 000c 2A000000 		.4byte	.LBE29-.Ltext0
 3516 0010 00000000 		.4byte	0
 3517 0014 00000000 		.4byte	0
 3518 0018 EA000000 		.4byte	.LBB40-.Ltext0
 3519 001c EE000000 		.4byte	.LBE40-.Ltext0
 3520 0020 F2000000 		.4byte	.LBB43-.Ltext0
 3521 0024 FA000000 		.4byte	.LBE43-.Ltext0
 3522 0028 00000000 		.4byte	0
 3523 002c 00000000 		.4byte	0
 3524              		.section	.debug_line,"",%progbits
 3525              	.Ldebug_line0:
 3526 0000 64040000 		.section	.debug_str,"MS",%progbits,1
 3526      02007402 
 3526      00000201 
 3526      FB0E0D00 
 3526      01010101 
 3527              	.LASF2:
 3528 0000 5F5F7569 		.ascii	"__uint8_t\000"
ARM GAS  /tmp/ccWfXb6d.s 			page 63


 3528      6E74385F 
 3528      7400
 3529              	.LASF51:
 3530 000a 2F686F6D 		.ascii	"/home/sbcu/Dropbox/pcb-layouts/axo-on-discovery-boa"
 3530      652F7362 
 3530      63752F44 
 3530      726F7062 
 3530      6F782F70 
 3531 003d 72642F61 		.ascii	"rd/axoloti/platform_linux/../CMSIS//DSP_Lib/Source/"
 3531      786F6C6F 
 3531      74692F70 
 3531      6C617466 
 3531      6F726D5F 
 3532 0070 5472616E 		.ascii	"TransformFunctions/arm_cfft_q15.c\000"
 3532      73666F72 
 3532      6D46756E 
 3532      6374696F 
 3532      6E732F61 
 3533              	.LASF12:
 3534 0092 6C6F6E67 		.ascii	"long long unsigned int\000"
 3534      206C6F6E 
 3534      6720756E 
 3534      7369676E 
 3534      65642069 
 3535              	.LASF30:
 3536 00a9 61726D5F 		.ascii	"arm_cfft_instance_q15\000"
 3536      63666674 
 3536      5F696E73 
 3536      74616E63 
 3536      655F7131 
 3537              	.LASF43:
 3538 00bf 61726D5F 		.ascii	"arm_cfft_radix4by2_q15\000"
 3538      63666674 
 3538      5F726164 
 3538      69783462 
 3538      79325F71 
 3539              	.LASF15:
 3540 00d6 696E7431 		.ascii	"int16_t\000"
 3540      365F7400 
 3541              	.LASF11:
 3542 00de 6C6F6E67 		.ascii	"long long int\000"
 3542      206C6F6E 
 3542      6720696E 
 3542      7400
 3543              	.LASF0:
 3544 00ec 7369676E 		.ascii	"signed char\000"
 3544      65642063 
 3544      68617200 
 3545              	.LASF34:
 3546 00f8 5F5F534D 		.ascii	"__SMUAD\000"
 3546      55414400 
 3547              	.LASF8:
 3548 0100 6C6F6E67 		.ascii	"long int\000"
 3548      20696E74 
 3548      00
 3549              	.LASF24:
 3550 0109 7131355F 		.ascii	"q15_t\000"
ARM GAS  /tmp/ccWfXb6d.s 			page 64


 3550      7400
 3551              	.LASF32:
 3552 010f 5F5F5153 		.ascii	"__QSUB16\000"
 3552      55423136 
 3552      00
 3553              	.LASF28:
 3554 0118 70426974 		.ascii	"pBitRevTable\000"
 3554      52657654 
 3554      61626C65 
 3554      00
 3555              	.LASF16:
 3556 0125 75696E74 		.ascii	"uint16_t\000"
 3556      31365F74 
 3556      00
 3557              	.LASF21:
 3558 012e 646F7562 		.ascii	"double\000"
 3558      6C6500
 3559              	.LASF31:
 3560 0135 5F5F5348 		.ascii	"__SHADD16\000"
 3560      41444431 
 3560      3600
 3561              	.LASF49:
 3562 013f 61726D5F 		.ascii	"arm_radix4_butterfly_inverse_q15\000"
 3562      72616469 
 3562      78345F62 
 3562      75747465 
 3562      72666C79 
 3563              	.LASF9:
 3564 0160 5F5F7569 		.ascii	"__uint32_t\000"
 3564      6E743332 
 3564      5F7400
 3565              	.LASF3:
 3566 016b 5F5F696E 		.ascii	"__int16_t\000"
 3566      7431365F 
 3566      7400
 3567              	.LASF52:
 3568 0175 61726D5F 		.ascii	"arm_bitreversal_16\000"
 3568      62697472 
 3568      65766572 
 3568      73616C5F 
 3568      313600
 3569              	.LASF26:
 3570 0188 6666744C 		.ascii	"fftLen\000"
 3570      656E00
 3571              	.LASF13:
 3572 018f 756E7369 		.ascii	"unsigned int\000"
 3572      676E6564 
 3572      20696E74 
 3572      00
 3573              	.LASF38:
 3574 019c 70537263 		.ascii	"pSrc\000"
 3574      00
 3575              	.LASF10:
 3576 01a1 6C6F6E67 		.ascii	"long unsigned int\000"
 3576      20756E73 
 3576      69676E65 
 3576      6420696E 
ARM GAS  /tmp/ccWfXb6d.s 			page 65


 3576      7400
 3577              	.LASF6:
 3578 01b3 73686F72 		.ascii	"short unsigned int\000"
 3578      7420756E 
 3578      7369676E 
 3578      65642069 
 3578      6E7400
 3579              	.LASF41:
 3580 01c6 6F757431 		.ascii	"out1\000"
 3580      00
 3581              	.LASF42:
 3582 01cb 6F757432 		.ascii	"out2\000"
 3582      00
 3583              	.LASF35:
 3584 01d0 5F5F534D 		.ascii	"__SMUSDX\000"
 3584      55534458 
 3584      00
 3585              	.LASF19:
 3586 01d9 73697A65 		.ascii	"sizetype\000"
 3586      74797065 
 3586      00
 3587              	.LASF23:
 3588 01e2 6C6F6E67 		.ascii	"long double\000"
 3588      20646F75 
 3588      626C6500 
 3589              	.LASF36:
 3590 01ee 5F5F534D 		.ascii	"__SMUSD\000"
 3590      55534400 
 3591              	.LASF47:
 3592 01f6 62697452 		.ascii	"bitReverseFlag\000"
 3592      65766572 
 3592      7365466C 
 3592      616700
 3593              	.LASF22:
 3594 0205 666C6F61 		.ascii	"float\000"
 3594      7400
 3595              	.LASF29:
 3596 020b 62697452 		.ascii	"bitRevLength\000"
 3596      65764C65 
 3596      6E677468 
 3596      00
 3597              	.LASF17:
 3598 0218 696E7433 		.ascii	"int32_t\000"
 3598      325F7400 
 3599              	.LASF1:
 3600 0220 756E7369 		.ascii	"unsigned char\000"
 3600      676E6564 
 3600      20636861 
 3600      7200
 3601              	.LASF4:
 3602 022e 73686F72 		.ascii	"short int\000"
 3602      7420696E 
 3602      7400
 3603              	.LASF25:
 3604 0238 7133315F 		.ascii	"q31_t\000"
 3604      7400
 3605              	.LASF18:
ARM GAS  /tmp/ccWfXb6d.s 			page 66


 3606 023e 75696E74 		.ascii	"uint32_t\000"
 3606      33325F74 
 3606      00
 3607              	.LASF37:
 3608 0247 5F5F534D 		.ascii	"__SMUADX\000"
 3608      55414458 
 3608      00
 3609              	.LASF20:
 3610 0250 63686172 		.ascii	"char\000"
 3610      00
 3611              	.LASF5:
 3612 0255 5F5F7569 		.ascii	"__uint16_t\000"
 3612      6E743136 
 3612      5F7400
 3613              	.LASF7:
 3614 0260 5F5F696E 		.ascii	"__int32_t\000"
 3614      7433325F 
 3614      7400
 3615              	.LASF40:
 3616 026a 636F6566 		.ascii	"coeff\000"
 3616      6600
 3617              	.LASF45:
 3618 0270 61726D5F 		.ascii	"arm_cfft_q15\000"
 3618      63666674 
 3618      5F713135 
 3618      00
 3619              	.LASF27:
 3620 027d 70547769 		.ascii	"pTwiddle\000"
 3620      64646C65 
 3620      00
 3621              	.LASF39:
 3622 0286 70436F65 		.ascii	"pCoef\000"
 3622      6600
 3623              	.LASF14:
 3624 028c 75696E74 		.ascii	"uint8_t\000"
 3624      385F7400 
 3625              	.LASF50:
 3626 0294 474E5520 		.ascii	"GNU C 4.9.3 20150529 (release) [ARM/embedded-4_9-br"
 3626      4320342E 
 3626      392E3320 
 3626      32303135 
 3626      30353239 
 3627 02c7 616E6368 		.ascii	"anch revision 224288] -mcpu=cortex-m4 -mfloat-abi=h"
 3627      20726576 
 3627      6973696F 
 3627      6E203232 
 3627      34323838 
 3628 02fa 61726420 		.ascii	"ard -mfpu=fpv4-sp-d16 -mno-thumb-interwork -mthumb "
 3628      2D6D6670 
 3628      753D6670 
 3628      76342D73 
 3628      702D6431 
 3629 032d 2D676764 		.ascii	"-ggdb -O2 -fomit-frame-pointer -falign-functions=16"
 3629      62202D4F 
 3629      32202D66 
 3629      6F6D6974 
 3629      2D667261 
ARM GAS  /tmp/ccWfXb6d.s 			page 67


 3630 0360 202D666E 		.ascii	" -fno-math-errno -fsingle-precision-constant\000"
 3630      6F2D6D61 
 3630      74682D65 
 3630      72726E6F 
 3630      202D6673 
 3631              	.LASF48:
 3632 038d 61726D5F 		.ascii	"arm_radix4_butterfly_q15\000"
 3632      72616469 
 3632      78345F62 
 3632      75747465 
 3632      72666C79 
 3633              	.LASF33:
 3634 03a6 72657375 		.ascii	"result\000"
 3634      6C7400
 3635              	.LASF44:
 3636 03ad 61726D5F 		.ascii	"arm_cfft_radix4by2_inverse_q15\000"
 3636      63666674 
 3636      5F726164 
 3636      69783462 
 3636      79325F69 
 3637              	.LASF46:
 3638 03cc 69666674 		.ascii	"ifftFlag\000"
 3638      466C6167 
 3638      00
 3639              		.ident	"GCC: (GNU Tools for ARM Embedded Processors) 4.9.3 20150529 (release) [ARM/embedded-4_9-br
ARM GAS  /tmp/ccWfXb6d.s 			page 68


DEFINED SYMBOLS
                            *ABS*:00000000 arm_cfft_q15.c
     /tmp/ccWfXb6d.s:20     .text:00000000 $t
     /tmp/ccWfXb6d.s:26     .text:00000000 arm_cfft_radix4by2_q15
     /tmp/ccWfXb6d.s:256    .text:000000d0 arm_cfft_radix4by2_inverse_q15
     /tmp/ccWfXb6d.s:484    .text:000001a0 arm_cfft_q15
                     .debug_frame:00000010 $d

UNDEFINED SYMBOLS
arm_radix4_butterfly_q15
arm_radix4_butterfly_inverse_q15
arm_bitreversal_16
