ARM GAS  /tmp/ccuecsUq.s 			page 1


   1              		.syntax unified
   2              		.cpu cortex-m4
   3              		.eabi_attribute 27, 1
   4              		.eabi_attribute 28, 1
   5              		.fpu fpv4-sp-d16
   6              		.eabi_attribute 20, 1
   7              		.eabi_attribute 21, 1
   8              		.eabi_attribute 23, 3
   9              		.eabi_attribute 24, 1
  10              		.eabi_attribute 25, 1
  11              		.eabi_attribute 26, 1
  12              		.eabi_attribute 30, 2
  13              		.eabi_attribute 34, 1
  14              		.eabi_attribute 18, 4
  15              		.thumb
  16              		.file	"arm_biquad_cascade_df1_32x64_q31.c"
  17              		.text
  18              	.Ltext0:
  19              		.cfi_sections	.debug_frame
  20              		.align	2
  21              		.p2align 4,,15
  22              		.global	arm_biquad_cas_df1_32x64_q31
  23              		.thumb
  24              		.thumb_func
  25              		.type	arm_biquad_cas_df1_32x64_q31, %function
  26              	arm_biquad_cas_df1_32x64_q31:
  27              	.LFB135:
  28              		.file 1 "/home/sbcu/Dropbox/pcb-layouts/axo-on-discovery-board/axoloti/platform_linux/../CMSIS//DS
  29              		.loc 1 192 0
  30              		.cfi_startproc
  31              		@ args = 0, pretend = 0, frame = 264
  32              		@ frame_needed = 0, uses_anonymous_args = 0
  33              	.LVL0:
  34 0000 2DE9F04F 		push	{r4, r5, r6, r7, r8, r9, r10, fp, lr}
  35              		.cfi_def_cfa_offset 36
  36              		.cfi_offset 4, -36
  37              		.cfi_offset 5, -32
  38              		.cfi_offset 6, -28
  39              		.cfi_offset 7, -24
  40              		.cfi_offset 8, -20
  41              		.cfi_offset 9, -16
  42              		.cfi_offset 10, -12
  43              		.cfi_offset 11, -8
  44              		.cfi_offset 14, -4
  45 0004 C3B0     		sub	sp, sp, #268
  46              		.cfi_def_cfa_offset 304
  47              		.loc 1 202 0
  48 0006 047B     		ldrb	r4, [r0, #12]	@ zero_extendqisi2
  49 0008 8568     		ldr	r5, [r0, #8]
  50 000a 4668     		ldr	r6, [r0, #4]
  51              		.loc 1 203 0
  52 000c 0078     		ldrb	r0, [r0]	@ zero_extendqisi2
  53              	.LVL1:
  54 000e 3C90     		str	r0, [sp, #240]
  55 0010 9808     		lsrs	r0, r3, #2
  56 0012 03F00303 		and	r3, r3, #3
  57              	.LVL2:
ARM GAS  /tmp/ccuecsUq.s 			page 2


  58 0016 3E90     		str	r0, [sp, #248]
  59 0018 3F93     		str	r3, [sp, #252]
  60 001a 0001     		lsls	r0, r0, #4
  61 001c 1346     		mov	r3, r2
  62 001e 0344     		add	r3, r3, r0
  63 0020 4193     		str	r3, [sp, #260]
  64              		.loc 1 206 0
  65 0022 C4F11F03 		rsb	r3, r4, #31
  66 0026 1493     		str	r3, [sp, #80]
  67 0028 A4F11F03 		sub	r3, r4, #31
  68              		.loc 1 202 0
  69 002c 04F1010C 		add	ip, r4, #1
  70 0030 1593     		str	r3, [sp, #84]
  71 0032 05F11403 		add	r3, r5, #20
  72              		.loc 1 192 0
  73 0036 3491     		str	r1, [sp, #208]
  74              	.LVL3:
  75 0038 3993     		str	r3, [sp, #228]
  76 003a CCF12001 		rsb	r1, ip, #32
  77              	.LVL4:
  78 003e 06F12003 		add	r3, r6, #32
  79 0042 3D92     		str	r2, [sp, #244]
  80 0044 4090     		str	r0, [sp, #256]
  81 0046 3291     		str	r1, [sp, #200]
  82 0048 3893     		str	r3, [sp, #224]
  83              	.LVL5:
  84              	.L7:
  85              		.loc 1 216 0
  86 004a 399A     		ldr	r2, [sp, #228]
  87 004c 52F8143C 		ldr	r3, [r2, #-20]
  88 0050 0E93     		str	r3, [sp, #56]
  89              	.LVL6:
  90              		.loc 1 217 0
  91 0052 1346     		mov	r3, r2
  92              	.LVL7:
  93 0054 52F8102C 		ldr	r2, [r2, #-16]
  94 0058 0F92     		str	r2, [sp, #60]
  95              	.LVL8:
  96              		.loc 1 218 0
  97 005a 1A46     		mov	r2, r3
  98              	.LVL9:
  99 005c 53F80C3C 		ldr	r3, [r3, #-12]
 100 0060 1093     		str	r3, [sp, #64]
 101              	.LVL10:
 102              		.loc 1 219 0
 103 0062 52F8083C 		ldr	r3, [r2, #-8]
 104              	.LVL11:
 105 0066 3A93     		str	r3, [sp, #232]
 106              	.LVL12:
 107              		.loc 1 220 0
 108 0068 52F8043C 		ldr	r3, [r2, #-4]
 109              	.LVL13:
 110              		.loc 1 223 0
 111 006c 389A     		ldr	r2, [sp, #224]
 112              		.loc 1 220 0
 113 006e 3B93     		str	r3, [sp, #236]
 114              	.LVL14:
ARM GAS  /tmp/ccuecsUq.s 			page 3


 115              		.loc 1 223 0
 116 0070 52F8203C 		ldr	r3, [r2, #-32]
 117              	.LVL15:
 118 0074 1293     		str	r3, [sp, #72]
 119              	.LVL16:
 120              		.loc 1 224 0
 121 0076 1346     		mov	r3, r2
 122              	.LVL17:
 123 0078 52F8182C 		ldr	r2, [r2, #-24]
 124 007c 0C92     		str	r2, [sp, #48]
 125              	.LVL18:
 126              		.loc 1 225 0
 127 007e 53E90401 		ldrd	r0, [r3, #-16]
 128              		.loc 1 226 0
 129 0082 53E90223 		ldrd	r2, [r3, #-8]
 130              	.LVL19:
 131 0086 CDE90223 		strd	r2, [sp, #8]
 132              		.loc 1 238 0
 133 008a 3E9B     		ldr	r3, [sp, #248]
 134              		.loc 1 225 0
 135 008c CDE90A01 		strd	r0, [sp, #40]
 136              	.LVL20:
 137              		.loc 1 238 0
 138 0090 002B     		cmp	r3, #0
 139 0092 00F01C83 		beq	.L14
 140 0096 3A9B     		ldr	r3, [sp, #232]
 141              	.LVL21:
 142 0098 1846     		mov	r0, r3
 143              	.LVL22:
 144 009a D917     		asrs	r1, r3, #31
 145 009c 3B9B     		ldr	r3, [sp, #236]
 146 009e 1C46     		mov	r4, r3
 147 00a0 DD17     		asrs	r5, r3, #31
 148 00a2 349B     		ldr	r3, [sp, #208]
 149 00a4 1033     		adds	r3, r3, #16
 150 00a6 0D93     		str	r3, [sp, #52]
 151 00a8 3D9B     		ldr	r3, [sp, #244]
 152 00aa CDE90445 		strd	r4, [sp, #16]
 153 00ae 1033     		adds	r3, r3, #16
 154 00b0 DDE90245 		ldrd	r4, [sp, #8]
 155 00b4 1193     		str	r3, [sp, #68]
 156 00b6 3E9B     		ldr	r3, [sp, #248]
 157 00b8 3593     		str	r3, [sp, #212]
 158 00ba 0023     		movs	r3, #0
 159 00bc 1F46     		mov	r7, r3
 160 00be 2646     		mov	r6, r4
 161 00c0 159B     		ldr	r3, [sp, #84]
 162 00c2 2A93     		str	r3, [sp, #168]
 163 00c4 CDE90001 		strd	r0, [sp]
 164 00c8 CDE91867 		strd	r6, [sp, #96]
 165 00cc 4FEAE57B 		asr	fp, r5, #31
 166 00d0 329B     		ldr	r3, [sp, #200]
 167 00d2 3393     		str	r3, [sp, #204]
 168 00d4 CDF8D8B0 		str	fp, [sp, #216]
 169              	.LVL23:
 170              	.L4:
 171              	.LBB22:
ARM GAS  /tmp/ccuecsUq.s 			page 4


 172              	.LBB23:
 173              		.file 2 "/home/sbcu/Dropbox/pcb-layouts/axo-on-discovery-board/axoloti/platform_linux/../CMSIS//DS
 174              		.loc 2 560 0
 175 00d8 DDE90A89 		ldrd	r8, [sp, #40]
 176 00dc DDE90045 		ldrd	r4, [sp]
 177 00e0 A8FB0423 		umull	r2, r3, r8, r4
 178 00e4 CDE91623 		strd	r2, [sp, #88]
 179              	.LBE23:
 180              	.LBE22:
 181              		.loc 1 241 0
 182 00e8 0D98     		ldr	r0, [sp, #52]
 183              	.LBB36:
 184              	.LBB24:
 185              		.loc 2 560 0
 186 00ea 179B     		ldr	r3, [sp, #92]
 187 00ec 4FF0000B 		mov	fp, #0
 188 00f0 08FB05F1 		mul	r1, r8, r5
 189 00f4 04FB0B11 		mla	r1, r4, fp, r1
 190              	.LBE24:
 191              	.LBE36:
 192              		.loc 1 241 0
 193 00f8 50F8104C 		ldr	r4, [r0, #-16]
 194              	.LBB37:
 195              	.LBB38:
 196              		.loc 2 560 0
 197 00fc 1898     		ldr	r0, [sp, #96]
 198              	.LBE38:
 199              	.LBE37:
 200              	.LBB52:
 201              	.LBB25:
 202 00fe 1944     		add	r1, r1, r3
 203              		.loc 2 561 0
 204 0100 019B     		ldr	r3, [sp, #4]
 205              		.loc 2 560 0
 206 0102 1791     		str	r1, [sp, #92]
 207              	.LBE25:
 208              	.LBE52:
 209              		.loc 1 241 0
 210 0104 2546     		mov	r5, r4
 211              	.LVL24:
 212              	.LBB53:
 213              	.LBB39:
 214              		.loc 2 560 0
 215 0106 DDE90467 		ldrd	r6, [sp, #16]
 216              	.LBE39:
 217              	.LBE53:
 218              	.LBB54:
 219              	.LBB26:
 220              		.loc 2 561 0
 221 010a 4C46     		mov	r4, r9
 222              	.LVL25:
 223              		.loc 2 560 0
 224 010c C246     		mov	r10, r8
 225              		.loc 2 561 0
 226 010e 4FEAE97E 		asr	lr, r9, #31
 227 0112 04FB03F4 		mul	r4, r4, r3
 228 0116 DDE90089 		ldrd	r8, [sp]
ARM GAS  /tmp/ccuecsUq.s 			page 5


 229              	.LBE26:
 230              	.LBE54:
 231              	.LBB55:
 232              	.LBB40:
 233              		.loc 2 560 0
 234 011a DDE91823 		ldrd	r2, [sp, #96]
 235 011e 00FB07F0 		mul	r0, r0, r7
 236 0122 06FB0300 		mla	r0, r6, r3, r0
 237              	.LBE40:
 238              	.LBE55:
 239              	.LBB56:
 240              	.LBB27:
 241 0126 1C91     		str	r1, [sp, #112]
 242 0128 179B     		ldr	r3, [sp, #92]
 243              	.LBE27:
 244              	.LBE56:
 245              		.loc 1 246 0
 246 012a 1A95     		str	r5, [sp, #104]
 247              	.LBB57:
 248              	.LBB28:
 249              		.loc 2 561 0
 250 012c 0EFB0841 		mla	r1, lr, r8, r4
 251 0130 0C46     		mov	r4, r1
 252 0132 0B99     		ldr	r1, [sp, #44]
 253              	.LBE28:
 254              	.LBE57:
 255              	.LBB58:
 256              	.LBB41:
 257              		.loc 2 560 0
 258 0134 A2FB0667 		umull	r6, r7, r2, r6
 259              	.LBE41:
 260              	.LBE58:
 261              	.LBB59:
 262              	.LBB29:
 263 0138 DB17     		asrs	r3, r3, #31
 264              	.LBE29:
 265              	.LBE59:
 266              	.LBB60:
 267              	.LBB42:
 268 013a C219     		adds	r2, r0, r7
 269              	.LBE42:
 270              	.LBE60:
 271              	.LBB61:
 272              	.LBB30:
 273 013c 1D93     		str	r3, [sp, #116]
 274              		.loc 2 561 0
 275 013e A1FB0801 		umull	r0, r1, r1, r8
 276              	.LBE30:
 277              	.LBE61:
 278              		.loc 1 246 0
 279 0142 0E9B     		ldr	r3, [sp, #56]
 280              	.LBB62:
 281              	.LBB43:
 282              		.loc 2 560 0
 283 0144 1E92     		str	r2, [sp, #120]
 284              	.LBE43:
 285              	.LBE62:
ARM GAS  /tmp/ccuecsUq.s 			page 6


 286              	.LBB63:
 287              	.LBB31:
 288              		.loc 2 561 0
 289 0146 8946     		mov	r9, r1
 290 0148 8046     		mov	r8, r0
 291 014a CDE91889 		strd	r8, [sp, #96]
 292              	.LBE31:
 293              	.LBE63:
 294              		.loc 1 246 0
 295 014e 85FB0301 		smull	r0, r1, r5, r3
 296              	.LVL26:
 297              	.LBB64:
 298              	.LBB32:
 299              		.loc 2 561 0
 300 0152 4B46     		mov	r3, r9
 301              	.LBE32:
 302              	.LBE64:
 303              	.LBB65:
 304              	.LBB44:
 305 0154 DDE90289 		ldrd	r8, [sp, #8]
 306              	.LBE44:
 307              	.LBE65:
 308              	.LBB66:
 309              	.LBB33:
 310 0158 2344     		add	r3, r3, r4
 311              	.LBE33:
 312              	.LBE66:
 313              	.LBB67:
 314              	.LBB45:
 315 015a 059C     		ldr	r4, [sp, #20]
 316              	.LBE45:
 317              	.LBE67:
 318              	.LBB68:
 319              	.LBB34:
 320 015c 1993     		str	r3, [sp, #100]
 321              	.LBE34:
 322              	.LBE68:
 323              	.LBB69:
 324              	.LBB46:
 325 015e 09FB04F3 		mul	r3, r9, r4
 326              	.LBE46:
 327              	.LBE69:
 328              		.loc 1 249 0
 329 0162 129C     		ldr	r4, [sp, #72]
 330 0164 2546     		mov	r5, r4
 331              	.LVL27:
 332 0166 0F9C     		ldr	r4, [sp, #60]
 333              	.LBB70:
 334              	.LBB47:
 335              		.loc 2 560 0
 336 0168 1746     		mov	r7, r2
 337              	.LBE47:
 338              	.LBE70:
 339              		.loc 1 249 0
 340 016a C4FB0501 		smlal	r0, r1, r4, r5
 341              	.LVL28:
 342              	.LBB71:
ARM GAS  /tmp/ccuecsUq.s 			page 7


 343              	.LBB48:
 344              		.loc 2 561 0
 345 016e 049A     		ldr	r2, [sp, #16]
 346 0170 369D     		ldr	r5, [sp, #216]
 347 0172 05FB0236 		mla	r6, r5, r2, r3
 348 0176 049D     		ldr	r5, [sp, #16]
 349 0178 A9FB0523 		umull	r2, r3, r9, r5
 350              	.LBE48:
 351              	.LBE71:
 352              	.LBB72:
 353              	.LBB35:
 354              		.loc 2 560 0
 355 017c DDE91C45 		ldrd	r4, [sp, #112]
 356 0180 DDE91889 		ldrd	r8, [sp, #96]
 357 0184 18EB0408 		adds	r8, r8, r4
 358 0188 49EB0509 		adc	r9, r9, r5
 359 018c 4446     		mov	r4, r8
 360 018e 4D46     		mov	r5, r9
 361 0190 CDE91645 		strd	r4, [sp, #88]
 362              	.LBE35:
 363              	.LBE72:
 364              		.loc 1 252 0
 365 0194 0C9D     		ldr	r5, [sp, #48]
 366 0196 A846     		mov	r8, r5
 367 0198 109D     		ldr	r5, [sp, #64]
 368              	.LBB73:
 369              	.LBB49:
 370              		.loc 2 560 0
 371 019a FF17     		asrs	r7, r7, #31
 372 019c 1F97     		str	r7, [sp, #124]
 373              	.LBE49:
 374              	.LBE73:
 375              		.loc 1 252 0
 376 019e C5FB0801 		smlal	r0, r1, r5, r8
 377              	.LVL29:
 378              		.loc 1 255 0
 379 01a2 DDE91645 		ldrd	r4, [sp, #88]
 380              	.LBB74:
 381              	.LBB50:
 382              		.loc 2 561 0
 383 01a6 3344     		add	r3, r3, r6
 384              		.loc 2 560 0
 385 01a8 DDE91E67 		ldrd	r6, [sp, #120]
 386              	.LBE50:
 387              	.LBE74:
 388              		.loc 1 255 0
 389 01ac 2418     		adds	r4, r4, r0
 390 01ae 4D41     		adcs	r5, r5, r1
 391              	.LVL30:
 392              	.LBB75:
 393              	.LBB51:
 394              		.loc 2 560 0
 395 01b0 B618     		adds	r6, r6, r2
 396 01b2 5F41     		adcs	r7, r7, r3
 397              	.LBE51:
 398              	.LBE75:
 399              		.loc 1 258 0
ARM GAS  /tmp/ccuecsUq.s 			page 8


 400 01b4 A019     		adds	r0, r4, r6
 401 01b6 45EB0701 		adc	r1, r5, r7
 402              	.LVL31:
 403              		.loc 1 261 0
 404 01ba 01FA0CF6 		lsl	r6, r1, ip
 405 01be 0796     		str	r6, [sp, #28]
 406 01c0 2A9E     		ldr	r6, [sp, #168]
 407 01c2 00FA06F3 		lsl	r3, r0, r6
 408 01c6 079E     		ldr	r6, [sp, #28]
 409 01c8 1E43     		orrs	r6, r6, r3
 410 01ca 0796     		str	r6, [sp, #28]
 411 01cc 339E     		ldr	r6, [sp, #204]
 412 01ce 20FA06F3 		lsr	r3, r0, r6
 413 01d2 079E     		ldr	r6, [sp, #28]
 414 01d4 1E43     		orrs	r6, r6, r3
 415 01d6 0796     		str	r6, [sp, #28]
 416 01d8 00FA0CF6 		lsl	r6, r0, ip
 417 01dc 0696     		str	r6, [sp, #24]
 418              	.LVL32:
 419              	.LBB76:
 420              	.LBB77:
 421              		.loc 2 560 0
 422 01de DDE90667 		ldrd	r6, [sp, #24]
 423 01e2 DDE90089 		ldrd	r8, [sp]
 424 01e6 3446     		mov	r4, r6
 425              	.LBE77:
 426              	.LBE76:
 427              		.loc 1 270 0
 428 01e8 149E     		ldr	r6, [sp, #80]
 429              	.LBB93:
 430              	.LBB78:
 431              		.loc 2 560 0
 432 01ea 4B46     		mov	r3, r9
 433 01ec 0027     		movs	r7, #0
 434              	.LBE78:
 435              	.LBE93:
 436              		.loc 1 270 0
 437 01ee F040     		lsrs	r0, r0, r6
 438              	.LVL33:
 439              	.LBB94:
 440              	.LBB79:
 441              		.loc 2 560 0
 442 01f0 04FB03F3 		mul	r3, r4, r3
 443              	.LBE79:
 444              	.LBE94:
 445              		.loc 1 270 0
 446 01f4 01FA0CF2 		lsl	r2, r1, ip
 447              	.LBB95:
 448              	.LBB80:
 449              		.loc 2 560 0
 450 01f8 3D46     		mov	r5, r7
 451              	.LBE80:
 452              	.LBE95:
 453              		.loc 1 270 0
 454 01fa 0243     		orrs	r2, r2, r0
 455              	.LVL34:
 456              	.LBB96:
ARM GAS  /tmp/ccuecsUq.s 			page 9


 457              	.LBB81:
 458              		.loc 2 560 0
 459 01fc 08FB0730 		mla	r0, r8, r7, r3
 460              		.loc 2 561 0
 461 0200 DDE90667 		ldrd	r6, [sp, #24]
 462              	.LBE81:
 463              	.LBE96:
 464              		.loc 1 273 0
 465 0204 119B     		ldr	r3, [sp, #68]
 466              	.LBB97:
 467              	.LBB82:
 468              		.loc 2 561 0
 469 0206 019E     		ldr	r6, [sp, #4]
 470              	.LBE82:
 471              	.LBE97:
 472              		.loc 1 273 0
 473 0208 43F8102C 		str	r2, [r3, #-16]
 474              	.LVL35:
 475              	.LBB98:
 476              	.LBB83:
 477              		.loc 2 560 0
 478 020c 2146     		mov	r1, r4
 479              		.loc 2 561 0
 480 020e FA17     		asrs	r2, r7, #31
 481              	.LVL36:
 482              		.loc 2 560 0
 483 0210 CDE91845 		strd	r4, [sp, #96]
 484 0214 A1FB0845 		umull	r4, r5, r1, r8
 485              		.loc 2 561 0
 486 0218 3946     		mov	r1, r7
 487              	.LBE83:
 488              	.LBE98:
 489              		.loc 1 276 0
 490 021a 0D9F     		ldr	r7, [sp, #52]
 491              	.LBB99:
 492              	.LBB84:
 493              		.loc 2 561 0
 494 021c 2A92     		str	r2, [sp, #168]
 495              	.LBE84:
 496              	.LBE99:
 497              	.LBB100:
 498              	.LBB101:
 499              		.loc 2 560 0
 500 021e DDE90489 		ldrd	r8, [sp, #16]
 501              	.LBE101:
 502              	.LBE100:
 503              		.loc 1 276 0
 504 0222 57F80C2C 		ldr	r2, [r7, #-12]
 505 0226 1692     		str	r2, [sp, #88]
 506              	.LVL37:
 507              	.LBB112:
 508              	.LBB85:
 509              		.loc 2 560 0
 510 0228 2844     		add	r0, r0, r5
 511              	.LBE85:
 512              	.LBE112:
 513              		.loc 1 308 0
ARM GAS  /tmp/ccuecsUq.s 			page 10


 514 022a 57F8082C 		ldr	r2, [r7, #-8]
 515              	.LBB113:
 516              	.LBB86:
 517              		.loc 2 560 0
 518 022e 2090     		str	r0, [sp, #128]
 519 0230 0546     		mov	r5, r0
 520              		.loc 2 561 0
 521 0232 0098     		ldr	r0, [sp]
 522              	.LBE86:
 523              	.LBE113:
 524              		.loc 1 308 0
 525 0234 0C92     		str	r2, [sp, #48]
 526              	.LBB114:
 527              	.LBB102:
 528              		.loc 2 561 0
 529 0236 0B9A     		ldr	r2, [sp, #44]
 530              		.loc 2 560 0
 531 0238 049F     		ldr	r7, [sp, #16]
 532 023a 0AFB09F3 		mul	r3, r10, r9
 533              	.LVL38:
 534              	.LBE102:
 535              	.LBE114:
 536              	.LBB115:
 537              	.LBB87:
 538              		.loc 2 561 0
 539 023e 8146     		mov	r9, r0
 540 0240 2A98     		ldr	r0, [sp, #168]
 541              	.LBE87:
 542              	.LBE115:
 543              	.LBB116:
 544              	.LBB103:
 545              		.loc 2 560 0
 546 0242 08FB0B33 		mla	r3, r8, fp, r3
 547              	.LBE103:
 548              	.LBE116:
 549              	.LBB117:
 550              	.LBB88:
 551              		.loc 2 561 0
 552 0246 01FB06F1 		mul	r1, r1, r6
 553              	.LBE88:
 554              	.LBE117:
 555              	.LBB118:
 556              	.LBB104:
 557 024a 9046     		mov	r8, r2
 558 024c 059A     		ldr	r2, [sp, #20]
 559              	.LBE104:
 560              	.LBE118:
 561              	.LBB119:
 562              	.LBB89:
 563 024e 00FB0911 		mla	r1, r0, r9, r1
 564              	.LBE89:
 565              	.LBE119:
 566              	.LBB120:
 567              	.LBB105:
 568 0252 0498     		ldr	r0, [sp, #16]
 569              		.loc 2 560 0
 570 0254 AAFB0767 		umull	r6, r7, r10, r7
ARM GAS  /tmp/ccuecsUq.s 			page 11


 571              		.loc 2 561 0
 572 0258 08FB02FA 		mul	r10, r8, r2
 573 025c 0EFB00AE 		mla	lr, lr, r0, r10
 574 0260 0498     		ldr	r0, [sp, #16]
 575 0262 A8FB00AB 		umull	r10, fp, r8, r0
 576              	.LBE105:
 577              	.LBE120:
 578              	.LBB121:
 579              	.LBB90:
 580              		.loc 2 560 0
 581 0266 E817     		asrs	r0, r5, #31
 582 0268 2190     		str	r0, [sp, #132]
 583              		.loc 2 561 0
 584 026a 0798     		ldr	r0, [sp, #28]
 585              	.LBE90:
 586              	.LBE121:
 587              		.loc 1 284 0
 588 026c 169A     		ldr	r2, [sp, #88]
 589              	.LBB122:
 590              	.LBB91:
 591              		.loc 2 561 0
 592 026e A0FB0945 		umull	r4, r5, r0, r9
 593 0272 0D44     		add	r5, r5, r1
 594              	.LBE91:
 595              	.LBE122:
 596              		.loc 1 281 0
 597 0274 1A99     		ldr	r1, [sp, #104]
 598 0276 8846     		mov	r8, r1
 599 0278 0F99     		ldr	r1, [sp, #60]
 600 027a 88FB0101 		smull	r0, r1, r8, r1
 601              	.LVL39:
 602              		.loc 1 284 0
 603 027e 9046     		mov	r8, r2
 604 0280 0E9A     		ldr	r2, [sp, #56]
 605              	.LBB123:
 606              	.LBB106:
 607              		.loc 2 560 0
 608 0282 3B44     		add	r3, r3, r7
 609              	.LBE106:
 610              	.LBE123:
 611              		.loc 1 284 0
 612 0284 C2FB0801 		smlal	r0, r1, r2, r8
 613              	.LVL40:
 614              	.LBB124:
 615              	.LBB107:
 616              		.loc 2 560 0
 617 0288 2293     		str	r3, [sp, #136]
 618 028a 1F46     		mov	r7, r3
 619              	.LBE107:
 620              	.LBE124:
 621              	.LBB125:
 622              	.LBB92:
 623 028c DDE92023 		ldrd	r2, [sp, #128]
 624 0290 1219     		adds	r2, r2, r4
 625 0292 6B41     		adcs	r3, r3, r5
 626 0294 1D46     		mov	r5, r3
 627              	.LBE92:
ARM GAS  /tmp/ccuecsUq.s 			page 12


 628              	.LBE125:
 629              		.loc 1 287 0
 630 0296 129B     		ldr	r3, [sp, #72]
 631              	.LBB126:
 632              	.LBB108:
 633              		.loc 2 561 0
 634 0298 F344     		add	fp, fp, lr
 635              	.LBE108:
 636              	.LBE126:
 637              		.loc 1 287 0
 638 029a 9E46     		mov	lr, r3
 639 029c 109B     		ldr	r3, [sp, #64]
 640              	.LBB127:
 641              	.LBB109:
 642              		.loc 2 560 0
 643 029e FF17     		asrs	r7, r7, #31
 644              	.LBE109:
 645              	.LBE127:
 646              		.loc 1 287 0
 647 02a0 C3FB0E01 		smlal	r0, r1, r3, lr
 648              	.LVL41:
 649              		.loc 1 290 0
 650 02a4 1418     		adds	r4, r2, r0
 651              	.LBB128:
 652              	.LBB110:
 653              		.loc 2 560 0
 654 02a6 2397     		str	r7, [sp, #140]
 655              	.LBE110:
 656              	.LBE128:
 657              		.loc 1 290 0
 658 02a8 4D41     		adcs	r5, r5, r1
 659              	.LVL42:
 660              	.LBB129:
 661              	.LBB111:
 662              		.loc 2 560 0
 663 02aa DDE92201 		ldrd	r0, [sp, #136]
 664 02ae 10EB0A00 		adds	r0, r0, r10
 665 02b2 41EB0B01 		adc	r1, r1, fp
 666              	.LBE111:
 667              	.LBE129:
 668              		.loc 1 293 0
 669 02b6 0619     		adds	r6, r0, r4
 670 02b8 41EB0507 		adc	r7, r1, r5
 671              		.loc 1 296 0
 672 02bc 07FA0CF0 		lsl	r0, r7, ip
 673 02c0 0990     		str	r0, [sp, #36]
 674 02c2 1598     		ldr	r0, [sp, #84]
 675 02c4 099C     		ldr	r4, [sp, #36]
 676              	.LVL43:
 677 02c6 3346     		mov	r3, r6
 678 02c8 8340     		lsls	r3, r3, r0
 679 02ca 1C43     		orrs	r4, r4, r3
 680 02cc 0994     		str	r4, [sp, #36]
 681 02ce 329C     		ldr	r4, [sp, #200]
 682 02d0 099D     		ldr	r5, [sp, #36]
 683 02d2 26FA04F3 		lsr	r3, r6, r4
 684 02d6 1D43     		orrs	r5, r5, r3
ARM GAS  /tmp/ccuecsUq.s 			page 13


 685 02d8 0995     		str	r5, [sp, #36]
 686 02da 06FA0CF5 		lsl	r5, r6, ip
 687              	.LBB130:
 688              	.LBB131:
 689              		.loc 2 560 0
 690 02de DDE90089 		ldrd	r8, [sp]
 691              	.LBE131:
 692              	.LBE130:
 693              		.loc 1 296 0
 694 02e2 0895     		str	r5, [sp, #32]
 695              	.LBB150:
 696              	.LBB132:
 697              		.loc 2 560 0
 698 02e4 DDE90801 		ldrd	r0, [sp, #32]
 699              	.LBE132:
 700              	.LBE150:
 701              		.loc 1 293 0
 702 02e8 B246     		mov	r10, r6
 703 02ea BB46     		mov	fp, r7
 704              	.LVL44:
 705              		.loc 1 296 0
 706 02ec CDE936AB 		strd	r10, [sp, #216]
 707              	.LVL45:
 708              	.LBB151:
 709              	.LBB133:
 710              		.loc 2 560 0
 711 02f0 4B46     		mov	r3, r9
 712              	.LBE133:
 713              	.LBE151:
 714              	.LBB152:
 715              	.LBB153:
 716 02f2 DDE904AB 		ldrd	r10, [sp, #16]
 717              	.LVL46:
 718              	.LBE153:
 719              	.LBE152:
 720              	.LBB170:
 721              	.LBB134:
 722 02f6 A0FB0867 		umull	r6, r7, r0, r8
 723 02fa 0446     		mov	r4, r0
 724 02fc 00FB03F3 		mul	r3, r0, r3
 725              	.LBE134:
 726              	.LBE170:
 727              	.LBB171:
 728              	.LBB154:
 729 0300 1898     		ldr	r0, [sp, #96]
 730              	.LVL47:
 731              	.LBE154:
 732              	.LBE171:
 733              	.LBB172:
 734              	.LBB135:
 735 0302 0021     		movs	r1, #0
 736 0304 0D46     		mov	r5, r1
 737              	.LBE135:
 738              	.LBE172:
 739              	.LBB173:
 740              	.LBB155:
 741 0306 00FB0BF1 		mul	r1, r0, fp
ARM GAS  /tmp/ccuecsUq.s 			page 14


 742 030a 1998     		ldr	r0, [sp, #100]
 743 030c 8646     		mov	lr, r0
 744 030e 1898     		ldr	r0, [sp, #96]
 745 0310 0AFB0E1E 		mla	lr, r10, lr, r1
 746              	.LBE155:
 747              	.LBE173:
 748              	.LBB174:
 749              	.LBB136:
 750 0314 08FB0533 		mla	r3, r8, r5, r3
 751              	.LBE136:
 752              	.LBE174:
 753              	.LBB175:
 754              	.LBB156:
 755 0318 A0FB0A01 		umull	r0, r1, r0, r10
 756 031c CDE91201 		strd	r0, [sp, #72]
 757              	.LVL48:
 758              	.LBE156:
 759              	.LBE175:
 760              	.LBB176:
 761              	.LBB137:
 762 0320 3B44     		add	r3, r3, r7
 763              	.LBE137:
 764              	.LBE176:
 765              	.LBB177:
 766              	.LBB157:
 767 0322 7246     		mov	r2, lr
 768              	.LBE157:
 769              	.LBE177:
 770              	.LBB178:
 771              	.LBB138:
 772 0324 1F46     		mov	r7, r3
 773 0326 2493     		str	r3, [sp, #144]
 774              	.LBE138:
 775              	.LBE178:
 776              	.LBB179:
 777              	.LBB158:
 778 0328 1346     		mov	r3, r2
 779 032a 139A     		ldr	r2, [sp, #76]
 780              		.loc 2 561 0
 781 032c 0798     		ldr	r0, [sp, #28]
 782              	.LBE158:
 783              	.LBE179:
 784              		.loc 1 317 0
 785 032e 0E99     		ldr	r1, [sp, #56]
 786              	.LBB180:
 787              	.LBB159:
 788              		.loc 2 560 0
 789 0330 9E18     		adds	r6, r3, r2
 790              	.LBE159:
 791              	.LBE180:
 792              	.LBB181:
 793              	.LBB139:
 794              		.loc 2 561 0
 795 0332 099B     		ldr	r3, [sp, #36]
 796 0334 DB17     		asrs	r3, r3, #31
 797              	.LBE139:
 798              	.LBE181:
ARM GAS  /tmp/ccuecsUq.s 			page 15


 799              	.LBB182:
 800              	.LBB160:
 801 0336 00FB0BFE 		mul	lr, r0, fp
 802              	.LBE160:
 803              	.LBE182:
 804              		.loc 1 317 0
 805 033a 0C98     		ldr	r0, [sp, #48]
 806              	.LBB183:
 807              	.LBB140:
 808              		.loc 2 561 0
 809 033c 3393     		str	r3, [sp, #204]
 810              	.LBE140:
 811              	.LBE183:
 812              	.LBB184:
 813              	.LBB161:
 814 033e 079B     		ldr	r3, [sp, #28]
 815 0340 2A9A     		ldr	r2, [sp, #168]
 816              		.loc 2 560 0
 817 0342 1396     		str	r6, [sp, #76]
 818              		.loc 2 561 0
 819 0344 02FB0AE2 		mla	r2, r2, r10, lr
 820 0348 9E46     		mov	lr, r3
 821              	.LBE161:
 822              	.LBE184:
 823              		.loc 1 320 0
 824 034a 169B     		ldr	r3, [sp, #88]
 825              	.LBB185:
 826              	.LBB162:
 827              		.loc 2 560 0
 828 034c 2696     		str	r6, [sp, #152]
 829              		.loc 2 561 0
 830 034e AEFB0A89 		umull	r8, r9, lr, r10
 831              	.LBE162:
 832              	.LBE185:
 833              	.LBB186:
 834              	.LBB141:
 835              		.loc 2 560 0
 836 0352 FF17     		asrs	r7, r7, #31
 837              		.loc 2 561 0
 838 0354 DDE908AB 		ldrd	r10, [sp, #32]
 839              	.LBE141:
 840              	.LBE186:
 841              		.loc 1 320 0
 842 0358 9E46     		mov	lr, r3
 843              	.LBB187:
 844              	.LBB142:
 845              		.loc 2 560 0
 846 035a 2597     		str	r7, [sp, #148]
 847              	.LBE142:
 848              	.LBE187:
 849              		.loc 1 320 0
 850 035c 0F9B     		ldr	r3, [sp, #60]
 851              	.LBB188:
 852              	.LBB143:
 853              		.loc 2 561 0
 854 035e 019F     		ldr	r7, [sp, #4]
 855              	.LBE143:
ARM GAS  /tmp/ccuecsUq.s 			page 16


 856              	.LBE188:
 857              		.loc 1 317 0
 858 0360 80FB0101 		smull	r0, r1, r0, r1
 859              		.loc 1 320 0
 860 0364 C3FB0E01 		smlal	r0, r1, r3, lr
 861              	.LBB189:
 862              	.LBB144:
 863              		.loc 2 561 0
 864 0368 0BFB07FE 		mul	lr, fp, r7
 865 036c 009F     		ldr	r7, [sp]
 866              	.LBE144:
 867              	.LBE189:
 868              	.LBB190:
 869              	.LBB163:
 870 036e 4A44     		add	r2, r2, r9
 871              	.LBE163:
 872              	.LBE190:
 873              	.LBB191:
 874              	.LBB145:
 875 0370 3B46     		mov	r3, r7
 876 0372 339F     		ldr	r7, [sp, #204]
 877              	.LBE145:
 878              	.LBE191:
 879              	.LBB192:
 880              	.LBB164:
 881 0374 CDE91889 		strd	r8, [sp, #96]
 882 0378 1992     		str	r2, [sp, #100]
 883              	.LBE164:
 884              	.LBE192:
 885              		.loc 1 323 0
 886 037a 1A9A     		ldr	r2, [sp, #104]
 887              	.LBB193:
 888              	.LBB146:
 889              		.loc 2 561 0
 890 037c 07FB03EE 		mla	lr, r7, r3, lr
 891 0380 ABFB0367 		umull	r6, r7, fp, r3
 892 0384 7744     		add	r7, r7, lr
 893              	.LBE146:
 894              	.LBE193:
 895              		.loc 1 323 0
 896 0386 9646     		mov	lr, r2
 897 0388 109A     		ldr	r2, [sp, #64]
 898              	.LBB194:
 899              	.LBB147:
 900              		.loc 2 560 0
 901 038a DDE92489 		ldrd	r8, [sp, #144]
 902              	.LBE147:
 903              	.LBE194:
 904              		.loc 1 323 0
 905 038e C2FB0E01 		smlal	r0, r1, r2, lr
 906              	.LBB195:
 907              	.LBB165:
 908              		.loc 2 560 0
 909 0392 139A     		ldr	r2, [sp, #76]
 910              	.LBE165:
 911              	.LBE195:
 912              	.LBB196:
ARM GAS  /tmp/ccuecsUq.s 			page 17


 913              	.LBB148:
 914 0394 18EB0608 		adds	r8, r8, r6
 915              	.LBE148:
 916              	.LBE196:
 917              	.LBB197:
 918              	.LBB166:
 919 0398 4FEAE272 		asr	r2, r2, #31
 920              	.LBE166:
 921              	.LBE197:
 922              	.LBB198:
 923              	.LBB149:
 924 039c 49EB0709 		adc	r9, r9, r7
 925              	.LBE149:
 926              	.LBE198:
 927              	.LBB199:
 928              	.LBB167:
 929 03a0 2792     		str	r2, [sp, #156]
 930              	.LBE167:
 931              	.LBE199:
 932              		.loc 1 326 0
 933 03a2 10EB0800 		adds	r0, r0, r8
 934              	.LBB200:
 935              	.LBB168:
 936              		.loc 2 560 0
 937 03a6 DDE918AB 		ldrd	r10, [sp, #96]
 938              	.LBE168:
 939              	.LBE200:
 940              		.loc 1 326 0
 941 03aa 41EB0901 		adc	r1, r1, r9
 942              	.LBB201:
 943              	.LBB169:
 944              		.loc 2 560 0
 945 03ae DDE92689 		ldrd	r8, [sp, #152]
 946 03b2 18EB0A08 		adds	r8, r8, r10
 947 03b6 49EB0B09 		adc	r9, r9, fp
 948              	.LBE169:
 949              	.LBE201:
 950              		.loc 1 329 0
 951 03ba 10EB0800 		adds	r0, r0, r8
 952 03be 41EB0901 		adc	r1, r1, r9
 953              		.loc 1 332 0
 954 03c2 01FA0CFE 		lsl	lr, r1, ip
 955 03c6 CDF80CE0 		str	lr, [sp, #12]
 956              	.LVL49:
 957 03ca 159F     		ldr	r7, [sp, #84]
 958 03cc 039E     		ldr	r6, [sp, #12]
 959 03ce 00FA07F2 		lsl	r2, r0, r7
 960 03d2 1643     		orrs	r6, r6, r2
 961 03d4 329A     		ldr	r2, [sp, #200]
 962              		.loc 1 305 0
 963 03d6 DDE936AB 		ldrd	r10, [sp, #216]
 964              		.loc 1 332 0
 965 03da 3346     		mov	r3, r6
 966              		.loc 1 341 0
 967 03dc 149E     		ldr	r6, [sp, #80]
 968              		.loc 1 332 0
 969 03de 20FA02F2 		lsr	r2, r0, r2
ARM GAS  /tmp/ccuecsUq.s 			page 18


 970 03e2 00FA0CFE 		lsl	lr, r0, ip
 971 03e6 1343     		orrs	r3, r3, r2
 972 03e8 CDF808E0 		str	lr, [sp, #8]
 973              		.loc 1 305 0
 974 03ec B646     		mov	lr, r6
 975              		.loc 1 332 0
 976 03ee 0393     		str	r3, [sp, #12]
 977              		.loc 1 341 0
 978 03f0 01FA0CF2 		lsl	r2, r1, ip
 979              		.loc 1 305 0
 980 03f4 2AFA0EFA 		lsr	r10, r10, lr
 981 03f8 0BFA0CF1 		lsl	r1, fp, ip
 982 03fc 41EA0A01 		orr	r1, r1, r10
 983              	.LVL50:
 984              	.LBB202:
 985              	.LBB203:
 986              		.loc 2 560 0
 987 0400 DDE902AB 		ldrd	r10, [sp, #8]
 988              	.LBE203:
 989              	.LBE202:
 990              		.loc 1 344 0
 991 0404 119B     		ldr	r3, [sp, #68]
 992              		.loc 1 341 0
 993 0406 F040     		lsrs	r0, r0, r6
 994 0408 1043     		orrs	r0, r0, r2
 995              	.LVL51:
 996              	.LBB219:
 997              	.LBB204:
 998              		.loc 2 560 0
 999 040a 4FF0000B 		mov	fp, #0
 1000              	.LBE204:
 1001              	.LBE219:
 1002              		.loc 1 344 0
 1003 040e 43F8080C 		str	r0, [r3, #-8]
 1004              	.LVL52:
 1005              		.loc 1 312 0
 1006 0412 43F80C1C 		str	r1, [r3, #-12]
 1007              	.LBB220:
 1008              	.LBB205:
 1009              		.loc 2 560 0
 1010 0416 CDE918AB 		strd	r10, [sp, #96]
 1011 041a DDE90089 		ldrd	r8, [sp]
 1012 041e 5246     		mov	r2, r10
 1013 0420 4946     		mov	r1, r9
 1014 0422 02FB01F2 		mul	r2, r2, r1
 1015              	.LBE205:
 1016              	.LBE220:
 1017              		.loc 1 347 0
 1018 0426 0D99     		ldr	r1, [sp, #52]
 1019              	.LBB221:
 1020              	.LBB206:
 1021              		.loc 2 561 0
 1022 0428 0198     		ldr	r0, [sp, #4]
 1023              	.LVL53:
 1024              	.LBE206:
 1025              	.LBE221:
 1026              		.loc 1 347 0
ARM GAS  /tmp/ccuecsUq.s 			page 19


 1027 042a 51F8041C 		ldr	r1, [r1, #-4]
 1028              	.LBB222:
 1029              	.LBB207:
 1030              		.loc 2 561 0
 1031 042e 039E     		ldr	r6, [sp, #12]
 1032              	.LBE207:
 1033              	.LBE222:
 1034              	.LBB223:
 1035              	.LBB224:
 1036 0430 339B     		ldr	r3, [sp, #204]
 1037              	.LBE224:
 1038              	.LBE223:
 1039              	.LBB237:
 1040              	.LBB208:
 1041              		.loc 2 560 0
 1042 0432 08FB0B22 		mla	r2, r8, fp, r2
 1043 0436 AAFB0889 		umull	r8, r9, r10, r8
 1044              	.LBE208:
 1045              	.LBE237:
 1046              	.LBB238:
 1047              	.LBB225:
 1048 043a DDE904AB 		ldrd	r10, [sp, #16]
 1049              	.LBE225:
 1050              	.LBE238:
 1051              		.loc 1 347 0
 1052 043e 0F46     		mov	r7, r1
 1053              	.LVL54:
 1054              	.LBB239:
 1055              	.LBB226:
 1056              		.loc 2 560 0
 1057 0440 04FB0BF1 		mul	r1, r4, fp
 1058              	.LVL55:
 1059              	.LBE226:
 1060              	.LBE239:
 1061              	.LBB240:
 1062              	.LBB209:
 1063 0444 4A44     		add	r2, r2, r9
 1064              	.LBE209:
 1065              	.LBE240:
 1066              	.LBB241:
 1067              	.LBB227:
 1068 0446 0AFB0511 		mla	r1, r10, r5, r1
 1069              	.LBE227:
 1070              	.LBE241:
 1071              	.LBB242:
 1072              	.LBB210:
 1073              		.loc 2 561 0
 1074 044a 039D     		ldr	r5, [sp, #12]
 1075              		.loc 2 560 0
 1076 044c 2892     		str	r2, [sp, #160]
 1077 044e CDE91A89 		strd	r8, [sp, #104]
 1078 0452 1B92     		str	r2, [sp, #108]
 1079              		.loc 2 561 0
 1080 0454 009A     		ldr	r2, [sp]
 1081              	.LBE210:
 1082              	.LBE242:
 1083              		.loc 1 351 0
ARM GAS  /tmp/ccuecsUq.s 			page 20


 1084 0456 1297     		str	r7, [sp, #72]
 1085              	.LBB243:
 1086              	.LBB211:
 1087              		.loc 2 561 0
 1088 0458 F617     		asrs	r6, r6, #31
 1089 045a 05FB00FE 		mul	lr, r5, r0
 1090              	.LBE211:
 1091              	.LBE243:
 1092              	.LBB244:
 1093              	.LBB228:
 1094 045e 099D     		ldr	r5, [sp, #36]
 1095              	.LBE228:
 1096              	.LBE244:
 1097              	.LBB245:
 1098              	.LBB212:
 1099 0460 3696     		str	r6, [sp, #216]
 1100 0462 06FB02EE 		mla	lr, r6, r2, lr
 1101              	.LBE212:
 1102              	.LBE245:
 1103              	.LBB246:
 1104              	.LBB229:
 1105 0466 099A     		ldr	r2, [sp, #36]
 1106              		.loc 2 560 0
 1107 0468 A4FB0A89 		umull	r8, r9, r4, r10
 1108              		.loc 2 561 0
 1109 046c 05FB0BF0 		mul	r0, r5, fp
 1110              	.LBE229:
 1111              	.LBE246:
 1112              		.loc 1 351 0
 1113 0470 0E9C     		ldr	r4, [sp, #56]
 1114              	.LBB247:
 1115              	.LBB230:
 1116              		.loc 2 561 0
 1117 0472 03FB0A00 		mla	r0, r3, r10, r0
 1118 0476 A2FB0AAB 		umull	r10, fp, r2, r10
 1119              	.LBE230:
 1120              	.LBE247:
 1121              		.loc 1 354 0
 1122 047a 0F9B     		ldr	r3, [sp, #60]
 1123 047c 0C9A     		ldr	r2, [sp, #48]
 1124              		.loc 1 351 0
 1125 047e 87FB0445 		smull	r4, r5, r7, r4
 1126              	.LVL56:
 1127              		.loc 1 354 0
 1128 0482 C3FB0245 		smlal	r4, r5, r3, r2
 1129              	.LVL57:
 1130              	.LBB248:
 1131              	.LBB213:
 1132              		.loc 2 560 0
 1133 0486 1B9B     		ldr	r3, [sp, #108]
 1134              	.LBE213:
 1135              	.LBE248:
 1136              		.loc 1 357 0
 1137 0488 169F     		ldr	r7, [sp, #88]
 1138              	.LVL58:
 1139              	.LBB249:
 1140              	.LBB214:
ARM GAS  /tmp/ccuecsUq.s 			page 21


 1141              		.loc 2 560 0
 1142 048a DB17     		asrs	r3, r3, #31
 1143 048c 2993     		str	r3, [sp, #164]
 1144              		.loc 2 561 0
 1145 048e 039B     		ldr	r3, [sp, #12]
 1146              	.LBE214:
 1147              	.LBE249:
 1148              	.LBB250:
 1149              	.LBB231:
 1150              		.loc 2 560 0
 1151 0490 CDE92A89 		strd	r8, [sp, #168]
 1152 0494 4944     		add	r1, r1, r9
 1153              	.LBE231:
 1154              	.LBE250:
 1155              	.LBB251:
 1156              	.LBB215:
 1157              		.loc 2 561 0
 1158 0496 9846     		mov	r8, r3
 1159 0498 009B     		ldr	r3, [sp]
 1160              	.LBE215:
 1161              	.LBE251:
 1162              	.LBB252:
 1163              	.LBB232:
 1164              		.loc 2 560 0
 1165 049a 2B91     		str	r1, [sp, #172]
 1166 049c 2C91     		str	r1, [sp, #176]
 1167              	.LBE232:
 1168              	.LBE252:
 1169              		.loc 1 357 0
 1170 049e 1099     		ldr	r1, [sp, #64]
 1171              	.LBB253:
 1172              	.LBB216:
 1173              		.loc 2 561 0
 1174 04a0 A8FB0323 		umull	r2, r3, r8, r3
 1175              		.loc 2 560 0
 1176 04a4 DDE92889 		ldrd	r8, [sp, #160]
 1177              	.LBE216:
 1178              	.LBE253:
 1179              		.loc 1 357 0
 1180 04a8 C1FB0745 		smlal	r4, r5, r1, r7
 1181              	.LVL59:
 1182              	.LBB254:
 1183              	.LBB233:
 1184              		.loc 2 560 0
 1185 04ac 2B99     		ldr	r1, [sp, #172]
 1186              	.LBE233:
 1187              	.LBE254:
 1188              		.loc 1 366 0
 1189 04ae 159F     		ldr	r7, [sp, #84]
 1190              	.LBB255:
 1191              	.LBB217:
 1192              		.loc 2 560 0
 1193 04b0 18EB0208 		adds	r8, r8, r2
 1194              		.loc 2 561 0
 1195 04b4 7344     		add	r3, r3, lr
 1196              	.LBE217:
 1197              	.LBE255:
ARM GAS  /tmp/ccuecsUq.s 			page 22


 1198              	.LBB256:
 1199              	.LBB234:
 1200              		.loc 2 560 0
 1201 04b6 4FEAE171 		asr	r1, r1, #31
 1202              	.LBE234:
 1203              	.LBE256:
 1204              	.LBB257:
 1205              	.LBB218:
 1206 04ba 49EB0309 		adc	r9, r9, r3
 1207              	.LBE218:
 1208              	.LBE257:
 1209              	.LBB258:
 1210              	.LBB235:
 1211 04be 2D91     		str	r1, [sp, #180]
 1212              	.LBE235:
 1213              	.LBE258:
 1214              		.loc 1 360 0
 1215 04c0 14EB0804 		adds	r4, r4, r8
 1216              	.LVL60:
 1217 04c4 45EB0905 		adc	r5, r5, r9
 1218              	.LVL61:
 1219              	.LBB259:
 1220              	.LBB236:
 1221              		.loc 2 560 0
 1222 04c8 DDE92C89 		ldrd	r8, [sp, #176]
 1223              		.loc 2 561 0
 1224 04cc 8344     		add	fp, fp, r0
 1225              		.loc 2 560 0
 1226 04ce 18EB0A08 		adds	r8, r8, r10
 1227 04d2 49EB0B09 		adc	r9, r9, fp
 1228              	.LBE236:
 1229              	.LBE259:
 1230              		.loc 1 363 0
 1231 04d6 14EB0804 		adds	r4, r4, r8
 1232              	.LVL62:
 1233 04da 45EB0905 		adc	r5, r5, r9
 1234              	.LVL63:
 1235              		.loc 1 366 0
 1236 04de 05FA0CFE 		lsl	lr, r5, ip
 1237 04e2 04FA07F3 		lsl	r3, r4, r7
 1238 04e6 7146     		mov	r1, lr
 1239 04e8 1943     		orrs	r1, r1, r3
 1240 04ea 0B91     		str	r1, [sp, #44]
 1241              	.LVL64:
 1242 04ec 329E     		ldr	r6, [sp, #200]
 1243 04ee 0B98     		ldr	r0, [sp, #44]
 1244              		.loc 1 375 0
 1245 04f0 149B     		ldr	r3, [sp, #80]
 1246              		.loc 1 366 0
 1247 04f2 3396     		str	r6, [sp, #204]
 1248 04f4 24FA06F2 		lsr	r2, r4, r6
 1249 04f8 1043     		orrs	r0, r0, r2
 1250 04fa 0B90     		str	r0, [sp, #44]
 1251 04fc 0D98     		ldr	r0, [sp, #52]
 1252              		.loc 1 238 0
 1253 04fe 359E     		ldr	r6, [sp, #212]
 1254              		.loc 1 366 0
ARM GAS  /tmp/ccuecsUq.s 			page 23


 1255 0500 2A97     		str	r7, [sp, #168]
 1256              		.loc 1 375 0
 1257 0502 24FA03F3 		lsr	r3, r4, r3
 1258 0506 00F1100E 		add	lr, r0, #16
 1259 050a 05FA0CF1 		lsl	r1, r5, ip
 1260              		.loc 1 378 0
 1261 050e 1198     		ldr	r0, [sp, #68]
 1262 0510 CDF834E0 		str	lr, [sp, #52]
 1263              	.LVL65:
 1264              		.loc 1 375 0
 1265 0514 1943     		orrs	r1, r1, r3
 1266              		.loc 1 351 0
 1267 0516 129B     		ldr	r3, [sp, #72]
 1268              		.loc 1 378 0
 1269 0518 40F8041C 		str	r1, [r0, #-4]
 1270              		.loc 1 317 0
 1271 051c 0C99     		ldr	r1, [sp, #48]
 1272              		.loc 1 351 0
 1273 051e 4FEAE37B 		asr	fp, r3, #31
 1274              		.loc 1 366 0
 1275 0522 04FA0CF4 		lsl	r4, r4, ip
 1276              	.LVL66:
 1277 0526 1030     		adds	r0, r0, #16
 1278              		.loc 1 238 0
 1279 0528 013E     		subs	r6, r6, #1
 1280              		.loc 1 351 0
 1281 052a 1A46     		mov	r2, r3
 1282              		.loc 1 366 0
 1283 052c 0A94     		str	r4, [sp, #40]
 1284              	.LVL67:
 1285              		.loc 1 351 0
 1286 052e 5B46     		mov	r3, fp
 1287 0530 1190     		str	r0, [sp, #68]
 1288              		.loc 1 317 0
 1289 0532 8A46     		mov	r10, r1
 1290 0534 4FEAE17B 		asr	fp, r1, #31
 1291              		.loc 1 238 0
 1292 0538 3596     		str	r6, [sp, #212]
 1293 053a 7FF4CDAD 		bne	.L4
 1294 053e CDE91623 		strd	r2, [sp, #88]
 1295 0542 1646     		mov	r6, r2
 1296              	.LVL68:
 1297 0544 1F46     		mov	r7, r3
 1298 0546 409A     		ldr	r2, [sp, #256]
 1299 0548 349B     		ldr	r3, [sp, #208]
 1300 054a 1344     		add	r3, r3, r2
 1301 054c 3493     		str	r3, [sp, #208]
 1302              		.loc 1 390 0
 1303 054e 419B     		ldr	r3, [sp, #260]
 1304 0550 0D93     		str	r3, [sp, #52]
 1305 0552 D046     		mov	r8, r10
 1306 0554 D946     		mov	r9, fp
 1307              	.LVL69:
 1308              	.L3:
 1309              		.loc 1 400 0
 1310 0556 3F9B     		ldr	r3, [sp, #252]
 1311 0558 002B     		cmp	r3, #0
ARM GAS  /tmp/ccuecsUq.s 			page 24


 1312 055a 00F0B080 		beq	.L8
 1313 055e 3A9A     		ldr	r2, [sp, #232]
 1314 0560 1193     		str	r3, [sp, #68]
 1315 0562 1046     		mov	r0, r2
 1316 0564 D117     		asrs	r1, r2, #31
 1317 0566 3B9A     		ldr	r2, [sp, #236]
 1318 0568 DDF848E0 		ldr	lr, [sp, #72]
 1319 056c 4FEAE27B 		asr	fp, r2, #31
 1320 0570 D946     		mov	r9, fp
 1321 0572 CDE90401 		strd	r0, [sp, #16]
 1322 0576 9046     		mov	r8, r2
 1323 0578 DDE90AAB 		ldrd	r10, [sp, #40]
 1324 057c 05E0     		b	.L6
 1325              	.LVL70:
 1326              	.L9:
 1327 057e CDE91601 		strd	r0, [sp, #88]
 1328              		.loc 1 403 0
 1329 0582 DDF800E0 		ldr	lr, [sp]
 1330              	.LVL71:
 1331              		.loc 1 428 0
 1332 0586 A246     		mov	r10, r4
 1333              	.LVL72:
 1334 0588 9B46     		mov	fp, r3
 1335              	.LVL73:
 1336              	.L6:
 1337              	.LBB260:
 1338              	.LBB261:
 1339              		.loc 2 560 0
 1340 058a DDE90467 		ldrd	r6, [sp, #16]
 1341 058e 0023     		movs	r3, #0
 1342 0590 0AFB07F4 		mul	r4, r10, r7
 1343 0594 5246     		mov	r2, r10
 1344 0596 06FB0344 		mla	r4, r6, r3, r4
 1345 059a A2FB0623 		umull	r2, r3, r2, r6
 1346              	.LBE261:
 1347              	.LBE260:
 1348              		.loc 1 403 0
 1349 059e 3499     		ldr	r1, [sp, #208]
 1350              	.LBB267:
 1351              	.LBB262:
 1352              		.loc 2 560 0
 1353 05a0 1C44     		add	r4, r4, r3
 1354 05a2 2346     		mov	r3, r4
 1355              	.LBE262:
 1356              	.LBE267:
 1357              		.loc 1 403 0
 1358 05a4 51F8040B 		ldr	r0, [r1], #4
 1359 05a8 0090     		str	r0, [sp]
 1360              	.LBB268:
 1361              	.LBB263:
 1362              		.loc 2 560 0
 1363 05aa DB17     		asrs	r3, r3, #31
 1364 05ac 2F93     		str	r3, [sp, #188]
 1365              	.LBE263:
 1366              	.LBE268:
 1367              		.loc 1 403 0
 1368 05ae 3491     		str	r1, [sp, #208]
ARM GAS  /tmp/ccuecsUq.s 			page 25


 1369              	.LVL74:
 1370              	.LBB269:
 1371              	.LBB264:
 1372              		.loc 2 561 0
 1373 05b0 049B     		ldr	r3, [sp, #16]
 1374              		.loc 2 560 0
 1375 05b2 2E94     		str	r4, [sp, #184]
 1376              	.LBE264:
 1377              	.LBE269:
 1378              	.LBB270:
 1379              	.LBB271:
 1380 05b4 DDE90201 		ldrd	r0, [sp, #8]
 1381              	.LVL75:
 1382              	.LBE271:
 1383              	.LBE270:
 1384              	.LBB278:
 1385              	.LBB265:
 1386              		.loc 2 561 0
 1387 05b8 0BFB07F4 		mul	r4, fp, r7
 1388 05bc 4FEAEB75 		asr	r5, fp, #31
 1389 05c0 05FB0642 		mla	r2, r5, r6, r4
 1390 05c4 ABFB0345 		umull	r4, r5, fp, r3
 1391 05c8 1544     		add	r5, r5, r2
 1392              	.LBE265:
 1393              	.LBE278:
 1394              	.LBB279:
 1395              	.LBB272:
 1396              		.loc 2 560 0
 1397 05ca 0021     		movs	r1, #0
 1398              	.LVL76:
 1399 05cc 00FB09F6 		mul	r6, r0, r9
 1400              	.LBE272:
 1401              	.LBE279:
 1402              		.loc 1 408 0
 1403 05d0 0E9B     		ldr	r3, [sp, #56]
 1404 05d2 009A     		ldr	r2, [sp]
 1405              		.loc 1 410 0
 1406 05d4 0F9F     		ldr	r7, [sp, #60]
 1407              	.LBB280:
 1408              	.LBB273:
 1409              		.loc 2 560 0
 1410 05d6 08FB0166 		mla	r6, r8, r1, r6
 1411 05da A0FB0801 		umull	r0, r1, r0, r8
 1412 05de 0E44     		add	r6, r6, r1
 1413              	.LBE273:
 1414              	.LBE280:
 1415              		.loc 1 408 0
 1416 05e0 82FB0323 		smull	r2, r3, r2, r3
 1417              	.LVL77:
 1418              		.loc 1 410 0
 1419 05e4 C7FB0E23 		smlal	r2, r3, r7, lr
 1420              	.LVL78:
 1421              	.LBB281:
 1422              	.LBB274:
 1423              		.loc 2 560 0
 1424 05e8 3146     		mov	r1, r6
 1425 05ea 3096     		str	r6, [sp, #192]
ARM GAS  /tmp/ccuecsUq.s 			page 26


 1426              	.LBE274:
 1427              	.LBE281:
 1428              	.LBB282:
 1429              	.LBB266:
 1430 05ec DDE92E67 		ldrd	r6, [sp, #184]
 1431 05f0 3619     		adds	r6, r6, r4
 1432 05f2 6F41     		adcs	r7, r7, r5
 1433 05f4 3446     		mov	r4, r6
 1434 05f6 3D46     		mov	r5, r7
 1435              	.LBE266:
 1436              	.LBE282:
 1437              		.loc 1 412 0
 1438 05f8 0C9E     		ldr	r6, [sp, #48]
 1439 05fa 109F     		ldr	r7, [sp, #64]
 1440 05fc CDF830E0 		str	lr, [sp, #48]
 1441              	.LVL79:
 1442              	.LBB283:
 1443              	.LBB275:
 1444              		.loc 2 560 0
 1445 0600 C917     		asrs	r1, r1, #31
 1446 0602 3191     		str	r1, [sp, #196]
 1447              		.loc 2 561 0
 1448 0604 0399     		ldr	r1, [sp, #12]
 1449              	.LBE275:
 1450              	.LBE283:
 1451              		.loc 1 412 0
 1452 0606 C7FB0623 		smlal	r2, r3, r7, r6
 1453              	.LVL80:
 1454              		.loc 1 414 0
 1455 060a A418     		adds	r4, r4, r2
 1456              	.LBB284:
 1457              	.LBB276:
 1458              		.loc 2 561 0
 1459 060c 4FEAE176 		asr	r6, r1, #31
 1460              	.LVL81:
 1461 0610 01FB09F1 		mul	r1, r1, r9
 1462 0614 06FB0816 		mla	r6, r6, r8, r1
 1463              	.LBE276:
 1464              	.LBE284:
 1465              		.loc 1 414 0
 1466 0618 5D41     		adcs	r5, r5, r3
 1467              	.LVL82:
 1468              	.LBB285:
 1469              	.LBB277:
 1470              		.loc 2 561 0
 1471 061a 0399     		ldr	r1, [sp, #12]
 1472              		.loc 2 560 0
 1473 061c DDE93023 		ldrd	r2, [sp, #192]
 1474              		.loc 2 561 0
 1475 0620 A1FB0801 		umull	r0, r1, r1, r8
 1476              		.loc 2 560 0
 1477 0624 1218     		adds	r2, r2, r0
 1478              		.loc 2 561 0
 1479 0626 3144     		add	r1, r1, r6
 1480              		.loc 2 560 0
 1481 0628 4B41     		adcs	r3, r3, r1
 1482              	.LBE277:
ARM GAS  /tmp/ccuecsUq.s 			page 27


 1483              	.LBE285:
 1484              		.loc 1 416 0
 1485 062a A418     		adds	r4, r4, r2
 1486              	.LVL83:
 1487              		.loc 1 428 0
 1488 062c 159A     		ldr	r2, [sp, #84]
 1489              		.loc 1 416 0
 1490 062e 5D41     		adcs	r5, r5, r3
 1491              	.LVL84:
 1492              		.loc 1 428 0
 1493 0630 04FA02F0 		lsl	r0, r4, r2
 1494 0634 05FA0CF3 		lsl	r3, r5, ip
 1495              		.loc 1 437 0
 1496 0638 149A     		ldr	r2, [sp, #80]
 1497 063a 1946     		mov	r1, r3
 1498              		.loc 1 428 0
 1499 063c 0343     		orrs	r3, r3, r0
 1500 063e 3298     		ldr	r0, [sp, #200]
 1501              		.loc 1 437 0
 1502 0640 24FA02F2 		lsr	r2, r4, r2
 1503              		.loc 1 428 0
 1504 0644 24FA00F5 		lsr	r5, r4, r0
 1505              		.loc 1 437 0
 1506 0648 0A43     		orrs	r2, r2, r1
 1507              		.loc 1 410 0
 1508 064a DDE91601 		ldrd	r0, [sp, #88]
 1509 064e 0F46     		mov	r7, r1
 1510              		.loc 1 440 0
 1511 0650 0D99     		ldr	r1, [sp, #52]
 1512 0652 41F8042B 		str	r2, [r1], #4
 1513              		.loc 1 408 0
 1514 0656 009A     		ldr	r2, [sp]
 1515              		.loc 1 440 0
 1516 0658 0D91     		str	r1, [sp, #52]
 1517              	.LVL85:
 1518              		.loc 1 410 0
 1519 065a 0646     		mov	r6, r0
 1520              		.loc 1 408 0
 1521 065c D117     		asrs	r1, r2, #31
 1522              	.LVL86:
 1523 065e 1046     		mov	r0, r2
 1524              		.loc 1 400 0
 1525 0660 119A     		ldr	r2, [sp, #68]
 1526 0662 013A     		subs	r2, r2, #1
 1527              		.loc 1 428 0
 1528 0664 43EA0503 		orr	r3, r3, r5
 1529 0668 04FA0CF4 		lsl	r4, r4, ip
 1530              	.LVL87:
 1531 066c CDE902AB 		strd	r10, [sp, #8]
 1532              	.LVL88:
 1533              		.loc 1 400 0
 1534 0670 1192     		str	r2, [sp, #68]
 1535 0672 84D1     		bne	.L9
 1536 0674 CDE90AAB 		strd	r10, [sp, #40]
 1537 0678 B046     		mov	r8, r6
 1538 067a B946     		mov	r9, r7
 1539 067c 0646     		mov	r6, r0
ARM GAS  /tmp/ccuecsUq.s 			page 28


 1540 067e 0F46     		mov	r7, r1
 1541 0680 2046     		mov	r0, r4
 1542              	.LVL89:
 1543              	.L5:
 1544              		.loc 1 458 0
 1545 0682 3899     		ldr	r1, [sp, #224]
 1546              		.loc 1 460 0
 1547 0684 41F80C3C 		str	r3, [r1, #-12]
 1548 0688 399B     		ldr	r3, [sp, #228]
 1549 068a 41F8100C 		str	r0, [r1, #-16]
 1550              		.loc 1 458 0
 1551 068e 0A46     		mov	r2, r1
 1552 0690 1433     		adds	r3, r3, #20
 1553 0692 3993     		str	r3, [sp, #228]
 1554              	.LVL90:
 1555 0694 1346     		mov	r3, r2
 1556 0696 2033     		adds	r3, r3, #32
 1557 0698 3893     		str	r3, [sp, #224]
 1558              	.LVL91:
 1559              		.loc 1 451 0
 1560 069a 3D9B     		ldr	r3, [sp, #244]
 1561 069c 3493     		str	r3, [sp, #208]
 1562              		.loc 1 458 0
 1563 069e 41E90867 		strd	r6, [r1, #-32]
 1564              		.loc 1 459 0
 1565 06a2 41E90689 		strd	r8, [r1, #-24]
 1566              	.LVL92:
 1567              		.loc 1 463 0
 1568 06a6 3C9B     		ldr	r3, [sp, #240]
 1569              		.loc 1 461 0
 1570 06a8 DDE90A01 		ldrd	r0, [sp, #40]
 1571              		.loc 1 463 0
 1572 06ac 013B     		subs	r3, r3, #1
 1573              	.LVL93:
 1574              		.loc 1 461 0
 1575 06ae 42E90201 		strd	r0, [r2, #-8]
 1576              		.loc 1 463 0
 1577 06b2 3C93     		str	r3, [sp, #240]
 1578 06b4 7FF4C9AC 		bne	.L7
 1579              		.loc 1 557 0
 1580 06b8 43B0     		add	sp, sp, #268
 1581              		.cfi_remember_state
 1582              		.cfi_def_cfa_offset 36
 1583              		@ sp needed
 1584 06ba BDE8F08F 		pop	{r4, r5, r6, r7, r8, r9, r10, fp, pc}
 1585              	.LVL94:
 1586              	.L8:
 1587              		.cfi_restore_state
 1588              		.loc 1 400 0
 1589 06be DDE90A23 		ldrd	r2, [sp, #40]
 1590 06c2 DDE90245 		ldrd	r4, [sp, #8]
 1591 06c6 1046     		mov	r0, r2
 1592 06c8 CDE90A45 		strd	r4, [sp, #40]
 1593              	.LVL95:
 1594 06cc D9E7     		b	.L5
 1595              	.LVL96:
 1596              	.L14:
ARM GAS  /tmp/ccuecsUq.s 			page 29


 1597 06ce 129B     		ldr	r3, [sp, #72]
 1598              	.LVL97:
 1599 06d0 D917     		asrs	r1, r3, #31
 1600 06d2 1846     		mov	r0, r3
 1601              	.LVL98:
 1602 06d4 1E46     		mov	r6, r3
 1603 06d6 0C9B     		ldr	r3, [sp, #48]
 1604 06d8 9846     		mov	r8, r3
 1605 06da 4FEAE379 		asr	r9, r3, #31
 1606              		.loc 1 238 0
 1607 06de 3D9B     		ldr	r3, [sp, #244]
 1608 06e0 0D93     		str	r3, [sp, #52]
 1609 06e2 CDE91601 		strd	r0, [sp, #88]
 1610 06e6 0F46     		mov	r7, r1
 1611 06e8 35E7     		b	.L3
 1612              		.cfi_endproc
 1613              	.LFE135:
 1614              		.size	arm_biquad_cas_df1_32x64_q31, .-arm_biquad_cas_df1_32x64_q31
 1615              	.Letext0:
 1616              		.file 3 "/home/sbcu/Dropbox/pcb-layouts/axo-on-discovery-board/axoloti/platform_linux/arm-none-eab
 1617              		.file 4 "/home/sbcu/Dropbox/pcb-layouts/axo-on-discovery-board/axoloti/platform_linux/arm-none-eab
 1618 06ea 00BF     		.section	.debug_info,"",%progbits
 1619              	.Ldebug_info0:
 1620 0000 8B040000 		.4byte	0x48b
 1621 0004 0400     		.2byte	0x4
 1622 0006 00000000 		.4byte	.Ldebug_abbrev0
 1623 000a 04       		.byte	0x4
 1624 000b 01       		.uleb128 0x1
 1625 000c 0A000000 		.4byte	.LASF40
 1626 0010 01       		.byte	0x1
 1627 0011 E6010000 		.4byte	.LASF41
 1628 0015 00000000 		.4byte	.Ltext0
 1629 0019 EA060000 		.4byte	.Letext0-.Ltext0
 1630 001d 00000000 		.4byte	.Ldebug_line0
 1631 0021 02       		.uleb128 0x2
 1632 0022 08       		.byte	0x8
 1633 0023 07       		.byte	0x7
 1634 0024 82020000 		.4byte	.LASF0
 1635 0028 03       		.uleb128 0x3
 1636 0029 04       		.byte	0x4
 1637 002a 05       		.byte	0x5
 1638 002b 696E7400 		.ascii	"int\000"
 1639 002f 02       		.uleb128 0x2
 1640 0030 01       		.byte	0x1
 1641 0031 06       		.byte	0x6
 1642 0032 2C030000 		.4byte	.LASF1
 1643 0036 04       		.uleb128 0x4
 1644 0037 09010000 		.4byte	.LASF5
 1645 003b 03       		.byte	0x3
 1646 003c 1D       		.byte	0x1d
 1647 003d 41000000 		.4byte	0x41
 1648 0041 02       		.uleb128 0x2
 1649 0042 01       		.byte	0x1
 1650 0043 08       		.byte	0x8
 1651 0044 66010000 		.4byte	.LASF2
 1652 0048 02       		.uleb128 0x2
 1653 0049 02       		.byte	0x2
ARM GAS  /tmp/ccuecsUq.s 			page 30


 1654 004a 05       		.byte	0x5
 1655 004b D5020000 		.4byte	.LASF3
 1656 004f 02       		.uleb128 0x2
 1657 0050 02       		.byte	0x2
 1658 0051 07       		.byte	0x7
 1659 0052 8D010000 		.4byte	.LASF4
 1660 0056 04       		.uleb128 0x4
 1661 0057 42010000 		.4byte	.LASF6
 1662 005b 03       		.byte	0x3
 1663 005c 3F       		.byte	0x3f
 1664 005d 61000000 		.4byte	0x61
 1665 0061 02       		.uleb128 0x2
 1666 0062 04       		.byte	0x4
 1667 0063 05       		.byte	0x5
 1668 0064 4C010000 		.4byte	.LASF7
 1669 0068 04       		.uleb128 0x4
 1670 0069 C7010000 		.4byte	.LASF8
 1671 006d 03       		.byte	0x3
 1672 006e 41       		.byte	0x41
 1673 006f 73000000 		.4byte	0x73
 1674 0073 02       		.uleb128 0x2
 1675 0074 04       		.byte	0x4
 1676 0075 07       		.byte	0x7
 1677 0076 7B010000 		.4byte	.LASF9
 1678 007a 04       		.uleb128 0x4
 1679 007b B6010000 		.4byte	.LASF10
 1680 007f 03       		.byte	0x3
 1681 0080 59       		.byte	0x59
 1682 0081 85000000 		.4byte	0x85
 1683 0085 02       		.uleb128 0x2
 1684 0086 08       		.byte	0x8
 1685 0087 05       		.byte	0x5
 1686 0088 C2020000 		.4byte	.LASF11
 1687 008c 02       		.uleb128 0x2
 1688 008d 04       		.byte	0x4
 1689 008e 07       		.byte	0x7
 1690 008f D9010000 		.4byte	.LASF12
 1691 0093 04       		.uleb128 0x4
 1692 0094 99020000 		.4byte	.LASF13
 1693 0098 04       		.byte	0x4
 1694 0099 14       		.byte	0x14
 1695 009a 36000000 		.4byte	0x36
 1696 009e 04       		.uleb128 0x4
 1697 009f B1020000 		.4byte	.LASF14
 1698 00a3 04       		.byte	0x4
 1699 00a4 1F       		.byte	0x1f
 1700 00a5 56000000 		.4byte	0x56
 1701 00a9 04       		.uleb128 0x4
 1702 00aa F3020000 		.4byte	.LASF15
 1703 00ae 04       		.byte	0x4
 1704 00af 20       		.byte	0x20
 1705 00b0 68000000 		.4byte	0x68
 1706 00b4 04       		.uleb128 0x4
 1707 00b5 13010000 		.4byte	.LASF16
 1708 00b9 04       		.byte	0x4
 1709 00ba 25       		.byte	0x25
 1710 00bb 7A000000 		.4byte	0x7a
ARM GAS  /tmp/ccuecsUq.s 			page 31


 1711 00bf 02       		.uleb128 0x2
 1712 00c0 04       		.byte	0x4
 1713 00c1 07       		.byte	0x7
 1714 00c2 B9020000 		.4byte	.LASF17
 1715 00c6 02       		.uleb128 0x2
 1716 00c7 01       		.byte	0x1
 1717 00c8 08       		.byte	0x8
 1718 00c9 D0020000 		.4byte	.LASF18
 1719 00cd 02       		.uleb128 0x2
 1720 00ce 08       		.byte	0x8
 1721 00cf 04       		.byte	0x4
 1722 00d0 C0010000 		.4byte	.LASF19
 1723 00d4 02       		.uleb128 0x2
 1724 00d5 04       		.byte	0x4
 1725 00d6 04       		.byte	0x4
 1726 00d7 3C010000 		.4byte	.LASF20
 1727 00db 02       		.uleb128 0x2
 1728 00dc 08       		.byte	0x8
 1729 00dd 04       		.byte	0x4
 1730 00de 20030000 		.4byte	.LASF21
 1731 00e2 05       		.uleb128 0x5
 1732 00e3 60010000 		.4byte	.LASF22
 1733 00e7 02       		.byte	0x2
 1734 00e8 A001     		.2byte	0x1a0
 1735 00ea 9E000000 		.4byte	0x9e
 1736 00ee 05       		.uleb128 0x5
 1737 00ef A1020000 		.4byte	.LASF23
 1738 00f3 02       		.byte	0x2
 1739 00f4 A501     		.2byte	0x1a5
 1740 00f6 B4000000 		.4byte	0xb4
 1741 00fa 06       		.uleb128 0x6
 1742 00fb 04       		.byte	0x4
 1743 00fc E2000000 		.4byte	0xe2
 1744 0100 07       		.uleb128 0x7
 1745 0101 10       		.byte	0x10
 1746 0102 02       		.byte	0x2
 1747 0103 360E     		.2byte	0xe36
 1748 0105 3E010000 		.4byte	0x13e
 1749 0109 08       		.uleb128 0x8
 1750 010a 3D030000 		.4byte	.LASF24
 1751 010e 02       		.byte	0x2
 1752 010f 380E     		.2byte	0xe38
 1753 0111 93000000 		.4byte	0x93
 1754 0115 00       		.byte	0
 1755 0116 08       		.uleb128 0x8
 1756 0117 AF010000 		.4byte	.LASF25
 1757 011b 02       		.byte	0x2
 1758 011c 390E     		.2byte	0xe39
 1759 011e 3E010000 		.4byte	0x13e
 1760 0122 04       		.byte	0x4
 1761 0123 08       		.uleb128 0x8
 1762 0124 EB020000 		.4byte	.LASF26
 1763 0128 02       		.byte	0x2
 1764 0129 3A0E     		.2byte	0xe3a
 1765 012b FA000000 		.4byte	0xfa
 1766 012f 08       		.byte	0x8
 1767 0130 08       		.uleb128 0x8
ARM GAS  /tmp/ccuecsUq.s 			page 32


 1768 0131 A5010000 		.4byte	.LASF27
 1769 0135 02       		.byte	0x2
 1770 0136 3B0E     		.2byte	0xe3b
 1771 0138 93000000 		.4byte	0x93
 1772 013c 0C       		.byte	0xc
 1773 013d 00       		.byte	0
 1774 013e 06       		.uleb128 0x6
 1775 013f 04       		.byte	0x4
 1776 0140 EE000000 		.4byte	0xee
 1777 0144 05       		.uleb128 0x5
 1778 0145 1B010000 		.4byte	.LASF28
 1779 0149 02       		.byte	0x2
 1780 014a 3C0E     		.2byte	0xe3c
 1781 014c 00010000 		.4byte	0x100
 1782 0150 09       		.uleb128 0x9
 1783 0151 A7020000 		.4byte	.LASF42
 1784 0155 02       		.byte	0x2
 1785 0156 2C02     		.2byte	0x22c
 1786 0158 EE000000 		.4byte	0xee
 1787 015c 03       		.byte	0x3
 1788 015d 76010000 		.4byte	0x176
 1789 0161 0A       		.uleb128 0xa
 1790 0162 7800     		.ascii	"x\000"
 1791 0164 02       		.byte	0x2
 1792 0165 2D02     		.2byte	0x22d
 1793 0167 EE000000 		.4byte	0xee
 1794 016b 0A       		.uleb128 0xa
 1795 016c 7900     		.ascii	"y\000"
 1796 016e 02       		.byte	0x2
 1797 016f 2E02     		.2byte	0x22e
 1798 0171 E2000000 		.4byte	0xe2
 1799 0175 00       		.byte	0
 1800 0176 0B       		.uleb128 0xb
 1801 0177 03030000 		.4byte	.LASF43
 1802 017b 01       		.byte	0x1
 1803 017c BB       		.byte	0xbb
 1804 017d 00000000 		.4byte	.LFB135
 1805 0181 EA060000 		.4byte	.LFE135-.LFB135
 1806 0185 01       		.uleb128 0x1
 1807 0186 9C       		.byte	0x9c
 1808 0187 83040000 		.4byte	0x483
 1809 018b 0C       		.uleb128 0xc
 1810 018c 5300     		.ascii	"S\000"
 1811 018e 01       		.byte	0x1
 1812 018f BC       		.byte	0xbc
 1813 0190 83040000 		.4byte	0x483
 1814 0194 00000000 		.4byte	.LLST0
 1815 0198 0D       		.uleb128 0xd
 1816 0199 38030000 		.4byte	.LASF29
 1817 019d 01       		.byte	0x1
 1818 019e BD       		.byte	0xbd
 1819 019f FA000000 		.4byte	0xfa
 1820 01a3 21000000 		.4byte	.LLST1
 1821 01a7 0D       		.uleb128 0xd
 1822 01a8 A0010000 		.4byte	.LASF30
 1823 01ac 01       		.byte	0x1
 1824 01ad BE       		.byte	0xbe
ARM GAS  /tmp/ccuecsUq.s 			page 33


 1825 01ae FA000000 		.4byte	0xfa
 1826 01b2 4F000000 		.4byte	.LLST2
 1827 01b6 0D       		.uleb128 0xd
 1828 01b7 00000000 		.4byte	.LASF31
 1829 01bb 01       		.byte	0x1
 1830 01bc BF       		.byte	0xbf
 1831 01bd A9000000 		.4byte	0xa9
 1832 01c1 6E000000 		.4byte	.LLST3
 1833 01c5 0E       		.uleb128 0xe
 1834 01c6 70496E00 		.ascii	"pIn\000"
 1835 01ca 01       		.byte	0x1
 1836 01cb C1       		.byte	0xc1
 1837 01cc FA000000 		.4byte	0xfa
 1838 01d0 8F000000 		.4byte	.LLST4
 1839 01d4 0F       		.uleb128 0xf
 1840 01d5 5B010000 		.4byte	.LASF32
 1841 01d9 01       		.byte	0x1
 1842 01da C2       		.byte	0xc2
 1843 01db FA000000 		.4byte	0xfa
 1844 01df 41010000 		.4byte	.LLST5
 1845 01e3 0F       		.uleb128 0xf
 1846 01e4 AF010000 		.4byte	.LASF25
 1847 01e8 01       		.byte	0x1
 1848 01e9 C3       		.byte	0xc3
 1849 01ea 3E010000 		.4byte	0x13e
 1850 01ee 99010000 		.4byte	.LLST6
 1851 01f2 0F       		.uleb128 0xf
 1852 01f3 EB020000 		.4byte	.LASF26
 1853 01f7 01       		.byte	0x1
 1854 01f8 C4       		.byte	0xc4
 1855 01f9 FA000000 		.4byte	0xfa
 1856 01fd F0010000 		.4byte	.LLST7
 1857 0201 0E       		.uleb128 0xe
 1858 0202 61636300 		.ascii	"acc\000"
 1859 0206 01       		.byte	0x1
 1860 0207 C5       		.byte	0xc5
 1861 0208 EE000000 		.4byte	0xee
 1862 020c 65020000 		.4byte	.LLST8
 1863 0210 0E       		.uleb128 0xe
 1864 0211 586E3100 		.ascii	"Xn1\000"
 1865 0215 01       		.byte	0x1
 1866 0216 C6       		.byte	0xc6
 1867 0217 E2000000 		.4byte	0xe2
 1868 021b 6A030000 		.4byte	.LLST9
 1869 021f 0E       		.uleb128 0xe
 1870 0220 586E3200 		.ascii	"Xn2\000"
 1871 0224 01       		.byte	0x1
 1872 0225 C6       		.byte	0xc6
 1873 0226 E2000000 		.4byte	0xe2
 1874 022a F5030000 		.4byte	.LLST10
 1875 022e 0E       		.uleb128 0xe
 1876 022f 596E3100 		.ascii	"Yn1\000"
 1877 0233 01       		.byte	0x1
 1878 0234 C7       		.byte	0xc7
 1879 0235 EE000000 		.4byte	0xee
 1880 0239 8A040000 		.4byte	.LLST11
 1881 023d 0E       		.uleb128 0xe
ARM GAS  /tmp/ccuecsUq.s 			page 34


 1882 023e 596E3200 		.ascii	"Yn2\000"
 1883 0242 01       		.byte	0x1
 1884 0243 C7       		.byte	0xc7
 1885 0244 EE000000 		.4byte	0xee
 1886 0248 46050000 		.4byte	.LLST12
 1887 024c 0E       		.uleb128 0xe
 1888 024d 623000   		.ascii	"b0\000"
 1889 0250 01       		.byte	0x1
 1890 0251 C8       		.byte	0xc8
 1891 0252 E2000000 		.4byte	0xe2
 1892 0256 CF050000 		.4byte	.LLST13
 1893 025a 0E       		.uleb128 0xe
 1894 025b 623100   		.ascii	"b1\000"
 1895 025e 01       		.byte	0x1
 1896 025f C8       		.byte	0xc8
 1897 0260 E2000000 		.4byte	0xe2
 1898 0264 0F060000 		.4byte	.LLST14
 1899 0268 0E       		.uleb128 0xe
 1900 0269 623200   		.ascii	"b2\000"
 1901 026c 01       		.byte	0x1
 1902 026d C8       		.byte	0xc8
 1903 026e E2000000 		.4byte	0xe2
 1904 0272 4F060000 		.4byte	.LLST15
 1905 0276 0E       		.uleb128 0xe
 1906 0277 613100   		.ascii	"a1\000"
 1907 027a 01       		.byte	0x1
 1908 027b C8       		.byte	0xc8
 1909 027c E2000000 		.4byte	0xe2
 1910 0280 8F060000 		.4byte	.LLST16
 1911 0284 0E       		.uleb128 0xe
 1912 0285 613200   		.ascii	"a2\000"
 1913 0288 01       		.byte	0x1
 1914 0289 C8       		.byte	0xc8
 1915 028a E2000000 		.4byte	0xe2
 1916 028e CF060000 		.4byte	.LLST17
 1917 0292 0E       		.uleb128 0xe
 1918 0293 586E00   		.ascii	"Xn\000"
 1919 0296 01       		.byte	0x1
 1920 0297 C9       		.byte	0xc9
 1921 0298 E2000000 		.4byte	0xe2
 1922 029c 0F070000 		.4byte	.LLST18
 1923 02a0 10       		.uleb128 0x10
 1924 02a1 03010000 		.4byte	.LASF33
 1925 02a5 01       		.byte	0x1
 1926 02a6 CA       		.byte	0xca
 1927 02a7 9E000000 		.4byte	0x9e
 1928 02ab 01       		.uleb128 0x1
 1929 02ac 5C       		.byte	0x5c
 1930 02ad 0F       		.uleb128 0xf
 1931 02ae FC020000 		.4byte	.LASF34
 1932 02b2 01       		.byte	0x1
 1933 02b3 CB       		.byte	0xcb
 1934 02b4 A9000000 		.4byte	0xa9
 1935 02b8 8F070000 		.4byte	.LLST19
 1936 02bc 0F       		.uleb128 0xf
 1937 02bd 55010000 		.4byte	.LASF35
 1938 02c1 01       		.byte	0x1
ARM GAS  /tmp/ccuecsUq.s 			page 35


 1939 02c2 CB       		.byte	0xcb
 1940 02c3 A9000000 		.4byte	0xa9
 1941 02c7 19080000 		.4byte	.LLST20
 1942 02cb 0F       		.uleb128 0xf
 1943 02cc DF020000 		.4byte	.LASF36
 1944 02d0 01       		.byte	0x1
 1945 02d1 CC       		.byte	0xcc
 1946 02d2 E2000000 		.4byte	0xe2
 1947 02d6 54080000 		.4byte	.LLST21
 1948 02da 0F       		.uleb128 0xf
 1949 02db E5020000 		.4byte	.LASF37
 1950 02df 01       		.byte	0x1
 1951 02e0 CC       		.byte	0xcc
 1952 02e1 E2000000 		.4byte	0xe2
 1953 02e5 74080000 		.4byte	.LLST22
 1954 02e9 10       		.uleb128 0x10
 1955 02ea D2010000 		.4byte	.LASF38
 1956 02ee 01       		.byte	0x1
 1957 02ef CD       		.byte	0xcd
 1958 02f0 A9000000 		.4byte	0xa9
 1959 02f4 01       		.uleb128 0x1
 1960 02f5 5C       		.byte	0x5c
 1961 02f6 10       		.uleb128 0x10
 1962 02f7 74010000 		.4byte	.LASF39
 1963 02fb 01       		.byte	0x1
 1964 02fc CE       		.byte	0xce
 1965 02fd A9000000 		.4byte	0xa9
 1966 0301 03       		.uleb128 0x3
 1967 0302 91       		.byte	0x91
 1968 0303 A07E     		.sleb128 -224
 1969 0305 11       		.uleb128 0x11
 1970 0306 50010000 		.4byte	0x150
 1971 030a D8000000 		.4byte	.LBB22
 1972 030e 00000000 		.4byte	.Ldebug_ranges0+0
 1973 0312 01       		.byte	0x1
 1974 0313 FF       		.byte	0xff
 1975 0314 27030000 		.4byte	0x327
 1976 0318 12       		.uleb128 0x12
 1977 0319 6B010000 		.4byte	0x16b
 1978 031d D6080000 		.4byte	.LLST23
 1979 0321 13       		.uleb128 0x13
 1980 0322 61010000 		.4byte	0x161
 1981 0326 00       		.byte	0
 1982 0327 14       		.uleb128 0x14
 1983 0328 50010000 		.4byte	0x150
 1984 032c FC000000 		.4byte	.LBB37
 1985 0330 70000000 		.4byte	.Ldebug_ranges0+0x70
 1986 0334 01       		.byte	0x1
 1987 0335 0201     		.2byte	0x102
 1988 0337 4E030000 		.4byte	0x34e
 1989 033b 12       		.uleb128 0x12
 1990 033c 6B010000 		.4byte	0x16b
 1991 0340 EB080000 		.4byte	.LLST24
 1992 0344 12       		.uleb128 0x12
 1993 0345 61010000 		.4byte	0x161
 1994 0349 00090000 		.4byte	.LLST25
 1995 034d 00       		.byte	0
ARM GAS  /tmp/ccuecsUq.s 			page 36


 1996 034e 14       		.uleb128 0x14
 1997 034f 50010000 		.4byte	0x150
 1998 0353 DE010000 		.4byte	.LBB76
 1999 0357 E8000000 		.4byte	.Ldebug_ranges0+0xe8
 2000 035b 01       		.byte	0x1
 2001 035c 2201     		.2byte	0x122
 2002 035e 75030000 		.4byte	0x375
 2003 0362 12       		.uleb128 0x12
 2004 0363 6B010000 		.4byte	0x16b
 2005 0367 15090000 		.4byte	.LLST26
 2006 036b 12       		.uleb128 0x12
 2007 036c 61010000 		.4byte	0x161
 2008 0370 2A090000 		.4byte	.LLST27
 2009 0374 00       		.byte	0
 2010 0375 14       		.uleb128 0x14
 2011 0376 50010000 		.4byte	0x150
 2012 037a 1E020000 		.4byte	.LBB100
 2013 037e 70010000 		.4byte	.Ldebug_ranges0+0x170
 2014 0382 01       		.byte	0x1
 2015 0383 2501     		.2byte	0x125
 2016 0385 9C030000 		.4byte	0x39c
 2017 0389 12       		.uleb128 0x12
 2018 038a 6B010000 		.4byte	0x16b
 2019 038e 3F090000 		.4byte	.LLST28
 2020 0392 12       		.uleb128 0x12
 2021 0393 61010000 		.4byte	0x161
 2022 0397 54090000 		.4byte	.LLST29
 2023 039b 00       		.byte	0
 2024 039c 14       		.uleb128 0x14
 2025 039d 50010000 		.4byte	0x150
 2026 03a1 DE020000 		.4byte	.LBB130
 2027 03a5 D0010000 		.4byte	.Ldebug_ranges0+0x1d0
 2028 03a9 01       		.byte	0x1
 2029 03aa 4601     		.2byte	0x146
 2030 03ac C3030000 		.4byte	0x3c3
 2031 03b0 12       		.uleb128 0x12
 2032 03b1 6B010000 		.4byte	0x16b
 2033 03b5 69090000 		.4byte	.LLST30
 2034 03b9 12       		.uleb128 0x12
 2035 03ba 61010000 		.4byte	0x161
 2036 03be 7E090000 		.4byte	.LLST31
 2037 03c2 00       		.byte	0
 2038 03c3 14       		.uleb128 0x14
 2039 03c4 50010000 		.4byte	0x150
 2040 03c8 F2020000 		.4byte	.LBB152
 2041 03cc 70020000 		.4byte	.Ldebug_ranges0+0x270
 2042 03d0 01       		.byte	0x1
 2043 03d1 4901     		.2byte	0x149
 2044 03d3 EA030000 		.4byte	0x3ea
 2045 03d7 12       		.uleb128 0x12
 2046 03d8 6B010000 		.4byte	0x16b
 2047 03dc 93090000 		.4byte	.LLST32
 2048 03e0 12       		.uleb128 0x12
 2049 03e1 61010000 		.4byte	0x161
 2050 03e5 A8090000 		.4byte	.LLST33
 2051 03e9 00       		.byte	0
 2052 03ea 14       		.uleb128 0x14
ARM GAS  /tmp/ccuecsUq.s 			page 37


 2053 03eb 50010000 		.4byte	0x150
 2054 03ef 00040000 		.4byte	.LBB202
 2055 03f3 00030000 		.4byte	.Ldebug_ranges0+0x300
 2056 03f7 01       		.byte	0x1
 2057 03f8 6801     		.2byte	0x168
 2058 03fa 11040000 		.4byte	0x411
 2059 03fe 12       		.uleb128 0x12
 2060 03ff 6B010000 		.4byte	0x16b
 2061 0403 BD090000 		.4byte	.LLST34
 2062 0407 12       		.uleb128 0x12
 2063 0408 61010000 		.4byte	0x161
 2064 040c D2090000 		.4byte	.LLST35
 2065 0410 00       		.byte	0
 2066 0411 14       		.uleb128 0x14
 2067 0412 50010000 		.4byte	0x150
 2068 0416 30040000 		.4byte	.LBB223
 2069 041a 88030000 		.4byte	.Ldebug_ranges0+0x388
 2070 041e 01       		.byte	0x1
 2071 041f 6B01     		.2byte	0x16b
 2072 0421 38040000 		.4byte	0x438
 2073 0425 12       		.uleb128 0x12
 2074 0426 6B010000 		.4byte	0x16b
 2075 042a E7090000 		.4byte	.LLST36
 2076 042e 12       		.uleb128 0x12
 2077 042f 61010000 		.4byte	0x161
 2078 0433 FC090000 		.4byte	.LLST37
 2079 0437 00       		.byte	0
 2080 0438 14       		.uleb128 0x14
 2081 0439 50010000 		.4byte	0x150
 2082 043d 8A050000 		.4byte	.LBB260
 2083 0441 F8030000 		.4byte	.Ldebug_ranges0+0x3f8
 2084 0445 01       		.byte	0x1
 2085 0446 9E01     		.2byte	0x19e
 2086 0448 5F040000 		.4byte	0x45f
 2087 044c 12       		.uleb128 0x12
 2088 044d 6B010000 		.4byte	0x16b
 2089 0451 110A0000 		.4byte	.LLST38
 2090 0455 12       		.uleb128 0x12
 2091 0456 61010000 		.4byte	0x161
 2092 045a 330A0000 		.4byte	.LLST39
 2093 045e 00       		.byte	0
 2094 045f 15       		.uleb128 0x15
 2095 0460 50010000 		.4byte	0x150
 2096 0464 B4050000 		.4byte	.LBB270
 2097 0468 30040000 		.4byte	.Ldebug_ranges0+0x430
 2098 046c 01       		.byte	0x1
 2099 046d A001     		.2byte	0x1a0
 2100 046f 12       		.uleb128 0x12
 2101 0470 6B010000 		.4byte	0x16b
 2102 0474 680A0000 		.4byte	.LLST40
 2103 0478 12       		.uleb128 0x12
 2104 0479 61010000 		.4byte	0x161
 2105 047d 8A0A0000 		.4byte	.LLST41
 2106 0481 00       		.byte	0
 2107 0482 00       		.byte	0
 2108 0483 06       		.uleb128 0x6
 2109 0484 04       		.byte	0x4
ARM GAS  /tmp/ccuecsUq.s 			page 38


 2110 0485 89040000 		.4byte	0x489
 2111 0489 16       		.uleb128 0x16
 2112 048a 44010000 		.4byte	0x144
 2113 048e 00       		.byte	0
 2114              		.section	.debug_abbrev,"",%progbits
 2115              	.Ldebug_abbrev0:
 2116 0000 01       		.uleb128 0x1
 2117 0001 11       		.uleb128 0x11
 2118 0002 01       		.byte	0x1
 2119 0003 25       		.uleb128 0x25
 2120 0004 0E       		.uleb128 0xe
 2121 0005 13       		.uleb128 0x13
 2122 0006 0B       		.uleb128 0xb
 2123 0007 03       		.uleb128 0x3
 2124 0008 0E       		.uleb128 0xe
 2125 0009 11       		.uleb128 0x11
 2126 000a 01       		.uleb128 0x1
 2127 000b 12       		.uleb128 0x12
 2128 000c 06       		.uleb128 0x6
 2129 000d 10       		.uleb128 0x10
 2130 000e 17       		.uleb128 0x17
 2131 000f 00       		.byte	0
 2132 0010 00       		.byte	0
 2133 0011 02       		.uleb128 0x2
 2134 0012 24       		.uleb128 0x24
 2135 0013 00       		.byte	0
 2136 0014 0B       		.uleb128 0xb
 2137 0015 0B       		.uleb128 0xb
 2138 0016 3E       		.uleb128 0x3e
 2139 0017 0B       		.uleb128 0xb
 2140 0018 03       		.uleb128 0x3
 2141 0019 0E       		.uleb128 0xe
 2142 001a 00       		.byte	0
 2143 001b 00       		.byte	0
 2144 001c 03       		.uleb128 0x3
 2145 001d 24       		.uleb128 0x24
 2146 001e 00       		.byte	0
 2147 001f 0B       		.uleb128 0xb
 2148 0020 0B       		.uleb128 0xb
 2149 0021 3E       		.uleb128 0x3e
 2150 0022 0B       		.uleb128 0xb
 2151 0023 03       		.uleb128 0x3
 2152 0024 08       		.uleb128 0x8
 2153 0025 00       		.byte	0
 2154 0026 00       		.byte	0
 2155 0027 04       		.uleb128 0x4
 2156 0028 16       		.uleb128 0x16
 2157 0029 00       		.byte	0
 2158 002a 03       		.uleb128 0x3
 2159 002b 0E       		.uleb128 0xe
 2160 002c 3A       		.uleb128 0x3a
 2161 002d 0B       		.uleb128 0xb
 2162 002e 3B       		.uleb128 0x3b
 2163 002f 0B       		.uleb128 0xb
 2164 0030 49       		.uleb128 0x49
 2165 0031 13       		.uleb128 0x13
 2166 0032 00       		.byte	0
ARM GAS  /tmp/ccuecsUq.s 			page 39


 2167 0033 00       		.byte	0
 2168 0034 05       		.uleb128 0x5
 2169 0035 16       		.uleb128 0x16
 2170 0036 00       		.byte	0
 2171 0037 03       		.uleb128 0x3
 2172 0038 0E       		.uleb128 0xe
 2173 0039 3A       		.uleb128 0x3a
 2174 003a 0B       		.uleb128 0xb
 2175 003b 3B       		.uleb128 0x3b
 2176 003c 05       		.uleb128 0x5
 2177 003d 49       		.uleb128 0x49
 2178 003e 13       		.uleb128 0x13
 2179 003f 00       		.byte	0
 2180 0040 00       		.byte	0
 2181 0041 06       		.uleb128 0x6
 2182 0042 0F       		.uleb128 0xf
 2183 0043 00       		.byte	0
 2184 0044 0B       		.uleb128 0xb
 2185 0045 0B       		.uleb128 0xb
 2186 0046 49       		.uleb128 0x49
 2187 0047 13       		.uleb128 0x13
 2188 0048 00       		.byte	0
 2189 0049 00       		.byte	0
 2190 004a 07       		.uleb128 0x7
 2191 004b 13       		.uleb128 0x13
 2192 004c 01       		.byte	0x1
 2193 004d 0B       		.uleb128 0xb
 2194 004e 0B       		.uleb128 0xb
 2195 004f 3A       		.uleb128 0x3a
 2196 0050 0B       		.uleb128 0xb
 2197 0051 3B       		.uleb128 0x3b
 2198 0052 05       		.uleb128 0x5
 2199 0053 01       		.uleb128 0x1
 2200 0054 13       		.uleb128 0x13
 2201 0055 00       		.byte	0
 2202 0056 00       		.byte	0
 2203 0057 08       		.uleb128 0x8
 2204 0058 0D       		.uleb128 0xd
 2205 0059 00       		.byte	0
 2206 005a 03       		.uleb128 0x3
 2207 005b 0E       		.uleb128 0xe
 2208 005c 3A       		.uleb128 0x3a
 2209 005d 0B       		.uleb128 0xb
 2210 005e 3B       		.uleb128 0x3b
 2211 005f 05       		.uleb128 0x5
 2212 0060 49       		.uleb128 0x49
 2213 0061 13       		.uleb128 0x13
 2214 0062 38       		.uleb128 0x38
 2215 0063 0B       		.uleb128 0xb
 2216 0064 00       		.byte	0
 2217 0065 00       		.byte	0
 2218 0066 09       		.uleb128 0x9
 2219 0067 2E       		.uleb128 0x2e
 2220 0068 01       		.byte	0x1
 2221 0069 03       		.uleb128 0x3
 2222 006a 0E       		.uleb128 0xe
 2223 006b 3A       		.uleb128 0x3a
ARM GAS  /tmp/ccuecsUq.s 			page 40


 2224 006c 0B       		.uleb128 0xb
 2225 006d 3B       		.uleb128 0x3b
 2226 006e 05       		.uleb128 0x5
 2227 006f 27       		.uleb128 0x27
 2228 0070 19       		.uleb128 0x19
 2229 0071 49       		.uleb128 0x49
 2230 0072 13       		.uleb128 0x13
 2231 0073 20       		.uleb128 0x20
 2232 0074 0B       		.uleb128 0xb
 2233 0075 01       		.uleb128 0x1
 2234 0076 13       		.uleb128 0x13
 2235 0077 00       		.byte	0
 2236 0078 00       		.byte	0
 2237 0079 0A       		.uleb128 0xa
 2238 007a 05       		.uleb128 0x5
 2239 007b 00       		.byte	0
 2240 007c 03       		.uleb128 0x3
 2241 007d 08       		.uleb128 0x8
 2242 007e 3A       		.uleb128 0x3a
 2243 007f 0B       		.uleb128 0xb
 2244 0080 3B       		.uleb128 0x3b
 2245 0081 05       		.uleb128 0x5
 2246 0082 49       		.uleb128 0x49
 2247 0083 13       		.uleb128 0x13
 2248 0084 00       		.byte	0
 2249 0085 00       		.byte	0
 2250 0086 0B       		.uleb128 0xb
 2251 0087 2E       		.uleb128 0x2e
 2252 0088 01       		.byte	0x1
 2253 0089 3F       		.uleb128 0x3f
 2254 008a 19       		.uleb128 0x19
 2255 008b 03       		.uleb128 0x3
 2256 008c 0E       		.uleb128 0xe
 2257 008d 3A       		.uleb128 0x3a
 2258 008e 0B       		.uleb128 0xb
 2259 008f 3B       		.uleb128 0x3b
 2260 0090 0B       		.uleb128 0xb
 2261 0091 27       		.uleb128 0x27
 2262 0092 19       		.uleb128 0x19
 2263 0093 11       		.uleb128 0x11
 2264 0094 01       		.uleb128 0x1
 2265 0095 12       		.uleb128 0x12
 2266 0096 06       		.uleb128 0x6
 2267 0097 40       		.uleb128 0x40
 2268 0098 18       		.uleb128 0x18
 2269 0099 9742     		.uleb128 0x2117
 2270 009b 19       		.uleb128 0x19
 2271 009c 01       		.uleb128 0x1
 2272 009d 13       		.uleb128 0x13
 2273 009e 00       		.byte	0
 2274 009f 00       		.byte	0
 2275 00a0 0C       		.uleb128 0xc
 2276 00a1 05       		.uleb128 0x5
 2277 00a2 00       		.byte	0
 2278 00a3 03       		.uleb128 0x3
 2279 00a4 08       		.uleb128 0x8
 2280 00a5 3A       		.uleb128 0x3a
ARM GAS  /tmp/ccuecsUq.s 			page 41


 2281 00a6 0B       		.uleb128 0xb
 2282 00a7 3B       		.uleb128 0x3b
 2283 00a8 0B       		.uleb128 0xb
 2284 00a9 49       		.uleb128 0x49
 2285 00aa 13       		.uleb128 0x13
 2286 00ab 02       		.uleb128 0x2
 2287 00ac 17       		.uleb128 0x17
 2288 00ad 00       		.byte	0
 2289 00ae 00       		.byte	0
 2290 00af 0D       		.uleb128 0xd
 2291 00b0 05       		.uleb128 0x5
 2292 00b1 00       		.byte	0
 2293 00b2 03       		.uleb128 0x3
 2294 00b3 0E       		.uleb128 0xe
 2295 00b4 3A       		.uleb128 0x3a
 2296 00b5 0B       		.uleb128 0xb
 2297 00b6 3B       		.uleb128 0x3b
 2298 00b7 0B       		.uleb128 0xb
 2299 00b8 49       		.uleb128 0x49
 2300 00b9 13       		.uleb128 0x13
 2301 00ba 02       		.uleb128 0x2
 2302 00bb 17       		.uleb128 0x17
 2303 00bc 00       		.byte	0
 2304 00bd 00       		.byte	0
 2305 00be 0E       		.uleb128 0xe
 2306 00bf 34       		.uleb128 0x34
 2307 00c0 00       		.byte	0
 2308 00c1 03       		.uleb128 0x3
 2309 00c2 08       		.uleb128 0x8
 2310 00c3 3A       		.uleb128 0x3a
 2311 00c4 0B       		.uleb128 0xb
 2312 00c5 3B       		.uleb128 0x3b
 2313 00c6 0B       		.uleb128 0xb
 2314 00c7 49       		.uleb128 0x49
 2315 00c8 13       		.uleb128 0x13
 2316 00c9 02       		.uleb128 0x2
 2317 00ca 17       		.uleb128 0x17
 2318 00cb 00       		.byte	0
 2319 00cc 00       		.byte	0
 2320 00cd 0F       		.uleb128 0xf
 2321 00ce 34       		.uleb128 0x34
 2322 00cf 00       		.byte	0
 2323 00d0 03       		.uleb128 0x3
 2324 00d1 0E       		.uleb128 0xe
 2325 00d2 3A       		.uleb128 0x3a
 2326 00d3 0B       		.uleb128 0xb
 2327 00d4 3B       		.uleb128 0x3b
 2328 00d5 0B       		.uleb128 0xb
 2329 00d6 49       		.uleb128 0x49
 2330 00d7 13       		.uleb128 0x13
 2331 00d8 02       		.uleb128 0x2
 2332 00d9 17       		.uleb128 0x17
 2333 00da 00       		.byte	0
 2334 00db 00       		.byte	0
 2335 00dc 10       		.uleb128 0x10
 2336 00dd 34       		.uleb128 0x34
 2337 00de 00       		.byte	0
ARM GAS  /tmp/ccuecsUq.s 			page 42


 2338 00df 03       		.uleb128 0x3
 2339 00e0 0E       		.uleb128 0xe
 2340 00e1 3A       		.uleb128 0x3a
 2341 00e2 0B       		.uleb128 0xb
 2342 00e3 3B       		.uleb128 0x3b
 2343 00e4 0B       		.uleb128 0xb
 2344 00e5 49       		.uleb128 0x49
 2345 00e6 13       		.uleb128 0x13
 2346 00e7 02       		.uleb128 0x2
 2347 00e8 18       		.uleb128 0x18
 2348 00e9 00       		.byte	0
 2349 00ea 00       		.byte	0
 2350 00eb 11       		.uleb128 0x11
 2351 00ec 1D       		.uleb128 0x1d
 2352 00ed 01       		.byte	0x1
 2353 00ee 31       		.uleb128 0x31
 2354 00ef 13       		.uleb128 0x13
 2355 00f0 52       		.uleb128 0x52
 2356 00f1 01       		.uleb128 0x1
 2357 00f2 55       		.uleb128 0x55
 2358 00f3 17       		.uleb128 0x17
 2359 00f4 58       		.uleb128 0x58
 2360 00f5 0B       		.uleb128 0xb
 2361 00f6 59       		.uleb128 0x59
 2362 00f7 0B       		.uleb128 0xb
 2363 00f8 01       		.uleb128 0x1
 2364 00f9 13       		.uleb128 0x13
 2365 00fa 00       		.byte	0
 2366 00fb 00       		.byte	0
 2367 00fc 12       		.uleb128 0x12
 2368 00fd 05       		.uleb128 0x5
 2369 00fe 00       		.byte	0
 2370 00ff 31       		.uleb128 0x31
 2371 0100 13       		.uleb128 0x13
 2372 0101 02       		.uleb128 0x2
 2373 0102 17       		.uleb128 0x17
 2374 0103 00       		.byte	0
 2375 0104 00       		.byte	0
 2376 0105 13       		.uleb128 0x13
 2377 0106 05       		.uleb128 0x5
 2378 0107 00       		.byte	0
 2379 0108 31       		.uleb128 0x31
 2380 0109 13       		.uleb128 0x13
 2381 010a 00       		.byte	0
 2382 010b 00       		.byte	0
 2383 010c 14       		.uleb128 0x14
 2384 010d 1D       		.uleb128 0x1d
 2385 010e 01       		.byte	0x1
 2386 010f 31       		.uleb128 0x31
 2387 0110 13       		.uleb128 0x13
 2388 0111 52       		.uleb128 0x52
 2389 0112 01       		.uleb128 0x1
 2390 0113 55       		.uleb128 0x55
 2391 0114 17       		.uleb128 0x17
 2392 0115 58       		.uleb128 0x58
 2393 0116 0B       		.uleb128 0xb
 2394 0117 59       		.uleb128 0x59
ARM GAS  /tmp/ccuecsUq.s 			page 43


 2395 0118 05       		.uleb128 0x5
 2396 0119 01       		.uleb128 0x1
 2397 011a 13       		.uleb128 0x13
 2398 011b 00       		.byte	0
 2399 011c 00       		.byte	0
 2400 011d 15       		.uleb128 0x15
 2401 011e 1D       		.uleb128 0x1d
 2402 011f 01       		.byte	0x1
 2403 0120 31       		.uleb128 0x31
 2404 0121 13       		.uleb128 0x13
 2405 0122 52       		.uleb128 0x52
 2406 0123 01       		.uleb128 0x1
 2407 0124 55       		.uleb128 0x55
 2408 0125 17       		.uleb128 0x17
 2409 0126 58       		.uleb128 0x58
 2410 0127 0B       		.uleb128 0xb
 2411 0128 59       		.uleb128 0x59
 2412 0129 05       		.uleb128 0x5
 2413 012a 00       		.byte	0
 2414 012b 00       		.byte	0
 2415 012c 16       		.uleb128 0x16
 2416 012d 26       		.uleb128 0x26
 2417 012e 00       		.byte	0
 2418 012f 49       		.uleb128 0x49
 2419 0130 13       		.uleb128 0x13
 2420 0131 00       		.byte	0
 2421 0132 00       		.byte	0
 2422 0133 00       		.byte	0
 2423              		.section	.debug_loc,"",%progbits
 2424              	.Ldebug_loc0:
 2425              	.LLST0:
 2426 0000 00000000 		.4byte	.LVL0-.Ltext0
 2427 0004 0E000000 		.4byte	.LVL1-.Ltext0
 2428 0008 0100     		.2byte	0x1
 2429 000a 50       		.byte	0x50
 2430 000b 0E000000 		.4byte	.LVL1-.Ltext0
 2431 000f EA060000 		.4byte	.LFE135-.Ltext0
 2432 0013 0400     		.2byte	0x4
 2433 0015 F3       		.byte	0xf3
 2434 0016 01       		.uleb128 0x1
 2435 0017 50       		.byte	0x50
 2436 0018 9F       		.byte	0x9f
 2437 0019 00000000 		.4byte	0
 2438 001d 00000000 		.4byte	0
 2439              	.LLST1:
 2440 0021 00000000 		.4byte	.LVL0-.Ltext0
 2441 0025 3E000000 		.4byte	.LVL4-.Ltext0
 2442 0029 0100     		.2byte	0x1
 2443 002b 51       		.byte	0x51
 2444 002c 3E000000 		.4byte	.LVL4-.Ltext0
 2445 0030 4A000000 		.4byte	.LVL5-.Ltext0
 2446 0034 0300     		.2byte	0x3
 2447 0036 91       		.byte	0x91
 2448 0037 A07F     		.sleb128 -96
 2449 0039 4A000000 		.4byte	.LVL5-.Ltext0
 2450 003d EA060000 		.4byte	.LFE135-.Ltext0
 2451 0041 0400     		.2byte	0x4
ARM GAS  /tmp/ccuecsUq.s 			page 44


 2452 0043 F3       		.byte	0xf3
 2453 0044 01       		.uleb128 0x1
 2454 0045 51       		.byte	0x51
 2455 0046 9F       		.byte	0x9f
 2456 0047 00000000 		.4byte	0
 2457 004b 00000000 		.4byte	0
 2458              	.LLST2:
 2459 004f 00000000 		.4byte	.LVL0-.Ltext0
 2460 0053 4A000000 		.4byte	.LVL5-.Ltext0
 2461 0057 0100     		.2byte	0x1
 2462 0059 52       		.byte	0x52
 2463 005a 4A000000 		.4byte	.LVL5-.Ltext0
 2464 005e EA060000 		.4byte	.LFE135-.Ltext0
 2465 0062 0200     		.2byte	0x2
 2466 0064 91       		.byte	0x91
 2467 0065 44       		.sleb128 -60
 2468 0066 00000000 		.4byte	0
 2469 006a 00000000 		.4byte	0
 2470              	.LLST3:
 2471 006e 00000000 		.4byte	.LVL0-.Ltext0
 2472 0072 16000000 		.4byte	.LVL2-.Ltext0
 2473 0076 0100     		.2byte	0x1
 2474 0078 53       		.byte	0x53
 2475 0079 16000000 		.4byte	.LVL2-.Ltext0
 2476 007d EA060000 		.4byte	.LFE135-.Ltext0
 2477 0081 0400     		.2byte	0x4
 2478 0083 F3       		.byte	0xf3
 2479 0084 01       		.uleb128 0x1
 2480 0085 53       		.byte	0x53
 2481 0086 9F       		.byte	0x9f
 2482 0087 00000000 		.4byte	0
 2483 008b 00000000 		.4byte	0
 2484              	.LLST4:
 2485 008f 38000000 		.4byte	.LVL3-.Ltext0
 2486 0093 3E000000 		.4byte	.LVL4-.Ltext0
 2487 0097 0100     		.2byte	0x1
 2488 0099 51       		.byte	0x51
 2489 009a 3E000000 		.4byte	.LVL4-.Ltext0
 2490 009e D8000000 		.4byte	.LVL23-.Ltext0
 2491 00a2 0300     		.2byte	0x3
 2492 00a4 91       		.byte	0x91
 2493 00a5 A07F     		.sleb128 -96
 2494 00a7 D8000000 		.4byte	.LVL23-.Ltext0
 2495 00ab 0C020000 		.4byte	.LVL35-.Ltext0
 2496 00af 0700     		.2byte	0x7
 2497 00b1 91       		.byte	0x91
 2498 00b2 847E     		.sleb128 -252
 2499 00b4 06       		.byte	0x6
 2500 00b5 3C       		.byte	0x3c
 2501 00b6 1C       		.byte	0x1c
 2502 00b7 9F       		.byte	0x9f
 2503 00b8 0C020000 		.4byte	.LVL35-.Ltext0
 2504 00bc 00040000 		.4byte	.LVL50-.Ltext0
 2505 00c0 0700     		.2byte	0x7
 2506 00c2 91       		.byte	0x91
 2507 00c3 847E     		.sleb128 -252
 2508 00c5 06       		.byte	0x6
ARM GAS  /tmp/ccuecsUq.s 			page 45


 2509 00c6 38       		.byte	0x38
 2510 00c7 1C       		.byte	0x1c
 2511 00c8 9F       		.byte	0x9f
 2512 00c9 00040000 		.4byte	.LVL50-.Ltext0
 2513 00cd 12040000 		.4byte	.LVL52-.Ltext0
 2514 00d1 0700     		.2byte	0x7
 2515 00d3 91       		.byte	0x91
 2516 00d4 847E     		.sleb128 -252
 2517 00d6 06       		.byte	0x6
 2518 00d7 34       		.byte	0x34
 2519 00d8 1C       		.byte	0x1c
 2520 00d9 9F       		.byte	0x9f
 2521 00da 12040000 		.4byte	.LVL52-.Ltext0
 2522 00de 14050000 		.4byte	.LVL65-.Ltext0
 2523 00e2 0300     		.2byte	0x3
 2524 00e4 91       		.byte	0x91
 2525 00e5 847E     		.sleb128 -252
 2526 00e7 14050000 		.4byte	.LVL65-.Ltext0
 2527 00eb 56050000 		.4byte	.LVL69-.Ltext0
 2528 00ef 0300     		.2byte	0x3
 2529 00f1 7E       		.byte	0x7e
 2530 00f2 70       		.sleb128 -16
 2531 00f3 9F       		.byte	0x9f
 2532 00f4 56050000 		.4byte	.LVL69-.Ltext0
 2533 00f8 B0050000 		.4byte	.LVL74-.Ltext0
 2534 00fc 0300     		.2byte	0x3
 2535 00fe 91       		.byte	0x91
 2536 00ff A07F     		.sleb128 -96
 2537 0101 B0050000 		.4byte	.LVL74-.Ltext0
 2538 0105 CC050000 		.4byte	.LVL76-.Ltext0
 2539 0109 0300     		.2byte	0x3
 2540 010b 71       		.byte	0x71
 2541 010c 7C       		.sleb128 -4
 2542 010d 9F       		.byte	0x9f
 2543 010e CC050000 		.4byte	.LVL76-.Ltext0
 2544 0112 6C060000 		.4byte	.LVL87-.Ltext0
 2545 0116 0700     		.2byte	0x7
 2546 0118 91       		.byte	0x91
 2547 0119 A07F     		.sleb128 -96
 2548 011b 06       		.byte	0x6
 2549 011c 34       		.byte	0x34
 2550 011d 1C       		.byte	0x1c
 2551 011e 9F       		.byte	0x9f
 2552 011f 6C060000 		.4byte	.LVL87-.Ltext0
 2553 0123 82060000 		.4byte	.LVL89-.Ltext0
 2554 0127 0300     		.2byte	0x3
 2555 0129 91       		.byte	0x91
 2556 012a A07F     		.sleb128 -96
 2557 012c BE060000 		.4byte	.LVL94-.Ltext0
 2558 0130 EA060000 		.4byte	.LFE135-.Ltext0
 2559 0134 0300     		.2byte	0x3
 2560 0136 91       		.byte	0x91
 2561 0137 A07F     		.sleb128 -96
 2562 0139 00000000 		.4byte	0
 2563 013d 00000000 		.4byte	0
 2564              	.LLST5:
 2565 0141 38000000 		.4byte	.LVL3-.Ltext0
ARM GAS  /tmp/ccuecsUq.s 			page 46


 2566 0145 4A000000 		.4byte	.LVL5-.Ltext0
 2567 0149 0100     		.2byte	0x1
 2568 014b 52       		.byte	0x52
 2569 014c 56050000 		.4byte	.LVL69-.Ltext0
 2570 0150 5A060000 		.4byte	.LVL85-.Ltext0
 2571 0154 0300     		.2byte	0x3
 2572 0156 91       		.byte	0x91
 2573 0157 847E     		.sleb128 -252
 2574 0159 5A060000 		.4byte	.LVL85-.Ltext0
 2575 015d 5E060000 		.4byte	.LVL86-.Ltext0
 2576 0161 0300     		.2byte	0x3
 2577 0163 71       		.byte	0x71
 2578 0164 7C       		.sleb128 -4
 2579 0165 9F       		.byte	0x9f
 2580 0166 5E060000 		.4byte	.LVL86-.Ltext0
 2581 016a 6C060000 		.4byte	.LVL87-.Ltext0
 2582 016e 0700     		.2byte	0x7
 2583 0170 91       		.byte	0x91
 2584 0171 847E     		.sleb128 -252
 2585 0173 06       		.byte	0x6
 2586 0174 34       		.byte	0x34
 2587 0175 1C       		.byte	0x1c
 2588 0176 9F       		.byte	0x9f
 2589 0177 6C060000 		.4byte	.LVL87-.Ltext0
 2590 017b 82060000 		.4byte	.LVL89-.Ltext0
 2591 017f 0300     		.2byte	0x3
 2592 0181 91       		.byte	0x91
 2593 0182 847E     		.sleb128 -252
 2594 0184 BE060000 		.4byte	.LVL94-.Ltext0
 2595 0188 CE060000 		.4byte	.LVL96-.Ltext0
 2596 018c 0300     		.2byte	0x3
 2597 018e 91       		.byte	0x91
 2598 018f 847E     		.sleb128 -252
 2599 0191 00000000 		.4byte	0
 2600 0195 00000000 		.4byte	0
 2601              	.LLST6:
 2602 0199 38000000 		.4byte	.LVL3-.Ltext0
 2603 019d 4A000000 		.4byte	.LVL5-.Ltext0
 2604 01a1 0500     		.2byte	0x5
 2605 01a3 F3       		.byte	0xf3
 2606 01a4 01       		.uleb128 0x1
 2607 01a5 50       		.byte	0x50
 2608 01a6 23       		.byte	0x23
 2609 01a7 04       		.uleb128 0x4
 2610 01a8 4A000000 		.4byte	.LVL5-.Ltext0
 2611 01ac 82060000 		.4byte	.LVL89-.Ltext0
 2612 01b0 0800     		.2byte	0x8
 2613 01b2 91       		.byte	0x91
 2614 01b3 B07F     		.sleb128 -80
 2615 01b5 06       		.byte	0x6
 2616 01b6 08       		.byte	0x8
 2617 01b7 20       		.byte	0x20
 2618 01b8 1C       		.byte	0x1c
 2619 01b9 9F       		.byte	0x9f
 2620 01ba 82060000 		.4byte	.LVL89-.Ltext0
 2621 01be 9A060000 		.4byte	.LVL91-.Ltext0
 2622 01c2 0700     		.2byte	0x7
ARM GAS  /tmp/ccuecsUq.s 			page 47


 2623 01c4 91       		.byte	0x91
 2624 01c5 B07F     		.sleb128 -80
 2625 01c7 06       		.byte	0x6
 2626 01c8 48       		.byte	0x48
 2627 01c9 1C       		.byte	0x1c
 2628 01ca 9F       		.byte	0x9f
 2629 01cb A6060000 		.4byte	.LVL92-.Ltext0
 2630 01cf BE060000 		.4byte	.LVL94-.Ltext0
 2631 01d3 0100     		.2byte	0x1
 2632 01d5 51       		.byte	0x51
 2633 01d6 BE060000 		.4byte	.LVL94-.Ltext0
 2634 01da EA060000 		.4byte	.LFE135-.Ltext0
 2635 01de 0800     		.2byte	0x8
 2636 01e0 91       		.byte	0x91
 2637 01e1 B07F     		.sleb128 -80
 2638 01e3 06       		.byte	0x6
 2639 01e4 08       		.byte	0x8
 2640 01e5 20       		.byte	0x20
 2641 01e6 1C       		.byte	0x1c
 2642 01e7 9F       		.byte	0x9f
 2643 01e8 00000000 		.4byte	0
 2644 01ec 00000000 		.4byte	0
 2645              	.LLST7:
 2646 01f0 38000000 		.4byte	.LVL3-.Ltext0
 2647 01f4 4A000000 		.4byte	.LVL5-.Ltext0
 2648 01f8 0500     		.2byte	0x5
 2649 01fa F3       		.byte	0xf3
 2650 01fb 01       		.uleb128 0x1
 2651 01fc 50       		.byte	0x50
 2652 01fd 23       		.byte	0x23
 2653 01fe 08       		.uleb128 0x8
 2654 01ff 4A000000 		.4byte	.LVL5-.Ltext0
 2655 0203 52000000 		.4byte	.LVL6-.Ltext0
 2656 0207 0700     		.2byte	0x7
 2657 0209 91       		.byte	0x91
 2658 020a B47F     		.sleb128 -76
 2659 020c 06       		.byte	0x6
 2660 020d 40       		.byte	0x40
 2661 020e 1C       		.byte	0x1c
 2662 020f 9F       		.byte	0x9f
 2663 0210 52000000 		.4byte	.LVL6-.Ltext0
 2664 0214 5A000000 		.4byte	.LVL8-.Ltext0
 2665 0218 0700     		.2byte	0x7
 2666 021a 91       		.byte	0x91
 2667 021b B47F     		.sleb128 -76
 2668 021d 06       		.byte	0x6
 2669 021e 3C       		.byte	0x3c
 2670 021f 1C       		.byte	0x1c
 2671 0220 9F       		.byte	0x9f
 2672 0221 5A000000 		.4byte	.LVL8-.Ltext0
 2673 0225 62000000 		.4byte	.LVL10-.Ltext0
 2674 0229 0700     		.2byte	0x7
 2675 022b 91       		.byte	0x91
 2676 022c B47F     		.sleb128 -76
 2677 022e 06       		.byte	0x6
 2678 022f 38       		.byte	0x38
 2679 0230 1C       		.byte	0x1c
ARM GAS  /tmp/ccuecsUq.s 			page 48


 2680 0231 9F       		.byte	0x9f
 2681 0232 62000000 		.4byte	.LVL10-.Ltext0
 2682 0236 68000000 		.4byte	.LVL12-.Ltext0
 2683 023a 0700     		.2byte	0x7
 2684 023c 91       		.byte	0x91
 2685 023d B47F     		.sleb128 -76
 2686 023f 06       		.byte	0x6
 2687 0240 34       		.byte	0x34
 2688 0241 1C       		.byte	0x1c
 2689 0242 9F       		.byte	0x9f
 2690 0243 68000000 		.4byte	.LVL12-.Ltext0
 2691 0247 94060000 		.4byte	.LVL90-.Ltext0
 2692 024b 0300     		.2byte	0x3
 2693 024d 91       		.byte	0x91
 2694 024e B47F     		.sleb128 -76
 2695 0250 BE060000 		.4byte	.LVL94-.Ltext0
 2696 0254 EA060000 		.4byte	.LFE135-.Ltext0
 2697 0258 0300     		.2byte	0x3
 2698 025a 91       		.byte	0x91
 2699 025b B47F     		.sleb128 -76
 2700 025d 00000000 		.4byte	0
 2701 0261 00000000 		.4byte	0
 2702              	.LLST8:
 2703 0265 52010000 		.4byte	.LVL26-.Ltext0
 2704 0269 B0010000 		.4byte	.LVL30-.Ltext0
 2705 026d 0600     		.2byte	0x6
 2706 026f 50       		.byte	0x50
 2707 0270 93       		.byte	0x93
 2708 0271 04       		.uleb128 0x4
 2709 0272 51       		.byte	0x51
 2710 0273 93       		.byte	0x93
 2711 0274 04       		.uleb128 0x4
 2712 0275 BA010000 		.4byte	.LVL31-.Ltext0
 2713 0279 F0010000 		.4byte	.LVL33-.Ltext0
 2714 027d 0600     		.2byte	0x6
 2715 027f 50       		.byte	0x50
 2716 0280 93       		.byte	0x93
 2717 0281 04       		.uleb128 0x4
 2718 0282 51       		.byte	0x51
 2719 0283 93       		.byte	0x93
 2720 0284 04       		.uleb128 0x4
 2721 0285 7E020000 		.4byte	.LVL39-.Ltext0
 2722 0289 AA020000 		.4byte	.LVL42-.Ltext0
 2723 028d 0600     		.2byte	0x6
 2724 028f 50       		.byte	0x50
 2725 0290 93       		.byte	0x93
 2726 0291 04       		.uleb128 0x4
 2727 0292 51       		.byte	0x51
 2728 0293 93       		.byte	0x93
 2729 0294 04       		.uleb128 0x4
 2730 0295 AA020000 		.4byte	.LVL42-.Ltext0
 2731 0299 C6020000 		.4byte	.LVL43-.Ltext0
 2732 029d 0600     		.2byte	0x6
 2733 029f 54       		.byte	0x54
 2734 02a0 93       		.byte	0x93
 2735 02a1 04       		.uleb128 0x4
 2736 02a2 55       		.byte	0x55
ARM GAS  /tmp/ccuecsUq.s 			page 49


 2737 02a3 93       		.byte	0x93
 2738 02a4 04       		.uleb128 0x4
 2739 02a5 EC020000 		.4byte	.LVL44-.Ltext0
 2740 02a9 F6020000 		.4byte	.LVL46-.Ltext0
 2741 02ad 0600     		.2byte	0x6
 2742 02af 5A       		.byte	0x5a
 2743 02b0 93       		.byte	0x93
 2744 02b1 04       		.uleb128 0x4
 2745 02b2 5B       		.byte	0x5b
 2746 02b3 93       		.byte	0x93
 2747 02b4 04       		.uleb128 0x4
 2748 02b5 F6020000 		.4byte	.LVL46-.Ltext0
 2749 02b9 00040000 		.4byte	.LVL50-.Ltext0
 2750 02bd 0300     		.2byte	0x3
 2751 02bf 91       		.byte	0x91
 2752 02c0 A87F     		.sleb128 -88
 2753 02c2 82040000 		.4byte	.LVL56-.Ltext0
 2754 02c6 C4040000 		.4byte	.LVL60-.Ltext0
 2755 02ca 0600     		.2byte	0x6
 2756 02cc 54       		.byte	0x54
 2757 02cd 93       		.byte	0x93
 2758 02ce 04       		.uleb128 0x4
 2759 02cf 55       		.byte	0x55
 2760 02d0 93       		.byte	0x93
 2761 02d1 04       		.uleb128 0x4
 2762 02d2 C4040000 		.4byte	.LVL60-.Ltext0
 2763 02d6 C8040000 		.4byte	.LVL61-.Ltext0
 2764 02da 3600     		.2byte	0x36
 2765 02dc 91       		.byte	0x91
 2766 02dd A87E     		.sleb128 -216
 2767 02df 06       		.byte	0x6
 2768 02e0 F7       		.byte	0xf7
 2769 02e1 28       		.uleb128 0x28
 2770 02e2 F7       		.byte	0xf7
 2771 02e3 21       		.uleb128 0x21
 2772 02e4 91       		.byte	0x91
 2773 02e5 907E     		.sleb128 -240
 2774 02e7 06       		.byte	0x6
 2775 02e8 F7       		.byte	0xf7
 2776 02e9 28       		.uleb128 0x28
 2777 02ea F7       		.byte	0xf7
 2778 02eb 21       		.uleb128 0x21
 2779 02ec 1E       		.byte	0x1e
 2780 02ed 91       		.byte	0x91
 2781 02ee 807E     		.sleb128 -256
 2782 02f0 06       		.byte	0x6
 2783 02f1 F7       		.byte	0xf7
 2784 02f2 28       		.uleb128 0x28
 2785 02f3 F7       		.byte	0xf7
 2786 02f4 21       		.uleb128 0x21
 2787 02f5 91       		.byte	0x91
 2788 02f6 8C7E     		.sleb128 -244
 2789 02f8 06       		.byte	0x6
 2790 02f9 F7       		.byte	0xf7
 2791 02fa 28       		.uleb128 0x28
 2792 02fb F7       		.byte	0xf7
 2793 02fc 21       		.uleb128 0x21
ARM GAS  /tmp/ccuecsUq.s 			page 50


 2794 02fd 1E       		.byte	0x1e
 2795 02fe 91       		.byte	0x91
 2796 02ff 987E     		.sleb128 -232
 2797 0301 06       		.byte	0x6
 2798 0302 F7       		.byte	0xf7
 2799 0303 28       		.uleb128 0x28
 2800 0304 F7       		.byte	0xf7
 2801 0305 21       		.uleb128 0x21
 2802 0306 91       		.byte	0x91
 2803 0307 887E     		.sleb128 -248
 2804 0309 06       		.byte	0x6
 2805 030a F7       		.byte	0xf7
 2806 030b 28       		.uleb128 0x28
 2807 030c F7       		.byte	0xf7
 2808 030d 21       		.uleb128 0x21
 2809 030e 1E       		.byte	0x1e
 2810 030f 22       		.byte	0x22
 2811 0310 22       		.byte	0x22
 2812 0311 9F       		.byte	0x9f
 2813 0312 C8040000 		.4byte	.LVL61-.Ltext0
 2814 0316 DA040000 		.4byte	.LVL62-.Ltext0
 2815 031a 0600     		.2byte	0x6
 2816 031c 54       		.byte	0x54
 2817 031d 93       		.byte	0x93
 2818 031e 04       		.uleb128 0x4
 2819 031f 55       		.byte	0x55
 2820 0320 93       		.byte	0x93
 2821 0321 04       		.uleb128 0x4
 2822 0322 DE040000 		.4byte	.LVL63-.Ltext0
 2823 0326 26050000 		.4byte	.LVL66-.Ltext0
 2824 032a 0600     		.2byte	0x6
 2825 032c 54       		.byte	0x54
 2826 032d 93       		.byte	0x93
 2827 032e 04       		.uleb128 0x4
 2828 032f 55       		.byte	0x55
 2829 0330 93       		.byte	0x93
 2830 0331 04       		.uleb128 0x4
 2831 0332 E4050000 		.4byte	.LVL77-.Ltext0
 2832 0336 1A060000 		.4byte	.LVL82-.Ltext0
 2833 033a 0600     		.2byte	0x6
 2834 033c 52       		.byte	0x52
 2835 033d 93       		.byte	0x93
 2836 033e 04       		.uleb128 0x4
 2837 033f 53       		.byte	0x53
 2838 0340 93       		.byte	0x93
 2839 0341 04       		.uleb128 0x4
 2840 0342 1A060000 		.4byte	.LVL82-.Ltext0
 2841 0346 2C060000 		.4byte	.LVL83-.Ltext0
 2842 034a 0600     		.2byte	0x6
 2843 034c 54       		.byte	0x54
 2844 034d 93       		.byte	0x93
 2845 034e 04       		.uleb128 0x4
 2846 034f 55       		.byte	0x55
 2847 0350 93       		.byte	0x93
 2848 0351 04       		.uleb128 0x4
 2849 0352 30060000 		.4byte	.LVL84-.Ltext0
 2850 0356 6C060000 		.4byte	.LVL87-.Ltext0
ARM GAS  /tmp/ccuecsUq.s 			page 51


 2851 035a 0600     		.2byte	0x6
 2852 035c 54       		.byte	0x54
 2853 035d 93       		.byte	0x93
 2854 035e 04       		.uleb128 0x4
 2855 035f 55       		.byte	0x55
 2856 0360 93       		.byte	0x93
 2857 0361 04       		.uleb128 0x4
 2858 0362 00000000 		.4byte	0
 2859 0366 00000000 		.4byte	0
 2860              	.LLST9:
 2861 036a 76000000 		.4byte	.LVL16-.Ltext0
 2862 036e 78000000 		.4byte	.LVL17-.Ltext0
 2863 0372 0100     		.2byte	0x1
 2864 0374 53       		.byte	0x53
 2865 0375 78000000 		.4byte	.LVL17-.Ltext0
 2866 0379 D8000000 		.4byte	.LVL23-.Ltext0
 2867 037d 0700     		.2byte	0x7
 2868 037f 91       		.byte	0x91
 2869 0380 B07F     		.sleb128 -80
 2870 0382 06       		.byte	0x6
 2871 0383 08       		.byte	0x8
 2872 0384 20       		.byte	0x20
 2873 0385 1C       		.byte	0x1c
 2874 0386 D8000000 		.4byte	.LVL23-.Ltext0
 2875 038a 20030000 		.4byte	.LVL48-.Ltext0
 2876 038e 0300     		.2byte	0x3
 2877 0390 91       		.byte	0x91
 2878 0391 987E     		.sleb128 -232
 2879 0393 00040000 		.4byte	.LVL50-.Ltext0
 2880 0397 2E050000 		.4byte	.LVL67-.Ltext0
 2881 039b 0300     		.2byte	0x3
 2882 039d 91       		.byte	0x91
 2883 039e 807E     		.sleb128 -256
 2884 03a0 2E050000 		.4byte	.LVL67-.Ltext0
 2885 03a4 7E050000 		.4byte	.LVL70-.Ltext0
 2886 03a8 0300     		.2byte	0x3
 2887 03aa 91       		.byte	0x91
 2888 03ab 987E     		.sleb128 -232
 2889 03ad 7E050000 		.4byte	.LVL70-.Ltext0
 2890 03b1 8A050000 		.4byte	.LVL73-.Ltext0
 2891 03b5 0100     		.2byte	0x1
 2892 03b7 50       		.byte	0x50
 2893 03b8 8A050000 		.4byte	.LVL73-.Ltext0
 2894 03bc 30060000 		.4byte	.LVL84-.Ltext0
 2895 03c0 0100     		.2byte	0x1
 2896 03c2 5E       		.byte	0x5e
 2897 03c3 30060000 		.4byte	.LVL84-.Ltext0
 2898 03c7 82060000 		.4byte	.LVL89-.Ltext0
 2899 03cb 0200     		.2byte	0x2
 2900 03cd 7D       		.byte	0x7d
 2901 03ce 00       		.sleb128 0
 2902 03cf BE060000 		.4byte	.LVL94-.Ltext0
 2903 03d3 CE060000 		.4byte	.LVL96-.Ltext0
 2904 03d7 0300     		.2byte	0x3
 2905 03d9 91       		.byte	0x91
 2906 03da 987E     		.sleb128 -232
 2907 03dc CE060000 		.4byte	.LVL96-.Ltext0
ARM GAS  /tmp/ccuecsUq.s 			page 52


 2908 03e0 EA060000 		.4byte	.LFE135-.Ltext0
 2909 03e4 0700     		.2byte	0x7
 2910 03e6 91       		.byte	0x91
 2911 03e7 B07F     		.sleb128 -80
 2912 03e9 06       		.byte	0x6
 2913 03ea 08       		.byte	0x8
 2914 03eb 20       		.byte	0x20
 2915 03ec 1C       		.byte	0x1c
 2916 03ed 00000000 		.4byte	0
 2917 03f1 00000000 		.4byte	0
 2918              	.LLST10:
 2919 03f5 7E000000 		.4byte	.LVL18-.Ltext0
 2920 03f9 86000000 		.4byte	.LVL19-.Ltext0
 2921 03fd 0100     		.2byte	0x1
 2922 03ff 52       		.byte	0x52
 2923 0400 86000000 		.4byte	.LVL19-.Ltext0
 2924 0404 D8000000 		.4byte	.LVL23-.Ltext0
 2925 0408 0600     		.2byte	0x6
 2926 040a 91       		.byte	0x91
 2927 040b B07F     		.sleb128 -80
 2928 040d 06       		.byte	0x6
 2929 040e 48       		.byte	0x48
 2930 040f 1C       		.byte	0x1c
 2931 0410 D8000000 		.4byte	.LVL23-.Ltext0
 2932 0414 0C020000 		.4byte	.LVL35-.Ltext0
 2933 0418 0300     		.2byte	0x3
 2934 041a 91       		.byte	0x91
 2935 041b 807E     		.sleb128 -256
 2936 041d 0C020000 		.4byte	.LVL35-.Ltext0
 2937 0421 28020000 		.4byte	.LVL37-.Ltext0
 2938 0425 0300     		.2byte	0x3
 2939 0427 91       		.byte	0x91
 2940 0428 A87E     		.sleb128 -216
 2941 042a 2E050000 		.4byte	.LVL67-.Ltext0
 2942 042e 7E050000 		.4byte	.LVL70-.Ltext0
 2943 0432 0300     		.2byte	0x3
 2944 0434 91       		.byte	0x91
 2945 0435 807E     		.sleb128 -256
 2946 0437 7E050000 		.4byte	.LVL70-.Ltext0
 2947 043b 86050000 		.4byte	.LVL71-.Ltext0
 2948 043f 0100     		.2byte	0x1
 2949 0441 5E       		.byte	0x5e
 2950 0442 86050000 		.4byte	.LVL71-.Ltext0
 2951 0446 00060000 		.4byte	.LVL79-.Ltext0
 2952 044a 0300     		.2byte	0x3
 2953 044c 91       		.byte	0x91
 2954 044d 807E     		.sleb128 -256
 2955 044f 00060000 		.4byte	.LVL79-.Ltext0
 2956 0453 10060000 		.4byte	.LVL81-.Ltext0
 2957 0457 0100     		.2byte	0x1
 2958 0459 56       		.byte	0x56
 2959 045a 30060000 		.4byte	.LVL84-.Ltext0
 2960 045e 82060000 		.4byte	.LVL89-.Ltext0
 2961 0462 0100     		.2byte	0x1
 2962 0464 5E       		.byte	0x5e
 2963 0465 BE060000 		.4byte	.LVL94-.Ltext0
 2964 0469 CE060000 		.4byte	.LVL96-.Ltext0
ARM GAS  /tmp/ccuecsUq.s 			page 53


 2965 046d 0300     		.2byte	0x3
 2966 046f 91       		.byte	0x91
 2967 0470 807E     		.sleb128 -256
 2968 0472 CE060000 		.4byte	.LVL96-.Ltext0
 2969 0476 EA060000 		.4byte	.LFE135-.Ltext0
 2970 047a 0600     		.2byte	0x6
 2971 047c 91       		.byte	0x91
 2972 047d B07F     		.sleb128 -80
 2973 047f 06       		.byte	0x6
 2974 0480 48       		.byte	0x48
 2975 0481 1C       		.byte	0x1c
 2976 0482 00000000 		.4byte	0
 2977 0486 00000000 		.4byte	0
 2978              	.LLST11:
 2979 048a 90000000 		.4byte	.LVL20-.Ltext0
 2980 048e 9A000000 		.4byte	.LVL22-.Ltext0
 2981 0492 0600     		.2byte	0x6
 2982 0494 50       		.byte	0x50
 2983 0495 93       		.byte	0x93
 2984 0496 04       		.uleb128 0x4
 2985 0497 51       		.byte	0x51
 2986 0498 93       		.byte	0x93
 2987 0499 04       		.uleb128 0x4
 2988 049a 9A000000 		.4byte	.LVL22-.Ltext0
 2989 049e D8000000 		.4byte	.LVL23-.Ltext0
 2990 04a2 0600     		.2byte	0x6
 2991 04a4 91       		.byte	0x91
 2992 04a5 B07F     		.sleb128 -80
 2993 04a7 06       		.byte	0x6
 2994 04a8 40       		.byte	0x40
 2995 04a9 1C       		.byte	0x1c
 2996 04aa D8000000 		.4byte	.LVL23-.Ltext0
 2997 04ae EC020000 		.4byte	.LVL44-.Ltext0
 2998 04b2 0300     		.2byte	0x3
 2999 04b4 91       		.byte	0x91
 3000 04b5 F87D     		.sleb128 -264
 3001 04b7 EC020000 		.4byte	.LVL44-.Ltext0
 3002 04bb 02030000 		.4byte	.LVL47-.Ltext0
 3003 04bf 0600     		.2byte	0x6
 3004 04c1 50       		.byte	0x50
 3005 04c2 93       		.byte	0x93
 3006 04c3 04       		.uleb128 0x4
 3007 04c4 51       		.byte	0x51
 3008 04c5 93       		.byte	0x93
 3009 04c6 04       		.uleb128 0x4
 3010 04c7 02030000 		.4byte	.LVL47-.Ltext0
 3011 04cb 2E050000 		.4byte	.LVL67-.Ltext0
 3012 04cf 0300     		.2byte	0x3
 3013 04d1 91       		.byte	0x91
 3014 04d2 F07D     		.sleb128 -272
 3015 04d4 2E050000 		.4byte	.LVL67-.Ltext0
 3016 04d8 7E050000 		.4byte	.LVL70-.Ltext0
 3017 04dc 0300     		.2byte	0x3
 3018 04de 91       		.byte	0x91
 3019 04df F87D     		.sleb128 -264
 3020 04e1 7E050000 		.4byte	.LVL70-.Ltext0
 3021 04e5 8A050000 		.4byte	.LVL73-.Ltext0
ARM GAS  /tmp/ccuecsUq.s 			page 54


 3022 04e9 0600     		.2byte	0x6
 3023 04eb 54       		.byte	0x54
 3024 04ec 93       		.byte	0x93
 3025 04ed 04       		.uleb128 0x4
 3026 04ee 53       		.byte	0x53
 3027 04ef 93       		.byte	0x93
 3028 04f0 04       		.uleb128 0x4
 3029 04f1 8A050000 		.4byte	.LVL73-.Ltext0
 3030 04f5 6C060000 		.4byte	.LVL87-.Ltext0
 3031 04f9 0600     		.2byte	0x6
 3032 04fb 5A       		.byte	0x5a
 3033 04fc 93       		.byte	0x93
 3034 04fd 04       		.uleb128 0x4
 3035 04fe 5B       		.byte	0x5b
 3036 04ff 93       		.byte	0x93
 3037 0500 04       		.uleb128 0x4
 3038 0501 6C060000 		.4byte	.LVL87-.Ltext0
 3039 0505 82060000 		.4byte	.LVL89-.Ltext0
 3040 0509 0600     		.2byte	0x6
 3041 050b 54       		.byte	0x54
 3042 050c 93       		.byte	0x93
 3043 050d 04       		.uleb128 0x4
 3044 050e 53       		.byte	0x53
 3045 050f 93       		.byte	0x93
 3046 0510 04       		.uleb128 0x4
 3047 0511 BE060000 		.4byte	.LVL94-.Ltext0
 3048 0515 CC060000 		.4byte	.LVL95-.Ltext0
 3049 0519 0300     		.2byte	0x3
 3050 051b 91       		.byte	0x91
 3051 051c F87D     		.sleb128 -264
 3052 051e CE060000 		.4byte	.LVL96-.Ltext0
 3053 0522 D4060000 		.4byte	.LVL98-.Ltext0
 3054 0526 0600     		.2byte	0x6
 3055 0528 50       		.byte	0x50
 3056 0529 93       		.byte	0x93
 3057 052a 04       		.uleb128 0x4
 3058 052b 51       		.byte	0x51
 3059 052c 93       		.byte	0x93
 3060 052d 04       		.uleb128 0x4
 3061 052e D4060000 		.4byte	.LVL98-.Ltext0
 3062 0532 EA060000 		.4byte	.LFE135-.Ltext0
 3063 0536 0600     		.2byte	0x6
 3064 0538 91       		.byte	0x91
 3065 0539 B07F     		.sleb128 -80
 3066 053b 06       		.byte	0x6
 3067 053c 40       		.byte	0x40
 3068 053d 1C       		.byte	0x1c
 3069 053e 00000000 		.4byte	0
 3070 0542 00000000 		.4byte	0
 3071              	.LLST12:
 3072 0546 90000000 		.4byte	.LVL20-.Ltext0
 3073 054a D8000000 		.4byte	.LVL23-.Ltext0
 3074 054e 0600     		.2byte	0x6
 3075 0550 52       		.byte	0x52
 3076 0551 93       		.byte	0x93
 3077 0552 04       		.uleb128 0x4
 3078 0553 53       		.byte	0x53
ARM GAS  /tmp/ccuecsUq.s 			page 55


 3079 0554 93       		.byte	0x93
 3080 0555 04       		.uleb128 0x4
 3081 0556 D8000000 		.4byte	.LVL23-.Ltext0
 3082 055a DE010000 		.4byte	.LVL32-.Ltext0
 3083 055e 0300     		.2byte	0x3
 3084 0560 91       		.byte	0x91
 3085 0561 D87D     		.sleb128 -296
 3086 0563 DE010000 		.4byte	.LVL32-.Ltext0
 3087 0567 00040000 		.4byte	.LVL50-.Ltext0
 3088 056b 0300     		.2byte	0x3
 3089 056d 91       		.byte	0x91
 3090 056e E87D     		.sleb128 -280
 3091 0570 00040000 		.4byte	.LVL50-.Ltext0
 3092 0574 7E050000 		.4byte	.LVL70-.Ltext0
 3093 0578 0300     		.2byte	0x3
 3094 057a 91       		.byte	0x91
 3095 057b D87D     		.sleb128 -296
 3096 057d 7E050000 		.4byte	.LVL70-.Ltext0
 3097 0581 88050000 		.4byte	.LVL72-.Ltext0
 3098 0585 0600     		.2byte	0x6
 3099 0587 5A       		.byte	0x5a
 3100 0588 93       		.byte	0x93
 3101 0589 04       		.uleb128 0x4
 3102 058a 5B       		.byte	0x5b
 3103 058b 93       		.byte	0x93
 3104 058c 04       		.uleb128 0x4
 3105 058d 88050000 		.4byte	.LVL72-.Ltext0
 3106 0591 30060000 		.4byte	.LVL84-.Ltext0
 3107 0595 0300     		.2byte	0x3
 3108 0597 91       		.byte	0x91
 3109 0598 D87D     		.sleb128 -296
 3110 059a 30060000 		.4byte	.LVL84-.Ltext0
 3111 059e 82060000 		.4byte	.LVL89-.Ltext0
 3112 05a2 0600     		.2byte	0x6
 3113 05a4 5A       		.byte	0x5a
 3114 05a5 93       		.byte	0x93
 3115 05a6 04       		.uleb128 0x4
 3116 05a7 5B       		.byte	0x5b
 3117 05a8 93       		.byte	0x93
 3118 05a9 04       		.uleb128 0x4
 3119 05aa 82060000 		.4byte	.LVL89-.Ltext0
 3120 05ae CE060000 		.4byte	.LVL96-.Ltext0
 3121 05b2 0300     		.2byte	0x3
 3122 05b4 91       		.byte	0x91
 3123 05b5 D87D     		.sleb128 -296
 3124 05b7 CE060000 		.4byte	.LVL96-.Ltext0
 3125 05bb EA060000 		.4byte	.LFE135-.Ltext0
 3126 05bf 0600     		.2byte	0x6
 3127 05c1 52       		.byte	0x52
 3128 05c2 93       		.byte	0x93
 3129 05c3 04       		.uleb128 0x4
 3130 05c4 53       		.byte	0x53
 3131 05c5 93       		.byte	0x93
 3132 05c6 04       		.uleb128 0x4
 3133 05c7 00000000 		.4byte	0
 3134 05cb 00000000 		.4byte	0
 3135              	.LLST13:
ARM GAS  /tmp/ccuecsUq.s 			page 56


 3136 05cf 52000000 		.4byte	.LVL6-.Ltext0
 3137 05d3 54000000 		.4byte	.LVL7-.Ltext0
 3138 05d7 0100     		.2byte	0x1
 3139 05d9 53       		.byte	0x53
 3140 05da 54000000 		.4byte	.LVL7-.Ltext0
 3141 05de D8000000 		.4byte	.LVL23-.Ltext0
 3142 05e2 0600     		.2byte	0x6
 3143 05e4 91       		.byte	0x91
 3144 05e5 B47F     		.sleb128 -76
 3145 05e7 06       		.byte	0x6
 3146 05e8 44       		.byte	0x44
 3147 05e9 1C       		.byte	0x1c
 3148 05ea D8000000 		.4byte	.LVL23-.Ltext0
 3149 05ee CE060000 		.4byte	.LVL96-.Ltext0
 3150 05f2 0300     		.2byte	0x3
 3151 05f4 91       		.byte	0x91
 3152 05f5 887E     		.sleb128 -248
 3153 05f7 CE060000 		.4byte	.LVL96-.Ltext0
 3154 05fb EA060000 		.4byte	.LFE135-.Ltext0
 3155 05ff 0600     		.2byte	0x6
 3156 0601 91       		.byte	0x91
 3157 0602 B47F     		.sleb128 -76
 3158 0604 06       		.byte	0x6
 3159 0605 44       		.byte	0x44
 3160 0606 1C       		.byte	0x1c
 3161 0607 00000000 		.4byte	0
 3162 060b 00000000 		.4byte	0
 3163              	.LLST14:
 3164 060f 5A000000 		.4byte	.LVL8-.Ltext0
 3165 0613 5C000000 		.4byte	.LVL9-.Ltext0
 3166 0617 0100     		.2byte	0x1
 3167 0619 52       		.byte	0x52
 3168 061a 5C000000 		.4byte	.LVL9-.Ltext0
 3169 061e D8000000 		.4byte	.LVL23-.Ltext0
 3170 0622 0600     		.2byte	0x6
 3171 0624 91       		.byte	0x91
 3172 0625 B47F     		.sleb128 -76
 3173 0627 06       		.byte	0x6
 3174 0628 40       		.byte	0x40
 3175 0629 1C       		.byte	0x1c
 3176 062a D8000000 		.4byte	.LVL23-.Ltext0
 3177 062e CE060000 		.4byte	.LVL96-.Ltext0
 3178 0632 0300     		.2byte	0x3
 3179 0634 91       		.byte	0x91
 3180 0635 8C7E     		.sleb128 -244
 3181 0637 CE060000 		.4byte	.LVL96-.Ltext0
 3182 063b EA060000 		.4byte	.LFE135-.Ltext0
 3183 063f 0600     		.2byte	0x6
 3184 0641 91       		.byte	0x91
 3185 0642 B47F     		.sleb128 -76
 3186 0644 06       		.byte	0x6
 3187 0645 40       		.byte	0x40
 3188 0646 1C       		.byte	0x1c
 3189 0647 00000000 		.4byte	0
 3190 064b 00000000 		.4byte	0
 3191              	.LLST15:
 3192 064f 62000000 		.4byte	.LVL10-.Ltext0
ARM GAS  /tmp/ccuecsUq.s 			page 57


 3193 0653 66000000 		.4byte	.LVL11-.Ltext0
 3194 0657 0100     		.2byte	0x1
 3195 0659 53       		.byte	0x53
 3196 065a 66000000 		.4byte	.LVL11-.Ltext0
 3197 065e D8000000 		.4byte	.LVL23-.Ltext0
 3198 0662 0600     		.2byte	0x6
 3199 0664 91       		.byte	0x91
 3200 0665 B47F     		.sleb128 -76
 3201 0667 06       		.byte	0x6
 3202 0668 3C       		.byte	0x3c
 3203 0669 1C       		.byte	0x1c
 3204 066a D8000000 		.4byte	.LVL23-.Ltext0
 3205 066e CE060000 		.4byte	.LVL96-.Ltext0
 3206 0672 0300     		.2byte	0x3
 3207 0674 91       		.byte	0x91
 3208 0675 907E     		.sleb128 -240
 3209 0677 CE060000 		.4byte	.LVL96-.Ltext0
 3210 067b EA060000 		.4byte	.LFE135-.Ltext0
 3211 067f 0600     		.2byte	0x6
 3212 0681 91       		.byte	0x91
 3213 0682 B47F     		.sleb128 -76
 3214 0684 06       		.byte	0x6
 3215 0685 3C       		.byte	0x3c
 3216 0686 1C       		.byte	0x1c
 3217 0687 00000000 		.4byte	0
 3218 068b 00000000 		.4byte	0
 3219              	.LLST16:
 3220 068f 68000000 		.4byte	.LVL12-.Ltext0
 3221 0693 6C000000 		.4byte	.LVL13-.Ltext0
 3222 0697 0100     		.2byte	0x1
 3223 0699 53       		.byte	0x53
 3224 069a 6C000000 		.4byte	.LVL13-.Ltext0
 3225 069e D8000000 		.4byte	.LVL23-.Ltext0
 3226 06a2 0600     		.2byte	0x6
 3227 06a4 91       		.byte	0x91
 3228 06a5 B47F     		.sleb128 -76
 3229 06a7 06       		.byte	0x6
 3230 06a8 38       		.byte	0x38
 3231 06a9 1C       		.byte	0x1c
 3232 06aa D8000000 		.4byte	.LVL23-.Ltext0
 3233 06ae CE060000 		.4byte	.LVL96-.Ltext0
 3234 06b2 0300     		.2byte	0x3
 3235 06b4 91       		.byte	0x91
 3236 06b5 B87F     		.sleb128 -72
 3237 06b7 CE060000 		.4byte	.LVL96-.Ltext0
 3238 06bb EA060000 		.4byte	.LFE135-.Ltext0
 3239 06bf 0600     		.2byte	0x6
 3240 06c1 91       		.byte	0x91
 3241 06c2 B47F     		.sleb128 -76
 3242 06c4 06       		.byte	0x6
 3243 06c5 38       		.byte	0x38
 3244 06c6 1C       		.byte	0x1c
 3245 06c7 00000000 		.4byte	0
 3246 06cb 00000000 		.4byte	0
 3247              	.LLST17:
 3248 06cf 70000000 		.4byte	.LVL14-.Ltext0
 3249 06d3 74000000 		.4byte	.LVL15-.Ltext0
ARM GAS  /tmp/ccuecsUq.s 			page 58


 3250 06d7 0100     		.2byte	0x1
 3251 06d9 53       		.byte	0x53
 3252 06da 74000000 		.4byte	.LVL15-.Ltext0
 3253 06de D8000000 		.4byte	.LVL23-.Ltext0
 3254 06e2 0600     		.2byte	0x6
 3255 06e4 91       		.byte	0x91
 3256 06e5 B47F     		.sleb128 -76
 3257 06e7 06       		.byte	0x6
 3258 06e8 34       		.byte	0x34
 3259 06e9 1C       		.byte	0x1c
 3260 06ea D8000000 		.4byte	.LVL23-.Ltext0
 3261 06ee CE060000 		.4byte	.LVL96-.Ltext0
 3262 06f2 0300     		.2byte	0x3
 3263 06f4 91       		.byte	0x91
 3264 06f5 BC7F     		.sleb128 -68
 3265 06f7 CE060000 		.4byte	.LVL96-.Ltext0
 3266 06fb EA060000 		.4byte	.LFE135-.Ltext0
 3267 06ff 0600     		.2byte	0x6
 3268 0701 91       		.byte	0x91
 3269 0702 B47F     		.sleb128 -76
 3270 0704 06       		.byte	0x6
 3271 0705 34       		.byte	0x34
 3272 0706 1C       		.byte	0x1c
 3273 0707 00000000 		.4byte	0
 3274 070b 00000000 		.4byte	0
 3275              	.LLST18:
 3276 070f 06010000 		.4byte	.LVL24-.Ltext0
 3277 0713 0C010000 		.4byte	.LVL25-.Ltext0
 3278 0717 0100     		.2byte	0x1
 3279 0719 54       		.byte	0x54
 3280 071a 0C010000 		.4byte	.LVL25-.Ltext0
 3281 071e 66010000 		.4byte	.LVL27-.Ltext0
 3282 0722 0100     		.2byte	0x1
 3283 0724 55       		.byte	0x55
 3284 0725 66010000 		.4byte	.LVL27-.Ltext0
 3285 0729 0C020000 		.4byte	.LVL35-.Ltext0
 3286 072d 0600     		.2byte	0x6
 3287 072f 91       		.byte	0x91
 3288 0730 847E     		.sleb128 -252
 3289 0732 06       		.byte	0x6
 3290 0733 40       		.byte	0x40
 3291 0734 1C       		.byte	0x1c
 3292 0735 0C020000 		.4byte	.LVL35-.Ltext0
 3293 0739 40040000 		.4byte	.LVL54-.Ltext0
 3294 073d 0300     		.2byte	0x3
 3295 073f 91       		.byte	0x91
 3296 0740 B87E     		.sleb128 -200
 3297 0742 40040000 		.4byte	.LVL54-.Ltext0
 3298 0746 44040000 		.4byte	.LVL55-.Ltext0
 3299 074a 0100     		.2byte	0x1
 3300 074c 51       		.byte	0x51
 3301 074d 44040000 		.4byte	.LVL55-.Ltext0
 3302 0751 8A040000 		.4byte	.LVL58-.Ltext0
 3303 0755 0100     		.2byte	0x1
 3304 0757 57       		.byte	0x57
 3305 0758 8A040000 		.4byte	.LVL58-.Ltext0
 3306 075c 56050000 		.4byte	.LVL69-.Ltext0
ARM GAS  /tmp/ccuecsUq.s 			page 59


 3307 0760 0300     		.2byte	0x3
 3308 0762 91       		.byte	0x91
 3309 0763 987E     		.sleb128 -232
 3310 0765 7E050000 		.4byte	.LVL70-.Ltext0
 3311 0769 8A050000 		.4byte	.LVL73-.Ltext0
 3312 076d 0100     		.2byte	0x1
 3313 076f 50       		.byte	0x50
 3314 0770 B0050000 		.4byte	.LVL74-.Ltext0
 3315 0774 B8050000 		.4byte	.LVL75-.Ltext0
 3316 0778 0100     		.2byte	0x1
 3317 077a 50       		.byte	0x50
 3318 077b B8050000 		.4byte	.LVL75-.Ltext0
 3319 077f 82060000 		.4byte	.LVL89-.Ltext0
 3320 0783 0200     		.2byte	0x2
 3321 0785 7D       		.byte	0x7d
 3322 0786 00       		.sleb128 0
 3323 0787 00000000 		.4byte	0
 3324 078b 00000000 		.4byte	0
 3325              	.LLST19:
 3326 078f 90000000 		.4byte	.LVL20-.Ltext0
 3327 0793 98000000 		.4byte	.LVL21-.Ltext0
 3328 0797 0100     		.2byte	0x1
 3329 0799 53       		.byte	0x53
 3330 079a 98000000 		.4byte	.LVL21-.Ltext0
 3331 079e D8000000 		.4byte	.LVL23-.Ltext0
 3332 07a2 0200     		.2byte	0x2
 3333 07a4 91       		.byte	0x91
 3334 07a5 48       		.sleb128 -56
 3335 07a6 D8000000 		.4byte	.LVL23-.Ltext0
 3336 07aa 2E050000 		.4byte	.LVL67-.Ltext0
 3337 07ae 0300     		.2byte	0x3
 3338 07b0 91       		.byte	0x91
 3339 07b1 A47F     		.sleb128 -92
 3340 07b3 2E050000 		.4byte	.LVL67-.Ltext0
 3341 07b7 44050000 		.4byte	.LVL68-.Ltext0
 3342 07bb 0100     		.2byte	0x1
 3343 07bd 56       		.byte	0x56
 3344 07be 44050000 		.4byte	.LVL68-.Ltext0
 3345 07c2 56050000 		.4byte	.LVL69-.Ltext0
 3346 07c6 0300     		.2byte	0x3
 3347 07c8 91       		.byte	0x91
 3348 07c9 A47F     		.sleb128 -92
 3349 07cb 56050000 		.4byte	.LVL69-.Ltext0
 3350 07cf 7E050000 		.4byte	.LVL70-.Ltext0
 3351 07d3 0200     		.2byte	0x2
 3352 07d5 91       		.byte	0x91
 3353 07d6 4C       		.sleb128 -52
 3354 07d7 7E050000 		.4byte	.LVL70-.Ltext0
 3355 07db 8A050000 		.4byte	.LVL73-.Ltext0
 3356 07df 0100     		.2byte	0x1
 3357 07e1 52       		.byte	0x52
 3358 07e2 8A050000 		.4byte	.LVL73-.Ltext0
 3359 07e6 6C060000 		.4byte	.LVL87-.Ltext0
 3360 07ea 0300     		.2byte	0x3
 3361 07ec 91       		.byte	0x91
 3362 07ed 947E     		.sleb128 -236
 3363 07ef 6C060000 		.4byte	.LVL87-.Ltext0
ARM GAS  /tmp/ccuecsUq.s 			page 60


 3364 07f3 82060000 		.4byte	.LVL89-.Ltext0
 3365 07f7 0100     		.2byte	0x1
 3366 07f9 52       		.byte	0x52
 3367 07fa BE060000 		.4byte	.LVL94-.Ltext0
 3368 07fe D0060000 		.4byte	.LVL97-.Ltext0
 3369 0802 0100     		.2byte	0x1
 3370 0804 53       		.byte	0x53
 3371 0805 D0060000 		.4byte	.LVL97-.Ltext0
 3372 0809 EA060000 		.4byte	.LFE135-.Ltext0
 3373 080d 0200     		.2byte	0x2
 3374 080f 91       		.byte	0x91
 3375 0810 48       		.sleb128 -56
 3376 0811 00000000 		.4byte	0
 3377 0815 00000000 		.4byte	0
 3378              	.LLST20:
 3379 0819 38000000 		.4byte	.LVL3-.Ltext0
 3380 081d A6060000 		.4byte	.LVL92-.Ltext0
 3381 0821 0200     		.2byte	0x2
 3382 0823 91       		.byte	0x91
 3383 0824 40       		.sleb128 -64
 3384 0825 A6060000 		.4byte	.LVL92-.Ltext0
 3385 0829 AE060000 		.4byte	.LVL93-.Ltext0
 3386 082d 0600     		.2byte	0x6
 3387 082f 91       		.byte	0x91
 3388 0830 40       		.sleb128 -64
 3389 0831 06       		.byte	0x6
 3390 0832 31       		.byte	0x31
 3391 0833 1C       		.byte	0x1c
 3392 0834 9F       		.byte	0x9f
 3393 0835 AE060000 		.4byte	.LVL93-.Ltext0
 3394 0839 BE060000 		.4byte	.LVL94-.Ltext0
 3395 083d 0100     		.2byte	0x1
 3396 083f 53       		.byte	0x53
 3397 0840 BE060000 		.4byte	.LVL94-.Ltext0
 3398 0844 EA060000 		.4byte	.LFE135-.Ltext0
 3399 0848 0200     		.2byte	0x2
 3400 084a 91       		.byte	0x91
 3401 084b 40       		.sleb128 -64
 3402 084c 00000000 		.4byte	0
 3403 0850 00000000 		.4byte	0
 3404              	.LLST21:
 3405 0854 DE010000 		.4byte	.LVL32-.Ltext0
 3406 0858 F0010000 		.4byte	.LVL33-.Ltext0
 3407 085c 0100     		.2byte	0x1
 3408 085e 50       		.byte	0x50
 3409 085f EC020000 		.4byte	.LVL44-.Ltext0
 3410 0863 F0020000 		.4byte	.LVL45-.Ltext0
 3411 0867 0300     		.2byte	0x3
 3412 0869 91       		.byte	0x91
 3413 086a A87F     		.sleb128 -88
 3414 086c 00000000 		.4byte	0
 3415 0870 00000000 		.4byte	0
 3416              	.LLST22:
 3417 0874 DE010000 		.4byte	.LVL32-.Ltext0
 3418 0878 FC010000 		.4byte	.LVL34-.Ltext0
 3419 087c 0100     		.2byte	0x1
 3420 087e 51       		.byte	0x51
ARM GAS  /tmp/ccuecsUq.s 			page 61


 3421 087f FC010000 		.4byte	.LVL34-.Ltext0
 3422 0883 10020000 		.4byte	.LVL36-.Ltext0
 3423 0887 0100     		.2byte	0x1
 3424 0889 52       		.byte	0x52
 3425 088a 10020000 		.4byte	.LVL36-.Ltext0
 3426 088e 3E020000 		.4byte	.LVL38-.Ltext0
 3427 0892 0200     		.2byte	0x2
 3428 0894 73       		.byte	0x73
 3429 0895 70       		.sleb128 -16
 3430 0896 3E020000 		.4byte	.LVL38-.Ltext0
 3431 089a EC020000 		.4byte	.LVL44-.Ltext0
 3432 089e 0600     		.2byte	0x6
 3433 08a0 91       		.byte	0x91
 3434 08a1 947E     		.sleb128 -236
 3435 08a3 06       		.byte	0x6
 3436 08a4 40       		.byte	0x40
 3437 08a5 1C       		.byte	0x1c
 3438 08a6 EC020000 		.4byte	.LVL44-.Ltext0
 3439 08aa F0020000 		.4byte	.LVL45-.Ltext0
 3440 08ae 0300     		.2byte	0x3
 3441 08b0 91       		.byte	0x91
 3442 08b1 AC7F     		.sleb128 -84
 3443 08b3 0A040000 		.4byte	.LVL51-.Ltext0
 3444 08b7 2A040000 		.4byte	.LVL53-.Ltext0
 3445 08bb 0100     		.2byte	0x1
 3446 08bd 50       		.byte	0x50
 3447 08be 2A040000 		.4byte	.LVL53-.Ltext0
 3448 08c2 2E050000 		.4byte	.LVL67-.Ltext0
 3449 08c6 0600     		.2byte	0x6
 3450 08c8 91       		.byte	0x91
 3451 08c9 947E     		.sleb128 -236
 3452 08cb 06       		.byte	0x6
 3453 08cc 38       		.byte	0x38
 3454 08cd 1C       		.byte	0x1c
 3455 08ce 00000000 		.4byte	0
 3456 08d2 00000000 		.4byte	0
 3457              	.LLST23:
 3458 08d6 A2010000 		.4byte	.LVL29-.Ltext0
 3459 08da 56050000 		.4byte	.LVL69-.Ltext0
 3460 08de 0300     		.2byte	0x3
 3461 08e0 91       		.byte	0x91
 3462 08e1 B87F     		.sleb128 -72
 3463 08e3 00000000 		.4byte	0
 3464 08e7 00000000 		.4byte	0
 3465              	.LLST24:
 3466 08eb B0010000 		.4byte	.LVL30-.Ltext0
 3467 08ef 56050000 		.4byte	.LVL69-.Ltext0
 3468 08f3 0300     		.2byte	0x3
 3469 08f5 91       		.byte	0x91
 3470 08f6 BC7F     		.sleb128 -68
 3471 08f8 00000000 		.4byte	0
 3472 08fc 00000000 		.4byte	0
 3473              	.LLST25:
 3474 0900 B0010000 		.4byte	.LVL30-.Ltext0
 3475 0904 CA030000 		.4byte	.LVL49-.Ltext0
 3476 0908 0300     		.2byte	0x3
 3477 090a 91       		.byte	0x91
ARM GAS  /tmp/ccuecsUq.s 			page 62


 3478 090b D87D     		.sleb128 -296
 3479 090d 00000000 		.4byte	0
 3480 0911 00000000 		.4byte	0
 3481              	.LLST26:
 3482 0915 A4020000 		.4byte	.LVL41-.Ltext0
 3483 0919 56050000 		.4byte	.LVL69-.Ltext0
 3484 091d 0300     		.2byte	0x3
 3485 091f 91       		.byte	0x91
 3486 0920 B87F     		.sleb128 -72
 3487 0922 00000000 		.4byte	0
 3488 0926 00000000 		.4byte	0
 3489              	.LLST27:
 3490 092a A4020000 		.4byte	.LVL41-.Ltext0
 3491 092e 56050000 		.4byte	.LVL69-.Ltext0
 3492 0932 0300     		.2byte	0x3
 3493 0934 91       		.byte	0x91
 3494 0935 E87D     		.sleb128 -280
 3495 0937 00000000 		.4byte	0
 3496 093b 00000000 		.4byte	0
 3497              	.LLST28:
 3498 093f AA020000 		.4byte	.LVL42-.Ltext0
 3499 0943 56050000 		.4byte	.LVL69-.Ltext0
 3500 0947 0300     		.2byte	0x3
 3501 0949 91       		.byte	0x91
 3502 094a BC7F     		.sleb128 -68
 3503 094c 00000000 		.4byte	0
 3504 0950 00000000 		.4byte	0
 3505              	.LLST29:
 3506 0954 AA020000 		.4byte	.LVL42-.Ltext0
 3507 0958 EC040000 		.4byte	.LVL64-.Ltext0
 3508 095c 0300     		.2byte	0x3
 3509 095e 91       		.byte	0x91
 3510 095f F87D     		.sleb128 -264
 3511 0961 00000000 		.4byte	0
 3512 0965 00000000 		.4byte	0
 3513              	.LLST30:
 3514 0969 00040000 		.4byte	.LVL50-.Ltext0
 3515 096d 56050000 		.4byte	.LVL69-.Ltext0
 3516 0971 0300     		.2byte	0x3
 3517 0973 91       		.byte	0x91
 3518 0974 B87F     		.sleb128 -72
 3519 0976 00000000 		.4byte	0
 3520 097a 00000000 		.4byte	0
 3521              	.LLST31:
 3522 097e 00040000 		.4byte	.LVL50-.Ltext0
 3523 0982 56050000 		.4byte	.LVL69-.Ltext0
 3524 0986 0300     		.2byte	0x3
 3525 0988 91       		.byte	0x91
 3526 0989 F07D     		.sleb128 -272
 3527 098b 00000000 		.4byte	0
 3528 098f 00000000 		.4byte	0
 3529              	.LLST32:
 3530 0993 00040000 		.4byte	.LVL50-.Ltext0
 3531 0997 56050000 		.4byte	.LVL69-.Ltext0
 3532 099b 0300     		.2byte	0x3
 3533 099d 91       		.byte	0x91
 3534 099e BC7F     		.sleb128 -68
ARM GAS  /tmp/ccuecsUq.s 			page 63


 3535 09a0 00000000 		.4byte	0
 3536 09a4 00000000 		.4byte	0
 3537              	.LLST33:
 3538 09a8 00040000 		.4byte	.LVL50-.Ltext0
 3539 09ac 56050000 		.4byte	.LVL69-.Ltext0
 3540 09b0 0300     		.2byte	0x3
 3541 09b2 91       		.byte	0x91
 3542 09b3 E87D     		.sleb128 -280
 3543 09b5 00000000 		.4byte	0
 3544 09b9 00000000 		.4byte	0
 3545              	.LLST34:
 3546 09bd AC040000 		.4byte	.LVL59-.Ltext0
 3547 09c1 56050000 		.4byte	.LVL69-.Ltext0
 3548 09c5 0300     		.2byte	0x3
 3549 09c7 91       		.byte	0x91
 3550 09c8 B87F     		.sleb128 -72
 3551 09ca 00000000 		.4byte	0
 3552 09ce 00000000 		.4byte	0
 3553              	.LLST35:
 3554 09d2 AC040000 		.4byte	.LVL59-.Ltext0
 3555 09d6 56050000 		.4byte	.LVL69-.Ltext0
 3556 09da 0300     		.2byte	0x3
 3557 09dc 91       		.byte	0x91
 3558 09dd D87D     		.sleb128 -296
 3559 09df 00000000 		.4byte	0
 3560 09e3 00000000 		.4byte	0
 3561              	.LLST36:
 3562 09e7 C8040000 		.4byte	.LVL61-.Ltext0
 3563 09eb 56050000 		.4byte	.LVL69-.Ltext0
 3564 09ef 0300     		.2byte	0x3
 3565 09f1 91       		.byte	0x91
 3566 09f2 BC7F     		.sleb128 -68
 3567 09f4 00000000 		.4byte	0
 3568 09f8 00000000 		.4byte	0
 3569              	.LLST37:
 3570 09fc C8040000 		.4byte	.LVL61-.Ltext0
 3571 0a00 56050000 		.4byte	.LVL69-.Ltext0
 3572 0a04 0300     		.2byte	0x3
 3573 0a06 91       		.byte	0x91
 3574 0a07 F07D     		.sleb128 -272
 3575 0a09 00000000 		.4byte	0
 3576 0a0d 00000000 		.4byte	0
 3577              	.LLST38:
 3578 0a11 7E050000 		.4byte	.LVL70-.Ltext0
 3579 0a15 8A050000 		.4byte	.LVL73-.Ltext0
 3580 0a19 0300     		.2byte	0x3
 3581 0a1b 91       		.byte	0x91
 3582 0a1c B87F     		.sleb128 -72
 3583 0a1e 0A060000 		.4byte	.LVL80-.Ltext0
 3584 0a22 82060000 		.4byte	.LVL89-.Ltext0
 3585 0a26 0300     		.2byte	0x3
 3586 0a28 91       		.byte	0x91
 3587 0a29 B87F     		.sleb128 -72
 3588 0a2b 00000000 		.4byte	0
 3589 0a2f 00000000 		.4byte	0
 3590              	.LLST39:
 3591 0a33 7E050000 		.4byte	.LVL70-.Ltext0
ARM GAS  /tmp/ccuecsUq.s 			page 64


 3592 0a37 88050000 		.4byte	.LVL72-.Ltext0
 3593 0a3b 0600     		.2byte	0x6
 3594 0a3d 5A       		.byte	0x5a
 3595 0a3e 93       		.byte	0x93
 3596 0a3f 04       		.uleb128 0x4
 3597 0a40 5B       		.byte	0x5b
 3598 0a41 93       		.byte	0x93
 3599 0a42 04       		.uleb128 0x4
 3600 0a43 88050000 		.4byte	.LVL72-.Ltext0
 3601 0a47 8A050000 		.4byte	.LVL73-.Ltext0
 3602 0a4b 0300     		.2byte	0x3
 3603 0a4d 91       		.byte	0x91
 3604 0a4e D87D     		.sleb128 -296
 3605 0a50 0A060000 		.4byte	.LVL80-.Ltext0
 3606 0a54 82060000 		.4byte	.LVL89-.Ltext0
 3607 0a58 0600     		.2byte	0x6
 3608 0a5a 5A       		.byte	0x5a
 3609 0a5b 93       		.byte	0x93
 3610 0a5c 04       		.uleb128 0x4
 3611 0a5d 5B       		.byte	0x5b
 3612 0a5e 93       		.byte	0x93
 3613 0a5f 04       		.uleb128 0x4
 3614 0a60 00000000 		.4byte	0
 3615 0a64 00000000 		.4byte	0
 3616              	.LLST40:
 3617 0a68 7E050000 		.4byte	.LVL70-.Ltext0
 3618 0a6c 8A050000 		.4byte	.LVL73-.Ltext0
 3619 0a70 0300     		.2byte	0x3
 3620 0a72 91       		.byte	0x91
 3621 0a73 BC7F     		.sleb128 -68
 3622 0a75 1A060000 		.4byte	.LVL82-.Ltext0
 3623 0a79 82060000 		.4byte	.LVL89-.Ltext0
 3624 0a7d 0300     		.2byte	0x3
 3625 0a7f 91       		.byte	0x91
 3626 0a80 BC7F     		.sleb128 -68
 3627 0a82 00000000 		.4byte	0
 3628 0a86 00000000 		.4byte	0
 3629              	.LLST41:
 3630 0a8a 1A060000 		.4byte	.LVL82-.Ltext0
 3631 0a8e 70060000 		.4byte	.LVL88-.Ltext0
 3632 0a92 0300     		.2byte	0x3
 3633 0a94 91       		.byte	0x91
 3634 0a95 D87D     		.sleb128 -296
 3635 0a97 00000000 		.4byte	0
 3636 0a9b 00000000 		.4byte	0
 3637              		.section	.debug_aranges,"",%progbits
 3638 0000 1C000000 		.4byte	0x1c
 3639 0004 0200     		.2byte	0x2
 3640 0006 00000000 		.4byte	.Ldebug_info0
 3641 000a 04       		.byte	0x4
 3642 000b 00       		.byte	0
 3643 000c 0000     		.2byte	0
 3644 000e 0000     		.2byte	0
 3645 0010 00000000 		.4byte	.Ltext0
 3646 0014 EA060000 		.4byte	.Letext0-.Ltext0
 3647 0018 00000000 		.4byte	0
 3648 001c 00000000 		.4byte	0
ARM GAS  /tmp/ccuecsUq.s 			page 65


 3649              		.section	.debug_ranges,"",%progbits
 3650              	.Ldebug_ranges0:
 3651 0000 D8000000 		.4byte	.LBB22-.Ltext0
 3652 0004 E8000000 		.4byte	.LBE22-.Ltext0
 3653 0008 EA000000 		.4byte	.LBB36-.Ltext0
 3654 000c F8000000 		.4byte	.LBE36-.Ltext0
 3655 0010 FE000000 		.4byte	.LBB52-.Ltext0
 3656 0014 04010000 		.4byte	.LBE52-.Ltext0
 3657 0018 0A010000 		.4byte	.LBB54-.Ltext0
 3658 001c 1A010000 		.4byte	.LBE54-.Ltext0
 3659 0020 26010000 		.4byte	.LBB56-.Ltext0
 3660 0024 2A010000 		.4byte	.LBE56-.Ltext0
 3661 0028 2C010000 		.4byte	.LBB57-.Ltext0
 3662 002c 34010000 		.4byte	.LBE57-.Ltext0
 3663 0030 38010000 		.4byte	.LBB59-.Ltext0
 3664 0034 3A010000 		.4byte	.LBE59-.Ltext0
 3665 0038 3C010000 		.4byte	.LBB61-.Ltext0
 3666 003c 42010000 		.4byte	.LBE61-.Ltext0
 3667 0040 46010000 		.4byte	.LBB63-.Ltext0
 3668 0044 4E010000 		.4byte	.LBE63-.Ltext0
 3669 0048 52010000 		.4byte	.LBB64-.Ltext0
 3670 004c 54010000 		.4byte	.LBE64-.Ltext0
 3671 0050 58010000 		.4byte	.LBB66-.Ltext0
 3672 0054 5A010000 		.4byte	.LBE66-.Ltext0
 3673 0058 5C010000 		.4byte	.LBB68-.Ltext0
 3674 005c 5E010000 		.4byte	.LBE68-.Ltext0
 3675 0060 7C010000 		.4byte	.LBB72-.Ltext0
 3676 0064 94010000 		.4byte	.LBE72-.Ltext0
 3677 0068 00000000 		.4byte	0
 3678 006c 00000000 		.4byte	0
 3679 0070 FC000000 		.4byte	.LBB37-.Ltext0
 3680 0074 FE000000 		.4byte	.LBE37-.Ltext0
 3681 0078 06010000 		.4byte	.LBB53-.Ltext0
 3682 007c 0A010000 		.4byte	.LBE53-.Ltext0
 3683 0080 1A010000 		.4byte	.LBB55-.Ltext0
 3684 0084 26010000 		.4byte	.LBE55-.Ltext0
 3685 0088 34010000 		.4byte	.LBB58-.Ltext0
 3686 008c 38010000 		.4byte	.LBE58-.Ltext0
 3687 0090 3A010000 		.4byte	.LBB60-.Ltext0
 3688 0094 3C010000 		.4byte	.LBE60-.Ltext0
 3689 0098 44010000 		.4byte	.LBB62-.Ltext0
 3690 009c 46010000 		.4byte	.LBE62-.Ltext0
 3691 00a0 54010000 		.4byte	.LBB65-.Ltext0
 3692 00a4 58010000 		.4byte	.LBE65-.Ltext0
 3693 00a8 5A010000 		.4byte	.LBB67-.Ltext0
 3694 00ac 5C010000 		.4byte	.LBE67-.Ltext0
 3695 00b0 5E010000 		.4byte	.LBB69-.Ltext0
 3696 00b4 62010000 		.4byte	.LBE69-.Ltext0
 3697 00b8 68010000 		.4byte	.LBB70-.Ltext0
 3698 00bc 6A010000 		.4byte	.LBE70-.Ltext0
 3699 00c0 6E010000 		.4byte	.LBB71-.Ltext0
 3700 00c4 7C010000 		.4byte	.LBE71-.Ltext0
 3701 00c8 9A010000 		.4byte	.LBB73-.Ltext0
 3702 00cc 9E010000 		.4byte	.LBE73-.Ltext0
 3703 00d0 A6010000 		.4byte	.LBB74-.Ltext0
 3704 00d4 AC010000 		.4byte	.LBE74-.Ltext0
 3705 00d8 B0010000 		.4byte	.LBB75-.Ltext0
ARM GAS  /tmp/ccuecsUq.s 			page 66


 3706 00dc B4010000 		.4byte	.LBE75-.Ltext0
 3707 00e0 00000000 		.4byte	0
 3708 00e4 00000000 		.4byte	0
 3709 00e8 DE010000 		.4byte	.LBB76-.Ltext0
 3710 00ec E8010000 		.4byte	.LBE76-.Ltext0
 3711 00f0 EA010000 		.4byte	.LBB93-.Ltext0
 3712 00f4 EE010000 		.4byte	.LBE93-.Ltext0
 3713 00f8 F0010000 		.4byte	.LBB94-.Ltext0
 3714 00fc F4010000 		.4byte	.LBE94-.Ltext0
 3715 0100 F8010000 		.4byte	.LBB95-.Ltext0
 3716 0104 FA010000 		.4byte	.LBE95-.Ltext0
 3717 0108 FC010000 		.4byte	.LBB96-.Ltext0
 3718 010c 04020000 		.4byte	.LBE96-.Ltext0
 3719 0110 06020000 		.4byte	.LBB97-.Ltext0
 3720 0114 08020000 		.4byte	.LBE97-.Ltext0
 3721 0118 0C020000 		.4byte	.LBB98-.Ltext0
 3722 011c 1A020000 		.4byte	.LBE98-.Ltext0
 3723 0120 1C020000 		.4byte	.LBB99-.Ltext0
 3724 0124 1E020000 		.4byte	.LBE99-.Ltext0
 3725 0128 28020000 		.4byte	.LBB112-.Ltext0
 3726 012c 2A020000 		.4byte	.LBE112-.Ltext0
 3727 0130 2E020000 		.4byte	.LBB113-.Ltext0
 3728 0134 34020000 		.4byte	.LBE113-.Ltext0
 3729 0138 3E020000 		.4byte	.LBB115-.Ltext0
 3730 013c 42020000 		.4byte	.LBE115-.Ltext0
 3731 0140 46020000 		.4byte	.LBB117-.Ltext0
 3732 0144 4A020000 		.4byte	.LBE117-.Ltext0
 3733 0148 4E020000 		.4byte	.LBB119-.Ltext0
 3734 014c 52020000 		.4byte	.LBE119-.Ltext0
 3735 0150 66020000 		.4byte	.LBB121-.Ltext0
 3736 0154 6C020000 		.4byte	.LBE121-.Ltext0
 3737 0158 6E020000 		.4byte	.LBB122-.Ltext0
 3738 015c 74020000 		.4byte	.LBE122-.Ltext0
 3739 0160 8C020000 		.4byte	.LBB125-.Ltext0
 3740 0164 96020000 		.4byte	.LBE125-.Ltext0
 3741 0168 00000000 		.4byte	0
 3742 016c 00000000 		.4byte	0
 3743 0170 1E020000 		.4byte	.LBB100-.Ltext0
 3744 0174 22020000 		.4byte	.LBE100-.Ltext0
 3745 0178 36020000 		.4byte	.LBB114-.Ltext0
 3746 017c 3E020000 		.4byte	.LBE114-.Ltext0
 3747 0180 42020000 		.4byte	.LBB116-.Ltext0
 3748 0184 46020000 		.4byte	.LBE116-.Ltext0
 3749 0188 4A020000 		.4byte	.LBB118-.Ltext0
 3750 018c 4E020000 		.4byte	.LBE118-.Ltext0
 3751 0190 52020000 		.4byte	.LBB120-.Ltext0
 3752 0194 66020000 		.4byte	.LBE120-.Ltext0
 3753 0198 82020000 		.4byte	.LBB123-.Ltext0
 3754 019c 84020000 		.4byte	.LBE123-.Ltext0
 3755 01a0 88020000 		.4byte	.LBB124-.Ltext0
 3756 01a4 8C020000 		.4byte	.LBE124-.Ltext0
 3757 01a8 98020000 		.4byte	.LBB126-.Ltext0
 3758 01ac 9A020000 		.4byte	.LBE126-.Ltext0
 3759 01b0 9E020000 		.4byte	.LBB127-.Ltext0
 3760 01b4 A0020000 		.4byte	.LBE127-.Ltext0
 3761 01b8 A6020000 		.4byte	.LBB128-.Ltext0
 3762 01bc A8020000 		.4byte	.LBE128-.Ltext0
ARM GAS  /tmp/ccuecsUq.s 			page 67


 3763 01c0 AA020000 		.4byte	.LBB129-.Ltext0
 3764 01c4 B6020000 		.4byte	.LBE129-.Ltext0
 3765 01c8 00000000 		.4byte	0
 3766 01cc 00000000 		.4byte	0
 3767 01d0 DE020000 		.4byte	.LBB130-.Ltext0
 3768 01d4 E2020000 		.4byte	.LBE130-.Ltext0
 3769 01d8 E4020000 		.4byte	.LBB150-.Ltext0
 3770 01dc E8020000 		.4byte	.LBE150-.Ltext0
 3771 01e0 F0020000 		.4byte	.LBB151-.Ltext0
 3772 01e4 F2020000 		.4byte	.LBE151-.Ltext0
 3773 01e8 F6020000 		.4byte	.LBB170-.Ltext0
 3774 01ec 00030000 		.4byte	.LBE170-.Ltext0
 3775 01f0 02030000 		.4byte	.LBB172-.Ltext0
 3776 01f4 06030000 		.4byte	.LBE172-.Ltext0
 3777 01f8 14030000 		.4byte	.LBB174-.Ltext0
 3778 01fc 18030000 		.4byte	.LBE174-.Ltext0
 3779 0200 20030000 		.4byte	.LBB176-.Ltext0
 3780 0204 22030000 		.4byte	.LBE176-.Ltext0
 3781 0208 24030000 		.4byte	.LBB178-.Ltext0
 3782 020c 28030000 		.4byte	.LBE178-.Ltext0
 3783 0210 32030000 		.4byte	.LBB181-.Ltext0
 3784 0214 36030000 		.4byte	.LBE181-.Ltext0
 3785 0218 3C030000 		.4byte	.LBB183-.Ltext0
 3786 021c 3E030000 		.4byte	.LBE183-.Ltext0
 3787 0220 52030000 		.4byte	.LBB186-.Ltext0
 3788 0224 58030000 		.4byte	.LBE186-.Ltext0
 3789 0228 5A030000 		.4byte	.LBB187-.Ltext0
 3790 022c 5C030000 		.4byte	.LBE187-.Ltext0
 3791 0230 5E030000 		.4byte	.LBB188-.Ltext0
 3792 0234 60030000 		.4byte	.LBE188-.Ltext0
 3793 0238 68030000 		.4byte	.LBB189-.Ltext0
 3794 023c 6E030000 		.4byte	.LBE189-.Ltext0
 3795 0240 70030000 		.4byte	.LBB191-.Ltext0
 3796 0244 74030000 		.4byte	.LBE191-.Ltext0
 3797 0248 7C030000 		.4byte	.LBB193-.Ltext0
 3798 024c 86030000 		.4byte	.LBE193-.Ltext0
 3799 0250 8A030000 		.4byte	.LBB194-.Ltext0
 3800 0254 8E030000 		.4byte	.LBE194-.Ltext0
 3801 0258 94030000 		.4byte	.LBB196-.Ltext0
 3802 025c 98030000 		.4byte	.LBE196-.Ltext0
 3803 0260 9C030000 		.4byte	.LBB198-.Ltext0
 3804 0264 A0030000 		.4byte	.LBE198-.Ltext0
 3805 0268 00000000 		.4byte	0
 3806 026c 00000000 		.4byte	0
 3807 0270 F2020000 		.4byte	.LBB152-.Ltext0
 3808 0274 F6020000 		.4byte	.LBE152-.Ltext0
 3809 0278 00030000 		.4byte	.LBB171-.Ltext0
 3810 027c 02030000 		.4byte	.LBE171-.Ltext0
 3811 0280 06030000 		.4byte	.LBB173-.Ltext0
 3812 0284 14030000 		.4byte	.LBE173-.Ltext0
 3813 0288 18030000 		.4byte	.LBB175-.Ltext0
 3814 028c 20030000 		.4byte	.LBE175-.Ltext0
 3815 0290 22030000 		.4byte	.LBB177-.Ltext0
 3816 0294 24030000 		.4byte	.LBE177-.Ltext0
 3817 0298 28030000 		.4byte	.LBB179-.Ltext0
 3818 029c 2E030000 		.4byte	.LBE179-.Ltext0
 3819 02a0 30030000 		.4byte	.LBB180-.Ltext0
ARM GAS  /tmp/ccuecsUq.s 			page 68


 3820 02a4 32030000 		.4byte	.LBE180-.Ltext0
 3821 02a8 36030000 		.4byte	.LBB182-.Ltext0
 3822 02ac 3A030000 		.4byte	.LBE182-.Ltext0
 3823 02b0 3E030000 		.4byte	.LBB184-.Ltext0
 3824 02b4 4A030000 		.4byte	.LBE184-.Ltext0
 3825 02b8 4C030000 		.4byte	.LBB185-.Ltext0
 3826 02bc 52030000 		.4byte	.LBE185-.Ltext0
 3827 02c0 6E030000 		.4byte	.LBB190-.Ltext0
 3828 02c4 70030000 		.4byte	.LBE190-.Ltext0
 3829 02c8 74030000 		.4byte	.LBB192-.Ltext0
 3830 02cc 7A030000 		.4byte	.LBE192-.Ltext0
 3831 02d0 92030000 		.4byte	.LBB195-.Ltext0
 3832 02d4 94030000 		.4byte	.LBE195-.Ltext0
 3833 02d8 98030000 		.4byte	.LBB197-.Ltext0
 3834 02dc 9C030000 		.4byte	.LBE197-.Ltext0
 3835 02e0 A0030000 		.4byte	.LBB199-.Ltext0
 3836 02e4 A2030000 		.4byte	.LBE199-.Ltext0
 3837 02e8 A6030000 		.4byte	.LBB200-.Ltext0
 3838 02ec AA030000 		.4byte	.LBE200-.Ltext0
 3839 02f0 AE030000 		.4byte	.LBB201-.Ltext0
 3840 02f4 BA030000 		.4byte	.LBE201-.Ltext0
 3841 02f8 00000000 		.4byte	0
 3842 02fc 00000000 		.4byte	0
 3843 0300 00040000 		.4byte	.LBB202-.Ltext0
 3844 0304 04040000 		.4byte	.LBE202-.Ltext0
 3845 0308 0A040000 		.4byte	.LBB219-.Ltext0
 3846 030c 0E040000 		.4byte	.LBE219-.Ltext0
 3847 0310 16040000 		.4byte	.LBB220-.Ltext0
 3848 0314 26040000 		.4byte	.LBE220-.Ltext0
 3849 0318 28040000 		.4byte	.LBB221-.Ltext0
 3850 031c 2A040000 		.4byte	.LBE221-.Ltext0
 3851 0320 2E040000 		.4byte	.LBB222-.Ltext0
 3852 0324 30040000 		.4byte	.LBE222-.Ltext0
 3853 0328 32040000 		.4byte	.LBB237-.Ltext0
 3854 032c 3A040000 		.4byte	.LBE237-.Ltext0
 3855 0330 44040000 		.4byte	.LBB240-.Ltext0
 3856 0334 46040000 		.4byte	.LBE240-.Ltext0
 3857 0338 4A040000 		.4byte	.LBB242-.Ltext0
 3858 033c 56040000 		.4byte	.LBE242-.Ltext0
 3859 0340 58040000 		.4byte	.LBB243-.Ltext0
 3860 0344 5E040000 		.4byte	.LBE243-.Ltext0
 3861 0348 60040000 		.4byte	.LBB245-.Ltext0
 3862 034c 66040000 		.4byte	.LBE245-.Ltext0
 3863 0350 86040000 		.4byte	.LBB248-.Ltext0
 3864 0354 88040000 		.4byte	.LBE248-.Ltext0
 3865 0358 8A040000 		.4byte	.LBB249-.Ltext0
 3866 035c 90040000 		.4byte	.LBE249-.Ltext0
 3867 0360 96040000 		.4byte	.LBB251-.Ltext0
 3868 0364 9A040000 		.4byte	.LBE251-.Ltext0
 3869 0368 A0040000 		.4byte	.LBB253-.Ltext0
 3870 036c A8040000 		.4byte	.LBE253-.Ltext0
 3871 0370 B0040000 		.4byte	.LBB255-.Ltext0
 3872 0374 B6040000 		.4byte	.LBE255-.Ltext0
 3873 0378 BA040000 		.4byte	.LBB257-.Ltext0
 3874 037c BE040000 		.4byte	.LBE257-.Ltext0
 3875 0380 00000000 		.4byte	0
 3876 0384 00000000 		.4byte	0
ARM GAS  /tmp/ccuecsUq.s 			page 69


 3877 0388 30040000 		.4byte	.LBB223-.Ltext0
 3878 038c 32040000 		.4byte	.LBE223-.Ltext0
 3879 0390 3A040000 		.4byte	.LBB238-.Ltext0
 3880 0394 3E040000 		.4byte	.LBE238-.Ltext0
 3881 0398 40040000 		.4byte	.LBB239-.Ltext0
 3882 039c 44040000 		.4byte	.LBE239-.Ltext0
 3883 03a0 46040000 		.4byte	.LBB241-.Ltext0
 3884 03a4 4A040000 		.4byte	.LBE241-.Ltext0
 3885 03a8 5E040000 		.4byte	.LBB244-.Ltext0
 3886 03ac 60040000 		.4byte	.LBE244-.Ltext0
 3887 03b0 66040000 		.4byte	.LBB246-.Ltext0
 3888 03b4 70040000 		.4byte	.LBE246-.Ltext0
 3889 03b8 72040000 		.4byte	.LBB247-.Ltext0
 3890 03bc 7A040000 		.4byte	.LBE247-.Ltext0
 3891 03c0 90040000 		.4byte	.LBB250-.Ltext0
 3892 03c4 96040000 		.4byte	.LBE250-.Ltext0
 3893 03c8 9A040000 		.4byte	.LBB252-.Ltext0
 3894 03cc 9E040000 		.4byte	.LBE252-.Ltext0
 3895 03d0 AC040000 		.4byte	.LBB254-.Ltext0
 3896 03d4 AE040000 		.4byte	.LBE254-.Ltext0
 3897 03d8 B6040000 		.4byte	.LBB256-.Ltext0
 3898 03dc BA040000 		.4byte	.LBE256-.Ltext0
 3899 03e0 BE040000 		.4byte	.LBB258-.Ltext0
 3900 03e4 C0040000 		.4byte	.LBE258-.Ltext0
 3901 03e8 C8040000 		.4byte	.LBB259-.Ltext0
 3902 03ec D6040000 		.4byte	.LBE259-.Ltext0
 3903 03f0 00000000 		.4byte	0
 3904 03f4 00000000 		.4byte	0
 3905 03f8 8A050000 		.4byte	.LBB260-.Ltext0
 3906 03fc 9E050000 		.4byte	.LBE260-.Ltext0
 3907 0400 A0050000 		.4byte	.LBB267-.Ltext0
 3908 0404 A4050000 		.4byte	.LBE267-.Ltext0
 3909 0408 AA050000 		.4byte	.LBB268-.Ltext0
 3910 040c AE050000 		.4byte	.LBE268-.Ltext0
 3911 0410 B0050000 		.4byte	.LBB269-.Ltext0
 3912 0414 B4050000 		.4byte	.LBE269-.Ltext0
 3913 0418 B8050000 		.4byte	.LBB278-.Ltext0
 3914 041c CA050000 		.4byte	.LBE278-.Ltext0
 3915 0420 EC050000 		.4byte	.LBB282-.Ltext0
 3916 0424 F8050000 		.4byte	.LBE282-.Ltext0
 3917 0428 00000000 		.4byte	0
 3918 042c 00000000 		.4byte	0
 3919 0430 B4050000 		.4byte	.LBB270-.Ltext0
 3920 0434 B8050000 		.4byte	.LBE270-.Ltext0
 3921 0438 CA050000 		.4byte	.LBB279-.Ltext0
 3922 043c D0050000 		.4byte	.LBE279-.Ltext0
 3923 0440 D6050000 		.4byte	.LBB280-.Ltext0
 3924 0444 E0050000 		.4byte	.LBE280-.Ltext0
 3925 0448 E8050000 		.4byte	.LBB281-.Ltext0
 3926 044c EC050000 		.4byte	.LBE281-.Ltext0
 3927 0450 00060000 		.4byte	.LBB283-.Ltext0
 3928 0454 06060000 		.4byte	.LBE283-.Ltext0
 3929 0458 0C060000 		.4byte	.LBB284-.Ltext0
 3930 045c 18060000 		.4byte	.LBE284-.Ltext0
 3931 0460 1A060000 		.4byte	.LBB285-.Ltext0
 3932 0464 2A060000 		.4byte	.LBE285-.Ltext0
 3933 0468 00000000 		.4byte	0
ARM GAS  /tmp/ccuecsUq.s 			page 70


 3934 046c 00000000 		.4byte	0
 3935              		.section	.debug_line,"",%progbits
 3936              	.Ldebug_line0:
 3937 0000 69060000 		.section	.debug_str,"MS",%progbits,1
 3937      02001A02 
 3937      00000201 
 3937      FB0E0D00 
 3937      01010101 
 3938              	.LASF31:
 3939 0000 626C6F63 		.ascii	"blockSize\000"
 3939      6B53697A 
 3939      6500
 3940              	.LASF40:
 3941 000a 474E5520 		.ascii	"GNU C 4.9.3 20150529 (release) [ARM/embedded-4_9-br"
 3941      4320342E 
 3941      392E3320 
 3941      32303135 
 3941      30353239 
 3942 003d 616E6368 		.ascii	"anch revision 224288] -mcpu=cortex-m4 -mfloat-abi=h"
 3942      20726576 
 3942      6973696F 
 3942      6E203232 
 3942      34323838 
 3943 0070 61726420 		.ascii	"ard -mfpu=fpv4-sp-d16 -mno-thumb-interwork -mthumb "
 3943      2D6D6670 
 3943      753D6670 
 3943      76342D73 
 3943      702D6431 
 3944 00a3 2D676764 		.ascii	"-ggdb -O2 -fomit-frame-pointer -falign-functions=16"
 3944      62202D4F 
 3944      32202D66 
 3944      6F6D6974 
 3944      2D667261 
 3945 00d6 202D666E 		.ascii	" -fno-math-errno -fsingle-precision-constant\000"
 3945      6F2D6D61 
 3945      74682D65 
 3945      72726E6F 
 3945      202D6673 
 3946              	.LASF33:
 3947 0103 73686966 		.ascii	"shift\000"
 3947      7400
 3948              	.LASF5:
 3949 0109 5F5F7569 		.ascii	"__uint8_t\000"
 3949      6E74385F 
 3949      7400
 3950              	.LASF16:
 3951 0113 696E7436 		.ascii	"int64_t\000"
 3951      345F7400 
 3952              	.LASF28:
 3953 011b 61726D5F 		.ascii	"arm_biquad_cas_df1_32x64_ins_q31\000"
 3953      62697175 
 3953      61645F63 
 3953      61735F64 
 3953      66315F33 
 3954              	.LASF20:
 3955 013c 666C6F61 		.ascii	"float\000"
 3955      7400
ARM GAS  /tmp/ccuecsUq.s 			page 71


 3956              	.LASF6:
 3957 0142 5F5F696E 		.ascii	"__int32_t\000"
 3957      7433325F 
 3957      7400
 3958              	.LASF7:
 3959 014c 6C6F6E67 		.ascii	"long int\000"
 3959      20696E74 
 3959      00
 3960              	.LASF35:
 3961 0155 73746167 		.ascii	"stage\000"
 3961      6500
 3962              	.LASF32:
 3963 015b 704F7574 		.ascii	"pOut\000"
 3963      00
 3964              	.LASF22:
 3965 0160 7133315F 		.ascii	"q31_t\000"
 3965      7400
 3966              	.LASF2:
 3967 0166 756E7369 		.ascii	"unsigned char\000"
 3967      676E6564 
 3967      20636861 
 3967      7200
 3968              	.LASF39:
 3969 0174 6C536869 		.ascii	"lShift\000"
 3969      667400
 3970              	.LASF9:
 3971 017b 6C6F6E67 		.ascii	"long unsigned int\000"
 3971      20756E73 
 3971      69676E65 
 3971      6420696E 
 3971      7400
 3972              	.LASF4:
 3973 018d 73686F72 		.ascii	"short unsigned int\000"
 3973      7420756E 
 3973      7369676E 
 3973      65642069 
 3973      6E7400
 3974              	.LASF30:
 3975 01a0 70447374 		.ascii	"pDst\000"
 3975      00
 3976              	.LASF27:
 3977 01a5 706F7374 		.ascii	"postShift\000"
 3977      53686966 
 3977      7400
 3978              	.LASF25:
 3979 01af 70537461 		.ascii	"pState\000"
 3979      746500
 3980              	.LASF10:
 3981 01b6 5F5F696E 		.ascii	"__int64_t\000"
 3981      7436345F 
 3981      7400
 3982              	.LASF19:
 3983 01c0 646F7562 		.ascii	"double\000"
 3983      6C6500
 3984              	.LASF8:
 3985 01c7 5F5F7569 		.ascii	"__uint32_t\000"
 3985      6E743332 
ARM GAS  /tmp/ccuecsUq.s 			page 72


 3985      5F7400
 3986              	.LASF38:
 3987 01d2 75536869 		.ascii	"uShift\000"
 3987      667400
 3988              	.LASF12:
 3989 01d9 756E7369 		.ascii	"unsigned int\000"
 3989      676E6564 
 3989      20696E74 
 3989      00
 3990              	.LASF41:
 3991 01e6 2F686F6D 		.ascii	"/home/sbcu/Dropbox/pcb-layouts/axo-on-discovery-boa"
 3991      652F7362 
 3991      63752F44 
 3991      726F7062 
 3991      6F782F70 
 3992 0219 72642F61 		.ascii	"rd/axoloti/platform_linux/../CMSIS//DSP_Lib/Source/"
 3992      786F6C6F 
 3992      74692F70 
 3992      6C617466 
 3992      6F726D5F 
 3993 024c 46696C74 		.ascii	"FilteringFunctions/arm_biquad_cascade_df1_32x64_q31"
 3993      6572696E 
 3993      6746756E 
 3993      6374696F 
 3993      6E732F61 
 3994 027f 2E6300   		.ascii	".c\000"
 3995              	.LASF0:
 3996 0282 6C6F6E67 		.ascii	"long long unsigned int\000"
 3996      206C6F6E 
 3996      6720756E 
 3996      7369676E 
 3996      65642069 
 3997              	.LASF13:
 3998 0299 75696E74 		.ascii	"uint8_t\000"
 3998      385F7400 
 3999              	.LASF23:
 4000 02a1 7136335F 		.ascii	"q63_t\000"
 4000      7400
 4001              	.LASF42:
 4002 02a7 6D756C74 		.ascii	"mult32x64\000"
 4002      33327836 
 4002      3400
 4003              	.LASF14:
 4004 02b1 696E7433 		.ascii	"int32_t\000"
 4004      325F7400 
 4005              	.LASF17:
 4006 02b9 73697A65 		.ascii	"sizetype\000"
 4006      74797065 
 4006      00
 4007              	.LASF11:
 4008 02c2 6C6F6E67 		.ascii	"long long int\000"
 4008      206C6F6E 
 4008      6720696E 
 4008      7400
 4009              	.LASF18:
 4010 02d0 63686172 		.ascii	"char\000"
 4010      00
ARM GAS  /tmp/ccuecsUq.s 			page 73


 4011              	.LASF3:
 4012 02d5 73686F72 		.ascii	"short int\000"
 4012      7420696E 
 4012      7400
 4013              	.LASF36:
 4014 02df 6163635F 		.ascii	"acc_l\000"
 4014      6C00
 4015              	.LASF37:
 4016 02e5 6163635F 		.ascii	"acc_h\000"
 4016      6800
 4017              	.LASF26:
 4018 02eb 70436F65 		.ascii	"pCoeffs\000"
 4018      66667300 
 4019              	.LASF15:
 4020 02f3 75696E74 		.ascii	"uint32_t\000"
 4020      33325F74 
 4020      00
 4021              	.LASF34:
 4022 02fc 73616D70 		.ascii	"sample\000"
 4022      6C6500
 4023              	.LASF43:
 4024 0303 61726D5F 		.ascii	"arm_biquad_cas_df1_32x64_q31\000"
 4024      62697175 
 4024      61645F63 
 4024      61735F64 
 4024      66315F33 
 4025              	.LASF21:
 4026 0320 6C6F6E67 		.ascii	"long double\000"
 4026      20646F75 
 4026      626C6500 
 4027              	.LASF1:
 4028 032c 7369676E 		.ascii	"signed char\000"
 4028      65642063 
 4028      68617200 
 4029              	.LASF29:
 4030 0338 70537263 		.ascii	"pSrc\000"
 4030      00
 4031              	.LASF24:
 4032 033d 6E756D53 		.ascii	"numStages\000"
 4032      74616765 
 4032      7300
 4033              		.ident	"GCC: (GNU Tools for ARM Embedded Processors) 4.9.3 20150529 (release) [ARM/embedded-4_9-br
ARM GAS  /tmp/ccuecsUq.s 			page 74


DEFINED SYMBOLS
                            *ABS*:00000000 arm_biquad_cascade_df1_32x64_q31.c
     /tmp/ccuecsUq.s:20     .text:00000000 $t
     /tmp/ccuecsUq.s:26     .text:00000000 arm_biquad_cas_df1_32x64_q31
                     .debug_frame:00000010 $d

NO UNDEFINED SYMBOLS
