ARM GAS  /tmp/ccKvCWNF.s 			page 1


   1              		.syntax unified
   2              		.cpu cortex-m4
   3              		.eabi_attribute 27, 1
   4              		.eabi_attribute 28, 1
   5              		.fpu fpv4-sp-d16
   6              		.eabi_attribute 20, 1
   7              		.eabi_attribute 21, 1
   8              		.eabi_attribute 23, 3
   9              		.eabi_attribute 24, 1
  10              		.eabi_attribute 25, 1
  11              		.eabi_attribute 26, 1
  12              		.eabi_attribute 30, 2
  13              		.eabi_attribute 34, 1
  14              		.eabi_attribute 18, 4
  15              		.thumb
  16              		.file	"arm_biquad_cascade_df1_q31.c"
  17              		.text
  18              	.Ltext0:
  19              		.cfi_sections	.debug_frame
  20              		.align	2
  21              		.p2align 4,,15
  22              		.global	arm_biquad_cascade_df1_q31
  23              		.thumb
  24              		.thumb_func
  25              		.type	arm_biquad_cascade_df1_q31, %function
  26              	arm_biquad_cascade_df1_q31:
  27              	.LFB135:
  28              		.file 1 "/home/sbcu/Dropbox/pcb-layouts/axo-on-discovery-board/axoloti/platform_linux/../CMSIS//DS
  29              		.loc 1 79 0
  30              		.cfi_startproc
  31              		@ args = 0, pretend = 0, frame = 80
  32              		@ frame_needed = 0, uses_anonymous_args = 0
  33              	.LVL0:
  34 0000 2DE9F04F 		push	{r4, r5, r6, r7, r8, r9, r10, fp, lr}
  35              		.cfi_def_cfa_offset 36
  36              		.cfi_offset 4, -36
  37              		.cfi_offset 5, -32
  38              		.cfi_offset 6, -28
  39              		.cfi_offset 7, -24
  40              		.cfi_offset 8, -20
  41              		.cfi_offset 9, -16
  42              		.cfi_offset 10, -12
  43              		.cfi_offset 11, -8
  44              		.cfi_offset 14, -4
  45              		.loc 1 81 0
  46 0004 067B     		ldrb	r6, [r0, #12]	@ zero_extendqisi2
  47              		.loc 1 90 0
  48 0006 31C8     		ldmia	r0, {r0, r4, r5}
  49              	.LVL1:
  50              		.loc 1 79 0
  51 0008 95B0     		sub	sp, sp, #84
  52              		.cfi_def_cfa_offset 120
  53              		.loc 1 82 0
  54 000a C6F11F0E 		rsb	lr, r6, #31
  55              		.loc 1 90 0
  56 000e 0D90     		str	r0, [sp, #52]
  57 0010 9808     		lsrs	r0, r3, #2
ARM GAS  /tmp/ccKvCWNF.s 			page 2


  58 0012 03F00303 		and	r3, r3, #3
  59              	.LVL2:
  60 0016 0F90     		str	r0, [sp, #60]
  61 0018 1093     		str	r3, [sp, #64]
  62 001a 0001     		lsls	r0, r0, #4
  63 001c 1346     		mov	r3, r2
  64 001e 0344     		add	r3, r3, r0
  65              		.loc 1 79 0
  66 0020 0A91     		str	r1, [sp, #40]
  67 0022 1393     		str	r3, [sp, #76]
  68              		.loc 1 81 0
  69 0024 711C     		adds	r1, r6, #1
  70              	.LVL3:
  71 0026 05F11403 		add	r3, r5, #20
  72 002a 1191     		str	r1, [sp, #68]
  73              	.LVL4:
  74 002c 0B93     		str	r3, [sp, #44]
  75 002e CEF12001 		rsb	r1, lr, #32
  76              	.LVL5:
  77 0032 04F11003 		add	r3, r4, #16
  78              		.loc 1 79 0
  79 0036 0E92     		str	r2, [sp, #56]
  80 0038 1290     		str	r0, [sp, #72]
  81 003a 0991     		str	r1, [sp, #36]
  82 003c 0C93     		str	r3, [sp, #48]
  83 003e F346     		mov	fp, lr
  84              	.LVL6:
  85              	.L7:
  86              		.loc 1 102 0
  87 0040 0B9A     		ldr	r2, [sp, #44]
  88 0042 52F8143C 		ldr	r3, [r2, #-20]
  89 0046 0493     		str	r3, [sp, #16]
  90              	.LVL7:
  91              		.loc 1 103 0
  92 0048 1346     		mov	r3, r2
  93              	.LVL8:
  94 004a 52F8102C 		ldr	r2, [r2, #-16]
  95 004e 0192     		str	r2, [sp, #4]
  96              	.LVL9:
  97              		.loc 1 104 0
  98 0050 1A46     		mov	r2, r3
  99              	.LVL10:
 100 0052 53F80C3C 		ldr	r3, [r3, #-12]
 101 0056 0293     		str	r3, [sp, #8]
 102              	.LVL11:
 103              		.loc 1 105 0
 104 0058 52F8083C 		ldr	r3, [r2, #-8]
 105              	.LVL12:
 106 005c 0793     		str	r3, [sp, #28]
 107 005e 1F46     		mov	r7, r3
 108              	.LVL13:
 109              		.loc 1 106 0
 110 0060 52F8043C 		ldr	r3, [r2, #-4]
 111              	.LVL14:
 112              		.loc 1 109 0
 113 0064 0C9A     		ldr	r2, [sp, #48]
 114              		.loc 1 106 0
ARM GAS  /tmp/ccKvCWNF.s 			page 3


 115 0066 0893     		str	r3, [sp, #32]
 116 0068 1C46     		mov	r4, r3
 117              	.LVL15:
 118              		.loc 1 109 0
 119 006a 52F810EC 		ldr	lr, [r2, #-16]
 120              	.LVL16:
 121              		.loc 1 110 0
 122 006e 52F80CAC 		ldr	r10, [r2, #-12]
 123              	.LVL17:
 124              		.loc 1 112 0
 125 0072 12E92800 		ldmdb	r2, {r3, r5}
 126              	.LVL18:
 127              		.loc 1 124 0
 128 0076 0F9A     		ldr	r2, [sp, #60]
 129 0078 002A     		cmp	r2, #0
 130 007a 00F0CD80 		beq	.L8
 131 007e 0A99     		ldr	r1, [sp, #40]
 132 0080 DDF844C0 		ldr	ip, [sp, #68]
 133 0084 0592     		str	r2, [sp, #20]
 134 0086 01F11006 		add	r6, r1, #16
 135 008a 0E99     		ldr	r1, [sp, #56]
 136 008c 01F11000 		add	r0, r1, #16
 137 0090 A146     		mov	r9, r4
 138 0092 B046     		mov	r8, r6
 139 0094 5446     		mov	r4, r10
 140              	.LVL19:
 141 0096 0390     		str	r0, [sp, #12]
 142 0098 BA46     		mov	r10, r7
 143              	.LVL20:
 144              	.L3:
 145              		.loc 1 127 0
 146 009a 58F8102C 		ldr	r2, [r8, #-16]
 147              	.LVL21:
 148              		.loc 1 132 0
 149 009e 0499     		ldr	r1, [sp, #16]
 150              		.loc 1 127 0
 151 00a0 1046     		mov	r0, r2
 152              		.loc 1 134 0
 153 00a2 019A     		ldr	r2, [sp, #4]
 154              	.LVL22:
 155              		.loc 1 164 0
 156 00a4 0690     		str	r0, [sp, #24]
 157              		.loc 1 132 0
 158 00a6 80FB0167 		smull	r6, r7, r0, r1
 159              	.LVL23:
 160              		.loc 1 134 0
 161 00aa C2FB0E67 		smlal	r6, r7, r2, lr
 162              	.LVL24:
 163              		.loc 1 136 0
 164 00ae 029A     		ldr	r2, [sp, #8]
 165 00b0 C2FB0467 		smlal	r6, r7, r2, r4
 166              	.LVL25:
 167              		.loc 1 138 0
 168 00b4 CAFB0367 		smlal	r6, r7, r10, r3
 169              	.LVL26:
 170              		.loc 1 140 0
 171 00b8 C9FB0567 		smlal	r6, r7, r9, r5
ARM GAS  /tmp/ccKvCWNF.s 			page 4


 172              	.LVL27:
 173              		.loc 1 151 0
 174 00bc 07FA0CF2 		lsl	r2, r7, ip
 175 00c0 26FA0BF6 		lsr	r6, r6, fp
 176              	.LVL28:
 177 00c4 42EA0607 		orr	r7, r2, r6
 178              	.LVL29:
 179              		.loc 1 154 0
 180 00c8 039A     		ldr	r2, [sp, #12]
 181 00ca 42F8107C 		str	r7, [r2, #-16]
 182              	.LVL30:
 183              		.loc 1 157 0
 184 00ce 58F80C6C 		ldr	r6, [r8, #-12]
 185              	.LVL31:
 186              		.loc 1 162 0
 187 00d2 0A46     		mov	r2, r1
 188 00d4 86FB0145 		smull	r4, r5, r6, r1
 189              	.LVL32:
 190              		.loc 1 164 0
 191 00d8 0199     		ldr	r1, [sp, #4]
 192 00da C1FB0045 		smlal	r4, r5, r1, r0
 193              	.LVL33:
 194              		.loc 1 166 0
 195 00de 0299     		ldr	r1, [sp, #8]
 196              		.loc 1 186 0
 197 00e0 0398     		ldr	r0, [sp, #12]
 198              	.LVL34:
 199              		.loc 1 166 0
 200 00e2 C1FB0E45 		smlal	r4, r5, r1, lr
 201              	.LVL35:
 202              		.loc 1 168 0
 203 00e6 CAFB0745 		smlal	r4, r5, r10, r7
 204              	.LVL36:
 205              		.loc 1 170 0
 206 00ea C9FB0345 		smlal	r4, r5, r9, r3
 207              	.LVL37:
 208              		.loc 1 183 0
 209 00ee 05FA0CF3 		lsl	r3, r5, ip
 210              	.LVL38:
 211 00f2 24FA0BF4 		lsr	r4, r4, fp
 212              	.LVL39:
 213 00f6 43EA0401 		orr	r1, r3, r4
 214              	.LVL40:
 215              		.loc 1 186 0
 216 00fa 40F80C1C 		str	r1, [r0, #-12]
 217              	.LVL41:
 218              		.loc 1 189 0
 219 00fe 58F8084C 		ldr	r4, [r8, #-8]
 220              	.LVL42:
 221              		.loc 1 196 0
 222 0102 019D     		ldr	r5, [sp, #4]
 223              	.LVL43:
 224              		.loc 1 194 0
 225 0104 84FB0223 		smull	r2, r3, r4, r2
 226              	.LVL44:
 227              		.loc 1 196 0
 228 0108 C5FB0623 		smlal	r2, r3, r5, r6
ARM GAS  /tmp/ccKvCWNF.s 			page 5


 229              	.LVL45:
 230              		.loc 1 198 0
 231 010c 069D     		ldr	r5, [sp, #24]
 232 010e 2846     		mov	r0, r5
 233 0110 029D     		ldr	r5, [sp, #8]
 234 0112 C5FB0023 		smlal	r2, r3, r5, r0
 235              	.LVL46:
 236              		.loc 1 200 0
 237 0116 CAFB0123 		smlal	r2, r3, r10, r1
 238              	.LVL47:
 239              		.loc 1 202 0
 240 011a C9FB0723 		smlal	r2, r3, r9, r7
 241              	.LVL48:
 242              		.loc 1 213 0
 243 011e 03FA0CF3 		lsl	r3, r3, ip
 244              	.LVL49:
 245 0122 22FA0BF2 		lsr	r2, r2, fp
 246              	.LVL50:
 247 0126 43EA0205 		orr	r5, r3, r2
 248              	.LVL51:
 249              		.loc 1 216 0
 250 012a 039B     		ldr	r3, [sp, #12]
 251              		.loc 1 226 0
 252 012c 019F     		ldr	r7, [sp, #4]
 253              	.LVL52:
 254              		.loc 1 216 0
 255 012e 43F8085C 		str	r5, [r3, #-8]
 256              	.LVL53:
 257              		.loc 1 219 0
 258 0132 58F804EC 		ldr	lr, [r8, #-4]
 259              	.LVL54:
 260              		.loc 1 224 0
 261 0136 049B     		ldr	r3, [sp, #16]
 262              	.LVL55:
 263 0138 8EFB0323 		smull	r2, r3, lr, r3
 264              	.LVL56:
 265              		.loc 1 226 0
 266 013c C7FB0423 		smlal	r2, r3, r7, r4
 267              	.LVL57:
 268              		.loc 1 228 0
 269 0140 029F     		ldr	r7, [sp, #8]
 270 0142 C7FB0623 		smlal	r2, r3, r7, r6
 271              	.LVL58:
 272              		.loc 1 230 0
 273 0146 CAFB0523 		smlal	r2, r3, r10, r5
 274              	.LVL59:
 275              		.loc 1 232 0
 276 014a C9FB0123 		smlal	r2, r3, r9, r1
 277              	.LVL60:
 278              		.loc 1 242 0
 279 014e 22FA0BF2 		lsr	r2, r2, fp
 280              	.LVL61:
 281 0152 03FA0CF1 		lsl	r1, r3, ip
 282              	.LVL62:
 283 0156 41EA0203 		orr	r3, r1, r2
 284              	.LVL63:
 285              		.loc 1 254 0
ARM GAS  /tmp/ccKvCWNF.s 			page 6


 286 015a 039A     		ldr	r2, [sp, #12]
 287 015c 42F8043C 		str	r3, [r2, #-4]
 288 0160 1032     		adds	r2, r2, #16
 289 0162 0392     		str	r2, [sp, #12]
 290              	.LVL64:
 291              		.loc 1 124 0
 292 0164 059A     		ldr	r2, [sp, #20]
 293              	.LVL65:
 294 0166 013A     		subs	r2, r2, #1
 295              	.LVL66:
 296 0168 08F11008 		add	r8, r8, #16
 297              	.LVL67:
 298 016c 0592     		str	r2, [sp, #20]
 299 016e 94D1     		bne	.L3
 300 0170 0A9A     		ldr	r2, [sp, #40]
 301              	.LVL68:
 302 0172 1299     		ldr	r1, [sp, #72]
 303              		.loc 1 254 0
 304 0174 139E     		ldr	r6, [sp, #76]
 305              	.LVL69:
 306 0176 0A44     		add	r2, r2, r1
 307 0178 A246     		mov	r10, r4
 308              	.LVL70:
 309 017a 0A92     		str	r2, [sp, #40]
 310              	.LVL71:
 311              	.L2:
 312              		.loc 1 264 0
 313 017c 109A     		ldr	r2, [sp, #64]
 314 017e 002A     		cmp	r2, #0
 315 0180 45D0     		beq	.L9
 316 0182 0392     		str	r2, [sp, #12]
 317 0184 0A9F     		ldr	r7, [sp, #40]
 318 0186 01E0     		b	.L6
 319              	.LVL72:
 320              	.L10:
 321              		.loc 1 294 0
 322 0188 6346     		mov	r3, ip
 323              	.LVL73:
 324              		.loc 1 267 0
 325 018a A646     		mov	lr, r4
 326              	.LVL74:
 327              	.L6:
 328 018c 57F8044B 		ldr	r4, [r7], #4
 329              	.LVL75:
 330              		.loc 1 272 0
 331 0190 0499     		ldr	r1, [sp, #16]
 332              		.loc 1 274 0
 333 0192 019A     		ldr	r2, [sp, #4]
 334              		.loc 1 272 0
 335 0194 84FB0101 		smull	r0, r1, r4, r1
 336              	.LVL76:
 337              		.loc 1 274 0
 338 0198 C2FB0E01 		smlal	r0, r1, r2, lr
 339              	.LVL77:
 340              		.loc 1 276 0
 341 019c 029A     		ldr	r2, [sp, #8]
 342 019e C2FB0A01 		smlal	r0, r1, r2, r10
ARM GAS  /tmp/ccKvCWNF.s 			page 7


 343              	.LVL78:
 344              		.loc 1 278 0
 345 01a2 079A     		ldr	r2, [sp, #28]
 346 01a4 C2FB0301 		smlal	r0, r1, r2, r3
 347              	.LVL79:
 348              		.loc 1 280 0
 349 01a8 089A     		ldr	r2, [sp, #32]
 350 01aa C2FB0501 		smlal	r0, r1, r2, r5
 351              	.LVL80:
 352              		.loc 1 283 0
 353 01ae 099A     		ldr	r2, [sp, #36]
 354 01b0 BBF12008 		subs	r8, fp, #32
 355 01b4 01FA02F9 		lsl	r9, r1, r2
 356 01b8 20FA0BFC 		lsr	ip, r0, fp
 357              		.loc 1 264 0
 358 01bc 039A     		ldr	r2, [sp, #12]
 359              		.loc 1 283 0
 360 01be 4CEA090C 		orr	ip, ip, r9
 361 01c2 5CBF     		itt	pl
 362 01c4 41FA08F8 		asrpl	r8, r1, r8
 363 01c8 4CEA080C 		orrpl	ip, ip, r8
 364              		.loc 1 264 0
 365 01cc 013A     		subs	r2, r2, #1
 366 01ce F246     		mov	r10, lr
 367 01d0 1D46     		mov	r5, r3
 368              		.loc 1 297 0
 369 01d2 46F804CB 		str	ip, [r6], #4
 370              	.LVL81:
 371              		.loc 1 294 0
 372 01d6 6146     		mov	r1, ip
 373              	.LVL82:
 374              		.loc 1 264 0
 375 01d8 0392     		str	r2, [sp, #12]
 376 01da D5D1     		bne	.L10
 377              	.LVL83:
 378              	.L4:
 379              		.loc 1 311 0
 380 01dc 0C98     		ldr	r0, [sp, #48]
 381              		.loc 1 314 0
 382 01de 40F8043C 		str	r3, [r0, #-4]
 383 01e2 0B9B     		ldr	r3, [sp, #44]
 384              	.LVL84:
 385              		.loc 1 311 0
 386 01e4 40F8104C 		str	r4, [r0, #-16]
 387              	.LVL85:
 388 01e8 1433     		adds	r3, r3, #20
 389 01ea 0B93     		str	r3, [sp, #44]
 390              	.LVL86:
 391 01ec 00F11003 		add	r3, r0, #16
 392 01f0 0C93     		str	r3, [sp, #48]
 393              	.LVL87:
 394              		.loc 1 305 0
 395 01f2 0E9B     		ldr	r3, [sp, #56]
 396 01f4 0A93     		str	r3, [sp, #40]
 397              		.loc 1 316 0
 398 01f6 0D9B     		ldr	r3, [sp, #52]
 399              		.loc 1 312 0
ARM GAS  /tmp/ccKvCWNF.s 			page 8


 400 01f8 40F80CEC 		str	lr, [r0, #-12]
 401              		.loc 1 316 0
 402 01fc 013B     		subs	r3, r3, #1
 403              		.loc 1 313 0
 404 01fe 40F8081C 		str	r1, [r0, #-8]
 405              	.LVL88:
 406              		.loc 1 316 0
 407 0202 0D93     		str	r3, [sp, #52]
 408 0204 7FF41CAF 		bne	.L7
 409              		.loc 1 398 0
 410 0208 15B0     		add	sp, sp, #84
 411              		.cfi_remember_state
 412              		.cfi_def_cfa_offset 36
 413              		@ sp needed
 414 020a BDE8F08F 		pop	{r4, r5, r6, r7, r8, r9, r10, fp, pc}
 415              	.LVL89:
 416              	.L9:
 417              		.cfi_restore_state
 418              		.loc 1 264 0
 419 020e 1946     		mov	r1, r3
 420 0210 7446     		mov	r4, lr
 421 0212 2B46     		mov	r3, r5
 422              	.LVL90:
 423 0214 D646     		mov	lr, r10
 424              	.LVL91:
 425 0216 E1E7     		b	.L4
 426              	.LVL92:
 427              	.L8:
 428              		.loc 1 124 0
 429 0218 0E9E     		ldr	r6, [sp, #56]
 430 021a AFE7     		b	.L2
 431              		.cfi_endproc
 432              	.LFE135:
 433              		.size	arm_biquad_cascade_df1_q31, .-arm_biquad_cascade_df1_q31
 434              	.Letext0:
 435              		.file 2 "/home/sbcu/Dropbox/pcb-layouts/axo-on-discovery-board/axoloti/platform_linux/arm-none-eab
 436              		.file 3 "/home/sbcu/Dropbox/pcb-layouts/axo-on-discovery-board/axoloti/platform_linux/arm-none-eab
 437              		.file 4 "/home/sbcu/Dropbox/pcb-layouts/axo-on-discovery-board/axoloti/platform_linux/../CMSIS//DS