ARM GAS  /tmp/ccgzYC7g.s 			page 1


   1              		.syntax unified
   2              		.cpu cortex-m4
   3              		.eabi_attribute 27, 1
   4              		.eabi_attribute 28, 1
   5              		.fpu fpv4-sp-d16
   6              		.eabi_attribute 20, 1
   7              		.eabi_attribute 21, 1
   8              		.eabi_attribute 23, 3
   9              		.eabi_attribute 24, 1
  10              		.eabi_attribute 25, 1
  11              		.eabi_attribute 26, 1
  12              		.eabi_attribute 30, 2
  13              		.eabi_attribute 34, 1
  14              		.eabi_attribute 18, 4
  15              		.thumb
  16              		.file	"arm_fir_lattice_init_q31.c"
  17              		.text
  18              	.Ltext0:
  19              		.cfi_sections	.debug_frame
  20              		.align	2
  21              		.p2align 4,,15
  22              		.global	arm_fir_lattice_init_q31
  23              		.thumb
  24              		.thumb_func
  25              		.type	arm_fir_lattice_init_q31, %function
  26              	arm_fir_lattice_init_q31:
  27              	.LFB135:
  28              		.file 1 "/home/sbcu/Dropbox/pcb-layouts/axo-on-discovery-board/axoloti/platform_linux/../CMSIS//DS
  29              		.loc 1 66 0
  30              		.cfi_startproc
  31              		@ args = 0, pretend = 0, frame = 0
  32              		@ frame_needed = 0, uses_anonymous_args = 0
  33              	.LVL0:
  34 0000 38B5     		push	{r3, r4, r5, lr}
  35              		.cfi_def_cfa_offset 16
  36              		.cfi_offset 3, -16
  37              		.cfi_offset 4, -12
  38              		.cfi_offset 5, -8
  39              		.cfi_offset 14, -4
  40              		.loc 1 66 0
  41 0002 0446     		mov	r4, r0
  42              		.loc 1 71 0
  43 0004 8260     		str	r2, [r0, #8]
  44              		.loc 1 68 0
  45 0006 0180     		strh	r1, [r0]	@ movhi
  46              		.loc 1 66 0
  47 0008 1D46     		mov	r5, r3
  48              		.loc 1 74 0
  49 000a 8A00     		lsls	r2, r1, #2
  50              	.LVL1:
  51 000c 1846     		mov	r0, r3
  52              	.LVL2:
  53 000e 0021     		movs	r1, #0
  54              	.LVL3:
  55 0010 FFF7FEFF 		bl	memset
  56              	.LVL4:
  57              		.loc 1 77 0
ARM GAS  /tmp/ccgzYC7g.s 			page 2


  58 0014 6560     		str	r5, [r4, #4]
  59 0016 38BD     		pop	{r3, r4, r5, pc}
  60              		.cfi_endproc
  61              	.LFE135:
  62              		.size	arm_fir_lattice_init_q31, .-arm_fir_lattice_init_q31
  63              	.Letext0:
  64              		.file 2 "/home/sbcu/Dropbox/pcb-layouts/axo-on-discovery-board/axoloti/platform_linux/arm-none-eab
  65              		.file 3 "/home/sbcu/Dropbox/pcb-layouts/axo-on-discovery-board/axoloti/platform_linux/arm-none-eab
  66              		.file 4 "/home/sbcu/Dropbox/pcb-layouts/axo-on-discovery-board/axoloti/platform_linux/../CMSIS//DS