ARM GAS  /tmp/cc7zX4Bu.s 			page 1


   1              		.syntax unified
   2              		.cpu cortex-m4
   3              		.eabi_attribute 27, 1
   4              		.eabi_attribute 28, 1
   5              		.fpu fpv4-sp-d16
   6              		.eabi_attribute 20, 1
   7              		.eabi_attribute 21, 1
   8              		.eabi_attribute 23, 3
   9              		.eabi_attribute 24, 1
  10              		.eabi_attribute 25, 1
  11              		.eabi_attribute 26, 1
  12              		.eabi_attribute 30, 2
  13              		.eabi_attribute 34, 1
  14              		.eabi_attribute 18, 4
  15              		.thumb
  16              		.file	"arm_fir_decimate_init_q31.c"
  17              		.text
  18              	.Ltext0:
  19              		.cfi_sections	.debug_frame
  20              		.align	2
  21              		.p2align 4,,15
  22              		.global	arm_fir_decimate_init_q31
  23              		.thumb
  24              		.thumb_func
  25              		.type	arm_fir_decimate_init_q31, %function
  26              	arm_fir_decimate_init_q31:
  27              	.LFB135:
  28              		.file 1 "/home/sbcu/Dropbox/pcb-layouts/axo-on-discovery-board/axoloti/platform_linux/../CMSIS//DS
  29              		.loc 1 82 0
  30              		.cfi_startproc
  31              		@ args = 8, pretend = 0, frame = 0
  32              		@ frame_needed = 0, uses_anonymous_args = 0
  33              	.LVL0:
  34 0000 F8B5     		push	{r3, r4, r5, r6, r7, lr}
  35              		.cfi_def_cfa_offset 24
  36              		.cfi_offset 3, -24
  37              		.cfi_offset 4, -20
  38              		.cfi_offset 5, -16
  39              		.cfi_offset 6, -12
  40              		.cfi_offset 7, -8
  41              		.cfi_offset 14, -4
  42              		.loc 1 82 0
  43 0002 079D     		ldr	r5, [sp, #28]
  44              		.loc 1 86 0
  45 0004 B5FBF2F4 		udiv	r4, r5, r2
  46 0008 02FB1454 		mls	r4, r2, r4, r5
  47              		.loc 1 82 0
  48 000c 1746     		mov	r7, r2
  49              		.loc 1 86 0
  50 000e 8CB9     		cbnz	r4, .L3
  51 0010 01F18042 		add	r2, r1, #1073741824
  52              	.LVL1:
  53 0014 013A     		subs	r2, r2, #1
  54              		.loc 1 100 0
  55 0016 2A44     		add	r2, r2, r5
  56 0018 0646     		mov	r6, r0
  57              		.loc 1 94 0
ARM GAS  /tmp/cc7zX4Bu.s 			page 2


  58 001a 4180     		strh	r1, [r0, #2]	@ movhi
  59              		.loc 1 97 0
  60 001c 4360     		str	r3, [r0, #4]
  61              		.loc 1 100 0
  62 001e 9200     		lsls	r2, r2, #2
  63 0020 0698     		ldr	r0, [sp, #24]
  64              	.LVL2:
  65 0022 2146     		mov	r1, r4
  66              	.LVL3:
  67 0024 FFF7FEFF 		bl	memset
  68              	.LVL4:
  69              		.loc 1 103 0
  70 0028 069B     		ldr	r3, [sp, #24]
  71 002a B360     		str	r3, [r6, #8]
  72              		.loc 1 106 0
  73 002c 3770     		strb	r7, [r6]
  74              	.LVL5:
  75              		.loc 1 108 0
  76 002e 2046     		mov	r0, r4
  77              	.LVL6:
  78              	.L2:
  79              		.loc 1 113 0
  80 0030 40B2     		sxtb	r0, r0
  81 0032 F8BD     		pop	{r3, r4, r5, r6, r7, pc}
  82              	.LVL7:
  83              	.L3:
  84              		.loc 1 89 0
  85 0034 FE20     		movs	r0, #254
  86              	.LVL8:
  87 0036 FBE7     		b	.L2
  88              		.cfi_endproc
  89              	.LFE135:
  90              		.size	arm_fir_decimate_init_q31, .-arm_fir_decimate_init_q31
  91              	.Letext0:
  92              		.file 2 "/home/sbcu/Dropbox/pcb-layouts/axo-on-discovery-board/axoloti/platform_linux/arm-none-eab
  93              		.file 3 "/home/sbcu/Dropbox/pcb-layouts/axo-on-discovery-board/axoloti/platform_linux/arm-none-eab
  94              		.file 4 "/home/sbcu/Dropbox/pcb-layouts/axo-on-discovery-board/axoloti/platform_linux/../CMSIS//DS