ARM GAS  /tmp/ccUWoync.s 			page 1


   1              		.syntax unified
   2              		.cpu cortex-m4
   3              		.eabi_attribute 27, 1
   4              		.eabi_attribute 28, 1
   5              		.fpu fpv4-sp-d16
   6              		.eabi_attribute 20, 1
   7              		.eabi_attribute 21, 1
   8              		.eabi_attribute 23, 3
   9              		.eabi_attribute 24, 1
  10              		.eabi_attribute 25, 1
  11              		.eabi_attribute 26, 1
  12              		.eabi_attribute 30, 2
  13              		.eabi_attribute 34, 1
  14              		.eabi_attribute 18, 4
  15              		.thumb
  16              		.file	"arm_rfft_q15.c"
  17              		.text
  18              	.Ltext0:
  19              		.cfi_sections	.debug_frame
  20              		.align	2
  21              		.p2align 4,,15
  22              		.global	arm_split_rfft_q15
  23              		.thumb
  24              		.thumb_func
  25              		.type	arm_split_rfft_q15, %function
  26              	arm_split_rfft_q15:
  27              	.LFB136:
  28              		.file 1 "/home/sbcu/Dropbox/pcb-layouts/axo-on-discovery-board/axoloti/platform_linux/../CMSIS//DS
  29              		.loc 1 147 0
  30              		.cfi_startproc
  31              		@ args = 8, pretend = 0, frame = 8
  32              		@ frame_needed = 0, uses_anonymous_args = 0
  33              	.LVL0:
  34 0000 2DE9F04F 		push	{r4, r5, r6, r7, r8, r9, r10, fp, lr}
  35              		.cfi_def_cfa_offset 36
  36              		.cfi_offset 4, -36
  37              		.cfi_offset 5, -32
  38              		.cfi_offset 6, -28
  39              		.cfi_offset 7, -24
  40              		.cfi_offset 8, -20
  41              		.cfi_offset 9, -16
  42              		.cfi_offset 10, -12
  43              		.cfi_offset 11, -8
  44              		.cfi_offset 14, -4
  45 0004 83B0     		sub	sp, sp, #12
  46              		.cfi_def_cfa_offset 48
  47              		.loc 1 163 0
  48 0006 01F18044 		add	r4, r1, #1073741824
  49              		.loc 1 147 0
  50 000a 0D9D     		ldr	r5, [sp, #52]
  51 000c 0190     		str	r0, [sp, #4]
  52              		.loc 1 163 0
  53 000e 013C     		subs	r4, r4, #1
  54              		.loc 1 159 0
  55 0010 4FEA850A 		lsl	r10, r5, #2
  56              		.loc 1 163 0
  57 0014 A000     		lsls	r0, r4, #2
ARM GAS  /tmp/ccUWoync.s 			page 2


  58              	.LVL1:
  59              		.loc 1 170 0
  60 0016 4FEAC10E 		lsl	lr, r1, #3
  61              		.loc 1 172 0
  62 001a 0139     		subs	r1, r1, #1
  63              	.LVL2:
  64              		.loc 1 163 0
  65 001c 0090     		str	r0, [sp]
  66              		.loc 1 159 0
  67 001e 5244     		add	r2, r2, r10
  68              	.LVL3:
  69              		.loc 1 160 0
  70 0020 5344     		add	r3, r3, r10
  71              	.LVL4:
  72              		.loc 1 172 0
  73 0022 30D0     		beq	.L4
  74 0024 0098     		ldr	r0, [sp]
  75 0026 019C     		ldr	r4, [sp, #4]
  76 0028 00F10409 		add	r9, r0, #4
  77 002c 0C98     		ldr	r0, [sp, #48]
  78              	.LVL5:
  79 002e AEF1080E 		sub	lr, lr, #8
  80              	.LVL6:
  81 0032 8644     		add	lr, lr, r0
  82              	.LVL7:
  83 0034 0C98     		ldr	r0, [sp, #48]
  84 0036 A144     		add	r9, r9, r4
  85 0038 00F10808 		add	r8, r0, #8
  86 003c A346     		mov	fp, r4
  87 003e 4FF0000C 		mov	ip, #0
  88              	.LVL8:
  89              	.L3:
  90              		.loc 1 188 0 discriminator 3
  91 0042 5BF8044F 		ldr	r4, [fp, #4]!
  92              	.LVL9:
  93 0046 52F80C00 		ldr	r0, [r2, ip]
  94              	.LVL10:
  95              	.LBB18:
  96              	.LBB19:
  97              		.file 2 "/home/sbcu/Dropbox/pcb-layouts/axo-on-discovery-board/axoloti/platform_linux/../CMSIS//In
  98              		.loc 2 1771 0 discriminator 3
  99              	@ 1771 "/home/sbcu/Dropbox/pcb-layouts/axo-on-discovery-board/axoloti/platform_linux/../CMSIS//Incl
 100 004a 44FB00F5 		smusd r5, r4, r0
 101              	@ 0 "" 2
 102              	.LVL11:
 103              		.thumb
 104              	.LBE19:
 105              	.LBE18:
 106              		.loc 1 199 0 discriminator 3
 107 004e 59F8046D 		ldr	r6, [r9, #-4]!
 108              	.LVL12:
 109 0052 53F80C70 		ldr	r7, [r3, ip]
 110              	.LVL13:
 111              	.LBB20:
 112              	.LBB21:
 113              		.loc 2 1721 0 discriminator 3
 114              	@ 1721 "/home/sbcu/Dropbox/pcb-layouts/axo-on-discovery-board/axoloti/platform_linux/../CMSIS//Incl
ARM GAS  /tmp/ccUWoync.s 			page 3


 115 0056 26FB0755 		smlad r5, r6, r7, r5
 116              	@ 0 "" 2
 117              	.LVL14:
 118              		.thumb
 119              	.LBE21:
 120              	.LBE20:
 121              	.LBB22:
 122              	.LBB23:
 123              		.loc 2 1779 0 discriminator 3
 124              	@ 1779 "/home/sbcu/Dropbox/pcb-layouts/axo-on-discovery-board/axoloti/platform_linux/../CMSIS//Incl
 125 005a 46FB17F6 		smusdx r6, r6, r7
 126              	@ 0 "" 2
 127              	.LVL15:
 128              		.thumb
 129              	.LBE23:
 130              	.LBE22:
 131              	.LBB24:
 132              	.LBB25:
 133              		.loc 2 1729 0 discriminator 3
 134              	@ 1729 "/home/sbcu/Dropbox/pcb-layouts/axo-on-discovery-board/axoloti/platform_linux/../CMSIS//Incl
 135 005e 24FB1060 		smladx r0, r4, r0, r6
 136              	@ 0 "" 2
 137              	.LVL16:
 138              		.thumb
 139              	.LBE25:
 140              	.LBE24:
 141              		.loc 1 219 0 discriminator 3
 142 0062 0014     		asrs	r0, r0, #16
 143              	.LVL17:
 144              		.loc 1 218 0 discriminator 3
 145 0064 2C0C     		lsrs	r4, r5, #16
 146              	.LVL18:
 147              		.loc 1 223 0 discriminator 3
 148 0066 4642     		negs	r6, r0
 149              	.LVL19:
 150              		.loc 1 172 0 discriminator 3
 151 0068 0139     		subs	r1, r1, #1
 152              	.LVL20:
 153              		.loc 1 219 0 discriminator 3
 154 006a 28F8020C 		strh	r0, [r8, #-2]	@ movhi
 155              		.loc 1 218 0 discriminator 3
 156 006e 28F8044C 		strh	r4, [r8, #-4]	@ movhi
 157 0072 D444     		add	ip, ip, r10
 158              	.LVL21:
 159              		.loc 1 223 0 discriminator 3
 160 0074 AEF80660 		strh	r6, [lr, #6]	@ movhi
 161              	.LVL22:
 162              		.loc 1 222 0 discriminator 3
 163 0078 AEF80440 		strh	r4, [lr, #4]	@ movhi
 164 007c 08F10408 		add	r8, r8, #4
 165 0080 AEF1040E 		sub	lr, lr, #4
 166              		.loc 1 172 0 discriminator 3
 167 0084 DDD1     		bne	.L3
 168              	.LVL23:
 169              	.L4:
 170              		.loc 1 231 0
 171 0086 0198     		ldr	r0, [sp, #4]
ARM GAS  /tmp/ccUWoync.s 			page 4


 172 0088 0C9C     		ldr	r4, [sp, #48]
 173 008a B0F90220 		ldrsh	r2, [r0, #2]
 174 008e B0F90030 		ldrsh	r3, [r0]
 175 0092 0099     		ldr	r1, [sp]
 176 0094 9B1A     		subs	r3, r3, r2
 177 0096 2144     		add	r1, r1, r4
 178              		.loc 1 232 0
 179 0098 0022     		movs	r2, #0
 180              		.loc 1 231 0
 181 009a 5B10     		asrs	r3, r3, #1
 182 009c 8B80     		strh	r3, [r1, #4]	@ movhi
 183              		.loc 1 232 0
 184 009e CA80     		strh	r2, [r1, #6]	@ movhi
 185              		.loc 1 234 0
 186 00a0 B0F90010 		ldrsh	r1, [r0]
 187 00a4 B0F90230 		ldrsh	r3, [r0, #2]
 188              		.loc 1 235 0
 189 00a8 6280     		strh	r2, [r4, #2]	@ movhi
 190              		.loc 1 234 0
 191 00aa 0B44     		add	r3, r3, r1
 192 00ac 5B10     		asrs	r3, r3, #1
 193 00ae 2380     		strh	r3, [r4]	@ movhi
 194              		.loc 1 292 0
 195 00b0 03B0     		add	sp, sp, #12
 196              		.cfi_def_cfa_offset 36
 197              		@ sp needed
 198 00b2 BDE8F08F 		pop	{r4, r5, r6, r7, r8, r9, r10, fp, pc}
 199              		.cfi_endproc
 200              	.LFE136:
 201              		.size	arm_split_rfft_q15, .-arm_split_rfft_q15
 202 00b6 00BF     		.align	2
 203 00b8 AFF30080 		.p2align 4,,15
 203      AFF30080 
 204              		.global	arm_split_rifft_q15
 205              		.thumb
 206              		.thumb_func
 207              		.type	arm_split_rifft_q15, %function
 208              	arm_split_rifft_q15:
 209              	.LFB137:
 210              		.loc 1 313 0
 211              		.cfi_startproc
 212              		@ args = 8, pretend = 0, frame = 0
 213              		@ frame_needed = 0, uses_anonymous_args = 0
 214              	.LVL24:
 215 00c0 2DE9F043 		push	{r4, r5, r6, r7, r8, r9, lr}
 216              		.cfi_def_cfa_offset 28
 217              		.cfi_offset 4, -28
 218              		.cfi_offset 5, -24
 219              		.cfi_offset 6, -20
 220              		.cfi_offset 7, -16
 221              		.cfi_offset 8, -12
 222              		.cfi_offset 9, -8
 223              		.cfi_offset 14, -4
 224              		.loc 1 313 0
 225 00c4 DDF81CC0 		ldr	ip, [sp, #28]
 226              	.LVL25:
 227              		.loc 1 324 0
ARM GAS  /tmp/ccUWoync.s 			page 5


 228 00c8 8F00     		lsls	r7, r1, #2
 229              	.LVL26:
 230              		.loc 1 331 0
 231 00ca F1B1     		cbz	r1, .L9
 232 00cc 089C     		ldr	r4, [sp, #32]
 233 00ce 0437     		adds	r7, r7, #4
 234              	.LVL27:
 235 00d0 0744     		add	r7, r7, r0
 236              	.LVL28:
 237 00d2 4FEA840E 		lsl	lr, r4, #2
 238              	.LVL29:
 239              	.L11:
 240              		.loc 1 348 0
 241 00d6 57F8046D 		ldr	r6, [r7, #-4]!
 242              	.LVL30:
 243 00da D3F80090 		ldr	r9, [r3]
 244              	.LVL31:
 245              	.LBB26:
 246              	.LBB27:
 247              		.loc 2 1771 0
 248              	@ 1771 "/home/sbcu/Dropbox/pcb-layouts/axo-on-discovery-board/axoloti/platform_linux/../CMSIS//Incl
 249 00de 46FB09F8 		smusd r8, r6, r9
 250              	@ 0 "" 2
 251              	.LVL32:
 252              		.thumb
 253              	.LBE27:
 254              	.LBE26:
 255              		.loc 1 360 0
 256 00e2 50F8044B 		ldr	r4, [r0], #4
 257              	.LVL33:
 258 00e6 1568     		ldr	r5, [r2]
 259              	.LVL34:
 260              	.LBB28:
 261              	.LBB29:
 262              		.loc 2 1721 0
 263              	@ 1721 "/home/sbcu/Dropbox/pcb-layouts/axo-on-discovery-board/axoloti/platform_linux/../CMSIS//Incl
 264 00e8 24FB0588 		smlad r8, r4, r5, r8
 265              	@ 0 "" 2
 266              	.LVL35:
 267              		.thumb
 268              	.LBE29:
 269              	.LBE28:
 270              	.LBB30:
 271              	.LBB31:
 272              		.loc 2 1713 0
 273              	@ 1713 "/home/sbcu/Dropbox/pcb-layouts/axo-on-discovery-board/axoloti/platform_linux/../CMSIS//Incl
 274 00ec 26FB19F6 		smuadx r6, r6, r9
 275              	@ 0 "" 2
 276              	.LVL36:
 277              		.thumb
 278              	.LBE31:
 279              	.LBE30:
 280              		.loc 1 371 0
 281 00f0 7642     		negs	r6, r6
 282              	.LVL37:
 283              	.LBB32:
 284              	.LBB33:
ARM GAS  /tmp/ccUWoync.s 			page 6


 285              		.loc 2 1795 0
 286              	@ 1795 "/home/sbcu/Dropbox/pcb-layouts/axo-on-discovery-board/axoloti/platform_linux/../CMSIS//Incl
 287 00f2 45FB1465 		smlsdx r5, r5, r4, r6
 288              	@ 0 "" 2
 289              	.LVL38:
 290              		.thumb
 291              	.LBE33:
 292              	.LBE32:
 293              		.loc 1 382 0
 294 00f6 2C0C     		lsrs	r4, r5, #16
 295              	.LVL39:
 296 00f8 2404     		lsls	r4, r4, #16
 297 00fa 44EA1844 		orr	r4, r4, r8, lsr #16
 298              		.loc 1 331 0
 299 00fe 0139     		subs	r1, r1, #1
 300              	.LVL40:
 301              		.loc 1 382 0
 302 0100 4CF8044B 		str	r4, [ip], #4
 303              	.LVL41:
 304              		.loc 1 391 0
 305 0104 7344     		add	r3, r3, lr
 306              	.LVL42:
 307              		.loc 1 392 0
 308 0106 7244     		add	r2, r2, lr
 309              	.LVL43:
 310              		.loc 1 331 0
 311 0108 E5D1     		bne	.L11
 312              	.LVL44:
 313              	.L9:
 314 010a BDE8F083 		pop	{r4, r5, r6, r7, r8, r9, pc}
 315              		.cfi_endproc
 316              	.LFE137:
 317              		.size	arm_split_rifft_q15, .-arm_split_rifft_q15
 318 010e 00BF     		.align	2
 319              		.p2align 4,,15
 320              		.global	arm_rfft_q15
 321              		.thumb
 322              		.thumb_func
 323              		.type	arm_rfft_q15, %function
 324              	arm_rfft_q15:
 325              	.LFB135:
 326              		.loc 1 91 0
 327              		.cfi_startproc
 328              		@ args = 0, pretend = 0, frame = 0
 329              		@ frame_needed = 0, uses_anonymous_args = 0
 330              	.LVL45:
 331 0110 2DE9F043 		push	{r4, r5, r6, r7, r8, r9, lr}
 332              		.cfi_def_cfa_offset 28
 333              		.cfi_offset 4, -28
 334              		.cfi_offset 5, -24
 335              		.cfi_offset 6, -20
 336              		.cfi_offset 7, -16
 337              		.cfi_offset 8, -12
 338              		.cfi_offset 9, -8
 339              		.cfi_offset 14, -4
 340 0114 1446     		mov	r4, r2
 341              		.loc 1 97 0
ARM GAS  /tmp/ccUWoync.s 			page 7


 342 0116 0279     		ldrb	r2, [r0, #4]	@ zero_extendqisi2
 343              	.LVL46:
 344              		.loc 1 94 0
 345 0118 0368     		ldr	r3, [r0]
 346              		.loc 1 92 0
 347 011a 4669     		ldr	r6, [r0, #20]
 348              	.LVL47:
 349              		.loc 1 97 0
 350 011c 012A     		cmp	r2, #1
 351              		.loc 1 91 0
 352 011e 83B0     		sub	sp, sp, #12
 353              		.cfi_def_cfa_offset 40
 354              		.loc 1 91 0
 355 0120 0546     		mov	r5, r0
 356              		.loc 1 94 0
 357 0122 4FEA5308 		lsr	r8, r3, #1
 358              	.LVL48:
 359              		.loc 1 91 0
 360 0126 8946     		mov	r9, r1
 361              		.loc 1 97 0
 362 0128 0FD0     		beq	.L23
 363              		.loc 1 116 0
 364 012a 6B79     		ldrb	r3, [r5, #5]	@ zero_extendqisi2
 365 012c 3046     		mov	r0, r6
 366              	.LVL49:
 367 012e FFF7FEFF 		bl	arm_cfft_q15
 368              	.LVL50:
 369              		.loc 1 119 0
 370 0132 EA68     		ldr	r2, [r5, #12]
 371 0134 2B69     		ldr	r3, [r5, #16]
 372 0136 AD68     		ldr	r5, [r5, #8]
 373              	.LVL51:
 374 0138 0195     		str	r5, [sp, #4]
 375 013a 0094     		str	r4, [sp]
 376 013c 4846     		mov	r0, r9
 377 013e 4146     		mov	r1, r8
 378 0140 FFF7FEFF 		bl	arm_split_rfft_q15
 379              	.LVL52:
 380              	.L15:
 381              		.loc 1 122 0
 382 0144 03B0     		add	sp, sp, #12
 383              		.cfi_remember_state
 384              		.cfi_def_cfa_offset 28
 385              		@ sp needed
 386 0146 BDE8F083 		pop	{r4, r5, r6, r7, r8, r9, pc}
 387              	.LVL53:
 388              	.L23:
 389              		.cfi_restore_state
 390              		.loc 1 100 0
 391 014a 8768     		ldr	r7, [r0, #8]
 392 014c C268     		ldr	r2, [r0, #12]
 393 014e 0369     		ldr	r3, [r0, #16]
 394 0150 0094     		str	r4, [sp]
 395 0152 0846     		mov	r0, r1
 396              	.LVL54:
 397 0154 0197     		str	r7, [sp, #4]
 398 0156 4146     		mov	r1, r8
ARM GAS  /tmp/ccUWoync.s 			page 8


 399              	.LVL55:
 400 0158 FFF7FEFF 		bl	arm_split_rifft_q15
 401              	.LVL56:
 402              		.loc 1 104 0
 403 015c 2146     		mov	r1, r4
 404 015e 3046     		mov	r0, r6
 405 0160 2A79     		ldrb	r2, [r5, #4]	@ zero_extendqisi2
 406 0162 6B79     		ldrb	r3, [r5, #5]	@ zero_extendqisi2
 407 0164 FFF7FEFF 		bl	arm_cfft_q15
 408              	.LVL57:
 409              		.loc 1 106 0
 410 0168 2968     		ldr	r1, [r5]
 411 016a 0029     		cmp	r1, #0
 412 016c EAD0     		beq	.L15
 413 016e 2246     		mov	r2, r4
 414 0170 04EB4101 		add	r1, r4, r1, lsl #1
 415              	.LVL58:
 416              	.L19:
 417              		.loc 1 108 0 discriminator 3
 418 0174 B2F90030 		ldrsh	r3, [r2]
 419 0178 5B00     		lsls	r3, r3, #1
 420 017a 22F8023B 		strh	r3, [r2], #2	@ movhi
 421              		.loc 1 106 0 discriminator 3
 422 017e 8A42     		cmp	r2, r1
 423 0180 F8D1     		bne	.L19
 424              		.loc 1 122 0
 425 0182 03B0     		add	sp, sp, #12
 426              		.cfi_def_cfa_offset 28
 427              		@ sp needed
 428 0184 BDE8F083 		pop	{r4, r5, r6, r7, r8, r9, pc}
 429              		.cfi_endproc
 430              	.LFE135:
 431              		.size	arm_rfft_q15, .-arm_rfft_q15
 432              	.Letext0:
 433              		.file 3 "/home/sbcu/Dropbox/pcb-layouts/axo-on-discovery-board/axoloti/platform_linux/arm-none-eab
 434              		.file 4 "/home/sbcu/Dropbox/pcb-layouts/axo-on-discovery-board/axoloti/platform_linux/arm-none-eab
 435              		.file 5 "/home/sbcu/Dropbox/pcb-layouts/axo-on-discovery-board/axoloti/platform_linux/../CMSIS//DS