ARM GAS  /tmp/ccsHTNwO.s 			page 1


   1              		.syntax unified
   2              		.cpu cortex-m4
   3              		.eabi_attribute 27, 1
   4              		.eabi_attribute 28, 1
   5              		.fpu fpv4-sp-d16
   6              		.eabi_attribute 20, 1
   7              		.eabi_attribute 21, 1
   8              		.eabi_attribute 23, 3
   9              		.eabi_attribute 24, 1
  10              		.eabi_attribute 25, 1
  11              		.eabi_attribute 26, 1
  12              		.eabi_attribute 30, 2
  13              		.eabi_attribute 34, 1
  14              		.eabi_attribute 18, 4
  15              		.thumb
  16              		.file	"arm_cfft_q31.c"
  17              		.text
  18              	.Ltext0:
  19              		.cfi_sections	.debug_frame
  20              		.align	2
  21              		.p2align 4,,15
  22              		.global	arm_cfft_radix4by2_q31
  23              		.thumb
  24              		.thumb_func
  25              		.type	arm_cfft_radix4by2_q31, %function
  26              	arm_cfft_radix4by2_q31:
  27              	.LFB136:
  28              		.file 1 "/home/sbcu/Dropbox/pcb-layouts/axo-on-discovery-board/axoloti/platform_linux/../CMSIS//DS
  29              		.loc 1 150 0
  30              		.cfi_startproc
  31              		@ args = 0, pretend = 0, frame = 16
  32              		@ frame_needed = 0, uses_anonymous_args = 0
  33              	.LVL0:
  34 0000 2DE9F04F 		push	{r4, r5, r6, r7, r8, r9, r10, fp, lr}
  35              		.cfi_def_cfa_offset 36
  36              		.cfi_offset 4, -36
  37              		.cfi_offset 5, -32
  38              		.cfi_offset 6, -28
  39              		.cfi_offset 7, -24
  40              		.cfi_offset 8, -20
  41              		.cfi_offset 9, -16
  42              		.cfi_offset 10, -12
  43              		.cfi_offset 11, -8
  44              		.cfi_offset 14, -4
  45 0004 85B0     		sub	sp, sp, #20
  46              		.cfi_def_cfa_offset 56
  47              		.loc 1 158 0
  48 0006 4B08     		lsrs	r3, r1, #1
  49              		.loc 1 150 0
  50 0008 0191     		str	r1, [sp, #4]
  51              	.LVL1:
  52 000a 0746     		mov	r7, r0
  53 000c 9146     		mov	r9, r2
  54 000e 0092     		str	r2, [sp]
  55              		.loc 1 158 0
  56 0010 67D0     		beq	.L2
  57 0012 DA00     		lsls	r2, r3, #3
ARM GAS  /tmp/ccsHTNwO.s 			page 2


  58              	.LVL2:
  59 0014 00EB0208 		add	r8, r0, r2
  60 0018 0292     		str	r2, [sp, #8]
  61 001a C446     		mov	ip, r8
  62 001c 8646     		mov	lr, r0
  63 001e 0026     		movs	r6, #0
  64 0020 0390     		str	r0, [sp, #12]
  65 0022 1D46     		mov	r5, r3
  66              	.LVL3:
  67              	.L3:
  68              		.loc 1 165 0 discriminator 3
  69 0024 58F83620 		ldr	r2, [r8, r6, lsl #3]
  70 0028 57F83630 		ldr	r3, [r7, r6, lsl #3]
  71              		.loc 1 160 0 discriminator 3
  72 002c 0099     		ldr	r1, [sp]
  73              		.loc 1 161 0 discriminator 3
  74 002e D9F80440 		ldr	r4, [r9, #4]
  75              		.loc 1 160 0 discriminator 3
  76 0032 51F83610 		ldr	r1, [r1, r6, lsl #3]
  77              	.LVL4:
  78              		.loc 1 165 0 discriminator 3
  79 0036 4FEAA20A 		asr	r10, r2, #2
  80 003a 9B10     		asrs	r3, r3, #2
  81              		.loc 1 166 0 discriminator 3
  82 003c 03EB0A02 		add	r2, r3, r10
  83 0040 47F83620 		str	r2, [r7, r6, lsl #3]
  84              		.loc 1 168 0 discriminator 3
  85 0044 DEF80400 		ldr	r0, [lr, #4]
  86 0048 DCF80420 		ldr	r2, [ip, #4]
  87 004c 8010     		asrs	r0, r0, #2
  88 004e 9210     		asrs	r2, r2, #2
  89              		.loc 1 169 0 discriminator 3
  90 0050 00EB020B 		add	fp, r0, r2
  91              		.loc 1 165 0 discriminator 3
  92 0054 CAEB0303 		rsb	r3, r10, r3
  93              	.LVL5:
  94              		.loc 1 169 0 discriminator 3
  95 0058 CEF804B0 		str	fp, [lr, #4]
  96              		.loc 1 168 0 discriminator 3
  97 005c 801A     		subs	r0, r0, r2
  98              	.LVL6:
  99              		.loc 1 171 0 discriminator 3
 100              	@ 171 "/home/sbcu/Dropbox/pcb-layouts/axo-on-discovery-board/axoloti/platform_linux/../CMSIS//DSP_L
 101 005e 53FB11F2 		smmulr r2, r3, r1
 102              	@ 0 "" 2
 103              	.LVL7:
 104              		.loc 1 172 0 discriminator 3
 105              	@ 172 "/home/sbcu/Dropbox/pcb-layouts/axo-on-discovery-board/axoloti/platform_linux/../CMSIS//DSP_L
 106 0062 50FB11F1 		smmulr r1, r0, r1
 107              	@ 0 "" 2
 108              	.LVL8:
 109              		.loc 1 173 0 discriminator 3
 110              	@ 173 "/home/sbcu/Dropbox/pcb-layouts/axo-on-discovery-board/axoloti/platform_linux/../CMSIS//DSP_L
 111 0066 50FB1420 		smmlar r0, r0, r4, r2
 112              	@ 0 "" 2
 113              	.LVL9:
 114              		.loc 1 174 0 discriminator 3
ARM GAS  /tmp/ccsHTNwO.s 			page 3


 115              	@ 174 "/home/sbcu/Dropbox/pcb-layouts/axo-on-discovery-board/axoloti/platform_linux/../CMSIS//DSP_L
 116 006a 63FB1413 		smmlsr r3, r3, r4, r1
 117              	@ 0 "" 2
 118              	.LVL10:
 119              		.loc 1 176 0 discriminator 3
 120              		.thumb
 121 006e 4000     		lsls	r0, r0, #1
 122              	.LVL11:
 123 0070 48F83600 		str	r0, [r8, r6, lsl #3]
 124              		.loc 1 158 0 discriminator 3
 125 0074 0136     		adds	r6, r6, #1
 126              	.LVL12:
 127              		.loc 1 177 0 discriminator 3
 128 0076 5B00     		lsls	r3, r3, #1
 129              	.LVL13:
 130              		.loc 1 158 0 discriminator 3
 131 0078 AE42     		cmp	r6, r5
 132              		.loc 1 177 0 discriminator 3
 133 007a CCF80430 		str	r3, [ip, #4]
 134 007e 09F10809 		add	r9, r9, #8
 135 0082 0EF1080E 		add	lr, lr, #8
 136 0086 0CF1080C 		add	ip, ip, #8
 137              		.loc 1 158 0 discriminator 3
 138 008a CBD1     		bne	.L3
 139              		.loc 1 182 0
 140 008c 009C     		ldr	r4, [sp]
 141              	.LVL14:
 142 008e 039D     		ldr	r5, [sp, #12]
 143              	.LVL15:
 144 0090 3846     		mov	r0, r7
 145 0092 3146     		mov	r1, r6
 146 0094 2246     		mov	r2, r4
 147 0096 0223     		movs	r3, #2
 148 0098 FFF7FEFF 		bl	arm_radix4_butterfly_q31
 149              	.LVL16:
 150              		.loc 1 184 0
 151 009c 019B     		ldr	r3, [sp, #4]
 152 009e 3146     		mov	r1, r6
 153 00a0 07EB8300 		add	r0, r7, r3, lsl #2
 154 00a4 2246     		mov	r2, r4
 155 00a6 0223     		movs	r3, #2
 156 00a8 FFF7FEFF 		bl	arm_radix4_butterfly_q31
 157              	.LVL17:
 158 00ac 029B     		ldr	r3, [sp, #8]
 159 00ae 0437     		adds	r7, r7, #4
 160              	.LVL18:
 161 00b0 9844     		add	r8, r8, r3
 162              	.LVL19:
 163              	.L5:
 164              		.loc 1 191 0 discriminator 3
 165 00b2 291D     		adds	r1, r5, #4
 166 00b4 0EC9     		ldmia	r1, {r1, r2, r3}
 167              		.loc 1 188 0 discriminator 3
 168 00b6 57F8040C 		ldr	r0, [r7, #-4]
 169              	.LVL20:
 170              		.loc 1 194 0 discriminator 3
 171 00ba 4900     		lsls	r1, r1, #1
ARM GAS  /tmp/ccsHTNwO.s 			page 4


 172              	.LVL21:
 173              		.loc 1 193 0 discriminator 3
 174 00bc 4000     		lsls	r0, r0, #1
 175              	.LVL22:
 176              		.loc 1 195 0 discriminator 3
 177 00be 5200     		lsls	r2, r2, #1
 178              	.LVL23:
 179              		.loc 1 196 0 discriminator 3
 180 00c0 5B00     		lsls	r3, r3, #1
 181              	.LVL24:
 182              		.loc 1 198 0 discriminator 3
 183 00c2 47F8040C 		str	r0, [r7, #-4]
 184 00c6 1035     		adds	r5, r5, #16
 185              		.loc 1 199 0 discriminator 3
 186 00c8 45F80C1C 		str	r1, [r5, #-12]
 187              		.loc 1 200 0 discriminator 3
 188 00cc 45F8082C 		str	r2, [r5, #-8]
 189              		.loc 1 201 0 discriminator 3
 190 00d0 45F8043C 		str	r3, [r5, #-4]
 191              		.loc 1 186 0 discriminator 3
 192 00d4 4545     		cmp	r5, r8
 193 00d6 07F11007 		add	r7, r7, #16
 194 00da EAD1     		bne	.L5
 195              		.loc 1 204 0
 196 00dc 05B0     		add	sp, sp, #20
 197              		.cfi_remember_state
 198              		.cfi_def_cfa_offset 36
 199              	.LVL25:
 200              		@ sp needed
 201 00de BDE8F08F 		pop	{r4, r5, r6, r7, r8, r9, r10, fp, pc}
 202              	.LVL26:
 203              	.L2:
 204              		.cfi_restore_state
 205              		.loc 1 182 0
 206 00e2 1C46     		mov	r4, r3
 207 00e4 1946     		mov	r1, r3
 208              	.LVL27:
 209 00e6 0223     		movs	r3, #2
 210              	.LVL28:
 211 00e8 FFF7FEFF 		bl	arm_radix4_butterfly_q31
 212              	.LVL29:
 213              		.loc 1 184 0
 214 00ec 019B     		ldr	r3, [sp, #4]
 215 00ee 009A     		ldr	r2, [sp]
 216 00f0 07EB8300 		add	r0, r7, r3, lsl #2
 217 00f4 2146     		mov	r1, r4
 218 00f6 0223     		movs	r3, #2
 219              		.loc 1 204 0
 220 00f8 05B0     		add	sp, sp, #20
 221              		.cfi_def_cfa_offset 36
 222              		@ sp needed
 223 00fa BDE8F04F 		pop	{r4, r5, r6, r7, r8, r9, r10, fp, lr}
 224              		.cfi_restore 14
 225              		.cfi_restore 11
 226              		.cfi_restore 10
 227              		.cfi_restore 9
 228              		.cfi_restore 8
ARM GAS  /tmp/ccsHTNwO.s 			page 5


 229              		.cfi_restore 7
 230              		.cfi_restore 6
 231              		.cfi_restore 5
 232              		.cfi_restore 4
 233              		.cfi_def_cfa_offset 0
 234              	.LVL30:
 235              		.loc 1 184 0
 236 00fe FFF7FEBF 		b	arm_radix4_butterfly_q31
 237              	.LVL31:
 238              		.cfi_endproc
 239              	.LFE136:
 240              		.size	arm_cfft_radix4by2_q31, .-arm_cfft_radix4by2_q31
 241 0102 00BF     		.align	2
 242 0104 AFF30080 		.p2align 4,,15
 242      AFF30080 
 242      AFF30080 
 243              		.global	arm_cfft_radix4by2_inverse_q31
 244              		.thumb
 245              		.thumb_func
 246              		.type	arm_cfft_radix4by2_inverse_q31, %function
 247              	arm_cfft_radix4by2_inverse_q31:
 248              	.LFB137:
 249              		.loc 1 210 0
 250              		.cfi_startproc
 251              		@ args = 0, pretend = 0, frame = 16
 252              		@ frame_needed = 0, uses_anonymous_args = 0
 253              	.LVL32:
 254 0110 2DE9F04F 		push	{r4, r5, r6, r7, r8, r9, r10, fp, lr}
 255              		.cfi_def_cfa_offset 36
 256              		.cfi_offset 4, -36
 257              		.cfi_offset 5, -32
 258              		.cfi_offset 6, -28
 259              		.cfi_offset 7, -24
 260              		.cfi_offset 8, -20
 261              		.cfi_offset 9, -16
 262              		.cfi_offset 10, -12
 263              		.cfi_offset 11, -8
 264              		.cfi_offset 14, -4
 265 0114 85B0     		sub	sp, sp, #20
 266              		.cfi_def_cfa_offset 56
 267              		.loc 1 218 0
 268 0116 4B08     		lsrs	r3, r1, #1
 269              		.loc 1 210 0
 270 0118 0191     		str	r1, [sp, #4]
 271              	.LVL33:
 272 011a 0746     		mov	r7, r0
 273 011c 9146     		mov	r9, r2
 274 011e 0092     		str	r2, [sp]
 275              		.loc 1 218 0
 276 0120 67D0     		beq	.L14
 277 0122 DA00     		lsls	r2, r3, #3
 278              	.LVL34:
 279 0124 00EB0208 		add	r8, r0, r2
 280 0128 0292     		str	r2, [sp, #8]
 281 012a C446     		mov	ip, r8
 282 012c 8646     		mov	lr, r0
 283 012e 0026     		movs	r6, #0
ARM GAS  /tmp/ccsHTNwO.s 			page 6


 284 0130 0390     		str	r0, [sp, #12]
 285 0132 1D46     		mov	r5, r3
 286              	.LVL35:
 287              	.L15:
 288              		.loc 1 225 0 discriminator 3
 289 0134 58F83620 		ldr	r2, [r8, r6, lsl #3]
 290 0138 57F83630 		ldr	r3, [r7, r6, lsl #3]
 291              		.loc 1 220 0 discriminator 3
 292 013c 0099     		ldr	r1, [sp]
 293              		.loc 1 221 0 discriminator 3
 294 013e D9F80440 		ldr	r4, [r9, #4]
 295              		.loc 1 220 0 discriminator 3
 296 0142 51F83610 		ldr	r1, [r1, r6, lsl #3]
 297              	.LVL36:
 298              		.loc 1 225 0 discriminator 3
 299 0146 4FEAA20A 		asr	r10, r2, #2
 300 014a 9B10     		asrs	r3, r3, #2
 301              		.loc 1 226 0 discriminator 3
 302 014c 03EB0A02 		add	r2, r3, r10
 303 0150 47F83620 		str	r2, [r7, r6, lsl #3]
 304              		.loc 1 228 0 discriminator 3
 305 0154 DEF80400 		ldr	r0, [lr, #4]
 306 0158 DCF80420 		ldr	r2, [ip, #4]
 307 015c 8010     		asrs	r0, r0, #2
 308 015e 9210     		asrs	r2, r2, #2
 309              		.loc 1 229 0 discriminator 3
 310 0160 00EB020B 		add	fp, r0, r2
 311              		.loc 1 225 0 discriminator 3
 312 0164 CAEB0303 		rsb	r3, r10, r3
 313              	.LVL37:
 314              		.loc 1 229 0 discriminator 3
 315 0168 CEF804B0 		str	fp, [lr, #4]
 316              		.loc 1 228 0 discriminator 3
 317 016c 801A     		subs	r0, r0, r2
 318              	.LVL38:
 319              		.loc 1 231 0 discriminator 3
 320              	@ 231 "/home/sbcu/Dropbox/pcb-layouts/axo-on-discovery-board/axoloti/platform_linux/../CMSIS//DSP_L
 321 016e 53FB11F2 		smmulr r2, r3, r1
 322              	@ 0 "" 2
 323              	.LVL39:
 324              		.loc 1 232 0 discriminator 3
 325              	@ 232 "/home/sbcu/Dropbox/pcb-layouts/axo-on-discovery-board/axoloti/platform_linux/../CMSIS//DSP_L
 326 0172 50FB11F1 		smmulr r1, r0, r1
 327              	@ 0 "" 2
 328              	.LVL40:
 329              		.loc 1 233 0 discriminator 3
 330              	@ 233 "/home/sbcu/Dropbox/pcb-layouts/axo-on-discovery-board/axoloti/platform_linux/../CMSIS//DSP_L
 331 0176 60FB1420 		smmlsr r0, r0, r4, r2
 332              	@ 0 "" 2
 333              	.LVL41:
 334              		.loc 1 234 0 discriminator 3
 335              	@ 234 "/home/sbcu/Dropbox/pcb-layouts/axo-on-discovery-board/axoloti/platform_linux/../CMSIS//DSP_L
 336 017a 53FB1413 		smmlar r3, r3, r4, r1
 337              	@ 0 "" 2
 338              	.LVL42:
 339              		.loc 1 236 0 discriminator 3
 340              		.thumb
ARM GAS  /tmp/ccsHTNwO.s 			page 7


 341 017e 4000     		lsls	r0, r0, #1
 342              	.LVL43:
 343 0180 48F83600 		str	r0, [r8, r6, lsl #3]
 344              		.loc 1 218 0 discriminator 3
 345 0184 0136     		adds	r6, r6, #1
 346              	.LVL44:
 347              		.loc 1 237 0 discriminator 3
 348 0186 5B00     		lsls	r3, r3, #1
 349              	.LVL45:
 350              		.loc 1 218 0 discriminator 3
 351 0188 AE42     		cmp	r6, r5
 352              		.loc 1 237 0 discriminator 3
 353 018a CCF80430 		str	r3, [ip, #4]
 354 018e 09F10809 		add	r9, r9, #8
 355 0192 0EF1080E 		add	lr, lr, #8
 356 0196 0CF1080C 		add	ip, ip, #8
 357              		.loc 1 218 0 discriminator 3
 358 019a CBD1     		bne	.L15
 359              		.loc 1 242 0
 360 019c 009C     		ldr	r4, [sp]
 361              	.LVL46:
 362 019e 039D     		ldr	r5, [sp, #12]
 363              	.LVL47:
 364 01a0 3846     		mov	r0, r7
 365 01a2 3146     		mov	r1, r6
 366 01a4 2246     		mov	r2, r4
 367 01a6 0223     		movs	r3, #2
 368 01a8 FFF7FEFF 		bl	arm_radix4_butterfly_inverse_q31
 369              	.LVL48:
 370              		.loc 1 244 0
 371 01ac 019B     		ldr	r3, [sp, #4]
 372 01ae 3146     		mov	r1, r6
 373 01b0 07EB8300 		add	r0, r7, r3, lsl #2
 374 01b4 2246     		mov	r2, r4
 375 01b6 0223     		movs	r3, #2
 376 01b8 FFF7FEFF 		bl	arm_radix4_butterfly_inverse_q31
 377              	.LVL49:
 378 01bc 029B     		ldr	r3, [sp, #8]
 379 01be 0437     		adds	r7, r7, #4
 380              	.LVL50:
 381 01c0 9844     		add	r8, r8, r3
 382              	.LVL51:
 383              	.L17:
 384              		.loc 1 251 0 discriminator 3
 385 01c2 291D     		adds	r1, r5, #4
 386 01c4 0EC9     		ldmia	r1, {r1, r2, r3}
 387              		.loc 1 248 0 discriminator 3
 388 01c6 57F8040C 		ldr	r0, [r7, #-4]
 389              	.LVL52:
 390              		.loc 1 254 0 discriminator 3
 391 01ca 4900     		lsls	r1, r1, #1
 392              	.LVL53:
 393              		.loc 1 253 0 discriminator 3
 394 01cc 4000     		lsls	r0, r0, #1
 395              	.LVL54:
 396              		.loc 1 255 0 discriminator 3
 397 01ce 5200     		lsls	r2, r2, #1
ARM GAS  /tmp/ccsHTNwO.s 			page 8


 398              	.LVL55:
 399              		.loc 1 256 0 discriminator 3
 400 01d0 5B00     		lsls	r3, r3, #1
 401              	.LVL56:
 402              		.loc 1 258 0 discriminator 3
 403 01d2 47F8040C 		str	r0, [r7, #-4]
 404 01d6 1035     		adds	r5, r5, #16
 405              		.loc 1 259 0 discriminator 3
 406 01d8 45F80C1C 		str	r1, [r5, #-12]
 407              		.loc 1 260 0 discriminator 3
 408 01dc 45F8082C 		str	r2, [r5, #-8]
 409              		.loc 1 261 0 discriminator 3
 410 01e0 45F8043C 		str	r3, [r5, #-4]
 411              		.loc 1 246 0 discriminator 3
 412 01e4 4545     		cmp	r5, r8
 413 01e6 07F11007 		add	r7, r7, #16
 414 01ea EAD1     		bne	.L17
 415              		.loc 1 263 0
 416 01ec 05B0     		add	sp, sp, #20
 417              		.cfi_remember_state
 418              		.cfi_def_cfa_offset 36
 419              	.LVL57:
 420              		@ sp needed
 421 01ee BDE8F08F 		pop	{r4, r5, r6, r7, r8, r9, r10, fp, pc}
 422              	.LVL58:
 423              	.L14:
 424              		.cfi_restore_state
 425              		.loc 1 242 0
 426 01f2 1C46     		mov	r4, r3
 427 01f4 1946     		mov	r1, r3
 428              	.LVL59:
 429 01f6 0223     		movs	r3, #2
 430              	.LVL60:
 431 01f8 FFF7FEFF 		bl	arm_radix4_butterfly_inverse_q31
 432              	.LVL61:
 433              		.loc 1 244 0
 434 01fc 019B     		ldr	r3, [sp, #4]
 435 01fe 009A     		ldr	r2, [sp]
 436 0200 07EB8300 		add	r0, r7, r3, lsl #2
 437 0204 2146     		mov	r1, r4
 438 0206 0223     		movs	r3, #2
 439              		.loc 1 263 0
 440 0208 05B0     		add	sp, sp, #20
 441              		.cfi_def_cfa_offset 36
 442              		@ sp needed
 443 020a BDE8F04F 		pop	{r4, r5, r6, r7, r8, r9, r10, fp, lr}
 444              		.cfi_restore 14
 445              		.cfi_restore 11
 446              		.cfi_restore 10
 447              		.cfi_restore 9
 448              		.cfi_restore 8
 449              		.cfi_restore 7
 450              		.cfi_restore 6
 451              		.cfi_restore 5
 452              		.cfi_restore 4
 453              		.cfi_def_cfa_offset 0
 454              	.LVL62:
ARM GAS  /tmp/ccsHTNwO.s 			page 9


 455              		.loc 1 244 0
 456 020e FFF7FEBF 		b	arm_radix4_butterfly_inverse_q31
 457              	.LVL63:
 458              		.cfi_endproc
 459              	.LFE137:
 460              		.size	arm_cfft_radix4by2_inverse_q31, .-arm_cfft_radix4by2_inverse_q31
 461 0212 00BF     		.align	2
 462 0214 AFF30080 		.p2align 4,,15
 462      AFF30080 
 462      AFF30080 
 463              		.global	arm_cfft_q31
 464              		.thumb
 465              		.thumb_func
 466              		.type	arm_cfft_q31, %function
 467              	arm_cfft_q31:
 468              	.LFB135:
 469              		.loc 1 94 0
 470              		.cfi_startproc
 471              		@ args = 0, pretend = 0, frame = 0
 472              		@ frame_needed = 0, uses_anonymous_args = 0
 473              	.LVL64:
 474              		.loc 1 97 0
 475 0220 012A     		cmp	r2, #1
 476              		.loc 1 94 0
 477 0222 70B5     		push	{r4, r5, r6, lr}
 478              		.cfi_def_cfa_offset 16
 479              		.cfi_offset 4, -16
 480              		.cfi_offset 5, -12
 481              		.cfi_offset 6, -8
 482              		.cfi_offset 14, -4
 483              		.loc 1 94 0
 484 0224 0D46     		mov	r5, r1
 485 0226 0446     		mov	r4, r0
 486 0228 1E46     		mov	r6, r3
 487              		.loc 1 95 0
 488 022a 0188     		ldrh	r1, [r0]
 489              	.LVL65:
 490              		.loc 1 97 0
 491 022c 24D0     		beq	.L93
 492              		.loc 1 119 0
 493 022e B1F5807F 		cmp	r1, #256
 494 0232 13D0     		beq	.L32
 495 0234 08D8     		bhi	.L33
 496 0236 2029     		cmp	r1, #32
 497 0238 31D0     		beq	.L34
 498 023a 45D9     		bls	.L94
 499 023c 4029     		cmp	r1, #64
 500 023e 0DD0     		beq	.L32
 501 0240 8029     		cmp	r1, #128
 502 0242 2CD0     		beq	.L34
 503              	.LVL66:
 504              	.L26:
 505              		.loc 1 138 0
 506 0244 8EB9     		cbnz	r6, .L95
 507              	.L24:
 508 0246 70BD     		pop	{r4, r5, r6, pc}
 509              	.LVL67:
ARM GAS  /tmp/ccsHTNwO.s 			page 10


 510              	.L33:
 511              		.loc 1 119 0
 512 0248 B1F5806F 		cmp	r1, #1024
 513 024c 06D0     		beq	.L32
 514 024e 23D9     		bls	.L96
 515 0250 B1F5006F 		cmp	r1, #2048
 516 0254 23D0     		beq	.L34
 517 0256 B1F5805F 		cmp	r1, #4096
 518 025a F3D1     		bne	.L26
 519              	.L32:
 520              		.loc 1 126 0
 521 025c 2846     		mov	r0, r5
 522              	.LVL68:
 523 025e 6268     		ldr	r2, [r4, #4]
 524              	.LVL69:
 525 0260 0123     		movs	r3, #1
 526              	.LVL70:
 527 0262 FFF7FEFF 		bl	arm_radix4_butterfly_q31
 528              	.LVL71:
 529              		.loc 1 138 0
 530 0266 002E     		cmp	r6, #0
 531 0268 EDD0     		beq	.L24
 532              	.L95:
 533              		.loc 1 139 0
 534 026a 2846     		mov	r0, r5
 535 026c A189     		ldrh	r1, [r4, #12]
 536 026e A268     		ldr	r2, [r4, #8]
 537              		.loc 1 140 0
 538 0270 BDE87040 		pop	{r4, r5, r6, lr}
 539              		.cfi_remember_state
 540              		.cfi_restore 14
 541              		.cfi_restore 6
 542              		.cfi_restore 5
 543              		.cfi_restore 4
 544              		.cfi_def_cfa_offset 0
 545              	.LVL72:
 546              		.loc 1 139 0
 547 0274 FFF7FEBF 		b	arm_bitreversal_32
 548              	.LVL73:
 549              	.L93:
 550              		.cfi_restore_state
 551              		.loc 1 99 0
 552 0278 B1F5807F 		cmp	r1, #256
 553 027c 1ED0     		beq	.L27
 554 027e 13D8     		bhi	.L28
 555 0280 2029     		cmp	r1, #32
 556 0282 04D0     		beq	.L29
 557 0284 27D9     		bls	.L97
 558 0286 4029     		cmp	r1, #64
 559 0288 18D0     		beq	.L27
 560 028a 8029     		cmp	r1, #128
 561 028c DAD1     		bne	.L26
 562              	.L29:
 563              		.loc 1 113 0
 564 028e 2846     		mov	r0, r5
 565              	.LVL74:
 566 0290 6268     		ldr	r2, [r4, #4]
ARM GAS  /tmp/ccsHTNwO.s 			page 11


 567              	.LVL75:
 568 0292 FFF7FEFF 		bl	arm_cfft_radix4by2_inverse_q31
 569              	.LVL76:
 570              		.loc 1 114 0
 571 0296 D5E7     		b	.L26
 572              	.LVL77:
 573              	.L96:
 574              		.loc 1 119 0
 575 0298 B1F5007F 		cmp	r1, #512
 576 029c D2D1     		bne	.L26
 577              	.L34:
 578              		.loc 1 133 0
 579 029e 2846     		mov	r0, r5
 580              	.LVL78:
 581 02a0 6268     		ldr	r2, [r4, #4]
 582              	.LVL79:
 583 02a2 FFF7FEFF 		bl	arm_cfft_radix4by2_q31
 584              	.LVL80:
 585              		.loc 1 134 0
 586 02a6 CDE7     		b	.L26
 587              	.LVL81:
 588              	.L28:
 589              		.loc 1 99 0
 590 02a8 B1F5806F 		cmp	r1, #1024
 591 02ac 06D0     		beq	.L27
 592 02ae 0ED9     		bls	.L98
 593 02b0 B1F5006F 		cmp	r1, #2048
 594 02b4 EBD0     		beq	.L29
 595 02b6 B1F5805F 		cmp	r1, #4096
 596 02ba C3D1     		bne	.L26
 597              	.L27:
 598              		.loc 1 106 0
 599 02bc 2846     		mov	r0, r5
 600              	.LVL82:
 601 02be 6268     		ldr	r2, [r4, #4]
 602              	.LVL83:
 603 02c0 0123     		movs	r3, #1
 604              	.LVL84:
 605 02c2 FFF7FEFF 		bl	arm_radix4_butterfly_inverse_q31
 606              	.LVL85:
 607              		.loc 1 107 0
 608 02c6 BDE7     		b	.L26
 609              	.LVL86:
 610              	.L94:
 611              		.loc 1 119 0
 612 02c8 1029     		cmp	r1, #16
 613 02ca BBD1     		bne	.L26
 614 02cc C6E7     		b	.L32
 615              	.L98:
 616              		.loc 1 99 0
 617 02ce B1F5007F 		cmp	r1, #512
 618 02d2 DCD0     		beq	.L29
 619 02d4 B6E7     		b	.L26
 620              	.L97:
 621 02d6 1029     		cmp	r1, #16
 622 02d8 B4D1     		bne	.L26
 623 02da EFE7     		b	.L27
ARM GAS  /tmp/ccsHTNwO.s 			page 12


 624              		.cfi_endproc
 625              	.LFE135:
 626              		.size	arm_cfft_q31, .-arm_cfft_q31
 627              	.Letext0:
 628              		.file 2 "/home/sbcu/Dropbox/pcb-layouts/axo-on-discovery-board/axoloti/platform_linux/arm-none-eab
 629              		.file 3 "/home/sbcu/Dropbox/pcb-layouts/axo-on-discovery-board/axoloti/platform_linux/arm-none-eab
 630              		.file 4 "/home/sbcu/Dropbox/pcb-layouts/axo-on-discovery-board/axoloti/platform_linux/../CMSIS//DS