ARM GAS  /tmp/ccW5o5eh.s 			page 1


   1              		.syntax unified
   2              		.cpu cortex-m4
   3              		.eabi_attribute 27, 1
   4              		.eabi_attribute 28, 1
   5              		.fpu fpv4-sp-d16
   6              		.eabi_attribute 20, 1
   7              		.eabi_attribute 21, 1
   8              		.eabi_attribute 23, 3
   9              		.eabi_attribute 24, 1
  10              		.eabi_attribute 25, 1
  11              		.eabi_attribute 26, 1
  12              		.eabi_attribute 30, 2
  13              		.eabi_attribute 34, 1
  14              		.eabi_attribute 18, 4
  15              		.thumb
  16              		.file	"arm_cmplx_mag_q31.c"
  17              		.text
  18              	.Ltext0:
  19              		.cfi_sections	.debug_frame
  20              		.align	2
  21              		.p2align 4,,15
  22              		.global	arm_cmplx_mag_q31
  23              		.thumb
  24              		.thumb_func
  25              		.type	arm_cmplx_mag_q31, %function
  26              	arm_cmplx_mag_q31:
  27              	.LFB135:
  28              		.file 1 "/home/sbcu/Dropbox/pcb-layouts/axo-on-discovery-board/axoloti/platform_linux/../CMSIS//DS
  29              		.loc 1 69 0
  30              		.cfi_startproc
  31              		@ args = 0, pretend = 0, frame = 16
  32              		@ frame_needed = 0, uses_anonymous_args = 0
  33              	.LVL0:
  34 0000 2DE9F04F 		push	{r4, r5, r6, r7, r8, r9, r10, fp, lr}
  35              		.cfi_def_cfa_offset 36
  36              		.cfi_offset 4, -36
  37              		.cfi_offset 5, -32
  38              		.cfi_offset 6, -28
  39              		.cfi_offset 7, -24
  40              		.cfi_offset 8, -20
  41              		.cfi_offset 9, -16
  42              		.cfi_offset 10, -12
  43              		.cfi_offset 11, -8
  44              		.cfi_offset 14, -4
  45 0004 1346     		mov	r3, r2
  46 0006 85B0     		sub	sp, sp, #20
  47              		.cfi_def_cfa_offset 56
  48              		.loc 1 69 0
  49 0008 8DE80900 		stmia	sp, {r0, r3}
  50              		.loc 1 87 0
  51 000c 9308     		lsrs	r3, r2, #2
  52              		.loc 1 69 0
  53 000e 0E46     		mov	r6, r1
  54              		.loc 1 87 0
  55 0010 0293     		str	r3, [sp, #8]
  56 0012 4CD0     		beq	.L2
  57 0014 00F12004 		add	r4, r0, #32
ARM GAS  /tmp/ccW5o5eh.s 			page 2


  58 0018 9B46     		mov	fp, r3
  59 001a 0D46     		mov	r5, r1
  60 001c 0391     		str	r1, [sp, #12]
  61              	.LVL1:
  62              	.L3:
  63              		.loc 1 92 0
  64 001e A4F12000 		sub	r0, r4, #32
  65              	.LVL2:
  66 0022 90E88540 		ldmia	r0, {r0, r2, r7, lr}
  67              	.LVL3:
  68              		.loc 1 97 0
  69 0026 82FB0223 		smull	r2, r3, r2, r2
  70              	.LVL4:
  71              		.loc 1 103 0
  72 002a 5B10     		asrs	r3, r3, #1
  73              		.loc 1 96 0
  74 002c 80FB0001 		smull	r0, r1, r0, r0
  75              	.LVL5:
  76              		.loc 1 118 0
  77 0030 03EB6100 		add	r0, r3, r1, asr #1
  78              	.LVL6:
  79              		.loc 1 99 0
  80 0034 8EFB0E23 		smull	r2, r3, lr, lr
  81              	.LVL7:
  82              		.loc 1 105 0
  83 0038 5910     		asrs	r1, r3, #1
  84              		.loc 1 98 0
  85 003a 87FB0723 		smull	r2, r3, r7, r7
  86              	.LVL8:
  87              		.loc 1 109 0
  88 003e 01EB630A 		add	r10, r1, r3, asr #1
  89              		.loc 1 113 0
  90 0042 54F80C8C 		ldr	r8, [r4, #-12]
  91              		.loc 1 115 0
  92 0046 54F8049C 		ldr	r9, [r4, #-4]
  93              		.loc 1 114 0
  94 004a 54F8087C 		ldr	r7, [r4, #-8]
  95              	.LVL9:
  96              		.loc 1 112 0
  97 004e 54F8106C 		ldr	r6, [r4, #-16]
  98              	.LVL10:
  99              		.loc 1 118 0
 100 0052 2946     		mov	r1, r5
 101 0054 FFF7FEFF 		bl	arm_sqrt_q31
 102              	.LVL11:
 103              		.loc 1 124 0
 104 0058 291D     		adds	r1, r5, #4
 105 005a 5046     		mov	r0, r10
 106 005c FFF7FEFF 		bl	arm_sqrt_q31
 107              	.LVL12:
 108              		.loc 1 129 0
 109 0060 89FB0901 		smull	r0, r1, r9, r9
 110              		.loc 1 127 0
 111 0064 88FB0823 		smull	r2, r3, r8, r8
 112              		.loc 1 135 0
 113 0068 4910     		asrs	r1, r1, #1
 114              		.loc 1 133 0
ARM GAS  /tmp/ccW5o5eh.s 			page 3


 115 006a 5810     		asrs	r0, r3, #1
 116              		.loc 1 128 0
 117 006c 87FB0789 		smull	r8, r9, r7, r7
 118              	.LVL13:
 119              		.loc 1 121 0
 120 0070 86FB0623 		smull	r2, r3, r6, r6
 121              	.LVL14:
 122              		.loc 1 139 0
 123 0074 01EB6907 		add	r7, r1, r9, asr #1
 124              	.LVL15:
 125              		.loc 1 142 0
 126 0078 00EB6300 		add	r0, r0, r3, asr #1
 127 007c 05F10801 		add	r1, r5, #8
 128 0080 FFF7FEFF 		bl	arm_sqrt_q31
 129              	.LVL16:
 130              		.loc 1 148 0
 131 0084 05F10C01 		add	r1, r5, #12
 132 0088 3846     		mov	r0, r7
 133 008a FFF7FEFF 		bl	arm_sqrt_q31
 134              	.LVL17:
 135              		.loc 1 87 0
 136 008e BBF1010B 		subs	fp, fp, #1
 137              	.LVL18:
 138 0092 04F12004 		add	r4, r4, #32
 139              	.LVL19:
 140              		.loc 1 151 0
 141 0096 05F11005 		add	r5, r5, #16
 142              	.LVL20:
 143              		.loc 1 87 0
 144 009a C0D1     		bne	.L3
 145 009c 009B     		ldr	r3, [sp]
 146 009e 029A     		ldr	r2, [sp, #8]
 147 00a0 039E     		ldr	r6, [sp, #12]
 148              	.LVL21:
 149 00a2 1946     		mov	r1, r3
 150 00a4 01EB4213 		add	r3, r1, r2, lsl #5
 151 00a8 0093     		str	r3, [sp]
 152 00aa 06EB0216 		add	r6, r6, r2, lsl #4
 153              	.LVL22:
 154              	.L2:
 155              		.loc 1 168 0
 156 00ae 019B     		ldr	r3, [sp, #4]
 157 00b0 13F00305 		ands	r5, r3, #3
 158              	.LVL23:
 159 00b4 15D0     		beq	.L1
 160 00b6 009C     		ldr	r4, [sp]
 161 00b8 0834     		adds	r4, r4, #8
 162              	.LVL24:
 163              	.L5:
 164              		.loc 1 172 0
 165 00ba 54F8040C 		ldr	r0, [r4, #-4]
 166              		.loc 1 171 0
 167 00be 54F8082C 		ldr	r2, [r4, #-8]
 168              	.LVL25:
 169              		.loc 1 174 0
 170 00c2 80FB0001 		smull	r0, r1, r0, r0
 171              	.LVL26:
ARM GAS  /tmp/ccW5o5eh.s 			page 4


 172 00c6 4810     		asrs	r0, r1, #1
 173              		.loc 1 173 0
 174 00c8 82FB0223 		smull	r2, r3, r2, r2
 175              	.LVL27:
 176              		.loc 1 176 0
 177 00cc 3146     		mov	r1, r6
 178 00ce 00EB6300 		add	r0, r0, r3, asr #1
 179 00d2 FFF7FEFF 		bl	arm_sqrt_q31
 180              	.LVL28:
 181              		.loc 1 168 0
 182 00d6 013D     		subs	r5, r5, #1
 183              	.LVL29:
 184              		.loc 1 176 0
 185 00d8 06F10406 		add	r6, r6, #4
 186              	.LVL30:
 187 00dc 04F10804 		add	r4, r4, #8
 188              	.LVL31:
 189              		.loc 1 168 0
 190 00e0 EBD1     		bne	.L5
 191              	.LVL32:
 192              	.L1:
 193              		.loc 1 181 0
 194 00e2 05B0     		add	sp, sp, #20
 195              		.cfi_def_cfa_offset 36
 196              		@ sp needed
 197 00e4 BDE8F08F 		pop	{r4, r5, r6, r7, r8, r9, r10, fp, pc}
 198              		.cfi_endproc
 199              	.LFE135:
 200              		.size	arm_cmplx_mag_q31, .-arm_cmplx_mag_q31
 201              	.Letext0:
 202              		.file 2 "/home/sbcu/Dropbox/pcb-layouts/axo-on-discovery-board/axoloti/platform_linux/arm-none-eab
 203              		.file 3 "/home/sbcu/Dropbox/pcb-layouts/axo-on-discovery-board/axoloti/platform_linux/arm-none-eab
 204              		.file 4 "/home/sbcu/Dropbox/pcb-layouts/axo-on-discovery-board/axoloti/platform_linux/../CMSIS//DS