ARM GAS  /tmp/cc0ojrn7.s 			page 1


   1              		.syntax unified
   2              		.cpu cortex-m4
   3              		.eabi_attribute 27, 1
   4              		.eabi_attribute 28, 1
   5              		.fpu fpv4-sp-d16
   6              		.eabi_attribute 20, 1
   7              		.eabi_attribute 21, 1
   8              		.eabi_attribute 23, 3
   9              		.eabi_attribute 24, 1
  10              		.eabi_attribute 25, 1
  11              		.eabi_attribute 26, 1
  12              		.eabi_attribute 30, 2
  13              		.eabi_attribute 34, 1
  14              		.eabi_attribute 18, 4
  15              		.thumb
  16              		.file	"arm_rfft_fast_f32.c"
  17              		.text
  18              	.Ltext0:
  19              		.cfi_sections	.debug_frame
  20              		.align	2
  21              		.p2align 4,,15
  22              		.global	stage_rfft_f32
  23              		.thumb
  24              		.thumb_func
  25              		.type	stage_rfft_f32, %function
  26              	stage_rfft_f32:
  27              	.LFB135:
  28              		.file 1 "/d_drive/axoloti/platform_linux/../CMSIS//DSP_Lib/Source/TransformFunctions/arm_rfft_fast
  29              		.loc 1 46 0
  30              		.cfi_startproc
  31              		@ args = 0, pretend = 0, frame = 0
  32              		@ frame_needed = 0, uses_anonymous_args = 0
  33              		@ link register save eliminated.
  34              	.LVL0:
  35              		.loc 1 73 0
  36 0000 D1ED017A 		flds	s15, [r1, #4]
  37              		.loc 1 61 0
  38 0004 91ED006A 		flds	s12, [r1]
  39              		.loc 1 73 0
  40 0008 77EEA77A 		fadds	s15, s15, s15
  41              		.loc 1 77 0
  42 000c F0EE006A 		fconsts	s13, #0
  43 0010 B0EE677A 		fcpys	s14, s15
  44 0014 A6EE267A 		vfma.f32	s14, s12, s13
  45              		.loc 1 46 0
  46 0018 10B4     		push	{r4}
  47              		.cfi_def_cfa_offset 4
  48              		.cfi_offset 4, -4
  49              		.loc 1 78 0
  50 001a D6EE267A 		vfnms.f32	s15, s12, s13
  51              		.loc 1 57 0
  52 001e 0488     		ldrh	r4, [r0]
  53              		.loc 1 49 0
  54 0020 4069     		ldr	r0, [r0, #20]
  55              	.LVL1:
  56              		.loc 1 77 0
  57 0022 F6EE003A 		fconsts	s7, #96
ARM GAS  /tmp/cc0ojrn7.s 			page 2


  58              		.loc 1 57 0
  59 0026 013C     		subs	r4, r4, #1
  60              	.LVL2:
  61              		.loc 1 77 0
  62 0028 27EE237A 		fmuls	s14, s14, s7
  63              		.loc 1 78 0
  64 002c 67EEA37A 		fmuls	s15, s15, s7
  65 0030 01EBC403 		add	r3, r1, r4, lsl #3
  66              		.loc 1 77 0
  67 0034 82ED007A 		fsts	s14, [r2]
  68              	.LVL3:
  69              		.loc 1 78 0
  70 0038 C2ED017A 		fsts	s15, [r2, #4]
  71 003c 1030     		adds	r0, r0, #16
  72              	.LVL4:
  73 003e 1032     		adds	r2, r2, #16
  74              	.LVL5:
  75 0040 083B     		subs	r3, r3, #8
  76 0042 1031     		adds	r1, r1, #16
  77              	.LVL6:
  78              	.L2:
  79              		.loc 1 101 0 discriminator 1
  80 0044 D3ED036A 		flds	s13, [r3, #12]
  81              	.LVL7:
  82              		.loc 1 104 0 discriminator 1
  83 0048 11ED015A 		flds	s10, [r1, #-4]
  84              		.loc 1 102 0 discriminator 1
  85 004c 93ED024A 		flds	s8, [r3, #8]
  86              	.LVL8:
  87              		.loc 1 103 0 discriminator 1
  88 0050 51ED027A 		flds	s15, [r1, #-8]
  89              	.LVL9:
  90              		.loc 1 107 0 discriminator 1
  91 0054 50ED015A 		flds	s11, [r0, #-4]
  92              		.loc 1 106 0 discriminator 1
  93 0058 10ED026A 		flds	s12, [r0, #-8]
  94              	.LVL10:
  95              		.loc 1 109 0 discriminator 1
  96 005c 74EE674A 		fsubs	s9, s8, s15
  97              	.LVL11:
  98              		.loc 1 120 0 discriminator 1
  99 0060 35EE667A 		fsubs	s14, s10, s13
 100              		.loc 1 119 0 discriminator 1
 101 0064 77EE847A 		fadds	s15, s15, s8
 102              	.LVL12:
 103              		.loc 1 120 0 discriminator 1
 104 0068 A5EEA47A 		vfma.f32	s14, s11, s9
 105              		.loc 1 125 0 discriminator 1
 106 006c 013C     		subs	r4, r4, #1
 107              	.LVL13:
 108 006e A3F10803 		sub	r3, r3, #8
 109              	.LVL14:
 110              		.loc 1 119 0 discriminator 1
 111 0072 E6EE247A 		vfma.f32	s15, s12, s9
 112 0076 01F10801 		add	r1, r1, #8
 113              	.LVL15:
 114 007a 00F10800 		add	r0, r0, #8
ARM GAS  /tmp/cc0ojrn7.s 			page 3


 115              		.loc 1 110 0 discriminator 1
 116 007e 76EE856A 		fadds	s13, s13, s10
 117              	.LVL16:
 118 0082 02F10802 		add	r2, r2, #8
 119              		.loc 1 119 0 discriminator 1
 120 0086 E5EEA67A 		vfma.f32	s15, s11, s13
 121              		.loc 1 120 0 discriminator 1
 122 008a A6EE667A 		vfms.f32	s14, s12, s13
 123              		.loc 1 119 0 discriminator 1
 124 008e 67EEA37A 		fmuls	s15, s15, s7
 125              		.loc 1 120 0 discriminator 1
 126 0092 27EE237A 		fmuls	s14, s14, s7
 127              		.loc 1 119 0 discriminator 1
 128 0096 42ED047A 		fsts	s15, [r2, #-16]
 129              	.LVL17:
 130              		.loc 1 120 0 discriminator 1
 131 009a 02ED037A 		fsts	s14, [r2, #-12]
 132              	.LVL18:
 133              		.loc 1 125 0 discriminator 1
 134 009e D1D1     		bne	.L2
 135              		.loc 1 126 0
 136 00a0 5DF8044B 		ldr	r4, [sp], #4
 137              		.cfi_restore 4
 138              		.cfi_def_cfa_offset 0
 139 00a4 7047     		bx	lr
 140              		.cfi_endproc
 141              	.LFE135:
 142              		.size	stage_rfft_f32, .-stage_rfft_f32
 143 00a6 00BF     		.align	2
 144 00a8 AFF30080 		.p2align 4,,15
 144      AFF30080 
 145              		.global	merge_rfft_f32
 146              		.thumb
 147              		.thumb_func
 148              		.type	merge_rfft_f32, %function
 149              	merge_rfft_f32:
 150              	.LFB136:
 151              		.loc 1 132 0
 152              		.cfi_startproc
 153              		@ args = 0, pretend = 0, frame = 0
 154              		@ frame_needed = 0, uses_anonymous_args = 0
 155              		@ link register save eliminated.
 156              	.LVL19:
 157              		.loc 1 143 0
 158 00b0 D1ED007A 		flds	s15, [r1]
 159              		.loc 1 144 0
 160 00b4 D1ED016A 		flds	s13, [r1, #4]
 161              		.loc 1 148 0
 162 00b8 37EEA67A 		fadds	s14, s15, s13
 163              		.loc 1 149 0
 164 00bc 77EEE67A 		fsubs	s15, s15, s13
 165              		.loc 1 132 0
 166 00c0 10B4     		push	{r4}
 167              		.cfi_def_cfa_offset 4
 168              		.cfi_offset 4, -4
 169              		.loc 1 148 0
 170 00c2 F6EE003A 		fconsts	s7, #96
ARM GAS  /tmp/cc0ojrn7.s 			page 4


 171              		.loc 1 141 0
 172 00c6 0488     		ldrh	r4, [r0]
 173              		.loc 1 135 0
 174 00c8 4069     		ldr	r0, [r0, #20]
 175              	.LVL20:
 176              		.loc 1 148 0
 177 00ca 27EE237A 		fmuls	s14, s14, s7
 178              		.loc 1 149 0
 179 00ce 67EEA37A 		fmuls	s15, s15, s7
 180              		.loc 1 141 0
 181 00d2 013C     		subs	r4, r4, #1
 182              	.LVL21:
 183              		.loc 1 148 0
 184 00d4 82ED007A 		fsts	s14, [r2]
 185              	.LVL22:
 186              		.loc 1 149 0
 187 00d8 C2ED017A 		fsts	s15, [r2, #4]
 188              		.loc 1 151 0
 189 00dc E300     		lsls	r3, r4, #3
 190              	.LVL23:
 191              		.loc 1 154 0
 192 00de A4B3     		cbz	r4, .L6
 193 00e0 083B     		subs	r3, r3, #8
 194              	.LVL24:
 195 00e2 0B44     		add	r3, r3, r1
 196              	.LVL25:
 197 00e4 1030     		adds	r0, r0, #16
 198 00e6 1032     		adds	r2, r2, #16
 199              	.LVL26:
 200 00e8 1031     		adds	r1, r1, #16
 201              	.LVL27:
 202              	.L8:
 203              		.loc 1 159 0
 204 00ea 93ED035A 		flds	s10, [r3, #12]
 205              	.LVL28:
 206              		.loc 1 162 0
 207 00ee 51ED016A 		flds	s13, [r1, #-4]
 208              		.loc 1 160 0
 209 00f2 93ED024A 		flds	s8, [r3, #8]
 210              	.LVL29:
 211              		.loc 1 161 0
 212 00f6 51ED027A 		flds	s15, [r1, #-8]
 213              	.LVL30:
 214              		.loc 1 164 0
 215 00fa 10ED026A 		flds	s12, [r0, #-8]
 216              	.LVL31:
 217              		.loc 1 165 0
 218 00fe 50ED015A 		flds	s11, [r0, #-4]
 219              	.LVL32:
 220              		.loc 1 167 0
 221 0102 77EEC44A 		fsubs	s9, s15, s8
 222              	.LVL33:
 223              		.loc 1 178 0
 224 0106 36EEC57A 		fsubs	s14, s13, s10
 225              		.loc 1 177 0
 226 010a 77EE847A 		fadds	s15, s15, s8
 227              	.LVL34:
ARM GAS  /tmp/cc0ojrn7.s 			page 5


 228 010e B1EE466A 		fnegs	s12, s12
 229              	.LVL35:
 230              		.loc 1 178 0
 231 0112 A5EEA47A 		vfma.f32	s14, s11, s9
 232              		.loc 1 154 0
 233 0116 013C     		subs	r4, r4, #1
 234              	.LVL36:
 235 0118 A3F10803 		sub	r3, r3, #8
 236              	.LVL37:
 237              		.loc 1 177 0
 238 011c E6EE247A 		vfma.f32	s15, s12, s9
 239 0120 01F10801 		add	r1, r1, #8
 240              	.LVL38:
 241 0124 00F10800 		add	r0, r0, #8
 242              	.LVL39:
 243              		.loc 1 168 0
 244 0128 76EE856A 		fadds	s13, s13, s10
 245              	.LVL40:
 246 012c 02F10802 		add	r2, r2, #8
 247              		.loc 1 177 0
 248 0130 E5EEE67A 		vfms.f32	s15, s11, s13
 249              		.loc 1 178 0
 250 0134 A6EE267A 		vfma.f32	s14, s12, s13
 251              		.loc 1 177 0
 252 0138 67EEA37A 		fmuls	s15, s15, s7
 253              		.loc 1 178 0
 254 013c 27EE237A 		fmuls	s14, s14, s7
 255              		.loc 1 177 0
 256 0140 42ED047A 		fsts	s15, [r2, #-16]
 257              	.LVL41:
 258              		.loc 1 178 0
 259 0144 02ED037A 		fsts	s14, [r2, #-12]
 260              	.LVL42:
 261              		.loc 1 154 0
 262 0148 CFD1     		bne	.L8
 263              	.LVL43:
 264              	.L6:
 265              		.loc 1 185 0
 266 014a 5DF8044B 		ldr	r4, [sp], #4
 267              		.cfi_restore 4
 268              		.cfi_def_cfa_offset 0
 269 014e 7047     		bx	lr
 270              		.cfi_endproc
 271              	.LFE136:
 272              		.size	merge_rfft_f32, .-merge_rfft_f32
 273              		.align	2
 274              		.p2align 4,,15
 275              		.global	arm_rfft_fast_f32
 276              		.thumb
 277              		.thumb_func
 278              		.type	arm_rfft_fast_f32, %function
 279              	arm_rfft_fast_f32:
 280              	.LFB137:
 281              		.loc 1 304 0
 282              		.cfi_startproc
 283              		@ args = 0, pretend = 0, frame = 0
 284              		@ frame_needed = 0, uses_anonymous_args = 0
ARM GAS  /tmp/cc0ojrn7.s 			page 6


 285              	.LVL44:
 286 0150 2DE9F041 		push	{r4, r5, r6, r7, r8, lr}
 287              		.cfi_def_cfa_offset 24
 288              		.cfi_offset 4, -24
 289              		.cfi_offset 5, -20
 290              		.cfi_offset 6, -16
 291              		.cfi_offset 7, -12
 292              		.cfi_offset 8, -8
 293              		.cfi_offset 14, -4
 294              		.loc 1 306 0
 295 0154 058A     		ldrh	r5, [r0, #16]
 296 0156 6D08     		lsrs	r5, r5, #1
 297 0158 0580     		strh	r5, [r0]	@ movhi
 298              		.loc 1 304 0
 299 015a 0446     		mov	r4, r0
 300              	.LVL45:
 301 015c 1646     		mov	r6, r2
 302              		.loc 1 309 0
 303 015e 1D46     		mov	r5, r3
 304 0160 5BB9     		cbnz	r3, .L15
 305 0162 0F46     		mov	r7, r1
 306              		.loc 1 320 0
 307 0164 1A46     		mov	r2, r3
 308              	.LVL46:
 309 0166 0123     		movs	r3, #1
 310              	.LVL47:
 311 0168 FFF7FEFF 		bl	arm_cfft_f32
 312              	.LVL48:
 313              		.loc 1 323 0
 314 016c 2046     		mov	r0, r4
 315 016e 3946     		mov	r1, r7
 316 0170 3246     		mov	r2, r6
 317              		.loc 1 325 0
 318 0172 BDE8F041 		pop	{r4, r5, r6, r7, r8, lr}
 319              		.cfi_remember_state
 320              		.cfi_restore 14
 321              		.cfi_restore 8
 322              		.cfi_restore 7
 323              		.cfi_restore 6
 324              		.cfi_restore 5
 325              		.cfi_restore 4
 326              		.cfi_def_cfa_offset 0
 327              	.LVL49:
 328              		.loc 1 323 0
 329 0176 FFF7FEBF 		b	stage_rfft_f32
 330              	.LVL50:
 331              	.L15:
 332              		.cfi_restore_state
 333              		.loc 1 312 0
 334 017a FFF7FEFF 		bl	merge_rfft_f32
 335              	.LVL51:
 336              		.loc 1 315 0
 337 017e 2046     		mov	r0, r4
 338 0180 3146     		mov	r1, r6
 339 0182 2A46     		mov	r2, r5
 340 0184 0123     		movs	r3, #1
 341              		.loc 1 325 0
ARM GAS  /tmp/cc0ojrn7.s 			page 7


 342 0186 BDE8F041 		pop	{r4, r5, r6, r7, r8, lr}
 343              		.cfi_restore 14
 344              		.cfi_restore 8
 345              		.cfi_restore 7
 346              		.cfi_restore 6
 347              		.cfi_restore 5
 348              		.cfi_restore 4
 349              		.cfi_def_cfa_offset 0
 350              	.LVL52:
 351              		.loc 1 315 0
 352 018a FFF7FEBF 		b	arm_cfft_f32
 353              	.LVL53:
 354              		.cfi_endproc
 355              	.LFE137:
 356              		.size	arm_rfft_fast_f32, .-arm_rfft_fast_f32
 357              	.Letext0:
 358              		.file 2 "/d_drive/axoloti/platform_linux/arm-none-eabi/include/machine/_default_types.h"
 359              		.file 3 "/d_drive/axoloti/platform_linux/arm-none-eabi/include/sys/_stdint.h"
 360              		.file 4 "/d_drive/axoloti/platform_linux/../CMSIS//DSP_Lib/Include/arm_math.h"