ARM GAS  /tmp/ccMVu7sD.s 			page 1


   1              		.syntax unified
   2              		.cpu cortex-m4
   3              		.eabi_attribute 27, 1
   4              		.eabi_attribute 28, 1
   5              		.fpu fpv4-sp-d16
   6              		.eabi_attribute 20, 1
   7              		.eabi_attribute 21, 1
   8              		.eabi_attribute 23, 3
   9              		.eabi_attribute 24, 1
  10              		.eabi_attribute 25, 1
  11              		.eabi_attribute 26, 1
  12              		.eabi_attribute 30, 2
  13              		.eabi_attribute 34, 1
  14              		.eabi_attribute 18, 4
  15              		.thumb
  16              		.file	"arm_mult_q31.c"
  17              		.text
  18              	.Ltext0:
  19              		.cfi_sections	.debug_frame
  20              		.align	2
  21              		.p2align 4,,15
  22              		.global	arm_mult_q31
  23              		.thumb
  24              		.thumb_func
  25              		.type	arm_mult_q31, %function
  26              	arm_mult_q31:
  27              	.LFB135:
  28              		.file 1 "/home/sbcu/Dropbox/pcb-layouts/axo-on-discovery-board/axoloti/platform_linux/../CMSIS//DS
  29              		.loc 1 71 0
  30              		.cfi_startproc
  31              		@ args = 0, pretend = 0, frame = 16
  32              		@ frame_needed = 0, uses_anonymous_args = 0
  33              	.LVL0:
  34 0000 2DE9F04F 		push	{r4, r5, r6, r7, r8, r9, r10, fp, lr}
  35              		.cfi_def_cfa_offset 36
  36              		.cfi_offset 4, -36
  37              		.cfi_offset 5, -32
  38              		.cfi_offset 6, -28
  39              		.cfi_offset 7, -24
  40              		.cfi_offset 8, -20
  41              		.cfi_offset 9, -16
  42              		.cfi_offset 10, -12
  43              		.cfi_offset 11, -8
  44              		.cfi_offset 14, -4
  45 0004 85B0     		sub	sp, sp, #20
  46              		.cfi_def_cfa_offset 56
  47              		.loc 1 71 0
  48 0006 8346     		mov	fp, r0
  49 0008 0093     		str	r3, [sp]
  50              	.LVL1:
  51              		.loc 1 86 0
  52 000a 9B08     		lsrs	r3, r3, #2
  53              	.LVL2:
  54              		.loc 1 71 0
  55 000c 8A46     		mov	r10, r1
  56 000e 9146     		mov	r9, r2
  57              		.loc 1 86 0
ARM GAS  /tmp/ccMVu7sD.s 			page 2


  58 0010 0193     		str	r3, [sp, #4]
  59 0012 41D0     		beq	.L2
  60 0014 00F1100C 		add	ip, r0, #16
  61 0018 01F1100E 		add	lr, r1, #16
  62 001c 02F11008 		add	r8, r2, #16
  63 0020 0291     		str	r1, [sp, #8]
  64 0022 0392     		str	r2, [sp, #12]
  65 0024 9946     		mov	r9, r3
  66              	.LVL3:
  67              	.L3:
  68              		.loc 1 97 0
  69 0026 1EE90C00 		ldmdb	lr, {r2, r3}
  70              		.loc 1 90 0
  71 002a 5CF8107C 		ldr	r7, [ip, #-16]
  72              	.LVL4:
  73              		.loc 1 94 0
  74 002e 5EF8101C 		ldr	r1, [lr, #-16]
  75              		.loc 1 95 0
  76 0032 5EF80C5C 		ldr	r5, [lr, #-12]
  77              		.loc 1 91 0
  78 0036 5CF80C6C 		ldr	r6, [ip, #-12]
  79              	.LVL5:
  80              		.loc 1 92 0
  81 003a 5CF8084C 		ldr	r4, [ip, #-8]
  82              	.LVL6:
  83              		.loc 1 99 0
  84 003e 87FB01AB 		smull	r10, fp, r7, r1
  85              		.loc 1 100 0
  86 0042 86FB0567 		smull	r6, r7, r6, r5
  87              	.LVL7:
  88              	.LBB2:
  89              		.loc 1 104 0
  90              	@ 104 "/home/sbcu/Dropbox/pcb-layouts/axo-on-discovery-board/axoloti/platform_linux/../CMSIS//DSP_L
  91 0046 0BF31E05 		ssat r5, #31, fp
  92              	@ 0 "" 2
  93              	.LVL8:
  94              		.thumb
  95              	.LBE2:
  96              		.loc 1 109 0
  97 004a 6E00     		lsls	r6, r5, #1
  98              		.loc 1 101 0
  99 004c 84FB0245 		smull	r4, r5, r4, r2
 100              	.LVL9:
 101              		.loc 1 102 0
 102 0050 5CF8042C 		ldr	r2, [ip, #-4]
 103              	.LVL10:
 104              	.LBB3:
 105              		.loc 1 105 0
 106              	@ 105 "/home/sbcu/Dropbox/pcb-layouts/axo-on-discovery-board/axoloti/platform_linux/../CMSIS//DSP_L
 107 0054 07F31E01 		ssat r1, #31, r7
 108              	@ 0 "" 2
 109              	.LVL11:
 110              		.thumb
 111              	.LBE3:
 112              		.loc 1 102 0
 113 0058 82FB0323 		smull	r2, r3, r2, r3
 114              		.loc 1 110 0
ARM GAS  /tmp/ccMVu7sD.s 			page 3


 115 005c 4900     		lsls	r1, r1, #1
 116              	.LVL12:
 117              	.LBB4:
 118              		.loc 1 106 0
 119              	@ 106 "/home/sbcu/Dropbox/pcb-layouts/axo-on-discovery-board/axoloti/platform_linux/../CMSIS//DSP_L
 120 005e 05F31E04 		ssat r4, #31, r5
 121              	@ 0 "" 2
 122              	.LVL13:
 123              		.thumb
 124              	.LBE4:
 125              	.LBB5:
 126              		.loc 1 107 0
 127              	@ 107 "/home/sbcu/Dropbox/pcb-layouts/axo-on-discovery-board/axoloti/platform_linux/../CMSIS//DSP_L
 128 0062 03F31E03 		ssat r3, #31, r3
 129              	@ 0 "" 2
 130              	.LVL14:
 131              		.thumb
 132              	.LBE5:
 133              		.loc 1 111 0
 134 0066 6200     		lsls	r2, r4, #1
 135              		.loc 1 112 0
 136 0068 5B00     		lsls	r3, r3, #1
 137              	.LVL15:
 138              		.loc 1 86 0
 139 006a B9F10109 		subs	r9, r9, #1
 140              	.LVL16:
 141              		.loc 1 109 0
 142 006e 48F8106C 		str	r6, [r8, #-16]
 143              	.LVL17:
 144              		.loc 1 112 0
 145 0072 08E90E00 		stmdb	r8, {r1, r2, r3}
 146 0076 0CF1100C 		add	ip, ip, #16
 147              	.LVL18:
 148 007a 0EF1100E 		add	lr, lr, #16
 149 007e 08F11008 		add	r8, r8, #16
 150              		.loc 1 86 0
 151 0082 D0D1     		bne	.L3
 152 0084 019B     		ldr	r3, [sp, #4]
 153 0086 DDF808A0 		ldr	r10, [sp, #8]
 154 008a DDF80C90 		ldr	r9, [sp, #12]
 155              	.LVL19:
 156 008e 1B01     		lsls	r3, r3, #4
 157 0090 8346     		mov	fp, r0
 158 0092 9B44     		add	fp, fp, r3
 159 0094 9A44     		add	r10, r10, r3
 160 0096 9944     		add	r9, r9, r3
 161              	.LVL20:
 162              	.L2:
 163              		.loc 1 122 0
 164 0098 009B     		ldr	r3, [sp]
 165 009a 13F00300 		ands	r0, r3, #3
 166              	.LVL21:
 167 009e 0DD0     		beq	.L1
 168              	.LVL22:
 169              	.L5:
 170              		.loc 1 126 0
 171 00a0 5BF8043B 		ldr	r3, [fp], #4
ARM GAS  /tmp/ccMVu7sD.s 			page 4


 172              	.LVL23:
 173              		.loc 1 127 0
 174 00a4 5AF8042B 		ldr	r2, [r10], #4
 175              	.LVL24:
 176              		.loc 1 122 0
 177 00a8 0138     		subs	r0, r0, #1
 178              	.LVL25:
 179              		.loc 1 128 0
 180 00aa 83FB0223 		smull	r2, r3, r3, r2
 181              	.LVL26:
 182              	.LBB6:
 183              		.loc 1 129 0
 184              	@ 129 "/home/sbcu/Dropbox/pcb-layouts/axo-on-discovery-board/axoloti/platform_linux/../CMSIS//DSP_L
 185 00ae 03F31E03 		ssat r3, #31, r3
 186              	@ 0 "" 2
 187              	.LVL27:
 188              		.thumb
 189              	.LBE6:
 190              		.loc 1 130 0
 191 00b2 4FEA4303 		lsl	r3, r3, #1
 192              	.LVL28:
 193 00b6 49F8043B 		str	r3, [r9], #4
 194              	.LVL29:
 195              		.loc 1 122 0
 196 00ba F1D1     		bne	.L5
 197              	.L1:
 198              		.loc 1 156 0
 199 00bc 05B0     		add	sp, sp, #20
 200              		.cfi_def_cfa_offset 36
 201              	.LVL30:
 202              		@ sp needed
 203 00be BDE8F08F 		pop	{r4, r5, r6, r7, r8, r9, r10, fp, pc}
 204              		.cfi_endproc
 205              	.LFE135:
 206              		.size	arm_mult_q31, .-arm_mult_q31
 207              	.Letext0:
 208              		.file 2 "/home/sbcu/Dropbox/pcb-layouts/axo-on-discovery-board/axoloti/platform_linux/arm-none-eab
 209              		.file 3 "/home/sbcu/Dropbox/pcb-layouts/axo-on-discovery-board/axoloti/platform_linux/arm-none-eab
 210              		.file 4 "/home/sbcu/Dropbox/pcb-layouts/axo-on-discovery-board/axoloti/platform_linux/../CMSIS//DS