ARM GAS  /tmp/ccKhdJpS.s 			page 1


   1              		.syntax unified
   2              		.cpu cortex-m4
   3              		.eabi_attribute 27, 1
   4              		.eabi_attribute 28, 1
   5              		.fpu fpv4-sp-d16
   6              		.eabi_attribute 20, 1
   7              		.eabi_attribute 21, 1
   8              		.eabi_attribute 23, 3
   9              		.eabi_attribute 24, 1
  10              		.eabi_attribute 25, 1
  11              		.eabi_attribute 26, 1
  12              		.eabi_attribute 30, 2
  13              		.eabi_attribute 34, 1
  14              		.eabi_attribute 18, 4
  15              		.thumb
  16              		.file	"arm_cfft_radix4_init_q31.c"
  17              		.text
  18              	.Ltext0:
  19              		.cfi_sections	.debug_frame
  20              		.align	2
  21              		.p2align 4,,15
  22              		.global	arm_cfft_radix4_init_q31
  23              		.thumb
  24              		.thumb_func
  25              		.type	arm_cfft_radix4_init_q31, %function
  26              	arm_cfft_radix4_init_q31:
  27              	.LFB135:
  28              		.file 1 "/home/sbcu/Dropbox/pcb-layouts/axo-on-discovery-board/axoloti/platform_linux/../CMSIS//DS
  29              		.loc 1 81 0
  30              		.cfi_startproc
  31              		@ args = 0, pretend = 0, frame = 0
  32              		@ frame_needed = 0, uses_anonymous_args = 0
  33              		@ link register save eliminated.
  34              	.LVL0:
  35 0000 10B4     		push	{r4}
  36              		.cfi_def_cfa_offset 4
  37              		.cfi_offset 4, -4
  38              		.loc 1 94 0
  39 0002 B1F5807F 		cmp	r1, #256
  40              		.loc 1 87 0
  41 0006 244C     		ldr	r4, .L12
  42              		.loc 1 89 0
  43 0008 8270     		strb	r2, [r0, #2]
  44              		.loc 1 91 0
  45 000a C370     		strb	r3, [r0, #3]
  46              		.loc 1 85 0
  47 000c 0180     		strh	r1, [r0]	@ movhi
  48              		.loc 1 87 0
  49 000e 4460     		str	r4, [r0, #4]
  50              		.loc 1 94 0
  51 0010 37D0     		beq	.L3
  52 0012 0CD8     		bhi	.L4
  53 0014 1029     		cmp	r1, #16
  54 0016 29D0     		beq	.L5
  55 0018 4029     		cmp	r1, #64
  56 001a 18D1     		bne	.L9
  57              		.loc 1 127 0
ARM GAS  /tmp/ccKhdJpS.s 			page 2


  58 001c 1F4B     		ldr	r3, .L12+4
  59              	.LVL1:
  60              		.loc 1 125 0
  61 001e 8181     		strh	r1, [r0, #12]	@ movhi
  62              		.loc 1 126 0
  63 0020 C181     		strh	r1, [r0, #14]	@ movhi
  64              		.loc 1 127 0
  65 0022 8360     		str	r3, [r0, #8]
  66              		.loc 1 83 0
  67 0024 0020     		movs	r0, #0
  68              	.LVL2:
  69              		.loc 1 144 0
  70 0026 40B2     		sxtb	r0, r0
  71 0028 5DF8044B 		ldr	r4, [sp], #4
  72              		.cfi_remember_state
  73              		.cfi_restore 4
  74              		.cfi_def_cfa_offset 0
  75 002c 7047     		bx	lr
  76              	.LVL3:
  77              	.L4:
  78              		.cfi_restore_state
  79              		.loc 1 94 0
  80 002e B1F5806F 		cmp	r1, #1024
  81 0032 11D0     		beq	.L7
  82 0034 B1F5805F 		cmp	r1, #4096
  83 0038 09D1     		bne	.L9
  84              		.loc 1 99 0
  85 003a 0123     		movs	r3, #1
  86              	.LVL4:
  87              		.loc 1 103 0
  88 003c 184A     		ldr	r2, .L12+8
  89              	.LVL5:
  90              		.loc 1 99 0
  91 003e 8381     		strh	r3, [r0, #12]	@ movhi
  92              		.loc 1 101 0
  93 0040 C381     		strh	r3, [r0, #14]	@ movhi
  94              		.loc 1 103 0
  95 0042 8260     		str	r2, [r0, #8]
  96              		.loc 1 83 0
  97 0044 0020     		movs	r0, #0
  98              	.LVL6:
  99              		.loc 1 144 0
 100 0046 40B2     		sxtb	r0, r0
 101 0048 5DF8044B 		ldr	r4, [sp], #4
 102              		.cfi_remember_state
 103              		.cfi_restore 4
 104              		.cfi_def_cfa_offset 0
 105 004c 7047     		bx	lr
 106              	.LVL7:
 107              	.L9:
 108              		.cfi_restore_state
 109              		.loc 1 139 0
 110 004e FF20     		movs	r0, #255
 111              	.LVL8:
 112              		.loc 1 144 0
 113 0050 40B2     		sxtb	r0, r0
 114 0052 5DF8044B 		ldr	r4, [sp], #4
ARM GAS  /tmp/ccKhdJpS.s 			page 3


 115              		.cfi_remember_state
 116              		.cfi_restore 4
 117              		.cfi_def_cfa_offset 0
 118 0056 7047     		bx	lr
 119              	.LVL9:
 120              	.L7:
 121              		.cfi_restore_state
 122              		.loc 1 109 0
 123 0058 0423     		movs	r3, #4
 124              	.LVL10:
 125              		.loc 1 113 0
 126 005a 124A     		ldr	r2, .L12+12
 127              	.LVL11:
 128              		.loc 1 109 0
 129 005c 8381     		strh	r3, [r0, #12]	@ movhi
 130              		.loc 1 111 0
 131 005e C381     		strh	r3, [r0, #14]	@ movhi
 132              		.loc 1 113 0
 133 0060 8260     		str	r2, [r0, #8]
 134              		.loc 1 83 0
 135 0062 0020     		movs	r0, #0
 136              	.LVL12:
 137              		.loc 1 144 0
 138 0064 40B2     		sxtb	r0, r0
 139 0066 5DF8044B 		ldr	r4, [sp], #4
 140              		.cfi_remember_state
 141              		.cfi_restore 4
 142              		.cfi_def_cfa_offset 0
 143 006a 7047     		bx	lr
 144              	.LVL13:
 145              	.L5:
 146              		.cfi_restore_state
 147              		.loc 1 132 0
 148 006c 4FF48073 		mov	r3, #256
 149              	.LVL14:
 150              		.loc 1 134 0
 151 0070 0D4A     		ldr	r2, .L12+16
 152              	.LVL15:
 153              		.loc 1 132 0
 154 0072 8381     		strh	r3, [r0, #12]	@ movhi
 155              		.loc 1 133 0
 156 0074 C381     		strh	r3, [r0, #14]	@ movhi
 157              		.loc 1 134 0
 158 0076 8260     		str	r2, [r0, #8]
 159              		.loc 1 83 0
 160 0078 0020     		movs	r0, #0
 161              	.LVL16:
 162              		.loc 1 144 0
 163 007a 40B2     		sxtb	r0, r0
 164 007c 5DF8044B 		ldr	r4, [sp], #4
 165              		.cfi_remember_state
 166              		.cfi_restore 4
 167              		.cfi_def_cfa_offset 0
 168 0080 7047     		bx	lr
 169              	.LVL17:
 170              	.L3:
 171              		.cfi_restore_state
ARM GAS  /tmp/ccKhdJpS.s 			page 4


 172              		.loc 1 118 0
 173 0082 1023     		movs	r3, #16
 174              	.LVL18:
 175              		.loc 1 120 0
 176 0084 094A     		ldr	r2, .L12+20
 177              	.LVL19:
 178              		.loc 1 118 0
 179 0086 8381     		strh	r3, [r0, #12]	@ movhi
 180              		.loc 1 119 0
 181 0088 C381     		strh	r3, [r0, #14]	@ movhi
 182              		.loc 1 120 0
 183 008a 8260     		str	r2, [r0, #8]
 184              		.loc 1 83 0
 185 008c 0020     		movs	r0, #0
 186              	.LVL20:
 187              		.loc 1 144 0
 188 008e 40B2     		sxtb	r0, r0
 189 0090 5DF8044B 		ldr	r4, [sp], #4
 190              		.cfi_restore 4
 191              		.cfi_def_cfa_offset 0
 192 0094 7047     		bx	lr
 193              	.L13:
 194 0096 00BF     		.align	2
 195              	.L12:
 196 0098 00000000 		.word	twiddleCoef_4096_q31
 197 009c 7E000000 		.word	armBitRevTable+126
 198 00a0 00000000 		.word	armBitRevTable
 199 00a4 06000000 		.word	armBitRevTable+6
 200 00a8 FE010000 		.word	armBitRevTable+510
 201 00ac 1E000000 		.word	armBitRevTable+30
 202              		.cfi_endproc
 203              	.LFE135:
 204              		.size	arm_cfft_radix4_init_q31, .-arm_cfft_radix4_init_q31
 205              	.Letext0:
 206              		.file 2 "/home/sbcu/Dropbox/pcb-layouts/axo-on-discovery-board/axoloti/platform_linux/arm-none-eab
 207              		.file 3 "/home/sbcu/Dropbox/pcb-layouts/axo-on-discovery-board/axoloti/platform_linux/arm-none-eab
 208              		.file 4 "/home/sbcu/Dropbox/pcb-layouts/axo-on-discovery-board/axoloti/platform_linux/../CMSIS//DS
 209              		.file 5 "/home/sbcu/Dropbox/pcb-layouts/axo-on-discovery-board/axoloti/platform_linux/../CMSIS//DS