ARM GAS  /tmp/cccdQp3d.s 			page 1


   1              		.syntax unified
   2              		.cpu cortex-m4
   3              		.eabi_attribute 27, 1
   4              		.eabi_attribute 28, 1
   5              		.fpu fpv4-sp-d16
   6              		.eabi_attribute 20, 1
   7              		.eabi_attribute 21, 1
   8              		.eabi_attribute 23, 3
   9              		.eabi_attribute 24, 1
  10              		.eabi_attribute 25, 1
  11              		.eabi_attribute 26, 1
  12              		.eabi_attribute 30, 2
  13              		.eabi_attribute 34, 1
  14              		.eabi_attribute 18, 4
  15              		.thumb
  16              		.file	"arm_cfft_radix2_f32.c"
  17              		.text
  18              	.Ltext0:
  19              		.cfi_sections	.debug_frame
  20              		.align	2
  21              		.p2align 4,,15
  22              		.global	arm_radix2_butterfly_f32
  23              		.thumb
  24              		.thumb_func
  25              		.type	arm_radix2_butterfly_f32, %function
  26              	arm_radix2_butterfly_f32:
  27              	.LFB136:
  28              		.file 1 "/d_drive/axoloti/platform_linux/../CMSIS//DSP_Lib/Source/TransformFunctions/arm_cfft_radi
  29              		.loc 1 133 0
  30              		.cfi_startproc
  31              		@ args = 0, pretend = 0, frame = 16
  32              		@ frame_needed = 0, uses_anonymous_args = 0
  33              	.LVL0:
  34 0000 2DE9F04F 		push	{r4, r5, r6, r7, r8, r9, r10, fp, lr}
  35              		.cfi_def_cfa_offset 36
  36              		.cfi_offset 4, -36
  37              		.cfi_offset 5, -32
  38              		.cfi_offset 6, -28
  39              		.cfi_offset 7, -24
  40              		.cfi_offset 8, -20
  41              		.cfi_offset 9, -16
  42              		.cfi_offset 10, -12
  43              		.cfi_offset 11, -8
  44              		.cfi_offset 14, -4
  45 0004 85B0     		sub	sp, sp, #20
  46              		.cfi_def_cfa_offset 56
  47              		.loc 1 149 0
  48 0006 4E08     		lsrs	r6, r1, #1
  49              	.LVL1:
  50              		.loc 1 133 0
  51 0008 0290     		str	r0, [sp, #8]
  52 000a 0392     		str	r2, [sp, #12]
  53              		.loc 1 149 0
  54 000c 00F08B80 		beq	.L19
  55 0010 029C     		ldr	r4, [sp, #8]
  56 0012 F500     		lsls	r5, r6, #3
  57 0014 281D     		adds	r0, r5, #4
ARM GAS  /tmp/cccdQp3d.s 			page 2


  58              	.LVL2:
  59 0016 04EB050C 		add	ip, r4, r5
  60 001a 2246     		mov	r2, r4
  61              	.LVL3:
  62 001c 2044     		add	r0, r0, r4
  63 001e 271D     		adds	r7, r4, #4
  64 0020 039C     		ldr	r4, [sp, #12]
  65              	.LVL4:
  66 0022 E646     		mov	lr, ip
  67 0024 4FEAC308 		lsl	r8, r3, #3
  68              	.LVL5:
  69              	.L5:
  70              		.loc 1 165 0 discriminator 3
  71 0028 92ED017A 		flds	s14, [r2, #4]
  72              		.loc 1 162 0 discriminator 3
  73 002c 17ED016A 		flds	s12, [r7, #-4]
  74 0030 50ED016A 		flds	s13, [r0, #-4]
  75              		.loc 1 165 0 discriminator 3
  76 0034 DEED017A 		flds	s15, [lr, #4]
  77              		.loc 1 152 0 discriminator 3
  78 0038 D4ED015A 		flds	s11, [r4, #4]
  79              		.loc 1 151 0 discriminator 3
  80 003c D4ED004A 		flds	s9, [r4]
  81              	.LVL6:
  82              		.loc 1 163 0 discriminator 3
  83 0040 36EE664A 		fsubs	s8, s12, s13
  84              	.LVL7:
  85              		.loc 1 165 0 discriminator 3
  86 0044 77EE673A 		fsubs	s7, s14, s15
  87              	.LVL8:
  88 0048 25EEC45A 		fnmuls	s10, s11, s8
  89              		.loc 1 169 0 discriminator 3
  90 004c 63EEA55A 		fmuls	s11, s7, s11
  91              	.LVL9:
  92              		.loc 1 177 0 discriminator 3
  93 0050 A3EEA45A 		vfma.f32	s10, s7, s9
  94 0054 0832     		adds	r2, r2, #8
  95 0056 4444     		add	r4, r4, r8
  96              	.LVL10:
  97              		.loc 1 176 0 discriminator 3
  98 0058 E4EE245A 		vfma.f32	s11, s8, s9
  99              	.LVL11:
 100 005c 0837     		adds	r7, r7, #8
 101 005e 0830     		adds	r0, r0, #8
 102              		.loc 1 162 0 discriminator 3
 103 0060 76EE266A 		fadds	s13, s12, s13
 104              	.LVL12:
 105              		.loc 1 166 0 discriminator 3
 106 0064 77EE277A 		fadds	s15, s14, s15
 107              	.LVL13:
 108              		.loc 1 173 0 discriminator 3
 109 0068 47ED036A 		fsts	s13, [r7, #-12]
 110              		.loc 1 174 0 discriminator 3
 111 006c 42ED017A 		fsts	s15, [r2, #-4]
 112              		.loc 1 149 0 discriminator 3
 113 0070 9445     		cmp	ip, r2
 114              		.loc 1 176 0 discriminator 3
ARM GAS  /tmp/cccdQp3d.s 			page 3


 115 0072 40ED035A 		fsts	s11, [r0, #-12]
 116 0076 0EF1080E 		add	lr, lr, #8
 117              		.loc 1 177 0 discriminator 3
 118 007a 0EED015A 		fsts	s10, [lr, #-4]
 119              		.loc 1 149 0 discriminator 3
 120 007e D3D1     		bne	.L5
 121              		.loc 1 182 0
 122 0080 5B00     		lsls	r3, r3, #1
 123              	.LVL14:
 124              		.loc 1 185 0
 125 0082 022E     		cmp	r6, #2
 126              		.loc 1 182 0
 127 0084 1FFA83FB 		uxth	fp, r3
 128              	.LVL15:
 129              		.loc 1 185 0
 130 0088 4ED9     		bls	.L3
 131 008a 0196     		str	r6, [sp, #4]
 132              	.LVL16:
 133              	.L9:
 134              		.loc 1 188 0
 135 008c 4FEA5608 		lsr	r8, r6, #1
 136              	.LVL17:
 137 0090 029F     		ldr	r7, [sp, #8]
 138 0092 DDF80CC0 		ldr	ip, [sp, #12]
 139 0096 4FEAC80A 		lsl	r10, r8, #3
 140 009a 4FEACB09 		lsl	r9, fp, #3
 141              		.loc 1 192 0
 142 009e 4FF0000E 		mov	lr, #0
 143              	.LVL18:
 144              	.L8:
 145              		.loc 1 195 0
 146 00a2 9CED003A 		flds	s6, [ip]
 147              	.LVL19:
 148              		.loc 1 196 0
 149 00a6 DCED013A 		flds	s7, [ip, #4]
 150              	.LVL20:
 151 00aa 07EB0A03 		add	r3, r7, r10
 152 00ae 381D     		adds	r0, r7, #4
 153 00b0 3A46     		mov	r2, r7
 154              		.loc 1 200 0
 155 00b2 7446     		mov	r4, lr
 156              	.LVL21:
 157              	.L7:
 158              		.loc 1 204 0 discriminator 1
 159 00b4 10ED016A 		flds	s12, [r0, #-4]
 160              		.loc 1 207 0 discriminator 1
 161 00b8 92ED017A 		flds	s14, [r2, #4]
 162              		.loc 1 204 0 discriminator 1
 163 00bc D3ED006A 		flds	s13, [r3]
 164              	.LVL22:
 165              		.loc 1 207 0 discriminator 1
 166 00c0 D3ED017A 		flds	s15, [r3, #4]
 167              	.LVL23:
 168              		.loc 1 205 0 discriminator 1
 169 00c4 76EE664A 		fsubs	s9, s12, s13
 170              	.LVL24:
 171              		.loc 1 207 0 discriminator 1
ARM GAS  /tmp/cccdQp3d.s 			page 4


 172 00c8 37EE674A 		fsubs	s8, s14, s15
 173              	.LVL25:
 174 00cc 63EEE45A 		fnmuls	s11, s7, s9
 175              		.loc 1 211 0 discriminator 1
 176 00d0 24EE235A 		fmuls	s10, s8, s7
 177              	.LVL26:
 178              		.loc 1 219 0 discriminator 1
 179 00d4 E4EE035A 		vfma.f32	s11, s8, s6
 180              		.loc 1 221 0 discriminator 1
 181 00d8 3444     		add	r4, r4, r6
 182              	.LVL27:
 183              		.loc 1 222 0 discriminator 1
 184 00da A142     		cmp	r1, r4
 185              		.loc 1 218 0 discriminator 1
 186 00dc A4EE835A 		vfma.f32	s10, s9, s6
 187              	.LVL28:
 188              		.loc 1 204 0 discriminator 1
 189 00e0 76EE266A 		fadds	s13, s12, s13
 190              	.LVL29:
 191              		.loc 1 208 0 discriminator 1
 192 00e4 77EE277A 		fadds	s15, s14, s15
 193              	.LVL30:
 194              		.loc 1 215 0 discriminator 1
 195 00e8 40ED016A 		fsts	s13, [r0, #-4]
 196              		.loc 1 216 0 discriminator 1
 197 00ec C2ED017A 		fsts	s15, [r2, #4]
 198 00f0 2844     		add	r0, r0, r5
 199              		.loc 1 218 0 discriminator 1
 200 00f2 83ED005A 		fsts	s10, [r3]
 201              		.loc 1 219 0 discriminator 1
 202 00f6 C3ED015A 		fsts	s11, [r3, #4]
 203 00fa 2A44     		add	r2, r2, r5
 204 00fc 2B44     		add	r3, r3, r5
 205              		.loc 1 222 0 discriminator 1
 206 00fe D9D8     		bhi	.L7
 207              		.loc 1 223 0
 208 0100 0EF1010E 		add	lr, lr, #1
 209              	.LVL31:
 210              		.loc 1 224 0
 211 0104 F045     		cmp	r8, lr
 212 0106 CC44     		add	ip, ip, r9
 213 0108 07F10807 		add	r7, r7, #8
 214 010c C9D8     		bhi	.L8
 215              		.loc 1 185 0 discriminator 2
 216 010e 019B     		ldr	r3, [sp, #4]
 217 0110 5B08     		lsrs	r3, r3, #1
 218              		.loc 1 225 0 discriminator 2
 219 0112 4FEA4B0B 		lsl	fp, fp, #1
 220              	.LVL32:
 221              		.loc 1 185 0 discriminator 2
 222 0116 022B     		cmp	r3, #2
 223 0118 0193     		str	r3, [sp, #4]
 224              	.LVL33:
 225              		.loc 1 225 0 discriminator 2
 226 011a 1FFA8BFB 		uxth	fp, fp
 227              	.LVL34:
 228 011e 4646     		mov	r6, r8
ARM GAS  /tmp/cccdQp3d.s 			page 5


 229              	.LVL35:
 230              		.loc 1 185 0 discriminator 2
 231 0120 02D9     		bls	.L3
 232              	.LVL36:
 233 0122 F500     		lsls	r5, r6, #3
 234 0124 B2E7     		b	.L9
 235              	.LVL37:
 236              	.L19:
 237              		.loc 1 229 0
 238 0126 11B3     		cbz	r1, .L1
 239              	.LVL38:
 240              	.L3:
 241 0128 029B     		ldr	r3, [sp, #8]
 242              		.loc 1 200 0
 243 012a 0020     		movs	r0, #0
 244 012c 03F10802 		add	r2, r3, #8
 245              	.LVL39:
 246              	.L10:
 247              		.loc 1 231 0 discriminator 3
 248 0130 12ED026A 		flds	s12, [r2, #-8]
 249 0134 D3ED026A 		flds	s13, [r3, #8]
 250              	.LVL40:
 251              		.loc 1 234 0 discriminator 3
 252 0138 93ED017A 		flds	s14, [r3, #4]
 253 013c D3ED037A 		flds	s15, [r3, #12]
 254              	.LVL41:
 255              		.loc 1 231 0 discriminator 3
 256 0140 76EE265A 		fadds	s11, s12, s13
 257              	.LVL42:
 258              		.loc 1 229 0 discriminator 3
 259 0144 0230     		adds	r0, r0, #2
 260              	.LVL43:
 261              		.loc 1 232 0 discriminator 3
 262 0146 76EE666A 		fsubs	s13, s12, s13
 263              	.LVL44:
 264              		.loc 1 235 0 discriminator 3
 265 014a 37EE276A 		fadds	s12, s14, s15
 266              	.LVL45:
 267              		.loc 1 234 0 discriminator 3
 268 014e 77EE677A 		fsubs	s15, s14, s15
 269              	.LVL46:
 270              		.loc 1 229 0 discriminator 3
 271 0152 8142     		cmp	r1, r0
 272              		.loc 1 237 0 discriminator 3
 273 0154 42ED025A 		fsts	s11, [r2, #-8]
 274 0158 03F11003 		add	r3, r3, #16
 275              		.loc 1 239 0 discriminator 3
 276 015c 43ED026A 		fsts	s13, [r3, #-8]
 277              		.loc 1 238 0 discriminator 3
 278 0160 03ED036A 		fsts	s12, [r3, #-12]
 279              		.loc 1 240 0 discriminator 3
 280 0164 43ED017A 		fsts	s15, [r3, #-4]
 281 0168 02F11002 		add	r2, r2, #16
 282              		.loc 1 229 0 discriminator 3
 283 016c E0D8     		bhi	.L10
 284              	.LVL47:
 285              	.L1:
ARM GAS  /tmp/cccdQp3d.s 			page 6


 286              		.loc 1 293 0
 287 016e 05B0     		add	sp, sp, #20
 288              		.cfi_def_cfa_offset 36
 289              		@ sp needed
 290 0170 BDE8F08F 		pop	{r4, r5, r6, r7, r8, r9, r10, fp, pc}
 291              		.cfi_endproc
 292              	.LFE136:
 293              		.size	arm_radix2_butterfly_f32, .-arm_radix2_butterfly_f32
 294              		.align	2
 295 0174 AFF30080 		.p2align 4,,15
 295      AFF30080 
 295      AFF30080 
 296              		.global	arm_radix2_butterfly_inverse_f32
 297              		.thumb
 298              		.thumb_func
 299              		.type	arm_radix2_butterfly_inverse_f32, %function
 300              	arm_radix2_butterfly_inverse_f32:
 301              	.LFB137:
 302              		.loc 1 302 0
 303              		.cfi_startproc
 304              		@ args = 0, pretend = 0, frame = 16
 305              		@ frame_needed = 0, uses_anonymous_args = 0
 306              	.LVL48:
 307 0180 2DE9F04F 		push	{r4, r5, r6, r7, r8, r9, r10, fp, lr}
 308              		.cfi_def_cfa_offset 36
 309              		.cfi_offset 4, -36
 310              		.cfi_offset 5, -32
 311              		.cfi_offset 6, -28
 312              		.cfi_offset 7, -24
 313              		.cfi_offset 8, -20
 314              		.cfi_offset 9, -16
 315              		.cfi_offset 10, -12
 316              		.cfi_offset 11, -8
 317              		.cfi_offset 14, -4
 318 0184 85B0     		sub	sp, sp, #20
 319              		.cfi_def_cfa_offset 56
 320              		.loc 1 316 0
 321 0186 4E08     		lsrs	r6, r1, #1
 322              	.LVL49:
 323              		.loc 1 302 0
 324 0188 0290     		str	r0, [sp, #8]
 325 018a 0392     		str	r2, [sp, #12]
 326              		.loc 1 316 0
 327 018c 00F08B80 		beq	.L37
 328 0190 029C     		ldr	r4, [sp, #8]
 329 0192 F500     		lsls	r5, r6, #3
 330 0194 281D     		adds	r0, r5, #4
 331              	.LVL50:
 332 0196 04EB050C 		add	ip, r4, r5
 333 019a 2246     		mov	r2, r4
 334              	.LVL51:
 335 019c 2044     		add	r0, r0, r4
 336 019e 271D     		adds	r7, r4, #4
 337 01a0 039C     		ldr	r4, [sp, #12]
 338              	.LVL52:
 339 01a2 E646     		mov	lr, ip
 340 01a4 4FEAC308 		lsl	r8, r3, #3
ARM GAS  /tmp/cccdQp3d.s 			page 7


 341              	.LVL53:
 342              	.L24:
 343              		.loc 1 326 0 discriminator 3
 344 01a8 92ED017A 		flds	s14, [r2, #4]
 345              		.loc 1 323 0 discriminator 3
 346 01ac 17ED016A 		flds	s12, [r7, #-4]
 347 01b0 50ED016A 		flds	s13, [r0, #-4]
 348              		.loc 1 326 0 discriminator 3
 349 01b4 DEED017A 		flds	s15, [lr, #4]
 350              		.loc 1 319 0 discriminator 3
 351 01b8 D4ED015A 		flds	s11, [r4, #4]
 352              		.loc 1 318 0 discriminator 3
 353 01bc D4ED004A 		flds	s9, [r4]
 354              	.LVL54:
 355              		.loc 1 324 0 discriminator 3
 356 01c0 36EE664A 		fsubs	s8, s12, s13
 357              	.LVL55:
 358              		.loc 1 326 0 discriminator 3
 359 01c4 77EE673A 		fsubs	s7, s14, s15
 360              	.LVL56:
 361              		.loc 1 332 0 discriminator 3
 362 01c8 24EE255A 		fmuls	s10, s8, s11
 363              	.LVL57:
 364 01cc 65EEE35A 		fnmuls	s11, s11, s7
 365              	.LVL58:
 366              		.loc 1 338 0 discriminator 3
 367 01d0 A3EEA45A 		vfma.f32	s10, s7, s9
 368              	.LVL59:
 369 01d4 0832     		adds	r2, r2, #8
 370 01d6 4444     		add	r4, r4, r8
 371              	.LVL60:
 372              		.loc 1 337 0 discriminator 3
 373 01d8 E4EE245A 		vfma.f32	s11, s8, s9
 374 01dc 0837     		adds	r7, r7, #8
 375 01de 0830     		adds	r0, r0, #8
 376              		.loc 1 323 0 discriminator 3
 377 01e0 76EE266A 		fadds	s13, s12, s13
 378              	.LVL61:
 379              		.loc 1 327 0 discriminator 3
 380 01e4 77EE277A 		fadds	s15, s14, s15
 381              	.LVL62:
 382              		.loc 1 334 0 discriminator 3
 383 01e8 47ED036A 		fsts	s13, [r7, #-12]
 384              		.loc 1 335 0 discriminator 3
 385 01ec 42ED017A 		fsts	s15, [r2, #-4]
 386              		.loc 1 316 0 discriminator 3
 387 01f0 9445     		cmp	ip, r2
 388              		.loc 1 337 0 discriminator 3
 389 01f2 40ED035A 		fsts	s11, [r0, #-12]
 390 01f6 0EF1080E 		add	lr, lr, #8
 391              		.loc 1 338 0 discriminator 3
 392 01fa 0EED015A 		fsts	s10, [lr, #-4]
 393              		.loc 1 316 0 discriminator 3
 394 01fe D3D1     		bne	.L24
 395              		.loc 1 341 0
 396 0200 5B00     		lsls	r3, r3, #1
 397              	.LVL63:
ARM GAS  /tmp/cccdQp3d.s 			page 8


 398              		.loc 1 344 0
 399 0202 022E     		cmp	r6, #2
 400              		.loc 1 341 0
 401 0204 1FFA83FB 		uxth	fp, r3
 402              	.LVL64:
 403              		.loc 1 344 0
 404 0208 4ED9     		bls	.L22
 405 020a 0196     		str	r6, [sp, #4]
 406              	.LVL65:
 407              	.L28:
 408              		.loc 1 347 0
 409 020c 4FEA5608 		lsr	r8, r6, #1
 410              	.LVL66:
 411 0210 029F     		ldr	r7, [sp, #8]
 412 0212 DDF80CC0 		ldr	ip, [sp, #12]
 413 0216 4FEAC80A 		lsl	r10, r8, #3
 414 021a 4FEACB09 		lsl	r9, fp, #3
 415              		.loc 1 351 0
 416 021e 4FF0000E 		mov	lr, #0
 417              	.LVL67:
 418              	.L27:
 419              		.loc 1 354 0
 420 0222 9CED003A 		flds	s6, [ip]
 421              	.LVL68:
 422              		.loc 1 355 0
 423 0226 DCED013A 		flds	s7, [ip, #4]
 424              	.LVL69:
 425 022a 07EB0A03 		add	r3, r7, r10
 426 022e 381D     		adds	r0, r7, #4
 427 0230 3A46     		mov	r2, r7
 428              		.loc 1 359 0
 429 0232 7446     		mov	r4, lr
 430              	.LVL70:
 431              	.L26:
 432              		.loc 1 363 0 discriminator 1
 433 0234 10ED016A 		flds	s12, [r0, #-4]
 434              		.loc 1 366 0 discriminator 1
 435 0238 92ED017A 		flds	s14, [r2, #4]
 436              		.loc 1 363 0 discriminator 1
 437 023c D3ED006A 		flds	s13, [r3]
 438              	.LVL71:
 439              		.loc 1 366 0 discriminator 1
 440 0240 D3ED017A 		flds	s15, [r3, #4]
 441              	.LVL72:
 442              		.loc 1 364 0 discriminator 1
 443 0244 76EE664A 		fsubs	s9, s12, s13
 444              	.LVL73:
 445              		.loc 1 366 0 discriminator 1
 446 0248 37EE674A 		fsubs	s8, s14, s15
 447              	.LVL74:
 448              		.loc 1 372 0 discriminator 1
 449 024c 64EEA35A 		fmuls	s11, s9, s7
 450              	.LVL75:
 451 0250 23EEC45A 		fnmuls	s10, s7, s8
 452              		.loc 1 378 0 discriminator 1
 453 0254 E4EE035A 		vfma.f32	s11, s8, s6
 454              	.LVL76:
ARM GAS  /tmp/cccdQp3d.s 			page 9


 455              		.loc 1 380 0 discriminator 1
 456 0258 3444     		add	r4, r4, r6
 457              	.LVL77:
 458              		.loc 1 381 0 discriminator 1
 459 025a A142     		cmp	r1, r4
 460              		.loc 1 377 0 discriminator 1
 461 025c A4EE835A 		vfma.f32	s10, s9, s6
 462              		.loc 1 363 0 discriminator 1
 463 0260 76EE266A 		fadds	s13, s12, s13
 464              	.LVL78:
 465              		.loc 1 367 0 discriminator 1
 466 0264 77EE277A 		fadds	s15, s14, s15
 467              	.LVL79:
 468              		.loc 1 374 0 discriminator 1
 469 0268 40ED016A 		fsts	s13, [r0, #-4]
 470              		.loc 1 375 0 discriminator 1
 471 026c C2ED017A 		fsts	s15, [r2, #4]
 472 0270 2844     		add	r0, r0, r5
 473              		.loc 1 377 0 discriminator 1
 474 0272 83ED005A 		fsts	s10, [r3]
 475              		.loc 1 378 0 discriminator 1
 476 0276 C3ED015A 		fsts	s11, [r3, #4]
 477 027a 2A44     		add	r2, r2, r5
 478 027c 2B44     		add	r3, r3, r5
 479              		.loc 1 381 0 discriminator 1
 480 027e D9D8     		bhi	.L26
 481              		.loc 1 382 0
 482 0280 0EF1010E 		add	lr, lr, #1
 483              	.LVL80:
 484              		.loc 1 383 0
 485 0284 F045     		cmp	r8, lr
 486 0286 CC44     		add	ip, ip, r9
 487 0288 07F10807 		add	r7, r7, #8
 488 028c C9D8     		bhi	.L27
 489              		.loc 1 344 0 discriminator 2
 490 028e 019B     		ldr	r3, [sp, #4]
 491 0290 5B08     		lsrs	r3, r3, #1
 492              		.loc 1 385 0 discriminator 2
 493 0292 4FEA4B0B 		lsl	fp, fp, #1
 494              	.LVL81:
 495              		.loc 1 344 0 discriminator 2
 496 0296 022B     		cmp	r3, #2
 497 0298 0193     		str	r3, [sp, #4]
 498              	.LVL82:
 499              		.loc 1 385 0 discriminator 2
 500 029a 1FFA8BFB 		uxth	fp, fp
 501              	.LVL83:
 502 029e 4646     		mov	r6, r8
 503              	.LVL84:
 504              		.loc 1 344 0 discriminator 2
 505 02a0 02D9     		bls	.L22
 506              	.LVL85:
 507 02a2 F500     		lsls	r5, r6, #3
 508 02a4 B2E7     		b	.L28
 509              	.LVL86:
 510              	.L37:
 511              		.loc 1 389 0
ARM GAS  /tmp/cccdQp3d.s 			page 10


 512 02a6 51B3     		cbz	r1, .L20
 513              	.LVL87:
 514              	.L22:
 515 02a8 029B     		ldr	r3, [sp, #8]
 516              		.loc 1 359 0
 517 02aa 0020     		movs	r0, #0
 518 02ac 03F10802 		add	r2, r3, #8
 519              	.LVL88:
 520              	.L29:
 521              		.loc 1 391 0 discriminator 3
 522 02b0 12ED026A 		flds	s12, [r2, #-8]
 523              		.loc 1 394 0 discriminator 3
 524 02b4 93ED017A 		flds	s14, [r3, #4]
 525              		.loc 1 391 0 discriminator 3
 526 02b8 D3ED026A 		flds	s13, [r3, #8]
 527              	.LVL89:
 528              		.loc 1 394 0 discriminator 3
 529 02bc D3ED037A 		flds	s15, [r3, #12]
 530              	.LVL90:
 531              		.loc 1 391 0 discriminator 3
 532 02c0 76EE265A 		fadds	s11, s12, s13
 533              	.LVL91:
 534              		.loc 1 392 0 discriminator 3
 535 02c4 76EE666A 		fsubs	s13, s12, s13
 536              	.LVL92:
 537              		.loc 1 394 0 discriminator 3
 538 02c8 37EE876A 		fadds	s12, s15, s14
 539              	.LVL93:
 540              		.loc 1 395 0 discriminator 3
 541 02cc 77EE677A 		fsubs	s15, s14, s15
 542              	.LVL94:
 543              		.loc 1 397 0 discriminator 3
 544 02d0 65EE805A 		fmuls	s11, s11, s0
 545              	.LVL95:
 546              		.loc 1 398 0 discriminator 3
 547 02d4 26EE807A 		fmuls	s14, s13, s0
 548              	.LVL96:
 549              		.loc 1 400 0 discriminator 3
 550 02d8 67EE807A 		fmuls	s15, s15, s0
 551              	.LVL97:
 552              		.loc 1 399 0 discriminator 3
 553 02dc 66EE006A 		fmuls	s13, s12, s0
 554              	.LVL98:
 555              		.loc 1 389 0 discriminator 3
 556 02e0 0230     		adds	r0, r0, #2
 557              	.LVL99:
 558 02e2 8142     		cmp	r1, r0
 559              		.loc 1 402 0 discriminator 3
 560 02e4 42ED025A 		fsts	s11, [r2, #-8]
 561              	.LVL100:
 562 02e8 03F11003 		add	r3, r3, #16
 563              		.loc 1 404 0 discriminator 3
 564 02ec 03ED027A 		fsts	s14, [r3, #-8]
 565              		.loc 1 403 0 discriminator 3
 566 02f0 43ED036A 		fsts	s13, [r3, #-12]
 567              		.loc 1 405 0 discriminator 3
 568 02f4 43ED017A 		fsts	s15, [r3, #-4]
ARM GAS  /tmp/cccdQp3d.s 			page 11


 569 02f8 02F11002 		add	r2, r2, #16
 570              		.loc 1 389 0 discriminator 3
 571 02fc D8D8     		bhi	.L29
 572              	.LVL101:
 573              	.L20:
 574              		.loc 1 485 0
 575 02fe 05B0     		add	sp, sp, #20
 576              		.cfi_def_cfa_offset 36
 577              		@ sp needed
 578 0300 BDE8F08F 		pop	{r4, r5, r6, r7, r8, r9, r10, fp, pc}
 579              		.cfi_endproc
 580              	.LFE137:
 581              		.size	arm_radix2_butterfly_inverse_f32, .-arm_radix2_butterfly_inverse_f32
 582              		.align	2
 583 0304 AFF30080 		.p2align 4,,15
 583      AFF30080 
 583      AFF30080 
 584              		.global	arm_cfft_radix2_f32
 585              		.thumb
 586              		.thumb_func
 587              		.type	arm_cfft_radix2_f32, %function
 588              	arm_cfft_radix2_f32:
 589              	.LFB135:
 590              		.loc 1 85 0
 591              		.cfi_startproc
 592              		@ args = 0, pretend = 0, frame = 0
 593              		@ frame_needed = 0, uses_anonymous_args = 0
 594              	.LVL102:
 595 0310 70B5     		push	{r4, r5, r6, lr}
 596              		.cfi_def_cfa_offset 16
 597              		.cfi_offset 4, -16
 598              		.cfi_offset 5, -12
 599              		.cfi_offset 6, -8
 600              		.cfi_offset 14, -4
 601              		.loc 1 87 0
 602 0312 8378     		ldrb	r3, [r0, #2]	@ zero_extendqisi2
 603              		.loc 1 85 0
 604 0314 0446     		mov	r4, r0
 605              		.loc 1 87 0
 606 0316 012B     		cmp	r3, #1
 607              		.loc 1 85 0
 608 0318 0D46     		mov	r5, r1
 609              		.loc 1 90 0
 610 031a 0846     		mov	r0, r1
 611              	.LVL103:
 612 031c 6268     		ldr	r2, [r4, #4]
 613 031e 2188     		ldrh	r1, [r4]
 614              	.LVL104:
 615 0320 A389     		ldrh	r3, [r4, #12]
 616              		.loc 1 87 0
 617 0322 05D0     		beq	.L43
 618              		.loc 1 96 0
 619 0324 FFF7FEFF 		bl	arm_radix2_butterfly_f32
 620              	.LVL105:
 621              		.loc 1 100 0
 622 0328 E378     		ldrb	r3, [r4, #3]	@ zero_extendqisi2
 623 032a 012B     		cmp	r3, #1
ARM GAS  /tmp/cccdQp3d.s 			page 12


 624 032c 07D0     		beq	.L44
 625              	.L38:
 626 032e 70BD     		pop	{r4, r5, r6, pc}
 627              	.LVL106:
 628              	.L43:
 629              		.loc 1 90 0
 630 0330 94ED040A 		flds	s0, [r4, #16]
 631 0334 FFF7FEFF 		bl	arm_radix2_butterfly_inverse_f32
 632              	.LVL107:
 633              		.loc 1 100 0
 634 0338 E378     		ldrb	r3, [r4, #3]	@ zero_extendqisi2
 635 033a 012B     		cmp	r3, #1
 636 033c F7D1     		bne	.L38
 637              	.L44:
 638              		.loc 1 103 0
 639 033e 2846     		mov	r0, r5
 640 0340 2188     		ldrh	r1, [r4]
 641 0342 E289     		ldrh	r2, [r4, #14]
 642 0344 A368     		ldr	r3, [r4, #8]
 643              		.loc 1 106 0
 644 0346 BDE87040 		pop	{r4, r5, r6, lr}
 645              		.cfi_restore 14
 646              		.cfi_restore 6
 647              		.cfi_restore 5
 648              		.cfi_restore 4
 649              		.cfi_def_cfa_offset 0
 650              	.LVL108:
 651              		.loc 1 103 0
 652 034a FFF7FEBF 		b	arm_bitreversal_f32
 653              	.LVL109:
 654              		.cfi_endproc
 655              	.LFE135:
 656              		.size	arm_cfft_radix2_f32, .-arm_cfft_radix2_f32
 657              	.Letext0:
 658              		.file 2 "/d_drive/axoloti/platform_linux/arm-none-eabi/include/machine/_default_types.h"
 659              		.file 3 "/d_drive/axoloti/platform_linux/arm-none-eabi/include/sys/_stdint.h"
 660              		.file 4 "/d_drive/axoloti/platform_linux/../CMSIS//DSP_Lib/Include/arm_math.h"