ARM GAS  /tmp/ccqcFZkz.s 			page 1


   1              		.syntax unified
   2              		.cpu cortex-m4
   3              		.eabi_attribute 27, 1
   4              		.eabi_attribute 28, 1
   5              		.fpu fpv4-sp-d16
   6              		.eabi_attribute 20, 1
   7              		.eabi_attribute 21, 1
   8              		.eabi_attribute 23, 3
   9              		.eabi_attribute 24, 1
  10              		.eabi_attribute 25, 1
  11              		.eabi_attribute 26, 1
  12              		.eabi_attribute 30, 2
  13              		.eabi_attribute 34, 1
  14              		.eabi_attribute 18, 4
  15              		.thumb
  16              		.file	"arm_iir_lattice_q31.c"
  17              		.text
  18              	.Ltext0:
  19              		.cfi_sections	.debug_frame
  20              		.align	2
  21              		.p2align 4,,15
  22              		.global	arm_iir_lattice_q31
  23              		.thumb
  24              		.thumb_func
  25              		.type	arm_iir_lattice_q31, %function
  26              	arm_iir_lattice_q31:
  27              	.LFB135:
  28              		.file 1 "/home/sbcu/Dropbox/pcb-layouts/axo-on-discovery-board/axoloti/platform_linux/../CMSIS//DS
  29              		.loc 1 75 0
  30              		.cfi_startproc
  31              		@ args = 0, pretend = 0, frame = 72
  32              		@ frame_needed = 0, uses_anonymous_args = 0
  33              	.LVL0:
  34 0000 2DE9F04F 		push	{r4, r5, r6, r7, r8, r9, r10, fp, lr}
  35              		.cfi_def_cfa_offset 36
  36              		.cfi_offset 4, -36
  37              		.cfi_offset 5, -32
  38              		.cfi_offset 6, -28
  39              		.cfi_offset 7, -24
  40              		.cfi_offset 8, -20
  41              		.cfi_offset 9, -16
  42              		.cfi_offset 10, -12
  43              		.cfi_offset 11, -8
  44              		.cfi_offset 14, -4
  45 0004 93B0     		sub	sp, sp, #76
  46              		.cfi_def_cfa_offset 112
  47              		.loc 1 75 0
  48 0006 0592     		str	r2, [sp, #20]
  49              		.loc 1 80 0
  50 0008 0288     		ldrh	r2, [r0]
  51              	.LVL1:
  52 000a 0E92     		str	r2, [sp, #56]
  53              	.LVL2:
  54              		.loc 1 86 0
  55 000c 4268     		ldr	r2, [r0, #4]
  56              	.LVL3:
  57              		.loc 1 75 0
ARM GAS  /tmp/ccqcFZkz.s 			page 2


  58 000e 0491     		str	r1, [sp, #16]
  59              		.loc 1 86 0
  60 0010 0D92     		str	r2, [sp, #52]
  61              	.LVL4:
  62              		.loc 1 94 0
  63 0012 0F93     		str	r3, [sp, #60]
  64 0014 002B     		cmp	r3, #0
  65 0016 00F00281 		beq	.L11
  66 001a 0E9B     		ldr	r3, [sp, #56]
  67              	.LVL5:
  68 001c 8168     		ldr	r1, [r0, #8]
  69              	.LVL6:
  70 001e 0D9D     		ldr	r5, [sp, #52]
  71 0020 C068     		ldr	r0, [r0, #12]
  72              	.LVL7:
  73 0022 0891     		str	r1, [sp, #32]
  74 0024 5A1E     		subs	r2, r3, #1
  75              	.LVL8:
  76 0026 9308     		lsrs	r3, r2, #2
  77 0028 0793     		str	r3, [sp, #28]
  78 002a 02F00302 		and	r2, r2, #3
  79 002e 1B01     		lsls	r3, r3, #4
  80 0030 1446     		mov	r4, r2
  81 0032 0692     		str	r2, [sp, #24]
  82 0034 1A1D     		adds	r2, r3, #4
  83 0036 0431     		adds	r1, r1, #4
  84 0038 AA18     		adds	r2, r5, r2
  85 003a 0990     		str	r0, [sp, #36]
  86 003c 0430     		adds	r0, r0, #4
  87 003e 0192     		str	r2, [sp, #4]
  88 0040 CA18     		adds	r2, r1, r3
  89 0042 C318     		adds	r3, r0, r3
  90 0044 0B93     		str	r3, [sp, #44]
  91 0046 A300     		lsls	r3, r4, #2
  92 0048 0A93     		str	r3, [sp, #40]
  93 004a 0F9B     		ldr	r3, [sp, #60]
  94 004c 1191     		str	r1, [sp, #68]
  95 004e 1090     		str	r0, [sp, #64]
  96 0050 0C92     		str	r2, [sp, #48]
  97 0052 0295     		str	r5, [sp, #8]
  98 0054 0393     		str	r3, [sp, #12]
  99              	.LVL9:
 100              	.L10:
 101              		.loc 1 113 0
 102 0056 029B     		ldr	r3, [sp, #8]
 103              		.loc 1 115 0
 104 0058 089E     		ldr	r6, [sp, #32]
 105              		.loc 1 113 0
 106 005a 53F8044B 		ldr	r4, [r3], #4
 107 005e 0293     		str	r3, [sp, #8]
 108              	.LVL10:
 109 0060 1D46     		mov	r5, r3
 110              	.LBB26:
 111              	.LBB27:
 112              		.file 2 "/home/sbcu/Dropbox/pcb-layouts/axo-on-discovery-board/axoloti/platform_linux/../CMSIS//In
 113              		.loc 2 1853 0
 114 0062 049B     		ldr	r3, [sp, #16]
ARM GAS  /tmp/ccqcFZkz.s 			page 3


 115              	.LVL11:
 116              	.LBE27:
 117              	.LBE26:
 118              		.loc 1 115 0
 119 0064 3068     		ldr	r0, [r6]
 120              	.LVL12:
 121              	.LBB30:
 122              	.LBB28:
 123              		.loc 2 1853 0
 124 0066 53F8041B 		ldr	r1, [r3], #4
 125 006a 0493     		str	r3, [sp, #16]
 126              	.LVL13:
 127              	.LBE28:
 128              	.LBE30:
 129              		.loc 1 115 0
 130 006c 84FB0023 		smull	r2, r3, r4, r0
 131 0070 D20F     		lsrs	r2, r2, #31
 132 0072 42EA4302 		orr	r2, r2, r3, lsl #1
 133              	.LBB31:
 134              	.LBB29:
 135              		.loc 2 1853 0
 136              	@ 1853 "/home/sbcu/Dropbox/pcb-layouts/axo-on-discovery-board/axoloti/platform_linux/../CMSIS//Incl
 137 0076 82FAA1F3 		qsub r3, r1, r2
 138              	@ 0 "" 2
 139              	.LVL14:
 140              		.thumb
 141              	.LBE29:
 142              	.LBE31:
 143              		.loc 1 117 0
 144 007a 80FB0301 		smull	r0, r1, r0, r3
 145              	.LVL15:
 146 007e 4FEAD07A 		lsr	r10, r0, #31
 147 0082 4AEA410A 		orr	r10, r10, r1, lsl #1
 148              	.LBB32:
 149              	.LBB33:
 150              		.loc 2 1845 0
 151              	@ 1845 "/home/sbcu/Dropbox/pcb-layouts/axo-on-discovery-board/axoloti/platform_linux/../CMSIS//Incl
 152 0086 8AFA84F4 		qadd r4, r4, r10
 153              	@ 0 "" 2
 154              	.LVL16:
 155              		.thumb
 156              	.LBE33:
 157              	.LBE32:
 158              		.loc 1 119 0
 159 008a 45F8044C 		str	r4, [r5, #-4]
 160              	.LVL17:
 161 008e 2946     		mov	r1, r5
 162              		.loc 1 121 0
 163 0090 099D     		ldr	r5, [sp, #36]
 164              	.LVL18:
 165 0092 2A68     		ldr	r2, [r5]
 166 0094 84FB02AB 		smull	r10, fp, r4, r2
 167              	.LVL19:
 168              		.loc 1 129 0
 169 0098 079C     		ldr	r4, [sp, #28]
 170              	.LVL20:
 171 009a 002C     		cmp	r4, #0
ARM GAS  /tmp/ccqcFZkz.s 			page 4


 172 009c 00F0F980 		beq	.L16
 173 00a0 0A46     		mov	r2, r1
 174 00a2 2946     		mov	r1, r5
 175              	.LVL21:
 176 00a4 1032     		adds	r2, r2, #16
 177              	.LVL22:
 178 00a6 06F11400 		add	r0, r6, #20
 179 00aa 1431     		adds	r1, r1, #20
 180 00ac A646     		mov	lr, r4
 181              	.LVL23:
 182              	.L6:
 183              		.loc 1 134 0
 184 00ae 52F8106C 		ldr	r6, [r2, #-16]
 185              	.LVL24:
 186              		.loc 1 136 0
 187 00b2 50F810CC 		ldr	ip, [r0, #-16]
 188              	.LVL25:
 189 00b6 86FB0C45 		smull	r4, r5, r6, ip
 190 00ba E70F     		lsrs	r7, r4, #31
 191 00bc 47EA4507 		orr	r7, r7, r5, lsl #1
 192              	.LBB34:
 193              	.LBB35:
 194              		.loc 2 1853 0
 195              	@ 1853 "/home/sbcu/Dropbox/pcb-layouts/axo-on-discovery-board/axoloti/platform_linux/../CMSIS//Incl
 196 00c0 87FAA3F3 		qsub r3, r3, r7
 197              	@ 0 "" 2
 198              	.LVL26:
 199              		.thumb
 200              	.LBE35:
 201              	.LBE34:
 202              		.loc 1 138 0
 203 00c4 8CFB0345 		smull	r4, r5, ip, r3
 204 00c8 E40F     		lsrs	r4, r4, #31
 205 00ca 44EA4504 		orr	r4, r4, r5, lsl #1
 206              	.LBB36:
 207              	.LBB37:
 208              		.loc 2 1845 0
 209              	@ 1845 "/home/sbcu/Dropbox/pcb-layouts/axo-on-discovery-board/axoloti/platform_linux/../CMSIS//Incl
 210 00ce 84FA86F5 		qadd r5, r6, r4
 211              	@ 0 "" 2
 212              	.LVL27:
 213              		.thumb
 214              	.LBE37:
 215              	.LBE36:
 216              		.loc 1 141 0
 217 00d2 51F8108C 		ldr	r8, [r1, #-16]
 218              		.loc 1 143 0
 219 00d6 42F8105C 		str	r5, [r2, #-16]
 220              		.loc 1 150 0
 221 00da 50F80C4C 		ldr	r4, [r0, #-12]
 222              		.loc 1 147 0
 223 00de 52F80CCC 		ldr	ip, [r2, #-12]
 224              	.LVL28:
 225              		.loc 1 150 0
 226 00e2 8CFB0467 		smull	r6, r7, ip, r4
 227              	.LVL29:
 228              		.loc 1 141 0
ARM GAS  /tmp/ccqcFZkz.s 			page 5


 229 00e6 C8FB05AB 		smlal	r10, fp, r8, r5
 230              	.LVL30:
 231              		.loc 1 150 0
 232 00ea F50F     		lsrs	r5, r6, #31
 233              	.LVL31:
 234 00ec 45EA4705 		orr	r5, r5, r7, lsl #1
 235              	.LBB38:
 236              	.LBB39:
 237              		.loc 2 1853 0
 238              	@ 1853 "/home/sbcu/Dropbox/pcb-layouts/axo-on-discovery-board/axoloti/platform_linux/../CMSIS//Incl
 239 00f0 85FAA3F3 		qsub r3, r3, r5
 240              	@ 0 "" 2
 241              	.LVL32:
 242              		.thumb
 243              	.LBE39:
 244              	.LBE38:
 245              		.loc 1 152 0
 246 00f4 84FB0345 		smull	r4, r5, r4, r3
 247              	.LVL33:
 248 00f8 E40F     		lsrs	r4, r4, #31
 249 00fa 44EA4504 		orr	r4, r4, r5, lsl #1
 250              	.LBB40:
 251              	.LBB41:
 252              		.loc 2 1845 0
 253              	@ 1845 "/home/sbcu/Dropbox/pcb-layouts/axo-on-discovery-board/axoloti/platform_linux/../CMSIS//Incl
 254 00fe 84FA8CF5 		qadd r5, ip, r4
 255              	@ 0 "" 2
 256              	.LVL34:
 257              		.thumb
 258              	.LBE41:
 259              	.LBE40:
 260              		.loc 1 155 0
 261 0102 51F80C8C 		ldr	r8, [r1, #-12]
 262              		.loc 1 157 0
 263 0106 42F80C5C 		str	r5, [r2, #-12]
 264              	.LVL35:
 265              		.loc 1 165 0
 266 010a 50F8084C 		ldr	r4, [r0, #-8]
 267              		.loc 1 162 0
 268 010e 52F808CC 		ldr	ip, [r2, #-8]
 269              	.LVL36:
 270              		.loc 1 165 0
 271 0112 8CFB0467 		smull	r6, r7, ip, r4
 272              		.loc 1 155 0
 273 0116 C8FB05AB 		smlal	r10, fp, r8, r5
 274              	.LVL37:
 275              		.loc 1 165 0
 276 011a F50F     		lsrs	r5, r6, #31
 277              	.LVL38:
 278 011c 45EA4705 		orr	r5, r5, r7, lsl #1
 279              	.LBB42:
 280              	.LBB43:
 281              		.loc 2 1853 0
 282              	@ 1853 "/home/sbcu/Dropbox/pcb-layouts/axo-on-discovery-board/axoloti/platform_linux/../CMSIS//Incl
 283 0120 85FAA3F3 		qsub r3, r3, r5
 284              	@ 0 "" 2
 285              	.LVL39:
ARM GAS  /tmp/ccqcFZkz.s 			page 6


 286              		.thumb
 287              	.LBE43:
 288              	.LBE42:
 289              		.loc 1 167 0
 290 0124 84FB0345 		smull	r4, r5, r4, r3
 291              	.LVL40:
 292 0128 E40F     		lsrs	r4, r4, #31
 293 012a 44EA4504 		orr	r4, r4, r5, lsl #1
 294              	.LBB44:
 295              	.LBB45:
 296              		.loc 2 1845 0
 297              	@ 1845 "/home/sbcu/Dropbox/pcb-layouts/axo-on-discovery-board/axoloti/platform_linux/../CMSIS//Incl
 298 012e 84FA8CFC 		qadd ip, ip, r4
 299              	@ 0 "" 2
 300              	.LVL41:
 301              		.thumb
 302              	.LBE45:
 303              	.LBE44:
 304              		.loc 1 170 0
 305 0132 51F8088C 		ldr	r8, [r1, #-8]
 306              		.loc 1 172 0
 307 0136 42F808CC 		str	ip, [r2, #-8]
 308              	.LVL42:
 309              		.loc 1 180 0
 310 013a 50F8047C 		ldr	r7, [r0, #-4]
 311              		.loc 1 177 0
 312 013e 52F8046C 		ldr	r6, [r2, #-4]
 313              		.loc 1 180 0
 314 0142 86FB0745 		smull	r4, r5, r6, r7
 315 0146 E40F     		lsrs	r4, r4, #31
 316              		.loc 1 170 0
 317 0148 C8FB0CAB 		smlal	r10, fp, r8, ip
 318              	.LVL43:
 319              		.loc 1 180 0
 320 014c 44EA4504 		orr	r4, r4, r5, lsl #1
 321              	.LBB46:
 322              	.LBB47:
 323              		.loc 2 1853 0
 324              	@ 1853 "/home/sbcu/Dropbox/pcb-layouts/axo-on-discovery-board/axoloti/platform_linux/../CMSIS//Incl
 325 0150 84FAA3F3 		qsub r3, r3, r4
 326              	@ 0 "" 2
 327              	.LVL44:
 328              		.thumb
 329              	.LBE47:
 330              	.LBE46:
 331              		.loc 1 182 0
 332 0154 87FB0345 		smull	r4, r5, r7, r3
 333 0158 E40F     		lsrs	r4, r4, #31
 334 015a 44EA4504 		orr	r4, r4, r5, lsl #1
 335              	.LBB48:
 336              	.LBB49:
 337              		.loc 2 1845 0
 338              	@ 1845 "/home/sbcu/Dropbox/pcb-layouts/axo-on-discovery-board/axoloti/platform_linux/../CMSIS//Incl
 339 015e 84FA86F6 		qadd r6, r6, r4
 340              	@ 0 "" 2
 341              	.LVL45:
 342              		.thumb
ARM GAS  /tmp/ccqcFZkz.s 			page 7


 343              	.LBE49:
 344              	.LBE48:
 345              		.loc 1 185 0
 346 0162 51F8044C 		ldr	r4, [r1, #-4]
 347              		.loc 1 187 0
 348 0166 42F8046C 		str	r6, [r2, #-4]
 349              	.LVL46:
 350              		.loc 1 129 0
 351 016a BEF1010E 		subs	lr, lr, #1
 352              	.LVL47:
 353 016e 00F11000 		add	r0, r0, #16
 354              		.loc 1 185 0
 355 0172 C4FB06AB 		smlal	r10, fp, r4, r6
 356              	.LVL48:
 357 0176 02F11002 		add	r2, r2, #16
 358              	.LVL49:
 359 017a 01F11001 		add	r1, r1, #16
 360              		.loc 1 129 0
 361 017e 96D1     		bne	.L6
 362              		.loc 1 185 0
 363 0180 0B9A     		ldr	r2, [sp, #44]
 364              	.LVL50:
 365 0182 DDF80490 		ldr	r9, [sp, #4]
 366              		.loc 1 182 0
 367 0186 0C9D     		ldr	r5, [sp, #48]
 368              		.loc 1 185 0
 369 0188 0092     		str	r2, [sp]
 370              	.LVL51:
 371              	.L5:
 372              		.loc 1 198 0
 373 018a 069A     		ldr	r2, [sp, #24]
 374 018c 002A     		cmp	r2, #0
 375 018e 7DD0     		beq	.L24
 376 0190 DDF80080 		ldr	r8, [sp]
 377 0194 069C     		ldr	r4, [sp, #24]
 378 0196 CC46     		mov	ip, r9
 379 0198 CE46     		mov	lr, r9
 380              	.LVL52:
 381              	.L9:
 382              		.loc 1 200 0
 383 019a 5EF8042B 		ldr	r2, [lr], #4
 384              	.LVL53:
 385              		.loc 1 202 0
 386 019e 55F8040B 		ldr	r0, [r5], #4
 387              	.LVL54:
 388 01a2 82FB0067 		smull	r6, r7, r2, r0
 389 01a6 F10F     		lsrs	r1, r6, #31
 390 01a8 41EA4701 		orr	r1, r1, r7, lsl #1
 391              	.LBB50:
 392              	.LBB51:
 393              		.loc 2 1853 0
 394              	@ 1853 "/home/sbcu/Dropbox/pcb-layouts/axo-on-discovery-board/axoloti/platform_linux/../CMSIS//Incl
 395 01ac 81FAA3F3 		qsub r3, r3, r1
 396              	@ 0 "" 2
 397              	.LVL55:
 398              		.thumb
 399              	.LBE51:
ARM GAS  /tmp/ccqcFZkz.s 			page 8


 400              	.LBE50:
 401              		.loc 1 203 0
 402 01b0 80FB0301 		smull	r0, r1, r0, r3
 403              	.LVL56:
 404 01b4 C60F     		lsrs	r6, r0, #31
 405 01b6 46EA4106 		orr	r6, r6, r1, lsl #1
 406 01ba 1846     		mov	r0, r3
 407 01bc D917     		asrs	r1, r3, #31
 408              	.LVL57:
 409              	.LBB52:
 410              	.LBB53:
 411              		.loc 2 1845 0
 412              	@ 1845 "/home/sbcu/Dropbox/pcb-layouts/axo-on-discovery-board/axoloti/platform_linux/../CMSIS//Incl
 413 01be 86FA82F2 		qadd r2, r2, r6
 414              	@ 0 "" 2
 415              	.LVL58:
 416              		.thumb
 417              	.LBE53:
 418              	.LBE52:
 419              		.loc 1 205 0
 420 01c2 58F8046B 		ldr	r6, [r8], #4
 421              	.LVL59:
 422              		.loc 1 206 0
 423 01c6 4CF8042B 		str	r2, [ip], #4
 424              	.LVL60:
 425              		.loc 1 198 0
 426 01ca 013C     		subs	r4, r4, #1
 427              	.LVL61:
 428              		.loc 1 205 0
 429 01cc C6FB02AB 		smlal	r10, fp, r6, r2
 430              	.LVL62:
 431              		.loc 1 198 0
 432 01d0 E3D1     		bne	.L9
 433 01d2 009A     		ldr	r2, [sp]
 434              	.LVL63:
 435 01d4 0A9C     		ldr	r4, [sp, #40]
 436 01d6 1546     		mov	r5, r2
 437              	.LVL64:
 438 01d8 2544     		add	r5, r5, r4
 439 01da 0095     		str	r5, [sp]
 440 01dc A144     		add	r9, r9, r4
 441              	.LVL65:
 442              	.L8:
 443              		.loc 1 214 0
 444 01de 009A     		ldr	r2, [sp]
 445 01e0 1468     		ldr	r4, [r2]
 446              		.loc 1 217 0
 447 01e2 C9F80030 		str	r3, [r9]
 448              		.loc 1 214 0
 449 01e6 04FB01F2 		mul	r2, r4, r1
 450 01ea E317     		asrs	r3, r4, #31
 451 01ec 00FB0323 		mla	r3, r0, r3, r2
 452 01f0 019A     		ldr	r2, [sp, #4]
 453 01f2 A4FB0001 		umull	r0, r1, r4, r0
 454              	.LVL66:
 455 01f6 10EB0A04 		adds	r4, r0, r10
 456 01fa 1944     		add	r1, r1, r3
ARM GAS  /tmp/ccqcFZkz.s 			page 9


 457 01fc 02F10402 		add	r2, r2, #4
 458 0200 41EB0B05 		adc	r5, r1, fp
 459              	.LVL67:
 460              		.loc 1 220 0
 461 0204 E30F     		lsrs	r3, r4, #31
 462 0206 0192     		str	r2, [sp, #4]
 463 0208 059A     		ldr	r2, [sp, #20]
 464 020a 43EA4503 		orr	r3, r3, r5, lsl #1
 465 020e 42F8043B 		str	r3, [r2], #4
 466              	.LVL68:
 467              		.loc 1 94 0
 468 0212 039B     		ldr	r3, [sp, #12]
 469              		.loc 1 220 0
 470 0214 0592     		str	r2, [sp, #20]
 471              	.LVL69:
 472              		.loc 1 94 0
 473 0216 013B     		subs	r3, r3, #1
 474              	.LVL70:
 475 0218 0393     		str	r3, [sp, #12]
 476 021a 7FF41CAF 		bne	.L10
 477              	.LVL71:
 478              	.L11:
 479              		.loc 1 233 0
 480 021e 0D9B     		ldr	r3, [sp, #52]
 481              	.LVL72:
 482 0220 0F9A     		ldr	r2, [sp, #60]
 483 0222 03EB8200 		add	r0, r3, r2, lsl #2
 484              	.LVL73:
 485              		.loc 1 238 0
 486 0226 0E9B     		ldr	r3, [sp, #56]
 487 0228 9D08     		lsrs	r5, r3, #2
 488              	.LVL74:
 489 022a 20D0     		beq	.L4
 490 022c 0D9B     		ldr	r3, [sp, #52]
 491 022e 2946     		mov	r1, r5
 492 0230 03F11002 		add	r2, r3, #16
 493 0234 00F11003 		add	r3, r0, #16
 494              	.LVL75:
 495              	.L12:
 496              		.loc 1 240 0
 497 0238 53F8104C 		ldr	r4, [r3, #-16]
 498 023c 42F8104C 		str	r4, [r2, #-16]
 499              	.LVL76:
 500              		.loc 1 241 0
 501 0240 53F80C4C 		ldr	r4, [r3, #-12]
 502 0244 42F80C4C 		str	r4, [r2, #-12]
 503              	.LVL77:
 504              		.loc 1 242 0
 505 0248 53F8084C 		ldr	r4, [r3, #-8]
 506 024c 42F8084C 		str	r4, [r2, #-8]
 507              	.LVL78:
 508              		.loc 1 243 0
 509 0250 53F8044C 		ldr	r4, [r3, #-4]
 510 0254 42F8044C 		str	r4, [r2, #-4]
 511              		.loc 1 238 0
 512 0258 0139     		subs	r1, r1, #1
 513              	.LVL79:
ARM GAS  /tmp/ccqcFZkz.s 			page 10


 514 025a 03F11003 		add	r3, r3, #16
 515              	.LVL80:
 516 025e 02F11002 		add	r2, r2, #16
 517 0262 E9D1     		bne	.L12
 518 0264 0D9A     		ldr	r2, [sp, #52]
 519 0266 2B01     		lsls	r3, r5, #4
 520              	.LVL81:
 521 0268 1A44     		add	r2, r2, r3
 522 026a 0D92     		str	r2, [sp, #52]
 523 026c 1844     		add	r0, r0, r3
 524              	.LVL82:
 525              	.L4:
 526              		.loc 1 254 0
 527 026e 0E9B     		ldr	r3, [sp, #56]
 528 0270 13F00303 		ands	r3, r3, #3
 529              	.LVL83:
 530 0274 07D0     		beq	.L1
 531 0276 0D9A     		ldr	r2, [sp, #52]
 532 0278 043A     		subs	r2, r2, #4
 533              	.LVL84:
 534              	.L14:
 535              		.loc 1 256 0
 536 027a 50F8041B 		ldr	r1, [r0], #4
 537              	.LVL85:
 538 027e 42F8041F 		str	r1, [r2, #4]!
 539              		.loc 1 254 0
 540 0282 013B     		subs	r3, r3, #1
 541              	.LVL86:
 542 0284 F9D1     		bne	.L14
 543              	.LVL87:
 544              	.L1:
 545              		.loc 1 343 0
 546 0286 13B0     		add	sp, sp, #76
 547              		.cfi_remember_state
 548              		.cfi_def_cfa_offset 36
 549              		@ sp needed
 550 0288 BDE8F08F 		pop	{r4, r5, r6, r7, r8, r9, r10, fp, pc}
 551              	.LVL88:
 552              	.L24:
 553              		.cfi_restore_state
 554 028c 1846     		mov	r0, r3
 555 028e D917     		asrs	r1, r3, #31
 556 0290 A5E7     		b	.L8
 557              	.LVL89:
 558              	.L16:
 559              		.loc 1 121 0
 560 0292 109A     		ldr	r2, [sp, #64]
 561 0294 0092     		str	r2, [sp]
 562              		.loc 1 117 0
 563 0296 119D     		ldr	r5, [sp, #68]
 564              		.loc 1 129 0
 565 0298 DDF80890 		ldr	r9, [sp, #8]
 566 029c 75E7     		b	.L5
 567              		.cfi_endproc
 568              	.LFE135:
 569              		.size	arm_iir_lattice_q31, .-arm_iir_lattice_q31
 570              	.Letext0:
ARM GAS  /tmp/ccqcFZkz.s 			page 11


 571              		.file 3 "/home/sbcu/Dropbox/pcb-layouts/axo-on-discovery-board/axoloti/platform_linux/arm-none-eab
 572              		.file 4 "/home/sbcu/Dropbox/pcb-layouts/axo-on-discovery-board/axoloti/platform_linux/arm-none-eab
 573              		.file 5 "/home/sbcu/Dropbox/pcb-layouts/axo-on-discovery-board/axoloti/platform_linux/../CMSIS//DS