ARM GAS  /tmp/ccL2CoiF.s 			page 1


   1              		.syntax unified
   2              		.cpu cortex-m4
   3              		.eabi_attribute 27, 1
   4              		.eabi_attribute 28, 1
   5              		.fpu fpv4-sp-d16
   6              		.eabi_attribute 20, 1
   7              		.eabi_attribute 21, 1
   8              		.eabi_attribute 23, 3
   9              		.eabi_attribute 24, 1
  10              		.eabi_attribute 25, 1
  11              		.eabi_attribute 26, 1
  12              		.eabi_attribute 30, 2
  13              		.eabi_attribute 34, 1
  14              		.eabi_attribute 18, 4
  15              		.thumb
  16              		.file	"arm_cfft_radix2_q31.c"
  17              		.text
  18              	.Ltext0:
  19              		.cfi_sections	.debug_frame
  20              		.align	2
  21              		.p2align 4,,15
  22              		.global	arm_radix2_butterfly_q31
  23              		.thumb
  24              		.thumb_func
  25              		.type	arm_radix2_butterfly_q31, %function
  26              	arm_radix2_butterfly_q31:
  27              	.LFB136:
  28              		.file 1 "/home/sbcu/Dropbox/pcb-layouts/axo-on-discovery-board/axoloti/platform_linux/../CMSIS//DS
  29              		.loc 1 108 0
  30              		.cfi_startproc
  31              		@ args = 0, pretend = 0, frame = 40
  32              		@ frame_needed = 0, uses_anonymous_args = 0
  33              	.LVL0:
  34 0000 2DE9F04F 		push	{r4, r5, r6, r7, r8, r9, r10, fp, lr}
  35              		.cfi_def_cfa_offset 36
  36              		.cfi_offset 4, -36
  37              		.cfi_offset 5, -32
  38              		.cfi_offset 6, -28
  39              		.cfi_offset 7, -24
  40              		.cfi_offset 8, -20
  41              		.cfi_offset 9, -16
  42              		.cfi_offset 10, -12
  43              		.cfi_offset 11, -8
  44              		.cfi_offset 14, -4
  45 0004 8BB0     		sub	sp, sp, #44
  46              		.cfi_def_cfa_offset 80
  47              		.loc 1 108 0
  48 0006 0746     		mov	r7, r0
  49 0008 0690     		str	r0, [sp, #24]
  50              		.loc 1 123 0
  51 000a 4808     		lsrs	r0, r1, #1
  52              	.LVL1:
  53              		.loc 1 108 0
  54 000c 0791     		str	r1, [sp, #28]
  55              	.LVL2:
  56 000e 0892     		str	r2, [sp, #32]
  57              		.loc 1 123 0
ARM GAS  /tmp/ccL2CoiF.s 			page 2


  58 0010 00F0CA80 		beq	.L2
  59 0014 391D     		adds	r1, r7, #4
  60              	.LVL3:
  61 0016 9B46     		mov	fp, r3
  62 0018 0991     		str	r1, [sp, #36]
  63 001a 8E46     		mov	lr, r1
  64 001c 4FEACB08 		lsl	r8, fp, #3
  65 0020 07EBC00A 		add	r10, r7, r0, lsl #3
  66 0024 9446     		mov	ip, r2
  67              	.LVL4:
  68              	.L3:
  69              		.loc 1 130 0 discriminator 3
  70 0026 5EF8042C 		ldr	r2, [lr, #-4]
  71 002a 57F83030 		ldr	r3, [r7, r0, lsl #3]
  72 002e 5610     		asrs	r6, r2, #1
  73 0030 5B10     		asrs	r3, r3, #1
  74              		.loc 1 131 0 discriminator 3
  75 0032 F218     		adds	r2, r6, r3
  76 0034 5210     		asrs	r2, r2, #1
  77              		.loc 1 126 0 discriminator 3
  78 0036 9CE82200 		ldmia	ip, {r1, r5}
  79              	.LVL5:
  80              		.loc 1 131 0 discriminator 3
  81 003a 4EF8042C 		str	r2, [lr, #-4]
  82              		.loc 1 133 0 discriminator 3
  83 003e 5EF83040 		ldr	r4, [lr, r0, lsl #3]
  84 0042 7A68     		ldr	r2, [r7, #4]
  85 0044 4FEA6409 		asr	r9, r4, #1
  86 0048 5210     		asrs	r2, r2, #1
  87              		.loc 1 135 0 discriminator 3
  88 004a 02EB0904 		add	r4, r2, r9
  89 004e 6410     		asrs	r4, r4, #1
  90              		.loc 1 130 0 discriminator 3
  91 0050 F31A     		subs	r3, r6, r3
  92              	.LVL6:
  93              		.loc 1 134 0 discriminator 3
  94 0052 7C60     		str	r4, [r7, #4]
  95              		.loc 1 133 0 discriminator 3
  96 0054 C9EB0202 		rsb	r2, r9, r2
  97              	.LVL7:
  98              		.loc 1 137 0 discriminator 3
  99              	@ 137 "/home/sbcu/Dropbox/pcb-layouts/axo-on-discovery-board/axoloti/platform_linux/../CMSIS//DSP_L
 100 0058 53FB11F4 		smmulr r4, r3, r1
 101              	@ 0 "" 2
 102              	.LVL8:
 103              		.loc 1 138 0 discriminator 3
 104              	@ 138 "/home/sbcu/Dropbox/pcb-layouts/axo-on-discovery-board/axoloti/platform_linux/../CMSIS//DSP_L
 105 005c 52FB11F1 		smmulr r1, r2, r1
 106              	@ 0 "" 2
 107              	.LVL9:
 108              		.loc 1 139 0 discriminator 3
 109              	@ 139 "/home/sbcu/Dropbox/pcb-layouts/axo-on-discovery-board/axoloti/platform_linux/../CMSIS//DSP_L
 110 0060 52FB1542 		smmlar r2, r2, r5, r4
 111              	@ 0 "" 2
 112              	.LVL10:
 113              		.loc 1 140 0 discriminator 3
 114              	@ 140 "/home/sbcu/Dropbox/pcb-layouts/axo-on-discovery-board/axoloti/platform_linux/../CMSIS//DSP_L
ARM GAS  /tmp/ccL2CoiF.s 			page 3


 115 0064 63FB1513 		smmlsr r3, r3, r5, r1
 116              	@ 0 "" 2
 117              	.LVL11:
 118              		.loc 1 142 0 discriminator 3
 119              		.thumb
 120 0068 47F83020 		str	r2, [r7, r0, lsl #3]
 121 006c 0837     		adds	r7, r7, #8
 122              		.loc 1 123 0 discriminator 3
 123 006e 5745     		cmp	r7, r10
 124              		.loc 1 143 0 discriminator 3
 125 0070 4EF83030 		str	r3, [lr, r0, lsl #3]
 126 0074 C444     		add	ip, ip, r8
 127 0076 0EF1080E 		add	lr, lr, #8
 128              		.loc 1 123 0 discriminator 3
 129 007a D4D1     		bne	.L3
 130              		.loc 1 147 0
 131 007c 4FEA4B0B 		lsl	fp, fp, #1
 132 0080 1FFA8BF3 		uxth	r3, fp
 133              	.LVL12:
 134              		.loc 1 150 0
 135 0084 0228     		cmp	r0, #2
 136              		.loc 1 147 0
 137 0086 0493     		str	r3, [sp, #16]
 138              	.LVL13:
 139              		.loc 1 150 0
 140 0088 40F29780 		bls	.L13
 141 008c 0590     		str	r0, [sp, #20]
 142              	.LVL14:
 143              	.L6:
 144              		.loc 1 157 0
 145 008e 5FEA500B 		lsrs	fp, r0, #1
 146              	.LVL15:
 147 0092 3CD0     		beq	.L9
 148 0094 049B     		ldr	r3, [sp, #16]
 149 0096 069A     		ldr	r2, [sp, #24]
 150 0098 DDF820A0 		ldr	r10, [sp, #32]
 151 009c DB00     		lsls	r3, r3, #3
 152 009e 0193     		str	r3, [sp, #4]
 153 00a0 02EBCB03 		add	r3, r2, fp, lsl #3
 154 00a4 0293     		str	r3, [sp, #8]
 155 00a6 4FEAC008 		lsl	r8, r0, #3
 156 00aa 079B     		ldr	r3, [sp, #28]
 157 00ac B3FBF0F3 		udiv	r3, r3, r0
 158 00b0 9146     		mov	r9, r2
 159 00b2 0393     		str	r3, [sp, #12]
 160              	.LVL16:
 161              	.L8:
 162              		.loc 1 160 0
 163 00b4 9AE80050 		ldmia	r10, {ip, lr}
 164              	.LVL17:
 165              		.loc 1 165 0
 166 00b8 039F     		ldr	r7, [sp, #12]
 167 00ba 09F10405 		add	r5, r9, #4
 168              		.loc 1 160 0
 169 00be 4C46     		mov	r4, r9
 170              	.L7:
 171              	.LVL18:
ARM GAS  /tmp/ccL2CoiF.s 			page 4


 172              		.loc 1 169 0 discriminator 1
 173 00c0 55F8046C 		ldr	r6, [r5, #-4]
 174 00c4 54F83B30 		ldr	r3, [r4, fp, lsl #3]
 175              		.loc 1 170 0 discriminator 1
 176 00c8 F218     		adds	r2, r6, r3
 177 00ca 5210     		asrs	r2, r2, #1
 178 00cc 45F8042C 		str	r2, [r5, #-4]
 179              		.loc 1 172 0 discriminator 1
 180 00d0 6268     		ldr	r2, [r4, #4]
 181 00d2 55F83B00 		ldr	r0, [r5, fp, lsl #3]
 182              		.loc 1 173 0 discriminator 1
 183 00d6 1118     		adds	r1, r2, r0
 184 00d8 4910     		asrs	r1, r1, #1
 185              		.loc 1 169 0 discriminator 1
 186 00da F31A     		subs	r3, r6, r3
 187              	.LVL19:
 188              		.loc 1 173 0 discriminator 1
 189 00dc 6160     		str	r1, [r4, #4]
 190              		.loc 1 172 0 discriminator 1
 191 00de 121A     		subs	r2, r2, r0
 192              	.LVL20:
 193              		.loc 1 175 0 discriminator 1
 194              	@ 175 "/home/sbcu/Dropbox/pcb-layouts/axo-on-discovery-board/axoloti/platform_linux/../CMSIS//DSP_L
 195 00e0 53FB1CF0 		smmulr r0, r3, ip
 196              	@ 0 "" 2
 197              	.LVL21:
 198              		.loc 1 176 0 discriminator 1
 199              	@ 176 "/home/sbcu/Dropbox/pcb-layouts/axo-on-discovery-board/axoloti/platform_linux/../CMSIS//DSP_L
 200 00e4 52FB1CF1 		smmulr r1, r2, ip
 201              	@ 0 "" 2
 202              	.LVL22:
 203              		.loc 1 177 0 discriminator 1
 204              	@ 177 "/home/sbcu/Dropbox/pcb-layouts/axo-on-discovery-board/axoloti/platform_linux/../CMSIS//DSP_L
 205 00e8 52FB1E02 		smmlar r2, r2, lr, r0
 206              	@ 0 "" 2
 207              	.LVL23:
 208              		.loc 1 178 0 discriminator 1
 209              	@ 178 "/home/sbcu/Dropbox/pcb-layouts/axo-on-discovery-board/axoloti/platform_linux/../CMSIS//DSP_L
 210 00ec 63FB1E13 		smmlsr r3, r3, lr, r1
 211              	@ 0 "" 2
 212              	.LVL24:
 213              		.loc 1 184 0 discriminator 1
 214              		.thumb
 215 00f0 013F     		subs	r7, r7, #1
 216              	.LVL25:
 217              		.loc 1 180 0 discriminator 1
 218 00f2 44F83B20 		str	r2, [r4, fp, lsl #3]
 219              		.loc 1 181 0 discriminator 1
 220 00f6 45F83B30 		str	r3, [r5, fp, lsl #3]
 221              	.LVL26:
 222 00fa 4444     		add	r4, r4, r8
 223 00fc 4544     		add	r5, r5, r8
 224              		.loc 1 184 0 discriminator 1
 225 00fe DFD1     		bne	.L7
 226 0100 019B     		ldr	r3, [sp, #4]
 227              	.LVL27:
 228 0102 9A44     		add	r10, r10, r3
ARM GAS  /tmp/ccL2CoiF.s 			page 5


 229              		.loc 1 157 0 discriminator 2
 230 0104 029B     		ldr	r3, [sp, #8]
 231 0106 09F10809 		add	r9, r9, #8
 232 010a 9945     		cmp	r9, r3
 233 010c D2D1     		bne	.L8
 234              	.LVL28:
 235              	.L9:
 236              		.loc 1 188 0
 237 010e 049B     		ldr	r3, [sp, #16]
 238              		.loc 1 150 0
 239 0110 059A     		ldr	r2, [sp, #20]
 240              		.loc 1 188 0
 241 0112 5B00     		lsls	r3, r3, #1
 242              		.loc 1 150 0
 243 0114 5208     		lsrs	r2, r2, #1
 244              		.loc 1 188 0
 245 0116 9BB2     		uxth	r3, r3
 246              		.loc 1 150 0
 247 0118 022A     		cmp	r2, #2
 248 011a 0592     		str	r2, [sp, #20]
 249              	.LVL29:
 250              		.loc 1 188 0
 251 011c 0493     		str	r3, [sp, #16]
 252              	.LVL30:
 253              		.loc 1 153 0
 254 011e 5846     		mov	r0, fp
 255              		.loc 1 150 0
 256 0120 B5D8     		bhi	.L6
 257              	.LVL31:
 258              	.L4:
 259              		.loc 1 192 0
 260 0122 4FEA5B06 		lsr	r6, fp, #1
 261              	.LVL32:
 262              	.L10:
 263 0126 069A     		ldr	r2, [sp, #24]
 264 0128 099B     		ldr	r3, [sp, #36]
 265 012a 079C     		ldr	r4, [sp, #28]
 266 012c 4FEA0B1C 		lsl	ip, fp, #4
 267 0130 4FEA4B08 		lsl	r8, fp, #1
 268              		.loc 1 123 0
 269 0134 4FF0000E 		mov	lr, #0
 270 0138 06EB0B07 		add	r7, r6, fp
 271              	.LVL33:
 272              	.L11:
 273              		.loc 1 203 0 discriminator 3
 274 013c 52F83690 		ldr	r9, [r2, r6, lsl #3]
 275 0140 53F8040C 		ldr	r0, [r3, #-4]
 276              	.LVL34:
 277              		.loc 1 204 0 discriminator 3
 278 0144 00EB0901 		add	r1, r0, r9
 279 0148 43F8041C 		str	r1, [r3, #-4]
 280              		.loc 1 206 0 discriminator 3
 281 014c 53F83650 		ldr	r5, [r3, r6, lsl #3]
 282 0150 5168     		ldr	r1, [r2, #4]
 283              	.LVL35:
 284              		.loc 1 203 0 discriminator 3
 285 0152 C9EB0000 		rsb	r0, r9, r0
ARM GAS  /tmp/ccL2CoiF.s 			page 6


 286              	.LVL36:
 287              		.loc 1 207 0 discriminator 3
 288 0156 01EB0509 		add	r9, r1, r5
 289              		.loc 1 206 0 discriminator 3
 290 015a 491B     		subs	r1, r1, r5
 291              	.LVL37:
 292              		.loc 1 207 0 discriminator 3
 293 015c C2F80490 		str	r9, [r2, #4]
 294              		.loc 1 209 0 discriminator 3
 295 0160 42F83600 		str	r0, [r2, r6, lsl #3]
 296              		.loc 1 211 0 discriminator 3
 297 0164 43F83610 		str	r1, [r3, r6, lsl #3]
 298              	.LVL38:
 299              		.loc 1 216 0 discriminator 3
 300 0168 52F83790 		ldr	r9, [r2, r7, lsl #3]
 301 016c 52F83B00 		ldr	r0, [r2, fp, lsl #3]
 302              	.LVL39:
 303              		.loc 1 217 0 discriminator 3
 304 0170 00EB0901 		add	r1, r0, r9
 305              	.LVL40:
 306 0174 42F83B10 		str	r1, [r2, fp, lsl #3]
 307              	.LVL41:
 308              		.loc 1 219 0 discriminator 3
 309 0178 53F83750 		ldr	r5, [r3, r7, lsl #3]
 310 017c 53F83B10 		ldr	r1, [r3, fp, lsl #3]
 311              	.LVL42:
 312 0180 C644     		add	lr, lr, r8
 313              	.LVL43:
 314              		.loc 1 216 0 discriminator 3
 315 0182 C9EB0000 		rsb	r0, r9, r0
 316              	.LVL44:
 317              		.loc 1 200 0 discriminator 3
 318 0186 7445     		cmp	r4, lr
 319              		.loc 1 220 0 discriminator 3
 320 0188 01EB0509 		add	r9, r1, r5
 321              		.loc 1 219 0 discriminator 3
 322 018c A1EB0501 		sub	r1, r1, r5
 323              	.LVL45:
 324              		.loc 1 220 0 discriminator 3
 325 0190 43F83B90 		str	r9, [r3, fp, lsl #3]
 326              		.loc 1 222 0 discriminator 3
 327 0194 42F83700 		str	r0, [r2, r7, lsl #3]
 328              		.loc 1 224 0 discriminator 3
 329 0198 43F83710 		str	r1, [r3, r7, lsl #3]
 330 019c 6244     		add	r2, r2, ip
 331 019e 6344     		add	r3, r3, ip
 332              		.loc 1 200 0 discriminator 3
 333 01a0 CCD8     		bhi	.L11
 334              	.LVL46:
 335              	.L1:
 336              		.loc 1 228 0
 337 01a2 0BB0     		add	sp, sp, #44
 338              		.cfi_remember_state
 339              		.cfi_def_cfa_offset 36
 340              		@ sp needed
 341 01a4 BDE8F08F 		pop	{r4, r5, r6, r7, r8, r9, r10, fp, pc}
 342              	.LVL47:
ARM GAS  /tmp/ccL2CoiF.s 			page 7


 343              	.L2:
 344              		.cfi_restore_state
 345              		.loc 1 192 0
 346 01a8 079B     		ldr	r3, [sp, #28]
 347              	.LVL48:
 348              		.loc 1 123 0
 349 01aa 8346     		mov	fp, r0
 350              	.LVL49:
 351              		.loc 1 192 0
 352 01ac 9E08     		lsrs	r6, r3, #2
 353              	.LVL50:
 354              		.loc 1 200 0
 355 01ae 002B     		cmp	r3, #0
 356 01b0 F7D0     		beq	.L1
 357 01b2 069B     		ldr	r3, [sp, #24]
 358 01b4 0433     		adds	r3, r3, #4
 359 01b6 0993     		str	r3, [sp, #36]
 360              	.LVL51:
 361 01b8 B5E7     		b	.L10
 362              	.LVL52:
 363              	.L13:
 364              		.loc 1 150 0
 365 01ba 8346     		mov	fp, r0
 366 01bc B1E7     		b	.L4
 367              		.cfi_endproc
 368              	.LFE136:
 369              		.size	arm_radix2_butterfly_q31, .-arm_radix2_butterfly_q31
 370 01be 00BF     		.align	2
 371              		.p2align 4,,15
 372              		.global	arm_radix2_butterfly_inverse_q31
 373              		.thumb
 374              		.thumb_func
 375              		.type	arm_radix2_butterfly_inverse_q31, %function
 376              	arm_radix2_butterfly_inverse_q31:
 377              	.LFB137:
 378              		.loc 1 236 0
 379              		.cfi_startproc
 380              		@ args = 0, pretend = 0, frame = 40
 381              		@ frame_needed = 0, uses_anonymous_args = 0
 382              	.LVL53:
 383 01c0 2DE9F04F 		push	{r4, r5, r6, r7, r8, r9, r10, fp, lr}
 384              		.cfi_def_cfa_offset 36
 385              		.cfi_offset 4, -36
 386              		.cfi_offset 5, -32
 387              		.cfi_offset 6, -28
 388              		.cfi_offset 7, -24
 389              		.cfi_offset 8, -20
 390              		.cfi_offset 9, -16
 391              		.cfi_offset 10, -12
 392              		.cfi_offset 11, -8
 393              		.cfi_offset 14, -4
 394 01c4 8BB0     		sub	sp, sp, #44
 395              		.cfi_def_cfa_offset 80
 396              		.loc 1 236 0
 397 01c6 8946     		mov	r9, r1
 398              	.LVL54:
 399              		.loc 1 251 0
ARM GAS  /tmp/ccL2CoiF.s 			page 8


 400 01c8 4908     		lsrs	r1, r1, #1
 401              	.LVL55:
 402              		.loc 1 236 0
 403 01ca 8246     		mov	r10, r0
 404 01cc 0892     		str	r2, [sp, #32]
 405 01ce 0193     		str	r3, [sp, #4]
 406              		.loc 1 251 0
 407 01d0 0091     		str	r1, [sp]
 408 01d2 00F0D880 		beq	.L23
 409 01d6 0430     		adds	r0, r0, #4
 410              	.LVL56:
 411 01d8 0990     		str	r0, [sp, #36]
 412 01da 0746     		mov	r7, r0
 413 01dc 4FEAC30C 		lsl	ip, r3, #3
 414 01e0 0AEBC10B 		add	fp, r10, r1, lsl #3
 415 01e4 5646     		mov	r6, r10
 416 01e6 9646     		mov	lr, r2
 417 01e8 0C46     		mov	r4, r1
 418 01ea CDF808A0 		str	r10, [sp, #8]
 419              	.LVL57:
 420              	.L24:
 421              		.loc 1 258 0 discriminator 3
 422 01ee 57F8042C 		ldr	r2, [r7, #-4]
 423 01f2 56F83430 		ldr	r3, [r6, r4, lsl #3]
 424 01f6 4FEA6208 		asr	r8, r2, #1
 425 01fa 5B10     		asrs	r3, r3, #1
 426              		.loc 1 259 0 discriminator 3
 427 01fc 08EB0302 		add	r2, r8, r3
 428 0200 5210     		asrs	r2, r2, #1
 429              		.loc 1 254 0 discriminator 3
 430 0202 9EE82200 		ldmia	lr, {r1, r5}
 431              	.LVL58:
 432              		.loc 1 259 0 discriminator 3
 433 0206 47F8042C 		str	r2, [r7, #-4]
 434              		.loc 1 261 0 discriminator 3
 435 020a 57F83400 		ldr	r0, [r7, r4, lsl #3]
 436 020e 7268     		ldr	r2, [r6, #4]
 437 0210 4FEA600A 		asr	r10, r0, #1
 438 0214 5210     		asrs	r2, r2, #1
 439              		.loc 1 263 0 discriminator 3
 440 0216 02EB0A00 		add	r0, r2, r10
 441 021a 4010     		asrs	r0, r0, #1
 442              		.loc 1 258 0 discriminator 3
 443 021c C3EB0803 		rsb	r3, r3, r8
 444              	.LVL59:
 445              		.loc 1 262 0 discriminator 3
 446 0220 7060     		str	r0, [r6, #4]
 447              		.loc 1 261 0 discriminator 3
 448 0222 CAEB0202 		rsb	r2, r10, r2
 449              	.LVL60:
 450              		.loc 1 265 0 discriminator 3
 451              	@ 265 "/home/sbcu/Dropbox/pcb-layouts/axo-on-discovery-board/axoloti/platform_linux/../CMSIS//DSP_L
 452 0226 53FB11F0 		smmulr r0, r3, r1
 453              	@ 0 "" 2
 454              	.LVL61:
 455              		.loc 1 266 0 discriminator 3
 456              	@ 266 "/home/sbcu/Dropbox/pcb-layouts/axo-on-discovery-board/axoloti/platform_linux/../CMSIS//DSP_L
ARM GAS  /tmp/ccL2CoiF.s 			page 9


 457 022a 52FB11F1 		smmulr r1, r2, r1
 458              	@ 0 "" 2
 459              	.LVL62:
 460              		.loc 1 267 0 discriminator 3
 461              	@ 267 "/home/sbcu/Dropbox/pcb-layouts/axo-on-discovery-board/axoloti/platform_linux/../CMSIS//DSP_L
 462 022e 62FB1502 		smmlsr r2, r2, r5, r0
 463              	@ 0 "" 2
 464              	.LVL63:
 465              		.loc 1 268 0 discriminator 3
 466              	@ 268 "/home/sbcu/Dropbox/pcb-layouts/axo-on-discovery-board/axoloti/platform_linux/../CMSIS//DSP_L
 467 0232 53FB1513 		smmlar r3, r3, r5, r1
 468              	@ 0 "" 2
 469              	.LVL64:
 470              		.loc 1 270 0 discriminator 3
 471              		.thumb
 472 0236 46F83420 		str	r2, [r6, r4, lsl #3]
 473 023a 0836     		adds	r6, r6, #8
 474              		.loc 1 251 0 discriminator 3
 475 023c 5E45     		cmp	r6, fp
 476              		.loc 1 271 0 discriminator 3
 477 023e 47F83430 		str	r3, [r7, r4, lsl #3]
 478 0242 E644     		add	lr, lr, ip
 479 0244 07F10807 		add	r7, r7, #8
 480              		.loc 1 251 0 discriminator 3
 481 0248 D1D1     		bne	.L24
 482              		.loc 1 274 0
 483 024a 019B     		ldr	r3, [sp, #4]
 484              	.LVL65:
 485 024c DDF808A0 		ldr	r10, [sp, #8]
 486 0250 5B00     		lsls	r3, r3, #1
 487 0252 9BB2     		uxth	r3, r3
 488 0254 0693     		str	r3, [sp, #24]
 489              	.LVL66:
 490              		.loc 1 277 0
 491 0256 009B     		ldr	r3, [sp]
 492 0258 022B     		cmp	r3, #2
 493 025a 40F29E80 		bls	.L36
 494 025e 0793     		str	r3, [sp, #28]
 495              	.LVL67:
 496              	.L27:
 497              		.loc 1 284 0
 498 0260 009B     		ldr	r3, [sp]
 499 0262 5FEA530B 		lsrs	fp, r3, #1
 500              	.LVL68:
 501 0266 47D0     		beq	.L30
 502 0268 069B     		ldr	r3, [sp, #24]
 503 026a CDF80CA0 		str	r10, [sp, #12]
 504 026e DB00     		lsls	r3, r3, #3
 505 0270 0493     		str	r3, [sp, #16]
 506 0272 009B     		ldr	r3, [sp]
 507 0274 4FEAC308 		lsl	r8, r3, #3
 508 0278 4FEACB03 		lsl	r3, fp, #3
 509 027c 0593     		str	r3, [sp, #20]
 510 027e 089B     		ldr	r3, [sp, #32]
 511 0280 0293     		str	r3, [sp, #8]
 512 0282 0023     		movs	r3, #0
 513 0284 0193     		str	r3, [sp, #4]
ARM GAS  /tmp/ccL2CoiF.s 			page 10


 514              	.LVL69:
 515              	.L29:
 516              		.loc 1 291 0
 517 0286 019B     		ldr	r3, [sp, #4]
 518              		.loc 1 286 0
 519 0288 029A     		ldr	r2, [sp, #8]
 520              		.loc 1 291 0
 521 028a 9945     		cmp	r9, r3
 522              		.loc 1 286 0
 523 028c D2F800E0 		ldr	lr, [r2]
 524              	.LVL70:
 525              		.loc 1 287 0
 526 0290 D2F804C0 		ldr	ip, [r2, #4]
 527              	.LVL71:
 528              		.loc 1 291 0
 529 0294 24D9     		bls	.L32
 530 0296 039B     		ldr	r3, [sp, #12]
 531 0298 059A     		ldr	r2, [sp, #20]
 532 029a 019D     		ldr	r5, [sp, #4]
 533 029c 9E18     		adds	r6, r3, r2
 534 029e 1C46     		mov	r4, r3
 535              	.LVL72:
 536              	.L31:
 537              		.loc 1 294 0 discriminator 3
 538 02a0 5AF83570 		ldr	r7, [r10, r5, lsl #3]
 539 02a4 54F83B30 		ldr	r3, [r4, fp, lsl #3]
 540              		.loc 1 295 0 discriminator 3
 541 02a8 FA18     		adds	r2, r7, r3
 542 02aa 5210     		asrs	r2, r2, #1
 543 02ac 4AF83520 		str	r2, [r10, r5, lsl #3]
 544              		.loc 1 297 0 discriminator 3
 545 02b0 6268     		ldr	r2, [r4, #4]
 546 02b2 7068     		ldr	r0, [r6, #4]
 547              		.loc 1 298 0 discriminator 3
 548 02b4 1118     		adds	r1, r2, r0
 549 02b6 4910     		asrs	r1, r1, #1
 550              		.loc 1 294 0 discriminator 3
 551 02b8 FB1A     		subs	r3, r7, r3
 552              	.LVL73:
 553              		.loc 1 298 0 discriminator 3
 554 02ba 6160     		str	r1, [r4, #4]
 555              		.loc 1 297 0 discriminator 3
 556 02bc 121A     		subs	r2, r2, r0
 557              	.LVL74:
 558              		.loc 1 300 0 discriminator 3
 559              	@ 300 "/home/sbcu/Dropbox/pcb-layouts/axo-on-discovery-board/axoloti/platform_linux/../CMSIS//DSP_L
 560 02be 53FB1EF0 		smmulr r0, r3, lr
 561              	@ 0 "" 2
 562              	.LVL75:
 563              		.loc 1 301 0 discriminator 3
 564              	@ 301 "/home/sbcu/Dropbox/pcb-layouts/axo-on-discovery-board/axoloti/platform_linux/../CMSIS//DSP_L
 565 02c2 52FB1EF7 		smmulr r7, r2, lr
 566              	@ 0 "" 2
 567              	.LVL76:
 568              		.loc 1 302 0 discriminator 3
 569              	@ 302 "/home/sbcu/Dropbox/pcb-layouts/axo-on-discovery-board/axoloti/platform_linux/../CMSIS//DSP_L
 570 02c6 62FB1C02 		smmlsr r2, r2, ip, r0
ARM GAS  /tmp/ccL2CoiF.s 			page 11


 571              	@ 0 "" 2
 572              	.LVL77:
 573              		.loc 1 303 0 discriminator 3
 574              	@ 303 "/home/sbcu/Dropbox/pcb-layouts/axo-on-discovery-board/axoloti/platform_linux/../CMSIS//DSP_L
 575 02ca 53FB1C73 		smmlar r3, r3, ip, r7
 576              	@ 0 "" 2
 577              	.LVL78:
 578              		.loc 1 291 0 discriminator 3
 579              		.thumb
 580 02ce 0099     		ldr	r1, [sp]
 581              		.loc 1 305 0 discriminator 3
 582 02d0 44F83B20 		str	r2, [r4, fp, lsl #3]
 583              		.loc 1 291 0 discriminator 3
 584 02d4 0D44     		add	r5, r5, r1
 585              	.LVL79:
 586 02d6 A945     		cmp	r9, r5
 587              		.loc 1 306 0 discriminator 3
 588 02d8 7360     		str	r3, [r6, #4]
 589 02da 4444     		add	r4, r4, r8
 590 02dc 4644     		add	r6, r6, r8
 591              		.loc 1 291 0 discriminator 3
 592 02de DFD8     		bhi	.L31
 593              	.LVL80:
 594              	.L32:
 595 02e0 029A     		ldr	r2, [sp, #8]
 596 02e2 0499     		ldr	r1, [sp, #16]
 597              		.loc 1 284 0
 598 02e4 019B     		ldr	r3, [sp, #4]
 599 02e6 0A44     		add	r2, r2, r1
 600 02e8 0292     		str	r2, [sp, #8]
 601 02ea 039A     		ldr	r2, [sp, #12]
 602 02ec 0133     		adds	r3, r3, #1
 603 02ee 0832     		adds	r2, r2, #8
 604 02f0 5B45     		cmp	r3, fp
 605 02f2 0193     		str	r3, [sp, #4]
 606              	.LVL81:
 607 02f4 0392     		str	r2, [sp, #12]
 608 02f6 C6D1     		bne	.L29
 609              	.LVL82:
 610              	.L30:
 611              		.loc 1 311 0
 612 02f8 069B     		ldr	r3, [sp, #24]
 613              		.loc 1 277 0
 614 02fa 079A     		ldr	r2, [sp, #28]
 615              		.loc 1 280 0
 616 02fc CDF800B0 		str	fp, [sp]
 617              		.loc 1 277 0
 618 0300 5208     		lsrs	r2, r2, #1
 619              		.loc 1 311 0
 620 0302 5B00     		lsls	r3, r3, #1
 621 0304 9BB2     		uxth	r3, r3
 622              		.loc 1 277 0
 623 0306 022A     		cmp	r2, #2
 624 0308 0792     		str	r2, [sp, #28]
 625              	.LVL83:
 626              		.loc 1 311 0
 627 030a 0693     		str	r3, [sp, #24]
ARM GAS  /tmp/ccL2CoiF.s 			page 12


 628              	.LVL84:
 629              		.loc 1 277 0
 630 030c A8D8     		bhi	.L27
 631              	.LVL85:
 632              	.L25:
 633              		.loc 1 315 0
 634 030e 4FEA5B06 		lsr	r6, fp, #1
 635              	.LVL86:
 636              	.L33:
 637 0312 099B     		ldr	r3, [sp, #36]
 638 0314 5246     		mov	r2, r10
 639 0316 4FEA0B1C 		lsl	ip, fp, #4
 640 031a 4FEA4B08 		lsl	r8, fp, #1
 641              		.loc 1 251 0
 642 031e 4FF0000E 		mov	lr, #0
 643 0322 06EB0B07 		add	r7, r6, fp
 644              	.LVL87:
 645              	.L34:
 646              		.loc 1 326 0 discriminator 3
 647 0326 52F83650 		ldr	r5, [r2, r6, lsl #3]
 648 032a 53F8040C 		ldr	r0, [r3, #-4]
 649              	.LVL88:
 650              		.loc 1 327 0 discriminator 3
 651 032e 4119     		adds	r1, r0, r5
 652 0330 43F8041C 		str	r1, [r3, #-4]
 653              		.loc 1 329 0 discriminator 3
 654 0334 53F83640 		ldr	r4, [r3, r6, lsl #3]
 655 0338 5168     		ldr	r1, [r2, #4]
 656              	.LVL89:
 657              		.loc 1 326 0 discriminator 3
 658 033a 401B     		subs	r0, r0, r5
 659              	.LVL90:
 660              		.loc 1 330 0 discriminator 3
 661 033c 0D19     		adds	r5, r1, r4
 662              		.loc 1 329 0 discriminator 3
 663 033e 091B     		subs	r1, r1, r4
 664              	.LVL91:
 665              		.loc 1 330 0 discriminator 3
 666 0340 5560     		str	r5, [r2, #4]
 667              		.loc 1 332 0 discriminator 3
 668 0342 42F83600 		str	r0, [r2, r6, lsl #3]
 669              		.loc 1 334 0 discriminator 3
 670 0346 43F83610 		str	r1, [r3, r6, lsl #3]
 671              	.LVL92:
 672              		.loc 1 339 0 discriminator 3
 673 034a 52F83750 		ldr	r5, [r2, r7, lsl #3]
 674 034e 52F83B00 		ldr	r0, [r2, fp, lsl #3]
 675              	.LVL93:
 676              		.loc 1 340 0 discriminator 3
 677 0352 4119     		adds	r1, r0, r5
 678              	.LVL94:
 679 0354 42F83B10 		str	r1, [r2, fp, lsl #3]
 680              	.LVL95:
 681              		.loc 1 342 0 discriminator 3
 682 0358 53F83740 		ldr	r4, [r3, r7, lsl #3]
 683 035c 53F83B10 		ldr	r1, [r3, fp, lsl #3]
 684              	.LVL96:
ARM GAS  /tmp/ccL2CoiF.s 			page 13


 685 0360 C644     		add	lr, lr, r8
 686              	.LVL97:
 687              		.loc 1 339 0 discriminator 3
 688 0362 401B     		subs	r0, r0, r5
 689              	.LVL98:
 690              		.loc 1 323 0 discriminator 3
 691 0364 F145     		cmp	r9, lr
 692              		.loc 1 343 0 discriminator 3
 693 0366 01EB0405 		add	r5, r1, r4
 694              		.loc 1 342 0 discriminator 3
 695 036a A1EB0401 		sub	r1, r1, r4
 696              	.LVL99:
 697              		.loc 1 343 0 discriminator 3
 698 036e 43F83B50 		str	r5, [r3, fp, lsl #3]
 699              		.loc 1 345 0 discriminator 3
 700 0372 42F83700 		str	r0, [r2, r7, lsl #3]
 701              		.loc 1 347 0 discriminator 3
 702 0376 43F83710 		str	r1, [r3, r7, lsl #3]
 703 037a 6244     		add	r2, r2, ip
 704 037c 6344     		add	r3, r3, ip
 705              		.loc 1 323 0 discriminator 3
 706 037e D2D8     		bhi	.L34
 707              	.LVL100:
 708              	.L22:
 709              		.loc 1 351 0
 710 0380 0BB0     		add	sp, sp, #44
 711              		.cfi_remember_state
 712              		.cfi_def_cfa_offset 36
 713              		@ sp needed
 714 0382 BDE8F08F 		pop	{r4, r5, r6, r7, r8, r9, r10, fp, pc}
 715              	.LVL101:
 716              	.L23:
 717              		.cfi_restore_state
 718              		.loc 1 251 0
 719 0386 DDF800B0 		ldr	fp, [sp]
 720              	.LVL102:
 721              		.loc 1 315 0
 722 038a 4FEA9906 		lsr	r6, r9, #2
 723              	.LVL103:
 724              		.loc 1 323 0
 725 038e B9F1000F 		cmp	r9, #0
 726 0392 F5D0     		beq	.L22
 727 0394 031D     		adds	r3, r0, #4
 728              	.LVL104:
 729 0396 0993     		str	r3, [sp, #36]
 730              	.LVL105:
 731 0398 BBE7     		b	.L33
 732              	.LVL106:
 733              	.L36:
 734              		.loc 1 277 0
 735 039a DDF800B0 		ldr	fp, [sp]
 736 039e B6E7     		b	.L25
 737              		.cfi_endproc
 738              	.LFE137:
 739              		.size	arm_radix2_butterfly_inverse_q31, .-arm_radix2_butterfly_inverse_q31
 740              		.align	2
 741              		.p2align 4,,15
ARM GAS  /tmp/ccL2CoiF.s 			page 14


 742              		.global	arm_cfft_radix2_q31
 743              		.thumb
 744              		.thumb_func
 745              		.type	arm_cfft_radix2_q31, %function
 746              	arm_cfft_radix2_q31:
 747              	.LFB135:
 748              		.loc 1 83 0
 749              		.cfi_startproc
 750              		@ args = 0, pretend = 0, frame = 0
 751              		@ frame_needed = 0, uses_anonymous_args = 0
 752              	.LVL107:
 753 03a0 70B5     		push	{r4, r5, r6, lr}
 754              		.cfi_def_cfa_offset 16
 755              		.cfi_offset 4, -16
 756              		.cfi_offset 5, -12
 757              		.cfi_offset 6, -8
 758              		.cfi_offset 14, -4
 759              		.loc 1 85 0
 760 03a2 8378     		ldrb	r3, [r0, #2]	@ zero_extendqisi2
 761              		.loc 1 83 0
 762 03a4 0446     		mov	r4, r0
 763              		.loc 1 85 0
 764 03a6 012B     		cmp	r3, #1
 765              		.loc 1 83 0
 766 03a8 0D46     		mov	r5, r1
 767              		.loc 1 87 0
 768 03aa 0846     		mov	r0, r1
 769              	.LVL108:
 770 03ac 6268     		ldr	r2, [r4, #4]
 771 03ae 2188     		ldrh	r1, [r4]
 772              	.LVL109:
 773 03b0 A389     		ldrh	r3, [r4, #12]
 774              		.loc 1 85 0
 775 03b2 09D0     		beq	.L48
 776              		.loc 1 92 0
 777 03b4 FFF7FEFF 		bl	arm_radix2_butterfly_q31
 778              	.LVL110:
 779              	.L46:
 780              		.loc 1 96 0
 781 03b8 2846     		mov	r0, r5
 782 03ba 2188     		ldrh	r1, [r4]
 783 03bc E289     		ldrh	r2, [r4, #14]
 784 03be A368     		ldr	r3, [r4, #8]
 785              		.loc 1 97 0
 786 03c0 BDE87040 		pop	{r4, r5, r6, lr}
 787              		.cfi_remember_state
 788              		.cfi_restore 14
 789              		.cfi_restore 6
 790              		.cfi_restore 5
 791              		.cfi_restore 4
 792              		.cfi_def_cfa_offset 0
 793              	.LVL111:
 794              		.loc 1 96 0
 795 03c4 FFF7FEBF 		b	arm_bitreversal_q31
 796              	.LVL112:
 797              	.L48:
 798              		.cfi_restore_state
ARM GAS  /tmp/ccL2CoiF.s 			page 15


 799              		.loc 1 87 0
 800 03c8 FFF7FEFF 		bl	arm_radix2_butterfly_inverse_q31
 801              	.LVL113:
 802 03cc F4E7     		b	.L46
 803              		.cfi_endproc
 804              	.LFE135:
 805              		.size	arm_cfft_radix2_q31, .-arm_cfft_radix2_q31
 806              	.Letext0:
 807              		.file 2 "/home/sbcu/Dropbox/pcb-layouts/axo-on-discovery-board/axoloti/platform_linux/arm-none-eab
 808              		.file 3 "/home/sbcu/Dropbox/pcb-layouts/axo-on-discovery-board/axoloti/platform_linux/arm-none-eab
 809              		.file 4 "/home/sbcu/Dropbox/pcb-layouts/axo-on-discovery-board/axoloti/platform_linux/../CMSIS//DS