ARM GAS  /tmp/ccnKDy42.s 			page 1


   1              		.syntax unified
   2              		.cpu cortex-m4
   3              		.eabi_attribute 27, 1
   4              		.eabi_attribute 28, 1
   5              		.fpu fpv4-sp-d16
   6              		.eabi_attribute 20, 1
   7              		.eabi_attribute 21, 1
   8              		.eabi_attribute 23, 3
   9              		.eabi_attribute 24, 1
  10              		.eabi_attribute 25, 1
  11              		.eabi_attribute 26, 1
  12              		.eabi_attribute 30, 2
  13              		.eabi_attribute 34, 1
  14              		.eabi_attribute 18, 4
  15              		.thumb
  16              		.file	"arm_cfft_radix2_init_q15.c"
  17              		.text
  18              	.Ltext0:
  19              		.cfi_sections	.debug_frame
  20              		.align	2
  21              		.p2align 4,,15
  22              		.global	arm_cfft_radix2_init_q15
  23              		.thumb
  24              		.thumb_func
  25              		.type	arm_cfft_radix2_init_q15, %function
  26              	arm_cfft_radix2_init_q15:
  27              	.LFB135:
  28              		.file 1 "/home/sbcu/Dropbox/pcb-layouts/axo-on-discovery-board/axoloti/platform_linux/../CMSIS//DS
  29              		.loc 1 81 0
  30              		.cfi_startproc
  31              		@ args = 0, pretend = 0, frame = 0
  32              		@ frame_needed = 0, uses_anonymous_args = 0
  33              		@ link register save eliminated.
  34              	.LVL0:
  35 0000 10B4     		push	{r4}
  36              		.cfi_def_cfa_offset 4
  37              		.cfi_offset 4, -4
  38              		.loc 1 96 0
  39 0002 B1F5807F 		cmp	r1, #256
  40              		.loc 1 89 0
  41 0006 3E4C     		ldr	r4, .L21
  42              		.loc 1 91 0
  43 0008 8270     		strb	r2, [r0, #2]
  44              		.loc 1 93 0
  45 000a C370     		strb	r3, [r0, #3]
  46              		.loc 1 86 0
  47 000c 0180     		strh	r1, [r0]	@ movhi
  48              		.loc 1 89 0
  49 000e 4460     		str	r4, [r0, #4]
  50              		.loc 1 96 0
  51 0010 5CD0     		beq	.L3
  52 0012 13D9     		bls	.L18
  53 0014 B1F5806F 		cmp	r1, #1024
  54 0018 62D0     		beq	.L10
  55 001a 40D9     		bls	.L19
  56 001c B1F5006F 		cmp	r1, #2048
  57 0020 26D0     		beq	.L13
ARM GAS  /tmp/ccnKDy42.s 			page 2


  58 0022 B1F5805F 		cmp	r1, #4096
  59 0026 65D1     		bne	.L15
  60              		.loc 1 102 0
  61 0028 0123     		movs	r3, #1
  62              	.LVL1:
  63              		.loc 1 106 0
  64 002a 364A     		ldr	r2, .L21+4
  65              	.LVL2:
  66              		.loc 1 102 0
  67 002c 8381     		strh	r3, [r0, #12]	@ movhi
  68              		.loc 1 104 0
  69 002e C381     		strh	r3, [r0, #14]	@ movhi
  70              		.loc 1 106 0
  71 0030 8260     		str	r2, [r0, #8]
  72              		.loc 1 83 0
  73 0032 0020     		movs	r0, #0
  74              	.LVL3:
  75              		.loc 1 185 0
  76 0034 40B2     		sxtb	r0, r0
  77 0036 5DF8044B 		ldr	r4, [sp], #4
  78              		.cfi_remember_state
  79              		.cfi_restore 4
  80              		.cfi_def_cfa_offset 0
  81 003a 7047     		bx	lr
  82              	.LVL4:
  83              	.L18:
  84              		.cfi_restore_state
  85              		.loc 1 96 0
  86 003c 2029     		cmp	r1, #32
  87 003e 3BD0     		beq	.L5
  88 0040 20D9     		bls	.L20
  89 0042 4029     		cmp	r1, #64
  90 0044 0BD0     		beq	.L8
  91 0046 8029     		cmp	r1, #128
  92 0048 54D1     		bne	.L15
  93              		.loc 1 148 0
  94 004a 2023     		movs	r3, #32
  95              	.LVL5:
  96              		.loc 1 150 0
  97 004c 2E4A     		ldr	r2, .L21+8
  98              	.LVL6:
  99              		.loc 1 148 0
 100 004e 8381     		strh	r3, [r0, #12]	@ movhi
 101              		.loc 1 149 0
 102 0050 C381     		strh	r3, [r0, #14]	@ movhi
 103              		.loc 1 150 0
 104 0052 8260     		str	r2, [r0, #8]
 105              		.loc 1 83 0
 106 0054 0020     		movs	r0, #0
 107              	.LVL7:
 108              		.loc 1 185 0
 109 0056 40B2     		sxtb	r0, r0
 110 0058 5DF8044B 		ldr	r4, [sp], #4
 111              		.cfi_remember_state
 112              		.cfi_restore 4
 113              		.cfi_def_cfa_offset 0
 114 005c 7047     		bx	lr
ARM GAS  /tmp/ccnKDy42.s 			page 3


 115              	.LVL8:
 116              	.L8:
 117              		.cfi_restore_state
 118              		.loc 1 158 0
 119 005e 2B4B     		ldr	r3, .L21+12
 120              	.LVL9:
 121              		.loc 1 156 0
 122 0060 8181     		strh	r1, [r0, #12]	@ movhi
 123              		.loc 1 157 0
 124 0062 C181     		strh	r1, [r0, #14]	@ movhi
 125              		.loc 1 158 0
 126 0064 8360     		str	r3, [r0, #8]
 127              		.loc 1 83 0
 128 0066 0020     		movs	r0, #0
 129              	.LVL10:
 130              		.loc 1 185 0
 131 0068 40B2     		sxtb	r0, r0
 132 006a 5DF8044B 		ldr	r4, [sp], #4
 133              		.cfi_remember_state
 134              		.cfi_restore 4
 135              		.cfi_def_cfa_offset 0
 136 006e 7047     		bx	lr
 137              	.LVL11:
 138              	.L13:
 139              		.cfi_restore_state
 140              		.loc 1 114 0
 141 0070 0223     		movs	r3, #2
 142              	.LVL12:
 143              		.loc 1 118 0
 144 0072 274A     		ldr	r2, .L21+16
 145              	.LVL13:
 146              		.loc 1 114 0
 147 0074 8381     		strh	r3, [r0, #12]	@ movhi
 148              		.loc 1 116 0
 149 0076 C381     		strh	r3, [r0, #14]	@ movhi
 150              		.loc 1 118 0
 151 0078 8260     		str	r2, [r0, #8]
 152              		.loc 1 83 0
 153 007a 0020     		movs	r0, #0
 154              	.LVL14:
 155              		.loc 1 185 0
 156 007c 40B2     		sxtb	r0, r0
 157 007e 5DF8044B 		ldr	r4, [sp], #4
 158              		.cfi_remember_state
 159              		.cfi_restore 4
 160              		.cfi_def_cfa_offset 0
 161 0082 7047     		bx	lr
 162              	.LVL15:
 163              	.L20:
 164              		.cfi_restore_state
 165              		.loc 1 96 0
 166 0084 1029     		cmp	r1, #16
 167 0086 35D1     		bne	.L15
 168              		.loc 1 172 0
 169 0088 4FF48073 		mov	r3, #256
 170              	.LVL16:
 171              		.loc 1 174 0
ARM GAS  /tmp/ccnKDy42.s 			page 4


 172 008c 214A     		ldr	r2, .L21+20
 173              	.LVL17:
 174              		.loc 1 172 0
 175 008e 8381     		strh	r3, [r0, #12]	@ movhi
 176              		.loc 1 173 0
 177 0090 C381     		strh	r3, [r0, #14]	@ movhi
 178              		.loc 1 174 0
 179 0092 8260     		str	r2, [r0, #8]
 180              		.loc 1 83 0
 181 0094 0020     		movs	r0, #0
 182              	.LVL18:
 183              		.loc 1 185 0
 184 0096 40B2     		sxtb	r0, r0
 185 0098 5DF8044B 		ldr	r4, [sp], #4
 186              		.cfi_remember_state
 187              		.cfi_restore 4
 188              		.cfi_def_cfa_offset 0
 189 009c 7047     		bx	lr
 190              	.LVL19:
 191              	.L19:
 192              		.cfi_restore_state
 193              		.loc 1 96 0
 194 009e B1F5007F 		cmp	r1, #512
 195 00a2 27D1     		bne	.L15
 196              		.loc 1 132 0
 197 00a4 0823     		movs	r3, #8
 198              	.LVL20:
 199              		.loc 1 134 0
 200 00a6 1C4A     		ldr	r2, .L21+24
 201              	.LVL21:
 202              		.loc 1 132 0
 203 00a8 8381     		strh	r3, [r0, #12]	@ movhi
 204              		.loc 1 133 0
 205 00aa C381     		strh	r3, [r0, #14]	@ movhi
 206              		.loc 1 134 0
 207 00ac 8260     		str	r2, [r0, #8]
 208              		.loc 1 83 0
 209 00ae 0020     		movs	r0, #0
 210              	.LVL22:
 211              		.loc 1 185 0
 212 00b0 40B2     		sxtb	r0, r0
 213 00b2 5DF8044B 		ldr	r4, [sp], #4
 214              		.cfi_remember_state
 215              		.cfi_restore 4
 216              		.cfi_def_cfa_offset 0
 217 00b6 7047     		bx	lr
 218              	.LVL23:
 219              	.L5:
 220              		.cfi_restore_state
 221              		.loc 1 164 0
 222 00b8 8023     		movs	r3, #128
 223              	.LVL24:
 224              		.loc 1 166 0
 225 00ba 184A     		ldr	r2, .L21+28
 226              	.LVL25:
 227              		.loc 1 164 0
 228 00bc 8381     		strh	r3, [r0, #12]	@ movhi
ARM GAS  /tmp/ccnKDy42.s 			page 5


 229              		.loc 1 165 0
 230 00be C381     		strh	r3, [r0, #14]	@ movhi
 231              		.loc 1 166 0
 232 00c0 8260     		str	r2, [r0, #8]
 233              		.loc 1 83 0
 234 00c2 0020     		movs	r0, #0
 235              	.LVL26:
 236              		.loc 1 185 0
 237 00c4 40B2     		sxtb	r0, r0
 238 00c6 5DF8044B 		ldr	r4, [sp], #4
 239              		.cfi_remember_state
 240              		.cfi_restore 4
 241              		.cfi_def_cfa_offset 0
 242 00ca 7047     		bx	lr
 243              	.LVL27:
 244              	.L3:
 245              		.cfi_restore_state
 246              		.loc 1 140 0
 247 00cc 1023     		movs	r3, #16
 248              	.LVL28:
 249              		.loc 1 142 0
 250 00ce 144A     		ldr	r2, .L21+32
 251              	.LVL29:
 252              		.loc 1 140 0
 253 00d0 8381     		strh	r3, [r0, #12]	@ movhi
 254              		.loc 1 141 0
 255 00d2 C381     		strh	r3, [r0, #14]	@ movhi
 256              		.loc 1 142 0
 257 00d4 8260     		str	r2, [r0, #8]
 258              		.loc 1 83 0
 259 00d6 0020     		movs	r0, #0
 260              	.LVL30:
 261              		.loc 1 185 0
 262 00d8 40B2     		sxtb	r0, r0
 263 00da 5DF8044B 		ldr	r4, [sp], #4
 264              		.cfi_remember_state
 265              		.cfi_restore 4
 266              		.cfi_def_cfa_offset 0
 267 00de 7047     		bx	lr
 268              	.LVL31:
 269              	.L10:
 270              		.cfi_restore_state
 271              		.loc 1 124 0
 272 00e0 0423     		movs	r3, #4
 273              	.LVL32:
 274              		.loc 1 126 0
 275 00e2 104A     		ldr	r2, .L21+36
 276              	.LVL33:
 277              		.loc 1 124 0
 278 00e4 8381     		strh	r3, [r0, #12]	@ movhi
 279              		.loc 1 125 0
 280 00e6 C381     		strh	r3, [r0, #14]	@ movhi
 281              		.loc 1 126 0
 282 00e8 8260     		str	r2, [r0, #8]
 283              		.loc 1 83 0
 284 00ea 0020     		movs	r0, #0
 285              	.LVL34:
ARM GAS  /tmp/ccnKDy42.s 			page 6


 286              		.loc 1 185 0
 287 00ec 40B2     		sxtb	r0, r0
 288 00ee 5DF8044B 		ldr	r4, [sp], #4
 289              		.cfi_remember_state
 290              		.cfi_restore 4
 291              		.cfi_def_cfa_offset 0
 292 00f2 7047     		bx	lr
 293              	.LVL35:
 294              	.L15:
 295              		.cfi_restore_state
 296              		.loc 1 180 0
 297 00f4 FF20     		movs	r0, #255
 298              	.LVL36:
 299              		.loc 1 185 0
 300 00f6 40B2     		sxtb	r0, r0
 301 00f8 5DF8044B 		ldr	r4, [sp], #4
 302              		.cfi_restore 4
 303              		.cfi_def_cfa_offset 0
 304 00fc 7047     		bx	lr
 305              	.L22:
 306 00fe 00BF     		.align	2
 307              	.L21:
 308 0100 00000000 		.word	twiddleCoef_4096_q15
 309 0104 00000000 		.word	armBitRevTable
 310 0108 3E000000 		.word	armBitRevTable+62
 311 010c 7E000000 		.word	armBitRevTable+126
 312 0110 02000000 		.word	armBitRevTable+2
 313 0114 FE010000 		.word	armBitRevTable+510
 314 0118 0E000000 		.word	armBitRevTable+14
 315 011c FE000000 		.word	armBitRevTable+254
 316 0120 1E000000 		.word	armBitRevTable+30
 317 0124 06000000 		.word	armBitRevTable+6
 318              		.cfi_endproc
 319              	.LFE135:
 320              		.size	arm_cfft_radix2_init_q15, .-arm_cfft_radix2_init_q15
 321              	.Letext0:
 322              		.file 2 "/home/sbcu/Dropbox/pcb-layouts/axo-on-discovery-board/axoloti/platform_linux/arm-none-eab
 323              		.file 3 "/home/sbcu/Dropbox/pcb-layouts/axo-on-discovery-board/axoloti/platform_linux/arm-none-eab
 324              		.file 4 "/home/sbcu/Dropbox/pcb-layouts/axo-on-discovery-board/axoloti/platform_linux/../CMSIS//DS
 325              		.file 5 "/home/sbcu/Dropbox/pcb-layouts/axo-on-discovery-board/axoloti/platform_linux/../CMSIS//DS
 326              		.section	.debug_info,"",%progbits
 327              	.Ldebug_info0:
 328 0000 3B020000 		.4byte	0x23b
 329 0004 0400     		.2byte	0x4
 330 0006 00000000 		.4byte	.Ldebug_abbrev0
 331 000a 04       		.byte	0x4
 332 000b 01       		.uleb128 0x1
 333 000c 00000000 		.4byte	.LASF39
 334 0010 01       		.byte	0x1
 335 0011 1C010000 		.4byte	.LASF40
 336 0015 00000000 		.4byte	.Ltext0
 337 0019 28010000 		.4byte	.Letext0-.Ltext0
 338 001d 00000000 		.4byte	.Ldebug_line0
 339 0021 02       		.uleb128 0x2
 340 0022 01       		.byte	0x1
 341 0023 06       		.byte	0x6
 342 0024 9A030000 		.4byte	.LASF0
ARM GAS  /tmp/ccnKDy42.s 			page 7


 343 0028 03       		.uleb128 0x3
 344 0029 F9000000 		.4byte	.LASF2
 345 002d 02       		.byte	0x2
 346 002e 1D       		.byte	0x1d
 347 002f 33000000 		.4byte	0x33
 348 0033 02       		.uleb128 0x2
 349 0034 01       		.byte	0x1
 350 0035 08       		.byte	0x8
 351 0036 0D020000 		.4byte	.LASF1
 352 003a 03       		.uleb128 0x3
 353 003b 12010000 		.4byte	.LASF3
 354 003f 02       		.byte	0x2
 355 0040 29       		.byte	0x29
 356 0041 45000000 		.4byte	0x45
 357 0045 02       		.uleb128 0x2
 358 0046 02       		.byte	0x2
 359 0047 05       		.byte	0x5
 360 0048 7C020000 		.4byte	.LASF4
 361 004c 03       		.uleb128 0x3
 362 004d 6A020000 		.4byte	.LASF5
 363 0051 02       		.byte	0x2
 364 0052 2B       		.byte	0x2b
 365 0053 57000000 		.4byte	0x57
 366 0057 02       		.uleb128 0x2
 367 0058 02       		.byte	0x2
 368 0059 07       		.byte	0x7
 369 005a 3A020000 		.4byte	.LASF6
 370 005e 02       		.uleb128 0x2
 371 005f 04       		.byte	0x4
 372 0060 05       		.byte	0x5
 373 0061 74030000 		.4byte	.LASF7
 374 0065 02       		.uleb128 0x2
 375 0066 04       		.byte	0x4
 376 0067 07       		.byte	0x7
 377 0068 28020000 		.4byte	.LASF8
 378 006c 02       		.uleb128 0x2
 379 006d 08       		.byte	0x8
 380 006e 05       		.byte	0x5
 381 006f 25030000 		.4byte	.LASF9
 382 0073 02       		.uleb128 0x2
 383 0074 08       		.byte	0x8
 384 0075 07       		.byte	0x7
 385 0076 B4020000 		.4byte	.LASF10
 386 007a 04       		.uleb128 0x4
 387 007b 04       		.byte	0x4
 388 007c 05       		.byte	0x5
 389 007d 696E7400 		.ascii	"int\000"
 390 0081 02       		.uleb128 0x2
 391 0082 04       		.byte	0x4
 392 0083 07       		.byte	0x7
 393 0084 A7020000 		.4byte	.LASF11
 394 0088 03       		.uleb128 0x3
 395 0089 CB020000 		.4byte	.LASF12
 396 008d 03       		.byte	0x3
 397 008e 14       		.byte	0x14
 398 008f 28000000 		.4byte	0x28
 399 0093 03       		.uleb128 0x3
ARM GAS  /tmp/ccnKDy42.s 			page 8


 400 0094 F2020000 		.4byte	.LASF13
 401 0098 03       		.byte	0x3
 402 0099 19       		.byte	0x19
 403 009a 3A000000 		.4byte	0x3a
 404 009e 03       		.uleb128 0x3
 405 009f 6B030000 		.4byte	.LASF14
 406 00a3 03       		.byte	0x3
 407 00a4 1A       		.byte	0x1a
 408 00a5 4C000000 		.4byte	0x4c
 409 00a9 02       		.uleb128 0x2
 410 00aa 04       		.byte	0x4
 411 00ab 07       		.byte	0x7
 412 00ac 1C030000 		.4byte	.LASF15
 413 00b0 02       		.uleb128 0x2
 414 00b1 01       		.byte	0x1
 415 00b2 08       		.byte	0x8
 416 00b3 3C030000 		.4byte	.LASF16
 417 00b7 02       		.uleb128 0x2
 418 00b8 08       		.byte	0x8
 419 00b9 04       		.byte	0x4
 420 00ba 75020000 		.4byte	.LASF17
 421 00be 02       		.uleb128 0x2
 422 00bf 04       		.byte	0x4
 423 00c0 04       		.byte	0x4
 424 00c1 07020000 		.4byte	.LASF18
 425 00c5 02       		.uleb128 0x2
 426 00c6 08       		.byte	0x8
 427 00c7 04       		.byte	0x4
 428 00c8 10030000 		.4byte	.LASF19
 429 00cc 05       		.uleb128 0x5
 430 00cd 01       		.byte	0x1
 431 00ce 04       		.byte	0x4
 432 00cf 8901     		.2byte	0x189
 433 00d1 00010000 		.4byte	0x100
 434 00d5 06       		.uleb128 0x6
 435 00d6 41030000 		.4byte	.LASF20
 436 00da 00       		.sleb128 0
 437 00db 06       		.uleb128 0x6
 438 00dc 86020000 		.4byte	.LASF21
 439 00e0 7F       		.sleb128 -1
 440 00e1 06       		.uleb128 0x6
 441 00e2 FA020000 		.4byte	.LASF22
 442 00e6 7E       		.sleb128 -2
 443 00e7 06       		.uleb128 0x6
 444 00e8 DD010000 		.4byte	.LASF23
 445 00ec 7D       		.sleb128 -3
 446 00ed 06       		.uleb128 0x6
 447 00ee E2020000 		.4byte	.LASF24
 448 00f2 7C       		.sleb128 -4
 449 00f3 06       		.uleb128 0x6
 450 00f4 B1030000 		.4byte	.LASF25
 451 00f8 7B       		.sleb128 -5
 452 00f9 06       		.uleb128 0x6
 453 00fa 54020000 		.4byte	.LASF26
 454 00fe 7A       		.sleb128 -6
 455 00ff 00       		.byte	0
 456 0100 07       		.uleb128 0x7
ARM GAS  /tmp/ccnKDy42.s 			page 9


 457 0101 A6030000 		.4byte	.LASF27
 458 0105 04       		.byte	0x4
 459 0106 9101     		.2byte	0x191
 460 0108 CC000000 		.4byte	0xcc
 461 010c 07       		.uleb128 0x7
 462 010d 01020000 		.4byte	.LASF28
 463 0111 04       		.byte	0x4
 464 0112 9B01     		.2byte	0x19b
 465 0114 93000000 		.4byte	0x93
 466 0118 08       		.uleb128 0x8
 467 0119 04       		.byte	0x4
 468 011a 0C010000 		.4byte	0x10c
 469 011e 09       		.uleb128 0x9
 470 011f 10       		.byte	0x10
 471 0120 04       		.byte	0x4
 472 0121 E207     		.2byte	0x7e2
 473 0123 83010000 		.4byte	0x183
 474 0127 0A       		.uleb128 0xa
 475 0128 4D020000 		.4byte	.LASF29
 476 012c 04       		.byte	0x4
 477 012d E407     		.2byte	0x7e4
 478 012f 9E000000 		.4byte	0x9e
 479 0133 00       		.byte	0
 480 0134 0A       		.uleb128 0xa
 481 0135 9E020000 		.4byte	.LASF30
 482 0139 04       		.byte	0x4
 483 013a E507     		.2byte	0x7e5
 484 013c 88000000 		.4byte	0x88
 485 0140 02       		.byte	0x2
 486 0141 0A       		.uleb128 0xa
 487 0142 D3020000 		.4byte	.LASF31
 488 0146 04       		.byte	0x4
 489 0147 E607     		.2byte	0x7e6
 490 0149 88000000 		.4byte	0x88
 491 014d 03       		.byte	0x3
 492 014e 0A       		.uleb128 0xa
 493 014f 33030000 		.4byte	.LASF32
 494 0153 04       		.byte	0x4
 495 0154 E707     		.2byte	0x7e7
 496 0156 18010000 		.4byte	0x118
 497 015a 04       		.byte	0x4
 498 015b 0A       		.uleb128 0xa
 499 015c F4010000 		.4byte	.LASF33
 500 0160 04       		.byte	0x4
 501 0161 E807     		.2byte	0x7e8
 502 0163 83010000 		.4byte	0x183
 503 0167 08       		.byte	0x8
 504 0168 0A       		.uleb128 0xa
 505 0169 C5010000 		.4byte	.LASF34
 506 016d 04       		.byte	0x4
 507 016e E907     		.2byte	0x7e9
 508 0170 9E000000 		.4byte	0x9e
 509 0174 0C       		.byte	0xc
 510 0175 0A       		.uleb128 0xa
 511 0176 1B020000 		.4byte	.LASF35
 512 017a 04       		.byte	0x4
 513 017b EA07     		.2byte	0x7ea
ARM GAS  /tmp/ccnKDy42.s 			page 10


 514 017d 9E000000 		.4byte	0x9e
 515 0181 0E       		.byte	0xe
 516 0182 00       		.byte	0
 517 0183 08       		.uleb128 0x8
 518 0184 04       		.byte	0x4
 519 0185 9E000000 		.4byte	0x9e
 520 0189 07       		.uleb128 0x7
 521 018a 7D030000 		.4byte	.LASF36
 522 018e 04       		.byte	0x4
 523 018f EB07     		.2byte	0x7eb
 524 0191 1E010000 		.4byte	0x11e
 525 0195 0B       		.uleb128 0xb
 526 0196 52030000 		.4byte	.LASF41
 527 019a 01       		.byte	0x1
 528 019b 4C       		.byte	0x4c
 529 019c 00010000 		.4byte	0x100
 530 01a0 00000000 		.4byte	.LFB135
 531 01a4 28010000 		.4byte	.LFE135-.LFB135
 532 01a8 01       		.uleb128 0x1
 533 01a9 9C       		.byte	0x9c
 534 01aa F6010000 		.4byte	0x1f6
 535 01ae 0C       		.uleb128 0xc
 536 01af 5300     		.ascii	"S\000"
 537 01b1 01       		.byte	0x1
 538 01b2 4D       		.byte	0x4d
 539 01b3 F6010000 		.4byte	0x1f6
 540 01b7 00000000 		.4byte	.LLST0
 541 01bb 0D       		.uleb128 0xd
 542 01bc 4D020000 		.4byte	.LASF29
 543 01c0 01       		.byte	0x1
 544 01c1 4E       		.byte	0x4e
 545 01c2 9E000000 		.4byte	0x9e
 546 01c6 01       		.uleb128 0x1
 547 01c7 51       		.byte	0x51
 548 01c8 0E       		.uleb128 0xe
 549 01c9 9E020000 		.4byte	.LASF30
 550 01cd 01       		.byte	0x1
 551 01ce 4F       		.byte	0x4f
 552 01cf 88000000 		.4byte	0x88
 553 01d3 02010000 		.4byte	.LLST1
 554 01d7 0E       		.uleb128 0xe
 555 01d8 D3020000 		.4byte	.LASF31
 556 01dc 01       		.byte	0x1
 557 01dd 50       		.byte	0x50
 558 01de 88000000 		.4byte	0x88
 559 01e2 45020000 		.4byte	.LLST2
 560 01e6 0F       		.uleb128 0xf
 561 01e7 D6010000 		.4byte	.LASF42
 562 01eb 01       		.byte	0x1
 563 01ec 53       		.byte	0x53
 564 01ed 00010000 		.4byte	0x100
 565 01f1 AE030000 		.4byte	.LLST3
 566 01f5 00       		.byte	0
 567 01f6 08       		.uleb128 0x8
 568 01f7 04       		.byte	0x4
 569 01f8 89010000 		.4byte	0x189
 570 01fc 10       		.uleb128 0x10
ARM GAS  /tmp/ccnKDy42.s 			page 11


 571 01fd 9E000000 		.4byte	0x9e
 572 0201 0D020000 		.4byte	0x20d
 573 0205 11       		.uleb128 0x11
 574 0206 A9000000 		.4byte	0xa9
 575 020a FF03     		.2byte	0x3ff
 576 020c 00       		.byte	0
 577 020d 12       		.uleb128 0x12
 578 020e 03010000 		.4byte	.LASF37
 579 0212 05       		.byte	0x5
 580 0213 2E       		.byte	0x2e
 581 0214 18020000 		.4byte	0x218
 582 0218 13       		.uleb128 0x13
 583 0219 FC010000 		.4byte	0x1fc
 584 021d 10       		.uleb128 0x10
 585 021e 0C010000 		.4byte	0x10c
 586 0222 2E020000 		.4byte	0x22e
 587 0226 11       		.uleb128 0x11
 588 0227 A9000000 		.4byte	0xa9
 589 022b FF17     		.2byte	0x17ff
 590 022d 00       		.byte	0
 591 022e 12       		.uleb128 0x12
 592 022f B0010000 		.4byte	.LASF38
 593 0233 05       		.byte	0x5
 594 0234 4C       		.byte	0x4c
 595 0235 39020000 		.4byte	0x239
 596 0239 13       		.uleb128 0x13
 597 023a 1D020000 		.4byte	0x21d
 598 023e 00       		.byte	0
 599              		.section	.debug_abbrev,"",%progbits
 600              	.Ldebug_abbrev0:
 601 0000 01       		.uleb128 0x1
 602 0001 11       		.uleb128 0x11
 603 0002 01       		.byte	0x1
 604 0003 25       		.uleb128 0x25
 605 0004 0E       		.uleb128 0xe
 606 0005 13       		.uleb128 0x13
 607 0006 0B       		.uleb128 0xb
 608 0007 03       		.uleb128 0x3
 609 0008 0E       		.uleb128 0xe
 610 0009 11       		.uleb128 0x11
 611 000a 01       		.uleb128 0x1
 612 000b 12       		.uleb128 0x12
 613 000c 06       		.uleb128 0x6
 614 000d 10       		.uleb128 0x10
 615 000e 17       		.uleb128 0x17
 616 000f 00       		.byte	0
 617 0010 00       		.byte	0
 618 0011 02       		.uleb128 0x2
 619 0012 24       		.uleb128 0x24
 620 0013 00       		.byte	0
 621 0014 0B       		.uleb128 0xb
 622 0015 0B       		.uleb128 0xb
 623 0016 3E       		.uleb128 0x3e
 624 0017 0B       		.uleb128 0xb
 625 0018 03       		.uleb128 0x3
 626 0019 0E       		.uleb128 0xe
 627 001a 00       		.byte	0
ARM GAS  /tmp/ccnKDy42.s 			page 12


 628 001b 00       		.byte	0
 629 001c 03       		.uleb128 0x3
 630 001d 16       		.uleb128 0x16
 631 001e 00       		.byte	0
 632 001f 03       		.uleb128 0x3
 633 0020 0E       		.uleb128 0xe
 634 0021 3A       		.uleb128 0x3a
 635 0022 0B       		.uleb128 0xb
 636 0023 3B       		.uleb128 0x3b
 637 0024 0B       		.uleb128 0xb
 638 0025 49       		.uleb128 0x49
 639 0026 13       		.uleb128 0x13
 640 0027 00       		.byte	0
 641 0028 00       		.byte	0
 642 0029 04       		.uleb128 0x4
 643 002a 24       		.uleb128 0x24
 644 002b 00       		.byte	0
 645 002c 0B       		.uleb128 0xb
 646 002d 0B       		.uleb128 0xb
 647 002e 3E       		.uleb128 0x3e
 648 002f 0B       		.uleb128 0xb
 649 0030 03       		.uleb128 0x3
 650 0031 08       		.uleb128 0x8
 651 0032 00       		.byte	0
 652 0033 00       		.byte	0
 653 0034 05       		.uleb128 0x5
 654 0035 04       		.uleb128 0x4
 655 0036 01       		.byte	0x1
 656 0037 0B       		.uleb128 0xb
 657 0038 0B       		.uleb128 0xb
 658 0039 3A       		.uleb128 0x3a
 659 003a 0B       		.uleb128 0xb
 660 003b 3B       		.uleb128 0x3b
 661 003c 05       		.uleb128 0x5
 662 003d 01       		.uleb128 0x1
 663 003e 13       		.uleb128 0x13
 664 003f 00       		.byte	0
 665 0040 00       		.byte	0
 666 0041 06       		.uleb128 0x6
 667 0042 28       		.uleb128 0x28
 668 0043 00       		.byte	0
 669 0044 03       		.uleb128 0x3
 670 0045 0E       		.uleb128 0xe
 671 0046 1C       		.uleb128 0x1c
 672 0047 0D       		.uleb128 0xd
 673 0048 00       		.byte	0
 674 0049 00       		.byte	0
 675 004a 07       		.uleb128 0x7
 676 004b 16       		.uleb128 0x16
 677 004c 00       		.byte	0
 678 004d 03       		.uleb128 0x3
 679 004e 0E       		.uleb128 0xe
 680 004f 3A       		.uleb128 0x3a
 681 0050 0B       		.uleb128 0xb
 682 0051 3B       		.uleb128 0x3b
 683 0052 05       		.uleb128 0x5
 684 0053 49       		.uleb128 0x49
ARM GAS  /tmp/ccnKDy42.s 			page 13


 685 0054 13       		.uleb128 0x13
 686 0055 00       		.byte	0
 687 0056 00       		.byte	0
 688 0057 08       		.uleb128 0x8
 689 0058 0F       		.uleb128 0xf
 690 0059 00       		.byte	0
 691 005a 0B       		.uleb128 0xb
 692 005b 0B       		.uleb128 0xb
 693 005c 49       		.uleb128 0x49
 694 005d 13       		.uleb128 0x13
 695 005e 00       		.byte	0
 696 005f 00       		.byte	0
 697 0060 09       		.uleb128 0x9
 698 0061 13       		.uleb128 0x13
 699 0062 01       		.byte	0x1
 700 0063 0B       		.uleb128 0xb
 701 0064 0B       		.uleb128 0xb
 702 0065 3A       		.uleb128 0x3a
 703 0066 0B       		.uleb128 0xb
 704 0067 3B       		.uleb128 0x3b
 705 0068 05       		.uleb128 0x5
 706 0069 01       		.uleb128 0x1
 707 006a 13       		.uleb128 0x13
 708 006b 00       		.byte	0
 709 006c 00       		.byte	0
 710 006d 0A       		.uleb128 0xa
 711 006e 0D       		.uleb128 0xd
 712 006f 00       		.byte	0
 713 0070 03       		.uleb128 0x3
 714 0071 0E       		.uleb128 0xe
 715 0072 3A       		.uleb128 0x3a
 716 0073 0B       		.uleb128 0xb
 717 0074 3B       		.uleb128 0x3b
 718 0075 05       		.uleb128 0x5
 719 0076 49       		.uleb128 0x49
 720 0077 13       		.uleb128 0x13
 721 0078 38       		.uleb128 0x38
 722 0079 0B       		.uleb128 0xb
 723 007a 00       		.byte	0
 724 007b 00       		.byte	0
 725 007c 0B       		.uleb128 0xb
 726 007d 2E       		.uleb128 0x2e
 727 007e 01       		.byte	0x1
 728 007f 3F       		.uleb128 0x3f
 729 0080 19       		.uleb128 0x19
 730 0081 03       		.uleb128 0x3
 731 0082 0E       		.uleb128 0xe
 732 0083 3A       		.uleb128 0x3a
 733 0084 0B       		.uleb128 0xb
 734 0085 3B       		.uleb128 0x3b
 735 0086 0B       		.uleb128 0xb
 736 0087 27       		.uleb128 0x27
 737 0088 19       		.uleb128 0x19
 738 0089 49       		.uleb128 0x49
 739 008a 13       		.uleb128 0x13
 740 008b 11       		.uleb128 0x11
 741 008c 01       		.uleb128 0x1
ARM GAS  /tmp/ccnKDy42.s 			page 14


 742 008d 12       		.uleb128 0x12
 743 008e 06       		.uleb128 0x6
 744 008f 40       		.uleb128 0x40
 745 0090 18       		.uleb128 0x18
 746 0091 9742     		.uleb128 0x2117
 747 0093 19       		.uleb128 0x19
 748 0094 01       		.uleb128 0x1
 749 0095 13       		.uleb128 0x13
 750 0096 00       		.byte	0
 751 0097 00       		.byte	0
 752 0098 0C       		.uleb128 0xc
 753 0099 05       		.uleb128 0x5
 754 009a 00       		.byte	0
 755 009b 03       		.uleb128 0x3
 756 009c 08       		.uleb128 0x8
 757 009d 3A       		.uleb128 0x3a
 758 009e 0B       		.uleb128 0xb
 759 009f 3B       		.uleb128 0x3b
 760 00a0 0B       		.uleb128 0xb
 761 00a1 49       		.uleb128 0x49
 762 00a2 13       		.uleb128 0x13
 763 00a3 02       		.uleb128 0x2
 764 00a4 17       		.uleb128 0x17
 765 00a5 00       		.byte	0
 766 00a6 00       		.byte	0
 767 00a7 0D       		.uleb128 0xd
 768 00a8 05       		.uleb128 0x5
 769 00a9 00       		.byte	0
 770 00aa 03       		.uleb128 0x3
 771 00ab 0E       		.uleb128 0xe
 772 00ac 3A       		.uleb128 0x3a
 773 00ad 0B       		.uleb128 0xb
 774 00ae 3B       		.uleb128 0x3b
 775 00af 0B       		.uleb128 0xb
 776 00b0 49       		.uleb128 0x49
 777 00b1 13       		.uleb128 0x13
 778 00b2 02       		.uleb128 0x2
 779 00b3 18       		.uleb128 0x18
 780 00b4 00       		.byte	0
 781 00b5 00       		.byte	0
 782 00b6 0E       		.uleb128 0xe
 783 00b7 05       		.uleb128 0x5
 784 00b8 00       		.byte	0
 785 00b9 03       		.uleb128 0x3
 786 00ba 0E       		.uleb128 0xe
 787 00bb 3A       		.uleb128 0x3a
 788 00bc 0B       		.uleb128 0xb
 789 00bd 3B       		.uleb128 0x3b
 790 00be 0B       		.uleb128 0xb
 791 00bf 49       		.uleb128 0x49
 792 00c0 13       		.uleb128 0x13
 793 00c1 02       		.uleb128 0x2
 794 00c2 17       		.uleb128 0x17
 795 00c3 00       		.byte	0
 796 00c4 00       		.byte	0
 797 00c5 0F       		.uleb128 0xf
 798 00c6 34       		.uleb128 0x34
ARM GAS  /tmp/ccnKDy42.s 			page 15


 799 00c7 00       		.byte	0
 800 00c8 03       		.uleb128 0x3
 801 00c9 0E       		.uleb128 0xe
 802 00ca 3A       		.uleb128 0x3a
 803 00cb 0B       		.uleb128 0xb
 804 00cc 3B       		.uleb128 0x3b
 805 00cd 0B       		.uleb128 0xb
 806 00ce 49       		.uleb128 0x49
 807 00cf 13       		.uleb128 0x13
 808 00d0 02       		.uleb128 0x2
 809 00d1 17       		.uleb128 0x17
 810 00d2 00       		.byte	0
 811 00d3 00       		.byte	0
 812 00d4 10       		.uleb128 0x10
 813 00d5 01       		.uleb128 0x1
 814 00d6 01       		.byte	0x1
 815 00d7 49       		.uleb128 0x49
 816 00d8 13       		.uleb128 0x13
 817 00d9 01       		.uleb128 0x1
 818 00da 13       		.uleb128 0x13
 819 00db 00       		.byte	0
 820 00dc 00       		.byte	0
 821 00dd 11       		.uleb128 0x11
 822 00de 21       		.uleb128 0x21
 823 00df 00       		.byte	0
 824 00e0 49       		.uleb128 0x49
 825 00e1 13       		.uleb128 0x13
 826 00e2 2F       		.uleb128 0x2f
 827 00e3 05       		.uleb128 0x5
 828 00e4 00       		.byte	0
 829 00e5 00       		.byte	0
 830 00e6 12       		.uleb128 0x12
 831 00e7 34       		.uleb128 0x34
 832 00e8 00       		.byte	0
 833 00e9 03       		.uleb128 0x3
 834 00ea 0E       		.uleb128 0xe
 835 00eb 3A       		.uleb128 0x3a
 836 00ec 0B       		.uleb128 0xb
 837 00ed 3B       		.uleb128 0x3b
 838 00ee 0B       		.uleb128 0xb
 839 00ef 49       		.uleb128 0x49
 840 00f0 13       		.uleb128 0x13
 841 00f1 3F       		.uleb128 0x3f
 842 00f2 19       		.uleb128 0x19
 843 00f3 3C       		.uleb128 0x3c
 844 00f4 19       		.uleb128 0x19
 845 00f5 00       		.byte	0
 846 00f6 00       		.byte	0
 847 00f7 13       		.uleb128 0x13
 848 00f8 26       		.uleb128 0x26
 849 00f9 00       		.byte	0
 850 00fa 49       		.uleb128 0x49
 851 00fb 13       		.uleb128 0x13
 852 00fc 00       		.byte	0
 853 00fd 00       		.byte	0
 854 00fe 00       		.byte	0
 855              		.section	.debug_loc,"",%progbits
ARM GAS  /tmp/ccnKDy42.s 			page 16


 856              	.Ldebug_loc0:
 857              	.LLST0:
 858 0000 00000000 		.4byte	.LVL0-.Ltext0
 859 0004 34000000 		.4byte	.LVL3-.Ltext0
 860 0008 0100     		.2byte	0x1
 861 000a 50       		.byte	0x50
 862 000b 34000000 		.4byte	.LVL3-.Ltext0
 863 000f 3C000000 		.4byte	.LVL4-.Ltext0
 864 0013 0400     		.2byte	0x4
 865 0015 F3       		.byte	0xf3
 866 0016 01       		.uleb128 0x1
 867 0017 50       		.byte	0x50
 868 0018 9F       		.byte	0x9f
 869 0019 3C000000 		.4byte	.LVL4-.Ltext0
 870 001d 56000000 		.4byte	.LVL7-.Ltext0
 871 0021 0100     		.2byte	0x1
 872 0023 50       		.byte	0x50
 873 0024 56000000 		.4byte	.LVL7-.Ltext0
 874 0028 5E000000 		.4byte	.LVL8-.Ltext0
 875 002c 0400     		.2byte	0x4
 876 002e F3       		.byte	0xf3
 877 002f 01       		.uleb128 0x1
 878 0030 50       		.byte	0x50
 879 0031 9F       		.byte	0x9f
 880 0032 5E000000 		.4byte	.LVL8-.Ltext0
 881 0036 68000000 		.4byte	.LVL10-.Ltext0
 882 003a 0100     		.2byte	0x1
 883 003c 50       		.byte	0x50
 884 003d 68000000 		.4byte	.LVL10-.Ltext0
 885 0041 70000000 		.4byte	.LVL11-.Ltext0
 886 0045 0400     		.2byte	0x4
 887 0047 F3       		.byte	0xf3
 888 0048 01       		.uleb128 0x1
 889 0049 50       		.byte	0x50
 890 004a 9F       		.byte	0x9f
 891 004b 70000000 		.4byte	.LVL11-.Ltext0
 892 004f 7C000000 		.4byte	.LVL14-.Ltext0
 893 0053 0100     		.2byte	0x1
 894 0055 50       		.byte	0x50
 895 0056 7C000000 		.4byte	.LVL14-.Ltext0
 896 005a 84000000 		.4byte	.LVL15-.Ltext0
 897 005e 0400     		.2byte	0x4
 898 0060 F3       		.byte	0xf3
 899 0061 01       		.uleb128 0x1
 900 0062 50       		.byte	0x50
 901 0063 9F       		.byte	0x9f
 902 0064 84000000 		.4byte	.LVL15-.Ltext0
 903 0068 96000000 		.4byte	.LVL18-.Ltext0
 904 006c 0100     		.2byte	0x1
 905 006e 50       		.byte	0x50
 906 006f 96000000 		.4byte	.LVL18-.Ltext0
 907 0073 9E000000 		.4byte	.LVL19-.Ltext0
 908 0077 0400     		.2byte	0x4
 909 0079 F3       		.byte	0xf3
 910 007a 01       		.uleb128 0x1
 911 007b 50       		.byte	0x50
 912 007c 9F       		.byte	0x9f
ARM GAS  /tmp/ccnKDy42.s 			page 17


 913 007d 9E000000 		.4byte	.LVL19-.Ltext0
 914 0081 B0000000 		.4byte	.LVL22-.Ltext0
 915 0085 0100     		.2byte	0x1
 916 0087 50       		.byte	0x50
 917 0088 B0000000 		.4byte	.LVL22-.Ltext0
 918 008c B8000000 		.4byte	.LVL23-.Ltext0
 919 0090 0400     		.2byte	0x4
 920 0092 F3       		.byte	0xf3
 921 0093 01       		.uleb128 0x1
 922 0094 50       		.byte	0x50
 923 0095 9F       		.byte	0x9f
 924 0096 B8000000 		.4byte	.LVL23-.Ltext0
 925 009a C4000000 		.4byte	.LVL26-.Ltext0
 926 009e 0100     		.2byte	0x1
 927 00a0 50       		.byte	0x50
 928 00a1 C4000000 		.4byte	.LVL26-.Ltext0
 929 00a5 CC000000 		.4byte	.LVL27-.Ltext0
 930 00a9 0400     		.2byte	0x4
 931 00ab F3       		.byte	0xf3
 932 00ac 01       		.uleb128 0x1
 933 00ad 50       		.byte	0x50
 934 00ae 9F       		.byte	0x9f
 935 00af CC000000 		.4byte	.LVL27-.Ltext0
 936 00b3 D8000000 		.4byte	.LVL30-.Ltext0
 937 00b7 0100     		.2byte	0x1
 938 00b9 50       		.byte	0x50
 939 00ba D8000000 		.4byte	.LVL30-.Ltext0
 940 00be E0000000 		.4byte	.LVL31-.Ltext0
 941 00c2 0400     		.2byte	0x4
 942 00c4 F3       		.byte	0xf3
 943 00c5 01       		.uleb128 0x1
 944 00c6 50       		.byte	0x50
 945 00c7 9F       		.byte	0x9f
 946 00c8 E0000000 		.4byte	.LVL31-.Ltext0
 947 00cc EC000000 		.4byte	.LVL34-.Ltext0
 948 00d0 0100     		.2byte	0x1
 949 00d2 50       		.byte	0x50
 950 00d3 EC000000 		.4byte	.LVL34-.Ltext0
 951 00d7 F4000000 		.4byte	.LVL35-.Ltext0
 952 00db 0400     		.2byte	0x4
 953 00dd F3       		.byte	0xf3
 954 00de 01       		.uleb128 0x1
 955 00df 50       		.byte	0x50
 956 00e0 9F       		.byte	0x9f
 957 00e1 F4000000 		.4byte	.LVL35-.Ltext0
 958 00e5 F6000000 		.4byte	.LVL36-.Ltext0
 959 00e9 0100     		.2byte	0x1
 960 00eb 50       		.byte	0x50
 961 00ec F6000000 		.4byte	.LVL36-.Ltext0
 962 00f0 28010000 		.4byte	.LFE135-.Ltext0
 963 00f4 0400     		.2byte	0x4
 964 00f6 F3       		.byte	0xf3
 965 00f7 01       		.uleb128 0x1
 966 00f8 50       		.byte	0x50
 967 00f9 9F       		.byte	0x9f
 968 00fa 00000000 		.4byte	0
 969 00fe 00000000 		.4byte	0
ARM GAS  /tmp/ccnKDy42.s 			page 18


 970              	.LLST1:
 971 0102 00000000 		.4byte	.LVL0-.Ltext0
 972 0106 2C000000 		.4byte	.LVL2-.Ltext0
 973 010a 0100     		.2byte	0x1
 974 010c 52       		.byte	0x52
 975 010d 2C000000 		.4byte	.LVL2-.Ltext0
 976 0111 34000000 		.4byte	.LVL3-.Ltext0
 977 0115 0200     		.2byte	0x2
 978 0117 70       		.byte	0x70
 979 0118 02       		.sleb128 2
 980 0119 34000000 		.4byte	.LVL3-.Ltext0
 981 011d 3C000000 		.4byte	.LVL4-.Ltext0
 982 0121 0500     		.2byte	0x5
 983 0123 F3       		.byte	0xf3
 984 0124 01       		.uleb128 0x1
 985 0125 50       		.byte	0x50
 986 0126 23       		.byte	0x23
 987 0127 02       		.uleb128 0x2
 988 0128 3C000000 		.4byte	.LVL4-.Ltext0
 989 012c 4E000000 		.4byte	.LVL6-.Ltext0
 990 0130 0100     		.2byte	0x1
 991 0132 52       		.byte	0x52
 992 0133 4E000000 		.4byte	.LVL6-.Ltext0
 993 0137 56000000 		.4byte	.LVL7-.Ltext0
 994 013b 0200     		.2byte	0x2
 995 013d 70       		.byte	0x70
 996 013e 02       		.sleb128 2
 997 013f 56000000 		.4byte	.LVL7-.Ltext0
 998 0143 5E000000 		.4byte	.LVL8-.Ltext0
 999 0147 0500     		.2byte	0x5
 1000 0149 F3       		.byte	0xf3
 1001 014a 01       		.uleb128 0x1
 1002 014b 50       		.byte	0x50
 1003 014c 23       		.byte	0x23
 1004 014d 02       		.uleb128 0x2
 1005 014e 5E000000 		.4byte	.LVL8-.Ltext0
 1006 0152 74000000 		.4byte	.LVL13-.Ltext0
 1007 0156 0100     		.2byte	0x1
 1008 0158 52       		.byte	0x52
 1009 0159 74000000 		.4byte	.LVL13-.Ltext0
 1010 015d 7C000000 		.4byte	.LVL14-.Ltext0
 1011 0161 0200     		.2byte	0x2
 1012 0163 70       		.byte	0x70
 1013 0164 02       		.sleb128 2
 1014 0165 7C000000 		.4byte	.LVL14-.Ltext0
 1015 0169 84000000 		.4byte	.LVL15-.Ltext0
 1016 016d 0500     		.2byte	0x5
 1017 016f F3       		.byte	0xf3
 1018 0170 01       		.uleb128 0x1
 1019 0171 50       		.byte	0x50
 1020 0172 23       		.byte	0x23
 1021 0173 02       		.uleb128 0x2
 1022 0174 84000000 		.4byte	.LVL15-.Ltext0
 1023 0178 8E000000 		.4byte	.LVL17-.Ltext0
 1024 017c 0100     		.2byte	0x1
 1025 017e 52       		.byte	0x52
 1026 017f 8E000000 		.4byte	.LVL17-.Ltext0
ARM GAS  /tmp/ccnKDy42.s 			page 19


 1027 0183 96000000 		.4byte	.LVL18-.Ltext0
 1028 0187 0200     		.2byte	0x2
 1029 0189 70       		.byte	0x70
 1030 018a 02       		.sleb128 2
 1031 018b 96000000 		.4byte	.LVL18-.Ltext0
 1032 018f 9E000000 		.4byte	.LVL19-.Ltext0
 1033 0193 0500     		.2byte	0x5
 1034 0195 F3       		.byte	0xf3
 1035 0196 01       		.uleb128 0x1
 1036 0197 50       		.byte	0x50
 1037 0198 23       		.byte	0x23
 1038 0199 02       		.uleb128 0x2
 1039 019a 9E000000 		.4byte	.LVL19-.Ltext0
 1040 019e A8000000 		.4byte	.LVL21-.Ltext0
 1041 01a2 0100     		.2byte	0x1
 1042 01a4 52       		.byte	0x52
 1043 01a5 A8000000 		.4byte	.LVL21-.Ltext0
 1044 01a9 B0000000 		.4byte	.LVL22-.Ltext0
 1045 01ad 0200     		.2byte	0x2
 1046 01af 70       		.byte	0x70
 1047 01b0 02       		.sleb128 2
 1048 01b1 B0000000 		.4byte	.LVL22-.Ltext0
 1049 01b5 B8000000 		.4byte	.LVL23-.Ltext0
 1050 01b9 0500     		.2byte	0x5
 1051 01bb F3       		.byte	0xf3
 1052 01bc 01       		.uleb128 0x1
 1053 01bd 50       		.byte	0x50
 1054 01be 23       		.byte	0x23
 1055 01bf 02       		.uleb128 0x2
 1056 01c0 B8000000 		.4byte	.LVL23-.Ltext0
 1057 01c4 BC000000 		.4byte	.LVL25-.Ltext0
 1058 01c8 0100     		.2byte	0x1
 1059 01ca 52       		.byte	0x52
 1060 01cb BC000000 		.4byte	.LVL25-.Ltext0
 1061 01cf C4000000 		.4byte	.LVL26-.Ltext0
 1062 01d3 0200     		.2byte	0x2
 1063 01d5 70       		.byte	0x70
 1064 01d6 02       		.sleb128 2
 1065 01d7 C4000000 		.4byte	.LVL26-.Ltext0
 1066 01db CC000000 		.4byte	.LVL27-.Ltext0
 1067 01df 0500     		.2byte	0x5
 1068 01e1 F3       		.byte	0xf3
 1069 01e2 01       		.uleb128 0x1
 1070 01e3 50       		.byte	0x50
 1071 01e4 23       		.byte	0x23
 1072 01e5 02       		.uleb128 0x2
 1073 01e6 CC000000 		.4byte	.LVL27-.Ltext0
 1074 01ea D0000000 		.4byte	.LVL29-.Ltext0
 1075 01ee 0100     		.2byte	0x1
 1076 01f0 52       		.byte	0x52
 1077 01f1 D0000000 		.4byte	.LVL29-.Ltext0
 1078 01f5 D8000000 		.4byte	.LVL30-.Ltext0
 1079 01f9 0200     		.2byte	0x2
 1080 01fb 70       		.byte	0x70
 1081 01fc 02       		.sleb128 2
 1082 01fd D8000000 		.4byte	.LVL30-.Ltext0
 1083 0201 E0000000 		.4byte	.LVL31-.Ltext0
ARM GAS  /tmp/ccnKDy42.s 			page 20


 1084 0205 0500     		.2byte	0x5
 1085 0207 F3       		.byte	0xf3
 1086 0208 01       		.uleb128 0x1
 1087 0209 50       		.byte	0x50
 1088 020a 23       		.byte	0x23
 1089 020b 02       		.uleb128 0x2
 1090 020c E0000000 		.4byte	.LVL31-.Ltext0
 1091 0210 E4000000 		.4byte	.LVL33-.Ltext0
 1092 0214 0100     		.2byte	0x1
 1093 0216 52       		.byte	0x52
 1094 0217 E4000000 		.4byte	.LVL33-.Ltext0
 1095 021b EC000000 		.4byte	.LVL34-.Ltext0
 1096 021f 0200     		.2byte	0x2
 1097 0221 70       		.byte	0x70
 1098 0222 02       		.sleb128 2
 1099 0223 EC000000 		.4byte	.LVL34-.Ltext0
 1100 0227 F4000000 		.4byte	.LVL35-.Ltext0
 1101 022b 0500     		.2byte	0x5
 1102 022d F3       		.byte	0xf3
 1103 022e 01       		.uleb128 0x1
 1104 022f 50       		.byte	0x50
 1105 0230 23       		.byte	0x23
 1106 0231 02       		.uleb128 0x2
 1107 0232 F4000000 		.4byte	.LVL35-.Ltext0
 1108 0236 28010000 		.4byte	.LFE135-.Ltext0
 1109 023a 0100     		.2byte	0x1
 1110 023c 52       		.byte	0x52
 1111 023d 00000000 		.4byte	0
 1112 0241 00000000 		.4byte	0
 1113              	.LLST2:
 1114 0245 00000000 		.4byte	.LVL0-.Ltext0
 1115 0249 2A000000 		.4byte	.LVL1-.Ltext0
 1116 024d 0100     		.2byte	0x1
 1117 024f 53       		.byte	0x53
 1118 0250 2A000000 		.4byte	.LVL1-.Ltext0
 1119 0254 34000000 		.4byte	.LVL3-.Ltext0
 1120 0258 0200     		.2byte	0x2
 1121 025a 70       		.byte	0x70
 1122 025b 03       		.sleb128 3
 1123 025c 34000000 		.4byte	.LVL3-.Ltext0
 1124 0260 3C000000 		.4byte	.LVL4-.Ltext0
 1125 0264 0500     		.2byte	0x5
 1126 0266 F3       		.byte	0xf3
 1127 0267 01       		.uleb128 0x1
 1128 0268 50       		.byte	0x50
 1129 0269 23       		.byte	0x23
 1130 026a 03       		.uleb128 0x3
 1131 026b 3C000000 		.4byte	.LVL4-.Ltext0
 1132 026f 4C000000 		.4byte	.LVL5-.Ltext0
 1133 0273 0100     		.2byte	0x1
 1134 0275 53       		.byte	0x53
 1135 0276 4C000000 		.4byte	.LVL5-.Ltext0
 1136 027a 56000000 		.4byte	.LVL7-.Ltext0
 1137 027e 0200     		.2byte	0x2
 1138 0280 70       		.byte	0x70
 1139 0281 03       		.sleb128 3
 1140 0282 56000000 		.4byte	.LVL7-.Ltext0
ARM GAS  /tmp/ccnKDy42.s 			page 21


 1141 0286 5E000000 		.4byte	.LVL8-.Ltext0
 1142 028a 0500     		.2byte	0x5
 1143 028c F3       		.byte	0xf3
 1144 028d 01       		.uleb128 0x1
 1145 028e 50       		.byte	0x50
 1146 028f 23       		.byte	0x23
 1147 0290 03       		.uleb128 0x3
 1148 0291 5E000000 		.4byte	.LVL8-.Ltext0
 1149 0295 60000000 		.4byte	.LVL9-.Ltext0
 1150 0299 0100     		.2byte	0x1
 1151 029b 53       		.byte	0x53
 1152 029c 60000000 		.4byte	.LVL9-.Ltext0
 1153 02a0 68000000 		.4byte	.LVL10-.Ltext0
 1154 02a4 0200     		.2byte	0x2
 1155 02a6 70       		.byte	0x70
 1156 02a7 03       		.sleb128 3
 1157 02a8 68000000 		.4byte	.LVL10-.Ltext0
 1158 02ac 70000000 		.4byte	.LVL11-.Ltext0
 1159 02b0 0500     		.2byte	0x5
 1160 02b2 F3       		.byte	0xf3
 1161 02b3 01       		.uleb128 0x1
 1162 02b4 50       		.byte	0x50
 1163 02b5 23       		.byte	0x23
 1164 02b6 03       		.uleb128 0x3
 1165 02b7 70000000 		.4byte	.LVL11-.Ltext0
 1166 02bb 72000000 		.4byte	.LVL12-.Ltext0
 1167 02bf 0100     		.2byte	0x1
 1168 02c1 53       		.byte	0x53
 1169 02c2 72000000 		.4byte	.LVL12-.Ltext0
 1170 02c6 7C000000 		.4byte	.LVL14-.Ltext0
 1171 02ca 0200     		.2byte	0x2
 1172 02cc 70       		.byte	0x70
 1173 02cd 03       		.sleb128 3
 1174 02ce 7C000000 		.4byte	.LVL14-.Ltext0
 1175 02d2 84000000 		.4byte	.LVL15-.Ltext0
 1176 02d6 0500     		.2byte	0x5
 1177 02d8 F3       		.byte	0xf3
 1178 02d9 01       		.uleb128 0x1
 1179 02da 50       		.byte	0x50
 1180 02db 23       		.byte	0x23
 1181 02dc 03       		.uleb128 0x3
 1182 02dd 84000000 		.4byte	.LVL15-.Ltext0
 1183 02e1 8C000000 		.4byte	.LVL16-.Ltext0
 1184 02e5 0100     		.2byte	0x1
 1185 02e7 53       		.byte	0x53
 1186 02e8 8C000000 		.4byte	.LVL16-.Ltext0
 1187 02ec 96000000 		.4byte	.LVL18-.Ltext0
 1188 02f0 0200     		.2byte	0x2
 1189 02f2 70       		.byte	0x70
 1190 02f3 03       		.sleb128 3
 1191 02f4 96000000 		.4byte	.LVL18-.Ltext0
 1192 02f8 9E000000 		.4byte	.LVL19-.Ltext0
 1193 02fc 0500     		.2byte	0x5
 1194 02fe F3       		.byte	0xf3
 1195 02ff 01       		.uleb128 0x1
 1196 0300 50       		.byte	0x50
 1197 0301 23       		.byte	0x23
ARM GAS  /tmp/ccnKDy42.s 			page 22


 1198 0302 03       		.uleb128 0x3
 1199 0303 9E000000 		.4byte	.LVL19-.Ltext0
 1200 0307 A6000000 		.4byte	.LVL20-.Ltext0
 1201 030b 0100     		.2byte	0x1
 1202 030d 53       		.byte	0x53
 1203 030e A6000000 		.4byte	.LVL20-.Ltext0
 1204 0312 B0000000 		.4byte	.LVL22-.Ltext0
 1205 0316 0200     		.2byte	0x2
 1206 0318 70       		.byte	0x70
 1207 0319 03       		.sleb128 3
 1208 031a B0000000 		.4byte	.LVL22-.Ltext0
 1209 031e B8000000 		.4byte	.LVL23-.Ltext0
 1210 0322 0500     		.2byte	0x5
 1211 0324 F3       		.byte	0xf3
 1212 0325 01       		.uleb128 0x1
 1213 0326 50       		.byte	0x50
 1214 0327 23       		.byte	0x23
 1215 0328 03       		.uleb128 0x3
 1216 0329 B8000000 		.4byte	.LVL23-.Ltext0
 1217 032d BA000000 		.4byte	.LVL24-.Ltext0
 1218 0331 0100     		.2byte	0x1
 1219 0333 53       		.byte	0x53
 1220 0334 BA000000 		.4byte	.LVL24-.Ltext0
 1221 0338 C4000000 		.4byte	.LVL26-.Ltext0
 1222 033c 0200     		.2byte	0x2
 1223 033e 70       		.byte	0x70
 1224 033f 03       		.sleb128 3
 1225 0340 C4000000 		.4byte	.LVL26-.Ltext0
 1226 0344 CC000000 		.4byte	.LVL27-.Ltext0
 1227 0348 0500     		.2byte	0x5
 1228 034a F3       		.byte	0xf3
 1229 034b 01       		.uleb128 0x1
 1230 034c 50       		.byte	0x50
 1231 034d 23       		.byte	0x23
 1232 034e 03       		.uleb128 0x3
 1233 034f CC000000 		.4byte	.LVL27-.Ltext0
 1234 0353 CE000000 		.4byte	.LVL28-.Ltext0
 1235 0357 0100     		.2byte	0x1
 1236 0359 53       		.byte	0x53
 1237 035a CE000000 		.4byte	.LVL28-.Ltext0
 1238 035e D8000000 		.4byte	.LVL30-.Ltext0
 1239 0362 0200     		.2byte	0x2
 1240 0364 70       		.byte	0x70
 1241 0365 03       		.sleb128 3
 1242 0366 D8000000 		.4byte	.LVL30-.Ltext0
 1243 036a E0000000 		.4byte	.LVL31-.Ltext0
 1244 036e 0500     		.2byte	0x5
 1245 0370 F3       		.byte	0xf3
 1246 0371 01       		.uleb128 0x1
 1247 0372 50       		.byte	0x50
 1248 0373 23       		.byte	0x23
 1249 0374 03       		.uleb128 0x3
 1250 0375 E0000000 		.4byte	.LVL31-.Ltext0
 1251 0379 E2000000 		.4byte	.LVL32-.Ltext0
 1252 037d 0100     		.2byte	0x1
 1253 037f 53       		.byte	0x53
 1254 0380 E2000000 		.4byte	.LVL32-.Ltext0
ARM GAS  /tmp/ccnKDy42.s 			page 23


 1255 0384 EC000000 		.4byte	.LVL34-.Ltext0
 1256 0388 0200     		.2byte	0x2
 1257 038a 70       		.byte	0x70
 1258 038b 03       		.sleb128 3
 1259 038c EC000000 		.4byte	.LVL34-.Ltext0
 1260 0390 F4000000 		.4byte	.LVL35-.Ltext0
 1261 0394 0500     		.2byte	0x5
 1262 0396 F3       		.byte	0xf3
 1263 0397 01       		.uleb128 0x1
 1264 0398 50       		.byte	0x50
 1265 0399 23       		.byte	0x23
 1266 039a 03       		.uleb128 0x3
 1267 039b F4000000 		.4byte	.LVL35-.Ltext0
 1268 039f 28010000 		.4byte	.LFE135-.Ltext0
 1269 03a3 0100     		.2byte	0x1
 1270 03a5 53       		.byte	0x53
 1271 03a6 00000000 		.4byte	0
 1272 03aa 00000000 		.4byte	0
 1273              	.LLST3:
 1274 03ae 00000000 		.4byte	.LVL0-.Ltext0
 1275 03b2 34000000 		.4byte	.LVL3-.Ltext0
 1276 03b6 0200     		.2byte	0x2
 1277 03b8 30       		.byte	0x30
 1278 03b9 9F       		.byte	0x9f
 1279 03ba 34000000 		.4byte	.LVL3-.Ltext0
 1280 03be 3C000000 		.4byte	.LVL4-.Ltext0
 1281 03c2 0100     		.2byte	0x1
 1282 03c4 50       		.byte	0x50
 1283 03c5 3C000000 		.4byte	.LVL4-.Ltext0
 1284 03c9 56000000 		.4byte	.LVL7-.Ltext0
 1285 03cd 0200     		.2byte	0x2
 1286 03cf 30       		.byte	0x30
 1287 03d0 9F       		.byte	0x9f
 1288 03d1 56000000 		.4byte	.LVL7-.Ltext0
 1289 03d5 5E000000 		.4byte	.LVL8-.Ltext0
 1290 03d9 0100     		.2byte	0x1
 1291 03db 50       		.byte	0x50
 1292 03dc 5E000000 		.4byte	.LVL8-.Ltext0
 1293 03e0 68000000 		.4byte	.LVL10-.Ltext0
 1294 03e4 0200     		.2byte	0x2
 1295 03e6 30       		.byte	0x30
 1296 03e7 9F       		.byte	0x9f
 1297 03e8 68000000 		.4byte	.LVL10-.Ltext0
 1298 03ec 70000000 		.4byte	.LVL11-.Ltext0
 1299 03f0 0100     		.2byte	0x1
 1300 03f2 50       		.byte	0x50
 1301 03f3 70000000 		.4byte	.LVL11-.Ltext0
 1302 03f7 7C000000 		.4byte	.LVL14-.Ltext0
 1303 03fb 0200     		.2byte	0x2
 1304 03fd 30       		.byte	0x30
 1305 03fe 9F       		.byte	0x9f
 1306 03ff 7C000000 		.4byte	.LVL14-.Ltext0
 1307 0403 84000000 		.4byte	.LVL15-.Ltext0
 1308 0407 0100     		.2byte	0x1
 1309 0409 50       		.byte	0x50
 1310 040a 84000000 		.4byte	.LVL15-.Ltext0
 1311 040e 96000000 		.4byte	.LVL18-.Ltext0
ARM GAS  /tmp/ccnKDy42.s 			page 24


 1312 0412 0200     		.2byte	0x2
 1313 0414 30       		.byte	0x30
 1314 0415 9F       		.byte	0x9f
 1315 0416 96000000 		.4byte	.LVL18-.Ltext0
 1316 041a 9E000000 		.4byte	.LVL19-.Ltext0
 1317 041e 0100     		.2byte	0x1
 1318 0420 50       		.byte	0x50
 1319 0421 9E000000 		.4byte	.LVL19-.Ltext0
 1320 0425 B0000000 		.4byte	.LVL22-.Ltext0
 1321 0429 0200     		.2byte	0x2
 1322 042b 30       		.byte	0x30
 1323 042c 9F       		.byte	0x9f
 1324 042d B0000000 		.4byte	.LVL22-.Ltext0
 1325 0431 B8000000 		.4byte	.LVL23-.Ltext0
 1326 0435 0100     		.2byte	0x1
 1327 0437 50       		.byte	0x50
 1328 0438 B8000000 		.4byte	.LVL23-.Ltext0
 1329 043c C4000000 		.4byte	.LVL26-.Ltext0
 1330 0440 0200     		.2byte	0x2
 1331 0442 30       		.byte	0x30
 1332 0443 9F       		.byte	0x9f
 1333 0444 C4000000 		.4byte	.LVL26-.Ltext0
 1334 0448 CC000000 		.4byte	.LVL27-.Ltext0
 1335 044c 0100     		.2byte	0x1
 1336 044e 50       		.byte	0x50
 1337 044f CC000000 		.4byte	.LVL27-.Ltext0
 1338 0453 D8000000 		.4byte	.LVL30-.Ltext0
 1339 0457 0200     		.2byte	0x2
 1340 0459 30       		.byte	0x30
 1341 045a 9F       		.byte	0x9f
 1342 045b D8000000 		.4byte	.LVL30-.Ltext0
 1343 045f E0000000 		.4byte	.LVL31-.Ltext0
 1344 0463 0100     		.2byte	0x1
 1345 0465 50       		.byte	0x50
 1346 0466 E0000000 		.4byte	.LVL31-.Ltext0
 1347 046a EC000000 		.4byte	.LVL34-.Ltext0
 1348 046e 0200     		.2byte	0x2
 1349 0470 30       		.byte	0x30
 1350 0471 9F       		.byte	0x9f
 1351 0472 EC000000 		.4byte	.LVL34-.Ltext0
 1352 0476 F4000000 		.4byte	.LVL35-.Ltext0
 1353 047a 0100     		.2byte	0x1
 1354 047c 50       		.byte	0x50
 1355 047d F4000000 		.4byte	.LVL35-.Ltext0
 1356 0481 F6000000 		.4byte	.LVL36-.Ltext0
 1357 0485 0200     		.2byte	0x2
 1358 0487 30       		.byte	0x30
 1359 0488 9F       		.byte	0x9f
 1360 0489 F6000000 		.4byte	.LVL36-.Ltext0
 1361 048d 28010000 		.4byte	.LFE135-.Ltext0
 1362 0491 0100     		.2byte	0x1
 1363 0493 50       		.byte	0x50
 1364 0494 00000000 		.4byte	0
 1365 0498 00000000 		.4byte	0
 1366              		.section	.debug_aranges,"",%progbits
 1367 0000 1C000000 		.4byte	0x1c
 1368 0004 0200     		.2byte	0x2
ARM GAS  /tmp/ccnKDy42.s 			page 25


 1369 0006 00000000 		.4byte	.Ldebug_info0
 1370 000a 04       		.byte	0x4
 1371 000b 00       		.byte	0
 1372 000c 0000     		.2byte	0
 1373 000e 0000     		.2byte	0
 1374 0010 00000000 		.4byte	.Ltext0
 1375 0014 28010000 		.4byte	.Letext0-.Ltext0
 1376 0018 00000000 		.4byte	0
 1377 001c 00000000 		.4byte	0
 1378              		.section	.debug_line,"",%progbits
 1379              	.Ldebug_line0:
 1380 0000 DB020000 		.section	.debug_str,"MS",%progbits,1
 1380      02002902 
 1380      00000201 
 1380      FB0E0D00 
 1380      01010101 
 1381              	.LASF39:
 1382 0000 474E5520 		.ascii	"GNU C 4.9.3 20150529 (release) [ARM/embedded-4_9-br"
 1382      4320342E 
 1382      392E3320 
 1382      32303135 
 1382      30353239 
 1383 0033 616E6368 		.ascii	"anch revision 224288] -mcpu=cortex-m4 -mfloat-abi=h"
 1383      20726576 
 1383      6973696F 
 1383      6E203232 
 1383      34323838 
 1384 0066 61726420 		.ascii	"ard -mfpu=fpv4-sp-d16 -mno-thumb-interwork -mthumb "
 1384      2D6D6670 
 1384      753D6670 
 1384      76342D73 
 1384      702D6431 
 1385 0099 2D676764 		.ascii	"-ggdb -O2 -fomit-frame-pointer -falign-functions=16"
 1385      62202D4F 
 1385      32202D66 
 1385      6F6D6974 
 1385      2D667261 
 1386 00cc 202D666E 		.ascii	" -fno-math-errno -fsingle-precision-constant\000"
 1386      6F2D6D61 
 1386      74682D65 
 1386      72726E6F 
 1386      202D6673 
 1387              	.LASF2:
 1388 00f9 5F5F7569 		.ascii	"__uint8_t\000"
 1388      6E74385F 
 1388      7400
 1389              	.LASF37:
 1390 0103 61726D42 		.ascii	"armBitRevTable\000"
 1390      69745265 
 1390      76546162 
 1390      6C6500
 1391              	.LASF3:
 1392 0112 5F5F696E 		.ascii	"__int16_t\000"
 1392      7431365F 
 1392      7400
 1393              	.LASF40:
 1394 011c 2F686F6D 		.ascii	"/home/sbcu/Dropbox/pcb-layouts/axo-on-discovery-boa"
ARM GAS  /tmp/ccnKDy42.s 			page 26


 1394      652F7362 
 1394      63752F44 
 1394      726F7062 
 1394      6F782F70 
 1395 014f 72642F61 		.ascii	"rd/axoloti/platform_linux/../CMSIS//DSP_Lib/Source/"
 1395      786F6C6F 
 1395      74692F70 
 1395      6C617466 
 1395      6F726D5F 
 1396 0182 5472616E 		.ascii	"TransformFunctions/arm_cfft_radix2_init_q15.c\000"
 1396      73666F72 
 1396      6D46756E 
 1396      6374696F 
 1396      6E732F61 
 1397              	.LASF38:
 1398 01b0 74776964 		.ascii	"twiddleCoef_4096_q15\000"
 1398      646C6543 
 1398      6F65665F 
 1398      34303936 
 1398      5F713135 
 1399              	.LASF34:
 1400 01c5 74776964 		.ascii	"twidCoefModifier\000"
 1400      436F6566 
 1400      4D6F6469 
 1400      66696572 
 1400      00
 1401              	.LASF42:
 1402 01d6 73746174 		.ascii	"status\000"
 1402      757300
 1403              	.LASF23:
 1404 01dd 41524D5F 		.ascii	"ARM_MATH_SIZE_MISMATCH\000"
 1404      4D415448 
 1404      5F53495A 
 1404      455F4D49 
 1404      534D4154 
 1405              	.LASF33:
 1406 01f4 70426974 		.ascii	"pBitRevTable\000"
 1406      52657654 
 1406      61626C65 
 1406      00
 1407              	.LASF28:
 1408 0201 7131355F 		.ascii	"q15_t\000"
 1408      7400
 1409              	.LASF18:
 1410 0207 666C6F61 		.ascii	"float\000"
 1410      7400
 1411              	.LASF1:
 1412 020d 756E7369 		.ascii	"unsigned char\000"
 1412      676E6564 
 1412      20636861 
 1412      7200
 1413              	.LASF35:
 1414 021b 62697452 		.ascii	"bitRevFactor\000"
 1414      65764661 
 1414      63746F72 
 1414      00
 1415              	.LASF8:
ARM GAS  /tmp/ccnKDy42.s 			page 27


 1416 0228 6C6F6E67 		.ascii	"long unsigned int\000"
 1416      20756E73 
 1416      69676E65 
 1416      6420696E 
 1416      7400
 1417              	.LASF6:
 1418 023a 73686F72 		.ascii	"short unsigned int\000"
 1418      7420756E 
 1418      7369676E 
 1418      65642069 
 1418      6E7400
 1419              	.LASF29:
 1420 024d 6666744C 		.ascii	"fftLen\000"
 1420      656E00
 1421              	.LASF26:
 1422 0254 41524D5F 		.ascii	"ARM_MATH_TEST_FAILURE\000"
 1422      4D415448 
 1422      5F544553 
 1422      545F4641 
 1422      494C5552 
 1423              	.LASF5:
 1424 026a 5F5F7569 		.ascii	"__uint16_t\000"
 1424      6E743136 
 1424      5F7400
 1425              	.LASF17:
 1426 0275 646F7562 		.ascii	"double\000"
 1426      6C6500
 1427              	.LASF4:
 1428 027c 73686F72 		.ascii	"short int\000"
 1428      7420696E 
 1428      7400
 1429              	.LASF21:
 1430 0286 41524D5F 		.ascii	"ARM_MATH_ARGUMENT_ERROR\000"
 1430      4D415448 
 1430      5F415247 
 1430      554D454E 
 1430      545F4552 
 1431              	.LASF30:
 1432 029e 69666674 		.ascii	"ifftFlag\000"
 1432      466C6167 
 1432      00
 1433              	.LASF11:
 1434 02a7 756E7369 		.ascii	"unsigned int\000"
 1434      676E6564 
 1434      20696E74 
 1434      00
 1435              	.LASF10:
 1436 02b4 6C6F6E67 		.ascii	"long long unsigned int\000"
 1436      206C6F6E 
 1436      6720756E 
 1436      7369676E 
 1436      65642069 
 1437              	.LASF12:
 1438 02cb 75696E74 		.ascii	"uint8_t\000"
 1438      385F7400 
 1439              	.LASF31:
 1440 02d3 62697452 		.ascii	"bitReverseFlag\000"
ARM GAS  /tmp/ccnKDy42.s 			page 28


 1440      65766572 
 1440      7365466C 
 1440      616700
 1441              	.LASF24:
 1442 02e2 41524D5F 		.ascii	"ARM_MATH_NANINF\000"
 1442      4D415448 
 1442      5F4E414E 
 1442      494E4600 
 1443              	.LASF13:
 1444 02f2 696E7431 		.ascii	"int16_t\000"
 1444      365F7400 
 1445              	.LASF22:
 1446 02fa 41524D5F 		.ascii	"ARM_MATH_LENGTH_ERROR\000"
 1446      4D415448 
 1446      5F4C454E 
 1446      4754485F 
 1446      4552524F 
 1447              	.LASF19:
 1448 0310 6C6F6E67 		.ascii	"long double\000"
 1448      20646F75 
 1448      626C6500 
 1449              	.LASF15:
 1450 031c 73697A65 		.ascii	"sizetype\000"
 1450      74797065 
 1450      00
 1451              	.LASF9:
 1452 0325 6C6F6E67 		.ascii	"long long int\000"
 1452      206C6F6E 
 1452      6720696E 
 1452      7400
 1453              	.LASF32:
 1454 0333 70547769 		.ascii	"pTwiddle\000"
 1454      64646C65 
 1454      00
 1455              	.LASF16:
 1456 033c 63686172 		.ascii	"char\000"
 1456      00
 1457              	.LASF20:
 1458 0341 41524D5F 		.ascii	"ARM_MATH_SUCCESS\000"
 1458      4D415448 
 1458      5F535543 
 1458      43455353 
 1458      00
 1459              	.LASF41:
 1460 0352 61726D5F 		.ascii	"arm_cfft_radix2_init_q15\000"
 1460      63666674 
 1460      5F726164 
 1460      6978325F 
 1460      696E6974 
 1461              	.LASF14:
 1462 036b 75696E74 		.ascii	"uint16_t\000"
 1462      31365F74 
 1462      00
 1463              	.LASF7:
 1464 0374 6C6F6E67 		.ascii	"long int\000"
 1464      20696E74 
 1464      00
ARM GAS  /tmp/ccnKDy42.s 			page 29


 1465              	.LASF36:
 1466 037d 61726D5F 		.ascii	"arm_cfft_radix2_instance_q15\000"
 1466      63666674 
 1466      5F726164 
 1466      6978325F 
 1466      696E7374 
 1467              	.LASF0:
 1468 039a 7369676E 		.ascii	"signed char\000"
 1468      65642063 
 1468      68617200 
 1469              	.LASF27:
 1470 03a6 61726D5F 		.ascii	"arm_status\000"
 1470      73746174 
 1470      757300
 1471              	.LASF25:
 1472 03b1 41524D5F 		.ascii	"ARM_MATH_SINGULAR\000"
 1472      4D415448 
 1472      5F53494E 
 1472      47554C41 
 1472      5200
 1473              		.ident	"GCC: (GNU Tools for ARM Embedded Processors) 4.9.3 20150529 (release) [ARM/embedded-4_9-br
ARM GAS  /tmp/ccnKDy42.s 			page 30


DEFINED SYMBOLS
                            *ABS*:00000000 arm_cfft_radix2_init_q15.c
     /tmp/ccnKDy42.s:20     .text:00000000 $t
     /tmp/ccnKDy42.s:26     .text:00000000 arm_cfft_radix2_init_q15
     /tmp/ccnKDy42.s:308    .text:00000100 $d
                     .debug_frame:00000010 $d

UNDEFINED SYMBOLS
twiddleCoef_4096_q15
armBitRevTable
