ARM GAS  /tmp/ccKvCWNF.s 			page 1


   1              		.syntax unified
   2              		.cpu cortex-m4
   3              		.eabi_attribute 27, 1
   4              		.eabi_attribute 28, 1
   5              		.fpu fpv4-sp-d16
   6              		.eabi_attribute 20, 1
   7              		.eabi_attribute 21, 1
   8              		.eabi_attribute 23, 3
   9              		.eabi_attribute 24, 1
  10              		.eabi_attribute 25, 1
  11              		.eabi_attribute 26, 1
  12              		.eabi_attribute 30, 2
  13              		.eabi_attribute 34, 1
  14              		.eabi_attribute 18, 4
  15              		.thumb
  16              		.file	"arm_biquad_cascade_df1_q31.c"
  17              		.text
  18              	.Ltext0:
  19              		.cfi_sections	.debug_frame
  20              		.align	2
  21              		.p2align 4,,15
  22              		.global	arm_biquad_cascade_df1_q31
  23              		.thumb
  24              		.thumb_func
  25              		.type	arm_biquad_cascade_df1_q31, %function
  26              	arm_biquad_cascade_df1_q31:
  27              	.LFB135:
  28              		.file 1 "/home/sbcu/Dropbox/pcb-layouts/axo-on-discovery-board/axoloti/platform_linux/../CMSIS//DS
  29              		.loc 1 79 0
  30              		.cfi_startproc
  31              		@ args = 0, pretend = 0, frame = 80
  32              		@ frame_needed = 0, uses_anonymous_args = 0
  33              	.LVL0:
  34 0000 2DE9F04F 		push	{r4, r5, r6, r7, r8, r9, r10, fp, lr}
  35              		.cfi_def_cfa_offset 36
  36              		.cfi_offset 4, -36
  37              		.cfi_offset 5, -32
  38              		.cfi_offset 6, -28
  39              		.cfi_offset 7, -24
  40              		.cfi_offset 8, -20
  41              		.cfi_offset 9, -16
  42              		.cfi_offset 10, -12
  43              		.cfi_offset 11, -8
  44              		.cfi_offset 14, -4
  45              		.loc 1 81 0
  46 0004 067B     		ldrb	r6, [r0, #12]	@ zero_extendqisi2
  47              		.loc 1 90 0
  48 0006 31C8     		ldmia	r0, {r0, r4, r5}
  49              	.LVL1:
  50              		.loc 1 79 0
  51 0008 95B0     		sub	sp, sp, #84
  52              		.cfi_def_cfa_offset 120
  53              		.loc 1 82 0
  54 000a C6F11F0E 		rsb	lr, r6, #31
  55              		.loc 1 90 0
  56 000e 0D90     		str	r0, [sp, #52]
  57 0010 9808     		lsrs	r0, r3, #2
ARM GAS  /tmp/ccKvCWNF.s 			page 2


  58 0012 03F00303 		and	r3, r3, #3
  59              	.LVL2:
  60 0016 0F90     		str	r0, [sp, #60]
  61 0018 1093     		str	r3, [sp, #64]
  62 001a 0001     		lsls	r0, r0, #4
  63 001c 1346     		mov	r3, r2
  64 001e 0344     		add	r3, r3, r0
  65              		.loc 1 79 0
  66 0020 0A91     		str	r1, [sp, #40]
  67 0022 1393     		str	r3, [sp, #76]
  68              		.loc 1 81 0
  69 0024 711C     		adds	r1, r6, #1
  70              	.LVL3:
  71 0026 05F11403 		add	r3, r5, #20
  72 002a 1191     		str	r1, [sp, #68]
  73              	.LVL4:
  74 002c 0B93     		str	r3, [sp, #44]
  75 002e CEF12001 		rsb	r1, lr, #32
  76              	.LVL5:
  77 0032 04F11003 		add	r3, r4, #16
  78              		.loc 1 79 0
  79 0036 0E92     		str	r2, [sp, #56]
  80 0038 1290     		str	r0, [sp, #72]
  81 003a 0991     		str	r1, [sp, #36]
  82 003c 0C93     		str	r3, [sp, #48]
  83 003e F346     		mov	fp, lr
  84              	.LVL6:
  85              	.L7:
  86              		.loc 1 102 0
  87 0040 0B9A     		ldr	r2, [sp, #44]
  88 0042 52F8143C 		ldr	r3, [r2, #-20]
  89 0046 0493     		str	r3, [sp, #16]
  90              	.LVL7:
  91              		.loc 1 103 0
  92 0048 1346     		mov	r3, r2
  93              	.LVL8:
  94 004a 52F8102C 		ldr	r2, [r2, #-16]
  95 004e 0192     		str	r2, [sp, #4]
  96              	.LVL9:
  97              		.loc 1 104 0
  98 0050 1A46     		mov	r2, r3
  99              	.LVL10:
 100 0052 53F80C3C 		ldr	r3, [r3, #-12]
 101 0056 0293     		str	r3, [sp, #8]
 102              	.LVL11:
 103              		.loc 1 105 0
 104 0058 52F8083C 		ldr	r3, [r2, #-8]
 105              	.LVL12:
 106 005c 0793     		str	r3, [sp, #28]
 107 005e 1F46     		mov	r7, r3
 108              	.LVL13:
 109              		.loc 1 106 0
 110 0060 52F8043C 		ldr	r3, [r2, #-4]
 111              	.LVL14:
 112              		.loc 1 109 0
 113 0064 0C9A     		ldr	r2, [sp, #48]
 114              		.loc 1 106 0
ARM GAS  /tmp/ccKvCWNF.s 			page 3


 115 0066 0893     		str	r3, [sp, #32]
 116 0068 1C46     		mov	r4, r3
 117              	.LVL15:
 118              		.loc 1 109 0
 119 006a 52F810EC 		ldr	lr, [r2, #-16]
 120              	.LVL16:
 121              		.loc 1 110 0
 122 006e 52F80CAC 		ldr	r10, [r2, #-12]
 123              	.LVL17:
 124              		.loc 1 112 0
 125 0072 12E92800 		ldmdb	r2, {r3, r5}
 126              	.LVL18:
 127              		.loc 1 124 0
 128 0076 0F9A     		ldr	r2, [sp, #60]
 129 0078 002A     		cmp	r2, #0
 130 007a 00F0CD80 		beq	.L8
 131 007e 0A99     		ldr	r1, [sp, #40]
 132 0080 DDF844C0 		ldr	ip, [sp, #68]
 133 0084 0592     		str	r2, [sp, #20]
 134 0086 01F11006 		add	r6, r1, #16
 135 008a 0E99     		ldr	r1, [sp, #56]
 136 008c 01F11000 		add	r0, r1, #16
 137 0090 A146     		mov	r9, r4
 138 0092 B046     		mov	r8, r6
 139 0094 5446     		mov	r4, r10
 140              	.LVL19:
 141 0096 0390     		str	r0, [sp, #12]
 142 0098 BA46     		mov	r10, r7
 143              	.LVL20:
 144              	.L3:
 145              		.loc 1 127 0
 146 009a 58F8102C 		ldr	r2, [r8, #-16]
 147              	.LVL21:
 148              		.loc 1 132 0
 149 009e 0499     		ldr	r1, [sp, #16]
 150              		.loc 1 127 0
 151 00a0 1046     		mov	r0, r2
 152              		.loc 1 134 0
 153 00a2 019A     		ldr	r2, [sp, #4]
 154              	.LVL22:
 155              		.loc 1 164 0
 156 00a4 0690     		str	r0, [sp, #24]
 157              		.loc 1 132 0
 158 00a6 80FB0167 		smull	r6, r7, r0, r1
 159              	.LVL23:
 160              		.loc 1 134 0
 161 00aa C2FB0E67 		smlal	r6, r7, r2, lr
 162              	.LVL24:
 163              		.loc 1 136 0
 164 00ae 029A     		ldr	r2, [sp, #8]
 165 00b0 C2FB0467 		smlal	r6, r7, r2, r4
 166              	.LVL25:
 167              		.loc 1 138 0
 168 00b4 CAFB0367 		smlal	r6, r7, r10, r3
 169              	.LVL26:
 170              		.loc 1 140 0
 171 00b8 C9FB0567 		smlal	r6, r7, r9, r5
ARM GAS  /tmp/ccKvCWNF.s 			page 4


 172              	.LVL27:
 173              		.loc 1 151 0
 174 00bc 07FA0CF2 		lsl	r2, r7, ip
 175 00c0 26FA0BF6 		lsr	r6, r6, fp
 176              	.LVL28:
 177 00c4 42EA0607 		orr	r7, r2, r6
 178              	.LVL29:
 179              		.loc 1 154 0
 180 00c8 039A     		ldr	r2, [sp, #12]
 181 00ca 42F8107C 		str	r7, [r2, #-16]
 182              	.LVL30:
 183              		.loc 1 157 0
 184 00ce 58F80C6C 		ldr	r6, [r8, #-12]
 185              	.LVL31:
 186              		.loc 1 162 0
 187 00d2 0A46     		mov	r2, r1
 188 00d4 86FB0145 		smull	r4, r5, r6, r1
 189              	.LVL32:
 190              		.loc 1 164 0
 191 00d8 0199     		ldr	r1, [sp, #4]
 192 00da C1FB0045 		smlal	r4, r5, r1, r0
 193              	.LVL33:
 194              		.loc 1 166 0
 195 00de 0299     		ldr	r1, [sp, #8]
 196              		.loc 1 186 0
 197 00e0 0398     		ldr	r0, [sp, #12]
 198              	.LVL34:
 199              		.loc 1 166 0
 200 00e2 C1FB0E45 		smlal	r4, r5, r1, lr
 201              	.LVL35:
 202              		.loc 1 168 0
 203 00e6 CAFB0745 		smlal	r4, r5, r10, r7
 204              	.LVL36:
 205              		.loc 1 170 0
 206 00ea C9FB0345 		smlal	r4, r5, r9, r3
 207              	.LVL37:
 208              		.loc 1 183 0
 209 00ee 05FA0CF3 		lsl	r3, r5, ip
 210              	.LVL38:
 211 00f2 24FA0BF4 		lsr	r4, r4, fp
 212              	.LVL39:
 213 00f6 43EA0401 		orr	r1, r3, r4
 214              	.LVL40:
 215              		.loc 1 186 0
 216 00fa 40F80C1C 		str	r1, [r0, #-12]
 217              	.LVL41:
 218              		.loc 1 189 0
 219 00fe 58F8084C 		ldr	r4, [r8, #-8]
 220              	.LVL42:
 221              		.loc 1 196 0
 222 0102 019D     		ldr	r5, [sp, #4]
 223              	.LVL43:
 224              		.loc 1 194 0
 225 0104 84FB0223 		smull	r2, r3, r4, r2
 226              	.LVL44:
 227              		.loc 1 196 0
 228 0108 C5FB0623 		smlal	r2, r3, r5, r6
ARM GAS  /tmp/ccKvCWNF.s 			page 5


 229              	.LVL45:
 230              		.loc 1 198 0
 231 010c 069D     		ldr	r5, [sp, #24]
 232 010e 2846     		mov	r0, r5
 233 0110 029D     		ldr	r5, [sp, #8]
 234 0112 C5FB0023 		smlal	r2, r3, r5, r0
 235              	.LVL46:
 236              		.loc 1 200 0
 237 0116 CAFB0123 		smlal	r2, r3, r10, r1
 238              	.LVL47:
 239              		.loc 1 202 0
 240 011a C9FB0723 		smlal	r2, r3, r9, r7
 241              	.LVL48:
 242              		.loc 1 213 0
 243 011e 03FA0CF3 		lsl	r3, r3, ip
 244              	.LVL49:
 245 0122 22FA0BF2 		lsr	r2, r2, fp
 246              	.LVL50:
 247 0126 43EA0205 		orr	r5, r3, r2
 248              	.LVL51:
 249              		.loc 1 216 0
 250 012a 039B     		ldr	r3, [sp, #12]
 251              		.loc 1 226 0
 252 012c 019F     		ldr	r7, [sp, #4]
 253              	.LVL52:
 254              		.loc 1 216 0
 255 012e 43F8085C 		str	r5, [r3, #-8]
 256              	.LVL53:
 257              		.loc 1 219 0
 258 0132 58F804EC 		ldr	lr, [r8, #-4]
 259              	.LVL54:
 260              		.loc 1 224 0
 261 0136 049B     		ldr	r3, [sp, #16]
 262              	.LVL55:
 263 0138 8EFB0323 		smull	r2, r3, lr, r3
 264              	.LVL56:
 265              		.loc 1 226 0
 266 013c C7FB0423 		smlal	r2, r3, r7, r4
 267              	.LVL57:
 268              		.loc 1 228 0
 269 0140 029F     		ldr	r7, [sp, #8]
 270 0142 C7FB0623 		smlal	r2, r3, r7, r6
 271              	.LVL58:
 272              		.loc 1 230 0
 273 0146 CAFB0523 		smlal	r2, r3, r10, r5
 274              	.LVL59:
 275              		.loc 1 232 0
 276 014a C9FB0123 		smlal	r2, r3, r9, r1
 277              	.LVL60:
 278              		.loc 1 242 0
 279 014e 22FA0BF2 		lsr	r2, r2, fp
 280              	.LVL61:
 281 0152 03FA0CF1 		lsl	r1, r3, ip
 282              	.LVL62:
 283 0156 41EA0203 		orr	r3, r1, r2
 284              	.LVL63:
 285              		.loc 1 254 0
ARM GAS  /tmp/ccKvCWNF.s 			page 6


 286 015a 039A     		ldr	r2, [sp, #12]
 287 015c 42F8043C 		str	r3, [r2, #-4]
 288 0160 1032     		adds	r2, r2, #16
 289 0162 0392     		str	r2, [sp, #12]
 290              	.LVL64:
 291              		.loc 1 124 0
 292 0164 059A     		ldr	r2, [sp, #20]
 293              	.LVL65:
 294 0166 013A     		subs	r2, r2, #1
 295              	.LVL66:
 296 0168 08F11008 		add	r8, r8, #16
 297              	.LVL67:
 298 016c 0592     		str	r2, [sp, #20]
 299 016e 94D1     		bne	.L3
 300 0170 0A9A     		ldr	r2, [sp, #40]
 301              	.LVL68:
 302 0172 1299     		ldr	r1, [sp, #72]
 303              		.loc 1 254 0
 304 0174 139E     		ldr	r6, [sp, #76]
 305              	.LVL69:
 306 0176 0A44     		add	r2, r2, r1
 307 0178 A246     		mov	r10, r4
 308              	.LVL70:
 309 017a 0A92     		str	r2, [sp, #40]
 310              	.LVL71:
 311              	.L2:
 312              		.loc 1 264 0
 313 017c 109A     		ldr	r2, [sp, #64]
 314 017e 002A     		cmp	r2, #0
 315 0180 45D0     		beq	.L9
 316 0182 0392     		str	r2, [sp, #12]
 317 0184 0A9F     		ldr	r7, [sp, #40]
 318 0186 01E0     		b	.L6
 319              	.LVL72:
 320              	.L10:
 321              		.loc 1 294 0
 322 0188 6346     		mov	r3, ip
 323              	.LVL73:
 324              		.loc 1 267 0
 325 018a A646     		mov	lr, r4
 326              	.LVL74:
 327              	.L6:
 328 018c 57F8044B 		ldr	r4, [r7], #4
 329              	.LVL75:
 330              		.loc 1 272 0
 331 0190 0499     		ldr	r1, [sp, #16]
 332              		.loc 1 274 0
 333 0192 019A     		ldr	r2, [sp, #4]
 334              		.loc 1 272 0
 335 0194 84FB0101 		smull	r0, r1, r4, r1
 336              	.LVL76:
 337              		.loc 1 274 0
 338 0198 C2FB0E01 		smlal	r0, r1, r2, lr
 339              	.LVL77:
 340              		.loc 1 276 0
 341 019c 029A     		ldr	r2, [sp, #8]
 342 019e C2FB0A01 		smlal	r0, r1, r2, r10
ARM GAS  /tmp/ccKvCWNF.s 			page 7


 343              	.LVL78:
 344              		.loc 1 278 0
 345 01a2 079A     		ldr	r2, [sp, #28]
 346 01a4 C2FB0301 		smlal	r0, r1, r2, r3
 347              	.LVL79:
 348              		.loc 1 280 0
 349 01a8 089A     		ldr	r2, [sp, #32]
 350 01aa C2FB0501 		smlal	r0, r1, r2, r5
 351              	.LVL80:
 352              		.loc 1 283 0
 353 01ae 099A     		ldr	r2, [sp, #36]
 354 01b0 BBF12008 		subs	r8, fp, #32
 355 01b4 01FA02F9 		lsl	r9, r1, r2
 356 01b8 20FA0BFC 		lsr	ip, r0, fp
 357              		.loc 1 264 0
 358 01bc 039A     		ldr	r2, [sp, #12]
 359              		.loc 1 283 0
 360 01be 4CEA090C 		orr	ip, ip, r9
 361 01c2 5CBF     		itt	pl
 362 01c4 41FA08F8 		asrpl	r8, r1, r8
 363 01c8 4CEA080C 		orrpl	ip, ip, r8
 364              		.loc 1 264 0
 365 01cc 013A     		subs	r2, r2, #1
 366 01ce F246     		mov	r10, lr
 367 01d0 1D46     		mov	r5, r3
 368              		.loc 1 297 0
 369 01d2 46F804CB 		str	ip, [r6], #4
 370              	.LVL81:
 371              		.loc 1 294 0
 372 01d6 6146     		mov	r1, ip
 373              	.LVL82:
 374              		.loc 1 264 0
 375 01d8 0392     		str	r2, [sp, #12]
 376 01da D5D1     		bne	.L10
 377              	.LVL83:
 378              	.L4:
 379              		.loc 1 311 0
 380 01dc 0C98     		ldr	r0, [sp, #48]
 381              		.loc 1 314 0
 382 01de 40F8043C 		str	r3, [r0, #-4]
 383 01e2 0B9B     		ldr	r3, [sp, #44]
 384              	.LVL84:
 385              		.loc 1 311 0
 386 01e4 40F8104C 		str	r4, [r0, #-16]
 387              	.LVL85:
 388 01e8 1433     		adds	r3, r3, #20
 389 01ea 0B93     		str	r3, [sp, #44]
 390              	.LVL86:
 391 01ec 00F11003 		add	r3, r0, #16
 392 01f0 0C93     		str	r3, [sp, #48]
 393              	.LVL87:
 394              		.loc 1 305 0
 395 01f2 0E9B     		ldr	r3, [sp, #56]
 396 01f4 0A93     		str	r3, [sp, #40]
 397              		.loc 1 316 0
 398 01f6 0D9B     		ldr	r3, [sp, #52]
 399              		.loc 1 312 0
ARM GAS  /tmp/ccKvCWNF.s 			page 8


 400 01f8 40F80CEC 		str	lr, [r0, #-12]
 401              		.loc 1 316 0
 402 01fc 013B     		subs	r3, r3, #1
 403              		.loc 1 313 0
 404 01fe 40F8081C 		str	r1, [r0, #-8]
 405              	.LVL88:
 406              		.loc 1 316 0
 407 0202 0D93     		str	r3, [sp, #52]
 408 0204 7FF41CAF 		bne	.L7
 409              		.loc 1 398 0
 410 0208 15B0     		add	sp, sp, #84
 411              		.cfi_remember_state
 412              		.cfi_def_cfa_offset 36
 413              		@ sp needed
 414 020a BDE8F08F 		pop	{r4, r5, r6, r7, r8, r9, r10, fp, pc}
 415              	.LVL89:
 416              	.L9:
 417              		.cfi_restore_state
 418              		.loc 1 264 0
 419 020e 1946     		mov	r1, r3
 420 0210 7446     		mov	r4, lr
 421 0212 2B46     		mov	r3, r5
 422              	.LVL90:
 423 0214 D646     		mov	lr, r10
 424              	.LVL91:
 425 0216 E1E7     		b	.L4
 426              	.LVL92:
 427              	.L8:
 428              		.loc 1 124 0
 429 0218 0E9E     		ldr	r6, [sp, #56]
 430 021a AFE7     		b	.L2
 431              		.cfi_endproc
 432              	.LFE135:
 433              		.size	arm_biquad_cascade_df1_q31, .-arm_biquad_cascade_df1_q31
 434              	.Letext0:
 435              		.file 2 "/home/sbcu/Dropbox/pcb-layouts/axo-on-discovery-board/axoloti/platform_linux/arm-none-eab
 436              		.file 3 "/home/sbcu/Dropbox/pcb-layouts/axo-on-discovery-board/axoloti/platform_linux/arm-none-eab
 437              		.file 4 "/home/sbcu/Dropbox/pcb-layouts/axo-on-discovery-board/axoloti/platform_linux/../CMSIS//DS
 438              		.section	.debug_info,"",%progbits
 439              	.Ldebug_info0:
 440 0000 D7020000 		.4byte	0x2d7
 441 0004 0400     		.2byte	0x4
 442 0006 00000000 		.4byte	.Ldebug_abbrev0
 443 000a 04       		.byte	0x4
 444 000b 01       		.uleb128 0x1
 445 000c 1D000000 		.4byte	.LASF39
 446 0010 01       		.byte	0x1
 447 0011 96010000 		.4byte	.LASF40
 448 0015 00000000 		.4byte	.Ltext0
 449 0019 1C020000 		.4byte	.Letext0-.Ltext0
 450 001d 00000000 		.4byte	.Ldebug_line0
 451 0021 02       		.uleb128 0x2
 452 0022 08       		.byte	0x8
 453 0023 07       		.byte	0x7
 454 0024 72020000 		.4byte	.LASF0
 455 0028 03       		.uleb128 0x3
 456 0029 04       		.byte	0x4
ARM GAS  /tmp/ccKvCWNF.s 			page 9


 457 002a 05       		.byte	0x5
 458 002b 696E7400 		.ascii	"int\000"
 459 002f 02       		.uleb128 0x2
 460 0030 04       		.byte	0x4
 461 0031 07       		.byte	0x7
 462 0032 65020000 		.4byte	.LASF1
 463 0036 02       		.uleb128 0x2
 464 0037 01       		.byte	0x1
 465 0038 06       		.byte	0x6
 466 0039 F5020000 		.4byte	.LASF2
 467 003d 04       		.uleb128 0x4
 468 003e 16010000 		.4byte	.LASF6
 469 0042 02       		.byte	0x2
 470 0043 1D       		.byte	0x1d
 471 0044 48000000 		.4byte	0x48
 472 0048 02       		.uleb128 0x2
 473 0049 01       		.byte	0x1
 474 004a 08       		.byte	0x8
 475 004b 5C010000 		.4byte	.LASF3
 476 004f 02       		.uleb128 0x2
 477 0050 02       		.byte	0x2
 478 0051 05       		.byte	0x5
 479 0052 BB020000 		.4byte	.LASF4
 480 0056 02       		.uleb128 0x2
 481 0057 02       		.byte	0x2
 482 0058 07       		.byte	0x7
 483 0059 83010000 		.4byte	.LASF5
 484 005d 04       		.uleb128 0x4
 485 005e 2E010000 		.4byte	.LASF7
 486 0062 02       		.byte	0x2
 487 0063 3F       		.byte	0x3f
 488 0064 68000000 		.4byte	0x68
 489 0068 02       		.uleb128 0x2
 490 0069 04       		.byte	0x4
 491 006a 05       		.byte	0x5
 492 006b 38010000 		.4byte	.LASF8
 493 006f 04       		.uleb128 0x4
 494 0070 53020000 		.4byte	.LASF9
 495 0074 02       		.byte	0x2
 496 0075 41       		.byte	0x41
 497 0076 7A000000 		.4byte	0x7a
 498 007a 02       		.uleb128 0x2
 499 007b 04       		.byte	0x4
 500 007c 07       		.byte	0x7
 501 007d 71010000 		.4byte	.LASF10
 502 0081 04       		.uleb128 0x4
 503 0082 42020000 		.4byte	.LASF11
 504 0086 02       		.byte	0x2
 505 0087 59       		.byte	0x59
 506 0088 8C000000 		.4byte	0x8c
 507 008c 02       		.uleb128 0x2
 508 008d 08       		.byte	0x8
 509 008e 05       		.byte	0x5
 510 008f A8020000 		.4byte	.LASF12
 511 0093 04       		.uleb128 0x4
 512 0094 89020000 		.4byte	.LASF13
 513 0098 03       		.byte	0x3
ARM GAS  /tmp/ccKvCWNF.s 			page 10


 514 0099 14       		.byte	0x14
 515 009a 3D000000 		.4byte	0x3d
 516 009e 04       		.uleb128 0x4
 517 009f 97020000 		.4byte	.LASF14
 518 00a3 03       		.byte	0x3
 519 00a4 1F       		.byte	0x1f
 520 00a5 5D000000 		.4byte	0x5d
 521 00a9 04       		.uleb128 0x4
 522 00aa D9020000 		.4byte	.LASF15
 523 00ae 03       		.byte	0x3
 524 00af 20       		.byte	0x20
 525 00b0 6F000000 		.4byte	0x6f
 526 00b4 04       		.uleb128 0x4
 527 00b5 20010000 		.4byte	.LASF16
 528 00b9 03       		.byte	0x3
 529 00ba 25       		.byte	0x25
 530 00bb 81000000 		.4byte	0x81
 531 00bf 02       		.uleb128 0x2
 532 00c0 04       		.byte	0x4
 533 00c1 07       		.byte	0x7
 534 00c2 9F020000 		.4byte	.LASF17
 535 00c6 02       		.uleb128 0x2
 536 00c7 01       		.byte	0x1
 537 00c8 08       		.byte	0x8
 538 00c9 B6020000 		.4byte	.LASF18
 539 00cd 02       		.uleb128 0x2
 540 00ce 08       		.byte	0x8
 541 00cf 04       		.byte	0x4
 542 00d0 4C020000 		.4byte	.LASF19
 543 00d4 02       		.uleb128 0x2
 544 00d5 04       		.byte	0x4
 545 00d6 04       		.byte	0x4
 546 00d7 28010000 		.4byte	.LASF20
 547 00db 02       		.uleb128 0x2
 548 00dc 08       		.byte	0x8
 549 00dd 04       		.byte	0x4
 550 00de E9020000 		.4byte	.LASF21
 551 00e2 05       		.uleb128 0x5
 552 00e3 56010000 		.4byte	.LASF22
 553 00e7 04       		.byte	0x4
 554 00e8 A001     		.2byte	0x1a0
 555 00ea 9E000000 		.4byte	0x9e
 556 00ee 05       		.uleb128 0x5
 557 00ef 91020000 		.4byte	.LASF23
 558 00f3 04       		.byte	0x4
 559 00f4 A501     		.2byte	0x1a5
 560 00f6 B4000000 		.4byte	0xb4
 561 00fa 06       		.uleb128 0x6
 562 00fb 04       		.byte	0x4
 563 00fc E2000000 		.4byte	0xe2
 564 0100 07       		.uleb128 0x7
 565 0101 10       		.byte	0x10
 566 0102 04       		.byte	0x4
 567 0103 1505     		.2byte	0x515
 568 0105 3E010000 		.4byte	0x13e
 569 0109 08       		.uleb128 0x8
 570 010a 06030000 		.4byte	.LASF24
ARM GAS  /tmp/ccKvCWNF.s 			page 11


 571 010e 04       		.byte	0x4
 572 010f 1705     		.2byte	0x517
 573 0111 A9000000 		.4byte	0xa9
 574 0115 00       		.byte	0
 575 0116 08       		.uleb128 0x8
 576 0117 3B020000 		.4byte	.LASF25
 577 011b 04       		.byte	0x4
 578 011c 1805     		.2byte	0x518
 579 011e FA000000 		.4byte	0xfa
 580 0122 04       		.byte	0x4
 581 0123 08       		.uleb128 0x8
 582 0124 D1020000 		.4byte	.LASF26
 583 0128 04       		.byte	0x4
 584 0129 1905     		.2byte	0x519
 585 012b FA000000 		.4byte	0xfa
 586 012f 08       		.byte	0x8
 587 0130 08       		.uleb128 0x8
 588 0131 31020000 		.4byte	.LASF27
 589 0135 04       		.byte	0x4
 590 0136 1A05     		.2byte	0x51a
 591 0138 93000000 		.4byte	0x93
 592 013c 0C       		.byte	0xc
 593 013d 00       		.byte	0
 594 013e 05       		.uleb128 0x5
 595 013f 00000000 		.4byte	.LASF28
 596 0143 04       		.byte	0x4
 597 0144 1B05     		.2byte	0x51b
 598 0146 00010000 		.4byte	0x100
 599 014a 09       		.uleb128 0x9
 600 014b 10030000 		.4byte	.LASF41
 601 014f 01       		.byte	0x1
 602 0150 4A       		.byte	0x4a
 603 0151 00000000 		.4byte	.LFB135
 604 0155 1C020000 		.4byte	.LFE135-.LFB135
 605 0159 01       		.uleb128 0x1
 606 015a 9C       		.byte	0x9c
 607 015b CF020000 		.4byte	0x2cf
 608 015f 0A       		.uleb128 0xa
 609 0160 5300     		.ascii	"S\000"
 610 0162 01       		.byte	0x1
 611 0163 4B       		.byte	0x4b
 612 0164 CF020000 		.4byte	0x2cf
 613 0168 00000000 		.4byte	.LLST0
 614 016c 0B       		.uleb128 0xb
 615 016d 01030000 		.4byte	.LASF29
 616 0171 01       		.byte	0x1
 617 0172 4C       		.byte	0x4c
 618 0173 FA000000 		.4byte	0xfa
 619 0177 21000000 		.4byte	.LLST1
 620 017b 0B       		.uleb128 0xb
 621 017c 2C020000 		.4byte	.LASF30
 622 0180 01       		.byte	0x1
 623 0181 4D       		.byte	0x4d
 624 0182 FA000000 		.4byte	0xfa
 625 0186 4F000000 		.4byte	.LLST2
 626 018a 0B       		.uleb128 0xb
 627 018b 4C010000 		.4byte	.LASF31
ARM GAS  /tmp/ccKvCWNF.s 			page 12


 628 018f 01       		.byte	0x1
 629 0190 4E       		.byte	0x4e
 630 0191 A9000000 		.4byte	0xa9
 631 0195 6E000000 		.4byte	.LLST3
 632 0199 0C       		.uleb128 0xc
 633 019a 61636300 		.ascii	"acc\000"
 634 019e 01       		.byte	0x1
 635 019f 50       		.byte	0x50
 636 01a0 EE000000 		.4byte	0xee
 637 01a4 8F000000 		.4byte	.LLST4
 638 01a8 0D       		.uleb128 0xd
 639 01a9 5E020000 		.4byte	.LASF32
 640 01ad 01       		.byte	0x1
 641 01ae 51       		.byte	0x51
 642 01af A9000000 		.4byte	0xa9
 643 01b3 D6030000 		.4byte	.LLST5
 644 01b7 0D       		.uleb128 0xd
 645 01b8 6A010000 		.4byte	.LASF33
 646 01bc 01       		.byte	0x1
 647 01bd 52       		.byte	0x52
 648 01be A9000000 		.4byte	0xa9
 649 01c2 F5030000 		.4byte	.LLST6
 650 01c6 0C       		.uleb128 0xc
 651 01c7 70496E00 		.ascii	"pIn\000"
 652 01cb 01       		.byte	0x1
 653 01cc 53       		.byte	0x53
 654 01cd FA000000 		.4byte	0xfa
 655 01d1 13040000 		.4byte	.LLST7
 656 01d5 0D       		.uleb128 0xd
 657 01d6 47010000 		.4byte	.LASF34
 658 01da 01       		.byte	0x1
 659 01db 54       		.byte	0x54
 660 01dc FA000000 		.4byte	0xfa
 661 01e0 A4040000 		.4byte	.LLST8
 662 01e4 0D       		.uleb128 0xd
 663 01e5 3B020000 		.4byte	.LASF25
 664 01e9 01       		.byte	0x1
 665 01ea 55       		.byte	0x55
 666 01eb FA000000 		.4byte	0xfa
 667 01ef E5040000 		.4byte	.LLST9
 668 01f3 0D       		.uleb128 0xd
 669 01f4 D1020000 		.4byte	.LASF26
 670 01f8 01       		.byte	0x1
 671 01f9 56       		.byte	0x56
 672 01fa FA000000 		.4byte	0xfa
 673 01fe 3C050000 		.4byte	.LLST10
 674 0202 0C       		.uleb128 0xc
 675 0203 586E3100 		.ascii	"Xn1\000"
 676 0207 01       		.byte	0x1
 677 0208 57       		.byte	0x57
 678 0209 E2000000 		.4byte	0xe2
 679 020d A2050000 		.4byte	.LLST11
 680 0211 0C       		.uleb128 0xc
 681 0212 586E3200 		.ascii	"Xn2\000"
 682 0216 01       		.byte	0x1
 683 0217 57       		.byte	0x57
 684 0218 E2000000 		.4byte	0xe2
ARM GAS  /tmp/ccKvCWNF.s 			page 13


 685 021c 0D060000 		.4byte	.LLST12
 686 0220 0C       		.uleb128 0xc
 687 0221 596E3100 		.ascii	"Yn1\000"
 688 0225 01       		.byte	0x1
 689 0226 57       		.byte	0x57
 690 0227 E2000000 		.4byte	0xe2
 691 022b 62060000 		.4byte	.LLST13
 692 022f 0C       		.uleb128 0xc
 693 0230 596E3200 		.ascii	"Yn2\000"
 694 0234 01       		.byte	0x1
 695 0235 57       		.byte	0x57
 696 0236 E2000000 		.4byte	0xe2
 697 023a DD060000 		.4byte	.LLST14
 698 023e 0C       		.uleb128 0xc
 699 023f 623000   		.ascii	"b0\000"
 700 0242 01       		.byte	0x1
 701 0243 58       		.byte	0x58
 702 0244 E2000000 		.4byte	0xe2
 703 0248 32070000 		.4byte	.LLST15
 704 024c 0C       		.uleb128 0xc
 705 024d 623100   		.ascii	"b1\000"
 706 0250 01       		.byte	0x1
 707 0251 58       		.byte	0x58
 708 0252 E2000000 		.4byte	0xe2
 709 0256 72070000 		.4byte	.LLST16
 710 025a 0C       		.uleb128 0xc
 711 025b 623200   		.ascii	"b2\000"
 712 025e 01       		.byte	0x1
 713 025f 58       		.byte	0x58
 714 0260 E2000000 		.4byte	0xe2
 715 0264 B2070000 		.4byte	.LLST17
 716 0268 0C       		.uleb128 0xc
 717 0269 613100   		.ascii	"a1\000"
 718 026c 01       		.byte	0x1
 719 026d 58       		.byte	0x58
 720 026e E2000000 		.4byte	0xe2
 721 0272 F2070000 		.4byte	.LLST18
 722 0276 0C       		.uleb128 0xc
 723 0277 613200   		.ascii	"a2\000"
 724 027a 01       		.byte	0x1
 725 027b 58       		.byte	0x58
 726 027c E2000000 		.4byte	0xe2
 727 0280 33080000 		.4byte	.LLST19
 728 0284 0C       		.uleb128 0xc
 729 0285 586E00   		.ascii	"Xn\000"
 730 0288 01       		.byte	0x1
 731 0289 59       		.byte	0x59
 732 028a E2000000 		.4byte	0xe2
 733 028e 74080000 		.4byte	.LLST20
 734 0292 0D       		.uleb128 0xd
 735 0293 E2020000 		.4byte	.LASF35
 736 0297 01       		.byte	0x1
 737 0298 5A       		.byte	0x5a
 738 0299 A9000000 		.4byte	0xa9
 739 029d C0080000 		.4byte	.LLST21
 740 02a1 0D       		.uleb128 0xd
 741 02a2 41010000 		.4byte	.LASF36
ARM GAS  /tmp/ccKvCWNF.s 			page 14


 742 02a6 01       		.byte	0x1
 743 02a7 5A       		.byte	0x5a
 744 02a8 A9000000 		.4byte	0xa9
 745 02ac 39090000 		.4byte	.LLST22
 746 02b0 0D       		.uleb128 0xd
 747 02b1 C5020000 		.4byte	.LASF37
 748 02b5 01       		.byte	0x1
 749 02b6 5F       		.byte	0x5f
 750 02b7 E2000000 		.4byte	0xe2
 751 02bb 66090000 		.4byte	.LLST23
 752 02bf 0D       		.uleb128 0xd
 753 02c0 CB020000 		.4byte	.LASF38
 754 02c4 01       		.byte	0x1
 755 02c5 5F       		.byte	0x5f
 756 02c6 E2000000 		.4byte	0xe2
 757 02ca 9A090000 		.4byte	.LLST24
 758 02ce 00       		.byte	0
 759 02cf 06       		.uleb128 0x6
 760 02d0 04       		.byte	0x4
 761 02d1 D5020000 		.4byte	0x2d5
 762 02d5 0E       		.uleb128 0xe
 763 02d6 3E010000 		.4byte	0x13e
 764 02da 00       		.byte	0
 765              		.section	.debug_abbrev,"",%progbits
 766              	.Ldebug_abbrev0:
 767 0000 01       		.uleb128 0x1
 768 0001 11       		.uleb128 0x11
 769 0002 01       		.byte	0x1
 770 0003 25       		.uleb128 0x25
 771 0004 0E       		.uleb128 0xe
 772 0005 13       		.uleb128 0x13
 773 0006 0B       		.uleb128 0xb
 774 0007 03       		.uleb128 0x3
 775 0008 0E       		.uleb128 0xe
 776 0009 11       		.uleb128 0x11
 777 000a 01       		.uleb128 0x1
 778 000b 12       		.uleb128 0x12
 779 000c 06       		.uleb128 0x6
 780 000d 10       		.uleb128 0x10
 781 000e 17       		.uleb128 0x17
 782 000f 00       		.byte	0
 783 0010 00       		.byte	0
 784 0011 02       		.uleb128 0x2
 785 0012 24       		.uleb128 0x24
 786 0013 00       		.byte	0
 787 0014 0B       		.uleb128 0xb
 788 0015 0B       		.uleb128 0xb
 789 0016 3E       		.uleb128 0x3e
 790 0017 0B       		.uleb128 0xb
 791 0018 03       		.uleb128 0x3
 792 0019 0E       		.uleb128 0xe
 793 001a 00       		.byte	0
 794 001b 00       		.byte	0
 795 001c 03       		.uleb128 0x3
 796 001d 24       		.uleb128 0x24
 797 001e 00       		.byte	0
 798 001f 0B       		.uleb128 0xb
ARM GAS  /tmp/ccKvCWNF.s 			page 15


 799 0020 0B       		.uleb128 0xb
 800 0021 3E       		.uleb128 0x3e
 801 0022 0B       		.uleb128 0xb
 802 0023 03       		.uleb128 0x3
 803 0024 08       		.uleb128 0x8
 804 0025 00       		.byte	0
 805 0026 00       		.byte	0
 806 0027 04       		.uleb128 0x4
 807 0028 16       		.uleb128 0x16
 808 0029 00       		.byte	0
 809 002a 03       		.uleb128 0x3
 810 002b 0E       		.uleb128 0xe
 811 002c 3A       		.uleb128 0x3a
 812 002d 0B       		.uleb128 0xb
 813 002e 3B       		.uleb128 0x3b
 814 002f 0B       		.uleb128 0xb
 815 0030 49       		.uleb128 0x49
 816 0031 13       		.uleb128 0x13
 817 0032 00       		.byte	0
 818 0033 00       		.byte	0
 819 0034 05       		.uleb128 0x5
 820 0035 16       		.uleb128 0x16
 821 0036 00       		.byte	0
 822 0037 03       		.uleb128 0x3
 823 0038 0E       		.uleb128 0xe
 824 0039 3A       		.uleb128 0x3a
 825 003a 0B       		.uleb128 0xb
 826 003b 3B       		.uleb128 0x3b
 827 003c 05       		.uleb128 0x5
 828 003d 49       		.uleb128 0x49
 829 003e 13       		.uleb128 0x13
 830 003f 00       		.byte	0
 831 0040 00       		.byte	0
 832 0041 06       		.uleb128 0x6
 833 0042 0F       		.uleb128 0xf
 834 0043 00       		.byte	0
 835 0044 0B       		.uleb128 0xb
 836 0045 0B       		.uleb128 0xb
 837 0046 49       		.uleb128 0x49
 838 0047 13       		.uleb128 0x13
 839 0048 00       		.byte	0
 840 0049 00       		.byte	0
 841 004a 07       		.uleb128 0x7
 842 004b 13       		.uleb128 0x13
 843 004c 01       		.byte	0x1
 844 004d 0B       		.uleb128 0xb
 845 004e 0B       		.uleb128 0xb
 846 004f 3A       		.uleb128 0x3a
 847 0050 0B       		.uleb128 0xb
 848 0051 3B       		.uleb128 0x3b
 849 0052 05       		.uleb128 0x5
 850 0053 01       		.uleb128 0x1
 851 0054 13       		.uleb128 0x13
 852 0055 00       		.byte	0
 853 0056 00       		.byte	0
 854 0057 08       		.uleb128 0x8
 855 0058 0D       		.uleb128 0xd
ARM GAS  /tmp/ccKvCWNF.s 			page 16


 856 0059 00       		.byte	0
 857 005a 03       		.uleb128 0x3
 858 005b 0E       		.uleb128 0xe
 859 005c 3A       		.uleb128 0x3a
 860 005d 0B       		.uleb128 0xb
 861 005e 3B       		.uleb128 0x3b
 862 005f 05       		.uleb128 0x5
 863 0060 49       		.uleb128 0x49
 864 0061 13       		.uleb128 0x13
 865 0062 38       		.uleb128 0x38
 866 0063 0B       		.uleb128 0xb
 867 0064 00       		.byte	0
 868 0065 00       		.byte	0
 869 0066 09       		.uleb128 0x9
 870 0067 2E       		.uleb128 0x2e
 871 0068 01       		.byte	0x1
 872 0069 3F       		.uleb128 0x3f
 873 006a 19       		.uleb128 0x19
 874 006b 03       		.uleb128 0x3
 875 006c 0E       		.uleb128 0xe
 876 006d 3A       		.uleb128 0x3a
 877 006e 0B       		.uleb128 0xb
 878 006f 3B       		.uleb128 0x3b
 879 0070 0B       		.uleb128 0xb
 880 0071 27       		.uleb128 0x27
 881 0072 19       		.uleb128 0x19
 882 0073 11       		.uleb128 0x11
 883 0074 01       		.uleb128 0x1
 884 0075 12       		.uleb128 0x12
 885 0076 06       		.uleb128 0x6
 886 0077 40       		.uleb128 0x40
 887 0078 18       		.uleb128 0x18
 888 0079 9742     		.uleb128 0x2117
 889 007b 19       		.uleb128 0x19
 890 007c 01       		.uleb128 0x1
 891 007d 13       		.uleb128 0x13
 892 007e 00       		.byte	0
 893 007f 00       		.byte	0
 894 0080 0A       		.uleb128 0xa
 895 0081 05       		.uleb128 0x5
 896 0082 00       		.byte	0
 897 0083 03       		.uleb128 0x3
 898 0084 08       		.uleb128 0x8
 899 0085 3A       		.uleb128 0x3a
 900 0086 0B       		.uleb128 0xb
 901 0087 3B       		.uleb128 0x3b
 902 0088 0B       		.uleb128 0xb
 903 0089 49       		.uleb128 0x49
 904 008a 13       		.uleb128 0x13
 905 008b 02       		.uleb128 0x2
 906 008c 17       		.uleb128 0x17
 907 008d 00       		.byte	0
 908 008e 00       		.byte	0
 909 008f 0B       		.uleb128 0xb
 910 0090 05       		.uleb128 0x5
 911 0091 00       		.byte	0
 912 0092 03       		.uleb128 0x3
ARM GAS  /tmp/ccKvCWNF.s 			page 17


 913 0093 0E       		.uleb128 0xe
 914 0094 3A       		.uleb128 0x3a
 915 0095 0B       		.uleb128 0xb
 916 0096 3B       		.uleb128 0x3b
 917 0097 0B       		.uleb128 0xb
 918 0098 49       		.uleb128 0x49
 919 0099 13       		.uleb128 0x13
 920 009a 02       		.uleb128 0x2
 921 009b 17       		.uleb128 0x17
 922 009c 00       		.byte	0
 923 009d 00       		.byte	0
 924 009e 0C       		.uleb128 0xc
 925 009f 34       		.uleb128 0x34
 926 00a0 00       		.byte	0
 927 00a1 03       		.uleb128 0x3
 928 00a2 08       		.uleb128 0x8
 929 00a3 3A       		.uleb128 0x3a
 930 00a4 0B       		.uleb128 0xb
 931 00a5 3B       		.uleb128 0x3b
 932 00a6 0B       		.uleb128 0xb
 933 00a7 49       		.uleb128 0x49
 934 00a8 13       		.uleb128 0x13
 935 00a9 02       		.uleb128 0x2
 936 00aa 17       		.uleb128 0x17
 937 00ab 00       		.byte	0
 938 00ac 00       		.byte	0
 939 00ad 0D       		.uleb128 0xd
 940 00ae 34       		.uleb128 0x34
 941 00af 00       		.byte	0
 942 00b0 03       		.uleb128 0x3
 943 00b1 0E       		.uleb128 0xe
 944 00b2 3A       		.uleb128 0x3a
 945 00b3 0B       		.uleb128 0xb
 946 00b4 3B       		.uleb128 0x3b
 947 00b5 0B       		.uleb128 0xb
 948 00b6 49       		.uleb128 0x49
 949 00b7 13       		.uleb128 0x13
 950 00b8 02       		.uleb128 0x2
 951 00b9 17       		.uleb128 0x17
 952 00ba 00       		.byte	0
 953 00bb 00       		.byte	0
 954 00bc 0E       		.uleb128 0xe
 955 00bd 26       		.uleb128 0x26
 956 00be 00       		.byte	0
 957 00bf 49       		.uleb128 0x49
 958 00c0 13       		.uleb128 0x13
 959 00c1 00       		.byte	0
 960 00c2 00       		.byte	0
 961 00c3 00       		.byte	0
 962              		.section	.debug_loc,"",%progbits
 963              	.Ldebug_loc0:
 964              	.LLST0:
 965 0000 00000000 		.4byte	.LVL0-.Ltext0
 966 0004 08000000 		.4byte	.LVL1-.Ltext0
 967 0008 0100     		.2byte	0x1
 968 000a 50       		.byte	0x50
 969 000b 08000000 		.4byte	.LVL1-.Ltext0
ARM GAS  /tmp/ccKvCWNF.s 			page 18


 970 000f 1C020000 		.4byte	.LFE135-.Ltext0
 971 0013 0400     		.2byte	0x4
 972 0015 F3       		.byte	0xf3
 973 0016 01       		.uleb128 0x1
 974 0017 50       		.byte	0x50
 975 0018 9F       		.byte	0x9f
 976 0019 00000000 		.4byte	0
 977 001d 00000000 		.4byte	0
 978              	.LLST1:
 979 0021 00000000 		.4byte	.LVL0-.Ltext0
 980 0025 26000000 		.4byte	.LVL3-.Ltext0
 981 0029 0100     		.2byte	0x1
 982 002b 51       		.byte	0x51
 983 002c 26000000 		.4byte	.LVL3-.Ltext0
 984 0030 40000000 		.4byte	.LVL6-.Ltext0
 985 0034 0300     		.2byte	0x3
 986 0036 91       		.byte	0x91
 987 0037 B07F     		.sleb128 -80
 988 0039 40000000 		.4byte	.LVL6-.Ltext0
 989 003d 1C020000 		.4byte	.LFE135-.Ltext0
 990 0041 0400     		.2byte	0x4
 991 0043 F3       		.byte	0xf3
 992 0044 01       		.uleb128 0x1
 993 0045 51       		.byte	0x51
 994 0046 9F       		.byte	0x9f
 995 0047 00000000 		.4byte	0
 996 004b 00000000 		.4byte	0
 997              	.LLST2:
 998 004f 00000000 		.4byte	.LVL0-.Ltext0
 999 0053 40000000 		.4byte	.LVL6-.Ltext0
 1000 0057 0100     		.2byte	0x1
 1001 0059 52       		.byte	0x52
 1002 005a 40000000 		.4byte	.LVL6-.Ltext0
 1003 005e 1C020000 		.4byte	.LFE135-.Ltext0
 1004 0062 0200     		.2byte	0x2
 1005 0064 91       		.byte	0x91
 1006 0065 40       		.sleb128 -64
 1007 0066 00000000 		.4byte	0
 1008 006a 00000000 		.4byte	0
 1009              	.LLST3:
 1010 006e 00000000 		.4byte	.LVL0-.Ltext0
 1011 0072 16000000 		.4byte	.LVL2-.Ltext0
 1012 0076 0100     		.2byte	0x1
 1013 0078 53       		.byte	0x53
 1014 0079 16000000 		.4byte	.LVL2-.Ltext0
 1015 007d 1C020000 		.4byte	.LFE135-.Ltext0
 1016 0081 0400     		.2byte	0x4
 1017 0083 F3       		.byte	0xf3
 1018 0084 01       		.uleb128 0x1
 1019 0085 53       		.byte	0x53
 1020 0086 9F       		.byte	0x9f
 1021 0087 00000000 		.4byte	0
 1022 008b 00000000 		.4byte	0
 1023              	.LLST4:
 1024 008f AA000000 		.4byte	.LVL23-.Ltext0
 1025 0093 C4000000 		.4byte	.LVL28-.Ltext0
 1026 0097 0600     		.2byte	0x6
ARM GAS  /tmp/ccKvCWNF.s 			page 19


 1027 0099 56       		.byte	0x56
 1028 009a 93       		.byte	0x93
 1029 009b 04       		.uleb128 0x4
 1030 009c 57       		.byte	0x57
 1031 009d 93       		.byte	0x93
 1032 009e 04       		.uleb128 0x4
 1033 009f C4000000 		.4byte	.LVL28-.Ltext0
 1034 00a3 D8000000 		.4byte	.LVL32-.Ltext0
 1035 00a7 4A00     		.2byte	0x4a
 1036 00a9 75       		.byte	0x75
 1037 00aa 00       		.sleb128 0
 1038 00ab F7       		.byte	0xf7
 1039 00ac 28       		.uleb128 0x28
 1040 00ad F7       		.byte	0xf7
 1041 00ae 21       		.uleb128 0x21
 1042 00af 79       		.byte	0x79
 1043 00b0 00       		.sleb128 0
 1044 00b1 F7       		.byte	0xf7
 1045 00b2 28       		.uleb128 0x28
 1046 00b3 F7       		.byte	0xf7
 1047 00b4 21       		.uleb128 0x21
 1048 00b5 1E       		.byte	0x1e
 1049 00b6 73       		.byte	0x73
 1050 00b7 00       		.sleb128 0
 1051 00b8 F7       		.byte	0xf7
 1052 00b9 28       		.uleb128 0x28
 1053 00ba F7       		.byte	0xf7
 1054 00bb 21       		.uleb128 0x21
 1055 00bc 7A       		.byte	0x7a
 1056 00bd 00       		.sleb128 0
 1057 00be F7       		.byte	0xf7
 1058 00bf 28       		.uleb128 0x28
 1059 00c0 F7       		.byte	0xf7
 1060 00c1 21       		.uleb128 0x21
 1061 00c2 1E       		.byte	0x1e
 1062 00c3 74       		.byte	0x74
 1063 00c4 00       		.sleb128 0
 1064 00c5 F7       		.byte	0xf7
 1065 00c6 28       		.uleb128 0x28
 1066 00c7 F7       		.byte	0xf7
 1067 00c8 21       		.uleb128 0x21
 1068 00c9 91       		.byte	0x91
 1069 00ca 907F     		.sleb128 -112
 1070 00cc 06       		.byte	0x6
 1071 00cd F7       		.byte	0xf7
 1072 00ce 28       		.uleb128 0x28
 1073 00cf F7       		.byte	0xf7
 1074 00d0 21       		.uleb128 0x21
 1075 00d1 1E       		.byte	0x1e
 1076 00d2 7E       		.byte	0x7e
 1077 00d3 00       		.sleb128 0
 1078 00d4 F7       		.byte	0xf7
 1079 00d5 28       		.uleb128 0x28
 1080 00d6 F7       		.byte	0xf7
 1081 00d7 21       		.uleb128 0x21
 1082 00d8 91       		.byte	0x91
 1083 00d9 8C7F     		.sleb128 -116
ARM GAS  /tmp/ccKvCWNF.s 			page 20


 1084 00db 06       		.byte	0x6
 1085 00dc F7       		.byte	0xf7
 1086 00dd 28       		.uleb128 0x28
 1087 00de F7       		.byte	0xf7
 1088 00df 21       		.uleb128 0x21
 1089 00e0 1E       		.byte	0x1e
 1090 00e1 70       		.byte	0x70
 1091 00e2 00       		.sleb128 0
 1092 00e3 F7       		.byte	0xf7
 1093 00e4 28       		.uleb128 0x28
 1094 00e5 F7       		.byte	0xf7
 1095 00e6 21       		.uleb128 0x21
 1096 00e7 71       		.byte	0x71
 1097 00e8 00       		.sleb128 0
 1098 00e9 F7       		.byte	0xf7
 1099 00ea 28       		.uleb128 0x28
 1100 00eb F7       		.byte	0xf7
 1101 00ec 21       		.uleb128 0x21
 1102 00ed 1E       		.byte	0x1e
 1103 00ee 22       		.byte	0x22
 1104 00ef 22       		.byte	0x22
 1105 00f0 22       		.byte	0x22
 1106 00f1 22       		.byte	0x22
 1107 00f2 9F       		.byte	0x9f
 1108 00f3 D8000000 		.4byte	.LVL32-.Ltext0
 1109 00f7 F6000000 		.4byte	.LVL39-.Ltext0
 1110 00fb 0600     		.2byte	0x6
 1111 00fd 54       		.byte	0x54
 1112 00fe 93       		.byte	0x93
 1113 00ff 04       		.uleb128 0x4
 1114 0100 55       		.byte	0x55
 1115 0101 93       		.byte	0x93
 1116 0102 04       		.uleb128 0x4
 1117 0103 08010000 		.4byte	.LVL44-.Ltext0
 1118 0107 26010000 		.4byte	.LVL50-.Ltext0
 1119 010b 0600     		.2byte	0x6
 1120 010d 52       		.byte	0x52
 1121 010e 93       		.byte	0x93
 1122 010f 04       		.uleb128 0x4
 1123 0110 53       		.byte	0x53
 1124 0111 93       		.byte	0x93
 1125 0112 04       		.uleb128 0x4
 1126 0113 26010000 		.4byte	.LVL50-.Ltext0
 1127 0117 2E010000 		.4byte	.LVL52-.Ltext0
 1128 011b 4E00     		.2byte	0x4e
 1129 011d 77       		.byte	0x77
 1130 011e 00       		.sleb128 0
 1131 011f F7       		.byte	0xf7
 1132 0120 28       		.uleb128 0x28
 1133 0121 F7       		.byte	0xf7
 1134 0122 21       		.uleb128 0x21
 1135 0123 79       		.byte	0x79
 1136 0124 00       		.sleb128 0
 1137 0125 F7       		.byte	0xf7
 1138 0126 28       		.uleb128 0x28
 1139 0127 F7       		.byte	0xf7
 1140 0128 21       		.uleb128 0x21
ARM GAS  /tmp/ccKvCWNF.s 			page 21


 1141 0129 1E       		.byte	0x1e
 1142 012a 71       		.byte	0x71
 1143 012b 00       		.sleb128 0
 1144 012c F7       		.byte	0xf7
 1145 012d 28       		.uleb128 0x28
 1146 012e F7       		.byte	0xf7
 1147 012f 21       		.uleb128 0x21
 1148 0130 7A       		.byte	0x7a
 1149 0131 00       		.sleb128 0
 1150 0132 F7       		.byte	0xf7
 1151 0133 28       		.uleb128 0x28
 1152 0134 F7       		.byte	0xf7
 1153 0135 21       		.uleb128 0x21
 1154 0136 1E       		.byte	0x1e
 1155 0137 91       		.byte	0x91
 1156 0138 A07F     		.sleb128 -96
 1157 013a 06       		.byte	0x6
 1158 013b F7       		.byte	0xf7
 1159 013c 28       		.uleb128 0x28
 1160 013d F7       		.byte	0xf7
 1161 013e 21       		.uleb128 0x21
 1162 013f 91       		.byte	0x91
 1163 0140 907F     		.sleb128 -112
 1164 0142 06       		.byte	0x6
 1165 0143 F7       		.byte	0xf7
 1166 0144 28       		.uleb128 0x28
 1167 0145 F7       		.byte	0xf7
 1168 0146 21       		.uleb128 0x21
 1169 0147 1E       		.byte	0x1e
 1170 0148 76       		.byte	0x76
 1171 0149 00       		.sleb128 0
 1172 014a F7       		.byte	0xf7
 1173 014b 28       		.uleb128 0x28
 1174 014c F7       		.byte	0xf7
 1175 014d 21       		.uleb128 0x21
 1176 014e 91       		.byte	0x91
 1177 014f 8C7F     		.sleb128 -116
 1178 0151 06       		.byte	0x6
 1179 0152 F7       		.byte	0xf7
 1180 0153 28       		.uleb128 0x28
 1181 0154 F7       		.byte	0xf7
 1182 0155 21       		.uleb128 0x21
 1183 0156 1E       		.byte	0x1e
 1184 0157 74       		.byte	0x74
 1185 0158 00       		.sleb128 0
 1186 0159 F7       		.byte	0xf7
 1187 015a 28       		.uleb128 0x28
 1188 015b F7       		.byte	0xf7
 1189 015c 21       		.uleb128 0x21
 1190 015d 91       		.byte	0x91
 1191 015e 987F     		.sleb128 -104
 1192 0160 06       		.byte	0x6
 1193 0161 F7       		.byte	0xf7
 1194 0162 28       		.uleb128 0x28
 1195 0163 F7       		.byte	0xf7
 1196 0164 21       		.uleb128 0x21
 1197 0165 1E       		.byte	0x1e
ARM GAS  /tmp/ccKvCWNF.s 			page 22


 1198 0166 22       		.byte	0x22
 1199 0167 22       		.byte	0x22
 1200 0168 22       		.byte	0x22
 1201 0169 22       		.byte	0x22
 1202 016a 9F       		.byte	0x9f
 1203 016b 2E010000 		.4byte	.LVL52-.Ltext0
 1204 016f 38010000 		.4byte	.LVL55-.Ltext0
 1205 0173 4F00     		.2byte	0x4f
 1206 0175 73       		.byte	0x73
 1207 0176 70       		.sleb128 -16
 1208 0177 06       		.byte	0x6
 1209 0178 F7       		.byte	0xf7
 1210 0179 28       		.uleb128 0x28
 1211 017a F7       		.byte	0xf7
 1212 017b 21       		.uleb128 0x21
 1213 017c 79       		.byte	0x79
 1214 017d 00       		.sleb128 0
 1215 017e F7       		.byte	0xf7
 1216 017f 28       		.uleb128 0x28
 1217 0180 F7       		.byte	0xf7
 1218 0181 21       		.uleb128 0x21
 1219 0182 1E       		.byte	0x1e
 1220 0183 71       		.byte	0x71
 1221 0184 00       		.sleb128 0
 1222 0185 F7       		.byte	0xf7
 1223 0186 28       		.uleb128 0x28
 1224 0187 F7       		.byte	0xf7
 1225 0188 21       		.uleb128 0x21
 1226 0189 7A       		.byte	0x7a
 1227 018a 00       		.sleb128 0
 1228 018b F7       		.byte	0xf7
 1229 018c 28       		.uleb128 0x28
 1230 018d F7       		.byte	0xf7
 1231 018e 21       		.uleb128 0x21
 1232 018f 1E       		.byte	0x1e
 1233 0190 91       		.byte	0x91
 1234 0191 A07F     		.sleb128 -96
 1235 0193 06       		.byte	0x6
 1236 0194 F7       		.byte	0xf7
 1237 0195 28       		.uleb128 0x28
 1238 0196 F7       		.byte	0xf7
 1239 0197 21       		.uleb128 0x21
 1240 0198 91       		.byte	0x91
 1241 0199 907F     		.sleb128 -112
 1242 019b 06       		.byte	0x6
 1243 019c F7       		.byte	0xf7
 1244 019d 28       		.uleb128 0x28
 1245 019e F7       		.byte	0xf7
 1246 019f 21       		.uleb128 0x21
 1247 01a0 1E       		.byte	0x1e
 1248 01a1 76       		.byte	0x76
 1249 01a2 00       		.sleb128 0
 1250 01a3 F7       		.byte	0xf7
 1251 01a4 28       		.uleb128 0x28
 1252 01a5 F7       		.byte	0xf7
 1253 01a6 21       		.uleb128 0x21
 1254 01a7 91       		.byte	0x91
ARM GAS  /tmp/ccKvCWNF.s 			page 23


 1255 01a8 8C7F     		.sleb128 -116
 1256 01aa 06       		.byte	0x6
 1257 01ab F7       		.byte	0xf7
 1258 01ac 28       		.uleb128 0x28
 1259 01ad F7       		.byte	0xf7
 1260 01ae 21       		.uleb128 0x21
 1261 01af 1E       		.byte	0x1e
 1262 01b0 74       		.byte	0x74
 1263 01b1 00       		.sleb128 0
 1264 01b2 F7       		.byte	0xf7
 1265 01b3 28       		.uleb128 0x28
 1266 01b4 F7       		.byte	0xf7
 1267 01b5 21       		.uleb128 0x21
 1268 01b6 91       		.byte	0x91
 1269 01b7 987F     		.sleb128 -104
 1270 01b9 06       		.byte	0x6
 1271 01ba F7       		.byte	0xf7
 1272 01bb 28       		.uleb128 0x28
 1273 01bc F7       		.byte	0xf7
 1274 01bd 21       		.uleb128 0x21
 1275 01be 1E       		.byte	0x1e
 1276 01bf 22       		.byte	0x22
 1277 01c0 22       		.byte	0x22
 1278 01c1 22       		.byte	0x22
 1279 01c2 22       		.byte	0x22
 1280 01c3 9F       		.byte	0x9f
 1281 01c4 38010000 		.4byte	.LVL55-.Ltext0
 1282 01c8 3C010000 		.4byte	.LVL56-.Ltext0
 1283 01cc 5300     		.2byte	0x53
 1284 01ce 91       		.byte	0x91
 1285 01cf 947F     		.sleb128 -108
 1286 01d1 06       		.byte	0x6
 1287 01d2 40       		.byte	0x40
 1288 01d3 1C       		.byte	0x1c
 1289 01d4 06       		.byte	0x6
 1290 01d5 F7       		.byte	0xf7
 1291 01d6 28       		.uleb128 0x28
 1292 01d7 F7       		.byte	0xf7
 1293 01d8 21       		.uleb128 0x21
 1294 01d9 79       		.byte	0x79
 1295 01da 00       		.sleb128 0
 1296 01db F7       		.byte	0xf7
 1297 01dc 28       		.uleb128 0x28
 1298 01dd F7       		.byte	0xf7
 1299 01de 21       		.uleb128 0x21
 1300 01df 1E       		.byte	0x1e
 1301 01e0 71       		.byte	0x71
 1302 01e1 00       		.sleb128 0
 1303 01e2 F7       		.byte	0xf7
 1304 01e3 28       		.uleb128 0x28
 1305 01e4 F7       		.byte	0xf7
 1306 01e5 21       		.uleb128 0x21
 1307 01e6 7A       		.byte	0x7a
 1308 01e7 00       		.sleb128 0
 1309 01e8 F7       		.byte	0xf7
 1310 01e9 28       		.uleb128 0x28
 1311 01ea F7       		.byte	0xf7
ARM GAS  /tmp/ccKvCWNF.s 			page 24


 1312 01eb 21       		.uleb128 0x21
 1313 01ec 1E       		.byte	0x1e
 1314 01ed 91       		.byte	0x91
 1315 01ee A07F     		.sleb128 -96
 1316 01f0 06       		.byte	0x6
 1317 01f1 F7       		.byte	0xf7
 1318 01f2 28       		.uleb128 0x28
 1319 01f3 F7       		.byte	0xf7
 1320 01f4 21       		.uleb128 0x21
 1321 01f5 91       		.byte	0x91
 1322 01f6 907F     		.sleb128 -112
 1323 01f8 06       		.byte	0x6
 1324 01f9 F7       		.byte	0xf7
 1325 01fa 28       		.uleb128 0x28
 1326 01fb F7       		.byte	0xf7
 1327 01fc 21       		.uleb128 0x21
 1328 01fd 1E       		.byte	0x1e
 1329 01fe 76       		.byte	0x76
 1330 01ff 00       		.sleb128 0
 1331 0200 F7       		.byte	0xf7
 1332 0201 28       		.uleb128 0x28
 1333 0202 F7       		.byte	0xf7
 1334 0203 21       		.uleb128 0x21
 1335 0204 91       		.byte	0x91
 1336 0205 8C7F     		.sleb128 -116
 1337 0207 06       		.byte	0x6
 1338 0208 F7       		.byte	0xf7
 1339 0209 28       		.uleb128 0x28
 1340 020a F7       		.byte	0xf7
 1341 020b 21       		.uleb128 0x21
 1342 020c 1E       		.byte	0x1e
 1343 020d 74       		.byte	0x74
 1344 020e 00       		.sleb128 0
 1345 020f F7       		.byte	0xf7
 1346 0210 28       		.uleb128 0x28
 1347 0211 F7       		.byte	0xf7
 1348 0212 21       		.uleb128 0x21
 1349 0213 91       		.byte	0x91
 1350 0214 987F     		.sleb128 -104
 1351 0216 06       		.byte	0x6
 1352 0217 F7       		.byte	0xf7
 1353 0218 28       		.uleb128 0x28
 1354 0219 F7       		.byte	0xf7
 1355 021a 21       		.uleb128 0x21
 1356 021b 1E       		.byte	0x1e
 1357 021c 22       		.byte	0x22
 1358 021d 22       		.byte	0x22
 1359 021e 22       		.byte	0x22
 1360 021f 22       		.byte	0x22
 1361 0220 9F       		.byte	0x9f
 1362 0221 3C010000 		.4byte	.LVL56-.Ltext0
 1363 0225 52010000 		.4byte	.LVL61-.Ltext0
 1364 0229 0600     		.2byte	0x6
 1365 022b 52       		.byte	0x52
 1366 022c 93       		.byte	0x93
 1367 022d 04       		.uleb128 0x4
 1368 022e 53       		.byte	0x53
ARM GAS  /tmp/ccKvCWNF.s 			page 25


 1369 022f 93       		.byte	0x93
 1370 0230 04       		.uleb128 0x4
 1371 0231 52010000 		.4byte	.LVL61-.Ltext0
 1372 0235 56010000 		.4byte	.LVL62-.Ltext0
 1373 0239 4C00     		.2byte	0x4c
 1374 023b 71       		.byte	0x71
 1375 023c 00       		.sleb128 0
 1376 023d F7       		.byte	0xf7
 1377 023e 28       		.uleb128 0x28
 1378 023f F7       		.byte	0xf7
 1379 0240 21       		.uleb128 0x21
 1380 0241 79       		.byte	0x79
 1381 0242 00       		.sleb128 0
 1382 0243 F7       		.byte	0xf7
 1383 0244 28       		.uleb128 0x28
 1384 0245 F7       		.byte	0xf7
 1385 0246 21       		.uleb128 0x21
 1386 0247 1E       		.byte	0x1e
 1387 0248 75       		.byte	0x75
 1388 0249 00       		.sleb128 0
 1389 024a F7       		.byte	0xf7
 1390 024b 28       		.uleb128 0x28
 1391 024c F7       		.byte	0xf7
 1392 024d 21       		.uleb128 0x21
 1393 024e 7A       		.byte	0x7a
 1394 024f 00       		.sleb128 0
 1395 0250 F7       		.byte	0xf7
 1396 0251 28       		.uleb128 0x28
 1397 0252 F7       		.byte	0xf7
 1398 0253 21       		.uleb128 0x21
 1399 0254 1E       		.byte	0x1e
 1400 0255 76       		.byte	0x76
 1401 0256 00       		.sleb128 0
 1402 0257 F7       		.byte	0xf7
 1403 0258 28       		.uleb128 0x28
 1404 0259 F7       		.byte	0xf7
 1405 025a 21       		.uleb128 0x21
 1406 025b 91       		.byte	0x91
 1407 025c 907F     		.sleb128 -112
 1408 025e 06       		.byte	0x6
 1409 025f F7       		.byte	0xf7
 1410 0260 28       		.uleb128 0x28
 1411 0261 F7       		.byte	0xf7
 1412 0262 21       		.uleb128 0x21
 1413 0263 1E       		.byte	0x1e
 1414 0264 74       		.byte	0x74
 1415 0265 00       		.sleb128 0
 1416 0266 F7       		.byte	0xf7
 1417 0267 28       		.uleb128 0x28
 1418 0268 F7       		.byte	0xf7
 1419 0269 21       		.uleb128 0x21
 1420 026a 91       		.byte	0x91
 1421 026b 8C7F     		.sleb128 -116
 1422 026d 06       		.byte	0x6
 1423 026e F7       		.byte	0xf7
 1424 026f 28       		.uleb128 0x28
 1425 0270 F7       		.byte	0xf7
ARM GAS  /tmp/ccKvCWNF.s 			page 26


 1426 0271 21       		.uleb128 0x21
 1427 0272 1E       		.byte	0x1e
 1428 0273 7E       		.byte	0x7e
 1429 0274 00       		.sleb128 0
 1430 0275 F7       		.byte	0xf7
 1431 0276 28       		.uleb128 0x28
 1432 0277 F7       		.byte	0xf7
 1433 0278 21       		.uleb128 0x21
 1434 0279 91       		.byte	0x91
 1435 027a 987F     		.sleb128 -104
 1436 027c 06       		.byte	0x6
 1437 027d F7       		.byte	0xf7
 1438 027e 28       		.uleb128 0x28
 1439 027f F7       		.byte	0xf7
 1440 0280 21       		.uleb128 0x21
 1441 0281 1E       		.byte	0x1e
 1442 0282 22       		.byte	0x22
 1443 0283 22       		.byte	0x22
 1444 0284 22       		.byte	0x22
 1445 0285 22       		.byte	0x22
 1446 0286 9F       		.byte	0x9f
 1447 0287 56010000 		.4byte	.LVL62-.Ltext0
 1448 028b 64010000 		.4byte	.LVL64-.Ltext0
 1449 028f 5100     		.2byte	0x51
 1450 0291 91       		.byte	0x91
 1451 0292 947F     		.sleb128 -108
 1452 0294 06       		.byte	0x6
 1453 0295 3C       		.byte	0x3c
 1454 0296 1C       		.byte	0x1c
 1455 0297 06       		.byte	0x6
 1456 0298 F7       		.byte	0xf7
 1457 0299 28       		.uleb128 0x28
 1458 029a F7       		.byte	0xf7
 1459 029b 21       		.uleb128 0x21
 1460 029c 79       		.byte	0x79
 1461 029d 00       		.sleb128 0
 1462 029e F7       		.byte	0xf7
 1463 029f 28       		.uleb128 0x28
 1464 02a0 F7       		.byte	0xf7
 1465 02a1 21       		.uleb128 0x21
 1466 02a2 1E       		.byte	0x1e
 1467 02a3 75       		.byte	0x75
 1468 02a4 00       		.sleb128 0
 1469 02a5 F7       		.byte	0xf7
 1470 02a6 28       		.uleb128 0x28
 1471 02a7 F7       		.byte	0xf7
 1472 02a8 21       		.uleb128 0x21
 1473 02a9 7A       		.byte	0x7a
 1474 02aa 00       		.sleb128 0
 1475 02ab F7       		.byte	0xf7
 1476 02ac 28       		.uleb128 0x28
 1477 02ad F7       		.byte	0xf7
 1478 02ae 21       		.uleb128 0x21
 1479 02af 1E       		.byte	0x1e
 1480 02b0 76       		.byte	0x76
 1481 02b1 00       		.sleb128 0
 1482 02b2 F7       		.byte	0xf7
ARM GAS  /tmp/ccKvCWNF.s 			page 27


 1483 02b3 28       		.uleb128 0x28
 1484 02b4 F7       		.byte	0xf7
 1485 02b5 21       		.uleb128 0x21
 1486 02b6 91       		.byte	0x91
 1487 02b7 907F     		.sleb128 -112
 1488 02b9 06       		.byte	0x6
 1489 02ba F7       		.byte	0xf7
 1490 02bb 28       		.uleb128 0x28
 1491 02bc F7       		.byte	0xf7
 1492 02bd 21       		.uleb128 0x21
 1493 02be 1E       		.byte	0x1e
 1494 02bf 74       		.byte	0x74
 1495 02c0 00       		.sleb128 0
 1496 02c1 F7       		.byte	0xf7
 1497 02c2 28       		.uleb128 0x28
 1498 02c3 F7       		.byte	0xf7
 1499 02c4 21       		.uleb128 0x21
 1500 02c5 91       		.byte	0x91
 1501 02c6 8C7F     		.sleb128 -116
 1502 02c8 06       		.byte	0x6
 1503 02c9 F7       		.byte	0xf7
 1504 02ca 28       		.uleb128 0x28
 1505 02cb F7       		.byte	0xf7
 1506 02cc 21       		.uleb128 0x21
 1507 02cd 1E       		.byte	0x1e
 1508 02ce 7E       		.byte	0x7e
 1509 02cf 00       		.sleb128 0
 1510 02d0 F7       		.byte	0xf7
 1511 02d1 28       		.uleb128 0x28
 1512 02d2 F7       		.byte	0xf7
 1513 02d3 21       		.uleb128 0x21
 1514 02d4 91       		.byte	0x91
 1515 02d5 987F     		.sleb128 -104
 1516 02d7 06       		.byte	0x6
 1517 02d8 F7       		.byte	0xf7
 1518 02d9 28       		.uleb128 0x28
 1519 02da F7       		.byte	0xf7
 1520 02db 21       		.uleb128 0x21
 1521 02dc 1E       		.byte	0x1e
 1522 02dd 22       		.byte	0x22
 1523 02de 22       		.byte	0x22
 1524 02df 22       		.byte	0x22
 1525 02e0 22       		.byte	0x22
 1526 02e1 9F       		.byte	0x9f
 1527 02e2 64010000 		.4byte	.LVL64-.Ltext0
 1528 02e6 66010000 		.4byte	.LVL65-.Ltext0
 1529 02ea 4D00     		.2byte	0x4d
 1530 02ec 72       		.byte	0x72
 1531 02ed 64       		.sleb128 -28
 1532 02ee 06       		.byte	0x6
 1533 02ef F7       		.byte	0xf7
 1534 02f0 28       		.uleb128 0x28
 1535 02f1 F7       		.byte	0xf7
 1536 02f2 21       		.uleb128 0x21
 1537 02f3 79       		.byte	0x79
 1538 02f4 00       		.sleb128 0
 1539 02f5 F7       		.byte	0xf7
ARM GAS  /tmp/ccKvCWNF.s 			page 28


 1540 02f6 28       		.uleb128 0x28
 1541 02f7 F7       		.byte	0xf7
 1542 02f8 21       		.uleb128 0x21
 1543 02f9 1E       		.byte	0x1e
 1544 02fa 75       		.byte	0x75
 1545 02fb 00       		.sleb128 0
 1546 02fc F7       		.byte	0xf7
 1547 02fd 28       		.uleb128 0x28
 1548 02fe F7       		.byte	0xf7
 1549 02ff 21       		.uleb128 0x21
 1550 0300 7A       		.byte	0x7a
 1551 0301 00       		.sleb128 0
 1552 0302 F7       		.byte	0xf7
 1553 0303 28       		.uleb128 0x28
 1554 0304 F7       		.byte	0xf7
 1555 0305 21       		.uleb128 0x21
 1556 0306 1E       		.byte	0x1e
 1557 0307 76       		.byte	0x76
 1558 0308 00       		.sleb128 0
 1559 0309 F7       		.byte	0xf7
 1560 030a 28       		.uleb128 0x28
 1561 030b F7       		.byte	0xf7
 1562 030c 21       		.uleb128 0x21
 1563 030d 91       		.byte	0x91
 1564 030e 907F     		.sleb128 -112
 1565 0310 06       		.byte	0x6
 1566 0311 F7       		.byte	0xf7
 1567 0312 28       		.uleb128 0x28
 1568 0313 F7       		.byte	0xf7
 1569 0314 21       		.uleb128 0x21
 1570 0315 1E       		.byte	0x1e
 1571 0316 74       		.byte	0x74
 1572 0317 00       		.sleb128 0
 1573 0318 F7       		.byte	0xf7
 1574 0319 28       		.uleb128 0x28
 1575 031a F7       		.byte	0xf7
 1576 031b 21       		.uleb128 0x21
 1577 031c 91       		.byte	0x91
 1578 031d 8C7F     		.sleb128 -116
 1579 031f 06       		.byte	0x6
 1580 0320 F7       		.byte	0xf7
 1581 0321 28       		.uleb128 0x28
 1582 0322 F7       		.byte	0xf7
 1583 0323 21       		.uleb128 0x21
 1584 0324 1E       		.byte	0x1e
 1585 0325 7E       		.byte	0x7e
 1586 0326 00       		.sleb128 0
 1587 0327 F7       		.byte	0xf7
 1588 0328 28       		.uleb128 0x28
 1589 0329 F7       		.byte	0xf7
 1590 032a 21       		.uleb128 0x21
 1591 032b 91       		.byte	0x91
 1592 032c 987F     		.sleb128 -104
 1593 032e 06       		.byte	0x6
 1594 032f F7       		.byte	0xf7
 1595 0330 28       		.uleb128 0x28
 1596 0331 F7       		.byte	0xf7
ARM GAS  /tmp/ccKvCWNF.s 			page 29


 1597 0332 21       		.uleb128 0x21
 1598 0333 1E       		.byte	0x1e
 1599 0334 22       		.byte	0x22
 1600 0335 22       		.byte	0x22
 1601 0336 22       		.byte	0x22
 1602 0337 22       		.byte	0x22
 1603 0338 9F       		.byte	0x9f
 1604 0339 66010000 		.4byte	.LVL65-.Ltext0
 1605 033d 76010000 		.4byte	.LVL69-.Ltext0
 1606 0341 5100     		.2byte	0x51
 1607 0343 91       		.byte	0x91
 1608 0344 947F     		.sleb128 -108
 1609 0346 06       		.byte	0x6
 1610 0347 4C       		.byte	0x4c
 1611 0348 1C       		.byte	0x1c
 1612 0349 06       		.byte	0x6
 1613 034a F7       		.byte	0xf7
 1614 034b 28       		.uleb128 0x28
 1615 034c F7       		.byte	0xf7
 1616 034d 21       		.uleb128 0x21
 1617 034e 79       		.byte	0x79
 1618 034f 00       		.sleb128 0
 1619 0350 F7       		.byte	0xf7
 1620 0351 28       		.uleb128 0x28
 1621 0352 F7       		.byte	0xf7
 1622 0353 21       		.uleb128 0x21
 1623 0354 1E       		.byte	0x1e
 1624 0355 75       		.byte	0x75
 1625 0356 00       		.sleb128 0
 1626 0357 F7       		.byte	0xf7
 1627 0358 28       		.uleb128 0x28
 1628 0359 F7       		.byte	0xf7
 1629 035a 21       		.uleb128 0x21
 1630 035b 7A       		.byte	0x7a
 1631 035c 00       		.sleb128 0
 1632 035d F7       		.byte	0xf7
 1633 035e 28       		.uleb128 0x28
 1634 035f F7       		.byte	0xf7
 1635 0360 21       		.uleb128 0x21
 1636 0361 1E       		.byte	0x1e
 1637 0362 76       		.byte	0x76
 1638 0363 00       		.sleb128 0
 1639 0364 F7       		.byte	0xf7
 1640 0365 28       		.uleb128 0x28
 1641 0366 F7       		.byte	0xf7
 1642 0367 21       		.uleb128 0x21
 1643 0368 91       		.byte	0x91
 1644 0369 907F     		.sleb128 -112
 1645 036b 06       		.byte	0x6
 1646 036c F7       		.byte	0xf7
 1647 036d 28       		.uleb128 0x28
 1648 036e F7       		.byte	0xf7
 1649 036f 21       		.uleb128 0x21
 1650 0370 1E       		.byte	0x1e
 1651 0371 74       		.byte	0x74
 1652 0372 00       		.sleb128 0
 1653 0373 F7       		.byte	0xf7
ARM GAS  /tmp/ccKvCWNF.s 			page 30


 1654 0374 28       		.uleb128 0x28
 1655 0375 F7       		.byte	0xf7
 1656 0376 21       		.uleb128 0x21
 1657 0377 91       		.byte	0x91
 1658 0378 8C7F     		.sleb128 -116
 1659 037a 06       		.byte	0x6
 1660 037b F7       		.byte	0xf7
 1661 037c 28       		.uleb128 0x28
 1662 037d F7       		.byte	0xf7
 1663 037e 21       		.uleb128 0x21
 1664 037f 1E       		.byte	0x1e
 1665 0380 7E       		.byte	0x7e
 1666 0381 00       		.sleb128 0
 1667 0382 F7       		.byte	0xf7
 1668 0383 28       		.uleb128 0x28
 1669 0384 F7       		.byte	0xf7
 1670 0385 21       		.uleb128 0x21
 1671 0386 91       		.byte	0x91
 1672 0387 987F     		.sleb128 -104
 1673 0389 06       		.byte	0x6
 1674 038a F7       		.byte	0xf7
 1675 038b 28       		.uleb128 0x28
 1676 038c F7       		.byte	0xf7
 1677 038d 21       		.uleb128 0x21
 1678 038e 1E       		.byte	0x1e
 1679 038f 22       		.byte	0x22
 1680 0390 22       		.byte	0x22
 1681 0391 22       		.byte	0x22
 1682 0392 22       		.byte	0x22
 1683 0393 9F       		.byte	0x9f
 1684 0394 88010000 		.4byte	.LVL72-.Ltext0
 1685 0398 8C010000 		.4byte	.LVL74-.Ltext0
 1686 039c 0B00     		.2byte	0xb
 1687 039e F5       		.byte	0xf5
 1688 039f 00       		.uleb128 0
 1689 03a0 21       		.uleb128 0x21
 1690 03a1 7B       		.byte	0x7b
 1691 03a2 00       		.sleb128 0
 1692 03a3 F7       		.byte	0xf7
 1693 03a4 2F       		.uleb128 0x2f
 1694 03a5 F7       		.byte	0xf7
 1695 03a6 21       		.uleb128 0x21
 1696 03a7 26       		.byte	0x26
 1697 03a8 9F       		.byte	0x9f
 1698 03a9 98010000 		.4byte	.LVL76-.Ltext0
 1699 03ad AE010000 		.4byte	.LVL80-.Ltext0
 1700 03b1 0600     		.2byte	0x6
 1701 03b3 50       		.byte	0x50
 1702 03b4 93       		.byte	0x93
 1703 03b5 04       		.uleb128 0x4
 1704 03b6 51       		.byte	0x51
 1705 03b7 93       		.byte	0x93
 1706 03b8 04       		.uleb128 0x4
 1707 03b9 AE010000 		.4byte	.LVL80-.Ltext0
 1708 03bd DC010000 		.4byte	.LVL83-.Ltext0
 1709 03c1 0B00     		.2byte	0xb
 1710 03c3 F5       		.byte	0xf5
ARM GAS  /tmp/ccKvCWNF.s 			page 31


 1711 03c4 00       		.uleb128 0
 1712 03c5 21       		.uleb128 0x21
 1713 03c6 7B       		.byte	0x7b
 1714 03c7 00       		.sleb128 0
 1715 03c8 F7       		.byte	0xf7
 1716 03c9 2F       		.uleb128 0x2f
 1717 03ca F7       		.byte	0xf7
 1718 03cb 21       		.uleb128 0x21
 1719 03cc 26       		.byte	0x26
 1720 03cd 9F       		.byte	0x9f
 1721 03ce 00000000 		.4byte	0
 1722 03d2 00000000 		.4byte	0
 1723              	.LLST5:
 1724 03d6 2C000000 		.4byte	.LVL4-.Ltext0
 1725 03da 32000000 		.4byte	.LVL5-.Ltext0
 1726 03de 0100     		.2byte	0x1
 1727 03e0 51       		.byte	0x51
 1728 03e1 32000000 		.4byte	.LVL5-.Ltext0
 1729 03e5 1C020000 		.4byte	.LFE135-.Ltext0
 1730 03e9 0200     		.2byte	0x2
 1731 03eb 91       		.byte	0x91
 1732 03ec 4C       		.sleb128 -52
 1733 03ed 00000000 		.4byte	0
 1734 03f1 00000000 		.4byte	0
 1735              	.LLST6:
 1736 03f5 2C000000 		.4byte	.LVL4-.Ltext0
 1737 03f9 40000000 		.4byte	.LVL6-.Ltext0
 1738 03fd 0100     		.2byte	0x1
 1739 03ff 5E       		.byte	0x5e
 1740 0400 40000000 		.4byte	.LVL6-.Ltext0
 1741 0404 1C020000 		.4byte	.LFE135-.Ltext0
 1742 0408 0100     		.2byte	0x1
 1743 040a 5B       		.byte	0x5b
 1744 040b 00000000 		.4byte	0
 1745 040f 00000000 		.4byte	0
 1746              	.LLST7:
 1747 0413 2C000000 		.4byte	.LVL4-.Ltext0
 1748 0417 9A000000 		.4byte	.LVL20-.Ltext0
 1749 041b 0300     		.2byte	0x3
 1750 041d 91       		.byte	0x91
 1751 041e B07F     		.sleb128 -80
 1752 0420 9A000000 		.4byte	.LVL20-.Ltext0
 1753 0424 CE000000 		.4byte	.LVL30-.Ltext0
 1754 0428 0300     		.2byte	0x3
 1755 042a 78       		.byte	0x78
 1756 042b 74       		.sleb128 -12
 1757 042c 9F       		.byte	0x9f
 1758 042d CE000000 		.4byte	.LVL30-.Ltext0
 1759 0431 FE000000 		.4byte	.LVL41-.Ltext0
 1760 0435 0300     		.2byte	0x3
 1761 0437 78       		.byte	0x78
 1762 0438 78       		.sleb128 -8
 1763 0439 9F       		.byte	0x9f
 1764 043a FE000000 		.4byte	.LVL41-.Ltext0
 1765 043e 32010000 		.4byte	.LVL53-.Ltext0
 1766 0442 0300     		.2byte	0x3
 1767 0444 78       		.byte	0x78
ARM GAS  /tmp/ccKvCWNF.s 			page 32


 1768 0445 7C       		.sleb128 -4
 1769 0446 9F       		.byte	0x9f
 1770 0447 32010000 		.4byte	.LVL53-.Ltext0
 1771 044b 6C010000 		.4byte	.LVL67-.Ltext0
 1772 044f 0100     		.2byte	0x1
 1773 0451 58       		.byte	0x58
 1774 0452 6C010000 		.4byte	.LVL67-.Ltext0
 1775 0456 7C010000 		.4byte	.LVL71-.Ltext0
 1776 045a 0300     		.2byte	0x3
 1777 045c 78       		.byte	0x78
 1778 045d 70       		.sleb128 -16
 1779 045e 9F       		.byte	0x9f
 1780 045f 7C010000 		.4byte	.LVL71-.Ltext0
 1781 0463 88010000 		.4byte	.LVL72-.Ltext0
 1782 0467 0300     		.2byte	0x3
 1783 0469 91       		.byte	0x91
 1784 046a B07F     		.sleb128 -80
 1785 046c 88010000 		.4byte	.LVL72-.Ltext0
 1786 0470 90010000 		.4byte	.LVL75-.Ltext0
 1787 0474 0100     		.2byte	0x1
 1788 0476 57       		.byte	0x57
 1789 0477 90010000 		.4byte	.LVL75-.Ltext0
 1790 047b D8010000 		.4byte	.LVL82-.Ltext0
 1791 047f 0300     		.2byte	0x3
 1792 0481 77       		.byte	0x77
 1793 0482 7C       		.sleb128 -4
 1794 0483 9F       		.byte	0x9f
 1795 0484 D8010000 		.4byte	.LVL82-.Ltext0
 1796 0488 DC010000 		.4byte	.LVL83-.Ltext0
 1797 048c 0100     		.2byte	0x1
 1798 048e 57       		.byte	0x57
 1799 048f 0E020000 		.4byte	.LVL89-.Ltext0
 1800 0493 1C020000 		.4byte	.LFE135-.Ltext0
 1801 0497 0300     		.2byte	0x3
 1802 0499 91       		.byte	0x91
 1803 049a B07F     		.sleb128 -80
 1804 049c 00000000 		.4byte	0
 1805 04a0 00000000 		.4byte	0
 1806              	.LLST8:
 1807 04a4 2C000000 		.4byte	.LVL4-.Ltext0
 1808 04a8 40000000 		.4byte	.LVL6-.Ltext0
 1809 04ac 0100     		.2byte	0x1
 1810 04ae 52       		.byte	0x52
 1811 04af 7C010000 		.4byte	.LVL71-.Ltext0
 1812 04b3 D6010000 		.4byte	.LVL81-.Ltext0
 1813 04b7 0100     		.2byte	0x1
 1814 04b9 56       		.byte	0x56
 1815 04ba D6010000 		.4byte	.LVL81-.Ltext0
 1816 04be D8010000 		.4byte	.LVL82-.Ltext0
 1817 04c2 0300     		.2byte	0x3
 1818 04c4 76       		.byte	0x76
 1819 04c5 7C       		.sleb128 -4
 1820 04c6 9F       		.byte	0x9f
 1821 04c7 D8010000 		.4byte	.LVL82-.Ltext0
 1822 04cb DC010000 		.4byte	.LVL83-.Ltext0
 1823 04cf 0100     		.2byte	0x1
 1824 04d1 56       		.byte	0x56
ARM GAS  /tmp/ccKvCWNF.s 			page 33


 1825 04d2 0E020000 		.4byte	.LVL89-.Ltext0
 1826 04d6 18020000 		.4byte	.LVL92-.Ltext0
 1827 04da 0100     		.2byte	0x1
 1828 04dc 56       		.byte	0x56
 1829 04dd 00000000 		.4byte	0
 1830 04e1 00000000 		.4byte	0
 1831              	.LLST9:
 1832 04e5 40000000 		.4byte	.LVL6-.Ltext0
 1833 04e9 DC010000 		.4byte	.LVL83-.Ltext0
 1834 04ed 0700     		.2byte	0x7
 1835 04ef 91       		.byte	0x91
 1836 04f0 B87F     		.sleb128 -72
 1837 04f2 06       		.byte	0x6
 1838 04f3 40       		.byte	0x40
 1839 04f4 1C       		.byte	0x1c
 1840 04f5 9F       		.byte	0x9f
 1841 04f6 DC010000 		.4byte	.LVL83-.Ltext0
 1842 04fa E8010000 		.4byte	.LVL85-.Ltext0
 1843 04fe 0700     		.2byte	0x7
 1844 0500 91       		.byte	0x91
 1845 0501 B87F     		.sleb128 -72
 1846 0503 06       		.byte	0x6
 1847 0504 3C       		.byte	0x3c
 1848 0505 1C       		.byte	0x1c
 1849 0506 9F       		.byte	0x9f
 1850 0507 E8010000 		.4byte	.LVL85-.Ltext0
 1851 050b F2010000 		.4byte	.LVL87-.Ltext0
 1852 050f 0700     		.2byte	0x7
 1853 0511 91       		.byte	0x91
 1854 0512 B87F     		.sleb128 -72
 1855 0514 06       		.byte	0x6
 1856 0515 38       		.byte	0x38
 1857 0516 1C       		.byte	0x1c
 1858 0517 9F       		.byte	0x9f
 1859 0518 02020000 		.4byte	.LVL88-.Ltext0
 1860 051c 0E020000 		.4byte	.LVL89-.Ltext0
 1861 0520 0100     		.2byte	0x1
 1862 0522 50       		.byte	0x50
 1863 0523 0E020000 		.4byte	.LVL89-.Ltext0
 1864 0527 1C020000 		.4byte	.LFE135-.Ltext0
 1865 052b 0700     		.2byte	0x7
 1866 052d 91       		.byte	0x91
 1867 052e B87F     		.sleb128 -72
 1868 0530 06       		.byte	0x6
 1869 0531 40       		.byte	0x40
 1870 0532 1C       		.byte	0x1c
 1871 0533 9F       		.byte	0x9f
 1872 0534 00000000 		.4byte	0
 1873 0538 00000000 		.4byte	0
 1874              	.LLST10:
 1875 053c 40000000 		.4byte	.LVL6-.Ltext0
 1876 0540 48000000 		.4byte	.LVL7-.Ltext0
 1877 0544 0700     		.2byte	0x7
 1878 0546 91       		.byte	0x91
 1879 0547 B47F     		.sleb128 -76
 1880 0549 06       		.byte	0x6
 1881 054a 40       		.byte	0x40
ARM GAS  /tmp/ccKvCWNF.s 			page 34


 1882 054b 1C       		.byte	0x1c
 1883 054c 9F       		.byte	0x9f
 1884 054d 48000000 		.4byte	.LVL7-.Ltext0
 1885 0551 50000000 		.4byte	.LVL9-.Ltext0
 1886 0555 0700     		.2byte	0x7
 1887 0557 91       		.byte	0x91
 1888 0558 B47F     		.sleb128 -76
 1889 055a 06       		.byte	0x6
 1890 055b 3C       		.byte	0x3c
 1891 055c 1C       		.byte	0x1c
 1892 055d 9F       		.byte	0x9f
 1893 055e 50000000 		.4byte	.LVL9-.Ltext0
 1894 0562 58000000 		.4byte	.LVL11-.Ltext0
 1895 0566 0700     		.2byte	0x7
 1896 0568 91       		.byte	0x91
 1897 0569 B47F     		.sleb128 -76
 1898 056b 06       		.byte	0x6
 1899 056c 38       		.byte	0x38
 1900 056d 1C       		.byte	0x1c
 1901 056e 9F       		.byte	0x9f
 1902 056f 58000000 		.4byte	.LVL11-.Ltext0
 1903 0573 60000000 		.4byte	.LVL13-.Ltext0
 1904 0577 0700     		.2byte	0x7
 1905 0579 91       		.byte	0x91
 1906 057a B47F     		.sleb128 -76
 1907 057c 06       		.byte	0x6
 1908 057d 34       		.byte	0x34
 1909 057e 1C       		.byte	0x1c
 1910 057f 9F       		.byte	0x9f
 1911 0580 60000000 		.4byte	.LVL13-.Ltext0
 1912 0584 EC010000 		.4byte	.LVL86-.Ltext0
 1913 0588 0300     		.2byte	0x3
 1914 058a 91       		.byte	0x91
 1915 058b B47F     		.sleb128 -76
 1916 058d 0E020000 		.4byte	.LVL89-.Ltext0
 1917 0591 1C020000 		.4byte	.LFE135-.Ltext0
 1918 0595 0300     		.2byte	0x3
 1919 0597 91       		.byte	0x91
 1920 0598 B47F     		.sleb128 -76
 1921 059a 00000000 		.4byte	0
 1922 059e 00000000 		.4byte	0
 1923              	.LLST11:
 1924 05a2 6E000000 		.4byte	.LVL16-.Ltext0
 1925 05a6 02010000 		.4byte	.LVL42-.Ltext0
 1926 05aa 0100     		.2byte	0x1
 1927 05ac 5E       		.byte	0x5e
 1928 05ad 02010000 		.4byte	.LVL42-.Ltext0
 1929 05b1 5A010000 		.4byte	.LVL63-.Ltext0
 1930 05b5 0100     		.2byte	0x1
 1931 05b7 54       		.byte	0x54
 1932 05b8 5A010000 		.4byte	.LVL63-.Ltext0
 1933 05bc 88010000 		.4byte	.LVL72-.Ltext0
 1934 05c0 0100     		.2byte	0x1
 1935 05c2 5E       		.byte	0x5e
 1936 05c3 88010000 		.4byte	.LVL72-.Ltext0
 1937 05c7 8C010000 		.4byte	.LVL74-.Ltext0
 1938 05cb 0100     		.2byte	0x1
ARM GAS  /tmp/ccKvCWNF.s 			page 35


 1939 05cd 54       		.byte	0x54
 1940 05ce 8C010000 		.4byte	.LVL74-.Ltext0
 1941 05d2 AE010000 		.4byte	.LVL80-.Ltext0
 1942 05d6 0100     		.2byte	0x1
 1943 05d8 5E       		.byte	0x5e
 1944 05d9 AE010000 		.4byte	.LVL80-.Ltext0
 1945 05dd 0E020000 		.4byte	.LVL89-.Ltext0
 1946 05e1 0100     		.2byte	0x1
 1947 05e3 54       		.byte	0x54
 1948 05e4 0E020000 		.4byte	.LVL89-.Ltext0
 1949 05e8 16020000 		.4byte	.LVL91-.Ltext0
 1950 05ec 0100     		.2byte	0x1
 1951 05ee 5E       		.byte	0x5e
 1952 05ef 16020000 		.4byte	.LVL91-.Ltext0
 1953 05f3 18020000 		.4byte	.LVL92-.Ltext0
 1954 05f7 0100     		.2byte	0x1
 1955 05f9 54       		.byte	0x54
 1956 05fa 18020000 		.4byte	.LVL92-.Ltext0
 1957 05fe 1C020000 		.4byte	.LFE135-.Ltext0
 1958 0602 0100     		.2byte	0x1
 1959 0604 5E       		.byte	0x5e
 1960 0605 00000000 		.4byte	0
 1961 0609 00000000 		.4byte	0
 1962              	.LLST12:
 1963 060d 72000000 		.4byte	.LVL17-.Ltext0
 1964 0611 9A000000 		.4byte	.LVL20-.Ltext0
 1965 0615 0100     		.2byte	0x1
 1966 0617 5A       		.byte	0x5a
 1967 0618 9A000000 		.4byte	.LVL20-.Ltext0
 1968 061c D2000000 		.4byte	.LVL31-.Ltext0
 1969 0620 0100     		.2byte	0x1
 1970 0622 54       		.byte	0x54
 1971 0623 D2000000 		.4byte	.LVL31-.Ltext0
 1972 0627 5A010000 		.4byte	.LVL63-.Ltext0
 1973 062b 0100     		.2byte	0x1
 1974 062d 56       		.byte	0x56
 1975 062e 5A010000 		.4byte	.LVL63-.Ltext0
 1976 0632 7C010000 		.4byte	.LVL71-.Ltext0
 1977 0636 0100     		.2byte	0x1
 1978 0638 54       		.byte	0x54
 1979 0639 7C010000 		.4byte	.LVL71-.Ltext0
 1980 063d AE010000 		.4byte	.LVL80-.Ltext0
 1981 0641 0100     		.2byte	0x1
 1982 0643 5A       		.byte	0x5a
 1983 0644 AE010000 		.4byte	.LVL80-.Ltext0
 1984 0648 DC010000 		.4byte	.LVL83-.Ltext0
 1985 064c 0100     		.2byte	0x1
 1986 064e 5E       		.byte	0x5e
 1987 064f DC010000 		.4byte	.LVL83-.Ltext0
 1988 0653 1C020000 		.4byte	.LFE135-.Ltext0
 1989 0657 0100     		.2byte	0x1
 1990 0659 5A       		.byte	0x5a
 1991 065a 00000000 		.4byte	0
 1992 065e 00000000 		.4byte	0
 1993              	.LLST13:
 1994 0662 76000000 		.4byte	.LVL18-.Ltext0
 1995 0666 F2000000 		.4byte	.LVL38-.Ltext0
ARM GAS  /tmp/ccKvCWNF.s 			page 36


 1996 066a 0100     		.2byte	0x1
 1997 066c 53       		.byte	0x53
 1998 066d FA000000 		.4byte	.LVL40-.Ltext0
 1999 0671 56010000 		.4byte	.LVL62-.Ltext0
 2000 0675 0100     		.2byte	0x1
 2001 0677 51       		.byte	0x51
 2002 0678 56010000 		.4byte	.LVL62-.Ltext0
 2003 067c 5A010000 		.4byte	.LVL63-.Ltext0
 2004 0680 0600     		.2byte	0x6
 2005 0682 91       		.byte	0x91
 2006 0683 947F     		.sleb128 -108
 2007 0685 06       		.byte	0x6
 2008 0686 3C       		.byte	0x3c
 2009 0687 1C       		.byte	0x1c
 2010 0688 5A010000 		.4byte	.LVL63-.Ltext0
 2011 068c 88010000 		.4byte	.LVL72-.Ltext0
 2012 0690 0100     		.2byte	0x1
 2013 0692 53       		.byte	0x53
 2014 0693 88010000 		.4byte	.LVL72-.Ltext0
 2015 0697 8C010000 		.4byte	.LVL74-.Ltext0
 2016 069b 0100     		.2byte	0x1
 2017 069d 51       		.byte	0x51
 2018 069e 8C010000 		.4byte	.LVL74-.Ltext0
 2019 06a2 D8010000 		.4byte	.LVL82-.Ltext0
 2020 06a6 0100     		.2byte	0x1
 2021 06a8 53       		.byte	0x53
 2022 06a9 D8010000 		.4byte	.LVL82-.Ltext0
 2023 06ad 0E020000 		.4byte	.LVL89-.Ltext0
 2024 06b1 0100     		.2byte	0x1
 2025 06b3 51       		.byte	0x51
 2026 06b4 0E020000 		.4byte	.LVL89-.Ltext0
 2027 06b8 14020000 		.4byte	.LVL90-.Ltext0
 2028 06bc 0100     		.2byte	0x1
 2029 06be 53       		.byte	0x53
 2030 06bf 14020000 		.4byte	.LVL90-.Ltext0
 2031 06c3 18020000 		.4byte	.LVL92-.Ltext0
 2032 06c7 0100     		.2byte	0x1
 2033 06c9 51       		.byte	0x51
 2034 06ca 18020000 		.4byte	.LVL92-.Ltext0
 2035 06ce 1C020000 		.4byte	.LFE135-.Ltext0
 2036 06d2 0100     		.2byte	0x1
 2037 06d4 53       		.byte	0x53
 2038 06d5 00000000 		.4byte	0
 2039 06d9 00000000 		.4byte	0
 2040              	.LLST14:
 2041 06dd 76000000 		.4byte	.LVL18-.Ltext0
 2042 06e1 C8000000 		.4byte	.LVL29-.Ltext0
 2043 06e5 0100     		.2byte	0x1
 2044 06e7 55       		.byte	0x55
 2045 06e8 C8000000 		.4byte	.LVL29-.Ltext0
 2046 06ec 2A010000 		.4byte	.LVL51-.Ltext0
 2047 06f0 0100     		.2byte	0x1
 2048 06f2 57       		.byte	0x57
 2049 06f3 2A010000 		.4byte	.LVL51-.Ltext0
 2050 06f7 88010000 		.4byte	.LVL72-.Ltext0
 2051 06fb 0100     		.2byte	0x1
 2052 06fd 55       		.byte	0x55
ARM GAS  /tmp/ccKvCWNF.s 			page 37


 2053 06fe 88010000 		.4byte	.LVL72-.Ltext0
 2054 0702 8A010000 		.4byte	.LVL73-.Ltext0
 2055 0706 0100     		.2byte	0x1
 2056 0708 53       		.byte	0x53
 2057 0709 8A010000 		.4byte	.LVL73-.Ltext0
 2058 070d AE010000 		.4byte	.LVL80-.Ltext0
 2059 0711 0100     		.2byte	0x1
 2060 0713 55       		.byte	0x55
 2061 0714 AE010000 		.4byte	.LVL80-.Ltext0
 2062 0718 E4010000 		.4byte	.LVL84-.Ltext0
 2063 071c 0100     		.2byte	0x1
 2064 071e 53       		.byte	0x53
 2065 071f E4010000 		.4byte	.LVL84-.Ltext0
 2066 0723 1C020000 		.4byte	.LFE135-.Ltext0
 2067 0727 0100     		.2byte	0x1
 2068 0729 55       		.byte	0x55
 2069 072a 00000000 		.4byte	0
 2070 072e 00000000 		.4byte	0
 2071              	.LLST15:
 2072 0732 48000000 		.4byte	.LVL7-.Ltext0
 2073 0736 4A000000 		.4byte	.LVL8-.Ltext0
 2074 073a 0100     		.2byte	0x1
 2075 073c 53       		.byte	0x53
 2076 073d 4A000000 		.4byte	.LVL8-.Ltext0
 2077 0741 9A000000 		.4byte	.LVL20-.Ltext0
 2078 0745 0600     		.2byte	0x6
 2079 0747 91       		.byte	0x91
 2080 0748 B47F     		.sleb128 -76
 2081 074a 06       		.byte	0x6
 2082 074b 44       		.byte	0x44
 2083 074c 1C       		.byte	0x1c
 2084 074d 9A000000 		.4byte	.LVL20-.Ltext0
 2085 0751 18020000 		.4byte	.LVL92-.Ltext0
 2086 0755 0300     		.2byte	0x3
 2087 0757 91       		.byte	0x91
 2088 0758 987F     		.sleb128 -104
 2089 075a 18020000 		.4byte	.LVL92-.Ltext0
 2090 075e 1C020000 		.4byte	.LFE135-.Ltext0
 2091 0762 0600     		.2byte	0x6
 2092 0764 91       		.byte	0x91
 2093 0765 B47F     		.sleb128 -76
 2094 0767 06       		.byte	0x6
 2095 0768 44       		.byte	0x44
 2096 0769 1C       		.byte	0x1c
 2097 076a 00000000 		.4byte	0
 2098 076e 00000000 		.4byte	0
 2099              	.LLST16:
 2100 0772 50000000 		.4byte	.LVL9-.Ltext0
 2101 0776 52000000 		.4byte	.LVL10-.Ltext0
 2102 077a 0100     		.2byte	0x1
 2103 077c 52       		.byte	0x52
 2104 077d 52000000 		.4byte	.LVL10-.Ltext0
 2105 0781 9A000000 		.4byte	.LVL20-.Ltext0
 2106 0785 0600     		.2byte	0x6
 2107 0787 91       		.byte	0x91
 2108 0788 B47F     		.sleb128 -76
 2109 078a 06       		.byte	0x6
ARM GAS  /tmp/ccKvCWNF.s 			page 38


 2110 078b 40       		.byte	0x40
 2111 078c 1C       		.byte	0x1c
 2112 078d 9A000000 		.4byte	.LVL20-.Ltext0
 2113 0791 18020000 		.4byte	.LVL92-.Ltext0
 2114 0795 0300     		.2byte	0x3
 2115 0797 91       		.byte	0x91
 2116 0798 8C7F     		.sleb128 -116
 2117 079a 18020000 		.4byte	.LVL92-.Ltext0
 2118 079e 1C020000 		.4byte	.LFE135-.Ltext0
 2119 07a2 0600     		.2byte	0x6
 2120 07a4 91       		.byte	0x91
 2121 07a5 B47F     		.sleb128 -76
 2122 07a7 06       		.byte	0x6
 2123 07a8 40       		.byte	0x40
 2124 07a9 1C       		.byte	0x1c
 2125 07aa 00000000 		.4byte	0
 2126 07ae 00000000 		.4byte	0
 2127              	.LLST17:
 2128 07b2 58000000 		.4byte	.LVL11-.Ltext0
 2129 07b6 5C000000 		.4byte	.LVL12-.Ltext0
 2130 07ba 0100     		.2byte	0x1
 2131 07bc 53       		.byte	0x53
 2132 07bd 5C000000 		.4byte	.LVL12-.Ltext0
 2133 07c1 9A000000 		.4byte	.LVL20-.Ltext0
 2134 07c5 0600     		.2byte	0x6
 2135 07c7 91       		.byte	0x91
 2136 07c8 B47F     		.sleb128 -76
 2137 07ca 06       		.byte	0x6
 2138 07cb 3C       		.byte	0x3c
 2139 07cc 1C       		.byte	0x1c
 2140 07cd 9A000000 		.4byte	.LVL20-.Ltext0
 2141 07d1 18020000 		.4byte	.LVL92-.Ltext0
 2142 07d5 0300     		.2byte	0x3
 2143 07d7 91       		.byte	0x91
 2144 07d8 907F     		.sleb128 -112
 2145 07da 18020000 		.4byte	.LVL92-.Ltext0
 2146 07de 1C020000 		.4byte	.LFE135-.Ltext0
 2147 07e2 0600     		.2byte	0x6
 2148 07e4 91       		.byte	0x91
 2149 07e5 B47F     		.sleb128 -76
 2150 07e7 06       		.byte	0x6
 2151 07e8 3C       		.byte	0x3c
 2152 07e9 1C       		.byte	0x1c
 2153 07ea 00000000 		.4byte	0
 2154 07ee 00000000 		.4byte	0
 2155              	.LLST18:
 2156 07f2 60000000 		.4byte	.LVL13-.Ltext0
 2157 07f6 64000000 		.4byte	.LVL14-.Ltext0
 2158 07fa 0100     		.2byte	0x1
 2159 07fc 53       		.byte	0x53
 2160 07fd 64000000 		.4byte	.LVL14-.Ltext0
 2161 0801 9A000000 		.4byte	.LVL20-.Ltext0
 2162 0805 0100     		.2byte	0x1
 2163 0807 57       		.byte	0x57
 2164 0808 9A000000 		.4byte	.LVL20-.Ltext0
 2165 080c 7A010000 		.4byte	.LVL70-.Ltext0
 2166 0810 0100     		.2byte	0x1
ARM GAS  /tmp/ccKvCWNF.s 			page 39


 2167 0812 5A       		.byte	0x5a
 2168 0813 7A010000 		.4byte	.LVL70-.Ltext0
 2169 0817 18020000 		.4byte	.LVL92-.Ltext0
 2170 081b 0300     		.2byte	0x3
 2171 081d 91       		.byte	0x91
 2172 081e A47F     		.sleb128 -92
 2173 0820 18020000 		.4byte	.LVL92-.Ltext0
 2174 0824 1C020000 		.4byte	.LFE135-.Ltext0
 2175 0828 0100     		.2byte	0x1
 2176 082a 57       		.byte	0x57
 2177 082b 00000000 		.4byte	0
 2178 082f 00000000 		.4byte	0
 2179              	.LLST19:
 2180 0833 6A000000 		.4byte	.LVL15-.Ltext0
 2181 0837 76000000 		.4byte	.LVL18-.Ltext0
 2182 083b 0100     		.2byte	0x1
 2183 083d 53       		.byte	0x53
 2184 083e 76000000 		.4byte	.LVL18-.Ltext0
 2185 0842 96000000 		.4byte	.LVL19-.Ltext0
 2186 0846 0100     		.2byte	0x1
 2187 0848 54       		.byte	0x54
 2188 0849 96000000 		.4byte	.LVL19-.Ltext0
 2189 084d 7C010000 		.4byte	.LVL71-.Ltext0
 2190 0851 0100     		.2byte	0x1
 2191 0853 59       		.byte	0x59
 2192 0854 7C010000 		.4byte	.LVL71-.Ltext0
 2193 0858 18020000 		.4byte	.LVL92-.Ltext0
 2194 085c 0300     		.2byte	0x3
 2195 085e 91       		.byte	0x91
 2196 085f A87F     		.sleb128 -88
 2197 0861 18020000 		.4byte	.LVL92-.Ltext0
 2198 0865 1C020000 		.4byte	.LFE135-.Ltext0
 2199 0869 0100     		.2byte	0x1
 2200 086b 54       		.byte	0x54
 2201 086c 00000000 		.4byte	0
 2202 0870 00000000 		.4byte	0
 2203              	.LLST20:
 2204 0874 9E000000 		.4byte	.LVL21-.Ltext0
 2205 0878 A4000000 		.4byte	.LVL22-.Ltext0
 2206 087c 0100     		.2byte	0x1
 2207 087e 52       		.byte	0x52
 2208 087f A4000000 		.4byte	.LVL22-.Ltext0
 2209 0883 E2000000 		.4byte	.LVL34-.Ltext0
 2210 0887 0100     		.2byte	0x1
 2211 0889 50       		.byte	0x50
 2212 088a E2000000 		.4byte	.LVL34-.Ltext0
 2213 088e 36010000 		.4byte	.LVL54-.Ltext0
 2214 0892 0300     		.2byte	0x3
 2215 0894 91       		.byte	0x91
 2216 0895 A07F     		.sleb128 -96
 2217 0897 36010000 		.4byte	.LVL54-.Ltext0
 2218 089b 7C010000 		.4byte	.LVL71-.Ltext0
 2219 089f 0100     		.2byte	0x1
 2220 08a1 5E       		.byte	0x5e
 2221 08a2 88010000 		.4byte	.LVL72-.Ltext0
 2222 08a6 8C010000 		.4byte	.LVL74-.Ltext0
 2223 08aa 0100     		.2byte	0x1
ARM GAS  /tmp/ccKvCWNF.s 			page 40


 2224 08ac 54       		.byte	0x54
 2225 08ad 90010000 		.4byte	.LVL75-.Ltext0
 2226 08b1 DC010000 		.4byte	.LVL83-.Ltext0
 2227 08b5 0100     		.2byte	0x1
 2228 08b7 54       		.byte	0x54
 2229 08b8 00000000 		.4byte	0
 2230 08bc 00000000 		.4byte	0
 2231              	.LLST21:
 2232 08c0 76000000 		.4byte	.LVL18-.Ltext0
 2233 08c4 9A000000 		.4byte	.LVL20-.Ltext0
 2234 08c8 0200     		.2byte	0x2
 2235 08ca 91       		.byte	0x91
 2236 08cb 44       		.sleb128 -60
 2237 08cc 9A000000 		.4byte	.LVL20-.Ltext0
 2238 08d0 5A010000 		.4byte	.LVL63-.Ltext0
 2239 08d4 0300     		.2byte	0x3
 2240 08d6 91       		.byte	0x91
 2241 08d7 9C7F     		.sleb128 -100
 2242 08d9 5A010000 		.4byte	.LVL63-.Ltext0
 2243 08dd 68010000 		.4byte	.LVL66-.Ltext0
 2244 08e1 0700     		.2byte	0x7
 2245 08e3 91       		.byte	0x91
 2246 08e4 9C7F     		.sleb128 -100
 2247 08e6 06       		.byte	0x6
 2248 08e7 31       		.byte	0x31
 2249 08e8 1C       		.byte	0x1c
 2250 08e9 9F       		.byte	0x9f
 2251 08ea 68010000 		.4byte	.LVL66-.Ltext0
 2252 08ee 72010000 		.4byte	.LVL68-.Ltext0
 2253 08f2 0100     		.2byte	0x1
 2254 08f4 52       		.byte	0x52
 2255 08f5 72010000 		.4byte	.LVL68-.Ltext0
 2256 08f9 7C010000 		.4byte	.LVL71-.Ltext0
 2257 08fd 0300     		.2byte	0x3
 2258 08ff 91       		.byte	0x91
 2259 0900 9C7F     		.sleb128 -100
 2260 0902 7C010000 		.4byte	.LVL71-.Ltext0
 2261 0906 88010000 		.4byte	.LVL72-.Ltext0
 2262 090a 0200     		.2byte	0x2
 2263 090c 91       		.byte	0x91
 2264 090d 48       		.sleb128 -56
 2265 090e 88010000 		.4byte	.LVL72-.Ltext0
 2266 0912 8C010000 		.4byte	.LVL74-.Ltext0
 2267 0916 0100     		.2byte	0x1
 2268 0918 52       		.byte	0x52
 2269 0919 8C010000 		.4byte	.LVL74-.Ltext0
 2270 091d D8010000 		.4byte	.LVL82-.Ltext0
 2271 0921 0300     		.2byte	0x3
 2272 0923 91       		.byte	0x91
 2273 0924 947F     		.sleb128 -108
 2274 0926 D8010000 		.4byte	.LVL82-.Ltext0
 2275 092a 1C020000 		.4byte	.LFE135-.Ltext0
 2276 092e 0100     		.2byte	0x1
 2277 0930 52       		.byte	0x52
 2278 0931 00000000 		.4byte	0
 2279 0935 00000000 		.4byte	0
 2280              	.LLST22:
ARM GAS  /tmp/ccKvCWNF.s 			page 41


 2281 0939 2C000000 		.4byte	.LVL4-.Ltext0
 2282 093d 02020000 		.4byte	.LVL88-.Ltext0
 2283 0941 0300     		.2byte	0x3
 2284 0943 91       		.byte	0x91
 2285 0944 BC7F     		.sleb128 -68
 2286 0946 02020000 		.4byte	.LVL88-.Ltext0
 2287 094a 0E020000 		.4byte	.LVL89-.Ltext0
 2288 094e 0100     		.2byte	0x1
 2289 0950 53       		.byte	0x53
 2290 0951 0E020000 		.4byte	.LVL89-.Ltext0
 2291 0955 1C020000 		.4byte	.LFE135-.Ltext0
 2292 0959 0300     		.2byte	0x3
 2293 095b 91       		.byte	0x91
 2294 095c BC7F     		.sleb128 -68
 2295 095e 00000000 		.4byte	0
 2296 0962 00000000 		.4byte	0
 2297              	.LLST23:
 2298 0966 BC000000 		.4byte	.LVL27-.Ltext0
 2299 096a C4000000 		.4byte	.LVL28-.Ltext0
 2300 096e 0100     		.2byte	0x1
 2301 0970 56       		.byte	0x56
 2302 0971 EE000000 		.4byte	.LVL37-.Ltext0
 2303 0975 F6000000 		.4byte	.LVL39-.Ltext0
 2304 0979 0100     		.2byte	0x1
 2305 097b 54       		.byte	0x54
 2306 097c 1E010000 		.4byte	.LVL48-.Ltext0
 2307 0980 26010000 		.4byte	.LVL50-.Ltext0
 2308 0984 0100     		.2byte	0x1
 2309 0986 52       		.byte	0x52
 2310 0987 4E010000 		.4byte	.LVL60-.Ltext0
 2311 098b 52010000 		.4byte	.LVL61-.Ltext0
 2312 098f 0100     		.2byte	0x1
 2313 0991 52       		.byte	0x52
 2314 0992 00000000 		.4byte	0
 2315 0996 00000000 		.4byte	0
 2316              	.LLST24:
 2317 099a BC000000 		.4byte	.LVL27-.Ltext0
 2318 099e C8000000 		.4byte	.LVL29-.Ltext0
 2319 09a2 0100     		.2byte	0x1
 2320 09a4 57       		.byte	0x57
 2321 09a5 EE000000 		.4byte	.LVL37-.Ltext0
 2322 09a9 04010000 		.4byte	.LVL43-.Ltext0
 2323 09ad 0100     		.2byte	0x1
 2324 09af 55       		.byte	0x55
 2325 09b0 1E010000 		.4byte	.LVL48-.Ltext0
 2326 09b4 22010000 		.4byte	.LVL49-.Ltext0
 2327 09b8 0100     		.2byte	0x1
 2328 09ba 53       		.byte	0x53
 2329 09bb 4E010000 		.4byte	.LVL60-.Ltext0
 2330 09bf 7C010000 		.4byte	.LVL71-.Ltext0
 2331 09c3 0300     		.2byte	0x3
 2332 09c5 91       		.byte	0x91
 2333 09c6 987F     		.sleb128 -104
 2334 09c8 00000000 		.4byte	0
 2335 09cc 00000000 		.4byte	0
 2336              		.section	.debug_aranges,"",%progbits
 2337 0000 1C000000 		.4byte	0x1c
ARM GAS  /tmp/ccKvCWNF.s 			page 42


 2338 0004 0200     		.2byte	0x2
 2339 0006 00000000 		.4byte	.Ldebug_info0
 2340 000a 04       		.byte	0x4
 2341 000b 00       		.byte	0
 2342 000c 0000     		.2byte	0
 2343 000e 0000     		.2byte	0
 2344 0010 00000000 		.4byte	.Ltext0
 2345 0014 1C020000 		.4byte	.Letext0-.Ltext0
 2346 0018 00000000 		.4byte	0
 2347 001c 00000000 		.4byte	0
 2348              		.section	.debug_line,"",%progbits
 2349              	.Ldebug_line0:
 2350 0000 CB020000 		.section	.debug_str,"MS",%progbits,1
 2350      02001402 
 2350      00000201 
 2350      FB0E0D00 
 2350      01010101 
 2351              	.LASF28:
 2352 0000 61726D5F 		.ascii	"arm_biquad_casd_df1_inst_q31\000"
 2352      62697175 
 2352      61645F63 
 2352      6173645F 
 2352      6466315F 
 2353              	.LASF39:
 2354 001d 474E5520 		.ascii	"GNU C 4.9.3 20150529 (release) [ARM/embedded-4_9-br"
 2354      4320342E 
 2354      392E3320 
 2354      32303135 
 2354      30353239 
 2355 0050 616E6368 		.ascii	"anch revision 224288] -mcpu=cortex-m4 -mfloat-abi=h"
 2355      20726576 
 2355      6973696F 
 2355      6E203232 
 2355      34323838 
 2356 0083 61726420 		.ascii	"ard -mfpu=fpv4-sp-d16 -mno-thumb-interwork -mthumb "
 2356      2D6D6670 
 2356      753D6670 
 2356      76342D73 
 2356      702D6431 
 2357 00b6 2D676764 		.ascii	"-ggdb -O2 -fomit-frame-pointer -falign-functions=16"
 2357      62202D4F 
 2357      32202D66 
 2357      6F6D6974 
 2357      2D667261 
 2358 00e9 202D666E 		.ascii	" -fno-math-errno -fsingle-precision-constant\000"
 2358      6F2D6D61 
 2358      74682D65 
 2358      72726E6F 
 2358      202D6673 
 2359              	.LASF6:
 2360 0116 5F5F7569 		.ascii	"__uint8_t\000"
 2360      6E74385F 
 2360      7400
 2361              	.LASF16:
 2362 0120 696E7436 		.ascii	"int64_t\000"
 2362      345F7400 
 2363              	.LASF20:
ARM GAS  /tmp/ccKvCWNF.s 			page 43


 2364 0128 666C6F61 		.ascii	"float\000"
 2364      7400
 2365              	.LASF7:
 2366 012e 5F5F696E 		.ascii	"__int32_t\000"
 2366      7433325F 
 2366      7400
 2367              	.LASF8:
 2368 0138 6C6F6E67 		.ascii	"long int\000"
 2368      20696E74 
 2368      00
 2369              	.LASF36:
 2370 0141 73746167 		.ascii	"stage\000"
 2370      6500
 2371              	.LASF34:
 2372 0147 704F7574 		.ascii	"pOut\000"
 2372      00
 2373              	.LASF31:
 2374 014c 626C6F63 		.ascii	"blockSize\000"
 2374      6B53697A 
 2374      6500
 2375              	.LASF22:
 2376 0156 7133315F 		.ascii	"q31_t\000"
 2376      7400
 2377              	.LASF3:
 2378 015c 756E7369 		.ascii	"unsigned char\000"
 2378      676E6564 
 2378      20636861 
 2378      7200
 2379              	.LASF33:
 2380 016a 6C536869 		.ascii	"lShift\000"
 2380      667400
 2381              	.LASF10:
 2382 0171 6C6F6E67 		.ascii	"long unsigned int\000"
 2382      20756E73 
 2382      69676E65 
 2382      6420696E 
 2382      7400
 2383              	.LASF5:
 2384 0183 73686F72 		.ascii	"short unsigned int\000"
 2384      7420756E 
 2384      7369676E 
 2384      65642069 
 2384      6E7400
 2385              	.LASF40:
 2386 0196 2F686F6D 		.ascii	"/home/sbcu/Dropbox/pcb-layouts/axo-on-discovery-boa"
 2386      652F7362 
 2386      63752F44 
 2386      726F7062 
 2386      6F782F70 
 2387 01c9 72642F61 		.ascii	"rd/axoloti/platform_linux/../CMSIS//DSP_Lib/Source/"
 2387      786F6C6F 
 2387      74692F70 
 2387      6C617466 
 2387      6F726D5F 
 2388 01fc 46696C74 		.ascii	"FilteringFunctions/arm_biquad_cascade_df1_q31.c\000"
 2388      6572696E 
 2388      6746756E 
ARM GAS  /tmp/ccKvCWNF.s 			page 44


 2388      6374696F 
 2388      6E732F61 
 2389              	.LASF30:
 2390 022c 70447374 		.ascii	"pDst\000"
 2390      00
 2391              	.LASF27:
 2392 0231 706F7374 		.ascii	"postShift\000"
 2392      53686966 
 2392      7400
 2393              	.LASF25:
 2394 023b 70537461 		.ascii	"pState\000"
 2394      746500
 2395              	.LASF11:
 2396 0242 5F5F696E 		.ascii	"__int64_t\000"
 2396      7436345F 
 2396      7400
 2397              	.LASF19:
 2398 024c 646F7562 		.ascii	"double\000"
 2398      6C6500
 2399              	.LASF9:
 2400 0253 5F5F7569 		.ascii	"__uint32_t\000"
 2400      6E743332 
 2400      5F7400
 2401              	.LASF32:
 2402 025e 75536869 		.ascii	"uShift\000"
 2402      667400
 2403              	.LASF1:
 2404 0265 756E7369 		.ascii	"unsigned int\000"
 2404      676E6564 
 2404      20696E74 
 2404      00
 2405              	.LASF0:
 2406 0272 6C6F6E67 		.ascii	"long long unsigned int\000"
 2406      206C6F6E 
 2406      6720756E 
 2406      7369676E 
 2406      65642069 
 2407              	.LASF13:
 2408 0289 75696E74 		.ascii	"uint8_t\000"
 2408      385F7400 
 2409              	.LASF23:
 2410 0291 7136335F 		.ascii	"q63_t\000"
 2410      7400
 2411              	.LASF14:
 2412 0297 696E7433 		.ascii	"int32_t\000"
 2412      325F7400 
 2413              	.LASF17:
 2414 029f 73697A65 		.ascii	"sizetype\000"
 2414      74797065 
 2414      00
 2415              	.LASF12:
 2416 02a8 6C6F6E67 		.ascii	"long long int\000"
 2416      206C6F6E 
 2416      6720696E 
 2416      7400
 2417              	.LASF18:
 2418 02b6 63686172 		.ascii	"char\000"
ARM GAS  /tmp/ccKvCWNF.s 			page 45


 2418      00
 2419              	.LASF4:
 2420 02bb 73686F72 		.ascii	"short int\000"
 2420      7420696E 
 2420      7400
 2421              	.LASF37:
 2422 02c5 6163635F 		.ascii	"acc_l\000"
 2422      6C00
 2423              	.LASF38:
 2424 02cb 6163635F 		.ascii	"acc_h\000"
 2424      6800
 2425              	.LASF26:
 2426 02d1 70436F65 		.ascii	"pCoeffs\000"
 2426      66667300 
 2427              	.LASF15:
 2428 02d9 75696E74 		.ascii	"uint32_t\000"
 2428      33325F74 
 2428      00
 2429              	.LASF35:
 2430 02e2 73616D70 		.ascii	"sample\000"
 2430      6C6500
 2431              	.LASF21:
 2432 02e9 6C6F6E67 		.ascii	"long double\000"
 2432      20646F75 
 2432      626C6500 
 2433              	.LASF2:
 2434 02f5 7369676E 		.ascii	"signed char\000"
 2434      65642063 
 2434      68617200 
 2435              	.LASF29:
 2436 0301 70537263 		.ascii	"pSrc\000"
 2436      00
 2437              	.LASF24:
 2438 0306 6E756D53 		.ascii	"numStages\000"
 2438      74616765 
 2438      7300
 2439              	.LASF41:
 2440 0310 61726D5F 		.ascii	"arm_biquad_cascade_df1_q31\000"
 2440      62697175 
 2440      61645F63 
 2440      61736361 
 2440      64655F64 
 2441              		.ident	"GCC: (GNU Tools for ARM Embedded Processors) 4.9.3 20150529 (release) [ARM/embedded-4_9-br
ARM GAS  /tmp/ccKvCWNF.s 			page 46


DEFINED SYMBOLS
                            *ABS*:00000000 arm_biquad_cascade_df1_q31.c
     /tmp/ccKvCWNF.s:20     .text:00000000 $t
     /tmp/ccKvCWNF.s:26     .text:00000000 arm_biquad_cascade_df1_q31
                     .debug_frame:00000010 $d

NO UNDEFINED SYMBOLS
