ARM GAS  /tmp/ccKVTFIs.s 			page 1


   1              		.syntax unified
   2              		.cpu cortex-m4
   3              		.eabi_attribute 27, 1
   4              		.eabi_attribute 28, 1
   5              		.fpu fpv4-sp-d16
   6              		.eabi_attribute 20, 1
   7              		.eabi_attribute 21, 1
   8              		.eabi_attribute 23, 3
   9              		.eabi_attribute 24, 1
  10              		.eabi_attribute 25, 1
  11              		.eabi_attribute 26, 1
  12              		.eabi_attribute 30, 2
  13              		.eabi_attribute 34, 1
  14              		.eabi_attribute 18, 4
  15              		.thumb
  16              		.file	"arm_cmplx_mag_q15.c"
  17              		.text
  18              	.Ltext0:
  19              		.cfi_sections	.debug_frame
  20              		.align	2
  21              		.p2align 4,,15
  22              		.global	arm_cmplx_mag_q15
  23              		.thumb
  24              		.thumb_func
  25              		.type	arm_cmplx_mag_q15, %function
  26              	arm_cmplx_mag_q15:
  27              	.LFB135:
  28              		.file 1 "/home/sbcu/Dropbox/pcb-layouts/axo-on-discovery-board/axoloti/platform_linux/../CMSIS//DS
  29              		.loc 1 69 0
  30              		.cfi_startproc
  31              		@ args = 0, pretend = 0, frame = 8
  32              		@ frame_needed = 0, uses_anonymous_args = 0
  33              	.LVL0:
  34 0000 2DE9F04F 		push	{r4, r5, r6, r7, r8, r9, r10, fp, lr}
  35              		.cfi_def_cfa_offset 36
  36              		.cfi_offset 4, -36
  37              		.cfi_offset 5, -32
  38              		.cfi_offset 6, -28
  39              		.cfi_offset 7, -24
  40              		.cfi_offset 8, -20
  41              		.cfi_offset 9, -16
  42              		.cfi_offset 10, -12
  43              		.cfi_offset 11, -8
  44              		.cfi_offset 14, -4
  45 0004 83B0     		sub	sp, sp, #12
  46              		.cfi_def_cfa_offset 48
  47              		.loc 1 85 0
  48 0006 9308     		lsrs	r3, r2, #2
  49              		.loc 1 69 0
  50 0008 0092     		str	r2, [sp]
  51 000a 0746     		mov	r7, r0
  52              	.LVL1:
  53 000c 0E46     		mov	r6, r1
  54              		.loc 1 85 0
  55 000e 0193     		str	r3, [sp, #4]
  56 0010 34D0     		beq	.L2
  57 0012 00F11005 		add	r5, r0, #16
ARM GAS  /tmp/ccKVTFIs.s 			page 2


  58 0016 9B46     		mov	fp, r3
  59 0018 0C46     		mov	r4, r1
  60              	.LVL2:
  61              	.L3:
  62              		.loc 1 94 0
  63 001a 55F8100C 		ldr	r0, [r5, #-16]
  64              	.LVL3:
  65              	.LBB12:
  66              	.LBB13:
  67              		.file 2 "/home/sbcu/Dropbox/pcb-layouts/axo-on-discovery-board/axoloti/platform_linux/../CMSIS//In
  68              		.loc 2 1705 0
  69              	@ 1705 "/home/sbcu/Dropbox/pcb-layouts/axo-on-discovery-board/axoloti/platform_linux/../CMSIS//Incl
  70 001e 20FB00F0 		smuad r0, r0, r0
  71              	@ 0 "" 2
  72              	.LVL4:
  73              		.thumb
  74              	.LBE13:
  75              	.LBE12:
  76              		.loc 1 95 0
  77 0022 55F80C2C 		ldr	r2, [r5, #-12]
  78              	.LVL5:
  79              	.LBB14:
  80              	.LBB15:
  81              		.loc 2 1705 0
  82              	@ 1705 "/home/sbcu/Dropbox/pcb-layouts/axo-on-discovery-board/axoloti/platform_linux/../CMSIS//Incl
  83 0026 22FB02F8 		smuad r8, r2, r2
  84              	@ 0 "" 2
  85              	.LVL6:
  86              		.thumb
  87              	.LBE15:
  88              	.LBE14:
  89              		.loc 1 96 0
  90 002a 55F8083C 		ldr	r3, [r5, #-8]
  91              	.LVL7:
  92              	.LBB16:
  93              	.LBB17:
  94              		.loc 2 1705 0
  95              	@ 1705 "/home/sbcu/Dropbox/pcb-layouts/axo-on-discovery-board/axoloti/platform_linux/../CMSIS//Incl
  96 002e 23FB03FA 		smuad r10, r3, r3
  97              	@ 0 "" 2
  98              	.LVL8:
  99              		.thumb
 100              	.LBE17:
 101              	.LBE16:
 102              		.loc 1 97 0
 103 0032 55F8043C 		ldr	r3, [r5, #-4]
 104              	.LVL9:
 105              	.LBB18:
 106              	.LBB19:
 107              		.loc 2 1705 0
 108              	@ 1705 "/home/sbcu/Dropbox/pcb-layouts/axo-on-discovery-board/axoloti/platform_linux/../CMSIS//Incl
 109 0036 23FB03F9 		smuad r9, r3, r3
 110              	@ 0 "" 2
 111              	.LVL10:
 112              		.thumb
 113              	.LBE19:
 114              	.LBE18:
ARM GAS  /tmp/ccKVTFIs.s 			page 3


 115              		.loc 1 100 0
 116 003a 2146     		mov	r1, r4
 117 003c 4014     		asrs	r0, r0, #17
 118              	.LVL11:
 119 003e FFF7FEFF 		bl	arm_sqrt_q15
 120              	.LVL12:
 121              		.loc 1 101 0
 122 0042 A11C     		adds	r1, r4, #2
 123 0044 4FEA6840 		asr	r0, r8, #17
 124 0048 FFF7FEFF 		bl	arm_sqrt_q15
 125              	.LVL13:
 126 004c 04F10608 		add	r8, r4, #6
 127              	.LVL14:
 128              		.loc 1 102 0
 129 0050 211D     		adds	r1, r4, #4
 130 0052 4FEA6A40 		asr	r0, r10, #17
 131 0056 FFF7FEFF 		bl	arm_sqrt_q15
 132              	.LVL15:
 133              		.loc 1 103 0
 134 005a 4FEA6940 		asr	r0, r9, #17
 135 005e 4146     		mov	r1, r8
 136 0060 FFF7FEFF 		bl	arm_sqrt_q15
 137              	.LVL16:
 138              		.loc 1 85 0
 139 0064 BBF1010B 		subs	fp, fp, #1
 140              	.LVL17:
 141 0068 05F11005 		add	r5, r5, #16
 142              	.LVL18:
 143 006c 04F10804 		add	r4, r4, #8
 144              	.LVL19:
 145 0070 D3D1     		bne	.L3
 146 0072 019A     		ldr	r2, [sp, #4]
 147 0074 07EB0217 		add	r7, r7, r2, lsl #4
 148 0078 06EBC206 		add	r6, r6, r2, lsl #3
 149              	.LVL20:
 150              	.L2:
 151              		.loc 1 113 0
 152 007c 009B     		ldr	r3, [sp]
 153 007e 13F00304 		ands	r4, r3, #3
 154              	.LVL21:
 155 0082 0BD0     		beq	.L1
 156              	.LVL22:
 157              	.L5:
 158              		.loc 1 117 0
 159 0084 57F8040B 		ldr	r0, [r7], #4
 160              	.LVL23:
 161              	.LBB20:
 162              	.LBB21:
 163              		.loc 2 1705 0
 164              	@ 1705 "/home/sbcu/Dropbox/pcb-layouts/axo-on-discovery-board/axoloti/platform_linux/../CMSIS//Incl
 165 0088 20FB00F0 		smuad r0, r0, r0
 166              	@ 0 "" 2
 167              	.LVL24:
 168              		.thumb
 169              	.LBE21:
 170              	.LBE20:
 171              		.loc 1 120 0
ARM GAS  /tmp/ccKVTFIs.s 			page 4


 172 008c 3146     		mov	r1, r6
 173 008e 4014     		asrs	r0, r0, #17
 174              	.LVL25:
 175 0090 FFF7FEFF 		bl	arm_sqrt_q15
 176              	.LVL26:
 177              		.loc 1 113 0
 178 0094 013C     		subs	r4, r4, #1
 179              	.LVL27:
 180              		.loc 1 120 0
 181 0096 06F10206 		add	r6, r6, #2
 182              	.LVL28:
 183              		.loc 1 113 0
 184 009a F3D1     		bne	.L5
 185              	.L1:
 186              		.loc 1 149 0
 187 009c 03B0     		add	sp, sp, #12
 188              		.cfi_def_cfa_offset 36
 189              	.LVL29:
 190              		@ sp needed
 191 009e BDE8F08F 		pop	{r4, r5, r6, r7, r8, r9, r10, fp, pc}
 192              		.cfi_endproc
 193              	.LFE135:
 194              		.size	arm_cmplx_mag_q15, .-arm_cmplx_mag_q15
 195              	.Letext0:
 196              		.file 3 "/home/sbcu/Dropbox/pcb-layouts/axo-on-discovery-board/axoloti/platform_linux/arm-none-eab
 197              		.file 4 "/home/sbcu/Dropbox/pcb-layouts/axo-on-discovery-board/axoloti/platform_linux/arm-none-eab
 198              		.file 5 "/home/sbcu/Dropbox/pcb-layouts/axo-on-discovery-board/axoloti/platform_linux/../CMSIS//DS