ARM GAS  /tmp/ccFDZKQF.s 			page 1


   1              		.syntax unified
   2              		.cpu cortex-m4
   3              		.eabi_attribute 27, 1
   4              		.eabi_attribute 28, 1
   5              		.fpu fpv4-sp-d16
   6              		.eabi_attribute 20, 1
   7              		.eabi_attribute 21, 1
   8              		.eabi_attribute 23, 3
   9              		.eabi_attribute 24, 1
  10              		.eabi_attribute 25, 1
  11              		.eabi_attribute 26, 1
  12              		.eabi_attribute 30, 2
  13              		.eabi_attribute 34, 1
  14              		.eabi_attribute 18, 4
  15              		.thumb
  16              		.file	"arm_cmplx_mult_cmplx_q31.c"
  17              		.text
  18              	.Ltext0:
  19              		.cfi_sections	.debug_frame
  20              		.align	2
  21              		.p2align 4,,15
  22              		.global	arm_cmplx_mult_cmplx_q31
  23              		.thumb
  24              		.thumb_func
  25              		.type	arm_cmplx_mult_cmplx_q31, %function
  26              	arm_cmplx_mult_cmplx_q31:
  27              	.LFB135:
  28              		.file 1 "/d_drive/axoloti/platform_linux/../CMSIS//DSP_Lib/Source/ComplexMathFunctions/arm_cmplx_m
  29              		.loc 1 72 0
  30              		.cfi_startproc
  31              		@ args = 0, pretend = 0, frame = 16
  32              		@ frame_needed = 0, uses_anonymous_args = 0
  33              	.LVL0:
  34 0000 2DE9F04F 		push	{r4, r5, r6, r7, r8, r9, r10, fp, lr}
  35              		.cfi_def_cfa_offset 36
  36              		.cfi_offset 4, -36
  37              		.cfi_offset 5, -32
  38              		.cfi_offset 6, -28
  39              		.cfi_offset 7, -24
  40              		.cfi_offset 8, -20
  41              		.cfi_offset 9, -16
  42              		.cfi_offset 10, -12
  43              		.cfi_offset 11, -8
  44              		.cfi_offset 14, -4
  45 0004 85B0     		sub	sp, sp, #20
  46              		.cfi_def_cfa_offset 56
  47              		.loc 1 72 0
  48 0006 0F46     		mov	r7, r1
  49 0008 0293     		str	r3, [sp, #8]
  50              	.LVL1:
  51              		.loc 1 87 0
  52 000a 9B08     		lsrs	r3, r3, #2
  53              	.LVL2:
  54              		.loc 1 72 0
  55 000c 1446     		mov	r4, r2
  56 000e 0192     		str	r2, [sp, #4]
  57              		.loc 1 87 0
ARM GAS  /tmp/ccFDZKQF.s 			page 2


  58 0010 1E46     		mov	r6, r3
  59 0012 0393     		str	r3, [sp, #12]
  60 0014 00F08580 		beq	.L2
  61 0018 2346     		mov	r3, r4
  62              	.LVL3:
  63 001a 00F12001 		add	r1, r0, #32
  64              	.LVL4:
  65 001e 07F12002 		add	r2, r7, #32
  66              	.LVL5:
  67 0022 2033     		adds	r3, r3, #32
  68              	.LVL6:
  69              	.L3:
  70              		.loc 1 93 0
  71 0024 52F820CC 		ldr	ip, [r2, #-32]
  72              		.loc 1 92 0
  73 0028 51F81CAC 		ldr	r10, [r1, #-28]
  74              		.loc 1 94 0
  75 002c 52F81C5C 		ldr	r5, [r2, #-28]
  76              		.loc 1 91 0
  77 0030 51F8204C 		ldr	r4, [r1, #-32]
  78              	.LVL7:
  79              		.loc 1 97 0
  80 0034 8AFB0589 		smull	r8, r9, r10, r5
  81              		.loc 1 99 0
  82 0038 8CFB0AAB 		smull	r10, fp, ip, r10
  83              	.LVL8:
  84              		.loc 1 102 0
  85 003c 4FEA690E 		asr	lr, r9, #1
  86              		.loc 1 96 0
  87 0040 84FB0C89 		smull	r8, r9, r4, ip
  88              	.LVL9:
  89              		.loc 1 104 0
  90 0044 4FEA6B0C 		asr	ip, fp, #1
  91              	.LVL10:
  92              		.loc 1 98 0
  93 0048 84FB0545 		smull	r4, r5, r4, r5
  94              	.LVL11:
  95              		.loc 1 107 0
  96 004c 0CEB6504 		add	r4, ip, r5, asr #1
  97              		.loc 1 106 0
  98 0050 CEEB690E 		rsb	lr, lr, r9, asr #1
  99              		.loc 1 110 0
 100 0054 43F820EC 		str	lr, [r3, #-32]
 101              	.LVL12:
 102              		.loc 1 112 0
 103 0058 43F81C4C 		str	r4, [r3, #-28]
 104              	.LVL13:
 105              		.loc 1 116 0
 106 005c 52F818CC 		ldr	ip, [r2, #-24]
 107              		.loc 1 115 0
 108 0060 51F814AC 		ldr	r10, [r1, #-20]
 109              		.loc 1 117 0
 110 0064 52F8145C 		ldr	r5, [r2, #-20]
 111              	.LVL14:
 112              		.loc 1 114 0
 113 0068 51F8184C 		ldr	r4, [r1, #-24]
 114              	.LVL15:
ARM GAS  /tmp/ccFDZKQF.s 			page 3


 115              		.loc 1 120 0
 116 006c 8AFB0589 		smull	r8, r9, r10, r5
 117              		.loc 1 122 0
 118 0070 8CFB0AAB 		smull	r10, fp, ip, r10
 119              	.LVL16:
 120              		.loc 1 125 0
 121 0074 4FEA690E 		asr	lr, r9, #1
 122              		.loc 1 119 0
 123 0078 84FB0C89 		smull	r8, r9, r4, ip
 124              	.LVL17:
 125              		.loc 1 127 0
 126 007c 4FEA6B0C 		asr	ip, fp, #1
 127              	.LVL18:
 128              		.loc 1 121 0
 129 0080 84FB0545 		smull	r4, r5, r4, r5
 130              	.LVL19:
 131              		.loc 1 130 0
 132 0084 0CEB6504 		add	r4, ip, r5, asr #1
 133              		.loc 1 129 0
 134 0088 CEEB690E 		rsb	lr, lr, r9, asr #1
 135              		.loc 1 133 0
 136 008c 43F818EC 		str	lr, [r3, #-24]
 137              	.LVL20:
 138              		.loc 1 135 0
 139 0090 43F8144C 		str	r4, [r3, #-20]
 140              	.LVL21:
 141              		.loc 1 139 0
 142 0094 52F810CC 		ldr	ip, [r2, #-16]
 143              		.loc 1 138 0
 144 0098 51F80CAC 		ldr	r10, [r1, #-12]
 145              		.loc 1 140 0
 146 009c 52F80C5C 		ldr	r5, [r2, #-12]
 147              	.LVL22:
 148              		.loc 1 137 0
 149 00a0 51F8104C 		ldr	r4, [r1, #-16]
 150              	.LVL23:
 151              		.loc 1 143 0
 152 00a4 8AFB0589 		smull	r8, r9, r10, r5
 153              		.loc 1 145 0
 154 00a8 8CFB0AAB 		smull	r10, fp, ip, r10
 155              	.LVL24:
 156              		.loc 1 148 0
 157 00ac 4FEA690E 		asr	lr, r9, #1
 158              		.loc 1 142 0
 159 00b0 84FB0C89 		smull	r8, r9, r4, ip
 160              	.LVL25:
 161              		.loc 1 150 0
 162 00b4 4FEA6B0C 		asr	ip, fp, #1
 163              	.LVL26:
 164              		.loc 1 144 0
 165 00b8 84FB0545 		smull	r4, r5, r4, r5
 166              	.LVL27:
 167              		.loc 1 153 0
 168 00bc 0CEB6504 		add	r4, ip, r5, asr #1
 169              		.loc 1 152 0
 170 00c0 CEEB690E 		rsb	lr, lr, r9, asr #1
 171              		.loc 1 156 0
ARM GAS  /tmp/ccFDZKQF.s 			page 4


 172 00c4 43F810EC 		str	lr, [r3, #-16]
 173              	.LVL28:
 174              		.loc 1 158 0
 175 00c8 43F80C4C 		str	r4, [r3, #-12]
 176              	.LVL29:
 177              		.loc 1 162 0
 178 00cc 52F808CC 		ldr	ip, [r2, #-8]
 179              		.loc 1 161 0
 180 00d0 51F804AC 		ldr	r10, [r1, #-4]
 181              		.loc 1 163 0
 182 00d4 52F8045C 		ldr	r5, [r2, #-4]
 183              	.LVL30:
 184              		.loc 1 160 0
 185 00d8 51F8084C 		ldr	r4, [r1, #-8]
 186              	.LVL31:
 187              		.loc 1 166 0
 188 00dc 8AFB0589 		smull	r8, r9, r10, r5
 189              		.loc 1 168 0
 190 00e0 8CFB0AAB 		smull	r10, fp, ip, r10
 191              	.LVL32:
 192              		.loc 1 171 0
 193 00e4 4FEA690E 		asr	lr, r9, #1
 194              		.loc 1 165 0
 195 00e8 84FB0C89 		smull	r8, r9, r4, ip
 196              	.LVL33:
 197              		.loc 1 173 0
 198 00ec 4FEA6B0C 		asr	ip, fp, #1
 199              	.LVL34:
 200              		.loc 1 167 0
 201 00f0 84FB0545 		smull	r4, r5, r4, r5
 202              	.LVL35:
 203              		.loc 1 175 0
 204 00f4 CEEB690E 		rsb	lr, lr, r9, asr #1
 205              		.loc 1 176 0
 206 00f8 0CEB6504 		add	r4, ip, r5, asr #1
 207              		.loc 1 87 0
 208 00fc 013E     		subs	r6, r6, #1
 209              	.LVL36:
 210              		.loc 1 179 0
 211 00fe 43F808EC 		str	lr, [r3, #-8]
 212              	.LVL37:
 213              		.loc 1 181 0
 214 0102 43F8044C 		str	r4, [r3, #-4]
 215 0106 02F12002 		add	r2, r2, #32
 216 010a 01F12001 		add	r1, r1, #32
 217              	.LVL38:
 218 010e 03F12003 		add	r3, r3, #32
 219              		.loc 1 87 0
 220 0112 87D1     		bne	.L3
 221 0114 039B     		ldr	r3, [sp, #12]
 222 0116 019A     		ldr	r2, [sp, #4]
 223 0118 5B01     		lsls	r3, r3, #5
 224              	.LVL39:
 225 011a 1A44     		add	r2, r2, r3
 226 011c 1844     		add	r0, r0, r3
 227              	.LVL40:
 228 011e 1F44     		add	r7, r7, r3
ARM GAS  /tmp/ccFDZKQF.s 			page 5


 229              	.LVL41:
 230 0120 0192     		str	r2, [sp, #4]
 231              	.LVL42:
 232              	.L2:
 233              		.loc 1 191 0
 234 0122 029B     		ldr	r3, [sp, #8]
 235 0124 13F00303 		ands	r3, r3, #3
 236              	.LVL43:
 237 0128 28D0     		beq	.L1
 238 012a 019A     		ldr	r2, [sp, #4]
 239              	.LVL44:
 240 012c 0830     		adds	r0, r0, #8
 241              	.LVL45:
 242 012e 07F10801 		add	r1, r7, #8
 243 0132 0832     		adds	r2, r2, #8
 244              	.LVL46:
 245              	.L5:
 246              		.loc 1 196 0
 247 0134 50F8047C 		ldr	r7, [r0, #-4]
 248              		.loc 1 198 0
 249 0138 51F8044C 		ldr	r4, [r1, #-4]
 250              		.loc 1 197 0
 251 013c 51F8086C 		ldr	r6, [r1, #-8]
 252              		.loc 1 195 0
 253 0140 50F8085C 		ldr	r5, [r0, #-8]
 254              	.LVL47:
 255              		.loc 1 201 0
 256 0144 87FB04AB 		smull	r10, fp, r7, r4
 257              		.loc 1 203 0
 258 0148 86FB0789 		smull	r8, r9, r6, r7
 259              		.loc 1 206 0
 260 014c 4FEA6B0E 		asr	lr, fp, #1
 261              		.loc 1 200 0
 262 0150 85FB0667 		smull	r6, r7, r5, r6
 263              	.LVL48:
 264              		.loc 1 208 0
 265 0154 4FEA6906 		asr	r6, r9, #1
 266              		.loc 1 202 0
 267 0158 85FB0445 		smull	r4, r5, r5, r4
 268              	.LVL49:
 269              		.loc 1 210 0
 270 015c CEEB6707 		rsb	r7, lr, r7, asr #1
 271              	.LVL50:
 272              		.loc 1 211 0
 273 0160 06EB6504 		add	r4, r6, r5, asr #1
 274              		.loc 1 191 0
 275 0164 013B     		subs	r3, r3, #1
 276              	.LVL51:
 277              		.loc 1 214 0
 278 0166 42F8087C 		str	r7, [r2, #-8]
 279              	.LVL52:
 280              		.loc 1 216 0
 281 016a 42F8044C 		str	r4, [r2, #-4]
 282 016e 01F10801 		add	r1, r1, #8
 283 0172 00F10800 		add	r0, r0, #8
 284              	.LVL53:
 285 0176 02F10802 		add	r2, r2, #8
ARM GAS  /tmp/ccFDZKQF.s 			page 6


 286              		.loc 1 191 0
 287 017a DBD1     		bne	.L5
 288              	.LVL54:
 289              	.L1:
 290              		.loc 1 322 0
 291 017c 05B0     		add	sp, sp, #20
 292              		.cfi_def_cfa_offset 36
 293              		@ sp needed
 294 017e BDE8F08F 		pop	{r4, r5, r6, r7, r8, r9, r10, fp, pc}
 295              		.cfi_endproc
 296              	.LFE135:
 297              		.size	arm_cmplx_mult_cmplx_q31, .-arm_cmplx_mult_cmplx_q31
 298              	.Letext0:
 299              		.file 2 "/d_drive/axoloti/platform_linux/arm-none-eabi/include/machine/_default_types.h"
 300              		.file 3 "/d_drive/axoloti/platform_linux/arm-none-eabi/include/sys/_stdint.h"
 301              		.file 4 "/d_drive/axoloti/platform_linux/../CMSIS//DSP_Lib/Include/arm_math.h"