ARM GAS  /tmp/ccMmQD6k.s 			page 1


   1              		.syntax unified
   2              		.cpu cortex-m4
   3              		.eabi_attribute 27, 1
   4              		.eabi_attribute 28, 1
   5              		.fpu fpv4-sp-d16
   6              		.eabi_attribute 20, 1
   7              		.eabi_attribute 21, 1
   8              		.eabi_attribute 23, 3
   9              		.eabi_attribute 24, 1
  10              		.eabi_attribute 25, 1
  11              		.eabi_attribute 26, 1
  12              		.eabi_attribute 30, 2
  13              		.eabi_attribute 34, 1
  14              		.eabi_attribute 18, 4
  15              		.thumb
  16              		.file	"arm_cfft_radix4_f32.c"
  17              		.text
  18              	.Ltext0:
  19              		.cfi_sections	.debug_frame
  20              		.align	2
  21              		.p2align 4,,15
  22              		.global	arm_radix4_butterfly_f32
  23              		.thumb
  24              		.thumb_func
  25              		.type	arm_radix4_butterfly_f32, %function
  26              	arm_radix4_butterfly_f32:
  27              	.LFB136:
  28              		.file 1 "/home/sbcu/Dropbox/pcb-layouts/axo-on-discovery-board/axoloti/platform_linux/../CMSIS//DS
  29              		.loc 1 128 0
  30              		.cfi_startproc
  31              		@ args = 0, pretend = 0, frame = 48
  32              		@ frame_needed = 0, uses_anonymous_args = 0
  33              	.LVL0:
  34 0000 2DE9F04F 		push	{r4, r5, r6, r7, r8, r9, r10, fp, lr}
  35              		.cfi_def_cfa_offset 36
  36              		.cfi_offset 4, -36
  37              		.cfi_offset 5, -32
  38              		.cfi_offset 6, -28
  39              		.cfi_offset 7, -24
  40              		.cfi_offset 8, -20
  41              		.cfi_offset 9, -16
  42              		.cfi_offset 10, -12
  43              		.cfi_offset 11, -8
  44              		.cfi_offset 14, -4
  45 0004 2DED068B 		fstmfdd	sp!, {d8, d9, d10}
  46              		.cfi_def_cfa_offset 60
  47              		.cfi_offset 80, -60
  48              		.cfi_offset 81, -56
  49              		.cfi_offset 82, -52
  50              		.cfi_offset 83, -48
  51              		.cfi_offset 84, -44
  52              		.cfi_offset 85, -40
  53 0008 8A46     		mov	r10, r1
  54              	.LVL1:
  55              		.loc 1 153 0
  56 000a 8908     		lsrs	r1, r1, #2
  57              	.LVL2:
ARM GAS  /tmp/ccMmQD6k.s 			page 2


  58              		.loc 1 128 0
  59 000c 8DB0     		sub	sp, sp, #52
  60              		.cfi_def_cfa_offset 112
  61 000e 4FEAC10C 		lsl	ip, r1, #3
  62 0012 00EB0C04 		add	r4, r0, ip
  63              		.loc 1 153 0
  64 0016 0D46     		mov	r5, r1
  65              		.loc 1 128 0
  66 0018 1F46     		mov	r7, r3
  67 001a 9146     		mov	r9, r2
  68 001c 0A92     		str	r2, [sp, #40]
  69 001e 04EB0C02 		add	r2, r4, ip
  70              	.LVL3:
  71 0022 0646     		mov	r6, r0
  72 0024 0093     		str	r3, [sp]
  73 0026 07EB470E 		add	lr, r7, r7, lsl #1
  74 002a 05EB4503 		add	r3, r5, r5, lsl #1
  75              	.LVL4:
  76 002e A2EBC507 		sub	r7, r2, r5, lsl #3
  77 0032 0990     		str	r0, [sp, #36]
  78 0034 0CF10400 		add	r0, ip, #4
  79              	.LVL5:
  80 0038 0197     		str	r7, [sp, #4]
  81              		.loc 1 153 0
  82 003a 0391     		str	r1, [sp, #12]
  83 003c 3044     		add	r0, r0, r6
  84 003e 3146     		mov	r1, r6
  85 0040 06EBC303 		add	r3, r6, r3, lsl #3
  86 0044 371D     		adds	r7, r6, #4
  87 0046 009E     		ldr	r6, [sp]
  88              	.LVL6:
  89 0048 AB46     		mov	fp, r5
  90              	.LVL7:
  91 004a F500     		lsls	r5, r6, #3
  92              	.LVL8:
  93 004c 0295     		str	r5, [sp, #8]
  94 004e CDF810B0 		str	fp, [sp, #16]
  95 0052 DDF808B0 		ldr	fp, [sp, #8]
  96              	.LVL9:
  97 0056 CDF808A0 		str	r10, [sp, #8]
  98 005a DDF804A0 		ldr	r10, [sp, #4]
  99              	.LVL10:
 100 005e 4FEA0618 		lsl	r8, r6, #4
 101 0062 4FEACE0E 		lsl	lr, lr, #3
 102 0066 4E46     		mov	r6, r9
 103 0068 4D46     		mov	r5, r9
 104              	.LVL11:
 105              	.L2:
 106              		.loc 1 168 0 discriminator 1
 107 006a 17ED014A 		flds	s8, [r7, #-4]
 108              	.LVL12:
 109              		.loc 1 171 0 discriminator 1
 110 006e 10ED016A 		flds	s12, [r0, #-4]
 111              		.loc 1 169 0 discriminator 1
 112 0072 D1ED017A 		flds	s15, [r1, #4]
 113              	.LVL13:
 114              		.loc 1 172 0 discriminator 1
ARM GAS  /tmp/ccMmQD6k.s 			page 3


 115 0076 D4ED014A 		flds	s9, [r4, #4]
 116              	.LVL14:
 117              		.loc 1 175 0 discriminator 1
 118 007a D2ED016A 		flds	s13, [r2, #4]
 119              		.loc 1 178 0 discriminator 1
 120 007e 93ED015A 		flds	s10, [r3, #4]
 121              		.loc 1 174 0 discriminator 1
 122 0082 D2ED005A 		flds	s11, [r2]
 123              	.LVL15:
 124              		.loc 1 177 0 discriminator 1
 125 0086 93ED007A 		flds	s14, [r3]
 126              	.LVL16:
 127              		.loc 1 191 0 discriminator 1
 128 008a 99ED001A 		flds	s2, [r9]
 129              		.loc 1 192 0 discriminator 1
 130 008e D9ED011A 		flds	s3, [r9, #4]
 131              		.loc 1 181 0 discriminator 1
 132 0092 34EE252A 		fadds	s4, s8, s11
 133              	.LVL17:
 134              		.loc 1 183 0 discriminator 1
 135 0096 76EE072A 		fadds	s5, s12, s14
 136              	.LVL18:
 137              		.loc 1 185 0 discriminator 1
 138 009a 37EEA63A 		fadds	s6, s15, s13
 139              	.LVL19:
 140              		.loc 1 187 0 discriminator 1
 141 009e 74EE853A 		fadds	s7, s9, s10
 142              	.LVL20:
 143              		.loc 1 204 0 discriminator 1
 144 00a2 32EE220A 		fadds	s0, s4, s5
 145              		.loc 1 206 0 discriminator 1
 146 00a6 73EE230A 		fadds	s1, s6, s7
 147              		.loc 1 195 0 discriminator 1
 148 00aa 74EE655A 		fsubs	s11, s8, s11
 149              	.LVL21:
 150              		.loc 1 197 0 discriminator 1
 151 00ae 36EE477A 		fsubs	s14, s12, s14
 152              	.LVL22:
 153              		.loc 1 199 0 discriminator 1
 154 00b2 77EEE67A 		fsubs	s15, s15, s13
 155              	.LVL23:
 156              		.loc 1 201 0 discriminator 1
 157 00b6 74EEC56A 		fsubs	s13, s9, s10
 158              	.LVL24:
 159              		.loc 1 204 0 discriminator 1
 160 00ba 07ED010A 		fsts	s0, [r7, #-4]
 161              	.LVL25:
 162              		.loc 1 206 0 discriminator 1
 163 00be C1ED010A 		fsts	s1, [r1, #4]
 164              		.loc 1 222 0 discriminator 1
 165 00c2 95ED014A 		flds	s8, [r5, #4]
 166              	.LVL26:
 167              		.loc 1 227 0 discriminator 1
 168 00c6 D6ED014A 		flds	s9, [r6, #4]
 169              	.LVL27:
 170              		.loc 1 213 0 discriminator 1
 171 00ca 32EE625A 		fsubs	s10, s4, s5
ARM GAS  /tmp/ccMmQD6k.s 			page 4


 172              	.LVL28:
 173              		.loc 1 211 0 discriminator 1
 174 00ce 77EEC70A 		fsubs	s1, s15, s14
 175              		.loc 1 209 0 discriminator 1
 176 00d2 35EEA62A 		fadds	s4, s11, s13
 177              	.LVL29:
 178              		.loc 1 215 0 discriminator 1
 179 00d6 33EE636A 		fsubs	s12, s6, s7
 180              	.LVL30:
 181              		.loc 1 219 0 discriminator 1
 182 00da 77EE277A 		fadds	s15, s14, s15
 183              	.LVL31:
 184              		.loc 1 217 0 discriminator 1
 185 00de 35EEE67A 		fsubs	s14, s11, s13
 186              	.LVL32:
 187              		.loc 1 221 0 discriminator 1
 188 00e2 D5ED002A 		flds	s5, [r5]
 189              	.LVL33:
 190              		.loc 1 226 0 discriminator 1
 191 00e6 96ED003A 		flds	s6, [r6]
 192              	.LVL34:
 193              		.loc 1 238 0 discriminator 1
 194 00ea 60EE845A 		fmuls	s11, s1, s8
 195              	.LVL35:
 196              		.loc 1 244 0 discriminator 1
 197 00ee 66EE213A 		fmuls	s7, s12, s3
 198              	.LVL36:
 199              		.loc 1 250 0 discriminator 1
 200 00f2 67EEA46A 		fmuls	s13, s15, s9
 201              	.LVL37:
 202 00f6 24EE424A 		fnmuls	s8, s8, s4
 203              	.LVL38:
 204 00fa 61EEC51A 		fnmuls	s3, s3, s10
 205              	.LVL39:
 206 00fe 64EEC74A 		fnmuls	s9, s9, s14
 207              	.LVL40:
 208              		.loc 1 256 0 discriminator 1
 209 0102 A0EEA24A 		vfma.f32	s8, s1, s5
 210              	.LVL41:
 211 0106 0831     		adds	r1, r1, #8
 212              		.loc 1 287 0 discriminator 1
 213 0108 5145     		cmp	r1, r10
 214              		.loc 1 255 0 discriminator 1
 215 010a E2EE225A 		vfma.f32	s11, s4, s5
 216              	.LVL42:
 217 010e 07F10807 		add	r7, r7, #8
 218 0112 C144     		add	r9, r9, r8
 219              		.loc 1 257 0 discriminator 1
 220 0114 E5EE013A 		vfma.f32	s7, s10, s2
 221              	.LVL43:
 222 0118 5D44     		add	r5, r5, fp
 223              	.LVL44:
 224 011a 7644     		add	r6, r6, lr
 225              	.LVL45:
 226              		.loc 1 258 0 discriminator 1
 227 011c E6EE011A 		vfma.f32	s3, s12, s2
 228              	.LVL46:
ARM GAS  /tmp/ccMmQD6k.s 			page 5


 229 0120 00F10800 		add	r0, r0, #8
 230 0124 04F10804 		add	r4, r4, #8
 231              		.loc 1 259 0 discriminator 1
 232 0128 E7EE036A 		vfma.f32	s13, s14, s6
 233              	.LVL47:
 234 012c 02F10802 		add	r2, r2, #8
 235 0130 03F10803 		add	r3, r3, #8
 236              		.loc 1 260 0 discriminator 1
 237 0134 E7EE834A 		vfma.f32	s9, s15, s6
 238              	.LVL48:
 239              		.loc 1 263 0 discriminator 1
 240 0138 40ED033A 		fsts	s7, [r0, #-12]
 241              		.loc 1 266 0 discriminator 1
 242 013c 44ED011A 		fsts	s3, [r4, #-4]
 243              		.loc 1 269 0 discriminator 1
 244 0140 42ED025A 		fsts	s11, [r2, #-8]
 245              		.loc 1 272 0 discriminator 1
 246 0144 02ED014A 		fsts	s8, [r2, #-4]
 247              		.loc 1 275 0 discriminator 1
 248 0148 43ED026A 		fsts	s13, [r3, #-8]
 249              		.loc 1 278 0 discriminator 1
 250 014c 43ED014A 		fsts	s9, [r3, #-4]
 251              		.loc 1 287 0 discriminator 1
 252 0150 8BD1     		bne	.L2
 253              		.loc 1 289 0
 254 0152 009B     		ldr	r3, [sp]
 255              		.loc 1 292 0
 256 0154 BDF80C20 		ldrh	r2, [sp, #12]
 257 0158 DDF810B0 		ldr	fp, [sp, #16]
 258 015c DDF808A0 		ldr	r10, [sp, #8]
 259 0160 0B92     		str	r2, [sp, #44]
 260              		.loc 1 289 0
 261 0162 9B00     		lsls	r3, r3, #2
 262 0164 9BB2     		uxth	r3, r3
 263              		.loc 1 292 0
 264 0166 042A     		cmp	r2, #4
 265              		.loc 1 289 0
 266 0168 0693     		str	r3, [sp, #24]
 267              	.LVL49:
 268              		.loc 1 292 0
 269 016a 40F2AE80 		bls	.L8
 270 016e 0B9B     		ldr	r3, [sp, #44]
 271 0170 0793     		str	r3, [sp, #28]
 272              	.LVL50:
 273              	.L7:
 274 0172 0698     		ldr	r0, [sp, #24]
 275              		.loc 1 296 0
 276 0174 0A9F     		ldr	r7, [sp, #40]
 277 0176 099E     		ldr	r6, [sp, #36]
 278 0178 4FEA9B03 		lsr	r3, fp, #2
 279 017c 1946     		mov	r1, r3
 280 017e 0893     		str	r3, [sp, #32]
 281              	.LVL51:
 282 0180 00EB4003 		add	r3, r0, r0, lsl #1
 283 0184 4A1E     		subs	r2, r1, #1
 284 0186 DB00     		lsls	r3, r3, #3
 285 0188 0592     		str	r2, [sp, #20]
ARM GAS  /tmp/ccMmQD6k.s 			page 6


 286 018a 0393     		str	r3, [sp, #12]
 287 018c 0A01     		lsls	r2, r1, #4
 288 018e 0301     		lsls	r3, r0, #4
 289 0190 0492     		str	r2, [sp, #16]
 290 0192 0293     		str	r3, [sp, #8]
 291 0194 C200     		lsls	r2, r0, #3
 292              		.loc 1 300 0
 293 0196 0023     		movs	r3, #0
 294 0198 06EBC109 		add	r9, r6, r1, lsl #3
 295 019c 0192     		str	r2, [sp, #4]
 296              		.loc 1 296 0
 297 019e B846     		mov	r8, r7
 298 01a0 BE46     		mov	lr, r7
 299              		.loc 1 300 0
 300 01a2 0093     		str	r3, [sp]
 301              	.LVL52:
 302              	.L6:
 303 01a4 049B     		ldr	r3, [sp, #16]
 304              		.loc 1 306 0
 305 01a6 97ED000A 		flds	s0, [r7]
 306              	.LVL53:
 307              		.loc 1 307 0
 308 01aa D7ED010A 		flds	s1, [r7, #4]
 309              	.LVL54:
 310              		.loc 1 308 0
 311 01ae 9EED001A 		flds	s2, [lr]
 312              	.LVL55:
 313              		.loc 1 309 0
 314 01b2 DEED011A 		flds	s3, [lr, #4]
 315              	.LVL56:
 316              		.loc 1 310 0
 317 01b6 98ED002A 		flds	s4, [r8]
 318              	.LVL57:
 319              		.loc 1 311 0
 320 01ba D8ED012A 		flds	s5, [r8, #4]
 321              	.LVL58:
 322              		.loc 1 316 0
 323 01be 009D     		ldr	r5, [sp]
 324 01c0 F118     		adds	r1, r6, r3
 325 01c2 09EB0302 		add	r2, r9, r3
 326 01c6 341D     		adds	r4, r6, #4
 327              		.loc 1 311 0
 328 01c8 4B46     		mov	r3, r9
 329 01ca 3046     		mov	r0, r6
 330              	.LVL59:
 331              	.L5:
 332              		.loc 1 325 0 discriminator 1
 333 01cc 14ED014A 		flds	s8, [r4, #-4]
 334              	.LVL60:
 335              		.loc 1 326 0 discriminator 1
 336 01d0 90ED016A 		flds	s12, [r0, #4]
 337              	.LVL61:
 338              		.loc 1 334 0 discriminator 1
 339 01d4 D2ED007A 		flds	s15, [r2]
 340              	.LVL62:
 341              		.loc 1 329 0 discriminator 1
 342 01d8 D3ED014A 		flds	s9, [r3, #4]
ARM GAS  /tmp/ccMmQD6k.s 			page 7


 343              		.loc 1 332 0 discriminator 1
 344 01dc D1ED016A 		flds	s13, [r1, #4]
 345              		.loc 1 335 0 discriminator 1
 346 01e0 92ED015A 		flds	s10, [r2, #4]
 347              		.loc 1 331 0 discriminator 1
 348 01e4 D1ED005A 		flds	s11, [r1]
 349              		.loc 1 328 0 discriminator 1
 350 01e8 93ED007A 		flds	s14, [r3]
 351              	.LVL63:
 352              		.loc 1 347 0 discriminator 1
 353 01ec 34EE253A 		fadds	s6, s8, s11
 354              		.loc 1 349 0 discriminator 1
 355 01f0 77EE273A 		fadds	s7, s14, s15
 356              		.loc 1 338 0 discriminator 1
 357 01f4 74EE655A 		fsubs	s11, s8, s11
 358              	.LVL64:
 359              		.loc 1 340 0 discriminator 1
 360 01f8 37EE677A 		fsubs	s14, s14, s15
 361              	.LVL65:
 362              		.loc 1 351 0 discriminator 1
 363 01fc 36EE264A 		fadds	s8, s12, s13
 364              	.LVL66:
 365              		.loc 1 342 0 discriminator 1
 366 0200 76EE667A 		fsubs	s15, s12, s13
 367              	.LVL67:
 368              		.loc 1 353 0 discriminator 1
 369 0204 34EE856A 		fadds	s12, s9, s10
 370              	.LVL68:
 371              		.loc 1 344 0 discriminator 1
 372 0208 74EEC56A 		fsubs	s13, s9, s10
 373              	.LVL69:
 374              		.loc 1 358 0 discriminator 1
 375 020c 77EEC79A 		fsubs	s19, s15, s14
 376              		.loc 1 356 0 discriminator 1
 377 0210 35EEA69A 		fadds	s18, s11, s13
 378              	.LVL70:
 379              		.loc 1 360 0 discriminator 1
 380 0214 33EE63AA 		fsubs	s20, s6, s7
 381              	.LVL71:
 382              		.loc 1 362 0 discriminator 1
 383 0218 74EE46AA 		fsubs	s21, s8, s12
 384              	.LVL72:
 385              		.loc 1 364 0 discriminator 1
 386 021c 75EEE66A 		fsubs	s13, s11, s13
 387              	.LVL73:
 388              		.loc 1 366 0 discriminator 1
 389 0220 77EE277A 		fadds	s15, s14, s15
 390              	.LVL74:
 391 0224 21EECA8A 		fnmuls	s16, s3, s20
 392              		.loc 1 386 0 discriminator 1
 393 0228 6AEEA18A 		fmuls	s17, s21, s3
 394 022c 20EEC95A 		fnmuls	s10, s1, s18
 395              	.LVL75:
 396              		.loc 1 380 0 discriminator 1
 397 0230 69EEA04A 		fmuls	s9, s19, s1
 398              	.LVL76:
 399              		.loc 1 392 0 discriminator 1
ARM GAS  /tmp/ccMmQD6k.s 			page 8


 400 0234 67EEA25A 		fmuls	s11, s15, s5
 401              	.LVL77:
 402 0238 22EEE67A 		fnmuls	s14, s5, s13
 403              	.LVL78:
 404              		.loc 1 400 0 discriminator 1
 405 023c AAEE818A 		vfma.f32	s16, s21, s2
 406              		.loc 1 422 0 discriminator 1
 407 0240 5D44     		add	r5, r5, fp
 408              	.LVL79:
 409              		.loc 1 423 0 discriminator 1
 410 0242 AA45     		cmp	r10, r5
 411              		.loc 1 399 0 discriminator 1
 412 0244 EAEE018A 		vfma.f32	s17, s20, s2
 413              		.loc 1 398 0 discriminator 1
 414 0248 A9EE805A 		vfma.f32	s10, s19, s0
 415              		.loc 1 397 0 discriminator 1
 416 024c E9EE004A 		vfma.f32	s9, s18, s0
 417              		.loc 1 401 0 discriminator 1
 418 0250 E6EE825A 		vfma.f32	s11, s13, s4
 419              		.loc 1 402 0 discriminator 1
 420 0254 A7EE827A 		vfma.f32	s14, s15, s4
 421              		.loc 1 368 0 discriminator 1
 422 0258 73EE233A 		fadds	s7, s6, s7
 423              	.LVL80:
 424              		.loc 1 369 0 discriminator 1
 425 025c 34EE066A 		fadds	s12, s8, s12
 426              	.LVL81:
 427              		.loc 1 368 0 discriminator 1
 428 0260 44ED013A 		fsts	s7, [r4, #-4]
 429              	.LVL82:
 430              		.loc 1 369 0 discriminator 1
 431 0264 80ED016A 		fsts	s12, [r0, #4]
 432              	.LVL83:
 433 0268 6444     		add	r4, r4, ip
 434              		.loc 1 405 0 discriminator 1
 435 026a C3ED008A 		fsts	s17, [r3]
 436              		.loc 1 408 0 discriminator 1
 437 026e 83ED018A 		fsts	s16, [r3, #4]
 438 0272 6044     		add	r0, r0, ip
 439              		.loc 1 411 0 discriminator 1
 440 0274 C1ED004A 		fsts	s9, [r1]
 441              		.loc 1 414 0 discriminator 1
 442 0278 81ED015A 		fsts	s10, [r1, #4]
 443 027c 6344     		add	r3, r3, ip
 444              		.loc 1 417 0 discriminator 1
 445 027e C2ED005A 		fsts	s11, [r2]
 446              		.loc 1 420 0 discriminator 1
 447 0282 82ED017A 		fsts	s14, [r2, #4]
 448 0286 6144     		add	r1, r1, ip
 449 0288 6244     		add	r2, r2, ip
 450              		.loc 1 423 0 discriminator 1
 451 028a 9FD8     		bhi	.L5
 452 028c 019A     		ldr	r2, [sp, #4]
 453              		.loc 1 424 0
 454 028e 009B     		ldr	r3, [sp]
 455 0290 1744     		add	r7, r7, r2
 456 0292 029A     		ldr	r2, [sp, #8]
ARM GAS  /tmp/ccMmQD6k.s 			page 9


 457 0294 9644     		add	lr, lr, r2
 458 0296 039A     		ldr	r2, [sp, #12]
 459 0298 9044     		add	r8, r8, r2
 460              		.loc 1 425 0
 461 029a 059A     		ldr	r2, [sp, #20]
 462              		.loc 1 424 0
 463 029c 0133     		adds	r3, r3, #1
 464              		.loc 1 425 0
 465 029e 9342     		cmp	r3, r2
 466              		.loc 1 424 0
 467 02a0 0093     		str	r3, [sp]
 468              	.LVL84:
 469 02a2 06F10806 		add	r6, r6, #8
 470 02a6 09F10809 		add	r9, r9, #8
 471              		.loc 1 425 0
 472 02aa 7FF67BAF 		bls	.L6
 473              		.loc 1 426 0 discriminator 2
 474 02ae 069B     		ldr	r3, [sp, #24]
 475              	.LVL85:
 476              		.loc 1 292 0 discriminator 2
 477 02b0 079A     		ldr	r2, [sp, #28]
 478              		.loc 1 296 0 discriminator 2
 479 02b2 DDF820B0 		ldr	fp, [sp, #32]
 480              	.LVL86:
 481              		.loc 1 292 0 discriminator 2
 482 02b6 9208     		lsrs	r2, r2, #2
 483              		.loc 1 426 0 discriminator 2
 484 02b8 9B00     		lsls	r3, r3, #2
 485 02ba 9BB2     		uxth	r3, r3
 486              		.loc 1 292 0 discriminator 2
 487 02bc 042A     		cmp	r2, #4
 488 02be 0792     		str	r2, [sp, #28]
 489              	.LVL87:
 490              		.loc 1 426 0 discriminator 2
 491 02c0 0693     		str	r3, [sp, #24]
 492              	.LVL88:
 493              		.loc 1 292 0 discriminator 2
 494 02c2 02D9     		bls	.L8
 495 02c4 4FEACB0C 		lsl	ip, fp, #3
 496 02c8 53E7     		b	.L7
 497              	.LVL89:
 498              	.L8:
 499 02ca 099B     		ldr	r3, [sp, #36]
 500 02cc 0B9A     		ldr	r2, [sp, #44]
 501              	.LVL90:
 502 02ce 2033     		adds	r3, r3, #32
 503              	.LVL91:
 504              	.L4:
 505              		.loc 1 439 0 discriminator 1
 506 02d0 53ED044A 		flds	s9, [r3, #-16]
 507              		.loc 1 437 0 discriminator 1
 508 02d4 13ED066A 		flds	s12, [r3, #-24]
 509              		.loc 1 438 0 discriminator 1
 510 02d8 13ED055A 		flds	s10, [r3, #-20]
 511              		.loc 1 442 0 discriminator 1
 512 02dc 53ED015A 		flds	s11, [r3, #-4]
 513              		.loc 1 436 0 discriminator 1
ARM GAS  /tmp/ccMmQD6k.s 			page 10


 514 02e0 53ED076A 		flds	s13, [r3, #-28]
 515              		.loc 1 435 0 discriminator 1
 516 02e4 13ED084A 		flds	s8, [r3, #-32]
 517              	.LVL92:
 518              		.loc 1 441 0 discriminator 1
 519 02e8 13ED027A 		flds	s14, [r3, #-8]
 520              		.loc 1 440 0 discriminator 1
 521 02ec 53ED037A 		flds	s15, [r3, #-12]
 522              	.LVL93:
 523              		.loc 1 445 0 discriminator 1
 524 02f0 34EE243A 		fadds	s6, s8, s9
 525              	.LVL94:
 526              		.loc 1 457 0 discriminator 1
 527 02f4 76EE073A 		fadds	s7, s12, s14
 528              		.loc 1 448 0 discriminator 1
 529 02f8 34EE644A 		fsubs	s8, s8, s9
 530              	.LVL95:
 531              		.loc 1 463 0 discriminator 1
 532 02fc 36EE477A 		fsubs	s14, s12, s14
 533              	.LVL96:
 534              		.loc 1 466 0 discriminator 1
 535 0300 75EE654A 		fsubs	s9, s10, s11
 536              	.LVL97:
 537              		.loc 1 460 0 discriminator 1
 538 0304 35EE256A 		fadds	s12, s10, s11
 539              	.LVL98:
 540              		.loc 1 451 0 discriminator 1
 541 0308 76EEA75A 		fadds	s11, s13, s15
 542              	.LVL99:
 543              		.loc 1 454 0 discriminator 1
 544 030c 76EEE77A 		fsubs	s15, s13, s15
 545              	.LVL100:
 546              		.loc 1 469 0 discriminator 1
 547 0310 73EE232A 		fadds	s5, s6, s7
 548              	.LVL101:
 549              		.loc 1 471 0 discriminator 1
 550 0314 35EE865A 		fadds	s10, s11, s12
 551              	.LVL102:
 552              		.loc 1 473 0 discriminator 1
 553 0318 73EE633A 		fsubs	s7, s6, s7
 554              	.LVL103:
 555              		.loc 1 479 0 discriminator 1
 556 031c 77EEC76A 		fsubs	s13, s15, s14
 557              	.LVL104:
 558              		.loc 1 477 0 discriminator 1
 559 0320 34EE243A 		fadds	s6, s8, s9
 560              	.LVL105:
 561              		.loc 1 475 0 discriminator 1
 562 0324 35EEC66A 		fsubs	s12, s11, s12
 563              	.LVL106:
 564              		.loc 1 481 0 discriminator 1
 565 0328 74EE644A 		fsubs	s9, s8, s9
 566              	.LVL107:
 567              		.loc 1 483 0 discriminator 1
 568 032c 77EE277A 		fadds	s15, s14, s15
 569              	.LVL108:
 570              		.loc 1 496 0 discriminator 1
ARM GAS  /tmp/ccMmQD6k.s 			page 11


 571 0330 013A     		subs	r2, r2, #1
 572              	.LVL109:
 573              		.loc 1 485 0 discriminator 1
 574 0332 43ED082A 		fsts	s5, [r3, #-32]
 575              	.LVL110:
 576              		.loc 1 487 0 discriminator 1
 577 0336 43ED063A 		fsts	s7, [r3, #-24]
 578              	.LVL111:
 579              		.loc 1 489 0 discriminator 1
 580 033a 03ED043A 		fsts	s6, [r3, #-16]
 581              	.LVL112:
 582              		.loc 1 491 0 discriminator 1
 583 033e 43ED024A 		fsts	s9, [r3, #-8]
 584              	.LVL113:
 585              		.loc 1 486 0 discriminator 1
 586 0342 03ED075A 		fsts	s10, [r3, #-28]
 587              	.LVL114:
 588              		.loc 1 488 0 discriminator 1
 589 0346 03ED056A 		fsts	s12, [r3, #-20]
 590              	.LVL115:
 591              		.loc 1 490 0 discriminator 1
 592 034a 43ED036A 		fsts	s13, [r3, #-12]
 593              	.LVL116:
 594              		.loc 1 492 0 discriminator 1
 595 034e 43ED017A 		fsts	s15, [r3, #-4]
 596              	.LVL117:
 597 0352 03F12003 		add	r3, r3, #32
 598              	.LVL118:
 599              		.loc 1 496 0 discriminator 1
 600 0356 BBD1     		bne	.L4
 601              		.loc 1 615 0
 602 0358 0DB0     		add	sp, sp, #52
 603              		.cfi_def_cfa_offset 60
 604              		@ sp needed
 605 035a BDEC068B 		fldmfdd	sp!, {d8-d10}
 606              		.cfi_restore 84
 607              		.cfi_restore 85
 608              		.cfi_restore 82
 609              		.cfi_restore 83
 610              		.cfi_restore 80
 611              		.cfi_restore 81
 612              		.cfi_def_cfa_offset 36
 613 035e BDE8F08F 		pop	{r4, r5, r6, r7, r8, r9, r10, fp, pc}
 614              		.cfi_endproc
 615              	.LFE136:
 616              		.size	arm_radix4_butterfly_f32, .-arm_radix4_butterfly_f32
 617 0362 00BF     		.align	2
 618 0364 AFF30080 		.p2align 4,,15
 618      AFF30080 
 618      AFF30080 
 619              		.global	arm_radix4_butterfly_inverse_f32
 620              		.thumb
 621              		.thumb_func
 622              		.type	arm_radix4_butterfly_inverse_f32, %function
 623              	arm_radix4_butterfly_inverse_f32:
 624              	.LFB137:
 625              		.loc 1 633 0
ARM GAS  /tmp/ccMmQD6k.s 			page 12


 626              		.cfi_startproc
 627              		@ args = 0, pretend = 0, frame = 48
 628              		@ frame_needed = 0, uses_anonymous_args = 0
 629              	.LVL119:
 630 0370 2DE9F04F 		push	{r4, r5, r6, r7, r8, r9, r10, fp, lr}
 631              		.cfi_def_cfa_offset 36
 632              		.cfi_offset 4, -36
 633              		.cfi_offset 5, -32
 634              		.cfi_offset 6, -28
 635              		.cfi_offset 7, -24
 636              		.cfi_offset 8, -20
 637              		.cfi_offset 9, -16
 638              		.cfi_offset 10, -12
 639              		.cfi_offset 11, -8
 640              		.cfi_offset 14, -4
 641 0374 2DED088B 		fstmfdd	sp!, {d8, d9, d10, d11}
 642              		.cfi_def_cfa_offset 68
 643              		.cfi_offset 80, -68
 644              		.cfi_offset 81, -64
 645              		.cfi_offset 82, -60
 646              		.cfi_offset 83, -56
 647              		.cfi_offset 84, -52
 648              		.cfi_offset 85, -48
 649              		.cfi_offset 86, -44
 650              		.cfi_offset 87, -40
 651 0378 8DB0     		sub	sp, sp, #52
 652              		.cfi_def_cfa_offset 120
 653              		.loc 1 633 0
 654 037a 8A46     		mov	r10, r1
 655              	.LVL120:
 656 037c 0093     		str	r3, [sp]
 657              		.loc 1 656 0
 658 037e 8908     		lsrs	r1, r1, #2
 659              	.LVL121:
 660 0380 009C     		ldr	r4, [sp]
 661 0382 0391     		str	r1, [sp, #12]
 662 0384 0D46     		mov	r5, r1
 663 0386 00EB0111 		add	r1, r0, r1, lsl #4
 664              		.loc 1 633 0
 665 038a 1F46     		mov	r7, r3
 666              		.loc 1 656 0
 667 038c AB46     		mov	fp, r5
 668              	.LVL122:
 669 038e 4FEAC50C 		lsl	ip, r5, #3
 670 0392 A1EBC508 		sub	r8, r1, r5, lsl #3
 671 0396 05EB4503 		add	r3, r5, r5, lsl #1
 672              	.LVL123:
 673 039a 2501     		lsls	r5, r4, #4
 674              	.LVL124:
 675 039c E400     		lsls	r4, r4, #3
 676 039e 0294     		str	r4, [sp, #8]
 677 03a0 0195     		str	r5, [sp, #4]
 678              		.loc 1 633 0
 679 03a2 0646     		mov	r6, r0
 680 03a4 9146     		mov	r9, r2
 681 03a6 07EB470E 		add	lr, r7, r7, lsl #1
 682 03aa 0990     		str	r0, [sp, #36]
ARM GAS  /tmp/ccMmQD6k.s 			page 13


 683              		.loc 1 656 0
 684 03ac CDF810B0 		str	fp, [sp, #16]
 685 03b0 0CF10400 		add	r0, ip, #4
 686              	.LVL125:
 687 03b4 DDF808B0 		ldr	fp, [sp, #8]
 688              	.LVL126:
 689 03b8 CDF808A0 		str	r10, [sp, #8]
 690 03bc DDF804A0 		ldr	r10, [sp, #4]
 691              	.LVL127:
 692              		.loc 1 633 0
 693 03c0 0A92     		str	r2, [sp, #40]
 694 03c2 3044     		add	r0, r0, r6
 695 03c4 3246     		mov	r2, r6
 696              	.LVL128:
 697 03c6 06EBC303 		add	r3, r6, r3, lsl #3
 698              		.loc 1 656 0
 699 03ca 4746     		mov	r7, r8
 700 03cc 4FEACE0E 		lsl	lr, lr, #3
 701 03d0 0436     		adds	r6, r6, #4
 702              	.LVL129:
 703 03d2 4D46     		mov	r5, r9
 704 03d4 4C46     		mov	r4, r9
 705              	.LVL130:
 706              	.L17:
 707              		.loc 1 673 0 discriminator 1
 708 03d6 D2ED016A 		flds	s13, [r2, #4]
 709              		.loc 1 672 0 discriminator 1
 710 03da 16ED014A 		flds	s8, [r6, #-4]
 711              	.LVL131:
 712              		.loc 1 678 0 discriminator 1
 713 03de 10ED016A 		flds	s12, [r0, #-4]
 714              		.loc 1 679 0 discriminator 1
 715 03e2 D7ED014A 		flds	s9, [r7, #4]
 716              		.loc 1 682 0 discriminator 1
 717 03e6 93ED015A 		flds	s10, [r3, #4]
 718              		.loc 1 675 0 discriminator 1
 719 03ea D1ED005A 		flds	s11, [r1]
 720              	.LVL132:
 721              		.loc 1 681 0 discriminator 1
 722 03ee D3ED007A 		flds	s15, [r3]
 723              		.loc 1 676 0 discriminator 1
 724 03f2 91ED017A 		flds	s14, [r1, #4]
 725              	.LVL133:
 726              		.loc 1 695 0 discriminator 1
 727 03f6 99ED001A 		flds	s2, [r9]
 728              		.loc 1 696 0 discriminator 1
 729 03fa D9ED011A 		flds	s3, [r9, #4]
 730              		.loc 1 685 0 discriminator 1
 731 03fe 34EE252A 		fadds	s4, s8, s11
 732              	.LVL134:
 733              		.loc 1 687 0 discriminator 1
 734 0402 76EE272A 		fadds	s5, s12, s15
 735              	.LVL135:
 736              		.loc 1 689 0 discriminator 1
 737 0406 36EE873A 		fadds	s6, s13, s14
 738              	.LVL136:
 739              		.loc 1 691 0 discriminator 1
ARM GAS  /tmp/ccMmQD6k.s 			page 14


 740 040a 74EE853A 		fadds	s7, s9, s10
 741              	.LVL137:
 742              		.loc 1 708 0 discriminator 1
 743 040e 32EE228A 		fadds	s16, s4, s5
 744              		.loc 1 711 0 discriminator 1
 745 0412 73EE230A 		fadds	s1, s6, s7
 746              		.loc 1 699 0 discriminator 1
 747 0416 74EE655A 		fsubs	s11, s8, s11
 748              	.LVL138:
 749              		.loc 1 703 0 discriminator 1
 750 041a 36EEC77A 		fsubs	s14, s13, s14
 751              	.LVL139:
 752              		.loc 1 701 0 discriminator 1
 753 041e 76EE677A 		fsubs	s15, s12, s15
 754              	.LVL140:
 755              		.loc 1 705 0 discriminator 1
 756 0422 74EEC56A 		fsubs	s13, s9, s10
 757              	.LVL141:
 758              		.loc 1 708 0 discriminator 1
 759 0426 06ED018A 		fsts	s16, [r6, #-4]
 760              	.LVL142:
 761              		.loc 1 711 0 discriminator 1
 762 042a C2ED010A 		fsts	s1, [r2, #4]
 763              		.loc 1 727 0 discriminator 1
 764 042e 94ED014A 		flds	s8, [r4, #4]
 765              	.LVL143:
 766              		.loc 1 732 0 discriminator 1
 767 0432 D5ED014A 		flds	s9, [r5, #4]
 768              	.LVL144:
 769              		.loc 1 718 0 discriminator 1
 770 0436 32EE625A 		fsubs	s10, s4, s5
 771              	.LVL145:
 772              		.loc 1 716 0 discriminator 1
 773 043a 77EE270A 		fadds	s1, s14, s15
 774              		.loc 1 714 0 discriminator 1
 775 043e 35EEE62A 		fsubs	s4, s11, s13
 776              	.LVL146:
 777              		.loc 1 720 0 discriminator 1
 778 0442 33EE636A 		fsubs	s12, s6, s7
 779              	.LVL147:
 780              		.loc 1 724 0 discriminator 1
 781 0446 77EE677A 		fsubs	s15, s14, s15
 782              	.LVL148:
 783              		.loc 1 722 0 discriminator 1
 784 044a 35EEA67A 		fadds	s14, s11, s13
 785              	.LVL149:
 786              		.loc 1 726 0 discriminator 1
 787 044e D4ED002A 		flds	s5, [r4]
 788              	.LVL150:
 789              		.loc 1 731 0 discriminator 1
 790 0452 95ED003A 		flds	s6, [r5]
 791              	.LVL151:
 792 0456 64EE605A 		fnmuls	s11, s8, s1
 793              	.LVL152:
 794 045a 61EEC63A 		fnmuls	s7, s3, s12
 795              	.LVL153:
 796 045e 64EEE76A 		fnmuls	s13, s9, s15
ARM GAS  /tmp/ccMmQD6k.s 			page 15


 797              	.LVL154:
 798              		.loc 1 746 0 discriminator 1
 799 0462 22EE044A 		fmuls	s8, s4, s8
 800              	.LVL155:
 801              		.loc 1 752 0 discriminator 1
 802 0466 65EE211A 		fmuls	s3, s10, s3
 803              	.LVL156:
 804              		.loc 1 758 0 discriminator 1
 805 046a 67EE244A 		fmuls	s9, s14, s9
 806              	.LVL157:
 807              		.loc 1 761 0 discriminator 1
 808 046e A0EEA24A 		vfma.f32	s8, s1, s5
 809              	.LVL158:
 810 0472 0832     		adds	r2, r2, #8
 811              		.loc 1 791 0 discriminator 1
 812 0474 4245     		cmp	r2, r8
 813              		.loc 1 760 0 discriminator 1
 814 0476 E2EE225A 		vfma.f32	s11, s4, s5
 815              	.LVL159:
 816 047a 06F10806 		add	r6, r6, #8
 817 047e D144     		add	r9, r9, r10
 818              		.loc 1 762 0 discriminator 1
 819 0480 E5EE013A 		vfma.f32	s7, s10, s2
 820              	.LVL160:
 821 0484 5C44     		add	r4, r4, fp
 822              	.LVL161:
 823 0486 7544     		add	r5, r5, lr
 824              	.LVL162:
 825              		.loc 1 763 0 discriminator 1
 826 0488 E6EE011A 		vfma.f32	s3, s12, s2
 827              	.LVL163:
 828 048c 00F10800 		add	r0, r0, #8
 829 0490 07F10807 		add	r7, r7, #8
 830              		.loc 1 764 0 discriminator 1
 831 0494 E7EE036A 		vfma.f32	s13, s14, s6
 832              	.LVL164:
 833 0498 01F10801 		add	r1, r1, #8
 834 049c 03F10803 		add	r3, r3, #8
 835              		.loc 1 765 0 discriminator 1
 836 04a0 E7EE834A 		vfma.f32	s9, s15, s6
 837              	.LVL165:
 838              		.loc 1 768 0 discriminator 1
 839 04a4 40ED033A 		fsts	s7, [r0, #-12]
 840              		.loc 1 771 0 discriminator 1
 841 04a8 47ED011A 		fsts	s3, [r7, #-4]
 842              		.loc 1 774 0 discriminator 1
 843 04ac 41ED025A 		fsts	s11, [r1, #-8]
 844              		.loc 1 777 0 discriminator 1
 845 04b0 01ED014A 		fsts	s8, [r1, #-4]
 846              		.loc 1 780 0 discriminator 1
 847 04b4 43ED026A 		fsts	s13, [r3, #-8]
 848              		.loc 1 783 0 discriminator 1
 849 04b8 43ED014A 		fsts	s9, [r3, #-4]
 850              		.loc 1 791 0 discriminator 1
 851 04bc 8BD1     		bne	.L17
 852              		.loc 1 793 0
 853 04be 009B     		ldr	r3, [sp]
ARM GAS  /tmp/ccMmQD6k.s 			page 16


 854              		.loc 1 796 0
 855 04c0 BDF80C20 		ldrh	r2, [sp, #12]
 856 04c4 DDF810B0 		ldr	fp, [sp, #16]
 857 04c8 DDF808A0 		ldr	r10, [sp, #8]
 858 04cc 0B92     		str	r2, [sp, #44]
 859              		.loc 1 793 0
 860 04ce 9B00     		lsls	r3, r3, #2
 861 04d0 9BB2     		uxth	r3, r3
 862              		.loc 1 796 0
 863 04d2 042A     		cmp	r2, #4
 864              		.loc 1 793 0
 865 04d4 0693     		str	r3, [sp, #24]
 866              	.LVL166:
 867              		.loc 1 796 0
 868 04d6 40F2AE80 		bls	.L23
 869 04da 0B9B     		ldr	r3, [sp, #44]
 870 04dc 0793     		str	r3, [sp, #28]
 871              	.LVL167:
 872              	.L22:
 873 04de 0698     		ldr	r0, [sp, #24]
 874              		.loc 1 800 0
 875 04e0 0A9F     		ldr	r7, [sp, #40]
 876 04e2 099E     		ldr	r6, [sp, #36]
 877 04e4 4FEA9B03 		lsr	r3, fp, #2
 878 04e8 1946     		mov	r1, r3
 879 04ea 0893     		str	r3, [sp, #32]
 880              	.LVL168:
 881 04ec 00EB4003 		add	r3, r0, r0, lsl #1
 882 04f0 4A1E     		subs	r2, r1, #1
 883 04f2 DB00     		lsls	r3, r3, #3
 884 04f4 0592     		str	r2, [sp, #20]
 885 04f6 0393     		str	r3, [sp, #12]
 886 04f8 0A01     		lsls	r2, r1, #4
 887 04fa 0301     		lsls	r3, r0, #4
 888 04fc 0492     		str	r2, [sp, #16]
 889 04fe 0293     		str	r3, [sp, #8]
 890 0500 C200     		lsls	r2, r0, #3
 891              		.loc 1 804 0
 892 0502 0023     		movs	r3, #0
 893 0504 06EBC109 		add	r9, r6, r1, lsl #3
 894 0508 0192     		str	r2, [sp, #4]
 895              		.loc 1 800 0
 896 050a B846     		mov	r8, r7
 897 050c BE46     		mov	lr, r7
 898              		.loc 1 804 0
 899 050e 0093     		str	r3, [sp]
 900              	.LVL169:
 901              	.L21:
 902 0510 049B     		ldr	r3, [sp, #16]
 903              		.loc 1 810 0
 904 0512 97ED008A 		flds	s16, [r7]
 905              	.LVL170:
 906              		.loc 1 811 0
 907 0516 D7ED010A 		flds	s1, [r7, #4]
 908              	.LVL171:
 909              		.loc 1 812 0
 910 051a 9EED001A 		flds	s2, [lr]
ARM GAS  /tmp/ccMmQD6k.s 			page 17


 911              	.LVL172:
 912              		.loc 1 813 0
 913 051e DEED011A 		flds	s3, [lr, #4]
 914              	.LVL173:
 915              		.loc 1 814 0
 916 0522 98ED002A 		flds	s4, [r8]
 917              	.LVL174:
 918              		.loc 1 815 0
 919 0526 D8ED012A 		flds	s5, [r8, #4]
 920              	.LVL175:
 921              		.loc 1 820 0
 922 052a 009D     		ldr	r5, [sp]
 923 052c F118     		adds	r1, r6, r3
 924 052e 09EB0302 		add	r2, r9, r3
 925 0532 341D     		adds	r4, r6, #4
 926              		.loc 1 815 0
 927 0534 4B46     		mov	r3, r9
 928 0536 3046     		mov	r0, r6
 929              	.LVL176:
 930              	.L20:
 931              		.loc 1 829 0 discriminator 1
 932 0538 14ED014A 		flds	s8, [r4, #-4]
 933              	.LVL177:
 934              		.loc 1 830 0 discriminator 1
 935 053c 90ED016A 		flds	s12, [r0, #4]
 936              	.LVL178:
 937              		.loc 1 838 0 discriminator 1
 938 0540 D2ED007A 		flds	s15, [r2]
 939              	.LVL179:
 940              		.loc 1 833 0 discriminator 1
 941 0544 D3ED014A 		flds	s9, [r3, #4]
 942              		.loc 1 836 0 discriminator 1
 943 0548 D1ED016A 		flds	s13, [r1, #4]
 944              		.loc 1 839 0 discriminator 1
 945 054c 92ED015A 		flds	s10, [r2, #4]
 946              		.loc 1 835 0 discriminator 1
 947 0550 D1ED005A 		flds	s11, [r1]
 948              		.loc 1 832 0 discriminator 1
 949 0554 93ED007A 		flds	s14, [r3]
 950              	.LVL180:
 951              		.loc 1 851 0 discriminator 1
 952 0558 34EE253A 		fadds	s6, s8, s11
 953              		.loc 1 853 0 discriminator 1
 954 055c 77EE273A 		fadds	s7, s14, s15
 955              		.loc 1 842 0 discriminator 1
 956 0560 74EE655A 		fsubs	s11, s8, s11
 957              	.LVL181:
 958              		.loc 1 844 0 discriminator 1
 959 0564 37EE677A 		fsubs	s14, s14, s15
 960              	.LVL182:
 961              		.loc 1 855 0 discriminator 1
 962 0568 36EE264A 		fadds	s8, s12, s13
 963              	.LVL183:
 964              		.loc 1 846 0 discriminator 1
 965 056c 76EE667A 		fsubs	s15, s12, s13
 966              	.LVL184:
 967              		.loc 1 857 0 discriminator 1
ARM GAS  /tmp/ccMmQD6k.s 			page 18


 968 0570 34EE856A 		fadds	s12, s9, s10
 969              	.LVL185:
 970              		.loc 1 848 0 discriminator 1
 971 0574 74EEC56A 		fsubs	s13, s9, s10
 972              	.LVL186:
 973              		.loc 1 862 0 discriminator 1
 974 0578 37EE87AA 		fadds	s20, s15, s14
 975              		.loc 1 860 0 discriminator 1
 976 057c 75EEE69A 		fsubs	s19, s11, s13
 977              	.LVL187:
 978              		.loc 1 864 0 discriminator 1
 979 0580 73EE63AA 		fsubs	s21, s6, s7
 980              	.LVL188:
 981              		.loc 1 866 0 discriminator 1
 982 0584 34EE46BA 		fsubs	s22, s8, s12
 983              	.LVL189:
 984              		.loc 1 868 0 discriminator 1
 985 0588 75EEA66A 		fadds	s13, s11, s13
 986              	.LVL190:
 987              		.loc 1 870 0 discriminator 1
 988 058c 77EEC77A 		fsubs	s15, s15, s14
 989              	.LVL191:
 990              		.loc 1 893 0 discriminator 1
 991 0590 6AEEA18A 		fmuls	s17, s21, s3
 992 0594 21EECB9A 		fnmuls	s18, s3, s22
 993              		.loc 1 887 0 discriminator 1
 994 0598 29EEA05A 		fmuls	s10, s19, s1
 995              	.LVL192:
 996 059c 60EECA4A 		fnmuls	s9, s1, s20
 997              	.LVL193:
 998 05a0 62EEE75A 		fnmuls	s11, s5, s15
 999              	.LVL194:
 1000              		.loc 1 899 0 discriminator 1
 1001 05a4 26EEA27A 		fmuls	s14, s13, s5
 1002              	.LVL195:
 1003              		.loc 1 904 0 discriminator 1
 1004 05a8 EBEE018A 		vfma.f32	s17, s22, s2
 1005              		.loc 1 926 0 discriminator 1
 1006 05ac 5D44     		add	r5, r5, fp
 1007              	.LVL196:
 1008              		.loc 1 927 0 discriminator 1
 1009 05ae AA45     		cmp	r10, r5
 1010              		.loc 1 903 0 discriminator 1
 1011 05b0 AAEE819A 		vfma.f32	s18, s21, s2
 1012              		.loc 1 902 0 discriminator 1
 1013 05b4 AAEE085A 		vfma.f32	s10, s20, s16
 1014              		.loc 1 901 0 discriminator 1
 1015 05b8 E9EE884A 		vfma.f32	s9, s19, s16
 1016              		.loc 1 905 0 discriminator 1
 1017 05bc E6EE825A 		vfma.f32	s11, s13, s4
 1018              		.loc 1 906 0 discriminator 1
 1019 05c0 A7EE827A 		vfma.f32	s14, s15, s4
 1020              		.loc 1 872 0 discriminator 1
 1021 05c4 73EE233A 		fadds	s7, s6, s7
 1022              	.LVL197:
 1023              		.loc 1 873 0 discriminator 1
 1024 05c8 34EE066A 		fadds	s12, s8, s12
ARM GAS  /tmp/ccMmQD6k.s 			page 19


 1025              	.LVL198:
 1026              		.loc 1 872 0 discriminator 1
 1027 05cc 44ED013A 		fsts	s7, [r4, #-4]
 1028              	.LVL199:
 1029              		.loc 1 873 0 discriminator 1
 1030 05d0 80ED016A 		fsts	s12, [r0, #4]
 1031              	.LVL200:
 1032 05d4 6444     		add	r4, r4, ip
 1033              		.loc 1 909 0 discriminator 1
 1034 05d6 83ED009A 		fsts	s18, [r3]
 1035              		.loc 1 912 0 discriminator 1
 1036 05da C3ED018A 		fsts	s17, [r3, #4]
 1037 05de 6044     		add	r0, r0, ip
 1038              		.loc 1 915 0 discriminator 1
 1039 05e0 C1ED004A 		fsts	s9, [r1]
 1040              		.loc 1 918 0 discriminator 1
 1041 05e4 81ED015A 		fsts	s10, [r1, #4]
 1042 05e8 6344     		add	r3, r3, ip
 1043              		.loc 1 921 0 discriminator 1
 1044 05ea C2ED005A 		fsts	s11, [r2]
 1045              		.loc 1 924 0 discriminator 1
 1046 05ee 82ED017A 		fsts	s14, [r2, #4]
 1047 05f2 6144     		add	r1, r1, ip
 1048 05f4 6244     		add	r2, r2, ip
 1049              		.loc 1 927 0 discriminator 1
 1050 05f6 9FD8     		bhi	.L20
 1051 05f8 019A     		ldr	r2, [sp, #4]
 1052              		.loc 1 928 0
 1053 05fa 009B     		ldr	r3, [sp]
 1054 05fc 1744     		add	r7, r7, r2
 1055 05fe 029A     		ldr	r2, [sp, #8]
 1056 0600 9644     		add	lr, lr, r2
 1057 0602 039A     		ldr	r2, [sp, #12]
 1058 0604 9044     		add	r8, r8, r2
 1059              		.loc 1 929 0
 1060 0606 059A     		ldr	r2, [sp, #20]
 1061              		.loc 1 928 0
 1062 0608 0133     		adds	r3, r3, #1
 1063              		.loc 1 929 0
 1064 060a 9342     		cmp	r3, r2
 1065              		.loc 1 928 0
 1066 060c 0093     		str	r3, [sp]
 1067              	.LVL201:
 1068 060e 06F10806 		add	r6, r6, #8
 1069 0612 09F10809 		add	r9, r9, #8
 1070              		.loc 1 929 0
 1071 0616 7FF67BAF 		bls	.L21
 1072              		.loc 1 930 0 discriminator 2
 1073 061a 069B     		ldr	r3, [sp, #24]
 1074              	.LVL202:
 1075              		.loc 1 796 0 discriminator 2
 1076 061c 079A     		ldr	r2, [sp, #28]
 1077              		.loc 1 800 0 discriminator 2
 1078 061e DDF820B0 		ldr	fp, [sp, #32]
 1079              	.LVL203:
 1080              		.loc 1 796 0 discriminator 2
 1081 0622 9208     		lsrs	r2, r2, #2
ARM GAS  /tmp/ccMmQD6k.s 			page 20


 1082              		.loc 1 930 0 discriminator 2
 1083 0624 9B00     		lsls	r3, r3, #2
 1084 0626 9BB2     		uxth	r3, r3
 1085              		.loc 1 796 0 discriminator 2
 1086 0628 042A     		cmp	r2, #4
 1087 062a 0792     		str	r2, [sp, #28]
 1088              	.LVL204:
 1089              		.loc 1 930 0 discriminator 2
 1090 062c 0693     		str	r3, [sp, #24]
 1091              	.LVL205:
 1092              		.loc 1 796 0 discriminator 2
 1093 062e 02D9     		bls	.L23
 1094 0630 4FEACB0C 		lsl	ip, fp, #3
 1095 0634 53E7     		b	.L22
 1096              	.LVL206:
 1097              	.L23:
 1098 0636 099B     		ldr	r3, [sp, #36]
 1099 0638 0B9A     		ldr	r2, [sp, #44]
 1100              	.LVL207:
 1101 063a 2033     		adds	r3, r3, #32
 1102              	.LVL208:
 1103              	.L19:
 1104              		.loc 1 944 0 discriminator 1
 1105 063c 53ED044A 		flds	s9, [r3, #-16]
 1106              		.loc 1 942 0 discriminator 1
 1107 0640 13ED066A 		flds	s12, [r3, #-24]
 1108              		.loc 1 943 0 discriminator 1
 1109 0644 13ED055A 		flds	s10, [r3, #-20]
 1110              		.loc 1 947 0 discriminator 1
 1111 0648 53ED015A 		flds	s11, [r3, #-4]
 1112              		.loc 1 941 0 discriminator 1
 1113 064c 53ED076A 		flds	s13, [r3, #-28]
 1114              		.loc 1 940 0 discriminator 1
 1115 0650 13ED084A 		flds	s8, [r3, #-32]
 1116              	.LVL209:
 1117              		.loc 1 946 0 discriminator 1
 1118 0654 53ED027A 		flds	s15, [r3, #-8]
 1119              		.loc 1 945 0 discriminator 1
 1120 0658 13ED037A 		flds	s14, [r3, #-12]
 1121              	.LVL210:
 1122              		.loc 1 951 0 discriminator 1
 1123 065c 34EE243A 		fadds	s6, s8, s9
 1124              	.LVL211:
 1125              		.loc 1 963 0 discriminator 1
 1126 0660 76EE273A 		fadds	s7, s12, s15
 1127              		.loc 1 954 0 discriminator 1
 1128 0664 34EE644A 		fsubs	s8, s8, s9
 1129              	.LVL212:
 1130              		.loc 1 969 0 discriminator 1
 1131 0668 76EE677A 		fsubs	s15, s12, s15
 1132              	.LVL213:
 1133              		.loc 1 972 0 discriminator 1
 1134 066c 75EE654A 		fsubs	s9, s10, s11
 1135              	.LVL214:
 1136              		.loc 1 966 0 discriminator 1
 1137 0670 35EE256A 		fadds	s12, s10, s11
 1138              	.LVL215:
ARM GAS  /tmp/ccMmQD6k.s 			page 21


 1139              		.loc 1 957 0 discriminator 1
 1140 0674 76EE875A 		fadds	s11, s13, s14
 1141              	.LVL216:
 1142              		.loc 1 960 0 discriminator 1
 1143 0678 36EEC77A 		fsubs	s14, s13, s14
 1144              	.LVL217:
 1145              		.loc 1 975 0 discriminator 1
 1146 067c 73EE232A 		fadds	s5, s6, s7
 1147              	.LVL218:
 1148              		.loc 1 987 0 discriminator 1
 1149 0680 74EE246A 		fadds	s13, s8, s9
 1150              	.LVL219:
 1151              		.loc 1 985 0 discriminator 1
 1152 0684 37EE275A 		fadds	s10, s14, s15
 1153              	.LVL220:
 1154              		.loc 1 979 0 discriminator 1
 1155 0688 73EE633A 		fsubs	s7, s6, s7
 1156              	.LVL221:
 1157              		.loc 1 989 0 discriminator 1
 1158 068c 77EE677A 		fsubs	s15, s14, s15
 1159              	.LVL222:
 1160              		.loc 1 983 0 discriminator 1
 1161 0690 34EE643A 		fsubs	s6, s8, s9
 1162              	.LVL223:
 1163              		.loc 1 977 0 discriminator 1
 1164 0694 75EE864A 		fadds	s9, s11, s12
 1165              	.LVL224:
 1166              		.loc 1 981 0 discriminator 1
 1167 0698 35EEC66A 		fsubs	s12, s11, s12
 1168              	.LVL225:
 1169              		.loc 1 991 0 discriminator 1
 1170 069c 62EE802A 		fmuls	s5, s5, s0
 1171              	.LVL226:
 1172              		.loc 1 994 0 discriminator 1
 1173 06a0 26EE007A 		fmuls	s14, s12, s0
 1174              	.LVL227:
 1175              		.loc 1 993 0 discriminator 1
 1176 06a4 63EE805A 		fmuls	s11, s7, s0
 1177              	.LVL228:
 1178              		.loc 1 995 0 discriminator 1
 1179 06a8 23EE004A 		fmuls	s8, s6, s0
 1180              	.LVL229:
 1181              		.loc 1 997 0 discriminator 1
 1182 06ac 66EE806A 		fmuls	s13, s13, s0
 1183              	.LVL230:
 1184              		.loc 1 992 0 discriminator 1
 1185 06b0 64EE804A 		fmuls	s9, s9, s0
 1186              	.LVL231:
 1187              		.loc 1 996 0 discriminator 1
 1188 06b4 25EE006A 		fmuls	s12, s10, s0
 1189              	.LVL232:
 1190              		.loc 1 998 0 discriminator 1
 1191 06b8 67EE807A 		fmuls	s15, s15, s0
 1192              	.LVL233:
 1193              		.loc 1 1020 0 discriminator 1
 1194 06bc 013A     		subs	r2, r2, #1
 1195              	.LVL234:
ARM GAS  /tmp/ccMmQD6k.s 			page 22


 1196              		.loc 1 1001 0 discriminator 1
 1197 06be 43ED082A 		fsts	s5, [r3, #-32]
 1198              	.LVL235:
 1199              		.loc 1 1005 0 discriminator 1
 1200 06c2 43ED065A 		fsts	s11, [r3, #-24]
 1201              	.LVL236:
 1202              		.loc 1 1009 0 discriminator 1
 1203 06c6 03ED044A 		fsts	s8, [r3, #-16]
 1204              	.LVL237:
 1205              		.loc 1 1013 0 discriminator 1
 1206 06ca 43ED026A 		fsts	s13, [r3, #-8]
 1207              	.LVL238:
 1208              		.loc 1 1003 0 discriminator 1
 1209 06ce 43ED074A 		fsts	s9, [r3, #-28]
 1210              	.LVL239:
 1211              		.loc 1 1007 0 discriminator 1
 1212 06d2 03ED057A 		fsts	s14, [r3, #-20]
 1213              	.LVL240:
 1214              		.loc 1 1011 0 discriminator 1
 1215 06d6 03ED036A 		fsts	s12, [r3, #-12]
 1216              	.LVL241:
 1217              		.loc 1 1015 0 discriminator 1
 1218 06da 43ED017A 		fsts	s15, [r3, #-4]
 1219              	.LVL242:
 1220 06de 03F12003 		add	r3, r3, #32
 1221              	.LVL243:
 1222              		.loc 1 1020 0 discriminator 1
 1223 06e2 ABD1     		bne	.L19
 1224              		.loc 1 1220 0
 1225 06e4 0DB0     		add	sp, sp, #52
 1226              		.cfi_def_cfa_offset 68
 1227              		@ sp needed
 1228 06e6 BDEC088B 		fldmfdd	sp!, {d8-d11}
 1229              		.cfi_restore 86
 1230              		.cfi_restore 87
 1231              		.cfi_restore 84
 1232              		.cfi_restore 85
 1233              		.cfi_restore 82
 1234              		.cfi_restore 83
 1235              		.cfi_restore 80
 1236              		.cfi_restore 81
 1237              		.cfi_def_cfa_offset 36
 1238 06ea BDE8F08F 		pop	{r4, r5, r6, r7, r8, r9, r10, fp, pc}
 1239              		.cfi_endproc
 1240              	.LFE137:
 1241              		.size	arm_radix4_butterfly_inverse_f32, .-arm_radix4_butterfly_inverse_f32
 1242 06ee 00BF     		.align	2
 1243              		.p2align 4,,15
 1244              		.global	arm_cfft_radix4_f32
 1245              		.thumb
 1246              		.thumb_func
 1247              		.type	arm_cfft_radix4_f32, %function
 1248              	arm_cfft_radix4_f32:
 1249              	.LFB135:
 1250              		.loc 1 86 0
 1251              		.cfi_startproc
 1252              		@ args = 0, pretend = 0, frame = 0
ARM GAS  /tmp/ccMmQD6k.s 			page 23


 1253              		@ frame_needed = 0, uses_anonymous_args = 0
 1254              	.LVL244:
 1255 06f0 70B5     		push	{r4, r5, r6, lr}
 1256              		.cfi_def_cfa_offset 16
 1257              		.cfi_offset 4, -16
 1258              		.cfi_offset 5, -12
 1259              		.cfi_offset 6, -8
 1260              		.cfi_offset 14, -4
 1261              		.loc 1 87 0
 1262 06f2 8378     		ldrb	r3, [r0, #2]	@ zero_extendqisi2
 1263              		.loc 1 86 0
 1264 06f4 0446     		mov	r4, r0
 1265              		.loc 1 87 0
 1266 06f6 012B     		cmp	r3, #1
 1267              		.loc 1 86 0
 1268 06f8 0D46     		mov	r5, r1
 1269              		.loc 1 90 0
 1270 06fa 0846     		mov	r0, r1
 1271              	.LVL245:
 1272 06fc 6268     		ldr	r2, [r4, #4]
 1273 06fe 2188     		ldrh	r1, [r4]
 1274              	.LVL246:
 1275 0700 A389     		ldrh	r3, [r4, #12]
 1276              		.loc 1 87 0
 1277 0702 05D0     		beq	.L35
 1278              		.loc 1 95 0
 1279 0704 FFF7FEFF 		bl	arm_radix4_butterfly_f32
 1280              	.LVL247:
 1281              		.loc 1 98 0
 1282 0708 E378     		ldrb	r3, [r4, #3]	@ zero_extendqisi2
 1283 070a 012B     		cmp	r3, #1
 1284 070c 07D0     		beq	.L36
 1285              	.L30:
 1286 070e 70BD     		pop	{r4, r5, r6, pc}
 1287              	.LVL248:
 1288              	.L35:
 1289              		.loc 1 90 0
 1290 0710 94ED040A 		flds	s0, [r4, #16]
 1291 0714 FFF7FEFF 		bl	arm_radix4_butterfly_inverse_f32
 1292              	.LVL249:
 1293              		.loc 1 98 0
 1294 0718 E378     		ldrb	r3, [r4, #3]	@ zero_extendqisi2
 1295 071a 012B     		cmp	r3, #1
 1296 071c F7D1     		bne	.L30
 1297              	.L36:
 1298              		.loc 1 101 0
 1299 071e 2846     		mov	r0, r5
 1300 0720 2188     		ldrh	r1, [r4]
 1301 0722 E289     		ldrh	r2, [r4, #14]
 1302 0724 A368     		ldr	r3, [r4, #8]
 1303              		.loc 1 104 0
 1304 0726 BDE87040 		pop	{r4, r5, r6, lr}
 1305              		.cfi_restore 14
 1306              		.cfi_restore 6
 1307              		.cfi_restore 5
 1308              		.cfi_restore 4
 1309              		.cfi_def_cfa_offset 0
ARM GAS  /tmp/ccMmQD6k.s 			page 24


 1310              	.LVL250:
 1311              		.loc 1 101 0
 1312 072a FFF7FEBF 		b	arm_bitreversal_f32
 1313              	.LVL251:
 1314              		.cfi_endproc
 1315              	.LFE135:
 1316              		.size	arm_cfft_radix4_f32, .-arm_cfft_radix4_f32
 1317              	.Letext0:
 1318              		.file 2 "/home/sbcu/Dropbox/pcb-layouts/axo-on-discovery-board/axoloti/platform_linux/arm-none-eab
 1319              		.file 3 "/home/sbcu/Dropbox/pcb-layouts/axo-on-discovery-board/axoloti/platform_linux/arm-none-eab
 1320              		.file 4 "/home/sbcu/Dropbox/pcb-layouts/axo-on-discovery-board/axoloti/platform_linux/../CMSIS//DS