ARM GAS  /tmp/ccaJcdPP.s 			page 1


   1              		.syntax unified
   2              		.cpu cortex-m4
   3              		.eabi_attribute 27, 1
   4              		.eabi_attribute 28, 1
   5              		.fpu fpv4-sp-d16
   6              		.eabi_attribute 20, 1
   7              		.eabi_attribute 21, 1
   8              		.eabi_attribute 23, 3
   9              		.eabi_attribute 24, 1
  10              		.eabi_attribute 25, 1
  11              		.eabi_attribute 26, 1
  12              		.eabi_attribute 30, 2
  13              		.eabi_attribute 34, 1
  14              		.eabi_attribute 18, 4
  15              		.thumb
  16              		.file	"arm_biquad_cascade_df1_fast_q31.c"
  17              		.text
  18              	.Ltext0:
  19              		.cfi_sections	.debug_frame
  20              		.align	2
  21              		.p2align 4,,15
  22              		.global	arm_biquad_cascade_df1_fast_q31
  23              		.thumb
  24              		.thumb_func
  25              		.type	arm_biquad_cascade_df1_fast_q31, %function
  26              	arm_biquad_cascade_df1_fast_q31:
  27              	.LFB135:
  28              		.file 1 "/home/sbcu/Dropbox/pcb-layouts/axo-on-discovery-board/axoloti/platform_linux/../CMSIS//DS
  29              		.loc 1 82 0
  30              		.cfi_startproc
  31              		@ args = 0, pretend = 0, frame = 40
  32              		@ frame_needed = 0, uses_anonymous_args = 0
  33              	.LVL0:
  34 0000 2DE9F04F 		push	{r4, r5, r6, r7, r8, r9, r10, fp, lr}
  35              		.cfi_def_cfa_offset 36
  36              		.cfi_offset 4, -36
  37              		.cfi_offset 5, -32
  38              		.cfi_offset 6, -28
  39              		.cfi_offset 7, -24
  40              		.cfi_offset 8, -20
  41              		.cfi_offset 9, -16
  42              		.cfi_offset 10, -12
  43              		.cfi_offset 11, -8
  44              		.cfi_offset 14, -4
  45 0004 8BB0     		sub	sp, sp, #44
  46              		.cfi_def_cfa_offset 80
  47 0006 9C08     		lsrs	r4, r3, #2
  48 0008 2746     		mov	r7, r4
  49              		.loc 1 91 0
  50 000a 067B     		ldrb	r6, [r0, #12]	@ zero_extendqisi2
  51 000c 0694     		str	r4, [sp, #24]
  52              		.loc 1 92 0
  53 000e 31C8     		ldmia	r0, {r0, r4, r5}
  54              	.LVL1:
  55 0010 03F00303 		and	r3, r3, #3
  56              	.LVL2:
  57 0014 0490     		str	r0, [sp, #16]
ARM GAS  /tmp/ccaJcdPP.s 			page 2


  58 0016 0793     		str	r3, [sp, #28]
  59 0018 3801     		lsls	r0, r7, #4
  60 001a 1346     		mov	r3, r2
  61 001c 0344     		add	r3, r3, r0
  62 001e 0893     		str	r3, [sp, #32]
  63 0020 05F11403 		add	r3, r5, #20
  64 0024 0393     		str	r3, [sp, #12]
  65 0026 04F11003 		add	r3, r4, #16
  66              		.loc 1 82 0
  67 002a 0592     		str	r2, [sp, #20]
  68 002c 0990     		str	r0, [sp, #36]
  69 002e 0191     		str	r1, [sp, #4]
  70              	.LVL3:
  71              		.loc 1 91 0
  72 0030 06F1010B 		add	fp, r6, #1
  73              	.LVL4:
  74 0034 0293     		str	r3, [sp, #8]
  75              	.LVL5:
  76              	.L6:
  77              		.loc 1 98 0
  78 0036 039A     		ldr	r2, [sp, #12]
  79 0038 52F814EC 		ldr	lr, [r2, #-20]
  80              	.LVL6:
  81              		.loc 1 99 0
  82 003c 52F810CC 		ldr	ip, [r2, #-16]
  83              	.LVL7:
  84              		.loc 1 100 0
  85 0040 52F80C8C 		ldr	r8, [r2, #-12]
  86              	.LVL8:
  87              		.loc 1 102 0
  88 0044 12E90006 		ldmdb	r2, {r9, r10}
  89              	.LVL9:
  90              		.loc 1 105 0
  91 0048 029A     		ldr	r2, [sp, #8]
  92 004a 52F8104C 		ldr	r4, [r2, #-16]
  93              	.LVL10:
  94              		.loc 1 106 0
  95 004e 52F80C5C 		ldr	r5, [r2, #-12]
  96              	.LVL11:
  97              		.loc 1 107 0
  98 0052 52F8083C 		ldr	r3, [r2, #-8]
  99              	.LVL12:
 100              		.loc 1 108 0
 101 0056 52F8041C 		ldr	r1, [r2, #-4]
 102              	.LVL13:
 103              		.loc 1 120 0
 104 005a 069A     		ldr	r2, [sp, #24]
 105 005c 002A     		cmp	r2, #0
 106 005e 00F09180 		beq	.L7
 107 0062 0198     		ldr	r0, [sp, #4]
 108 0064 0092     		str	r2, [sp]
 109 0066 00F11007 		add	r7, r0, #16
 110 006a 0598     		ldr	r0, [sp, #20]
 111 006c 00F11006 		add	r6, r0, #16
 112              	.LVL14:
 113              	.L3:
 114              		.loc 1 123 0
ARM GAS  /tmp/ccaJcdPP.s 			page 3


 115 0070 57F8100C 		ldr	r0, [r7, #-16]
 116              	.LVL15:
 117              		.loc 1 128 0
 118              	@ 128 "/home/sbcu/Dropbox/pcb-layouts/axo-on-discovery-board/axoloti/platform_linux/../CMSIS//DSP_L
 119 0074 5CFB14F2 		smmulr r2, ip, r4
 120              	@ 0 "" 2
 121              	.LVL16:
 122              		.loc 1 131 0
 123              	@ 131 "/home/sbcu/Dropbox/pcb-layouts/axo-on-discovery-board/axoloti/platform_linux/../CMSIS//DSP_L
 124 0078 5EFB1022 		smmlar r2, lr, r0, r2
 125              	@ 0 "" 2
 126              	.LVL17:
 127              		.loc 1 134 0
 128              	@ 134 "/home/sbcu/Dropbox/pcb-layouts/axo-on-discovery-board/axoloti/platform_linux/../CMSIS//DSP_L
 129 007c 58FB1525 		smmlar r5, r8, r5, r2
 130              	@ 0 "" 2
 131              	.LVL18:
 132              		.loc 1 137 0
 133              	@ 137 "/home/sbcu/Dropbox/pcb-layouts/axo-on-discovery-board/axoloti/platform_linux/../CMSIS//DSP_L
 134 0080 59FB1355 		smmlar r5, r9, r3, r5
 135              	@ 0 "" 2
 136              	.LVL19:
 137              		.loc 1 140 0
 138              	@ 140 "/home/sbcu/Dropbox/pcb-layouts/axo-on-discovery-board/axoloti/platform_linux/../CMSIS//DSP_L
 139 0084 5AFB1151 		smmlar r1, r10, r1, r5
 140              	@ 0 "" 2
 141              	.LVL20:
 142              		.loc 1 143 0
 143              		.thumb
 144 0088 01FA0BF1 		lsl	r1, r1, fp
 145              	.LVL21:
 146              		.loc 1 146 0
 147 008c 57F80C2C 		ldr	r2, [r7, #-12]
 148              	.LVL22:
 149              		.loc 1 149 0
 150 0090 46F8101C 		str	r1, [r6, #-16]
 151              		.loc 1 154 0
 152              	@ 154 "/home/sbcu/Dropbox/pcb-layouts/axo-on-discovery-board/axoloti/platform_linux/../CMSIS//DSP_L
 153 0094 5EFB12F5 		smmulr r5, lr, r2
 154              	@ 0 "" 2
 155              	.LVL23:
 156              		.loc 1 157 0
 157              	@ 157 "/home/sbcu/Dropbox/pcb-layouts/axo-on-discovery-board/axoloti/platform_linux/../CMSIS//DSP_L
 158 0098 5CFB1055 		smmlar r5, ip, r0, r5
 159              	@ 0 "" 2
 160              	.LVL24:
 161              		.loc 1 160 0
 162              	@ 160 "/home/sbcu/Dropbox/pcb-layouts/axo-on-discovery-board/axoloti/platform_linux/../CMSIS//DSP_L
 163 009c 58FB1454 		smmlar r4, r8, r4, r5
 164              	@ 0 "" 2
 165              	.LVL25:
 166              		.loc 1 163 0
 167              	@ 163 "/home/sbcu/Dropbox/pcb-layouts/axo-on-discovery-board/axoloti/platform_linux/../CMSIS//DSP_L
 168 00a0 59FB1144 		smmlar r4, r9, r1, r4
 169              	@ 0 "" 2
 170              	.LVL26:
 171              		.loc 1 166 0
ARM GAS  /tmp/ccaJcdPP.s 			page 4


 172              	@ 166 "/home/sbcu/Dropbox/pcb-layouts/axo-on-discovery-board/axoloti/platform_linux/../CMSIS//DSP_L
 173 00a4 5AFB1343 		smmlar r3, r10, r3, r4
 174              	@ 0 "" 2
 175              	.LVL27:
 176              		.loc 1 169 0
 177              		.thumb
 178 00a8 03FA0BF3 		lsl	r3, r3, fp
 179              	.LVL28:
 180              		.loc 1 172 0
 181 00ac 57F8085C 		ldr	r5, [r7, #-8]
 182              	.LVL29:
 183              		.loc 1 175 0
 184 00b0 46F80C3C 		str	r3, [r6, #-12]
 185              		.loc 1 180 0
 186              	@ 180 "/home/sbcu/Dropbox/pcb-layouts/axo-on-discovery-board/axoloti/platform_linux/../CMSIS//DSP_L
 187 00b4 5EFB15F4 		smmulr r4, lr, r5
 188              	@ 0 "" 2
 189              	.LVL30:
 190              		.loc 1 183 0
 191              	@ 183 "/home/sbcu/Dropbox/pcb-layouts/axo-on-discovery-board/axoloti/platform_linux/../CMSIS//DSP_L
 192 00b8 5CFB1244 		smmlar r4, ip, r2, r4
 193              	@ 0 "" 2
 194              	.LVL31:
 195              		.loc 1 186 0
 196              	@ 186 "/home/sbcu/Dropbox/pcb-layouts/axo-on-discovery-board/axoloti/platform_linux/../CMSIS//DSP_L
 197 00bc 58FB1040 		smmlar r0, r8, r0, r4
 198              	@ 0 "" 2
 199              	.LVL32:
 200              		.loc 1 189 0
 201              	@ 189 "/home/sbcu/Dropbox/pcb-layouts/axo-on-discovery-board/axoloti/platform_linux/../CMSIS//DSP_L
 202 00c0 59FB1300 		smmlar r0, r9, r3, r0
 203              	@ 0 "" 2
 204              	.LVL33:
 205              		.loc 1 192 0
 206              	@ 192 "/home/sbcu/Dropbox/pcb-layouts/axo-on-discovery-board/axoloti/platform_linux/../CMSIS//DSP_L
 207 00c4 5AFB1101 		smmlar r1, r10, r1, r0
 208              	@ 0 "" 2
 209              	.LVL34:
 210              		.loc 1 195 0
 211              		.thumb
 212 00c8 01FA0BF1 		lsl	r1, r1, fp
 213              	.LVL35:
 214              		.loc 1 198 0
 215 00cc 57F8044C 		ldr	r4, [r7, #-4]
 216              	.LVL36:
 217              		.loc 1 201 0
 218 00d0 46F8081C 		str	r1, [r6, #-8]
 219              	.LVL37:
 220              		.loc 1 207 0
 221              	@ 207 "/home/sbcu/Dropbox/pcb-layouts/axo-on-discovery-board/axoloti/platform_linux/../CMSIS//DSP_L
 222 00d4 5EFB14F0 		smmulr r0, lr, r4
 223              	@ 0 "" 2
 224              	.LVL38:
 225              		.loc 1 210 0
 226              	@ 210 "/home/sbcu/Dropbox/pcb-layouts/axo-on-discovery-board/axoloti/platform_linux/../CMSIS//DSP_L
 227 00d8 5CFB1500 		smmlar r0, ip, r5, r0
 228              	@ 0 "" 2
ARM GAS  /tmp/ccaJcdPP.s 			page 5


 229              	.LVL39:
 230              		.loc 1 213 0
 231              	@ 213 "/home/sbcu/Dropbox/pcb-layouts/axo-on-discovery-board/axoloti/platform_linux/../CMSIS//DSP_L
 232 00dc 58FB1202 		smmlar r2, r8, r2, r0
 233              	@ 0 "" 2
 234              	.LVL40:
 235              		.loc 1 216 0
 236              	@ 216 "/home/sbcu/Dropbox/pcb-layouts/axo-on-discovery-board/axoloti/platform_linux/../CMSIS//DSP_L
 237 00e0 59FB1122 		smmlar r2, r9, r1, r2
 238              	@ 0 "" 2
 239              	.LVL41:
 240              		.loc 1 219 0
 241              	@ 219 "/home/sbcu/Dropbox/pcb-layouts/axo-on-discovery-board/axoloti/platform_linux/../CMSIS//DSP_L
 242 00e4 5AFB1323 		smmlar r3, r10, r3, r2
 243              	@ 0 "" 2
 244              	.LVL42:
 245              		.loc 1 120 0
 246              		.thumb
 247 00e8 009A     		ldr	r2, [sp]
 248              		.loc 1 227 0
 249 00ea 03FA0BF3 		lsl	r3, r3, fp
 250              	.LVL43:
 251              		.loc 1 120 0
 252 00ee 013A     		subs	r2, r2, #1
 253              		.loc 1 233 0
 254 00f0 46F8043C 		str	r3, [r6, #-4]
 255              	.LVL44:
 256 00f4 07F11007 		add	r7, r7, #16
 257              	.LVL45:
 258 00f8 06F11006 		add	r6, r6, #16
 259              		.loc 1 120 0
 260 00fc 0092     		str	r2, [sp]
 261 00fe B7D1     		bne	.L3
 262 0100 019A     		ldr	r2, [sp, #4]
 263              	.LVL46:
 264 0102 0998     		ldr	r0, [sp, #36]
 265              		.loc 1 234 0
 266 0104 089F     		ldr	r7, [sp, #32]
 267              	.LVL47:
 268 0106 0244     		add	r2, r2, r0
 269 0108 0192     		str	r2, [sp, #4]
 270              	.LVL48:
 271              	.L2:
 272              		.loc 1 244 0
 273 010a 079A     		ldr	r2, [sp, #28]
 274 010c AAB3     		cbz	r2, .L8
 275 010e CDF800E0 		str	lr, [sp]
 276 0112 1046     		mov	r0, r2
 277 0114 DDF804E0 		ldr	lr, [sp, #4]
 278              	.LVL49:
 279 0118 01E0     		b	.L5
 280              	.LVL50:
 281              	.L9:
 282              		.loc 1 267 0
 283 011a 1346     		mov	r3, r2
 284              		.loc 1 247 0
 285 011c 3446     		mov	r4, r6
ARM GAS  /tmp/ccaJcdPP.s 			page 6


 286              	.LVL51:
 287              	.L5:
 288 011e 5EF8046B 		ldr	r6, [lr], #4
 289              	.LVL52:
 290              		.loc 1 252 0
 291 0122 009A     		ldr	r2, [sp]
 292              	@ 252 "/home/sbcu/Dropbox/pcb-layouts/axo-on-discovery-board/axoloti/platform_linux/../CMSIS//DSP_L
 293 0124 52FB16F2 		smmulr r2, r2, r6
 294              	@ 0 "" 2
 295              	.LVL53:
 296              		.loc 1 255 0
 297              	@ 255 "/home/sbcu/Dropbox/pcb-layouts/axo-on-discovery-board/axoloti/platform_linux/../CMSIS//DSP_L
 298 0128 5CFB1422 		smmlar r2, ip, r4, r2
 299              	@ 0 "" 2
 300              	.LVL54:
 301              		.loc 1 258 0
 302              	@ 258 "/home/sbcu/Dropbox/pcb-layouts/axo-on-discovery-board/axoloti/platform_linux/../CMSIS//DSP_L
 303 012c 58FB1522 		smmlar r2, r8, r5, r2
 304              	@ 0 "" 2
 305              	.LVL55:
 306              		.loc 1 261 0
 307              	@ 261 "/home/sbcu/Dropbox/pcb-layouts/axo-on-discovery-board/axoloti/platform_linux/../CMSIS//DSP_L
 308 0130 59FB1322 		smmlar r2, r9, r3, r2
 309              	@ 0 "" 2
 310              	.LVL56:
 311              		.loc 1 264 0
 312              	@ 264 "/home/sbcu/Dropbox/pcb-layouts/axo-on-discovery-board/axoloti/platform_linux/../CMSIS//DSP_L
 313 0134 5AFB1122 		smmlar r2, r10, r1, r2
 314              	@ 0 "" 2
 315              	.LVL57:
 316              		.loc 1 267 0
 317              		.thumb
 318 0138 02FA0BF2 		lsl	r2, r2, fp
 319              	.LVL58:
 320              		.loc 1 244 0
 321 013c 0138     		subs	r0, r0, #1
 322              	.LVL59:
 323              		.loc 1 281 0
 324 013e 47F8042B 		str	r2, [r7], #4
 325              	.LVL60:
 326 0142 2546     		mov	r5, r4
 327 0144 1946     		mov	r1, r3
 328              		.loc 1 244 0
 329 0146 E8D1     		bne	.L9
 330              	.LVL61:
 331              	.L4:
 332              		.loc 1 295 0
 333 0148 0298     		ldr	r0, [sp, #8]
 334              		.loc 1 298 0
 335 014a 40F8043C 		str	r3, [r0, #-4]
 336 014e 039B     		ldr	r3, [sp, #12]
 337              		.loc 1 295 0
 338 0150 40F8106C 		str	r6, [r0, #-16]
 339              	.LVL62:
 340 0154 1433     		adds	r3, r3, #20
 341 0156 0393     		str	r3, [sp, #12]
 342              	.LVL63:
ARM GAS  /tmp/ccaJcdPP.s 			page 7


 343 0158 00F11003 		add	r3, r0, #16
 344 015c 0293     		str	r3, [sp, #8]
 345              	.LVL64:
 346              		.loc 1 289 0
 347 015e 059B     		ldr	r3, [sp, #20]
 348 0160 0193     		str	r3, [sp, #4]
 349              		.loc 1 300 0
 350 0162 049B     		ldr	r3, [sp, #16]
 351              		.loc 1 296 0
 352 0164 40F80C4C 		str	r4, [r0, #-12]
 353              		.loc 1 300 0
 354 0168 013B     		subs	r3, r3, #1
 355              		.loc 1 297 0
 356 016a 40F8082C 		str	r2, [r0, #-8]
 357              	.LVL65:
 358              		.loc 1 300 0
 359 016e 0493     		str	r3, [sp, #16]
 360 0170 7FF461AF 		bne	.L6
 361              		.loc 1 301 0
 362 0174 0BB0     		add	sp, sp, #44
 363              		.cfi_remember_state
 364              		.cfi_def_cfa_offset 36
 365              		@ sp needed
 366 0176 BDE8F08F 		pop	{r4, r5, r6, r7, r8, r9, r10, fp, pc}
 367              	.LVL66:
 368              	.L8:
 369              		.cfi_restore_state
 370              		.loc 1 244 0
 371 017a 1A46     		mov	r2, r3
 372              	.LVL67:
 373 017c 2646     		mov	r6, r4
 374 017e 0B46     		mov	r3, r1
 375              	.LVL68:
 376 0180 2C46     		mov	r4, r5
 377              	.LVL69:
 378 0182 E1E7     		b	.L4
 379              	.LVL70:
 380              	.L7:
 381              		.loc 1 120 0
 382 0184 059F     		ldr	r7, [sp, #20]
 383 0186 C0E7     		b	.L2
 384              		.cfi_endproc
 385              	.LFE135:
 386              		.size	arm_biquad_cascade_df1_fast_q31, .-arm_biquad_cascade_df1_fast_q31
 387              	.Letext0:
 388              		.file 2 "/home/sbcu/Dropbox/pcb-layouts/axo-on-discovery-board/axoloti/platform_linux/arm-none-eab
 389              		.file 3 "/home/sbcu/Dropbox/pcb-layouts/axo-on-discovery-board/axoloti/platform_linux/arm-none-eab
 390              		.file 4 "/home/sbcu/Dropbox/pcb-layouts/axo-on-discovery-board/axoloti/platform_linux/../CMSIS//DS
 391              		.section	.debug_info,"",%progbits
 392              	.Ldebug_info0:
 393 0000 7E020000 		.4byte	0x27e
 394 0004 0400     		.2byte	0x4
 395 0006 00000000 		.4byte	.Ldebug_abbrev0
 396 000a 04       		.byte	0x4
 397 000b 01       		.uleb128 0x1
 398 000c 1D000000 		.4byte	.LASF33
 399 0010 01       		.byte	0x1
ARM GAS  /tmp/ccaJcdPP.s 			page 8


 400 0011 37020000 		.4byte	.LASF34
 401 0015 00000000 		.4byte	.Ltext0
 402 0019 88010000 		.4byte	.Letext0-.Ltext0
 403 001d 00000000 		.4byte	.Ldebug_line0
 404 0021 02       		.uleb128 0x2
 405 0022 01       		.byte	0x1
 406 0023 06       		.byte	0x6
 407 0024 EE020000 		.4byte	.LASF0
 408 0028 03       		.uleb128 0x3
 409 0029 1C010000 		.4byte	.LASF4
 410 002d 02       		.byte	0x2
 411 002e 1D       		.byte	0x1d
 412 002f 33000000 		.4byte	0x33
 413 0033 02       		.uleb128 0x2
 414 0034 01       		.byte	0x1
 415 0035 08       		.byte	0x8
 416 0036 69010000 		.4byte	.LASF1
 417 003a 02       		.uleb128 0x2
 418 003b 02       		.byte	0x2
 419 003c 05       		.byte	0x5
 420 003d 2D020000 		.4byte	.LASF2
 421 0041 02       		.uleb128 0x2
 422 0042 02       		.byte	0x2
 423 0043 07       		.byte	0x7
 424 0044 89010000 		.4byte	.LASF3
 425 0048 03       		.uleb128 0x3
 426 0049 2C010000 		.4byte	.LASF5
 427 004d 02       		.byte	0x2
 428 004e 3F       		.byte	0x3f
 429 004f 53000000 		.4byte	0x53
 430 0053 02       		.uleb128 0x2
 431 0054 04       		.byte	0x4
 432 0055 05       		.byte	0x5
 433 0056 36010000 		.4byte	.LASF6
 434 005a 03       		.uleb128 0x3
 435 005b D2010000 		.4byte	.LASF7
 436 005f 02       		.byte	0x2
 437 0060 41       		.byte	0x41
 438 0061 65000000 		.4byte	0x65
 439 0065 02       		.uleb128 0x2
 440 0066 04       		.byte	0x4
 441 0067 07       		.byte	0x7
 442 0068 77010000 		.4byte	.LASF8
 443 006c 02       		.uleb128 0x2
 444 006d 08       		.byte	0x8
 445 006e 05       		.byte	0x5
 446 006f 1A020000 		.4byte	.LASF9
 447 0073 02       		.uleb128 0x2
 448 0074 08       		.byte	0x8
 449 0075 07       		.byte	0x7
 450 0076 EA010000 		.4byte	.LASF10
 451 007a 04       		.uleb128 0x4
 452 007b 04       		.byte	0x4
 453 007c 05       		.byte	0x5
 454 007d 696E7400 		.ascii	"int\000"
 455 0081 02       		.uleb128 0x2
 456 0082 04       		.byte	0x4
ARM GAS  /tmp/ccaJcdPP.s 			page 9


 457 0083 07       		.byte	0x7
 458 0084 DD010000 		.4byte	.LASF11
 459 0088 03       		.uleb128 0x3
 460 0089 01020000 		.4byte	.LASF12
 461 008d 03       		.byte	0x3
 462 008e 14       		.byte	0x14
 463 008f 28000000 		.4byte	0x28
 464 0093 03       		.uleb128 0x3
 465 0094 09020000 		.4byte	.LASF13
 466 0098 03       		.byte	0x3
 467 0099 1F       		.byte	0x1f
 468 009a 48000000 		.4byte	0x48
 469 009e 03       		.uleb128 0x3
 470 009f D2020000 		.4byte	.LASF14
 471 00a3 03       		.byte	0x3
 472 00a4 20       		.byte	0x20
 473 00a5 5A000000 		.4byte	0x5a
 474 00a9 02       		.uleb128 0x2
 475 00aa 04       		.byte	0x4
 476 00ab 07       		.byte	0x7
 477 00ac 11020000 		.4byte	.LASF15
 478 00b0 02       		.uleb128 0x2
 479 00b1 01       		.byte	0x1
 480 00b2 08       		.byte	0x8
 481 00b3 28020000 		.4byte	.LASF16
 482 00b7 02       		.uleb128 0x2
 483 00b8 08       		.byte	0x8
 484 00b9 04       		.byte	0x4
 485 00ba 3F010000 		.4byte	.LASF17
 486 00be 02       		.uleb128 0x2
 487 00bf 04       		.byte	0x4
 488 00c0 04       		.byte	0x4
 489 00c1 26010000 		.4byte	.LASF18
 490 00c5 02       		.uleb128 0x2
 491 00c6 08       		.byte	0x8
 492 00c7 04       		.byte	0x4
 493 00c8 E2020000 		.4byte	.LASF19
 494 00cc 05       		.uleb128 0x5
 495 00cd 63010000 		.4byte	.LASF20
 496 00d1 04       		.byte	0x4
 497 00d2 A001     		.2byte	0x1a0
 498 00d4 93000000 		.4byte	0x93
 499 00d8 06       		.uleb128 0x6
 500 00d9 04       		.byte	0x4
 501 00da CC000000 		.4byte	0xcc
 502 00de 07       		.uleb128 0x7
 503 00df 10       		.byte	0x10
 504 00e0 04       		.byte	0x4
 505 00e1 1505     		.2byte	0x515
 506 00e3 1C010000 		.4byte	0x11c
 507 00e7 08       		.uleb128 0x8
 508 00e8 FF020000 		.4byte	.LASF21
 509 00ec 04       		.byte	0x4
 510 00ed 1705     		.2byte	0x517
 511 00ef 9E000000 		.4byte	0x9e
 512 00f3 00       		.byte	0
 513 00f4 08       		.uleb128 0x8
ARM GAS  /tmp/ccaJcdPP.s 			page 10


 514 00f5 AB010000 		.4byte	.LASF22
 515 00f9 04       		.byte	0x4
 516 00fa 1805     		.2byte	0x518
 517 00fc D8000000 		.4byte	0xd8
 518 0100 04       		.byte	0x4
 519 0101 08       		.uleb128 0x8
 520 0102 51010000 		.4byte	.LASF23
 521 0106 04       		.byte	0x4
 522 0107 1905     		.2byte	0x519
 523 0109 D8000000 		.4byte	0xd8
 524 010d 08       		.byte	0x8
 525 010e 08       		.uleb128 0x8
 526 010f A1010000 		.4byte	.LASF24
 527 0113 04       		.byte	0x4
 528 0114 1A05     		.2byte	0x51a
 529 0116 88000000 		.4byte	0x88
 530 011a 0C       		.byte	0xc
 531 011b 00       		.byte	0
 532 011c 05       		.uleb128 0x5
 533 011d 00000000 		.4byte	.LASF25
 534 0121 04       		.byte	0x4
 535 0122 1B05     		.2byte	0x51b
 536 0124 DE000000 		.4byte	0xde
 537 0128 09       		.uleb128 0x9
 538 0129 B2010000 		.4byte	.LASF35
 539 012d 01       		.byte	0x1
 540 012e 4D       		.byte	0x4d
 541 012f 00000000 		.4byte	.LFB135
 542 0133 88010000 		.4byte	.LFE135-.LFB135
 543 0137 01       		.uleb128 0x1
 544 0138 9C       		.byte	0x9c
 545 0139 76020000 		.4byte	0x276
 546 013d 0A       		.uleb128 0xa
 547 013e 5300     		.ascii	"S\000"
 548 0140 01       		.byte	0x1
 549 0141 4E       		.byte	0x4e
 550 0142 76020000 		.4byte	0x276
 551 0146 00000000 		.4byte	.LLST0
 552 014a 0B       		.uleb128 0xb
 553 014b FA020000 		.4byte	.LASF26
 554 014f 01       		.byte	0x1
 555 0150 4F       		.byte	0x4f
 556 0151 D8000000 		.4byte	0xd8
 557 0155 21000000 		.4byte	.LLST1
 558 0159 0B       		.uleb128 0xb
 559 015a 9C010000 		.4byte	.LASF27
 560 015e 01       		.byte	0x1
 561 015f 50       		.byte	0x50
 562 0160 D8000000 		.4byte	0xd8
 563 0164 42000000 		.4byte	.LLST2
 564 0168 0B       		.uleb128 0xb
 565 0169 59010000 		.4byte	.LASF28
 566 016d 01       		.byte	0x1
 567 016e 51       		.byte	0x51
 568 016f 9E000000 		.4byte	0x9e
 569 0173 61000000 		.4byte	.LLST3
 570 0177 0C       		.uleb128 0xc
ARM GAS  /tmp/ccaJcdPP.s 			page 11


 571 0178 61636300 		.ascii	"acc\000"
 572 017c 01       		.byte	0x1
 573 017d 53       		.byte	0x53
 574 017e CC000000 		.4byte	0xcc
 575 0182 82000000 		.4byte	.LLST4
 576 0186 0C       		.uleb128 0xc
 577 0187 586E3100 		.ascii	"Xn1\000"
 578 018b 01       		.byte	0x1
 579 018c 54       		.byte	0x54
 580 018d CC000000 		.4byte	0xcc
 581 0191 30010000 		.4byte	.LLST5
 582 0195 0C       		.uleb128 0xc
 583 0196 586E3200 		.ascii	"Xn2\000"
 584 019a 01       		.byte	0x1
 585 019b 54       		.byte	0x54
 586 019c CC000000 		.4byte	0xcc
 587 01a0 9B010000 		.4byte	.LLST6
 588 01a4 0C       		.uleb128 0xc
 589 01a5 596E3100 		.ascii	"Yn1\000"
 590 01a9 01       		.byte	0x1
 591 01aa 54       		.byte	0x54
 592 01ab CC000000 		.4byte	0xcc
 593 01af F0010000 		.4byte	.LLST7
 594 01b3 0C       		.uleb128 0xc
 595 01b4 596E3200 		.ascii	"Yn2\000"
 596 01b8 01       		.byte	0x1
 597 01b9 54       		.byte	0x54
 598 01ba CC000000 		.4byte	0xcc
 599 01be 67020000 		.4byte	.LLST8
 600 01c2 0C       		.uleb128 0xc
 601 01c3 623000   		.ascii	"b0\000"
 602 01c6 01       		.byte	0x1
 603 01c7 55       		.byte	0x55
 604 01c8 CC000000 		.4byte	0xcc
 605 01cc B2020000 		.4byte	.LLST9
 606 01d0 0D       		.uleb128 0xd
 607 01d1 623100   		.ascii	"b1\000"
 608 01d4 01       		.byte	0x1
 609 01d5 55       		.byte	0x55
 610 01d6 CC000000 		.4byte	0xcc
 611 01da 01       		.uleb128 0x1
 612 01db 5C       		.byte	0x5c
 613 01dc 0D       		.uleb128 0xd
 614 01dd 623200   		.ascii	"b2\000"
 615 01e0 01       		.byte	0x1
 616 01e1 55       		.byte	0x55
 617 01e2 CC000000 		.4byte	0xcc
 618 01e6 01       		.uleb128 0x1
 619 01e7 58       		.byte	0x58
 620 01e8 0D       		.uleb128 0xd
 621 01e9 613100   		.ascii	"a1\000"
 622 01ec 01       		.byte	0x1
 623 01ed 55       		.byte	0x55
 624 01ee CC000000 		.4byte	0xcc
 625 01f2 01       		.uleb128 0x1
 626 01f3 59       		.byte	0x59
 627 01f4 0D       		.uleb128 0xd
ARM GAS  /tmp/ccaJcdPP.s 			page 12


 628 01f5 613200   		.ascii	"a2\000"
 629 01f8 01       		.byte	0x1
 630 01f9 55       		.byte	0x55
 631 01fa CC000000 		.4byte	0xcc
 632 01fe 01       		.uleb128 0x1
 633 01ff 5A       		.byte	0x5a
 634 0200 0C       		.uleb128 0xc
 635 0201 70496E00 		.ascii	"pIn\000"
 636 0205 01       		.byte	0x1
 637 0206 56       		.byte	0x56
 638 0207 D8000000 		.4byte	0xd8
 639 020b DC020000 		.4byte	.LLST10
 640 020f 0E       		.uleb128 0xe
 641 0210 4C010000 		.4byte	.LASF29
 642 0214 01       		.byte	0x1
 643 0215 57       		.byte	0x57
 644 0216 D8000000 		.4byte	0xd8
 645 021a 5E030000 		.4byte	.LLST11
 646 021e 0E       		.uleb128 0xe
 647 021f AB010000 		.4byte	.LASF22
 648 0223 01       		.byte	0x1
 649 0224 58       		.byte	0x58
 650 0225 D8000000 		.4byte	0xd8
 651 0229 87030000 		.4byte	.LLST12
 652 022d 0E       		.uleb128 0xe
 653 022e 51010000 		.4byte	.LASF23
 654 0232 01       		.byte	0x1
 655 0233 59       		.byte	0x59
 656 0234 D8000000 		.4byte	0xd8
 657 0238 DE030000 		.4byte	.LLST13
 658 023c 0C       		.uleb128 0xc
 659 023d 586E00   		.ascii	"Xn\000"
 660 0240 01       		.byte	0x1
 661 0241 5A       		.byte	0x5a
 662 0242 CC000000 		.4byte	0xcc
 663 0246 3B040000 		.4byte	.LLST14
 664 024a 0F       		.uleb128 0xf
 665 024b 16010000 		.4byte	.LASF30
 666 024f 01       		.byte	0x1
 667 0250 5B       		.byte	0x5b
 668 0251 93000000 		.4byte	0x93
 669 0255 01       		.uleb128 0x1
 670 0256 5B       		.byte	0x5b
 671 0257 0E       		.uleb128 0xe
 672 0258 DB020000 		.4byte	.LASF31
 673 025c 01       		.byte	0x1
 674 025d 5C       		.byte	0x5c
 675 025e 9E000000 		.4byte	0x9e
 676 0262 6F040000 		.4byte	.LLST15
 677 0266 0E       		.uleb128 0xe
 678 0267 46010000 		.4byte	.LASF32
 679 026b 01       		.byte	0x1
 680 026c 5C       		.byte	0x5c
 681 026d 9E000000 		.4byte	0x9e
 682 0271 F7040000 		.4byte	.LLST16
 683 0275 00       		.byte	0
 684 0276 06       		.uleb128 0x6
ARM GAS  /tmp/ccaJcdPP.s 			page 13


 685 0277 04       		.byte	0x4
 686 0278 7C020000 		.4byte	0x27c
 687 027c 10       		.uleb128 0x10
 688 027d 1C010000 		.4byte	0x11c
 689 0281 00       		.byte	0
 690              		.section	.debug_abbrev,"",%progbits
 691              	.Ldebug_abbrev0:
 692 0000 01       		.uleb128 0x1
 693 0001 11       		.uleb128 0x11
 694 0002 01       		.byte	0x1
 695 0003 25       		.uleb128 0x25
 696 0004 0E       		.uleb128 0xe
 697 0005 13       		.uleb128 0x13
 698 0006 0B       		.uleb128 0xb
 699 0007 03       		.uleb128 0x3
 700 0008 0E       		.uleb128 0xe
 701 0009 11       		.uleb128 0x11
 702 000a 01       		.uleb128 0x1
 703 000b 12       		.uleb128 0x12
 704 000c 06       		.uleb128 0x6
 705 000d 10       		.uleb128 0x10
 706 000e 17       		.uleb128 0x17
 707 000f 00       		.byte	0
 708 0010 00       		.byte	0
 709 0011 02       		.uleb128 0x2
 710 0012 24       		.uleb128 0x24
 711 0013 00       		.byte	0
 712 0014 0B       		.uleb128 0xb
 713 0015 0B       		.uleb128 0xb
 714 0016 3E       		.uleb128 0x3e
 715 0017 0B       		.uleb128 0xb
 716 0018 03       		.uleb128 0x3
 717 0019 0E       		.uleb128 0xe
 718 001a 00       		.byte	0
 719 001b 00       		.byte	0
 720 001c 03       		.uleb128 0x3
 721 001d 16       		.uleb128 0x16
 722 001e 00       		.byte	0
 723 001f 03       		.uleb128 0x3
 724 0020 0E       		.uleb128 0xe
 725 0021 3A       		.uleb128 0x3a
 726 0022 0B       		.uleb128 0xb
 727 0023 3B       		.uleb128 0x3b
 728 0024 0B       		.uleb128 0xb
 729 0025 49       		.uleb128 0x49
 730 0026 13       		.uleb128 0x13
 731 0027 00       		.byte	0
 732 0028 00       		.byte	0
 733 0029 04       		.uleb128 0x4
 734 002a 24       		.uleb128 0x24
 735 002b 00       		.byte	0
 736 002c 0B       		.uleb128 0xb
 737 002d 0B       		.uleb128 0xb
 738 002e 3E       		.uleb128 0x3e
 739 002f 0B       		.uleb128 0xb
 740 0030 03       		.uleb128 0x3
 741 0031 08       		.uleb128 0x8
ARM GAS  /tmp/ccaJcdPP.s 			page 14


 742 0032 00       		.byte	0
 743 0033 00       		.byte	0
 744 0034 05       		.uleb128 0x5
 745 0035 16       		.uleb128 0x16
 746 0036 00       		.byte	0
 747 0037 03       		.uleb128 0x3
 748 0038 0E       		.uleb128 0xe
 749 0039 3A       		.uleb128 0x3a
 750 003a 0B       		.uleb128 0xb
 751 003b 3B       		.uleb128 0x3b
 752 003c 05       		.uleb128 0x5
 753 003d 49       		.uleb128 0x49
 754 003e 13       		.uleb128 0x13
 755 003f 00       		.byte	0
 756 0040 00       		.byte	0
 757 0041 06       		.uleb128 0x6
 758 0042 0F       		.uleb128 0xf
 759 0043 00       		.byte	0
 760 0044 0B       		.uleb128 0xb
 761 0045 0B       		.uleb128 0xb
 762 0046 49       		.uleb128 0x49
 763 0047 13       		.uleb128 0x13
 764 0048 00       		.byte	0
 765 0049 00       		.byte	0
 766 004a 07       		.uleb128 0x7
 767 004b 13       		.uleb128 0x13
 768 004c 01       		.byte	0x1
 769 004d 0B       		.uleb128 0xb
 770 004e 0B       		.uleb128 0xb
 771 004f 3A       		.uleb128 0x3a
 772 0050 0B       		.uleb128 0xb
 773 0051 3B       		.uleb128 0x3b
 774 0052 05       		.uleb128 0x5
 775 0053 01       		.uleb128 0x1
 776 0054 13       		.uleb128 0x13
 777 0055 00       		.byte	0
 778 0056 00       		.byte	0
 779 0057 08       		.uleb128 0x8
 780 0058 0D       		.uleb128 0xd
 781 0059 00       		.byte	0
 782 005a 03       		.uleb128 0x3
 783 005b 0E       		.uleb128 0xe
 784 005c 3A       		.uleb128 0x3a
 785 005d 0B       		.uleb128 0xb
 786 005e 3B       		.uleb128 0x3b
 787 005f 05       		.uleb128 0x5
 788 0060 49       		.uleb128 0x49
 789 0061 13       		.uleb128 0x13
 790 0062 38       		.uleb128 0x38
 791 0063 0B       		.uleb128 0xb
 792 0064 00       		.byte	0
 793 0065 00       		.byte	0
 794 0066 09       		.uleb128 0x9
 795 0067 2E       		.uleb128 0x2e
 796 0068 01       		.byte	0x1
 797 0069 3F       		.uleb128 0x3f
 798 006a 19       		.uleb128 0x19
ARM GAS  /tmp/ccaJcdPP.s 			page 15


 799 006b 03       		.uleb128 0x3
 800 006c 0E       		.uleb128 0xe
 801 006d 3A       		.uleb128 0x3a
 802 006e 0B       		.uleb128 0xb
 803 006f 3B       		.uleb128 0x3b
 804 0070 0B       		.uleb128 0xb
 805 0071 27       		.uleb128 0x27
 806 0072 19       		.uleb128 0x19
 807 0073 11       		.uleb128 0x11
 808 0074 01       		.uleb128 0x1
 809 0075 12       		.uleb128 0x12
 810 0076 06       		.uleb128 0x6
 811 0077 40       		.uleb128 0x40
 812 0078 18       		.uleb128 0x18
 813 0079 9742     		.uleb128 0x2117
 814 007b 19       		.uleb128 0x19
 815 007c 01       		.uleb128 0x1
 816 007d 13       		.uleb128 0x13
 817 007e 00       		.byte	0
 818 007f 00       		.byte	0
 819 0080 0A       		.uleb128 0xa
 820 0081 05       		.uleb128 0x5
 821 0082 00       		.byte	0
 822 0083 03       		.uleb128 0x3
 823 0084 08       		.uleb128 0x8
 824 0085 3A       		.uleb128 0x3a
 825 0086 0B       		.uleb128 0xb
 826 0087 3B       		.uleb128 0x3b
 827 0088 0B       		.uleb128 0xb
 828 0089 49       		.uleb128 0x49
 829 008a 13       		.uleb128 0x13
 830 008b 02       		.uleb128 0x2
 831 008c 17       		.uleb128 0x17
 832 008d 00       		.byte	0
 833 008e 00       		.byte	0
 834 008f 0B       		.uleb128 0xb
 835 0090 05       		.uleb128 0x5
 836 0091 00       		.byte	0
 837 0092 03       		.uleb128 0x3
 838 0093 0E       		.uleb128 0xe
 839 0094 3A       		.uleb128 0x3a
 840 0095 0B       		.uleb128 0xb
 841 0096 3B       		.uleb128 0x3b
 842 0097 0B       		.uleb128 0xb
 843 0098 49       		.uleb128 0x49
 844 0099 13       		.uleb128 0x13
 845 009a 02       		.uleb128 0x2
 846 009b 17       		.uleb128 0x17
 847 009c 00       		.byte	0
 848 009d 00       		.byte	0
 849 009e 0C       		.uleb128 0xc
 850 009f 34       		.uleb128 0x34
 851 00a0 00       		.byte	0
 852 00a1 03       		.uleb128 0x3
 853 00a2 08       		.uleb128 0x8
 854 00a3 3A       		.uleb128 0x3a
 855 00a4 0B       		.uleb128 0xb
ARM GAS  /tmp/ccaJcdPP.s 			page 16


 856 00a5 3B       		.uleb128 0x3b
 857 00a6 0B       		.uleb128 0xb
 858 00a7 49       		.uleb128 0x49
 859 00a8 13       		.uleb128 0x13
 860 00a9 02       		.uleb128 0x2
 861 00aa 17       		.uleb128 0x17
 862 00ab 00       		.byte	0
 863 00ac 00       		.byte	0
 864 00ad 0D       		.uleb128 0xd
 865 00ae 34       		.uleb128 0x34
 866 00af 00       		.byte	0
 867 00b0 03       		.uleb128 0x3
 868 00b1 08       		.uleb128 0x8
 869 00b2 3A       		.uleb128 0x3a
 870 00b3 0B       		.uleb128 0xb
 871 00b4 3B       		.uleb128 0x3b
 872 00b5 0B       		.uleb128 0xb
 873 00b6 49       		.uleb128 0x49
 874 00b7 13       		.uleb128 0x13
 875 00b8 02       		.uleb128 0x2
 876 00b9 18       		.uleb128 0x18
 877 00ba 00       		.byte	0
 878 00bb 00       		.byte	0
 879 00bc 0E       		.uleb128 0xe
 880 00bd 34       		.uleb128 0x34
 881 00be 00       		.byte	0
 882 00bf 03       		.uleb128 0x3
 883 00c0 0E       		.uleb128 0xe
 884 00c1 3A       		.uleb128 0x3a
 885 00c2 0B       		.uleb128 0xb
 886 00c3 3B       		.uleb128 0x3b
 887 00c4 0B       		.uleb128 0xb
 888 00c5 49       		.uleb128 0x49
 889 00c6 13       		.uleb128 0x13
 890 00c7 02       		.uleb128 0x2
 891 00c8 17       		.uleb128 0x17
 892 00c9 00       		.byte	0
 893 00ca 00       		.byte	0
 894 00cb 0F       		.uleb128 0xf
 895 00cc 34       		.uleb128 0x34
 896 00cd 00       		.byte	0
 897 00ce 03       		.uleb128 0x3
 898 00cf 0E       		.uleb128 0xe
 899 00d0 3A       		.uleb128 0x3a
 900 00d1 0B       		.uleb128 0xb
 901 00d2 3B       		.uleb128 0x3b
 902 00d3 0B       		.uleb128 0xb
 903 00d4 49       		.uleb128 0x49
 904 00d5 13       		.uleb128 0x13
 905 00d6 02       		.uleb128 0x2
 906 00d7 18       		.uleb128 0x18
 907 00d8 00       		.byte	0
 908 00d9 00       		.byte	0
 909 00da 10       		.uleb128 0x10
 910 00db 26       		.uleb128 0x26
 911 00dc 00       		.byte	0
 912 00dd 49       		.uleb128 0x49
ARM GAS  /tmp/ccaJcdPP.s 			page 17


 913 00de 13       		.uleb128 0x13
 914 00df 00       		.byte	0
 915 00e0 00       		.byte	0
 916 00e1 00       		.byte	0
 917              		.section	.debug_loc,"",%progbits
 918              	.Ldebug_loc0:
 919              	.LLST0:
 920 0000 00000000 		.4byte	.LVL0-.Ltext0
 921 0004 10000000 		.4byte	.LVL1-.Ltext0
 922 0008 0100     		.2byte	0x1
 923 000a 50       		.byte	0x50
 924 000b 10000000 		.4byte	.LVL1-.Ltext0
 925 000f 88010000 		.4byte	.LFE135-.Ltext0
 926 0013 0400     		.2byte	0x4
 927 0015 F3       		.byte	0xf3
 928 0016 01       		.uleb128 0x1
 929 0017 50       		.byte	0x50
 930 0018 9F       		.byte	0x9f
 931 0019 00000000 		.4byte	0
 932 001d 00000000 		.4byte	0
 933              	.LLST1:
 934 0021 00000000 		.4byte	.LVL0-.Ltext0
 935 0025 36000000 		.4byte	.LVL5-.Ltext0
 936 0029 0100     		.2byte	0x1
 937 002b 51       		.byte	0x51
 938 002c 36000000 		.4byte	.LVL5-.Ltext0
 939 0030 88010000 		.4byte	.LFE135-.Ltext0
 940 0034 0400     		.2byte	0x4
 941 0036 F3       		.byte	0xf3
 942 0037 01       		.uleb128 0x1
 943 0038 51       		.byte	0x51
 944 0039 9F       		.byte	0x9f
 945 003a 00000000 		.4byte	0
 946 003e 00000000 		.4byte	0
 947              	.LLST2:
 948 0042 00000000 		.4byte	.LVL0-.Ltext0
 949 0046 36000000 		.4byte	.LVL5-.Ltext0
 950 004a 0100     		.2byte	0x1
 951 004c 52       		.byte	0x52
 952 004d 36000000 		.4byte	.LVL5-.Ltext0
 953 0051 88010000 		.4byte	.LFE135-.Ltext0
 954 0055 0200     		.2byte	0x2
 955 0057 91       		.byte	0x91
 956 0058 44       		.sleb128 -60
 957 0059 00000000 		.4byte	0
 958 005d 00000000 		.4byte	0
 959              	.LLST3:
 960 0061 00000000 		.4byte	.LVL0-.Ltext0
 961 0065 14000000 		.4byte	.LVL2-.Ltext0
 962 0069 0100     		.2byte	0x1
 963 006b 53       		.byte	0x53
 964 006c 14000000 		.4byte	.LVL2-.Ltext0
 965 0070 88010000 		.4byte	.LFE135-.Ltext0
 966 0074 0400     		.2byte	0x4
 967 0076 F3       		.byte	0xf3
 968 0077 01       		.uleb128 0x1
 969 0078 53       		.byte	0x53
ARM GAS  /tmp/ccaJcdPP.s 			page 18


 970 0079 9F       		.byte	0x9f
 971 007a 00000000 		.4byte	0
 972 007e 00000000 		.4byte	0
 973              	.LLST4:
 974 0082 00000000 		.4byte	.LVL0-.Ltext0
 975 0086 36000000 		.4byte	.LVL5-.Ltext0
 976 008a 0200     		.2byte	0x2
 977 008c 30       		.byte	0x30
 978 008d 9F       		.byte	0x9f
 979 008e 78000000 		.4byte	.LVL16-.Ltext0
 980 0092 80000000 		.4byte	.LVL18-.Ltext0
 981 0096 0100     		.2byte	0x1
 982 0098 52       		.byte	0x52
 983 0099 80000000 		.4byte	.LVL18-.Ltext0
 984 009d 88000000 		.4byte	.LVL20-.Ltext0
 985 00a1 0100     		.2byte	0x1
 986 00a3 55       		.byte	0x55
 987 00a4 88000000 		.4byte	.LVL20-.Ltext0
 988 00a8 8C000000 		.4byte	.LVL21-.Ltext0
 989 00ac 0100     		.2byte	0x1
 990 00ae 51       		.byte	0x51
 991 00af 98000000 		.4byte	.LVL23-.Ltext0
 992 00b3 A0000000 		.4byte	.LVL25-.Ltext0
 993 00b7 0100     		.2byte	0x1
 994 00b9 55       		.byte	0x55
 995 00ba A0000000 		.4byte	.LVL25-.Ltext0
 996 00be A8000000 		.4byte	.LVL27-.Ltext0
 997 00c2 0100     		.2byte	0x1
 998 00c4 54       		.byte	0x54
 999 00c5 A8000000 		.4byte	.LVL27-.Ltext0
 1000 00c9 AC000000 		.4byte	.LVL28-.Ltext0
 1001 00cd 0100     		.2byte	0x1
 1002 00cf 53       		.byte	0x53
 1003 00d0 B8000000 		.4byte	.LVL30-.Ltext0
 1004 00d4 C0000000 		.4byte	.LVL32-.Ltext0
 1005 00d8 0100     		.2byte	0x1
 1006 00da 54       		.byte	0x54
 1007 00db C0000000 		.4byte	.LVL32-.Ltext0
 1008 00df C8000000 		.4byte	.LVL34-.Ltext0
 1009 00e3 0100     		.2byte	0x1
 1010 00e5 50       		.byte	0x50
 1011 00e6 C8000000 		.4byte	.LVL34-.Ltext0
 1012 00ea CC000000 		.4byte	.LVL35-.Ltext0
 1013 00ee 0100     		.2byte	0x1
 1014 00f0 51       		.byte	0x51
 1015 00f1 D8000000 		.4byte	.LVL38-.Ltext0
 1016 00f5 E0000000 		.4byte	.LVL40-.Ltext0
 1017 00f9 0100     		.2byte	0x1
 1018 00fb 50       		.byte	0x50
 1019 00fc E0000000 		.4byte	.LVL40-.Ltext0
 1020 0100 E8000000 		.4byte	.LVL42-.Ltext0
 1021 0104 0100     		.2byte	0x1
 1022 0106 52       		.byte	0x52
 1023 0107 E8000000 		.4byte	.LVL42-.Ltext0
 1024 010b EE000000 		.4byte	.LVL43-.Ltext0
 1025 010f 0100     		.2byte	0x1
 1026 0111 53       		.byte	0x53
ARM GAS  /tmp/ccaJcdPP.s 			page 19


 1027 0112 1A010000 		.4byte	.LVL50-.Ltext0
 1028 0116 1E010000 		.4byte	.LVL51-.Ltext0
 1029 011a 0100     		.2byte	0x1
 1030 011c 52       		.byte	0x52
 1031 011d 28010000 		.4byte	.LVL53-.Ltext0
 1032 0121 48010000 		.4byte	.LVL61-.Ltext0
 1033 0125 0100     		.2byte	0x1
 1034 0127 52       		.byte	0x52
 1035 0128 00000000 		.4byte	0
 1036 012c 00000000 		.4byte	0
 1037              	.LLST5:
 1038 0130 4E000000 		.4byte	.LVL10-.Ltext0
 1039 0134 A0000000 		.4byte	.LVL25-.Ltext0
 1040 0138 0100     		.2byte	0x1
 1041 013a 54       		.byte	0x54
 1042 013b B0000000 		.4byte	.LVL29-.Ltext0
 1043 013f EE000000 		.4byte	.LVL43-.Ltext0
 1044 0143 0100     		.2byte	0x1
 1045 0145 55       		.byte	0x55
 1046 0146 EE000000 		.4byte	.LVL43-.Ltext0
 1047 014a 1A010000 		.4byte	.LVL50-.Ltext0
 1048 014e 0100     		.2byte	0x1
 1049 0150 54       		.byte	0x54
 1050 0151 1A010000 		.4byte	.LVL50-.Ltext0
 1051 0155 1E010000 		.4byte	.LVL51-.Ltext0
 1052 0159 0100     		.2byte	0x1
 1053 015b 56       		.byte	0x56
 1054 015c 1E010000 		.4byte	.LVL51-.Ltext0
 1055 0160 3C010000 		.4byte	.LVL58-.Ltext0
 1056 0164 0100     		.2byte	0x1
 1057 0166 54       		.byte	0x54
 1058 0167 3C010000 		.4byte	.LVL58-.Ltext0
 1059 016b 7A010000 		.4byte	.LVL66-.Ltext0
 1060 016f 0100     		.2byte	0x1
 1061 0171 56       		.byte	0x56
 1062 0172 7A010000 		.4byte	.LVL66-.Ltext0
 1063 0176 82010000 		.4byte	.LVL69-.Ltext0
 1064 017a 0100     		.2byte	0x1
 1065 017c 54       		.byte	0x54
 1066 017d 82010000 		.4byte	.LVL69-.Ltext0
 1067 0181 84010000 		.4byte	.LVL70-.Ltext0
 1068 0185 0100     		.2byte	0x1
 1069 0187 56       		.byte	0x56
 1070 0188 84010000 		.4byte	.LVL70-.Ltext0
 1071 018c 88010000 		.4byte	.LFE135-.Ltext0
 1072 0190 0100     		.2byte	0x1
 1073 0192 54       		.byte	0x54
 1074 0193 00000000 		.4byte	0
 1075 0197 00000000 		.4byte	0
 1076              	.LLST6:
 1077 019b 52000000 		.4byte	.LVL11-.Ltext0
 1078 019f 80000000 		.4byte	.LVL18-.Ltext0
 1079 01a3 0100     		.2byte	0x1
 1080 01a5 55       		.byte	0x55
 1081 01a6 90000000 		.4byte	.LVL22-.Ltext0
 1082 01aa E0000000 		.4byte	.LVL40-.Ltext0
 1083 01ae 0100     		.2byte	0x1
ARM GAS  /tmp/ccaJcdPP.s 			page 20


 1084 01b0 52       		.byte	0x52
 1085 01b1 E8000000 		.4byte	.LVL42-.Ltext0
 1086 01b5 1A010000 		.4byte	.LVL50-.Ltext0
 1087 01b9 0100     		.2byte	0x1
 1088 01bb 55       		.byte	0x55
 1089 01bc 1A010000 		.4byte	.LVL50-.Ltext0
 1090 01c0 1E010000 		.4byte	.LVL51-.Ltext0
 1091 01c4 0100     		.2byte	0x1
 1092 01c6 54       		.byte	0x54
 1093 01c7 1E010000 		.4byte	.LVL51-.Ltext0
 1094 01cb 3C010000 		.4byte	.LVL58-.Ltext0
 1095 01cf 0100     		.2byte	0x1
 1096 01d1 55       		.byte	0x55
 1097 01d2 3C010000 		.4byte	.LVL58-.Ltext0
 1098 01d6 7A010000 		.4byte	.LVL66-.Ltext0
 1099 01da 0100     		.2byte	0x1
 1100 01dc 54       		.byte	0x54
 1101 01dd 7A010000 		.4byte	.LVL66-.Ltext0
 1102 01e1 88010000 		.4byte	.LFE135-.Ltext0
 1103 01e5 0100     		.2byte	0x1
 1104 01e7 55       		.byte	0x55
 1105 01e8 00000000 		.4byte	0
 1106 01ec 00000000 		.4byte	0
 1107              	.LLST7:
 1108 01f0 56000000 		.4byte	.LVL12-.Ltext0
 1109 01f4 A8000000 		.4byte	.LVL27-.Ltext0
 1110 01f8 0100     		.2byte	0x1
 1111 01fa 53       		.byte	0x53
 1112 01fb AC000000 		.4byte	.LVL28-.Ltext0
 1113 01ff E8000000 		.4byte	.LVL42-.Ltext0
 1114 0203 0100     		.2byte	0x1
 1115 0205 53       		.byte	0x53
 1116 0206 E8000000 		.4byte	.LVL42-.Ltext0
 1117 020a EE000000 		.4byte	.LVL43-.Ltext0
 1118 020e 0200     		.2byte	0x2
 1119 0210 76       		.byte	0x76
 1120 0211 74       		.sleb128 -12
 1121 0212 EE000000 		.4byte	.LVL43-.Ltext0
 1122 0216 1A010000 		.4byte	.LVL50-.Ltext0
 1123 021a 0100     		.2byte	0x1
 1124 021c 53       		.byte	0x53
 1125 021d 1A010000 		.4byte	.LVL50-.Ltext0
 1126 0221 1E010000 		.4byte	.LVL51-.Ltext0
 1127 0225 0100     		.2byte	0x1
 1128 0227 52       		.byte	0x52
 1129 0228 1E010000 		.4byte	.LVL51-.Ltext0
 1130 022c 3C010000 		.4byte	.LVL58-.Ltext0
 1131 0230 0100     		.2byte	0x1
 1132 0232 53       		.byte	0x53
 1133 0233 3C010000 		.4byte	.LVL58-.Ltext0
 1134 0237 7A010000 		.4byte	.LVL66-.Ltext0
 1135 023b 0100     		.2byte	0x1
 1136 023d 52       		.byte	0x52
 1137 023e 7A010000 		.4byte	.LVL66-.Ltext0
 1138 0242 80010000 		.4byte	.LVL68-.Ltext0
 1139 0246 0100     		.2byte	0x1
 1140 0248 53       		.byte	0x53
ARM GAS  /tmp/ccaJcdPP.s 			page 21


 1141 0249 80010000 		.4byte	.LVL68-.Ltext0
 1142 024d 84010000 		.4byte	.LVL70-.Ltext0
 1143 0251 0100     		.2byte	0x1
 1144 0253 52       		.byte	0x52
 1145 0254 84010000 		.4byte	.LVL70-.Ltext0
 1146 0258 88010000 		.4byte	.LFE135-.Ltext0
 1147 025c 0100     		.2byte	0x1
 1148 025e 53       		.byte	0x53
 1149 025f 00000000 		.4byte	0
 1150 0263 00000000 		.4byte	0
 1151              	.LLST8:
 1152 0267 5A000000 		.4byte	.LVL13-.Ltext0
 1153 026b 88000000 		.4byte	.LVL20-.Ltext0
 1154 026f 0100     		.2byte	0x1
 1155 0271 51       		.byte	0x51
 1156 0272 8C000000 		.4byte	.LVL21-.Ltext0
 1157 0276 C8000000 		.4byte	.LVL34-.Ltext0
 1158 027a 0100     		.2byte	0x1
 1159 027c 51       		.byte	0x51
 1160 027d C8000000 		.4byte	.LVL34-.Ltext0
 1161 0281 CC000000 		.4byte	.LVL35-.Ltext0
 1162 0285 0200     		.2byte	0x2
 1163 0287 76       		.byte	0x76
 1164 0288 70       		.sleb128 -16
 1165 0289 CC000000 		.4byte	.LVL35-.Ltext0
 1166 028d 3C010000 		.4byte	.LVL58-.Ltext0
 1167 0291 0100     		.2byte	0x1
 1168 0293 51       		.byte	0x51
 1169 0294 3C010000 		.4byte	.LVL58-.Ltext0
 1170 0298 48010000 		.4byte	.LVL61-.Ltext0
 1171 029c 0100     		.2byte	0x1
 1172 029e 53       		.byte	0x53
 1173 029f 48010000 		.4byte	.LVL61-.Ltext0
 1174 02a3 88010000 		.4byte	.LFE135-.Ltext0
 1175 02a7 0100     		.2byte	0x1
 1176 02a9 51       		.byte	0x51
 1177 02aa 00000000 		.4byte	0
 1178 02ae 00000000 		.4byte	0
 1179              	.LLST9:
 1180 02b2 3C000000 		.4byte	.LVL6-.Ltext0
 1181 02b6 18010000 		.4byte	.LVL49-.Ltext0
 1182 02ba 0100     		.2byte	0x1
 1183 02bc 5E       		.byte	0x5e
 1184 02bd 18010000 		.4byte	.LVL49-.Ltext0
 1185 02c1 48010000 		.4byte	.LVL61-.Ltext0
 1186 02c5 0200     		.2byte	0x2
 1187 02c7 7D       		.byte	0x7d
 1188 02c8 00       		.sleb128 0
 1189 02c9 7A010000 		.4byte	.LVL66-.Ltext0
 1190 02cd 88010000 		.4byte	.LFE135-.Ltext0
 1191 02d1 0100     		.2byte	0x1
 1192 02d3 5E       		.byte	0x5e
 1193 02d4 00000000 		.4byte	0
 1194 02d8 00000000 		.4byte	0
 1195              	.LLST10:
 1196 02dc 30000000 		.4byte	.LVL3-.Ltext0
 1197 02e0 36000000 		.4byte	.LVL5-.Ltext0
ARM GAS  /tmp/ccaJcdPP.s 			page 22


 1198 02e4 0100     		.2byte	0x1
 1199 02e6 51       		.byte	0x51
 1200 02e7 36000000 		.4byte	.LVL5-.Ltext0
 1201 02eb 70000000 		.4byte	.LVL14-.Ltext0
 1202 02ef 0300     		.2byte	0x3
 1203 02f1 91       		.byte	0x91
 1204 02f2 B47F     		.sleb128 -76
 1205 02f4 70000000 		.4byte	.LVL14-.Ltext0
 1206 02f8 D4000000 		.4byte	.LVL37-.Ltext0
 1207 02fc 0300     		.2byte	0x3
 1208 02fe 77       		.byte	0x77
 1209 02ff 70       		.sleb128 -16
 1210 0300 9F       		.byte	0x9f
 1211 0301 D4000000 		.4byte	.LVL37-.Ltext0
 1212 0305 F8000000 		.4byte	.LVL45-.Ltext0
 1213 0309 0100     		.2byte	0x1
 1214 030b 57       		.byte	0x57
 1215 030c F8000000 		.4byte	.LVL45-.Ltext0
 1216 0310 06010000 		.4byte	.LVL47-.Ltext0
 1217 0314 0300     		.2byte	0x3
 1218 0316 77       		.byte	0x77
 1219 0317 70       		.sleb128 -16
 1220 0318 9F       		.byte	0x9f
 1221 0319 0A010000 		.4byte	.LVL48-.Ltext0
 1222 031d 1A010000 		.4byte	.LVL50-.Ltext0
 1223 0321 0300     		.2byte	0x3
 1224 0323 91       		.byte	0x91
 1225 0324 B47F     		.sleb128 -76
 1226 0326 1A010000 		.4byte	.LVL50-.Ltext0
 1227 032a 22010000 		.4byte	.LVL52-.Ltext0
 1228 032e 0100     		.2byte	0x1
 1229 0330 5E       		.byte	0x5e
 1230 0331 22010000 		.4byte	.LVL52-.Ltext0
 1231 0335 42010000 		.4byte	.LVL60-.Ltext0
 1232 0339 0300     		.2byte	0x3
 1233 033b 7E       		.byte	0x7e
 1234 033c 7C       		.sleb128 -4
 1235 033d 9F       		.byte	0x9f
 1236 033e 42010000 		.4byte	.LVL60-.Ltext0
 1237 0342 48010000 		.4byte	.LVL61-.Ltext0
 1238 0346 0100     		.2byte	0x1
 1239 0348 5E       		.byte	0x5e
 1240 0349 7A010000 		.4byte	.LVL66-.Ltext0
 1241 034d 88010000 		.4byte	.LFE135-.Ltext0
 1242 0351 0300     		.2byte	0x3
 1243 0353 91       		.byte	0x91
 1244 0354 B47F     		.sleb128 -76
 1245 0356 00000000 		.4byte	0
 1246 035a 00000000 		.4byte	0
 1247              	.LLST11:
 1248 035e 30000000 		.4byte	.LVL3-.Ltext0
 1249 0362 36000000 		.4byte	.LVL5-.Ltext0
 1250 0366 0100     		.2byte	0x1
 1251 0368 52       		.byte	0x52
 1252 0369 0A010000 		.4byte	.LVL48-.Ltext0
 1253 036d 48010000 		.4byte	.LVL61-.Ltext0
 1254 0371 0100     		.2byte	0x1
ARM GAS  /tmp/ccaJcdPP.s 			page 23


 1255 0373 57       		.byte	0x57
 1256 0374 7A010000 		.4byte	.LVL66-.Ltext0
 1257 0378 84010000 		.4byte	.LVL70-.Ltext0
 1258 037c 0100     		.2byte	0x1
 1259 037e 57       		.byte	0x57
 1260 037f 00000000 		.4byte	0
 1261 0383 00000000 		.4byte	0
 1262              	.LLST12:
 1263 0387 36000000 		.4byte	.LVL5-.Ltext0
 1264 038b 48010000 		.4byte	.LVL61-.Ltext0
 1265 038f 0700     		.2byte	0x7
 1266 0391 91       		.byte	0x91
 1267 0392 B87F     		.sleb128 -72
 1268 0394 06       		.byte	0x6
 1269 0395 40       		.byte	0x40
 1270 0396 1C       		.byte	0x1c
 1271 0397 9F       		.byte	0x9f
 1272 0398 48010000 		.4byte	.LVL61-.Ltext0
 1273 039c 54010000 		.4byte	.LVL62-.Ltext0
 1274 03a0 0700     		.2byte	0x7
 1275 03a2 91       		.byte	0x91
 1276 03a3 B87F     		.sleb128 -72
 1277 03a5 06       		.byte	0x6
 1278 03a6 3C       		.byte	0x3c
 1279 03a7 1C       		.byte	0x1c
 1280 03a8 9F       		.byte	0x9f
 1281 03a9 54010000 		.4byte	.LVL62-.Ltext0
 1282 03ad 5E010000 		.4byte	.LVL64-.Ltext0
 1283 03b1 0700     		.2byte	0x7
 1284 03b3 91       		.byte	0x91
 1285 03b4 B87F     		.sleb128 -72
 1286 03b6 06       		.byte	0x6
 1287 03b7 38       		.byte	0x38
 1288 03b8 1C       		.byte	0x1c
 1289 03b9 9F       		.byte	0x9f
 1290 03ba 6E010000 		.4byte	.LVL65-.Ltext0
 1291 03be 7A010000 		.4byte	.LVL66-.Ltext0
 1292 03c2 0100     		.2byte	0x1
 1293 03c4 50       		.byte	0x50
 1294 03c5 7A010000 		.4byte	.LVL66-.Ltext0
 1295 03c9 88010000 		.4byte	.LFE135-.Ltext0
 1296 03cd 0700     		.2byte	0x7
 1297 03cf 91       		.byte	0x91
 1298 03d0 B87F     		.sleb128 -72
 1299 03d2 06       		.byte	0x6
 1300 03d3 40       		.byte	0x40
 1301 03d4 1C       		.byte	0x1c
 1302 03d5 9F       		.byte	0x9f
 1303 03d6 00000000 		.4byte	0
 1304 03da 00000000 		.4byte	0
 1305              	.LLST13:
 1306 03de 36000000 		.4byte	.LVL5-.Ltext0
 1307 03e2 3C000000 		.4byte	.LVL6-.Ltext0
 1308 03e6 0700     		.2byte	0x7
 1309 03e8 91       		.byte	0x91
 1310 03e9 BC7F     		.sleb128 -68
 1311 03eb 06       		.byte	0x6
ARM GAS  /tmp/ccaJcdPP.s 			page 24


 1312 03ec 40       		.byte	0x40
 1313 03ed 1C       		.byte	0x1c
 1314 03ee 9F       		.byte	0x9f
 1315 03ef 3C000000 		.4byte	.LVL6-.Ltext0
 1316 03f3 40000000 		.4byte	.LVL7-.Ltext0
 1317 03f7 0700     		.2byte	0x7
 1318 03f9 91       		.byte	0x91
 1319 03fa BC7F     		.sleb128 -68
 1320 03fc 06       		.byte	0x6
 1321 03fd 3C       		.byte	0x3c
 1322 03fe 1C       		.byte	0x1c
 1323 03ff 9F       		.byte	0x9f
 1324 0400 40000000 		.4byte	.LVL7-.Ltext0
 1325 0404 44000000 		.4byte	.LVL8-.Ltext0
 1326 0408 0700     		.2byte	0x7
 1327 040a 91       		.byte	0x91
 1328 040b BC7F     		.sleb128 -68
 1329 040d 06       		.byte	0x6
 1330 040e 38       		.byte	0x38
 1331 040f 1C       		.byte	0x1c
 1332 0410 9F       		.byte	0x9f
 1333 0411 44000000 		.4byte	.LVL8-.Ltext0
 1334 0415 58010000 		.4byte	.LVL63-.Ltext0
 1335 0419 0700     		.2byte	0x7
 1336 041b 91       		.byte	0x91
 1337 041c BC7F     		.sleb128 -68
 1338 041e 06       		.byte	0x6
 1339 041f 34       		.byte	0x34
 1340 0420 1C       		.byte	0x1c
 1341 0421 9F       		.byte	0x9f
 1342 0422 7A010000 		.4byte	.LVL66-.Ltext0
 1343 0426 88010000 		.4byte	.LFE135-.Ltext0
 1344 042a 0700     		.2byte	0x7
 1345 042c 91       		.byte	0x91
 1346 042d BC7F     		.sleb128 -68
 1347 042f 06       		.byte	0x6
 1348 0430 34       		.byte	0x34
 1349 0431 1C       		.byte	0x1c
 1350 0432 9F       		.byte	0x9f
 1351 0433 00000000 		.4byte	0
 1352 0437 00000000 		.4byte	0
 1353              	.LLST14:
 1354 043b 74000000 		.4byte	.LVL15-.Ltext0
 1355 043f C0000000 		.4byte	.LVL32-.Ltext0
 1356 0443 0100     		.2byte	0x1
 1357 0445 50       		.byte	0x50
 1358 0446 D0000000 		.4byte	.LVL36-.Ltext0
 1359 044a 0A010000 		.4byte	.LVL48-.Ltext0
 1360 044e 0100     		.2byte	0x1
 1361 0450 54       		.byte	0x54
 1362 0451 1A010000 		.4byte	.LVL50-.Ltext0
 1363 0455 1E010000 		.4byte	.LVL51-.Ltext0
 1364 0459 0100     		.2byte	0x1
 1365 045b 56       		.byte	0x56
 1366 045c 22010000 		.4byte	.LVL52-.Ltext0
 1367 0460 48010000 		.4byte	.LVL61-.Ltext0
 1368 0464 0100     		.2byte	0x1
ARM GAS  /tmp/ccaJcdPP.s 			page 25


 1369 0466 56       		.byte	0x56
 1370 0467 00000000 		.4byte	0
 1371 046b 00000000 		.4byte	0
 1372              	.LLST15:
 1373 046f 5A000000 		.4byte	.LVL13-.Ltext0
 1374 0473 70000000 		.4byte	.LVL14-.Ltext0
 1375 0477 0200     		.2byte	0x2
 1376 0479 91       		.byte	0x91
 1377 047a 48       		.sleb128 -56
 1378 047b 70000000 		.4byte	.LVL14-.Ltext0
 1379 047f F4000000 		.4byte	.LVL44-.Ltext0
 1380 0483 0200     		.2byte	0x2
 1381 0485 7D       		.byte	0x7d
 1382 0486 00       		.sleb128 0
 1383 0487 F4000000 		.4byte	.LVL44-.Ltext0
 1384 048b 02010000 		.4byte	.LVL46-.Ltext0
 1385 048f 0100     		.2byte	0x1
 1386 0491 52       		.byte	0x52
 1387 0492 02010000 		.4byte	.LVL46-.Ltext0
 1388 0496 0A010000 		.4byte	.LVL48-.Ltext0
 1389 049a 0200     		.2byte	0x2
 1390 049c 7D       		.byte	0x7d
 1391 049d 00       		.sleb128 0
 1392 049e 0A010000 		.4byte	.LVL48-.Ltext0
 1393 04a2 1A010000 		.4byte	.LVL50-.Ltext0
 1394 04a6 0200     		.2byte	0x2
 1395 04a8 91       		.byte	0x91
 1396 04a9 4C       		.sleb128 -52
 1397 04aa 1A010000 		.4byte	.LVL50-.Ltext0
 1398 04ae 3C010000 		.4byte	.LVL58-.Ltext0
 1399 04b2 0100     		.2byte	0x1
 1400 04b4 50       		.byte	0x50
 1401 04b5 3C010000 		.4byte	.LVL58-.Ltext0
 1402 04b9 3E010000 		.4byte	.LVL59-.Ltext0
 1403 04bd 0300     		.2byte	0x3
 1404 04bf 70       		.byte	0x70
 1405 04c0 7F       		.sleb128 -1
 1406 04c1 9F       		.byte	0x9f
 1407 04c2 3E010000 		.4byte	.LVL59-.Ltext0
 1408 04c6 48010000 		.4byte	.LVL61-.Ltext0
 1409 04ca 0100     		.2byte	0x1
 1410 04cc 50       		.byte	0x50
 1411 04cd 7A010000 		.4byte	.LVL66-.Ltext0
 1412 04d1 7C010000 		.4byte	.LVL67-.Ltext0
 1413 04d5 0100     		.2byte	0x1
 1414 04d7 52       		.byte	0x52
 1415 04d8 7C010000 		.4byte	.LVL67-.Ltext0
 1416 04dc 84010000 		.4byte	.LVL70-.Ltext0
 1417 04e0 0200     		.2byte	0x2
 1418 04e2 91       		.byte	0x91
 1419 04e3 4C       		.sleb128 -52
 1420 04e4 84010000 		.4byte	.LVL70-.Ltext0
 1421 04e8 88010000 		.4byte	.LFE135-.Ltext0
 1422 04ec 0100     		.2byte	0x1
 1423 04ee 52       		.byte	0x52
 1424 04ef 00000000 		.4byte	0
 1425 04f3 00000000 		.4byte	0
ARM GAS  /tmp/ccaJcdPP.s 			page 26


 1426              	.LLST16:
 1427 04f7 34000000 		.4byte	.LVL4-.Ltext0
 1428 04fb 6E010000 		.4byte	.LVL65-.Ltext0
 1429 04ff 0200     		.2byte	0x2
 1430 0501 91       		.byte	0x91
 1431 0502 40       		.sleb128 -64
 1432 0503 6E010000 		.4byte	.LVL65-.Ltext0
 1433 0507 7A010000 		.4byte	.LVL66-.Ltext0
 1434 050b 0100     		.2byte	0x1
 1435 050d 53       		.byte	0x53
 1436 050e 7A010000 		.4byte	.LVL66-.Ltext0
 1437 0512 88010000 		.4byte	.LFE135-.Ltext0
 1438 0516 0200     		.2byte	0x2
 1439 0518 91       		.byte	0x91
 1440 0519 40       		.sleb128 -64
 1441 051a 00000000 		.4byte	0
 1442 051e 00000000 		.4byte	0
 1443              		.section	.debug_aranges,"",%progbits
 1444 0000 1C000000 		.4byte	0x1c
 1445 0004 0200     		.2byte	0x2
 1446 0006 00000000 		.4byte	.Ldebug_info0
 1447 000a 04       		.byte	0x4
 1448 000b 00       		.byte	0
 1449 000c 0000     		.2byte	0
 1450 000e 0000     		.2byte	0
 1451 0010 00000000 		.4byte	.Ltext0
 1452 0014 88010000 		.4byte	.Letext0-.Ltext0
 1453 0018 00000000 		.4byte	0
 1454 001c 00000000 		.4byte	0
 1455              		.section	.debug_line,"",%progbits
 1456              	.Ldebug_line0:
 1457 0000 A9020000 		.section	.debug_str,"MS",%progbits,1
 1457      02001902 
 1457      00000201 
 1457      FB0E0D00 
 1457      01010101 
 1458              	.LASF25:
 1459 0000 61726D5F 		.ascii	"arm_biquad_casd_df1_inst_q31\000"
 1459      62697175 
 1459      61645F63 
 1459      6173645F 
 1459      6466315F 
 1460              	.LASF33:
 1461 001d 474E5520 		.ascii	"GNU C 4.9.3 20150529 (release) [ARM/embedded-4_9-br"
 1461      4320342E 
 1461      392E3320 
 1461      32303135 
 1461      30353239 
 1462 0050 616E6368 		.ascii	"anch revision 224288] -mcpu=cortex-m4 -mfloat-abi=h"
 1462      20726576 
 1462      6973696F 
 1462      6E203232 
 1462      34323838 
 1463 0083 61726420 		.ascii	"ard -mfpu=fpv4-sp-d16 -mno-thumb-interwork -mthumb "
 1463      2D6D6670 
 1463      753D6670 
 1463      76342D73 
ARM GAS  /tmp/ccaJcdPP.s 			page 27


 1463      702D6431 
 1464 00b6 2D676764 		.ascii	"-ggdb -O2 -fomit-frame-pointer -falign-functions=16"
 1464      62202D4F 
 1464      32202D66 
 1464      6F6D6974 
 1464      2D667261 
 1465 00e9 202D666E 		.ascii	" -fno-math-errno -fsingle-precision-constant\000"
 1465      6F2D6D61 
 1465      74682D65 
 1465      72726E6F 
 1465      202D6673 
 1466              	.LASF30:
 1467 0116 73686966 		.ascii	"shift\000"
 1467      7400
 1468              	.LASF4:
 1469 011c 5F5F7569 		.ascii	"__uint8_t\000"
 1469      6E74385F 
 1469      7400
 1470              	.LASF18:
 1471 0126 666C6F61 		.ascii	"float\000"
 1471      7400
 1472              	.LASF5:
 1473 012c 5F5F696E 		.ascii	"__int32_t\000"
 1473      7433325F 
 1473      7400
 1474              	.LASF6:
 1475 0136 6C6F6E67 		.ascii	"long int\000"
 1475      20696E74 
 1475      00
 1476              	.LASF17:
 1477 013f 646F7562 		.ascii	"double\000"
 1477      6C6500
 1478              	.LASF32:
 1479 0146 73746167 		.ascii	"stage\000"
 1479      6500
 1480              	.LASF29:
 1481 014c 704F7574 		.ascii	"pOut\000"
 1481      00
 1482              	.LASF23:
 1483 0151 70436F65 		.ascii	"pCoeffs\000"
 1483      66667300 
 1484              	.LASF28:
 1485 0159 626C6F63 		.ascii	"blockSize\000"
 1485      6B53697A 
 1485      6500
 1486              	.LASF20:
 1487 0163 7133315F 		.ascii	"q31_t\000"
 1487      7400
 1488              	.LASF1:
 1489 0169 756E7369 		.ascii	"unsigned char\000"
 1489      676E6564 
 1489      20636861 
 1489      7200
 1490              	.LASF8:
 1491 0177 6C6F6E67 		.ascii	"long unsigned int\000"
 1491      20756E73 
 1491      69676E65 
ARM GAS  /tmp/ccaJcdPP.s 			page 28


 1491      6420696E 
 1491      7400
 1492              	.LASF3:
 1493 0189 73686F72 		.ascii	"short unsigned int\000"
 1493      7420756E 
 1493      7369676E 
 1493      65642069 
 1493      6E7400
 1494              	.LASF27:
 1495 019c 70447374 		.ascii	"pDst\000"
 1495      00
 1496              	.LASF24:
 1497 01a1 706F7374 		.ascii	"postShift\000"
 1497      53686966 
 1497      7400
 1498              	.LASF22:
 1499 01ab 70537461 		.ascii	"pState\000"
 1499      746500
 1500              	.LASF35:
 1501 01b2 61726D5F 		.ascii	"arm_biquad_cascade_df1_fast_q31\000"
 1501      62697175 
 1501      61645F63 
 1501      61736361 
 1501      64655F64 
 1502              	.LASF7:
 1503 01d2 5F5F7569 		.ascii	"__uint32_t\000"
 1503      6E743332 
 1503      5F7400
 1504              	.LASF11:
 1505 01dd 756E7369 		.ascii	"unsigned int\000"
 1505      676E6564 
 1505      20696E74 
 1505      00
 1506              	.LASF10:
 1507 01ea 6C6F6E67 		.ascii	"long long unsigned int\000"
 1507      206C6F6E 
 1507      6720756E 
 1507      7369676E 
 1507      65642069 
 1508              	.LASF12:
 1509 0201 75696E74 		.ascii	"uint8_t\000"
 1509      385F7400 
 1510              	.LASF13:
 1511 0209 696E7433 		.ascii	"int32_t\000"
 1511      325F7400 
 1512              	.LASF15:
 1513 0211 73697A65 		.ascii	"sizetype\000"
 1513      74797065 
 1513      00
 1514              	.LASF9:
 1515 021a 6C6F6E67 		.ascii	"long long int\000"
 1515      206C6F6E 
 1515      6720696E 
 1515      7400
 1516              	.LASF16:
 1517 0228 63686172 		.ascii	"char\000"
 1517      00
ARM GAS  /tmp/ccaJcdPP.s 			page 29


 1518              	.LASF2:
 1519 022d 73686F72 		.ascii	"short int\000"
 1519      7420696E 
 1519      7400
 1520              	.LASF34:
 1521 0237 2F686F6D 		.ascii	"/home/sbcu/Dropbox/pcb-layouts/axo-on-discovery-boa"
 1521      652F7362 
 1521      63752F44 
 1521      726F7062 
 1521      6F782F70 
 1522 026a 72642F61 		.ascii	"rd/axoloti/platform_linux/../CMSIS//DSP_Lib/Source/"
 1522      786F6C6F 
 1522      74692F70 
 1522      6C617466 
 1522      6F726D5F 
 1523 029d 46696C74 		.ascii	"FilteringFunctions/arm_biquad_cascade_df1_fast_q31."
 1523      6572696E 
 1523      6746756E 
 1523      6374696F 
 1523      6E732F61 
 1524 02d0 6300     		.ascii	"c\000"
 1525              	.LASF14:
 1526 02d2 75696E74 		.ascii	"uint32_t\000"
 1526      33325F74 
 1526      00
 1527              	.LASF31:
 1528 02db 73616D70 		.ascii	"sample\000"
 1528      6C6500
 1529              	.LASF19:
 1530 02e2 6C6F6E67 		.ascii	"long double\000"
 1530      20646F75 
 1530      626C6500 
 1531              	.LASF0:
 1532 02ee 7369676E 		.ascii	"signed char\000"
 1532      65642063 
 1532      68617200 
 1533              	.LASF26:
 1534 02fa 70537263 		.ascii	"pSrc\000"
 1534      00
 1535              	.LASF21:
 1536 02ff 6E756D53 		.ascii	"numStages\000"
 1536      74616765 
 1536      7300
 1537              		.ident	"GCC: (GNU Tools for ARM Embedded Processors) 4.9.3 20150529 (release) [ARM/embedded-4_9-br
ARM GAS  /tmp/ccaJcdPP.s 			page 30


DEFINED SYMBOLS
                            *ABS*:00000000 arm_biquad_cascade_df1_fast_q31.c
     /tmp/ccaJcdPP.s:20     .text:00000000 $t
     /tmp/ccaJcdPP.s:26     .text:00000000 arm_biquad_cascade_df1_fast_q31
                     .debug_frame:00000010 $d

NO UNDEFINED SYMBOLS
