ARM GAS  /tmp/cckCqwlx.s 			page 1


   1              		.syntax unified
   2              		.cpu cortex-m4
   3              		.eabi_attribute 27, 1
   4              		.eabi_attribute 28, 1
   5              		.fpu fpv4-sp-d16
   6              		.eabi_attribute 20, 1
   7              		.eabi_attribute 21, 1
   8              		.eabi_attribute 23, 3
   9              		.eabi_attribute 24, 1
  10              		.eabi_attribute 25, 1
  11              		.eabi_attribute 26, 1
  12              		.eabi_attribute 30, 2
  13              		.eabi_attribute 34, 1
  14              		.eabi_attribute 18, 4
  15              		.thumb
  16              		.file	"arm_cfft_radix4_init_f32.c"
  17              		.text
  18              	.Ltext0:
  19              		.cfi_sections	.debug_frame
  20              		.align	2
  21              		.p2align 4,,15
  22              		.global	arm_cfft_radix4_init_f32
  23              		.thumb
  24              		.thumb_func
  25              		.type	arm_cfft_radix4_init_f32, %function
  26              	arm_cfft_radix4_init_f32:
  27              	.LFB135:
  28              		.file 1 "/home/sbcu/Dropbox/pcb-layouts/axo-on-discovery-board/axoloti/platform_linux/../CMSIS//DS
  29              		.loc 1 82 0
  30              		.cfi_startproc
  31              		@ args = 0, pretend = 0, frame = 0
  32              		@ frame_needed = 0, uses_anonymous_args = 0
  33              		@ link register save eliminated.
  34              	.LVL0:
  35 0000 10B4     		push	{r4}
  36              		.cfi_def_cfa_offset 4
  37              		.cfi_offset 4, -4
  38              		.loc 1 99 0
  39 0002 B1F5807F 		cmp	r1, #256
  40              		.loc 1 90 0
  41 0006 2B4C     		ldr	r4, .L12
  42              		.loc 1 93 0
  43 0008 8270     		strb	r2, [r0, #2]
  44              		.loc 1 96 0
  45 000a C370     		strb	r3, [r0, #3]
  46              		.loc 1 87 0
  47 000c 0180     		strh	r1, [r0]	@ movhi
  48              		.loc 1 90 0
  49 000e 4460     		str	r4, [r0, #4]
  50              		.loc 1 99 0
  51 0010 43D0     		beq	.L3
  52 0012 0FD8     		bhi	.L4
  53 0014 1029     		cmp	r1, #16
  54 0016 32D0     		beq	.L5
  55 0018 4029     		cmp	r1, #64
  56 001a 1ED1     		bne	.L9
  57              		.loc 1 142 0
ARM GAS  /tmp/cckCqwlx.s 			page 2


  58 001c 4FF07252 		mov	r2, #1015021568
  59              	.LVL1:
  60              		.loc 1 141 0
  61 0020 254B     		ldr	r3, .L12+4
  62              	.LVL2:
  63              		.loc 1 139 0
  64 0022 8181     		strh	r1, [r0, #12]	@ movhi
  65              		.loc 1 140 0
  66 0024 C181     		strh	r1, [r0, #14]	@ movhi
  67              		.loc 1 142 0
  68 0026 0261     		str	r2, [r0, #16]	@ float
  69              		.loc 1 141 0
  70 0028 8360     		str	r3, [r0, #8]
  71              		.loc 1 84 0
  72 002a 0020     		movs	r0, #0
  73              	.LVL3:
  74              		.loc 1 161 0
  75 002c 40B2     		sxtb	r0, r0
  76 002e 5DF8044B 		ldr	r4, [sp], #4
  77              		.cfi_remember_state
  78              		.cfi_restore 4
  79              		.cfi_def_cfa_offset 0
  80 0032 7047     		bx	lr
  81              	.LVL4:
  82              	.L4:
  83              		.cfi_restore_state
  84              		.loc 1 99 0
  85 0034 B1F5806F 		cmp	r1, #1024
  86 0038 14D0     		beq	.L7
  87 003a B1F5805F 		cmp	r1, #4096
  88 003e 0CD1     		bne	.L9
  89              		.loc 1 112 0
  90 0040 4FF06653 		mov	r3, #964689920
  91              	.LVL5:
  92 0044 0361     		str	r3, [r0, #16]	@ float
  93              		.loc 1 110 0
  94 0046 1D4A     		ldr	r2, .L12+8
  95              	.LVL6:
  96 0048 8260     		str	r2, [r0, #8]
  97              		.loc 1 106 0
  98 004a 0123     		movs	r3, #1
  99 004c 8381     		strh	r3, [r0, #12]	@ movhi
 100              		.loc 1 108 0
 101 004e C381     		strh	r3, [r0, #14]	@ movhi
 102              		.loc 1 84 0
 103 0050 0020     		movs	r0, #0
 104              	.LVL7:
 105              		.loc 1 161 0
 106 0052 40B2     		sxtb	r0, r0
 107 0054 5DF8044B 		ldr	r4, [sp], #4
 108              		.cfi_remember_state
 109              		.cfi_restore 4
 110              		.cfi_def_cfa_offset 0
 111 0058 7047     		bx	lr
 112              	.LVL8:
 113              	.L9:
 114              		.cfi_restore_state
ARM GAS  /tmp/cckCqwlx.s 			page 3


 115              		.loc 1 156 0
 116 005a FF20     		movs	r0, #255
 117              	.LVL9:
 118              		.loc 1 161 0
 119 005c 40B2     		sxtb	r0, r0
 120 005e 5DF8044B 		ldr	r4, [sp], #4
 121              		.cfi_remember_state
 122              		.cfi_restore 4
 123              		.cfi_def_cfa_offset 0
 124 0062 7047     		bx	lr
 125              	.LVL10:
 126              	.L7:
 127              		.cfi_restore_state
 128              		.loc 1 125 0
 129 0064 4FF06A53 		mov	r3, #981467136
 130              	.LVL11:
 131 0068 0361     		str	r3, [r0, #16]	@ float
 132              		.loc 1 123 0
 133 006a 154A     		ldr	r2, .L12+12
 134              	.LVL12:
 135 006c 8260     		str	r2, [r0, #8]
 136              		.loc 1 119 0
 137 006e 0423     		movs	r3, #4
 138 0070 8381     		strh	r3, [r0, #12]	@ movhi
 139              		.loc 1 121 0
 140 0072 C381     		strh	r3, [r0, #14]	@ movhi
 141              		.loc 1 84 0
 142 0074 0020     		movs	r0, #0
 143              	.LVL13:
 144              		.loc 1 161 0
 145 0076 40B2     		sxtb	r0, r0
 146 0078 5DF8044B 		ldr	r4, [sp], #4
 147              		.cfi_remember_state
 148              		.cfi_restore 4
 149              		.cfi_def_cfa_offset 0
 150 007c 7047     		bx	lr
 151              	.LVL14:
 152              	.L5:
 153              		.cfi_restore_state
 154              		.loc 1 150 0
 155 007e 4FF07653 		mov	r3, #1031798784
 156              	.LVL15:
 157 0082 0361     		str	r3, [r0, #16]	@ float
 158              		.loc 1 149 0
 159 0084 0F4A     		ldr	r2, .L12+16
 160              	.LVL16:
 161 0086 8260     		str	r2, [r0, #8]
 162              		.loc 1 147 0
 163 0088 4FF48073 		mov	r3, #256
 164 008c 8381     		strh	r3, [r0, #12]	@ movhi
 165              		.loc 1 148 0
 166 008e C381     		strh	r3, [r0, #14]	@ movhi
 167              		.loc 1 84 0
 168 0090 0020     		movs	r0, #0
 169              	.LVL17:
 170              		.loc 1 161 0
 171 0092 40B2     		sxtb	r0, r0
ARM GAS  /tmp/cckCqwlx.s 			page 4


 172 0094 5DF8044B 		ldr	r4, [sp], #4
 173              		.cfi_remember_state
 174              		.cfi_restore 4
 175              		.cfi_def_cfa_offset 0
 176 0098 7047     		bx	lr
 177              	.LVL18:
 178              	.L3:
 179              		.cfi_restore_state
 180              		.loc 1 134 0
 181 009a 4FF06E53 		mov	r3, #998244352
 182              	.LVL19:
 183 009e 0361     		str	r3, [r0, #16]	@ float
 184              		.loc 1 133 0
 185 00a0 094A     		ldr	r2, .L12+20
 186              	.LVL20:
 187 00a2 8260     		str	r2, [r0, #8]
 188              		.loc 1 131 0
 189 00a4 1023     		movs	r3, #16
 190 00a6 8381     		strh	r3, [r0, #12]	@ movhi
 191              		.loc 1 132 0
 192 00a8 C381     		strh	r3, [r0, #14]	@ movhi
 193              		.loc 1 84 0
 194 00aa 0020     		movs	r0, #0
 195              	.LVL21:
 196              		.loc 1 161 0
 197 00ac 40B2     		sxtb	r0, r0
 198 00ae 5DF8044B 		ldr	r4, [sp], #4
 199              		.cfi_restore 4
 200              		.cfi_def_cfa_offset 0
 201 00b2 7047     		bx	lr
 202              	.L13:
 203              		.align	2
 204              	.L12:
 205 00b4 00000000 		.word	twiddleCoef_4096
 206 00b8 7E000000 		.word	armBitRevTable+126
 207 00bc 00000000 		.word	armBitRevTable
 208 00c0 06000000 		.word	armBitRevTable+6
 209 00c4 FE010000 		.word	armBitRevTable+510
 210 00c8 1E000000 		.word	armBitRevTable+30
 211              		.cfi_endproc
 212              	.LFE135:
 213              		.size	arm_cfft_radix4_init_f32, .-arm_cfft_radix4_init_f32
 214              	.Letext0:
 215              		.file 2 "/home/sbcu/Dropbox/pcb-layouts/axo-on-discovery-board/axoloti/platform_linux/arm-none-eab
 216              		.file 3 "/home/sbcu/Dropbox/pcb-layouts/axo-on-discovery-board/axoloti/platform_linux/arm-none-eab
 217              		.file 4 "/home/sbcu/Dropbox/pcb-layouts/axo-on-discovery-board/axoloti/platform_linux/../CMSIS//DS
 218              		.file 5 "/home/sbcu/Dropbox/pcb-layouts/axo-on-discovery-board/axoloti/platform_linux/../CMSIS//DS