ARM GAS  /tmp/ccZKmm6b.s 			page 1


   1              		.syntax unified
   2              		.cpu cortex-m4
   3              		.eabi_attribute 27, 1
   4              		.eabi_attribute 28, 1
   5              		.fpu fpv4-sp-d16
   6              		.eabi_attribute 20, 1
   7              		.eabi_attribute 21, 1
   8              		.eabi_attribute 23, 3
   9              		.eabi_attribute 24, 1
  10              		.eabi_attribute 25, 1
  11              		.eabi_attribute 26, 1
  12              		.eabi_attribute 30, 2
  13              		.eabi_attribute 34, 1
  14              		.eabi_attribute 18, 4
  15              		.thumb
  16              		.file	"arm_rfft_fast_init_f32.c"
  17              		.text
  18              	.Ltext0:
  19              		.cfi_sections	.debug_frame
  20              		.align	2
  21              		.p2align 4,,15
  22              		.global	arm_rfft_fast_init_f32
  23              		.thumb
  24              		.thumb_func
  25              		.type	arm_rfft_fast_init_f32, %function
  26              	arm_rfft_fast_init_f32:
  27              	.LFB135:
  28              		.file 1 "/home/sbcu/Dropbox/pcb-layouts/axo-on-discovery-board/axoloti/platform_linux/../CMSIS//DS
  29              		.loc 1 68 0
  30              		.cfi_startproc
  31              		@ args = 0, pretend = 0, frame = 0
  32              		@ frame_needed = 0, uses_anonymous_args = 0
  33              		@ link register save eliminated.
  34              	.LVL0:
  35              		.loc 1 74 0
  36 0000 4B08     		lsrs	r3, r1, #1
  37              		.loc 1 78 0
  38 0002 802B     		cmp	r3, #128
  39              		.loc 1 68 0
  40 0004 10B4     		push	{r4}
  41              		.cfi_def_cfa_offset 4
  42              		.cfi_offset 4, -4
  43              		.loc 1 75 0
  44 0006 0182     		strh	r1, [r0, #16]	@ movhi
  45              		.loc 1 74 0
  46 0008 0380     		strh	r3, [r0]	@ movhi
  47              		.loc 1 78 0
  48 000a 47D0     		beq	.L3
  49 000c 17D9     		bls	.L18
  50 000e B3F5007F 		cmp	r3, #512
  51 0012 3DD0     		beq	.L8
  52 0014 29D9     		bls	.L19
  53 0016 B3F5806F 		cmp	r3, #1024
  54 001a 20D0     		beq	.L11
  55 001c B3F5006F 		cmp	r3, #2048
  56 0020 13D1     		bne	.L13
  57              		.loc 1 85 0
ARM GAS  /tmp/ccZKmm6b.s 			page 2


  58 0022 2149     		ldr	r1, .L21
  59              	.LVL1:
  60              		.loc 1 87 0
  61 0024 214A     		ldr	r2, .L21+4
  62              		.loc 1 88 0
  63 0026 224B     		ldr	r3, .L21+8
  64              		.loc 1 83 0
  65 0028 4FF46E64 		mov	r4, #3808
  66              	.L15:
  67              		.loc 1 127 0
  68 002c 8481     		strh	r4, [r0, #12]	@ movhi
  69              		.loc 1 128 0
  70 002e 8160     		str	r1, [r0, #8]
  71              		.loc 1 129 0
  72 0030 4260     		str	r2, [r0, #4]
  73              		.loc 1 130 0
  74 0032 4361     		str	r3, [r0, #20]
  75              		.loc 1 71 0
  76 0034 0020     		movs	r0, #0
  77              	.LVL2:
  78              		.loc 1 139 0
  79 0036 40B2     		sxtb	r0, r0
  80 0038 5DF8044B 		ldr	r4, [sp], #4
  81              		.cfi_remember_state
  82              		.cfi_restore 4
  83              		.cfi_def_cfa_offset 0
  84 003c 7047     		bx	lr
  85              	.LVL3:
  86              	.L18:
  87              		.cfi_restore_state
  88              		.loc 1 78 0
  89 003e 202B     		cmp	r3, #32
  90 0040 1CD0     		beq	.L5
  91 0042 402B     		cmp	r3, #64
  92 0044 06D0     		beq	.L6
  93 0046 102B     		cmp	r3, #16
  94 0048 1DD0     		beq	.L20
  95              	.L13:
  96              		.loc 1 134 0
  97 004a FF20     		movs	r0, #255
  98              	.LVL4:
  99              		.loc 1 139 0
 100 004c 40B2     		sxtb	r0, r0
 101 004e 5DF8044B 		ldr	r4, [sp], #4
 102              		.cfi_remember_state
 103              		.cfi_restore 4
 104              		.cfi_def_cfa_offset 0
 105 0052 7047     		bx	lr
 106              	.LVL5:
 107              	.L6:
 108              		.cfi_restore_state
 109              		.loc 1 115 0
 110 0054 3824     		movs	r4, #56
 111              		.loc 1 116 0
 112 0056 1749     		ldr	r1, .L21+12
 113              	.LVL6:
 114              		.loc 1 117 0
ARM GAS  /tmp/ccZKmm6b.s 			page 3


 115 0058 174A     		ldr	r2, .L21+16
 116              		.loc 1 118 0
 117 005a 184B     		ldr	r3, .L21+20
 118 005c E6E7     		b	.L15
 119              	.LVL7:
 120              	.L11:
 121              		.loc 1 91 0
 122 005e 4FF4E164 		mov	r4, #1800
 123              		.loc 1 92 0
 124 0062 1749     		ldr	r1, .L21+24
 125              	.LVL8:
 126              		.loc 1 93 0
 127 0064 174A     		ldr	r2, .L21+28
 128              		.loc 1 94 0
 129 0066 184B     		ldr	r3, .L21+32
 130 0068 E0E7     		b	.L15
 131              	.LVL9:
 132              	.L19:
 133              		.loc 1 78 0
 134 006a B3F5807F 		cmp	r3, #256
 135 006e ECD1     		bne	.L13
 136              		.loc 1 103 0
 137 0070 4FF4DC74 		mov	r4, #440
 138              		.loc 1 104 0
 139 0074 1549     		ldr	r1, .L21+36
 140              	.LVL10:
 141              		.loc 1 105 0
 142 0076 164A     		ldr	r2, .L21+40
 143              		.loc 1 106 0
 144 0078 164B     		ldr	r3, .L21+44
 145 007a D7E7     		b	.L15
 146              	.LVL11:
 147              	.L5:
 148              		.loc 1 121 0
 149 007c 3024     		movs	r4, #48
 150              		.loc 1 122 0
 151 007e 1649     		ldr	r1, .L21+48
 152              	.LVL12:
 153              		.loc 1 123 0
 154 0080 164A     		ldr	r2, .L21+52
 155              		.loc 1 124 0
 156 0082 174B     		ldr	r3, .L21+56
 157 0084 D2E7     		b	.L15
 158              	.LVL13:
 159              	.L20:
 160              		.loc 1 127 0
 161 0086 1424     		movs	r4, #20
 162              		.loc 1 128 0
 163 0088 1649     		ldr	r1, .L21+60
 164              	.LVL14:
 165              		.loc 1 129 0
 166 008a 174A     		ldr	r2, .L21+64
 167              		.loc 1 130 0
 168 008c 174B     		ldr	r3, .L21+68
 169 008e CDE7     		b	.L15
 170              	.LVL15:
 171              	.L8:
ARM GAS  /tmp/ccZKmm6b.s 			page 4


 172              		.loc 1 97 0
 173 0090 4FF4E074 		mov	r4, #448
 174              		.loc 1 98 0
 175 0094 1649     		ldr	r1, .L21+72
 176              	.LVL16:
 177              		.loc 1 99 0
 178 0096 174A     		ldr	r2, .L21+76
 179              		.loc 1 100 0
 180 0098 174B     		ldr	r3, .L21+80
 181 009a C7E7     		b	.L15
 182              	.LVL17:
 183              	.L3:
 184              		.loc 1 109 0
 185 009c D024     		movs	r4, #208
 186              		.loc 1 110 0
 187 009e 1749     		ldr	r1, .L21+84
 188              	.LVL18:
 189              		.loc 1 111 0
 190 00a0 174A     		ldr	r2, .L21+88
 191              		.loc 1 112 0
 192 00a2 184B     		ldr	r3, .L21+92
 193 00a4 C2E7     		b	.L15
 194              	.L22:
 195 00a6 00BF     		.align	2
 196              	.L21:
 197 00a8 00000000 		.word	armBitRevIndexTable2048
 198 00ac 00000000 		.word	twiddleCoef_2048
 199 00b0 00000000 		.word	twiddleCoef_rfft_4096
 200 00b4 00000000 		.word	armBitRevIndexTable64
 201 00b8 00000000 		.word	twiddleCoef_64
 202 00bc 00000000 		.word	twiddleCoef_rfft_128
 203 00c0 00000000 		.word	armBitRevIndexTable1024
 204 00c4 00000000 		.word	twiddleCoef_1024
 205 00c8 00000000 		.word	twiddleCoef_rfft_2048
 206 00cc 00000000 		.word	armBitRevIndexTable256
 207 00d0 00000000 		.word	twiddleCoef_256
 208 00d4 00000000 		.word	twiddleCoef_rfft_512
 209 00d8 00000000 		.word	armBitRevIndexTable32
 210 00dc 00000000 		.word	twiddleCoef_32
 211 00e0 00000000 		.word	twiddleCoef_rfft_64
 212 00e4 00000000 		.word	armBitRevIndexTable16
 213 00e8 00000000 		.word	twiddleCoef_16
 214 00ec 00000000 		.word	twiddleCoef_rfft_32
 215 00f0 00000000 		.word	armBitRevIndexTable512
 216 00f4 00000000 		.word	twiddleCoef_512
 217 00f8 00000000 		.word	twiddleCoef_rfft_1024
 218 00fc 00000000 		.word	armBitRevIndexTable128
 219 0100 00000000 		.word	twiddleCoef_128
 220 0104 00000000 		.word	twiddleCoef_rfft_256
 221              		.cfi_endproc
 222              	.LFE135:
 223              		.size	arm_rfft_fast_init_f32, .-arm_rfft_fast_init_f32
 224              	.Letext0:
 225              		.file 2 "/home/sbcu/Dropbox/pcb-layouts/axo-on-discovery-board/axoloti/platform_linux/arm-none-eab
 226              		.file 3 "/home/sbcu/Dropbox/pcb-layouts/axo-on-discovery-board/axoloti/platform_linux/arm-none-eab
 227              		.file 4 "/home/sbcu/Dropbox/pcb-layouts/axo-on-discovery-board/axoloti/platform_linux/../CMSIS//DS
 228              		.file 5 "/home/sbcu/Dropbox/pcb-layouts/axo-on-discovery-board/axoloti/platform_linux/../CMSIS//DS
ARM GAS  /tmp/ccZKmm6b.s 			page 5

