ARM GAS  /tmp/ccFDZKQF.s 			page 1


   1              		.syntax unified
   2              		.cpu cortex-m4
   3              		.eabi_attribute 27, 1
   4              		.eabi_attribute 28, 1
   5              		.fpu fpv4-sp-d16
   6              		.eabi_attribute 20, 1
   7              		.eabi_attribute 21, 1
   8              		.eabi_attribute 23, 3
   9              		.eabi_attribute 24, 1
  10              		.eabi_attribute 25, 1
  11              		.eabi_attribute 26, 1
  12              		.eabi_attribute 30, 2
  13              		.eabi_attribute 34, 1
  14              		.eabi_attribute 18, 4
  15              		.thumb
  16              		.file	"arm_cmplx_mult_cmplx_q31.c"
  17              		.text
  18              	.Ltext0:
  19              		.cfi_sections	.debug_frame
  20              		.align	2
  21              		.p2align 4,,15
  22              		.global	arm_cmplx_mult_cmplx_q31
  23              		.thumb
  24              		.thumb_func
  25              		.type	arm_cmplx_mult_cmplx_q31, %function
  26              	arm_cmplx_mult_cmplx_q31:
  27              	.LFB135:
  28              		.file 1 "/d_drive/axoloti/platform_linux/../CMSIS//DSP_Lib/Source/ComplexMathFunctions/arm_cmplx_m
  29              		.loc 1 72 0
  30              		.cfi_startproc
  31              		@ args = 0, pretend = 0, frame = 16
  32              		@ frame_needed = 0, uses_anonymous_args = 0
  33              	.LVL0:
  34 0000 2DE9F04F 		push	{r4, r5, r6, r7, r8, r9, r10, fp, lr}
  35              		.cfi_def_cfa_offset 36
  36              		.cfi_offset 4, -36
  37              		.cfi_offset 5, -32
  38              		.cfi_offset 6, -28
  39              		.cfi_offset 7, -24
  40              		.cfi_offset 8, -20
  41              		.cfi_offset 9, -16
  42              		.cfi_offset 10, -12
  43              		.cfi_offset 11, -8
  44              		.cfi_offset 14, -4
  45 0004 85B0     		sub	sp, sp, #20
  46              		.cfi_def_cfa_offset 56
  47              		.loc 1 72 0
  48 0006 0F46     		mov	r7, r1
  49 0008 0293     		str	r3, [sp, #8]
  50              	.LVL1:
  51              		.loc 1 87 0
  52 000a 9B08     		lsrs	r3, r3, #2
  53              	.LVL2:
  54              		.loc 1 72 0
  55 000c 1446     		mov	r4, r2
  56 000e 0192     		str	r2, [sp, #4]
  57              		.loc 1 87 0
ARM GAS  /tmp/ccFDZKQF.s 			page 2


  58 0010 1E46     		mov	r6, r3
  59 0012 0393     		str	r3, [sp, #12]
  60 0014 00F08580 		beq	.L2
  61 0018 2346     		mov	r3, r4
  62              	.LVL3:
  63 001a 00F12001 		add	r1, r0, #32
  64              	.LVL4:
  65 001e 07F12002 		add	r2, r7, #32
  66              	.LVL5:
  67 0022 2033     		adds	r3, r3, #32
  68              	.LVL6:
  69              	.L3:
  70              		.loc 1 93 0
  71 0024 52F820CC 		ldr	ip, [r2, #-32]
  72              		.loc 1 92 0
  73 0028 51F81CAC 		ldr	r10, [r1, #-28]
  74              		.loc 1 94 0
  75 002c 52F81C5C 		ldr	r5, [r2, #-28]
  76              		.loc 1 91 0
  77 0030 51F8204C 		ldr	r4, [r1, #-32]
  78              	.LVL7:
  79              		.loc 1 97 0
  80 0034 8AFB0589 		smull	r8, r9, r10, r5
  81              		.loc 1 99 0
  82 0038 8CFB0AAB 		smull	r10, fp, ip, r10
  83              	.LVL8:
  84              		.loc 1 102 0
  85 003c 4FEA690E 		asr	lr, r9, #1
  86              		.loc 1 96 0
  87 0040 84FB0C89 		smull	r8, r9, r4, ip
  88              	.LVL9:
  89              		.loc 1 104 0
  90 0044 4FEA6B0C 		asr	ip, fp, #1
  91              	.LVL10:
  92              		.loc 1 98 0
  93 0048 84FB0545 		smull	r4, r5, r4, r5
  94              	.LVL11:
  95              		.loc 1 107 0
  96 004c 0CEB6504 		add	r4, ip, r5, asr #1
  97              		.loc 1 106 0
  98 0050 CEEB690E 		rsb	lr, lr, r9, asr #1
  99              		.loc 1 110 0
 100 0054 43F820EC 		str	lr, [r3, #-32]
 101              	.LVL12:
 102              		.loc 1 112 0
 103 0058 43F81C4C 		str	r4, [r3, #-28]
 104              	.LVL13:
 105              		.loc 1 116 0
 106 005c 52F818CC 		ldr	ip, [r2, #-24]
 107              		.loc 1 115 0
 108 0060 51F814AC 		ldr	r10, [r1, #-20]
 109              		.loc 1 117 0
 110 0064 52F8145C 		ldr	r5, [r2, #-20]
 111              	.LVL14:
 112              		.loc 1 114 0
 113 0068 51F8184C 		ldr	r4, [r1, #-24]
 114              	.LVL15:
ARM GAS  /tmp/ccFDZKQF.s 			page 3


 115              		.loc 1 120 0
 116 006c 8AFB0589 		smull	r8, r9, r10, r5
 117              		.loc 1 122 0
 118 0070 8CFB0AAB 		smull	r10, fp, ip, r10
 119              	.LVL16:
 120              		.loc 1 125 0
 121 0074 4FEA690E 		asr	lr, r9, #1
 122              		.loc 1 119 0
 123 0078 84FB0C89 		smull	r8, r9, r4, ip
 124              	.LVL17:
 125              		.loc 1 127 0
 126 007c 4FEA6B0C 		asr	ip, fp, #1
 127              	.LVL18:
 128              		.loc 1 121 0
 129 0080 84FB0545 		smull	r4, r5, r4, r5
 130              	.LVL19:
 131              		.loc 1 130 0
 132 0084 0CEB6504 		add	r4, ip, r5, asr #1
 133              		.loc 1 129 0
 134 0088 CEEB690E 		rsb	lr, lr, r9, asr #1
 135              		.loc 1 133 0
 136 008c 43F818EC 		str	lr, [r3, #-24]
 137              	.LVL20:
 138              		.loc 1 135 0
 139 0090 43F8144C 		str	r4, [r3, #-20]
 140              	.LVL21:
 141              		.loc 1 139 0
 142 0094 52F810CC 		ldr	ip, [r2, #-16]
 143              		.loc 1 138 0
 144 0098 51F80CAC 		ldr	r10, [r1, #-12]
 145              		.loc 1 140 0
 146 009c 52F80C5C 		ldr	r5, [r2, #-12]
 147              	.LVL22:
 148              		.loc 1 137 0
 149 00a0 51F8104C 		ldr	r4, [r1, #-16]
 150              	.LVL23:
 151              		.loc 1 143 0
 152 00a4 8AFB0589 		smull	r8, r9, r10, r5
 153              		.loc 1 145 0
 154 00a8 8CFB0AAB 		smull	r10, fp, ip, r10
 155              	.LVL24:
 156              		.loc 1 148 0
 157 00ac 4FEA690E 		asr	lr, r9, #1
 158              		.loc 1 142 0
 159 00b0 84FB0C89 		smull	r8, r9, r4, ip
 160              	.LVL25:
 161              		.loc 1 150 0
 162 00b4 4FEA6B0C 		asr	ip, fp, #1
 163              	.LVL26:
 164              		.loc 1 144 0
 165 00b8 84FB0545 		smull	r4, r5, r4, r5
 166              	.LVL27:
 167              		.loc 1 153 0
 168 00bc 0CEB6504 		add	r4, ip, r5, asr #1
 169              		.loc 1 152 0
 170 00c0 CEEB690E 		rsb	lr, lr, r9, asr #1
 171              		.loc 1 156 0
ARM GAS  /tmp/ccFDZKQF.s 			page 4


 172 00c4 43F810EC 		str	lr, [r3, #-16]
 173              	.LVL28:
 174              		.loc 1 158 0
 175 00c8 43F80C4C 		str	r4, [r3, #-12]
 176              	.LVL29:
 177              		.loc 1 162 0
 178 00cc 52F808CC 		ldr	ip, [r2, #-8]
 179              		.loc 1 161 0
 180 00d0 51F804AC 		ldr	r10, [r1, #-4]
 181              		.loc 1 163 0
 182 00d4 52F8045C 		ldr	r5, [r2, #-4]
 183              	.LVL30:
 184              		.loc 1 160 0
 185 00d8 51F8084C 		ldr	r4, [r1, #-8]
 186              	.LVL31:
 187              		.loc 1 166 0
 188 00dc 8AFB0589 		smull	r8, r9, r10, r5
 189              		.loc 1 168 0
 190 00e0 8CFB0AAB 		smull	r10, fp, ip, r10
 191              	.LVL32:
 192              		.loc 1 171 0
 193 00e4 4FEA690E 		asr	lr, r9, #1
 194              		.loc 1 165 0
 195 00e8 84FB0C89 		smull	r8, r9, r4, ip
 196              	.LVL33:
 197              		.loc 1 173 0
 198 00ec 4FEA6B0C 		asr	ip, fp, #1
 199              	.LVL34:
 200              		.loc 1 167 0
 201 00f0 84FB0545 		smull	r4, r5, r4, r5
 202              	.LVL35:
 203              		.loc 1 175 0
 204 00f4 CEEB690E 		rsb	lr, lr, r9, asr #1
 205              		.loc 1 176 0
 206 00f8 0CEB6504 		add	r4, ip, r5, asr #1
 207              		.loc 1 87 0
 208 00fc 013E     		subs	r6, r6, #1
 209              	.LVL36:
 210              		.loc 1 179 0
 211 00fe 43F808EC 		str	lr, [r3, #-8]
 212              	.LVL37:
 213              		.loc 1 181 0
 214 0102 43F8044C 		str	r4, [r3, #-4]
 215 0106 02F12002 		add	r2, r2, #32
 216 010a 01F12001 		add	r1, r1, #32
 217              	.LVL38:
 218 010e 03F12003 		add	r3, r3, #32
 219              		.loc 1 87 0
 220 0112 87D1     		bne	.L3
 221 0114 039B     		ldr	r3, [sp, #12]
 222 0116 019A     		ldr	r2, [sp, #4]
 223 0118 5B01     		lsls	r3, r3, #5
 224              	.LVL39:
 225 011a 1A44     		add	r2, r2, r3
 226 011c 1844     		add	r0, r0, r3
 227              	.LVL40:
 228 011e 1F44     		add	r7, r7, r3
ARM GAS  /tmp/ccFDZKQF.s 			page 5


 229              	.LVL41:
 230 0120 0192     		str	r2, [sp, #4]
 231              	.LVL42:
 232              	.L2:
 233              		.loc 1 191 0
 234 0122 029B     		ldr	r3, [sp, #8]
 235 0124 13F00303 		ands	r3, r3, #3
 236              	.LVL43:
 237 0128 28D0     		beq	.L1
 238 012a 019A     		ldr	r2, [sp, #4]
 239              	.LVL44:
 240 012c 0830     		adds	r0, r0, #8
 241              	.LVL45:
 242 012e 07F10801 		add	r1, r7, #8
 243 0132 0832     		adds	r2, r2, #8
 244              	.LVL46:
 245              	.L5:
 246              		.loc 1 196 0
 247 0134 50F8047C 		ldr	r7, [r0, #-4]
 248              		.loc 1 198 0
 249 0138 51F8044C 		ldr	r4, [r1, #-4]
 250              		.loc 1 197 0
 251 013c 51F8086C 		ldr	r6, [r1, #-8]
 252              		.loc 1 195 0
 253 0140 50F8085C 		ldr	r5, [r0, #-8]
 254              	.LVL47:
 255              		.loc 1 201 0
 256 0144 87FB04AB 		smull	r10, fp, r7, r4
 257              		.loc 1 203 0
 258 0148 86FB0789 		smull	r8, r9, r6, r7
 259              		.loc 1 206 0
 260 014c 4FEA6B0E 		asr	lr, fp, #1
 261              		.loc 1 200 0
 262 0150 85FB0667 		smull	r6, r7, r5, r6
 263              	.LVL48:
 264              		.loc 1 208 0
 265 0154 4FEA6906 		asr	r6, r9, #1
 266              		.loc 1 202 0
 267 0158 85FB0445 		smull	r4, r5, r5, r4
 268              	.LVL49:
 269              		.loc 1 210 0
 270 015c CEEB6707 		rsb	r7, lr, r7, asr #1
 271              	.LVL50:
 272              		.loc 1 211 0
 273 0160 06EB6504 		add	r4, r6, r5, asr #1
 274              		.loc 1 191 0
 275 0164 013B     		subs	r3, r3, #1
 276              	.LVL51:
 277              		.loc 1 214 0
 278 0166 42F8087C 		str	r7, [r2, #-8]
 279              	.LVL52:
 280              		.loc 1 216 0
 281 016a 42F8044C 		str	r4, [r2, #-4]
 282 016e 01F10801 		add	r1, r1, #8
 283 0172 00F10800 		add	r0, r0, #8
 284              	.LVL53:
 285 0176 02F10802 		add	r2, r2, #8
ARM GAS  /tmp/ccFDZKQF.s 			page 6


 286              		.loc 1 191 0
 287 017a DBD1     		bne	.L5
 288              	.LVL54:
 289              	.L1:
 290              		.loc 1 322 0
 291 017c 05B0     		add	sp, sp, #20
 292              		.cfi_def_cfa_offset 36
 293              		@ sp needed
 294 017e BDE8F08F 		pop	{r4, r5, r6, r7, r8, r9, r10, fp, pc}
 295              		.cfi_endproc
 296              	.LFE135:
 297              		.size	arm_cmplx_mult_cmplx_q31, .-arm_cmplx_mult_cmplx_q31
 298              	.Letext0:
 299              		.file 2 "/d_drive/axoloti/platform_linux/arm-none-eabi/include/machine/_default_types.h"
 300              		.file 3 "/d_drive/axoloti/platform_linux/arm-none-eabi/include/sys/_stdint.h"
 301              		.file 4 "/d_drive/axoloti/platform_linux/../CMSIS//DSP_Lib/Include/arm_math.h"
 302 0182 00BF     		.section	.debug_info,"",%progbits
 303              	.Ldebug_info0:
 304 0000 C2010000 		.4byte	0x1c2
 305 0004 0400     		.2byte	0x4
 306 0006 00000000 		.4byte	.Ldebug_abbrev0
 307 000a 04       		.byte	0x4
 308 000b 01       		.uleb128 0x1
 309 000c 20000000 		.4byte	.LASF33
 310 0010 01       		.byte	0x1
 311 0011 1F010000 		.4byte	.LASF34
 312 0015 00000000 		.4byte	.Ltext0
 313 0019 82010000 		.4byte	.Letext0-.Ltext0
 314 001d 00000000 		.4byte	.Ldebug_line0
 315 0021 02       		.uleb128 0x2
 316 0022 01       		.byte	0x1
 317 0023 06       		.byte	0x6
 318 0024 94020000 		.4byte	.LASF0
 319 0028 02       		.uleb128 0x2
 320 0029 01       		.byte	0x1
 321 002a 08       		.byte	0x8
 322 002b 8E010000 		.4byte	.LASF1
 323 002f 02       		.uleb128 0x2
 324 0030 02       		.byte	0x2
 325 0031 05       		.byte	0x5
 326 0032 6C020000 		.4byte	.LASF2
 327 0036 02       		.uleb128 0x2
 328 0037 02       		.byte	0x2
 329 0038 07       		.byte	0x7
 330 0039 B5010000 		.4byte	.LASF3
 331 003d 03       		.uleb128 0x3
 332 003e 0C000000 		.4byte	.LASF5
 333 0042 02       		.byte	0x2
 334 0043 3F       		.byte	0x3f
 335 0044 48000000 		.4byte	0x48
 336 0048 02       		.uleb128 0x2
 337 0049 04       		.byte	0x4
 338 004a 05       		.byte	0x5
 339 004b 7F020000 		.4byte	.LASF4
 340 004f 03       		.uleb128 0x3
 341 0050 DE010000 		.4byte	.LASF6
 342 0054 02       		.byte	0x2
ARM GAS  /tmp/ccFDZKQF.s 			page 7


 343 0055 41       		.byte	0x41
 344 0056 5A000000 		.4byte	0x5a
 345 005a 02       		.uleb128 0x2
 346 005b 04       		.byte	0x4
 347 005c 07       		.byte	0x7
 348 005d A3010000 		.4byte	.LASF7
 349 0061 03       		.uleb128 0x3
 350 0062 CD010000 		.4byte	.LASF8
 351 0066 02       		.byte	0x2
 352 0067 59       		.byte	0x59
 353 0068 6C000000 		.4byte	0x6c
 354 006c 02       		.uleb128 0x2
 355 006d 08       		.byte	0x8
 356 006e 05       		.byte	0x5
 357 006f 59020000 		.4byte	.LASF9
 358 0073 02       		.uleb128 0x2
 359 0074 08       		.byte	0x8
 360 0075 07       		.byte	0x7
 361 0076 0A020000 		.4byte	.LASF10
 362 007a 04       		.uleb128 0x4
 363 007b 04       		.byte	0x4
 364 007c 05       		.byte	0x5
 365 007d 696E7400 		.ascii	"int\000"
 366 0081 02       		.uleb128 0x2
 367 0082 04       		.byte	0x4
 368 0083 07       		.byte	0x7
 369 0084 FD010000 		.4byte	.LASF11
 370 0088 03       		.uleb128 0x3
 371 0089 27020000 		.4byte	.LASF12
 372 008d 03       		.byte	0x3
 373 008e 1F       		.byte	0x1f
 374 008f 3D000000 		.4byte	0x3d
 375 0093 03       		.uleb128 0x3
 376 0094 76020000 		.4byte	.LASF13
 377 0098 03       		.byte	0x3
 378 0099 20       		.byte	0x20
 379 009a 4F000000 		.4byte	0x4f
 380 009e 03       		.uleb128 0x3
 381 009f 48020000 		.4byte	.LASF14
 382 00a3 03       		.byte	0x3
 383 00a4 25       		.byte	0x25
 384 00a5 61000000 		.4byte	0x61
 385 00a9 02       		.uleb128 0x2
 386 00aa 04       		.byte	0x4
 387 00ab 07       		.byte	0x7
 388 00ac 50020000 		.4byte	.LASF15
 389 00b0 02       		.uleb128 0x2
 390 00b1 01       		.byte	0x1
 391 00b2 08       		.byte	0x8
 392 00b3 67020000 		.4byte	.LASF16
 393 00b7 02       		.uleb128 0x2
 394 00b8 08       		.byte	0x8
 395 00b9 04       		.byte	0x4
 396 00ba D7010000 		.4byte	.LASF17
 397 00be 02       		.uleb128 0x2
 398 00bf 04       		.byte	0x4
 399 00c0 04       		.byte	0x4
ARM GAS  /tmp/ccFDZKQF.s 			page 8


 400 00c1 19010000 		.4byte	.LASF18
 401 00c5 02       		.uleb128 0x2
 402 00c6 08       		.byte	0x8
 403 00c7 04       		.byte	0x4
 404 00c8 88020000 		.4byte	.LASF19
 405 00cc 05       		.uleb128 0x5
 406 00cd 88010000 		.4byte	.LASF20
 407 00d1 04       		.byte	0x4
 408 00d2 A001     		.2byte	0x1a0
 409 00d4 88000000 		.4byte	0x88
 410 00d8 05       		.uleb128 0x5
 411 00d9 21020000 		.4byte	.LASF21
 412 00dd 04       		.byte	0x4
 413 00de A501     		.2byte	0x1a5
 414 00e0 9E000000 		.4byte	0x9e
 415 00e4 06       		.uleb128 0x6
 416 00e5 04       		.byte	0x4
 417 00e6 CC000000 		.4byte	0xcc
 418 00ea 07       		.uleb128 0x7
 419 00eb 2F020000 		.4byte	.LASF35
 420 00ef 01       		.byte	0x1
 421 00f0 43       		.byte	0x43
 422 00f1 00000000 		.4byte	.LFB135
 423 00f5 82010000 		.4byte	.LFE135-.LFB135
 424 00f9 01       		.uleb128 0x1
 425 00fa 9C       		.byte	0x9c
 426 00fb 08       		.uleb128 0x8
 427 00fc 00000000 		.4byte	.LASF22
 428 0100 01       		.byte	0x1
 429 0101 44       		.byte	0x44
 430 0102 E4000000 		.4byte	0xe4
 431 0106 00000000 		.4byte	.LLST0
 432 010a 08       		.uleb128 0x8
 433 010b 06000000 		.4byte	.LASF23
 434 010f 01       		.byte	0x1
 435 0110 45       		.byte	0x45
 436 0111 E4000000 		.4byte	0xe4
 437 0115 C3000000 		.4byte	.LLST1
 438 0119 08       		.uleb128 0x8
 439 011a C8010000 		.4byte	.LASF24
 440 011e 01       		.byte	0x1
 441 011f 46       		.byte	0x46
 442 0120 E4000000 		.4byte	0xe4
 443 0124 B2010000 		.4byte	.LLST2
 444 0128 08       		.uleb128 0x8
 445 0129 A0020000 		.4byte	.LASF25
 446 012d 01       		.byte	0x1
 447 012e 47       		.byte	0x47
 448 012f 93000000 		.4byte	0x93
 449 0133 98020000 		.4byte	.LLST3
 450 0137 09       		.uleb128 0x9
 451 0138 6100     		.ascii	"a\000"
 452 013a 01       		.byte	0x1
 453 013b 49       		.byte	0x49
 454 013c CC000000 		.4byte	0xcc
 455 0140 B7020000 		.4byte	.LLST4
 456 0144 09       		.uleb128 0x9
ARM GAS  /tmp/ccFDZKQF.s 			page 9


 457 0145 6200     		.ascii	"b\000"
 458 0147 01       		.byte	0x1
 459 0148 49       		.byte	0x49
 460 0149 CC000000 		.4byte	0xcc
 461 014d 26030000 		.4byte	.LLST5
 462 0151 09       		.uleb128 0x9
 463 0152 6300     		.ascii	"c\000"
 464 0154 01       		.byte	0x1
 465 0155 49       		.byte	0x49
 466 0156 CC000000 		.4byte	0xcc
 467 015a A1030000 		.4byte	.LLST6
 468 015e 09       		.uleb128 0x9
 469 015f 6400     		.ascii	"d\000"
 470 0161 01       		.byte	0x1
 471 0162 49       		.byte	0x49
 472 0163 CC000000 		.4byte	0xcc
 473 0167 1C040000 		.4byte	.LLST7
 474 016b 0A       		.uleb128 0xa
 475 016c 9C010000 		.4byte	.LASF26
 476 0170 01       		.byte	0x1
 477 0171 4A       		.byte	0x4a
 478 0172 93000000 		.4byte	0x93
 479 0176 67040000 		.4byte	.LLST8
 480 017a 0A       		.uleb128 0xa
 481 017b E9010000 		.4byte	.LASF27
 482 017f 01       		.byte	0x1
 483 0180 4B       		.byte	0x4b
 484 0181 CC000000 		.4byte	0xcc
 485 0185 C9040000 		.4byte	.LLST9
 486 0189 0B       		.uleb128 0xb
 487 018a EE010000 		.4byte	.LASF29
 488 018e 01       		.byte	0x1
 489 018f 4B       		.byte	0x4b
 490 0190 CC000000 		.4byte	0xcc
 491 0194 0A       		.uleb128 0xa
 492 0195 F3010000 		.4byte	.LASF28
 493 0199 01       		.byte	0x1
 494 019a 4B       		.byte	0x4b
 495 019b CC000000 		.4byte	0xcc
 496 019f 63050000 		.4byte	.LLST10
 497 01a3 0B       		.uleb128 0xb
 498 01a4 F8010000 		.4byte	.LASF30
 499 01a8 01       		.byte	0x1
 500 01a9 4B       		.byte	0x4b
 501 01aa CC000000 		.4byte	0xcc
 502 01ae 0B       		.uleb128 0xb
 503 01af 16000000 		.4byte	.LASF31
 504 01b3 01       		.byte	0x1
 505 01b4 4C       		.byte	0x4c
 506 01b5 CC000000 		.4byte	0xcc
 507 01b9 0B       		.uleb128 0xb
 508 01ba 1B000000 		.4byte	.LASF32
 509 01be 01       		.byte	0x1
 510 01bf 4C       		.byte	0x4c
 511 01c0 CC000000 		.4byte	0xcc
 512 01c4 00       		.byte	0
 513 01c5 00       		.byte	0
ARM GAS  /tmp/ccFDZKQF.s 			page 10


 514              		.section	.debug_abbrev,"",%progbits
 515              	.Ldebug_abbrev0:
 516 0000 01       		.uleb128 0x1
 517 0001 11       		.uleb128 0x11
 518 0002 01       		.byte	0x1
 519 0003 25       		.uleb128 0x25
 520 0004 0E       		.uleb128 0xe
 521 0005 13       		.uleb128 0x13
 522 0006 0B       		.uleb128 0xb
 523 0007 03       		.uleb128 0x3
 524 0008 0E       		.uleb128 0xe
 525 0009 11       		.uleb128 0x11
 526 000a 01       		.uleb128 0x1
 527 000b 12       		.uleb128 0x12
 528 000c 06       		.uleb128 0x6
 529 000d 10       		.uleb128 0x10
 530 000e 17       		.uleb128 0x17
 531 000f 00       		.byte	0
 532 0010 00       		.byte	0
 533 0011 02       		.uleb128 0x2
 534 0012 24       		.uleb128 0x24
 535 0013 00       		.byte	0
 536 0014 0B       		.uleb128 0xb
 537 0015 0B       		.uleb128 0xb
 538 0016 3E       		.uleb128 0x3e
 539 0017 0B       		.uleb128 0xb
 540 0018 03       		.uleb128 0x3
 541 0019 0E       		.uleb128 0xe
 542 001a 00       		.byte	0
 543 001b 00       		.byte	0
 544 001c 03       		.uleb128 0x3
 545 001d 16       		.uleb128 0x16
 546 001e 00       		.byte	0
 547 001f 03       		.uleb128 0x3
 548 0020 0E       		.uleb128 0xe
 549 0021 3A       		.uleb128 0x3a
 550 0022 0B       		.uleb128 0xb
 551 0023 3B       		.uleb128 0x3b
 552 0024 0B       		.uleb128 0xb
 553 0025 49       		.uleb128 0x49
 554 0026 13       		.uleb128 0x13
 555 0027 00       		.byte	0
 556 0028 00       		.byte	0
 557 0029 04       		.uleb128 0x4
 558 002a 24       		.uleb128 0x24
 559 002b 00       		.byte	0
 560 002c 0B       		.uleb128 0xb
 561 002d 0B       		.uleb128 0xb
 562 002e 3E       		.uleb128 0x3e
 563 002f 0B       		.uleb128 0xb
 564 0030 03       		.uleb128 0x3
 565 0031 08       		.uleb128 0x8
 566 0032 00       		.byte	0
 567 0033 00       		.byte	0
 568 0034 05       		.uleb128 0x5
 569 0035 16       		.uleb128 0x16
 570 0036 00       		.byte	0
ARM GAS  /tmp/ccFDZKQF.s 			page 11


 571 0037 03       		.uleb128 0x3
 572 0038 0E       		.uleb128 0xe
 573 0039 3A       		.uleb128 0x3a
 574 003a 0B       		.uleb128 0xb
 575 003b 3B       		.uleb128 0x3b
 576 003c 05       		.uleb128 0x5
 577 003d 49       		.uleb128 0x49
 578 003e 13       		.uleb128 0x13
 579 003f 00       		.byte	0
 580 0040 00       		.byte	0
 581 0041 06       		.uleb128 0x6
 582 0042 0F       		.uleb128 0xf
 583 0043 00       		.byte	0
 584 0044 0B       		.uleb128 0xb
 585 0045 0B       		.uleb128 0xb
 586 0046 49       		.uleb128 0x49
 587 0047 13       		.uleb128 0x13
 588 0048 00       		.byte	0
 589 0049 00       		.byte	0
 590 004a 07       		.uleb128 0x7
 591 004b 2E       		.uleb128 0x2e
 592 004c 01       		.byte	0x1
 593 004d 3F       		.uleb128 0x3f
 594 004e 19       		.uleb128 0x19
 595 004f 03       		.uleb128 0x3
 596 0050 0E       		.uleb128 0xe
 597 0051 3A       		.uleb128 0x3a
 598 0052 0B       		.uleb128 0xb
 599 0053 3B       		.uleb128 0x3b
 600 0054 0B       		.uleb128 0xb
 601 0055 27       		.uleb128 0x27
 602 0056 19       		.uleb128 0x19
 603 0057 11       		.uleb128 0x11
 604 0058 01       		.uleb128 0x1
 605 0059 12       		.uleb128 0x12
 606 005a 06       		.uleb128 0x6
 607 005b 40       		.uleb128 0x40
 608 005c 18       		.uleb128 0x18
 609 005d 9742     		.uleb128 0x2117
 610 005f 19       		.uleb128 0x19
 611 0060 00       		.byte	0
 612 0061 00       		.byte	0
 613 0062 08       		.uleb128 0x8
 614 0063 05       		.uleb128 0x5
 615 0064 00       		.byte	0
 616 0065 03       		.uleb128 0x3
 617 0066 0E       		.uleb128 0xe
 618 0067 3A       		.uleb128 0x3a
 619 0068 0B       		.uleb128 0xb
 620 0069 3B       		.uleb128 0x3b
 621 006a 0B       		.uleb128 0xb
 622 006b 49       		.uleb128 0x49
 623 006c 13       		.uleb128 0x13
 624 006d 02       		.uleb128 0x2
 625 006e 17       		.uleb128 0x17
 626 006f 00       		.byte	0
 627 0070 00       		.byte	0
ARM GAS  /tmp/ccFDZKQF.s 			page 12


 628 0071 09       		.uleb128 0x9
 629 0072 34       		.uleb128 0x34
 630 0073 00       		.byte	0
 631 0074 03       		.uleb128 0x3
 632 0075 08       		.uleb128 0x8
 633 0076 3A       		.uleb128 0x3a
 634 0077 0B       		.uleb128 0xb
 635 0078 3B       		.uleb128 0x3b
 636 0079 0B       		.uleb128 0xb
 637 007a 49       		.uleb128 0x49
 638 007b 13       		.uleb128 0x13
 639 007c 02       		.uleb128 0x2
 640 007d 17       		.uleb128 0x17
 641 007e 00       		.byte	0
 642 007f 00       		.byte	0
 643 0080 0A       		.uleb128 0xa
 644 0081 34       		.uleb128 0x34
 645 0082 00       		.byte	0
 646 0083 03       		.uleb128 0x3
 647 0084 0E       		.uleb128 0xe
 648 0085 3A       		.uleb128 0x3a
 649 0086 0B       		.uleb128 0xb
 650 0087 3B       		.uleb128 0x3b
 651 0088 0B       		.uleb128 0xb
 652 0089 49       		.uleb128 0x49
 653 008a 13       		.uleb128 0x13
 654 008b 02       		.uleb128 0x2
 655 008c 17       		.uleb128 0x17
 656 008d 00       		.byte	0
 657 008e 00       		.byte	0
 658 008f 0B       		.uleb128 0xb
 659 0090 34       		.uleb128 0x34
 660 0091 00       		.byte	0
 661 0092 03       		.uleb128 0x3
 662 0093 0E       		.uleb128 0xe
 663 0094 3A       		.uleb128 0x3a
 664 0095 0B       		.uleb128 0xb
 665 0096 3B       		.uleb128 0x3b
 666 0097 0B       		.uleb128 0xb
 667 0098 49       		.uleb128 0x49
 668 0099 13       		.uleb128 0x13
 669 009a 00       		.byte	0
 670 009b 00       		.byte	0
 671 009c 00       		.byte	0
 672              		.section	.debug_loc,"",%progbits
 673              	.Ldebug_loc0:
 674              	.LLST0:
 675 0000 00000000 		.4byte	.LVL0-.Ltext0
 676 0004 24000000 		.4byte	.LVL6-.Ltext0
 677 0008 0100     		.2byte	0x1
 678 000a 50       		.byte	0x50
 679 000b 24000000 		.4byte	.LVL6-.Ltext0
 680 000f 34000000 		.4byte	.LVL7-.Ltext0
 681 0013 0300     		.2byte	0x3
 682 0015 71       		.byte	0x71
 683 0016 64       		.sleb128 -28
 684 0017 9F       		.byte	0x9f
ARM GAS  /tmp/ccFDZKQF.s 			page 13


 685 0018 34000000 		.4byte	.LVL7-.Ltext0
 686 001c 5C000000 		.4byte	.LVL13-.Ltext0
 687 0020 0300     		.2byte	0x3
 688 0022 71       		.byte	0x71
 689 0023 68       		.sleb128 -24
 690 0024 9F       		.byte	0x9f
 691 0025 5C000000 		.4byte	.LVL13-.Ltext0
 692 0029 6C000000 		.4byte	.LVL15-.Ltext0
 693 002d 0300     		.2byte	0x3
 694 002f 71       		.byte	0x71
 695 0030 6C       		.sleb128 -20
 696 0031 9F       		.byte	0x9f
 697 0032 6C000000 		.4byte	.LVL15-.Ltext0
 698 0036 94000000 		.4byte	.LVL21-.Ltext0
 699 003a 0300     		.2byte	0x3
 700 003c 71       		.byte	0x71
 701 003d 70       		.sleb128 -16
 702 003e 9F       		.byte	0x9f
 703 003f 94000000 		.4byte	.LVL21-.Ltext0
 704 0043 A4000000 		.4byte	.LVL23-.Ltext0
 705 0047 0300     		.2byte	0x3
 706 0049 71       		.byte	0x71
 707 004a 74       		.sleb128 -12
 708 004b 9F       		.byte	0x9f
 709 004c A4000000 		.4byte	.LVL23-.Ltext0
 710 0050 CC000000 		.4byte	.LVL29-.Ltext0
 711 0054 0300     		.2byte	0x3
 712 0056 71       		.byte	0x71
 713 0057 78       		.sleb128 -8
 714 0058 9F       		.byte	0x9f
 715 0059 CC000000 		.4byte	.LVL29-.Ltext0
 716 005d DC000000 		.4byte	.LVL31-.Ltext0
 717 0061 0300     		.2byte	0x3
 718 0063 71       		.byte	0x71
 719 0064 7C       		.sleb128 -4
 720 0065 9F       		.byte	0x9f
 721 0066 DC000000 		.4byte	.LVL31-.Ltext0
 722 006a 0E010000 		.4byte	.LVL38-.Ltext0
 723 006e 0100     		.2byte	0x1
 724 0070 51       		.byte	0x51
 725 0071 0E010000 		.4byte	.LVL38-.Ltext0
 726 0075 22010000 		.4byte	.LVL42-.Ltext0
 727 0079 0300     		.2byte	0x3
 728 007b 71       		.byte	0x71
 729 007c 60       		.sleb128 -32
 730 007d 9F       		.byte	0x9f
 731 007e 22010000 		.4byte	.LVL42-.Ltext0
 732 0082 2E010000 		.4byte	.LVL45-.Ltext0
 733 0086 0100     		.2byte	0x1
 734 0088 50       		.byte	0x50
 735 0089 2E010000 		.4byte	.LVL45-.Ltext0
 736 008d 34010000 		.4byte	.LVL46-.Ltext0
 737 0091 0300     		.2byte	0x3
 738 0093 70       		.byte	0x70
 739 0094 78       		.sleb128 -8
 740 0095 9F       		.byte	0x9f
 741 0096 34010000 		.4byte	.LVL46-.Ltext0
ARM GAS  /tmp/ccFDZKQF.s 			page 14


 742 009a 44010000 		.4byte	.LVL47-.Ltext0
 743 009e 0300     		.2byte	0x3
 744 00a0 70       		.byte	0x70
 745 00a1 7C       		.sleb128 -4
 746 00a2 9F       		.byte	0x9f
 747 00a3 44010000 		.4byte	.LVL47-.Ltext0
 748 00a7 76010000 		.4byte	.LVL53-.Ltext0
 749 00ab 0100     		.2byte	0x1
 750 00ad 50       		.byte	0x50
 751 00ae 76010000 		.4byte	.LVL53-.Ltext0
 752 00b2 7C010000 		.4byte	.LVL54-.Ltext0
 753 00b6 0300     		.2byte	0x3
 754 00b8 70       		.byte	0x70
 755 00b9 78       		.sleb128 -8
 756 00ba 9F       		.byte	0x9f
 757 00bb 00000000 		.4byte	0
 758 00bf 00000000 		.4byte	0
 759              	.LLST1:
 760 00c3 00000000 		.4byte	.LVL0-.Ltext0
 761 00c7 1E000000 		.4byte	.LVL4-.Ltext0
 762 00cb 0100     		.2byte	0x1
 763 00cd 51       		.byte	0x51
 764 00ce 1E000000 		.4byte	.LVL4-.Ltext0
 765 00d2 24000000 		.4byte	.LVL6-.Ltext0
 766 00d6 0100     		.2byte	0x1
 767 00d8 57       		.byte	0x57
 768 00d9 24000000 		.4byte	.LVL6-.Ltext0
 769 00dd 34000000 		.4byte	.LVL7-.Ltext0
 770 00e1 0C00     		.2byte	0xc
 771 00e3 77       		.byte	0x77
 772 00e4 00       		.sleb128 0
 773 00e5 70       		.byte	0x70
 774 00e6 00       		.sleb128 0
 775 00e7 1C       		.byte	0x1c
 776 00e8 71       		.byte	0x71
 777 00e9 00       		.sleb128 0
 778 00ea 22       		.byte	0x22
 779 00eb 08       		.byte	0x8
 780 00ec 20       		.byte	0x20
 781 00ed 1C       		.byte	0x1c
 782 00ee 9F       		.byte	0x9f
 783 00ef 34000000 		.4byte	.LVL7-.Ltext0
 784 00f3 6C000000 		.4byte	.LVL15-.Ltext0
 785 00f7 0B00     		.2byte	0xb
 786 00f9 77       		.byte	0x77
 787 00fa 00       		.sleb128 0
 788 00fb 70       		.byte	0x70
 789 00fc 00       		.sleb128 0
 790 00fd 1C       		.byte	0x1c
 791 00fe 71       		.byte	0x71
 792 00ff 00       		.sleb128 0
 793 0100 22       		.byte	0x22
 794 0101 48       		.byte	0x48
 795 0102 1C       		.byte	0x1c
 796 0103 9F       		.byte	0x9f
 797 0104 6C000000 		.4byte	.LVL15-.Ltext0
 798 0108 A4000000 		.4byte	.LVL23-.Ltext0
ARM GAS  /tmp/ccFDZKQF.s 			page 15


 799 010c 0B00     		.2byte	0xb
 800 010e 77       		.byte	0x77
 801 010f 00       		.sleb128 0
 802 0110 70       		.byte	0x70
 803 0111 00       		.sleb128 0
 804 0112 1C       		.byte	0x1c
 805 0113 71       		.byte	0x71
 806 0114 00       		.sleb128 0
 807 0115 22       		.byte	0x22
 808 0116 40       		.byte	0x40
 809 0117 1C       		.byte	0x1c
 810 0118 9F       		.byte	0x9f
 811 0119 A4000000 		.4byte	.LVL23-.Ltext0
 812 011d DC000000 		.4byte	.LVL31-.Ltext0
 813 0121 0B00     		.2byte	0xb
 814 0123 77       		.byte	0x77
 815 0124 00       		.sleb128 0
 816 0125 70       		.byte	0x70
 817 0126 00       		.sleb128 0
 818 0127 1C       		.byte	0x1c
 819 0128 71       		.byte	0x71
 820 0129 00       		.sleb128 0
 821 012a 22       		.byte	0x22
 822 012b 38       		.byte	0x38
 823 012c 1C       		.byte	0x1c
 824 012d 9F       		.byte	0x9f
 825 012e DC000000 		.4byte	.LVL31-.Ltext0
 826 0132 0E010000 		.4byte	.LVL38-.Ltext0
 827 0136 0900     		.2byte	0x9
 828 0138 77       		.byte	0x77
 829 0139 00       		.sleb128 0
 830 013a 70       		.byte	0x70
 831 013b 00       		.sleb128 0
 832 013c 1C       		.byte	0x1c
 833 013d 71       		.byte	0x71
 834 013e 00       		.sleb128 0
 835 013f 22       		.byte	0x22
 836 0140 9F       		.byte	0x9f
 837 0141 0E010000 		.4byte	.LVL38-.Ltext0
 838 0145 1A010000 		.4byte	.LVL39-.Ltext0
 839 0149 0C00     		.2byte	0xc
 840 014b 77       		.byte	0x77
 841 014c 00       		.sleb128 0
 842 014d 70       		.byte	0x70
 843 014e 00       		.sleb128 0
 844 014f 1C       		.byte	0x1c
 845 0150 71       		.byte	0x71
 846 0151 00       		.sleb128 0
 847 0152 22       		.byte	0x22
 848 0153 08       		.byte	0x8
 849 0154 20       		.byte	0x20
 850 0155 1C       		.byte	0x1c
 851 0156 9F       		.byte	0x9f
 852 0157 1A010000 		.4byte	.LVL39-.Ltext0
 853 015b 1E010000 		.4byte	.LVL40-.Ltext0
 854 015f 0F00     		.2byte	0xf
 855 0161 77       		.byte	0x77
ARM GAS  /tmp/ccFDZKQF.s 			page 16


 856 0162 00       		.sleb128 0
 857 0163 70       		.byte	0x70
 858 0164 00       		.sleb128 0
 859 0165 1C       		.byte	0x1c
 860 0166 71       		.byte	0x71
 861 0167 00       		.sleb128 0
 862 0168 22       		.byte	0x22
 863 0169 73       		.byte	0x73
 864 016a 00       		.sleb128 0
 865 016b 1C       		.byte	0x1c
 866 016c 08       		.byte	0x8
 867 016d 20       		.byte	0x20
 868 016e 1C       		.byte	0x1c
 869 016f 9F       		.byte	0x9f
 870 0170 1E010000 		.4byte	.LVL40-.Ltext0
 871 0174 20010000 		.4byte	.LVL41-.Ltext0
 872 0178 0F00     		.2byte	0xf
 873 017a 77       		.byte	0x77
 874 017b 00       		.sleb128 0
 875 017c 70       		.byte	0x70
 876 017d 00       		.sleb128 0
 877 017e 1C       		.byte	0x1c
 878 017f 71       		.byte	0x71
 879 0180 00       		.sleb128 0
 880 0181 22       		.byte	0x22
 881 0182 73       		.byte	0x73
 882 0183 00       		.sleb128 0
 883 0184 22       		.byte	0x22
 884 0185 08       		.byte	0x8
 885 0186 20       		.byte	0x20
 886 0187 1C       		.byte	0x1c
 887 0188 9F       		.byte	0x9f
 888 0189 20010000 		.4byte	.LVL41-.Ltext0
 889 018d 22010000 		.4byte	.LVL42-.Ltext0
 890 0191 0C00     		.2byte	0xc
 891 0193 77       		.byte	0x77
 892 0194 00       		.sleb128 0
 893 0195 70       		.byte	0x70
 894 0196 00       		.sleb128 0
 895 0197 1C       		.byte	0x1c
 896 0198 71       		.byte	0x71
 897 0199 00       		.sleb128 0
 898 019a 22       		.byte	0x22
 899 019b 08       		.byte	0x8
 900 019c 20       		.byte	0x20
 901 019d 1C       		.byte	0x1c
 902 019e 9F       		.byte	0x9f
 903 019f 22010000 		.4byte	.LVL42-.Ltext0
 904 01a3 34010000 		.4byte	.LVL46-.Ltext0
 905 01a7 0100     		.2byte	0x1
 906 01a9 57       		.byte	0x57
 907 01aa 00000000 		.4byte	0
 908 01ae 00000000 		.4byte	0
 909              	.LLST2:
 910 01b2 00000000 		.4byte	.LVL0-.Ltext0
 911 01b6 22000000 		.4byte	.LVL5-.Ltext0
 912 01ba 0100     		.2byte	0x1
ARM GAS  /tmp/ccFDZKQF.s 			page 17


 913 01bc 52       		.byte	0x52
 914 01bd 22000000 		.4byte	.LVL5-.Ltext0
 915 01c1 24000000 		.4byte	.LVL6-.Ltext0
 916 01c5 0100     		.2byte	0x1
 917 01c7 53       		.byte	0x53
 918 01c8 24000000 		.4byte	.LVL6-.Ltext0
 919 01cc 4C000000 		.4byte	.LVL11-.Ltext0
 920 01d0 0D00     		.2byte	0xd
 921 01d2 91       		.byte	0x91
 922 01d3 4C       		.sleb128 -52
 923 01d4 06       		.byte	0x6
 924 01d5 70       		.byte	0x70
 925 01d6 00       		.sleb128 0
 926 01d7 1C       		.byte	0x1c
 927 01d8 71       		.byte	0x71
 928 01d9 00       		.sleb128 0
 929 01da 22       		.byte	0x22
 930 01db 08       		.byte	0x8
 931 01dc 20       		.byte	0x20
 932 01dd 1C       		.byte	0x1c
 933 01de 9F       		.byte	0x9f
 934 01df 4C000000 		.4byte	.LVL11-.Ltext0
 935 01e3 58000000 		.4byte	.LVL12-.Ltext0
 936 01e7 0C00     		.2byte	0xc
 937 01e9 91       		.byte	0x91
 938 01ea 4C       		.sleb128 -52
 939 01eb 06       		.byte	0x6
 940 01ec 70       		.byte	0x70
 941 01ed 00       		.sleb128 0
 942 01ee 1C       		.byte	0x1c
 943 01ef 71       		.byte	0x71
 944 01f0 00       		.sleb128 0
 945 01f1 22       		.byte	0x22
 946 01f2 4C       		.byte	0x4c
 947 01f3 1C       		.byte	0x1c
 948 01f4 9F       		.byte	0x9f
 949 01f5 58000000 		.4byte	.LVL12-.Ltext0
 950 01f9 84000000 		.4byte	.LVL19-.Ltext0
 951 01fd 0C00     		.2byte	0xc
 952 01ff 91       		.byte	0x91
 953 0200 4C       		.sleb128 -52
 954 0201 06       		.byte	0x6
 955 0202 70       		.byte	0x70
 956 0203 00       		.sleb128 0
 957 0204 1C       		.byte	0x1c
 958 0205 71       		.byte	0x71
 959 0206 00       		.sleb128 0
 960 0207 22       		.byte	0x22
 961 0208 48       		.byte	0x48
 962 0209 1C       		.byte	0x1c
 963 020a 9F       		.byte	0x9f
 964 020b 84000000 		.4byte	.LVL19-.Ltext0
 965 020f 90000000 		.4byte	.LVL20-.Ltext0
 966 0213 0C00     		.2byte	0xc
 967 0215 91       		.byte	0x91
 968 0216 4C       		.sleb128 -52
 969 0217 06       		.byte	0x6
ARM GAS  /tmp/ccFDZKQF.s 			page 18


 970 0218 70       		.byte	0x70
 971 0219 00       		.sleb128 0
 972 021a 1C       		.byte	0x1c
 973 021b 71       		.byte	0x71
 974 021c 00       		.sleb128 0
 975 021d 22       		.byte	0x22
 976 021e 44       		.byte	0x44
 977 021f 1C       		.byte	0x1c
 978 0220 9F       		.byte	0x9f
 979 0221 90000000 		.4byte	.LVL20-.Ltext0
 980 0225 BC000000 		.4byte	.LVL27-.Ltext0
 981 0229 0C00     		.2byte	0xc
 982 022b 91       		.byte	0x91
 983 022c 4C       		.sleb128 -52
 984 022d 06       		.byte	0x6
 985 022e 70       		.byte	0x70
 986 022f 00       		.sleb128 0
 987 0230 1C       		.byte	0x1c
 988 0231 71       		.byte	0x71
 989 0232 00       		.sleb128 0
 990 0233 22       		.byte	0x22
 991 0234 40       		.byte	0x40
 992 0235 1C       		.byte	0x1c
 993 0236 9F       		.byte	0x9f
 994 0237 BC000000 		.4byte	.LVL27-.Ltext0
 995 023b C8000000 		.4byte	.LVL28-.Ltext0
 996 023f 0C00     		.2byte	0xc
 997 0241 91       		.byte	0x91
 998 0242 4C       		.sleb128 -52
 999 0243 06       		.byte	0x6
 1000 0244 70       		.byte	0x70
 1001 0245 00       		.sleb128 0
 1002 0246 1C       		.byte	0x1c
 1003 0247 71       		.byte	0x71
 1004 0248 00       		.sleb128 0
 1005 0249 22       		.byte	0x22
 1006 024a 3C       		.byte	0x3c
 1007 024b 1C       		.byte	0x1c
 1008 024c 9F       		.byte	0x9f
 1009 024d C8000000 		.4byte	.LVL28-.Ltext0
 1010 0251 F4000000 		.4byte	.LVL35-.Ltext0
 1011 0255 0C00     		.2byte	0xc
 1012 0257 91       		.byte	0x91
 1013 0258 4C       		.sleb128 -52
 1014 0259 06       		.byte	0x6
 1015 025a 70       		.byte	0x70
 1016 025b 00       		.sleb128 0
 1017 025c 1C       		.byte	0x1c
 1018 025d 71       		.byte	0x71
 1019 025e 00       		.sleb128 0
 1020 025f 22       		.byte	0x22
 1021 0260 38       		.byte	0x38
 1022 0261 1C       		.byte	0x1c
 1023 0262 9F       		.byte	0x9f
 1024 0263 F4000000 		.4byte	.LVL35-.Ltext0
 1025 0267 02010000 		.4byte	.LVL37-.Ltext0
 1026 026b 0C00     		.2byte	0xc
ARM GAS  /tmp/ccFDZKQF.s 			page 19


 1027 026d 91       		.byte	0x91
 1028 026e 4C       		.sleb128 -52
 1029 026f 06       		.byte	0x6
 1030 0270 70       		.byte	0x70
 1031 0271 00       		.sleb128 0
 1032 0272 1C       		.byte	0x1c
 1033 0273 71       		.byte	0x71
 1034 0274 00       		.sleb128 0
 1035 0275 22       		.byte	0x22
 1036 0276 34       		.byte	0x34
 1037 0277 1C       		.byte	0x1c
 1038 0278 9F       		.byte	0x9f
 1039 0279 22010000 		.4byte	.LVL42-.Ltext0
 1040 027d 2C010000 		.4byte	.LVL44-.Ltext0
 1041 0281 0100     		.2byte	0x1
 1042 0283 52       		.byte	0x52
 1043 0284 2C010000 		.4byte	.LVL44-.Ltext0
 1044 0288 34010000 		.4byte	.LVL46-.Ltext0
 1045 028c 0200     		.2byte	0x2
 1046 028e 91       		.byte	0x91
 1047 028f 4C       		.sleb128 -52
 1048 0290 00000000 		.4byte	0
 1049 0294 00000000 		.4byte	0
 1050              	.LLST3:
 1051 0298 00000000 		.4byte	.LVL0-.Ltext0
 1052 029c 0C000000 		.4byte	.LVL2-.Ltext0
 1053 02a0 0100     		.2byte	0x1
 1054 02a2 53       		.byte	0x53
 1055 02a3 0C000000 		.4byte	.LVL2-.Ltext0
 1056 02a7 82010000 		.4byte	.LFE135-.Ltext0
 1057 02ab 0200     		.2byte	0x2
 1058 02ad 91       		.byte	0x91
 1059 02ae 50       		.sleb128 -48
 1060 02af 00000000 		.4byte	0
 1061 02b3 00000000 		.4byte	0
 1062              	.LLST4:
 1063 02b7 34000000 		.4byte	.LVL7-.Ltext0
 1064 02bb 4C000000 		.4byte	.LVL11-.Ltext0
 1065 02bf 0100     		.2byte	0x1
 1066 02c1 54       		.byte	0x54
 1067 02c2 4C000000 		.4byte	.LVL11-.Ltext0
 1068 02c6 58000000 		.4byte	.LVL12-.Ltext0
 1069 02ca 0200     		.2byte	0x2
 1070 02cc 71       		.byte	0x71
 1071 02cd 60       		.sleb128 -32
 1072 02ce 6C000000 		.4byte	.LVL15-.Ltext0
 1073 02d2 84000000 		.4byte	.LVL19-.Ltext0
 1074 02d6 0100     		.2byte	0x1
 1075 02d8 54       		.byte	0x54
 1076 02d9 84000000 		.4byte	.LVL19-.Ltext0
 1077 02dd 90000000 		.4byte	.LVL20-.Ltext0
 1078 02e1 0200     		.2byte	0x2
 1079 02e3 71       		.byte	0x71
 1080 02e4 68       		.sleb128 -24
 1081 02e5 A4000000 		.4byte	.LVL23-.Ltext0
 1082 02e9 BC000000 		.4byte	.LVL27-.Ltext0
 1083 02ed 0100     		.2byte	0x1
ARM GAS  /tmp/ccFDZKQF.s 			page 20


 1084 02ef 54       		.byte	0x54
 1085 02f0 BC000000 		.4byte	.LVL27-.Ltext0
 1086 02f4 C8000000 		.4byte	.LVL28-.Ltext0
 1087 02f8 0200     		.2byte	0x2
 1088 02fa 71       		.byte	0x71
 1089 02fb 70       		.sleb128 -16
 1090 02fc DC000000 		.4byte	.LVL31-.Ltext0
 1091 0300 F4000000 		.4byte	.LVL35-.Ltext0
 1092 0304 0100     		.2byte	0x1
 1093 0306 54       		.byte	0x54
 1094 0307 F4000000 		.4byte	.LVL35-.Ltext0
 1095 030b 02010000 		.4byte	.LVL37-.Ltext0
 1096 030f 0200     		.2byte	0x2
 1097 0311 71       		.byte	0x71
 1098 0312 78       		.sleb128 -8
 1099 0313 44010000 		.4byte	.LVL47-.Ltext0
 1100 0317 7C010000 		.4byte	.LVL54-.Ltext0
 1101 031b 0100     		.2byte	0x1
 1102 031d 55       		.byte	0x55
 1103 031e 00000000 		.4byte	0
 1104 0322 00000000 		.4byte	0
 1105              	.LLST5:
 1106 0326 34000000 		.4byte	.LVL7-.Ltext0
 1107 032a 3C000000 		.4byte	.LVL8-.Ltext0
 1108 032e 0100     		.2byte	0x1
 1109 0330 5A       		.byte	0x5a
 1110 0331 3C000000 		.4byte	.LVL8-.Ltext0
 1111 0335 58000000 		.4byte	.LVL12-.Ltext0
 1112 0339 0200     		.2byte	0x2
 1113 033b 71       		.byte	0x71
 1114 033c 64       		.sleb128 -28
 1115 033d 6C000000 		.4byte	.LVL15-.Ltext0
 1116 0341 74000000 		.4byte	.LVL16-.Ltext0
 1117 0345 0100     		.2byte	0x1
 1118 0347 5A       		.byte	0x5a
 1119 0348 74000000 		.4byte	.LVL16-.Ltext0
 1120 034c 90000000 		.4byte	.LVL20-.Ltext0
 1121 0350 0200     		.2byte	0x2
 1122 0352 71       		.byte	0x71
 1123 0353 6C       		.sleb128 -20
 1124 0354 A4000000 		.4byte	.LVL23-.Ltext0
 1125 0358 AC000000 		.4byte	.LVL24-.Ltext0
 1126 035c 0100     		.2byte	0x1
 1127 035e 5A       		.byte	0x5a
 1128 035f AC000000 		.4byte	.LVL24-.Ltext0
 1129 0363 C8000000 		.4byte	.LVL28-.Ltext0
 1130 0367 0200     		.2byte	0x2
 1131 0369 71       		.byte	0x71
 1132 036a 74       		.sleb128 -12
 1133 036b DC000000 		.4byte	.LVL31-.Ltext0
 1134 036f E4000000 		.4byte	.LVL32-.Ltext0
 1135 0373 0100     		.2byte	0x1
 1136 0375 5A       		.byte	0x5a
 1137 0376 E4000000 		.4byte	.LVL32-.Ltext0
 1138 037a 02010000 		.4byte	.LVL37-.Ltext0
 1139 037e 0200     		.2byte	0x2
 1140 0380 71       		.byte	0x71
ARM GAS  /tmp/ccFDZKQF.s 			page 21


 1141 0381 7C       		.sleb128 -4
 1142 0382 44010000 		.4byte	.LVL47-.Ltext0
 1143 0386 60010000 		.4byte	.LVL50-.Ltext0
 1144 038a 0100     		.2byte	0x1
 1145 038c 57       		.byte	0x57
 1146 038d 60010000 		.4byte	.LVL50-.Ltext0
 1147 0391 6A010000 		.4byte	.LVL52-.Ltext0
 1148 0395 0200     		.2byte	0x2
 1149 0397 70       		.byte	0x70
 1150 0398 7C       		.sleb128 -4
 1151 0399 00000000 		.4byte	0
 1152 039d 00000000 		.4byte	0
 1153              	.LLST6:
 1154 03a1 34000000 		.4byte	.LVL7-.Ltext0
 1155 03a5 48000000 		.4byte	.LVL10-.Ltext0
 1156 03a9 0100     		.2byte	0x1
 1157 03ab 5C       		.byte	0x5c
 1158 03ac 48000000 		.4byte	.LVL10-.Ltext0
 1159 03b0 58000000 		.4byte	.LVL12-.Ltext0
 1160 03b4 0200     		.2byte	0x2
 1161 03b6 72       		.byte	0x72
 1162 03b7 60       		.sleb128 -32
 1163 03b8 6C000000 		.4byte	.LVL15-.Ltext0
 1164 03bc 80000000 		.4byte	.LVL18-.Ltext0
 1165 03c0 0100     		.2byte	0x1
 1166 03c2 5C       		.byte	0x5c
 1167 03c3 80000000 		.4byte	.LVL18-.Ltext0
 1168 03c7 90000000 		.4byte	.LVL20-.Ltext0
 1169 03cb 0200     		.2byte	0x2
 1170 03cd 72       		.byte	0x72
 1171 03ce 68       		.sleb128 -24
 1172 03cf A4000000 		.4byte	.LVL23-.Ltext0
 1173 03d3 B8000000 		.4byte	.LVL26-.Ltext0
 1174 03d7 0100     		.2byte	0x1
 1175 03d9 5C       		.byte	0x5c
 1176 03da B8000000 		.4byte	.LVL26-.Ltext0
 1177 03de C8000000 		.4byte	.LVL28-.Ltext0
 1178 03e2 0200     		.2byte	0x2
 1179 03e4 72       		.byte	0x72
 1180 03e5 70       		.sleb128 -16
 1181 03e6 DC000000 		.4byte	.LVL31-.Ltext0
 1182 03ea F0000000 		.4byte	.LVL34-.Ltext0
 1183 03ee 0100     		.2byte	0x1
 1184 03f0 5C       		.byte	0x5c
 1185 03f1 F0000000 		.4byte	.LVL34-.Ltext0
 1186 03f5 02010000 		.4byte	.LVL37-.Ltext0
 1187 03f9 0200     		.2byte	0x2
 1188 03fb 72       		.byte	0x72
 1189 03fc 78       		.sleb128 -8
 1190 03fd 44010000 		.4byte	.LVL47-.Ltext0
 1191 0401 54010000 		.4byte	.LVL48-.Ltext0
 1192 0405 0100     		.2byte	0x1
 1193 0407 56       		.byte	0x56
 1194 0408 54010000 		.4byte	.LVL48-.Ltext0
 1195 040c 6A010000 		.4byte	.LVL52-.Ltext0
 1196 0410 0200     		.2byte	0x2
 1197 0412 71       		.byte	0x71
ARM GAS  /tmp/ccFDZKQF.s 			page 22


 1198 0413 78       		.sleb128 -8
 1199 0414 00000000 		.4byte	0
 1200 0418 00000000 		.4byte	0
 1201              	.LLST7:
 1202 041c 34000000 		.4byte	.LVL7-.Ltext0
 1203 0420 68000000 		.4byte	.LVL14-.Ltext0
 1204 0424 0100     		.2byte	0x1
 1205 0426 55       		.byte	0x55
 1206 0427 6C000000 		.4byte	.LVL15-.Ltext0
 1207 042b A0000000 		.4byte	.LVL22-.Ltext0
 1208 042f 0100     		.2byte	0x1
 1209 0431 55       		.byte	0x55
 1210 0432 A4000000 		.4byte	.LVL23-.Ltext0
 1211 0436 D8000000 		.4byte	.LVL30-.Ltext0
 1212 043a 0100     		.2byte	0x1
 1213 043c 55       		.byte	0x55
 1214 043d DC000000 		.4byte	.LVL31-.Ltext0
 1215 0441 22010000 		.4byte	.LVL42-.Ltext0
 1216 0445 0100     		.2byte	0x1
 1217 0447 55       		.byte	0x55
 1218 0448 44010000 		.4byte	.LVL47-.Ltext0
 1219 044c 5C010000 		.4byte	.LVL49-.Ltext0
 1220 0450 0100     		.2byte	0x1
 1221 0452 54       		.byte	0x54
 1222 0453 5C010000 		.4byte	.LVL49-.Ltext0
 1223 0457 6A010000 		.4byte	.LVL52-.Ltext0
 1224 045b 0200     		.2byte	0x2
 1225 045d 71       		.byte	0x71
 1226 045e 7C       		.sleb128 -4
 1227 045f 00000000 		.4byte	0
 1228 0463 00000000 		.4byte	0
 1229              	.LLST8:
 1230 0467 0A000000 		.4byte	.LVL1-.Ltext0
 1231 046b 0C000000 		.4byte	.LVL2-.Ltext0
 1232 046f 0500     		.2byte	0x5
 1233 0471 73       		.byte	0x73
 1234 0472 00       		.sleb128 0
 1235 0473 32       		.byte	0x32
 1236 0474 25       		.byte	0x25
 1237 0475 9F       		.byte	0x9f
 1238 0476 0C000000 		.4byte	.LVL2-.Ltext0
 1239 047a 1A000000 		.4byte	.LVL3-.Ltext0
 1240 047e 0100     		.2byte	0x1
 1241 0480 53       		.byte	0x53
 1242 0481 1A000000 		.4byte	.LVL3-.Ltext0
 1243 0485 FE000000 		.4byte	.LVL36-.Ltext0
 1244 0489 0100     		.2byte	0x1
 1245 048b 56       		.byte	0x56
 1246 048c FE000000 		.4byte	.LVL36-.Ltext0
 1247 0490 02010000 		.4byte	.LVL37-.Ltext0
 1248 0494 0300     		.2byte	0x3
 1249 0496 76       		.byte	0x76
 1250 0497 01       		.sleb128 1
 1251 0498 9F       		.byte	0x9f
 1252 0499 22010000 		.4byte	.LVL42-.Ltext0
 1253 049d 28010000 		.4byte	.LVL43-.Ltext0
 1254 04a1 0600     		.2byte	0x6
ARM GAS  /tmp/ccFDZKQF.s 			page 23


 1255 04a3 91       		.byte	0x91
 1256 04a4 50       		.sleb128 -48
 1257 04a5 06       		.byte	0x6
 1258 04a6 33       		.byte	0x33
 1259 04a7 1A       		.byte	0x1a
 1260 04a8 9F       		.byte	0x9f
 1261 04a9 28010000 		.4byte	.LVL43-.Ltext0
 1262 04ad 66010000 		.4byte	.LVL51-.Ltext0
 1263 04b1 0100     		.2byte	0x1
 1264 04b3 53       		.byte	0x53
 1265 04b4 66010000 		.4byte	.LVL51-.Ltext0
 1266 04b8 6A010000 		.4byte	.LVL52-.Ltext0
 1267 04bc 0300     		.2byte	0x3
 1268 04be 73       		.byte	0x73
 1269 04bf 01       		.sleb128 1
 1270 04c0 9F       		.byte	0x9f
 1271 04c1 00000000 		.4byte	0
 1272 04c5 00000000 		.4byte	0
 1273              	.LLST9:
 1274 04c9 44000000 		.4byte	.LVL9-.Ltext0
 1275 04cd 4C000000 		.4byte	.LVL11-.Ltext0
 1276 04d1 0100     		.2byte	0x1
 1277 04d3 59       		.byte	0x59
 1278 04d4 4C000000 		.4byte	.LVL11-.Ltext0
 1279 04d8 7C000000 		.4byte	.LVL17-.Ltext0
 1280 04dc 0500     		.2byte	0x5
 1281 04de 79       		.byte	0x79
 1282 04df 00       		.sleb128 0
 1283 04e0 31       		.byte	0x31
 1284 04e1 26       		.byte	0x26
 1285 04e2 9F       		.byte	0x9f
 1286 04e3 7C000000 		.4byte	.LVL17-.Ltext0
 1287 04e7 84000000 		.4byte	.LVL19-.Ltext0
 1288 04eb 0100     		.2byte	0x1
 1289 04ed 59       		.byte	0x59
 1290 04ee 84000000 		.4byte	.LVL19-.Ltext0
 1291 04f2 B4000000 		.4byte	.LVL25-.Ltext0
 1292 04f6 0500     		.2byte	0x5
 1293 04f8 79       		.byte	0x79
 1294 04f9 00       		.sleb128 0
 1295 04fa 31       		.byte	0x31
 1296 04fb 26       		.byte	0x26
 1297 04fc 9F       		.byte	0x9f
 1298 04fd B4000000 		.4byte	.LVL25-.Ltext0
 1299 0501 BC000000 		.4byte	.LVL27-.Ltext0
 1300 0505 0100     		.2byte	0x1
 1301 0507 59       		.byte	0x59
 1302 0508 BC000000 		.4byte	.LVL27-.Ltext0
 1303 050c EC000000 		.4byte	.LVL33-.Ltext0
 1304 0510 0500     		.2byte	0x5
 1305 0512 79       		.byte	0x79
 1306 0513 00       		.sleb128 0
 1307 0514 31       		.byte	0x31
 1308 0515 26       		.byte	0x26
 1309 0516 9F       		.byte	0x9f
 1310 0517 EC000000 		.4byte	.LVL33-.Ltext0
 1311 051b F4000000 		.4byte	.LVL35-.Ltext0
ARM GAS  /tmp/ccFDZKQF.s 			page 24


 1312 051f 0100     		.2byte	0x1
 1313 0521 59       		.byte	0x59
 1314 0522 F4000000 		.4byte	.LVL35-.Ltext0
 1315 0526 22010000 		.4byte	.LVL42-.Ltext0
 1316 052a 0500     		.2byte	0x5
 1317 052c 79       		.byte	0x79
 1318 052d 00       		.sleb128 0
 1319 052e 31       		.byte	0x31
 1320 052f 26       		.byte	0x26
 1321 0530 9F       		.byte	0x9f
 1322 0531 54010000 		.4byte	.LVL48-.Ltext0
 1323 0535 5C010000 		.4byte	.LVL49-.Ltext0
 1324 0539 0100     		.2byte	0x1
 1325 053b 57       		.byte	0x57
 1326 053c 5C010000 		.4byte	.LVL49-.Ltext0
 1327 0540 60010000 		.4byte	.LVL50-.Ltext0
 1328 0544 0500     		.2byte	0x5
 1329 0546 77       		.byte	0x77
 1330 0547 00       		.sleb128 0
 1331 0548 31       		.byte	0x31
 1332 0549 26       		.byte	0x26
 1333 054a 9F       		.byte	0x9f
 1334 054b 60010000 		.4byte	.LVL50-.Ltext0
 1335 054f 6A010000 		.4byte	.LVL52-.Ltext0
 1336 0553 0600     		.2byte	0x6
 1337 0555 70       		.byte	0x70
 1338 0556 7C       		.sleb128 -4
 1339 0557 06       		.byte	0x6
 1340 0558 31       		.byte	0x31
 1341 0559 26       		.byte	0x26
 1342 055a 9F       		.byte	0x9f
 1343 055b 00000000 		.4byte	0
 1344 055f 00000000 		.4byte	0
 1345              	.LLST10:
 1346 0563 4C000000 		.4byte	.LVL11-.Ltext0
 1347 0567 68000000 		.4byte	.LVL14-.Ltext0
 1348 056b 0500     		.2byte	0x5
 1349 056d 75       		.byte	0x75
 1350 056e 00       		.sleb128 0
 1351 056f 31       		.byte	0x31
 1352 0570 26       		.byte	0x26
 1353 0571 9F       		.byte	0x9f
 1354 0572 84000000 		.4byte	.LVL19-.Ltext0
 1355 0576 A0000000 		.4byte	.LVL22-.Ltext0
 1356 057a 0500     		.2byte	0x5
 1357 057c 75       		.byte	0x75
 1358 057d 00       		.sleb128 0
 1359 057e 31       		.byte	0x31
 1360 057f 26       		.byte	0x26
 1361 0580 9F       		.byte	0x9f
 1362 0581 BC000000 		.4byte	.LVL27-.Ltext0
 1363 0585 D8000000 		.4byte	.LVL30-.Ltext0
 1364 0589 0500     		.2byte	0x5
 1365 058b 75       		.byte	0x75
 1366 058c 00       		.sleb128 0
 1367 058d 31       		.byte	0x31
 1368 058e 26       		.byte	0x26
ARM GAS  /tmp/ccFDZKQF.s 			page 25


 1369 058f 9F       		.byte	0x9f
 1370 0590 F4000000 		.4byte	.LVL35-.Ltext0
 1371 0594 22010000 		.4byte	.LVL42-.Ltext0
 1372 0598 0500     		.2byte	0x5
 1373 059a 75       		.byte	0x75
 1374 059b 00       		.sleb128 0
 1375 059c 31       		.byte	0x31
 1376 059d 26       		.byte	0x26
 1377 059e 9F       		.byte	0x9f
 1378 059f 5C010000 		.4byte	.LVL49-.Ltext0
 1379 05a3 7C010000 		.4byte	.LVL54-.Ltext0
 1380 05a7 0500     		.2byte	0x5
 1381 05a9 75       		.byte	0x75
 1382 05aa 00       		.sleb128 0
 1383 05ab 31       		.byte	0x31
 1384 05ac 26       		.byte	0x26
 1385 05ad 9F       		.byte	0x9f
 1386 05ae 00000000 		.4byte	0
 1387 05b2 00000000 		.4byte	0
 1388              		.section	.debug_aranges,"",%progbits
 1389 0000 1C000000 		.4byte	0x1c
 1390 0004 0200     		.2byte	0x2
 1391 0006 00000000 		.4byte	.Ldebug_info0
 1392 000a 04       		.byte	0x4
 1393 000b 00       		.byte	0
 1394 000c 0000     		.2byte	0
 1395 000e 0000     		.2byte	0
 1396 0010 00000000 		.4byte	.Ltext0
 1397 0014 82010000 		.4byte	.Letext0-.Ltext0
 1398 0018 00000000 		.4byte	0
 1399 001c 00000000 		.4byte	0
 1400              		.section	.debug_line,"",%progbits
 1401              	.Ldebug_line0:
 1402 0000 FB010000 		.section	.debug_str,"MS",%progbits,1
 1402      02006001 
 1402      00000201 
 1402      FB0E0D00 
 1402      01010101 
 1403              	.LASF22:
 1404 0000 70537263 		.ascii	"pSrcA\000"
 1404      4100
 1405              	.LASF23:
 1406 0006 70537263 		.ascii	"pSrcB\000"
 1406      4200
 1407              	.LASF5:
 1408 000c 5F5F696E 		.ascii	"__int32_t\000"
 1408      7433325F 
 1408      7400
 1409              	.LASF31:
 1410 0016 6F757431 		.ascii	"out1\000"
 1410      00
 1411              	.LASF32:
 1412 001b 6F757432 		.ascii	"out2\000"
 1412      00
 1413              	.LASF33:
 1414 0020 474E5520 		.ascii	"GNU C 4.9.3 20150529 (release) [ARM/embedded-4_9-br"
 1414      4320342E 
ARM GAS  /tmp/ccFDZKQF.s 			page 26


 1414      392E3320 
 1414      32303135 
 1414      30353239 
 1415 0053 616E6368 		.ascii	"anch revision 224288] -mcpu=cortex-m4 -mfloat-abi=h"
 1415      20726576 
 1415      6973696F 
 1415      6E203232 
 1415      34323838 
 1416 0086 61726420 		.ascii	"ard -mfpu=fpv4-sp-d16 -mno-thumb-interwork -mthumb "
 1416      2D6D6670 
 1416      753D6670 
 1416      76342D73 
 1416      702D6431 
 1417 00b9 2D676764 		.ascii	"-ggdb -O2 -fomit-frame-pointer -falign-functions=16"
 1417      62202D4F 
 1417      32202D66 
 1417      6F6D6974 
 1417      2D667261 
 1418 00ec 202D666E 		.ascii	" -fno-math-errno -fsingle-precision-constant\000"
 1418      6F2D6D61 
 1418      74682D65 
 1418      72726E6F 
 1418      202D6673 
 1419              	.LASF18:
 1420 0119 666C6F61 		.ascii	"float\000"
 1420      7400
 1421              	.LASF34:
 1422 011f 2F645F64 		.ascii	"/d_drive/axoloti/platform_linux/../CMSIS//DSP_Lib/S"
 1422      72697665 
 1422      2F61786F 
 1422      6C6F7469 
 1422      2F706C61 
 1423 0152 6F757263 		.ascii	"ource/ComplexMathFunctions/arm_cmplx_mult_cmplx_q31"
 1423      652F436F 
 1423      6D706C65 
 1423      784D6174 
 1423      6846756E 
 1424 0185 2E6300   		.ascii	".c\000"
 1425              	.LASF20:
 1426 0188 7133315F 		.ascii	"q31_t\000"
 1426      7400
 1427              	.LASF1:
 1428 018e 756E7369 		.ascii	"unsigned char\000"
 1428      676E6564 
 1428      20636861 
 1428      7200
 1429              	.LASF26:
 1430 019c 626C6B43 		.ascii	"blkCnt\000"
 1430      6E7400
 1431              	.LASF7:
 1432 01a3 6C6F6E67 		.ascii	"long unsigned int\000"
 1432      20756E73 
 1432      69676E65 
 1432      6420696E 
 1432      7400
 1433              	.LASF3:
 1434 01b5 73686F72 		.ascii	"short unsigned int\000"
ARM GAS  /tmp/ccFDZKQF.s 			page 27


 1434      7420756E 
 1434      7369676E 
 1434      65642069 
 1434      6E7400
 1435              	.LASF24:
 1436 01c8 70447374 		.ascii	"pDst\000"
 1436      00
 1437              	.LASF8:
 1438 01cd 5F5F696E 		.ascii	"__int64_t\000"
 1438      7436345F 
 1438      7400
 1439              	.LASF17:
 1440 01d7 646F7562 		.ascii	"double\000"
 1440      6C6500
 1441              	.LASF6:
 1442 01de 5F5F7569 		.ascii	"__uint32_t\000"
 1442      6E743332 
 1442      5F7400
 1443              	.LASF27:
 1444 01e9 6D756C31 		.ascii	"mul1\000"
 1444      00
 1445              	.LASF29:
 1446 01ee 6D756C32 		.ascii	"mul2\000"
 1446      00
 1447              	.LASF28:
 1448 01f3 6D756C33 		.ascii	"mul3\000"
 1448      00
 1449              	.LASF30:
 1450 01f8 6D756C34 		.ascii	"mul4\000"
 1450      00
 1451              	.LASF11:
 1452 01fd 756E7369 		.ascii	"unsigned int\000"
 1452      676E6564 
 1452      20696E74 
 1452      00
 1453              	.LASF10:
 1454 020a 6C6F6E67 		.ascii	"long long unsigned int\000"
 1454      206C6F6E 
 1454      6720756E 
 1454      7369676E 
 1454      65642069 
 1455              	.LASF21:
 1456 0221 7136335F 		.ascii	"q63_t\000"
 1456      7400
 1457              	.LASF12:
 1458 0227 696E7433 		.ascii	"int32_t\000"
 1458      325F7400 
 1459              	.LASF35:
 1460 022f 61726D5F 		.ascii	"arm_cmplx_mult_cmplx_q31\000"
 1460      636D706C 
 1460      785F6D75 
 1460      6C745F63 
 1460      6D706C78 
 1461              	.LASF14:
 1462 0248 696E7436 		.ascii	"int64_t\000"
 1462      345F7400 
 1463              	.LASF15:
ARM GAS  /tmp/ccFDZKQF.s 			page 28


 1464 0250 73697A65 		.ascii	"sizetype\000"
 1464      74797065 
 1464      00
 1465              	.LASF9:
 1466 0259 6C6F6E67 		.ascii	"long long int\000"
 1466      206C6F6E 
 1466      6720696E 
 1466      7400
 1467              	.LASF16:
 1468 0267 63686172 		.ascii	"char\000"
 1468      00
 1469              	.LASF2:
 1470 026c 73686F72 		.ascii	"short int\000"
 1470      7420696E 
 1470      7400
 1471              	.LASF13:
 1472 0276 75696E74 		.ascii	"uint32_t\000"
 1472      33325F74 
 1472      00
 1473              	.LASF4:
 1474 027f 6C6F6E67 		.ascii	"long int\000"
 1474      20696E74 
 1474      00
 1475              	.LASF19:
 1476 0288 6C6F6E67 		.ascii	"long double\000"
 1476      20646F75 
 1476      626C6500 
 1477              	.LASF0:
 1478 0294 7369676E 		.ascii	"signed char\000"
 1478      65642063 
 1478      68617200 
 1479              	.LASF25:
 1480 02a0 6E756D53 		.ascii	"numSamples\000"
 1480      616D706C 
 1480      657300
 1481              		.ident	"GCC: (GNU Tools for ARM Embedded Processors) 4.9.3 20150529 (release) [ARM/embedded-4_9-br
ARM GAS  /tmp/ccFDZKQF.s 			page 29


DEFINED SYMBOLS
                            *ABS*:00000000 arm_cmplx_mult_cmplx_q31.c
     /tmp/ccFDZKQF.s:20     .text:00000000 $t
     /tmp/ccFDZKQF.s:26     .text:00000000 arm_cmplx_mult_cmplx_q31
                     .debug_frame:00000010 $d

NO UNDEFINED SYMBOLS
