ARM GAS  /tmp/ccDL42q3.s 			page 1


   1              		.syntax unified
   2              		.cpu cortex-m4
   3              		.eabi_attribute 27, 1
   4              		.eabi_attribute 28, 1
   5              		.fpu fpv4-sp-d16
   6              		.eabi_attribute 20, 1
   7              		.eabi_attribute 21, 1
   8              		.eabi_attribute 23, 3
   9              		.eabi_attribute 24, 1
  10              		.eabi_attribute 25, 1
  11              		.eabi_attribute 26, 1
  12              		.eabi_attribute 30, 2
  13              		.eabi_attribute 34, 1
  14              		.eabi_attribute 18, 4
  15              		.thumb
  16              		.file	"arm_rfft_f32.c"
  17              		.text
  18              	.Ltext0:
  19              		.cfi_sections	.debug_frame
  20              		.align	2
  21              		.p2align 4,,15
  22              		.global	arm_split_rfft_f32
  23              		.thumb
  24              		.thumb_func
  25              		.type	arm_split_rfft_f32, %function
  26              	arm_split_rfft_f32:
  27              	.LFB136:
  28              		.file 1 "/home/sbcu/Dropbox/pcb-layouts/axo-on-discovery-board/axoloti/platform_linux/../CMSIS//DS
  29              		.loc 1 176 0
  30              		.cfi_startproc
  31              		@ args = 8, pretend = 0, frame = 0
  32              		@ frame_needed = 0, uses_anonymous_args = 0
  33              	.LVL0:
  34 0000 2DE9F041 		push	{r4, r5, r6, r7, r8, lr}
  35              		.cfi_def_cfa_offset 24
  36              		.cfi_offset 4, -24
  37              		.cfi_offset 5, -20
  38              		.cfi_offset 6, -16
  39              		.cfi_offset 7, -12
  40              		.cfi_offset 8, -8
  41              		.cfi_offset 14, -4
  42              		.loc 1 176 0
  43 0004 079C     		ldr	r4, [sp, #28]
  44 0006 069F     		ldr	r7, [sp, #24]
  45              	.LVL1:
  46              		.loc 1 185 0
  47 0008 4FEAC40E 		lsl	lr, r4, #3
  48              		.loc 1 182 0
  49 000c 4FEAC10C 		lsl	ip, r1, #3
  50              		.loc 1 181 0
  51 0010 0C01     		lsls	r4, r1, #4
  52              	.LVL2:
  53              		.loc 1 190 0
  54 0012 0139     		subs	r1, r1, #1
  55              	.LVL3:
  56              		.loc 1 185 0
  57 0014 7244     		add	r2, r2, lr
ARM GAS  /tmp/ccDL42q3.s 			page 2


  58              	.LVL4:
  59              		.loc 1 186 0
  60 0016 7344     		add	r3, r3, lr
  61              	.LVL5:
  62              		.loc 1 190 0
  63 0018 3CD0     		beq	.L4
  64 001a 0C3C     		subs	r4, r4, #12
  65              	.LVL6:
  66 001c ACF10C05 		sub	r5, ip, #12
  67 0020 3C44     		add	r4, r4, r7
  68              	.LVL7:
  69 0022 0544     		add	r5, r5, r0
  70 0024 00F11008 		add	r8, r0, #16
  71 0028 07F11006 		add	r6, r7, #16
  72              	.LVL8:
  73              	.L3:
  74              		.loc 1 203 0
  75 002c 92ED005A 		flds	s10, [r2]
  76              	.LVL9:
  77              		.loc 1 213 0
  78 0030 58ED017A 		flds	s15, [r8, #-4]
  79              		.loc 1 205 0
  80 0034 D2ED016A 		flds	s13, [r2, #4]
  81              	.LVL10:
  82              		.loc 1 208 0
  83 0038 58ED024A 		flds	s9, [r8, #-8]
  84              	.LVL11:
  85              		.loc 1 213 0
  86 003c 95ED024A 		flds	s8, [r5, #8]
  87              		.loc 1 217 0
  88 0040 D3ED005A 		flds	s11, [r3]
  89              		.loc 1 222 0
  90 0044 95ED016A 		flds	s12, [r5, #4]
  91              		.loc 1 215 0
  92 0048 25EE277A 		fmuls	s14, s10, s15
  93              		.loc 1 213 0
  94 004c 77EE847A 		fadds	s15, s15, s8
  95              		.loc 1 215 0
  96 0050 A6EEA47A 		vfma.f32	s14, s13, s9
  97              		.loc 1 190 0
  98 0054 0139     		subs	r1, r1, #1
  99              	.LVL12:
 100              		.loc 1 237 0
 101 0056 7244     		add	r2, r2, lr
 102              	.LVL13:
 103 0058 66EEE77A 		fnmuls	s15, s13, s15
 104              		.loc 1 220 0
 105 005c A4EE657A 		vfms.f32	s14, s8, s11
 106 0060 08F10808 		add	r8, r8, #8
 107              	.LVL14:
 108              		.loc 1 236 0
 109 0064 7344     		add	r3, r3, lr
 110              	.LVL15:
 111              		.loc 1 213 0
 112 0066 E4EE857A 		vfma.f32	s15, s9, s10
 113              	.LVL16:
 114 006a A5F10805 		sub	r5, r5, #8
ARM GAS  /tmp/ccDL42q3.s 			page 3


 115              	.LVL17:
 116 006e 06F10806 		add	r6, r6, #8
 117              		.loc 1 222 0
 118 0072 A6EE667A 		vfms.f32	s14, s12, s13
 119              	.LVL18:
 120 0076 A4F10804 		sub	r4, r4, #8
 121              		.loc 1 225 0
 122 007a E5EE867A 		vfma.f32	s15, s11, s12
 123              	.LVL19:
 124              		.loc 1 232 0
 125 007e F1EE476A 		fnegs	s13, s14
 126              	.LVL20:
 127              		.loc 1 229 0
 128 0082 06ED037A 		fsts	s14, [r6, #-12]
 129              		.loc 1 228 0
 130 0086 46ED047A 		fsts	s15, [r6, #-16]
 131              	.LVL21:
 132              		.loc 1 232 0
 133 008a C4ED046A 		fsts	s13, [r4, #16]
 134              	.LVL22:
 135              		.loc 1 233 0
 136 008e C4ED037A 		fsts	s15, [r4, #12]
 137              		.loc 1 190 0
 138 0092 CBD1     		bne	.L3
 139              	.LVL23:
 140              	.L4:
 141              		.loc 1 243 0
 142 0094 90ED017A 		flds	s14, [r0, #4]
 143 0098 D0ED007A 		flds	s15, [r0]
 144 009c BC44     		add	ip, ip, r7
 145 009e 77EEC77A 		fsubs	s15, s15, s14
 146              		.loc 1 244 0
 147 00a2 0023     		movs	r3, #0
 148              	.LVL24:
 149              		.loc 1 243 0
 150 00a4 CCED007A 		fsts	s15, [ip]
 151              		.loc 1 244 0
 152 00a8 CCF80430 		str	r3, [ip, #4]	@ float
 153              		.loc 1 246 0
 154 00ac D0ED007A 		flds	s15, [r0]
 155 00b0 90ED017A 		flds	s14, [r0, #4]
 156              		.loc 1 247 0
 157 00b4 7B60     		str	r3, [r7, #4]	@ float
 158              		.loc 1 246 0
 159 00b6 77EE877A 		fadds	s15, s15, s14
 160 00ba C7ED007A 		fsts	s15, [r7]
 161 00be BDE8F081 		pop	{r4, r5, r6, r7, r8, pc}
 162              		.cfi_endproc
 163              	.LFE136:
 164              		.size	arm_split_rfft_f32, .-arm_split_rfft_f32
 165 00c2 00BF     		.align	2
 166 00c4 AFF30080 		.p2align 4,,15
 166      AFF30080 
 166      AFF30080 
 167              		.global	arm_split_rifft_f32
 168              		.thumb
 169              		.thumb_func
ARM GAS  /tmp/ccDL42q3.s 			page 4


 170              		.type	arm_split_rifft_f32, %function
 171              	arm_split_rifft_f32:
 172              	.LFB137:
 173              		.loc 1 270 0
 174              		.cfi_startproc
 175              		@ args = 8, pretend = 0, frame = 0
 176              		@ frame_needed = 0, uses_anonymous_args = 0
 177              		@ link register save eliminated.
 178              	.LVL25:
 179 00d0 70B4     		push	{r4, r5, r6}
 180              		.cfi_def_cfa_offset 12
 181              		.cfi_offset 4, -12
 182              		.cfi_offset 5, -8
 183              		.cfi_offset 6, -4
 184              	.LVL26:
 185              		.loc 1 274 0
 186 00d2 CC00     		lsls	r4, r1, #3
 187              	.LVL27:
 188              		.loc 1 279 0
 189 00d4 91B3     		cbz	r1, .L9
 190 00d6 049D     		ldr	r5, [sp, #16]
 191 00d8 EE00     		lsls	r6, r5, #3
 192 00da 039D     		ldr	r5, [sp, #12]
 193 00dc 043C     		subs	r4, r4, #4
 194              	.LVL28:
 195 00de 0444     		add	r4, r4, r0
 196              	.LVL29:
 197 00e0 0835     		adds	r5, r5, #8
 198 00e2 0830     		adds	r0, r0, #8
 199              	.LVL30:
 200              	.L11:
 201              		.loc 1 292 0
 202 00e4 92ED005A 		flds	s10, [r2]
 203              	.LVL31:
 204              		.loc 1 302 0
 205 00e8 50ED017A 		flds	s15, [r0, #-4]
 206              		.loc 1 293 0
 207 00ec D2ED016A 		flds	s13, [r2, #4]
 208              	.LVL32:
 209              		.loc 1 302 0
 210 00f0 94ED024A 		flds	s8, [r4, #8]
 211              		.loc 1 296 0
 212 00f4 50ED024A 		flds	s9, [r0, #-8]
 213              	.LVL33:
 214              		.loc 1 307 0
 215 00f8 93ED006A 		flds	s12, [r3]
 216              		.loc 1 313 0
 217 00fc D4ED015A 		flds	s11, [r4, #4]
 218              		.loc 1 305 0
 219 0100 25EE277A 		fmuls	s14, s10, s15
 220              		.loc 1 302 0
 221 0104 77EE847A 		fadds	s15, s15, s8
 222              		.loc 1 305 0
 223 0108 A4EEE67A 		vfms.f32	s14, s9, s13
 224              		.loc 1 279 0
 225 010c 0139     		subs	r1, r1, #1
 226              	.LVL34:
ARM GAS  /tmp/ccDL42q3.s 			page 5


 227              		.loc 1 324 0
 228 010e 3244     		add	r2, r2, r6
 229              	.LVL35:
 230              		.loc 1 302 0
 231 0110 67EEA67A 		fmuls	s15, s15, s13
 232              		.loc 1 310 0
 233 0114 A4EE467A 		vfms.f32	s14, s8, s12
 234 0118 00F10800 		add	r0, r0, #8
 235              	.LVL36:
 236              		.loc 1 323 0
 237 011c 3344     		add	r3, r3, r6
 238              	.LVL37:
 239              		.loc 1 302 0
 240 011e E4EE857A 		vfma.f32	s15, s9, s10
 241              	.LVL38:
 242 0122 A4F10804 		sub	r4, r4, #8
 243 0126 05F10805 		add	r5, r5, #8
 244              		.loc 1 316 0
 245 012a A6EEA57A 		vfma.f32	s14, s13, s11
 246              	.LVL39:
 247              		.loc 1 313 0
 248 012e E5EE867A 		vfma.f32	s15, s11, s12
 249              	.LVL40:
 250              		.loc 1 320 0
 251 0132 05ED037A 		fsts	s14, [r5, #-12]
 252              		.loc 1 319 0
 253 0136 45ED047A 		fsts	s15, [r5, #-16]
 254              	.LVL41:
 255              		.loc 1 279 0
 256 013a D3D1     		bne	.L11
 257              	.LVL42:
 258              	.L9:
 259              		.loc 1 330 0
 260 013c 70BC     		pop	{r4, r5, r6}
 261              		.cfi_restore 6
 262              		.cfi_restore 5
 263              		.cfi_restore 4
 264              		.cfi_def_cfa_offset 0
 265              	.LVL43:
 266 013e 7047     		bx	lr
 267              		.cfi_endproc
 268              	.LFE137:
 269              		.size	arm_split_rifft_f32, .-arm_split_rifft_f32
 270              		.align	2
 271              		.p2align 4,,15
 272              		.global	arm_rfft_f32
 273              		.thumb
 274              		.thumb_func
 275              		.type	arm_rfft_f32, %function
 276              	arm_rfft_f32:
 277              	.LFB135:
 278              		.loc 1 105 0
 279              		.cfi_startproc
 280              		@ args = 0, pretend = 0, frame = 0
 281              		@ frame_needed = 0, uses_anonymous_args = 0
 282              	.LVL44:
 283 0140 F0B5     		push	{r4, r5, r6, r7, lr}
ARM GAS  /tmp/ccDL42q3.s 			page 6


 284              		.cfi_def_cfa_offset 20
 285              		.cfi_offset 4, -20
 286              		.cfi_offset 5, -16
 287              		.cfi_offset 6, -12
 288              		.cfi_offset 7, -8
 289              		.cfi_offset 14, -4
 290              		.loc 1 110 0
 291 0142 8379     		ldrb	r3, [r0, #6]	@ zero_extendqisi2
 292              		.loc 1 106 0
 293 0144 4569     		ldr	r5, [r0, #20]
 294              	.LVL45:
 295              		.loc 1 110 0
 296 0146 012B     		cmp	r3, #1
 297              		.loc 1 105 0
 298 0148 83B0     		sub	sp, sp, #12
 299              		.cfi_def_cfa_offset 32
 300              		.loc 1 105 0
 301 014a 0446     		mov	r4, r0
 302 014c 0E46     		mov	r6, r1
 303 014e 1746     		mov	r7, r2
 304              		.loc 1 110 0
 305 0150 13D0     		beq	.L20
 306              		.loc 1 136 0
 307 0152 0846     		mov	r0, r1
 308              	.LVL46:
 309 0154 AB89     		ldrh	r3, [r5, #12]
 310 0156 2988     		ldrh	r1, [r5]
 311              	.LVL47:
 312 0158 6A68     		ldr	r2, [r5, #4]
 313              	.LVL48:
 314 015a FFF7FEFF 		bl	arm_radix4_butterfly_f32
 315              	.LVL49:
 316              		.loc 1 140 0
 317 015e E379     		ldrb	r3, [r4, #7]	@ zero_extendqisi2
 318 0160 012B     		cmp	r3, #1
 319 0162 26D0     		beq	.L21
 320              	.L18:
 321              		.loc 1 148 0
 322 0164 A188     		ldrh	r1, [r4, #4]
 323 0166 E268     		ldr	r2, [r4, #12]
 324 0168 2369     		ldr	r3, [r4, #16]
 325 016a A468     		ldr	r4, [r4, #8]
 326              	.LVL50:
 327 016c 0194     		str	r4, [sp, #4]
 328 016e 0097     		str	r7, [sp]
 329 0170 3046     		mov	r0, r6
 330 0172 FFF7FEFF 		bl	arm_split_rfft_f32
 331              	.LVL51:
 332              	.L15:
 333              		.loc 1 152 0
 334 0176 03B0     		add	sp, sp, #12
 335              		.cfi_remember_state
 336              		.cfi_def_cfa_offset 20
 337              		@ sp needed
 338 0178 F0BD     		pop	{r4, r5, r6, r7, pc}
 339              	.LVL52:
 340              	.L20:
ARM GAS  /tmp/ccDL42q3.s 			page 7


 341              		.cfi_restore_state
 342              		.loc 1 113 0
 343 017a 8188     		ldrh	r1, [r0, #4]
 344              	.LVL53:
 345 017c 0830     		adds	r0, r0, #8
 346              	.LVL54:
 347 017e 0DC8     		ldmia	r0, {r0, r2, r3}
 348              	.LVL55:
 349 0180 0097     		str	r7, [sp]
 350 0182 0190     		str	r0, [sp, #4]
 351 0184 3046     		mov	r0, r6
 352 0186 FFF7FEFF 		bl	arm_split_rifft_f32
 353              	.LVL56:
 354              		.loc 1 118 0
 355 018a AB89     		ldrh	r3, [r5, #12]
 356 018c 2988     		ldrh	r1, [r5]
 357 018e 6A68     		ldr	r2, [r5, #4]
 358 0190 95ED040A 		flds	s0, [r5, #16]
 359 0194 3846     		mov	r0, r7
 360 0196 FFF7FEFF 		bl	arm_radix4_butterfly_inverse_f32
 361              	.LVL57:
 362              		.loc 1 124 0
 363 019a E379     		ldrb	r3, [r4, #7]	@ zero_extendqisi2
 364 019c 012B     		cmp	r3, #1
 365 019e EAD1     		bne	.L15
 366              		.loc 1 126 0
 367 01a0 2988     		ldrh	r1, [r5]
 368 01a2 EA89     		ldrh	r2, [r5, #14]
 369 01a4 AB68     		ldr	r3, [r5, #8]
 370 01a6 3846     		mov	r0, r7
 371              		.loc 1 152 0
 372 01a8 03B0     		add	sp, sp, #12
 373              		.cfi_remember_state
 374              		.cfi_def_cfa_offset 20
 375              		@ sp needed
 376 01aa BDE8F040 		pop	{r4, r5, r6, r7, lr}
 377              		.cfi_restore 14
 378              		.cfi_restore 7
 379              		.cfi_restore 6
 380              		.cfi_restore 5
 381              		.cfi_restore 4
 382              		.cfi_def_cfa_offset 0
 383              	.LVL58:
 384              		.loc 1 126 0
 385 01ae FFF7FEBF 		b	arm_bitreversal_f32
 386              	.LVL59:
 387              	.L21:
 388              		.cfi_restore_state
 389              		.loc 1 142 0
 390 01b2 3046     		mov	r0, r6
 391 01b4 2988     		ldrh	r1, [r5]
 392 01b6 EA89     		ldrh	r2, [r5, #14]
 393 01b8 AB68     		ldr	r3, [r5, #8]
 394 01ba FFF7FEFF 		bl	arm_bitreversal_f32
 395              	.LVL60:
 396 01be D1E7     		b	.L18
 397              		.cfi_endproc
ARM GAS  /tmp/ccDL42q3.s 			page 8


 398              	.LFE135:
 399              		.size	arm_rfft_f32, .-arm_rfft_f32
 400              	.Letext0:
 401              		.file 2 "/home/sbcu/Dropbox/pcb-layouts/axo-on-discovery-board/axoloti/platform_linux/arm-none-eab
 402              		.file 3 "/home/sbcu/Dropbox/pcb-layouts/axo-on-discovery-board/axoloti/platform_linux/arm-none-eab
 403              		.file 4 "/home/sbcu/Dropbox/pcb-layouts/axo-on-discovery-board/axoloti/platform_linux/../CMSIS//DS