ARM GAS  /tmp/ccepXrsb.s 			page 1


   1              		.syntax unified
   2              		.cpu cortex-m4
   3              		.eabi_attribute 27, 1
   4              		.eabi_attribute 28, 1
   5              		.fpu fpv4-sp-d16
   6              		.eabi_attribute 20, 1
   7              		.eabi_attribute 21, 1
   8              		.eabi_attribute 23, 3
   9              		.eabi_attribute 24, 1
  10              		.eabi_attribute 25, 1
  11              		.eabi_attribute 26, 1
  12              		.eabi_attribute 30, 2
  13              		.eabi_attribute 34, 1
  14              		.eabi_attribute 18, 4
  15              		.thumb
  16              		.file	"axoloti_math.c"
  17              		.text
  18              	.Ltext0:
  19              		.cfi_sections	.debug_frame
  20              		.global	__aeabi_f2d
  21              		.global	__aeabi_dmul
  22              		.global	__aeabi_ddiv
  23              		.global	__aeabi_dcmpgt
  24              		.global	__aeabi_d2uiz
  25              		.global	__aeabi_ui2d
  26              		.global	__aeabi_dadd
  27              		.align	2
  28              		.p2align 4,,15
  29              		.global	axoloti_math_init
  30              		.thumb
  31              		.thumb_func
  32              		.type	axoloti_math_init, %function
  33              	axoloti_math_init:
  34              	.LFB179:
  35              		.file 1 "axoloti_math.c"
  36              		.loc 1 30 0
  37              		.cfi_startproc
  38              		@ args = 0, pretend = 0, frame = 16
  39              		@ frame_needed = 0, uses_anonymous_args = 0
  40              	.LVL0:
  41 0000 F0B5     		push	{r4, r5, r6, r7, lr}
  42              		.cfi_def_cfa_offset 20
  43              		.cfi_offset 4, -20
  44              		.cfi_offset 5, -16
  45              		.cfi_offset 6, -12
  46              		.cfi_offset 7, -8
  47              		.cfi_offset 14, -4
  48 0002 2DED048B 		fstmfdd	sp!, {d8, d9}
  49              		.cfi_def_cfa_offset 36
  50              		.cfi_offset 80, -36
  51              		.cfi_offset 81, -32
  52              		.cfi_offset 82, -28
  53              		.cfi_offset 83, -24
  54 0006 85B0     		sub	sp, sp, #20
  55              		.cfi_def_cfa_offset 56
  56              		.loc 1 34 0
  57 0008 0023     		movs	r3, #0
ARM GAS  /tmp/ccepXrsb.s 			page 2


  58 000a 0293     		str	r3, [sp, #8]
  59 000c 029B     		ldr	r3, [sp, #8]
  60 000e B3F5806F 		cmp	r3, #1024
  61 0012 11D8     		bhi	.L5
  62 0014 944C     		ldr	r4, .L34+24
  63              	.LVL1:
  64              	.L2:
  65              	.LBB2:
  66              		.loc 1 39 0 discriminator 3
  67 0016 0298     		ldr	r0, [sp, #8]
  68 0018 4005     		lsls	r0, r0, #21
  69 001a FFF7FEFF 		bl	arm_sin_q31
  70              	.LVL2:
  71 001e 0390     		str	r0, [sp, #12]
  72              		.loc 1 40 0 discriminator 3
  73 0020 039B     		ldr	r3, [sp, #12]
  74 0022 1B0C     		lsrs	r3, r3, #16
  75 0024 2380     		strh	r3, [r4]	@ movhi
  76              	.LBE2:
  77              		.loc 1 34 0 discriminator 3
  78 0026 029B     		ldr	r3, [sp, #8]
  79 0028 0133     		adds	r3, r3, #1
  80 002a 0293     		str	r3, [sp, #8]
  81 002c 029B     		ldr	r3, [sp, #8]
  82 002e B3F5806F 		cmp	r3, #1024
  83              	.LBB3:
  84              		.loc 1 40 0 discriminator 3
  85 0032 04F10204 		add	r4, r4, #2
  86              	.LVL3:
  87              	.LBE3:
  88              		.loc 1 34 0 discriminator 3
  89 0036 EED9     		bls	.L2
  90              	.LVL4:
  91              	.L5:
  92              		.loc 1 44 0
  93 0038 0023     		movs	r3, #0
  94 003a 0293     		str	r3, [sp, #8]
  95 003c 029B     		ldr	r3, [sp, #8]
  96 003e B3F5805F 		cmp	r3, #4096
  97 0042 1FD8     		bhi	.L4
  98 0044 894C     		ldr	r4, .L34+28
  99              	.LBB4:
 100              		.loc 1 45 0
 101 0046 9FED8A9A 		flds	s18, .L34+32
 102 004a DFED8A8A 		flds	s17, .L34+36
 103              		.loc 1 46 0
 104 004e 9FED8A8A 		flds	s16, .L34+40
 105              	.LVL5:
 106              	.L3:
 107              		.loc 1 45 0 discriminator 3
 108 0052 029B     		ldr	r3, [sp, #8]
 109              	.LVL6:
 110 0054 5B00     		lsls	r3, r3, #1
 111              	.LVL7:
 112 0056 00EE103A 		fmsr	s0, r3	@ int
 113 005a B8EE400A 		fuitos	s0, s0
 114 005e 20EE090A 		fmuls	s0, s0, s18
ARM GAS  /tmp/ccepXrsb.s 			page 3


 115              		.loc 1 46 0 discriminator 3
 116 0062 20EE280A 		fmuls	s0, s0, s17
 117 0066 FFF7FEFF 		bl	sinf
 118              	.LVL8:
 119              	.LBE4:
 120              		.loc 1 44 0 discriminator 3
 121 006a 029B     		ldr	r3, [sp, #8]
 122 006c 0133     		adds	r3, r3, #1
 123              	.LBB5:
 124              		.loc 1 46 0 discriminator 3
 125 006e 20EE080A 		fmuls	s0, s0, s16
 126              	.LBE5:
 127              		.loc 1 44 0 discriminator 3
 128 0072 0293     		str	r3, [sp, #8]
 129 0074 029B     		ldr	r3, [sp, #8]
 130              	.LBB6:
 131              		.loc 1 46 0 discriminator 3
 132 0076 BDEEC00A 		ftosizs	s0, s0
 133              	.LBE6:
 134              		.loc 1 44 0 discriminator 3
 135 007a B3F5805F 		cmp	r3, #4096
 136              	.LBB7:
 137              		.loc 1 46 0 discriminator 3
 138 007e A4EC010A 		fstmias	r4!, {s0}	@ int
 139              	.LVL9:
 140              	.LBE7:
 141              		.loc 1 44 0 discriminator 3
 142 0082 E6D9     		bls	.L3
 143              	.LVL10:
 144              	.L4:
 145              		.loc 1 50 0
 146 0084 0023     		movs	r3, #0
 147 0086 0293     		str	r3, [sp, #8]
 148 0088 029B     		ldr	r3, [sp, #8]
 149 008a B3F5806F 		cmp	r3, #1024
 150 008e 2AD8     		bhi	.L7
 151 0090 7A4C     		ldr	r4, .L34+44
 152              	.LBB8:
 153              		.loc 1 51 0
 154 0092 DFED779A 		flds	s19, .L34+32
 155 0096 9FED7A9A 		flds	s18, .L34+48
 156              		.loc 1 52 0
 157 009a DFED7A8A 		flds	s17, .L34+52
 158 009e B6EE008A 		fconsts	s16, #96
 159              	.LVL11:
 160              	.L6:
 161              		.loc 1 51 0 discriminator 3
 162 00a2 029B     		ldr	r3, [sp, #8]
 163              	.LVL12:
 164 00a4 5B00     		lsls	r3, r3, #1
 165              	.LVL13:
 166 00a6 00EE103A 		fmsr	s0, r3	@ int
 167 00aa B8EE400A 		fuitos	s0, s0
 168              		.loc 1 52 0 discriminator 3
 169 00ae A51C     		adds	r5, r4, #2
 170              	.LVL14:
 171              		.loc 1 51 0 discriminator 3
ARM GAS  /tmp/ccepXrsb.s 			page 4


 172 00b0 20EE290A 		fmuls	s0, s0, s19
 173              		.loc 1 52 0 discriminator 3
 174 00b4 20EE090A 		fmuls	s0, s0, s18
 175 00b8 FFF7FEFF 		bl	cosf
 176              	.LVL15:
 177 00bc F0EE487A 		fcpys	s15, s16
 178 00c0 E0EE487A 		vfms.f32	s15, s0, s16
 179 00c4 67EEA87A 		fmuls	s15, s15, s17
 180 00c8 FDEEE77A 		ftosizs	s15, s15
 181 00cc CDED017A 		fsts	s15, [sp, #4]	@ int
 182 00d0 BDF80430 		ldrh	r3, [sp, #4]
 183 00d4 2380     		strh	r3, [r4]	@ movhi
 184              	.LBE8:
 185              		.loc 1 50 0 discriminator 3
 186 00d6 029B     		ldr	r3, [sp, #8]
 187 00d8 0133     		adds	r3, r3, #1
 188 00da 0293     		str	r3, [sp, #8]
 189 00dc 029B     		ldr	r3, [sp, #8]
 190 00de B3F5806F 		cmp	r3, #1024
 191              	.LBB9:
 192              		.loc 1 52 0 discriminator 3
 193 00e2 2C46     		mov	r4, r5
 194              	.LBE9:
 195              		.loc 1 50 0 discriminator 3
 196 00e4 DDD9     		bls	.L6
 197              	.LVL16:
 198              	.L7:
 199              		.loc 1 57 0
 200 00e6 0023     		movs	r3, #0
 201 00e8 0293     		str	r3, [sp, #8]
 202 00ea 029B     		ldr	r3, [sp, #8]
 203 00ec B3F5807F 		cmp	r3, #256
 204 00f0 3ED8     		bhi	.L9
 205 00f2 654C     		ldr	r4, .L34+56
 206              	.LBB10:
 207              		.loc 1 58 0
 208 00f4 DFED659A 		flds	s19, .L34+60
 209 00f8 9FED659A 		flds	s18, .L34+64
 210 00fc DFED658A 		flds	s17, .L34+68
 211 0100 B2EE088A 		fconsts	s16, #40
 212 0104 0CE0     		b	.L8
 213              	.LVL17:
 214              	.L33:
 215 0106 3046     		mov	r0, r6
 216 0108 3946     		mov	r1, r7
 217 010a FFF7FEFF 		bl	__aeabi_d2uiz
 218              	.LVL18:
 219              	.L12:
 220              	.LBE10:
 221              		.loc 1 57 0 discriminator 2
 222 010e 029B     		ldr	r3, [sp, #8]
 223              	.LBB11:
 224              		.loc 1 62 0 discriminator 2
 225 0110 44F8040B 		str	r0, [r4], #4
 226              	.LVL19:
 227              	.LBE11:
 228              		.loc 1 57 0 discriminator 2
ARM GAS  /tmp/ccepXrsb.s 			page 5


 229 0114 0133     		adds	r3, r3, #1
 230 0116 0293     		str	r3, [sp, #8]
 231              	.LVL20:
 232 0118 029B     		ldr	r3, [sp, #8]
 233 011a B3F5807F 		cmp	r3, #256
 234 011e 27D8     		bhi	.L9
 235              	.LVL21:
 236              	.L8:
 237              	.LBB12:
 238              		.loc 1 58 0
 239 0120 DDED020A 		flds	s1, [sp, #8]	@ int
 240 0124 F8EE600A 		fuitos	s1, s1
 241 0128 B0EE000A 		fconsts	s0, #0
 242 012c 70EEE90A 		fsubs	s1, s1, s19
 243 0130 70EEC90A 		fsubs	s1, s1, s18
 244 0134 C0EE880A 		fdivs	s1, s1, s16
 245 0138 FFF7FEFF 		bl	powf
 246              	.LVL22:
 247 013c 60EE287A 		fmuls	s15, s0, s17
 248 0140 17EE900A 		fmrs	r0, s15
 249 0144 FFF7FEFF 		bl	__aeabi_f2d
 250              	.LVL23:
 251              		.loc 1 59 0
 252 0148 0022     		movs	r2, #0
 253 014a 534B     		ldr	r3, .L34+72
 254 014c FFF7FEFF 		bl	__aeabi_dmul
 255              	.LVL24:
 256 0150 3FA3     		adr	r3, .L34
 257 0152 D3E90023 		ldrd	r2, [r3]
 258 0156 FFF7FEFF 		bl	__aeabi_ddiv
 259              	.LVL25:
 260              		.loc 1 60 0
 261 015a 0022     		movs	r2, #0
 262 015c 4F4B     		ldr	r3, .L34+76
 263              		.loc 1 59 0
 264 015e 0646     		mov	r6, r0
 265 0160 0F46     		mov	r7, r1
 266              	.LVL26:
 267              		.loc 1 60 0
 268 0162 FFF7FEFF 		bl	__aeabi_dcmpgt
 269              	.LVL27:
 270 0166 0028     		cmp	r0, #0
 271 0168 CDD0     		beq	.L33
 272 016a 6FF00040 		mvn	r0, #-2147483648
 273 016e CEE7     		b	.L12
 274              	.LVL28:
 275              	.L9:
 276              	.LBE12:
 277              		.loc 1 67 0
 278 0170 0023     		movs	r3, #0
 279 0172 0293     		str	r3, [sp, #8]
 280 0174 029B     		ldr	r3, [sp, #8]
 281 0176 FF2B     		cmp	r3, #255
 282 0178 22D8     		bhi	.L11
 283 017a 494C     		ldr	r4, .L34+80
 284              	.LBB13:
 285              		.loc 1 68 0
ARM GAS  /tmp/ccepXrsb.s 			page 6


 286 017c 9FED498A 		flds	s16, .L34+84
 287              	.LVL29:
 288              	.L10:
 289              		.loc 1 68 0 is_stmt 0 discriminator 3
 290 0180 DDED027A 		flds	s15, [sp, #8]	@ int
 291 0184 F8EE677A 		fuitos	s15, s15
 292 0188 67EE887A 		fmuls	s15, s15, s16
 293 018c 17EE900A 		fmrs	r0, s15
 294 0190 FFF7FEFF 		bl	__aeabi_f2d
 295              	.LVL30:
 296 0194 9FED300B 		fldd	d0, .L34+8
 297 0198 41EC110B 		fmdrr	d1, r0, r1
 298 019c FFF7FEFF 		bl	pow
 299              	.LVL31:
 300              		.loc 1 69 0 is_stmt 1 discriminator 3
 301 01a0 414B     		ldr	r3, .L34+88
 302 01a2 51EC100B 		fmrrd	r0, r1, d0
 303 01a6 0022     		movs	r2, #0
 304 01a8 FFF7FEFF 		bl	__aeabi_dmul
 305              	.LVL32:
 306 01ac FFF7FEFF 		bl	__aeabi_d2uiz
 307              	.LVL33:
 308              	.LBE13:
 309              		.loc 1 67 0 discriminator 3
 310 01b0 029B     		ldr	r3, [sp, #8]
 311              	.LBB14:
 312              		.loc 1 69 0 discriminator 3
 313 01b2 24F8020B 		strh	r0, [r4], #2	@ movhi
 314              	.LVL34:
 315              	.LBE14:
 316              		.loc 1 67 0 discriminator 3
 317 01b6 0133     		adds	r3, r3, #1
 318 01b8 0293     		str	r3, [sp, #8]
 319              	.LVL35:
 320 01ba 029B     		ldr	r3, [sp, #8]
 321 01bc FF2B     		cmp	r3, #255
 322 01be DFD9     		bls	.L10
 323              	.LVL36:
 324              	.L11:
 325              		.loc 1 73 0
 326 01c0 0023     		movs	r3, #0
 327 01c2 0293     		str	r3, [sp, #8]
 328 01c4 029B     		ldr	r3, [sp, #8]
 329 01c6 FF2B     		cmp	r3, #255
 330 01c8 28D8     		bhi	.L14
 331 01ca 384C     		ldr	r4, .L34+92
 332              	.LVL37:
 333              	.L13:
 334              	.LBB15:
 335              		.loc 1 74 0 discriminator 3
 336 01cc 0298     		ldr	r0, [sp, #8]
 337 01ce FFF7FEFF 		bl	__aeabi_ui2d
 338              	.LVL38:
 339 01d2 0022     		movs	r2, #0
 340 01d4 364B     		ldr	r3, .L34+96
 341 01d6 FFF7FEFF 		bl	__aeabi_dmul
 342              	.LVL39:
ARM GAS  /tmp/ccepXrsb.s 			page 7


 343 01da 0022     		movs	r2, #0
 344 01dc 354B     		ldr	r3, .L34+100
 345 01de FFF7FEFF 		bl	__aeabi_dadd
 346              	.LVL40:
 347 01e2 41EC100B 		fmdrr	d0, r0, r1
 348 01e6 FFF7FEFF 		bl	log
 349              	.LVL41:
 350 01ea 0022     		movs	r2, #0
 351 01ec 51EC100B 		fmrrd	r0, r1, d0
 352 01f0 314B     		ldr	r3, .L34+104
 353 01f2 FFF7FEFF 		bl	__aeabi_dmul
 354              	.LVL42:
 355 01f6 1AA3     		adr	r3, .L34+16
 356 01f8 D3E90023 		ldrd	r2, [r3]
 357 01fc FFF7FEFF 		bl	__aeabi_ddiv
 358              	.LVL43:
 359              		.loc 1 75 0 discriminator 3
 360 0200 294B     		ldr	r3, .L34+88
 361 0202 0022     		movs	r2, #0
 362 0204 FFF7FEFF 		bl	__aeabi_dmul
 363              	.LVL44:
 364 0208 FFF7FEFF 		bl	__aeabi_d2uiz
 365              	.LVL45:
 366              	.LBE15:
 367              		.loc 1 73 0 discriminator 3
 368 020c 029B     		ldr	r3, [sp, #8]
 369              	.LBB16:
 370              		.loc 1 75 0 discriminator 3
 371 020e 24F8020B 		strh	r0, [r4], #2	@ movhi
 372              	.LVL46:
 373              	.LBE16:
 374              		.loc 1 73 0 discriminator 3
 375 0212 0133     		adds	r3, r3, #1
 376 0214 0293     		str	r3, [sp, #8]
 377              	.LVL47:
 378 0216 029B     		ldr	r3, [sp, #8]
 379 0218 FF2B     		cmp	r3, #255
 380 021a D7D9     		bls	.L13
 381              	.LVL48:
 382              	.L14:
 383              		.loc 1 79 0
 384 021c 274B     		ldr	r3, .L34+108
 385 021e 5A69     		ldr	r2, [r3, #20]
 386 0220 42F04002 		orr	r2, r2, #64
 387 0224 5A61     		str	r2, [r3, #20]
 388              		.loc 1 80 0
 389 0226 5A69     		ldr	r2, [r3, #20]
 390 0228 22F04002 		bic	r2, r2, #64
 391 022c 5A61     		str	r2, [r3, #20]
 392              		.loc 1 81 0
 393 022e 5A6B     		ldr	r2, [r3, #52]
 394 0230 42F04002 		orr	r2, r2, #64
 395 0234 5A63     		str	r2, [r3, #52]
 396              		.loc 1 82 0
 397 0236 0120     		movs	r0, #1
 398 0238 FFF7FEFF 		bl	chThdSleep
 399              	.LVL49:
ARM GAS  /tmp/ccepXrsb.s 			page 8


 400              		.loc 1 83 0
 401 023c 204A     		ldr	r2, .L34+112
 402 023e 0423     		movs	r3, #4
 403 0240 1360     		str	r3, [r2]
 404              	.L15:
 405              		.loc 1 84 0 discriminator 1
 406 0242 5368     		ldr	r3, [r2, #4]
 407 0244 DB07     		lsls	r3, r3, #31
 408 0246 FCD5     		bpl	.L15
 409              		.loc 1 86 0
 410 0248 05B0     		add	sp, sp, #20
 411              		.cfi_def_cfa_offset 36
 412              		@ sp needed
 413 024a BDEC048B 		fldmfdd	sp!, {d8-d9}
 414              		.cfi_restore 82
 415              		.cfi_restore 83
 416              		.cfi_restore 80
 417              		.cfi_restore 81
 418              		.cfi_def_cfa_offset 20
 419 024e F0BD     		pop	{r4, r5, r6, r7, pc}
 420              	.L35:
 421              		.align	3
 422              	.L34:
 423 0250 00000000 		.word	0
 424 0254 0070E740 		.word	1088909312
 425 0258 00000000 		.word	0
 426 025c 00000040 		.word	1073741824
 427 0260 EF39FAFE 		.word	-17155601
 428 0264 422EE63F 		.word	1072049730
 429 0268 00000000 		.word	sinet
 430 026c 00000000 		.word	sine2t
 431 0270 DB0F4940 		.word	1078530011
 432 0274 00008039 		.word	964689920
 433 0278 0000004F 		.word	1325400064
 434 027c 00000000 		.word	windowt
 435 0280 0000803A 		.word	981467136
 436 0284 00FEFF46 		.word	1191181824
 437 0288 00000000 		.word	pitcht
 438 028c 00008A42 		.word	1116340224
 439 0290 00008042 		.word	1115684864
 440 0294 0000DC43 		.word	1138491392
 441 0298 0000F041 		.word	1106247680
 442 029c 0000E041 		.word	1105199104
 443 02a0 00000000 		.word	expt
 444 02a4 0000803B 		.word	998244352
 445 02a8 0000E040 		.word	1088421888
 446 02ac 00000000 		.word	logt
 447 02b0 0000703F 		.word	1064304640
 448 02b4 0000F03F 		.word	1072693248
 449 02b8 0000E03F 		.word	1071644672
 450 02bc 00380240 		.word	1073887232
 451 02c0 00080650 		.word	1342572544
 452              		.cfi_endproc
 453              	.LFE179:
 454              		.size	axoloti_math_init, .-axoloti_math_init
 455              		.align	2
 456 02c4 AFF30080 		.p2align 4,,15
ARM GAS  /tmp/ccepXrsb.s 			page 9


 456      AFF30080 
 456      AFF30080 
 457              		.global	FastLog
 458              		.thumb
 459              		.thumb_func
 460              		.type	FastLog, %function
 461              	FastLog:
 462              	.LFB180:
 463              		.loc 1 88 0
 464              		.cfi_startproc
 465              		@ args = 0, pretend = 0, frame = 0
 466              		@ frame_needed = 0, uses_anonymous_args = 0
 467              		@ link register save eliminated.
 468              	.LVL50:
 469              		.loc 1 90 0
 470 02d0 07EE900A 		fmsr	s15, r0	@ int
 471 02d4 F8EE677A 		fuitos	s15, s15
 472 02d8 17EE900A 		fmrs	r0, s15
 473              	.LVL51:
 474              		.loc 1 91 0
 475 02dc 00F0FF43 		and	r3, r0, #2139095040
 476              	.LVL52:
 477              		.loc 1 92 0
 478 02e0 C0F38C20 		ubfx	r0, r0, #10, #13
 479              	.LVL53:
 480              		.loc 1 94 0
 481 02e4 1844     		add	r0, r0, r3
 482              	.LVL54:
 483 02e6 7047     		bx	lr
 484              		.cfi_endproc
 485              	.LFE180:
 486              		.size	FastLog, .-FastLog
 487              		.comm	logt,512,4
 488              		.comm	expt,512,4
 489              		.comm	pitcht,1028,4
 490              		.comm	windowt,2050,4
 491              		.comm	sine2t,16388,4
 492              		.comm	sinet,2050,4
 493              	.Letext0:
 494              		.file 2 "/d_drive/axoloti/platform_linux/arm-none-eabi/include/machine/_default_types.h"
 495              		.file 3 "/d_drive/axoloti/platform_linux/arm-none-eabi/include/sys/_stdint.h"
 496              		.file 4 "/d_drive/axoloti/platform_linux/../chibios/os/ports/GCC/ARMCMx/chtypes.h"
 497              		.file 5 "/d_drive/axoloti/platform_linux/../chibios/os/hal/platforms/STM32F4xx/stm32f4xx.h"
 498              		.file 6 "/d_drive/axoloti/platform_linux/../CMSIS//DSP_Lib/Include/arm_math.h"
 499              		.file 7 "axoloti_math.h"
 500              		.file 8 "/d_drive/axoloti/platform_linux/../CMSIS//Include/core_cm4.h"
 501              		.file 9 "/d_drive/axoloti/platform_linux/arm-none-eabi/include/math.h"
 502              		.file 10 "/d_drive/axoloti/platform_linux/../chibios/os/kernel/include/chthreads.h"