ARM GAS  /tmp/ccTgqe5D.s 			page 1


   1              		.syntax unified
   2              		.cpu cortex-m4
   3              		.eabi_attribute 27, 1
   4              		.eabi_attribute 28, 1
   5              		.fpu fpv4-sp-d16
   6              		.eabi_attribute 20, 1
   7              		.eabi_attribute 21, 1
   8              		.eabi_attribute 23, 3
   9              		.eabi_attribute 24, 1
  10              		.eabi_attribute 25, 1
  11              		.eabi_attribute 26, 1
  12              		.eabi_attribute 30, 2
  13              		.eabi_attribute 34, 1
  14              		.eabi_attribute 18, 4
  15              		.thumb
  16              		.file	"axoloti_mi.cpp"
  17              		.text
  18              	.Ltext0:
  19              		.cfi_sections	.debug_frame
  20              		.align	2
  21              		.p2align 4,,15
  22              		.global	loadElementsData
  23              		.thumb
  24              		.thumb_func
  25              		.type	loadElementsData, %function
  26              	loadElementsData:
  27              		.fnstart
  28              	.LFB8:
  29              		.file 1 "axoloti_mi.cpp"
  30              		.loc 1 9 0
  31              		.cfi_startproc
  32              		@ args = 0, pretend = 0, frame = 48
  33              		@ frame_needed = 0, uses_anonymous_args = 0
  34              	.LVL0:
  35 0000 2DE9F047 		push	{r4, r5, r6, r7, r8, r9, r10, lr}
  36              		.save {r4, r5, r6, r7, r8, r9, r10, lr}
  37              		.cfi_def_cfa_offset 32
  38              		.cfi_offset 4, -32
  39              		.cfi_offset 5, -28
  40              		.cfi_offset 6, -24
  41              		.cfi_offset 7, -20
  42              		.cfi_offset 8, -16
  43              		.cfi_offset 9, -12
  44              		.cfi_offset 10, -8
  45              		.cfi_offset 14, -4
  46              	.LBB2:
  47              		.loc 1 15 0
  48 0004 0128     		cmp	r0, #1
  49              	.LBE2:
  50              		.loc 1 9 0
  51              		.pad #48
  52 0006 8CB0     		sub	sp, sp, #48
  53              		.cfi_def_cfa_offset 80
  54              		.loc 1 9 0
  55 0008 0646     		mov	r6, r0
  56              	.LBB3:
  57              		.loc 1 15 0
ARM GAS  /tmp/ccTgqe5D.s 			page 2


  58 000a 06DD     		ble	.L2
  59              		.loc 1 15 0 is_stmt 0 discriminator 1
  60 000c 2848     		ldr	r0, .L20
  61              	.LVL1:
  62 000e FFF7FEFF 		bl	LogTextMessage
  63              	.LVL2:
  64 0012 0020     		movs	r0, #0
  65              	.L3:
  66              	.LBE3:
  67              		.loc 1 39 0 is_stmt 1
  68 0014 0CB0     		add	sp, sp, #48
  69              		.cfi_remember_state
  70              		.cfi_def_cfa_offset 32
  71              		@ sp needed
  72 0016 BDE8F087 		pop	{r4, r5, r6, r7, r8, r9, r10, pc}
  73              	.LVL3:
  74              	.L2:
  75              		.cfi_restore_state
  76 001a 1446     		mov	r4, r2
  77              	.LBB4:
  78              		.loc 1 17 0
  79 001c 02A8     		add	r0, sp, #8
  80              	.LVL4:
  81 001e 0122     		movs	r2, #1
  82              	.LVL5:
  83 0020 1F46     		mov	r7, r3
  84 0022 8946     		mov	r9, r1
  85 0024 FFF7FEFF 		bl	f_open
  86              	.LVL6:
  87              		.loc 1 18 0
  88 0028 0546     		mov	r5, r0
  89 002a 20BB     		cbnz	r0, .L17
  90              		.loc 1 26 0
  91 002c 4FEA4708 		lsl	r8, r7, #1
  92 0030 4246     		mov	r2, r8
  93 0032 02A8     		add	r0, sp, #8
  94              	.LVL7:
  95 0034 2146     		mov	r1, r4
  96 0036 01AB     		add	r3, sp, #4
  97 0038 FFF7FEFF 		bl	f_read
  98              	.LVL8:
  99              		.loc 1 27 0
 100 003c 8246     		mov	r10, r0
 101 003e 60BB     		cbnz	r0, .L18
 102              		.loc 1 28 0
 103 0040 02A8     		add	r0, sp, #8
 104              	.LVL9:
 105 0042 FFF7FEFF 		bl	f_close
 106              	.LVL10:
 107              		.loc 1 29 0
 108 0046 4946     		mov	r1, r9
 109 0048 0546     		mov	r5, r0
 110 004a 60BB     		cbnz	r0, .L19
 111              	.LVL11:
 112              		.loc 1 31 0
 113 004c 1948     		ldr	r0, .L20+4
 114              	.LVL12:
ARM GAS  /tmp/ccTgqe5D.s 			page 3


 115 004e 019A     		ldr	r2, [sp, #4]
 116 0050 FFF7FEFF 		bl	LogTextMessage
 117              	.LVL13:
 118              		.loc 1 32 0
 119 0054 019B     		ldr	r3, [sp, #4]
 120 0056 5B08     		lsrs	r3, r3, #1
 121              	.LVL14:
 122              		.loc 1 33 0
 123 0058 9F42     		cmp	r7, r3
 124 005a 07DD     		ble	.L12
 125 005c 04EB4303 		add	r3, r4, r3, lsl #1
 126              	.LVL15:
 127 0060 A044     		add	r8, r8, r4
 128              		.loc 1 34 0
 129 0062 2846     		mov	r0, r5
 130              	.LVL16:
 131              	.L11:
 132              		.loc 1 34 0 is_stmt 0 discriminator 2
 133 0064 23F8020B 		strh	r0, [r3], #2	@ movhi
 134              		.loc 1 33 0 is_stmt 1 discriminator 2
 135 0068 4345     		cmp	r3, r8
 136 006a FBD1     		bne	.L11
 137              	.L12:
 138              		.loc 1 37 0
 139 006c 124B     		ldr	r3, .L20+8
 140              		.loc 1 38 0
 141 006e 0120     		movs	r0, #1
 142              		.loc 1 37 0
 143 0070 43F82640 		str	r4, [r3, r6, lsl #2]
 144              		.loc 1 38 0
 145 0074 CEE7     		b	.L3
 146              	.LVL17:
 147              	.L17:
 148              		.loc 1 19 0
 149 0076 4946     		mov	r1, r9
 150 0078 1048     		ldr	r0, .L20+12
 151              	.LVL18:
 152 007a FFF7FEFF 		bl	LogTextMessage
 153              	.LVL19:
 154              		.loc 1 21 0
 155 007e 002F     		cmp	r7, #0
 156 0080 07DD     		ble	.L7
 157 0082 2246     		mov	r2, r4
 158 0084 04EB4703 		add	r3, r4, r7, lsl #1
 159              		.loc 1 22 0
 160 0088 0021     		movs	r1, #0
 161              	.LVL20:
 162              	.L6:
 163              		.loc 1 22 0 is_stmt 0 discriminator 3
 164 008a 22F8021B 		strh	r1, [r2], #2	@ movhi
 165              		.loc 1 21 0 is_stmt 1 discriminator 3
 166 008e 9A42     		cmp	r2, r3
 167 0090 FBD1     		bne	.L6
 168              	.L7:
 169              		.loc 1 24 0
 170 0092 0020     		movs	r0, #0
 171              	.LBE4:
ARM GAS  /tmp/ccTgqe5D.s 			page 4


 172              		.loc 1 39 0
 173 0094 0CB0     		add	sp, sp, #48
 174              		.cfi_remember_state
 175              		.cfi_def_cfa_offset 32
 176              		@ sp needed
 177 0096 BDE8F087 		pop	{r4, r5, r6, r7, r8, r9, r10, pc}
 178              	.LVL21:
 179              	.L18:
 180              		.cfi_restore_state
 181              	.LBB5:
 182              		.loc 1 27 0 discriminator 1
 183 009a 0948     		ldr	r0, .L20+16
 184              	.LVL22:
 185 009c 4946     		mov	r1, r9
 186 009e FFF7FEFF 		bl	LogTextMessage
 187              	.LVL23:
 188 00a2 2846     		mov	r0, r5
 189 00a4 B6E7     		b	.L3
 190              	.LVL24:
 191              	.L19:
 192              		.loc 1 29 0 discriminator 1
 193 00a6 0748     		ldr	r0, .L20+20
 194              	.LVL25:
 195 00a8 FFF7FEFF 		bl	LogTextMessage
 196              	.LVL26:
 197 00ac 5046     		mov	r0, r10
 198 00ae B1E7     		b	.L3
 199              	.L21:
 200              		.align	2
 201              	.L20:
 202 00b0 00000000 		.word	.LC0
 203 00b4 5C000000 		.word	.LC4
 204 00b8 00000000 		.word	_ZN8elements12sample_tableE
 205 00bc 28000000 		.word	.LC1
 206 00c0 38000000 		.word	.LC2
 207 00c4 48000000 		.word	.LC3
 208              	.LBE5:
 209              		.cfi_endproc
 210              	.LFE8:
 211              		.fnend
 212              		.size	loadElementsData, .-loadElementsData
 213              		.section	.rodata.str1.4,"aMS",%progbits,1
 214              		.align	2
 215              	.LC0:
 216 0000 456C656D 		.ascii	"Elements sample array index must be < 2\000"
 216      656E7473 
 216      2073616D 
 216      706C6520 
 216      61727261 
 217              	.LC1:
 218 0028 4F70656E 		.ascii	"Open failed: %s\000"
 218      20666169 
 218      6C65643A 
 218      20257300 
 219              	.LC2:
 220 0038 52656164 		.ascii	"Read failed %s\012\000"
 220      20666169 
ARM GAS  /tmp/ccTgqe5D.s 			page 5


 220      6C656420 
 220      25730A00 
 221              	.LC3:
 222 0048 436C6F73 		.ascii	"Close failed %s\012\000"
 222      65206661 
 222      696C6564 
 222      2025730A 
 222      00
 223 0059 000000   		.space	3
 224              	.LC4:
 225 005c 42797465 		.ascii	"Bytes Read %s, %d\012\000"
 225      73205265 
 225      61642025 
 225      732C2025 
 225      640A00
 226              		.text
 227              	.Letext0:
 228              		.file 2 "/home/sbcu/Dropbox/pcb-layouts/axo-on-discovery-board/axoloti/platform_linux/../chibios/e
 229              		.file 3 "/home/sbcu/Dropbox/pcb-layouts/axo-on-discovery-board/axoloti/platform_linux/arm-none-eab
 230              		.file 4 "/home/sbcu/Dropbox/pcb-layouts/axo-on-discovery-board/axoloti/platform_linux/arm-none-eab
 231              		.file 5 "/home/sbcu/Dropbox/pcb-layouts/axo-on-discovery-board/axoloti/platform_linux/../chibios/o
 232              		.file 6 "/home/sbcu/Dropbox/pcb-layouts/axo-on-discovery-board/axoloti/platform_linux/../chibios/o
 233              		.file 7 "/home/sbcu/Dropbox/pcb-layouts/axo-on-discovery-board/axoloti/platform_linux/../chibios/o
 234              		.file 8 "/home/sbcu/Dropbox/pcb-layouts/axo-on-discovery-board/axoloti/platform_linux/../chibios/o
 235              		.file 9 "/home/sbcu/Dropbox/pcb-layouts/axo-on-discovery-board/axoloti/platform_linux/../chibios/o
 236              		.file 10 "/home/sbcu/Dropbox/pcb-layouts/axo-on-discovery-board/axoloti/platform_linux/../chibios/
 237              		.file 11 "/home/sbcu/Dropbox/pcb-layouts/axo-on-discovery-board/axoloti/platform_linux/../chibios/
 238              		.file 12 "./mutable_instruments/stmlib/stmlib.h"
 239              		.file 13 "mutable_instruments/elements/../mutable_resources.h"
 240              		.file 14 "mutable_instruments/elements/resources.h"