ARM GAS  /tmp/ccieRXS0.s 			page 1


   1              		.syntax unified
   2              		.cpu cortex-m4
   3              		.eabi_attribute 27, 1
   4              		.eabi_attribute 28, 1
   5              		.fpu fpv4-sp-d16
   6              		.eabi_attribute 20, 1
   7              		.eabi_attribute 21, 1
   8              		.eabi_attribute 23, 3
   9              		.eabi_attribute 24, 1
  10              		.eabi_attribute 25, 1
  11              		.eabi_attribute 26, 1
  12              		.eabi_attribute 30, 2
  13              		.eabi_attribute 34, 1
  14              		.eabi_attribute 18, 4
  15              		.thumb
  16              		.file	"axoloti_filters.c"
  17              		.text
  18              	.Ltext0:
  19              		.cfi_sections	.debug_frame
  20              		.align	2
  21              		.p2align 4,,15
  22              		.global	init_filter_biquad_A
  23              		.thumb
  24              		.thumb_func
  25              		.type	init_filter_biquad_A, %function
  26              	init_filter_biquad_A:
  27              	.LFB184:
  28              		.file 1 "axoloti_filters.c"
  29              		.loc 1 23 0
  30              		.cfi_startproc
  31              		@ args = 0, pretend = 0, frame = 0
  32              		@ frame_needed = 0, uses_anonymous_args = 0
  33              		@ link register save eliminated.
  34              	.LVL0:
  35              		.loc 1 24 0
  36 0000 0023     		movs	r3, #0
  37 0002 0360     		str	r3, [r0]
  38              		.loc 1 25 0
  39 0004 4360     		str	r3, [r0, #4]
  40              		.loc 1 26 0
  41 0006 8360     		str	r3, [r0, #8]
  42              		.loc 1 27 0
  43 0008 C360     		str	r3, [r0, #12]
  44 000a 7047     		bx	lr
  45              		.cfi_endproc
  46              	.LFE184:
  47              		.size	init_filter_biquad_A, .-init_filter_biquad_A
  48              		.align	2
  49 000c AFF30080 		.p2align 4,,15
  50              		.global	f_filter_biquad_A
  51              		.thumb
  52              		.thumb_func
  53              		.type	f_filter_biquad_A, %function
  54              	f_filter_biquad_A:
  55              	.LFB185:
  56              		.loc 1 73 0
  57              		.cfi_startproc
ARM GAS  /tmp/ccieRXS0.s 			page 2


  58              		@ args = 4, pretend = 0, frame = 0
  59              		@ frame_needed = 0, uses_anonymous_args = 0
  60              	.LVL1:
  61 0010 2DE9F04F 		push	{r4, r5, r6, r7, r8, r9, r10, fp, lr}
  62              		.cfi_def_cfa_offset 36
  63              		.cfi_offset 4, -36
  64              		.cfi_offset 5, -32
  65              		.cfi_offset 6, -28
  66              		.cfi_offset 7, -24
  67              		.cfi_offset 8, -20
  68              		.cfi_offset 9, -16
  69              		.cfi_offset 10, -12
  70              		.cfi_offset 11, -8
  71              		.cfi_offset 14, -4
  72              	.LBB38:
  73              	.LBB39:
  74              		.file 2 "axoloti_math.h"
  75              		.loc 2 124 0
  76 0014 C3F31307 		ubfx	r7, r3, #0, #20
  77              		.loc 2 121 0
  78 0018 1D0D     		lsrs	r5, r3, #20
  79              	.LVL2:
  80              		.loc 2 122 0
  81 001a 324C     		ldr	r4, .L7
  82              		.loc 2 124 0
  83 001c FF02     		lsls	r7, r7, #11
  84              	.LVL3:
  85              		.loc 2 125 0
  86 001e 6FF00048 		mvn	r8, #-2147483648
  87              	.LBB40:
  88              	.LBB41:
  89              		.loc 2 65 0
  90 0022 54F82560 		ldr	r6, [r4, r5, lsl #2]
  91              	.LBE41:
  92              	.LBE40:
  93              		.loc 2 125 0
  94 0026 C7EB0808 		rsb	r8, r7, r8
  95              	.LVL4:
  96              	.LBB43:
  97              	.LBB42:
  98              		.loc 2 65 0
  99              	@ 65 "axoloti_math.h" 1
 100 002a 56FB08F6 		smmul r6, r6, r8
 101              	@ 0 "" 2
 102              	.LVL5:
 103              		.thumb
 104              	.LBE42:
 105              	.LBE43:
 106              		.loc 2 123 0
 107 002e 0135     		adds	r5, r5, #1
 108              	.LVL6:
 109              	.LBB44:
 110              	.LBB45:
 111              		.loc 2 73 0
 112 0030 54F82550 		ldr	r5, [r4, r5, lsl #2]
 113              	.LVL7:
 114              	@ 73 "axoloti_math.h" 1
ARM GAS  /tmp/ccieRXS0.s 			page 3


 115 0034 55FB076E 		smmla lr, r5, r7, r6
 116              	@ 0 "" 2
 117              	.LVL8:
 118              		.thumb
 119              	.LBE45:
 120              	.LBE44:
 121              	.LBE39:
 122              	.LBE38:
 123              		.loc 1 81 0
 124 0038 03F18045 		add	r5, r3, #1073741824
 125              	.LVL9:
 126              	.LBB47:
 127              	.LBB48:
 128              		.loc 2 121 0
 129 003c 2D0D     		lsrs	r5, r5, #20
 130              	.LVL10:
 131              	.LBB49:
 132              	.LBB50:
 133              		.loc 2 65 0
 134 003e 54F82530 		ldr	r3, [r4, r5, lsl #2]
 135              	.LVL11:
 136              	@ 65 "axoloti_math.h" 1
 137 0042 53FB08F3 		smmul r3, r3, r8
 138              	@ 0 "" 2
 139              	.LVL12:
 140              		.thumb
 141              	.LBE50:
 142              	.LBE49:
 143              		.loc 2 123 0
 144 0046 0135     		adds	r5, r5, #1
 145              	.LVL13:
 146              	.LBB51:
 147              	.LBB52:
 148              		.loc 2 73 0
 149 0048 54F82550 		ldr	r5, [r4, r5, lsl #2]
 150              	.LVL14:
 151              	@ 73 "axoloti_math.h" 1
 152 004c 55FB0733 		smmla r3, r5, r7, r3
 153              	@ 0 "" 2
 154              	.LVL15:
 155              		.thumb
 156              	.LBE52:
 157              	.LBE51:
 158              		.loc 2 129 0
 159 0050 5B00     		lsls	r3, r3, #1
 160              	.LVL16:
 161              	.LBE48:
 162              	.LBE47:
 163              	.LBB53:
 164              	.LBB46:
 165 0052 4FEA4E0E 		lsl	lr, lr, #1
 166              	.LVL17:
 167              	.LBE46:
 168              	.LBE53:
 169              	.LBB54:
 170              	.LBB55:
 171              		.loc 2 65 0
ARM GAS  /tmp/ccieRXS0.s 			page 4


 172 0056 099C     		ldr	r4, [sp, #36]
 173              	@ 65 "axoloti_math.h" 1
 174 0058 5EFB04FE 		smmul lr, lr, r4
 175              	@ 0 "" 2
 176              	.LVL18:
 177              		.thumb
 178              	.LBE55:
 179              	.LBE54:
 180              		.loc 1 92 0
 181 005c 0EF18044 		add	r4, lr, #1073741824
 182 0060 07EE904A 		fmsr	s15, r4	@ int
 183 0064 B8EEE77A 		fsitos	s14, s15
 184              		.loc 1 93 0
 185 0068 DFED1F7A 		flds	s15, .L7+4
 186              		.loc 1 90 0
 187 006c 8468     		ldr	r4, [r0, #8]
 188              		.loc 1 91 0
 189 006e D0F80CA0 		ldr	r10, [r0, #12]
 190              		.loc 1 93 0
 191 0072 C7EE877A 		fdivs	s15, s15, s14
 192              		.loc 1 89 0
 193 0076 90E82008 		ldmia	r0, {r5, fp}
 194              	.LVL19:
 195              		.loc 1 94 0
 196 007a B0EE677A 		fcpys	s14, s15
 197              	.LVL20:
 198 007e BEEEE07A 		vcvt.s32.f32	s14, s14, #31
 199 0082 17EE106A 		fmrs	r6, s14	@ int
 200              	.LVL21:
 201              	.LBB56:
 202              	.LBB57:
 203              		.loc 2 65 0
 204              	@ 65 "axoloti_math.h" 1
 205 0086 53FB06F9 		smmul r9, r3, r6
 206              	@ 0 "" 2
 207              	.LVL22:
 208              		.thumb
 209              	.LBE57:
 210              	.LBE56:
 211              		.loc 1 96 0
 212 008a 0EF1404E 		add	lr, lr, #-1073741824
 213              	.LVL23:
 214              	.LBB58:
 215              	.LBB59:
 216              		.loc 2 65 0
 217              	@ 65 "axoloti_math.h" 1
 218 008e 5EFB06FE 		smmul lr, lr, r6
 219              	@ 0 "" 2
 220              	.LVL24:
 221              		.thumb
 222              	.LBE59:
 223              	.LBE58:
 224              		.loc 1 97 0
 225 0092 5F10     		asrs	r7, r3, #1
 226              	.LVL25:
 227 0094 C7F18047 		rsb	r7, r7, #1073741824
 228              	.LVL26:
ARM GAS  /tmp/ccieRXS0.s 			page 5


 229              	.LBB60:
 230              	.LBB61:
 231              		.loc 2 65 0
 232              	@ 65 "axoloti_math.h" 1
 233 0098 57FB06F7 		smmul r7, r7, r6
 234              	@ 0 "" 2
 235              	.LVL27:
 236              		.thumb
 237              	.LBE61:
 238              	.LBE60:
 239              		.loc 1 98 0
 240 009c 4FEA6708 		asr	r8, r7, #1
 241              	.LVL28:
 242 00a0 01F1400C 		add	ip, r1, #64
 243 00a4 01E0     		b	.L3
 244              	.LVL29:
 245              	.L4:
 246              	.LBB62:
 247              		.loc 1 108 0
 248 00a6 1C46     		mov	r4, r3
 249              	.LVL30:
 250              		.loc 1 101 0
 251 00a8 3546     		mov	r5, r6
 252              	.LVL31:
 253              	.L3:
 254              		.loc 1 101 0 is_stmt 0 discriminator 3
 255 00aa 51F8046B 		ldr	r6, [r1], #4
 256              	.LVL32:
 257              	.LBB63:
 258              	.LBB64:
 259              		.loc 2 65 0 is_stmt 1 discriminator 3
 260              	@ 65 "axoloti_math.h" 1
 261 00ae 57FB06F3 		smmul r3, r7, r6
 262              	@ 0 "" 2
 263              	.LVL33:
 264              		.thumb
 265              	.LBE64:
 266              	.LBE63:
 267              	.LBB65:
 268              	.LBB66:
 269              		.loc 2 73 0 discriminator 3
 270              	@ 73 "axoloti_math.h" 1
 271 00b2 57FB0B33 		smmla r3, r7, fp, r3
 272              	@ 0 "" 2
 273              	.LVL34:
 274              		.thumb
 275              	.LBE66:
 276              	.LBE65:
 277              	.LBB67:
 278              	.LBB68:
 279              	@ 73 "axoloti_math.h" 1
 280 00b6 58FB0533 		smmla r3, r8, r5, r3
 281              	@ 0 "" 2
 282              	.LVL35:
 283              		.thumb
 284              	.LBE68:
 285              	.LBE67:
ARM GAS  /tmp/ccieRXS0.s 			page 6


 286              	.LBB69:
 287              	.LBB70:
 288              	@ 73 "axoloti_math.h" 1
 289 00ba 59FB0433 		smmla r3, r9, r4, r3
 290              	@ 0 "" 2
 291              	.LVL36:
 292              		.thumb
 293              	.LBE70:
 294              	.LBE69:
 295              	.LBB71:
 296              	.LBB72:
 297              	@ 73 "axoloti_math.h" 1
 298 00be 5EFB0A33 		smmla r3, lr, r10, r3
 299              	@ 0 "" 2
 300              	.LVL37:
 301              		.thumb
 302              	.LBE72:
 303              	.LBE71:
 304              	.LBB73:
 305              		.loc 1 108 0 discriminator 3
 306              	@ 108 "axoloti_filters.c" 1
 307 00c2 03F31B03 		ssat r3, #28, r3
 308              	@ 0 "" 2
 309              	.LVL38:
 310              		.thumb
 311              	.LBE73:
 312              	.LBE62:
 313              		.loc 1 100 0 discriminator 3
 314 00c6 6145     		cmp	r1, ip
 315              	.LBB74:
 316              		.loc 1 108 0 discriminator 3
 317 00c8 4FEA0313 		lsl	r3, r3, #4
 318              	.LVL39:
 319              		.loc 1 113 0 discriminator 3
 320 00cc 42F8043B 		str	r3, [r2], #4
 321              	.LVL40:
 322 00d0 AB46     		mov	fp, r5
 323              	.LVL41:
 324 00d2 A246     		mov	r10, r4
 325              	.LVL42:
 326              	.LBE74:
 327              		.loc 1 100 0 discriminator 3
 328 00d4 E7D1     		bne	.L4
 329              		.loc 1 115 0
 330 00d6 0660     		str	r6, [r0]
 331              		.loc 1 116 0
 332 00d8 4560     		str	r5, [r0, #4]
 333              		.loc 1 117 0
 334 00da 8360     		str	r3, [r0, #8]
 335              		.loc 1 118 0
 336 00dc C460     		str	r4, [r0, #12]
 337 00de BDE8F08F 		pop	{r4, r5, r6, r7, r8, r9, r10, fp, pc}
 338              	.LVL43:
 339              	.L8:
 340 00e2 00BF     		.align	2
 341              	.L7:
 342 00e4 00000000 		.word	sine2t
ARM GAS  /tmp/ccieRXS0.s 			page 7


 343 00e8 0000004E 		.word	1308622848
 344              		.cfi_endproc
 345              	.LFE185:
 346              		.size	f_filter_biquad_A, .-f_filter_biquad_A
 347              	.Letext0:
 348              		.file 3 "/home/sbcu/Dropbox/pcb-layouts/axo-on-discovery-board/axoloti/platform_linux/arm-none-eab
 349              		.file 4 "/home/sbcu/Dropbox/pcb-layouts/axo-on-discovery-board/axoloti/platform_linux/arm-none-eab
 350              		.file 5 "axoloti_filters.h"
 351              		.file 6 "/home/sbcu/Dropbox/pcb-layouts/axo-on-discovery-board/axoloti/platform_linux/../CMSIS//In