ARM GAS  /tmp/cc0DCpQG.s 			page 1


   1              		.syntax unified
   2              		.cpu cortex-m4
   3              		.eabi_attribute 27, 1
   4              		.eabi_attribute 28, 1
   5              		.fpu fpv4-sp-d16
   6              		.eabi_attribute 20, 1
   7              		.eabi_attribute 21, 1
   8              		.eabi_attribute 23, 3
   9              		.eabi_attribute 24, 1
  10              		.eabi_attribute 25, 1
  11              		.eabi_attribute 26, 1
  12              		.eabi_attribute 30, 2
  13              		.eabi_attribute 34, 1
  14              		.eabi_attribute 18, 4
  15              		.thumb
  16              		.file	"axoloti_memory.c"
  17              		.text
  18              	.Ltext0:
  19              		.cfi_sections	.debug_frame
  20              		.align	2
  21              		.p2align 4,,15
  22              		.global	sdram_init
  23              		.thumb
  24              		.thumb_func
  25              		.type	sdram_init, %function
  26              	sdram_init:
  27              	.LFB7:
  28              		.file 1 "axoloti_memory.c"
  29              		.loc 1 14 0
  30              		.cfi_startproc
  31              		@ args = 0, pretend = 0, frame = 0
  32              		@ frame_needed = 0, uses_anonymous_args = 0
  33              		@ link register save eliminated.
  34              	.LVL0:
  35              		.loc 1 16 0
  36 0000 054B     		ldr	r3, .L3
  37              		.loc 1 14 0
  38 0002 10B4     		push	{r4}
  39              		.cfi_def_cfa_offset 4
  40              		.cfi_offset 4, -4
  41              		.loc 1 19 0
  42 0004 0022     		movs	r2, #0
  43              		.loc 1 20 0
  44 0006 0C1A     		subs	r4, r1, r0
  45 0008 1C61     		str	r4, [r3, #16]
  46              		.loc 1 16 0
  47 000a 1860     		str	r0, [r3]
  48              		.loc 1 17 0
  49 000c 5860     		str	r0, [r3, #4]
  50              		.loc 1 18 0
  51 000e 9960     		str	r1, [r3, #8]
  52              		.loc 1 19 0
  53 0010 DA60     		str	r2, [r3, #12]
  54              		.loc 1 21 0
  55 0012 5DF8044B 		ldr	r4, [sp], #4
  56              		.cfi_restore 4
  57              		.cfi_def_cfa_offset 0
ARM GAS  /tmp/cc0DCpQG.s 			page 2


  58 0016 7047     		bx	lr
  59              	.L4:
  60              		.align	2
  61              	.L3:
  62 0018 00000000 		.word	.LANCHOR0
  63              		.cfi_endproc
  64              	.LFE7:
  65              		.size	sdram_init, .-sdram_init
  66              		.align	2
  67 001c AFF30080 		.p2align 4,,15
  68              		.global	sdram_malloc
  69              		.thumb
  70              		.thumb_func
  71              		.type	sdram_malloc, %function
  72              	sdram_malloc:
  73              	.LFB8:
  74              		.loc 1 23 0
  75              		.cfi_startproc
  76              		@ args = 0, pretend = 0, frame = 0
  77              		@ frame_needed = 0, uses_anonymous_args = 0
  78              	.LVL1:
  79 0020 38B5     		push	{r3, r4, r5, lr}
  80              		.cfi_def_cfa_offset 16
  81              		.cfi_offset 3, -16
  82              		.cfi_offset 4, -12
  83              		.cfi_offset 5, -8
  84              		.cfi_offset 14, -4
  85              		.loc 1 28 0
  86 0022 0E4C     		ldr	r4, .L18
  87              		.loc 1 25 0
  88 0024 8307     		lsls	r3, r0, #30
  89              		.loc 1 28 0
  90 0026 6268     		ldr	r2, [r4, #4]
  91              		.loc 1 26 0
  92 0028 1CBF     		itt	ne
  93 002a 20F00300 		bicne	r0, r0, #3
  94              	.LVL2:
  95 002e 0430     		addne	r0, r0, #4
  96              	.LVL3:
  97              		.loc 1 28 0
  98 0030 42B1     		cbz	r2, .L7
  99              		.loc 1 30 0
 100 0032 2169     		ldr	r1, [r4, #16]
 101              		.loc 1 32 0
 102 0034 A568     		ldr	r5, [r4, #8]
 103 0036 1318     		adds	r3, r2, r0
 104              		.loc 1 30 0
 105 0038 091A     		subs	r1, r1, r0
 106              		.loc 1 32 0
 107 003a AB42     		cmp	r3, r5
 108              		.loc 1 30 0
 109 003c 2161     		str	r1, [r4, #16]
 110              		.loc 1 32 0
 111 003e 03D8     		bhi	.L17
 112              		.loc 1 38 0
 113 0040 E260     		str	r2, [r4, #12]
 114              		.loc 1 39 0
ARM GAS  /tmp/cc0DCpQG.s 			page 3


 115 0042 6360     		str	r3, [r4, #4]
 116              	.L7:
 117              		.loc 1 41 0
 118 0044 1046     		mov	r0, r2
 119              	.LVL4:
 120 0046 38BD     		pop	{r3, r4, r5, pc}
 121              	.LVL5:
 122              	.L17:
 123              		.loc 1 33 0
 124 0048 0548     		ldr	r0, .L18+4
 125              	.LVL6:
 126 004a FFF7FEFF 		bl	report_patchLoadSDRamOverflow
 127              	.LVL7:
 128              		.loc 1 34 0
 129 004e C820     		movs	r0, #200
 130 0050 FFF7FEFF 		bl	chThdSleep
 131              	.LVL8:
 132              		.loc 1 35 0
 133 0054 2268     		ldr	r2, [r4]
 134              		.loc 1 41 0
 135 0056 1046     		mov	r0, r2
 136 0058 38BD     		pop	{r3, r4, r5, pc}
 137              	.L19:
 138 005a 00BF     		.align	2
 139              	.L18:
 140 005c 00000000 		.word	.LANCHOR0
 141 0060 00000000 		.word	.LC0
 142              		.cfi_endproc
 143              	.LFE8:
 144              		.size	sdram_malloc, .-sdram_malloc
 145              		.align	2
 146 0064 AFF30080 		.p2align 4,,15
 146      AFF30080 
 146      AFF30080 
 147              		.global	sdram_free
 148              		.thumb
 149              		.thumb_func
 150              		.type	sdram_free, %function
 151              	sdram_free:
 152              	.LFB9:
 153              		.loc 1 43 0
 154              		.cfi_startproc
 155              		@ args = 0, pretend = 0, frame = 0
 156              		@ frame_needed = 0, uses_anonymous_args = 0
 157              		@ link register save eliminated.
 158              	.LVL9:
 159              		.loc 1 44 0
 160 0070 054B     		ldr	r3, .L23
 161 0072 DA68     		ldr	r2, [r3, #12]
 162 0074 9042     		cmp	r0, r2
 163 0076 00D0     		beq	.L22
 164 0078 7047     		bx	lr
 165              	.L22:
 166              		.loc 1 45 0
 167 007a 5968     		ldr	r1, [r3, #4]
 168 007c 1A69     		ldr	r2, [r3, #16]
 169              		.loc 1 46 0
ARM GAS  /tmp/cc0DCpQG.s 			page 4


 170 007e 5860     		str	r0, [r3, #4]
 171              		.loc 1 45 0
 172 0080 081A     		subs	r0, r1, r0
 173              	.LVL10:
 174 0082 0244     		add	r2, r2, r0
 175 0084 1A61     		str	r2, [r3, #16]
 176 0086 7047     		bx	lr
 177              	.L24:
 178              		.align	2
 179              	.L23:
 180 0088 00000000 		.word	.LANCHOR0
 181              		.cfi_endproc
 182              	.LFE9:
 183              		.size	sdram_free, .-sdram_free
 184              		.align	2
 185 008c AFF30080 		.p2align 4,,15
 186              		.global	sdram_get_free
 187              		.thumb
 188              		.thumb_func
 189              		.type	sdram_get_free, %function
 190              	sdram_get_free:
 191              	.LFB10:
 192              		.loc 1 50 0
 193              		.cfi_startproc
 194              		@ args = 0, pretend = 0, frame = 0
 195              		@ frame_needed = 0, uses_anonymous_args = 0
 196              		@ link register save eliminated.
 197              		.loc 1 51 0
 198 0090 014B     		ldr	r3, .L26
 199              		.loc 1 52 0
 200 0092 1869     		ldr	r0, [r3, #16]
 201 0094 7047     		bx	lr
 202              	.L27:
 203 0096 00BF     		.align	2
 204              	.L26:
 205 0098 00000000 		.word	.LANCHOR0
 206              		.cfi_endproc
 207              	.LFE10:
 208              		.size	sdram_get_free, .-sdram_get_free
 209              		.section	.rodata.str1.4,"aMS",%progbits,1
 210              		.align	2
 211              	.LC0:
 212 0000 6D00     		.ascii	"m\000"
 213              		.bss
 214              		.align	2
 215              		.set	.LANCHOR0,. + 0
 216              		.type	sdram_base_addr, %object
 217              		.size	sdram_base_addr, 4
 218              	sdram_base_addr:
 219 0000 00000000 		.space	4
 220              		.type	sdram_current_addr, %object
 221              		.size	sdram_current_addr, 4
 222              	sdram_current_addr:
 223 0004 00000000 		.space	4
 224              		.type	sdram_end_addr, %object
 225              		.size	sdram_end_addr, 4
 226              	sdram_end_addr:
ARM GAS  /tmp/cc0DCpQG.s 			page 5


 227 0008 00000000 		.space	4
 228              		.type	sdram_last_addr, %object
 229              		.size	sdram_last_addr, 4
 230              	sdram_last_addr:
 231 000c 00000000 		.space	4
 232              		.type	sdram_total_remaining, %object
 233              		.size	sdram_total_remaining, 4
 234              	sdram_total_remaining:
 235 0010 00000000 		.space	4
 236              		.text
 237              	.Letext0:
 238              		.file 2 "/home/sbcu/Dropbox/pcb-layouts/axo-on-discovery-board/axoloti/platform_linux/lib/gcc/arm-
 239              		.file 3 "/home/sbcu/Dropbox/pcb-layouts/axo-on-discovery-board/axoloti/platform_linux/arm-none-eab
 240              		.file 4 "/home/sbcu/Dropbox/pcb-layouts/axo-on-discovery-board/axoloti/platform_linux/arm-none-eab
 241              		.file 5 "/home/sbcu/Dropbox/pcb-layouts/axo-on-discovery-board/axoloti/platform_linux/../chibios/o
 242              		.file 6 "exceptions.h"
 243              		.file 7 "/home/sbcu/Dropbox/pcb-layouts/axo-on-discovery-board/axoloti/platform_linux/../chibios/o
 244              		.section	.debug_info,"",%progbits
 245              	.Ldebug_info0:
 246 0000 05020000 		.4byte	0x205
 247 0004 0400     		.2byte	0x4
 248 0006 00000000 		.4byte	.Ldebug_abbrev0
 249 000a 04       		.byte	0x4
 250 000b 01       		.uleb128 0x1
 251 000c A9000000 		.4byte	.LASF28
 252 0010 01       		.byte	0x1
 253 0011 95020000 		.4byte	.LASF29
 254 0015 62000000 		.4byte	.LASF30
 255 0019 00000000 		.4byte	.Ltext0
 256 001d 9C000000 		.4byte	.Letext0-.Ltext0
 257 0021 00000000 		.4byte	.Ldebug_line0
 258 0025 02       		.uleb128 0x2
 259 0026 04       		.byte	0x4
 260 0027 05       		.byte	0x5
 261 0028 696E7400 		.ascii	"int\000"
 262 002c 03       		.uleb128 0x3
 263 002d 0F000000 		.4byte	.LASF5
 264 0031 02       		.byte	0x2
 265 0032 D4       		.byte	0xd4
 266 0033 37000000 		.4byte	0x37
 267 0037 04       		.uleb128 0x4
 268 0038 04       		.byte	0x4
 269 0039 07       		.byte	0x7
 270 003a 0C020000 		.4byte	.LASF0
 271 003e 04       		.uleb128 0x4
 272 003f 01       		.byte	0x1
 273 0040 06       		.byte	0x6
 274 0041 A2010000 		.4byte	.LASF1
 275 0045 04       		.uleb128 0x4
 276 0046 01       		.byte	0x1
 277 0047 08       		.byte	0x8
 278 0048 D9010000 		.4byte	.LASF2
 279 004c 04       		.uleb128 0x4
 280 004d 02       		.byte	0x2
 281 004e 05       		.byte	0x5
 282 004f A6020000 		.4byte	.LASF3
 283 0053 04       		.uleb128 0x4
ARM GAS  /tmp/cc0DCpQG.s 			page 6


 284 0054 02       		.byte	0x2
 285 0055 07       		.byte	0x7
 286 0056 D2020000 		.4byte	.LASF4
 287 005a 03       		.uleb128 0x3
 288 005b 3E000000 		.4byte	.LASF6
 289 005f 03       		.byte	0x3
 290 0060 3F       		.byte	0x3f
 291 0061 65000000 		.4byte	0x65
 292 0065 04       		.uleb128 0x4
 293 0066 04       		.byte	0x4
 294 0067 05       		.byte	0x5
 295 0068 B9020000 		.4byte	.LASF7
 296 006c 03       		.uleb128 0x3
 297 006d F7010000 		.4byte	.LASF8
 298 0071 03       		.byte	0x3
 299 0072 41       		.byte	0x41
 300 0073 77000000 		.4byte	0x77
 301 0077 04       		.uleb128 0x4
 302 0078 04       		.byte	0x4
 303 0079 07       		.byte	0x7
 304 007a C7010000 		.4byte	.LASF9
 305 007e 04       		.uleb128 0x4
 306 007f 08       		.byte	0x8
 307 0080 05       		.byte	0x5
 308 0081 6F020000 		.4byte	.LASF10
 309 0085 04       		.uleb128 0x4
 310 0086 08       		.byte	0x8
 311 0087 07       		.byte	0x7
 312 0088 2F020000 		.4byte	.LASF11
 313 008c 03       		.uleb128 0x3
 314 008d 51020000 		.4byte	.LASF12
 315 0091 04       		.byte	0x4
 316 0092 1F       		.byte	0x1f
 317 0093 5A000000 		.4byte	0x5a
 318 0097 03       		.uleb128 0x3
 319 0098 B0020000 		.4byte	.LASF13
 320 009c 04       		.byte	0x4
 321 009d 20       		.byte	0x20
 322 009e 6C000000 		.4byte	0x6c
 323 00a2 04       		.uleb128 0x4
 324 00a3 01       		.byte	0x1
 325 00a4 02       		.byte	0x2
 326 00a5 E5020000 		.4byte	.LASF14
 327 00a9 03       		.uleb128 0x3
 328 00aa 34000000 		.4byte	.LASF15
 329 00ae 05       		.byte	0x5
 330 00af 35       		.byte	0x35
 331 00b0 97000000 		.4byte	0x97
 332 00b4 05       		.uleb128 0x5
 333 00b5 04       		.byte	0x4
 334 00b6 04       		.uleb128 0x4
 335 00b7 04       		.byte	0x4
 336 00b8 07       		.byte	0x7
 337 00b9 59020000 		.4byte	.LASF16
 338 00bd 06       		.uleb128 0x6
 339 00be 04       		.byte	0x4
 340 00bf C3000000 		.4byte	0xc3
ARM GAS  /tmp/cc0DCpQG.s 			page 7


 341 00c3 07       		.uleb128 0x7
 342 00c4 C8000000 		.4byte	0xc8
 343 00c8 04       		.uleb128 0x4
 344 00c9 01       		.byte	0x1
 345 00ca 08       		.byte	0x8
 346 00cb 90020000 		.4byte	.LASF17
 347 00cf 08       		.uleb128 0x8
 348 00d0 46020000 		.4byte	.LASF21
 349 00d4 01       		.byte	0x1
 350 00d5 0E       		.byte	0xe
 351 00d6 00000000 		.4byte	.LFB7
 352 00da 1C000000 		.4byte	.LFE7-.LFB7
 353 00de 01       		.uleb128 0x1
 354 00df 9C       		.byte	0x9c
 355 00e0 FF000000 		.4byte	0xff
 356 00e4 09       		.uleb128 0x9
 357 00e5 02020000 		.4byte	.LASF18
 358 00e9 01       		.byte	0x1
 359 00ea 0E       		.byte	0xe
 360 00eb FF000000 		.4byte	0xff
 361 00ef 01       		.uleb128 0x1
 362 00f0 50       		.byte	0x50
 363 00f1 09       		.uleb128 0x9
 364 00f2 BE010000 		.4byte	.LASF19
 365 00f6 01       		.byte	0x1
 366 00f7 0E       		.byte	0xe
 367 00f8 FF000000 		.4byte	0xff
 368 00fc 01       		.uleb128 0x1
 369 00fd 51       		.byte	0x51
 370 00fe 00       		.byte	0
 371 00ff 06       		.uleb128 0x6
 372 0100 04       		.byte	0x4
 373 0101 C8000000 		.4byte	0xc8
 374 0105 0A       		.uleb128 0xa
 375 0106 62020000 		.4byte	.LASF31
 376 010a 01       		.byte	0x1
 377 010b 17       		.byte	0x17
 378 010c B4000000 		.4byte	0xb4
 379 0110 20000000 		.4byte	.LFB8
 380 0114 44000000 		.4byte	.LFE8-.LFB8
 381 0118 01       		.uleb128 0x1
 382 0119 9C       		.byte	0x9c
 383 011a 55010000 		.4byte	0x155
 384 011e 0B       		.uleb128 0xb
 385 011f AE010000 		.4byte	.LASF20
 386 0123 01       		.byte	0x1
 387 0124 17       		.byte	0x17
 388 0125 2C000000 		.4byte	0x2c
 389 0129 00000000 		.4byte	.LLST0
 390 012d 0C       		.uleb128 0xc
 391 012e 4E000000 		.4byte	.LVL7
 392 0132 E4010000 		.4byte	0x1e4
 393 0136 44010000 		.4byte	0x144
 394 013a 0D       		.uleb128 0xd
 395 013b 01       		.uleb128 0x1
 396 013c 50       		.byte	0x50
 397 013d 05       		.uleb128 0x5
ARM GAS  /tmp/cc0DCpQG.s 			page 8


 398 013e 03       		.byte	0x3
 399 013f 00000000 		.4byte	.LC0
 400 0143 00       		.byte	0
 401 0144 0E       		.uleb128 0xe
 402 0145 54000000 		.4byte	.LVL8
 403 0149 FA010000 		.4byte	0x1fa
 404 014d 0D       		.uleb128 0xd
 405 014e 01       		.uleb128 0x1
 406 014f 50       		.byte	0x50
 407 0150 02       		.uleb128 0x2
 408 0151 08       		.byte	0x8
 409 0152 C8       		.byte	0xc8
 410 0153 00       		.byte	0
 411 0154 00       		.byte	0
 412 0155 08       		.uleb128 0x8
 413 0156 48000000 		.4byte	.LASF22
 414 015a 01       		.byte	0x1
 415 015b 2B       		.byte	0x2b
 416 015c 70000000 		.4byte	.LFB9
 417 0160 1C000000 		.4byte	.LFE9-.LFB9
 418 0164 01       		.uleb128 0x1
 419 0165 9C       		.byte	0x9c
 420 0166 7A010000 		.4byte	0x17a
 421 016a 0F       		.uleb128 0xf
 422 016b 70747200 		.ascii	"ptr\000"
 423 016f 01       		.byte	0x1
 424 0170 2B       		.byte	0x2b
 425 0171 B4000000 		.4byte	0xb4
 426 0175 BD000000 		.4byte	.LLST1
 427 0179 00       		.byte	0
 428 017a 10       		.uleb128 0x10
 429 017b 53000000 		.4byte	.LASF32
 430 017f 01       		.byte	0x1
 431 0180 32       		.byte	0x32
 432 0181 8C000000 		.4byte	0x8c
 433 0185 90000000 		.4byte	.LFB10
 434 0189 0C000000 		.4byte	.LFE10-.LFB10
 435 018d 01       		.uleb128 0x1
 436 018e 9C       		.byte	0x9c
 437 018f 11       		.uleb128 0x11
 438 0190 C2020000 		.4byte	.LASF23
 439 0194 01       		.byte	0x1
 440 0195 08       		.byte	0x8
 441 0196 B4000000 		.4byte	0xb4
 442 019a 05       		.uleb128 0x5
 443 019b 03       		.byte	0x3
 444 019c 00000000 		.4byte	sdram_base_addr
 445 01a0 11       		.uleb128 0x11
 446 01a1 7D020000 		.4byte	.LASF24
 447 01a5 01       		.byte	0x1
 448 01a6 09       		.byte	0x9
 449 01a7 B4000000 		.4byte	0xb4
 450 01ab 05       		.uleb128 0x5
 451 01ac 03       		.byte	0x3
 452 01ad 04000000 		.4byte	sdram_current_addr
 453 01b1 11       		.uleb128 0x11
 454 01b2 E7010000 		.4byte	.LASF25
ARM GAS  /tmp/cc0DCpQG.s 			page 9


 455 01b6 01       		.byte	0x1
 456 01b7 0A       		.byte	0xa
 457 01b8 B4000000 		.4byte	0xb4
 458 01bc 05       		.uleb128 0x5
 459 01bd 03       		.byte	0x3
 460 01be 0C000000 		.4byte	sdram_last_addr
 461 01c2 11       		.uleb128 0x11
 462 01c3 00000000 		.4byte	.LASF26
 463 01c7 01       		.byte	0x1
 464 01c8 0B       		.byte	0xb
 465 01c9 B4000000 		.4byte	0xb4
 466 01cd 05       		.uleb128 0x5
 467 01ce 03       		.byte	0x3
 468 01cf 08000000 		.4byte	sdram_end_addr
 469 01d3 11       		.uleb128 0x11
 470 01d4 19020000 		.4byte	.LASF27
 471 01d8 01       		.byte	0x1
 472 01d9 0C       		.byte	0xc
 473 01da 8C000000 		.4byte	0x8c
 474 01de 05       		.uleb128 0x5
 475 01df 03       		.byte	0x3
 476 01e0 10000000 		.4byte	sdram_total_remaining
 477 01e4 12       		.uleb128 0x12
 478 01e5 16000000 		.4byte	.LASF33
 479 01e9 06       		.byte	0x6
 480 01ea 21       		.byte	0x21
 481 01eb FA010000 		.4byte	0x1fa
 482 01ef 13       		.uleb128 0x13
 483 01f0 BD000000 		.4byte	0xbd
 484 01f4 13       		.uleb128 0x13
 485 01f5 25000000 		.4byte	0x25
 486 01f9 00       		.byte	0
 487 01fa 14       		.uleb128 0x14
 488 01fb B3010000 		.4byte	.LASF34
 489 01ff 07       		.byte	0x7
 490 0200 7501     		.2byte	0x175
 491 0202 13       		.uleb128 0x13
 492 0203 A9000000 		.4byte	0xa9
 493 0207 00       		.byte	0
 494 0208 00       		.byte	0
 495              		.section	.debug_abbrev,"",%progbits
 496              	.Ldebug_abbrev0:
 497 0000 01       		.uleb128 0x1
 498 0001 11       		.uleb128 0x11
 499 0002 01       		.byte	0x1
 500 0003 25       		.uleb128 0x25
 501 0004 0E       		.uleb128 0xe
 502 0005 13       		.uleb128 0x13
 503 0006 0B       		.uleb128 0xb
 504 0007 03       		.uleb128 0x3
 505 0008 0E       		.uleb128 0xe
 506 0009 1B       		.uleb128 0x1b
 507 000a 0E       		.uleb128 0xe
 508 000b 11       		.uleb128 0x11
 509 000c 01       		.uleb128 0x1
 510 000d 12       		.uleb128 0x12
 511 000e 06       		.uleb128 0x6
ARM GAS  /tmp/cc0DCpQG.s 			page 10


 512 000f 10       		.uleb128 0x10
 513 0010 17       		.uleb128 0x17
 514 0011 00       		.byte	0
 515 0012 00       		.byte	0
 516 0013 02       		.uleb128 0x2
 517 0014 24       		.uleb128 0x24
 518 0015 00       		.byte	0
 519 0016 0B       		.uleb128 0xb
 520 0017 0B       		.uleb128 0xb
 521 0018 3E       		.uleb128 0x3e
 522 0019 0B       		.uleb128 0xb
 523 001a 03       		.uleb128 0x3
 524 001b 08       		.uleb128 0x8
 525 001c 00       		.byte	0
 526 001d 00       		.byte	0
 527 001e 03       		.uleb128 0x3
 528 001f 16       		.uleb128 0x16
 529 0020 00       		.byte	0
 530 0021 03       		.uleb128 0x3
 531 0022 0E       		.uleb128 0xe
 532 0023 3A       		.uleb128 0x3a
 533 0024 0B       		.uleb128 0xb
 534 0025 3B       		.uleb128 0x3b
 535 0026 0B       		.uleb128 0xb
 536 0027 49       		.uleb128 0x49
 537 0028 13       		.uleb128 0x13
 538 0029 00       		.byte	0
 539 002a 00       		.byte	0
 540 002b 04       		.uleb128 0x4
 541 002c 24       		.uleb128 0x24
 542 002d 00       		.byte	0
 543 002e 0B       		.uleb128 0xb
 544 002f 0B       		.uleb128 0xb
 545 0030 3E       		.uleb128 0x3e
 546 0031 0B       		.uleb128 0xb
 547 0032 03       		.uleb128 0x3
 548 0033 0E       		.uleb128 0xe
 549 0034 00       		.byte	0
 550 0035 00       		.byte	0
 551 0036 05       		.uleb128 0x5
 552 0037 0F       		.uleb128 0xf
 553 0038 00       		.byte	0
 554 0039 0B       		.uleb128 0xb
 555 003a 0B       		.uleb128 0xb
 556 003b 00       		.byte	0
 557 003c 00       		.byte	0
 558 003d 06       		.uleb128 0x6
 559 003e 0F       		.uleb128 0xf
 560 003f 00       		.byte	0
 561 0040 0B       		.uleb128 0xb
 562 0041 0B       		.uleb128 0xb
 563 0042 49       		.uleb128 0x49
 564 0043 13       		.uleb128 0x13
 565 0044 00       		.byte	0
 566 0045 00       		.byte	0
 567 0046 07       		.uleb128 0x7
 568 0047 26       		.uleb128 0x26
ARM GAS  /tmp/cc0DCpQG.s 			page 11


 569 0048 00       		.byte	0
 570 0049 49       		.uleb128 0x49
 571 004a 13       		.uleb128 0x13
 572 004b 00       		.byte	0
 573 004c 00       		.byte	0
 574 004d 08       		.uleb128 0x8
 575 004e 2E       		.uleb128 0x2e
 576 004f 01       		.byte	0x1
 577 0050 3F       		.uleb128 0x3f
 578 0051 19       		.uleb128 0x19
 579 0052 03       		.uleb128 0x3
 580 0053 0E       		.uleb128 0xe
 581 0054 3A       		.uleb128 0x3a
 582 0055 0B       		.uleb128 0xb
 583 0056 3B       		.uleb128 0x3b
 584 0057 0B       		.uleb128 0xb
 585 0058 27       		.uleb128 0x27
 586 0059 19       		.uleb128 0x19
 587 005a 11       		.uleb128 0x11
 588 005b 01       		.uleb128 0x1
 589 005c 12       		.uleb128 0x12
 590 005d 06       		.uleb128 0x6
 591 005e 40       		.uleb128 0x40
 592 005f 18       		.uleb128 0x18
 593 0060 9742     		.uleb128 0x2117
 594 0062 19       		.uleb128 0x19
 595 0063 01       		.uleb128 0x1
 596 0064 13       		.uleb128 0x13
 597 0065 00       		.byte	0
 598 0066 00       		.byte	0
 599 0067 09       		.uleb128 0x9
 600 0068 05       		.uleb128 0x5
 601 0069 00       		.byte	0
 602 006a 03       		.uleb128 0x3
 603 006b 0E       		.uleb128 0xe
 604 006c 3A       		.uleb128 0x3a
 605 006d 0B       		.uleb128 0xb
 606 006e 3B       		.uleb128 0x3b
 607 006f 0B       		.uleb128 0xb
 608 0070 49       		.uleb128 0x49
 609 0071 13       		.uleb128 0x13
 610 0072 02       		.uleb128 0x2
 611 0073 18       		.uleb128 0x18
 612 0074 00       		.byte	0
 613 0075 00       		.byte	0
 614 0076 0A       		.uleb128 0xa
 615 0077 2E       		.uleb128 0x2e
 616 0078 01       		.byte	0x1
 617 0079 3F       		.uleb128 0x3f
 618 007a 19       		.uleb128 0x19
 619 007b 03       		.uleb128 0x3
 620 007c 0E       		.uleb128 0xe
 621 007d 3A       		.uleb128 0x3a
 622 007e 0B       		.uleb128 0xb
 623 007f 3B       		.uleb128 0x3b
 624 0080 0B       		.uleb128 0xb
 625 0081 27       		.uleb128 0x27
ARM GAS  /tmp/cc0DCpQG.s 			page 12


 626 0082 19       		.uleb128 0x19
 627 0083 49       		.uleb128 0x49
 628 0084 13       		.uleb128 0x13
 629 0085 11       		.uleb128 0x11
 630 0086 01       		.uleb128 0x1
 631 0087 12       		.uleb128 0x12
 632 0088 06       		.uleb128 0x6
 633 0089 40       		.uleb128 0x40
 634 008a 18       		.uleb128 0x18
 635 008b 9742     		.uleb128 0x2117
 636 008d 19       		.uleb128 0x19
 637 008e 01       		.uleb128 0x1
 638 008f 13       		.uleb128 0x13
 639 0090 00       		.byte	0
 640 0091 00       		.byte	0
 641 0092 0B       		.uleb128 0xb
 642 0093 05       		.uleb128 0x5
 643 0094 00       		.byte	0
 644 0095 03       		.uleb128 0x3
 645 0096 0E       		.uleb128 0xe
 646 0097 3A       		.uleb128 0x3a
 647 0098 0B       		.uleb128 0xb
 648 0099 3B       		.uleb128 0x3b
 649 009a 0B       		.uleb128 0xb
 650 009b 49       		.uleb128 0x49
 651 009c 13       		.uleb128 0x13
 652 009d 02       		.uleb128 0x2
 653 009e 17       		.uleb128 0x17
 654 009f 00       		.byte	0
 655 00a0 00       		.byte	0
 656 00a1 0C       		.uleb128 0xc
 657 00a2 898201   		.uleb128 0x4109
 658 00a5 01       		.byte	0x1
 659 00a6 11       		.uleb128 0x11
 660 00a7 01       		.uleb128 0x1
 661 00a8 31       		.uleb128 0x31
 662 00a9 13       		.uleb128 0x13
 663 00aa 01       		.uleb128 0x1
 664 00ab 13       		.uleb128 0x13
 665 00ac 00       		.byte	0
 666 00ad 00       		.byte	0
 667 00ae 0D       		.uleb128 0xd
 668 00af 8A8201   		.uleb128 0x410a
 669 00b2 00       		.byte	0
 670 00b3 02       		.uleb128 0x2
 671 00b4 18       		.uleb128 0x18
 672 00b5 9142     		.uleb128 0x2111
 673 00b7 18       		.uleb128 0x18
 674 00b8 00       		.byte	0
 675 00b9 00       		.byte	0
 676 00ba 0E       		.uleb128 0xe
 677 00bb 898201   		.uleb128 0x4109
 678 00be 01       		.byte	0x1
 679 00bf 11       		.uleb128 0x11
 680 00c0 01       		.uleb128 0x1
 681 00c1 31       		.uleb128 0x31
 682 00c2 13       		.uleb128 0x13
ARM GAS  /tmp/cc0DCpQG.s 			page 13


 683 00c3 00       		.byte	0
 684 00c4 00       		.byte	0
 685 00c5 0F       		.uleb128 0xf
 686 00c6 05       		.uleb128 0x5
 687 00c7 00       		.byte	0
 688 00c8 03       		.uleb128 0x3
 689 00c9 08       		.uleb128 0x8
 690 00ca 3A       		.uleb128 0x3a
 691 00cb 0B       		.uleb128 0xb
 692 00cc 3B       		.uleb128 0x3b
 693 00cd 0B       		.uleb128 0xb
 694 00ce 49       		.uleb128 0x49
 695 00cf 13       		.uleb128 0x13
 696 00d0 02       		.uleb128 0x2
 697 00d1 17       		.uleb128 0x17
 698 00d2 00       		.byte	0
 699 00d3 00       		.byte	0
 700 00d4 10       		.uleb128 0x10
 701 00d5 2E       		.uleb128 0x2e
 702 00d6 00       		.byte	0
 703 00d7 3F       		.uleb128 0x3f
 704 00d8 19       		.uleb128 0x19
 705 00d9 03       		.uleb128 0x3
 706 00da 0E       		.uleb128 0xe
 707 00db 3A       		.uleb128 0x3a
 708 00dc 0B       		.uleb128 0xb
 709 00dd 3B       		.uleb128 0x3b
 710 00de 0B       		.uleb128 0xb
 711 00df 27       		.uleb128 0x27
 712 00e0 19       		.uleb128 0x19
 713 00e1 49       		.uleb128 0x49
 714 00e2 13       		.uleb128 0x13
 715 00e3 11       		.uleb128 0x11
 716 00e4 01       		.uleb128 0x1
 717 00e5 12       		.uleb128 0x12
 718 00e6 06       		.uleb128 0x6
 719 00e7 40       		.uleb128 0x40
 720 00e8 18       		.uleb128 0x18
 721 00e9 9742     		.uleb128 0x2117
 722 00eb 19       		.uleb128 0x19
 723 00ec 00       		.byte	0
 724 00ed 00       		.byte	0
 725 00ee 11       		.uleb128 0x11
 726 00ef 34       		.uleb128 0x34
 727 00f0 00       		.byte	0
 728 00f1 03       		.uleb128 0x3
 729 00f2 0E       		.uleb128 0xe
 730 00f3 3A       		.uleb128 0x3a
 731 00f4 0B       		.uleb128 0xb
 732 00f5 3B       		.uleb128 0x3b
 733 00f6 0B       		.uleb128 0xb
 734 00f7 49       		.uleb128 0x49
 735 00f8 13       		.uleb128 0x13
 736 00f9 02       		.uleb128 0x2
 737 00fa 18       		.uleb128 0x18
 738 00fb 00       		.byte	0
 739 00fc 00       		.byte	0
ARM GAS  /tmp/cc0DCpQG.s 			page 14


 740 00fd 12       		.uleb128 0x12
 741 00fe 2E       		.uleb128 0x2e
 742 00ff 01       		.byte	0x1
 743 0100 3F       		.uleb128 0x3f
 744 0101 19       		.uleb128 0x19
 745 0102 03       		.uleb128 0x3
 746 0103 0E       		.uleb128 0xe
 747 0104 3A       		.uleb128 0x3a
 748 0105 0B       		.uleb128 0xb
 749 0106 3B       		.uleb128 0x3b
 750 0107 0B       		.uleb128 0xb
 751 0108 27       		.uleb128 0x27
 752 0109 19       		.uleb128 0x19
 753 010a 3C       		.uleb128 0x3c
 754 010b 19       		.uleb128 0x19
 755 010c 01       		.uleb128 0x1
 756 010d 13       		.uleb128 0x13
 757 010e 00       		.byte	0
 758 010f 00       		.byte	0
 759 0110 13       		.uleb128 0x13
 760 0111 05       		.uleb128 0x5
 761 0112 00       		.byte	0
 762 0113 49       		.uleb128 0x49
 763 0114 13       		.uleb128 0x13
 764 0115 00       		.byte	0
 765 0116 00       		.byte	0
 766 0117 14       		.uleb128 0x14
 767 0118 2E       		.uleb128 0x2e
 768 0119 01       		.byte	0x1
 769 011a 3F       		.uleb128 0x3f
 770 011b 19       		.uleb128 0x19
 771 011c 03       		.uleb128 0x3
 772 011d 0E       		.uleb128 0xe
 773 011e 3A       		.uleb128 0x3a
 774 011f 0B       		.uleb128 0xb
 775 0120 3B       		.uleb128 0x3b
 776 0121 05       		.uleb128 0x5
 777 0122 27       		.uleb128 0x27
 778 0123 19       		.uleb128 0x19
 779 0124 3C       		.uleb128 0x3c
 780 0125 19       		.uleb128 0x19
 781 0126 00       		.byte	0
 782 0127 00       		.byte	0
 783 0128 00       		.byte	0
 784              		.section	.debug_loc,"",%progbits
 785              	.Ldebug_loc0:
 786              	.LLST0:
 787 0000 20000000 		.4byte	.LVL1-.Ltext0
 788 0004 2E000000 		.4byte	.LVL2-.Ltext0
 789 0008 0100     		.2byte	0x1
 790 000a 50       		.byte	0x50
 791 000b 2E000000 		.4byte	.LVL2-.Ltext0
 792 000f 30000000 		.4byte	.LVL3-.Ltext0
 793 0013 0400     		.2byte	0x4
 794 0015 F3       		.byte	0xf3
 795 0016 01       		.uleb128 0x1
 796 0017 50       		.byte	0x50
ARM GAS  /tmp/cc0DCpQG.s 			page 15


 797 0018 9F       		.byte	0x9f
 798 0019 30000000 		.4byte	.LVL3-.Ltext0
 799 001d 46000000 		.4byte	.LVL4-.Ltext0
 800 0021 0100     		.2byte	0x1
 801 0023 50       		.byte	0x50
 802 0024 46000000 		.4byte	.LVL4-.Ltext0
 803 0028 48000000 		.4byte	.LVL5-.Ltext0
 804 002c 3900     		.2byte	0x39
 805 002e F3       		.byte	0xf3
 806 002f 01       		.uleb128 0x1
 807 0030 50       		.byte	0x50
 808 0031 09       		.byte	0x9
 809 0032 FC       		.byte	0xfc
 810 0033 1A       		.byte	0x1a
 811 0034 F3       		.byte	0xf3
 812 0035 01       		.uleb128 0x1
 813 0036 50       		.byte	0x50
 814 0037 F3       		.byte	0xf3
 815 0038 01       		.uleb128 0x1
 816 0039 50       		.byte	0x50
 817 003a 4E       		.byte	0x4e
 818 003b 24       		.byte	0x24
 819 003c 30       		.byte	0x30
 820 003d 2E       		.byte	0x2e
 821 003e 28       		.byte	0x28
 822 003f 0100     		.2byte	0x1
 823 0041 16       		.byte	0x16
 824 0042 13       		.byte	0x13
 825 0043 23       		.byte	0x23
 826 0044 04       		.uleb128 0x4
 827 0045 F3       		.byte	0xf3
 828 0046 01       		.uleb128 0x1
 829 0047 50       		.byte	0x50
 830 0048 09       		.byte	0x9
 831 0049 FC       		.byte	0xfc
 832 004a 1A       		.byte	0x1a
 833 004b F3       		.byte	0xf3
 834 004c 01       		.uleb128 0x1
 835 004d 50       		.byte	0x50
 836 004e F3       		.byte	0xf3
 837 004f 01       		.uleb128 0x1
 838 0050 50       		.byte	0x50
 839 0051 4E       		.byte	0x4e
 840 0052 24       		.byte	0x24
 841 0053 30       		.byte	0x30
 842 0054 2E       		.byte	0x2e
 843 0055 28       		.byte	0x28
 844 0056 0100     		.2byte	0x1
 845 0058 16       		.byte	0x16
 846 0059 13       		.byte	0x13
 847 005a F3       		.byte	0xf3
 848 005b 01       		.uleb128 0x1
 849 005c 50       		.byte	0x50
 850 005d 4E       		.byte	0x4e
 851 005e 24       		.byte	0x24
 852 005f 30       		.byte	0x30
 853 0060 2E       		.byte	0x2e
ARM GAS  /tmp/cc0DCpQG.s 			page 16


 854 0061 28       		.byte	0x28
 855 0062 0100     		.2byte	0x1
 856 0064 16       		.byte	0x16
 857 0065 13       		.byte	0x13
 858 0066 9F       		.byte	0x9f
 859 0067 48000000 		.4byte	.LVL5-.Ltext0
 860 006b 4A000000 		.4byte	.LVL6-.Ltext0
 861 006f 0100     		.2byte	0x1
 862 0071 50       		.byte	0x50
 863 0072 4A000000 		.4byte	.LVL6-.Ltext0
 864 0076 64000000 		.4byte	.LFE8-.Ltext0
 865 007a 3900     		.2byte	0x39
 866 007c F3       		.byte	0xf3
 867 007d 01       		.uleb128 0x1
 868 007e 50       		.byte	0x50
 869 007f 09       		.byte	0x9
 870 0080 FC       		.byte	0xfc
 871 0081 1A       		.byte	0x1a
 872 0082 F3       		.byte	0xf3
 873 0083 01       		.uleb128 0x1
 874 0084 50       		.byte	0x50
 875 0085 F3       		.byte	0xf3
 876 0086 01       		.uleb128 0x1
 877 0087 50       		.byte	0x50
 878 0088 4E       		.byte	0x4e
 879 0089 24       		.byte	0x24
 880 008a 30       		.byte	0x30
 881 008b 2E       		.byte	0x2e
 882 008c 28       		.byte	0x28
 883 008d 0100     		.2byte	0x1
 884 008f 16       		.byte	0x16
 885 0090 13       		.byte	0x13
 886 0091 23       		.byte	0x23
 887 0092 04       		.uleb128 0x4
 888 0093 F3       		.byte	0xf3
 889 0094 01       		.uleb128 0x1
 890 0095 50       		.byte	0x50
 891 0096 09       		.byte	0x9
 892 0097 FC       		.byte	0xfc
 893 0098 1A       		.byte	0x1a
 894 0099 F3       		.byte	0xf3
 895 009a 01       		.uleb128 0x1
 896 009b 50       		.byte	0x50
 897 009c F3       		.byte	0xf3
 898 009d 01       		.uleb128 0x1
 899 009e 50       		.byte	0x50
 900 009f 4E       		.byte	0x4e
 901 00a0 24       		.byte	0x24
 902 00a1 30       		.byte	0x30
 903 00a2 2E       		.byte	0x2e
 904 00a3 28       		.byte	0x28
 905 00a4 0100     		.2byte	0x1
 906 00a6 16       		.byte	0x16
 907 00a7 13       		.byte	0x13
 908 00a8 F3       		.byte	0xf3
 909 00a9 01       		.uleb128 0x1
 910 00aa 50       		.byte	0x50
ARM GAS  /tmp/cc0DCpQG.s 			page 17


 911 00ab 4E       		.byte	0x4e
 912 00ac 24       		.byte	0x24
 913 00ad 30       		.byte	0x30
 914 00ae 2E       		.byte	0x2e
 915 00af 28       		.byte	0x28
 916 00b0 0100     		.2byte	0x1
 917 00b2 16       		.byte	0x16
 918 00b3 13       		.byte	0x13
 919 00b4 9F       		.byte	0x9f
 920 00b5 00000000 		.4byte	0
 921 00b9 00000000 		.4byte	0
 922              	.LLST1:
 923 00bd 70000000 		.4byte	.LVL9-.Ltext0
 924 00c1 82000000 		.4byte	.LVL10-.Ltext0
 925 00c5 0100     		.2byte	0x1
 926 00c7 50       		.byte	0x50
 927 00c8 82000000 		.4byte	.LVL10-.Ltext0
 928 00cc 8C000000 		.4byte	.LFE9-.Ltext0
 929 00d0 0500     		.2byte	0x5
 930 00d2 03       		.byte	0x3
 931 00d3 04000000 		.4byte	sdram_current_addr
 932 00d7 00000000 		.4byte	0
 933 00db 00000000 		.4byte	0
 934              		.section	.debug_aranges,"",%progbits
 935 0000 1C000000 		.4byte	0x1c
 936 0004 0200     		.2byte	0x2
 937 0006 00000000 		.4byte	.Ldebug_info0
 938 000a 04       		.byte	0x4
 939 000b 00       		.byte	0
 940 000c 0000     		.2byte	0
 941 000e 0000     		.2byte	0
 942 0010 00000000 		.4byte	.Ltext0
 943 0014 9C000000 		.4byte	.Letext0-.Ltext0
 944 0018 00000000 		.4byte	0
 945 001c 00000000 		.4byte	0
 946              		.section	.debug_line,"",%progbits
 947              	.Ldebug_line0:
 948 0000 D4020000 		.section	.debug_str,"MS",%progbits,1
 948      02009902 
 948      00000201 
 948      FB0E0D00 
 948      01010101 
 949              	.LASF26:
 950 0000 73647261 		.ascii	"sdram_end_addr\000"
 950      6D5F656E 
 950      645F6164 
 950      647200
 951              	.LASF5:
 952 000f 73697A65 		.ascii	"size_t\000"
 952      5F7400
 953              	.LASF33:
 954 0016 7265706F 		.ascii	"report_patchLoadSDRamOverflow\000"
 954      72745F70 
 954      61746368 
 954      4C6F6164 
 954      53445261 
 955              	.LASF15:
ARM GAS  /tmp/cc0DCpQG.s 			page 18


 956 0034 73797374 		.ascii	"systime_t\000"
 956      696D655F 
 956      7400
 957              	.LASF6:
 958 003e 5F5F696E 		.ascii	"__int32_t\000"
 958      7433325F 
 958      7400
 959              	.LASF22:
 960 0048 73647261 		.ascii	"sdram_free\000"
 960      6D5F6672 
 960      656500
 961              	.LASF32:
 962 0053 73647261 		.ascii	"sdram_get_free\000"
 962      6D5F6765 
 962      745F6672 
 962      656500
 963              	.LASF30:
 964 0062 2F686F6D 		.ascii	"/home/sbcu/Dropbox/pcb-layouts/axo-on-discovery-boa"
 964      652F7362 
 964      63752F44 
 964      726F7062 
 964      6F782F70 
 965 0095 72642F61 		.ascii	"rd/axoloti/firmware\000"
 965      786F6C6F 
 965      74692F66 
 965      69726D77 
 965      61726500 
 966              	.LASF28:
 967 00a9 474E5520 		.ascii	"GNU C 4.9.3 20150529 (release) [ARM/embedded-4_9-br"
 967      4320342E 
 967      392E3320 
 967      32303135 
 967      30353239 
 968 00dc 616E6368 		.ascii	"anch revision 224288] -mcpu=cortex-m4 -mfloat-abi=h"
 968      20726576 
 968      6973696F 
 968      6E203232 
 968      34323838 
 969 010f 61726420 		.ascii	"ard -mfpu=fpv4-sp-d16 -mno-thumb-interwork -mthumb "
 969      2D6D6670 
 969      753D6670 
 969      76342D73 
 969      702D6431 
 970 0142 2D676764 		.ascii	"-ggdb -O2 -fomit-frame-pointer -falign-functions=16"
 970      62202D4F 
 970      32202D66 
 970      6F6D6974 
 970      2D667261 
 971 0175 202D666E 		.ascii	" -fno-math-errno -fsingle-precision-constant\000"
 971      6F2D6D61 
 971      74682D65 
 971      72726E6F 
 971      202D6673 
 972              	.LASF1:
 973 01a2 7369676E 		.ascii	"signed char\000"
 973      65642063 
 973      68617200 
ARM GAS  /tmp/cc0DCpQG.s 			page 19


 974              	.LASF20:
 975 01ae 73697A65 		.ascii	"size\000"
 975      00
 976              	.LASF34:
 977 01b3 63685468 		.ascii	"chThdSleep\000"
 977      64536C65 
 977      657000
 978              	.LASF19:
 979 01be 656E645F 		.ascii	"end_addr\000"
 979      61646472 
 979      00
 980              	.LASF9:
 981 01c7 6C6F6E67 		.ascii	"long unsigned int\000"
 981      20756E73 
 981      69676E65 
 981      6420696E 
 981      7400
 982              	.LASF2:
 983 01d9 756E7369 		.ascii	"unsigned char\000"
 983      676E6564 
 983      20636861 
 983      7200
 984              	.LASF25:
 985 01e7 73647261 		.ascii	"sdram_last_addr\000"
 985      6D5F6C61 
 985      73745F61 
 985      64647200 
 986              	.LASF8:
 987 01f7 5F5F7569 		.ascii	"__uint32_t\000"
 987      6E743332 
 987      5F7400
 988              	.LASF18:
 989 0202 62617365 		.ascii	"base_addr\000"
 989      5F616464 
 989      7200
 990              	.LASF0:
 991 020c 756E7369 		.ascii	"unsigned int\000"
 991      676E6564 
 991      20696E74 
 991      00
 992              	.LASF27:
 993 0219 73647261 		.ascii	"sdram_total_remaining\000"
 993      6D5F746F 
 993      74616C5F 
 993      72656D61 
 993      696E696E 
 994              	.LASF11:
 995 022f 6C6F6E67 		.ascii	"long long unsigned int\000"
 995      206C6F6E 
 995      6720756E 
 995      7369676E 
 995      65642069 
 996              	.LASF21:
 997 0246 73647261 		.ascii	"sdram_init\000"
 997      6D5F696E 
 997      697400
 998              	.LASF12:
ARM GAS  /tmp/cc0DCpQG.s 			page 20


 999 0251 696E7433 		.ascii	"int32_t\000"
 999      325F7400 
 1000              	.LASF16:
 1001 0259 73697A65 		.ascii	"sizetype\000"
 1001      74797065 
 1001      00
 1002              	.LASF31:
 1003 0262 73647261 		.ascii	"sdram_malloc\000"
 1003      6D5F6D61 
 1003      6C6C6F63 
 1003      00
 1004              	.LASF10:
 1005 026f 6C6F6E67 		.ascii	"long long int\000"
 1005      206C6F6E 
 1005      6720696E 
 1005      7400
 1006              	.LASF24:
 1007 027d 73647261 		.ascii	"sdram_current_addr\000"
 1007      6D5F6375 
 1007      7272656E 
 1007      745F6164 
 1007      647200
 1008              	.LASF17:
 1009 0290 63686172 		.ascii	"char\000"
 1009      00
 1010              	.LASF29:
 1011 0295 61786F6C 		.ascii	"axoloti_memory.c\000"
 1011      6F74695F 
 1011      6D656D6F 
 1011      72792E63 
 1011      00
 1012              	.LASF3:
 1013 02a6 73686F72 		.ascii	"short int\000"
 1013      7420696E 
 1013      7400
 1014              	.LASF13:
 1015 02b0 75696E74 		.ascii	"uint32_t\000"
 1015      33325F74 
 1015      00
 1016              	.LASF7:
 1017 02b9 6C6F6E67 		.ascii	"long int\000"
 1017      20696E74 
 1017      00
 1018              	.LASF23:
 1019 02c2 73647261 		.ascii	"sdram_base_addr\000"
 1019      6D5F6261 
 1019      73655F61 
 1019      64647200 
 1020              	.LASF4:
 1021 02d2 73686F72 		.ascii	"short unsigned int\000"
 1021      7420756E 
 1021      7369676E 
 1021      65642069 
 1021      6E7400
 1022              	.LASF14:
 1023 02e5 5F426F6F 		.ascii	"_Bool\000"
 1023      6C00
ARM GAS  /tmp/cc0DCpQG.s 			page 21


 1024              		.ident	"GCC: (GNU Tools for ARM Embedded Processors) 4.9.3 20150529 (release) [ARM/embedded-4_9-br
ARM GAS  /tmp/cc0DCpQG.s 			page 22


DEFINED SYMBOLS
                            *ABS*:00000000 axoloti_memory.c
     /tmp/cc0DCpQG.s:20     .text:00000000 $t
     /tmp/cc0DCpQG.s:26     .text:00000000 sdram_init
     /tmp/cc0DCpQG.s:62     .text:00000018 $d
     /tmp/cc0DCpQG.s:66     .text:0000001c $t
     /tmp/cc0DCpQG.s:72     .text:00000020 sdram_malloc
     /tmp/cc0DCpQG.s:140    .text:0000005c $d
     /tmp/cc0DCpQG.s:145    .text:00000064 $t
     /tmp/cc0DCpQG.s:151    .text:00000070 sdram_free
     /tmp/cc0DCpQG.s:180    .text:00000088 $d
     /tmp/cc0DCpQG.s:184    .text:0000008c $t
     /tmp/cc0DCpQG.s:190    .text:00000090 sdram_get_free
     /tmp/cc0DCpQG.s:205    .text:00000098 $d
     /tmp/cc0DCpQG.s:210    .rodata.str1.4:00000000 $d
     /tmp/cc0DCpQG.s:214    .bss:00000000 $d
     /tmp/cc0DCpQG.s:218    .bss:00000000 sdram_base_addr
     /tmp/cc0DCpQG.s:222    .bss:00000004 sdram_current_addr
     /tmp/cc0DCpQG.s:226    .bss:00000008 sdram_end_addr
     /tmp/cc0DCpQG.s:230    .bss:0000000c sdram_last_addr
     /tmp/cc0DCpQG.s:234    .bss:00000010 sdram_total_remaining
                     .debug_frame:00000010 $d

UNDEFINED SYMBOLS
report_patchLoadSDRamOverflow
chThdSleep
