ARM GAS  /tmp/ccZSBWjB.s 			page 1


   1              		.syntax unified
   2              		.cpu cortex-m4
   3              		.eabi_attribute 27, 1
   4              		.eabi_attribute 28, 1
   5              		.fpu fpv4-sp-d16
   6              		.eabi_attribute 20, 1
   7              		.eabi_attribute 21, 1
   8              		.eabi_attribute 23, 3
   9              		.eabi_attribute 24, 1
  10              		.eabi_attribute 25, 1
  11              		.eabi_attribute 26, 1
  12              		.eabi_attribute 30, 2
  13              		.eabi_attribute 34, 1
  14              		.eabi_attribute 18, 4
  15              		.thumb
  16              		.file	"axoloti_board.c"
  17              		.text
  18              	.Ltext0:
  19              		.cfi_sections	.debug_frame
  20              		.align	2
  21              		.p2align 4,,15
  22              		.global	axoloti_board_init
  23              		.thumb
  24              		.thumb_func
  25              		.type	axoloti_board_init, %function
  26              	axoloti_board_init:
  27              	.LFB130:
  28              		.file 1 "axoloti_board.c"
  29              		.loc 1 27 0
  30              		.cfi_startproc
  31              		@ args = 0, pretend = 0, frame = 0
  32              		@ frame_needed = 0, uses_anonymous_args = 0
  33              		@ link register save eliminated.
  34              		.loc 1 28 0
  35 0000 0148     		ldr	r0, .L2
  36 0002 FFF7FEBF 		b	chMtxInit
  37              	.LVL0:
  38              	.L3:
  39 0006 00BF     		.align	2
  40              	.L2:
  41 0008 00000000 		.word	Mutex_DMAStream_1_7
  42              		.cfi_endproc
  43              	.LFE130:
  44              		.size	axoloti_board_init, .-axoloti_board_init
  45              		.align	2
  46 000c AFF30080 		.p2align 4,,15
  47              		.global	adc_configpads
  48              		.thumb
  49              		.thumb_func
  50              		.type	adc_configpads, %function
  51              	adc_configpads:
  52              	.LFB132:
  53              		.loc 1 44 0
  54              		.cfi_startproc
  55              		@ args = 0, pretend = 0, frame = 0
  56              		@ frame_needed = 0, uses_anonymous_args = 0
  57 0010 70B5     		push	{r4, r5, r6, lr}
ARM GAS  /tmp/ccZSBWjB.s 			page 2


  58              		.cfi_def_cfa_offset 16
  59              		.cfi_offset 4, -16
  60              		.cfi_offset 5, -12
  61              		.cfi_offset 6, -8
  62              		.cfi_offset 14, -4
  63              		.loc 1 45 0
  64 0012 274C     		ldr	r4, .L6
  65              		.loc 1 56 0
  66 0014 274E     		ldr	r6, .L6+4
  67              		.loc 1 59 0
  68 0016 284D     		ldr	r5, .L6+8
  69              		.loc 1 45 0
  70 0018 2046     		mov	r0, r4
  71 001a 0121     		movs	r1, #1
  72 001c 0322     		movs	r2, #3
  73 001e FFF7FEFF 		bl	_pal_lld_setgroupmode
  74              	.LVL1:
  75              		.loc 1 46 0
  76 0022 2046     		mov	r0, r4
  77 0024 0221     		movs	r1, #2
  78 0026 0322     		movs	r2, #3
  79 0028 FFF7FEFF 		bl	_pal_lld_setgroupmode
  80              	.LVL2:
  81              		.loc 1 48 0
  82 002c 2046     		mov	r0, r4
  83 002e 0421     		movs	r1, #4
  84 0030 0322     		movs	r2, #3
  85 0032 FFF7FEFF 		bl	_pal_lld_setgroupmode
  86              	.LVL3:
  87              		.loc 1 49 0
  88 0036 2046     		mov	r0, r4
  89 0038 0821     		movs	r1, #8
  90 003a 0322     		movs	r2, #3
  91 003c FFF7FEFF 		bl	_pal_lld_setgroupmode
  92              	.LVL4:
  93              		.loc 1 53 0
  94 0040 2046     		mov	r0, r4
  95 0042 2021     		movs	r1, #32
  96 0044 0322     		movs	r2, #3
  97 0046 FFF7FEFF 		bl	_pal_lld_setgroupmode
  98              	.LVL5:
  99              		.loc 1 54 0
 100 004a 2046     		mov	r0, r4
 101 004c 4021     		movs	r1, #64
 102 004e 0322     		movs	r2, #3
 103 0050 FFF7FEFF 		bl	_pal_lld_setgroupmode
 104              	.LVL6:
 105              		.loc 1 55 0
 106 0054 2046     		mov	r0, r4
 107 0056 8021     		movs	r1, #128
 108 0058 0322     		movs	r2, #3
 109 005a FFF7FEFF 		bl	_pal_lld_setgroupmode
 110              	.LVL7:
 111              		.loc 1 56 0
 112 005e 3046     		mov	r0, r6
 113 0060 0121     		movs	r1, #1
 114 0062 0322     		movs	r2, #3
ARM GAS  /tmp/ccZSBWjB.s 			page 3


 115 0064 FFF7FEFF 		bl	_pal_lld_setgroupmode
 116              	.LVL8:
 117              		.loc 1 57 0
 118 0068 3046     		mov	r0, r6
 119 006a 0221     		movs	r1, #2
 120 006c 0322     		movs	r2, #3
 121 006e FFF7FEFF 		bl	_pal_lld_setgroupmode
 122              	.LVL9:
 123              		.loc 1 59 0
 124 0072 2846     		mov	r0, r5
 125 0074 0221     		movs	r1, #2
 126 0076 0322     		movs	r2, #3
 127 0078 FFF7FEFF 		bl	_pal_lld_setgroupmode
 128              	.LVL10:
 129              		.loc 1 60 0
 130 007c 2846     		mov	r0, r5
 131 007e 0421     		movs	r1, #4
 132 0080 0322     		movs	r2, #3
 133 0082 FFF7FEFF 		bl	_pal_lld_setgroupmode
 134              	.LVL11:
 135              		.loc 1 61 0
 136 0086 2846     		mov	r0, r5
 137 0088 0821     		movs	r1, #8
 138 008a 0322     		movs	r2, #3
 139 008c FFF7FEFF 		bl	_pal_lld_setgroupmode
 140              	.LVL12:
 141              		.loc 1 62 0
 142 0090 2846     		mov	r0, r5
 143 0092 1021     		movs	r1, #16
 144 0094 0322     		movs	r2, #3
 145 0096 FFF7FEFF 		bl	_pal_lld_setgroupmode
 146              	.LVL13:
 147              		.loc 1 63 0
 148 009a 2846     		mov	r0, r5
 149 009c 2021     		movs	r1, #32
 150 009e 0322     		movs	r2, #3
 151 00a0 FFF7FEFF 		bl	_pal_lld_setgroupmode
 152              	.LVL14:
 153              		.loc 1 64 0
 154 00a4 0548     		ldr	r0, .L6+12
 155 00a6 0021     		movs	r1, #0
 156              		.loc 1 65 0
 157 00a8 BDE87040 		pop	{r4, r5, r6, lr}
 158              		.cfi_restore 14
 159              		.cfi_restore 6
 160              		.cfi_restore 5
 161              		.cfi_restore 4
 162              		.cfi_def_cfa_offset 0
 163              		.loc 1 64 0
 164 00ac FFF7FEBF 		b	adcStart
 165              	.LVL15:
 166              	.L7:
 167              		.align	2
 168              	.L6:
 169 00b0 00000240 		.word	1073872896
 170 00b4 00040240 		.word	1073873920
 171 00b8 00080240 		.word	1073874944
ARM GAS  /tmp/ccZSBWjB.s 			page 4


 172 00bc 00000000 		.word	ADCD1
 173              		.cfi_endproc
 174              	.LFE132:
 175              		.size	adc_configpads, .-adc_configpads
 176              		.align	2
 177              		.p2align 4,,15
 178              		.global	adc_init
 179              		.thumb
 180              		.thumb_func
 181              		.type	adc_init, %function
 182              	adc_init:
 183              	.LFB131:
 184              		.loc 1 38 0
 185              		.cfi_startproc
 186              		@ args = 0, pretend = 0, frame = 0
 187              		@ frame_needed = 0, uses_anonymous_args = 0
 188 00c0 08B5     		push	{r3, lr}
 189              		.cfi_def_cfa_offset 8
 190              		.cfi_offset 3, -8
 191              		.cfi_offset 14, -4
 192              		.loc 1 39 0
 193 00c2 FFF7FEFF 		bl	adc_configpads
 194              	.LVL16:
 195              		.loc 1 40 0
 196 00c6 0448     		ldr	r0, .L10
 197 00c8 0021     		movs	r1, #0
 198 00ca FFF7FEFF 		bl	adcStart
 199              	.LVL17:
 200              		.loc 1 42 0
 201 00ce BDE80840 		pop	{r3, lr}
 202              		.cfi_restore 14
 203              		.cfi_restore 3
 204              		.cfi_def_cfa_offset 0
 205              		.loc 1 41 0
 206 00d2 FFF7FEBF 		b	adcSTM32EnableTSVREFE
 207              	.LVL18:
 208              	.L11:
 209 00d6 00BF     		.align	2
 210              	.L10:
 211 00d8 00000000 		.word	ADCD1
 212              		.cfi_endproc
 213              	.LFE131:
 214              		.size	adc_init, .-adc_init
 215              		.align	2
 216 00dc AFF30080 		.p2align 4,,15
 217              		.global	adc_convert
 218              		.thumb
 219              		.thumb_func
 220              		.type	adc_convert, %function
 221              	adc_convert:
 222              	.LFB133:
 223              		.loc 1 103 0
 224              		.cfi_startproc
 225              		@ args = 0, pretend = 0, frame = 0
 226              		@ frame_needed = 0, uses_anonymous_args = 0
 227 00e0 10B5     		push	{r4, lr}
 228              		.cfi_def_cfa_offset 8
ARM GAS  /tmp/ccZSBWjB.s 			page 5


 229              		.cfi_offset 4, -8
 230              		.cfi_offset 14, -4
 231              		.loc 1 104 0
 232 00e2 064C     		ldr	r4, .L14
 233 00e4 2046     		mov	r0, r4
 234 00e6 FFF7FEFF 		bl	adcStopConversion
 235              	.LVL19:
 236              		.loc 1 105 0
 237 00ea 2046     		mov	r0, r4
 238 00ec 0449     		ldr	r1, .L14+4
 239 00ee 054A     		ldr	r2, .L14+8
 240 00f0 0123     		movs	r3, #1
 241              		.loc 1 106 0
 242 00f2 BDE81040 		pop	{r4, lr}
 243              		.cfi_restore 14
 244              		.cfi_restore 4
 245              		.cfi_def_cfa_offset 0
 246              		.loc 1 105 0
 247 00f6 FFF7FEBF 		b	adcStartConversion
 248              	.LVL20:
 249              	.L15:
 250 00fa 00BF     		.align	2
 251              	.L14:
 252 00fc 00000000 		.word	ADCD1
 253 0100 00000000 		.word	.LANCHOR0
 254 0104 00000000 		.word	.LANCHOR1
 255              		.cfi_endproc
 256              	.LFE133:
 257              		.size	adc_convert, .-adc_convert
 258              		.global	adcvalues
 259              		.comm	Mutex_DMAStream_1_7,16,4
 260              		.section	.rodata
 261              		.align	2
 262              		.set	.LANCHOR0,. + 0
 263              		.type	adcgrpcfg1, %object
 264              		.size	adcgrpcfg1, 40
 265              	adcgrpcfg1:
 266 0000 00       		.byte	0
 267 0001 00       		.space	1
 268 0002 1000     		.short	16
 269 0004 00000000 		.word	0
 270 0008 00000000 		.word	0
 271 000c 00000000 		.word	0
 272 0010 00000040 		.word	1073741824
 273 0014 2449DA00 		.word	14305572
 274 0018 24499224 		.word	613566756
 275 001c ACB9F800 		.word	16300460
 276 0020 E6A0A416 		.word	379887846
 277 0024 2088410A 		.word	172066848
 278              		.section	.sram2,"aw",%progbits
 279              		.align	2
 280              		.set	.LANCHOR1,. + 0
 281              		.type	adcvalues, %object
 282              		.size	adcvalues, 32
 283              	adcvalues:
 284 0000 00000000 		.space	32
 284      00000000 
ARM GAS  /tmp/ccZSBWjB.s 			page 6


 284      00000000 
 284      00000000 
 284      00000000 
 285              		.text
 286              	.Letext0:
 287              		.file 2 "/home/sbcu/Dropbox/pcb-layouts/axo-on-discovery-board/axoloti/platform_linux/lib/gcc/arm-
 288              		.file 3 "/home/sbcu/Dropbox/pcb-layouts/axo-on-discovery-board/axoloti/platform_linux/arm-none-eab
 289              		.file 4 "/home/sbcu/Dropbox/pcb-layouts/axo-on-discovery-board/axoloti/platform_linux/arm-none-eab
 290              		.file 5 "/home/sbcu/Dropbox/pcb-layouts/axo-on-discovery-board/axoloti/platform_linux/../chibios/o
 291              		.file 6 "/home/sbcu/Dropbox/pcb-layouts/axo-on-discovery-board/axoloti/platform_linux/../chibios/o
 292              		.file 7 "/home/sbcu/Dropbox/pcb-layouts/axo-on-discovery-board/axoloti/platform_linux/../chibios/o
 293              		.file 8 "/home/sbcu/Dropbox/pcb-layouts/axo-on-discovery-board/axoloti/platform_linux/../chibios/o
 294              		.file 9 "/home/sbcu/Dropbox/pcb-layouts/axo-on-discovery-board/axoloti/platform_linux/../chibios/o
 295              		.file 10 "/home/sbcu/Dropbox/pcb-layouts/axo-on-discovery-board/axoloti/platform_linux/../chibios/
 296              		.file 11 "/home/sbcu/Dropbox/pcb-layouts/axo-on-discovery-board/axoloti/platform_linux/../chibios/
 297              		.file 12 "/home/sbcu/Dropbox/pcb-layouts/axo-on-discovery-board/axoloti/platform_linux/../chibios/
 298              		.file 13 "/home/sbcu/Dropbox/pcb-layouts/axo-on-discovery-board/axoloti/platform_linux/../chibios/
 299              		.file 14 "/home/sbcu/Dropbox/pcb-layouts/axo-on-discovery-board/axoloti/platform_linux/../chibios/
 300              		.file 15 "/home/sbcu/Dropbox/pcb-layouts/axo-on-discovery-board/axoloti/platform_linux/../CMSIS//I