ARM GAS  /tmp/cc2QxYnP.s 			page 1


   1              		.syntax unified
   2              		.cpu cortex-m4
   3              		.eabi_attribute 27, 1
   4              		.eabi_attribute 28, 1
   5              		.fpu fpv4-sp-d16
   6              		.eabi_attribute 20, 1
   7              		.eabi_attribute 21, 1
   8              		.eabi_attribute 23, 3
   9              		.eabi_attribute 24, 1
  10              		.eabi_attribute 25, 1
  11              		.eabi_attribute 26, 1
  12              		.eabi_attribute 30, 2
  13              		.eabi_attribute 34, 1
  14              		.eabi_attribute 18, 4
  15              		.thumb
  16              		.file	"axoloti_control.c"
  17              		.text
  18              	.Ltext0:
  19              		.cfi_sections	.debug_frame
  20              		.align	2
  21              		.p2align 4,,15
  22              		.global	do_axoloti_control
  23              		.thumb
  24              		.thumb_func
  25              		.type	do_axoloti_control, %function
  26              	do_axoloti_control:
  27              	.LFB130:
  28              		.file 1 "axoloti_control.c"
  29              		.loc 1 38 0
  30              		.cfi_startproc
  31              		@ args = 0, pretend = 0, frame = 0
  32              		@ frame_needed = 0, uses_anonymous_args = 0
  33 0000 2DE9F84F 		push	{r3, r4, r5, r6, r7, r8, r9, r10, fp, lr}
  34              		.cfi_def_cfa_offset 40
  35              		.cfi_offset 3, -40
  36              		.cfi_offset 4, -36
  37              		.cfi_offset 5, -32
  38              		.cfi_offset 6, -28
  39              		.cfi_offset 7, -24
  40              		.cfi_offset 8, -20
  41              		.cfi_offset 9, -16
  42              		.cfi_offset 10, -12
  43              		.cfi_offset 11, -8
  44              		.cfi_offset 14, -4
  45              		.loc 1 39 0
  46 0004 3B4C     		ldr	r4, .L10
  47 0006 2378     		ldrb	r3, [r4]	@ zero_extendqisi2
  48 0008 0133     		adds	r3, r3, #1
  49 000a DBB2     		uxtb	r3, r3
  50              		.loc 1 40 0
  51 000c 092B     		cmp	r3, #9
  52 000e 6AD0     		beq	.L2
  53              		.loc 1 39 0
  54 0010 2370     		strb	r3, [r4]
  55              	.L3:
  56              		.loc 1 44 0
  57 0012 3948     		ldr	r0, .L10+4
ARM GAS  /tmp/cc2QxYnP.s 			page 2


  58 0014 FFF7FEFF 		bl	chMtxLock
  59              	.LVL0:
  60              		.loc 1 45 0
  61 0018 3848     		ldr	r0, .L10+8
  62 001a FFF7FEFF 		bl	spiAcquireBus
  63              	.LVL1:
  64              		.loc 1 46 0
  65 001e 3849     		ldr	r1, .L10+12
  66 0020 3648     		ldr	r0, .L10+8
  67 0022 FFF7FEFF 		bl	spiStart
  68              	.LVL2:
  69              		.loc 1 47 0
  70 0026 3548     		ldr	r0, .L10+8
  71 0028 FFF7FEFF 		bl	spiSelect
  72              	.LVL3:
  73              		.loc 1 48 0
  74 002c 0220     		movs	r0, #2
  75 002e FFF7FEFF 		bl	chThdSleep
  76              	.LVL4:
  77              		.loc 1 49 0
  78 0032 2278     		ldrb	r2, [r4]	@ zero_extendqisi2
  79 0034 082A     		cmp	r2, #8
  80 0036 4CD0     		beq	.L4
  81              		.loc 1 51 0
  82 0038 324C     		ldr	r4, .L10+16
  83              		.loc 1 50 0
  84 003a 3048     		ldr	r0, .L10+8
  85              		.loc 1 51 0
  86 003c 02EB4212 		add	r2, r2, r2, lsl #5
  87              		.loc 1 50 0
  88 0040 04EB8202 		add	r2, r4, r2, lsl #2
  89 0044 04F58463 		add	r3, r4, #1056
  90 0048 8421     		movs	r1, #132
  91 004a FFF7FEFF 		bl	spiExchange
  92              	.LVL5:
  93              	.L5:
  94              		.loc 1 56 0
  95 004e 2B48     		ldr	r0, .L10+8
  96 0050 FFF7FEFF 		bl	spiUnselect
  97              	.LVL6:
  98              		.loc 1 57 0
  99 0054 2948     		ldr	r0, .L10+8
 100 0056 FFF7FEFF 		bl	spiReleaseBus
 101              	.LVL7:
 102              		.loc 1 58 0
 103 005a 2848     		ldr	r0, .L10+8
 104 005c FFF7FEFF 		bl	spiStop
 105              	.LVL8:
 106              		.loc 1 59 0
 107 0060 FFF7FEFF 		bl	chMtxUnlock
 108              	.LVL9:
 109              		.loc 1 60 0
 110 0064 94F82034 		ldrb	r3, [r4, #1056]	@ zero_extendqisi2
 111 0068 264A     		ldr	r2, .L10+16
 112 006a 422B     		cmp	r3, #66
 113 006c 01D0     		beq	.L9
 114              	.L1:
ARM GAS  /tmp/cc2QxYnP.s 			page 3


 115 006e BDE8F88F 		pop	{r3, r4, r5, r6, r7, r8, r9, r10, fp, pc}
 116              	.L9:
 117              		.loc 1 60 0 is_stmt 0 discriminator 1
 118 0072 92F82134 		ldrb	r3, [r2, #1057]	@ zero_extendqisi2
 119 0076 542B     		cmp	r3, #84
 120 0078 F9D1     		bne	.L1
 121              		.loc 1 61 0 is_stmt 1
 122 007a 92F82234 		ldrb	r3, [r2, #1058]	@ zero_extendqisi2
 123 007e 4E2B     		cmp	r3, #78
 124 0080 F5D1     		bne	.L1
 125              		.loc 1 62 0
 126 0082 214F     		ldr	r7, .L10+20
 127              		.loc 1 64 0
 128 0084 214B     		ldr	r3, .L10+24
 129              		.loc 1 63 0
 130 0086 224E     		ldr	r6, .L10+28
 131              		.loc 1 62 0
 132 0088 D2F82454 		ldr	r5, [r2, #1060]
 133              		.loc 1 63 0
 134 008c D2F82844 		ldr	r4, [r2, #1064]
 135              		.loc 1 64 0
 136 0090 92F82C04 		ldrb	r0, [r2, #1068]	@ zero_extendqisi2
 137              		.loc 1 65 0
 138 0094 92F82D14 		ldrb	r1, [r2, #1069]	@ zero_extendqisi2
 139              		.loc 1 66 0
 140 0098 92F82EC4 		ldrb	ip, [r2, #1070]	@ zero_extendqisi2
 141              		.loc 1 67 0
 142 009c 92F82FE4 		ldrb	lr, [r2, #1071]	@ zero_extendqisi2
 143              		.loc 1 62 0
 144 00a0 3A68     		ldr	r2, [r7]
 145              		.loc 1 64 0
 146 00a2 93F800B0 		ldrb	fp, [r3]	@ zero_extendqisi2
 147              		.loc 1 65 0
 148 00a6 93F801A0 		ldrb	r10, [r3, #1]	@ zero_extendqisi2
 149              		.loc 1 66 0
 150 00aa 93F80290 		ldrb	r9, [r3, #2]	@ zero_extendqisi2
 151              		.loc 1 67 0
 152 00ae 93F80380 		ldrb	r8, [r3, #3]	@ zero_extendqisi2
 153              		.loc 1 62 0
 154 00b2 1543     		orrs	r5, r5, r2
 155              		.loc 1 63 0
 156 00b4 3268     		ldr	r2, [r6]
 157              		.loc 1 62 0
 158 00b6 3D60     		str	r5, [r7]
 159              		.loc 1 63 0
 160 00b8 1440     		ands	r4, r4, r2
 161              		.loc 1 64 0
 162 00ba 5844     		add	r0, r0, fp
 163              		.loc 1 65 0
 164 00bc 5144     		add	r1, r1, r10
 165              		.loc 1 66 0
 166 00be 09EB0C02 		add	r2, r9, ip
 167              		.loc 1 67 0
 168 00c2 F044     		add	r8, r8, lr
 169              		.loc 1 63 0
 170 00c4 3460     		str	r4, [r6]
 171              		.loc 1 64 0
ARM GAS  /tmp/cc2QxYnP.s 			page 4


 172 00c6 1870     		strb	r0, [r3]
 173              		.loc 1 65 0
 174 00c8 5970     		strb	r1, [r3, #1]
 175              		.loc 1 66 0
 176 00ca 9A70     		strb	r2, [r3, #2]
 177              		.loc 1 67 0
 178 00cc 83F80380 		strb	r8, [r3, #3]
 179 00d0 CDE7     		b	.L1
 180              	.L4:
 181              		.loc 1 54 0
 182 00d2 104A     		ldr	r2, .L10+32
 183 00d4 0948     		ldr	r0, .L10+8
 184 00d6 A2F18403 		sub	r3, r2, #132
 185 00da 8421     		movs	r1, #132
 186 00dc A2F2A444 		subw	r4, r2, #1188
 187 00e0 FFF7FEFF 		bl	spiExchange
 188              	.LVL10:
 189 00e4 B3E7     		b	.L5
 190              	.L2:
 191              		.loc 1 42 0
 192 00e6 0C4A     		ldr	r2, .L10+36
 193 00e8 1378     		ldrb	r3, [r2]	@ zero_extendqisi2
 194              		.loc 1 41 0
 195 00ea 0021     		movs	r1, #0
 196              		.loc 1 42 0
 197 00ec 0133     		adds	r3, r3, #1
 198 00ee 1370     		strb	r3, [r2]
 199              		.loc 1 41 0
 200 00f0 2170     		strb	r1, [r4]
 201 00f2 8EE7     		b	.L3
 202              	.L11:
 203              		.align	2
 204              	.L10:
 205 00f4 00000000 		.word	row_update_index
 206 00f8 00000000 		.word	Mutex_DMAStream_1_7
 207 00fc 00000000 		.word	SPID3
 208 0100 00000000 		.word	.LANCHOR0
 209 0104 00000000 		.word	.LANCHOR1
 210 0108 00000000 		.word	Btn_Nav_Or
 211 010c 00000000 		.word	EncBuffer
 212 0110 00000000 		.word	Btn_Nav_And
 213 0114 A4040000 		.word	.LANCHOR1+1188
 214 0118 00000000 		.word	k
 215              		.cfi_endproc
 216              	.LFE130:
 217              		.size	do_axoloti_control, .-do_axoloti_control
 218              		.align	2
 219 011c AFF30080 		.p2align 4,,15
 220              		.global	axoloti_control_init
 221              		.thumb
 222              		.thumb_func
 223              		.type	axoloti_control_init, %function
 224              	axoloti_control_init:
 225              	.LFB131:
 226              		.loc 1 71 0
 227              		.cfi_startproc
 228              		@ args = 0, pretend = 0, frame = 0
ARM GAS  /tmp/cc2QxYnP.s 			page 5


 229              		@ frame_needed = 0, uses_anonymous_args = 0
 230 0120 F8B5     		push	{r3, r4, r5, r6, r7, lr}
 231              		.cfi_def_cfa_offset 24
 232              		.cfi_offset 3, -24
 233              		.cfi_offset 4, -20
 234              		.cfi_offset 5, -16
 235              		.cfi_offset 6, -12
 236              		.cfi_offset 7, -8
 237              		.cfi_offset 14, -4
 238              		.loc 1 75 0
 239 0122 2A4B     		ldr	r3, .L22
 240              		.loc 1 76 0
 241 0124 2A48     		ldr	r0, .L22+4
 242              		.loc 1 75 0
 243 0126 0024     		movs	r4, #0
 244              		.loc 1 76 0
 245 0128 4FF40041 		mov	r1, #32768
 246 012c 0122     		movs	r2, #1
 247              		.loc 1 75 0
 248 012e 1C70     		strb	r4, [r3]
 249              		.loc 1 76 0
 250 0130 FFF7FEFF 		bl	_pal_lld_setgroupmode
 251              	.LVL11:
 252              		.loc 1 78 0
 253 0134 2748     		ldr	r0, .L22+8
 254 0136 2021     		movs	r1, #32
 255 0138 40F20232 		movw	r2, #770
 256 013c FFF7FEFF 		bl	_pal_lld_setgroupmode
 257              	.LVL12:
 258              		.loc 1 80 0
 259 0140 2448     		ldr	r0, .L22+8
 260 0142 1021     		movs	r1, #16
 261 0144 40F20232 		movw	r2, #770
 262 0148 FFF7FEFF 		bl	_pal_lld_setgroupmode
 263              	.LVL13:
 264              		.loc 1 82 0
 265 014c 0821     		movs	r1, #8
 266 014e 40F20232 		movw	r2, #770
 267 0152 2048     		ldr	r0, .L22+8
 268 0154 FFF7FEFF 		bl	_pal_lld_setgroupmode
 269              	.LVL14:
 270 0158 1F4B     		ldr	r3, .L22+12
 271              		.loc 1 87 0
 272 015a 2246     		mov	r2, r4
 273 015c 03F58461 		add	r1, r3, #1056
 274              	.LVL15:
 275              	.L13:
 276              		.loc 1 87 0 is_stmt 0 discriminator 3
 277 0160 03F8012F 		strb	r2, [r3, #1]!
 278              	.LVL16:
 279              		.loc 1 86 0 is_stmt 1 discriminator 3
 280 0164 8B42     		cmp	r3, r1
 281 0166 FBD1     		bne	.L13
 282 0168 1C4B     		ldr	r3, .L22+16
 283              	.LVL17:
 284              		.loc 1 86 0 is_stmt 0
 285 016a 3020     		movs	r0, #48
ARM GAS  /tmp/cc2QxYnP.s 			page 6


 286              		.loc 1 90 0 is_stmt 1
 287 016c 4FF0410E 		mov	lr, #65
 288              		.loc 1 91 0
 289 0170 7827     		movs	r7, #120
 290              		.loc 1 92 0
 291 0172 6F21     		movs	r1, #111
 292              	.L14:
 293 0174 421C     		adds	r2, r0, #1
 294              		.loc 1 93 0 discriminator 3
 295 0176 9870     		strb	r0, [r3, #2]
 296 0178 D0B2     		uxtb	r0, r2
 297              		.loc 1 89 0 discriminator 3
 298 017a 3828     		cmp	r0, #56
 299              		.loc 1 90 0 discriminator 3
 300 017c 03F801EC 		strb	lr, [r3, #-1]
 301              		.loc 1 91 0 discriminator 3
 302 0180 1F70     		strb	r7, [r3]
 303              		.loc 1 92 0 discriminator 3
 304 0182 5970     		strb	r1, [r3, #1]
 305              		.loc 1 90 0 discriminator 3
 306 0184 4FF04106 		mov	r6, #65
 307 0188 03F18403 		add	r3, r3, #132
 308              		.loc 1 91 0 discriminator 3
 309 018c 4FF07805 		mov	r5, #120
 310              		.loc 1 92 0 discriminator 3
 311 0190 4FF06F04 		mov	r4, #111
 312              		.loc 1 89 0 discriminator 3
 313 0194 EED1     		bne	.L14
 314              		.loc 1 95 0
 315 0196 124A     		ldr	r2, .L22+20
 316              		.loc 1 101 0
 317 0198 0021     		movs	r1, #0
 318              		.loc 1 95 0
 319 019a 82F8A464 		strb	r6, [r2, #1188]
 320              		.loc 1 96 0
 321 019e 82F8A554 		strb	r5, [r2, #1189]
 322              		.loc 1 97 0
 323 01a2 82F8A644 		strb	r4, [r2, #1190]
 324              		.loc 1 98 0
 325 01a6 82F8A704 		strb	r0, [r2, #1191]
 326              	.LVL18:
 327 01aa 02F2A743 		addw	r3, r2, #1191
 328 01ae 02F22752 		addw	r2, r2, #1319
 329              	.LVL19:
 330              	.L15:
 331              		.loc 1 101 0 discriminator 3
 332 01b2 03F8011F 		strb	r1, [r3, #1]!
 333              	.LVL20:
 334              		.loc 1 100 0 discriminator 3
 335 01b6 9342     		cmp	r3, r2
 336 01b8 FBD1     		bne	.L15
 337 01ba 0A4B     		ldr	r3, .L22+24
 338              	.LVL21:
 339              		.loc 1 104 0
 340 01bc 0021     		movs	r1, #0
 341 01be 03F18002 		add	r2, r3, #128
 342              	.L16:
ARM GAS  /tmp/cc2QxYnP.s 			page 7


 343              	.LVL22:
 344              		.loc 1 104 0 is_stmt 0 discriminator 3
 345 01c2 03F8011F 		strb	r1, [r3, #1]!
 346              	.LVL23:
 347              		.loc 1 103 0 is_stmt 1 discriminator 3
 348 01c6 9342     		cmp	r3, r2
 349 01c8 FBD1     		bne	.L16
 350              		.loc 1 105 0
 351 01ca F8BD     		pop	{r3, r4, r5, r6, r7, pc}
 352              	.LVL24:
 353              	.L23:
 354              		.align	2
 355              	.L22:
 356 01cc 00000000 		.word	row_update_index
 357 01d0 00000240 		.word	1073872896
 358 01d4 00040240 		.word	1073873920
 359 01d8 FFFFFFFF 		.word	.LANCHOR1-1
 360 01dc 01000000 		.word	.LANCHOR1+1
 361 01e0 00000000 		.word	.LANCHOR1
 362 01e4 1F040000 		.word	.LANCHOR1+1055
 363              		.cfi_endproc
 364              	.LFE131:
 365              		.size	axoloti_control_init, .-axoloti_control_init
 366              		.align	2
 367 01e8 AFF30080 		.p2align 4,,15
 367      AFF30080 
 368              		.global	LCD_updateBoundingBox
 369              		.thumb
 370              		.thumb_func
 371              		.type	LCD_updateBoundingBox, %function
 372              	LCD_updateBoundingBox:
 373              	.LFB132:
 374              		.loc 1 109 0
 375              		.cfi_startproc
 376              		@ args = 0, pretend = 0, frame = 0
 377              		@ frame_needed = 0, uses_anonymous_args = 0
 378              		@ link register save eliminated.
 379              	.LVL25:
 380 01f0 7047     		bx	lr
 381              		.cfi_endproc
 382              	.LFE132:
 383              		.size	LCD_updateBoundingBox, .-LCD_updateBoundingBox
 384 01f2 00BF     		.align	2
 385 01f4 AFF30080 		.p2align 4,,15
 385      AFF30080 
 385      AFF30080 
 386              		.global	LCD_drawPixel
 387              		.thumb
 388              		.thumb_func
 389              		.type	LCD_drawPixel, %function
 390              	LCD_drawPixel:
 391              	.LFB133:
 392              		.loc 1 117 0
 393              		.cfi_startproc
 394              		@ args = 0, pretend = 0, frame = 0
 395              		@ frame_needed = 0, uses_anonymous_args = 0
 396              		@ link register save eliminated.
ARM GAS  /tmp/cc2QxYnP.s 			page 8


 397              		.loc 1 118 0
 398 0200 7F28     		cmp	r0, #127
 399 0202 12D8     		bhi	.L30
 400              		.loc 1 118 0 is_stmt 0 discriminator 2
 401 0204 3F29     		cmp	r1, #63
 402 0206 10D8     		bhi	.L30
 403              		.loc 1 123 0 is_stmt 1
 404 0208 0430     		adds	r0, r0, #4
 405 020a CB10     		asrs	r3, r1, #3
 406              		.loc 1 117 0
 407 020c 10B4     		push	{r4}
 408              		.cfi_def_cfa_offset 4
 409              		.cfi_offset 4, -4
 410              		.loc 1 123 0
 411 020e 00EBC310 		add	r0, r0, r3, lsl #7
 412              		.loc 1 122 0
 413 0212 5AB9     		cbnz	r2, .L31
 414              		.loc 1 125 0
 415 0214 0A4C     		ldr	r4, .L32
 416 0216 01F00701 		and	r1, r1, #7
 417 021a 225C     		ldrb	r2, [r4, r0]	@ zero_extendqisi2
 418 021c 0123     		movs	r3, #1
 419 021e 8B40     		lsls	r3, r3, r1
 420 0220 22EA0303 		bic	r3, r2, r3
 421 0224 2354     		strb	r3, [r4, r0]
 422              	.L25:
 423              		.loc 1 128 0
 424 0226 5DF8044B 		ldr	r4, [sp], #4
 425              		.cfi_restore 4
 426              		.cfi_def_cfa_offset 0
 427              	.L30:
 428 022a 7047     		bx	lr
 429              	.L31:
 430              		.cfi_def_cfa_offset 4
 431              		.cfi_offset 4, -4
 432              		.loc 1 123 0
 433 022c 044A     		ldr	r2, .L32
 434 022e 01F00701 		and	r1, r1, #7
 435 0232 145C     		ldrb	r4, [r2, r0]	@ zero_extendqisi2
 436 0234 0123     		movs	r3, #1
 437 0236 8B40     		lsls	r3, r3, r1
 438 0238 2343     		orrs	r3, r3, r4
 439 023a 1354     		strb	r3, [r2, r0]
 440 023c F3E7     		b	.L25
 441              	.L33:
 442 023e 00BF     		.align	2
 443              	.L32:
 444 0240 00000000 		.word	.LANCHOR1
 445              		.cfi_endproc
 446              	.LFE133:
 447              		.size	LCD_drawPixel, .-LCD_drawPixel
 448              		.align	2
 449 0244 AFF30080 		.p2align 4,,15
 449      AFF30080 
 449      AFF30080 
 450              		.global	LCD_setPixel
 451              		.thumb
ARM GAS  /tmp/cc2QxYnP.s 			page 9


 452              		.thumb_func
 453              		.type	LCD_setPixel, %function
 454              	LCD_setPixel:
 455              	.LFB134:
 456              		.loc 1 130 0
 457              		.cfi_startproc
 458              		@ args = 0, pretend = 0, frame = 0
 459              		@ frame_needed = 0, uses_anonymous_args = 0
 460              		@ link register save eliminated.
 461              		.loc 1 131 0
 462 0250 7F28     		cmp	r0, #127
 463 0252 12D8     		bhi	.L38
 464              		.loc 1 131 0 is_stmt 0 discriminator 2
 465 0254 3F29     		cmp	r1, #63
 466 0256 10D8     		bhi	.L38
 467              		.loc 1 130 0 is_stmt 1
 468 0258 10B4     		push	{r4}
 469              		.cfi_def_cfa_offset 4
 470              		.cfi_offset 4, -4
 471              		.loc 1 133 0
 472 025a CB10     		asrs	r3, r1, #3
 473 025c 03EB4313 		add	r3, r3, r3, lsl #5
 474 0260 0430     		adds	r0, r0, #4
 475 0262 00EB8300 		add	r0, r0, r3, lsl #2
 476 0266 054A     		ldr	r2, .L39
 477 0268 01F00701 		and	r1, r1, #7
 478 026c 145C     		ldrb	r4, [r2, r0]	@ zero_extendqisi2
 479 026e 0123     		movs	r3, #1
 480 0270 8B40     		lsls	r3, r3, r1
 481 0272 2343     		orrs	r3, r3, r4
 482 0274 1354     		strb	r3, [r2, r0]
 483              		.loc 1 135 0
 484 0276 5DF8044B 		ldr	r4, [sp], #4
 485              		.cfi_restore 4
 486              		.cfi_def_cfa_offset 0
 487              	.L38:
 488 027a 7047     		bx	lr
 489              	.L40:
 490              		.align	2
 491              	.L39:
 492 027c 00000000 		.word	.LANCHOR1
 493              		.cfi_endproc
 494              	.LFE134:
 495              		.size	LCD_setPixel, .-LCD_setPixel
 496              		.align	2
 497              		.p2align 4,,15
 498              		.global	LCD_clearPixel
 499              		.thumb
 500              		.thumb_func
 501              		.type	LCD_clearPixel, %function
 502              	LCD_clearPixel:
 503              	.LFB135:
 504              		.loc 1 137 0
 505              		.cfi_startproc
 506              		@ args = 0, pretend = 0, frame = 0
 507              		@ frame_needed = 0, uses_anonymous_args = 0
 508              		@ link register save eliminated.
ARM GAS  /tmp/cc2QxYnP.s 			page 10


 509              		.loc 1 138 0
 510 0280 7F28     		cmp	r0, #127
 511 0282 13D8     		bhi	.L45
 512              		.loc 1 138 0 is_stmt 0 discriminator 2
 513 0284 3F29     		cmp	r1, #63
 514 0286 11D8     		bhi	.L45
 515              		.loc 1 140 0 is_stmt 1
 516 0288 CB10     		asrs	r3, r1, #3
 517 028a 03EB4313 		add	r3, r3, r3, lsl #5
 518 028e 0430     		adds	r0, r0, #4
 519 0290 00EB8300 		add	r0, r0, r3, lsl #2
 520              		.loc 1 137 0
 521 0294 10B4     		push	{r4}
 522              		.cfi_def_cfa_offset 4
 523              		.cfi_offset 4, -4
 524              		.loc 1 140 0
 525 0296 064C     		ldr	r4, .L46
 526 0298 01F00701 		and	r1, r1, #7
 527 029c 225C     		ldrb	r2, [r4, r0]	@ zero_extendqisi2
 528 029e 0123     		movs	r3, #1
 529 02a0 8B40     		lsls	r3, r3, r1
 530 02a2 22EA0303 		bic	r3, r2, r3
 531 02a6 2354     		strb	r3, [r4, r0]
 532              		.loc 1 142 0
 533 02a8 5DF8044B 		ldr	r4, [sp], #4
 534              		.cfi_restore 4
 535              		.cfi_def_cfa_offset 0
 536              	.L45:
 537 02ac 7047     		bx	lr
 538              	.L47:
 539 02ae 00BF     		.align	2
 540              	.L46:
 541 02b0 00000000 		.word	.LANCHOR1
 542              		.cfi_endproc
 543              	.LFE135:
 544              		.size	LCD_clearPixel, .-LCD_clearPixel
 545              		.align	2
 546 02b4 AFF30080 		.p2align 4,,15
 546      AFF30080 
 546      AFF30080 
 547              		.global	LCD_getPixel
 548              		.thumb
 549              		.thumb_func
 550              		.type	LCD_getPixel, %function
 551              	LCD_getPixel:
 552              	.LFB136:
 553              		.loc 1 144 0
 554              		.cfi_startproc
 555              		@ args = 0, pretend = 0, frame = 0
 556              		@ frame_needed = 0, uses_anonymous_args = 0
 557              		@ link register save eliminated.
 558              	.LVL26:
 559              		.loc 1 145 0
 560 02c0 7F28     		cmp	r0, #127
 561 02c2 0FD8     		bhi	.L51
 562              		.loc 1 145 0 is_stmt 0 discriminator 2
 563 02c4 3F29     		cmp	r1, #63
ARM GAS  /tmp/cc2QxYnP.s 			page 11


 564 02c6 0DD8     		bhi	.L51
 565              		.loc 1 148 0 is_stmt 1
 566 02c8 CB10     		asrs	r3, r1, #3
 567 02ca 074A     		ldr	r2, .L52
 568 02cc 03EB4313 		add	r3, r3, r3, lsl #5
 569 02d0 02EB8303 		add	r3, r2, r3, lsl #2
 570 02d4 1844     		add	r0, r0, r3
 571              	.LVL27:
 572              		.loc 1 149 0
 573 02d6 01F00701 		and	r1, r1, #7
 574              	.LVL28:
 575 02da 0079     		ldrb	r0, [r0, #4]	@ zero_extendqisi2
 576 02dc 0841     		asrs	r0, r0, r1
 577              		.loc 1 148 0
 578 02de 00F00100 		and	r0, r0, #1
 579 02e2 7047     		bx	lr
 580              	.LVL29:
 581              	.L51:
 582              		.loc 1 146 0
 583 02e4 0020     		movs	r0, #0
 584              	.LVL30:
 585              		.loc 1 150 0
 586 02e6 7047     		bx	lr
 587              	.L53:
 588              		.align	2
 589              	.L52:
 590 02e8 00000000 		.word	.LANCHOR1
 591              		.cfi_endproc
 592              	.LFE136:
 593              		.size	LCD_getPixel, .-LCD_getPixel
 594              		.align	2
 595 02ec AFF30080 		.p2align 4,,15
 596              		.global	LCD_clearDisplay
 597              		.thumb
 598              		.thumb_func
 599              		.type	LCD_clearDisplay, %function
 600              	LCD_clearDisplay:
 601              	.LFB137:
 602              		.loc 1 153 0
 603              		.cfi_startproc
 604              		@ args = 0, pretend = 0, frame = 0
 605              		@ frame_needed = 0, uses_anonymous_args = 0
 606              	.LVL31:
 607 02f0 38B5     		push	{r3, r4, r5, lr}
 608              		.cfi_def_cfa_offset 16
 609              		.cfi_offset 3, -16
 610              		.cfi_offset 4, -12
 611              		.cfi_offset 5, -8
 612              		.cfi_offset 14, -4
 613 02f2 064C     		ldr	r4, .L58
 614 02f4 04F58065 		add	r5, r4, #1024
 615              	.LVL32:
 616              	.L55:
 617              		.loc 1 156 0 discriminator 3
 618 02f8 2046     		mov	r0, r4
 619 02fa 0021     		movs	r1, #0
 620 02fc 8034     		adds	r4, r4, #128
ARM GAS  /tmp/cc2QxYnP.s 			page 12


 621 02fe 8022     		movs	r2, #128
 622 0300 FFF7FEFF 		bl	memset
 623              	.LVL33:
 624              		.loc 1 155 0 discriminator 3
 625 0304 AC42     		cmp	r4, r5
 626 0306 F7D1     		bne	.L55
 627              		.loc 1 159 0
 628 0308 38BD     		pop	{r3, r4, r5, pc}
 629              	.L59:
 630 030a 00BF     		.align	2
 631              	.L58:
 632 030c 04000000 		.word	.LANCHOR1+4
 633              		.cfi_endproc
 634              	.LFE137:
 635              		.size	LCD_clearDisplay, .-LCD_clearDisplay
 636              		.align	2
 637              		.p2align 4,,15
 638              		.global	LCD_drawChar
 639              		.thumb
 640              		.thumb_func
 641              		.type	LCD_drawChar, %function
 642              	LCD_drawChar:
 643              	.LFB138:
 644              		.loc 1 164 0
 645              		.cfi_startproc
 646              		@ args = 0, pretend = 0, frame = 0
 647              		@ frame_needed = 0, uses_anonymous_args = 0
 648              		@ link register save eliminated.
 649              	.LVL34:
 650              		.loc 1 167 0
 651 0310 7A28     		cmp	r0, #122
 652 0312 1AD8     		bhi	.L64
 653              		.loc 1 167 0 is_stmt 0 discriminator 2
 654 0314 0729     		cmp	r1, #7
 655 0316 18D8     		bhi	.L64
 656              	.LVL35:
 657              		.loc 1 164 0 is_stmt 1
 658 0318 F0B4     		push	{r4, r5, r6, r7}
 659              		.cfi_def_cfa_offset 16
 660              		.cfi_offset 4, -16
 661              		.cfi_offset 5, -12
 662              		.cfi_offset 6, -8
 663              		.cfi_offset 7, -4
 664              	.LBB12:
 665              	.LBB13:
 666              		.loc 1 171 0
 667 031a 0C4D     		ldr	r5, .L65
 668 031c 0C4C     		ldr	r4, .L65+4
 669              		.loc 1 169 0
 670 031e 02EB8202 		add	r2, r2, r2, lsl #2
 671              	.LVL36:
 672              		.loc 1 170 0
 673 0322 01EB4111 		add	r1, r1, r1, lsl #5
 674              	.LVL37:
 675 0326 0430     		adds	r0, r0, #4
 676              	.LVL38:
 677 0328 00EB8100 		add	r0, r0, r1, lsl #2
ARM GAS  /tmp/cc2QxYnP.s 			page 13


 678              	.LVL39:
 679              		.loc 1 172 0
 680 032c A918     		adds	r1, r5, r2
 681 032e 2318     		adds	r3, r4, r0
 682              		.loc 1 171 0
 683 0330 AA5C     		ldrb	r2, [r5, r2]	@ zero_extendqisi2
 684              	.LVL40:
 685 0332 2254     		strb	r2, [r4, r0]
 686              		.loc 1 172 0
 687 0334 4F78     		ldrb	r7, [r1, #1]	@ zero_extendqisi2
 688              		.loc 1 173 0
 689 0336 8E78     		ldrb	r6, [r1, #2]	@ zero_extendqisi2
 690              		.loc 1 174 0
 691 0338 CD78     		ldrb	r5, [r1, #3]	@ zero_extendqisi2
 692              		.loc 1 175 0
 693 033a 0979     		ldrb	r1, [r1, #4]	@ zero_extendqisi2
 694              	.LVL41:
 695              		.loc 1 172 0
 696 033c 5F70     		strb	r7, [r3, #1]
 697              	.LVL42:
 698              		.loc 1 176 0
 699 033e 0022     		movs	r2, #0
 700              		.loc 1 173 0
 701 0340 9E70     		strb	r6, [r3, #2]
 702              	.LVL43:
 703              		.loc 1 174 0
 704 0342 DD70     		strb	r5, [r3, #3]
 705              	.LVL44:
 706              		.loc 1 175 0
 707 0344 1971     		strb	r1, [r3, #4]
 708              		.loc 1 176 0
 709 0346 5A71     		strb	r2, [r3, #5]
 710              	.LBE13:
 711              	.LBE12:
 712              		.loc 1 177 0
 713 0348 F0BC     		pop	{r4, r5, r6, r7}
 714              		.cfi_restore 7
 715              		.cfi_restore 6
 716              		.cfi_restore 5
 717              		.cfi_restore 4
 718              		.cfi_def_cfa_offset 0
 719              	.LVL45:
 720              	.L64:
 721 034a 7047     		bx	lr
 722              	.L66:
 723              		.align	2
 724              	.L65:
 725 034c 00000000 		.word	font
 726 0350 00000000 		.word	.LANCHOR1
 727              		.cfi_endproc
 728              	.LFE138:
 729              		.size	LCD_drawChar, .-LCD_drawChar
 730              		.align	2
 731 0354 AFF30080 		.p2align 4,,15
 731      AFF30080 
 731      AFF30080 
 732              		.global	LCD_drawString
ARM GAS  /tmp/cc2QxYnP.s 			page 14


 733              		.thumb
 734              		.thumb_func
 735              		.type	LCD_drawString, %function
 736              	LCD_drawString:
 737              	.LFB139:
 738              		.loc 1 179 0
 739              		.cfi_startproc
 740              		@ args = 0, pretend = 0, frame = 0
 741              		@ frame_needed = 0, uses_anonymous_args = 0
 742              	.LVL46:
 743              		.loc 1 180 0
 744 0360 0729     		cmp	r1, #7
 745 0362 2ED8     		bhi	.L76
 746              		.loc 1 180 0 is_stmt 0 discriminator 1
 747 0364 0028     		cmp	r0, #0
 748 0366 2CDB     		blt	.L76
 749              		.loc 1 179 0 is_stmt 1
 750 0368 F0B5     		push	{r4, r5, r6, r7, lr}
 751              		.cfi_def_cfa_offset 20
 752              		.cfi_offset 4, -20
 753              		.cfi_offset 5, -16
 754              		.cfi_offset 6, -12
 755              		.cfi_offset 7, -8
 756              		.cfi_offset 14, -4
 757              		.loc 1 183 0
 758 036a 031D     		adds	r3, r0, #4
 759 036c 01EB4111 		add	r1, r1, r1, lsl #5
 760              	.LVL47:
 761 0370 03EB8101 		add	r1, r3, r1, lsl #2
 762              	.LVL48:
 763              		.loc 1 184 0
 764 0374 134B     		ldr	r3, .L77
 765 0376 4FF0000C 		mov	ip, #0
 766 037a 03F801C0 		strb	ip, [r3, r1]
 767              	.LVL49:
 768              		.loc 1 186 0
 769 037e 1478     		ldrb	r4, [r2]	@ zero_extendqisi2
 770 0380 0132     		adds	r2, r2, #1
 771              	.LVL50:
 772 0382 ECB1     		cbz	r4, .L67
 773              	.LBB14:
 774              		.loc 1 187 0
 775 0384 7F28     		cmp	r0, #127
 776 0386 1BDC     		bgt	.L67
 777 0388 0B44     		add	r3, r3, r1
 778 038a 0F4D     		ldr	r5, .L77+4
 779 038c 01E0     		b	.L70
 780              	.LVL51:
 781              	.L71:
 782 038e 7F28     		cmp	r0, #127
 783 0390 16DC     		bgt	.L67
 784              	.L70:
 785              	.LVL52:
 786              		.loc 1 190 0
 787 0392 04EB8404 		add	r4, r4, r4, lsl #2
 788              	.LVL53:
 789              		.loc 1 192 0
ARM GAS  /tmp/cc2QxYnP.s 			page 15


 790 0396 2919     		adds	r1, r5, r4
 791              		.loc 1 191 0
 792 0398 15F804E0 		ldrb	lr, [r5, r4]	@ zero_extendqisi2
 793              		.loc 1 192 0
 794 039c 4F78     		ldrb	r7, [r1, #1]	@ zero_extendqisi2
 795              		.loc 1 194 0
 796 039e CC78     		ldrb	r4, [r1, #3]	@ zero_extendqisi2
 797              		.loc 1 193 0
 798 03a0 8E78     		ldrb	r6, [r1, #2]	@ zero_extendqisi2
 799              		.loc 1 195 0
 800 03a2 0979     		ldrb	r1, [r1, #4]	@ zero_extendqisi2
 801              		.loc 1 196 0
 802 03a4 83F806C0 		strb	ip, [r3, #6]
 803              		.loc 1 191 0
 804 03a8 83F801E0 		strb	lr, [r3, #1]
 805              		.loc 1 192 0
 806 03ac 9F70     		strb	r7, [r3, #2]
 807              		.loc 1 193 0
 808 03ae DE70     		strb	r6, [r3, #3]
 809              		.loc 1 194 0
 810 03b0 1C71     		strb	r4, [r3, #4]
 811              		.loc 1 195 0
 812 03b2 5971     		strb	r1, [r3, #5]
 813              	.LBE14:
 814              		.loc 1 186 0
 815 03b4 12F8014B 		ldrb	r4, [r2], #1	@ zero_extendqisi2
 816              	.LVL54:
 817 03b8 0633     		adds	r3, r3, #6
 818              	.LVL55:
 819              	.LBB15:
 820              		.loc 1 189 0
 821 03ba 0630     		adds	r0, r0, #6
 822              	.LVL56:
 823              	.LBE15:
 824              		.loc 1 186 0
 825 03bc 002C     		cmp	r4, #0
 826 03be E6D1     		bne	.L71
 827              	.L67:
 828 03c0 F0BD     		pop	{r4, r5, r6, r7, pc}
 829              	.LVL57:
 830              	.L76:
 831              		.cfi_def_cfa_offset 0
 832              		.cfi_restore 4
 833              		.cfi_restore 5
 834              		.cfi_restore 6
 835              		.cfi_restore 7
 836              		.cfi_restore 14
 837 03c2 7047     		bx	lr
 838              	.L78:
 839              		.align	2
 840              	.L77:
 841 03c4 00000000 		.word	.LANCHOR1
 842 03c8 00000000 		.word	font
 843              		.cfi_endproc
 844              	.LFE139:
 845              		.size	LCD_drawString, .-LCD_drawString
 846              		.align	2
ARM GAS  /tmp/cc2QxYnP.s 			page 16


 847 03cc AFF30080 		.p2align 4,,15
 848              		.global	LCD_drawNumber3D
 849              		.thumb
 850              		.thumb_func
 851              		.type	LCD_drawNumber3D, %function
 852              	LCD_drawNumber3D:
 853              	.LFB140:
 854              		.loc 1 200 0
 855              		.cfi_startproc
 856              		@ args = 0, pretend = 0, frame = 0
 857              		@ frame_needed = 0, uses_anonymous_args = 0
 858              	.LVL58:
 859 03d0 2DE9F041 		push	{r4, r5, r6, r7, r8, lr}
 860              		.cfi_def_cfa_offset 24
 861              		.cfi_offset 4, -24
 862              		.cfi_offset 5, -20
 863              		.cfi_offset 6, -16
 864              		.cfi_offset 7, -12
 865              		.cfi_offset 8, -8
 866              		.cfi_offset 14, -4
 867              		.loc 1 201 0
 868 03d4 151E     		subs	r5, r2, #0
 869              		.loc 1 208 0
 870 03d6 DFF86480 		ldr	r8, .L83
 871              		.loc 1 203 0
 872 03da BABF     		itte	lt
 873 03dc 6D42     		rsblt	r5, r5, #0
 874              		.loc 1 202 0
 875 03de 2D22     		movlt	r2, #45
 876              	.LVL59:
 877              		.loc 1 206 0
 878 03e0 2022     		movge	r2, #32
 879              		.loc 1 200 0
 880 03e2 0746     		mov	r7, r0
 881 03e4 0E46     		mov	r6, r1
 882              		.loc 1 206 0
 883 03e6 FFF7FEFF 		bl	LCD_drawChar
 884              	.LVL60:
 885              		.loc 1 208 0
 886 03ea EB17     		asrs	r3, r5, #31
 887 03ec 88FB0524 		smull	r2, r4, r8, r5
 888 03f0 C3EBA404 		rsb	r4, r3, r4, asr #2
 889 03f4 04EB8402 		add	r2, r4, r4, lsl #2
 890 03f8 A5EB4202 		sub	r2, r5, r2, lsl #1
 891 03fc 3032     		adds	r2, r2, #48
 892 03fe 07F11200 		add	r0, r7, #18
 893 0402 3146     		mov	r1, r6
 894 0404 D2B2     		uxtb	r2, r2
 895 0406 FFF7FEFF 		bl	LCD_drawChar
 896              	.LVL61:
 897              		.loc 1 210 0
 898 040a 88FB0435 		smull	r3, r5, r8, r4
 899 040e E317     		asrs	r3, r4, #31
 900 0410 C3EBA505 		rsb	r5, r3, r5, asr #2
 901 0414 05EB8502 		add	r2, r5, r5, lsl #2
 902 0418 A4EB4202 		sub	r2, r4, r2, lsl #1
 903 041c 3032     		adds	r2, r2, #48
ARM GAS  /tmp/cc2QxYnP.s 			page 17


 904 041e 07F10C00 		add	r0, r7, #12
 905 0422 3146     		mov	r1, r6
 906 0424 D2B2     		uxtb	r2, r2
 907 0426 FFF7FEFF 		bl	LCD_drawChar
 908              	.LVL62:
 909              		.loc 1 212 0
 910 042a 05F13002 		add	r2, r5, #48
 911 042e B81D     		adds	r0, r7, #6
 912 0430 3146     		mov	r1, r6
 913 0432 D2B2     		uxtb	r2, r2
 914              		.loc 1 213 0
 915 0434 BDE8F041 		pop	{r4, r5, r6, r7, r8, lr}
 916              		.cfi_restore 14
 917              		.cfi_restore 8
 918              		.cfi_restore 7
 919              		.cfi_restore 6
 920              		.cfi_restore 5
 921              		.cfi_restore 4
 922              		.cfi_def_cfa_offset 0
 923              	.LVL63:
 924              		.loc 1 212 0
 925 0438 FFF7FEBF 		b	LCD_drawChar
 926              	.LVL64:
 927              	.L84:
 928              		.align	2
 929              	.L83:
 930 043c 67666666 		.word	1717986919
 931              		.cfi_endproc
 932              	.LFE140:
 933              		.size	LCD_drawNumber3D, .-LCD_drawNumber3D
 934              		.align	2
 935              		.p2align 4,,15
 936              		.global	LCD_drawNumber5D
 937              		.thumb
 938              		.thumb_func
 939              		.type	LCD_drawNumber5D, %function
 940              	LCD_drawNumber5D:
 941              	.LFB141:
 942              		.loc 1 215 0
 943              		.cfi_startproc
 944              		@ args = 0, pretend = 0, frame = 0
 945              		@ frame_needed = 0, uses_anonymous_args = 0
 946              	.LVL65:
 947 0440 2DE9F041 		push	{r4, r5, r6, r7, r8, lr}
 948              		.cfi_def_cfa_offset 24
 949              		.cfi_offset 4, -24
 950              		.cfi_offset 5, -20
 951              		.cfi_offset 6, -16
 952              		.cfi_offset 7, -12
 953              		.cfi_offset 8, -8
 954              		.cfi_offset 14, -4
 955              		.loc 1 216 0
 956 0444 151E     		subs	r5, r2, #0
 957              		.loc 1 223 0
 958 0446 DFF8A480 		ldr	r8, .L89
 959              		.loc 1 218 0
 960 044a BABF     		itte	lt
ARM GAS  /tmp/cc2QxYnP.s 			page 18


 961 044c 6D42     		rsblt	r5, r5, #0
 962              		.loc 1 217 0
 963 044e 2D22     		movlt	r2, #45
 964              	.LVL66:
 965              		.loc 1 221 0
 966 0450 2022     		movge	r2, #32
 967              		.loc 1 215 0
 968 0452 0746     		mov	r7, r0
 969 0454 0E46     		mov	r6, r1
 970              		.loc 1 221 0
 971 0456 FFF7FEFF 		bl	LCD_drawChar
 972              	.LVL67:
 973              		.loc 1 223 0
 974 045a EB17     		asrs	r3, r5, #31
 975 045c 88FB0524 		smull	r2, r4, r8, r5
 976 0460 C3EBA404 		rsb	r4, r3, r4, asr #2
 977 0464 04EB8402 		add	r2, r4, r4, lsl #2
 978 0468 A5EB4202 		sub	r2, r5, r2, lsl #1
 979 046c 3032     		adds	r2, r2, #48
 980 046e 07F11E00 		add	r0, r7, #30
 981 0472 3146     		mov	r1, r6
 982 0474 D2B2     		uxtb	r2, r2
 983 0476 FFF7FEFF 		bl	LCD_drawChar
 984              	.LVL68:
 985              		.loc 1 225 0
 986 047a 88FB0435 		smull	r3, r5, r8, r4
 987 047e E317     		asrs	r3, r4, #31
 988 0480 C3EBA505 		rsb	r5, r3, r5, asr #2
 989 0484 05EB8502 		add	r2, r5, r5, lsl #2
 990 0488 A4EB4202 		sub	r2, r4, r2, lsl #1
 991 048c 3032     		adds	r2, r2, #48
 992 048e 07F11800 		add	r0, r7, #24
 993 0492 3146     		mov	r1, r6
 994 0494 D2B2     		uxtb	r2, r2
 995 0496 FFF7FEFF 		bl	LCD_drawChar
 996              	.LVL69:
 997              		.loc 1 227 0
 998 049a 88FB0534 		smull	r3, r4, r8, r5
 999 049e EB17     		asrs	r3, r5, #31
 1000 04a0 C3EBA404 		rsb	r4, r3, r4, asr #2
 1001 04a4 04EB8402 		add	r2, r4, r4, lsl #2
 1002 04a8 A5EB4202 		sub	r2, r5, r2, lsl #1
 1003 04ac 3032     		adds	r2, r2, #48
 1004 04ae 07F11200 		add	r0, r7, #18
 1005 04b2 3146     		mov	r1, r6
 1006 04b4 D2B2     		uxtb	r2, r2
 1007 04b6 FFF7FEFF 		bl	LCD_drawChar
 1008              	.LVL70:
 1009              		.loc 1 229 0
 1010 04ba 88FB0438 		smull	r3, r8, r8, r4
 1011 04be E317     		asrs	r3, r4, #31
 1012 04c0 C3EBA808 		rsb	r8, r3, r8, asr #2
 1013 04c4 08EB8802 		add	r2, r8, r8, lsl #2
 1014 04c8 A4EB4202 		sub	r2, r4, r2, lsl #1
 1015 04cc 3032     		adds	r2, r2, #48
 1016 04ce 07F10C00 		add	r0, r7, #12
 1017 04d2 3146     		mov	r1, r6
ARM GAS  /tmp/cc2QxYnP.s 			page 19


 1018 04d4 D2B2     		uxtb	r2, r2
 1019 04d6 FFF7FEFF 		bl	LCD_drawChar
 1020              	.LVL71:
 1021              		.loc 1 231 0
 1022 04da 08F13002 		add	r2, r8, #48
 1023 04de B81D     		adds	r0, r7, #6
 1024 04e0 3146     		mov	r1, r6
 1025 04e2 D2B2     		uxtb	r2, r2
 1026              		.loc 1 232 0
 1027 04e4 BDE8F041 		pop	{r4, r5, r6, r7, r8, lr}
 1028              		.cfi_restore 14
 1029              		.cfi_restore 8
 1030              		.cfi_restore 7
 1031              		.cfi_restore 6
 1032              		.cfi_restore 5
 1033              		.cfi_restore 4
 1034              		.cfi_def_cfa_offset 0
 1035              	.LVL72:
 1036              		.loc 1 231 0
 1037 04e8 FFF7FEBF 		b	LCD_drawChar
 1038              	.LVL73:
 1039              	.L90:
 1040              		.align	2
 1041              	.L89:
 1042 04ec 67666666 		.word	1717986919
 1043              		.cfi_endproc
 1044              	.LFE141:
 1045              		.size	LCD_drawNumber5D, .-LCD_drawNumber5D
 1046              		.align	2
 1047              		.p2align 4,,15
 1048              		.global	LCD_drawCharInv
 1049              		.thumb
 1050              		.thumb_func
 1051              		.type	LCD_drawCharInv, %function
 1052              	LCD_drawCharInv:
 1053              	.LFB142:
 1054              		.loc 1 234 0
 1055              		.cfi_startproc
 1056              		@ args = 0, pretend = 0, frame = 0
 1057              		@ frame_needed = 0, uses_anonymous_args = 0
 1058              	.LVL74:
 1059              		.loc 1 237 0
 1060 04f0 7A28     		cmp	r0, #122
 1061 04f2 21D8     		bhi	.L94
 1062              		.loc 1 237 0 is_stmt 0 discriminator 2
 1063 04f4 0729     		cmp	r1, #7
 1064 04f6 1FD8     		bhi	.L94
 1065              	.LVL75:
 1066              		.loc 1 234 0 is_stmt 1
 1067 04f8 F0B5     		push	{r4, r5, r6, r7, lr}
 1068              		.cfi_def_cfa_offset 20
 1069              		.cfi_offset 4, -20
 1070              		.cfi_offset 5, -16
 1071              		.cfi_offset 6, -12
 1072              		.cfi_offset 7, -8
 1073              		.cfi_offset 14, -4
 1074              	.LBB18:
ARM GAS  /tmp/cc2QxYnP.s 			page 20


 1075              	.LBB19:
 1076              		.loc 1 241 0
 1077 04fa 104D     		ldr	r5, .L95
 1078 04fc 104C     		ldr	r4, .L95+4
 1079              		.loc 1 239 0
 1080 04fe 02EB8202 		add	r2, r2, r2, lsl #2
 1081              	.LVL76:
 1082              		.loc 1 242 0
 1083 0502 AB18     		adds	r3, r5, r2
 1084              		.loc 1 241 0
 1085 0504 AF5C     		ldrb	r7, [r5, r2]	@ zero_extendqisi2
 1086              		.loc 1 242 0
 1087 0506 5E78     		ldrb	r6, [r3, #1]	@ zero_extendqisi2
 1088              		.loc 1 243 0
 1089 0508 9D78     		ldrb	r5, [r3, #2]	@ zero_extendqisi2
 1090              		.loc 1 245 0
 1091 050a 1A79     		ldrb	r2, [r3, #4]	@ zero_extendqisi2
 1092              	.LVL77:
 1093              		.loc 1 240 0
 1094 050c 01EB4111 		add	r1, r1, r1, lsl #5
 1095              	.LVL78:
 1096 0510 0430     		adds	r0, r0, #4
 1097              	.LVL79:
 1098 0512 00EB8100 		add	r0, r0, r1, lsl #2
 1099              	.LVL80:
 1100              		.loc 1 244 0
 1101 0516 D978     		ldrb	r1, [r3, #3]	@ zero_extendqisi2
 1102              		.loc 1 241 0
 1103 0518 FF43     		mvns	r7, r7
 1104              		.loc 1 242 0
 1105 051a 2318     		adds	r3, r4, r0
 1106              		.loc 1 241 0
 1107 051c 2754     		strb	r7, [r4, r0]
 1108              		.loc 1 242 0
 1109 051e F643     		mvns	r6, r6
 1110              		.loc 1 243 0
 1111 0520 ED43     		mvns	r5, r5
 1112              		.loc 1 244 0
 1113 0522 C943     		mvns	r1, r1
 1114              		.loc 1 245 0
 1115 0524 D243     		mvns	r2, r2
 1116              		.loc 1 246 0
 1117 0526 4FF0FF0E 		mov	lr, #255
 1118              	.LVL81:
 1119              		.loc 1 242 0
 1120 052a 5E70     		strb	r6, [r3, #1]
 1121              	.LVL82:
 1122              		.loc 1 243 0
 1123 052c 9D70     		strb	r5, [r3, #2]
 1124              	.LVL83:
 1125              		.loc 1 244 0
 1126 052e D970     		strb	r1, [r3, #3]
 1127              	.LVL84:
 1128              		.loc 1 245 0
 1129 0530 1A71     		strb	r2, [r3, #4]
 1130              		.loc 1 246 0
 1131 0532 83F805E0 		strb	lr, [r3, #5]
ARM GAS  /tmp/cc2QxYnP.s 			page 21


 1132 0536 F0BD     		pop	{r4, r5, r6, r7, pc}
 1133              	.LVL85:
 1134              	.L94:
 1135              		.cfi_def_cfa_offset 0
 1136              		.cfi_restore 4
 1137              		.cfi_restore 5
 1138              		.cfi_restore 6
 1139              		.cfi_restore 7
 1140              		.cfi_restore 14
 1141 0538 7047     		bx	lr
 1142              	.L96:
 1143 053a 00BF     		.align	2
 1144              	.L95:
 1145 053c 00000000 		.word	font
 1146 0540 00000000 		.word	.LANCHOR1
 1147              	.LBE19:
 1148              	.LBE18:
 1149              		.cfi_endproc
 1150              	.LFE142:
 1151              		.size	LCD_drawCharInv, .-LCD_drawCharInv
 1152              		.align	2
 1153 0544 AFF30080 		.p2align 4,,15
 1153      AFF30080 
 1153      AFF30080 
 1154              		.global	LCD_drawStringInv
 1155              		.thumb
 1156              		.thumb_func
 1157              		.type	LCD_drawStringInv, %function
 1158              	LCD_drawStringInv:
 1159              	.LFB143:
 1160              		.loc 1 249 0
 1161              		.cfi_startproc
 1162              		@ args = 0, pretend = 0, frame = 0
 1163              		@ frame_needed = 0, uses_anonymous_args = 0
 1164              	.LVL86:
 1165              		.loc 1 250 0
 1166 0550 0729     		cmp	r1, #7
 1167 0552 34D8     		bhi	.L106
 1168              		.loc 1 250 0 is_stmt 0 discriminator 1
 1169 0554 0028     		cmp	r0, #0
 1170 0556 32DB     		blt	.L106
 1171              		.loc 1 249 0 is_stmt 1
 1172 0558 F0B5     		push	{r4, r5, r6, r7, lr}
 1173              		.cfi_def_cfa_offset 20
 1174              		.cfi_offset 4, -20
 1175              		.cfi_offset 5, -16
 1176              		.cfi_offset 6, -12
 1177              		.cfi_offset 7, -8
 1178              		.cfi_offset 14, -4
 1179              		.loc 1 253 0
 1180 055a 031D     		adds	r3, r0, #4
 1181 055c 01EB4111 		add	r1, r1, r1, lsl #5
 1182              	.LVL87:
 1183 0560 03EB8101 		add	r1, r3, r1, lsl #2
 1184              	.LVL88:
 1185              		.loc 1 254 0
 1186 0564 164B     		ldr	r3, .L107
ARM GAS  /tmp/cc2QxYnP.s 			page 22


 1187 0566 FF27     		movs	r7, #255
 1188 0568 5F54     		strb	r7, [r3, r1]
 1189              	.LVL89:
 1190              		.loc 1 256 0
 1191 056a 1478     		ldrb	r4, [r2]	@ zero_extendqisi2
 1192 056c 0132     		adds	r2, r2, #1
 1193              	.LVL90:
 1194 056e 2CB3     		cbz	r4, .L97
 1195              	.LBB20:
 1196              		.loc 1 257 0
 1197 0570 7F28     		cmp	r0, #127
 1198 0572 23DC     		bgt	.L97
 1199 0574 0B44     		add	r3, r3, r1
 1200 0576 134E     		ldr	r6, .L107+4
 1201 0578 01E0     		b	.L100
 1202              	.LVL91:
 1203              	.L101:
 1204 057a 7F28     		cmp	r0, #127
 1205 057c 1EDC     		bgt	.L97
 1206              	.L100:
 1207              	.LVL92:
 1208              		.loc 1 260 0
 1209 057e 04EB8404 		add	r4, r4, r4, lsl #2
 1210              	.LVL93:
 1211              		.loc 1 262 0
 1212 0582 3119     		adds	r1, r6, r4
 1213              		.loc 1 261 0
 1214 0584 16F804C0 		ldrb	ip, [r6, r4]	@ zero_extendqisi2
 1215              		.loc 1 262 0
 1216 0588 91F801E0 		ldrb	lr, [r1, #1]	@ zero_extendqisi2
 1217              		.loc 1 263 0
 1218 058c 8D78     		ldrb	r5, [r1, #2]	@ zero_extendqisi2
 1219              		.loc 1 264 0
 1220 058e CC78     		ldrb	r4, [r1, #3]	@ zero_extendqisi2
 1221              		.loc 1 265 0
 1222 0590 0979     		ldrb	r1, [r1, #4]	@ zero_extendqisi2
 1223              		.loc 1 266 0
 1224 0592 9F71     		strb	r7, [r3, #6]
 1225              		.loc 1 264 0
 1226 0594 E443     		mvns	r4, r4
 1227              		.loc 1 261 0
 1228 0596 6FEA0C0C 		mvn	ip, ip
 1229              		.loc 1 262 0
 1230 059a 6FEA0E0E 		mvn	lr, lr
 1231              		.loc 1 263 0
 1232 059e ED43     		mvns	r5, r5
 1233              		.loc 1 265 0
 1234 05a0 C943     		mvns	r1, r1
 1235              		.loc 1 261 0
 1236 05a2 83F801C0 		strb	ip, [r3, #1]
 1237              		.loc 1 262 0
 1238 05a6 83F802E0 		strb	lr, [r3, #2]
 1239              		.loc 1 263 0
 1240 05aa DD70     		strb	r5, [r3, #3]
 1241              		.loc 1 264 0
 1242 05ac 1C71     		strb	r4, [r3, #4]
 1243              		.loc 1 265 0
ARM GAS  /tmp/cc2QxYnP.s 			page 23


 1244 05ae 5971     		strb	r1, [r3, #5]
 1245              	.LBE20:
 1246              		.loc 1 256 0
 1247 05b0 12F8014B 		ldrb	r4, [r2], #1	@ zero_extendqisi2
 1248              	.LVL94:
 1249 05b4 0633     		adds	r3, r3, #6
 1250              	.LVL95:
 1251              	.LBB21:
 1252              		.loc 1 259 0
 1253 05b6 0630     		adds	r0, r0, #6
 1254              	.LVL96:
 1255              	.LBE21:
 1256              		.loc 1 256 0
 1257 05b8 002C     		cmp	r4, #0
 1258 05ba DED1     		bne	.L101
 1259              	.L97:
 1260 05bc F0BD     		pop	{r4, r5, r6, r7, pc}
 1261              	.LVL97:
 1262              	.L106:
 1263              		.cfi_def_cfa_offset 0
 1264              		.cfi_restore 4
 1265              		.cfi_restore 5
 1266              		.cfi_restore 6
 1267              		.cfi_restore 7
 1268              		.cfi_restore 14
 1269 05be 7047     		bx	lr
 1270              	.L108:
 1271              		.align	2
 1272              	.L107:
 1273 05c0 00000000 		.word	.LANCHOR1
 1274 05c4 00000000 		.word	font
 1275              		.cfi_endproc
 1276              	.LFE143:
 1277              		.size	LCD_drawStringInv, .-LCD_drawStringInv
 1278              		.align	2
 1279 05c8 AFF30080 		.p2align 4,,15
 1279      AFF30080 
 1280              		.global	LCD_drawNumber3DInv
 1281              		.thumb
 1282              		.thumb_func
 1283              		.type	LCD_drawNumber3DInv, %function
 1284              	LCD_drawNumber3DInv:
 1285              	.LFB144:
 1286              		.loc 1 270 0
 1287              		.cfi_startproc
 1288              		@ args = 0, pretend = 0, frame = 0
 1289              		@ frame_needed = 0, uses_anonymous_args = 0
 1290              	.LVL98:
 1291 05d0 2DE9F041 		push	{r4, r5, r6, r7, r8, lr}
 1292              		.cfi_def_cfa_offset 24
 1293              		.cfi_offset 4, -24
 1294              		.cfi_offset 5, -20
 1295              		.cfi_offset 6, -16
 1296              		.cfi_offset 7, -12
 1297              		.cfi_offset 8, -8
 1298              		.cfi_offset 14, -4
 1299              		.loc 1 271 0
ARM GAS  /tmp/cc2QxYnP.s 			page 24


 1300 05d4 151E     		subs	r5, r2, #0
 1301              		.loc 1 278 0
 1302 05d6 DFF86480 		ldr	r8, .L113
 1303              		.loc 1 273 0
 1304 05da BABF     		itte	lt
 1305 05dc 6D42     		rsblt	r5, r5, #0
 1306              		.loc 1 272 0
 1307 05de 2D22     		movlt	r2, #45
 1308              	.LVL99:
 1309              		.loc 1 276 0
 1310 05e0 2022     		movge	r2, #32
 1311              		.loc 1 270 0
 1312 05e2 0746     		mov	r7, r0
 1313 05e4 0E46     		mov	r6, r1
 1314              		.loc 1 276 0
 1315 05e6 FFF7FEFF 		bl	LCD_drawCharInv
 1316              	.LVL100:
 1317              		.loc 1 278 0
 1318 05ea EB17     		asrs	r3, r5, #31
 1319 05ec 88FB0524 		smull	r2, r4, r8, r5
 1320 05f0 C3EBA404 		rsb	r4, r3, r4, asr #2
 1321 05f4 04EB8402 		add	r2, r4, r4, lsl #2
 1322 05f8 A5EB4202 		sub	r2, r5, r2, lsl #1
 1323 05fc 3032     		adds	r2, r2, #48
 1324 05fe 07F11200 		add	r0, r7, #18
 1325 0602 3146     		mov	r1, r6
 1326 0604 D2B2     		uxtb	r2, r2
 1327 0606 FFF7FEFF 		bl	LCD_drawCharInv
 1328              	.LVL101:
 1329              		.loc 1 280 0
 1330 060a 88FB0435 		smull	r3, r5, r8, r4
 1331 060e E317     		asrs	r3, r4, #31
 1332 0610 C3EBA505 		rsb	r5, r3, r5, asr #2
 1333 0614 05EB8502 		add	r2, r5, r5, lsl #2
 1334 0618 A4EB4202 		sub	r2, r4, r2, lsl #1
 1335 061c 3032     		adds	r2, r2, #48
 1336 061e 07F10C00 		add	r0, r7, #12
 1337 0622 3146     		mov	r1, r6
 1338 0624 D2B2     		uxtb	r2, r2
 1339 0626 FFF7FEFF 		bl	LCD_drawCharInv
 1340              	.LVL102:
 1341              		.loc 1 282 0
 1342 062a 05F13002 		add	r2, r5, #48
 1343 062e B81D     		adds	r0, r7, #6
 1344 0630 3146     		mov	r1, r6
 1345 0632 D2B2     		uxtb	r2, r2
 1346              		.loc 1 283 0
 1347 0634 BDE8F041 		pop	{r4, r5, r6, r7, r8, lr}
 1348              		.cfi_restore 14
 1349              		.cfi_restore 8
 1350              		.cfi_restore 7
 1351              		.cfi_restore 6
 1352              		.cfi_restore 5
 1353              		.cfi_restore 4
 1354              		.cfi_def_cfa_offset 0
 1355              	.LVL103:
 1356              		.loc 1 282 0
ARM GAS  /tmp/cc2QxYnP.s 			page 25


 1357 0638 FFF7FEBF 		b	LCD_drawCharInv
 1358              	.LVL104:
 1359              	.L114:
 1360              		.align	2
 1361              	.L113:
 1362 063c 67666666 		.word	1717986919
 1363              		.cfi_endproc
 1364              	.LFE144:
 1365              		.size	LCD_drawNumber3DInv, .-LCD_drawNumber3DInv
 1366              		.align	2
 1367              		.p2align 4,,15
 1368              		.global	LCD_drawNumber5DInv
 1369              		.thumb
 1370              		.thumb_func
 1371              		.type	LCD_drawNumber5DInv, %function
 1372              	LCD_drawNumber5DInv:
 1373              	.LFB145:
 1374              		.loc 1 285 0
 1375              		.cfi_startproc
 1376              		@ args = 0, pretend = 0, frame = 0
 1377              		@ frame_needed = 0, uses_anonymous_args = 0
 1378              	.LVL105:
 1379 0640 2DE9F041 		push	{r4, r5, r6, r7, r8, lr}
 1380              		.cfi_def_cfa_offset 24
 1381              		.cfi_offset 4, -24
 1382              		.cfi_offset 5, -20
 1383              		.cfi_offset 6, -16
 1384              		.cfi_offset 7, -12
 1385              		.cfi_offset 8, -8
 1386              		.cfi_offset 14, -4
 1387              		.loc 1 286 0
 1388 0644 151E     		subs	r5, r2, #0
 1389              		.loc 1 293 0
 1390 0646 DFF8A480 		ldr	r8, .L119
 1391              		.loc 1 288 0
 1392 064a BABF     		itte	lt
 1393 064c 6D42     		rsblt	r5, r5, #0
 1394              		.loc 1 287 0
 1395 064e 2D22     		movlt	r2, #45
 1396              	.LVL106:
 1397              		.loc 1 291 0
 1398 0650 2022     		movge	r2, #32
 1399              		.loc 1 285 0
 1400 0652 0746     		mov	r7, r0
 1401 0654 0E46     		mov	r6, r1
 1402              		.loc 1 291 0
 1403 0656 FFF7FEFF 		bl	LCD_drawCharInv
 1404              	.LVL107:
 1405              		.loc 1 293 0
 1406 065a EB17     		asrs	r3, r5, #31
 1407 065c 88FB0524 		smull	r2, r4, r8, r5
 1408 0660 C3EBA404 		rsb	r4, r3, r4, asr #2
 1409 0664 04EB8402 		add	r2, r4, r4, lsl #2
 1410 0668 A5EB4202 		sub	r2, r5, r2, lsl #1
 1411 066c 3032     		adds	r2, r2, #48
 1412 066e 07F11E00 		add	r0, r7, #30
 1413 0672 3146     		mov	r1, r6
ARM GAS  /tmp/cc2QxYnP.s 			page 26


 1414 0674 D2B2     		uxtb	r2, r2
 1415 0676 FFF7FEFF 		bl	LCD_drawCharInv
 1416              	.LVL108:
 1417              		.loc 1 295 0
 1418 067a 88FB0435 		smull	r3, r5, r8, r4
 1419 067e E317     		asrs	r3, r4, #31
 1420 0680 C3EBA505 		rsb	r5, r3, r5, asr #2
 1421 0684 05EB8502 		add	r2, r5, r5, lsl #2
 1422 0688 A4EB4202 		sub	r2, r4, r2, lsl #1
 1423 068c 3032     		adds	r2, r2, #48
 1424 068e 07F11800 		add	r0, r7, #24
 1425 0692 3146     		mov	r1, r6
 1426 0694 D2B2     		uxtb	r2, r2
 1427 0696 FFF7FEFF 		bl	LCD_drawCharInv
 1428              	.LVL109:
 1429              		.loc 1 297 0
 1430 069a 88FB0534 		smull	r3, r4, r8, r5
 1431 069e EB17     		asrs	r3, r5, #31
 1432 06a0 C3EBA404 		rsb	r4, r3, r4, asr #2
 1433 06a4 04EB8402 		add	r2, r4, r4, lsl #2
 1434 06a8 A5EB4202 		sub	r2, r5, r2, lsl #1
 1435 06ac 3032     		adds	r2, r2, #48
 1436 06ae 07F11200 		add	r0, r7, #18
 1437 06b2 3146     		mov	r1, r6
 1438 06b4 D2B2     		uxtb	r2, r2
 1439 06b6 FFF7FEFF 		bl	LCD_drawCharInv
 1440              	.LVL110:
 1441              		.loc 1 299 0
 1442 06ba 88FB0438 		smull	r3, r8, r8, r4
 1443 06be E317     		asrs	r3, r4, #31
 1444 06c0 C3EBA808 		rsb	r8, r3, r8, asr #2
 1445 06c4 08EB8802 		add	r2, r8, r8, lsl #2
 1446 06c8 A4EB4202 		sub	r2, r4, r2, lsl #1
 1447 06cc 3032     		adds	r2, r2, #48
 1448 06ce 07F10C00 		add	r0, r7, #12
 1449 06d2 3146     		mov	r1, r6
 1450 06d4 D2B2     		uxtb	r2, r2
 1451 06d6 FFF7FEFF 		bl	LCD_drawCharInv
 1452              	.LVL111:
 1453              		.loc 1 301 0
 1454 06da 08F13002 		add	r2, r8, #48
 1455 06de B81D     		adds	r0, r7, #6
 1456 06e0 3146     		mov	r1, r6
 1457 06e2 D2B2     		uxtb	r2, r2
 1458              		.loc 1 302 0
 1459 06e4 BDE8F041 		pop	{r4, r5, r6, r7, r8, lr}
 1460              		.cfi_restore 14
 1461              		.cfi_restore 8
 1462              		.cfi_restore 7
 1463              		.cfi_restore 6
 1464              		.cfi_restore 5
 1465              		.cfi_restore 4
 1466              		.cfi_def_cfa_offset 0
 1467              	.LVL112:
 1468              		.loc 1 301 0
 1469 06e8 FFF7FEBF 		b	LCD_drawCharInv
 1470              	.LVL113:
ARM GAS  /tmp/cc2QxYnP.s 			page 27


 1471              	.L120:
 1472              		.align	2
 1473              	.L119:
 1474 06ec 67666666 		.word	1717986919
 1475              		.cfi_endproc
 1476              	.LFE145:
 1477              		.size	LCD_drawNumber5DInv, .-LCD_drawNumber5DInv
 1478              		.align	2
 1479              		.p2align 4,,15
 1480              		.global	LCD_drawStringN
 1481              		.thumb
 1482              		.thumb_func
 1483              		.type	LCD_drawStringN, %function
 1484              	LCD_drawStringN:
 1485              	.LFB146:
 1486              		.loc 1 304 0
 1487              		.cfi_startproc
 1488              		@ args = 0, pretend = 0, frame = 0
 1489              		@ frame_needed = 0, uses_anonymous_args = 0
 1490              	.LVL114:
 1491              		.loc 1 306 0
 1492 06f0 0729     		cmp	r1, #7
 1493 06f2 45D8     		bhi	.L137
 1494              		.loc 1 306 0 is_stmt 0 discriminator 1
 1495 06f4 0028     		cmp	r0, #0
 1496 06f6 43DB     		blt	.L137
 1497              		.loc 1 308 0 is_stmt 1
 1498 06f8 01EB4111 		add	r1, r1, r1, lsl #5
 1499              	.LVL115:
 1500 06fc DFF88CC0 		ldr	ip, .L139+4
 1501              		.loc 1 304 0
 1502 0700 2DE9F047 		push	{r4, r5, r6, r7, r8, r9, r10, lr}
 1503              		.cfi_def_cfa_offset 32
 1504              		.cfi_offset 4, -32
 1505              		.cfi_offset 5, -28
 1506              		.cfi_offset 6, -24
 1507              		.cfi_offset 7, -20
 1508              		.cfi_offset 8, -16
 1509              		.cfi_offset 9, -12
 1510              		.cfi_offset 10, -8
 1511              		.cfi_offset 14, -4
 1512              		.loc 1 308 0
 1513 0704 8900     		lsls	r1, r1, #2
 1514 0706 0CEB0103 		add	r3, ip, r1
 1515              	.LVL116:
 1516 070a 0344     		add	r3, r3, r0
 1517 070c 4FF00009 		mov	r9, #0
 1518 0710 83F80490 		strb	r9, [r3, #4]
 1519              		.loc 1 310 0
 1520 0714 1478     		ldrb	r4, [r2]	@ zero_extendqisi2
 1521 0716 561C     		adds	r6, r2, #1
 1522              		.loc 1 309 0
 1523 0718 431C     		adds	r3, r0, #1
 1524              	.LVL117:
 1525              		.loc 1 310 0
 1526 071a 14B3     		cbz	r4, .L124
 1527              	.LBB22:
ARM GAS  /tmp/cc2QxYnP.s 			page 28


 1528              		.loc 1 311 0
 1529 071c 7A2B     		cmp	r3, #122
 1530 071e 20DC     		bgt	.L124
 1531 0720 0844     		add	r0, r0, r1
 1532 0722 194F     		ldr	r7, .L139
 1533 0724 6044     		add	r0, r0, ip
 1534 0726 01E0     		b	.L126
 1535              	.LVL118:
 1536              	.L128:
 1537 0728 7A2B     		cmp	r3, #122
 1538 072a 1ADC     		bgt	.L124
 1539              	.LVL119:
 1540              	.L126:
 1541              		.loc 1 313 0
 1542 072c 04EB8404 		add	r4, r4, r4, lsl #2
 1543              	.LVL120:
 1544              		.loc 1 316 0
 1545 0730 3D19     		adds	r5, r7, r4
 1546              		.loc 1 315 0
 1547 0732 17F804A0 		ldrb	r10, [r7, r4]	@ zero_extendqisi2
 1548              		.loc 1 316 0
 1549 0736 95F80180 		ldrb	r8, [r5, #1]	@ zero_extendqisi2
 1550              		.loc 1 319 0
 1551 073a 2C79     		ldrb	r4, [r5, #4]	@ zero_extendqisi2
 1552              	.LVL121:
 1553              		.loc 1 317 0
 1554 073c AA78     		ldrb	r2, [r5, #2]	@ zero_extendqisi2
 1555              		.loc 1 318 0
 1556 073e 95F803E0 		ldrb	lr, [r5, #3]	@ zero_extendqisi2
 1557              		.loc 1 320 0
 1558 0742 80F80A90 		strb	r9, [r0, #10]
 1559              		.loc 1 315 0
 1560 0746 80F805A0 		strb	r10, [r0, #5]
 1561              	.LVL122:
 1562              		.loc 1 316 0
 1563 074a 80F80680 		strb	r8, [r0, #6]
 1564              	.LVL123:
 1565              		.loc 1 317 0
 1566 074e C271     		strb	r2, [r0, #7]
 1567              	.LVL124:
 1568              		.loc 1 318 0
 1569 0750 80F808E0 		strb	lr, [r0, #8]
 1570              	.LVL125:
 1571              		.loc 1 319 0
 1572 0754 4472     		strb	r4, [r0, #9]
 1573              	.LBE22:
 1574              		.loc 1 310 0
 1575 0756 16F8014B 		ldrb	r4, [r6], #1	@ zero_extendqisi2
 1576              	.LVL126:
 1577 075a 0630     		adds	r0, r0, #6
 1578              	.LBB23:
 1579              		.loc 1 321 0
 1580 075c 0633     		adds	r3, r3, #6
 1581              	.LVL127:
 1582              	.LBE23:
 1583              		.loc 1 310 0
 1584 075e 002C     		cmp	r4, #0
ARM GAS  /tmp/cc2QxYnP.s 			page 29


 1585 0760 E2D1     		bne	.L128
 1586              	.LVL128:
 1587              	.L124:
 1588              		.loc 1 323 0
 1589 0762 7F2B     		cmp	r3, #127
 1590 0764 0DDC     		bgt	.L138
 1591 0766 CA1C     		adds	r2, r1, #3
 1592 0768 1344     		add	r3, r3, r2
 1593              	.LVL129:
 1594 076a 8331     		adds	r1, r1, #131
 1595 076c 0CEB0102 		add	r2, ip, r1
 1596 0770 6344     		add	r3, r3, ip
 1597              	.LBB24:
 1598              		.loc 1 325 0
 1599 0772 0021     		movs	r1, #0
 1600              	.L129:
 1601              	.LVL130:
 1602 0774 03F8011F 		strb	r1, [r3, #1]!
 1603              	.LVL131:
 1604              	.LBE24:
 1605              		.loc 1 323 0
 1606 0778 9342     		cmp	r3, r2
 1607 077a FBD1     		bne	.L129
 1608 077c BDE8F087 		pop	{r4, r5, r6, r7, r8, r9, r10, pc}
 1609              	.LVL132:
 1610              	.L137:
 1611              		.cfi_def_cfa_offset 0
 1612              		.cfi_restore 4
 1613              		.cfi_restore 5
 1614              		.cfi_restore 6
 1615              		.cfi_restore 7
 1616              		.cfi_restore 8
 1617              		.cfi_restore 9
 1618              		.cfi_restore 10
 1619              		.cfi_restore 14
 1620 0780 7047     		bx	lr
 1621              	.LVL133:
 1622              	.L138:
 1623              		.cfi_def_cfa_offset 32
 1624              		.cfi_offset 4, -32
 1625              		.cfi_offset 5, -28
 1626              		.cfi_offset 6, -24
 1627              		.cfi_offset 7, -20
 1628              		.cfi_offset 8, -16
 1629              		.cfi_offset 9, -12
 1630              		.cfi_offset 10, -8
 1631              		.cfi_offset 14, -4
 1632 0782 BDE8F087 		pop	{r4, r5, r6, r7, r8, r9, r10, pc}
 1633              	.LVL134:
 1634              	.L140:
 1635 0786 00BF     		.align	2
 1636              	.L139:
 1637 0788 00000000 		.word	font
 1638 078c 00000000 		.word	.LANCHOR1
 1639              		.cfi_endproc
 1640              	.LFE146:
 1641              		.size	LCD_drawStringN, .-LCD_drawStringN
ARM GAS  /tmp/cc2QxYnP.s 			page 30


 1642              		.align	2
 1643              		.p2align 4,,15
 1644              		.global	LCD_drawStringInvN
 1645              		.thumb
 1646              		.thumb_func
 1647              		.type	LCD_drawStringInvN, %function
 1648              	LCD_drawStringInvN:
 1649              	.LFB147:
 1650              		.loc 1 330 0
 1651              		.cfi_startproc
 1652              		@ args = 0, pretend = 0, frame = 0
 1653              		@ frame_needed = 0, uses_anonymous_args = 0
 1654              	.LVL135:
 1655              		.loc 1 332 0
 1656 0790 0729     		cmp	r1, #7
 1657 0792 4CD8     		bhi	.L157
 1658              		.loc 1 332 0 is_stmt 0 discriminator 1
 1659 0794 0028     		cmp	r0, #0
 1660 0796 4ADB     		blt	.L157
 1661              		.loc 1 330 0 is_stmt 1
 1662 0798 2DE9F047 		push	{r4, r5, r6, r7, r8, r9, r10, lr}
 1663              		.cfi_def_cfa_offset 32
 1664              		.cfi_offset 4, -32
 1665              		.cfi_offset 5, -28
 1666              		.cfi_offset 6, -24
 1667              		.cfi_offset 7, -20
 1668              		.cfi_offset 8, -16
 1669              		.cfi_offset 9, -12
 1670              		.cfi_offset 10, -8
 1671              		.cfi_offset 14, -4
 1672              		.loc 1 334 0
 1673 079c 01EB4111 		add	r1, r1, r1, lsl #5
 1674              	.LVL136:
 1675 07a0 244F     		ldr	r7, .L159
 1676 07a2 8900     		lsls	r1, r1, #2
 1677 07a4 7B18     		adds	r3, r7, r1
 1678              	.LVL137:
 1679 07a6 0344     		add	r3, r3, r0
 1680 07a8 4FF0FF0C 		mov	ip, #255
 1681 07ac 83F804C0 		strb	ip, [r3, #4]
 1682              		.loc 1 336 0
 1683 07b0 1478     		ldrb	r4, [r2]	@ zero_extendqisi2
 1684              		.loc 1 335 0
 1685 07b2 431C     		adds	r3, r0, #1
 1686              	.LVL138:
 1687              		.loc 1 336 0
 1688 07b4 0132     		adds	r2, r2, #1
 1689              	.LVL139:
 1690 07b6 64B3     		cbz	r4, .L144
 1691              	.LBB25:
 1692              		.loc 1 337 0
 1693 07b8 7A2B     		cmp	r3, #122
 1694 07ba 2ADC     		bgt	.L144
 1695 07bc 0844     		add	r0, r0, r1
 1696 07be DFF878E0 		ldr	lr, .L159+4
 1697 07c2 3844     		add	r0, r0, r7
 1698 07c4 01E0     		b	.L146
ARM GAS  /tmp/cc2QxYnP.s 			page 31


 1699              	.LVL140:
 1700              	.L148:
 1701 07c6 7A2B     		cmp	r3, #122
 1702 07c8 23DC     		bgt	.L144
 1703              	.LVL141:
 1704              	.L146:
 1705              		.loc 1 339 0
 1706 07ca 04EB8404 		add	r4, r4, r4, lsl #2
 1707              	.LVL142:
 1708              		.loc 1 342 0
 1709 07ce 0EEB0405 		add	r5, lr, r4
 1710              		.loc 1 341 0
 1711 07d2 1EF804A0 		ldrb	r10, [lr, r4]	@ zero_extendqisi2
 1712              		.loc 1 342 0
 1713 07d6 95F80190 		ldrb	r9, [r5, #1]	@ zero_extendqisi2
 1714              		.loc 1 343 0
 1715 07da 95F80280 		ldrb	r8, [r5, #2]	@ zero_extendqisi2
 1716              		.loc 1 345 0
 1717 07de 2C79     		ldrb	r4, [r5, #4]	@ zero_extendqisi2
 1718              	.LVL143:
 1719              		.loc 1 344 0
 1720 07e0 EE78     		ldrb	r6, [r5, #3]	@ zero_extendqisi2
 1721              		.loc 1 346 0
 1722 07e2 80F80AC0 		strb	ip, [r0, #10]
 1723              		.loc 1 345 0
 1724 07e6 E443     		mvns	r4, r4
 1725              		.loc 1 341 0
 1726 07e8 6FEA0A0A 		mvn	r10, r10
 1727              		.loc 1 342 0
 1728 07ec 6FEA0909 		mvn	r9, r9
 1729              		.loc 1 343 0
 1730 07f0 6FEA0808 		mvn	r8, r8
 1731              		.loc 1 344 0
 1732 07f4 F543     		mvns	r5, r6
 1733              		.loc 1 341 0
 1734 07f6 80F805A0 		strb	r10, [r0, #5]
 1735              	.LVL144:
 1736              		.loc 1 342 0
 1737 07fa 80F80690 		strb	r9, [r0, #6]
 1738              	.LVL145:
 1739              		.loc 1 343 0
 1740 07fe 80F80780 		strb	r8, [r0, #7]
 1741              	.LVL146:
 1742              		.loc 1 344 0
 1743 0802 0572     		strb	r5, [r0, #8]
 1744              	.LVL147:
 1745              		.loc 1 345 0
 1746 0804 4472     		strb	r4, [r0, #9]
 1747              	.LBE25:
 1748              		.loc 1 336 0
 1749 0806 12F8014B 		ldrb	r4, [r2], #1	@ zero_extendqisi2
 1750              	.LVL148:
 1751 080a 0630     		adds	r0, r0, #6
 1752              	.LBB26:
 1753              		.loc 1 347 0
 1754 080c 0633     		adds	r3, r3, #6
 1755              	.LVL149:
ARM GAS  /tmp/cc2QxYnP.s 			page 32


 1756              	.LBE26:
 1757              		.loc 1 336 0
 1758 080e 002C     		cmp	r4, #0
 1759 0810 D9D1     		bne	.L148
 1760              	.LVL150:
 1761              	.L144:
 1762              		.loc 1 349 0
 1763 0812 7F2B     		cmp	r3, #127
 1764 0814 0CDC     		bgt	.L158
 1765 0816 CA1C     		adds	r2, r1, #3
 1766 0818 1344     		add	r3, r3, r2
 1767              	.LVL151:
 1768 081a 8331     		adds	r1, r1, #131
 1769 081c 7A18     		adds	r2, r7, r1
 1770 081e 3B44     		add	r3, r3, r7
 1771              	.LBB27:
 1772              		.loc 1 351 0
 1773 0820 FF21     		movs	r1, #255
 1774              	.L149:
 1775              	.LVL152:
 1776 0822 03F8011F 		strb	r1, [r3, #1]!
 1777              	.LVL153:
 1778              	.LBE27:
 1779              		.loc 1 349 0
 1780 0826 9342     		cmp	r3, r2
 1781 0828 FBD1     		bne	.L149
 1782 082a BDE8F087 		pop	{r4, r5, r6, r7, r8, r9, r10, pc}
 1783              	.LVL154:
 1784              	.L157:
 1785              		.cfi_def_cfa_offset 0
 1786              		.cfi_restore 4
 1787              		.cfi_restore 5
 1788              		.cfi_restore 6
 1789              		.cfi_restore 7
 1790              		.cfi_restore 8
 1791              		.cfi_restore 9
 1792              		.cfi_restore 10
 1793              		.cfi_restore 14
 1794 082e 7047     		bx	lr
 1795              	.LVL155:
 1796              	.L158:
 1797              		.cfi_def_cfa_offset 32
 1798              		.cfi_offset 4, -32
 1799              		.cfi_offset 5, -28
 1800              		.cfi_offset 6, -24
 1801              		.cfi_offset 7, -20
 1802              		.cfi_offset 8, -16
 1803              		.cfi_offset 9, -12
 1804              		.cfi_offset 10, -8
 1805              		.cfi_offset 14, -4
 1806 0830 BDE8F087 		pop	{r4, r5, r6, r7, r8, r9, r10, pc}
 1807              	.LVL156:
 1808              	.L160:
 1809              		.align	2
 1810              	.L159:
 1811 0834 00000000 		.word	.LANCHOR1
 1812 0838 00000000 		.word	font
ARM GAS  /tmp/cc2QxYnP.s 			page 33


 1813              		.cfi_endproc
 1814              	.LFE147:
 1815              		.size	LCD_drawStringInvN, .-LCD_drawStringInvN
 1816              		.align	2
 1817 083c AFF30080 		.p2align 4,,15
 1818              		.global	LCD_drawIBAR
 1819              		.thumb
 1820              		.thumb_func
 1821              		.type	LCD_drawIBAR, %function
 1822              	LCD_drawIBAR:
 1823              	.LFB148:
 1824              		.loc 1 356 0
 1825              		.cfi_startproc
 1826              		@ args = 0, pretend = 0, frame = 0
 1827              		@ frame_needed = 0, uses_anonymous_args = 0
 1828              	.LVL157:
 1829              		.loc 1 357 0
 1830 0840 0729     		cmp	r1, #7
 1831 0842 2AD8     		bhi	.L178
 1832              		.loc 1 357 0 is_stmt 0 discriminator 1
 1833 0844 0028     		cmp	r0, #0
 1834 0846 28DB     		blt	.L178
 1835              		.loc 1 356 0 is_stmt 1
 1836 0848 F0B5     		push	{r4, r5, r6, r7, lr}
 1837              		.cfi_def_cfa_offset 20
 1838              		.cfi_offset 4, -20
 1839              		.cfi_offset 5, -16
 1840              		.cfi_offset 6, -12
 1841              		.cfi_offset 7, -8
 1842              		.cfi_offset 14, -4
 1843              		.loc 1 359 0
 1844 084a 041D     		adds	r4, r0, #4
 1845 084c 04EBC111 		add	r1, r4, r1, lsl #7
 1846              	.LVL158:
 1847              		.loc 1 362 0
 1848 0850 002A     		cmp	r2, #0
 1849 0852 1A4F     		ldr	r7, .L181
 1850 0854 01F1FF34 		add	r4, r1, #-1
 1851 0858 01F11D0E 		add	lr, r1, #29
 1852 085c 1EDD     		ble	.L164
 1853 085e 3C44     		add	r4, r4, r7
 1854 0860 BE44     		add	lr, lr, r7
 1855 0862 0125     		movs	r5, #1
 1856              	.LVL159:
 1857              	.L166:
 1858              		.loc 1 365 0
 1859 0864 AA42     		cmp	r2, r5
 1860 0866 CCBF     		ite	gt
 1861 0868 0226     		movgt	r6, #2
 1862 086a 0026     		movle	r6, #0
 1863 086c 04F8016F 		strb	r6, [r4, #1]!
 1864              	.LVL160:
 1865              		.loc 1 363 0
 1866 0870 7445     		cmp	r4, lr
 1867              		.loc 1 366 0
 1868 0872 4FEA4505 		lsl	r5, r5, #1
 1869              	.LVL161:
ARM GAS  /tmp/cc2QxYnP.s 			page 34


 1870              		.loc 1 363 0
 1871 0876 F5D1     		bne	.L166
 1872              	.LVL162:
 1873              	.L179:
 1874 0878 1E30     		adds	r0, r0, #30
 1875              		.loc 1 377 0
 1876 087a 9842     		cmp	r0, r3
 1877 087c 01F11E01 		add	r1, r1, #30
 1878              	.LVL163:
 1879 0880 1BDA     		bge	.L180
 1880 0882 013B     		subs	r3, r3, #1
 1881              	.LVL164:
 1882 0884 CA18     		adds	r2, r1, r3
 1883              	.LVL165:
 1884 0886 121A     		subs	r2, r2, r0
 1885 0888 0139     		subs	r1, r1, #1
 1886              	.LVL166:
 1887 088a 7B18     		adds	r3, r7, r1
 1888              	.LVL167:
 1889 088c 3A44     		add	r2, r2, r7
 1890              		.loc 1 378 0
 1891 088e 0021     		movs	r1, #0
 1892              	.LVL168:
 1893              	.L171:
 1894 0890 03F8011F 		strb	r1, [r3, #1]!
 1895              	.LVL169:
 1896              		.loc 1 377 0
 1897 0894 9342     		cmp	r3, r2
 1898 0896 FBD1     		bne	.L171
 1899 0898 F0BD     		pop	{r4, r5, r6, r7, pc}
 1900              	.LVL170:
 1901              	.L178:
 1902              		.cfi_def_cfa_offset 0
 1903              		.cfi_restore 4
 1904              		.cfi_restore 5
 1905              		.cfi_restore 6
 1906              		.cfi_restore 7
 1907              		.cfi_restore 14
 1908 089a 7047     		bx	lr
 1909              	.LVL171:
 1910              	.L164:
 1911              		.cfi_def_cfa_offset 20
 1912              		.cfi_offset 4, -20
 1913              		.cfi_offset 5, -16
 1914              		.cfi_offset 6, -12
 1915              		.cfi_offset 7, -8
 1916              		.cfi_offset 14, -4
 1917              		.loc 1 370 0
 1918 089c 5242     		negs	r2, r2
 1919              	.LVL172:
 1920 089e 3C44     		add	r4, r4, r7
 1921 08a0 BE44     		add	lr, lr, r7
 1922              		.loc 1 360 0
 1923 08a2 0125     		movs	r5, #1
 1924              	.LVL173:
 1925              	.L169:
 1926              		.loc 1 373 0
ARM GAS  /tmp/cc2QxYnP.s 			page 35


 1927 08a4 AA42     		cmp	r2, r5
 1928 08a6 CCBF     		ite	gt
 1929 08a8 4026     		movgt	r6, #64
 1930 08aa 0026     		movle	r6, #0
 1931 08ac 04F8016F 		strb	r6, [r4, #1]!
 1932              	.LVL174:
 1933              		.loc 1 371 0
 1934 08b0 7445     		cmp	r4, lr
 1935              		.loc 1 374 0
 1936 08b2 4FEA4505 		lsl	r5, r5, #1
 1937              	.LVL175:
 1938              		.loc 1 371 0
 1939 08b6 F5D1     		bne	.L169
 1940 08b8 DEE7     		b	.L179
 1941              	.LVL176:
 1942              	.L180:
 1943 08ba F0BD     		pop	{r4, r5, r6, r7, pc}
 1944              	.LVL177:
 1945              	.L182:
 1946              		.align	2
 1947              	.L181:
 1948 08bc 00000000 		.word	.LANCHOR1
 1949              		.cfi_endproc
 1950              	.LFE148:
 1951              		.size	LCD_drawIBAR, .-LCD_drawIBAR
 1952              		.align	2
 1953              		.p2align 4,,15
 1954              		.global	LCD_drawIBARadd
 1955              		.thumb
 1956              		.thumb_func
 1957              		.type	LCD_drawIBARadd, %function
 1958              	LCD_drawIBARadd:
 1959              	.LFB149:
 1960              		.loc 1 383 0
 1961              		.cfi_startproc
 1962              		@ args = 0, pretend = 0, frame = 0
 1963              		@ frame_needed = 0, uses_anonymous_args = 0
 1964              		@ link register save eliminated.
 1965              	.LVL178:
 1966              		.loc 1 384 0
 1967 08c0 3F29     		cmp	r1, #63
 1968 08c2 21D8     		bhi	.L191
 1969              		.loc 1 384 0 is_stmt 0 discriminator 1
 1970 08c4 0028     		cmp	r0, #0
 1971 08c6 1FDB     		blt	.L191
 1972              		.loc 1 383 0 is_stmt 1
 1973 08c8 70B4     		push	{r4, r5, r6}
 1974              		.cfi_def_cfa_offset 12
 1975              		.cfi_offset 4, -12
 1976              		.cfi_offset 5, -8
 1977              		.cfi_offset 6, -4
 1978              		.loc 1 388 0
 1979 08ca 1518     		adds	r5, r2, r0
 1980 08cc 802D     		cmp	r5, #128
 1981              		.loc 1 389 0
 1982 08ce C8BF     		it	gt
 1983 08d0 C0F18002 		rsbgt	r2, r0, #128
ARM GAS  /tmp/cc2QxYnP.s 			page 36


 1984              	.LVL179:
 1985              		.loc 1 386 0
 1986 08d4 031D     		adds	r3, r0, #4
 1987              		.loc 1 387 0
 1988 08d6 01F00706 		and	r6, r1, #7
 1989 08da 0124     		movs	r4, #1
 1990              		.loc 1 392 0
 1991 08dc 002A     		cmp	r2, #0
 1992              		.loc 1 386 0
 1993 08de 03EBC113 		add	r3, r3, r1, lsl #7
 1994              	.LVL180:
 1995              		.loc 1 387 0
 1996 08e2 04FA06F4 		lsl	r4, r4, r6
 1997              	.LVL181:
 1998              		.loc 1 392 0
 1999 08e6 0EDD     		ble	.L183
 2000 08e8 0848     		ldr	r0, .L192
 2001              	.LVL182:
 2002 08ea 013B     		subs	r3, r3, #1
 2003 08ec D118     		adds	r1, r2, r3
 2004              	.LVL183:
 2005 08ee E543     		mvns	r5, r4
 2006 08f0 0144     		add	r1, r1, r0
 2007 08f2 C218     		adds	r2, r0, r3
 2008              	.LVL184:
 2009 08f4 EDB2     		uxtb	r5, r5
 2010 08f6 E0B2     		uxtb	r0, r4
 2011              	.LVL185:
 2012              	.L187:
 2013              		.loc 1 395 0 discriminator 3
 2014 08f8 12F8013F 		ldrb	r3, [r2, #1]!	@ zero_extendqisi2
 2015              	.LVL186:
 2016 08fc 2B40     		ands	r3, r3, r5
 2017              		.loc 1 396 0 discriminator 3
 2018 08fe 0344     		add	r3, r3, r0
 2019              		.loc 1 393 0 discriminator 3
 2020 0900 8A42     		cmp	r2, r1
 2021              		.loc 1 396 0 discriminator 3
 2022 0902 1370     		strb	r3, [r2]
 2023              		.loc 1 393 0 discriminator 3
 2024 0904 F8D1     		bne	.L187
 2025              	.LVL187:
 2026              	.L183:
 2027              		.loc 1 399 0
 2028 0906 70BC     		pop	{r4, r5, r6}
 2029              		.cfi_restore 6
 2030              		.cfi_restore 5
 2031              		.cfi_restore 4
 2032              		.cfi_def_cfa_offset 0
 2033              	.LVL188:
 2034              	.L191:
 2035 0908 7047     		bx	lr
 2036              	.L193:
 2037 090a 00BF     		.align	2
 2038              	.L192:
 2039 090c 00000000 		.word	.LANCHOR1
 2040              		.cfi_endproc
ARM GAS  /tmp/cc2QxYnP.s 			page 37


 2041              	.LFE149:
 2042              		.size	LCD_drawIBARadd, .-LCD_drawIBARadd
 2043              		.comm	k,1,1
 2044              		.comm	row_update_index,1,1
 2045              		.global	control_rx_buffer
 2046              		.global	led_buffer
 2047              		.global	lcd_buffer
 2048              		.section	.rodata
 2049              		.align	2
 2050              		.set	.LANCHOR0,. + 0
 2051              		.type	ls_spicfg, %object
 2052              		.size	ls_spicfg, 12
 2053              	ls_spicfg:
 2054 0000 00000000 		.word	0
 2055 0004 00000240 		.word	1073872896
 2056 0008 0F00     		.short	15
 2057 000a 1800     		.short	24
 2058              		.section	.sram2,"aw",%progbits
 2059              		.align	2
 2060              		.set	.LANCHOR1,. + 0
 2061              		.type	lcd_buffer, %object
 2062              		.size	lcd_buffer, 1056
 2063              	lcd_buffer:
 2064 0000 00000000 		.space	1056
 2064      00000000 
 2064      00000000 
 2064      00000000 
 2064      00000000 
 2065              		.type	control_rx_buffer, %object
 2066              		.size	control_rx_buffer, 132
 2067              	control_rx_buffer:
 2068 0420 00000000 		.space	132
 2068      00000000 
 2068      00000000 
 2068      00000000 
 2068      00000000 
 2069              		.type	led_buffer, %object
 2070              		.size	led_buffer, 132
 2071              	led_buffer:
 2072 04a4 00000000 		.space	132
 2072      00000000 
 2072      00000000 
 2072      00000000 
 2072      00000000 
 2073              		.text
 2074              	.Letext0:
 2075              		.file 2 "/home/sbcu/Dropbox/pcb-layouts/axo-on-discovery-board/axoloti/platform_linux/lib/gcc/arm-
 2076              		.file 3 "/home/sbcu/Dropbox/pcb-layouts/axo-on-discovery-board/axoloti/platform_linux/arm-none-eab
 2077              		.file 4 "/home/sbcu/Dropbox/pcb-layouts/axo-on-discovery-board/axoloti/platform_linux/arm-none-eab
 2078              		.file 5 "/home/sbcu/Dropbox/pcb-layouts/axo-on-discovery-board/axoloti/platform_linux/../chibios/o
 2079              		.file 6 "/home/sbcu/Dropbox/pcb-layouts/axo-on-discovery-board/axoloti/platform_linux/../chibios/o
 2080              		.file 7 "/home/sbcu/Dropbox/pcb-layouts/axo-on-discovery-board/axoloti/platform_linux/../chibios/o
 2081              		.file 8 "/home/sbcu/Dropbox/pcb-layouts/axo-on-discovery-board/axoloti/platform_linux/../chibios/o
 2082              		.file 9 "/home/sbcu/Dropbox/pcb-layouts/axo-on-discovery-board/axoloti/platform_linux/../chibios/o
 2083              		.file 10 "/home/sbcu/Dropbox/pcb-layouts/axo-on-discovery-board/axoloti/platform_linux/../chibios/
 2084              		.file 11 "/home/sbcu/Dropbox/pcb-layouts/axo-on-discovery-board/axoloti/platform_linux/../chibios/
 2085              		.file 12 "/home/sbcu/Dropbox/pcb-layouts/axo-on-discovery-board/axoloti/platform_linux/../chibios/
ARM GAS  /tmp/cc2QxYnP.s 			page 38


 2086              		.file 13 "/home/sbcu/Dropbox/pcb-layouts/axo-on-discovery-board/axoloti/platform_linux/../chibios/
 2087              		.file 14 "/home/sbcu/Dropbox/pcb-layouts/axo-on-discovery-board/axoloti/platform_linux/../chibios/
 2088              		.file 15 "ui.h"
 2089              		.file 16 "/home/sbcu/Dropbox/pcb-layouts/axo-on-discovery-board/axoloti/platform_linux/../CMSIS//I
 2090              		.file 17 "axoloti_board.h"