ARM GAS  /tmp/cc0DCpQG.s 			page 1


   1              		.syntax unified
   2              		.cpu cortex-m4
   3              		.eabi_attribute 27, 1
   4              		.eabi_attribute 28, 1
   5              		.fpu fpv4-sp-d16
   6              		.eabi_attribute 20, 1
   7              		.eabi_attribute 21, 1
   8              		.eabi_attribute 23, 3
   9              		.eabi_attribute 24, 1
  10              		.eabi_attribute 25, 1
  11              		.eabi_attribute 26, 1
  12              		.eabi_attribute 30, 2
  13              		.eabi_attribute 34, 1
  14              		.eabi_attribute 18, 4
  15              		.thumb
  16              		.file	"axoloti_memory.c"
  17              		.text
  18              	.Ltext0:
  19              		.cfi_sections	.debug_frame
  20              		.align	2
  21              		.p2align 4,,15
  22              		.global	sdram_init
  23              		.thumb
  24              		.thumb_func
  25              		.type	sdram_init, %function
  26              	sdram_init:
  27              	.LFB7:
  28              		.file 1 "axoloti_memory.c"
  29              		.loc 1 14 0
  30              		.cfi_startproc
  31              		@ args = 0, pretend = 0, frame = 0
  32              		@ frame_needed = 0, uses_anonymous_args = 0
  33              		@ link register save eliminated.
  34              	.LVL0:
  35              		.loc 1 16 0
  36 0000 054B     		ldr	r3, .L3
  37              		.loc 1 14 0
  38 0002 10B4     		push	{r4}
  39              		.cfi_def_cfa_offset 4
  40              		.cfi_offset 4, -4
  41              		.loc 1 19 0
  42 0004 0022     		movs	r2, #0
  43              		.loc 1 20 0
  44 0006 0C1A     		subs	r4, r1, r0
  45 0008 1C61     		str	r4, [r3, #16]
  46              		.loc 1 16 0
  47 000a 1860     		str	r0, [r3]
  48              		.loc 1 17 0
  49 000c 5860     		str	r0, [r3, #4]
  50              		.loc 1 18 0
  51 000e 9960     		str	r1, [r3, #8]
  52              		.loc 1 19 0
  53 0010 DA60     		str	r2, [r3, #12]
  54              		.loc 1 21 0
  55 0012 5DF8044B 		ldr	r4, [sp], #4
  56              		.cfi_restore 4
  57              		.cfi_def_cfa_offset 0
ARM GAS  /tmp/cc0DCpQG.s 			page 2


  58 0016 7047     		bx	lr
  59              	.L4:
  60              		.align	2
  61              	.L3:
  62 0018 00000000 		.word	.LANCHOR0
  63              		.cfi_endproc
  64              	.LFE7:
  65              		.size	sdram_init, .-sdram_init
  66              		.align	2
  67 001c AFF30080 		.p2align 4,,15
  68              		.global	sdram_malloc
  69              		.thumb
  70              		.thumb_func
  71              		.type	sdram_malloc, %function
  72              	sdram_malloc:
  73              	.LFB8:
  74              		.loc 1 23 0
  75              		.cfi_startproc
  76              		@ args = 0, pretend = 0, frame = 0
  77              		@ frame_needed = 0, uses_anonymous_args = 0
  78              	.LVL1:
  79 0020 38B5     		push	{r3, r4, r5, lr}
  80              		.cfi_def_cfa_offset 16
  81              		.cfi_offset 3, -16
  82              		.cfi_offset 4, -12
  83              		.cfi_offset 5, -8
  84              		.cfi_offset 14, -4
  85              		.loc 1 28 0
  86 0022 0E4C     		ldr	r4, .L18
  87              		.loc 1 25 0
  88 0024 8307     		lsls	r3, r0, #30
  89              		.loc 1 28 0
  90 0026 6268     		ldr	r2, [r4, #4]
  91              		.loc 1 26 0
  92 0028 1CBF     		itt	ne
  93 002a 20F00300 		bicne	r0, r0, #3
  94              	.LVL2:
  95 002e 0430     		addne	r0, r0, #4
  96              	.LVL3:
  97              		.loc 1 28 0
  98 0030 42B1     		cbz	r2, .L7
  99              		.loc 1 30 0
 100 0032 2169     		ldr	r1, [r4, #16]
 101              		.loc 1 32 0
 102 0034 A568     		ldr	r5, [r4, #8]
 103 0036 1318     		adds	r3, r2, r0
 104              		.loc 1 30 0
 105 0038 091A     		subs	r1, r1, r0
 106              		.loc 1 32 0
 107 003a AB42     		cmp	r3, r5
 108              		.loc 1 30 0
 109 003c 2161     		str	r1, [r4, #16]
 110              		.loc 1 32 0
 111 003e 03D8     		bhi	.L17
 112              		.loc 1 38 0
 113 0040 E260     		str	r2, [r4, #12]
 114              		.loc 1 39 0
ARM GAS  /tmp/cc0DCpQG.s 			page 3


 115 0042 6360     		str	r3, [r4, #4]
 116              	.L7:
 117              		.loc 1 41 0
 118 0044 1046     		mov	r0, r2
 119              	.LVL4:
 120 0046 38BD     		pop	{r3, r4, r5, pc}
 121              	.LVL5:
 122              	.L17:
 123              		.loc 1 33 0
 124 0048 0548     		ldr	r0, .L18+4
 125              	.LVL6:
 126 004a FFF7FEFF 		bl	report_patchLoadSDRamOverflow
 127              	.LVL7:
 128              		.loc 1 34 0
 129 004e C820     		movs	r0, #200
 130 0050 FFF7FEFF 		bl	chThdSleep
 131              	.LVL8:
 132              		.loc 1 35 0
 133 0054 2268     		ldr	r2, [r4]
 134              		.loc 1 41 0
 135 0056 1046     		mov	r0, r2
 136 0058 38BD     		pop	{r3, r4, r5, pc}
 137              	.L19:
 138 005a 00BF     		.align	2
 139              	.L18:
 140 005c 00000000 		.word	.LANCHOR0
 141 0060 00000000 		.word	.LC0
 142              		.cfi_endproc
 143              	.LFE8:
 144              		.size	sdram_malloc, .-sdram_malloc
 145              		.align	2
 146 0064 AFF30080 		.p2align 4,,15
 146      AFF30080 
 146      AFF30080 
 147              		.global	sdram_free
 148              		.thumb
 149              		.thumb_func
 150              		.type	sdram_free, %function
 151              	sdram_free:
 152              	.LFB9:
 153              		.loc 1 43 0
 154              		.cfi_startproc
 155              		@ args = 0, pretend = 0, frame = 0
 156              		@ frame_needed = 0, uses_anonymous_args = 0
 157              		@ link register save eliminated.
 158              	.LVL9:
 159              		.loc 1 44 0
 160 0070 054B     		ldr	r3, .L23
 161 0072 DA68     		ldr	r2, [r3, #12]
 162 0074 9042     		cmp	r0, r2
 163 0076 00D0     		beq	.L22
 164 0078 7047     		bx	lr
 165              	.L22:
 166              		.loc 1 45 0
 167 007a 5968     		ldr	r1, [r3, #4]
 168 007c 1A69     		ldr	r2, [r3, #16]
 169              		.loc 1 46 0
ARM GAS  /tmp/cc0DCpQG.s 			page 4


 170 007e 5860     		str	r0, [r3, #4]
 171              		.loc 1 45 0
 172 0080 081A     		subs	r0, r1, r0
 173              	.LVL10:
 174 0082 0244     		add	r2, r2, r0
 175 0084 1A61     		str	r2, [r3, #16]
 176 0086 7047     		bx	lr
 177              	.L24:
 178              		.align	2
 179              	.L23:
 180 0088 00000000 		.word	.LANCHOR0
 181              		.cfi_endproc
 182              	.LFE9:
 183              		.size	sdram_free, .-sdram_free
 184              		.align	2
 185 008c AFF30080 		.p2align 4,,15
 186              		.global	sdram_get_free
 187              		.thumb
 188              		.thumb_func
 189              		.type	sdram_get_free, %function
 190              	sdram_get_free:
 191              	.LFB10:
 192              		.loc 1 50 0
 193              		.cfi_startproc
 194              		@ args = 0, pretend = 0, frame = 0
 195              		@ frame_needed = 0, uses_anonymous_args = 0
 196              		@ link register save eliminated.
 197              		.loc 1 51 0
 198 0090 014B     		ldr	r3, .L26
 199              		.loc 1 52 0
 200 0092 1869     		ldr	r0, [r3, #16]
 201 0094 7047     		bx	lr
 202              	.L27:
 203 0096 00BF     		.align	2
 204              	.L26:
 205 0098 00000000 		.word	.LANCHOR0
 206              		.cfi_endproc
 207              	.LFE10:
 208              		.size	sdram_get_free, .-sdram_get_free
 209              		.section	.rodata.str1.4,"aMS",%progbits,1
 210              		.align	2
 211              	.LC0:
 212 0000 6D00     		.ascii	"m\000"
 213              		.bss
 214              		.align	2
 215              		.set	.LANCHOR0,. + 0
 216              		.type	sdram_base_addr, %object
 217              		.size	sdram_base_addr, 4
 218              	sdram_base_addr:
 219 0000 00000000 		.space	4
 220              		.type	sdram_current_addr, %object
 221              		.size	sdram_current_addr, 4
 222              	sdram_current_addr:
 223 0004 00000000 		.space	4
 224              		.type	sdram_end_addr, %object
 225              		.size	sdram_end_addr, 4
 226              	sdram_end_addr:
ARM GAS  /tmp/cc0DCpQG.s 			page 5


 227 0008 00000000 		.space	4
 228              		.type	sdram_last_addr, %object
 229              		.size	sdram_last_addr, 4
 230              	sdram_last_addr:
 231 000c 00000000 		.space	4
 232              		.type	sdram_total_remaining, %object
 233              		.size	sdram_total_remaining, 4
 234              	sdram_total_remaining:
 235 0010 00000000 		.space	4
 236              		.text
 237              	.Letext0:
 238              		.file 2 "/home/sbcu/Dropbox/pcb-layouts/axo-on-discovery-board/axoloti/platform_linux/lib/gcc/arm-
 239              		.file 3 "/home/sbcu/Dropbox/pcb-layouts/axo-on-discovery-board/axoloti/platform_linux/arm-none-eab
 240              		.file 4 "/home/sbcu/Dropbox/pcb-layouts/axo-on-discovery-board/axoloti/platform_linux/arm-none-eab
 241              		.file 5 "/home/sbcu/Dropbox/pcb-layouts/axo-on-discovery-board/axoloti/platform_linux/../chibios/o
 242              		.file 6 "exceptions.h"
 243              		.file 7 "/home/sbcu/Dropbox/pcb-layouts/axo-on-discovery-board/axoloti/platform_linux/../chibios/o