ARM GAS  /tmp/ccHqjUL9.s 			page 1


   1              		.syntax unified
   2              		.cpu cortex-m4
   3              		.eabi_attribute 27, 1
   4              		.eabi_attribute 28, 1
   5              		.fpu fpv4-sp-d16
   6              		.eabi_attribute 20, 1
   7              		.eabi_attribute 21, 1
   8              		.eabi_attribute 23, 3
   9              		.eabi_attribute 24, 1
  10              		.eabi_attribute 25, 1
  11              		.eabi_attribute 26, 1
  12              		.eabi_attribute 30, 2
  13              		.eabi_attribute 34, 1
  14              		.eabi_attribute 18, 4
  15              		.thumb
  16              		.file	"board.c"
  17              		.text
  18              	.Ltext0:
  19              		.cfi_sections	.debug_frame
  20              		.align	2
  21              		.p2align 4,,15
  22              		.global	__early_init
  23              		.thumb
  24              		.thumb_func
  25              		.type	__early_init, %function
  26              	__early_init:
  27              	.LFB130:
  28              		.file 1 "board.c"
  29              		.loc 1 71 0
  30              		.cfi_startproc
  31              		@ args = 0, pretend = 0, frame = 0
  32              		@ frame_needed = 0, uses_anonymous_args = 0
  33 0000 08B5     		push	{r3, lr}
  34              		.cfi_def_cfa_offset 8
  35              		.cfi_offset 3, -8
  36              		.cfi_offset 14, -4
  37              		.loc 1 72 0
  38 0002 FFF7FEFF 		bl	exception_check_DFU
  39              	.LVL0:
  40              		.loc 1 74 0
  41 0006 BDE80840 		pop	{r3, lr}
  42              		.cfi_restore 14
  43              		.cfi_restore 3
  44              		.cfi_def_cfa_offset 0
  45              		.loc 1 73 0
  46 000a FFF7FEBF 		b	stm32_clock_init
  47              	.LVL1:
  48              		.cfi_endproc
  49              	.LFE130:
  50              		.size	__early_init, .-__early_init
  51 000e 00BF     		.align	2
  52              		.p2align 4,,15
  53              		.global	__late_init
  54              		.thumb
  55              		.thumb_func
  56              		.type	__late_init, %function
  57              	__late_init:
ARM GAS  /tmp/ccHqjUL9.s 			page 2


  58              	.LFB131:
  59              		.loc 1 76 0
  60              		.cfi_startproc
  61              		@ args = 0, pretend = 0, frame = 0
  62              		@ frame_needed = 0, uses_anonymous_args = 0
  63              		@ link register save eliminated.
  64 0010 7047     		bx	lr
  65              		.cfi_endproc
  66              	.LFE131:
  67              		.size	__late_init, .-__late_init
  68 0012 00BF     		.align	2
  69 0014 AFF30080 		.p2align 4,,15
  69      AFF30080 
  69      AFF30080 
  70              		.global	sdc_lld_is_card_inserted
  71              		.thumb
  72              		.thumb_func
  73              		.type	sdc_lld_is_card_inserted, %function
  74              	sdc_lld_is_card_inserted:
  75              	.LFB132:
  76              		.loc 1 83 0
  77              		.cfi_startproc
  78              		@ args = 0, pretend = 0, frame = 0
  79              		@ frame_needed = 0, uses_anonymous_args = 0
  80              		@ link register save eliminated.
  81              	.LVL2:
  82              		.loc 1 88 0
  83 0020 0120     		movs	r0, #1
  84              	.LVL3:
  85 0022 7047     		bx	lr
  86              		.cfi_endproc
  87              	.LFE132:
  88              		.size	sdc_lld_is_card_inserted, .-sdc_lld_is_card_inserted
  89              		.align	2
  90 0024 AFF30080 		.p2align 4,,15
  90      AFF30080 
  90      AFF30080 
  91              		.global	sdc_lld_is_write_protected
  92              		.thumb
  93              		.thumb_func
  94              		.type	sdc_lld_is_write_protected, %function
  95              	sdc_lld_is_write_protected:
  96              	.LFB133:
  97              		.loc 1 93 0
  98              		.cfi_startproc
  99              		@ args = 0, pretend = 0, frame = 0
 100              		@ frame_needed = 0, uses_anonymous_args = 0
 101              		@ link register save eliminated.
 102              	.LVL4:
 103              		.loc 1 98 0
 104 0030 0020     		movs	r0, #0
 105              	.LVL5:
 106 0032 7047     		bx	lr
 107              		.cfi_endproc
 108              	.LFE133:
 109              		.size	sdc_lld_is_write_protected, .-sdc_lld_is_write_protected
 110              		.align	2
ARM GAS  /tmp/ccHqjUL9.s 			page 3


 111 0034 AFF30080 		.p2align 4,,15
 111      AFF30080 
 111      AFF30080 
 112              		.global	boardInit
 113              		.thumb
 114              		.thumb_func
 115              		.type	boardInit, %function
 116              	boardInit:
 117              	.LFB134:
 118              		.loc 1 105 0
 119              		.cfi_startproc
 120              		@ args = 0, pretend = 0, frame = 0
 121              		@ frame_needed = 0, uses_anonymous_args = 0
 122              		@ link register save eliminated.
 123 0040 7047     		bx	lr
 124              		.cfi_endproc
 125              	.LFE134:
 126              		.size	boardInit, .-boardInit
 127 0042 00BF     		.align	2
 128 0044 AFF30080 		.p2align 4,,15
 128      AFF30080 
 128      AFF30080 
 129              		.global	_getpid
 130              		.thumb
 131              		.thumb_func
 132              		.type	_getpid, %function
 133              	_getpid:
 134              	.LFB135:
 135              		.loc 1 108 0
 136              		.cfi_startproc
 137              		@ args = 0, pretend = 0, frame = 0
 138              		@ frame_needed = 0, uses_anonymous_args = 0
 139              		@ link register save eliminated.
 140              		.loc 1 108 0
 141 0050 4FF0FF30 		mov	r0, #-1
 142 0054 7047     		bx	lr
 143              		.cfi_endproc
 144              	.LFE135:
 145              		.size	_getpid, .-_getpid
 146 0056 00BF     		.align	2
 147 0058 AFF30080 		.p2align 4,,15
 147      AFF30080 
 148              		.global	_kill
 149              		.thumb
 150              		.thumb_func
 151              		.type	_kill, %function
 152              	_kill:
 153              	.LFB136:
 154              		.loc 1 109 0
 155              		.cfi_startproc
 156              		@ args = 0, pretend = 0, frame = 0
 157              		@ frame_needed = 0, uses_anonymous_args = 0
 158              		@ link register save eliminated.
 159              	.LVL6:
 160              		.loc 1 109 0
 161 0060 4FF0FF30 		mov	r0, #-1
 162              	.LVL7:
ARM GAS  /tmp/ccHqjUL9.s 			page 4


 163 0064 7047     		bx	lr
 164              		.cfi_endproc
 165              	.LFE136:
 166              		.size	_kill, .-_kill
 167 0066 00BF     		.align	2
 168 0068 AFF30080 		.p2align 4,,15
 168      AFF30080 
 169              		.global	_write
 170              		.thumb
 171              		.thumb_func
 172              		.type	_write, %function
 173              	_write:
 174              	.LFB137:
 175              		.loc 1 110 0
 176              		.cfi_startproc
 177              		@ args = 0, pretend = 0, frame = 0
 178              		@ frame_needed = 0, uses_anonymous_args = 0
 179              		@ link register save eliminated.
 180              		.loc 1 110 0
 181 0070 4FF0FF30 		mov	r0, #-1
 182 0074 7047     		bx	lr
 183              		.cfi_endproc
 184              	.LFE137:
 185              		.size	_write, .-_write
 186 0076 00BF     		.align	2
 187 0078 AFF30080 		.p2align 4,,15
 187      AFF30080 
 188              		.global	_exit
 189              		.thumb
 190              		.thumb_func
 191              		.type	_exit, %function
 192              	_exit:
 193              	.LFB138:
 194              		.loc 1 111 0
 195              		.cfi_startproc
 196              		@ Volatile: function does not return.
 197              		@ args = 0, pretend = 0, frame = 0
 198              		@ frame_needed = 0, uses_anonymous_args = 0
 199              		@ link register save eliminated.
 200              	.LVL8:
 201              	.L11:
 202              		.loc 1 111 0 discriminator 1
 203 0080 FEE7     		b	.L11
 204              		.cfi_endproc
 205              	.LFE138:
 206              		.size	_exit, .-_exit
 207              		.global	pal_default_config
 208              		.section	.rodata
 209              		.align	2
 210              		.type	pal_default_config, %object
 211              		.size	pal_default_config, 252
 212              	pal_default_config:
 213 0000 00AAA02A 		.word	715172352
 214 0004 00000000 		.word	0
 215 0008 FFABFFFF 		.word	-21505
 216 000c 54000140 		.word	1073807444
 217 0010 FFFF0000 		.word	65535
ARM GAS  /tmp/ccHqjUL9.s 			page 5


 218 0014 00005655 		.word	1431699456
 219 0018 00AA0A00 		.word	698880
 220 001c 80280800 		.word	534656
 221 0020 00020000 		.word	512
 222 0024 FFFFFFFF 		.word	-1
 223 0028 15415155 		.word	1431388437
 224 002c FFFF0000 		.word	65535
 225 0030 0000C00C 		.word	213909504
 226 0034 40000000 		.word	64
 227 0038 A2802002 		.word	35684514
 228 003c 00000000 		.word	0
 229 0040 FFFFFFFF 		.word	-1
 230 0044 54154554 		.word	1413813588
 231 0048 FFFF0000 		.word	65535
 232 004c 0CCC0060 		.word	1610664972
 233 0050 00060600 		.word	394752
 234 0054 0A012AA5 		.word	-1523973878
 235 0058 00000000 		.word	0
 236 005c FFFFFFFF 		.word	-1
 237 0060 55505500 		.word	5591125
 238 0064 FFCF0000 		.word	53247
 239 0068 CC000000 		.word	204
 240 006c CC0C00CC 		.word	-872411956
 241 0070 4A80AAAA 		.word	-1431666614
 242 0074 00000000 		.word	0
 243 0078 FFFFFFFF 		.word	-1
 244 007c 00000000 		.word	0
 245 0080 FFFF0000 		.word	65535
 246 0084 CC0000C0 		.word	-1073741620
 247 0088 CCCCCCCC 		.word	-858993460
 248 008c AA0AB0AA 		.word	-1431303510
 249 0090 00000000 		.word	0
 250 0094 FFFFFFFF 		.word	-1
 251 0098 00000000 		.word	0
 252 009c FFFF0000 		.word	65535
 253 00a0 CCCCCC00 		.word	13421772
 254 00a4 00C0CCCC 		.word	-858996736
 255 00a8 2A0A0280 		.word	-2147349974
 256 00ac 00000000 		.word	0
 257 00b0 FFFFFFFF 		.word	-1
 258 00b4 00000004 		.word	67108864
 259 00b8 FFFF0000 		.word	65535
 260 00bc CC0CCC00 		.word	13372620
 261 00c0 0C0000C0 		.word	-1073741812
 262 00c4 A0A80000 		.word	43168
 263 00c8 00000000 		.word	0
 264 00cc FFFFFFFF 		.word	-1
 265 00d0 00000000 		.word	0
 266 00d4 FFFF0000 		.word	65535
 267 00d8 00CCC0CC 		.word	-859780096
 268 00dc 00000000 		.word	0
 269 00e0 00000000 		.word	0
 270 00e4 00000000 		.word	0
 271 00e8 FFFFFFFF 		.word	-1
 272 00ec 00000000 		.word	0
 273 00f0 FFFF0000 		.word	65535
 274 00f4 00000000 		.word	0
ARM GAS  /tmp/ccHqjUL9.s 			page 6


 275 00f8 00000000 		.word	0
 276              		.text
 277              	.Letext0:
 278              		.file 2 "/home/sbcu/Dropbox/pcb-layouts/axo-on-discovery-board/axoloti/platform_linux/arm-none-eab
 279              		.file 3 "/home/sbcu/Dropbox/pcb-layouts/axo-on-discovery-board/axoloti/platform_linux/arm-none-eab
 280              		.file 4 "/home/sbcu/Dropbox/pcb-layouts/axo-on-discovery-board/axoloti/platform_linux/../chibios/o
 281              		.file 5 "/home/sbcu/Dropbox/pcb-layouts/axo-on-discovery-board/axoloti/platform_linux/../chibios/o
 282              		.file 6 "/home/sbcu/Dropbox/pcb-layouts/axo-on-discovery-board/axoloti/platform_linux/../chibios/o
 283              		.file 7 "/home/sbcu/Dropbox/pcb-layouts/axo-on-discovery-board/axoloti/platform_linux/../chibios/o
 284              		.file 8 "/home/sbcu/Dropbox/pcb-layouts/axo-on-discovery-board/axoloti/platform_linux/../chibios/o
 285              		.file 9 "/home/sbcu/Dropbox/pcb-layouts/axo-on-discovery-board/axoloti/platform_linux/../chibios/o
 286              		.file 10 "/home/sbcu/Dropbox/pcb-layouts/axo-on-discovery-board/axoloti/platform_linux/../chibios/
 287              		.file 11 "/home/sbcu/Dropbox/pcb-layouts/axo-on-discovery-board/axoloti/platform_linux/../chibios/
 288              		.file 12 "/home/sbcu/Dropbox/pcb-layouts/axo-on-discovery-board/axoloti/platform_linux/../chibios/
 289              		.file 13 "/home/sbcu/Dropbox/pcb-layouts/axo-on-discovery-board/axoloti/platform_linux/../chibios/
 290              		.file 14 "/home/sbcu/Dropbox/pcb-layouts/axo-on-discovery-board/axoloti/platform_linux/../CMSIS//I
 291              		.file 15 "exceptions.h"
 292              		.file 16 "/home/sbcu/Dropbox/pcb-layouts/axo-on-discovery-board/axoloti/platform_linux/../chibios/
 293 0082 00BF     		.section	.debug_info,"",%progbits
 294              	.Ldebug_info0:
 295 0000 CB090000 		.4byte	0x9cb
 296 0004 0400     		.2byte	0x4
 297 0006 00000000 		.4byte	.Ldebug_abbrev0
 298 000a 04       		.byte	0x4
 299 000b 01       		.uleb128 0x1
 300 000c E8040000 		.4byte	.LASF130
 301 0010 01       		.byte	0x1
 302 0011 1D040000 		.4byte	.LASF131
 303 0015 CE020000 		.4byte	.LASF132
 304 0019 00000000 		.4byte	.Ltext0
 305 001d 82000000 		.4byte	.Letext0-.Ltext0
 306 0021 00000000 		.4byte	.Ldebug_line0
 307 0025 02       		.uleb128 0x2
 308 0026 04       		.byte	0x4
 309 0027 05       		.byte	0x5
 310 0028 696E7400 		.ascii	"int\000"
 311 002c 03       		.uleb128 0x3
 312 002d 04       		.byte	0x4
 313 002e 07       		.byte	0x7
 314 002f C5010000 		.4byte	.LASF0
 315 0033 03       		.uleb128 0x3
 316 0034 01       		.byte	0x1
 317 0035 06       		.byte	0x6
 318 0036 D4000000 		.4byte	.LASF1
 319 003a 04       		.uleb128 0x4
 320 003b 44000000 		.4byte	.LASF5
 321 003f 02       		.byte	0x2
 322 0040 1D       		.byte	0x1d
 323 0041 45000000 		.4byte	0x45
 324 0045 03       		.uleb128 0x3
 325 0046 01       		.byte	0x1
 326 0047 08       		.byte	0x8
 327 0048 79030000 		.4byte	.LASF2
 328 004c 03       		.uleb128 0x3
 329 004d 02       		.byte	0x2
 330 004e 05       		.byte	0x5
 331 004f 96030000 		.4byte	.LASF3
ARM GAS  /tmp/ccHqjUL9.s 			page 7


 332 0053 03       		.uleb128 0x3
 333 0054 02       		.byte	0x2
 334 0055 07       		.byte	0x7
 335 0056 4B010000 		.4byte	.LASF4
 336 005a 04       		.uleb128 0x4
 337 005b 5E040000 		.4byte	.LASF6
 338 005f 02       		.byte	0x2
 339 0060 3F       		.byte	0x3f
 340 0061 65000000 		.4byte	0x65
 341 0065 03       		.uleb128 0x3
 342 0066 04       		.byte	0x4
 343 0067 05       		.byte	0x5
 344 0068 1B010000 		.4byte	.LASF7
 345 006c 04       		.uleb128 0x4
 346 006d 70010000 		.4byte	.LASF8
 347 0071 02       		.byte	0x2
 348 0072 41       		.byte	0x41
 349 0073 77000000 		.4byte	0x77
 350 0077 03       		.uleb128 0x3
 351 0078 04       		.byte	0x4
 352 0079 07       		.byte	0x7
 353 007a 01040000 		.4byte	.LASF9
 354 007e 03       		.uleb128 0x3
 355 007f 08       		.byte	0x8
 356 0080 05       		.byte	0x5
 357 0081 C6000000 		.4byte	.LASF10
 358 0085 03       		.uleb128 0x3
 359 0086 08       		.byte	0x8
 360 0087 07       		.byte	0x7
 361 0088 78000000 		.4byte	.LASF11
 362 008c 04       		.uleb128 0x4
 363 008d CC040000 		.4byte	.LASF12
 364 0091 03       		.byte	0x3
 365 0092 14       		.byte	0x14
 366 0093 3A000000 		.4byte	0x3a
 367 0097 04       		.uleb128 0x4
 368 0098 71030000 		.4byte	.LASF13
 369 009c 03       		.byte	0x3
 370 009d 1F       		.byte	0x1f
 371 009e 5A000000 		.4byte	0x5a
 372 00a2 04       		.uleb128 0x4
 373 00a3 F8030000 		.4byte	.LASF14
 374 00a7 03       		.byte	0x3
 375 00a8 20       		.byte	0x20
 376 00a9 6C000000 		.4byte	0x6c
 377 00ad 04       		.uleb128 0x4
 378 00ae E0000000 		.4byte	.LASF15
 379 00b2 04       		.byte	0x4
 380 00b3 2B       		.byte	0x2b
 381 00b4 B8000000 		.4byte	0xb8
 382 00b8 03       		.uleb128 0x3
 383 00b9 01       		.byte	0x1
 384 00ba 02       		.byte	0x2
 385 00bb 6B030000 		.4byte	.LASF16
 386 00bf 04       		.uleb128 0x4
 387 00c0 48020000 		.4byte	.LASF17
 388 00c4 04       		.byte	0x4
ARM GAS  /tmp/ccHqjUL9.s 			page 8


 389 00c5 2C       		.byte	0x2c
 390 00c6 8C000000 		.4byte	0x8c
 391 00ca 04       		.uleb128 0x4
 392 00cb 2B010000 		.4byte	.LASF18
 393 00cf 04       		.byte	0x4
 394 00d0 2D       		.byte	0x2d
 395 00d1 8C000000 		.4byte	0x8c
 396 00d5 04       		.uleb128 0x4
 397 00d6 00010000 		.4byte	.LASF19
 398 00da 04       		.byte	0x4
 399 00db 2F       		.byte	0x2f
 400 00dc 8C000000 		.4byte	0x8c
 401 00e0 04       		.uleb128 0x4
 402 00e1 48030000 		.4byte	.LASF20
 403 00e5 04       		.byte	0x4
 404 00e6 30       		.byte	0x30
 405 00e7 A2000000 		.4byte	0xa2
 406 00eb 04       		.uleb128 0x4
 407 00ec 33020000 		.4byte	.LASF21
 408 00f0 04       		.byte	0x4
 409 00f1 31       		.byte	0x31
 410 00f2 97000000 		.4byte	0x97
 411 00f6 04       		.uleb128 0x4
 412 00f7 5C020000 		.4byte	.LASF22
 413 00fb 04       		.byte	0x4
 414 00fc 33       		.byte	0x33
 415 00fd A2000000 		.4byte	0xa2
 416 0101 04       		.uleb128 0x4
 417 0102 94010000 		.4byte	.LASF23
 418 0106 05       		.byte	0x5
 419 0107 2A       		.byte	0x2a
 420 0108 0C010000 		.4byte	0x10c
 421 010c 05       		.uleb128 0x5
 422 010d 94010000 		.4byte	.LASF23
 423 0111 40       		.byte	0x40
 424 0112 06       		.byte	0x6
 425 0113 5E       		.byte	0x5e
 426 0114 E5010000 		.4byte	0x1e5
 427 0118 06       		.uleb128 0x6
 428 0119 C5030000 		.4byte	.LASF24
 429 011d 06       		.byte	0x6
 430 011e 5F       		.byte	0x5f
 431 011f 06020000 		.4byte	0x206
 432 0123 00       		.byte	0
 433 0124 06       		.uleb128 0x6
 434 0125 2E030000 		.4byte	.LASF25
 435 0129 06       		.byte	0x6
 436 012a 61       		.byte	0x61
 437 012b 06020000 		.4byte	0x206
 438 012f 04       		.byte	0x4
 439 0130 06       		.uleb128 0x6
 440 0131 BF000000 		.4byte	.LASF26
 441 0135 06       		.byte	0x6
 442 0136 63       		.byte	0x63
 443 0137 E0000000 		.4byte	0xe0
 444 013b 08       		.byte	0x8
 445 013c 06       		.uleb128 0x6
ARM GAS  /tmp/ccHqjUL9.s 			page 9


 446 013d 24060000 		.4byte	.LASF27
 447 0141 06       		.byte	0x6
 448 0142 64       		.byte	0x64
 449 0143 90030000 		.4byte	0x390
 450 0147 0C       		.byte	0xc
 451 0148 06       		.uleb128 0x6
 452 0149 43010000 		.4byte	.LASF28
 453 014d 06       		.byte	0x6
 454 014e 66       		.byte	0x66
 455 014f 06020000 		.4byte	0x206
 456 0153 10       		.byte	0x10
 457 0154 06       		.uleb128 0x6
 458 0155 97020000 		.4byte	.LASF29
 459 0159 06       		.byte	0x6
 460 015a 67       		.byte	0x67
 461 015b 06020000 		.4byte	0x206
 462 015f 14       		.byte	0x14
 463 0160 06       		.uleb128 0x6
 464 0161 B1040000 		.4byte	.LASF30
 465 0165 06       		.byte	0x6
 466 0166 6E       		.byte	0x6e
 467 0167 34040000 		.4byte	0x434
 468 016b 18       		.byte	0x18
 469 016c 06       		.uleb128 0x6
 470 016d A0030000 		.4byte	.LASF31
 471 0171 06       		.byte	0x6
 472 0172 79       		.byte	0x79
 473 0173 CA000000 		.4byte	0xca
 474 0177 1C       		.byte	0x1c
 475 0178 06       		.uleb128 0x6
 476 0179 BD010000 		.4byte	.LASF32
 477 017d 06       		.byte	0x6
 478 017e 7D       		.byte	0x7d
 479 017f BF000000 		.4byte	0xbf
 480 0183 1D       		.byte	0x1d
 481 0184 06       		.uleb128 0x6
 482 0185 B4030000 		.4byte	.LASF33
 483 0189 06       		.byte	0x6
 484 018a 88       		.byte	0x88
 485 018b D5000000 		.4byte	0xd5
 486 018f 1E       		.byte	0x1e
 487 0190 07       		.uleb128 0x7
 488 0191 705F7500 		.ascii	"p_u\000"
 489 0195 06       		.byte	0x6
 490 0196 B4       		.byte	0xb4
 491 0197 FF030000 		.4byte	0x3ff
 492 019b 20       		.byte	0x20
 493 019c 06       		.uleb128 0x6
 494 019d 2A060000 		.4byte	.LASF34
 495 01a1 06       		.byte	0x6
 496 01a2 B9       		.byte	0xb9
 497 01a3 2C020000 		.4byte	0x22c
 498 01a7 24       		.byte	0x24
 499 01a8 06       		.uleb128 0x6
 500 01a9 D9010000 		.4byte	.LASF35
 501 01ad 06       		.byte	0x6
 502 01ae BF       		.byte	0xbf
ARM GAS  /tmp/ccHqjUL9.s 			page 10


 503 01af 0C020000 		.4byte	0x20c
 504 01b3 28       		.byte	0x28
 505 01b4 06       		.uleb128 0x6
 506 01b5 E8050000 		.4byte	.LASF36
 507 01b9 06       		.byte	0x6
 508 01ba C3       		.byte	0xc3
 509 01bb EB000000 		.4byte	0xeb
 510 01bf 30       		.byte	0x30
 511 01c0 06       		.uleb128 0x6
 512 01c1 E8030000 		.4byte	.LASF37
 513 01c5 06       		.byte	0x6
 514 01c6 C9       		.byte	0xc9
 515 01c7 F6000000 		.4byte	0xf6
 516 01cb 34       		.byte	0x34
 517 01cc 06       		.uleb128 0x6
 518 01cd 8C030000 		.4byte	.LASF38
 519 01d1 06       		.byte	0x6
 520 01d2 D0       		.byte	0xd0
 521 01d3 46040000 		.4byte	0x446
 522 01d7 38       		.byte	0x38
 523 01d8 06       		.uleb128 0x6
 524 01d9 53040000 		.4byte	.LASF39
 525 01dd 06       		.byte	0x6
 526 01de D4       		.byte	0xd4
 527 01df E0000000 		.4byte	0xe0
 528 01e3 3C       		.byte	0x3c
 529 01e4 00       		.byte	0
 530 01e5 08       		.uleb128 0x8
 531 01e6 08       		.byte	0x8
 532 01e7 05       		.byte	0x5
 533 01e8 61       		.byte	0x61
 534 01e9 06020000 		.4byte	0x206
 535 01ed 06       		.uleb128 0x6
 536 01ee C5030000 		.4byte	.LASF24
 537 01f2 05       		.byte	0x5
 538 01f3 62       		.byte	0x62
 539 01f4 06020000 		.4byte	0x206
 540 01f8 00       		.byte	0
 541 01f9 06       		.uleb128 0x6
 542 01fa 2E030000 		.4byte	.LASF25
 543 01fe 05       		.byte	0x5
 544 01ff 64       		.byte	0x64
 545 0200 06020000 		.4byte	0x206
 546 0204 04       		.byte	0x4
 547 0205 00       		.byte	0
 548 0206 09       		.uleb128 0x9
 549 0207 04       		.byte	0x4
 550 0208 01010000 		.4byte	0x101
 551 020c 04       		.uleb128 0x4
 552 020d B5020000 		.4byte	.LASF40
 553 0211 05       		.byte	0x5
 554 0212 66       		.byte	0x66
 555 0213 E5010000 		.4byte	0x1e5
 556 0217 08       		.uleb128 0x8
 557 0218 04       		.byte	0x4
 558 0219 05       		.byte	0x5
 559 021a 6B       		.byte	0x6b
ARM GAS  /tmp/ccHqjUL9.s 			page 11


 560 021b 2C020000 		.4byte	0x22c
 561 021f 06       		.uleb128 0x6
 562 0220 C5030000 		.4byte	.LASF24
 563 0224 05       		.byte	0x5
 564 0225 6D       		.byte	0x6d
 565 0226 06020000 		.4byte	0x206
 566 022a 00       		.byte	0
 567 022b 00       		.byte	0
 568 022c 04       		.uleb128 0x4
 569 022d 50020000 		.4byte	.LASF41
 570 0231 05       		.byte	0x5
 571 0232 70       		.byte	0x70
 572 0233 17020000 		.4byte	0x217
 573 0237 04       		.uleb128 0x4
 574 0238 7B010000 		.4byte	.LASF42
 575 023c 07       		.byte	0x7
 576 023d E5       		.byte	0xe5
 577 023e 42020000 		.4byte	0x242
 578 0242 0A       		.uleb128 0xa
 579 0243 04       		.byte	0x4
 580 0244 0B       		.uleb128 0xb
 581 0245 99040000 		.4byte	.LASF43
 582 0249 64       		.byte	0x64
 583 024a 07       		.byte	0x7
 584 024b 0C01     		.2byte	0x10c
 585 024d 90030000 		.4byte	0x390
 586 0251 0C       		.uleb128 0xc
 587 0252 73313600 		.ascii	"s16\000"
 588 0256 07       		.byte	0x7
 589 0257 0E01     		.2byte	0x10e
 590 0259 37020000 		.4byte	0x237
 591 025d 00       		.byte	0
 592 025e 0C       		.uleb128 0xc
 593 025f 73313700 		.ascii	"s17\000"
 594 0263 07       		.byte	0x7
 595 0264 0F01     		.2byte	0x10f
 596 0266 37020000 		.4byte	0x237
 597 026a 04       		.byte	0x4
 598 026b 0C       		.uleb128 0xc
 599 026c 73313800 		.ascii	"s18\000"
 600 0270 07       		.byte	0x7
 601 0271 1001     		.2byte	0x110
 602 0273 37020000 		.4byte	0x237
 603 0277 08       		.byte	0x8
 604 0278 0C       		.uleb128 0xc
 605 0279 73313900 		.ascii	"s19\000"
 606 027d 07       		.byte	0x7
 607 027e 1101     		.2byte	0x111
 608 0280 37020000 		.4byte	0x237
 609 0284 0C       		.byte	0xc
 610 0285 0C       		.uleb128 0xc
 611 0286 73323000 		.ascii	"s20\000"
 612 028a 07       		.byte	0x7
 613 028b 1201     		.2byte	0x112
 614 028d 37020000 		.4byte	0x237
 615 0291 10       		.byte	0x10
 616 0292 0C       		.uleb128 0xc
ARM GAS  /tmp/ccHqjUL9.s 			page 12


 617 0293 73323100 		.ascii	"s21\000"
 618 0297 07       		.byte	0x7
 619 0298 1301     		.2byte	0x113
 620 029a 37020000 		.4byte	0x237
 621 029e 14       		.byte	0x14
 622 029f 0C       		.uleb128 0xc
 623 02a0 73323200 		.ascii	"s22\000"
 624 02a4 07       		.byte	0x7
 625 02a5 1401     		.2byte	0x114
 626 02a7 37020000 		.4byte	0x237
 627 02ab 18       		.byte	0x18
 628 02ac 0C       		.uleb128 0xc
 629 02ad 73323300 		.ascii	"s23\000"
 630 02b1 07       		.byte	0x7
 631 02b2 1501     		.2byte	0x115
 632 02b4 37020000 		.4byte	0x237
 633 02b8 1C       		.byte	0x1c
 634 02b9 0C       		.uleb128 0xc
 635 02ba 73323400 		.ascii	"s24\000"
 636 02be 07       		.byte	0x7
 637 02bf 1601     		.2byte	0x116
 638 02c1 37020000 		.4byte	0x237
 639 02c5 20       		.byte	0x20
 640 02c6 0C       		.uleb128 0xc
 641 02c7 73323500 		.ascii	"s25\000"
 642 02cb 07       		.byte	0x7
 643 02cc 1701     		.2byte	0x117
 644 02ce 37020000 		.4byte	0x237
 645 02d2 24       		.byte	0x24
 646 02d3 0C       		.uleb128 0xc
 647 02d4 73323600 		.ascii	"s26\000"
 648 02d8 07       		.byte	0x7
 649 02d9 1801     		.2byte	0x118
 650 02db 37020000 		.4byte	0x237
 651 02df 28       		.byte	0x28
 652 02e0 0C       		.uleb128 0xc
 653 02e1 73323700 		.ascii	"s27\000"
 654 02e5 07       		.byte	0x7
 655 02e6 1901     		.2byte	0x119
 656 02e8 37020000 		.4byte	0x237
 657 02ec 2C       		.byte	0x2c
 658 02ed 0C       		.uleb128 0xc
 659 02ee 73323800 		.ascii	"s28\000"
 660 02f2 07       		.byte	0x7
 661 02f3 1A01     		.2byte	0x11a
 662 02f5 37020000 		.4byte	0x237
 663 02f9 30       		.byte	0x30
 664 02fa 0C       		.uleb128 0xc
 665 02fb 73323900 		.ascii	"s29\000"
 666 02ff 07       		.byte	0x7
 667 0300 1B01     		.2byte	0x11b
 668 0302 37020000 		.4byte	0x237
 669 0306 34       		.byte	0x34
 670 0307 0C       		.uleb128 0xc
 671 0308 73333000 		.ascii	"s30\000"
 672 030c 07       		.byte	0x7
 673 030d 1C01     		.2byte	0x11c
ARM GAS  /tmp/ccHqjUL9.s 			page 13


 674 030f 37020000 		.4byte	0x237
 675 0313 38       		.byte	0x38
 676 0314 0C       		.uleb128 0xc
 677 0315 73333100 		.ascii	"s31\000"
 678 0319 07       		.byte	0x7
 679 031a 1D01     		.2byte	0x11d
 680 031c 37020000 		.4byte	0x237
 681 0320 3C       		.byte	0x3c
 682 0321 0C       		.uleb128 0xc
 683 0322 723400   		.ascii	"r4\000"
 684 0325 07       		.byte	0x7
 685 0326 1F01     		.2byte	0x11f
 686 0328 37020000 		.4byte	0x237
 687 032c 40       		.byte	0x40
 688 032d 0C       		.uleb128 0xc
 689 032e 723500   		.ascii	"r5\000"
 690 0331 07       		.byte	0x7
 691 0332 2001     		.2byte	0x120
 692 0334 37020000 		.4byte	0x237
 693 0338 44       		.byte	0x44
 694 0339 0C       		.uleb128 0xc
 695 033a 723600   		.ascii	"r6\000"
 696 033d 07       		.byte	0x7
 697 033e 2101     		.2byte	0x121
 698 0340 37020000 		.4byte	0x237
 699 0344 48       		.byte	0x48
 700 0345 0C       		.uleb128 0xc
 701 0346 723700   		.ascii	"r7\000"
 702 0349 07       		.byte	0x7
 703 034a 2201     		.2byte	0x122
 704 034c 37020000 		.4byte	0x237
 705 0350 4C       		.byte	0x4c
 706 0351 0C       		.uleb128 0xc
 707 0352 723800   		.ascii	"r8\000"
 708 0355 07       		.byte	0x7
 709 0356 2301     		.2byte	0x123
 710 0358 37020000 		.4byte	0x237
 711 035c 50       		.byte	0x50
 712 035d 0C       		.uleb128 0xc
 713 035e 723900   		.ascii	"r9\000"
 714 0361 07       		.byte	0x7
 715 0362 2401     		.2byte	0x124
 716 0364 37020000 		.4byte	0x237
 717 0368 54       		.byte	0x54
 718 0369 0C       		.uleb128 0xc
 719 036a 72313000 		.ascii	"r10\000"
 720 036e 07       		.byte	0x7
 721 036f 2501     		.2byte	0x125
 722 0371 37020000 		.4byte	0x237
 723 0375 58       		.byte	0x58
 724 0376 0C       		.uleb128 0xc
 725 0377 72313100 		.ascii	"r11\000"
 726 037b 07       		.byte	0x7
 727 037c 2601     		.2byte	0x126
 728 037e 37020000 		.4byte	0x237
 729 0382 5C       		.byte	0x5c
 730 0383 0C       		.uleb128 0xc
ARM GAS  /tmp/ccHqjUL9.s 			page 14


 731 0384 6C7200   		.ascii	"lr\000"
 732 0387 07       		.byte	0x7
 733 0388 2701     		.2byte	0x127
 734 038a 37020000 		.4byte	0x237
 735 038e 60       		.byte	0x60
 736 038f 00       		.byte	0
 737 0390 0B       		.uleb128 0xb
 738 0391 86040000 		.4byte	.LASF44
 739 0395 04       		.byte	0x4
 740 0396 07       		.byte	0x7
 741 0397 3101     		.2byte	0x131
 742 0399 AB030000 		.4byte	0x3ab
 743 039d 0C       		.uleb128 0xc
 744 039e 72313300 		.ascii	"r13\000"
 745 03a2 07       		.byte	0x7
 746 03a3 3201     		.2byte	0x132
 747 03a5 AB030000 		.4byte	0x3ab
 748 03a9 00       		.byte	0
 749 03aa 00       		.byte	0
 750 03ab 09       		.uleb128 0x9
 751 03ac 04       		.byte	0x4
 752 03ad 44020000 		.4byte	0x244
 753 03b1 0D       		.uleb128 0xd
 754 03b2 A2000000 		.4byte	0xa2
 755 03b6 03       		.uleb128 0x3
 756 03b7 04       		.byte	0x4
 757 03b8 07       		.byte	0x7
 758 03b9 88020000 		.4byte	.LASF45
 759 03bd 05       		.uleb128 0x5
 760 03be 91020000 		.4byte	.LASF46
 761 03c2 10       		.byte	0x10
 762 03c3 08       		.byte	0x8
 763 03c4 2C       		.byte	0x2c
 764 03c5 EE030000 		.4byte	0x3ee
 765 03c9 06       		.uleb128 0x6
 766 03ca E7000000 		.4byte	.LASF47
 767 03ce 08       		.byte	0x8
 768 03cf 2D       		.byte	0x2d
 769 03d0 0C020000 		.4byte	0x20c
 770 03d4 00       		.byte	0
 771 03d5 06       		.uleb128 0x6
 772 03d6 FF050000 		.4byte	.LASF48
 773 03da 08       		.byte	0x8
 774 03db 2F       		.byte	0x2f
 775 03dc 06020000 		.4byte	0x206
 776 03e0 08       		.byte	0x8
 777 03e1 06       		.uleb128 0x6
 778 03e2 43040000 		.4byte	.LASF49
 779 03e6 08       		.byte	0x8
 780 03e7 31       		.byte	0x31
 781 03e8 EE030000 		.4byte	0x3ee
 782 03ec 0C       		.byte	0xc
 783 03ed 00       		.byte	0
 784 03ee 09       		.uleb128 0x9
 785 03ef 04       		.byte	0x4
 786 03f0 BD030000 		.4byte	0x3bd
 787 03f4 04       		.uleb128 0x4
ARM GAS  /tmp/ccHqjUL9.s 			page 15


 788 03f5 91020000 		.4byte	.LASF46
 789 03f9 08       		.byte	0x8
 790 03fa 33       		.byte	0x33
 791 03fb BD030000 		.4byte	0x3bd
 792 03ff 0E       		.uleb128 0xe
 793 0400 04       		.byte	0x4
 794 0401 06       		.byte	0x6
 795 0402 96       		.byte	0x96
 796 0403 34040000 		.4byte	0x434
 797 0407 0F       		.uleb128 0xf
 798 0408 30000000 		.4byte	.LASF50
 799 040c 06       		.byte	0x6
 800 040d 9D       		.byte	0x9d
 801 040e EB000000 		.4byte	0xeb
 802 0412 0F       		.uleb128 0xf
 803 0413 95000000 		.4byte	.LASF51
 804 0417 06       		.byte	0x6
 805 0418 A4       		.byte	0xa4
 806 0419 EB000000 		.4byte	0xeb
 807 041d 0F       		.uleb128 0xf
 808 041e E1040000 		.4byte	.LASF52
 809 0422 06       		.byte	0x6
 810 0423 AB       		.byte	0xab
 811 0424 42020000 		.4byte	0x242
 812 0428 0F       		.uleb128 0xf
 813 0429 BE030000 		.4byte	.LASF53
 814 042d 06       		.byte	0x6
 815 042e B2       		.byte	0xb2
 816 042f F6000000 		.4byte	0xf6
 817 0433 00       		.byte	0
 818 0434 09       		.uleb128 0x9
 819 0435 04       		.byte	0x4
 820 0436 3A040000 		.4byte	0x43a
 821 043a 10       		.uleb128 0x10
 822 043b 3F040000 		.4byte	0x43f
 823 043f 03       		.uleb128 0x3
 824 0440 01       		.byte	0x1
 825 0441 08       		.byte	0x8
 826 0442 18040000 		.4byte	.LASF54
 827 0446 09       		.uleb128 0x9
 828 0447 04       		.byte	0x4
 829 0448 F4030000 		.4byte	0x3f4
 830 044c 09       		.uleb128 0x9
 831 044d 04       		.byte	0x4
 832 044e 8C000000 		.4byte	0x8c
 833 0452 09       		.uleb128 0x9
 834 0453 04       		.byte	0x4
 835 0454 58040000 		.4byte	0x458
 836 0458 10       		.uleb128 0x10
 837 0459 8C000000 		.4byte	0x8c
 838 045d 11       		.uleb128 0x11
 839 045e A2000000 		.4byte	0xa2
 840 0462 6D040000 		.4byte	0x46d
 841 0466 12       		.uleb128 0x12
 842 0467 B6030000 		.4byte	0x3b6
 843 046b 03       		.byte	0x3
 844 046c 00       		.byte	0
ARM GAS  /tmp/ccHqjUL9.s 			page 16


 845 046d 0D       		.uleb128 0xd
 846 046e 97000000 		.4byte	0x97
 847 0472 13       		.uleb128 0x13
 848 0473 18       		.byte	0x18
 849 0474 09       		.byte	0x9
 850 0475 B102     		.2byte	0x2b1
 851 0477 C9040000 		.4byte	0x4c9
 852 047b 0C       		.uleb128 0xc
 853 047c 435200   		.ascii	"CR\000"
 854 047f 09       		.byte	0x9
 855 0480 B302     		.2byte	0x2b3
 856 0482 B1030000 		.4byte	0x3b1
 857 0486 00       		.byte	0
 858 0487 14       		.uleb128 0x14
 859 0488 68040000 		.4byte	.LASF55
 860 048c 09       		.byte	0x9
 861 048d B402     		.2byte	0x2b4
 862 048f B1030000 		.4byte	0x3b1
 863 0493 04       		.byte	0x4
 864 0494 0C       		.uleb128 0xc
 865 0495 50415200 		.ascii	"PAR\000"
 866 0499 09       		.byte	0x9
 867 049a B502     		.2byte	0x2b5
 868 049c B1030000 		.4byte	0x3b1
 869 04a0 08       		.byte	0x8
 870 04a1 14       		.uleb128 0x14
 871 04a2 23000000 		.4byte	.LASF56
 872 04a6 09       		.byte	0x9
 873 04a7 B602     		.2byte	0x2b6
 874 04a9 B1030000 		.4byte	0x3b1
 875 04ad 0C       		.byte	0xc
 876 04ae 14       		.uleb128 0x14
 877 04af AC040000 		.4byte	.LASF57
 878 04b3 09       		.byte	0x9
 879 04b4 B702     		.2byte	0x2b7
 880 04b6 B1030000 		.4byte	0x3b1
 881 04ba 10       		.byte	0x10
 882 04bb 0C       		.uleb128 0xc
 883 04bc 46435200 		.ascii	"FCR\000"
 884 04c0 09       		.byte	0x9
 885 04c1 B802     		.2byte	0x2b8
 886 04c3 B1030000 		.4byte	0x3b1
 887 04c7 14       		.byte	0x14
 888 04c8 00       		.byte	0
 889 04c9 15       		.uleb128 0x15
 890 04ca 6D040000 		.4byte	.LASF58
 891 04ce 09       		.byte	0x9
 892 04cf B902     		.2byte	0x2b9
 893 04d1 72040000 		.4byte	0x472
 894 04d5 08       		.uleb128 0x8
 895 04d6 0C       		.byte	0xc
 896 04d7 0A       		.byte	0xa
 897 04d8 DA       		.byte	0xda
 898 04d9 1A050000 		.4byte	0x51a
 899 04dd 06       		.uleb128 0x6
 900 04de 5E000000 		.4byte	.LASF59
 901 04e2 0A       		.byte	0xa
ARM GAS  /tmp/ccHqjUL9.s 			page 17


 902 04e3 DB       		.byte	0xdb
 903 04e4 1A050000 		.4byte	0x51a
 904 04e8 00       		.byte	0
 905 04e9 06       		.uleb128 0x6
 906 04ea F3030000 		.4byte	.LASF60
 907 04ee 0A       		.byte	0xa
 908 04ef DC       		.byte	0xdc
 909 04f0 20050000 		.4byte	0x520
 910 04f4 04       		.byte	0x4
 911 04f5 06       		.uleb128 0x6
 912 04f6 EC010000 		.4byte	.LASF61
 913 04fa 0A       		.byte	0xa
 914 04fb DD       		.byte	0xdd
 915 04fc 8C000000 		.4byte	0x8c
 916 0500 08       		.byte	0x8
 917 0501 06       		.uleb128 0x6
 918 0502 84010000 		.4byte	.LASF62
 919 0506 0A       		.byte	0xa
 920 0507 DF       		.byte	0xdf
 921 0508 8C000000 		.4byte	0x8c
 922 050c 09       		.byte	0x9
 923 050d 06       		.uleb128 0x6
 924 050e EE050000 		.4byte	.LASF63
 925 0512 0A       		.byte	0xa
 926 0513 E0       		.byte	0xe0
 927 0514 8C000000 		.4byte	0x8c
 928 0518 0A       		.byte	0xa
 929 0519 00       		.byte	0
 930 051a 09       		.uleb128 0x9
 931 051b 04       		.byte	0x4
 932 051c C9040000 		.4byte	0x4c9
 933 0520 09       		.uleb128 0x9
 934 0521 04       		.byte	0x4
 935 0522 B1030000 		.4byte	0x3b1
 936 0526 04       		.uleb128 0x4
 937 0527 35030000 		.4byte	.LASF64
 938 052b 0A       		.byte	0xa
 939 052c E1       		.byte	0xe1
 940 052d D5040000 		.4byte	0x4d5
 941 0531 16       		.uleb128 0x16
 942 0532 01       		.byte	0x1
 943 0533 0B       		.byte	0xb
 944 0534 33       		.byte	0x33
 945 0535 70050000 		.4byte	0x570
 946 0539 17       		.uleb128 0x17
 947 053a 0A010000 		.4byte	.LASF65
 948 053e 00       		.sleb128 0
 949 053f 17       		.uleb128 0x17
 950 0540 67010000 		.4byte	.LASF66
 951 0544 01       		.sleb128 1
 952 0545 17       		.uleb128 0x17
 953 0546 0D020000 		.4byte	.LASF67
 954 054a 02       		.sleb128 2
 955 054b 17       		.uleb128 0x17
 956 054c 39020000 		.4byte	.LASF68
 957 0550 03       		.sleb128 3
 958 0551 17       		.uleb128 0x17
ARM GAS  /tmp/ccHqjUL9.s 			page 18


 959 0552 25040000 		.4byte	.LASF69
 960 0556 04       		.sleb128 4
 961 0557 17       		.uleb128 0x17
 962 0558 AB020000 		.4byte	.LASF70
 963 055c 05       		.sleb128 5
 964 055d 17       		.uleb128 0x17
 965 055e 7C020000 		.4byte	.LASF71
 966 0562 06       		.sleb128 6
 967 0563 17       		.uleb128 0x17
 968 0564 A8030000 		.4byte	.LASF72
 969 0568 07       		.sleb128 7
 970 0569 17       		.uleb128 0x17
 971 056a 9F020000 		.4byte	.LASF73
 972 056e 08       		.sleb128 8
 973 056f 00       		.byte	0
 974 0570 04       		.uleb128 0x4
 975 0571 B4000000 		.4byte	.LASF74
 976 0575 0B       		.byte	0xb
 977 0576 3D       		.byte	0x3d
 978 0577 31050000 		.4byte	0x531
 979 057b 08       		.uleb128 0x8
 980 057c 08       		.byte	0x8
 981 057d 0B       		.byte	0xb
 982 057e 42       		.byte	0x42
 983 057f 9C050000 		.4byte	0x59c
 984 0583 06       		.uleb128 0x6
 985 0584 4A040000 		.4byte	.LASF75
 986 0588 0B       		.byte	0xb
 987 0589 43       		.byte	0x43
 988 058a A2000000 		.4byte	0xa2
 989 058e 00       		.byte	0
 990 058f 06       		.uleb128 0x6
 991 0590 28000000 		.4byte	.LASF76
 992 0594 0B       		.byte	0xb
 993 0595 44       		.byte	0x44
 994 0596 A2000000 		.4byte	0xa2
 995 059a 04       		.byte	0x4
 996 059b 00       		.byte	0
 997 059c 04       		.uleb128 0x4
 998 059d 00000000 		.4byte	.LASF77
 999 05a1 0B       		.byte	0xb
 1000 05a2 45       		.byte	0x45
 1001 05a3 7B050000 		.4byte	0x57b
 1002 05a7 18       		.uleb128 0x18
 1003 05a8 AD000000 		.4byte	0xad
 1004 05ac B6050000 		.4byte	0x5b6
 1005 05b0 19       		.uleb128 0x19
 1006 05b1 42020000 		.4byte	0x242
 1007 05b5 00       		.byte	0
 1008 05b6 09       		.uleb128 0x9
 1009 05b7 04       		.byte	0x4
 1010 05b8 A7050000 		.4byte	0x5a7
 1011 05bc 18       		.uleb128 0x18
 1012 05bd AD000000 		.4byte	0xad
 1013 05c1 DA050000 		.4byte	0x5da
 1014 05c5 19       		.uleb128 0x19
 1015 05c6 42020000 		.4byte	0x242
ARM GAS  /tmp/ccHqjUL9.s 			page 19


 1016 05ca 19       		.uleb128 0x19
 1017 05cb A2000000 		.4byte	0xa2
 1018 05cf 19       		.uleb128 0x19
 1019 05d0 4C040000 		.4byte	0x44c
 1020 05d4 19       		.uleb128 0x19
 1021 05d5 A2000000 		.4byte	0xa2
 1022 05d9 00       		.byte	0
 1023 05da 09       		.uleb128 0x9
 1024 05db 04       		.byte	0x4
 1025 05dc BC050000 		.4byte	0x5bc
 1026 05e0 18       		.uleb128 0x18
 1027 05e1 AD000000 		.4byte	0xad
 1028 05e5 FE050000 		.4byte	0x5fe
 1029 05e9 19       		.uleb128 0x19
 1030 05ea 42020000 		.4byte	0x242
 1031 05ee 19       		.uleb128 0x19
 1032 05ef A2000000 		.4byte	0xa2
 1033 05f3 19       		.uleb128 0x19
 1034 05f4 52040000 		.4byte	0x452
 1035 05f8 19       		.uleb128 0x19
 1036 05f9 A2000000 		.4byte	0xa2
 1037 05fd 00       		.byte	0
 1038 05fe 09       		.uleb128 0x9
 1039 05ff 04       		.byte	0x4
 1040 0600 E0050000 		.4byte	0x5e0
 1041 0604 18       		.uleb128 0x18
 1042 0605 AD000000 		.4byte	0xad
 1043 0609 18060000 		.4byte	0x618
 1044 060d 19       		.uleb128 0x19
 1045 060e 42020000 		.4byte	0x242
 1046 0612 19       		.uleb128 0x19
 1047 0613 18060000 		.4byte	0x618
 1048 0617 00       		.byte	0
 1049 0618 09       		.uleb128 0x9
 1050 0619 04       		.byte	0x4
 1051 061a 9C050000 		.4byte	0x59c
 1052 061e 09       		.uleb128 0x9
 1053 061f 04       		.byte	0x4
 1054 0620 04060000 		.4byte	0x604
 1055 0624 08       		.uleb128 0x8
 1056 0625 1C       		.byte	0x1c
 1057 0626 0C       		.byte	0xc
 1058 0627 A3       		.byte	0xa3
 1059 0628 81060000 		.4byte	0x681
 1060 062c 06       		.uleb128 0x6
 1061 062d FA000000 		.4byte	.LASF78
 1062 0631 0C       		.byte	0xc
 1063 0632 A5       		.byte	0xa5
 1064 0633 A2000000 		.4byte	0xa2
 1065 0637 00       		.byte	0
 1066 0638 06       		.uleb128 0x6
 1067 0639 4E000000 		.4byte	.LASF79
 1068 063d 0C       		.byte	0xc
 1069 063e A7       		.byte	0xa7
 1070 063f A2000000 		.4byte	0xa2
 1071 0643 04       		.byte	0x4
 1072 0644 06       		.uleb128 0x6
ARM GAS  /tmp/ccHqjUL9.s 			page 20


 1073 0645 E4010000 		.4byte	.LASF80
 1074 0649 0C       		.byte	0xc
 1075 064a A9       		.byte	0xa9
 1076 064b A2000000 		.4byte	0xa2
 1077 064f 08       		.byte	0x8
 1078 0650 06       		.uleb128 0x6
 1079 0651 8F000000 		.4byte	.LASF81
 1080 0655 0C       		.byte	0xc
 1081 0656 AB       		.byte	0xab
 1082 0657 A2000000 		.4byte	0xa2
 1083 065b 0C       		.byte	0xc
 1084 065c 07       		.uleb128 0x7
 1085 065d 6F647200 		.ascii	"odr\000"
 1086 0661 0C       		.byte	0xc
 1087 0662 AD       		.byte	0xad
 1088 0663 A2000000 		.4byte	0xa2
 1089 0667 10       		.byte	0x10
 1090 0668 06       		.uleb128 0x6
 1091 0669 87030000 		.4byte	.LASF82
 1092 066d 0C       		.byte	0xc
 1093 066e AF       		.byte	0xaf
 1094 066f A2000000 		.4byte	0xa2
 1095 0673 14       		.byte	0x14
 1096 0674 06       		.uleb128 0x6
 1097 0675 C2020000 		.4byte	.LASF83
 1098 0679 0C       		.byte	0xc
 1099 067a B1       		.byte	0xb1
 1100 067b A2000000 		.4byte	0xa2
 1101 067f 18       		.byte	0x18
 1102 0680 00       		.byte	0
 1103 0681 04       		.uleb128 0x4
 1104 0682 10000000 		.4byte	.LASF84
 1105 0686 0C       		.byte	0xc
 1106 0687 B2       		.byte	0xb2
 1107 0688 24060000 		.4byte	0x624
 1108 068c 08       		.uleb128 0x8
 1109 068d FC       		.byte	0xfc
 1110 068e 0C       		.byte	0xc
 1111 068f BB       		.byte	0xbb
 1112 0690 01070000 		.4byte	0x701
 1113 0694 06       		.uleb128 0x6
 1114 0695 3C010000 		.4byte	.LASF85
 1115 0699 0C       		.byte	0xc
 1116 069a BE       		.byte	0xbe
 1117 069b 81060000 		.4byte	0x681
 1118 069f 00       		.byte	0
 1119 06a0 06       		.uleb128 0x6
 1120 06a1 B6010000 		.4byte	.LASF86
 1121 06a5 0C       		.byte	0xc
 1122 06a6 C2       		.byte	0xc2
 1123 06a7 81060000 		.4byte	0x681
 1124 06ab 1C       		.byte	0x1c
 1125 06ac 06       		.uleb128 0x6
 1126 06ad E1050000 		.4byte	.LASF87
 1127 06b1 0C       		.byte	0xc
 1128 06b2 C6       		.byte	0xc6
 1129 06b3 81060000 		.4byte	0x681
ARM GAS  /tmp/ccHqjUL9.s 			page 21


 1130 06b7 38       		.byte	0x38
 1131 06b8 06       		.uleb128 0x6
 1132 06b9 C7020000 		.4byte	.LASF88
 1133 06bd 0C       		.byte	0xc
 1134 06be CA       		.byte	0xca
 1135 06bf 81060000 		.4byte	0x681
 1136 06c3 54       		.byte	0x54
 1137 06c4 06       		.uleb128 0x6
 1138 06c5 24010000 		.4byte	.LASF89
 1139 06c9 0C       		.byte	0xc
 1140 06ca CE       		.byte	0xce
 1141 06cb 81060000 		.4byte	0x681
 1142 06cf 70       		.byte	0x70
 1143 06d0 06       		.uleb128 0x6
 1144 06d1 06020000 		.4byte	.LASF90
 1145 06d5 0C       		.byte	0xc
 1146 06d6 D2       		.byte	0xd2
 1147 06d7 81060000 		.4byte	0x681
 1148 06db 8C       		.byte	0x8c
 1149 06dc 06       		.uleb128 0x6
 1150 06dd 68020000 		.4byte	.LASF91
 1151 06e1 0C       		.byte	0xc
 1152 06e2 D6       		.byte	0xd6
 1153 06e3 81060000 		.4byte	0x681
 1154 06e7 A8       		.byte	0xa8
 1155 06e8 06       		.uleb128 0x6
 1156 06e9 71000000 		.4byte	.LASF92
 1157 06ed 0C       		.byte	0xc
 1158 06ee DA       		.byte	0xda
 1159 06ef 81060000 		.4byte	0x681
 1160 06f3 C4       		.byte	0xc4
 1161 06f4 06       		.uleb128 0x6
 1162 06f5 D9030000 		.4byte	.LASF93
 1163 06f9 0C       		.byte	0xc
 1164 06fa DE       		.byte	0xde
 1165 06fb 81060000 		.4byte	0x681
 1166 06ff E0       		.byte	0xe0
 1167 0700 00       		.byte	0
 1168 0701 04       		.uleb128 0x4
 1169 0702 F5050000 		.4byte	.LASF94
 1170 0706 0C       		.byte	0xc
 1171 0707 E0       		.byte	0xe0
 1172 0708 8C060000 		.4byte	0x68c
 1173 070c 09       		.uleb128 0x9
 1174 070d 04       		.byte	0x4
 1175 070e 12070000 		.4byte	0x712
 1176 0712 10       		.uleb128 0x10
 1177 0713 26050000 		.4byte	0x526
 1178 0717 04       		.uleb128 0x4
 1179 0718 AC010000 		.4byte	.LASF95
 1180 071c 0D       		.byte	0xd
 1181 071d BF       		.byte	0xbf
 1182 071e A2000000 		.4byte	0xa2
 1183 0722 04       		.uleb128 0x4
 1184 0723 8E040000 		.4byte	.LASF96
 1185 0727 0D       		.byte	0xd
 1186 0728 C4       		.byte	0xc4
ARM GAS  /tmp/ccHqjUL9.s 			page 22


 1187 0729 A2000000 		.4byte	0xa2
 1188 072d 04       		.uleb128 0x4
 1189 072e 07060000 		.4byte	.LASF97
 1190 0732 0D       		.byte	0xd
 1191 0733 C9       		.byte	0xc9
 1192 0734 38070000 		.4byte	0x738
 1193 0738 05       		.uleb128 0x5
 1194 0739 07060000 		.4byte	.LASF97
 1195 073d 48       		.byte	0x48
 1196 073e 0D       		.byte	0xd
 1197 073f E5       		.byte	0xe5
 1198 0740 D7070000 		.4byte	0x7d7
 1199 0744 07       		.uleb128 0x7
 1200 0745 766D7400 		.ascii	"vmt\000"
 1201 0749 0D       		.byte	0xd
 1202 074a E9       		.byte	0xe9
 1203 074b 64080000 		.4byte	0x864
 1204 074f 00       		.byte	0
 1205 0750 06       		.uleb128 0x6
 1206 0751 15010000 		.4byte	.LASF98
 1207 0755 0D       		.byte	0xd
 1208 0756 EA       		.byte	0xea
 1209 0757 70050000 		.4byte	0x570
 1210 075b 04       		.byte	0x4
 1211 075c 07       		.uleb128 0x7
 1212 075d 63696400 		.ascii	"cid\000"
 1213 0761 0D       		.byte	0xd
 1214 0762 EA       		.byte	0xea
 1215 0763 5D040000 		.4byte	0x45d
 1216 0767 08       		.byte	0x8
 1217 0768 07       		.uleb128 0x7
 1218 0769 63736400 		.ascii	"csd\000"
 1219 076d 0D       		.byte	0xd
 1220 076e EA       		.byte	0xea
 1221 076f 5D040000 		.4byte	0x45d
 1222 0773 18       		.byte	0x18
 1223 0774 06       		.uleb128 0x6
 1224 0775 55000000 		.4byte	.LASF99
 1225 0779 0D       		.byte	0xd
 1226 077a EA       		.byte	0xea
 1227 077b A2000000 		.4byte	0xa2
 1228 077f 28       		.byte	0x28
 1229 0780 06       		.uleb128 0x6
 1230 0781 37040000 		.4byte	.LASF100
 1231 0785 0D       		.byte	0xd
 1232 0786 EE       		.byte	0xee
 1233 0787 6F080000 		.4byte	0x86f
 1234 078b 2C       		.byte	0x2c
 1235 078c 06       		.uleb128 0x6
 1236 078d 9E000000 		.4byte	.LASF101
 1237 0791 0D       		.byte	0xd
 1238 0792 F2       		.byte	0xf2
 1239 0793 17070000 		.4byte	0x717
 1240 0797 30       		.byte	0x30
 1241 0798 06       		.uleb128 0x6
 1242 0799 D2010000 		.4byte	.LASF102
 1243 079d 0D       		.byte	0xd
ARM GAS  /tmp/ccHqjUL9.s 			page 23


 1244 079e F6       		.byte	0xf6
 1245 079f 22070000 		.4byte	0x722
 1246 07a3 34       		.byte	0x34
 1247 07a4 07       		.uleb128 0x7
 1248 07a5 72636100 		.ascii	"rca\000"
 1249 07a9 0D       		.byte	0xd
 1250 07aa FA       		.byte	0xfa
 1251 07ab A2000000 		.4byte	0xa2
 1252 07af 38       		.byte	0x38
 1253 07b0 06       		.uleb128 0x6
 1254 07b1 64030000 		.4byte	.LASF103
 1255 07b5 0D       		.byte	0xd
 1256 07b6 FF       		.byte	0xff
 1257 07b7 06020000 		.4byte	0x206
 1258 07bb 3C       		.byte	0x3c
 1259 07bc 14       		.uleb128 0x14
 1260 07bd D9040000 		.4byte	.LASF104
 1261 07c1 0D       		.byte	0xd
 1262 07c2 0301     		.2byte	0x103
 1263 07c4 A2000000 		.4byte	0xa2
 1264 07c8 40       		.byte	0x40
 1265 07c9 0C       		.uleb128 0xc
 1266 07ca 646D6100 		.ascii	"dma\000"
 1267 07ce 0D       		.byte	0xd
 1268 07cf 0701     		.2byte	0x107
 1269 07d1 0C070000 		.4byte	0x70c
 1270 07d5 44       		.byte	0x44
 1271 07d6 00       		.byte	0
 1272 07d7 08       		.uleb128 0x8
 1273 07d8 04       		.byte	0x4
 1274 07d9 0D       		.byte	0xd
 1275 07da CF       		.byte	0xcf
 1276 07db EC070000 		.4byte	0x7ec
 1277 07df 06       		.uleb128 0x6
 1278 07e0 8E010000 		.4byte	.LASF105
 1279 07e4 0D       		.byte	0xd
 1280 07e5 D0       		.byte	0xd0
 1281 07e6 A2000000 		.4byte	0xa2
 1282 07ea 00       		.byte	0
 1283 07eb 00       		.byte	0
 1284 07ec 04       		.uleb128 0x4
 1285 07ed B8040000 		.4byte	.LASF106
 1286 07f1 0D       		.byte	0xd
 1287 07f2 D1       		.byte	0xd1
 1288 07f3 D7070000 		.4byte	0x7d7
 1289 07f7 05       		.uleb128 0x5
 1290 07f8 CC030000 		.4byte	.LASF107
 1291 07fc 20       		.byte	0x20
 1292 07fd 0D       		.byte	0xd
 1293 07fe DE       		.byte	0xde
 1294 07ff 64080000 		.4byte	0x864
 1295 0803 06       		.uleb128 0x6
 1296 0804 A0040000 		.4byte	.LASF108
 1297 0808 0D       		.byte	0xd
 1298 0809 DF       		.byte	0xdf
 1299 080a B6050000 		.4byte	0x5b6
 1300 080e 00       		.byte	0
ARM GAS  /tmp/ccHqjUL9.s 			page 24


 1301 080f 06       		.uleb128 0x6
 1302 0810 37000000 		.4byte	.LASF109
 1303 0814 0D       		.byte	0xd
 1304 0815 DF       		.byte	0xdf
 1305 0816 B6050000 		.4byte	0x5b6
 1306 081a 04       		.byte	0x4
 1307 081b 06       		.uleb128 0x6
 1308 081c E0030000 		.4byte	.LASF110
 1309 0820 0D       		.byte	0xd
 1310 0821 DF       		.byte	0xdf
 1311 0822 B6050000 		.4byte	0x5b6
 1312 0826 08       		.byte	0x8
 1313 0827 06       		.uleb128 0x6
 1314 0828 EF000000 		.4byte	.LASF111
 1315 082c 0D       		.byte	0xd
 1316 082d DF       		.byte	0xdf
 1317 082e B6050000 		.4byte	0x5b6
 1318 0832 0C       		.byte	0xc
 1319 0833 06       		.uleb128 0x6
 1320 0834 13040000 		.4byte	.LASF112
 1321 0838 0D       		.byte	0xd
 1322 0839 DF       		.byte	0xdf
 1323 083a DA050000 		.4byte	0x5da
 1324 083e 10       		.byte	0x10
 1325 083f 06       		.uleb128 0x6
 1326 0840 76020000 		.4byte	.LASF113
 1327 0844 0D       		.byte	0xd
 1328 0845 DF       		.byte	0xdf
 1329 0846 FE050000 		.4byte	0x5fe
 1330 084a 14       		.byte	0x14
 1331 084b 06       		.uleb128 0x6
 1332 084c D4040000 		.4byte	.LASF114
 1333 0850 0D       		.byte	0xd
 1334 0851 DF       		.byte	0xdf
 1335 0852 B6050000 		.4byte	0x5b6
 1336 0856 18       		.byte	0x18
 1337 0857 06       		.uleb128 0x6
 1338 0858 5E010000 		.4byte	.LASF115
 1339 085c 0D       		.byte	0xd
 1340 085d DF       		.byte	0xdf
 1341 085e 1E060000 		.4byte	0x61e
 1342 0862 1C       		.byte	0x1c
 1343 0863 00       		.byte	0
 1344 0864 09       		.uleb128 0x9
 1345 0865 04       		.byte	0x4
 1346 0866 6A080000 		.4byte	0x86a
 1347 086a 10       		.uleb128 0x10
 1348 086b F7070000 		.4byte	0x7f7
 1349 086f 09       		.uleb128 0x9
 1350 0870 04       		.byte	0x4
 1351 0871 75080000 		.4byte	0x875
 1352 0875 10       		.uleb128 0x10
 1353 0876 EC070000 		.4byte	0x7ec
 1354 087a 1A       		.uleb128 0x1a
 1355 087b F3010000 		.4byte	.LASF124
 1356 087f 01       		.byte	0x1
 1357 0880 47       		.byte	0x47
ARM GAS  /tmp/ccHqjUL9.s 			page 25


 1358 0881 00000000 		.4byte	.LFB130
 1359 0885 0E000000 		.4byte	.LFE130-.LFB130
 1360 0889 01       		.uleb128 0x1
 1361 088a 9C       		.byte	0x9c
 1362 088b A2080000 		.4byte	0x8a2
 1363 088f 1B       		.uleb128 0x1b
 1364 0890 06000000 		.4byte	.LVL0
 1365 0894 BF090000 		.4byte	0x9bf
 1366 0898 1C       		.uleb128 0x1c
 1367 0899 0E000000 		.4byte	.LVL1
 1368 089d C6090000 		.4byte	0x9c6
 1369 08a1 00       		.byte	0
 1370 08a2 1D       		.uleb128 0x1d
 1371 08a3 65000000 		.4byte	.LASF119
 1372 08a7 01       		.byte	0x1
 1373 08a8 4C       		.byte	0x4c
 1374 08a9 10000000 		.4byte	.LFB131
 1375 08ad 02000000 		.4byte	.LFE131-.LFB131
 1376 08b1 01       		.uleb128 0x1
 1377 08b2 9C       		.byte	0x9c
 1378 08b3 1E       		.uleb128 0x1e
 1379 08b4 15030000 		.4byte	.LASF116
 1380 08b8 01       		.byte	0x1
 1381 08b9 53       		.byte	0x53
 1382 08ba AD000000 		.4byte	0xad
 1383 08be 20000000 		.4byte	.LFB132
 1384 08c2 04000000 		.4byte	.LFE132-.LFB132
 1385 08c6 01       		.uleb128 0x1
 1386 08c7 9C       		.byte	0x9c
 1387 08c8 DC080000 		.4byte	0x8dc
 1388 08cc 1F       		.uleb128 0x1f
 1389 08cd 3E040000 		.4byte	.LASF118
 1390 08d1 01       		.byte	0x1
 1391 08d2 53       		.byte	0x53
 1392 08d3 DC080000 		.4byte	0x8dc
 1393 08d7 00000000 		.4byte	.LLST0
 1394 08db 00       		.byte	0
 1395 08dc 09       		.uleb128 0x9
 1396 08dd 04       		.byte	0x4
 1397 08de 2D070000 		.4byte	0x72d
 1398 08e2 1E       		.uleb128 0x1e
 1399 08e3 18020000 		.4byte	.LASF117
 1400 08e7 01       		.byte	0x1
 1401 08e8 5D       		.byte	0x5d
 1402 08e9 AD000000 		.4byte	0xad
 1403 08ed 30000000 		.4byte	.LFB133
 1404 08f1 04000000 		.4byte	.LFE133-.LFB133
 1405 08f5 01       		.uleb128 0x1
 1406 08f6 9C       		.byte	0x9c
 1407 08f7 0B090000 		.4byte	0x90b
 1408 08fb 1F       		.uleb128 0x1f
 1409 08fc 3E040000 		.4byte	.LASF118
 1410 0900 01       		.byte	0x1
 1411 0901 5D       		.byte	0x5d
 1412 0902 DC080000 		.4byte	0x8dc
 1413 0906 21000000 		.4byte	.LLST1
 1414 090a 00       		.byte	0
ARM GAS  /tmp/ccHqjUL9.s 			page 26


 1415 090b 1D       		.uleb128 0x1d
 1416 090c C2040000 		.4byte	.LASF120
 1417 0910 01       		.byte	0x1
 1418 0911 69       		.byte	0x69
 1419 0912 40000000 		.4byte	.LFB134
 1420 0916 02000000 		.4byte	.LFE134-.LFB134
 1421 091a 01       		.uleb128 0x1
 1422 091b 9C       		.byte	0x9c
 1423 091c 20       		.uleb128 0x20
 1424 091d 34010000 		.4byte	.LASF122
 1425 0921 01       		.byte	0x1
 1426 0922 6C       		.byte	0x6c
 1427 0923 25000000 		.4byte	0x25
 1428 0927 50000000 		.4byte	.LFB135
 1429 092b 06000000 		.4byte	.LFE135-.LFB135
 1430 092f 01       		.uleb128 0x1
 1431 0930 9C       		.byte	0x9c
 1432 0931 1E       		.uleb128 0x1e
 1433 0932 80040000 		.4byte	.LASF121
 1434 0936 01       		.byte	0x1
 1435 0937 6D       		.byte	0x6d
 1436 0938 25000000 		.4byte	0x25
 1437 093c 60000000 		.4byte	.LFB136
 1438 0940 06000000 		.4byte	.LFE136-.LFB136
 1439 0944 01       		.uleb128 0x1
 1440 0945 9C       		.byte	0x9c
 1441 0946 67090000 		.4byte	0x967
 1442 094a 21       		.uleb128 0x21
 1443 094b 70696400 		.ascii	"pid\000"
 1444 094f 01       		.byte	0x1
 1445 0950 6D       		.byte	0x6d
 1446 0951 25000000 		.4byte	0x25
 1447 0955 42000000 		.4byte	.LLST2
 1448 0959 22       		.uleb128 0x22
 1449 095a 73696700 		.ascii	"sig\000"
 1450 095e 01       		.byte	0x1
 1451 095f 6D       		.byte	0x6d
 1452 0960 25000000 		.4byte	0x25
 1453 0964 01       		.uleb128 0x1
 1454 0965 51       		.byte	0x51
 1455 0966 00       		.byte	0
 1456 0967 20       		.uleb128 0x20
 1457 0968 6F020000 		.4byte	.LASF123
 1458 096c 01       		.byte	0x1
 1459 096d 6E       		.byte	0x6e
 1460 096e 25000000 		.4byte	0x25
 1461 0972 70000000 		.4byte	.LFB137
 1462 0976 06000000 		.4byte	.LFE137-.LFB137
 1463 097a 01       		.uleb128 0x1
 1464 097b 9C       		.byte	0x9c
 1465 097c 1A       		.uleb128 0x1a
 1466 097d 00020000 		.4byte	.LASF125
 1467 0981 01       		.byte	0x1
 1468 0982 6F       		.byte	0x6f
 1469 0983 80000000 		.4byte	.LFB138
 1470 0987 02000000 		.4byte	.LFE138-.LFB138
 1471 098b 01       		.uleb128 0x1
ARM GAS  /tmp/ccHqjUL9.s 			page 27


 1472 098c 9C       		.byte	0x9c
 1473 098d 9D090000 		.4byte	0x99d
 1474 0991 22       		.uleb128 0x22
 1475 0992 6900     		.ascii	"i\000"
 1476 0994 01       		.byte	0x1
 1477 0995 6F       		.byte	0x6f
 1478 0996 25000000 		.4byte	0x25
 1479 099a 01       		.uleb128 0x1
 1480 099b 50       		.byte	0x50
 1481 099c 00       		.byte	0
 1482 099d 23       		.uleb128 0x23
 1483 099e A7000000 		.4byte	.LASF126
 1484 09a2 0E       		.byte	0xe
 1485 09a3 DF07     		.2byte	0x7df
 1486 09a5 6D040000 		.4byte	0x46d
 1487 09a9 24       		.uleb128 0x24
 1488 09aa 11060000 		.4byte	.LASF127
 1489 09ae 01       		.byte	0x1
 1490 09af 1C       		.byte	0x1c
 1491 09b0 BA090000 		.4byte	0x9ba
 1492 09b4 05       		.uleb128 0x5
 1493 09b5 03       		.byte	0x3
 1494 09b6 00000000 		.4byte	pal_default_config
 1495 09ba 10       		.uleb128 0x10
 1496 09bb 01070000 		.4byte	0x701
 1497 09bf 25       		.uleb128 0x25
 1498 09c0 50030000 		.4byte	.LASF128
 1499 09c4 0F       		.byte	0xf
 1500 09c5 1B       		.byte	0x1b
 1501 09c6 26       		.uleb128 0x26
 1502 09c7 9B010000 		.4byte	.LASF129
 1503 09cb 10       		.byte	0x10
 1504 09cc E606     		.2byte	0x6e6
 1505 09ce 00       		.byte	0
 1506              		.section	.debug_abbrev,"",%progbits
 1507              	.Ldebug_abbrev0:
 1508 0000 01       		.uleb128 0x1
 1509 0001 11       		.uleb128 0x11
 1510 0002 01       		.byte	0x1
 1511 0003 25       		.uleb128 0x25
 1512 0004 0E       		.uleb128 0xe
 1513 0005 13       		.uleb128 0x13
 1514 0006 0B       		.uleb128 0xb
 1515 0007 03       		.uleb128 0x3
 1516 0008 0E       		.uleb128 0xe
 1517 0009 1B       		.uleb128 0x1b
 1518 000a 0E       		.uleb128 0xe
 1519 000b 11       		.uleb128 0x11
 1520 000c 01       		.uleb128 0x1
 1521 000d 12       		.uleb128 0x12
 1522 000e 06       		.uleb128 0x6
 1523 000f 10       		.uleb128 0x10
 1524 0010 17       		.uleb128 0x17
 1525 0011 00       		.byte	0
 1526 0012 00       		.byte	0
 1527 0013 02       		.uleb128 0x2
 1528 0014 24       		.uleb128 0x24
ARM GAS  /tmp/ccHqjUL9.s 			page 28


 1529 0015 00       		.byte	0
 1530 0016 0B       		.uleb128 0xb
 1531 0017 0B       		.uleb128 0xb
 1532 0018 3E       		.uleb128 0x3e
 1533 0019 0B       		.uleb128 0xb
 1534 001a 03       		.uleb128 0x3
 1535 001b 08       		.uleb128 0x8
 1536 001c 00       		.byte	0
 1537 001d 00       		.byte	0
 1538 001e 03       		.uleb128 0x3
 1539 001f 24       		.uleb128 0x24
 1540 0020 00       		.byte	0
 1541 0021 0B       		.uleb128 0xb
 1542 0022 0B       		.uleb128 0xb
 1543 0023 3E       		.uleb128 0x3e
 1544 0024 0B       		.uleb128 0xb
 1545 0025 03       		.uleb128 0x3
 1546 0026 0E       		.uleb128 0xe
 1547 0027 00       		.byte	0
 1548 0028 00       		.byte	0
 1549 0029 04       		.uleb128 0x4
 1550 002a 16       		.uleb128 0x16
 1551 002b 00       		.byte	0
 1552 002c 03       		.uleb128 0x3
 1553 002d 0E       		.uleb128 0xe
 1554 002e 3A       		.uleb128 0x3a
 1555 002f 0B       		.uleb128 0xb
 1556 0030 3B       		.uleb128 0x3b
 1557 0031 0B       		.uleb128 0xb
 1558 0032 49       		.uleb128 0x49
 1559 0033 13       		.uleb128 0x13
 1560 0034 00       		.byte	0
 1561 0035 00       		.byte	0
 1562 0036 05       		.uleb128 0x5
 1563 0037 13       		.uleb128 0x13
 1564 0038 01       		.byte	0x1
 1565 0039 03       		.uleb128 0x3
 1566 003a 0E       		.uleb128 0xe
 1567 003b 0B       		.uleb128 0xb
 1568 003c 0B       		.uleb128 0xb
 1569 003d 3A       		.uleb128 0x3a
 1570 003e 0B       		.uleb128 0xb
 1571 003f 3B       		.uleb128 0x3b
 1572 0040 0B       		.uleb128 0xb
 1573 0041 01       		.uleb128 0x1
 1574 0042 13       		.uleb128 0x13
 1575 0043 00       		.byte	0
 1576 0044 00       		.byte	0
 1577 0045 06       		.uleb128 0x6
 1578 0046 0D       		.uleb128 0xd
 1579 0047 00       		.byte	0
 1580 0048 03       		.uleb128 0x3
 1581 0049 0E       		.uleb128 0xe
 1582 004a 3A       		.uleb128 0x3a
 1583 004b 0B       		.uleb128 0xb
 1584 004c 3B       		.uleb128 0x3b
 1585 004d 0B       		.uleb128 0xb
ARM GAS  /tmp/ccHqjUL9.s 			page 29


 1586 004e 49       		.uleb128 0x49
 1587 004f 13       		.uleb128 0x13
 1588 0050 38       		.uleb128 0x38
 1589 0051 0B       		.uleb128 0xb
 1590 0052 00       		.byte	0
 1591 0053 00       		.byte	0
 1592 0054 07       		.uleb128 0x7
 1593 0055 0D       		.uleb128 0xd
 1594 0056 00       		.byte	0
 1595 0057 03       		.uleb128 0x3
 1596 0058 08       		.uleb128 0x8
 1597 0059 3A       		.uleb128 0x3a
 1598 005a 0B       		.uleb128 0xb
 1599 005b 3B       		.uleb128 0x3b
 1600 005c 0B       		.uleb128 0xb
 1601 005d 49       		.uleb128 0x49
 1602 005e 13       		.uleb128 0x13
 1603 005f 38       		.uleb128 0x38
 1604 0060 0B       		.uleb128 0xb
 1605 0061 00       		.byte	0
 1606 0062 00       		.byte	0
 1607 0063 08       		.uleb128 0x8
 1608 0064 13       		.uleb128 0x13
 1609 0065 01       		.byte	0x1
 1610 0066 0B       		.uleb128 0xb
 1611 0067 0B       		.uleb128 0xb
 1612 0068 3A       		.uleb128 0x3a
 1613 0069 0B       		.uleb128 0xb
 1614 006a 3B       		.uleb128 0x3b
 1615 006b 0B       		.uleb128 0xb
 1616 006c 01       		.uleb128 0x1
 1617 006d 13       		.uleb128 0x13
 1618 006e 00       		.byte	0
 1619 006f 00       		.byte	0
 1620 0070 09       		.uleb128 0x9
 1621 0071 0F       		.uleb128 0xf
 1622 0072 00       		.byte	0
 1623 0073 0B       		.uleb128 0xb
 1624 0074 0B       		.uleb128 0xb
 1625 0075 49       		.uleb128 0x49
 1626 0076 13       		.uleb128 0x13
 1627 0077 00       		.byte	0
 1628 0078 00       		.byte	0
 1629 0079 0A       		.uleb128 0xa
 1630 007a 0F       		.uleb128 0xf
 1631 007b 00       		.byte	0
 1632 007c 0B       		.uleb128 0xb
 1633 007d 0B       		.uleb128 0xb
 1634 007e 00       		.byte	0
 1635 007f 00       		.byte	0
 1636 0080 0B       		.uleb128 0xb
 1637 0081 13       		.uleb128 0x13
 1638 0082 01       		.byte	0x1
 1639 0083 03       		.uleb128 0x3
 1640 0084 0E       		.uleb128 0xe
 1641 0085 0B       		.uleb128 0xb
 1642 0086 0B       		.uleb128 0xb
ARM GAS  /tmp/ccHqjUL9.s 			page 30


 1643 0087 3A       		.uleb128 0x3a
 1644 0088 0B       		.uleb128 0xb
 1645 0089 3B       		.uleb128 0x3b
 1646 008a 05       		.uleb128 0x5
 1647 008b 01       		.uleb128 0x1
 1648 008c 13       		.uleb128 0x13
 1649 008d 00       		.byte	0
 1650 008e 00       		.byte	0
 1651 008f 0C       		.uleb128 0xc
 1652 0090 0D       		.uleb128 0xd
 1653 0091 00       		.byte	0
 1654 0092 03       		.uleb128 0x3
 1655 0093 08       		.uleb128 0x8
 1656 0094 3A       		.uleb128 0x3a
 1657 0095 0B       		.uleb128 0xb
 1658 0096 3B       		.uleb128 0x3b
 1659 0097 05       		.uleb128 0x5
 1660 0098 49       		.uleb128 0x49
 1661 0099 13       		.uleb128 0x13
 1662 009a 38       		.uleb128 0x38
 1663 009b 0B       		.uleb128 0xb
 1664 009c 00       		.byte	0
 1665 009d 00       		.byte	0
 1666 009e 0D       		.uleb128 0xd
 1667 009f 35       		.uleb128 0x35
 1668 00a0 00       		.byte	0
 1669 00a1 49       		.uleb128 0x49
 1670 00a2 13       		.uleb128 0x13
 1671 00a3 00       		.byte	0
 1672 00a4 00       		.byte	0
 1673 00a5 0E       		.uleb128 0xe
 1674 00a6 17       		.uleb128 0x17
 1675 00a7 01       		.byte	0x1
 1676 00a8 0B       		.uleb128 0xb
 1677 00a9 0B       		.uleb128 0xb
 1678 00aa 3A       		.uleb128 0x3a
 1679 00ab 0B       		.uleb128 0xb
 1680 00ac 3B       		.uleb128 0x3b
 1681 00ad 0B       		.uleb128 0xb
 1682 00ae 01       		.uleb128 0x1
 1683 00af 13       		.uleb128 0x13
 1684 00b0 00       		.byte	0
 1685 00b1 00       		.byte	0
 1686 00b2 0F       		.uleb128 0xf
 1687 00b3 0D       		.uleb128 0xd
 1688 00b4 00       		.byte	0
 1689 00b5 03       		.uleb128 0x3
 1690 00b6 0E       		.uleb128 0xe
 1691 00b7 3A       		.uleb128 0x3a
 1692 00b8 0B       		.uleb128 0xb
 1693 00b9 3B       		.uleb128 0x3b
 1694 00ba 0B       		.uleb128 0xb
 1695 00bb 49       		.uleb128 0x49
 1696 00bc 13       		.uleb128 0x13
 1697 00bd 00       		.byte	0
 1698 00be 00       		.byte	0
 1699 00bf 10       		.uleb128 0x10
ARM GAS  /tmp/ccHqjUL9.s 			page 31


 1700 00c0 26       		.uleb128 0x26
 1701 00c1 00       		.byte	0
 1702 00c2 49       		.uleb128 0x49
 1703 00c3 13       		.uleb128 0x13
 1704 00c4 00       		.byte	0
 1705 00c5 00       		.byte	0
 1706 00c6 11       		.uleb128 0x11
 1707 00c7 01       		.uleb128 0x1
 1708 00c8 01       		.byte	0x1
 1709 00c9 49       		.uleb128 0x49
 1710 00ca 13       		.uleb128 0x13
 1711 00cb 01       		.uleb128 0x1
 1712 00cc 13       		.uleb128 0x13
 1713 00cd 00       		.byte	0
 1714 00ce 00       		.byte	0
 1715 00cf 12       		.uleb128 0x12
 1716 00d0 21       		.uleb128 0x21
 1717 00d1 00       		.byte	0
 1718 00d2 49       		.uleb128 0x49
 1719 00d3 13       		.uleb128 0x13
 1720 00d4 2F       		.uleb128 0x2f
 1721 00d5 0B       		.uleb128 0xb
 1722 00d6 00       		.byte	0
 1723 00d7 00       		.byte	0
 1724 00d8 13       		.uleb128 0x13
 1725 00d9 13       		.uleb128 0x13
 1726 00da 01       		.byte	0x1
 1727 00db 0B       		.uleb128 0xb
 1728 00dc 0B       		.uleb128 0xb
 1729 00dd 3A       		.uleb128 0x3a
 1730 00de 0B       		.uleb128 0xb
 1731 00df 3B       		.uleb128 0x3b
 1732 00e0 05       		.uleb128 0x5
 1733 00e1 01       		.uleb128 0x1
 1734 00e2 13       		.uleb128 0x13
 1735 00e3 00       		.byte	0
 1736 00e4 00       		.byte	0
 1737 00e5 14       		.uleb128 0x14
 1738 00e6 0D       		.uleb128 0xd
 1739 00e7 00       		.byte	0
 1740 00e8 03       		.uleb128 0x3
 1741 00e9 0E       		.uleb128 0xe
 1742 00ea 3A       		.uleb128 0x3a
 1743 00eb 0B       		.uleb128 0xb
 1744 00ec 3B       		.uleb128 0x3b
 1745 00ed 05       		.uleb128 0x5
 1746 00ee 49       		.uleb128 0x49
 1747 00ef 13       		.uleb128 0x13
 1748 00f0 38       		.uleb128 0x38
 1749 00f1 0B       		.uleb128 0xb
 1750 00f2 00       		.byte	0
 1751 00f3 00       		.byte	0
 1752 00f4 15       		.uleb128 0x15
 1753 00f5 16       		.uleb128 0x16
 1754 00f6 00       		.byte	0
 1755 00f7 03       		.uleb128 0x3
 1756 00f8 0E       		.uleb128 0xe
ARM GAS  /tmp/ccHqjUL9.s 			page 32


 1757 00f9 3A       		.uleb128 0x3a
 1758 00fa 0B       		.uleb128 0xb
 1759 00fb 3B       		.uleb128 0x3b
 1760 00fc 05       		.uleb128 0x5
 1761 00fd 49       		.uleb128 0x49
 1762 00fe 13       		.uleb128 0x13
 1763 00ff 00       		.byte	0
 1764 0100 00       		.byte	0
 1765 0101 16       		.uleb128 0x16
 1766 0102 04       		.uleb128 0x4
 1767 0103 01       		.byte	0x1
 1768 0104 0B       		.uleb128 0xb
 1769 0105 0B       		.uleb128 0xb
 1770 0106 3A       		.uleb128 0x3a
 1771 0107 0B       		.uleb128 0xb
 1772 0108 3B       		.uleb128 0x3b
 1773 0109 0B       		.uleb128 0xb
 1774 010a 01       		.uleb128 0x1
 1775 010b 13       		.uleb128 0x13
 1776 010c 00       		.byte	0
 1777 010d 00       		.byte	0
 1778 010e 17       		.uleb128 0x17
 1779 010f 28       		.uleb128 0x28
 1780 0110 00       		.byte	0
 1781 0111 03       		.uleb128 0x3
 1782 0112 0E       		.uleb128 0xe
 1783 0113 1C       		.uleb128 0x1c
 1784 0114 0D       		.uleb128 0xd
 1785 0115 00       		.byte	0
 1786 0116 00       		.byte	0
 1787 0117 18       		.uleb128 0x18
 1788 0118 15       		.uleb128 0x15
 1789 0119 01       		.byte	0x1
 1790 011a 27       		.uleb128 0x27
 1791 011b 19       		.uleb128 0x19
 1792 011c 49       		.uleb128 0x49
 1793 011d 13       		.uleb128 0x13
 1794 011e 01       		.uleb128 0x1
 1795 011f 13       		.uleb128 0x13
 1796 0120 00       		.byte	0
 1797 0121 00       		.byte	0
 1798 0122 19       		.uleb128 0x19
 1799 0123 05       		.uleb128 0x5
 1800 0124 00       		.byte	0
 1801 0125 49       		.uleb128 0x49
 1802 0126 13       		.uleb128 0x13
 1803 0127 00       		.byte	0
 1804 0128 00       		.byte	0
 1805 0129 1A       		.uleb128 0x1a
 1806 012a 2E       		.uleb128 0x2e
 1807 012b 01       		.byte	0x1
 1808 012c 3F       		.uleb128 0x3f
 1809 012d 19       		.uleb128 0x19
 1810 012e 03       		.uleb128 0x3
 1811 012f 0E       		.uleb128 0xe
 1812 0130 3A       		.uleb128 0x3a
 1813 0131 0B       		.uleb128 0xb
ARM GAS  /tmp/ccHqjUL9.s 			page 33


 1814 0132 3B       		.uleb128 0x3b
 1815 0133 0B       		.uleb128 0xb
 1816 0134 27       		.uleb128 0x27
 1817 0135 19       		.uleb128 0x19
 1818 0136 11       		.uleb128 0x11
 1819 0137 01       		.uleb128 0x1
 1820 0138 12       		.uleb128 0x12
 1821 0139 06       		.uleb128 0x6
 1822 013a 40       		.uleb128 0x40
 1823 013b 18       		.uleb128 0x18
 1824 013c 9742     		.uleb128 0x2117
 1825 013e 19       		.uleb128 0x19
 1826 013f 01       		.uleb128 0x1
 1827 0140 13       		.uleb128 0x13
 1828 0141 00       		.byte	0
 1829 0142 00       		.byte	0
 1830 0143 1B       		.uleb128 0x1b
 1831 0144 898201   		.uleb128 0x4109
 1832 0147 00       		.byte	0
 1833 0148 11       		.uleb128 0x11
 1834 0149 01       		.uleb128 0x1
 1835 014a 31       		.uleb128 0x31
 1836 014b 13       		.uleb128 0x13
 1837 014c 00       		.byte	0
 1838 014d 00       		.byte	0
 1839 014e 1C       		.uleb128 0x1c
 1840 014f 898201   		.uleb128 0x4109
 1841 0152 00       		.byte	0
 1842 0153 11       		.uleb128 0x11
 1843 0154 01       		.uleb128 0x1
 1844 0155 9542     		.uleb128 0x2115
 1845 0157 19       		.uleb128 0x19
 1846 0158 31       		.uleb128 0x31
 1847 0159 13       		.uleb128 0x13
 1848 015a 00       		.byte	0
 1849 015b 00       		.byte	0
 1850 015c 1D       		.uleb128 0x1d
 1851 015d 2E       		.uleb128 0x2e
 1852 015e 00       		.byte	0
 1853 015f 3F       		.uleb128 0x3f
 1854 0160 19       		.uleb128 0x19
 1855 0161 03       		.uleb128 0x3
 1856 0162 0E       		.uleb128 0xe
 1857 0163 3A       		.uleb128 0x3a
 1858 0164 0B       		.uleb128 0xb
 1859 0165 3B       		.uleb128 0x3b
 1860 0166 0B       		.uleb128 0xb
 1861 0167 27       		.uleb128 0x27
 1862 0168 19       		.uleb128 0x19
 1863 0169 11       		.uleb128 0x11
 1864 016a 01       		.uleb128 0x1
 1865 016b 12       		.uleb128 0x12
 1866 016c 06       		.uleb128 0x6
 1867 016d 40       		.uleb128 0x40
 1868 016e 18       		.uleb128 0x18
 1869 016f 9742     		.uleb128 0x2117
 1870 0171 19       		.uleb128 0x19
ARM GAS  /tmp/ccHqjUL9.s 			page 34


 1871 0172 00       		.byte	0
 1872 0173 00       		.byte	0
 1873 0174 1E       		.uleb128 0x1e
 1874 0175 2E       		.uleb128 0x2e
 1875 0176 01       		.byte	0x1
 1876 0177 3F       		.uleb128 0x3f
 1877 0178 19       		.uleb128 0x19
 1878 0179 03       		.uleb128 0x3
 1879 017a 0E       		.uleb128 0xe
 1880 017b 3A       		.uleb128 0x3a
 1881 017c 0B       		.uleb128 0xb
 1882 017d 3B       		.uleb128 0x3b
 1883 017e 0B       		.uleb128 0xb
 1884 017f 27       		.uleb128 0x27
 1885 0180 19       		.uleb128 0x19
 1886 0181 49       		.uleb128 0x49
 1887 0182 13       		.uleb128 0x13
 1888 0183 11       		.uleb128 0x11
 1889 0184 01       		.uleb128 0x1
 1890 0185 12       		.uleb128 0x12
 1891 0186 06       		.uleb128 0x6
 1892 0187 40       		.uleb128 0x40
 1893 0188 18       		.uleb128 0x18
 1894 0189 9742     		.uleb128 0x2117
 1895 018b 19       		.uleb128 0x19
 1896 018c 01       		.uleb128 0x1
 1897 018d 13       		.uleb128 0x13
 1898 018e 00       		.byte	0
 1899 018f 00       		.byte	0
 1900 0190 1F       		.uleb128 0x1f
 1901 0191 05       		.uleb128 0x5
 1902 0192 00       		.byte	0
 1903 0193 03       		.uleb128 0x3
 1904 0194 0E       		.uleb128 0xe
 1905 0195 3A       		.uleb128 0x3a
 1906 0196 0B       		.uleb128 0xb
 1907 0197 3B       		.uleb128 0x3b
 1908 0198 0B       		.uleb128 0xb
 1909 0199 49       		.uleb128 0x49
 1910 019a 13       		.uleb128 0x13
 1911 019b 02       		.uleb128 0x2
 1912 019c 17       		.uleb128 0x17
 1913 019d 00       		.byte	0
 1914 019e 00       		.byte	0
 1915 019f 20       		.uleb128 0x20
 1916 01a0 2E       		.uleb128 0x2e
 1917 01a1 00       		.byte	0
 1918 01a2 3F       		.uleb128 0x3f
 1919 01a3 19       		.uleb128 0x19
 1920 01a4 03       		.uleb128 0x3
 1921 01a5 0E       		.uleb128 0xe
 1922 01a6 3A       		.uleb128 0x3a
 1923 01a7 0B       		.uleb128 0xb
 1924 01a8 3B       		.uleb128 0x3b
 1925 01a9 0B       		.uleb128 0xb
 1926 01aa 27       		.uleb128 0x27
 1927 01ab 19       		.uleb128 0x19
ARM GAS  /tmp/ccHqjUL9.s 			page 35


 1928 01ac 49       		.uleb128 0x49
 1929 01ad 13       		.uleb128 0x13
 1930 01ae 11       		.uleb128 0x11
 1931 01af 01       		.uleb128 0x1
 1932 01b0 12       		.uleb128 0x12
 1933 01b1 06       		.uleb128 0x6
 1934 01b2 40       		.uleb128 0x40
 1935 01b3 18       		.uleb128 0x18
 1936 01b4 9742     		.uleb128 0x2117
 1937 01b6 19       		.uleb128 0x19
 1938 01b7 00       		.byte	0
 1939 01b8 00       		.byte	0
 1940 01b9 21       		.uleb128 0x21
 1941 01ba 05       		.uleb128 0x5
 1942 01bb 00       		.byte	0
 1943 01bc 03       		.uleb128 0x3
 1944 01bd 08       		.uleb128 0x8
 1945 01be 3A       		.uleb128 0x3a
 1946 01bf 0B       		.uleb128 0xb
 1947 01c0 3B       		.uleb128 0x3b
 1948 01c1 0B       		.uleb128 0xb
 1949 01c2 49       		.uleb128 0x49
 1950 01c3 13       		.uleb128 0x13
 1951 01c4 02       		.uleb128 0x2
 1952 01c5 17       		.uleb128 0x17
 1953 01c6 00       		.byte	0
 1954 01c7 00       		.byte	0
 1955 01c8 22       		.uleb128 0x22
 1956 01c9 05       		.uleb128 0x5
 1957 01ca 00       		.byte	0
 1958 01cb 03       		.uleb128 0x3
 1959 01cc 08       		.uleb128 0x8
 1960 01cd 3A       		.uleb128 0x3a
 1961 01ce 0B       		.uleb128 0xb
 1962 01cf 3B       		.uleb128 0x3b
 1963 01d0 0B       		.uleb128 0xb
 1964 01d1 49       		.uleb128 0x49
 1965 01d2 13       		.uleb128 0x13
 1966 01d3 02       		.uleb128 0x2
 1967 01d4 18       		.uleb128 0x18
 1968 01d5 00       		.byte	0
 1969 01d6 00       		.byte	0
 1970 01d7 23       		.uleb128 0x23
 1971 01d8 34       		.uleb128 0x34
 1972 01d9 00       		.byte	0
 1973 01da 03       		.uleb128 0x3
 1974 01db 0E       		.uleb128 0xe
 1975 01dc 3A       		.uleb128 0x3a
 1976 01dd 0B       		.uleb128 0xb
 1977 01de 3B       		.uleb128 0x3b
 1978 01df 05       		.uleb128 0x5
 1979 01e0 49       		.uleb128 0x49
 1980 01e1 13       		.uleb128 0x13
 1981 01e2 3F       		.uleb128 0x3f
 1982 01e3 19       		.uleb128 0x19
 1983 01e4 3C       		.uleb128 0x3c
 1984 01e5 19       		.uleb128 0x19
ARM GAS  /tmp/ccHqjUL9.s 			page 36


 1985 01e6 00       		.byte	0
 1986 01e7 00       		.byte	0
 1987 01e8 24       		.uleb128 0x24
 1988 01e9 34       		.uleb128 0x34
 1989 01ea 00       		.byte	0
 1990 01eb 03       		.uleb128 0x3
 1991 01ec 0E       		.uleb128 0xe
 1992 01ed 3A       		.uleb128 0x3a
 1993 01ee 0B       		.uleb128 0xb
 1994 01ef 3B       		.uleb128 0x3b
 1995 01f0 0B       		.uleb128 0xb
 1996 01f1 49       		.uleb128 0x49
 1997 01f2 13       		.uleb128 0x13
 1998 01f3 3F       		.uleb128 0x3f
 1999 01f4 19       		.uleb128 0x19
 2000 01f5 02       		.uleb128 0x2
 2001 01f6 18       		.uleb128 0x18
 2002 01f7 00       		.byte	0
 2003 01f8 00       		.byte	0
 2004 01f9 25       		.uleb128 0x25
 2005 01fa 2E       		.uleb128 0x2e
 2006 01fb 00       		.byte	0
 2007 01fc 3F       		.uleb128 0x3f
 2008 01fd 19       		.uleb128 0x19
 2009 01fe 03       		.uleb128 0x3
 2010 01ff 0E       		.uleb128 0xe
 2011 0200 3A       		.uleb128 0x3a
 2012 0201 0B       		.uleb128 0xb
 2013 0202 3B       		.uleb128 0x3b
 2014 0203 0B       		.uleb128 0xb
 2015 0204 27       		.uleb128 0x27
 2016 0205 19       		.uleb128 0x19
 2017 0206 3C       		.uleb128 0x3c
 2018 0207 19       		.uleb128 0x19
 2019 0208 00       		.byte	0
 2020 0209 00       		.byte	0
 2021 020a 26       		.uleb128 0x26
 2022 020b 2E       		.uleb128 0x2e
 2023 020c 00       		.byte	0
 2024 020d 3F       		.uleb128 0x3f
 2025 020e 19       		.uleb128 0x19
 2026 020f 03       		.uleb128 0x3
 2027 0210 0E       		.uleb128 0xe
 2028 0211 3A       		.uleb128 0x3a
 2029 0212 0B       		.uleb128 0xb
 2030 0213 3B       		.uleb128 0x3b
 2031 0214 05       		.uleb128 0x5
 2032 0215 27       		.uleb128 0x27
 2033 0216 19       		.uleb128 0x19
 2034 0217 3C       		.uleb128 0x3c
 2035 0218 19       		.uleb128 0x19
 2036 0219 00       		.byte	0
 2037 021a 00       		.byte	0
 2038 021b 00       		.byte	0
 2039              		.section	.debug_loc,"",%progbits
 2040              	.Ldebug_loc0:
 2041              	.LLST0:
ARM GAS  /tmp/ccHqjUL9.s 			page 37


 2042 0000 20000000 		.4byte	.LVL2-.Ltext0
 2043 0004 22000000 		.4byte	.LVL3-.Ltext0
 2044 0008 0100     		.2byte	0x1
 2045 000a 50       		.byte	0x50
 2046 000b 22000000 		.4byte	.LVL3-.Ltext0
 2047 000f 24000000 		.4byte	.LFE132-.Ltext0
 2048 0013 0400     		.2byte	0x4
 2049 0015 F3       		.byte	0xf3
 2050 0016 01       		.uleb128 0x1
 2051 0017 50       		.byte	0x50
 2052 0018 9F       		.byte	0x9f
 2053 0019 00000000 		.4byte	0
 2054 001d 00000000 		.4byte	0
 2055              	.LLST1:
 2056 0021 30000000 		.4byte	.LVL4-.Ltext0
 2057 0025 32000000 		.4byte	.LVL5-.Ltext0
 2058 0029 0100     		.2byte	0x1
 2059 002b 50       		.byte	0x50
 2060 002c 32000000 		.4byte	.LVL5-.Ltext0
 2061 0030 34000000 		.4byte	.LFE133-.Ltext0
 2062 0034 0400     		.2byte	0x4
 2063 0036 F3       		.byte	0xf3
 2064 0037 01       		.uleb128 0x1
 2065 0038 50       		.byte	0x50
 2066 0039 9F       		.byte	0x9f
 2067 003a 00000000 		.4byte	0
 2068 003e 00000000 		.4byte	0
 2069              	.LLST2:
 2070 0042 60000000 		.4byte	.LVL6-.Ltext0
 2071 0046 64000000 		.4byte	.LVL7-.Ltext0
 2072 004a 0100     		.2byte	0x1
 2073 004c 50       		.byte	0x50
 2074 004d 64000000 		.4byte	.LVL7-.Ltext0
 2075 0051 66000000 		.4byte	.LFE136-.Ltext0
 2076 0055 0400     		.2byte	0x4
 2077 0057 F3       		.byte	0xf3
 2078 0058 01       		.uleb128 0x1
 2079 0059 50       		.byte	0x50
 2080 005a 9F       		.byte	0x9f
 2081 005b 00000000 		.4byte	0
 2082 005f 00000000 		.4byte	0
 2083              		.section	.debug_aranges,"",%progbits
 2084 0000 1C000000 		.4byte	0x1c
 2085 0004 0200     		.2byte	0x2
 2086 0006 00000000 		.4byte	.Ldebug_info0
 2087 000a 04       		.byte	0x4
 2088 000b 00       		.byte	0
 2089 000c 0000     		.2byte	0
 2090 000e 0000     		.2byte	0
 2091 0010 00000000 		.4byte	.Ltext0
 2092 0014 82000000 		.4byte	.Letext0-.Ltext0
 2093 0018 00000000 		.4byte	0
 2094 001c 00000000 		.4byte	0
 2095              		.section	.debug_line,"",%progbits
 2096              	.Ldebug_line0:
 2097 0000 E5040000 		.section	.debug_str,"MS",%progbits,1
 2097      0200BA04 
ARM GAS  /tmp/ccHqjUL9.s 			page 38


 2097      00000201 
 2097      FB0E0D00 
 2097      01010101 
 2098              	.LASF77:
 2099 0000 426C6F63 		.ascii	"BlockDeviceInfo\000"
 2099      6B446576 
 2099      69636549 
 2099      6E666F00 
 2100              	.LASF84:
 2101 0010 73746D33 		.ascii	"stm32_gpio_setup_t\000"
 2101      325F6770 
 2101      696F5F73 
 2101      65747570 
 2101      5F7400
 2102              	.LASF56:
 2103 0023 4D304152 		.ascii	"M0AR\000"
 2103      00
 2104              	.LASF76:
 2105 0028 626C6B5F 		.ascii	"blk_num\000"
 2105      6E756D00 
 2106              	.LASF50:
 2107 0030 7264796D 		.ascii	"rdymsg\000"
 2107      736700
 2108              	.LASF109:
 2109 0037 69735F70 		.ascii	"is_protected\000"
 2109      726F7465 
 2109      63746564 
 2109      00
 2110              	.LASF5:
 2111 0044 5F5F7569 		.ascii	"__uint8_t\000"
 2111      6E74385F 
 2111      7400
 2112              	.LASF79:
 2113 004e 6F747970 		.ascii	"otyper\000"
 2113      657200
 2114              	.LASF99:
 2115 0055 63617061 		.ascii	"capacity\000"
 2115      63697479 
 2115      00
 2116              	.LASF59:
 2117 005e 73747265 		.ascii	"stream\000"
 2117      616D00
 2118              	.LASF119:
 2119 0065 5F5F6C61 		.ascii	"__late_init\000"
 2119      74655F69 
 2119      6E697400 
 2120              	.LASF92:
 2121 0071 50484461 		.ascii	"PHData\000"
 2121      746100
 2122              	.LASF11:
 2123 0078 6C6F6E67 		.ascii	"long long unsigned int\000"
 2123      206C6F6E 
 2123      6720756E 
 2123      7369676E 
 2123      65642069 
 2124              	.LASF81:
 2125 008f 70757064 		.ascii	"pupdr\000"
ARM GAS  /tmp/ccHqjUL9.s 			page 39


 2125      7200
 2126              	.LASF51:
 2127 0095 65786974 		.ascii	"exitcode\000"
 2127      636F6465 
 2127      00
 2128              	.LASF101:
 2129 009e 63617264 		.ascii	"cardmode\000"
 2129      6D6F6465 
 2129      00
 2130              	.LASF126:
 2131 00a7 49544D5F 		.ascii	"ITM_RxBuffer\000"
 2131      52784275 
 2131      66666572 
 2131      00
 2132              	.LASF74:
 2133 00b4 626C6B73 		.ascii	"blkstate_t\000"
 2133      74617465 
 2133      5F7400
 2134              	.LASF26:
 2135 00bf 705F7072 		.ascii	"p_prio\000"
 2135      696F00
 2136              	.LASF10:
 2137 00c6 6C6F6E67 		.ascii	"long long int\000"
 2137      206C6F6E 
 2137      6720696E 
 2137      7400
 2138              	.LASF1:
 2139 00d4 7369676E 		.ascii	"signed char\000"
 2139      65642063 
 2139      68617200 
 2140              	.LASF15:
 2141 00e0 626F6F6C 		.ascii	"bool_t\000"
 2141      5F7400
 2142              	.LASF47:
 2143 00e7 6D5F7175 		.ascii	"m_queue\000"
 2143      65756500 
 2144              	.LASF111:
 2145 00ef 64697363 		.ascii	"disconnect\000"
 2145      6F6E6E65 
 2145      637400
 2146              	.LASF78:
 2147 00fa 6D6F6465 		.ascii	"moder\000"
 2147      7200
 2148              	.LASF19:
 2149 0100 74736C69 		.ascii	"tslices_t\000"
 2149      6365735F 
 2149      7400
 2150              	.LASF65:
 2151 010a 424C4B5F 		.ascii	"BLK_UNINIT\000"
 2151      554E494E 
 2151      495400
 2152              	.LASF98:
 2153 0115 73746174 		.ascii	"state\000"
 2153      6500
 2154              	.LASF7:
 2155 011b 6C6F6E67 		.ascii	"long int\000"
 2155      20696E74 
ARM GAS  /tmp/ccHqjUL9.s 			page 40


 2155      00
 2156              	.LASF89:
 2157 0124 50454461 		.ascii	"PEData\000"
 2157      746100
 2158              	.LASF18:
 2159 012b 74737461 		.ascii	"tstate_t\000"
 2159      74655F74 
 2159      00
 2160              	.LASF122:
 2161 0134 5F676574 		.ascii	"_getpid\000"
 2161      70696400 
 2162              	.LASF85:
 2163 013c 50414461 		.ascii	"PAData\000"
 2163      746100
 2164              	.LASF28:
 2165 0143 705F6E65 		.ascii	"p_newer\000"
 2165      77657200 
 2166              	.LASF4:
 2167 014b 73686F72 		.ascii	"short unsigned int\000"
 2167      7420756E 
 2167      7369676E 
 2167      65642069 
 2167      6E7400
 2168              	.LASF115:
 2169 015e 6765745F 		.ascii	"get_info\000"
 2169      696E666F 
 2169      00
 2170              	.LASF66:
 2171 0167 424C4B5F 		.ascii	"BLK_STOP\000"
 2171      53544F50 
 2171      00
 2172              	.LASF8:
 2173 0170 5F5F7569 		.ascii	"__uint32_t\000"
 2173      6E743332 
 2173      5F7400
 2174              	.LASF42:
 2175 017b 72656761 		.ascii	"regarm_t\000"
 2175      726D5F74 
 2175      00
 2176              	.LASF62:
 2177 0184 73656C66 		.ascii	"selfindex\000"
 2177      696E6465 
 2177      7800
 2178              	.LASF105:
 2179 018e 64756D6D 		.ascii	"dummy\000"
 2179      7900
 2180              	.LASF23:
 2181 0194 54687265 		.ascii	"Thread\000"
 2181      616400
 2182              	.LASF129:
 2183 019b 73746D33 		.ascii	"stm32_clock_init\000"
 2183      325F636C 
 2183      6F636B5F 
 2183      696E6974 
 2183      00
 2184              	.LASF95:
 2185 01ac 7364636D 		.ascii	"sdcmode_t\000"
ARM GAS  /tmp/ccHqjUL9.s 			page 41


 2185      6F64655F 
 2185      7400
 2186              	.LASF86:
 2187 01b6 50424461 		.ascii	"PBData\000"
 2187      746100
 2188              	.LASF32:
 2189 01bd 705F666C 		.ascii	"p_flags\000"
 2189      61677300 
 2190              	.LASF0:
 2191 01c5 756E7369 		.ascii	"unsigned int\000"
 2191      676E6564 
 2191      20696E74 
 2191      00
 2192              	.LASF102:
 2193 01d2 6572726F 		.ascii	"errors\000"
 2193      727300
 2194              	.LASF35:
 2195 01d9 705F6D73 		.ascii	"p_msgqueue\000"
 2195      67717565 
 2195      756500
 2196              	.LASF80:
 2197 01e4 6F737065 		.ascii	"ospeedr\000"
 2197      65647200 
 2198              	.LASF61:
 2199 01ec 69736869 		.ascii	"ishift\000"
 2199      667400
 2200              	.LASF124:
 2201 01f3 5F5F6561 		.ascii	"__early_init\000"
 2201      726C795F 
 2201      696E6974 
 2201      00
 2202              	.LASF125:
 2203 0200 5F657869 		.ascii	"_exit\000"
 2203      7400
 2204              	.LASF90:
 2205 0206 50464461 		.ascii	"PFData\000"
 2205      746100
 2206              	.LASF67:
 2207 020d 424C4B5F 		.ascii	"BLK_ACTIVE\000"
 2207      41435449 
 2207      564500
 2208              	.LASF117:
 2209 0218 7364635F 		.ascii	"sdc_lld_is_write_protected\000"
 2209      6C6C645F 
 2209      69735F77 
 2209      72697465 
 2209      5F70726F 
 2210              	.LASF21:
 2211 0233 6D73675F 		.ascii	"msg_t\000"
 2211      7400
 2212              	.LASF68:
 2213 0239 424C4B5F 		.ascii	"BLK_CONNECTING\000"
 2213      434F4E4E 
 2213      45435449 
 2213      4E4700
 2214              	.LASF17:
 2215 0248 746D6F64 		.ascii	"tmode_t\000"
ARM GAS  /tmp/ccHqjUL9.s 			page 42


 2215      655F7400 
 2216              	.LASF41:
 2217 0250 54687265 		.ascii	"ThreadsList\000"
 2217      6164734C 
 2217      69737400 
 2218              	.LASF22:
 2219 025c 6576656E 		.ascii	"eventmask_t\000"
 2219      746D6173 
 2219      6B5F7400 
 2220              	.LASF91:
 2221 0268 50474461 		.ascii	"PGData\000"
 2221      746100
 2222              	.LASF123:
 2223 026f 5F777269 		.ascii	"_write\000"
 2223      746500
 2224              	.LASF113:
 2225 0276 77726974 		.ascii	"write\000"
 2225      6500
 2226              	.LASF71:
 2227 027c 424C4B5F 		.ascii	"BLK_READING\000"
 2227      52454144 
 2227      494E4700 
 2228              	.LASF45:
 2229 0288 73697A65 		.ascii	"sizetype\000"
 2229      74797065 
 2229      00
 2230              	.LASF46:
 2231 0291 4D757465 		.ascii	"Mutex\000"
 2231      7800
 2232              	.LASF29:
 2233 0297 705F6F6C 		.ascii	"p_older\000"
 2233      64657200 
 2234              	.LASF73:
 2235 029f 424C4B5F 		.ascii	"BLK_SYNCING\000"
 2235      53594E43 
 2235      494E4700 
 2236              	.LASF70:
 2237 02ab 424C4B5F 		.ascii	"BLK_READY\000"
 2237      52454144 
 2237      5900
 2238              	.LASF40:
 2239 02b5 54687265 		.ascii	"ThreadsQueue\000"
 2239      61647351 
 2239      75657565 
 2239      00
 2240              	.LASF83:
 2241 02c2 61667268 		.ascii	"afrh\000"
 2241      00
 2242              	.LASF88:
 2243 02c7 50444461 		.ascii	"PDData\000"
 2243      746100
 2244              	.LASF132:
 2245 02ce 2F686F6D 		.ascii	"/home/sbcu/Dropbox/pcb-layouts/axo-on-discovery-boa"
 2245      652F7362 
 2245      63752F44 
 2245      726F7062 
 2245      6F782F70 
ARM GAS  /tmp/ccHqjUL9.s 			page 43


 2246 0301 72642F61 		.ascii	"rd/axoloti/firmware\000"
 2246      786F6C6F 
 2246      74692F66 
 2246      69726D77 
 2246      61726500 
 2247              	.LASF116:
 2248 0315 7364635F 		.ascii	"sdc_lld_is_card_inserted\000"
 2248      6C6C645F 
 2248      69735F63 
 2248      6172645F 
 2248      696E7365 
 2249              	.LASF25:
 2250 032e 705F7072 		.ascii	"p_prev\000"
 2250      657600
 2251              	.LASF64:
 2252 0335 73746D33 		.ascii	"stm32_dma_stream_t\000"
 2252      325F646D 
 2252      615F7374 
 2252      7265616D 
 2252      5F7400
 2253              	.LASF20:
 2254 0348 74707269 		.ascii	"tprio_t\000"
 2254      6F5F7400 
 2255              	.LASF128:
 2256 0350 65786365 		.ascii	"exception_check_DFU\000"
 2256      7074696F 
 2256      6E5F6368 
 2256      65636B5F 
 2256      44465500 
 2257              	.LASF103:
 2258 0364 74687265 		.ascii	"thread\000"
 2258      616400
 2259              	.LASF16:
 2260 036b 5F426F6F 		.ascii	"_Bool\000"
 2260      6C00
 2261              	.LASF13:
 2262 0371 696E7433 		.ascii	"int32_t\000"
 2262      325F7400 
 2263              	.LASF2:
 2264 0379 756E7369 		.ascii	"unsigned char\000"
 2264      676E6564 
 2264      20636861 
 2264      7200
 2265              	.LASF82:
 2266 0387 6166726C 		.ascii	"afrl\000"
 2266      00
 2267              	.LASF38:
 2268 038c 705F6D74 		.ascii	"p_mtxlist\000"
 2268      786C6973 
 2268      7400
 2269              	.LASF3:
 2270 0396 73686F72 		.ascii	"short int\000"
 2270      7420696E 
 2270      7400
 2271              	.LASF31:
 2272 03a0 705F7374 		.ascii	"p_state\000"
 2272      61746500 
ARM GAS  /tmp/ccHqjUL9.s 			page 44


 2273              	.LASF72:
 2274 03a8 424C4B5F 		.ascii	"BLK_WRITING\000"
 2274      57524954 
 2274      494E4700 
 2275              	.LASF33:
 2276 03b4 705F7072 		.ascii	"p_preempt\000"
 2276      65656D70 
 2276      7400
 2277              	.LASF53:
 2278 03be 65776D61 		.ascii	"ewmask\000"
 2278      736B00
 2279              	.LASF24:
 2280 03c5 705F6E65 		.ascii	"p_next\000"
 2280      787400
 2281              	.LASF107:
 2282 03cc 53444344 		.ascii	"SDCDriverVMT\000"
 2282      72697665 
 2282      72564D54 
 2282      00
 2283              	.LASF93:
 2284 03d9 50494461 		.ascii	"PIData\000"
 2284      746100
 2285              	.LASF110:
 2286 03e0 636F6E6E 		.ascii	"connect\000"
 2286      65637400 
 2287              	.LASF37:
 2288 03e8 705F6570 		.ascii	"p_epending\000"
 2288      656E6469 
 2288      6E6700
 2289              	.LASF60:
 2290 03f3 69666372 		.ascii	"ifcr\000"
 2290      00
 2291              	.LASF14:
 2292 03f8 75696E74 		.ascii	"uint32_t\000"
 2292      33325F74 
 2292      00
 2293              	.LASF9:
 2294 0401 6C6F6E67 		.ascii	"long unsigned int\000"
 2294      20756E73 
 2294      69676E65 
 2294      6420696E 
 2294      7400
 2295              	.LASF112:
 2296 0413 72656164 		.ascii	"read\000"
 2296      00
 2297              	.LASF54:
 2298 0418 63686172 		.ascii	"char\000"
 2298      00
 2299              	.LASF131:
 2300 041d 626F6172 		.ascii	"board.c\000"
 2300      642E6300 
 2301              	.LASF69:
 2302 0425 424C4B5F 		.ascii	"BLK_DISCONNECTING\000"
 2302      44495343 
 2302      4F4E4E45 
 2302      4354494E 
 2302      4700
ARM GAS  /tmp/ccHqjUL9.s 			page 45


 2303              	.LASF100:
 2304 0437 636F6E66 		.ascii	"config\000"
 2304      696700
 2305              	.LASF118:
 2306 043e 73646370 		.ascii	"sdcp\000"
 2306      00
 2307              	.LASF49:
 2308 0443 6D5F6E65 		.ascii	"m_next\000"
 2308      787400
 2309              	.LASF75:
 2310 044a 626C6B5F 		.ascii	"blk_size\000"
 2310      73697A65 
 2310      00
 2311              	.LASF39:
 2312 0453 705F7265 		.ascii	"p_realprio\000"
 2312      616C7072 
 2312      696F00
 2313              	.LASF6:
 2314 045e 5F5F696E 		.ascii	"__int32_t\000"
 2314      7433325F 
 2314      7400
 2315              	.LASF55:
 2316 0468 4E445452 		.ascii	"NDTR\000"
 2316      00
 2317              	.LASF58:
 2318 046d 444D415F 		.ascii	"DMA_Stream_TypeDef\000"
 2318      53747265 
 2318      616D5F54 
 2318      79706544 
 2318      656600
 2319              	.LASF121:
 2320 0480 5F6B696C 		.ascii	"_kill\000"
 2320      6C00
 2321              	.LASF44:
 2322 0486 636F6E74 		.ascii	"context\000"
 2322      65787400 
 2323              	.LASF96:
 2324 048e 73646366 		.ascii	"sdcflags_t\000"
 2324      6C616773 
 2324      5F7400
 2325              	.LASF43:
 2326 0499 696E7463 		.ascii	"intctx\000"
 2326      747800
 2327              	.LASF108:
 2328 04a0 69735F69 		.ascii	"is_inserted\000"
 2328      6E736572 
 2328      74656400 
 2329              	.LASF57:
 2330 04ac 4D314152 		.ascii	"M1AR\000"
 2330      00
 2331              	.LASF30:
 2332 04b1 705F6E61 		.ascii	"p_name\000"
 2332      6D6500
 2333              	.LASF106:
 2334 04b8 53444343 		.ascii	"SDCConfig\000"
 2334      6F6E6669 
 2334      6700
ARM GAS  /tmp/ccHqjUL9.s 			page 46


 2335              	.LASF120:
 2336 04c2 626F6172 		.ascii	"boardInit\000"
 2336      64496E69 
 2336      7400
 2337              	.LASF12:
 2338 04cc 75696E74 		.ascii	"uint8_t\000"
 2338      385F7400 
 2339              	.LASF114:
 2340 04d4 73796E63 		.ascii	"sync\000"
 2340      00
 2341              	.LASF104:
 2342 04d9 646D616D 		.ascii	"dmamode\000"
 2342      6F646500 
 2343              	.LASF52:
 2344 04e1 77746F62 		.ascii	"wtobjp\000"
 2344      6A7000
 2345              	.LASF130:
 2346 04e8 474E5520 		.ascii	"GNU C 4.9.3 20150529 (release) [ARM/embedded-4_9-br"
 2346      4320342E 
 2346      392E3320 
 2346      32303135 
 2346      30353239 
 2347 051b 616E6368 		.ascii	"anch revision 224288] -mcpu=cortex-m4 -mfloat-abi=h"
 2347      20726576 
 2347      6973696F 
 2347      6E203232 
 2347      34323838 
 2348 054e 61726420 		.ascii	"ard -mfpu=fpv4-sp-d16 -mno-thumb-interwork -mthumb "
 2348      2D6D6670 
 2348      753D6670 
 2348      76342D73 
 2348      702D6431 
 2349 0581 2D676764 		.ascii	"-ggdb -O2 -fomit-frame-pointer -falign-functions=16"
 2349      62202D4F 
 2349      32202D66 
 2349      6F6D6974 
 2349      2D667261 
 2350 05b4 202D666E 		.ascii	" -fno-math-errno -fsingle-precision-constant\000"
 2350      6F2D6D61 
 2350      74682D65 
 2350      72726E6F 
 2350      202D6673 
 2351              	.LASF87:
 2352 05e1 50434461 		.ascii	"PCData\000"
 2352      746100
 2353              	.LASF36:
 2354 05e8 705F6D73 		.ascii	"p_msg\000"
 2354      6700
 2355              	.LASF63:
 2356 05ee 76656374 		.ascii	"vector\000"
 2356      6F7200
 2357              	.LASF94:
 2358 05f5 50414C43 		.ascii	"PALConfig\000"
 2358      6F6E6669 
 2358      6700
 2359              	.LASF48:
 2360 05ff 6D5F6F77 		.ascii	"m_owner\000"
ARM GAS  /tmp/ccHqjUL9.s 			page 47


 2360      6E657200 
 2361              	.LASF97:
 2362 0607 53444344 		.ascii	"SDCDriver\000"
 2362      72697665 
 2362      7200
 2363              	.LASF127:
 2364 0611 70616C5F 		.ascii	"pal_default_config\000"
 2364      64656661 
 2364      756C745F 
 2364      636F6E66 
 2364      696700
 2365              	.LASF27:
 2366 0624 705F6374 		.ascii	"p_ctx\000"
 2366      7800
 2367              	.LASF34:
 2368 062a 705F7761 		.ascii	"p_waiting\000"
 2368      6974696E 
 2368      6700
 2369              		.ident	"GCC: (GNU Tools for ARM Embedded Processors) 4.9.3 20150529 (release) [ARM/embedded-4_9-br
ARM GAS  /tmp/ccHqjUL9.s 			page 48


DEFINED SYMBOLS
                            *ABS*:00000000 board.c
     /tmp/ccHqjUL9.s:20     .text:00000000 $t
     /tmp/ccHqjUL9.s:26     .text:00000000 __early_init
     /tmp/ccHqjUL9.s:57     .text:00000010 __late_init
     /tmp/ccHqjUL9.s:74     .text:00000020 sdc_lld_is_card_inserted
     /tmp/ccHqjUL9.s:95     .text:00000030 sdc_lld_is_write_protected
     /tmp/ccHqjUL9.s:116    .text:00000040 boardInit
     /tmp/ccHqjUL9.s:133    .text:00000050 _getpid
     /tmp/ccHqjUL9.s:152    .text:00000060 _kill
     /tmp/ccHqjUL9.s:173    .text:00000070 _write
     /tmp/ccHqjUL9.s:192    .text:00000080 _exit
     /tmp/ccHqjUL9.s:212    .rodata:00000000 pal_default_config
     /tmp/ccHqjUL9.s:209    .rodata:00000000 $d
                     .debug_frame:00000010 $d

UNDEFINED SYMBOLS
exception_check_DFU
stm32_clock_init
