ARM GAS  /tmp/ccHqjUL9.s 			page 1


   1              		.syntax unified
   2              		.cpu cortex-m4
   3              		.eabi_attribute 27, 1
   4              		.eabi_attribute 28, 1
   5              		.fpu fpv4-sp-d16
   6              		.eabi_attribute 20, 1
   7              		.eabi_attribute 21, 1
   8              		.eabi_attribute 23, 3
   9              		.eabi_attribute 24, 1
  10              		.eabi_attribute 25, 1
  11              		.eabi_attribute 26, 1
  12              		.eabi_attribute 30, 2
  13              		.eabi_attribute 34, 1
  14              		.eabi_attribute 18, 4
  15              		.thumb
  16              		.file	"board.c"
  17              		.text
  18              	.Ltext0:
  19              		.cfi_sections	.debug_frame
  20              		.align	2
  21              		.p2align 4,,15
  22              		.global	__early_init
  23              		.thumb
  24              		.thumb_func
  25              		.type	__early_init, %function
  26              	__early_init:
  27              	.LFB130:
  28              		.file 1 "board.c"
  29              		.loc 1 71 0
  30              		.cfi_startproc
  31              		@ args = 0, pretend = 0, frame = 0
  32              		@ frame_needed = 0, uses_anonymous_args = 0
  33 0000 08B5     		push	{r3, lr}
  34              		.cfi_def_cfa_offset 8
  35              		.cfi_offset 3, -8
  36              		.cfi_offset 14, -4
  37              		.loc 1 72 0
  38 0002 FFF7FEFF 		bl	exception_check_DFU
  39              	.LVL0:
  40              		.loc 1 74 0
  41 0006 BDE80840 		pop	{r3, lr}
  42              		.cfi_restore 14
  43              		.cfi_restore 3
  44              		.cfi_def_cfa_offset 0
  45              		.loc 1 73 0
  46 000a FFF7FEBF 		b	stm32_clock_init
  47              	.LVL1:
  48              		.cfi_endproc
  49              	.LFE130:
  50              		.size	__early_init, .-__early_init
  51 000e 00BF     		.align	2
  52              		.p2align 4,,15
  53              		.global	__late_init
  54              		.thumb
  55              		.thumb_func
  56              		.type	__late_init, %function
  57              	__late_init:
ARM GAS  /tmp/ccHqjUL9.s 			page 2


  58              	.LFB131:
  59              		.loc 1 76 0
  60              		.cfi_startproc
  61              		@ args = 0, pretend = 0, frame = 0
  62              		@ frame_needed = 0, uses_anonymous_args = 0
  63              		@ link register save eliminated.
  64 0010 7047     		bx	lr
  65              		.cfi_endproc
  66              	.LFE131:
  67              		.size	__late_init, .-__late_init
  68 0012 00BF     		.align	2
  69 0014 AFF30080 		.p2align 4,,15
  69      AFF30080 
  69      AFF30080 
  70              		.global	sdc_lld_is_card_inserted
  71              		.thumb
  72              		.thumb_func
  73              		.type	sdc_lld_is_card_inserted, %function
  74              	sdc_lld_is_card_inserted:
  75              	.LFB132:
  76              		.loc 1 83 0
  77              		.cfi_startproc
  78              		@ args = 0, pretend = 0, frame = 0
  79              		@ frame_needed = 0, uses_anonymous_args = 0
  80              		@ link register save eliminated.
  81              	.LVL2:
  82              		.loc 1 88 0
  83 0020 0120     		movs	r0, #1
  84              	.LVL3:
  85 0022 7047     		bx	lr
  86              		.cfi_endproc
  87              	.LFE132:
  88              		.size	sdc_lld_is_card_inserted, .-sdc_lld_is_card_inserted
  89              		.align	2
  90 0024 AFF30080 		.p2align 4,,15
  90      AFF30080 
  90      AFF30080 
  91              		.global	sdc_lld_is_write_protected
  92              		.thumb
  93              		.thumb_func
  94              		.type	sdc_lld_is_write_protected, %function
  95              	sdc_lld_is_write_protected:
  96              	.LFB133:
  97              		.loc 1 93 0
  98              		.cfi_startproc
  99              		@ args = 0, pretend = 0, frame = 0
 100              		@ frame_needed = 0, uses_anonymous_args = 0
 101              		@ link register save eliminated.
 102              	.LVL4:
 103              		.loc 1 98 0
 104 0030 0020     		movs	r0, #0
 105              	.LVL5:
 106 0032 7047     		bx	lr
 107              		.cfi_endproc
 108              	.LFE133:
 109              		.size	sdc_lld_is_write_protected, .-sdc_lld_is_write_protected
 110              		.align	2
ARM GAS  /tmp/ccHqjUL9.s 			page 3


 111 0034 AFF30080 		.p2align 4,,15
 111      AFF30080 
 111      AFF30080 
 112              		.global	boardInit
 113              		.thumb
 114              		.thumb_func
 115              		.type	boardInit, %function
 116              	boardInit:
 117              	.LFB134:
 118              		.loc 1 105 0
 119              		.cfi_startproc
 120              		@ args = 0, pretend = 0, frame = 0
 121              		@ frame_needed = 0, uses_anonymous_args = 0
 122              		@ link register save eliminated.
 123 0040 7047     		bx	lr
 124              		.cfi_endproc
 125              	.LFE134:
 126              		.size	boardInit, .-boardInit
 127 0042 00BF     		.align	2
 128 0044 AFF30080 		.p2align 4,,15
 128      AFF30080 
 128      AFF30080 
 129              		.global	_getpid
 130              		.thumb
 131              		.thumb_func
 132              		.type	_getpid, %function
 133              	_getpid:
 134              	.LFB135:
 135              		.loc 1 108 0
 136              		.cfi_startproc
 137              		@ args = 0, pretend = 0, frame = 0
 138              		@ frame_needed = 0, uses_anonymous_args = 0
 139              		@ link register save eliminated.
 140              		.loc 1 108 0
 141 0050 4FF0FF30 		mov	r0, #-1
 142 0054 7047     		bx	lr
 143              		.cfi_endproc
 144              	.LFE135:
 145              		.size	_getpid, .-_getpid
 146 0056 00BF     		.align	2
 147 0058 AFF30080 		.p2align 4,,15
 147      AFF30080 
 148              		.global	_kill
 149              		.thumb
 150              		.thumb_func
 151              		.type	_kill, %function
 152              	_kill:
 153              	.LFB136:
 154              		.loc 1 109 0
 155              		.cfi_startproc
 156              		@ args = 0, pretend = 0, frame = 0
 157              		@ frame_needed = 0, uses_anonymous_args = 0
 158              		@ link register save eliminated.
 159              	.LVL6:
 160              		.loc 1 109 0
 161 0060 4FF0FF30 		mov	r0, #-1
 162              	.LVL7:
ARM GAS  /tmp/ccHqjUL9.s 			page 4


 163 0064 7047     		bx	lr
 164              		.cfi_endproc
 165              	.LFE136:
 166              		.size	_kill, .-_kill
 167 0066 00BF     		.align	2
 168 0068 AFF30080 		.p2align 4,,15
 168      AFF30080 
 169              		.global	_write
 170              		.thumb
 171              		.thumb_func
 172              		.type	_write, %function
 173              	_write:
 174              	.LFB137:
 175              		.loc 1 110 0
 176              		.cfi_startproc
 177              		@ args = 0, pretend = 0, frame = 0
 178              		@ frame_needed = 0, uses_anonymous_args = 0
 179              		@ link register save eliminated.
 180              		.loc 1 110 0
 181 0070 4FF0FF30 		mov	r0, #-1
 182 0074 7047     		bx	lr
 183              		.cfi_endproc
 184              	.LFE137:
 185              		.size	_write, .-_write
 186 0076 00BF     		.align	2
 187 0078 AFF30080 		.p2align 4,,15
 187      AFF30080 
 188              		.global	_exit
 189              		.thumb
 190              		.thumb_func
 191              		.type	_exit, %function
 192              	_exit:
 193              	.LFB138:
 194              		.loc 1 111 0
 195              		.cfi_startproc
 196              		@ Volatile: function does not return.
 197              		@ args = 0, pretend = 0, frame = 0
 198              		@ frame_needed = 0, uses_anonymous_args = 0
 199              		@ link register save eliminated.
 200              	.LVL8:
 201              	.L11:
 202              		.loc 1 111 0 discriminator 1
 203 0080 FEE7     		b	.L11
 204              		.cfi_endproc
 205              	.LFE138:
 206              		.size	_exit, .-_exit
 207              		.global	pal_default_config
 208              		.section	.rodata
 209              		.align	2
 210              		.type	pal_default_config, %object
 211              		.size	pal_default_config, 252
 212              	pal_default_config:
 213 0000 00AAA02A 		.word	715172352
 214 0004 00000000 		.word	0
 215 0008 FFABFFFF 		.word	-21505
 216 000c 54000140 		.word	1073807444
 217 0010 FFFF0000 		.word	65535
ARM GAS  /tmp/ccHqjUL9.s 			page 5


 218 0014 00005655 		.word	1431699456
 219 0018 00AA0A00 		.word	698880
 220 001c 80280800 		.word	534656
 221 0020 00020000 		.word	512
 222 0024 FFFFFFFF 		.word	-1
 223 0028 15415155 		.word	1431388437
 224 002c FFFF0000 		.word	65535
 225 0030 0000C00C 		.word	213909504
 226 0034 40000000 		.word	64
 227 0038 A2802002 		.word	35684514
 228 003c 00000000 		.word	0
 229 0040 FFFFFFFF 		.word	-1
 230 0044 54154554 		.word	1413813588
 231 0048 FFFF0000 		.word	65535
 232 004c 0CCC0060 		.word	1610664972
 233 0050 00060600 		.word	394752
 234 0054 0A012AA5 		.word	-1523973878
 235 0058 00000000 		.word	0
 236 005c FFFFFFFF 		.word	-1
 237 0060 55505500 		.word	5591125
 238 0064 FFCF0000 		.word	53247
 239 0068 CC000000 		.word	204
 240 006c CC0C00CC 		.word	-872411956
 241 0070 4A80AAAA 		.word	-1431666614
 242 0074 00000000 		.word	0
 243 0078 FFFFFFFF 		.word	-1
 244 007c 00000000 		.word	0
 245 0080 FFFF0000 		.word	65535
 246 0084 CC0000C0 		.word	-1073741620
 247 0088 CCCCCCCC 		.word	-858993460
 248 008c AA0AB0AA 		.word	-1431303510
 249 0090 00000000 		.word	0
 250 0094 FFFFFFFF 		.word	-1
 251 0098 00000000 		.word	0
 252 009c FFFF0000 		.word	65535
 253 00a0 CCCCCC00 		.word	13421772
 254 00a4 00C0CCCC 		.word	-858996736
 255 00a8 2A0A0280 		.word	-2147349974
 256 00ac 00000000 		.word	0
 257 00b0 FFFFFFFF 		.word	-1
 258 00b4 00000004 		.word	67108864
 259 00b8 FFFF0000 		.word	65535
 260 00bc CC0CCC00 		.word	13372620
 261 00c0 0C0000C0 		.word	-1073741812
 262 00c4 A0A80000 		.word	43168
 263 00c8 00000000 		.word	0
 264 00cc FFFFFFFF 		.word	-1
 265 00d0 00000000 		.word	0
 266 00d4 FFFF0000 		.word	65535
 267 00d8 00CCC0CC 		.word	-859780096
 268 00dc 00000000 		.word	0
 269 00e0 00000000 		.word	0
 270 00e4 00000000 		.word	0
 271 00e8 FFFFFFFF 		.word	-1
 272 00ec 00000000 		.word	0
 273 00f0 FFFF0000 		.word	65535
 274 00f4 00000000 		.word	0
ARM GAS  /tmp/ccHqjUL9.s 			page 6


 275 00f8 00000000 		.word	0
 276              		.text
 277              	.Letext0:
 278              		.file 2 "/home/sbcu/Dropbox/pcb-layouts/axo-on-discovery-board/axoloti/platform_linux/arm-none-eab
 279              		.file 3 "/home/sbcu/Dropbox/pcb-layouts/axo-on-discovery-board/axoloti/platform_linux/arm-none-eab
 280              		.file 4 "/home/sbcu/Dropbox/pcb-layouts/axo-on-discovery-board/axoloti/platform_linux/../chibios/o
 281              		.file 5 "/home/sbcu/Dropbox/pcb-layouts/axo-on-discovery-board/axoloti/platform_linux/../chibios/o
 282              		.file 6 "/home/sbcu/Dropbox/pcb-layouts/axo-on-discovery-board/axoloti/platform_linux/../chibios/o
 283              		.file 7 "/home/sbcu/Dropbox/pcb-layouts/axo-on-discovery-board/axoloti/platform_linux/../chibios/o
 284              		.file 8 "/home/sbcu/Dropbox/pcb-layouts/axo-on-discovery-board/axoloti/platform_linux/../chibios/o
 285              		.file 9 "/home/sbcu/Dropbox/pcb-layouts/axo-on-discovery-board/axoloti/platform_linux/../chibios/o
 286              		.file 10 "/home/sbcu/Dropbox/pcb-layouts/axo-on-discovery-board/axoloti/platform_linux/../chibios/
 287              		.file 11 "/home/sbcu/Dropbox/pcb-layouts/axo-on-discovery-board/axoloti/platform_linux/../chibios/
 288              		.file 12 "/home/sbcu/Dropbox/pcb-layouts/axo-on-discovery-board/axoloti/platform_linux/../chibios/
 289              		.file 13 "/home/sbcu/Dropbox/pcb-layouts/axo-on-discovery-board/axoloti/platform_linux/../chibios/
 290              		.file 14 "/home/sbcu/Dropbox/pcb-layouts/axo-on-discovery-board/axoloti/platform_linux/../CMSIS//I
 291              		.file 15 "exceptions.h"
 292              		.file 16 "/home/sbcu/Dropbox/pcb-layouts/axo-on-discovery-board/axoloti/platform_linux/../chibios/