ARM GAS  /tmp/ccprLvTD.s 			page 1


   1              		.syntax unified
   2              		.cpu cortex-m4
   3              		.eabi_attribute 27, 1
   4              		.eabi_attribute 28, 1
   5              		.fpu fpv4-sp-d16
   6              		.eabi_attribute 20, 1
   7              		.eabi_attribute 21, 1
   8              		.eabi_attribute 23, 3
   9              		.eabi_attribute 24, 1
  10              		.eabi_attribute 25, 1
  11              		.eabi_attribute 26, 1
  12              		.eabi_attribute 30, 2
  13              		.eabi_attribute 34, 1
  14              		.eabi_attribute 18, 4
  15              		.thumb
  16              		.file	"bulk_usb.c"
  17              		.text
  18              	.Ltext0:
  19              		.cfi_sections	.debug_frame
  20              		.align	2
  21              		.p2align 4,,15
  22              		.thumb
  23              		.thumb_func
  24              		.type	onotify, %function
  25              	onotify:
  26              	.LFB139:
  27              		.file 1 "bulk_usb.c"
  28              		.loc 1 136 0
  29              		.cfi_startproc
  30              		@ args = 0, pretend = 0, frame = 0
  31              		@ frame_needed = 0, uses_anonymous_args = 0
  32              	.LVL0:
  33 0000 10B5     		push	{r4, lr}
  34              		.cfi_def_cfa_offset 8
  35              		.cfi_offset 4, -8
  36              		.cfi_offset 14, -4
  37              		.loc 1 138 0
  38 0002 046A     		ldr	r4, [r0, #32]
  39              	.LVL1:
  40              		.loc 1 142 0
  41 0004 D4F85422 		ldr	r2, [r4, #596]
  42 0008 1368     		ldr	r3, [r2]
  43 000a 1978     		ldrb	r1, [r3]	@ zero_extendqisi2
  44 000c 0429     		cmp	r1, #4
  45 000e 00D0     		beq	.L8
  46              	.LVL2:
  47              	.L1:
  48 0010 10BD     		pop	{r4, pc}
  49              	.LVL3:
  50              	.L8:
  51              		.loc 1 142 0 is_stmt 0 discriminator 1
  52 0012 217A     		ldrb	r1, [r4, #8]	@ zero_extendqisi2
  53 0014 0229     		cmp	r1, #2
  54 0016 FBD1     		bne	.L1
  55              		.loc 1 148 0 is_stmt 1
  56 0018 1B89     		ldrh	r3, [r3, #8]
  57 001a 1279     		ldrb	r2, [r2, #4]	@ zero_extendqisi2
ARM GAS  /tmp/ccprLvTD.s 			page 2


  58 001c 1341     		asrs	r3, r3, r2
  59 001e 13F00103 		ands	r3, r3, #1
  60 0022 F5D1     		bne	.L1
  61              		.loc 1 149 0 discriminator 1
  62 0024 216C     		ldr	r1, [r4, #64]
  63 0026 E26B     		ldr	r2, [r4, #60]
  64 0028 A06B     		ldr	r0, [r4, #56]
  65              	.LVL4:
  66 002a 8A1A     		subs	r2, r1, r2
  67              	.LVL5:
  68              		.loc 1 148 0 discriminator 1
  69 002c 121A     		subs	r2, r2, r0
  70              	.LVL6:
  71 002e EFD0     		beq	.L1
  72              	.LBB2:
  73              		.loc 1 150 0
  74              	@ 150 "bulk_usb.c" 1
  75 0030 83F31188 		msr     BASEPRI, r3
  76              	@ 0 "" 2
  77              		.thumb
  78              	.LBE2:
  79              		.loc 1 152 0
  80 0034 D4F85412 		ldr	r1, [r4, #596]
  81 0038 1346     		mov	r3, r2
  82 003a 0868     		ldr	r0, [r1]
  83 003c 0979     		ldrb	r1, [r1, #4]	@ zero_extendqisi2
  84 003e 04F13002 		add	r2, r4, #48
  85              	.LVL7:
  86 0042 FFF7FEFF 		bl	usbPrepareQueuedTransmit
  87              	.LVL8:
  88              	.LBB3:
  89              		.loc 1 156 0
  90 0046 2023     		movs	r3, #32
  91              	@ 156 "bulk_usb.c" 1
  92 0048 83F31188 		msr     BASEPRI, r3
  93              	@ 0 "" 2
  94              		.thumb
  95              	.LBE3:
  96              		.loc 1 157 0
  97 004c D4F85432 		ldr	r3, [r4, #596]
  98              		.loc 1 159 0
  99 0050 BDE81040 		pop	{r4, lr}
 100              		.cfi_restore 14
 101              		.cfi_restore 4
 102              		.cfi_def_cfa_offset 0
 103              	.LVL9:
 104              		.loc 1 157 0
 105 0054 1868     		ldr	r0, [r3]
 106 0056 1979     		ldrb	r1, [r3, #4]	@ zero_extendqisi2
 107 0058 FFF7FEBF 		b	usbStartTransmitI
 108              	.LVL10:
 109              		.cfi_endproc
 110              	.LFE139:
 111              		.size	onotify, .-onotify
 112              		.align	2
 113 005c AFF30080 		.p2align 4,,15
 114              		.thumb
ARM GAS  /tmp/ccprLvTD.s 			page 3


 115              		.thumb_func
 116              		.type	inotify, %function
 117              	inotify:
 118              	.LFB138:
 119              		.loc 1 105 0
 120              		.cfi_startproc
 121              		@ args = 0, pretend = 0, frame = 0
 122              		@ frame_needed = 0, uses_anonymous_args = 0
 123              	.LVL11:
 124 0060 38B5     		push	{r3, r4, r5, lr}
 125              		.cfi_def_cfa_offset 16
 126              		.cfi_offset 3, -16
 127              		.cfi_offset 4, -12
 128              		.cfi_offset 5, -8
 129              		.cfi_offset 14, -4
 130              		.loc 1 107 0
 131 0062 046A     		ldr	r4, [r0, #32]
 132              	.LVL12:
 133              		.loc 1 111 0
 134 0064 D4F85432 		ldr	r3, [r4, #596]
 135 0068 1A68     		ldr	r2, [r3]
 136 006a 1178     		ldrb	r1, [r2]	@ zero_extendqisi2
 137 006c 0429     		cmp	r1, #4
 138 006e 00D0     		beq	.L12
 139              	.LVL13:
 140              	.L9:
 141 0070 38BD     		pop	{r3, r4, r5, pc}
 142              	.LVL14:
 143              	.L12:
 144              		.loc 1 111 0 is_stmt 0 discriminator 1
 145 0072 217A     		ldrb	r1, [r4, #8]	@ zero_extendqisi2
 146 0074 0229     		cmp	r1, #2
 147 0076 FBD1     		bne	.L9
 148              		.loc 1 118 0 is_stmt 1
 149 0078 5979     		ldrb	r1, [r3, #5]	@ zero_extendqisi2
 150              		.loc 1 119 0
 151 007a 5389     		ldrh	r3, [r2, #10]
 152              		.loc 1 118 0
 153 007c 02EB8102 		add	r2, r2, r1, lsl #2
 154              		.loc 1 119 0
 155 0080 0B41     		asrs	r3, r3, r1
 156              		.loc 1 118 0
 157 0082 D268     		ldr	r2, [r2, #12]
 158              		.loc 1 119 0
 159 0084 13F00103 		ands	r3, r3, #1
 160              		.loc 1 118 0
 161 0088 558A     		ldrh	r5, [r2, #18]
 162              	.LVL15:
 163              		.loc 1 119 0
 164 008a F1D1     		bne	.L9
 165              		.loc 1 120 0 discriminator 1
 166 008c A269     		ldr	r2, [r4, #24]
 167 008e E169     		ldr	r1, [r4, #28]
 168 0090 6069     		ldr	r0, [r4, #20]
 169              	.LVL16:
 170 0092 891A     		subs	r1, r1, r2
 171 0094 0A1A     		subs	r2, r1, r0
ARM GAS  /tmp/ccprLvTD.s 			page 4


 172              	.LVL17:
 173              		.loc 1 119 0 discriminator 1
 174 0096 9542     		cmp	r5, r2
 175 0098 EAD8     		bhi	.L9
 176              	.LBB4:
 177              		.loc 1 121 0
 178              	@ 121 "bulk_usb.c" 1
 179 009a 83F31188 		msr     BASEPRI, r3
 180              	@ 0 "" 2
 181              		.thumb
 182              	.LBE4:
 183              		.loc 1 123 0
 184 009e B2FBF5F3 		udiv	r3, r2, r5
 185              	.LVL18:
 186              		.loc 1 124 0
 187 00a2 D4F85412 		ldr	r1, [r4, #596]
 188 00a6 05FB03F3 		mul	r3, r5, r3
 189              	.LVL19:
 190 00aa 0868     		ldr	r0, [r1]
 191 00ac 4979     		ldrb	r1, [r1, #5]	@ zero_extendqisi2
 192 00ae 04F10C02 		add	r2, r4, #12
 193 00b2 FFF7FEFF 		bl	usbPrepareQueuedReceive
 194              	.LVL20:
 195              	.LBB5:
 196              		.loc 1 128 0
 197 00b6 2023     		movs	r3, #32
 198              	@ 128 "bulk_usb.c" 1
 199 00b8 83F31188 		msr     BASEPRI, r3
 200              	@ 0 "" 2
 201              		.thumb
 202              	.LBE5:
 203              		.loc 1 129 0
 204 00bc D4F85432 		ldr	r3, [r4, #596]
 205 00c0 1868     		ldr	r0, [r3]
 206 00c2 5979     		ldrb	r1, [r3, #5]	@ zero_extendqisi2
 207              		.loc 1 131 0
 208 00c4 BDE83840 		pop	{r3, r4, r5, lr}
 209              		.cfi_restore 14
 210              		.cfi_restore 5
 211              		.cfi_restore 4
 212              		.cfi_restore 3
 213              		.cfi_def_cfa_offset 0
 214              	.LVL21:
 215              		.loc 1 129 0
 216 00c8 FFF7FEBF 		b	usbStartReceiveI
 217              	.LVL22:
 218              		.cfi_endproc
 219              	.LFE138:
 220              		.size	inotify, .-inotify
 221              		.align	2
 222 00cc AFF30080 		.p2align 4,,15
 223              		.thumb
 224              		.thumb_func
 225              		.type	readt, %function
 226              	readt:
 227              	.LFB137:
 228              		.loc 1 92 0
ARM GAS  /tmp/ccprLvTD.s 			page 5


 229              		.cfi_startproc
 230              		@ args = 0, pretend = 0, frame = 0
 231              		@ frame_needed = 0, uses_anonymous_args = 0
 232              		@ link register save eliminated.
 233              	.LVL23:
 234              		.loc 1 94 0
 235 00d0 0C30     		adds	r0, r0, #12
 236              	.LVL24:
 237 00d2 FFF7FEBF 		b	chIQReadTimeout
 238              	.LVL25:
 239              		.cfi_endproc
 240              	.LFE137:
 241              		.size	readt, .-readt
 242 00d6 00BF     		.align	2
 243 00d8 AFF30080 		.p2align 4,,15
 243      AFF30080 
 244              		.thumb
 245              		.thumb_func
 246              		.type	read, %function
 247              	read:
 248              	.LFB131:
 249              		.loc 1 61 0
 250              		.cfi_startproc
 251              		@ args = 0, pretend = 0, frame = 0
 252              		@ frame_needed = 0, uses_anonymous_args = 0
 253              		@ link register save eliminated.
 254              	.LVL26:
 255              		.loc 1 63 0
 256 00e0 0C30     		adds	r0, r0, #12
 257              	.LVL27:
 258 00e2 4FF0FF33 		mov	r3, #-1
 259 00e6 FFF7FEBF 		b	chIQReadTimeout
 260              	.LVL28:
 261              		.cfi_endproc
 262              	.LFE131:
 263              		.size	read, .-read
 264 00ea 00BF     		.align	2
 265 00ec AFF30080 		.p2align 4,,15
 266              		.thumb
 267              		.thumb_func
 268              		.type	writet, %function
 269              	writet:
 270              	.LFB136:
 271              		.loc 1 87 0
 272              		.cfi_startproc
 273              		@ args = 0, pretend = 0, frame = 0
 274              		@ frame_needed = 0, uses_anonymous_args = 0
 275              		@ link register save eliminated.
 276              	.LVL29:
 277              		.loc 1 89 0
 278 00f0 3030     		adds	r0, r0, #48
 279              	.LVL30:
 280 00f2 FFF7FEBF 		b	chOQWriteTimeout
 281              	.LVL31:
 282              		.cfi_endproc
 283              	.LFE136:
 284              		.size	writet, .-writet
ARM GAS  /tmp/ccprLvTD.s 			page 6


 285 00f6 00BF     		.align	2
 286 00f8 AFF30080 		.p2align 4,,15
 286      AFF30080 
 287              		.thumb
 288              		.thumb_func
 289              		.type	write, %function
 290              	write:
 291              	.LFB130:
 292              		.loc 1 55 0
 293              		.cfi_startproc
 294              		@ args = 0, pretend = 0, frame = 0
 295              		@ frame_needed = 0, uses_anonymous_args = 0
 296              		@ link register save eliminated.
 297              	.LVL32:
 298              		.loc 1 57 0
 299 0100 3030     		adds	r0, r0, #48
 300              	.LVL33:
 301 0102 4FF0FF33 		mov	r3, #-1
 302 0106 FFF7FEBF 		b	chOQWriteTimeout
 303              	.LVL34:
 304              		.cfi_endproc
 305              	.LFE130:
 306              		.size	write, .-write
 307 010a 00BF     		.align	2
 308 010c AFF30080 		.p2align 4,,15
 309              		.thumb
 310              		.thumb_func
 311              		.type	gett, %function
 312              	gett:
 313              	.LFB135:
 314              		.loc 1 82 0
 315              		.cfi_startproc
 316              		@ args = 0, pretend = 0, frame = 0
 317              		@ frame_needed = 0, uses_anonymous_args = 0
 318              		@ link register save eliminated.
 319              	.LVL35:
 320              		.loc 1 84 0
 321 0110 0C30     		adds	r0, r0, #12
 322              	.LVL36:
 323 0112 FFF7FEBF 		b	chIQGetTimeout
 324              	.LVL37:
 325              		.cfi_endproc
 326              	.LFE135:
 327              		.size	gett, .-gett
 328 0116 00BF     		.align	2
 329 0118 AFF30080 		.p2align 4,,15
 329      AFF30080 
 330              		.thumb
 331              		.thumb_func
 332              		.type	get, %function
 333              	get:
 334              	.LFB133:
 335              		.loc 1 72 0
 336              		.cfi_startproc
 337              		@ args = 0, pretend = 0, frame = 0
 338              		@ frame_needed = 0, uses_anonymous_args = 0
 339              		@ link register save eliminated.
ARM GAS  /tmp/ccprLvTD.s 			page 7


 340              	.LVL38:
 341              		.loc 1 74 0
 342 0120 0C30     		adds	r0, r0, #12
 343              	.LVL39:
 344 0122 4FF0FF31 		mov	r1, #-1
 345 0126 FFF7FEBF 		b	chIQGetTimeout
 346              	.LVL40:
 347              		.cfi_endproc
 348              	.LFE133:
 349              		.size	get, .-get
 350 012a 00BF     		.align	2
 351 012c AFF30080 		.p2align 4,,15
 352              		.thumb
 353              		.thumb_func
 354              		.type	putt, %function
 355              	putt:
 356              	.LFB134:
 357              		.loc 1 77 0
 358              		.cfi_startproc
 359              		@ args = 0, pretend = 0, frame = 0
 360              		@ frame_needed = 0, uses_anonymous_args = 0
 361              		@ link register save eliminated.
 362              	.LVL41:
 363              		.loc 1 79 0
 364 0130 3030     		adds	r0, r0, #48
 365              	.LVL42:
 366 0132 FFF7FEBF 		b	chOQPutTimeout
 367              	.LVL43:
 368              		.cfi_endproc
 369              	.LFE134:
 370              		.size	putt, .-putt
 371 0136 00BF     		.align	2
 372 0138 AFF30080 		.p2align 4,,15
 372      AFF30080 
 373              		.thumb
 374              		.thumb_func
 375              		.type	put, %function
 376              	put:
 377              	.LFB132:
 378              		.loc 1 67 0
 379              		.cfi_startproc
 380              		@ args = 0, pretend = 0, frame = 0
 381              		@ frame_needed = 0, uses_anonymous_args = 0
 382              		@ link register save eliminated.
 383              	.LVL44:
 384              		.loc 1 69 0
 385 0140 3030     		adds	r0, r0, #48
 386              	.LVL45:
 387 0142 4FF0FF32 		mov	r2, #-1
 388 0146 FFF7FEBF 		b	chOQPutTimeout
 389              	.LVL46:
 390              		.cfi_endproc
 391              	.LFE132:
 392              		.size	put, .-put
 393 014a 00BF     		.align	2
 394 014c AFF30080 		.p2align 4,,15
 395              		.global	bduInit
ARM GAS  /tmp/ccprLvTD.s 			page 8


 396              		.thumb
 397              		.thumb_func
 398              		.type	bduInit, %function
 399              	bduInit:
 400              	.LFB140:
 401              		.loc 1 172 0
 402              		.cfi_startproc
 403              		@ args = 0, pretend = 0, frame = 0
 404              		@ frame_needed = 0, uses_anonymous_args = 0
 405              		@ link register save eliminated.
 406 0150 7047     		bx	lr
 407              		.cfi_endproc
 408              	.LFE140:
 409              		.size	bduInit, .-bduInit
 410 0152 00BF     		.align	2
 411 0154 AFF30080 		.p2align 4,,15
 411      AFF30080 
 411      AFF30080 
 412              		.global	bduObjectInit
 413              		.thumb
 414              		.thumb_func
 415              		.type	bduObjectInit, %function
 416              	bduObjectInit:
 417              	.LFB141:
 418              		.loc 1 184 0
 419              		.cfi_startproc
 420              		@ args = 0, pretend = 0, frame = 0
 421              		@ frame_needed = 0, uses_anonymous_args = 0
 422              	.LVL47:
 423              		.loc 1 184 0
 424 0160 10B5     		push	{r4, lr}
 425              		.cfi_def_cfa_offset 8
 426              		.cfi_offset 4, -8
 427              		.cfi_offset 14, -4
 428              		.loc 1 186 0
 429 0162 0346     		mov	r3, r0
 430 0164 0E4A     		ldr	r2, .L24
 431 0166 43F8042B 		str	r2, [r3], #4
 432              		.loc 1 184 0
 433 016a 82B0     		sub	sp, sp, #8
 434              		.cfi_def_cfa_offset 16
 435              		.loc 1 184 0
 436 016c 0446     		mov	r4, r0
 437              		.loc 1 188 0
 438 016e 0122     		movs	r2, #1
 439              		.loc 1 189 0
 440 0170 0090     		str	r0, [sp]
 441 0172 04F15401 		add	r1, r4, #84
 442              		.loc 1 187 0
 443 0176 4360     		str	r3, [r0, #4]
 444              		.loc 1 188 0
 445 0178 0272     		strb	r2, [r0, #8]
 446              		.loc 1 189 0
 447 017a 0A4B     		ldr	r3, .L24+4
 448 017c 0C30     		adds	r0, r0, #12
 449              	.LVL48:
 450 017e 4FF48072 		mov	r2, #256
ARM GAS  /tmp/ccprLvTD.s 			page 9


 451 0182 FFF7FEFF 		bl	chIQInit
 452              	.LVL49:
 453              		.loc 1 190 0
 454 0186 0094     		str	r4, [sp]
 455 0188 04F13000 		add	r0, r4, #48
 456 018c 04F5AA71 		add	r1, r4, #340
 457 0190 4FF48072 		mov	r2, #256
 458 0194 044B     		ldr	r3, .L24+8
 459 0196 FFF7FEFF 		bl	chOQInit
 460              	.LVL50:
 461              		.loc 1 191 0
 462 019a 02B0     		add	sp, sp, #8
 463              		.cfi_def_cfa_offset 8
 464              		@ sp needed
 465 019c 10BD     		pop	{r4, pc}
 466              	.LVL51:
 467              	.L25:
 468 019e 00BF     		.align	2
 469              	.L24:
 470 01a0 00000000 		.word	.LANCHOR0
 471 01a4 00000000 		.word	inotify
 472 01a8 00000000 		.word	onotify
 473              		.cfi_endproc
 474              	.LFE141:
 475              		.size	bduObjectInit, .-bduObjectInit
 476              		.align	2
 477 01ac AFF30080 		.p2align 4,,15
 478              		.global	bduStart
 479              		.thumb
 480              		.thumb_func
 481              		.type	bduStart, %function
 482              	bduStart:
 483              	.LFB142:
 484              		.loc 1 201 0
 485              		.cfi_startproc
 486              		@ args = 0, pretend = 0, frame = 0
 487              		@ frame_needed = 0, uses_anonymous_args = 0
 488              		@ link register save eliminated.
 489              	.LVL52:
 490 01b0 30B4     		push	{r4, r5}
 491              		.cfi_def_cfa_offset 8
 492              		.cfi_offset 4, -8
 493              		.cfi_offset 5, -4
 494              	.LBB6:
 495              		.loc 1 206 0
 496 01b2 2023     		movs	r3, #32
 497              	.LBE6:
 498              		.loc 1 202 0
 499 01b4 0C68     		ldr	r4, [r1]
 500              	.LVL53:
 501              	.LBB7:
 502              		.loc 1 206 0
 503              	@ 206 "bulk_usb.c" 1
 504 01b6 83F31188 		msr     BASEPRI, r3
 505              	@ 0 "" 2
 506              		.thumb
 507              	.LBE7:
ARM GAS  /tmp/ccprLvTD.s 			page 10


 508              		.loc 1 210 0
 509 01ba 0B79     		ldrb	r3, [r1, #4]	@ zero_extendqisi2
 510 01bc 04EB8303 		add	r3, r4, r3, lsl #2
 511              		.loc 1 213 0
 512 01c0 0225     		movs	r5, #2
 513              		.loc 1 210 0
 514 01c2 9861     		str	r0, [r3, #24]
 515              		.loc 1 211 0
 516 01c4 4A79     		ldrb	r2, [r1, #5]	@ zero_extendqisi2
 517 01c6 0932     		adds	r2, r2, #9
 518              	.LBB8:
 519              		.loc 1 214 0
 520 01c8 0023     		movs	r3, #0
 521              	.LBE8:
 522              		.loc 1 211 0
 523 01ca 44F82200 		str	r0, [r4, r2, lsl #2]
 524              		.loc 1 212 0
 525 01ce C0F85412 		str	r1, [r0, #596]
 526              		.loc 1 213 0
 527 01d2 0572     		strb	r5, [r0, #8]
 528              	.LBB9:
 529              		.loc 1 214 0
 530              	@ 214 "bulk_usb.c" 1
 531 01d4 83F31188 		msr     BASEPRI, r3
 532              	@ 0 "" 2
 533              		.thumb
 534              	.LBE9:
 535              		.loc 1 215 0
 536 01d8 30BC     		pop	{r4, r5}
 537              		.cfi_restore 5
 538              		.cfi_restore 4
 539              		.cfi_def_cfa_offset 0
 540              	.LVL54:
 541 01da 7047     		bx	lr
 542              		.cfi_endproc
 543              	.LFE142:
 544              		.size	bduStart, .-bduStart
 545              		.align	2
 546 01dc AFF30080 		.p2align 4,,15
 547              		.global	bduStop
 548              		.thumb
 549              		.thumb_func
 550              		.type	bduStop, %function
 551              	bduStop:
 552              	.LFB143:
 553              		.loc 1 226 0
 554              		.cfi_startproc
 555              		@ args = 0, pretend = 0, frame = 0
 556              		@ frame_needed = 0, uses_anonymous_args = 0
 557              	.LVL55:
 558              		.loc 1 227 0
 559 01e0 D0F85422 		ldr	r2, [r0, #596]
 560              		.loc 1 226 0
 561 01e4 38B5     		push	{r3, r4, r5, lr}
 562              		.cfi_def_cfa_offset 16
 563              		.cfi_offset 3, -16
 564              		.cfi_offset 4, -12
ARM GAS  /tmp/ccprLvTD.s 			page 11


 565              		.cfi_offset 5, -8
 566              		.cfi_offset 14, -4
 567              		.loc 1 227 0
 568 01e6 1168     		ldr	r1, [r2]
 569              	.LVL56:
 570              		.loc 1 226 0
 571 01e8 0446     		mov	r4, r0
 572              	.LBB10:
 573              		.loc 1 231 0
 574 01ea 2023     		movs	r3, #32
 575              	@ 231 "bulk_usb.c" 1
 576 01ec 83F31188 		msr     BASEPRI, r3
 577              	@ 0 "" 2
 578              		.thumb
 579              	.LBE10:
 580              		.loc 1 238 0
 581 01f0 D0F85432 		ldr	r3, [r0, #596]
 582 01f4 1A79     		ldrb	r2, [r3, #4]	@ zero_extendqisi2
 583 01f6 0532     		adds	r2, r2, #5
 584 01f8 01EB8202 		add	r2, r1, r2, lsl #2
 585 01fc 0025     		movs	r5, #0
 586 01fe 5560     		str	r5, [r2, #4]
 587              		.loc 1 239 0
 588 0200 5B79     		ldrb	r3, [r3, #5]	@ zero_extendqisi2
 589 0202 0933     		adds	r3, r3, #9
 590              		.loc 1 240 0
 591 0204 0122     		movs	r2, #1
 592              		.loc 1 239 0
 593 0206 41F82350 		str	r5, [r1, r3, lsl #2]
 594              		.loc 1 243 0
 595 020a 0430     		adds	r0, r0, #4
 596              	.LVL57:
 597              		.loc 1 240 0
 598 020c 2272     		strb	r2, [r4, #8]
 599              		.loc 1 243 0
 600 020e 0221     		movs	r1, #2
 601              	.LVL58:
 602 0210 FFF7FEFF 		bl	chEvtBroadcastFlagsI
 603              	.LVL59:
 604              		.loc 1 244 0
 605 0214 04F10C00 		add	r0, r4, #12
 606 0218 FFF7FEFF 		bl	chIQResetI
 607              	.LVL60:
 608              		.loc 1 245 0
 609 021c 04F13000 		add	r0, r4, #48
 610 0220 FFF7FEFF 		bl	chOQResetI
 611              	.LVL61:
 612              		.loc 1 246 0
 613 0224 FFF7FEFF 		bl	chSchRescheduleS
 614              	.LVL62:
 615              	.LBB11:
 616              		.loc 1 248 0
 617 0228 2B46     		mov	r3, r5
 618              	@ 248 "bulk_usb.c" 1
 619 022a 83F31188 		msr     BASEPRI, r3
 620              	@ 0 "" 2
 621              		.thumb
ARM GAS  /tmp/ccprLvTD.s 			page 12


 622 022e 38BD     		pop	{r3, r4, r5, pc}
 623              	.LBE11:
 624              		.cfi_endproc
 625              	.LFE143:
 626              		.size	bduStop, .-bduStop
 627              		.align	2
 628              		.p2align 4,,15
 629              		.global	bduConfigureHookI
 630              		.thumb
 631              		.thumb_func
 632              		.type	bduConfigureHookI, %function
 633              	bduConfigureHookI:
 634              	.LFB144:
 635              		.loc 1 258 0
 636              		.cfi_startproc
 637              		@ args = 0, pretend = 0, frame = 0
 638              		@ frame_needed = 0, uses_anonymous_args = 0
 639              	.LVL63:
 640 0230 70B5     		push	{r4, r5, r6, lr}
 641              		.cfi_def_cfa_offset 16
 642              		.cfi_offset 4, -16
 643              		.cfi_offset 5, -12
 644              		.cfi_offset 6, -8
 645              		.cfi_offset 14, -4
 646              		.loc 1 259 0
 647 0232 D0F85432 		ldr	r3, [r0, #596]
 648              		.loc 1 261 0
 649 0236 00F10C06 		add	r6, r0, #12
 650              		.loc 1 258 0
 651 023a 0446     		mov	r4, r0
 652              		.loc 1 261 0
 653 023c 3046     		mov	r0, r6
 654              	.LVL64:
 655              		.loc 1 259 0
 656 023e 1D68     		ldr	r5, [r3]
 657              	.LVL65:
 658              		.loc 1 261 0
 659 0240 FFF7FEFF 		bl	chIQResetI
 660              	.LVL66:
 661              		.loc 1 262 0
 662 0244 04F13000 		add	r0, r4, #48
 663 0248 FFF7FEFF 		bl	chOQResetI
 664              	.LVL67:
 665              		.loc 1 263 0
 666 024c 201D     		adds	r0, r4, #4
 667 024e 0121     		movs	r1, #1
 668 0250 FFF7FEFF 		bl	chEvtBroadcastFlagsI
 669              	.LVL68:
 670              		.loc 1 267 0
 671 0254 D4F85432 		ldr	r3, [r4, #596]
 672 0258 5979     		ldrb	r1, [r3, #5]	@ zero_extendqisi2
 673 025a 05EB8103 		add	r3, r5, r1, lsl #2
 674              		.loc 1 266 0
 675 025e 2846     		mov	r0, r5
 676              		.loc 1 267 0
 677 0260 DB68     		ldr	r3, [r3, #12]
 678              		.loc 1 266 0
ARM GAS  /tmp/ccprLvTD.s 			page 13


 679 0262 3246     		mov	r2, r6
 680 0264 5B8A     		ldrh	r3, [r3, #18]
 681 0266 FFF7FEFF 		bl	usbPrepareQueuedReceive
 682              	.LVL69:
 683              		.loc 1 268 0
 684 026a D4F85432 		ldr	r3, [r4, #596]
 685 026e 2846     		mov	r0, r5
 686 0270 5979     		ldrb	r1, [r3, #5]	@ zero_extendqisi2
 687              		.loc 1 269 0
 688 0272 BDE87040 		pop	{r4, r5, r6, lr}
 689              		.cfi_restore 14
 690              		.cfi_restore 6
 691              		.cfi_restore 5
 692              		.cfi_restore 4
 693              		.cfi_def_cfa_offset 0
 694              	.LVL70:
 695              		.loc 1 268 0
 696 0276 FFF7FEBF 		b	usbStartReceiveI
 697              	.LVL71:
 698              		.cfi_endproc
 699              	.LFE144:
 700              		.size	bduConfigureHookI, .-bduConfigureHookI
 701 027a 00BF     		.align	2
 702 027c AFF30080 		.p2align 4,,15
 703              		.global	bduRequestsHook
 704              		.thumb
 705              		.thumb_func
 706              		.type	bduRequestsHook, %function
 707              	bduRequestsHook:
 708              	.LFB145:
 709              		.loc 1 286 0
 710              		.cfi_startproc
 711              		@ args = 0, pretend = 0, frame = 0
 712              		@ frame_needed = 0, uses_anonymous_args = 0
 713              		@ link register save eliminated.
 714              	.LVL72:
 715              		.loc 1 290 0
 716 0280 0020     		movs	r0, #0
 717              	.LVL73:
 718 0282 7047     		bx	lr
 719              		.cfi_endproc
 720              	.LFE145:
 721              		.size	bduRequestsHook, .-bduRequestsHook
 722              		.align	2
 723 0284 AFF30080 		.p2align 4,,15
 723      AFF30080 
 723      AFF30080 
 724              		.global	bduDataTransmitted
 725              		.thumb
 726              		.thumb_func
 727              		.type	bduDataTransmitted, %function
 728              	bduDataTransmitted:
 729              	.LFB146:
 730              		.loc 1 300 0
 731              		.cfi_startproc
 732              		@ args = 0, pretend = 0, frame = 0
 733              		@ frame_needed = 0, uses_anonymous_args = 0
ARM GAS  /tmp/ccprLvTD.s 			page 14


 734              	.LVL74:
 735 0290 2DE9F041 		push	{r4, r5, r6, r7, r8, lr}
 736              		.cfi_def_cfa_offset 24
 737              		.cfi_offset 4, -24
 738              		.cfi_offset 5, -20
 739              		.cfi_offset 6, -16
 740              		.cfi_offset 7, -12
 741              		.cfi_offset 8, -8
 742              		.cfi_offset 14, -4
 743 0294 00EB8108 		add	r8, r0, r1, lsl #2
 744              		.loc 1 302 0
 745 0298 D8F81840 		ldr	r4, [r8, #24]
 746              	.LVL75:
 747              		.loc 1 304 0
 748 029c B4B1     		cbz	r4, .L33
 749 029e 0F46     		mov	r7, r1
 750 02a0 0646     		mov	r6, r0
 751              	.LBB12:
 752              		.loc 1 307 0
 753 02a2 2023     		movs	r3, #32
 754              	@ 307 "bulk_usb.c" 1
 755 02a4 83F31188 		msr     BASEPRI, r3
 756              	@ 0 "" 2
 757              		.thumb
 758              	.LBE12:
 759              		.loc 1 308 0
 760 02a8 0821     		movs	r1, #8
 761              	.LVL76:
 762 02aa 201D     		adds	r0, r4, #4
 763              	.LVL77:
 764 02ac FFF7FEFF 		bl	chEvtBroadcastFlagsI
 765              	.LVL78:
 766              		.loc 1 310 0
 767 02b0 226C     		ldr	r2, [r4, #64]
 768 02b2 E36B     		ldr	r3, [r4, #60]
 769 02b4 A56B     		ldr	r5, [r4, #56]
 770 02b6 D31A     		subs	r3, r2, r3
 771              	.LVL79:
 772 02b8 5D1B     		subs	r5, r3, r5
 773              	.LVL80:
 774 02ba 12D1     		bne	.L45
 775              		.loc 1 320 0
 776 02bc D8F80C30 		ldr	r3, [r8, #12]
 777 02c0 5A69     		ldr	r2, [r3, #20]
 778 02c2 5268     		ldr	r2, [r2, #4]
 779 02c4 22B9     		cbnz	r2, .L46
 780              	.L36:
 781              	.LBB13:
 782              		.loc 1 335 0
 783 02c6 0023     		movs	r3, #0
 784              	@ 335 "bulk_usb.c" 1
 785 02c8 83F31188 		msr     BASEPRI, r3
 786              	@ 0 "" 2
 787              	.LVL81:
 788              		.thumb
 789              	.L33:
 790 02cc BDE8F081 		pop	{r4, r5, r6, r7, r8, pc}
ARM GAS  /tmp/ccprLvTD.s 			page 15


 791              	.LVL82:
 792              	.L46:
 793              	.LBE13:
 794              		.loc 1 322 0 discriminator 1
 795 02d0 1B8A     		ldrh	r3, [r3, #16]
 796 02d2 013B     		subs	r3, r3, #1
 797              		.loc 1 320 0 discriminator 1
 798 02d4 1340     		ands	r3, r3, r2
 799 02d6 F6D1     		bne	.L36
 800              	.LBB14:
 801              		.loc 1 327 0
 802              	@ 327 "bulk_usb.c" 1
 803 02d8 83F31188 		msr     BASEPRI, r3
 804              	@ 0 "" 2
 805              		.thumb
 806              	.LBE14:
 807              		.loc 1 329 0
 808 02dc 04F13002 		add	r2, r4, #48
 809 02e0 05E0     		b	.L44
 810              	.L45:
 811              	.LBB15:
 812              		.loc 1 313 0
 813 02e2 0023     		movs	r3, #0
 814              	@ 313 "bulk_usb.c" 1
 815 02e4 83F31188 		msr     BASEPRI, r3
 816              	@ 0 "" 2
 817              		.thumb
 818              	.LBE15:
 819              		.loc 1 315 0
 820 02e8 04F13002 		add	r2, r4, #48
 821 02ec 2B46     		mov	r3, r5
 822              	.L44:
 823              		.loc 1 329 0
 824 02ee 3046     		mov	r0, r6
 825 02f0 3946     		mov	r1, r7
 826 02f2 FFF7FEFF 		bl	usbPrepareQueuedTransmit
 827              	.LVL83:
 828              	.LBB16:
 829              		.loc 1 331 0
 830 02f6 2023     		movs	r3, #32
 831              	@ 331 "bulk_usb.c" 1
 832 02f8 83F31188 		msr     BASEPRI, r3
 833              	@ 0 "" 2
 834              		.thumb
 835              	.LBE16:
 836              		.loc 1 332 0
 837 02fc 3046     		mov	r0, r6
 838 02fe 3946     		mov	r1, r7
 839 0300 FFF7FEFF 		bl	usbStartTransmitI
 840              	.LVL84:
 841 0304 DFE7     		b	.L36
 842              		.cfi_endproc
 843              	.LFE146:
 844              		.size	bduDataTransmitted, .-bduDataTransmitted
 845 0306 00BF     		.align	2
 846 0308 AFF30080 		.p2align 4,,15
 846      AFF30080 
ARM GAS  /tmp/ccprLvTD.s 			page 16


 847              		.global	bduDataReceived
 848              		.thumb
 849              		.thumb_func
 850              		.type	bduDataReceived, %function
 851              	bduDataReceived:
 852              	.LFB147:
 853              		.loc 1 346 0
 854              		.cfi_startproc
 855              		@ args = 0, pretend = 0, frame = 0
 856              		@ frame_needed = 0, uses_anonymous_args = 0
 857              	.LVL85:
 858 0310 2DE9F041 		push	{r4, r5, r6, r7, r8, lr}
 859              		.cfi_def_cfa_offset 24
 860              		.cfi_offset 4, -24
 861              		.cfi_offset 5, -20
 862              		.cfi_offset 6, -16
 863              		.cfi_offset 7, -12
 864              		.cfi_offset 8, -8
 865              		.cfi_offset 14, -4
 866 0314 00EB8104 		add	r4, r0, r1, lsl #2
 867              		.loc 1 348 0
 868 0318 666A     		ldr	r6, [r4, #36]
 869              	.LVL86:
 870              		.loc 1 350 0
 871 031a A6B1     		cbz	r6, .L47
 872 031c 0F46     		mov	r7, r1
 873 031e 8046     		mov	r8, r0
 874              	.LBB17:
 875              		.loc 1 353 0
 876 0320 2023     		movs	r3, #32
 877              	@ 353 "bulk_usb.c" 1
 878 0322 83F31188 		msr     BASEPRI, r3
 879              	@ 0 "" 2
 880              		.thumb
 881              	.LBE17:
 882              		.loc 1 354 0
 883 0326 0421     		movs	r1, #4
 884              	.LVL87:
 885 0328 7018     		adds	r0, r6, r1
 886              	.LVL88:
 887 032a FFF7FEFF 		bl	chEvtBroadcastFlagsI
 888              	.LVL89:
 889              		.loc 1 359 0
 890 032e 06F11403 		add	r3, r6, #20
 891              		.loc 1 358 0
 892 0332 E268     		ldr	r2, [r4, #12]
 893              		.loc 1 359 0
 894 0334 38CB     		ldmia	r3, {r3, r4, r5}
 895              		.loc 1 358 0
 896 0336 518A     		ldrh	r1, [r2, #18]
 897              	.LVL90:
 898              		.loc 1 359 0
 899 0338 2D1B     		subs	r5, r5, r4
 900 033a EC1A     		subs	r4, r5, r3
 901              	.LVL91:
 902 033c A142     		cmp	r1, r4
 903 033e 04D9     		bls	.L54
ARM GAS  /tmp/ccprLvTD.s 			page 17


 904              	.LVL92:
 905              	.L49:
 906              	.LBB18:
 907              		.loc 1 371 0
 908 0340 0023     		movs	r3, #0
 909              	@ 371 "bulk_usb.c" 1
 910 0342 83F31188 		msr     BASEPRI, r3
 911              	@ 0 "" 2
 912              	.LVL93:
 913              		.thumb
 914              	.L47:
 915 0346 BDE8F081 		pop	{r4, r5, r6, r7, r8, pc}
 916              	.LVL94:
 917              	.L54:
 918              	.LBE18:
 919              	.LBB19:
 920              		.loc 1 362 0
 921 034a 0023     		movs	r3, #0
 922              	@ 362 "bulk_usb.c" 1
 923 034c 83F31188 		msr     BASEPRI, r3
 924              	@ 0 "" 2
 925              		.thumb
 926              	.LBE19:
 927              		.loc 1 364 0
 928 0350 B4FBF1F3 		udiv	r3, r4, r1
 929              	.LVL95:
 930              		.loc 1 365 0
 931 0354 06F10C02 		add	r2, r6, #12
 932 0358 01FB03F3 		mul	r3, r1, r3
 933              	.LVL96:
 934 035c 4046     		mov	r0, r8
 935 035e 3946     		mov	r1, r7
 936              	.LVL97:
 937 0360 FFF7FEFF 		bl	usbPrepareQueuedReceive
 938              	.LVL98:
 939              	.LBB20:
 940              		.loc 1 367 0
 941 0364 2023     		movs	r3, #32
 942              	@ 367 "bulk_usb.c" 1
 943 0366 83F31188 		msr     BASEPRI, r3
 944              	@ 0 "" 2
 945              		.thumb
 946              	.LBE20:
 947              		.loc 1 368 0
 948 036a 4046     		mov	r0, r8
 949 036c 3946     		mov	r1, r7
 950 036e FFF7FEFF 		bl	usbStartReceiveI
 951              	.LVL99:
 952 0372 E5E7     		b	.L49
 953              		.cfi_endproc
 954              	.LFE147:
 955              		.size	bduDataReceived, .-bduDataReceived
 956              		.section	.rodata
 957              		.align	2
 958              		.set	.LANCHOR0,. + 0
 959              		.type	vmt, %object
 960              		.size	vmt, 32
ARM GAS  /tmp/ccprLvTD.s 			page 18


 961              	vmt:
 962 0000 00000000 		.word	write
 963 0004 00000000 		.word	read
 964 0008 00000000 		.word	put
 965 000c 00000000 		.word	get
 966 0010 00000000 		.word	putt
 967 0014 00000000 		.word	gett
 968 0018 00000000 		.word	writet
 969 001c 00000000 		.word	readt
 970              		.text
 971              	.Letext0:
 972              		.file 2 "/home/sbcu/Dropbox/pcb-layouts/axo-on-discovery-board/axoloti/platform_linux/lib/gcc/arm-
 973              		.file 3 "/home/sbcu/Dropbox/pcb-layouts/axo-on-discovery-board/axoloti/platform_linux/arm-none-eab
 974              		.file 4 "/home/sbcu/Dropbox/pcb-layouts/axo-on-discovery-board/axoloti/platform_linux/arm-none-eab
 975              		.file 5 "/home/sbcu/Dropbox/pcb-layouts/axo-on-discovery-board/axoloti/platform_linux/../chibios/o
 976              		.file 6 "/home/sbcu/Dropbox/pcb-layouts/axo-on-discovery-board/axoloti/platform_linux/../chibios/o
 977              		.file 7 "/home/sbcu/Dropbox/pcb-layouts/axo-on-discovery-board/axoloti/platform_linux/../chibios/o
 978              		.file 8 "/home/sbcu/Dropbox/pcb-layouts/axo-on-discovery-board/axoloti/platform_linux/../chibios/o
 979              		.file 9 "/home/sbcu/Dropbox/pcb-layouts/axo-on-discovery-board/axoloti/platform_linux/../chibios/o
 980              		.file 10 "/home/sbcu/Dropbox/pcb-layouts/axo-on-discovery-board/axoloti/platform_linux/../chibios/
 981              		.file 11 "/home/sbcu/Dropbox/pcb-layouts/axo-on-discovery-board/axoloti/platform_linux/../chibios/
 982              		.file 12 "/home/sbcu/Dropbox/pcb-layouts/axo-on-discovery-board/axoloti/platform_linux/../chibios/
 983              		.file 13 "/home/sbcu/Dropbox/pcb-layouts/axo-on-discovery-board/axoloti/platform_linux/../chibios/
 984              		.file 14 "/home/sbcu/Dropbox/pcb-layouts/axo-on-discovery-board/axoloti/platform_linux/../chibios/
 985              		.file 15 "bulk_usb.h"
 986              		.file 16 "/home/sbcu/Dropbox/pcb-layouts/axo-on-discovery-board/axoloti/platform_linux/../CMSIS//I
 987              		.file 17 "/home/sbcu/Dropbox/pcb-layouts/axo-on-discovery-board/axoloti/platform_linux/../chibios/