ARM GAS  /tmp/ccLx01V2.s 			page 1


   1              		.syntax unified
   2              		.cpu cortex-m4
   3              		.eabi_attribute 27, 1
   4              		.eabi_attribute 28, 1
   5              		.fpu fpv4-sp-d16
   6              		.eabi_attribute 20, 1
   7              		.eabi_attribute 21, 1
   8              		.eabi_attribute 23, 3
   9              		.eabi_attribute 24, 1
  10              		.eabi_attribute 25, 1
  11              		.eabi_attribute 26, 1
  12              		.eabi_attribute 30, 2
  13              		.eabi_attribute 34, 1
  14              		.eabi_attribute 18, 4
  15              		.thumb
  16              		.file	"chevents.c"
  17              		.text
  18              	.Ltext0:
  19              		.cfi_sections	.debug_frame
  20              		.align	2
  21              		.p2align 4,,15
  22              		.global	chEvtRegisterMask
  23              		.thumb
  24              		.thumb_func
  25              		.type	chEvtRegisterMask, %function
  26              	chEvtRegisterMask:
  27              	.LFB7:
  28              		.file 1 "/d_drive/axoloti/platform_linux/../chibios/os/kernel/src/chevents.c"
  29              		.loc 1 85 0
  30              		.cfi_startproc
  31              		@ args = 0, pretend = 0, frame = 0
  32              		@ frame_needed = 0, uses_anonymous_args = 0
  33              		@ link register save eliminated.
  34              	.LVL0:
  35 0000 30B4     		push	{r4, r5}
  36              		.cfi_def_cfa_offset 8
  37              		.cfi_offset 4, -8
  38              		.cfi_offset 5, -4
  39              	.LBB2:
  40              		.loc 1 89 0
  41 0002 2023     		movs	r3, #32
  42              	@ 89 "/d_drive/axoloti/platform_linux/../chibios/os/kernel/src/chevents.c" 1
  43 0004 83F31188 		msr     BASEPRI, r3
  44              	@ 0 "" 2
  45              		.thumb
  46              	.LBE2:
  47              		.loc 1 92 0
  48 0008 064C     		ldr	r4, .L3
  49              		.loc 1 90 0
  50 000a 0368     		ldr	r3, [r0]
  51              		.loc 1 92 0
  52 000c A569     		ldr	r5, [r4, #24]
  53              		.loc 1 90 0
  54 000e 0B60     		str	r3, [r1]
  55              		.loc 1 94 0
  56 0010 0024     		movs	r4, #0
  57              		.loc 1 91 0
ARM GAS  /tmp/ccLx01V2.s 			page 2


  58 0012 0160     		str	r1, [r0]
  59              	.LBB3:
  60              		.loc 1 95 0
  61 0014 2346     		mov	r3, r4
  62              	.LBE3:
  63              		.loc 1 92 0
  64 0016 4D60     		str	r5, [r1, #4]
  65              		.loc 1 93 0
  66 0018 8A60     		str	r2, [r1, #8]
  67              		.loc 1 94 0
  68 001a CC60     		str	r4, [r1, #12]
  69              	.LBB4:
  70              		.loc 1 95 0
  71              	@ 95 "/d_drive/axoloti/platform_linux/../chibios/os/kernel/src/chevents.c" 1
  72 001c 83F31188 		msr     BASEPRI, r3
  73              	@ 0 "" 2
  74              		.thumb
  75              	.LBE4:
  76              		.loc 1 96 0
  77 0020 30BC     		pop	{r4, r5}
  78              		.cfi_restore 5
  79              		.cfi_restore 4
  80              		.cfi_def_cfa_offset 0
  81 0022 7047     		bx	lr
  82              	.L4:
  83              		.align	2
  84              	.L3:
  85 0024 00000000 		.word	rlist
  86              		.cfi_endproc
  87              	.LFE7:
  88              		.size	chEvtRegisterMask, .-chEvtRegisterMask
  89              		.align	2
  90 0028 AFF30080 		.p2align 4,,15
  90      AFF30080 
  91              		.global	chEvtUnregister
  92              		.thumb
  93              		.thumb_func
  94              		.type	chEvtUnregister, %function
  95              	chEvtUnregister:
  96              	.LFB8:
  97              		.loc 1 111 0
  98              		.cfi_startproc
  99              		@ args = 0, pretend = 0, frame = 0
 100              		@ frame_needed = 0, uses_anonymous_args = 0
 101              		@ link register save eliminated.
 102              	.LVL1:
 103              	.LBB5:
 104              		.loc 1 117 0
 105 0030 2023     		movs	r3, #32
 106              	@ 117 "/d_drive/axoloti/platform_linux/../chibios/os/kernel/src/chevents.c" 1
 107 0032 83F31188 		msr     BASEPRI, r3
 108              	@ 0 "" 2
 109              		.thumb
 110              	.LBE5:
 111              		.loc 1 116 0
 112 0036 0246     		mov	r2, r0
 113              		.loc 1 118 0
ARM GAS  /tmp/ccLx01V2.s 			page 3


 114 0038 02E0     		b	.L6
 115              	.LVL2:
 116              	.L8:
 117              		.loc 1 119 0
 118 003a 9942     		cmp	r1, r3
 119 003c 07D0     		beq	.L11
 120 003e 1A46     		mov	r2, r3
 121              	.LVL3:
 122              	.L6:
 123              		.loc 1 118 0
 124 0040 1368     		ldr	r3, [r2]
 125 0042 8342     		cmp	r3, r0
 126 0044 F9D1     		bne	.L8
 127              	.LBB6:
 128              		.loc 1 125 0
 129 0046 0023     		movs	r3, #0
 130              	@ 125 "/d_drive/axoloti/platform_linux/../chibios/os/kernel/src/chevents.c" 1
 131 0048 83F31188 		msr     BASEPRI, r3
 132              	@ 0 "" 2
 133              		.thumb
 134 004c 7047     		bx	lr
 135              	.L11:
 136              	.LBE6:
 137              		.loc 1 120 0
 138 004e 0B68     		ldr	r3, [r1]
 139 0050 1360     		str	r3, [r2]
 140              	.LBB7:
 141              		.loc 1 125 0
 142 0052 0023     		movs	r3, #0
 143              	@ 125 "/d_drive/axoloti/platform_linux/../chibios/os/kernel/src/chevents.c" 1
 144 0054 83F31188 		msr     BASEPRI, r3
 145              	@ 0 "" 2
 146              		.thumb
 147 0058 7047     		bx	lr
 148              	.LBE7:
 149              		.cfi_endproc
 150              	.LFE8:
 151              		.size	chEvtUnregister, .-chEvtUnregister
 152 005a 00BF     		.align	2
 153 005c AFF30080 		.p2align 4,,15
 154              		.global	chEvtGetAndClearEvents
 155              		.thumb
 156              		.thumb_func
 157              		.type	chEvtGetAndClearEvents, %function
 158              	chEvtGetAndClearEvents:
 159              	.LFB9:
 160              		.loc 1 136 0
 161              		.cfi_startproc
 162              		@ args = 0, pretend = 0, frame = 0
 163              		@ frame_needed = 0, uses_anonymous_args = 0
 164              		@ link register save eliminated.
 165              	.LVL4:
 166              	.LBB8:
 167              		.loc 1 139 0
 168 0060 2023     		movs	r3, #32
 169              	@ 139 "/d_drive/axoloti/platform_linux/../chibios/os/kernel/src/chevents.c" 1
 170 0062 83F31188 		msr     BASEPRI, r3
ARM GAS  /tmp/ccLx01V2.s 			page 4


 171              	@ 0 "" 2
 172              		.thumb
 173              	.LBE8:
 174              		.loc 1 141 0
 175 0066 054B     		ldr	r3, .L13
 176 0068 9B69     		ldr	r3, [r3, #24]
 177 006a 5A6B     		ldr	r2, [r3, #52]
 178              	.LVL5:
 179              		.loc 1 142 0
 180 006c 22EA0001 		bic	r1, r2, r0
 181 0070 5963     		str	r1, [r3, #52]
 182              	.LBB9:
 183              		.loc 1 144 0
 184 0072 0023     		movs	r3, #0
 185              	@ 144 "/d_drive/axoloti/platform_linux/../chibios/os/kernel/src/chevents.c" 1
 186 0074 83F31188 		msr     BASEPRI, r3
 187              	@ 0 "" 2
 188              		.thumb
 189              	.LBE9:
 190              		.loc 1 146 0
 191 0078 1040     		ands	r0, r0, r2
 192              	.LVL6:
 193 007a 7047     		bx	lr
 194              	.L14:
 195              		.align	2
 196              	.L13:
 197 007c 00000000 		.word	rlist
 198              		.cfi_endproc
 199              	.LFE9:
 200              		.size	chEvtGetAndClearEvents, .-chEvtGetAndClearEvents
 201              		.align	2
 202              		.p2align 4,,15
 203              		.global	chEvtAddEvents
 204              		.thumb
 205              		.thumb_func
 206              		.type	chEvtAddEvents, %function
 207              	chEvtAddEvents:
 208              	.LFB10:
 209              		.loc 1 157 0
 210              		.cfi_startproc
 211              		@ args = 0, pretend = 0, frame = 0
 212              		@ frame_needed = 0, uses_anonymous_args = 0
 213              		@ link register save eliminated.
 214              	.LVL7:
 215              	.LBB10:
 216              		.loc 1 159 0
 217 0080 2023     		movs	r3, #32
 218              	@ 159 "/d_drive/axoloti/platform_linux/../chibios/os/kernel/src/chevents.c" 1
 219 0082 83F31188 		msr     BASEPRI, r3
 220              	@ 0 "" 2
 221              		.thumb
 222              	.LBE10:
 223              		.loc 1 161 0
 224 0086 044B     		ldr	r3, .L16
 225 0088 9A69     		ldr	r2, [r3, #24]
 226 008a 536B     		ldr	r3, [r2, #52]
 227 008c 1843     		orrs	r0, r0, r3
ARM GAS  /tmp/ccLx01V2.s 			page 5


 228              	.LVL8:
 229 008e 5063     		str	r0, [r2, #52]
 230              	.LVL9:
 231              	.LBB11:
 232              		.loc 1 163 0
 233 0090 0023     		movs	r3, #0
 234              	@ 163 "/d_drive/axoloti/platform_linux/../chibios/os/kernel/src/chevents.c" 1
 235 0092 83F31188 		msr     BASEPRI, r3
 236              	@ 0 "" 2
 237              		.thumb
 238              	.LBE11:
 239              		.loc 1 165 0
 240 0096 7047     		bx	lr
 241              	.L17:
 242              		.align	2
 243              	.L16:
 244 0098 00000000 		.word	rlist
 245              		.cfi_endproc
 246              	.LFE10:
 247              		.size	chEvtAddEvents, .-chEvtAddEvents
 248              		.align	2
 249 009c AFF30080 		.p2align 4,,15
 250              		.global	chEvtGetAndClearFlags
 251              		.thumb
 252              		.thumb_func
 253              		.type	chEvtGetAndClearFlags, %function
 254              	chEvtGetAndClearFlags:
 255              	.LFB12:
 256              		.loc 1 209 0
 257              		.cfi_startproc
 258              		@ args = 0, pretend = 0, frame = 0
 259              		@ frame_needed = 0, uses_anonymous_args = 0
 260              		@ link register save eliminated.
 261              	.LVL10:
 262              		.loc 1 209 0
 263 00a0 0246     		mov	r2, r0
 264              	.LBB12:
 265              		.loc 1 212 0
 266 00a2 2023     		movs	r3, #32
 267              	@ 212 "/d_drive/axoloti/platform_linux/../chibios/os/kernel/src/chevents.c" 1
 268 00a4 83F31188 		msr     BASEPRI, r3
 269              	@ 0 "" 2
 270              		.thumb
 271              	.LBE12:
 272              		.loc 1 215 0
 273 00a8 0023     		movs	r3, #0
 274              		.loc 1 214 0
 275 00aa C068     		ldr	r0, [r0, #12]
 276              	.LVL11:
 277              		.loc 1 215 0
 278 00ac D360     		str	r3, [r2, #12]
 279              	.LBB13:
 280              		.loc 1 217 0
 281              	@ 217 "/d_drive/axoloti/platform_linux/../chibios/os/kernel/src/chevents.c" 1
 282 00ae 83F31188 		msr     BASEPRI, r3
 283              	@ 0 "" 2
 284              		.thumb
ARM GAS  /tmp/ccLx01V2.s 			page 6


 285              	.LBE13:
 286              		.loc 1 219 0
 287 00b2 7047     		bx	lr
 288              		.cfi_endproc
 289              	.LFE12:
 290              		.size	chEvtGetAndClearFlags, .-chEvtGetAndClearFlags
 291              		.align	2
 292 00b4 AFF30080 		.p2align 4,,15
 292      AFF30080 
 292      AFF30080 
 293              		.global	chEvtSignalI
 294              		.thumb
 295              		.thumb_func
 296              		.type	chEvtSignalI, %function
 297              	chEvtSignalI:
 298              	.LFB14:
 299              		.loc 1 251 0
 300              		.cfi_startproc
 301              		@ args = 0, pretend = 0, frame = 0
 302              		@ frame_needed = 0, uses_anonymous_args = 0
 303              	.LVL12:
 304 00c0 08B5     		push	{r3, lr}
 305              		.cfi_def_cfa_offset 8
 306              		.cfi_offset 3, -8
 307              		.cfi_offset 14, -4
 308              		.loc 1 256 0
 309 00c2 436B     		ldr	r3, [r0, #52]
 310              		.loc 1 258 0
 311 00c4 027F     		ldrb	r2, [r0, #28]	@ zero_extendqisi2
 312              		.loc 1 256 0
 313 00c6 1943     		orrs	r1, r1, r3
 314              	.LVL13:
 315              		.loc 1 258 0
 316 00c8 082A     		cmp	r2, #8
 317              		.loc 1 256 0
 318 00ca 4163     		str	r1, [r0, #52]
 319              		.loc 1 258 0
 320 00cc 0BD0     		beq	.L24
 321              		.loc 1 259 0
 322 00ce 092A     		cmp	r2, #9
 323 00d0 00D0     		beq	.L25
 324              	.L19:
 325 00d2 08BD     		pop	{r3, pc}
 326              	.L25:
 327              		.loc 1 261 0
 328 00d4 036A     		ldr	r3, [r0, #32]
 329 00d6 1940     		ands	r1, r1, r3
 330              		.loc 1 260 0
 331 00d8 8B42     		cmp	r3, r1
 332 00da FAD1     		bne	.L19
 333              	.L21:
 334              	.LVL14:
 335              	.LBB16:
 336              	.LBB17:
 337              		.loc 1 262 0
 338 00dc FFF7FEFF 		bl	chSchReadyI
 339              	.LVL15:
ARM GAS  /tmp/ccLx01V2.s 			page 7


 340 00e0 0023     		movs	r3, #0
 341 00e2 0362     		str	r3, [r0, #32]
 342 00e4 08BD     		pop	{r3, pc}
 343              	.LVL16:
 344              	.L24:
 345              	.LBE17:
 346              	.LBE16:
 347              		.loc 1 259 0 discriminator 1
 348 00e6 036A     		ldr	r3, [r0, #32]
 349              		.loc 1 258 0 discriminator 1
 350 00e8 1942     		tst	r1, r3
 351 00ea F7D1     		bne	.L21
 352 00ec 08BD     		pop	{r3, pc}
 353              		.cfi_endproc
 354              	.LFE14:
 355              		.size	chEvtSignalI, .-chEvtSignalI
 356 00ee 00BF     		.align	2
 357              		.p2align 4,,15
 358              		.global	chEvtBroadcastFlagsI
 359              		.thumb
 360              		.thumb_func
 361              		.type	chEvtBroadcastFlagsI, %function
 362              	chEvtBroadcastFlagsI:
 363              	.LFB11:
 364              		.loc 1 184 0
 365              		.cfi_startproc
 366              		@ args = 0, pretend = 0, frame = 0
 367              		@ frame_needed = 0, uses_anonymous_args = 0
 368              	.LVL17:
 369 00f0 70B5     		push	{r4, r5, r6, lr}
 370              		.cfi_def_cfa_offset 16
 371              		.cfi_offset 4, -16
 372              		.cfi_offset 5, -12
 373              		.cfi_offset 6, -8
 374              		.cfi_offset 14, -4
 375              		.loc 1 190 0
 376 00f2 0468     		ldr	r4, [r0]
 377              	.LVL18:
 378              		.loc 1 191 0
 379 00f4 A042     		cmp	r0, r4
 380              		.loc 1 184 0
 381 00f6 0546     		mov	r5, r0
 382 00f8 0E46     		mov	r6, r1
 383              		.loc 1 191 0
 384 00fa 08D0     		beq	.L26
 385              	.LVL19:
 386              	.L28:
 387              		.loc 1 193 0
 388 00fc 201D     		adds	r0, r4, #4
 389 00fe 0BC8     		ldmia	r0, {r0, r1, r3}
 390              		.loc 1 192 0
 391 0100 3343     		orrs	r3, r3, r6
 392 0102 E360     		str	r3, [r4, #12]
 393              		.loc 1 193 0
 394 0104 FFF7FEFF 		bl	chEvtSignalI
 395              	.LVL20:
 396              		.loc 1 194 0
ARM GAS  /tmp/ccLx01V2.s 			page 8


 397 0108 2468     		ldr	r4, [r4]
 398              	.LVL21:
 399              		.loc 1 191 0
 400 010a A542     		cmp	r5, r4
 401 010c F6D1     		bne	.L28
 402              	.L26:
 403 010e 70BD     		pop	{r4, r5, r6, pc}
 404              		.cfi_endproc
 405              	.LFE11:
 406              		.size	chEvtBroadcastFlagsI, .-chEvtBroadcastFlagsI
 407              		.align	2
 408              		.p2align 4,,15
 409              		.global	chEvtSignal
 410              		.thumb
 411              		.thumb_func
 412              		.type	chEvtSignal, %function
 413              	chEvtSignal:
 414              	.LFB13:
 415              		.loc 1 229 0
 416              		.cfi_startproc
 417              		@ args = 0, pretend = 0, frame = 0
 418              		@ frame_needed = 0, uses_anonymous_args = 0
 419              	.LVL22:
 420 0110 08B5     		push	{r3, lr}
 421              		.cfi_def_cfa_offset 8
 422              		.cfi_offset 3, -8
 423              		.cfi_offset 14, -4
 424              	.LBB18:
 425              		.loc 1 233 0
 426 0112 2023     		movs	r3, #32
 427              	@ 233 "/d_drive/axoloti/platform_linux/../chibios/os/kernel/src/chevents.c" 1
 428 0114 83F31188 		msr     BASEPRI, r3
 429              	@ 0 "" 2
 430              		.thumb
 431              	.LBE18:
 432              		.loc 1 234 0
 433 0118 FFF7FEFF 		bl	chEvtSignalI
 434              	.LVL23:
 435              		.loc 1 235 0
 436 011c FFF7FEFF 		bl	chSchRescheduleS
 437              	.LVL24:
 438              	.LBB19:
 439              		.loc 1 236 0
 440 0120 0023     		movs	r3, #0
 441              	@ 236 "/d_drive/axoloti/platform_linux/../chibios/os/kernel/src/chevents.c" 1
 442 0122 83F31188 		msr     BASEPRI, r3
 443              	@ 0 "" 2
 444              		.thumb
 445 0126 08BD     		pop	{r3, pc}
 446              	.LBE19:
 447              		.cfi_endproc
 448              	.LFE13:
 449              		.size	chEvtSignal, .-chEvtSignal
 450              		.align	2
 451 0128 AFF30080 		.p2align 4,,15
 451      AFF30080 
 452              		.global	chEvtBroadcastFlags
ARM GAS  /tmp/ccLx01V2.s 			page 9


 453              		.thumb
 454              		.thumb_func
 455              		.type	chEvtBroadcastFlags, %function
 456              	chEvtBroadcastFlags:
 457              	.LFB15:
 458              		.loc 1 278 0
 459              		.cfi_startproc
 460              		@ args = 0, pretend = 0, frame = 0
 461              		@ frame_needed = 0, uses_anonymous_args = 0
 462              	.LVL25:
 463 0130 08B5     		push	{r3, lr}
 464              		.cfi_def_cfa_offset 8
 465              		.cfi_offset 3, -8
 466              		.cfi_offset 14, -4
 467              	.LBB20:
 468              		.loc 1 280 0
 469 0132 2023     		movs	r3, #32
 470              	@ 280 "/d_drive/axoloti/platform_linux/../chibios/os/kernel/src/chevents.c" 1
 471 0134 83F31188 		msr     BASEPRI, r3
 472              	@ 0 "" 2
 473              		.thumb
 474              	.LBE20:
 475              		.loc 1 281 0
 476 0138 FFF7FEFF 		bl	chEvtBroadcastFlagsI
 477              	.LVL26:
 478              		.loc 1 282 0
 479 013c FFF7FEFF 		bl	chSchRescheduleS
 480              	.LVL27:
 481              	.LBB21:
 482              		.loc 1 283 0
 483 0140 0023     		movs	r3, #0
 484              	@ 283 "/d_drive/axoloti/platform_linux/../chibios/os/kernel/src/chevents.c" 1
 485 0142 83F31188 		msr     BASEPRI, r3
 486              	@ 0 "" 2
 487              		.thumb
 488 0146 08BD     		pop	{r3, pc}
 489              	.LBE21:
 490              		.cfi_endproc
 491              	.LFE15:
 492              		.size	chEvtBroadcastFlags, .-chEvtBroadcastFlags
 493              		.align	2
 494 0148 AFF30080 		.p2align 4,,15
 494      AFF30080 
 495              		.global	chEvtGetAndClearFlagsI
 496              		.thumb
 497              		.thumb_func
 498              		.type	chEvtGetAndClearFlagsI, %function
 499              	chEvtGetAndClearFlagsI:
 500              	.LFB16:
 501              		.loc 1 297 0
 502              		.cfi_startproc
 503              		@ args = 0, pretend = 0, frame = 0
 504              		@ frame_needed = 0, uses_anonymous_args = 0
 505              		@ link register save eliminated.
 506              	.LVL28:
 507              		.loc 1 297 0
 508 0150 0346     		mov	r3, r0
ARM GAS  /tmp/ccLx01V2.s 			page 10


 509              		.loc 1 301 0
 510 0152 0022     		movs	r2, #0
 511              		.loc 1 300 0
 512 0154 C068     		ldr	r0, [r0, #12]
 513              	.LVL29:
 514              		.loc 1 301 0
 515 0156 DA60     		str	r2, [r3, #12]
 516              		.loc 1 304 0
 517 0158 7047     		bx	lr
 518              		.cfi_endproc
 519              	.LFE16:
 520              		.size	chEvtGetAndClearFlagsI, .-chEvtGetAndClearFlagsI
 521 015a 00BF     		.align	2
 522 015c AFF30080 		.p2align 4,,15
 523              		.global	chEvtDispatch
 524              		.thumb
 525              		.thumb_func
 526              		.type	chEvtDispatch, %function
 527              	chEvtDispatch:
 528              	.LFB17:
 529              		.loc 1 315 0
 530              		.cfi_startproc
 531              		@ args = 0, pretend = 0, frame = 0
 532              		@ frame_needed = 0, uses_anonymous_args = 0
 533              	.LVL30:
 534 0160 F8B5     		push	{r3, r4, r5, r6, r7, lr}
 535              		.cfi_def_cfa_offset 24
 536              		.cfi_offset 3, -24
 537              		.cfi_offset 4, -20
 538              		.cfi_offset 5, -16
 539              		.cfi_offset 6, -12
 540              		.cfi_offset 7, -8
 541              		.cfi_offset 14, -4
 542              		.loc 1 321 0
 543 0162 0D46     		mov	r5, r1
 544 0164 A9B1     		cbz	r1, .L37
 545 0166 0746     		mov	r7, r0
 546 0168 0024     		movs	r4, #0
 547              		.loc 1 322 0
 548 016a 0126     		movs	r6, #1
 549              	.LVL31:
 550              	.L39:
 551 016c 06FA04F3 		lsl	r3, r6, r4
 552 0170 2B42     		tst	r3, r5
 553 0172 04D1     		bne	.L44
 554              	.L40:
 555              		.loc 1 329 0
 556 0174 0134     		adds	r4, r4, #1
 557              	.LVL32:
 558              		.loc 1 322 0
 559 0176 06FA04F3 		lsl	r3, r6, r4
 560 017a 2B42     		tst	r3, r5
 561 017c FAD0     		beq	.L40
 562              	.L44:
 563              		.loc 1 327 0
 564 017e 2046     		mov	r0, r4
 565              		.loc 1 326 0
ARM GAS  /tmp/ccLx01V2.s 			page 11


 566 0180 25EA0305 		bic	r5, r5, r3
 567              	.LVL33:
 568              		.loc 1 327 0
 569 0184 57F82430 		ldr	r3, [r7, r4, lsl #2]
 570 0188 9847     		blx	r3
 571              	.LVL34:
 572              		.loc 1 329 0
 573 018a 0134     		adds	r4, r4, #1
 574              	.LVL35:
 575              		.loc 1 321 0
 576 018c 002D     		cmp	r5, #0
 577 018e EDD1     		bne	.L39
 578 0190 F8BD     		pop	{r3, r4, r5, r6, r7, pc}
 579              	.LVL36:
 580              	.L37:
 581 0192 F8BD     		pop	{r3, r4, r5, r6, r7, pc}
 582              		.cfi_endproc
 583              	.LFE17:
 584              		.size	chEvtDispatch, .-chEvtDispatch
 585              		.align	2
 586 0194 AFF30080 		.p2align 4,,15
 586      AFF30080 
 586      AFF30080 
 587              		.global	chEvtWaitOne
 588              		.thumb
 589              		.thumb_func
 590              		.type	chEvtWaitOne, %function
 591              	chEvtWaitOne:
 592              	.LFB18:
 593              		.loc 1 350 0
 594              		.cfi_startproc
 595              		@ args = 0, pretend = 0, frame = 0
 596              		@ frame_needed = 0, uses_anonymous_args = 0
 597              	.LVL37:
 598 01a0 38B5     		push	{r3, r4, r5, lr}
 599              		.cfi_def_cfa_offset 16
 600              		.cfi_offset 3, -16
 601              		.cfi_offset 4, -12
 602              		.cfi_offset 5, -8
 603              		.cfi_offset 14, -4
 604              		.loc 1 351 0
 605 01a2 0D4B     		ldr	r3, .L48
 606 01a4 9D69     		ldr	r5, [r3, #24]
 607              	.LVL38:
 608              	.LBB22:
 609              		.loc 1 354 0
 610 01a6 2023     		movs	r3, #32
 611              	@ 354 "/d_drive/axoloti/platform_linux/../chibios/os/kernel/src/chevents.c" 1
 612 01a8 83F31188 		msr     BASEPRI, r3
 613              	@ 0 "" 2
 614              		.thumb
 615              	.LBE22:
 616              		.loc 1 356 0
 617 01ac 6B6B     		ldr	r3, [r5, #52]
 618              	.LVL39:
 619 01ae 10EA0302 		ands	r2, r0, r3
 620              	.LVL40:
ARM GAS  /tmp/ccLx01V2.s 			page 12


 621 01b2 07D1     		bne	.L46
 622 01b4 0446     		mov	r4, r0
 623              		.loc 1 357 0
 624 01b6 2862     		str	r0, [r5, #32]
 625              		.loc 1 358 0
 626 01b8 0820     		movs	r0, #8
 627              	.LVL41:
 628 01ba FFF7FEFF 		bl	chSchGoSleepS
 629              	.LVL42:
 630              		.loc 1 359 0
 631 01be 6B6B     		ldr	r3, [r5, #52]
 632 01c0 04EA0302 		and	r2, r4, r3
 633              	.LVL43:
 634              	.L46:
 635              		.loc 1 361 0
 636 01c4 5042     		negs	r0, r2
 637 01c6 1040     		ands	r0, r0, r2
 638              	.LVL44:
 639              		.loc 1 362 0
 640 01c8 23EA0003 		bic	r3, r3, r0
 641 01cc 6B63     		str	r3, [r5, #52]
 642              	.LBB23:
 643              		.loc 1 364 0
 644 01ce 0023     		movs	r3, #0
 645              	@ 364 "/d_drive/axoloti/platform_linux/../chibios/os/kernel/src/chevents.c" 1
 646 01d0 83F31188 		msr     BASEPRI, r3
 647              	@ 0 "" 2
 648              		.thumb
 649              	.LBE23:
 650              		.loc 1 366 0
 651 01d4 38BD     		pop	{r3, r4, r5, pc}
 652              	.LVL45:
 653              	.L49:
 654 01d6 00BF     		.align	2
 655              	.L48:
 656 01d8 00000000 		.word	rlist
 657              		.cfi_endproc
 658              	.LFE18:
 659              		.size	chEvtWaitOne, .-chEvtWaitOne
 660              		.align	2
 661 01dc AFF30080 		.p2align 4,,15
 662              		.global	chEvtWaitAny
 663              		.thumb
 664              		.thumb_func
 665              		.type	chEvtWaitAny, %function
 666              	chEvtWaitAny:
 667              	.LFB19:
 668              		.loc 1 379 0
 669              		.cfi_startproc
 670              		@ args = 0, pretend = 0, frame = 0
 671              		@ frame_needed = 0, uses_anonymous_args = 0
 672              	.LVL46:
 673 01e0 38B5     		push	{r3, r4, r5, lr}
 674              		.cfi_def_cfa_offset 16
 675              		.cfi_offset 3, -16
 676              		.cfi_offset 4, -12
 677              		.cfi_offset 5, -8
ARM GAS  /tmp/ccLx01V2.s 			page 13


 678              		.cfi_offset 14, -4
 679              		.loc 1 380 0
 680 01e2 0C4B     		ldr	r3, .L53
 681 01e4 9D69     		ldr	r5, [r3, #24]
 682              	.LVL47:
 683              	.LBB24:
 684              		.loc 1 383 0
 685 01e6 2023     		movs	r3, #32
 686              	@ 383 "/d_drive/axoloti/platform_linux/../chibios/os/kernel/src/chevents.c" 1
 687 01e8 83F31188 		msr     BASEPRI, r3
 688              	@ 0 "" 2
 689              		.thumb
 690              	.LBE24:
 691              		.loc 1 385 0
 692 01ec 6B6B     		ldr	r3, [r5, #52]
 693              	.LVL48:
 694 01ee 10EA0304 		ands	r4, r0, r3
 695              	.LVL49:
 696 01f2 06D1     		bne	.L51
 697 01f4 0446     		mov	r4, r0
 698              	.LVL50:
 699              		.loc 1 386 0
 700 01f6 2862     		str	r0, [r5, #32]
 701              		.loc 1 387 0
 702 01f8 0820     		movs	r0, #8
 703              	.LVL51:
 704 01fa FFF7FEFF 		bl	chSchGoSleepS
 705              	.LVL52:
 706              		.loc 1 388 0
 707 01fe 6B6B     		ldr	r3, [r5, #52]
 708 0200 1C40     		ands	r4, r4, r3
 709              	.LVL53:
 710              	.L51:
 711              		.loc 1 390 0
 712 0202 23EA0403 		bic	r3, r3, r4
 713 0206 6B63     		str	r3, [r5, #52]
 714              	.LBB25:
 715              		.loc 1 392 0
 716 0208 0023     		movs	r3, #0
 717              	@ 392 "/d_drive/axoloti/platform_linux/../chibios/os/kernel/src/chevents.c" 1
 718 020a 83F31188 		msr     BASEPRI, r3
 719              	@ 0 "" 2
 720              		.thumb
 721              	.LBE25:
 722              		.loc 1 394 0
 723 020e 2046     		mov	r0, r4
 724 0210 38BD     		pop	{r3, r4, r5, pc}
 725              	.LVL54:
 726              	.L54:
 727 0212 00BF     		.align	2
 728              	.L53:
 729 0214 00000000 		.word	rlist
 730              		.cfi_endproc
 731              	.LFE19:
 732              		.size	chEvtWaitAny, .-chEvtWaitAny
 733              		.align	2
 734 0218 AFF30080 		.p2align 4,,15
ARM GAS  /tmp/ccLx01V2.s 			page 14


 734      AFF30080 
 735              		.global	chEvtWaitAll
 736              		.thumb
 737              		.thumb_func
 738              		.type	chEvtWaitAll, %function
 739              	chEvtWaitAll:
 740              	.LFB20:
 741              		.loc 1 407 0
 742              		.cfi_startproc
 743              		@ args = 0, pretend = 0, frame = 0
 744              		@ frame_needed = 0, uses_anonymous_args = 0
 745              	.LVL55:
 746 0220 38B5     		push	{r3, r4, r5, lr}
 747              		.cfi_def_cfa_offset 16
 748              		.cfi_offset 3, -16
 749              		.cfi_offset 4, -12
 750              		.cfi_offset 5, -8
 751              		.cfi_offset 14, -4
 752              		.loc 1 408 0
 753 0222 0C4B     		ldr	r3, .L58
 754              		.loc 1 407 0
 755 0224 0446     		mov	r4, r0
 756              		.loc 1 408 0
 757 0226 9D69     		ldr	r5, [r3, #24]
 758              	.LVL56:
 759              	.LBB26:
 760              		.loc 1 410 0
 761 0228 2023     		movs	r3, #32
 762              	@ 410 "/d_drive/axoloti/platform_linux/../chibios/os/kernel/src/chevents.c" 1
 763 022a 83F31188 		msr     BASEPRI, r3
 764              	@ 0 "" 2
 765              		.thumb
 766              	.LBE26:
 767              		.loc 1 412 0
 768 022e 6B6B     		ldr	r3, [r5, #52]
 769 0230 00EA0302 		and	r2, r0, r3
 770 0234 8242     		cmp	r2, r0
 771 0236 04D0     		beq	.L56
 772              		.loc 1 413 0
 773 0238 2862     		str	r0, [r5, #32]
 774              		.loc 1 414 0
 775 023a 0920     		movs	r0, #9
 776              	.LVL57:
 777 023c FFF7FEFF 		bl	chSchGoSleepS
 778              	.LVL58:
 779 0240 6B6B     		ldr	r3, [r5, #52]
 780              	.L56:
 781              		.loc 1 416 0
 782 0242 23EA0403 		bic	r3, r3, r4
 783 0246 6B63     		str	r3, [r5, #52]
 784              	.LBB27:
 785              		.loc 1 418 0
 786 0248 0023     		movs	r3, #0
 787              	@ 418 "/d_drive/axoloti/platform_linux/../chibios/os/kernel/src/chevents.c" 1
 788 024a 83F31188 		msr     BASEPRI, r3
 789              	@ 0 "" 2
 790              		.thumb
ARM GAS  /tmp/ccLx01V2.s 			page 15


 791              	.LBE27:
 792              		.loc 1 420 0
 793 024e 2046     		mov	r0, r4
 794 0250 38BD     		pop	{r3, r4, r5, pc}
 795              	.LVL59:
 796              	.L59:
 797 0252 00BF     		.align	2
 798              	.L58:
 799 0254 00000000 		.word	rlist
 800              		.cfi_endproc
 801              	.LFE20:
 802              		.size	chEvtWaitAll, .-chEvtWaitAll
 803              		.align	2
 804 0258 AFF30080 		.p2align 4,,15
 804      AFF30080 
 805              		.global	chEvtWaitOneTimeout
 806              		.thumb
 807              		.thumb_func
 808              		.type	chEvtWaitOneTimeout, %function
 809              	chEvtWaitOneTimeout:
 810              	.LFB21:
 811              		.loc 1 446 0
 812              		.cfi_startproc
 813              		@ args = 0, pretend = 0, frame = 0
 814              		@ frame_needed = 0, uses_anonymous_args = 0
 815              	.LVL60:
 816              		.loc 1 447 0
 817 0260 134B     		ldr	r3, .L67
 818              		.loc 1 446 0
 819 0262 70B5     		push	{r4, r5, r6, lr}
 820              		.cfi_def_cfa_offset 16
 821              		.cfi_offset 4, -16
 822              		.cfi_offset 5, -12
 823              		.cfi_offset 6, -8
 824              		.cfi_offset 14, -4
 825              		.loc 1 447 0
 826 0264 9E69     		ldr	r6, [r3, #24]
 827              	.LVL61:
 828              	.LBB28:
 829              		.loc 1 450 0
 830 0266 2023     		movs	r3, #32
 831              	@ 450 "/d_drive/axoloti/platform_linux/../chibios/os/kernel/src/chevents.c" 1
 832 0268 83F31188 		msr     BASEPRI, r3
 833              	@ 0 "" 2
 834              		.thumb
 835              	.LBE28:
 836              		.loc 1 452 0
 837 026c 726B     		ldr	r2, [r6, #52]
 838              	.LVL62:
 839 026e 10EA0204 		ands	r4, r0, r2
 840              	.LVL63:
 841 0272 0FD1     		bne	.L61
 842              		.loc 1 453 0
 843 0274 21B9     		cbnz	r1, .L62
 844              	.LBB29:
 845              		.loc 1 454 0
 846 0276 0B46     		mov	r3, r1
ARM GAS  /tmp/ccLx01V2.s 			page 16


 847              	@ 454 "/d_drive/axoloti/platform_linux/../chibios/os/kernel/src/chevents.c" 1
 848 0278 83F31188 		msr     BASEPRI, r3
 849              	@ 0 "" 2
 850              		.thumb
 851              	.LBE29:
 852              		.loc 1 455 0
 853 027c 0846     		mov	r0, r1
 854              	.LVL64:
 855 027e 70BD     		pop	{r4, r5, r6, pc}
 856              	.LVL65:
 857              	.L62:
 858              		.loc 1 457 0
 859 0280 3062     		str	r0, [r6, #32]
 860 0282 0546     		mov	r5, r0
 861              		.loc 1 458 0
 862 0284 0820     		movs	r0, #8
 863              	.LVL66:
 864 0286 FFF7FEFF 		bl	chSchGoSleepTimeoutS
 865              	.LVL67:
 866 028a 0028     		cmp	r0, #0
 867 028c 0BDB     		blt	.L66
 868              		.loc 1 462 0
 869 028e 726B     		ldr	r2, [r6, #52]
 870 0290 05EA0204 		and	r4, r5, r2
 871              	.LVL68:
 872              	.L61:
 873              		.loc 1 464 0
 874 0294 6042     		negs	r0, r4
 875 0296 2040     		ands	r0, r0, r4
 876              	.LVL69:
 877              		.loc 1 465 0
 878 0298 22EA0002 		bic	r2, r2, r0
 879 029c 7263     		str	r2, [r6, #52]
 880              	.LBB30:
 881              		.loc 1 467 0
 882 029e 0023     		movs	r3, #0
 883              	@ 467 "/d_drive/axoloti/platform_linux/../chibios/os/kernel/src/chevents.c" 1
 884 02a0 83F31188 		msr     BASEPRI, r3
 885              	@ 0 "" 2
 886              		.thumb
 887              	.LBE30:
 888              		.loc 1 469 0
 889 02a4 70BD     		pop	{r4, r5, r6, pc}
 890              	.LVL70:
 891              	.L66:
 892              	.LBB31:
 893              		.loc 1 459 0
 894 02a6 2346     		mov	r3, r4
 895              	@ 459 "/d_drive/axoloti/platform_linux/../chibios/os/kernel/src/chevents.c" 1
 896 02a8 83F31188 		msr     BASEPRI, r3
 897              	@ 0 "" 2
 898              		.thumb
 899              	.LBE31:
 900              		.loc 1 460 0
 901 02ac 2046     		mov	r0, r4
 902 02ae 70BD     		pop	{r4, r5, r6, pc}
 903              	.LVL71:
ARM GAS  /tmp/ccLx01V2.s 			page 17


 904              	.L68:
 905              		.align	2
 906              	.L67:
 907 02b0 00000000 		.word	rlist
 908              		.cfi_endproc
 909              	.LFE21:
 910              		.size	chEvtWaitOneTimeout, .-chEvtWaitOneTimeout
 911              		.align	2
 912 02b4 AFF30080 		.p2align 4,,15
 912      AFF30080 
 912      AFF30080 
 913              		.global	chEvtWaitAnyTimeout
 914              		.thumb
 915              		.thumb_func
 916              		.type	chEvtWaitAnyTimeout, %function
 917              	chEvtWaitAnyTimeout:
 918              	.LFB22:
 919              		.loc 1 489 0
 920              		.cfi_startproc
 921              		@ args = 0, pretend = 0, frame = 0
 922              		@ frame_needed = 0, uses_anonymous_args = 0
 923              	.LVL72:
 924              		.loc 1 490 0
 925 02c0 134B     		ldr	r3, .L76
 926              		.loc 1 489 0
 927 02c2 70B5     		push	{r4, r5, r6, lr}
 928              		.cfi_def_cfa_offset 16
 929              		.cfi_offset 4, -16
 930              		.cfi_offset 5, -12
 931              		.cfi_offset 6, -8
 932              		.cfi_offset 14, -4
 933              		.loc 1 490 0
 934 02c4 9E69     		ldr	r6, [r3, #24]
 935              	.LVL73:
 936              	.LBB32:
 937              		.loc 1 493 0
 938 02c6 2023     		movs	r3, #32
 939              	@ 493 "/d_drive/axoloti/platform_linux/../chibios/os/kernel/src/chevents.c" 1
 940 02c8 83F31188 		msr     BASEPRI, r3
 941              	@ 0 "" 2
 942              		.thumb
 943              	.LBE32:
 944              		.loc 1 495 0
 945 02cc 726B     		ldr	r2, [r6, #52]
 946              	.LVL74:
 947 02ce 10EA0204 		ands	r4, r0, r2
 948              	.LVL75:
 949 02d2 0FD1     		bne	.L70
 950              		.loc 1 496 0
 951 02d4 21B9     		cbnz	r1, .L71
 952              	.LBB33:
 953              		.loc 1 497 0
 954 02d6 0B46     		mov	r3, r1
 955              	@ 497 "/d_drive/axoloti/platform_linux/../chibios/os/kernel/src/chevents.c" 1
 956 02d8 83F31188 		msr     BASEPRI, r3
 957              	@ 0 "" 2
 958              		.thumb
ARM GAS  /tmp/ccLx01V2.s 			page 18


 959              	.LBE33:
 960              		.loc 1 498 0
 961 02dc 0846     		mov	r0, r1
 962              	.LVL76:
 963 02de 70BD     		pop	{r4, r5, r6, pc}
 964              	.LVL77:
 965              	.L71:
 966              		.loc 1 500 0
 967 02e0 3062     		str	r0, [r6, #32]
 968 02e2 0546     		mov	r5, r0
 969              		.loc 1 501 0
 970 02e4 0820     		movs	r0, #8
 971              	.LVL78:
 972 02e6 FFF7FEFF 		bl	chSchGoSleepTimeoutS
 973              	.LVL79:
 974 02ea 0028     		cmp	r0, #0
 975 02ec 0ADB     		blt	.L75
 976              		.loc 1 505 0
 977 02ee 726B     		ldr	r2, [r6, #52]
 978 02f0 05EA0204 		and	r4, r5, r2
 979              	.LVL80:
 980              	.L70:
 981              		.loc 1 507 0
 982 02f4 22EA0402 		bic	r2, r2, r4
 983 02f8 7263     		str	r2, [r6, #52]
 984              	.LBB34:
 985              		.loc 1 509 0
 986 02fa 0023     		movs	r3, #0
 987              	@ 509 "/d_drive/axoloti/platform_linux/../chibios/os/kernel/src/chevents.c" 1
 988 02fc 83F31188 		msr     BASEPRI, r3
 989              	@ 0 "" 2
 990              		.thumb
 991              	.LBE34:
 992              		.loc 1 510 0
 993 0300 2046     		mov	r0, r4
 994              		.loc 1 511 0
 995 0302 70BD     		pop	{r4, r5, r6, pc}
 996              	.LVL81:
 997              	.L75:
 998              	.LBB35:
 999              		.loc 1 502 0
 1000 0304 2346     		mov	r3, r4
 1001              	@ 502 "/d_drive/axoloti/platform_linux/../chibios/os/kernel/src/chevents.c" 1
 1002 0306 83F31188 		msr     BASEPRI, r3
 1003              	@ 0 "" 2
 1004              		.thumb
 1005              	.LBE35:
 1006              		.loc 1 503 0
 1007 030a 2046     		mov	r0, r4
 1008 030c 70BD     		pop	{r4, r5, r6, pc}
 1009              	.LVL82:
 1010              	.L77:
 1011 030e 00BF     		.align	2
 1012              	.L76:
 1013 0310 00000000 		.word	rlist
 1014              		.cfi_endproc
 1015              	.LFE22:
ARM GAS  /tmp/ccLx01V2.s 			page 19


 1016              		.size	chEvtWaitAnyTimeout, .-chEvtWaitAnyTimeout
 1017              		.align	2
 1018 0314 AFF30080 		.p2align 4,,15
 1018      AFF30080 
 1018      AFF30080 
 1019              		.global	chEvtWaitAllTimeout
 1020              		.thumb
 1021              		.thumb_func
 1022              		.type	chEvtWaitAllTimeout, %function
 1023              	chEvtWaitAllTimeout:
 1024              	.LFB23:
 1025              		.loc 1 530 0
 1026              		.cfi_startproc
 1027              		@ args = 0, pretend = 0, frame = 0
 1028              		@ frame_needed = 0, uses_anonymous_args = 0
 1029              	.LVL83:
 1030 0320 38B5     		push	{r3, r4, r5, lr}
 1031              		.cfi_def_cfa_offset 16
 1032              		.cfi_offset 3, -16
 1033              		.cfi_offset 4, -12
 1034              		.cfi_offset 5, -8
 1035              		.cfi_offset 14, -4
 1036              		.loc 1 531 0
 1037 0322 124B     		ldr	r3, .L84
 1038              		.loc 1 530 0
 1039 0324 0446     		mov	r4, r0
 1040              		.loc 1 531 0
 1041 0326 9D69     		ldr	r5, [r3, #24]
 1042              	.LVL84:
 1043              	.LBB36:
 1044              		.loc 1 533 0
 1045 0328 2023     		movs	r3, #32
 1046              	@ 533 "/d_drive/axoloti/platform_linux/../chibios/os/kernel/src/chevents.c" 1
 1047 032a 83F31188 		msr     BASEPRI, r3
 1048              	@ 0 "" 2
 1049              		.thumb
 1050              	.LBE36:
 1051              		.loc 1 535 0
 1052 032e 6B6B     		ldr	r3, [r5, #52]
 1053 0330 1840     		ands	r0, r0, r3
 1054              	.LVL85:
 1055 0332 A042     		cmp	r0, r4
 1056 0334 0CD0     		beq	.L79
 1057              		.loc 1 536 0
 1058 0336 21B9     		cbnz	r1, .L80
 1059              	.LBB37:
 1060              		.loc 1 537 0
 1061 0338 0B46     		mov	r3, r1
 1062              	@ 537 "/d_drive/axoloti/platform_linux/../chibios/os/kernel/src/chevents.c" 1
 1063 033a 83F31188 		msr     BASEPRI, r3
 1064              	@ 0 "" 2
 1065              		.thumb
 1066              	.LBE37:
 1067              		.loc 1 538 0
 1068 033e 0846     		mov	r0, r1
 1069 0340 38BD     		pop	{r3, r4, r5, pc}
 1070              	.LVL86:
ARM GAS  /tmp/ccLx01V2.s 			page 20


 1071              	.L80:
 1072              		.loc 1 540 0
 1073 0342 2C62     		str	r4, [r5, #32]
 1074              		.loc 1 541 0
 1075 0344 0920     		movs	r0, #9
 1076 0346 FFF7FEFF 		bl	chSchGoSleepTimeoutS
 1077              	.LVL87:
 1078 034a 0028     		cmp	r0, #0
 1079 034c 08DB     		blt	.L82
 1080 034e 6B6B     		ldr	r3, [r5, #52]
 1081              	.L79:
 1082              		.loc 1 546 0
 1083 0350 23EA0403 		bic	r3, r3, r4
 1084 0354 6B63     		str	r3, [r5, #52]
 1085              	.LBB38:
 1086              		.loc 1 548 0
 1087 0356 0023     		movs	r3, #0
 1088              	@ 548 "/d_drive/axoloti/platform_linux/../chibios/os/kernel/src/chevents.c" 1
 1089 0358 83F31188 		msr     BASEPRI, r3
 1090              	@ 0 "" 2
 1091              		.thumb
 1092              	.LBE38:
 1093              		.loc 1 549 0
 1094 035c 2046     		mov	r0, r4
 1095              		.loc 1 550 0
 1096 035e 38BD     		pop	{r3, r4, r5, pc}
 1097              	.LVL88:
 1098              	.L82:
 1099              	.LBB39:
 1100              		.loc 1 542 0
 1101 0360 0023     		movs	r3, #0
 1102              	@ 542 "/d_drive/axoloti/platform_linux/../chibios/os/kernel/src/chevents.c" 1
 1103 0362 83F31188 		msr     BASEPRI, r3
 1104              	@ 0 "" 2
 1105              		.thumb
 1106              	.LBE39:
 1107              		.loc 1 543 0
 1108 0366 1846     		mov	r0, r3
 1109 0368 38BD     		pop	{r3, r4, r5, pc}
 1110              	.LVL89:
 1111              	.L85:
 1112 036a 00BF     		.align	2
 1113              	.L84:
 1114 036c 00000000 		.word	rlist
 1115              		.cfi_endproc
 1116              	.LFE23:
 1117              		.size	chEvtWaitAllTimeout, .-chEvtWaitAllTimeout
 1118              	.Letext0:
 1119              		.file 2 "/d_drive/axoloti/platform_linux/arm-none-eabi/include/machine/_default_types.h"
 1120              		.file 3 "/d_drive/axoloti/platform_linux/arm-none-eabi/include/sys/_stdint.h"
 1121              		.file 4 "/d_drive/axoloti/platform_linux/../chibios/os/ports/GCC/ARMCMx/chtypes.h"
 1122              		.file 5 "/d_drive/axoloti/platform_linux/../chibios/os/kernel/include/chlists.h"
 1123              		.file 6 "/d_drive/axoloti/platform_linux/../chibios/os/kernel/include/chthreads.h"
 1124              		.file 7 "/d_drive/axoloti/platform_linux/../chibios/os/ports/GCC/ARMCMx/chcore_v7m.h"
 1125              		.file 8 "/d_drive/axoloti/platform_linux/../chibios/os/kernel/include/chschd.h"
 1126              		.file 9 "/d_drive/axoloti/platform_linux/../chibios/os/kernel/include/chmtx.h"
 1127              		.file 10 "/d_drive/axoloti/platform_linux/../chibios/os/kernel/include/chevents.h"
ARM GAS  /tmp/ccLx01V2.s 			page 21


 1128              		.section	.debug_info,"",%progbits
 1129              	.Ldebug_info0:
 1130 0000 290E0000 		.4byte	0xe29
 1131 0004 0400     		.2byte	0x4
 1132 0006 00000000 		.4byte	.Ldebug_abbrev0
 1133 000a 04       		.byte	0x4
 1134 000b 01       		.uleb128 0x1
 1135 000c 3B040000 		.4byte	.LASF95
 1136 0010 01       		.byte	0x1
 1137 0011 1C020000 		.4byte	.LASF96
 1138 0015 00000000 		.4byte	.Ltext0
 1139 0019 70030000 		.4byte	.Letext0-.Ltext0
 1140 001d 00000000 		.4byte	.Ldebug_line0
 1141 0021 02       		.uleb128 0x2
 1142 0022 04       		.byte	0x4
 1143 0023 05       		.byte	0x5
 1144 0024 696E7400 		.ascii	"int\000"
 1145 0028 03       		.uleb128 0x3
 1146 0029 04       		.byte	0x4
 1147 002a 07       		.byte	0x7
 1148 002b 49010000 		.4byte	.LASF0
 1149 002f 03       		.uleb128 0x3
 1150 0030 01       		.byte	0x1
 1151 0031 06       		.byte	0x6
 1152 0032 72000000 		.4byte	.LASF1
 1153 0036 04       		.uleb128 0x4
 1154 0037 0D000000 		.4byte	.LASF5
 1155 003b 02       		.byte	0x2
 1156 003c 1D       		.byte	0x1d
 1157 003d 41000000 		.4byte	0x41
 1158 0041 03       		.uleb128 0x3
 1159 0042 01       		.byte	0x1
 1160 0043 08       		.byte	0x8
 1161 0044 CD020000 		.4byte	.LASF2
 1162 0048 03       		.uleb128 0x3
 1163 0049 02       		.byte	0x2
 1164 004a 05       		.byte	0x5
 1165 004b 07030000 		.4byte	.LASF3
 1166 004f 03       		.uleb128 0x3
 1167 0050 02       		.byte	0x2
 1168 0051 07       		.byte	0x7
 1169 0052 7F010000 		.4byte	.LASF4
 1170 0056 04       		.uleb128 0x4
 1171 0057 B5030000 		.4byte	.LASF6
 1172 005b 02       		.byte	0x2
 1173 005c 3F       		.byte	0x3f
 1174 005d 61000000 		.4byte	0x61
 1175 0061 03       		.uleb128 0x3
 1176 0062 04       		.byte	0x4
 1177 0063 05       		.byte	0x5
 1178 0064 A4000000 		.4byte	.LASF7
 1179 0068 04       		.uleb128 0x4
 1180 0069 FA000000 		.4byte	.LASF8
 1181 006d 02       		.byte	0x2
 1182 006e 41       		.byte	0x41
 1183 006f 73000000 		.4byte	0x73
 1184 0073 03       		.uleb128 0x3
ARM GAS  /tmp/ccLx01V2.s 			page 22


 1185 0074 04       		.byte	0x4
 1186 0075 07       		.byte	0x7
 1187 0076 56010000 		.4byte	.LASF9
 1188 007a 03       		.uleb128 0x3
 1189 007b 08       		.byte	0x8
 1190 007c 05       		.byte	0x5
 1191 007d 64000000 		.4byte	.LASF10
 1192 0081 03       		.uleb128 0x3
 1193 0082 08       		.byte	0x8
 1194 0083 07       		.byte	0x7
 1195 0084 23000000 		.4byte	.LASF11
 1196 0088 04       		.uleb128 0x4
 1197 0089 04040000 		.4byte	.LASF12
 1198 008d 03       		.byte	0x3
 1199 008e 14       		.byte	0x14
 1200 008f 36000000 		.4byte	0x36
 1201 0093 04       		.uleb128 0x4
 1202 0094 C5020000 		.4byte	.LASF13
 1203 0098 03       		.byte	0x3
 1204 0099 1F       		.byte	0x1f
 1205 009a 56000000 		.4byte	0x56
 1206 009e 04       		.uleb128 0x4
 1207 009f 77030000 		.4byte	.LASF14
 1208 00a3 03       		.byte	0x3
 1209 00a4 20       		.byte	0x20
 1210 00a5 68000000 		.4byte	0x68
 1211 00a9 03       		.uleb128 0x3
 1212 00aa 01       		.byte	0x1
 1213 00ab 02       		.byte	0x2
 1214 00ac BF020000 		.4byte	.LASF15
 1215 00b0 04       		.uleb128 0x4
 1216 00b1 CA010000 		.4byte	.LASF16
 1217 00b5 04       		.byte	0x4
 1218 00b6 2C       		.byte	0x2c
 1219 00b7 88000000 		.4byte	0x88
 1220 00bb 04       		.uleb128 0x4
 1221 00bc AD000000 		.4byte	.LASF17
 1222 00c0 04       		.byte	0x4
 1223 00c1 2D       		.byte	0x2d
 1224 00c2 88000000 		.4byte	0x88
 1225 00c6 04       		.uleb128 0x4
 1226 00c7 9A000000 		.4byte	.LASF18
 1227 00cb 04       		.byte	0x4
 1228 00cc 2F       		.byte	0x2f
 1229 00cd 88000000 		.4byte	0x88
 1230 00d1 04       		.uleb128 0x4
 1231 00d2 B7020000 		.4byte	.LASF19
 1232 00d6 04       		.byte	0x4
 1233 00d7 30       		.byte	0x30
 1234 00d8 9E000000 		.4byte	0x9e
 1235 00dc 04       		.uleb128 0x4
 1236 00dd A4010000 		.4byte	.LASF20
 1237 00e1 04       		.byte	0x4
 1238 00e2 31       		.byte	0x31
 1239 00e3 93000000 		.4byte	0x93
 1240 00e7 04       		.uleb128 0x4
 1241 00e8 27010000 		.4byte	.LASF21
ARM GAS  /tmp/ccLx01V2.s 			page 23


 1242 00ec 04       		.byte	0x4
 1243 00ed 32       		.byte	0x32
 1244 00ee 93000000 		.4byte	0x93
 1245 00f2 04       		.uleb128 0x4
 1246 00f3 DE010000 		.4byte	.LASF22
 1247 00f7 04       		.byte	0x4
 1248 00f8 33       		.byte	0x33
 1249 00f9 9E000000 		.4byte	0x9e
 1250 00fd 04       		.uleb128 0x4
 1251 00fe D9030000 		.4byte	.LASF23
 1252 0102 04       		.byte	0x4
 1253 0103 34       		.byte	0x34
 1254 0104 9E000000 		.4byte	0x9e
 1255 0108 04       		.uleb128 0x4
 1256 0109 A0030000 		.4byte	.LASF24
 1257 010d 04       		.byte	0x4
 1258 010e 35       		.byte	0x35
 1259 010f 9E000000 		.4byte	0x9e
 1260 0113 04       		.uleb128 0x4
 1261 0114 57030000 		.4byte	.LASF25
 1262 0118 05       		.byte	0x5
 1263 0119 2A       		.byte	0x2a
 1264 011a 1E010000 		.4byte	0x11e
 1265 011e 05       		.uleb128 0x5
 1266 011f 57030000 		.4byte	.LASF25
 1267 0123 40       		.byte	0x40
 1268 0124 06       		.byte	0x6
 1269 0125 5E       		.byte	0x5e
 1270 0126 F7010000 		.4byte	0x1f7
 1271 012a 06       		.uleb128 0x6
 1272 012b 48030000 		.4byte	.LASF26
 1273 012f 06       		.byte	0x6
 1274 0130 5F       		.byte	0x5f
 1275 0131 18020000 		.4byte	0x218
 1276 0135 00       		.byte	0
 1277 0136 06       		.uleb128 0x6
 1278 0137 B0020000 		.4byte	.LASF27
 1279 013b 06       		.byte	0x6
 1280 013c 61       		.byte	0x61
 1281 013d 18020000 		.4byte	0x218
 1282 0141 04       		.byte	0x4
 1283 0142 06       		.uleb128 0x6
 1284 0143 5D000000 		.4byte	.LASF28
 1285 0147 06       		.byte	0x6
 1286 0148 63       		.byte	0x63
 1287 0149 D1000000 		.4byte	0xd1
 1288 014d 08       		.byte	0x8
 1289 014e 06       		.uleb128 0x6
 1290 014f 52050000 		.4byte	.LASF29
 1291 0153 06       		.byte	0x6
 1292 0154 64       		.byte	0x64
 1293 0155 A2030000 		.4byte	0x3a2
 1294 0159 0C       		.byte	0xc
 1295 015a 06       		.uleb128 0x6
 1296 015b D8000000 		.4byte	.LASF30
 1297 015f 06       		.byte	0x6
 1298 0160 66       		.byte	0x66
ARM GAS  /tmp/ccLx01V2.s 			page 24


 1299 0161 18020000 		.4byte	0x218
 1300 0165 10       		.byte	0x10
 1301 0166 06       		.uleb128 0x6
 1302 0167 60020000 		.4byte	.LASF31
 1303 016b 06       		.byte	0x6
 1304 016c 67       		.byte	0x67
 1305 016d 18020000 		.4byte	0x218
 1306 0171 14       		.byte	0x14
 1307 0172 06       		.uleb128 0x6
 1308 0173 E5030000 		.4byte	.LASF32
 1309 0177 06       		.byte	0x6
 1310 0178 6E       		.byte	0x6e
 1311 0179 2B050000 		.4byte	0x52b
 1312 017d 18       		.byte	0x18
 1313 017e 06       		.uleb128 0x6
 1314 017f 11030000 		.4byte	.LASF33
 1315 0183 06       		.byte	0x6
 1316 0184 79       		.byte	0x79
 1317 0185 BB000000 		.4byte	0xbb
 1318 0189 1C       		.byte	0x1c
 1319 018a 06       		.uleb128 0x6
 1320 018b 4F030000 		.4byte	.LASF34
 1321 018f 06       		.byte	0x6
 1322 0190 7D       		.byte	0x7d
 1323 0191 B0000000 		.4byte	0xb0
 1324 0195 1D       		.byte	0x1d
 1325 0196 06       		.uleb128 0x6
 1326 0197 19030000 		.4byte	.LASF35
 1327 019b 06       		.byte	0x6
 1328 019c 88       		.byte	0x88
 1329 019d C6000000 		.4byte	0xc6
 1330 01a1 1E       		.byte	0x1e
 1331 01a2 07       		.uleb128 0x7
 1332 01a3 705F7500 		.ascii	"p_u\000"
 1333 01a7 06       		.byte	0x6
 1334 01a8 B4       		.byte	0xb4
 1335 01a9 F6040000 		.4byte	0x4f6
 1336 01ad 20       		.byte	0x20
 1337 01ae 06       		.uleb128 0x6
 1338 01af 58050000 		.4byte	.LASF36
 1339 01b3 06       		.byte	0x6
 1340 01b4 B9       		.byte	0xb9
 1341 01b5 3E020000 		.4byte	0x23e
 1342 01b9 24       		.byte	0x24
 1343 01ba 06       		.uleb128 0x6
 1344 01bb CE030000 		.4byte	.LASF37
 1345 01bf 06       		.byte	0x6
 1346 01c0 BF       		.byte	0xbf
 1347 01c1 1E020000 		.4byte	0x21e
 1348 01c5 28       		.byte	0x28
 1349 01c6 06       		.uleb128 0x6
 1350 01c7 00000000 		.4byte	.LASF38
 1351 01cb 06       		.byte	0x6
 1352 01cc C3       		.byte	0xc3
 1353 01cd DC000000 		.4byte	0xdc
 1354 01d1 30       		.byte	0x30
 1355 01d2 06       		.uleb128 0x6
ARM GAS  /tmp/ccLx01V2.s 			page 25


 1356 01d3 6C030000 		.4byte	.LASF39
 1357 01d7 06       		.byte	0x6
 1358 01d8 C9       		.byte	0xc9
 1359 01d9 F2000000 		.4byte	0xf2
 1360 01dd 34       		.byte	0x34
 1361 01de 06       		.uleb128 0x6
 1362 01df FD020000 		.4byte	.LASF40
 1363 01e3 06       		.byte	0x6
 1364 01e4 D0       		.byte	0xd0
 1365 01e5 3D050000 		.4byte	0x53d
 1366 01e9 38       		.byte	0x38
 1367 01ea 06       		.uleb128 0x6
 1368 01eb AA030000 		.4byte	.LASF41
 1369 01ef 06       		.byte	0x6
 1370 01f0 D4       		.byte	0xd4
 1371 01f1 D1000000 		.4byte	0xd1
 1372 01f5 3C       		.byte	0x3c
 1373 01f6 00       		.byte	0
 1374 01f7 08       		.uleb128 0x8
 1375 01f8 08       		.byte	0x8
 1376 01f9 05       		.byte	0x5
 1377 01fa 61       		.byte	0x61
 1378 01fb 18020000 		.4byte	0x218
 1379 01ff 06       		.uleb128 0x6
 1380 0200 48030000 		.4byte	.LASF26
 1381 0204 05       		.byte	0x5
 1382 0205 62       		.byte	0x62
 1383 0206 18020000 		.4byte	0x218
 1384 020a 00       		.byte	0
 1385 020b 06       		.uleb128 0x6
 1386 020c B0020000 		.4byte	.LASF27
 1387 0210 05       		.byte	0x5
 1388 0211 64       		.byte	0x64
 1389 0212 18020000 		.4byte	0x218
 1390 0216 04       		.byte	0x4
 1391 0217 00       		.byte	0
 1392 0218 09       		.uleb128 0x9
 1393 0219 04       		.byte	0x4
 1394 021a 13010000 		.4byte	0x113
 1395 021e 04       		.uleb128 0x4
 1396 021f 6E020000 		.4byte	.LASF42
 1397 0223 05       		.byte	0x5
 1398 0224 66       		.byte	0x66
 1399 0225 F7010000 		.4byte	0x1f7
 1400 0229 08       		.uleb128 0x8
 1401 022a 04       		.byte	0x4
 1402 022b 05       		.byte	0x5
 1403 022c 6B       		.byte	0x6b
 1404 022d 3E020000 		.4byte	0x23e
 1405 0231 06       		.uleb128 0x6
 1406 0232 48030000 		.4byte	.LASF26
 1407 0236 05       		.byte	0x5
 1408 0237 6D       		.byte	0x6d
 1409 0238 18020000 		.4byte	0x218
 1410 023c 00       		.byte	0
 1411 023d 00       		.byte	0
 1412 023e 04       		.uleb128 0x4
ARM GAS  /tmp/ccLx01V2.s 			page 26


 1413 023f D2010000 		.4byte	.LASF43
 1414 0243 05       		.byte	0x5
 1415 0244 70       		.byte	0x70
 1416 0245 29020000 		.4byte	0x229
 1417 0249 04       		.uleb128 0x4
 1418 024a 0A010000 		.4byte	.LASF44
 1419 024e 07       		.byte	0x7
 1420 024f E5       		.byte	0xe5
 1421 0250 54020000 		.4byte	0x254
 1422 0254 0A       		.uleb128 0xa
 1423 0255 04       		.byte	0x4
 1424 0256 0B       		.uleb128 0xb
 1425 0257 C7030000 		.4byte	.LASF45
 1426 025b 64       		.byte	0x64
 1427 025c 07       		.byte	0x7
 1428 025d 0C01     		.2byte	0x10c
 1429 025f A2030000 		.4byte	0x3a2
 1430 0263 0C       		.uleb128 0xc
 1431 0264 73313600 		.ascii	"s16\000"
 1432 0268 07       		.byte	0x7
 1433 0269 0E01     		.2byte	0x10e
 1434 026b 49020000 		.4byte	0x249
 1435 026f 00       		.byte	0
 1436 0270 0C       		.uleb128 0xc
 1437 0271 73313700 		.ascii	"s17\000"
 1438 0275 07       		.byte	0x7
 1439 0276 0F01     		.2byte	0x10f
 1440 0278 49020000 		.4byte	0x249
 1441 027c 04       		.byte	0x4
 1442 027d 0C       		.uleb128 0xc
 1443 027e 73313800 		.ascii	"s18\000"
 1444 0282 07       		.byte	0x7
 1445 0283 1001     		.2byte	0x110
 1446 0285 49020000 		.4byte	0x249
 1447 0289 08       		.byte	0x8
 1448 028a 0C       		.uleb128 0xc
 1449 028b 73313900 		.ascii	"s19\000"
 1450 028f 07       		.byte	0x7
 1451 0290 1101     		.2byte	0x111
 1452 0292 49020000 		.4byte	0x249
 1453 0296 0C       		.byte	0xc
 1454 0297 0C       		.uleb128 0xc
 1455 0298 73323000 		.ascii	"s20\000"
 1456 029c 07       		.byte	0x7
 1457 029d 1201     		.2byte	0x112
 1458 029f 49020000 		.4byte	0x249
 1459 02a3 10       		.byte	0x10
 1460 02a4 0C       		.uleb128 0xc
 1461 02a5 73323100 		.ascii	"s21\000"
 1462 02a9 07       		.byte	0x7
 1463 02aa 1301     		.2byte	0x113
 1464 02ac 49020000 		.4byte	0x249
 1465 02b0 14       		.byte	0x14
 1466 02b1 0C       		.uleb128 0xc
 1467 02b2 73323200 		.ascii	"s22\000"
 1468 02b6 07       		.byte	0x7
 1469 02b7 1401     		.2byte	0x114
ARM GAS  /tmp/ccLx01V2.s 			page 27


 1470 02b9 49020000 		.4byte	0x249
 1471 02bd 18       		.byte	0x18
 1472 02be 0C       		.uleb128 0xc
 1473 02bf 73323300 		.ascii	"s23\000"
 1474 02c3 07       		.byte	0x7
 1475 02c4 1501     		.2byte	0x115
 1476 02c6 49020000 		.4byte	0x249
 1477 02ca 1C       		.byte	0x1c
 1478 02cb 0C       		.uleb128 0xc
 1479 02cc 73323400 		.ascii	"s24\000"
 1480 02d0 07       		.byte	0x7
 1481 02d1 1601     		.2byte	0x116
 1482 02d3 49020000 		.4byte	0x249
 1483 02d7 20       		.byte	0x20
 1484 02d8 0C       		.uleb128 0xc
 1485 02d9 73323500 		.ascii	"s25\000"
 1486 02dd 07       		.byte	0x7
 1487 02de 1701     		.2byte	0x117
 1488 02e0 49020000 		.4byte	0x249
 1489 02e4 24       		.byte	0x24
 1490 02e5 0C       		.uleb128 0xc
 1491 02e6 73323600 		.ascii	"s26\000"
 1492 02ea 07       		.byte	0x7
 1493 02eb 1801     		.2byte	0x118
 1494 02ed 49020000 		.4byte	0x249
 1495 02f1 28       		.byte	0x28
 1496 02f2 0C       		.uleb128 0xc
 1497 02f3 73323700 		.ascii	"s27\000"
 1498 02f7 07       		.byte	0x7
 1499 02f8 1901     		.2byte	0x119
 1500 02fa 49020000 		.4byte	0x249
 1501 02fe 2C       		.byte	0x2c
 1502 02ff 0C       		.uleb128 0xc
 1503 0300 73323800 		.ascii	"s28\000"
 1504 0304 07       		.byte	0x7
 1505 0305 1A01     		.2byte	0x11a
 1506 0307 49020000 		.4byte	0x249
 1507 030b 30       		.byte	0x30
 1508 030c 0C       		.uleb128 0xc
 1509 030d 73323900 		.ascii	"s29\000"
 1510 0311 07       		.byte	0x7
 1511 0312 1B01     		.2byte	0x11b
 1512 0314 49020000 		.4byte	0x249
 1513 0318 34       		.byte	0x34
 1514 0319 0C       		.uleb128 0xc
 1515 031a 73333000 		.ascii	"s30\000"
 1516 031e 07       		.byte	0x7
 1517 031f 1C01     		.2byte	0x11c
 1518 0321 49020000 		.4byte	0x249
 1519 0325 38       		.byte	0x38
 1520 0326 0C       		.uleb128 0xc
 1521 0327 73333100 		.ascii	"s31\000"
 1522 032b 07       		.byte	0x7
 1523 032c 1D01     		.2byte	0x11d
 1524 032e 49020000 		.4byte	0x249
 1525 0332 3C       		.byte	0x3c
 1526 0333 0C       		.uleb128 0xc
ARM GAS  /tmp/ccLx01V2.s 			page 28


 1527 0334 723400   		.ascii	"r4\000"
 1528 0337 07       		.byte	0x7
 1529 0338 1F01     		.2byte	0x11f
 1530 033a 49020000 		.4byte	0x249
 1531 033e 40       		.byte	0x40
 1532 033f 0C       		.uleb128 0xc
 1533 0340 723500   		.ascii	"r5\000"
 1534 0343 07       		.byte	0x7
 1535 0344 2001     		.2byte	0x120
 1536 0346 49020000 		.4byte	0x249
 1537 034a 44       		.byte	0x44
 1538 034b 0C       		.uleb128 0xc
 1539 034c 723600   		.ascii	"r6\000"
 1540 034f 07       		.byte	0x7
 1541 0350 2101     		.2byte	0x121
 1542 0352 49020000 		.4byte	0x249
 1543 0356 48       		.byte	0x48
 1544 0357 0C       		.uleb128 0xc
 1545 0358 723700   		.ascii	"r7\000"
 1546 035b 07       		.byte	0x7
 1547 035c 2201     		.2byte	0x122
 1548 035e 49020000 		.4byte	0x249
 1549 0362 4C       		.byte	0x4c
 1550 0363 0C       		.uleb128 0xc
 1551 0364 723800   		.ascii	"r8\000"
 1552 0367 07       		.byte	0x7
 1553 0368 2301     		.2byte	0x123
 1554 036a 49020000 		.4byte	0x249
 1555 036e 50       		.byte	0x50
 1556 036f 0C       		.uleb128 0xc
 1557 0370 723900   		.ascii	"r9\000"
 1558 0373 07       		.byte	0x7
 1559 0374 2401     		.2byte	0x124
 1560 0376 49020000 		.4byte	0x249
 1561 037a 54       		.byte	0x54
 1562 037b 0C       		.uleb128 0xc
 1563 037c 72313000 		.ascii	"r10\000"
 1564 0380 07       		.byte	0x7
 1565 0381 2501     		.2byte	0x125
 1566 0383 49020000 		.4byte	0x249
 1567 0387 58       		.byte	0x58
 1568 0388 0C       		.uleb128 0xc
 1569 0389 72313100 		.ascii	"r11\000"
 1570 038d 07       		.byte	0x7
 1571 038e 2601     		.2byte	0x126
 1572 0390 49020000 		.4byte	0x249
 1573 0394 5C       		.byte	0x5c
 1574 0395 0C       		.uleb128 0xc
 1575 0396 6C7200   		.ascii	"lr\000"
 1576 0399 07       		.byte	0x7
 1577 039a 2701     		.2byte	0x127
 1578 039c 49020000 		.4byte	0x249
 1579 03a0 60       		.byte	0x60
 1580 03a1 00       		.byte	0
 1581 03a2 0B       		.uleb128 0xb
 1582 03a3 BF030000 		.4byte	.LASF46
 1583 03a7 04       		.byte	0x4
ARM GAS  /tmp/ccLx01V2.s 			page 29


 1584 03a8 07       		.byte	0x7
 1585 03a9 3101     		.2byte	0x131
 1586 03ab BD030000 		.4byte	0x3bd
 1587 03af 0C       		.uleb128 0xc
 1588 03b0 72313300 		.ascii	"r13\000"
 1589 03b4 07       		.byte	0x7
 1590 03b5 3201     		.2byte	0x132
 1591 03b7 BD030000 		.4byte	0x3bd
 1592 03bb 00       		.byte	0
 1593 03bc 00       		.byte	0
 1594 03bd 09       		.uleb128 0x9
 1595 03be 04       		.byte	0x4
 1596 03bf 56020000 		.4byte	0x256
 1597 03c3 03       		.uleb128 0x3
 1598 03c4 04       		.byte	0x4
 1599 03c5 07       		.byte	0x7
 1600 03c6 F0010000 		.4byte	.LASF47
 1601 03ca 08       		.uleb128 0x8
 1602 03cb 1C       		.byte	0x1c
 1603 03cc 08       		.byte	0x8
 1604 03cd 5E       		.byte	0x5e
 1605 03ce 1B040000 		.4byte	0x41b
 1606 03d2 06       		.uleb128 0x6
 1607 03d3 80030000 		.4byte	.LASF48
 1608 03d7 08       		.byte	0x8
 1609 03d8 5F       		.byte	0x5f
 1610 03d9 1E020000 		.4byte	0x21e
 1611 03dd 00       		.byte	0
 1612 03de 06       		.uleb128 0x6
 1613 03df 23030000 		.4byte	.LASF49
 1614 03e3 08       		.byte	0x8
 1615 03e4 60       		.byte	0x60
 1616 03e5 D1000000 		.4byte	0xd1
 1617 03e9 08       		.byte	0x8
 1618 03ea 06       		.uleb128 0x6
 1619 03eb 68020000 		.4byte	.LASF50
 1620 03ef 08       		.byte	0x8
 1621 03f0 62       		.byte	0x62
 1622 03f1 A2030000 		.4byte	0x3a2
 1623 03f5 0C       		.byte	0xc
 1624 03f6 06       		.uleb128 0x6
 1625 03f7 AA010000 		.4byte	.LASF51
 1626 03fb 08       		.byte	0x8
 1627 03fc 65       		.byte	0x65
 1628 03fd 18020000 		.4byte	0x218
 1629 0401 10       		.byte	0x10
 1630 0402 06       		.uleb128 0x6
 1631 0403 97020000 		.4byte	.LASF52
 1632 0407 08       		.byte	0x8
 1633 0408 66       		.byte	0x66
 1634 0409 18020000 		.4byte	0x218
 1635 040d 14       		.byte	0x14
 1636 040e 06       		.uleb128 0x6
 1637 040f 8D020000 		.4byte	.LASF53
 1638 0413 08       		.byte	0x8
 1639 0414 69       		.byte	0x69
 1640 0415 18020000 		.4byte	0x218
ARM GAS  /tmp/ccLx01V2.s 			page 30


 1641 0419 18       		.byte	0x18
 1642 041a 00       		.byte	0
 1643 041b 04       		.uleb128 0x4
 1644 041c F4030000 		.4byte	.LASF54
 1645 0420 08       		.byte	0x8
 1646 0421 6B       		.byte	0x6b
 1647 0422 CA030000 		.4byte	0x3ca
 1648 0426 05       		.uleb128 0x5
 1649 0427 EA010000 		.4byte	.LASF55
 1650 042b 10       		.byte	0x10
 1651 042c 09       		.byte	0x9
 1652 042d 2C       		.byte	0x2c
 1653 042e 57040000 		.4byte	0x457
 1654 0432 06       		.uleb128 0x6
 1655 0433 92000000 		.4byte	.LASF56
 1656 0437 09       		.byte	0x9
 1657 0438 2D       		.byte	0x2d
 1658 0439 1E020000 		.4byte	0x21e
 1659 043d 00       		.byte	0
 1660 043e 06       		.uleb128 0x6
 1661 043f 4A050000 		.4byte	.LASF57
 1662 0443 09       		.byte	0x9
 1663 0444 2F       		.byte	0x2f
 1664 0445 18020000 		.4byte	0x218
 1665 0449 08       		.byte	0x8
 1666 044a 06       		.uleb128 0x6
 1667 044b 99030000 		.4byte	.LASF58
 1668 044f 09       		.byte	0x9
 1669 0450 31       		.byte	0x31
 1670 0451 57040000 		.4byte	0x457
 1671 0455 0C       		.byte	0xc
 1672 0456 00       		.byte	0
 1673 0457 09       		.uleb128 0x9
 1674 0458 04       		.byte	0x4
 1675 0459 26040000 		.4byte	0x426
 1676 045d 04       		.uleb128 0x4
 1677 045e EA010000 		.4byte	.LASF55
 1678 0462 09       		.byte	0x9
 1679 0463 33       		.byte	0x33
 1680 0464 26040000 		.4byte	0x426
 1681 0468 04       		.uleb128 0x4
 1682 0469 12040000 		.4byte	.LASF59
 1683 046d 0A       		.byte	0xa
 1684 046e 2C       		.byte	0x2c
 1685 046f 73040000 		.4byte	0x473
 1686 0473 05       		.uleb128 0x5
 1687 0474 12040000 		.4byte	.LASF59
 1688 0478 10       		.byte	0x10
 1689 0479 0A       		.byte	0xa
 1690 047a 31       		.byte	0x31
 1691 047b B0040000 		.4byte	0x4b0
 1692 047f 06       		.uleb128 0x6
 1693 0480 B2010000 		.4byte	.LASF60
 1694 0484 0A       		.byte	0xa
 1695 0485 32       		.byte	0x32
 1696 0486 B0040000 		.4byte	0x4b0
 1697 048a 00       		.byte	0
ARM GAS  /tmp/ccLx01V2.s 			page 31


 1698 048b 06       		.uleb128 0x6
 1699 048c E8020000 		.4byte	.LASF61
 1700 0490 0A       		.byte	0xa
 1701 0491 35       		.byte	0x35
 1702 0492 18020000 		.4byte	0x218
 1703 0496 04       		.byte	0x4
 1704 0497 06       		.uleb128 0x6
 1705 0498 9F020000 		.4byte	.LASF62
 1706 049c 0A       		.byte	0xa
 1707 049d 37       		.byte	0x37
 1708 049e F2000000 		.4byte	0xf2
 1709 04a2 08       		.byte	0x8
 1710 04a3 06       		.uleb128 0x6
 1711 04a4 F4020000 		.4byte	.LASF63
 1712 04a8 0A       		.byte	0xa
 1713 04a9 3A       		.byte	0x3a
 1714 04aa FD000000 		.4byte	0xfd
 1715 04ae 0C       		.byte	0xc
 1716 04af 00       		.byte	0
 1717 04b0 09       		.uleb128 0x9
 1718 04b1 04       		.byte	0x4
 1719 04b2 68040000 		.4byte	0x468
 1720 04b6 05       		.uleb128 0x5
 1721 04b7 31010000 		.4byte	.LASF64
 1722 04bb 04       		.byte	0x4
 1723 04bc 0A       		.byte	0xa
 1724 04bd 41       		.byte	0x41
 1725 04be CF040000 		.4byte	0x4cf
 1726 04c2 06       		.uleb128 0x6
 1727 04c3 EC030000 		.4byte	.LASF65
 1728 04c7 0A       		.byte	0xa
 1729 04c8 42       		.byte	0x42
 1730 04c9 B0040000 		.4byte	0x4b0
 1731 04cd 00       		.byte	0
 1732 04ce 00       		.byte	0
 1733 04cf 04       		.uleb128 0x4
 1734 04d0 31010000 		.4byte	.LASF64
 1735 04d4 0A       		.byte	0xa
 1736 04d5 45       		.byte	0x45
 1737 04d6 B6040000 		.4byte	0x4b6
 1738 04da 04       		.uleb128 0x4
 1739 04db 3D010000 		.4byte	.LASF66
 1740 04df 0A       		.byte	0xa
 1741 04e0 4A       		.byte	0x4a
 1742 04e1 E5040000 		.4byte	0x4e5
 1743 04e5 09       		.uleb128 0x9
 1744 04e6 04       		.byte	0x4
 1745 04e7 EB040000 		.4byte	0x4eb
 1746 04eb 0D       		.uleb128 0xd
 1747 04ec F6040000 		.4byte	0x4f6
 1748 04f0 0E       		.uleb128 0xe
 1749 04f1 E7000000 		.4byte	0xe7
 1750 04f5 00       		.byte	0
 1751 04f6 0F       		.uleb128 0xf
 1752 04f7 04       		.byte	0x4
 1753 04f8 06       		.byte	0x6
 1754 04f9 96       		.byte	0x96
ARM GAS  /tmp/ccLx01V2.s 			page 32


 1755 04fa 2B050000 		.4byte	0x52b
 1756 04fe 10       		.uleb128 0x10
 1757 04ff 06000000 		.4byte	.LASF67
 1758 0503 06       		.byte	0x6
 1759 0504 9D       		.byte	0x9d
 1760 0505 DC000000 		.4byte	0xdc
 1761 0509 10       		.uleb128 0x10
 1762 050a E0000000 		.4byte	.LASF68
 1763 050e 06       		.byte	0x6
 1764 050f A4       		.byte	0xa4
 1765 0510 DC000000 		.4byte	0xdc
 1766 0514 10       		.uleb128 0x10
 1767 0515 34040000 		.4byte	.LASF69
 1768 0519 06       		.byte	0x6
 1769 051a AB       		.byte	0xab
 1770 051b 54020000 		.4byte	0x254
 1771 051f 10       		.uleb128 0x10
 1772 0520 41030000 		.4byte	.LASF70
 1773 0524 06       		.byte	0x6
 1774 0525 B2       		.byte	0xb2
 1775 0526 F2000000 		.4byte	0xf2
 1776 052a 00       		.byte	0
 1777 052b 09       		.uleb128 0x9
 1778 052c 04       		.byte	0x4
 1779 052d 31050000 		.4byte	0x531
 1780 0531 11       		.uleb128 0x11
 1781 0532 36050000 		.4byte	0x536
 1782 0536 03       		.uleb128 0x3
 1783 0537 01       		.byte	0x1
 1784 0538 08       		.byte	0x8
 1785 0539 88030000 		.4byte	.LASF71
 1786 053d 09       		.uleb128 0x9
 1787 053e 04       		.byte	0x4
 1788 053f 5D040000 		.4byte	0x45d
 1789 0543 12       		.uleb128 0x12
 1790 0544 62050000 		.4byte	.LASF92
 1791 0548 01       		.byte	0x1
 1792 0549 FB       		.byte	0xfb
 1793 054a 01       		.byte	0x1
 1794 054b 65050000 		.4byte	0x565
 1795 054f 13       		.uleb128 0x13
 1796 0550 747000   		.ascii	"tp\000"
 1797 0553 01       		.byte	0x1
 1798 0554 FB       		.byte	0xfb
 1799 0555 18020000 		.4byte	0x218
 1800 0559 14       		.uleb128 0x14
 1801 055a 05010000 		.4byte	.LASF72
 1802 055e 01       		.byte	0x1
 1803 055f FB       		.byte	0xfb
 1804 0560 F2000000 		.4byte	0xf2
 1805 0564 00       		.byte	0
 1806 0565 15       		.uleb128 0x15
 1807 0566 92010000 		.4byte	.LASF73
 1808 056a 01       		.byte	0x1
 1809 056b 55       		.byte	0x55
 1810 056c 00000000 		.4byte	.LFB7
 1811 0570 28000000 		.4byte	.LFE7-.LFB7
ARM GAS  /tmp/ccLx01V2.s 			page 33


 1812 0574 01       		.uleb128 0x1
 1813 0575 9C       		.byte	0x9c
 1814 0576 D0050000 		.4byte	0x5d0
 1815 057a 16       		.uleb128 0x16
 1816 057b 65737000 		.ascii	"esp\000"
 1817 057f 01       		.byte	0x1
 1818 0580 55       		.byte	0x55
 1819 0581 D0050000 		.4byte	0x5d0
 1820 0585 01       		.uleb128 0x1
 1821 0586 50       		.byte	0x50
 1822 0587 16       		.uleb128 0x16
 1823 0588 656C7000 		.ascii	"elp\000"
 1824 058c 01       		.byte	0x1
 1825 058d 55       		.byte	0x55
 1826 058e B0040000 		.4byte	0x4b0
 1827 0592 01       		.uleb128 0x1
 1828 0593 51       		.byte	0x51
 1829 0594 17       		.uleb128 0x17
 1830 0595 05010000 		.4byte	.LASF72
 1831 0599 01       		.byte	0x1
 1832 059a 55       		.byte	0x55
 1833 059b F2000000 		.4byte	0xf2
 1834 059f 01       		.uleb128 0x1
 1835 05a0 52       		.byte	0x52
 1836 05a1 18       		.uleb128 0x18
 1837 05a2 02000000 		.4byte	.LBB2
 1838 05a6 06000000 		.4byte	.LBE2-.LBB2
 1839 05aa BC050000 		.4byte	0x5bc
 1840 05ae 19       		.uleb128 0x19
 1841 05af 746D7000 		.ascii	"tmp\000"
 1842 05b3 01       		.byte	0x1
 1843 05b4 59       		.byte	0x59
 1844 05b5 9E000000 		.4byte	0x9e
 1845 05b9 01       		.uleb128 0x1
 1846 05ba 53       		.byte	0x53
 1847 05bb 00       		.byte	0
 1848 05bc 1A       		.uleb128 0x1a
 1849 05bd 00000000 		.4byte	.Ldebug_ranges0+0
 1850 05c1 19       		.uleb128 0x19
 1851 05c2 746D7000 		.ascii	"tmp\000"
 1852 05c6 01       		.byte	0x1
 1853 05c7 5F       		.byte	0x5f
 1854 05c8 9E000000 		.4byte	0x9e
 1855 05cc 01       		.uleb128 0x1
 1856 05cd 53       		.byte	0x53
 1857 05ce 00       		.byte	0
 1858 05cf 00       		.byte	0
 1859 05d0 09       		.uleb128 0x9
 1860 05d1 04       		.byte	0x4
 1861 05d2 CF040000 		.4byte	0x4cf
 1862 05d6 15       		.uleb128 0x15
 1863 05d7 BA010000 		.4byte	.LASF74
 1864 05db 01       		.byte	0x1
 1865 05dc 6F       		.byte	0x6f
 1866 05dd 30000000 		.4byte	.LFB8
 1867 05e1 2A000000 		.4byte	.LFE8-.LFB8
 1868 05e5 01       		.uleb128 0x1
ARM GAS  /tmp/ccLx01V2.s 			page 34


 1869 05e6 9C       		.byte	0x9c
 1870 05e7 41060000 		.4byte	0x641
 1871 05eb 16       		.uleb128 0x16
 1872 05ec 65737000 		.ascii	"esp\000"
 1873 05f0 01       		.byte	0x1
 1874 05f1 6F       		.byte	0x6f
 1875 05f2 D0050000 		.4byte	0x5d0
 1876 05f6 01       		.uleb128 0x1
 1877 05f7 50       		.byte	0x50
 1878 05f8 16       		.uleb128 0x16
 1879 05f9 656C7000 		.ascii	"elp\000"
 1880 05fd 01       		.byte	0x1
 1881 05fe 6F       		.byte	0x6f
 1882 05ff B0040000 		.4byte	0x4b0
 1883 0603 01       		.uleb128 0x1
 1884 0604 51       		.byte	0x51
 1885 0605 1B       		.uleb128 0x1b
 1886 0606 7000     		.ascii	"p\000"
 1887 0608 01       		.byte	0x1
 1888 0609 70       		.byte	0x70
 1889 060a B0040000 		.4byte	0x4b0
 1890 060e 00000000 		.4byte	.LLST0
 1891 0612 18       		.uleb128 0x18
 1892 0613 30000000 		.4byte	.LBB5
 1893 0617 06000000 		.4byte	.LBE5-.LBB5
 1894 061b 2D060000 		.4byte	0x62d
 1895 061f 19       		.uleb128 0x19
 1896 0620 746D7000 		.ascii	"tmp\000"
 1897 0624 01       		.byte	0x1
 1898 0625 75       		.byte	0x75
 1899 0626 9E000000 		.4byte	0x9e
 1900 062a 01       		.uleb128 0x1
 1901 062b 53       		.byte	0x53
 1902 062c 00       		.byte	0
 1903 062d 1A       		.uleb128 0x1a
 1904 062e 18000000 		.4byte	.Ldebug_ranges0+0x18
 1905 0632 19       		.uleb128 0x19
 1906 0633 746D7000 		.ascii	"tmp\000"
 1907 0637 01       		.byte	0x1
 1908 0638 7D       		.byte	0x7d
 1909 0639 9E000000 		.4byte	0x9e
 1910 063d 01       		.uleb128 0x1
 1911 063e 53       		.byte	0x53
 1912 063f 00       		.byte	0
 1913 0640 00       		.byte	0
 1914 0641 1C       		.uleb128 0x1c
 1915 0642 68010000 		.4byte	.LASF75
 1916 0646 01       		.byte	0x1
 1917 0647 88       		.byte	0x88
 1918 0648 F2000000 		.4byte	0xf2
 1919 064c 60000000 		.4byte	.LFB9
 1920 0650 20000000 		.4byte	.LFE9-.LFB9
 1921 0654 01       		.uleb128 0x1
 1922 0655 9C       		.byte	0x9c
 1923 0656 A9060000 		.4byte	0x6a9
 1924 065a 1D       		.uleb128 0x1d
 1925 065b 05010000 		.4byte	.LASF72
ARM GAS  /tmp/ccLx01V2.s 			page 35


 1926 065f 01       		.byte	0x1
 1927 0660 88       		.byte	0x88
 1928 0661 F2000000 		.4byte	0xf2
 1929 0665 1E000000 		.4byte	.LLST1
 1930 0669 1B       		.uleb128 0x1b
 1931 066a 6D00     		.ascii	"m\000"
 1932 066c 01       		.byte	0x1
 1933 066d 89       		.byte	0x89
 1934 066e F2000000 		.4byte	0xf2
 1935 0672 3F000000 		.4byte	.LLST2
 1936 0676 18       		.uleb128 0x18
 1937 0677 60000000 		.4byte	.LBB8
 1938 067b 06000000 		.4byte	.LBE8-.LBB8
 1939 067f 91060000 		.4byte	0x691
 1940 0683 19       		.uleb128 0x19
 1941 0684 746D7000 		.ascii	"tmp\000"
 1942 0688 01       		.byte	0x1
 1943 0689 8B       		.byte	0x8b
 1944 068a 9E000000 		.4byte	0x9e
 1945 068e 01       		.uleb128 0x1
 1946 068f 53       		.byte	0x53
 1947 0690 00       		.byte	0
 1948 0691 1E       		.uleb128 0x1e
 1949 0692 72000000 		.4byte	.LBB9
 1950 0696 06000000 		.4byte	.LBE9-.LBB9
 1951 069a 19       		.uleb128 0x19
 1952 069b 746D7000 		.ascii	"tmp\000"
 1953 069f 01       		.byte	0x1
 1954 06a0 90       		.byte	0x90
 1955 06a1 9E000000 		.4byte	0x9e
 1956 06a5 01       		.uleb128 0x1
 1957 06a6 53       		.byte	0x53
 1958 06a7 00       		.byte	0
 1959 06a8 00       		.byte	0
 1960 06a9 1C       		.uleb128 0x1c
 1961 06aa 3A000000 		.4byte	.LASF76
 1962 06ae 01       		.byte	0x1
 1963 06af 9D       		.byte	0x9d
 1964 06b0 F2000000 		.4byte	0xf2
 1965 06b4 80000000 		.4byte	.LFB10
 1966 06b8 1C000000 		.4byte	.LFE10-.LFB10
 1967 06bc 01       		.uleb128 0x1
 1968 06bd 9C       		.byte	0x9c
 1969 06be 04070000 		.4byte	0x704
 1970 06c2 1D       		.uleb128 0x1d
 1971 06c3 05010000 		.4byte	.LASF72
 1972 06c7 01       		.byte	0x1
 1973 06c8 9D       		.byte	0x9d
 1974 06c9 F2000000 		.4byte	0xf2
 1975 06cd 62000000 		.4byte	.LLST3
 1976 06d1 18       		.uleb128 0x18
 1977 06d2 80000000 		.4byte	.LBB10
 1978 06d6 06000000 		.4byte	.LBE10-.LBB10
 1979 06da EC060000 		.4byte	0x6ec
 1980 06de 19       		.uleb128 0x19
 1981 06df 746D7000 		.ascii	"tmp\000"
 1982 06e3 01       		.byte	0x1
ARM GAS  /tmp/ccLx01V2.s 			page 36


 1983 06e4 9F       		.byte	0x9f
 1984 06e5 9E000000 		.4byte	0x9e
 1985 06e9 01       		.uleb128 0x1
 1986 06ea 53       		.byte	0x53
 1987 06eb 00       		.byte	0
 1988 06ec 1E       		.uleb128 0x1e
 1989 06ed 90000000 		.4byte	.LBB11
 1990 06f1 06000000 		.4byte	.LBE11-.LBB11
 1991 06f5 19       		.uleb128 0x19
 1992 06f6 746D7000 		.ascii	"tmp\000"
 1993 06fa 01       		.byte	0x1
 1994 06fb A3       		.byte	0xa3
 1995 06fc 9E000000 		.4byte	0x9e
 1996 0700 01       		.uleb128 0x1
 1997 0701 53       		.byte	0x53
 1998 0702 00       		.byte	0
 1999 0703 00       		.byte	0
 2000 0704 1C       		.uleb128 0x1c
 2001 0705 34050000 		.4byte	.LASF77
 2002 0709 01       		.byte	0x1
 2003 070a D1       		.byte	0xd1
 2004 070b FD000000 		.4byte	0xfd
 2005 070f A0000000 		.4byte	.LFB12
 2006 0713 14000000 		.4byte	.LFE12-.LFB12
 2007 0717 01       		.uleb128 0x1
 2008 0718 9C       		.byte	0x9c
 2009 0719 6C070000 		.4byte	0x76c
 2010 071d 1F       		.uleb128 0x1f
 2011 071e 656C7000 		.ascii	"elp\000"
 2012 0722 01       		.byte	0x1
 2013 0723 D1       		.byte	0xd1
 2014 0724 B0040000 		.4byte	0x4b0
 2015 0728 8E000000 		.4byte	.LLST4
 2016 072c 20       		.uleb128 0x20
 2017 072d 0C040000 		.4byte	.LASF78
 2018 0731 01       		.byte	0x1
 2019 0732 D2       		.byte	0xd2
 2020 0733 FD000000 		.4byte	0xfd
 2021 0737 01       		.uleb128 0x1
 2022 0738 50       		.byte	0x50
 2023 0739 18       		.uleb128 0x18
 2024 073a A2000000 		.4byte	.LBB12
 2025 073e 06000000 		.4byte	.LBE12-.LBB12
 2026 0742 54070000 		.4byte	0x754
 2027 0746 19       		.uleb128 0x19
 2028 0747 746D7000 		.ascii	"tmp\000"
 2029 074b 01       		.byte	0x1
 2030 074c D4       		.byte	0xd4
 2031 074d 9E000000 		.4byte	0x9e
 2032 0751 01       		.uleb128 0x1
 2033 0752 53       		.byte	0x53
 2034 0753 00       		.byte	0
 2035 0754 1E       		.uleb128 0x1e
 2036 0755 AE000000 		.4byte	.LBB13
 2037 0759 04000000 		.4byte	.LBE13-.LBB13
 2038 075d 19       		.uleb128 0x19
 2039 075e 746D7000 		.ascii	"tmp\000"
ARM GAS  /tmp/ccLx01V2.s 			page 37


 2040 0762 01       		.byte	0x1
 2041 0763 D9       		.byte	0xd9
 2042 0764 9E000000 		.4byte	0x9e
 2043 0768 01       		.uleb128 0x1
 2044 0769 53       		.byte	0x53
 2045 076a 00       		.byte	0
 2046 076b 00       		.byte	0
 2047 076c 21       		.uleb128 0x21
 2048 076d 43050000 		.4byte	0x543
 2049 0771 C0000000 		.4byte	.LFB14
 2050 0775 2E000000 		.4byte	.LFE14-.LFB14
 2051 0779 01       		.uleb128 0x1
 2052 077a 9C       		.byte	0x9c
 2053 077b BF070000 		.4byte	0x7bf
 2054 077f 22       		.uleb128 0x22
 2055 0780 4F050000 		.4byte	0x54f
 2056 0784 AC000000 		.4byte	.LLST5
 2057 0788 22       		.uleb128 0x22
 2058 0789 59050000 		.4byte	0x559
 2059 078d D8000000 		.4byte	.LLST6
 2060 0791 1E       		.uleb128 0x1e
 2061 0792 DC000000 		.4byte	.LBB16
 2062 0796 0A000000 		.4byte	.LBE16-.LBB16
 2063 079a 22       		.uleb128 0x22
 2064 079b 59050000 		.4byte	0x559
 2065 079f F9000000 		.4byte	.LLST7
 2066 07a3 22       		.uleb128 0x22
 2067 07a4 4F050000 		.4byte	0x54f
 2068 07a8 0F010000 		.4byte	.LLST8
 2069 07ac 23       		.uleb128 0x23
 2070 07ad E0000000 		.4byte	.LVL15
 2071 07b1 E90D0000 		.4byte	0xde9
 2072 07b5 24       		.uleb128 0x24
 2073 07b6 01       		.uleb128 0x1
 2074 07b7 50       		.byte	0x50
 2075 07b8 03       		.uleb128 0x3
 2076 07b9 F3       		.byte	0xf3
 2077 07ba 01       		.uleb128 0x1
 2078 07bb 50       		.byte	0x50
 2079 07bc 00       		.byte	0
 2080 07bd 00       		.byte	0
 2081 07be 00       		.byte	0
 2082 07bf 15       		.uleb128 0x15
 2083 07c0 C3000000 		.4byte	.LASF79
 2084 07c4 01       		.byte	0x1
 2085 07c5 B8       		.byte	0xb8
 2086 07c6 F0000000 		.4byte	.LFB11
 2087 07ca 20000000 		.4byte	.LFE11-.LFB11
 2088 07ce 01       		.uleb128 0x1
 2089 07cf 9C       		.byte	0x9c
 2090 07d0 09080000 		.4byte	0x809
 2091 07d4 1F       		.uleb128 0x1f
 2092 07d5 65737000 		.ascii	"esp\000"
 2093 07d9 01       		.byte	0x1
 2094 07da B8       		.byte	0xb8
 2095 07db D0050000 		.4byte	0x5d0
 2096 07df 30010000 		.4byte	.LLST9
ARM GAS  /tmp/ccLx01V2.s 			page 38


 2097 07e3 1D       		.uleb128 0x1d
 2098 07e4 0C040000 		.4byte	.LASF78
 2099 07e8 01       		.byte	0x1
 2100 07e9 B8       		.byte	0xb8
 2101 07ea FD000000 		.4byte	0xfd
 2102 07ee 4E010000 		.4byte	.LLST10
 2103 07f2 19       		.uleb128 0x19
 2104 07f3 656C7000 		.ascii	"elp\000"
 2105 07f7 01       		.byte	0x1
 2106 07f8 B9       		.byte	0xb9
 2107 07f9 B0040000 		.4byte	0x4b0
 2108 07fd 01       		.uleb128 0x1
 2109 07fe 54       		.byte	0x54
 2110 07ff 25       		.uleb128 0x25
 2111 0800 08010000 		.4byte	.LVL20
 2112 0804 43050000 		.4byte	0x543
 2113 0808 00       		.byte	0
 2114 0809 15       		.uleb128 0x15
 2115 080a 17000000 		.4byte	.LASF80
 2116 080e 01       		.byte	0x1
 2117 080f E5       		.byte	0xe5
 2118 0810 10010000 		.4byte	.LFB13
 2119 0814 18000000 		.4byte	.LFE13-.LFB13
 2120 0818 01       		.uleb128 0x1
 2121 0819 9C       		.byte	0x9c
 2122 081a 97080000 		.4byte	0x897
 2123 081e 1F       		.uleb128 0x1f
 2124 081f 747000   		.ascii	"tp\000"
 2125 0822 01       		.byte	0x1
 2126 0823 E5       		.byte	0xe5
 2127 0824 18020000 		.4byte	0x218
 2128 0828 6C010000 		.4byte	.LLST11
 2129 082c 1D       		.uleb128 0x1d
 2130 082d 05010000 		.4byte	.LASF72
 2131 0831 01       		.byte	0x1
 2132 0832 E5       		.byte	0xe5
 2133 0833 F2000000 		.4byte	0xf2
 2134 0837 8D010000 		.4byte	.LLST12
 2135 083b 18       		.uleb128 0x18
 2136 083c 12010000 		.4byte	.LBB18
 2137 0840 06000000 		.4byte	.LBE18-.LBB18
 2138 0844 56080000 		.4byte	0x856
 2139 0848 19       		.uleb128 0x19
 2140 0849 746D7000 		.ascii	"tmp\000"
 2141 084d 01       		.byte	0x1
 2142 084e E9       		.byte	0xe9
 2143 084f 9E000000 		.4byte	0x9e
 2144 0853 01       		.uleb128 0x1
 2145 0854 53       		.byte	0x53
 2146 0855 00       		.byte	0
 2147 0856 18       		.uleb128 0x18
 2148 0857 20010000 		.4byte	.LBB19
 2149 085b 08000000 		.4byte	.LBE19-.LBB19
 2150 085f 71080000 		.4byte	0x871
 2151 0863 19       		.uleb128 0x19
 2152 0864 746D7000 		.ascii	"tmp\000"
 2153 0868 01       		.byte	0x1
ARM GAS  /tmp/ccLx01V2.s 			page 39


 2154 0869 EC       		.byte	0xec
 2155 086a 9E000000 		.4byte	0x9e
 2156 086e 01       		.uleb128 0x1
 2157 086f 53       		.byte	0x53
 2158 0870 00       		.byte	0
 2159 0871 26       		.uleb128 0x26
 2160 0872 1C010000 		.4byte	.LVL23
 2161 0876 43050000 		.4byte	0x543
 2162 087a 8D080000 		.4byte	0x88d
 2163 087e 24       		.uleb128 0x24
 2164 087f 01       		.uleb128 0x1
 2165 0880 51       		.byte	0x51
 2166 0881 03       		.uleb128 0x3
 2167 0882 F3       		.byte	0xf3
 2168 0883 01       		.uleb128 0x1
 2169 0884 51       		.byte	0x51
 2170 0885 24       		.uleb128 0x24
 2171 0886 01       		.uleb128 0x1
 2172 0887 50       		.byte	0x50
 2173 0888 03       		.uleb128 0x3
 2174 0889 F3       		.byte	0xf3
 2175 088a 01       		.uleb128 0x1
 2176 088b 50       		.byte	0x50
 2177 088c 00       		.byte	0
 2178 088d 25       		.uleb128 0x25
 2179 088e 20010000 		.4byte	.LVL24
 2180 0892 FE0D0000 		.4byte	0xdfe
 2181 0896 00       		.byte	0
 2182 0897 27       		.uleb128 0x27
 2183 0898 13010000 		.4byte	.LASF81
 2184 089c 01       		.byte	0x1
 2185 089d 1601     		.2byte	0x116
 2186 089f 30010000 		.4byte	.LFB15
 2187 08a3 18000000 		.4byte	.LFE15-.LFB15
 2188 08a7 01       		.uleb128 0x1
 2189 08a8 9C       		.byte	0x9c
 2190 08a9 2B090000 		.4byte	0x92b
 2191 08ad 28       		.uleb128 0x28
 2192 08ae 65737000 		.ascii	"esp\000"
 2193 08b2 01       		.byte	0x1
 2194 08b3 1601     		.2byte	0x116
 2195 08b5 D0050000 		.4byte	0x5d0
 2196 08b9 AE010000 		.4byte	.LLST13
 2197 08bd 29       		.uleb128 0x29
 2198 08be 0C040000 		.4byte	.LASF78
 2199 08c2 01       		.byte	0x1
 2200 08c3 1601     		.2byte	0x116
 2201 08c5 FD000000 		.4byte	0xfd
 2202 08c9 CF010000 		.4byte	.LLST14
 2203 08cd 18       		.uleb128 0x18
 2204 08ce 32010000 		.4byte	.LBB20
 2205 08d2 06000000 		.4byte	.LBE20-.LBB20
 2206 08d6 E9080000 		.4byte	0x8e9
 2207 08da 2A       		.uleb128 0x2a
 2208 08db 746D7000 		.ascii	"tmp\000"
 2209 08df 01       		.byte	0x1
 2210 08e0 1801     		.2byte	0x118
ARM GAS  /tmp/ccLx01V2.s 			page 40


 2211 08e2 9E000000 		.4byte	0x9e
 2212 08e6 01       		.uleb128 0x1
 2213 08e7 53       		.byte	0x53
 2214 08e8 00       		.byte	0
 2215 08e9 18       		.uleb128 0x18
 2216 08ea 40010000 		.4byte	.LBB21
 2217 08ee 08000000 		.4byte	.LBE21-.LBB21
 2218 08f2 05090000 		.4byte	0x905
 2219 08f6 2A       		.uleb128 0x2a
 2220 08f7 746D7000 		.ascii	"tmp\000"
 2221 08fb 01       		.byte	0x1
 2222 08fc 1B01     		.2byte	0x11b
 2223 08fe 9E000000 		.4byte	0x9e
 2224 0902 01       		.uleb128 0x1
 2225 0903 53       		.byte	0x53
 2226 0904 00       		.byte	0
 2227 0905 26       		.uleb128 0x26
 2228 0906 3C010000 		.4byte	.LVL26
 2229 090a BF070000 		.4byte	0x7bf
 2230 090e 21090000 		.4byte	0x921
 2231 0912 24       		.uleb128 0x24
 2232 0913 01       		.uleb128 0x1
 2233 0914 51       		.byte	0x51
 2234 0915 03       		.uleb128 0x3
 2235 0916 F3       		.byte	0xf3
 2236 0917 01       		.uleb128 0x1
 2237 0918 51       		.byte	0x51
 2238 0919 24       		.uleb128 0x24
 2239 091a 01       		.uleb128 0x1
 2240 091b 50       		.byte	0x50
 2241 091c 03       		.uleb128 0x3
 2242 091d F3       		.byte	0xf3
 2243 091e 01       		.uleb128 0x1
 2244 091f 50       		.byte	0x50
 2245 0920 00       		.byte	0
 2246 0921 25       		.uleb128 0x25
 2247 0922 40010000 		.4byte	.LVL27
 2248 0926 FE0D0000 		.4byte	0xdfe
 2249 092a 00       		.byte	0
 2250 092b 2B       		.uleb128 0x2b
 2251 092c 2A030000 		.4byte	.LASF82
 2252 0930 01       		.byte	0x1
 2253 0931 2901     		.2byte	0x129
 2254 0933 FD000000 		.4byte	0xfd
 2255 0937 50010000 		.4byte	.LFB16
 2256 093b 0A000000 		.4byte	.LFE16-.LFB16
 2257 093f 01       		.uleb128 0x1
 2258 0940 9C       		.byte	0x9c
 2259 0941 64090000 		.4byte	0x964
 2260 0945 28       		.uleb128 0x28
 2261 0946 656C7000 		.ascii	"elp\000"
 2262 094a 01       		.byte	0x1
 2263 094b 2901     		.2byte	0x129
 2264 094d B0040000 		.4byte	0x4b0
 2265 0951 F0010000 		.4byte	.LLST15
 2266 0955 2C       		.uleb128 0x2c
 2267 0956 0C040000 		.4byte	.LASF78
ARM GAS  /tmp/ccLx01V2.s 			page 41


 2268 095a 01       		.byte	0x1
 2269 095b 2A01     		.2byte	0x12a
 2270 095d FD000000 		.4byte	0xfd
 2271 0961 01       		.uleb128 0x1
 2272 0962 50       		.byte	0x50
 2273 0963 00       		.byte	0
 2274 0964 27       		.uleb128 0x27
 2275 0965 0E020000 		.4byte	.LASF83
 2276 0969 01       		.byte	0x1
 2277 096a 3B01     		.2byte	0x13b
 2278 096c 60010000 		.4byte	.LFB17
 2279 0970 34000000 		.4byte	.LFE17-.LFB17
 2280 0974 01       		.uleb128 0x1
 2281 0975 9C       		.byte	0x9c
 2282 0976 B7090000 		.4byte	0x9b7
 2283 097a 29       		.uleb128 0x29
 2284 097b A7020000 		.4byte	.LASF84
 2285 097f 01       		.byte	0x1
 2286 0980 3B01     		.2byte	0x13b
 2287 0982 B7090000 		.4byte	0x9b7
 2288 0986 0E020000 		.4byte	.LLST16
 2289 098a 29       		.uleb128 0x29
 2290 098b 05010000 		.4byte	.LASF72
 2291 098f 01       		.byte	0x1
 2292 0990 3B01     		.2byte	0x13b
 2293 0992 F2000000 		.4byte	0xf2
 2294 0996 37020000 		.4byte	.LLST17
 2295 099a 2D       		.uleb128 0x2d
 2296 099b 65696400 		.ascii	"eid\000"
 2297 099f 01       		.byte	0x1
 2298 09a0 3C01     		.2byte	0x13c
 2299 09a2 E7000000 		.4byte	0xe7
 2300 09a6 60020000 		.4byte	.LLST18
 2301 09aa 2E       		.uleb128 0x2e
 2302 09ab 8A010000 		.4byte	.LVL34
 2303 09af 24       		.uleb128 0x24
 2304 09b0 01       		.uleb128 0x1
 2305 09b1 50       		.byte	0x50
 2306 09b2 02       		.uleb128 0x2
 2307 09b3 74       		.byte	0x74
 2308 09b4 00       		.sleb128 0
 2309 09b5 00       		.byte	0
 2310 09b6 00       		.byte	0
 2311 09b7 09       		.uleb128 0x9
 2312 09b8 04       		.byte	0x4
 2313 09b9 BD090000 		.4byte	0x9bd
 2314 09bd 11       		.uleb128 0x11
 2315 09be DA040000 		.4byte	0x4da
 2316 09c2 2B       		.uleb128 0x2b
 2317 09c3 DB020000 		.4byte	.LASF85
 2318 09c7 01       		.byte	0x1
 2319 09c8 5E01     		.2byte	0x15e
 2320 09ca F2000000 		.4byte	0xf2
 2321 09ce A0010000 		.4byte	.LFB18
 2322 09d2 3C000000 		.4byte	.LFE18-.LFB18
 2323 09d6 01       		.uleb128 0x1
 2324 09d7 9C       		.byte	0x9c
ARM GAS  /tmp/ccLx01V2.s 			page 42


 2325 09d8 520A0000 		.4byte	0xa52
 2326 09dc 29       		.uleb128 0x29
 2327 09dd 05010000 		.4byte	.LASF72
 2328 09e1 01       		.byte	0x1
 2329 09e2 5E01     		.2byte	0x15e
 2330 09e4 F2000000 		.4byte	0xf2
 2331 09e8 8B020000 		.4byte	.LLST19
 2332 09ec 2D       		.uleb128 0x2d
 2333 09ed 63747000 		.ascii	"ctp\000"
 2334 09f1 01       		.byte	0x1
 2335 09f2 5F01     		.2byte	0x15f
 2336 09f4 18020000 		.4byte	0x218
 2337 09f8 B7020000 		.4byte	.LLST20
 2338 09fc 2D       		.uleb128 0x2d
 2339 09fd 6D00     		.ascii	"m\000"
 2340 09ff 01       		.byte	0x1
 2341 0a00 6001     		.2byte	0x160
 2342 0a02 F2000000 		.4byte	0xf2
 2343 0a06 CA020000 		.4byte	.LLST21
 2344 0a0a 18       		.uleb128 0x18
 2345 0a0b A6010000 		.4byte	.LBB22
 2346 0a0f 06000000 		.4byte	.LBE22-.LBB22
 2347 0a13 260A0000 		.4byte	0xa26
 2348 0a17 2A       		.uleb128 0x2a
 2349 0a18 746D7000 		.ascii	"tmp\000"
 2350 0a1c 01       		.byte	0x1
 2351 0a1d 6201     		.2byte	0x162
 2352 0a1f 9E000000 		.4byte	0x9e
 2353 0a23 01       		.uleb128 0x1
 2354 0a24 53       		.byte	0x53
 2355 0a25 00       		.byte	0
 2356 0a26 18       		.uleb128 0x18
 2357 0a27 CE010000 		.4byte	.LBB23
 2358 0a2b 06000000 		.4byte	.LBE23-.LBB23
 2359 0a2f 420A0000 		.4byte	0xa42
 2360 0a33 2A       		.uleb128 0x2a
 2361 0a34 746D7000 		.ascii	"tmp\000"
 2362 0a38 01       		.byte	0x1
 2363 0a39 6C01     		.2byte	0x16c
 2364 0a3b 9E000000 		.4byte	0x9e
 2365 0a3f 01       		.uleb128 0x1
 2366 0a40 53       		.byte	0x53
 2367 0a41 00       		.byte	0
 2368 0a42 23       		.uleb128 0x23
 2369 0a43 BE010000 		.4byte	.LVL42
 2370 0a47 050E0000 		.4byte	0xe05
 2371 0a4b 24       		.uleb128 0x24
 2372 0a4c 01       		.uleb128 0x1
 2373 0a4d 50       		.byte	0x50
 2374 0a4e 01       		.uleb128 0x1
 2375 0a4f 38       		.byte	0x38
 2376 0a50 00       		.byte	0
 2377 0a51 00       		.byte	0
 2378 0a52 2B       		.uleb128 0x2b
 2379 0a53 B6000000 		.4byte	.LASF86
 2380 0a57 01       		.byte	0x1
 2381 0a58 7B01     		.2byte	0x17b
ARM GAS  /tmp/ccLx01V2.s 			page 43


 2382 0a5a F2000000 		.4byte	0xf2
 2383 0a5e E0010000 		.4byte	.LFB19
 2384 0a62 38000000 		.4byte	.LFE19-.LFB19
 2385 0a66 01       		.uleb128 0x1
 2386 0a67 9C       		.byte	0x9c
 2387 0a68 E20A0000 		.4byte	0xae2
 2388 0a6c 29       		.uleb128 0x29
 2389 0a6d 05010000 		.4byte	.LASF72
 2390 0a71 01       		.byte	0x1
 2391 0a72 7B01     		.2byte	0x17b
 2392 0a74 F2000000 		.4byte	0xf2
 2393 0a78 03030000 		.4byte	.LLST22
 2394 0a7c 2D       		.uleb128 0x2d
 2395 0a7d 63747000 		.ascii	"ctp\000"
 2396 0a81 01       		.byte	0x1
 2397 0a82 7C01     		.2byte	0x17c
 2398 0a84 18020000 		.4byte	0x218
 2399 0a88 2F030000 		.4byte	.LLST23
 2400 0a8c 2D       		.uleb128 0x2d
 2401 0a8d 6D00     		.ascii	"m\000"
 2402 0a8f 01       		.byte	0x1
 2403 0a90 7D01     		.2byte	0x17d
 2404 0a92 F2000000 		.4byte	0xf2
 2405 0a96 42030000 		.4byte	.LLST24
 2406 0a9a 18       		.uleb128 0x18
 2407 0a9b E6010000 		.4byte	.LBB24
 2408 0a9f 06000000 		.4byte	.LBE24-.LBB24
 2409 0aa3 B60A0000 		.4byte	0xab6
 2410 0aa7 2A       		.uleb128 0x2a
 2411 0aa8 746D7000 		.ascii	"tmp\000"
 2412 0aac 01       		.byte	0x1
 2413 0aad 7F01     		.2byte	0x17f
 2414 0aaf 9E000000 		.4byte	0x9e
 2415 0ab3 01       		.uleb128 0x1
 2416 0ab4 53       		.byte	0x53
 2417 0ab5 00       		.byte	0
 2418 0ab6 18       		.uleb128 0x18
 2419 0ab7 08020000 		.4byte	.LBB25
 2420 0abb 06000000 		.4byte	.LBE25-.LBB25
 2421 0abf D20A0000 		.4byte	0xad2
 2422 0ac3 2A       		.uleb128 0x2a
 2423 0ac4 746D7000 		.ascii	"tmp\000"
 2424 0ac8 01       		.byte	0x1
 2425 0ac9 8801     		.2byte	0x188
 2426 0acb 9E000000 		.4byte	0x9e
 2427 0acf 01       		.uleb128 0x1
 2428 0ad0 53       		.byte	0x53
 2429 0ad1 00       		.byte	0
 2430 0ad2 23       		.uleb128 0x23
 2431 0ad3 FE010000 		.4byte	.LVL52
 2432 0ad7 050E0000 		.4byte	0xe05
 2433 0adb 24       		.uleb128 0x24
 2434 0adc 01       		.uleb128 0x1
 2435 0add 50       		.byte	0x50
 2436 0ade 01       		.uleb128 0x1
 2437 0adf 38       		.byte	0x38
 2438 0ae0 00       		.byte	0
ARM GAS  /tmp/ccLx01V2.s 			page 44


 2439 0ae1 00       		.byte	0
 2440 0ae2 2B       		.uleb128 0x2b
 2441 0ae3 80020000 		.4byte	.LASF87
 2442 0ae7 01       		.byte	0x1
 2443 0ae8 9701     		.2byte	0x197
 2444 0aea F2000000 		.4byte	0xf2
 2445 0aee 20020000 		.4byte	.LFB20
 2446 0af2 38000000 		.4byte	.LFE20-.LFB20
 2447 0af6 01       		.uleb128 0x1
 2448 0af7 9C       		.byte	0x9c
 2449 0af8 640B0000 		.4byte	0xb64
 2450 0afc 29       		.uleb128 0x29
 2451 0afd 05010000 		.4byte	.LASF72
 2452 0b01 01       		.byte	0x1
 2453 0b02 9701     		.2byte	0x197
 2454 0b04 F2000000 		.4byte	0xf2
 2455 0b08 9B030000 		.4byte	.LLST25
 2456 0b0c 2D       		.uleb128 0x2d
 2457 0b0d 63747000 		.ascii	"ctp\000"
 2458 0b11 01       		.byte	0x1
 2459 0b12 9801     		.2byte	0x198
 2460 0b14 18020000 		.4byte	0x218
 2461 0b18 C4030000 		.4byte	.LLST26
 2462 0b1c 18       		.uleb128 0x18
 2463 0b1d 28020000 		.4byte	.LBB26
 2464 0b21 06000000 		.4byte	.LBE26-.LBB26
 2465 0b25 380B0000 		.4byte	0xb38
 2466 0b29 2A       		.uleb128 0x2a
 2467 0b2a 746D7000 		.ascii	"tmp\000"
 2468 0b2e 01       		.byte	0x1
 2469 0b2f 9A01     		.2byte	0x19a
 2470 0b31 9E000000 		.4byte	0x9e
 2471 0b35 01       		.uleb128 0x1
 2472 0b36 53       		.byte	0x53
 2473 0b37 00       		.byte	0
 2474 0b38 18       		.uleb128 0x18
 2475 0b39 48020000 		.4byte	.LBB27
 2476 0b3d 06000000 		.4byte	.LBE27-.LBB27
 2477 0b41 540B0000 		.4byte	0xb54
 2478 0b45 2A       		.uleb128 0x2a
 2479 0b46 746D7000 		.ascii	"tmp\000"
 2480 0b4a 01       		.byte	0x1
 2481 0b4b A201     		.2byte	0x1a2
 2482 0b4d 9E000000 		.4byte	0x9e
 2483 0b51 01       		.uleb128 0x1
 2484 0b52 53       		.byte	0x53
 2485 0b53 00       		.byte	0
 2486 0b54 23       		.uleb128 0x23
 2487 0b55 40020000 		.4byte	.LVL58
 2488 0b59 050E0000 		.4byte	0xe05
 2489 0b5d 24       		.uleb128 0x24
 2490 0b5e 01       		.uleb128 0x1
 2491 0b5f 50       		.byte	0x50
 2492 0b60 01       		.uleb128 0x1
 2493 0b61 39       		.byte	0x39
 2494 0b62 00       		.byte	0
 2495 0b63 00       		.byte	0
ARM GAS  /tmp/ccLx01V2.s 			page 45


 2496 0b64 2B       		.uleb128 0x2b
 2497 0b65 20040000 		.4byte	.LASF88
 2498 0b69 01       		.byte	0x1
 2499 0b6a BE01     		.2byte	0x1be
 2500 0b6c F2000000 		.4byte	0xf2
 2501 0b70 60020000 		.4byte	.LFB21
 2502 0b74 54000000 		.4byte	.LFE21-.LFB21
 2503 0b78 01       		.uleb128 0x1
 2504 0b79 9C       		.byte	0x9c
 2505 0b7a 3C0C0000 		.4byte	0xc3c
 2506 0b7e 29       		.uleb128 0x29
 2507 0b7f 05010000 		.4byte	.LASF72
 2508 0b83 01       		.byte	0x1
 2509 0b84 BE01     		.2byte	0x1be
 2510 0b86 F2000000 		.4byte	0xf2
 2511 0b8a D7030000 		.4byte	.LLST27
 2512 0b8e 29       		.uleb128 0x29
 2513 0b8f 7B020000 		.4byte	.LASF89
 2514 0b93 01       		.byte	0x1
 2515 0b94 BE01     		.2byte	0x1be
 2516 0b96 08010000 		.4byte	0x108
 2517 0b9a 35040000 		.4byte	.LLST28
 2518 0b9e 2D       		.uleb128 0x2d
 2519 0b9f 63747000 		.ascii	"ctp\000"
 2520 0ba3 01       		.byte	0x1
 2521 0ba4 BF01     		.2byte	0x1bf
 2522 0ba6 18020000 		.4byte	0x218
 2523 0baa 56040000 		.4byte	.LLST29
 2524 0bae 2D       		.uleb128 0x2d
 2525 0baf 6D00     		.ascii	"m\000"
 2526 0bb1 01       		.byte	0x1
 2527 0bb2 C001     		.2byte	0x1c0
 2528 0bb4 F2000000 		.4byte	0xf2
 2529 0bb8 69040000 		.4byte	.LLST30
 2530 0bbc 18       		.uleb128 0x18
 2531 0bbd 66020000 		.4byte	.LBB28
 2532 0bc1 06000000 		.4byte	.LBE28-.LBB28
 2533 0bc5 D80B0000 		.4byte	0xbd8
 2534 0bc9 2A       		.uleb128 0x2a
 2535 0bca 746D7000 		.ascii	"tmp\000"
 2536 0bce 01       		.byte	0x1
 2537 0bcf C201     		.2byte	0x1c2
 2538 0bd1 9E000000 		.4byte	0x9e
 2539 0bd5 01       		.uleb128 0x1
 2540 0bd6 53       		.byte	0x53
 2541 0bd7 00       		.byte	0
 2542 0bd8 18       		.uleb128 0x18
 2543 0bd9 76020000 		.4byte	.LBB29
 2544 0bdd 06000000 		.4byte	.LBE29-.LBB29
 2545 0be1 F40B0000 		.4byte	0xbf4
 2546 0be5 2A       		.uleb128 0x2a
 2547 0be6 746D7000 		.ascii	"tmp\000"
 2548 0bea 01       		.byte	0x1
 2549 0beb C601     		.2byte	0x1c6
 2550 0bed 9E000000 		.4byte	0x9e
 2551 0bf1 01       		.uleb128 0x1
 2552 0bf2 53       		.byte	0x53
ARM GAS  /tmp/ccLx01V2.s 			page 46


 2553 0bf3 00       		.byte	0
 2554 0bf4 18       		.uleb128 0x18
 2555 0bf5 9E020000 		.4byte	.LBB30
 2556 0bf9 06000000 		.4byte	.LBE30-.LBB30
 2557 0bfd 100C0000 		.4byte	0xc10
 2558 0c01 2A       		.uleb128 0x2a
 2559 0c02 746D7000 		.ascii	"tmp\000"
 2560 0c06 01       		.byte	0x1
 2561 0c07 D301     		.2byte	0x1d3
 2562 0c09 9E000000 		.4byte	0x9e
 2563 0c0d 01       		.uleb128 0x1
 2564 0c0e 53       		.byte	0x53
 2565 0c0f 00       		.byte	0
 2566 0c10 18       		.uleb128 0x18
 2567 0c11 A6020000 		.4byte	.LBB31
 2568 0c15 06000000 		.4byte	.LBE31-.LBB31
 2569 0c19 2C0C0000 		.4byte	0xc2c
 2570 0c1d 2A       		.uleb128 0x2a
 2571 0c1e 746D7000 		.ascii	"tmp\000"
 2572 0c22 01       		.byte	0x1
 2573 0c23 CB01     		.2byte	0x1cb
 2574 0c25 9E000000 		.4byte	0x9e
 2575 0c29 01       		.uleb128 0x1
 2576 0c2a 53       		.byte	0x53
 2577 0c2b 00       		.byte	0
 2578 0c2c 23       		.uleb128 0x23
 2579 0c2d 8A020000 		.4byte	.LVL67
 2580 0c31 160E0000 		.4byte	0xe16
 2581 0c35 24       		.uleb128 0x24
 2582 0c36 01       		.uleb128 0x1
 2583 0c37 50       		.byte	0x50
 2584 0c38 01       		.uleb128 0x1
 2585 0c39 38       		.byte	0x38
 2586 0c3a 00       		.byte	0
 2587 0c3b 00       		.byte	0
 2588 0c3c 2B       		.uleb128 0x2b
 2589 0c3d 49000000 		.4byte	.LASF90
 2590 0c41 01       		.byte	0x1
 2591 0c42 E901     		.2byte	0x1e9
 2592 0c44 F2000000 		.4byte	0xf2
 2593 0c48 C0020000 		.4byte	.LFB22
 2594 0c4c 54000000 		.4byte	.LFE22-.LFB22
 2595 0c50 01       		.uleb128 0x1
 2596 0c51 9C       		.byte	0x9c
 2597 0c52 140D0000 		.4byte	0xd14
 2598 0c56 29       		.uleb128 0x29
 2599 0c57 05010000 		.4byte	.LASF72
 2600 0c5b 01       		.byte	0x1
 2601 0c5c E901     		.2byte	0x1e9
 2602 0c5e F2000000 		.4byte	0xf2
 2603 0c62 AD040000 		.4byte	.LLST31
 2604 0c66 29       		.uleb128 0x29
 2605 0c67 7B020000 		.4byte	.LASF89
 2606 0c6b 01       		.byte	0x1
 2607 0c6c E901     		.2byte	0x1e9
 2608 0c6e 08010000 		.4byte	0x108
 2609 0c72 0B050000 		.4byte	.LLST32
ARM GAS  /tmp/ccLx01V2.s 			page 47


 2610 0c76 2D       		.uleb128 0x2d
 2611 0c77 63747000 		.ascii	"ctp\000"
 2612 0c7b 01       		.byte	0x1
 2613 0c7c EA01     		.2byte	0x1ea
 2614 0c7e 18020000 		.4byte	0x218
 2615 0c82 2C050000 		.4byte	.LLST33
 2616 0c86 2D       		.uleb128 0x2d
 2617 0c87 6D00     		.ascii	"m\000"
 2618 0c89 01       		.byte	0x1
 2619 0c8a EB01     		.2byte	0x1eb
 2620 0c8c F2000000 		.4byte	0xf2
 2621 0c90 3F050000 		.4byte	.LLST34
 2622 0c94 18       		.uleb128 0x18
 2623 0c95 C6020000 		.4byte	.LBB32
 2624 0c99 06000000 		.4byte	.LBE32-.LBB32
 2625 0c9d B00C0000 		.4byte	0xcb0
 2626 0ca1 2A       		.uleb128 0x2a
 2627 0ca2 746D7000 		.ascii	"tmp\000"
 2628 0ca6 01       		.byte	0x1
 2629 0ca7 ED01     		.2byte	0x1ed
 2630 0ca9 9E000000 		.4byte	0x9e
 2631 0cad 01       		.uleb128 0x1
 2632 0cae 53       		.byte	0x53
 2633 0caf 00       		.byte	0
 2634 0cb0 18       		.uleb128 0x18
 2635 0cb1 D6020000 		.4byte	.LBB33
 2636 0cb5 06000000 		.4byte	.LBE33-.LBB33
 2637 0cb9 CC0C0000 		.4byte	0xccc
 2638 0cbd 2A       		.uleb128 0x2a
 2639 0cbe 746D7000 		.ascii	"tmp\000"
 2640 0cc2 01       		.byte	0x1
 2641 0cc3 F101     		.2byte	0x1f1
 2642 0cc5 9E000000 		.4byte	0x9e
 2643 0cc9 01       		.uleb128 0x1
 2644 0cca 53       		.byte	0x53
 2645 0ccb 00       		.byte	0
 2646 0ccc 18       		.uleb128 0x18
 2647 0ccd FA020000 		.4byte	.LBB34
 2648 0cd1 06000000 		.4byte	.LBE34-.LBB34
 2649 0cd5 E80C0000 		.4byte	0xce8
 2650 0cd9 2A       		.uleb128 0x2a
 2651 0cda 746D7000 		.ascii	"tmp\000"
 2652 0cde 01       		.byte	0x1
 2653 0cdf FD01     		.2byte	0x1fd
 2654 0ce1 9E000000 		.4byte	0x9e
 2655 0ce5 01       		.uleb128 0x1
 2656 0ce6 53       		.byte	0x53
 2657 0ce7 00       		.byte	0
 2658 0ce8 18       		.uleb128 0x18
 2659 0ce9 04030000 		.4byte	.LBB35
 2660 0ced 06000000 		.4byte	.LBE35-.LBB35
 2661 0cf1 040D0000 		.4byte	0xd04
 2662 0cf5 2A       		.uleb128 0x2a
 2663 0cf6 746D7000 		.ascii	"tmp\000"
 2664 0cfa 01       		.byte	0x1
 2665 0cfb F601     		.2byte	0x1f6
 2666 0cfd 9E000000 		.4byte	0x9e
ARM GAS  /tmp/ccLx01V2.s 			page 48


 2667 0d01 01       		.uleb128 0x1
 2668 0d02 53       		.byte	0x53
 2669 0d03 00       		.byte	0
 2670 0d04 23       		.uleb128 0x23
 2671 0d05 EA020000 		.4byte	.LVL79
 2672 0d09 160E0000 		.4byte	0xe16
 2673 0d0d 24       		.uleb128 0x24
 2674 0d0e 01       		.uleb128 0x1
 2675 0d0f 50       		.byte	0x50
 2676 0d10 01       		.uleb128 0x1
 2677 0d11 38       		.byte	0x38
 2678 0d12 00       		.byte	0
 2679 0d13 00       		.byte	0
 2680 0d14 2B       		.uleb128 0x2b
 2681 0d15 7E000000 		.4byte	.LASF91
 2682 0d19 01       		.byte	0x1
 2683 0d1a 1202     		.2byte	0x212
 2684 0d1c F2000000 		.4byte	0xf2
 2685 0d20 20030000 		.4byte	.LFB23
 2686 0d24 50000000 		.4byte	.LFE23-.LFB23
 2687 0d28 01       		.uleb128 0x1
 2688 0d29 9C       		.byte	0x9c
 2689 0d2a DE0D0000 		.4byte	0xdde
 2690 0d2e 29       		.uleb128 0x29
 2691 0d2f 05010000 		.4byte	.LASF72
 2692 0d33 01       		.byte	0x1
 2693 0d34 1202     		.2byte	0x212
 2694 0d36 F2000000 		.4byte	0xf2
 2695 0d3a 6D050000 		.4byte	.LLST35
 2696 0d3e 29       		.uleb128 0x29
 2697 0d3f 7B020000 		.4byte	.LASF89
 2698 0d43 01       		.byte	0x1
 2699 0d44 1202     		.2byte	0x212
 2700 0d46 08010000 		.4byte	0x108
 2701 0d4a 99050000 		.4byte	.LLST36
 2702 0d4e 2D       		.uleb128 0x2d
 2703 0d4f 63747000 		.ascii	"ctp\000"
 2704 0d53 01       		.byte	0x1
 2705 0d54 1302     		.2byte	0x213
 2706 0d56 18020000 		.4byte	0x218
 2707 0d5a BA050000 		.4byte	.LLST37
 2708 0d5e 18       		.uleb128 0x18
 2709 0d5f 28030000 		.4byte	.LBB36
 2710 0d63 06000000 		.4byte	.LBE36-.LBB36
 2711 0d67 7A0D0000 		.4byte	0xd7a
 2712 0d6b 2A       		.uleb128 0x2a
 2713 0d6c 746D7000 		.ascii	"tmp\000"
 2714 0d70 01       		.byte	0x1
 2715 0d71 1502     		.2byte	0x215
 2716 0d73 9E000000 		.4byte	0x9e
 2717 0d77 01       		.uleb128 0x1
 2718 0d78 53       		.byte	0x53
 2719 0d79 00       		.byte	0
 2720 0d7a 18       		.uleb128 0x18
 2721 0d7b 38030000 		.4byte	.LBB37
 2722 0d7f 06000000 		.4byte	.LBE37-.LBB37
 2723 0d83 960D0000 		.4byte	0xd96
ARM GAS  /tmp/ccLx01V2.s 			page 49


 2724 0d87 2A       		.uleb128 0x2a
 2725 0d88 746D7000 		.ascii	"tmp\000"
 2726 0d8c 01       		.byte	0x1
 2727 0d8d 1902     		.2byte	0x219
 2728 0d8f 9E000000 		.4byte	0x9e
 2729 0d93 01       		.uleb128 0x1
 2730 0d94 53       		.byte	0x53
 2731 0d95 00       		.byte	0
 2732 0d96 18       		.uleb128 0x18
 2733 0d97 56030000 		.4byte	.LBB38
 2734 0d9b 06000000 		.4byte	.LBE38-.LBB38
 2735 0d9f B20D0000 		.4byte	0xdb2
 2736 0da3 2A       		.uleb128 0x2a
 2737 0da4 746D7000 		.ascii	"tmp\000"
 2738 0da8 01       		.byte	0x1
 2739 0da9 2402     		.2byte	0x224
 2740 0dab 9E000000 		.4byte	0x9e
 2741 0daf 01       		.uleb128 0x1
 2742 0db0 53       		.byte	0x53
 2743 0db1 00       		.byte	0
 2744 0db2 18       		.uleb128 0x18
 2745 0db3 60030000 		.4byte	.LBB39
 2746 0db7 06000000 		.4byte	.LBE39-.LBB39
 2747 0dbb CE0D0000 		.4byte	0xdce
 2748 0dbf 2A       		.uleb128 0x2a
 2749 0dc0 746D7000 		.ascii	"tmp\000"
 2750 0dc4 01       		.byte	0x1
 2751 0dc5 1E02     		.2byte	0x21e
 2752 0dc7 9E000000 		.4byte	0x9e
 2753 0dcb 01       		.uleb128 0x1
 2754 0dcc 53       		.byte	0x53
 2755 0dcd 00       		.byte	0
 2756 0dce 23       		.uleb128 0x23
 2757 0dcf 4A030000 		.4byte	.LVL87
 2758 0dd3 160E0000 		.4byte	0xe16
 2759 0dd7 24       		.uleb128 0x24
 2760 0dd8 01       		.uleb128 0x1
 2761 0dd9 50       		.byte	0x50
 2762 0dda 01       		.uleb128 0x1
 2763 0ddb 39       		.byte	0x39
 2764 0ddc 00       		.byte	0
 2765 0ddd 00       		.byte	0
 2766 0dde 2F       		.uleb128 0x2f
 2767 0ddf FE030000 		.4byte	.LASF97
 2768 0de3 08       		.byte	0x8
 2769 0de4 6F       		.byte	0x6f
 2770 0de5 1B040000 		.4byte	0x41b
 2771 0de9 30       		.uleb128 0x30
 2772 0dea 8D030000 		.4byte	.LASF98
 2773 0dee 08       		.byte	0x8
 2774 0def 90       		.byte	0x90
 2775 0df0 18020000 		.4byte	0x218
 2776 0df4 FE0D0000 		.4byte	0xdfe
 2777 0df8 0E       		.uleb128 0xe
 2778 0df9 18020000 		.4byte	0x218
 2779 0dfd 00       		.byte	0
 2780 0dfe 31       		.uleb128 0x31
ARM GAS  /tmp/ccLx01V2.s 			page 50


 2781 0dff E9000000 		.4byte	.LASF99
 2782 0e03 08       		.byte	0x8
 2783 0e04 9C       		.byte	0x9c
 2784 0e05 32       		.uleb128 0x32
 2785 0e06 5E030000 		.4byte	.LASF93
 2786 0e0a 08       		.byte	0x8
 2787 0e0b 93       		.byte	0x93
 2788 0e0c 160E0000 		.4byte	0xe16
 2789 0e10 0E       		.uleb128 0xe
 2790 0e11 BB000000 		.4byte	0xbb
 2791 0e15 00       		.byte	0
 2792 0e16 33       		.uleb128 0x33
 2793 0e17 F9010000 		.4byte	.LASF94
 2794 0e1b 08       		.byte	0x8
 2795 0e1c 96       		.byte	0x96
 2796 0e1d DC000000 		.4byte	0xdc
 2797 0e21 0E       		.uleb128 0xe
 2798 0e22 BB000000 		.4byte	0xbb
 2799 0e26 0E       		.uleb128 0xe
 2800 0e27 08010000 		.4byte	0x108
 2801 0e2b 00       		.byte	0
 2802 0e2c 00       		.byte	0
 2803              		.section	.debug_abbrev,"",%progbits
 2804              	.Ldebug_abbrev0:
 2805 0000 01       		.uleb128 0x1
 2806 0001 11       		.uleb128 0x11
 2807 0002 01       		.byte	0x1
 2808 0003 25       		.uleb128 0x25
 2809 0004 0E       		.uleb128 0xe
 2810 0005 13       		.uleb128 0x13
 2811 0006 0B       		.uleb128 0xb
 2812 0007 03       		.uleb128 0x3
 2813 0008 0E       		.uleb128 0xe
 2814 0009 11       		.uleb128 0x11
 2815 000a 01       		.uleb128 0x1
 2816 000b 12       		.uleb128 0x12
 2817 000c 06       		.uleb128 0x6
 2818 000d 10       		.uleb128 0x10
 2819 000e 17       		.uleb128 0x17
 2820 000f 00       		.byte	0
 2821 0010 00       		.byte	0
 2822 0011 02       		.uleb128 0x2
 2823 0012 24       		.uleb128 0x24
 2824 0013 00       		.byte	0
 2825 0014 0B       		.uleb128 0xb
 2826 0015 0B       		.uleb128 0xb
 2827 0016 3E       		.uleb128 0x3e
 2828 0017 0B       		.uleb128 0xb
 2829 0018 03       		.uleb128 0x3
 2830 0019 08       		.uleb128 0x8
 2831 001a 00       		.byte	0
 2832 001b 00       		.byte	0
 2833 001c 03       		.uleb128 0x3
 2834 001d 24       		.uleb128 0x24
 2835 001e 00       		.byte	0
 2836 001f 0B       		.uleb128 0xb
 2837 0020 0B       		.uleb128 0xb
ARM GAS  /tmp/ccLx01V2.s 			page 51


 2838 0021 3E       		.uleb128 0x3e
 2839 0022 0B       		.uleb128 0xb
 2840 0023 03       		.uleb128 0x3
 2841 0024 0E       		.uleb128 0xe
 2842 0025 00       		.byte	0
 2843 0026 00       		.byte	0
 2844 0027 04       		.uleb128 0x4
 2845 0028 16       		.uleb128 0x16
 2846 0029 00       		.byte	0
 2847 002a 03       		.uleb128 0x3
 2848 002b 0E       		.uleb128 0xe
 2849 002c 3A       		.uleb128 0x3a
 2850 002d 0B       		.uleb128 0xb
 2851 002e 3B       		.uleb128 0x3b
 2852 002f 0B       		.uleb128 0xb
 2853 0030 49       		.uleb128 0x49
 2854 0031 13       		.uleb128 0x13
 2855 0032 00       		.byte	0
 2856 0033 00       		.byte	0
 2857 0034 05       		.uleb128 0x5
 2858 0035 13       		.uleb128 0x13
 2859 0036 01       		.byte	0x1
 2860 0037 03       		.uleb128 0x3
 2861 0038 0E       		.uleb128 0xe
 2862 0039 0B       		.uleb128 0xb
 2863 003a 0B       		.uleb128 0xb
 2864 003b 3A       		.uleb128 0x3a
 2865 003c 0B       		.uleb128 0xb
 2866 003d 3B       		.uleb128 0x3b
 2867 003e 0B       		.uleb128 0xb
 2868 003f 01       		.uleb128 0x1
 2869 0040 13       		.uleb128 0x13
 2870 0041 00       		.byte	0
 2871 0042 00       		.byte	0
 2872 0043 06       		.uleb128 0x6
 2873 0044 0D       		.uleb128 0xd
 2874 0045 00       		.byte	0
 2875 0046 03       		.uleb128 0x3
 2876 0047 0E       		.uleb128 0xe
 2877 0048 3A       		.uleb128 0x3a
 2878 0049 0B       		.uleb128 0xb
 2879 004a 3B       		.uleb128 0x3b
 2880 004b 0B       		.uleb128 0xb
 2881 004c 49       		.uleb128 0x49
 2882 004d 13       		.uleb128 0x13
 2883 004e 38       		.uleb128 0x38
 2884 004f 0B       		.uleb128 0xb
 2885 0050 00       		.byte	0
 2886 0051 00       		.byte	0
 2887 0052 07       		.uleb128 0x7
 2888 0053 0D       		.uleb128 0xd
 2889 0054 00       		.byte	0
 2890 0055 03       		.uleb128 0x3
 2891 0056 08       		.uleb128 0x8
 2892 0057 3A       		.uleb128 0x3a
 2893 0058 0B       		.uleb128 0xb
 2894 0059 3B       		.uleb128 0x3b
ARM GAS  /tmp/ccLx01V2.s 			page 52


 2895 005a 0B       		.uleb128 0xb
 2896 005b 49       		.uleb128 0x49
 2897 005c 13       		.uleb128 0x13
 2898 005d 38       		.uleb128 0x38
 2899 005e 0B       		.uleb128 0xb
 2900 005f 00       		.byte	0
 2901 0060 00       		.byte	0
 2902 0061 08       		.uleb128 0x8
 2903 0062 13       		.uleb128 0x13
 2904 0063 01       		.byte	0x1
 2905 0064 0B       		.uleb128 0xb
 2906 0065 0B       		.uleb128 0xb
 2907 0066 3A       		.uleb128 0x3a
 2908 0067 0B       		.uleb128 0xb
 2909 0068 3B       		.uleb128 0x3b
 2910 0069 0B       		.uleb128 0xb
 2911 006a 01       		.uleb128 0x1
 2912 006b 13       		.uleb128 0x13
 2913 006c 00       		.byte	0
 2914 006d 00       		.byte	0
 2915 006e 09       		.uleb128 0x9
 2916 006f 0F       		.uleb128 0xf
 2917 0070 00       		.byte	0
 2918 0071 0B       		.uleb128 0xb
 2919 0072 0B       		.uleb128 0xb
 2920 0073 49       		.uleb128 0x49
 2921 0074 13       		.uleb128 0x13
 2922 0075 00       		.byte	0
 2923 0076 00       		.byte	0
 2924 0077 0A       		.uleb128 0xa
 2925 0078 0F       		.uleb128 0xf
 2926 0079 00       		.byte	0
 2927 007a 0B       		.uleb128 0xb
 2928 007b 0B       		.uleb128 0xb
 2929 007c 00       		.byte	0
 2930 007d 00       		.byte	0
 2931 007e 0B       		.uleb128 0xb
 2932 007f 13       		.uleb128 0x13
 2933 0080 01       		.byte	0x1
 2934 0081 03       		.uleb128 0x3
 2935 0082 0E       		.uleb128 0xe
 2936 0083 0B       		.uleb128 0xb
 2937 0084 0B       		.uleb128 0xb
 2938 0085 3A       		.uleb128 0x3a
 2939 0086 0B       		.uleb128 0xb
 2940 0087 3B       		.uleb128 0x3b
 2941 0088 05       		.uleb128 0x5
 2942 0089 01       		.uleb128 0x1
 2943 008a 13       		.uleb128 0x13
 2944 008b 00       		.byte	0
 2945 008c 00       		.byte	0
 2946 008d 0C       		.uleb128 0xc
 2947 008e 0D       		.uleb128 0xd
 2948 008f 00       		.byte	0
 2949 0090 03       		.uleb128 0x3
 2950 0091 08       		.uleb128 0x8
 2951 0092 3A       		.uleb128 0x3a
ARM GAS  /tmp/ccLx01V2.s 			page 53


 2952 0093 0B       		.uleb128 0xb
 2953 0094 3B       		.uleb128 0x3b
 2954 0095 05       		.uleb128 0x5
 2955 0096 49       		.uleb128 0x49
 2956 0097 13       		.uleb128 0x13
 2957 0098 38       		.uleb128 0x38
 2958 0099 0B       		.uleb128 0xb
 2959 009a 00       		.byte	0
 2960 009b 00       		.byte	0
 2961 009c 0D       		.uleb128 0xd
 2962 009d 15       		.uleb128 0x15
 2963 009e 01       		.byte	0x1
 2964 009f 27       		.uleb128 0x27
 2965 00a0 19       		.uleb128 0x19
 2966 00a1 01       		.uleb128 0x1
 2967 00a2 13       		.uleb128 0x13
 2968 00a3 00       		.byte	0
 2969 00a4 00       		.byte	0
 2970 00a5 0E       		.uleb128 0xe
 2971 00a6 05       		.uleb128 0x5
 2972 00a7 00       		.byte	0
 2973 00a8 49       		.uleb128 0x49
 2974 00a9 13       		.uleb128 0x13
 2975 00aa 00       		.byte	0
 2976 00ab 00       		.byte	0
 2977 00ac 0F       		.uleb128 0xf
 2978 00ad 17       		.uleb128 0x17
 2979 00ae 01       		.byte	0x1
 2980 00af 0B       		.uleb128 0xb
 2981 00b0 0B       		.uleb128 0xb
 2982 00b1 3A       		.uleb128 0x3a
 2983 00b2 0B       		.uleb128 0xb
 2984 00b3 3B       		.uleb128 0x3b
 2985 00b4 0B       		.uleb128 0xb
 2986 00b5 01       		.uleb128 0x1
 2987 00b6 13       		.uleb128 0x13
 2988 00b7 00       		.byte	0
 2989 00b8 00       		.byte	0
 2990 00b9 10       		.uleb128 0x10
 2991 00ba 0D       		.uleb128 0xd
 2992 00bb 00       		.byte	0
 2993 00bc 03       		.uleb128 0x3
 2994 00bd 0E       		.uleb128 0xe
 2995 00be 3A       		.uleb128 0x3a
 2996 00bf 0B       		.uleb128 0xb
 2997 00c0 3B       		.uleb128 0x3b
 2998 00c1 0B       		.uleb128 0xb
 2999 00c2 49       		.uleb128 0x49
 3000 00c3 13       		.uleb128 0x13
 3001 00c4 00       		.byte	0
 3002 00c5 00       		.byte	0
 3003 00c6 11       		.uleb128 0x11
 3004 00c7 26       		.uleb128 0x26
 3005 00c8 00       		.byte	0
 3006 00c9 49       		.uleb128 0x49
 3007 00ca 13       		.uleb128 0x13
 3008 00cb 00       		.byte	0
ARM GAS  /tmp/ccLx01V2.s 			page 54


 3009 00cc 00       		.byte	0
 3010 00cd 12       		.uleb128 0x12
 3011 00ce 2E       		.uleb128 0x2e
 3012 00cf 01       		.byte	0x1
 3013 00d0 3F       		.uleb128 0x3f
 3014 00d1 19       		.uleb128 0x19
 3015 00d2 03       		.uleb128 0x3
 3016 00d3 0E       		.uleb128 0xe
 3017 00d4 3A       		.uleb128 0x3a
 3018 00d5 0B       		.uleb128 0xb
 3019 00d6 3B       		.uleb128 0x3b
 3020 00d7 0B       		.uleb128 0xb
 3021 00d8 27       		.uleb128 0x27
 3022 00d9 19       		.uleb128 0x19
 3023 00da 20       		.uleb128 0x20
 3024 00db 0B       		.uleb128 0xb
 3025 00dc 01       		.uleb128 0x1
 3026 00dd 13       		.uleb128 0x13
 3027 00de 00       		.byte	0
 3028 00df 00       		.byte	0
 3029 00e0 13       		.uleb128 0x13
 3030 00e1 05       		.uleb128 0x5
 3031 00e2 00       		.byte	0
 3032 00e3 03       		.uleb128 0x3
 3033 00e4 08       		.uleb128 0x8
 3034 00e5 3A       		.uleb128 0x3a
 3035 00e6 0B       		.uleb128 0xb
 3036 00e7 3B       		.uleb128 0x3b
 3037 00e8 0B       		.uleb128 0xb
 3038 00e9 49       		.uleb128 0x49
 3039 00ea 13       		.uleb128 0x13
 3040 00eb 00       		.byte	0
 3041 00ec 00       		.byte	0
 3042 00ed 14       		.uleb128 0x14
 3043 00ee 05       		.uleb128 0x5
 3044 00ef 00       		.byte	0
 3045 00f0 03       		.uleb128 0x3
 3046 00f1 0E       		.uleb128 0xe
 3047 00f2 3A       		.uleb128 0x3a
 3048 00f3 0B       		.uleb128 0xb
 3049 00f4 3B       		.uleb128 0x3b
 3050 00f5 0B       		.uleb128 0xb
 3051 00f6 49       		.uleb128 0x49
 3052 00f7 13       		.uleb128 0x13
 3053 00f8 00       		.byte	0
 3054 00f9 00       		.byte	0
 3055 00fa 15       		.uleb128 0x15
 3056 00fb 2E       		.uleb128 0x2e
 3057 00fc 01       		.byte	0x1
 3058 00fd 3F       		.uleb128 0x3f
 3059 00fe 19       		.uleb128 0x19
 3060 00ff 03       		.uleb128 0x3
 3061 0100 0E       		.uleb128 0xe
 3062 0101 3A       		.uleb128 0x3a
 3063 0102 0B       		.uleb128 0xb
 3064 0103 3B       		.uleb128 0x3b
 3065 0104 0B       		.uleb128 0xb
ARM GAS  /tmp/ccLx01V2.s 			page 55


 3066 0105 27       		.uleb128 0x27
 3067 0106 19       		.uleb128 0x19
 3068 0107 11       		.uleb128 0x11
 3069 0108 01       		.uleb128 0x1
 3070 0109 12       		.uleb128 0x12
 3071 010a 06       		.uleb128 0x6
 3072 010b 40       		.uleb128 0x40
 3073 010c 18       		.uleb128 0x18
 3074 010d 9742     		.uleb128 0x2117
 3075 010f 19       		.uleb128 0x19
 3076 0110 01       		.uleb128 0x1
 3077 0111 13       		.uleb128 0x13
 3078 0112 00       		.byte	0
 3079 0113 00       		.byte	0
 3080 0114 16       		.uleb128 0x16
 3081 0115 05       		.uleb128 0x5
 3082 0116 00       		.byte	0
 3083 0117 03       		.uleb128 0x3
 3084 0118 08       		.uleb128 0x8
 3085 0119 3A       		.uleb128 0x3a
 3086 011a 0B       		.uleb128 0xb
 3087 011b 3B       		.uleb128 0x3b
 3088 011c 0B       		.uleb128 0xb
 3089 011d 49       		.uleb128 0x49
 3090 011e 13       		.uleb128 0x13
 3091 011f 02       		.uleb128 0x2
 3092 0120 18       		.uleb128 0x18
 3093 0121 00       		.byte	0
 3094 0122 00       		.byte	0
 3095 0123 17       		.uleb128 0x17
 3096 0124 05       		.uleb128 0x5
 3097 0125 00       		.byte	0
 3098 0126 03       		.uleb128 0x3
 3099 0127 0E       		.uleb128 0xe
 3100 0128 3A       		.uleb128 0x3a
 3101 0129 0B       		.uleb128 0xb
 3102 012a 3B       		.uleb128 0x3b
 3103 012b 0B       		.uleb128 0xb
 3104 012c 49       		.uleb128 0x49
 3105 012d 13       		.uleb128 0x13
 3106 012e 02       		.uleb128 0x2
 3107 012f 18       		.uleb128 0x18
 3108 0130 00       		.byte	0
 3109 0131 00       		.byte	0
 3110 0132 18       		.uleb128 0x18
 3111 0133 0B       		.uleb128 0xb
 3112 0134 01       		.byte	0x1
 3113 0135 11       		.uleb128 0x11
 3114 0136 01       		.uleb128 0x1
 3115 0137 12       		.uleb128 0x12
 3116 0138 06       		.uleb128 0x6
 3117 0139 01       		.uleb128 0x1
 3118 013a 13       		.uleb128 0x13
 3119 013b 00       		.byte	0
 3120 013c 00       		.byte	0
 3121 013d 19       		.uleb128 0x19
 3122 013e 34       		.uleb128 0x34
ARM GAS  /tmp/ccLx01V2.s 			page 56


 3123 013f 00       		.byte	0
 3124 0140 03       		.uleb128 0x3
 3125 0141 08       		.uleb128 0x8
 3126 0142 3A       		.uleb128 0x3a
 3127 0143 0B       		.uleb128 0xb
 3128 0144 3B       		.uleb128 0x3b
 3129 0145 0B       		.uleb128 0xb
 3130 0146 49       		.uleb128 0x49
 3131 0147 13       		.uleb128 0x13
 3132 0148 02       		.uleb128 0x2
 3133 0149 18       		.uleb128 0x18
 3134 014a 00       		.byte	0
 3135 014b 00       		.byte	0
 3136 014c 1A       		.uleb128 0x1a
 3137 014d 0B       		.uleb128 0xb
 3138 014e 01       		.byte	0x1
 3139 014f 55       		.uleb128 0x55
 3140 0150 17       		.uleb128 0x17
 3141 0151 00       		.byte	0
 3142 0152 00       		.byte	0
 3143 0153 1B       		.uleb128 0x1b
 3144 0154 34       		.uleb128 0x34
 3145 0155 00       		.byte	0
 3146 0156 03       		.uleb128 0x3
 3147 0157 08       		.uleb128 0x8
 3148 0158 3A       		.uleb128 0x3a
 3149 0159 0B       		.uleb128 0xb
 3150 015a 3B       		.uleb128 0x3b
 3151 015b 0B       		.uleb128 0xb
 3152 015c 49       		.uleb128 0x49
 3153 015d 13       		.uleb128 0x13
 3154 015e 02       		.uleb128 0x2
 3155 015f 17       		.uleb128 0x17
 3156 0160 00       		.byte	0
 3157 0161 00       		.byte	0
 3158 0162 1C       		.uleb128 0x1c
 3159 0163 2E       		.uleb128 0x2e
 3160 0164 01       		.byte	0x1
 3161 0165 3F       		.uleb128 0x3f
 3162 0166 19       		.uleb128 0x19
 3163 0167 03       		.uleb128 0x3
 3164 0168 0E       		.uleb128 0xe
 3165 0169 3A       		.uleb128 0x3a
 3166 016a 0B       		.uleb128 0xb
 3167 016b 3B       		.uleb128 0x3b
 3168 016c 0B       		.uleb128 0xb
 3169 016d 27       		.uleb128 0x27
 3170 016e 19       		.uleb128 0x19
 3171 016f 49       		.uleb128 0x49
 3172 0170 13       		.uleb128 0x13
 3173 0171 11       		.uleb128 0x11
 3174 0172 01       		.uleb128 0x1
 3175 0173 12       		.uleb128 0x12
 3176 0174 06       		.uleb128 0x6
 3177 0175 40       		.uleb128 0x40
 3178 0176 18       		.uleb128 0x18
 3179 0177 9742     		.uleb128 0x2117
ARM GAS  /tmp/ccLx01V2.s 			page 57


 3180 0179 19       		.uleb128 0x19
 3181 017a 01       		.uleb128 0x1
 3182 017b 13       		.uleb128 0x13
 3183 017c 00       		.byte	0
 3184 017d 00       		.byte	0
 3185 017e 1D       		.uleb128 0x1d
 3186 017f 05       		.uleb128 0x5
 3187 0180 00       		.byte	0
 3188 0181 03       		.uleb128 0x3
 3189 0182 0E       		.uleb128 0xe
 3190 0183 3A       		.uleb128 0x3a
 3191 0184 0B       		.uleb128 0xb
 3192 0185 3B       		.uleb128 0x3b
 3193 0186 0B       		.uleb128 0xb
 3194 0187 49       		.uleb128 0x49
 3195 0188 13       		.uleb128 0x13
 3196 0189 02       		.uleb128 0x2
 3197 018a 17       		.uleb128 0x17
 3198 018b 00       		.byte	0
 3199 018c 00       		.byte	0
 3200 018d 1E       		.uleb128 0x1e
 3201 018e 0B       		.uleb128 0xb
 3202 018f 01       		.byte	0x1
 3203 0190 11       		.uleb128 0x11
 3204 0191 01       		.uleb128 0x1
 3205 0192 12       		.uleb128 0x12
 3206 0193 06       		.uleb128 0x6
 3207 0194 00       		.byte	0
 3208 0195 00       		.byte	0
 3209 0196 1F       		.uleb128 0x1f
 3210 0197 05       		.uleb128 0x5
 3211 0198 00       		.byte	0
 3212 0199 03       		.uleb128 0x3
 3213 019a 08       		.uleb128 0x8
 3214 019b 3A       		.uleb128 0x3a
 3215 019c 0B       		.uleb128 0xb
 3216 019d 3B       		.uleb128 0x3b
 3217 019e 0B       		.uleb128 0xb
 3218 019f 49       		.uleb128 0x49
 3219 01a0 13       		.uleb128 0x13
 3220 01a1 02       		.uleb128 0x2
 3221 01a2 17       		.uleb128 0x17
 3222 01a3 00       		.byte	0
 3223 01a4 00       		.byte	0
 3224 01a5 20       		.uleb128 0x20
 3225 01a6 34       		.uleb128 0x34
 3226 01a7 00       		.byte	0
 3227 01a8 03       		.uleb128 0x3
 3228 01a9 0E       		.uleb128 0xe
 3229 01aa 3A       		.uleb128 0x3a
 3230 01ab 0B       		.uleb128 0xb
 3231 01ac 3B       		.uleb128 0x3b
 3232 01ad 0B       		.uleb128 0xb
 3233 01ae 49       		.uleb128 0x49
 3234 01af 13       		.uleb128 0x13
 3235 01b0 02       		.uleb128 0x2
 3236 01b1 18       		.uleb128 0x18
ARM GAS  /tmp/ccLx01V2.s 			page 58


 3237 01b2 00       		.byte	0
 3238 01b3 00       		.byte	0
 3239 01b4 21       		.uleb128 0x21
 3240 01b5 2E       		.uleb128 0x2e
 3241 01b6 01       		.byte	0x1
 3242 01b7 31       		.uleb128 0x31
 3243 01b8 13       		.uleb128 0x13
 3244 01b9 11       		.uleb128 0x11
 3245 01ba 01       		.uleb128 0x1
 3246 01bb 12       		.uleb128 0x12
 3247 01bc 06       		.uleb128 0x6
 3248 01bd 40       		.uleb128 0x40
 3249 01be 18       		.uleb128 0x18
 3250 01bf 9742     		.uleb128 0x2117
 3251 01c1 19       		.uleb128 0x19
 3252 01c2 01       		.uleb128 0x1
 3253 01c3 13       		.uleb128 0x13
 3254 01c4 00       		.byte	0
 3255 01c5 00       		.byte	0
 3256 01c6 22       		.uleb128 0x22
 3257 01c7 05       		.uleb128 0x5
 3258 01c8 00       		.byte	0
 3259 01c9 31       		.uleb128 0x31
 3260 01ca 13       		.uleb128 0x13
 3261 01cb 02       		.uleb128 0x2
 3262 01cc 17       		.uleb128 0x17
 3263 01cd 00       		.byte	0
 3264 01ce 00       		.byte	0
 3265 01cf 23       		.uleb128 0x23
 3266 01d0 898201   		.uleb128 0x4109
 3267 01d3 01       		.byte	0x1
 3268 01d4 11       		.uleb128 0x11
 3269 01d5 01       		.uleb128 0x1
 3270 01d6 31       		.uleb128 0x31
 3271 01d7 13       		.uleb128 0x13
 3272 01d8 00       		.byte	0
 3273 01d9 00       		.byte	0
 3274 01da 24       		.uleb128 0x24
 3275 01db 8A8201   		.uleb128 0x410a
 3276 01de 00       		.byte	0
 3277 01df 02       		.uleb128 0x2
 3278 01e0 18       		.uleb128 0x18
 3279 01e1 9142     		.uleb128 0x2111
 3280 01e3 18       		.uleb128 0x18
 3281 01e4 00       		.byte	0
 3282 01e5 00       		.byte	0
 3283 01e6 25       		.uleb128 0x25
 3284 01e7 898201   		.uleb128 0x4109
 3285 01ea 00       		.byte	0
 3286 01eb 11       		.uleb128 0x11
 3287 01ec 01       		.uleb128 0x1
 3288 01ed 31       		.uleb128 0x31
 3289 01ee 13       		.uleb128 0x13
 3290 01ef 00       		.byte	0
 3291 01f0 00       		.byte	0
 3292 01f1 26       		.uleb128 0x26
 3293 01f2 898201   		.uleb128 0x4109
ARM GAS  /tmp/ccLx01V2.s 			page 59


 3294 01f5 01       		.byte	0x1
 3295 01f6 11       		.uleb128 0x11
 3296 01f7 01       		.uleb128 0x1
 3297 01f8 31       		.uleb128 0x31
 3298 01f9 13       		.uleb128 0x13
 3299 01fa 01       		.uleb128 0x1
 3300 01fb 13       		.uleb128 0x13
 3301 01fc 00       		.byte	0
 3302 01fd 00       		.byte	0
 3303 01fe 27       		.uleb128 0x27
 3304 01ff 2E       		.uleb128 0x2e
 3305 0200 01       		.byte	0x1
 3306 0201 3F       		.uleb128 0x3f
 3307 0202 19       		.uleb128 0x19
 3308 0203 03       		.uleb128 0x3
 3309 0204 0E       		.uleb128 0xe
 3310 0205 3A       		.uleb128 0x3a
 3311 0206 0B       		.uleb128 0xb
 3312 0207 3B       		.uleb128 0x3b
 3313 0208 05       		.uleb128 0x5
 3314 0209 27       		.uleb128 0x27
 3315 020a 19       		.uleb128 0x19
 3316 020b 11       		.uleb128 0x11
 3317 020c 01       		.uleb128 0x1
 3318 020d 12       		.uleb128 0x12
 3319 020e 06       		.uleb128 0x6
 3320 020f 40       		.uleb128 0x40
 3321 0210 18       		.uleb128 0x18
 3322 0211 9742     		.uleb128 0x2117
 3323 0213 19       		.uleb128 0x19
 3324 0214 01       		.uleb128 0x1
 3325 0215 13       		.uleb128 0x13
 3326 0216 00       		.byte	0
 3327 0217 00       		.byte	0
 3328 0218 28       		.uleb128 0x28
 3329 0219 05       		.uleb128 0x5
 3330 021a 00       		.byte	0
 3331 021b 03       		.uleb128 0x3
 3332 021c 08       		.uleb128 0x8
 3333 021d 3A       		.uleb128 0x3a
 3334 021e 0B       		.uleb128 0xb
 3335 021f 3B       		.uleb128 0x3b
 3336 0220 05       		.uleb128 0x5
 3337 0221 49       		.uleb128 0x49
 3338 0222 13       		.uleb128 0x13
 3339 0223 02       		.uleb128 0x2
 3340 0224 17       		.uleb128 0x17
 3341 0225 00       		.byte	0
 3342 0226 00       		.byte	0
 3343 0227 29       		.uleb128 0x29
 3344 0228 05       		.uleb128 0x5
 3345 0229 00       		.byte	0
 3346 022a 03       		.uleb128 0x3
 3347 022b 0E       		.uleb128 0xe
 3348 022c 3A       		.uleb128 0x3a
 3349 022d 0B       		.uleb128 0xb
 3350 022e 3B       		.uleb128 0x3b
ARM GAS  /tmp/ccLx01V2.s 			page 60


 3351 022f 05       		.uleb128 0x5
 3352 0230 49       		.uleb128 0x49
 3353 0231 13       		.uleb128 0x13
 3354 0232 02       		.uleb128 0x2
 3355 0233 17       		.uleb128 0x17
 3356 0234 00       		.byte	0
 3357 0235 00       		.byte	0
 3358 0236 2A       		.uleb128 0x2a
 3359 0237 34       		.uleb128 0x34
 3360 0238 00       		.byte	0
 3361 0239 03       		.uleb128 0x3
 3362 023a 08       		.uleb128 0x8
 3363 023b 3A       		.uleb128 0x3a
 3364 023c 0B       		.uleb128 0xb
 3365 023d 3B       		.uleb128 0x3b
 3366 023e 05       		.uleb128 0x5
 3367 023f 49       		.uleb128 0x49
 3368 0240 13       		.uleb128 0x13
 3369 0241 02       		.uleb128 0x2
 3370 0242 18       		.uleb128 0x18
 3371 0243 00       		.byte	0
 3372 0244 00       		.byte	0
 3373 0245 2B       		.uleb128 0x2b
 3374 0246 2E       		.uleb128 0x2e
 3375 0247 01       		.byte	0x1
 3376 0248 3F       		.uleb128 0x3f
 3377 0249 19       		.uleb128 0x19
 3378 024a 03       		.uleb128 0x3
 3379 024b 0E       		.uleb128 0xe
 3380 024c 3A       		.uleb128 0x3a
 3381 024d 0B       		.uleb128 0xb
 3382 024e 3B       		.uleb128 0x3b
 3383 024f 05       		.uleb128 0x5
 3384 0250 27       		.uleb128 0x27
 3385 0251 19       		.uleb128 0x19
 3386 0252 49       		.uleb128 0x49
 3387 0253 13       		.uleb128 0x13
 3388 0254 11       		.uleb128 0x11
 3389 0255 01       		.uleb128 0x1
 3390 0256 12       		.uleb128 0x12
 3391 0257 06       		.uleb128 0x6
 3392 0258 40       		.uleb128 0x40
 3393 0259 18       		.uleb128 0x18
 3394 025a 9742     		.uleb128 0x2117
 3395 025c 19       		.uleb128 0x19
 3396 025d 01       		.uleb128 0x1
 3397 025e 13       		.uleb128 0x13
 3398 025f 00       		.byte	0
 3399 0260 00       		.byte	0
 3400 0261 2C       		.uleb128 0x2c
 3401 0262 34       		.uleb128 0x34
 3402 0263 00       		.byte	0
 3403 0264 03       		.uleb128 0x3
 3404 0265 0E       		.uleb128 0xe
 3405 0266 3A       		.uleb128 0x3a
 3406 0267 0B       		.uleb128 0xb
 3407 0268 3B       		.uleb128 0x3b
ARM GAS  /tmp/ccLx01V2.s 			page 61


 3408 0269 05       		.uleb128 0x5
 3409 026a 49       		.uleb128 0x49
 3410 026b 13       		.uleb128 0x13
 3411 026c 02       		.uleb128 0x2
 3412 026d 18       		.uleb128 0x18
 3413 026e 00       		.byte	0
 3414 026f 00       		.byte	0
 3415 0270 2D       		.uleb128 0x2d
 3416 0271 34       		.uleb128 0x34
 3417 0272 00       		.byte	0
 3418 0273 03       		.uleb128 0x3
 3419 0274 08       		.uleb128 0x8
 3420 0275 3A       		.uleb128 0x3a
 3421 0276 0B       		.uleb128 0xb
 3422 0277 3B       		.uleb128 0x3b
 3423 0278 05       		.uleb128 0x5
 3424 0279 49       		.uleb128 0x49
 3425 027a 13       		.uleb128 0x13
 3426 027b 02       		.uleb128 0x2
 3427 027c 17       		.uleb128 0x17
 3428 027d 00       		.byte	0
 3429 027e 00       		.byte	0
 3430 027f 2E       		.uleb128 0x2e
 3431 0280 898201   		.uleb128 0x4109
 3432 0283 01       		.byte	0x1
 3433 0284 11       		.uleb128 0x11
 3434 0285 01       		.uleb128 0x1
 3435 0286 00       		.byte	0
 3436 0287 00       		.byte	0
 3437 0288 2F       		.uleb128 0x2f
 3438 0289 34       		.uleb128 0x34
 3439 028a 00       		.byte	0
 3440 028b 03       		.uleb128 0x3
 3441 028c 0E       		.uleb128 0xe
 3442 028d 3A       		.uleb128 0x3a
 3443 028e 0B       		.uleb128 0xb
 3444 028f 3B       		.uleb128 0x3b
 3445 0290 0B       		.uleb128 0xb
 3446 0291 49       		.uleb128 0x49
 3447 0292 13       		.uleb128 0x13
 3448 0293 3F       		.uleb128 0x3f
 3449 0294 19       		.uleb128 0x19
 3450 0295 3C       		.uleb128 0x3c
 3451 0296 19       		.uleb128 0x19
 3452 0297 00       		.byte	0
 3453 0298 00       		.byte	0
 3454 0299 30       		.uleb128 0x30
 3455 029a 2E       		.uleb128 0x2e
 3456 029b 01       		.byte	0x1
 3457 029c 3F       		.uleb128 0x3f
 3458 029d 19       		.uleb128 0x19
 3459 029e 03       		.uleb128 0x3
 3460 029f 0E       		.uleb128 0xe
 3461 02a0 3A       		.uleb128 0x3a
 3462 02a1 0B       		.uleb128 0xb
 3463 02a2 3B       		.uleb128 0x3b
 3464 02a3 0B       		.uleb128 0xb
ARM GAS  /tmp/ccLx01V2.s 			page 62


 3465 02a4 27       		.uleb128 0x27
 3466 02a5 19       		.uleb128 0x19
 3467 02a6 49       		.uleb128 0x49
 3468 02a7 13       		.uleb128 0x13
 3469 02a8 3C       		.uleb128 0x3c
 3470 02a9 19       		.uleb128 0x19
 3471 02aa 01       		.uleb128 0x1
 3472 02ab 13       		.uleb128 0x13
 3473 02ac 00       		.byte	0
 3474 02ad 00       		.byte	0
 3475 02ae 31       		.uleb128 0x31
 3476 02af 2E       		.uleb128 0x2e
 3477 02b0 00       		.byte	0
 3478 02b1 3F       		.uleb128 0x3f
 3479 02b2 19       		.uleb128 0x19
 3480 02b3 03       		.uleb128 0x3
 3481 02b4 0E       		.uleb128 0xe
 3482 02b5 3A       		.uleb128 0x3a
 3483 02b6 0B       		.uleb128 0xb
 3484 02b7 3B       		.uleb128 0x3b
 3485 02b8 0B       		.uleb128 0xb
 3486 02b9 27       		.uleb128 0x27
 3487 02ba 19       		.uleb128 0x19
 3488 02bb 3C       		.uleb128 0x3c
 3489 02bc 19       		.uleb128 0x19
 3490 02bd 00       		.byte	0
 3491 02be 00       		.byte	0
 3492 02bf 32       		.uleb128 0x32
 3493 02c0 2E       		.uleb128 0x2e
 3494 02c1 01       		.byte	0x1
 3495 02c2 3F       		.uleb128 0x3f
 3496 02c3 19       		.uleb128 0x19
 3497 02c4 03       		.uleb128 0x3
 3498 02c5 0E       		.uleb128 0xe
 3499 02c6 3A       		.uleb128 0x3a
 3500 02c7 0B       		.uleb128 0xb
 3501 02c8 3B       		.uleb128 0x3b
 3502 02c9 0B       		.uleb128 0xb
 3503 02ca 27       		.uleb128 0x27
 3504 02cb 19       		.uleb128 0x19
 3505 02cc 3C       		.uleb128 0x3c
 3506 02cd 19       		.uleb128 0x19
 3507 02ce 01       		.uleb128 0x1
 3508 02cf 13       		.uleb128 0x13
 3509 02d0 00       		.byte	0
 3510 02d1 00       		.byte	0
 3511 02d2 33       		.uleb128 0x33
 3512 02d3 2E       		.uleb128 0x2e
 3513 02d4 01       		.byte	0x1
 3514 02d5 3F       		.uleb128 0x3f
 3515 02d6 19       		.uleb128 0x19
 3516 02d7 03       		.uleb128 0x3
 3517 02d8 0E       		.uleb128 0xe
 3518 02d9 3A       		.uleb128 0x3a
 3519 02da 0B       		.uleb128 0xb
 3520 02db 3B       		.uleb128 0x3b
 3521 02dc 0B       		.uleb128 0xb
ARM GAS  /tmp/ccLx01V2.s 			page 63


 3522 02dd 27       		.uleb128 0x27
 3523 02de 19       		.uleb128 0x19
 3524 02df 49       		.uleb128 0x49
 3525 02e0 13       		.uleb128 0x13
 3526 02e1 3C       		.uleb128 0x3c
 3527 02e2 19       		.uleb128 0x19
 3528 02e3 00       		.byte	0
 3529 02e4 00       		.byte	0
 3530 02e5 00       		.byte	0
 3531              		.section	.debug_loc,"",%progbits
 3532              	.Ldebug_loc0:
 3533              	.LLST0:
 3534 0000 30000000 		.4byte	.LVL1-.Ltext0
 3535 0004 3A000000 		.4byte	.LVL2-.Ltext0
 3536 0008 0100     		.2byte	0x1
 3537 000a 50       		.byte	0x50
 3538 000b 3A000000 		.4byte	.LVL2-.Ltext0
 3539 000f 5A000000 		.4byte	.LFE8-.Ltext0
 3540 0013 0100     		.2byte	0x1
 3541 0015 52       		.byte	0x52
 3542 0016 00000000 		.4byte	0
 3543 001a 00000000 		.4byte	0
 3544              	.LLST1:
 3545 001e 60000000 		.4byte	.LVL4-.Ltext0
 3546 0022 7A000000 		.4byte	.LVL6-.Ltext0
 3547 0026 0100     		.2byte	0x1
 3548 0028 50       		.byte	0x50
 3549 0029 7A000000 		.4byte	.LVL6-.Ltext0
 3550 002d 80000000 		.4byte	.LFE9-.Ltext0
 3551 0031 0400     		.2byte	0x4
 3552 0033 F3       		.byte	0xf3
 3553 0034 01       		.uleb128 0x1
 3554 0035 50       		.byte	0x50
 3555 0036 9F       		.byte	0x9f
 3556 0037 00000000 		.4byte	0
 3557 003b 00000000 		.4byte	0
 3558              	.LLST2:
 3559 003f 6C000000 		.4byte	.LVL5-.Ltext0
 3560 0043 7A000000 		.4byte	.LVL6-.Ltext0
 3561 0047 0600     		.2byte	0x6
 3562 0049 70       		.byte	0x70
 3563 004a 00       		.sleb128 0
 3564 004b 72       		.byte	0x72
 3565 004c 00       		.sleb128 0
 3566 004d 1A       		.byte	0x1a
 3567 004e 9F       		.byte	0x9f
 3568 004f 7A000000 		.4byte	.LVL6-.Ltext0
 3569 0053 80000000 		.4byte	.LFE9-.Ltext0
 3570 0057 0100     		.2byte	0x1
 3571 0059 50       		.byte	0x50
 3572 005a 00000000 		.4byte	0
 3573 005e 00000000 		.4byte	0
 3574              	.LLST3:
 3575 0062 80000000 		.4byte	.LVL7-.Ltext0
 3576 0066 8E000000 		.4byte	.LVL8-.Ltext0
 3577 006a 0100     		.2byte	0x1
 3578 006c 50       		.byte	0x50
ARM GAS  /tmp/ccLx01V2.s 			page 64


 3579 006d 8E000000 		.4byte	.LVL8-.Ltext0
 3580 0071 90000000 		.4byte	.LVL9-.Ltext0
 3581 0075 0400     		.2byte	0x4
 3582 0077 F3       		.byte	0xf3
 3583 0078 01       		.uleb128 0x1
 3584 0079 50       		.byte	0x50
 3585 007a 9F       		.byte	0x9f
 3586 007b 90000000 		.4byte	.LVL9-.Ltext0
 3587 007f 9C000000 		.4byte	.LFE10-.Ltext0
 3588 0083 0100     		.2byte	0x1
 3589 0085 50       		.byte	0x50
 3590 0086 00000000 		.4byte	0
 3591 008a 00000000 		.4byte	0
 3592              	.LLST4:
 3593 008e A0000000 		.4byte	.LVL10-.Ltext0
 3594 0092 AC000000 		.4byte	.LVL11-.Ltext0
 3595 0096 0100     		.2byte	0x1
 3596 0098 50       		.byte	0x50
 3597 0099 AC000000 		.4byte	.LVL11-.Ltext0
 3598 009d B4000000 		.4byte	.LFE12-.Ltext0
 3599 00a1 0100     		.2byte	0x1
 3600 00a3 52       		.byte	0x52
 3601 00a4 00000000 		.4byte	0
 3602 00a8 00000000 		.4byte	0
 3603              	.LLST5:
 3604 00ac C0000000 		.4byte	.LVL12-.Ltext0
 3605 00b0 DF000000 		.4byte	.LVL15-1-.Ltext0
 3606 00b4 0100     		.2byte	0x1
 3607 00b6 50       		.byte	0x50
 3608 00b7 DF000000 		.4byte	.LVL15-1-.Ltext0
 3609 00bb E6000000 		.4byte	.LVL16-.Ltext0
 3610 00bf 0400     		.2byte	0x4
 3611 00c1 F3       		.byte	0xf3
 3612 00c2 01       		.uleb128 0x1
 3613 00c3 50       		.byte	0x50
 3614 00c4 9F       		.byte	0x9f
 3615 00c5 E6000000 		.4byte	.LVL16-.Ltext0
 3616 00c9 EE000000 		.4byte	.LFE14-.Ltext0
 3617 00cd 0100     		.2byte	0x1
 3618 00cf 50       		.byte	0x50
 3619 00d0 00000000 		.4byte	0
 3620 00d4 00000000 		.4byte	0
 3621              	.LLST6:
 3622 00d8 C0000000 		.4byte	.LVL12-.Ltext0
 3623 00dc C8000000 		.4byte	.LVL13-.Ltext0
 3624 00e0 0100     		.2byte	0x1
 3625 00e2 51       		.byte	0x51
 3626 00e3 C8000000 		.4byte	.LVL13-.Ltext0
 3627 00e7 EE000000 		.4byte	.LFE14-.Ltext0
 3628 00eb 0400     		.2byte	0x4
 3629 00ed F3       		.byte	0xf3
 3630 00ee 01       		.uleb128 0x1
 3631 00ef 51       		.byte	0x51
 3632 00f0 9F       		.byte	0x9f
 3633 00f1 00000000 		.4byte	0
 3634 00f5 00000000 		.4byte	0
 3635              	.LLST7:
ARM GAS  /tmp/ccLx01V2.s 			page 65


 3636 00f9 DC000000 		.4byte	.LVL14-.Ltext0
 3637 00fd E6000000 		.4byte	.LVL16-.Ltext0
 3638 0101 0400     		.2byte	0x4
 3639 0103 F3       		.byte	0xf3
 3640 0104 01       		.uleb128 0x1
 3641 0105 51       		.byte	0x51
 3642 0106 9F       		.byte	0x9f
 3643 0107 00000000 		.4byte	0
 3644 010b 00000000 		.4byte	0
 3645              	.LLST8:
 3646 010f DC000000 		.4byte	.LVL14-.Ltext0
 3647 0113 DF000000 		.4byte	.LVL15-1-.Ltext0
 3648 0117 0100     		.2byte	0x1
 3649 0119 50       		.byte	0x50
 3650 011a DF000000 		.4byte	.LVL15-1-.Ltext0
 3651 011e E6000000 		.4byte	.LVL16-.Ltext0
 3652 0122 0400     		.2byte	0x4
 3653 0124 F3       		.byte	0xf3
 3654 0125 01       		.uleb128 0x1
 3655 0126 50       		.byte	0x50
 3656 0127 9F       		.byte	0x9f
 3657 0128 00000000 		.4byte	0
 3658 012c 00000000 		.4byte	0
 3659              	.LLST9:
 3660 0130 F0000000 		.4byte	.LVL17-.Ltext0
 3661 0134 FC000000 		.4byte	.LVL19-.Ltext0
 3662 0138 0100     		.2byte	0x1
 3663 013a 50       		.byte	0x50
 3664 013b FC000000 		.4byte	.LVL19-.Ltext0
 3665 013f 10010000 		.4byte	.LFE11-.Ltext0
 3666 0143 0100     		.2byte	0x1
 3667 0145 55       		.byte	0x55
 3668 0146 00000000 		.4byte	0
 3669 014a 00000000 		.4byte	0
 3670              	.LLST10:
 3671 014e F0000000 		.4byte	.LVL17-.Ltext0
 3672 0152 FC000000 		.4byte	.LVL19-.Ltext0
 3673 0156 0100     		.2byte	0x1
 3674 0158 51       		.byte	0x51
 3675 0159 FC000000 		.4byte	.LVL19-.Ltext0
 3676 015d 10010000 		.4byte	.LFE11-.Ltext0
 3677 0161 0100     		.2byte	0x1
 3678 0163 56       		.byte	0x56
 3679 0164 00000000 		.4byte	0
 3680 0168 00000000 		.4byte	0
 3681              	.LLST11:
 3682 016c 10010000 		.4byte	.LVL22-.Ltext0
 3683 0170 1B010000 		.4byte	.LVL23-1-.Ltext0
 3684 0174 0100     		.2byte	0x1
 3685 0176 50       		.byte	0x50
 3686 0177 1B010000 		.4byte	.LVL23-1-.Ltext0
 3687 017b 28010000 		.4byte	.LFE13-.Ltext0
 3688 017f 0400     		.2byte	0x4
 3689 0181 F3       		.byte	0xf3
 3690 0182 01       		.uleb128 0x1
 3691 0183 50       		.byte	0x50
 3692 0184 9F       		.byte	0x9f
ARM GAS  /tmp/ccLx01V2.s 			page 66


 3693 0185 00000000 		.4byte	0
 3694 0189 00000000 		.4byte	0
 3695              	.LLST12:
 3696 018d 10010000 		.4byte	.LVL22-.Ltext0
 3697 0191 1B010000 		.4byte	.LVL23-1-.Ltext0
 3698 0195 0100     		.2byte	0x1
 3699 0197 51       		.byte	0x51
 3700 0198 1B010000 		.4byte	.LVL23-1-.Ltext0
 3701 019c 28010000 		.4byte	.LFE13-.Ltext0
 3702 01a0 0400     		.2byte	0x4
 3703 01a2 F3       		.byte	0xf3
 3704 01a3 01       		.uleb128 0x1
 3705 01a4 51       		.byte	0x51
 3706 01a5 9F       		.byte	0x9f
 3707 01a6 00000000 		.4byte	0
 3708 01aa 00000000 		.4byte	0
 3709              	.LLST13:
 3710 01ae 30010000 		.4byte	.LVL25-.Ltext0
 3711 01b2 3B010000 		.4byte	.LVL26-1-.Ltext0
 3712 01b6 0100     		.2byte	0x1
 3713 01b8 50       		.byte	0x50
 3714 01b9 3B010000 		.4byte	.LVL26-1-.Ltext0
 3715 01bd 48010000 		.4byte	.LFE15-.Ltext0
 3716 01c1 0400     		.2byte	0x4
 3717 01c3 F3       		.byte	0xf3
 3718 01c4 01       		.uleb128 0x1
 3719 01c5 50       		.byte	0x50
 3720 01c6 9F       		.byte	0x9f
 3721 01c7 00000000 		.4byte	0
 3722 01cb 00000000 		.4byte	0
 3723              	.LLST14:
 3724 01cf 30010000 		.4byte	.LVL25-.Ltext0
 3725 01d3 3B010000 		.4byte	.LVL26-1-.Ltext0
 3726 01d7 0100     		.2byte	0x1
 3727 01d9 51       		.byte	0x51
 3728 01da 3B010000 		.4byte	.LVL26-1-.Ltext0
 3729 01de 48010000 		.4byte	.LFE15-.Ltext0
 3730 01e2 0400     		.2byte	0x4
 3731 01e4 F3       		.byte	0xf3
 3732 01e5 01       		.uleb128 0x1
 3733 01e6 51       		.byte	0x51
 3734 01e7 9F       		.byte	0x9f
 3735 01e8 00000000 		.4byte	0
 3736 01ec 00000000 		.4byte	0
 3737              	.LLST15:
 3738 01f0 50010000 		.4byte	.LVL28-.Ltext0
 3739 01f4 56010000 		.4byte	.LVL29-.Ltext0
 3740 01f8 0100     		.2byte	0x1
 3741 01fa 50       		.byte	0x50
 3742 01fb 56010000 		.4byte	.LVL29-.Ltext0
 3743 01ff 5A010000 		.4byte	.LFE16-.Ltext0
 3744 0203 0100     		.2byte	0x1
 3745 0205 53       		.byte	0x53
 3746 0206 00000000 		.4byte	0
 3747 020a 00000000 		.4byte	0
 3748              	.LLST16:
 3749 020e 60010000 		.4byte	.LVL30-.Ltext0
ARM GAS  /tmp/ccLx01V2.s 			page 67


 3750 0212 6C010000 		.4byte	.LVL31-.Ltext0
 3751 0216 0100     		.2byte	0x1
 3752 0218 50       		.byte	0x50
 3753 0219 6C010000 		.4byte	.LVL31-.Ltext0
 3754 021d 92010000 		.4byte	.LVL36-.Ltext0
 3755 0221 0100     		.2byte	0x1
 3756 0223 57       		.byte	0x57
 3757 0224 92010000 		.4byte	.LVL36-.Ltext0
 3758 0228 94010000 		.4byte	.LFE17-.Ltext0
 3759 022c 0100     		.2byte	0x1
 3760 022e 50       		.byte	0x50
 3761 022f 00000000 		.4byte	0
 3762 0233 00000000 		.4byte	0
 3763              	.LLST17:
 3764 0237 60010000 		.4byte	.LVL30-.Ltext0
 3765 023b 6C010000 		.4byte	.LVL31-.Ltext0
 3766 023f 0100     		.2byte	0x1
 3767 0241 51       		.byte	0x51
 3768 0242 6C010000 		.4byte	.LVL31-.Ltext0
 3769 0246 92010000 		.4byte	.LVL36-.Ltext0
 3770 024a 0100     		.2byte	0x1
 3771 024c 55       		.byte	0x55
 3772 024d 92010000 		.4byte	.LVL36-.Ltext0
 3773 0251 94010000 		.4byte	.LFE17-.Ltext0
 3774 0255 0100     		.2byte	0x1
 3775 0257 51       		.byte	0x51
 3776 0258 00000000 		.4byte	0
 3777 025c 00000000 		.4byte	0
 3778              	.LLST18:
 3779 0260 60010000 		.4byte	.LVL30-.Ltext0
 3780 0264 6C010000 		.4byte	.LVL31-.Ltext0
 3781 0268 0200     		.2byte	0x2
 3782 026a 30       		.byte	0x30
 3783 026b 9F       		.byte	0x9f
 3784 026c 6C010000 		.4byte	.LVL31-.Ltext0
 3785 0270 92010000 		.4byte	.LVL36-.Ltext0
 3786 0274 0100     		.2byte	0x1
 3787 0276 54       		.byte	0x54
 3788 0277 92010000 		.4byte	.LVL36-.Ltext0
 3789 027b 94010000 		.4byte	.LFE17-.Ltext0
 3790 027f 0200     		.2byte	0x2
 3791 0281 30       		.byte	0x30
 3792 0282 9F       		.byte	0x9f
 3793 0283 00000000 		.4byte	0
 3794 0287 00000000 		.4byte	0
 3795              	.LLST19:
 3796 028b A0010000 		.4byte	.LVL37-.Ltext0
 3797 028f BA010000 		.4byte	.LVL41-.Ltext0
 3798 0293 0100     		.2byte	0x1
 3799 0295 50       		.byte	0x50
 3800 0296 BA010000 		.4byte	.LVL41-.Ltext0
 3801 029a C4010000 		.4byte	.LVL43-.Ltext0
 3802 029e 0100     		.2byte	0x1
 3803 02a0 54       		.byte	0x54
 3804 02a1 C4010000 		.4byte	.LVL43-.Ltext0
 3805 02a5 DC010000 		.4byte	.LFE18-.Ltext0
 3806 02a9 0400     		.2byte	0x4
ARM GAS  /tmp/ccLx01V2.s 			page 68


 3807 02ab F3       		.byte	0xf3
 3808 02ac 01       		.uleb128 0x1
 3809 02ad 50       		.byte	0x50
 3810 02ae 9F       		.byte	0x9f
 3811 02af 00000000 		.4byte	0
 3812 02b3 00000000 		.4byte	0
 3813              	.LLST20:
 3814 02b7 A6010000 		.4byte	.LVL38-.Ltext0
 3815 02bb D6010000 		.4byte	.LVL45-.Ltext0
 3816 02bf 0100     		.2byte	0x1
 3817 02c1 55       		.byte	0x55
 3818 02c2 00000000 		.4byte	0
 3819 02c6 00000000 		.4byte	0
 3820              	.LLST21:
 3821 02ca AE010000 		.4byte	.LVL39-.Ltext0
 3822 02ce B2010000 		.4byte	.LVL40-.Ltext0
 3823 02d2 0600     		.2byte	0x6
 3824 02d4 70       		.byte	0x70
 3825 02d5 00       		.sleb128 0
 3826 02d6 73       		.byte	0x73
 3827 02d7 00       		.sleb128 0
 3828 02d8 1A       		.byte	0x1a
 3829 02d9 9F       		.byte	0x9f
 3830 02da B2010000 		.4byte	.LVL40-.Ltext0
 3831 02de BD010000 		.4byte	.LVL42-1-.Ltext0
 3832 02e2 0100     		.2byte	0x1
 3833 02e4 52       		.byte	0x52
 3834 02e5 C4010000 		.4byte	.LVL43-.Ltext0
 3835 02e9 C8010000 		.4byte	.LVL44-.Ltext0
 3836 02ed 0100     		.2byte	0x1
 3837 02ef 52       		.byte	0x52
 3838 02f0 C8010000 		.4byte	.LVL44-.Ltext0
 3839 02f4 DC010000 		.4byte	.LFE18-.Ltext0
 3840 02f8 0100     		.2byte	0x1
 3841 02fa 50       		.byte	0x50
 3842 02fb 00000000 		.4byte	0
 3843 02ff 00000000 		.4byte	0
 3844              	.LLST22:
 3845 0303 E0010000 		.4byte	.LVL46-.Ltext0
 3846 0307 FA010000 		.4byte	.LVL51-.Ltext0
 3847 030b 0100     		.2byte	0x1
 3848 030d 50       		.byte	0x50
 3849 030e FA010000 		.4byte	.LVL51-.Ltext0
 3850 0312 02020000 		.4byte	.LVL53-.Ltext0
 3851 0316 0100     		.2byte	0x1
 3852 0318 54       		.byte	0x54
 3853 0319 02020000 		.4byte	.LVL53-.Ltext0
 3854 031d 18020000 		.4byte	.LFE19-.Ltext0
 3855 0321 0400     		.2byte	0x4
 3856 0323 F3       		.byte	0xf3
 3857 0324 01       		.uleb128 0x1
 3858 0325 50       		.byte	0x50
 3859 0326 9F       		.byte	0x9f
 3860 0327 00000000 		.4byte	0
 3861 032b 00000000 		.4byte	0
 3862              	.LLST23:
 3863 032f E6010000 		.4byte	.LVL47-.Ltext0
ARM GAS  /tmp/ccLx01V2.s 			page 69


 3864 0333 12020000 		.4byte	.LVL54-.Ltext0
 3865 0337 0100     		.2byte	0x1
 3866 0339 55       		.byte	0x55
 3867 033a 00000000 		.4byte	0
 3868 033e 00000000 		.4byte	0
 3869              	.LLST24:
 3870 0342 EE010000 		.4byte	.LVL48-.Ltext0
 3871 0346 F2010000 		.4byte	.LVL49-.Ltext0
 3872 034a 0600     		.2byte	0x6
 3873 034c 70       		.byte	0x70
 3874 034d 00       		.sleb128 0
 3875 034e 73       		.byte	0x73
 3876 034f 00       		.sleb128 0
 3877 0350 1A       		.byte	0x1a
 3878 0351 9F       		.byte	0x9f
 3879 0352 F2010000 		.4byte	.LVL49-.Ltext0
 3880 0356 F6010000 		.4byte	.LVL50-.Ltext0
 3881 035a 0100     		.2byte	0x1
 3882 035c 54       		.byte	0x54
 3883 035d F6010000 		.4byte	.LVL50-.Ltext0
 3884 0361 FA010000 		.4byte	.LVL51-.Ltext0
 3885 0365 0600     		.2byte	0x6
 3886 0367 70       		.byte	0x70
 3887 0368 00       		.sleb128 0
 3888 0369 73       		.byte	0x73
 3889 036a 00       		.sleb128 0
 3890 036b 1A       		.byte	0x1a
 3891 036c 9F       		.byte	0x9f
 3892 036d FA010000 		.4byte	.LVL51-.Ltext0
 3893 0371 FD010000 		.4byte	.LVL52-1-.Ltext0
 3894 0375 0600     		.2byte	0x6
 3895 0377 74       		.byte	0x74
 3896 0378 00       		.sleb128 0
 3897 0379 73       		.byte	0x73
 3898 037a 00       		.sleb128 0
 3899 037b 1A       		.byte	0x1a
 3900 037c 9F       		.byte	0x9f
 3901 037d 02020000 		.4byte	.LVL53-.Ltext0
 3902 0381 12020000 		.4byte	.LVL54-.Ltext0
 3903 0385 0100     		.2byte	0x1
 3904 0387 54       		.byte	0x54
 3905 0388 12020000 		.4byte	.LVL54-.Ltext0
 3906 038c 18020000 		.4byte	.LFE19-.Ltext0
 3907 0390 0100     		.2byte	0x1
 3908 0392 50       		.byte	0x50
 3909 0393 00000000 		.4byte	0
 3910 0397 00000000 		.4byte	0
 3911              	.LLST25:
 3912 039b 20020000 		.4byte	.LVL55-.Ltext0
 3913 039f 3C020000 		.4byte	.LVL57-.Ltext0
 3914 03a3 0100     		.2byte	0x1
 3915 03a5 50       		.byte	0x50
 3916 03a6 3C020000 		.4byte	.LVL57-.Ltext0
 3917 03aa 52020000 		.4byte	.LVL59-.Ltext0
 3918 03ae 0100     		.2byte	0x1
 3919 03b0 54       		.byte	0x54
 3920 03b1 52020000 		.4byte	.LVL59-.Ltext0
ARM GAS  /tmp/ccLx01V2.s 			page 70


 3921 03b5 58020000 		.4byte	.LFE20-.Ltext0
 3922 03b9 0100     		.2byte	0x1
 3923 03bb 50       		.byte	0x50
 3924 03bc 00000000 		.4byte	0
 3925 03c0 00000000 		.4byte	0
 3926              	.LLST26:
 3927 03c4 28020000 		.4byte	.LVL56-.Ltext0
 3928 03c8 52020000 		.4byte	.LVL59-.Ltext0
 3929 03cc 0100     		.2byte	0x1
 3930 03ce 55       		.byte	0x55
 3931 03cf 00000000 		.4byte	0
 3932 03d3 00000000 		.4byte	0
 3933              	.LLST27:
 3934 03d7 60020000 		.4byte	.LVL60-.Ltext0
 3935 03db 7E020000 		.4byte	.LVL64-.Ltext0
 3936 03df 0100     		.2byte	0x1
 3937 03e1 50       		.byte	0x50
 3938 03e2 7E020000 		.4byte	.LVL64-.Ltext0
 3939 03e6 80020000 		.4byte	.LVL65-.Ltext0
 3940 03ea 0400     		.2byte	0x4
 3941 03ec F3       		.byte	0xf3
 3942 03ed 01       		.uleb128 0x1
 3943 03ee 50       		.byte	0x50
 3944 03ef 9F       		.byte	0x9f
 3945 03f0 80020000 		.4byte	.LVL65-.Ltext0
 3946 03f4 86020000 		.4byte	.LVL66-.Ltext0
 3947 03f8 0100     		.2byte	0x1
 3948 03fa 50       		.byte	0x50
 3949 03fb 86020000 		.4byte	.LVL66-.Ltext0
 3950 03ff 94020000 		.4byte	.LVL68-.Ltext0
 3951 0403 0100     		.2byte	0x1
 3952 0405 55       		.byte	0x55
 3953 0406 94020000 		.4byte	.LVL68-.Ltext0
 3954 040a A6020000 		.4byte	.LVL70-.Ltext0
 3955 040e 0400     		.2byte	0x4
 3956 0410 F3       		.byte	0xf3
 3957 0411 01       		.uleb128 0x1
 3958 0412 50       		.byte	0x50
 3959 0413 9F       		.byte	0x9f
 3960 0414 A6020000 		.4byte	.LVL70-.Ltext0
 3961 0418 B0020000 		.4byte	.LVL71-.Ltext0
 3962 041c 0100     		.2byte	0x1
 3963 041e 55       		.byte	0x55
 3964 041f B0020000 		.4byte	.LVL71-.Ltext0
 3965 0423 B4020000 		.4byte	.LFE21-.Ltext0
 3966 0427 0400     		.2byte	0x4
 3967 0429 F3       		.byte	0xf3
 3968 042a 01       		.uleb128 0x1
 3969 042b 50       		.byte	0x50
 3970 042c 9F       		.byte	0x9f
 3971 042d 00000000 		.4byte	0
 3972 0431 00000000 		.4byte	0
 3973              	.LLST28:
 3974 0435 60020000 		.4byte	.LVL60-.Ltext0
 3975 0439 89020000 		.4byte	.LVL67-1-.Ltext0
 3976 043d 0100     		.2byte	0x1
 3977 043f 51       		.byte	0x51
ARM GAS  /tmp/ccLx01V2.s 			page 71


 3978 0440 89020000 		.4byte	.LVL67-1-.Ltext0
 3979 0444 B4020000 		.4byte	.LFE21-.Ltext0
 3980 0448 0400     		.2byte	0x4
 3981 044a F3       		.byte	0xf3
 3982 044b 01       		.uleb128 0x1
 3983 044c 51       		.byte	0x51
 3984 044d 9F       		.byte	0x9f
 3985 044e 00000000 		.4byte	0
 3986 0452 00000000 		.4byte	0
 3987              	.LLST29:
 3988 0456 66020000 		.4byte	.LVL61-.Ltext0
 3989 045a B0020000 		.4byte	.LVL71-.Ltext0
 3990 045e 0100     		.2byte	0x1
 3991 0460 56       		.byte	0x56
 3992 0461 00000000 		.4byte	0
 3993 0465 00000000 		.4byte	0
 3994              	.LLST30:
 3995 0469 6E020000 		.4byte	.LVL62-.Ltext0
 3996 046d 72020000 		.4byte	.LVL63-.Ltext0
 3997 0471 0600     		.2byte	0x6
 3998 0473 70       		.byte	0x70
 3999 0474 00       		.sleb128 0
 4000 0475 72       		.byte	0x72
 4001 0476 00       		.sleb128 0
 4002 0477 1A       		.byte	0x1a
 4003 0478 9F       		.byte	0x9f
 4004 0479 72020000 		.4byte	.LVL63-.Ltext0
 4005 047d 98020000 		.4byte	.LVL69-.Ltext0
 4006 0481 0100     		.2byte	0x1
 4007 0483 54       		.byte	0x54
 4008 0484 98020000 		.4byte	.LVL69-.Ltext0
 4009 0488 A6020000 		.4byte	.LVL70-.Ltext0
 4010 048c 0100     		.2byte	0x1
 4011 048e 50       		.byte	0x50
 4012 048f A6020000 		.4byte	.LVL70-.Ltext0
 4013 0493 B0020000 		.4byte	.LVL71-.Ltext0
 4014 0497 0100     		.2byte	0x1
 4015 0499 54       		.byte	0x54
 4016 049a B0020000 		.4byte	.LVL71-.Ltext0
 4017 049e B4020000 		.4byte	.LFE21-.Ltext0
 4018 04a2 0100     		.2byte	0x1
 4019 04a4 50       		.byte	0x50
 4020 04a5 00000000 		.4byte	0
 4021 04a9 00000000 		.4byte	0
 4022              	.LLST31:
 4023 04ad C0020000 		.4byte	.LVL72-.Ltext0
 4024 04b1 DE020000 		.4byte	.LVL76-.Ltext0
 4025 04b5 0100     		.2byte	0x1
 4026 04b7 50       		.byte	0x50
 4027 04b8 DE020000 		.4byte	.LVL76-.Ltext0
 4028 04bc E0020000 		.4byte	.LVL77-.Ltext0
 4029 04c0 0400     		.2byte	0x4
 4030 04c2 F3       		.byte	0xf3
 4031 04c3 01       		.uleb128 0x1
 4032 04c4 50       		.byte	0x50
 4033 04c5 9F       		.byte	0x9f
 4034 04c6 E0020000 		.4byte	.LVL77-.Ltext0
ARM GAS  /tmp/ccLx01V2.s 			page 72


 4035 04ca E6020000 		.4byte	.LVL78-.Ltext0
 4036 04ce 0100     		.2byte	0x1
 4037 04d0 50       		.byte	0x50
 4038 04d1 E6020000 		.4byte	.LVL78-.Ltext0
 4039 04d5 F4020000 		.4byte	.LVL80-.Ltext0
 4040 04d9 0100     		.2byte	0x1
 4041 04db 55       		.byte	0x55
 4042 04dc F4020000 		.4byte	.LVL80-.Ltext0
 4043 04e0 04030000 		.4byte	.LVL81-.Ltext0
 4044 04e4 0400     		.2byte	0x4
 4045 04e6 F3       		.byte	0xf3
 4046 04e7 01       		.uleb128 0x1
 4047 04e8 50       		.byte	0x50
 4048 04e9 9F       		.byte	0x9f
 4049 04ea 04030000 		.4byte	.LVL81-.Ltext0
 4050 04ee 0E030000 		.4byte	.LVL82-.Ltext0
 4051 04f2 0100     		.2byte	0x1
 4052 04f4 55       		.byte	0x55
 4053 04f5 0E030000 		.4byte	.LVL82-.Ltext0
 4054 04f9 14030000 		.4byte	.LFE22-.Ltext0
 4055 04fd 0400     		.2byte	0x4
 4056 04ff F3       		.byte	0xf3
 4057 0500 01       		.uleb128 0x1
 4058 0501 50       		.byte	0x50
 4059 0502 9F       		.byte	0x9f
 4060 0503 00000000 		.4byte	0
 4061 0507 00000000 		.4byte	0
 4062              	.LLST32:
 4063 050b C0020000 		.4byte	.LVL72-.Ltext0
 4064 050f E9020000 		.4byte	.LVL79-1-.Ltext0
 4065 0513 0100     		.2byte	0x1
 4066 0515 51       		.byte	0x51
 4067 0516 E9020000 		.4byte	.LVL79-1-.Ltext0
 4068 051a 14030000 		.4byte	.LFE22-.Ltext0
 4069 051e 0400     		.2byte	0x4
 4070 0520 F3       		.byte	0xf3
 4071 0521 01       		.uleb128 0x1
 4072 0522 51       		.byte	0x51
 4073 0523 9F       		.byte	0x9f
 4074 0524 00000000 		.4byte	0
 4075 0528 00000000 		.4byte	0
 4076              	.LLST33:
 4077 052c C6020000 		.4byte	.LVL73-.Ltext0
 4078 0530 0E030000 		.4byte	.LVL82-.Ltext0
 4079 0534 0100     		.2byte	0x1
 4080 0536 56       		.byte	0x56
 4081 0537 00000000 		.4byte	0
 4082 053b 00000000 		.4byte	0
 4083              	.LLST34:
 4084 053f CE020000 		.4byte	.LVL74-.Ltext0
 4085 0543 D2020000 		.4byte	.LVL75-.Ltext0
 4086 0547 0600     		.2byte	0x6
 4087 0549 70       		.byte	0x70
 4088 054a 00       		.sleb128 0
 4089 054b 72       		.byte	0x72
 4090 054c 00       		.sleb128 0
 4091 054d 1A       		.byte	0x1a
ARM GAS  /tmp/ccLx01V2.s 			page 73


 4092 054e 9F       		.byte	0x9f
 4093 054f D2020000 		.4byte	.LVL75-.Ltext0
 4094 0553 0E030000 		.4byte	.LVL82-.Ltext0
 4095 0557 0100     		.2byte	0x1
 4096 0559 54       		.byte	0x54
 4097 055a 0E030000 		.4byte	.LVL82-.Ltext0
 4098 055e 14030000 		.4byte	.LFE22-.Ltext0
 4099 0562 0100     		.2byte	0x1
 4100 0564 50       		.byte	0x50
 4101 0565 00000000 		.4byte	0
 4102 0569 00000000 		.4byte	0
 4103              	.LLST35:
 4104 056d 20030000 		.4byte	.LVL83-.Ltext0
 4105 0571 32030000 		.4byte	.LVL85-.Ltext0
 4106 0575 0100     		.2byte	0x1
 4107 0577 50       		.byte	0x50
 4108 0578 32030000 		.4byte	.LVL85-.Ltext0
 4109 057c 6A030000 		.4byte	.LVL89-.Ltext0
 4110 0580 0100     		.2byte	0x1
 4111 0582 54       		.byte	0x54
 4112 0583 6A030000 		.4byte	.LVL89-.Ltext0
 4113 0587 70030000 		.4byte	.LFE23-.Ltext0
 4114 058b 0400     		.2byte	0x4
 4115 058d F3       		.byte	0xf3
 4116 058e 01       		.uleb128 0x1
 4117 058f 50       		.byte	0x50
 4118 0590 9F       		.byte	0x9f
 4119 0591 00000000 		.4byte	0
 4120 0595 00000000 		.4byte	0
 4121              	.LLST36:
 4122 0599 20030000 		.4byte	.LVL83-.Ltext0
 4123 059d 49030000 		.4byte	.LVL87-1-.Ltext0
 4124 05a1 0100     		.2byte	0x1
 4125 05a3 51       		.byte	0x51
 4126 05a4 49030000 		.4byte	.LVL87-1-.Ltext0
 4127 05a8 70030000 		.4byte	.LFE23-.Ltext0
 4128 05ac 0400     		.2byte	0x4
 4129 05ae F3       		.byte	0xf3
 4130 05af 01       		.uleb128 0x1
 4131 05b0 51       		.byte	0x51
 4132 05b1 9F       		.byte	0x9f
 4133 05b2 00000000 		.4byte	0
 4134 05b6 00000000 		.4byte	0
 4135              	.LLST37:
 4136 05ba 28030000 		.4byte	.LVL84-.Ltext0
 4137 05be 6A030000 		.4byte	.LVL89-.Ltext0
 4138 05c2 0100     		.2byte	0x1
 4139 05c4 55       		.byte	0x55
 4140 05c5 00000000 		.4byte	0
 4141 05c9 00000000 		.4byte	0
 4142              		.section	.debug_aranges,"",%progbits
 4143 0000 1C000000 		.4byte	0x1c
 4144 0004 0200     		.2byte	0x2
 4145 0006 00000000 		.4byte	.Ldebug_info0
 4146 000a 04       		.byte	0x4
 4147 000b 00       		.byte	0
 4148 000c 0000     		.2byte	0
ARM GAS  /tmp/ccLx01V2.s 			page 74


 4149 000e 0000     		.2byte	0
 4150 0010 00000000 		.4byte	.Ltext0
 4151 0014 70030000 		.4byte	.Letext0-.Ltext0
 4152 0018 00000000 		.4byte	0
 4153 001c 00000000 		.4byte	0
 4154              		.section	.debug_ranges,"",%progbits
 4155              	.Ldebug_ranges0:
 4156 0000 14000000 		.4byte	.LBB3-.Ltext0
 4157 0004 16000000 		.4byte	.LBE3-.Ltext0
 4158 0008 1C000000 		.4byte	.LBB4-.Ltext0
 4159 000c 20000000 		.4byte	.LBE4-.Ltext0
 4160 0010 00000000 		.4byte	0
 4161 0014 00000000 		.4byte	0
 4162 0018 46000000 		.4byte	.LBB6-.Ltext0
 4163 001c 4E000000 		.4byte	.LBE6-.Ltext0
 4164 0020 52000000 		.4byte	.LBB7-.Ltext0
 4165 0024 5A000000 		.4byte	.LBE7-.Ltext0
 4166 0028 00000000 		.4byte	0
 4167 002c 00000000 		.4byte	0
 4168              		.section	.debug_line,"",%progbits
 4169              	.Ldebug_line0:
 4170 0000 C7020000 		.section	.debug_str,"MS",%progbits,1
 4170      0200CD01 
 4170      00000201 
 4170      FB0E0D00 
 4170      01010101 
 4171              	.LASF38:
 4172 0000 705F6D73 		.ascii	"p_msg\000"
 4172      6700
 4173              	.LASF67:
 4174 0006 7264796D 		.ascii	"rdymsg\000"
 4174      736700
 4175              	.LASF5:
 4176 000d 5F5F7569 		.ascii	"__uint8_t\000"
 4176      6E74385F 
 4176      7400
 4177              	.LASF80:
 4178 0017 63684576 		.ascii	"chEvtSignal\000"
 4178      74536967 
 4178      6E616C00 
 4179              	.LASF11:
 4180 0023 6C6F6E67 		.ascii	"long long unsigned int\000"
 4180      206C6F6E 
 4180      6720756E 
 4180      7369676E 
 4180      65642069 
 4181              	.LASF76:
 4182 003a 63684576 		.ascii	"chEvtAddEvents\000"
 4182      74416464 
 4182      4576656E 
 4182      747300
 4183              	.LASF90:
 4184 0049 63684576 		.ascii	"chEvtWaitAnyTimeout\000"
 4184      74576169 
 4184      74416E79 
 4184      54696D65 
 4184      6F757400 
ARM GAS  /tmp/ccLx01V2.s 			page 75


 4185              	.LASF28:
 4186 005d 705F7072 		.ascii	"p_prio\000"
 4186      696F00
 4187              	.LASF10:
 4188 0064 6C6F6E67 		.ascii	"long long int\000"
 4188      206C6F6E 
 4188      6720696E 
 4188      7400
 4189              	.LASF1:
 4190 0072 7369676E 		.ascii	"signed char\000"
 4190      65642063 
 4190      68617200 
 4191              	.LASF91:
 4192 007e 63684576 		.ascii	"chEvtWaitAllTimeout\000"
 4192      74576169 
 4192      74416C6C 
 4192      54696D65 
 4192      6F757400 
 4193              	.LASF56:
 4194 0092 6D5F7175 		.ascii	"m_queue\000"
 4194      65756500 
 4195              	.LASF18:
 4196 009a 74736C69 		.ascii	"tslices_t\000"
 4196      6365735F 
 4196      7400
 4197              	.LASF7:
 4198 00a4 6C6F6E67 		.ascii	"long int\000"
 4198      20696E74 
 4198      00
 4199              	.LASF17:
 4200 00ad 74737461 		.ascii	"tstate_t\000"
 4200      74655F74 
 4200      00
 4201              	.LASF86:
 4202 00b6 63684576 		.ascii	"chEvtWaitAny\000"
 4202      74576169 
 4202      74416E79 
 4202      00
 4203              	.LASF79:
 4204 00c3 63684576 		.ascii	"chEvtBroadcastFlagsI\000"
 4204      7442726F 
 4204      61646361 
 4204      7374466C 
 4204      61677349 
 4205              	.LASF30:
 4206 00d8 705F6E65 		.ascii	"p_newer\000"
 4206      77657200 
 4207              	.LASF68:
 4208 00e0 65786974 		.ascii	"exitcode\000"
 4208      636F6465 
 4208      00
 4209              	.LASF99:
 4210 00e9 63685363 		.ascii	"chSchRescheduleS\000"
 4210      68526573 
 4210      63686564 
 4210      756C6553 
 4210      00
ARM GAS  /tmp/ccLx01V2.s 			page 76


 4211              	.LASF8:
 4212 00fa 5F5F7569 		.ascii	"__uint32_t\000"
 4212      6E743332 
 4212      5F7400
 4213              	.LASF72:
 4214 0105 6D61736B 		.ascii	"mask\000"
 4214      00
 4215              	.LASF44:
 4216 010a 72656761 		.ascii	"regarm_t\000"
 4216      726D5F74 
 4216      00
 4217              	.LASF81:
 4218 0113 63684576 		.ascii	"chEvtBroadcastFlags\000"
 4218      7442726F 
 4218      61646361 
 4218      7374466C 
 4218      61677300 
 4219              	.LASF21:
 4220 0127 6576656E 		.ascii	"eventid_t\000"
 4220      7469645F 
 4220      7400
 4221              	.LASF64:
 4222 0131 4576656E 		.ascii	"EventSource\000"
 4222      74536F75 
 4222      72636500 
 4223              	.LASF66:
 4224 013d 65766861 		.ascii	"evhandler_t\000"
 4224      6E646C65 
 4224      725F7400 
 4225              	.LASF0:
 4226 0149 756E7369 		.ascii	"unsigned int\000"
 4226      676E6564 
 4226      20696E74 
 4226      00
 4227              	.LASF9:
 4228 0156 6C6F6E67 		.ascii	"long unsigned int\000"
 4228      20756E73 
 4228      69676E65 
 4228      6420696E 
 4228      7400
 4229              	.LASF75:
 4230 0168 63684576 		.ascii	"chEvtGetAndClearEvents\000"
 4230      74476574 
 4230      416E6443 
 4230      6C656172 
 4230      4576656E 
 4231              	.LASF4:
 4232 017f 73686F72 		.ascii	"short unsigned int\000"
 4232      7420756E 
 4232      7369676E 
 4232      65642069 
 4232      6E7400
 4233              	.LASF73:
 4234 0192 63684576 		.ascii	"chEvtRegisterMask\000"
 4234      74526567 
 4234      69737465 
 4234      724D6173 
ARM GAS  /tmp/ccLx01V2.s 			page 77


 4234      6B00
 4235              	.LASF20:
 4236 01a4 6D73675F 		.ascii	"msg_t\000"
 4236      7400
 4237              	.LASF51:
 4238 01aa 725F6E65 		.ascii	"r_newer\000"
 4238      77657200 
 4239              	.LASF60:
 4240 01b2 656C5F6E 		.ascii	"el_next\000"
 4240      65787400 
 4241              	.LASF74:
 4242 01ba 63684576 		.ascii	"chEvtUnregister\000"
 4242      74556E72 
 4242      65676973 
 4242      74657200 
 4243              	.LASF16:
 4244 01ca 746D6F64 		.ascii	"tmode_t\000"
 4244      655F7400 
 4245              	.LASF43:
 4246 01d2 54687265 		.ascii	"ThreadsList\000"
 4246      6164734C 
 4246      69737400 
 4247              	.LASF22:
 4248 01de 6576656E 		.ascii	"eventmask_t\000"
 4248      746D6173 
 4248      6B5F7400 
 4249              	.LASF55:
 4250 01ea 4D757465 		.ascii	"Mutex\000"
 4250      7800
 4251              	.LASF47:
 4252 01f0 73697A65 		.ascii	"sizetype\000"
 4252      74797065 
 4252      00
 4253              	.LASF94:
 4254 01f9 63685363 		.ascii	"chSchGoSleepTimeoutS\000"
 4254      68476F53 
 4254      6C656570 
 4254      54696D65 
 4254      6F757453 
 4255              	.LASF83:
 4256 020e 63684576 		.ascii	"chEvtDispatch\000"
 4256      74446973 
 4256      70617463 
 4256      6800
 4257              	.LASF96:
 4258 021c 2F645F64 		.ascii	"/d_drive/axoloti/platform_linux/../chibios/os/kerne"
 4258      72697665 
 4258      2F61786F 
 4258      6C6F7469 
 4258      2F706C61 
 4259 024f 6C2F7372 		.ascii	"l/src/chevents.c\000"
 4259      632F6368 
 4259      6576656E 
 4259      74732E63 
 4259      00
 4260              	.LASF31:
 4261 0260 705F6F6C 		.ascii	"p_older\000"
ARM GAS  /tmp/ccLx01V2.s 			page 78


 4261      64657200 
 4262              	.LASF50:
 4263 0268 725F6374 		.ascii	"r_ctx\000"
 4263      7800
 4264              	.LASF42:
 4265 026e 54687265 		.ascii	"ThreadsQueue\000"
 4265      61647351 
 4265      75657565 
 4265      00
 4266              	.LASF89:
 4267 027b 74696D65 		.ascii	"time\000"
 4267      00
 4268              	.LASF87:
 4269 0280 63684576 		.ascii	"chEvtWaitAll\000"
 4269      74576169 
 4269      74416C6C 
 4269      00
 4270              	.LASF53:
 4271 028d 725F6375 		.ascii	"r_current\000"
 4271      7272656E 
 4271      7400
 4272              	.LASF52:
 4273 0297 725F6F6C 		.ascii	"r_older\000"
 4273      64657200 
 4274              	.LASF62:
 4275 029f 656C5F6D 		.ascii	"el_mask\000"
 4275      61736B00 
 4276              	.LASF84:
 4277 02a7 68616E64 		.ascii	"handlers\000"
 4277      6C657273 
 4277      00
 4278              	.LASF27:
 4279 02b0 705F7072 		.ascii	"p_prev\000"
 4279      657600
 4280              	.LASF19:
 4281 02b7 74707269 		.ascii	"tprio_t\000"
 4281      6F5F7400 
 4282              	.LASF15:
 4283 02bf 5F426F6F 		.ascii	"_Bool\000"
 4283      6C00
 4284              	.LASF13:
 4285 02c5 696E7433 		.ascii	"int32_t\000"
 4285      325F7400 
 4286              	.LASF2:
 4287 02cd 756E7369 		.ascii	"unsigned char\000"
 4287      676E6564 
 4287      20636861 
 4287      7200
 4288              	.LASF85:
 4289 02db 63684576 		.ascii	"chEvtWaitOne\000"
 4289      74576169 
 4289      744F6E65 
 4289      00
 4290              	.LASF61:
 4291 02e8 656C5F6C 		.ascii	"el_listener\000"
 4291      69737465 
 4291      6E657200 
ARM GAS  /tmp/ccLx01V2.s 			page 79


 4292              	.LASF63:
 4293 02f4 656C5F66 		.ascii	"el_flags\000"
 4293      6C616773 
 4293      00
 4294              	.LASF40:
 4295 02fd 705F6D74 		.ascii	"p_mtxlist\000"
 4295      786C6973 
 4295      7400
 4296              	.LASF3:
 4297 0307 73686F72 		.ascii	"short int\000"
 4297      7420696E 
 4297      7400
 4298              	.LASF33:
 4299 0311 705F7374 		.ascii	"p_state\000"
 4299      61746500 
 4300              	.LASF35:
 4301 0319 705F7072 		.ascii	"p_preempt\000"
 4301      65656D70 
 4301      7400
 4302              	.LASF49:
 4303 0323 725F7072 		.ascii	"r_prio\000"
 4303      696F00
 4304              	.LASF82:
 4305 032a 63684576 		.ascii	"chEvtGetAndClearFlagsI\000"
 4305      74476574 
 4305      416E6443 
 4305      6C656172 
 4305      466C6167 
 4306              	.LASF70:
 4307 0341 65776D61 		.ascii	"ewmask\000"
 4307      736B00
 4308              	.LASF26:
 4309 0348 705F6E65 		.ascii	"p_next\000"
 4309      787400
 4310              	.LASF34:
 4311 034f 705F666C 		.ascii	"p_flags\000"
 4311      61677300 
 4312              	.LASF25:
 4313 0357 54687265 		.ascii	"Thread\000"
 4313      616400
 4314              	.LASF93:
 4315 035e 63685363 		.ascii	"chSchGoSleepS\000"
 4315      68476F53 
 4315      6C656570 
 4315      5300
 4316              	.LASF39:
 4317 036c 705F6570 		.ascii	"p_epending\000"
 4317      656E6469 
 4317      6E6700
 4318              	.LASF14:
 4319 0377 75696E74 		.ascii	"uint32_t\000"
 4319      33325F74 
 4319      00
 4320              	.LASF48:
 4321 0380 725F7175 		.ascii	"r_queue\000"
 4321      65756500 
 4322              	.LASF71:
ARM GAS  /tmp/ccLx01V2.s 			page 80


 4323 0388 63686172 		.ascii	"char\000"
 4323      00
 4324              	.LASF98:
 4325 038d 63685363 		.ascii	"chSchReadyI\000"
 4325      68526561 
 4325      64794900 
 4326              	.LASF58:
 4327 0399 6D5F6E65 		.ascii	"m_next\000"
 4327      787400
 4328              	.LASF24:
 4329 03a0 73797374 		.ascii	"systime_t\000"
 4329      696D655F 
 4329      7400
 4330              	.LASF41:
 4331 03aa 705F7265 		.ascii	"p_realprio\000"
 4331      616C7072 
 4331      696F00
 4332              	.LASF6:
 4333 03b5 5F5F696E 		.ascii	"__int32_t\000"
 4333      7433325F 
 4333      7400
 4334              	.LASF46:
 4335 03bf 636F6E74 		.ascii	"context\000"
 4335      65787400 
 4336              	.LASF45:
 4337 03c7 696E7463 		.ascii	"intctx\000"
 4337      747800
 4338              	.LASF37:
 4339 03ce 705F6D73 		.ascii	"p_msgqueue\000"
 4339      67717565 
 4339      756500
 4340              	.LASF23:
 4341 03d9 666C6167 		.ascii	"flagsmask_t\000"
 4341      736D6173 
 4341      6B5F7400 
 4342              	.LASF32:
 4343 03e5 705F6E61 		.ascii	"p_name\000"
 4343      6D6500
 4344              	.LASF65:
 4345 03ec 65735F6E 		.ascii	"es_next\000"
 4345      65787400 
 4346              	.LASF54:
 4347 03f4 52656164 		.ascii	"ReadyList\000"
 4347      794C6973 
 4347      7400
 4348              	.LASF97:
 4349 03fe 726C6973 		.ascii	"rlist\000"
 4349      7400
 4350              	.LASF12:
 4351 0404 75696E74 		.ascii	"uint8_t\000"
 4351      385F7400 
 4352              	.LASF78:
 4353 040c 666C6167 		.ascii	"flags\000"
 4353      7300
 4354              	.LASF59:
 4355 0412 4576656E 		.ascii	"EventListener\000"
 4355      744C6973 
ARM GAS  /tmp/ccLx01V2.s 			page 81


 4355      74656E65 
 4355      7200
 4356              	.LASF88:
 4357 0420 63684576 		.ascii	"chEvtWaitOneTimeout\000"
 4357      74576169 
 4357      744F6E65 
 4357      54696D65 
 4357      6F757400 
 4358              	.LASF69:
 4359 0434 77746F62 		.ascii	"wtobjp\000"
 4359      6A7000
 4360              	.LASF95:
 4361 043b 474E5520 		.ascii	"GNU C 4.9.3 20150529 (release) [ARM/embedded-4_9-br"
 4361      4320342E 
 4361      392E3320 
 4361      32303135 
 4361      30353239 
 4362 046e 616E6368 		.ascii	"anch revision 224288] -mcpu=cortex-m4 -mfloat-abi=h"
 4362      20726576 
 4362      6973696F 
 4362      6E203232 
 4362      34323838 
 4363 04a1 61726420 		.ascii	"ard -mfpu=fpv4-sp-d16 -mno-thumb-interwork -mthumb "
 4363      2D6D6670 
 4363      753D6670 
 4363      76342D73 
 4363      702D6431 
 4364 04d4 2D676764 		.ascii	"-ggdb -O2 -fomit-frame-pointer -falign-functions=16"
 4364      62202D4F 
 4364      32202D66 
 4364      6F6D6974 
 4364      2D667261 
 4365 0507 202D666E 		.ascii	" -fno-math-errno -fsingle-precision-constant\000"
 4365      6F2D6D61 
 4365      74682D65 
 4365      72726E6F 
 4365      202D6673 
 4366              	.LASF77:
 4367 0534 63684576 		.ascii	"chEvtGetAndClearFlags\000"
 4367      74476574 
 4367      416E6443 
 4367      6C656172 
 4367      466C6167 
 4368              	.LASF57:
 4369 054a 6D5F6F77 		.ascii	"m_owner\000"
 4369      6E657200 
 4370              	.LASF29:
 4371 0552 705F6374 		.ascii	"p_ctx\000"
 4371      7800
 4372              	.LASF36:
 4373 0558 705F7761 		.ascii	"p_waiting\000"
 4373      6974696E 
 4373      6700
 4374              	.LASF92:
 4375 0562 63684576 		.ascii	"chEvtSignalI\000"
 4375      74536967 
 4375      6E616C49 
ARM GAS  /tmp/ccLx01V2.s 			page 82


 4375      00
 4376              		.ident	"GCC: (GNU Tools for ARM Embedded Processors) 4.9.3 20150529 (release) [ARM/embedded-4_9-br
ARM GAS  /tmp/ccLx01V2.s 			page 83


DEFINED SYMBOLS
                            *ABS*:00000000 chevents.c
     /tmp/ccLx01V2.s:20     .text:00000000 $t
     /tmp/ccLx01V2.s:26     .text:00000000 chEvtRegisterMask
     /tmp/ccLx01V2.s:85     .text:00000024 $d
     /tmp/ccLx01V2.s:89     .text:00000028 $t
     /tmp/ccLx01V2.s:95     .text:00000030 chEvtUnregister
     /tmp/ccLx01V2.s:158    .text:00000060 chEvtGetAndClearEvents
     /tmp/ccLx01V2.s:197    .text:0000007c $d
     /tmp/ccLx01V2.s:201    .text:00000080 $t
     /tmp/ccLx01V2.s:207    .text:00000080 chEvtAddEvents
     /tmp/ccLx01V2.s:244    .text:00000098 $d
     /tmp/ccLx01V2.s:248    .text:0000009c $t
     /tmp/ccLx01V2.s:254    .text:000000a0 chEvtGetAndClearFlags
     /tmp/ccLx01V2.s:297    .text:000000c0 chEvtSignalI
     /tmp/ccLx01V2.s:362    .text:000000f0 chEvtBroadcastFlagsI
     /tmp/ccLx01V2.s:413    .text:00000110 chEvtSignal
     /tmp/ccLx01V2.s:456    .text:00000130 chEvtBroadcastFlags
     /tmp/ccLx01V2.s:499    .text:00000150 chEvtGetAndClearFlagsI
     /tmp/ccLx01V2.s:527    .text:00000160 chEvtDispatch
     /tmp/ccLx01V2.s:591    .text:000001a0 chEvtWaitOne
     /tmp/ccLx01V2.s:656    .text:000001d8 $d
     /tmp/ccLx01V2.s:660    .text:000001dc $t
     /tmp/ccLx01V2.s:666    .text:000001e0 chEvtWaitAny
     /tmp/ccLx01V2.s:729    .text:00000214 $d
     /tmp/ccLx01V2.s:733    .text:00000218 $t
     /tmp/ccLx01V2.s:739    .text:00000220 chEvtWaitAll
     /tmp/ccLx01V2.s:799    .text:00000254 $d
     /tmp/ccLx01V2.s:803    .text:00000258 $t
     /tmp/ccLx01V2.s:809    .text:00000260 chEvtWaitOneTimeout
     /tmp/ccLx01V2.s:907    .text:000002b0 $d
     /tmp/ccLx01V2.s:911    .text:000002b4 $t
     /tmp/ccLx01V2.s:917    .text:000002c0 chEvtWaitAnyTimeout
     /tmp/ccLx01V2.s:1013   .text:00000310 $d
     /tmp/ccLx01V2.s:1017   .text:00000314 $t
     /tmp/ccLx01V2.s:1023   .text:00000320 chEvtWaitAllTimeout
     /tmp/ccLx01V2.s:1114   .text:0000036c $d
                     .debug_frame:00000010 $d

UNDEFINED SYMBOLS
rlist
chSchReadyI
chSchRescheduleS
chSchGoSleepS
chSchGoSleepTimeoutS
