ARM GAS  /tmp/ccguXoVb.s 			page 1


   1              		.syntax unified
   2              		.cpu cortex-m4
   3              		.eabi_attribute 27, 1
   4              		.eabi_attribute 28, 1
   5              		.fpu fpv4-sp-d16
   6              		.eabi_attribute 20, 1
   7              		.eabi_attribute 21, 1
   8              		.eabi_attribute 23, 3
   9              		.eabi_attribute 24, 1
  10              		.eabi_attribute 25, 1
  11              		.eabi_attribute 26, 1
  12              		.eabi_attribute 30, 2
  13              		.eabi_attribute 34, 1
  14              		.eabi_attribute 18, 4
  15              		.thumb
  16              		.file	"chmemcore.c"
  17              		.text
  18              	.Ltext0:
  19              		.cfi_sections	.debug_frame
  20              		.align	2
  21              		.p2align 4,,15
  22              		.global	_core_init
  23              		.thumb
  24              		.thumb_func
  25              		.type	_core_init, %function
  26              	_core_init:
  27              	.LFB7:
  28              		.file 1 "/home/sbcu/Dropbox/pcb-layouts/axo-on-discovery-board/axoloti/platform_linux/../chibios/o
  29              		.loc 1 66 0
  30              		.cfi_startproc
  31              		@ args = 0, pretend = 0, frame = 0
  32              		@ frame_needed = 0, uses_anonymous_args = 0
  33              		@ link register save eliminated.
  34              		.loc 1 70 0
  35 0000 044A     		ldr	r2, .L2
  36              		.loc 1 71 0
  37 0002 054B     		ldr	r3, .L2+4
  38              		.loc 1 70 0
  39 0004 0549     		ldr	r1, .L2+8
  40 0006 22F00702 		bic	r2, r2, #7
  41              		.loc 1 71 0
  42 000a 23F00703 		bic	r3, r3, #7
  43 000e 81E80C00 		stmia	r1, {r2, r3}
  44 0012 7047     		bx	lr
  45              	.L3:
  46              		.align	2
  47              	.L2:
  48 0014 07000000 		.word	__heap_base__+7
  49 0018 00000000 		.word	__heap_end__
  50 001c 00000000 		.word	.LANCHOR0
  51              		.cfi_endproc
  52              	.LFE7:
  53              		.size	_core_init, .-_core_init
  54              		.align	2
  55              		.p2align 4,,15
  56              		.global	chCoreAlloc
  57              		.thumb
ARM GAS  /tmp/ccguXoVb.s 			page 2


  58              		.thumb_func
  59              		.type	chCoreAlloc, %function
  60              	chCoreAlloc:
  61              	.LFB8:
  62              		.loc 1 91 0
  63              		.cfi_startproc
  64              		@ args = 0, pretend = 0, frame = 0
  65              		@ frame_needed = 0, uses_anonymous_args = 0
  66              		@ link register save eliminated.
  67              	.LVL0:
  68 0020 10B4     		push	{r4}
  69              		.cfi_def_cfa_offset 4
  70              		.cfi_offset 4, -4
  71              	.LBB6:
  72              		.loc 1 94 0
  73 0022 2023     		movs	r3, #32
  74              	@ 94 "/home/sbcu/Dropbox/pcb-layouts/axo-on-discovery-board/axoloti/platform_linux/../chibios/os/ke
  75 0024 83F31188 		msr     BASEPRI, r3
  76              	@ 0 "" 2
  77              	.LVL1:
  78              		.thumb
  79              	.LBE6:
  80              	.LBB7:
  81              	.LBB8:
  82              		.loc 1 118 0
  83 0028 094C     		ldr	r4, .L8
  84 002a 2268     		ldr	r2, [r4]
  85 002c 6168     		ldr	r1, [r4, #4]
  86              		.loc 1 117 0
  87 002e C31D     		adds	r3, r0, #7
  88 0030 23F00703 		bic	r3, r3, #7
  89              	.LVL2:
  90              		.loc 1 118 0
  91 0034 891A     		subs	r1, r1, r2
  92 0036 8B42     		cmp	r3, r1
  93              	.LVL3:
  94              		.loc 1 121 0
  95 0038 9DBF     		ittte	ls
  96 003a 9B18     		addls	r3, r3, r2
  97              	.LVL4:
  98 003c 2360     		strls	r3, [r4]
  99              		.loc 1 122 0
 100 003e 1046     		movls	r0, r2
 101              	.LVL5:
 102              		.loc 1 119 0
 103 0040 0020     		movhi	r0, #0
 104              	.LBE8:
 105              	.LBE7:
 106              	.LBB9:
 107              		.loc 1 96 0
 108 0042 0023     		movs	r3, #0
 109              	@ 96 "/home/sbcu/Dropbox/pcb-layouts/axo-on-discovery-board/axoloti/platform_linux/../chibios/os/ke
 110 0044 83F31188 		msr     BASEPRI, r3
 111              	@ 0 "" 2
 112              		.thumb
 113              	.LBE9:
 114              		.loc 1 98 0
ARM GAS  /tmp/ccguXoVb.s 			page 3


 115 0048 5DF8044B 		ldr	r4, [sp], #4
 116              		.cfi_restore 4
 117              		.cfi_def_cfa_offset 0
 118 004c 7047     		bx	lr
 119              	.L9:
 120 004e 00BF     		.align	2
 121              	.L8:
 122 0050 00000000 		.word	.LANCHOR0
 123              		.cfi_endproc
 124              	.LFE8:
 125              		.size	chCoreAlloc, .-chCoreAlloc
 126              		.align	2
 127 0054 AFF30080 		.p2align 4,,15
 127      AFF30080 
 127      AFF30080 
 128              		.global	chCoreAllocI
 129              		.thumb
 130              		.thumb_func
 131              		.type	chCoreAllocI, %function
 132              	chCoreAllocI:
 133              	.LFB9:
 134              		.loc 1 112 0
 135              		.cfi_startproc
 136              		@ args = 0, pretend = 0, frame = 0
 137              		@ frame_needed = 0, uses_anonymous_args = 0
 138              		@ link register save eliminated.
 139              	.LVL6:
 140 0060 10B4     		push	{r4}
 141              		.cfi_def_cfa_offset 4
 142              		.cfi_offset 4, -4
 143              		.loc 1 118 0
 144 0062 084C     		ldr	r4, .L14
 145 0064 2268     		ldr	r2, [r4]
 146 0066 6168     		ldr	r1, [r4, #4]
 147              		.loc 1 117 0
 148 0068 0730     		adds	r0, r0, #7
 149              	.LVL7:
 150 006a 20F00703 		bic	r3, r0, #7
 151              	.LVL8:
 152              		.loc 1 118 0
 153 006e 891A     		subs	r1, r1, r2
 154 0070 8B42     		cmp	r3, r1
 155              	.LVL9:
 156              		.loc 1 121 0
 157 0072 9DBF     		ittte	ls
 158 0074 9B18     		addls	r3, r3, r2
 159              	.LVL10:
 160 0076 2360     		strls	r3, [r4]
 161              		.loc 1 122 0
 162 0078 1046     		movls	r0, r2
 163              	.LVL11:
 164              		.loc 1 119 0
 165 007a 0020     		movhi	r0, #0
 166              		.loc 1 123 0
 167 007c 5DF8044B 		ldr	r4, [sp], #4
 168              		.cfi_restore 4
 169              		.cfi_def_cfa_offset 0
ARM GAS  /tmp/ccguXoVb.s 			page 4


 170 0080 7047     		bx	lr
 171              	.L15:
 172 0082 00BF     		.align	2
 173              	.L14:
 174 0084 00000000 		.word	.LANCHOR0
 175              		.cfi_endproc
 176              	.LFE9:
 177              		.size	chCoreAllocI, .-chCoreAllocI
 178              		.align	2
 179 0088 AFF30080 		.p2align 4,,15
 179      AFF30080 
 180              		.global	chCoreStatus
 181              		.thumb
 182              		.thumb_func
 183              		.type	chCoreStatus, %function
 184              	chCoreStatus:
 185              	.LFB10:
 186              		.loc 1 132 0
 187              		.cfi_startproc
 188              		@ args = 0, pretend = 0, frame = 0
 189              		@ frame_needed = 0, uses_anonymous_args = 0
 190              		@ link register save eliminated.
 191              		.loc 1 134 0
 192 0090 024B     		ldr	r3, .L17
 193 0092 5868     		ldr	r0, [r3, #4]
 194 0094 1B68     		ldr	r3, [r3]
 195              		.loc 1 135 0
 196 0096 C01A     		subs	r0, r0, r3
 197 0098 7047     		bx	lr
 198              	.L18:
 199 009a 00BF     		.align	2
 200              	.L17:
 201 009c 00000000 		.word	.LANCHOR0
 202              		.cfi_endproc
 203              	.LFE10:
 204              		.size	chCoreStatus, .-chCoreStatus
 205              		.bss
 206              		.align	2
 207              		.set	.LANCHOR0,. + 0
 208              		.type	nextmem, %object
 209              		.size	nextmem, 4
 210              	nextmem:
 211 0000 00000000 		.space	4
 212              		.type	endmem, %object
 213              		.size	endmem, 4
 214              	endmem:
 215 0004 00000000 		.space	4
 216              		.text
 217              	.Letext0:
 218              		.file 2 "/home/sbcu/Dropbox/pcb-layouts/axo-on-discovery-board/axoloti/platform_linux/lib/gcc/arm-
 219              		.file 3 "/home/sbcu/Dropbox/pcb-layouts/axo-on-discovery-board/axoloti/platform_linux/arm-none-eab
 220              		.file 4 "/home/sbcu/Dropbox/pcb-layouts/axo-on-discovery-board/axoloti/platform_linux/arm-none-eab