ARM GAS  /tmp/ccguXoVb.s 			page 1


   1              		.syntax unified
   2              		.cpu cortex-m4
   3              		.eabi_attribute 27, 1
   4              		.eabi_attribute 28, 1
   5              		.fpu fpv4-sp-d16
   6              		.eabi_attribute 20, 1
   7              		.eabi_attribute 21, 1
   8              		.eabi_attribute 23, 3
   9              		.eabi_attribute 24, 1
  10              		.eabi_attribute 25, 1
  11              		.eabi_attribute 26, 1
  12              		.eabi_attribute 30, 2
  13              		.eabi_attribute 34, 1
  14              		.eabi_attribute 18, 4
  15              		.thumb
  16              		.file	"chmemcore.c"
  17              		.text
  18              	.Ltext0:
  19              		.cfi_sections	.debug_frame
  20              		.align	2
  21              		.p2align 4,,15
  22              		.global	_core_init
  23              		.thumb
  24              		.thumb_func
  25              		.type	_core_init, %function
  26              	_core_init:
  27              	.LFB7:
  28              		.file 1 "/home/sbcu/Dropbox/pcb-layouts/axo-on-discovery-board/axoloti/platform_linux/../chibios/o
  29              		.loc 1 66 0
  30              		.cfi_startproc
  31              		@ args = 0, pretend = 0, frame = 0
  32              		@ frame_needed = 0, uses_anonymous_args = 0
  33              		@ link register save eliminated.
  34              		.loc 1 70 0
  35 0000 044A     		ldr	r2, .L2
  36              		.loc 1 71 0
  37 0002 054B     		ldr	r3, .L2+4
  38              		.loc 1 70 0
  39 0004 0549     		ldr	r1, .L2+8
  40 0006 22F00702 		bic	r2, r2, #7
  41              		.loc 1 71 0
  42 000a 23F00703 		bic	r3, r3, #7
  43 000e 81E80C00 		stmia	r1, {r2, r3}
  44 0012 7047     		bx	lr
  45              	.L3:
  46              		.align	2
  47              	.L2:
  48 0014 07000000 		.word	__heap_base__+7
  49 0018 00000000 		.word	__heap_end__
  50 001c 00000000 		.word	.LANCHOR0
  51              		.cfi_endproc
  52              	.LFE7:
  53              		.size	_core_init, .-_core_init
  54              		.align	2
  55              		.p2align 4,,15
  56              		.global	chCoreAlloc
  57              		.thumb
ARM GAS  /tmp/ccguXoVb.s 			page 2


  58              		.thumb_func
  59              		.type	chCoreAlloc, %function
  60              	chCoreAlloc:
  61              	.LFB8:
  62              		.loc 1 91 0
  63              		.cfi_startproc
  64              		@ args = 0, pretend = 0, frame = 0
  65              		@ frame_needed = 0, uses_anonymous_args = 0
  66              		@ link register save eliminated.
  67              	.LVL0:
  68 0020 10B4     		push	{r4}
  69              		.cfi_def_cfa_offset 4
  70              		.cfi_offset 4, -4
  71              	.LBB6:
  72              		.loc 1 94 0
  73 0022 2023     		movs	r3, #32
  74              	@ 94 "/home/sbcu/Dropbox/pcb-layouts/axo-on-discovery-board/axoloti/platform_linux/../chibios/os/ke
  75 0024 83F31188 		msr     BASEPRI, r3
  76              	@ 0 "" 2
  77              	.LVL1:
  78              		.thumb
  79              	.LBE6:
  80              	.LBB7:
  81              	.LBB8:
  82              		.loc 1 118 0
  83 0028 094C     		ldr	r4, .L8
  84 002a 2268     		ldr	r2, [r4]
  85 002c 6168     		ldr	r1, [r4, #4]
  86              		.loc 1 117 0
  87 002e C31D     		adds	r3, r0, #7
  88 0030 23F00703 		bic	r3, r3, #7
  89              	.LVL2:
  90              		.loc 1 118 0
  91 0034 891A     		subs	r1, r1, r2
  92 0036 8B42     		cmp	r3, r1
  93              	.LVL3:
  94              		.loc 1 121 0
  95 0038 9DBF     		ittte	ls
  96 003a 9B18     		addls	r3, r3, r2
  97              	.LVL4:
  98 003c 2360     		strls	r3, [r4]
  99              		.loc 1 122 0
 100 003e 1046     		movls	r0, r2
 101              	.LVL5:
 102              		.loc 1 119 0
 103 0040 0020     		movhi	r0, #0
 104              	.LBE8:
 105              	.LBE7:
 106              	.LBB9:
 107              		.loc 1 96 0
 108 0042 0023     		movs	r3, #0
 109              	@ 96 "/home/sbcu/Dropbox/pcb-layouts/axo-on-discovery-board/axoloti/platform_linux/../chibios/os/ke
 110 0044 83F31188 		msr     BASEPRI, r3
 111              	@ 0 "" 2
 112              		.thumb
 113              	.LBE9:
 114              		.loc 1 98 0
ARM GAS  /tmp/ccguXoVb.s 			page 3


 115 0048 5DF8044B 		ldr	r4, [sp], #4
 116              		.cfi_restore 4
 117              		.cfi_def_cfa_offset 0
 118 004c 7047     		bx	lr
 119              	.L9:
 120 004e 00BF     		.align	2
 121              	.L8:
 122 0050 00000000 		.word	.LANCHOR0
 123              		.cfi_endproc
 124              	.LFE8:
 125              		.size	chCoreAlloc, .-chCoreAlloc
 126              		.align	2
 127 0054 AFF30080 		.p2align 4,,15
 127      AFF30080 
 127      AFF30080 
 128              		.global	chCoreAllocI
 129              		.thumb
 130              		.thumb_func
 131              		.type	chCoreAllocI, %function
 132              	chCoreAllocI:
 133              	.LFB9:
 134              		.loc 1 112 0
 135              		.cfi_startproc
 136              		@ args = 0, pretend = 0, frame = 0
 137              		@ frame_needed = 0, uses_anonymous_args = 0
 138              		@ link register save eliminated.
 139              	.LVL6:
 140 0060 10B4     		push	{r4}
 141              		.cfi_def_cfa_offset 4
 142              		.cfi_offset 4, -4
 143              		.loc 1 118 0
 144 0062 084C     		ldr	r4, .L14
 145 0064 2268     		ldr	r2, [r4]
 146 0066 6168     		ldr	r1, [r4, #4]
 147              		.loc 1 117 0
 148 0068 0730     		adds	r0, r0, #7
 149              	.LVL7:
 150 006a 20F00703 		bic	r3, r0, #7
 151              	.LVL8:
 152              		.loc 1 118 0
 153 006e 891A     		subs	r1, r1, r2
 154 0070 8B42     		cmp	r3, r1
 155              	.LVL9:
 156              		.loc 1 121 0
 157 0072 9DBF     		ittte	ls
 158 0074 9B18     		addls	r3, r3, r2
 159              	.LVL10:
 160 0076 2360     		strls	r3, [r4]
 161              		.loc 1 122 0
 162 0078 1046     		movls	r0, r2
 163              	.LVL11:
 164              		.loc 1 119 0
 165 007a 0020     		movhi	r0, #0
 166              		.loc 1 123 0
 167 007c 5DF8044B 		ldr	r4, [sp], #4
 168              		.cfi_restore 4
 169              		.cfi_def_cfa_offset 0
ARM GAS  /tmp/ccguXoVb.s 			page 4


 170 0080 7047     		bx	lr
 171              	.L15:
 172 0082 00BF     		.align	2
 173              	.L14:
 174 0084 00000000 		.word	.LANCHOR0
 175              		.cfi_endproc
 176              	.LFE9:
 177              		.size	chCoreAllocI, .-chCoreAllocI
 178              		.align	2
 179 0088 AFF30080 		.p2align 4,,15
 179      AFF30080 
 180              		.global	chCoreStatus
 181              		.thumb
 182              		.thumb_func
 183              		.type	chCoreStatus, %function
 184              	chCoreStatus:
 185              	.LFB10:
 186              		.loc 1 132 0
 187              		.cfi_startproc
 188              		@ args = 0, pretend = 0, frame = 0
 189              		@ frame_needed = 0, uses_anonymous_args = 0
 190              		@ link register save eliminated.
 191              		.loc 1 134 0
 192 0090 024B     		ldr	r3, .L17
 193 0092 5868     		ldr	r0, [r3, #4]
 194 0094 1B68     		ldr	r3, [r3]
 195              		.loc 1 135 0
 196 0096 C01A     		subs	r0, r0, r3
 197 0098 7047     		bx	lr
 198              	.L18:
 199 009a 00BF     		.align	2
 200              	.L17:
 201 009c 00000000 		.word	.LANCHOR0
 202              		.cfi_endproc
 203              	.LFE10:
 204              		.size	chCoreStatus, .-chCoreStatus
 205              		.bss
 206              		.align	2
 207              		.set	.LANCHOR0,. + 0
 208              		.type	nextmem, %object
 209              		.size	nextmem, 4
 210              	nextmem:
 211 0000 00000000 		.space	4
 212              		.type	endmem, %object
 213              		.size	endmem, 4
 214              	endmem:
 215 0004 00000000 		.space	4
 216              		.text
 217              	.Letext0:
 218              		.file 2 "/home/sbcu/Dropbox/pcb-layouts/axo-on-discovery-board/axoloti/platform_linux/lib/gcc/arm-
 219              		.file 3 "/home/sbcu/Dropbox/pcb-layouts/axo-on-discovery-board/axoloti/platform_linux/arm-none-eab
 220              		.file 4 "/home/sbcu/Dropbox/pcb-layouts/axo-on-discovery-board/axoloti/platform_linux/arm-none-eab
 221              		.section	.debug_info,"",%progbits
 222              	.Ldebug_info0:
 223 0000 17020000 		.4byte	0x217
 224 0004 0400     		.2byte	0x4
 225 0006 00000000 		.4byte	.Ldebug_abbrev0
ARM GAS  /tmp/ccguXoVb.s 			page 5


 226 000a 04       		.byte	0x4
 227 000b 01       		.uleb128 0x1
 228 000c 07000000 		.4byte	.LASF21
 229 0010 01       		.byte	0x1
 230 0011 F7010000 		.4byte	.LASF22
 231 0015 00000000 		.4byte	.Ltext0
 232 0019 A0000000 		.4byte	.Letext0-.Ltext0
 233 001d 00000000 		.4byte	.Ldebug_line0
 234 0021 02       		.uleb128 0x2
 235 0022 04       		.byte	0x4
 236 0023 05       		.byte	0x5
 237 0024 696E7400 		.ascii	"int\000"
 238 0028 03       		.uleb128 0x3
 239 0029 0A010000 		.4byte	.LASF2
 240 002d 02       		.byte	0x2
 241 002e D4       		.byte	0xd4
 242 002f 33000000 		.4byte	0x33
 243 0033 04       		.uleb128 0x4
 244 0034 04       		.byte	0x4
 245 0035 07       		.byte	0x7
 246 0036 8A010000 		.4byte	.LASF0
 247 003a 04       		.uleb128 0x4
 248 003b 01       		.byte	0x1
 249 003c 06       		.byte	0x6
 250 003d 7E020000 		.4byte	.LASF1
 251 0041 03       		.uleb128 0x3
 252 0042 00010000 		.4byte	.LASF3
 253 0046 03       		.byte	0x3
 254 0047 1D       		.byte	0x1d
 255 0048 4C000000 		.4byte	0x4c
 256 004c 04       		.uleb128 0x4
 257 004d 01       		.byte	0x1
 258 004e 08       		.byte	0x8
 259 004f 66010000 		.4byte	.LASF4
 260 0053 04       		.uleb128 0x4
 261 0054 02       		.byte	0x2
 262 0055 05       		.byte	0x5
 263 0056 ED010000 		.4byte	.LASF5
 264 005a 04       		.uleb128 0x4
 265 005b 02       		.byte	0x2
 266 005c 07       		.byte	0x7
 267 005d 4A010000 		.4byte	.LASF6
 268 0061 04       		.uleb128 0x4
 269 0062 04       		.byte	0x4
 270 0063 05       		.byte	0x5
 271 0064 75020000 		.4byte	.LASF7
 272 0068 03       		.uleb128 0x3
 273 0069 74010000 		.4byte	.LASF8
 274 006d 03       		.byte	0x3
 275 006e 41       		.byte	0x41
 276 006f 73000000 		.4byte	0x73
 277 0073 04       		.uleb128 0x4
 278 0074 04       		.byte	0x4
 279 0075 07       		.byte	0x7
 280 0076 2B010000 		.4byte	.LASF9
 281 007a 04       		.uleb128 0x4
 282 007b 08       		.byte	0x8
ARM GAS  /tmp/ccguXoVb.s 			page 6


 283 007c 05       		.byte	0x5
 284 007d CD010000 		.4byte	.LASF10
 285 0081 04       		.uleb128 0x4
 286 0082 08       		.byte	0x8
 287 0083 07       		.byte	0x7
 288 0084 97010000 		.4byte	.LASF11
 289 0088 03       		.uleb128 0x3
 290 0089 AE010000 		.4byte	.LASF12
 291 008d 04       		.byte	0x4
 292 008e 14       		.byte	0x14
 293 008f 41000000 		.4byte	0x41
 294 0093 03       		.uleb128 0x3
 295 0094 5D010000 		.4byte	.LASF13
 296 0098 04       		.byte	0x4
 297 0099 20       		.byte	0x20
 298 009a 68000000 		.4byte	0x68
 299 009e 04       		.uleb128 0x4
 300 009f 01       		.byte	0x1
 301 00a0 02       		.byte	0x2
 302 00a1 8A020000 		.4byte	.LASF14
 303 00a5 05       		.uleb128 0x5
 304 00a6 04       		.byte	0x4
 305 00a7 04       		.uleb128 0x4
 306 00a8 04       		.byte	0x4
 307 00a9 07       		.byte	0x7
 308 00aa C4010000 		.4byte	.LASF15
 309 00ae 04       		.uleb128 0x4
 310 00af 01       		.byte	0x1
 311 00b0 08       		.byte	0x8
 312 00b1 DB010000 		.4byte	.LASF16
 313 00b5 06       		.uleb128 0x6
 314 00b6 04       		.byte	0x4
 315 00b7 88000000 		.4byte	0x88
 316 00bb 07       		.uleb128 0x7
 317 00bc 19010000 		.4byte	.LASF23
 318 00c0 01       		.byte	0x1
 319 00c1 70       		.byte	0x70
 320 00c2 A5000000 		.4byte	0xa5
 321 00c6 01       		.byte	0x1
 322 00c7 E0000000 		.4byte	0xe0
 323 00cb 08       		.uleb128 0x8
 324 00cc 26010000 		.4byte	.LASF24
 325 00d0 01       		.byte	0x1
 326 00d1 70       		.byte	0x70
 327 00d2 28000000 		.4byte	0x28
 328 00d6 09       		.uleb128 0x9
 329 00d7 7000     		.ascii	"p\000"
 330 00d9 01       		.byte	0x1
 331 00da 71       		.byte	0x71
 332 00db A5000000 		.4byte	0xa5
 333 00df 00       		.byte	0
 334 00e0 0A       		.uleb128 0xa
 335 00e1 7F010000 		.4byte	.LASF25
 336 00e5 01       		.byte	0x1
 337 00e6 42       		.byte	0x42
 338 00e7 00000000 		.4byte	.LFB7
 339 00eb 20000000 		.4byte	.LFE7-.LFB7
ARM GAS  /tmp/ccguXoVb.s 			page 7


 340 00ef 01       		.uleb128 0x1
 341 00f0 9C       		.byte	0x9c
 342 00f1 0C010000 		.4byte	0x10c
 343 00f5 0B       		.uleb128 0xb
 344 00f6 B6010000 		.4byte	.LASF17
 345 00fa 01       		.byte	0x1
 346 00fb 44       		.byte	0x44
 347 00fc 0C010000 		.4byte	0x10c
 348 0100 0B       		.uleb128 0xb
 349 0101 E0010000 		.4byte	.LASF18
 350 0105 01       		.byte	0x1
 351 0106 45       		.byte	0x45
 352 0107 0C010000 		.4byte	0x10c
 353 010b 00       		.byte	0
 354 010c 0C       		.uleb128 0xc
 355 010d 88000000 		.4byte	0x88
 356 0111 17010000 		.4byte	0x117
 357 0115 0D       		.uleb128 0xd
 358 0116 00       		.byte	0
 359 0117 0E       		.uleb128 0xe
 360 0118 69020000 		.4byte	.LASF26
 361 011c 01       		.byte	0x1
 362 011d 5B       		.byte	0x5b
 363 011e A5000000 		.4byte	0xa5
 364 0122 20000000 		.4byte	.LFB8
 365 0126 34000000 		.4byte	.LFE8-.LFB8
 366 012a 01       		.uleb128 0x1
 367 012b 9C       		.byte	0x9c
 368 012c A9010000 		.4byte	0x1a9
 369 0130 0F       		.uleb128 0xf
 370 0131 26010000 		.4byte	.LASF24
 371 0135 01       		.byte	0x1
 372 0136 5B       		.byte	0x5b
 373 0137 28000000 		.4byte	0x28
 374 013b 00000000 		.4byte	.LLST0
 375 013f 09       		.uleb128 0x9
 376 0140 7000     		.ascii	"p\000"
 377 0142 01       		.byte	0x1
 378 0143 5C       		.byte	0x5c
 379 0144 A5000000 		.4byte	0xa5
 380 0148 10       		.uleb128 0x10
 381 0149 22000000 		.4byte	.LBB6
 382 014d 06000000 		.4byte	.LBE6-.LBB6
 383 0151 63010000 		.4byte	0x163
 384 0155 11       		.uleb128 0x11
 385 0156 746D7000 		.ascii	"tmp\000"
 386 015a 01       		.byte	0x1
 387 015b 5E       		.byte	0x5e
 388 015c 93000000 		.4byte	0x93
 389 0160 01       		.uleb128 0x1
 390 0161 53       		.byte	0x53
 391 0162 00       		.byte	0
 392 0163 12       		.uleb128 0x12
 393 0164 BB000000 		.4byte	0xbb
 394 0168 28000000 		.4byte	.LBB7
 395 016c 1A000000 		.4byte	.LBE7-.LBB7
 396 0170 01       		.byte	0x1
ARM GAS  /tmp/ccguXoVb.s 			page 8


 397 0171 5F       		.byte	0x5f
 398 0172 91010000 		.4byte	0x191
 399 0176 13       		.uleb128 0x13
 400 0177 CB000000 		.4byte	0xcb
 401 017b 21000000 		.4byte	.LLST1
 402 017f 14       		.uleb128 0x14
 403 0180 28000000 		.4byte	.LBB8
 404 0184 1A000000 		.4byte	.LBE8-.LBB8
 405 0188 15       		.uleb128 0x15
 406 0189 D6000000 		.4byte	0xd6
 407 018d 01       		.uleb128 0x1
 408 018e 52       		.byte	0x52
 409 018f 00       		.byte	0
 410 0190 00       		.byte	0
 411 0191 14       		.uleb128 0x14
 412 0192 42000000 		.4byte	.LBB9
 413 0196 06000000 		.4byte	.LBE9-.LBB9
 414 019a 11       		.uleb128 0x11
 415 019b 746D7000 		.ascii	"tmp\000"
 416 019f 01       		.byte	0x1
 417 01a0 60       		.byte	0x60
 418 01a1 93000000 		.4byte	0x93
 419 01a5 01       		.uleb128 0x1
 420 01a6 53       		.byte	0x53
 421 01a7 00       		.byte	0
 422 01a8 00       		.byte	0
 423 01a9 16       		.uleb128 0x16
 424 01aa BB000000 		.4byte	0xbb
 425 01ae 60000000 		.4byte	.LFB9
 426 01b2 28000000 		.4byte	.LFE9-.LFB9
 427 01b6 01       		.uleb128 0x1
 428 01b7 9C       		.byte	0x9c
 429 01b8 CD010000 		.4byte	0x1cd
 430 01bc 13       		.uleb128 0x13
 431 01bd CB000000 		.4byte	0xcb
 432 01c1 62000000 		.4byte	.LLST2
 433 01c5 15       		.uleb128 0x15
 434 01c6 D6000000 		.4byte	0xd6
 435 01ca 01       		.uleb128 0x1
 436 01cb 52       		.byte	0x52
 437 01cc 00       		.byte	0
 438 01cd 17       		.uleb128 0x17
 439 01ce 3D010000 		.4byte	.LASF27
 440 01d2 01       		.byte	0x1
 441 01d3 84       		.byte	0x84
 442 01d4 28000000 		.4byte	0x28
 443 01d8 90000000 		.4byte	.LFB10
 444 01dc 10000000 		.4byte	.LFE10-.LFB10
 445 01e0 01       		.uleb128 0x1
 446 01e1 9C       		.byte	0x9c
 447 01e2 18       		.uleb128 0x18
 448 01e3 11010000 		.4byte	.LASF19
 449 01e7 01       		.byte	0x1
 450 01e8 3A       		.byte	0x3a
 451 01e9 B5000000 		.4byte	0xb5
 452 01ed 05       		.uleb128 0x5
 453 01ee 03       		.byte	0x3
ARM GAS  /tmp/ccguXoVb.s 			page 9


 454 01ef 00000000 		.4byte	nextmem
 455 01f3 18       		.uleb128 0x18
 456 01f4 00000000 		.4byte	.LASF20
 457 01f8 01       		.byte	0x1
 458 01f9 3B       		.byte	0x3b
 459 01fa B5000000 		.4byte	0xb5
 460 01fe 05       		.uleb128 0x5
 461 01ff 03       		.byte	0x3
 462 0200 04000000 		.4byte	endmem
 463 0204 0B       		.uleb128 0xb
 464 0205 B6010000 		.4byte	.LASF17
 465 0209 01       		.byte	0x1
 466 020a 44       		.byte	0x44
 467 020b 0C010000 		.4byte	0x10c
 468 020f 0B       		.uleb128 0xb
 469 0210 E0010000 		.4byte	.LASF18
 470 0214 01       		.byte	0x1
 471 0215 45       		.byte	0x45
 472 0216 0C010000 		.4byte	0x10c
 473 021a 00       		.byte	0
 474              		.section	.debug_abbrev,"",%progbits
 475              	.Ldebug_abbrev0:
 476 0000 01       		.uleb128 0x1
 477 0001 11       		.uleb128 0x11
 478 0002 01       		.byte	0x1
 479 0003 25       		.uleb128 0x25
 480 0004 0E       		.uleb128 0xe
 481 0005 13       		.uleb128 0x13
 482 0006 0B       		.uleb128 0xb
 483 0007 03       		.uleb128 0x3
 484 0008 0E       		.uleb128 0xe
 485 0009 11       		.uleb128 0x11
 486 000a 01       		.uleb128 0x1
 487 000b 12       		.uleb128 0x12
 488 000c 06       		.uleb128 0x6
 489 000d 10       		.uleb128 0x10
 490 000e 17       		.uleb128 0x17
 491 000f 00       		.byte	0
 492 0010 00       		.byte	0
 493 0011 02       		.uleb128 0x2
 494 0012 24       		.uleb128 0x24
 495 0013 00       		.byte	0
 496 0014 0B       		.uleb128 0xb
 497 0015 0B       		.uleb128 0xb
 498 0016 3E       		.uleb128 0x3e
 499 0017 0B       		.uleb128 0xb
 500 0018 03       		.uleb128 0x3
 501 0019 08       		.uleb128 0x8
 502 001a 00       		.byte	0
 503 001b 00       		.byte	0
 504 001c 03       		.uleb128 0x3
 505 001d 16       		.uleb128 0x16
 506 001e 00       		.byte	0
 507 001f 03       		.uleb128 0x3
 508 0020 0E       		.uleb128 0xe
 509 0021 3A       		.uleb128 0x3a
 510 0022 0B       		.uleb128 0xb
ARM GAS  /tmp/ccguXoVb.s 			page 10


 511 0023 3B       		.uleb128 0x3b
 512 0024 0B       		.uleb128 0xb
 513 0025 49       		.uleb128 0x49
 514 0026 13       		.uleb128 0x13
 515 0027 00       		.byte	0
 516 0028 00       		.byte	0
 517 0029 04       		.uleb128 0x4
 518 002a 24       		.uleb128 0x24
 519 002b 00       		.byte	0
 520 002c 0B       		.uleb128 0xb
 521 002d 0B       		.uleb128 0xb
 522 002e 3E       		.uleb128 0x3e
 523 002f 0B       		.uleb128 0xb
 524 0030 03       		.uleb128 0x3
 525 0031 0E       		.uleb128 0xe
 526 0032 00       		.byte	0
 527 0033 00       		.byte	0
 528 0034 05       		.uleb128 0x5
 529 0035 0F       		.uleb128 0xf
 530 0036 00       		.byte	0
 531 0037 0B       		.uleb128 0xb
 532 0038 0B       		.uleb128 0xb
 533 0039 00       		.byte	0
 534 003a 00       		.byte	0
 535 003b 06       		.uleb128 0x6
 536 003c 0F       		.uleb128 0xf
 537 003d 00       		.byte	0
 538 003e 0B       		.uleb128 0xb
 539 003f 0B       		.uleb128 0xb
 540 0040 49       		.uleb128 0x49
 541 0041 13       		.uleb128 0x13
 542 0042 00       		.byte	0
 543 0043 00       		.byte	0
 544 0044 07       		.uleb128 0x7
 545 0045 2E       		.uleb128 0x2e
 546 0046 01       		.byte	0x1
 547 0047 3F       		.uleb128 0x3f
 548 0048 19       		.uleb128 0x19
 549 0049 03       		.uleb128 0x3
 550 004a 0E       		.uleb128 0xe
 551 004b 3A       		.uleb128 0x3a
 552 004c 0B       		.uleb128 0xb
 553 004d 3B       		.uleb128 0x3b
 554 004e 0B       		.uleb128 0xb
 555 004f 27       		.uleb128 0x27
 556 0050 19       		.uleb128 0x19
 557 0051 49       		.uleb128 0x49
 558 0052 13       		.uleb128 0x13
 559 0053 20       		.uleb128 0x20
 560 0054 0B       		.uleb128 0xb
 561 0055 01       		.uleb128 0x1
 562 0056 13       		.uleb128 0x13
 563 0057 00       		.byte	0
 564 0058 00       		.byte	0
 565 0059 08       		.uleb128 0x8
 566 005a 05       		.uleb128 0x5
 567 005b 00       		.byte	0
ARM GAS  /tmp/ccguXoVb.s 			page 11


 568 005c 03       		.uleb128 0x3
 569 005d 0E       		.uleb128 0xe
 570 005e 3A       		.uleb128 0x3a
 571 005f 0B       		.uleb128 0xb
 572 0060 3B       		.uleb128 0x3b
 573 0061 0B       		.uleb128 0xb
 574 0062 49       		.uleb128 0x49
 575 0063 13       		.uleb128 0x13
 576 0064 00       		.byte	0
 577 0065 00       		.byte	0
 578 0066 09       		.uleb128 0x9
 579 0067 34       		.uleb128 0x34
 580 0068 00       		.byte	0
 581 0069 03       		.uleb128 0x3
 582 006a 08       		.uleb128 0x8
 583 006b 3A       		.uleb128 0x3a
 584 006c 0B       		.uleb128 0xb
 585 006d 3B       		.uleb128 0x3b
 586 006e 0B       		.uleb128 0xb
 587 006f 49       		.uleb128 0x49
 588 0070 13       		.uleb128 0x13
 589 0071 00       		.byte	0
 590 0072 00       		.byte	0
 591 0073 0A       		.uleb128 0xa
 592 0074 2E       		.uleb128 0x2e
 593 0075 01       		.byte	0x1
 594 0076 3F       		.uleb128 0x3f
 595 0077 19       		.uleb128 0x19
 596 0078 03       		.uleb128 0x3
 597 0079 0E       		.uleb128 0xe
 598 007a 3A       		.uleb128 0x3a
 599 007b 0B       		.uleb128 0xb
 600 007c 3B       		.uleb128 0x3b
 601 007d 0B       		.uleb128 0xb
 602 007e 27       		.uleb128 0x27
 603 007f 19       		.uleb128 0x19
 604 0080 11       		.uleb128 0x11
 605 0081 01       		.uleb128 0x1
 606 0082 12       		.uleb128 0x12
 607 0083 06       		.uleb128 0x6
 608 0084 40       		.uleb128 0x40
 609 0085 18       		.uleb128 0x18
 610 0086 9742     		.uleb128 0x2117
 611 0088 19       		.uleb128 0x19
 612 0089 01       		.uleb128 0x1
 613 008a 13       		.uleb128 0x13
 614 008b 00       		.byte	0
 615 008c 00       		.byte	0
 616 008d 0B       		.uleb128 0xb
 617 008e 34       		.uleb128 0x34
 618 008f 00       		.byte	0
 619 0090 03       		.uleb128 0x3
 620 0091 0E       		.uleb128 0xe
 621 0092 3A       		.uleb128 0x3a
 622 0093 0B       		.uleb128 0xb
 623 0094 3B       		.uleb128 0x3b
 624 0095 0B       		.uleb128 0xb
ARM GAS  /tmp/ccguXoVb.s 			page 12


 625 0096 49       		.uleb128 0x49
 626 0097 13       		.uleb128 0x13
 627 0098 3F       		.uleb128 0x3f
 628 0099 19       		.uleb128 0x19
 629 009a 3C       		.uleb128 0x3c
 630 009b 19       		.uleb128 0x19
 631 009c 00       		.byte	0
 632 009d 00       		.byte	0
 633 009e 0C       		.uleb128 0xc
 634 009f 01       		.uleb128 0x1
 635 00a0 01       		.byte	0x1
 636 00a1 49       		.uleb128 0x49
 637 00a2 13       		.uleb128 0x13
 638 00a3 01       		.uleb128 0x1
 639 00a4 13       		.uleb128 0x13
 640 00a5 00       		.byte	0
 641 00a6 00       		.byte	0
 642 00a7 0D       		.uleb128 0xd
 643 00a8 21       		.uleb128 0x21
 644 00a9 00       		.byte	0
 645 00aa 00       		.byte	0
 646 00ab 00       		.byte	0
 647 00ac 0E       		.uleb128 0xe
 648 00ad 2E       		.uleb128 0x2e
 649 00ae 01       		.byte	0x1
 650 00af 3F       		.uleb128 0x3f
 651 00b0 19       		.uleb128 0x19
 652 00b1 03       		.uleb128 0x3
 653 00b2 0E       		.uleb128 0xe
 654 00b3 3A       		.uleb128 0x3a
 655 00b4 0B       		.uleb128 0xb
 656 00b5 3B       		.uleb128 0x3b
 657 00b6 0B       		.uleb128 0xb
 658 00b7 27       		.uleb128 0x27
 659 00b8 19       		.uleb128 0x19
 660 00b9 49       		.uleb128 0x49
 661 00ba 13       		.uleb128 0x13
 662 00bb 11       		.uleb128 0x11
 663 00bc 01       		.uleb128 0x1
 664 00bd 12       		.uleb128 0x12
 665 00be 06       		.uleb128 0x6
 666 00bf 40       		.uleb128 0x40
 667 00c0 18       		.uleb128 0x18
 668 00c1 9742     		.uleb128 0x2117
 669 00c3 19       		.uleb128 0x19
 670 00c4 01       		.uleb128 0x1
 671 00c5 13       		.uleb128 0x13
 672 00c6 00       		.byte	0
 673 00c7 00       		.byte	0
 674 00c8 0F       		.uleb128 0xf
 675 00c9 05       		.uleb128 0x5
 676 00ca 00       		.byte	0
 677 00cb 03       		.uleb128 0x3
 678 00cc 0E       		.uleb128 0xe
 679 00cd 3A       		.uleb128 0x3a
 680 00ce 0B       		.uleb128 0xb
 681 00cf 3B       		.uleb128 0x3b
ARM GAS  /tmp/ccguXoVb.s 			page 13


 682 00d0 0B       		.uleb128 0xb
 683 00d1 49       		.uleb128 0x49
 684 00d2 13       		.uleb128 0x13
 685 00d3 02       		.uleb128 0x2
 686 00d4 17       		.uleb128 0x17
 687 00d5 00       		.byte	0
 688 00d6 00       		.byte	0
 689 00d7 10       		.uleb128 0x10
 690 00d8 0B       		.uleb128 0xb
 691 00d9 01       		.byte	0x1
 692 00da 11       		.uleb128 0x11
 693 00db 01       		.uleb128 0x1
 694 00dc 12       		.uleb128 0x12
 695 00dd 06       		.uleb128 0x6
 696 00de 01       		.uleb128 0x1
 697 00df 13       		.uleb128 0x13
 698 00e0 00       		.byte	0
 699 00e1 00       		.byte	0
 700 00e2 11       		.uleb128 0x11
 701 00e3 34       		.uleb128 0x34
 702 00e4 00       		.byte	0
 703 00e5 03       		.uleb128 0x3
 704 00e6 08       		.uleb128 0x8
 705 00e7 3A       		.uleb128 0x3a
 706 00e8 0B       		.uleb128 0xb
 707 00e9 3B       		.uleb128 0x3b
 708 00ea 0B       		.uleb128 0xb
 709 00eb 49       		.uleb128 0x49
 710 00ec 13       		.uleb128 0x13
 711 00ed 02       		.uleb128 0x2
 712 00ee 18       		.uleb128 0x18
 713 00ef 00       		.byte	0
 714 00f0 00       		.byte	0
 715 00f1 12       		.uleb128 0x12
 716 00f2 1D       		.uleb128 0x1d
 717 00f3 01       		.byte	0x1
 718 00f4 31       		.uleb128 0x31
 719 00f5 13       		.uleb128 0x13
 720 00f6 11       		.uleb128 0x11
 721 00f7 01       		.uleb128 0x1
 722 00f8 12       		.uleb128 0x12
 723 00f9 06       		.uleb128 0x6
 724 00fa 58       		.uleb128 0x58
 725 00fb 0B       		.uleb128 0xb
 726 00fc 59       		.uleb128 0x59
 727 00fd 0B       		.uleb128 0xb
 728 00fe 01       		.uleb128 0x1
 729 00ff 13       		.uleb128 0x13
 730 0100 00       		.byte	0
 731 0101 00       		.byte	0
 732 0102 13       		.uleb128 0x13
 733 0103 05       		.uleb128 0x5
 734 0104 00       		.byte	0
 735 0105 31       		.uleb128 0x31
 736 0106 13       		.uleb128 0x13
 737 0107 02       		.uleb128 0x2
 738 0108 17       		.uleb128 0x17
ARM GAS  /tmp/ccguXoVb.s 			page 14


 739 0109 00       		.byte	0
 740 010a 00       		.byte	0
 741 010b 14       		.uleb128 0x14
 742 010c 0B       		.uleb128 0xb
 743 010d 01       		.byte	0x1
 744 010e 11       		.uleb128 0x11
 745 010f 01       		.uleb128 0x1
 746 0110 12       		.uleb128 0x12
 747 0111 06       		.uleb128 0x6
 748 0112 00       		.byte	0
 749 0113 00       		.byte	0
 750 0114 15       		.uleb128 0x15
 751 0115 34       		.uleb128 0x34
 752 0116 00       		.byte	0
 753 0117 31       		.uleb128 0x31
 754 0118 13       		.uleb128 0x13
 755 0119 02       		.uleb128 0x2
 756 011a 18       		.uleb128 0x18
 757 011b 00       		.byte	0
 758 011c 00       		.byte	0
 759 011d 16       		.uleb128 0x16
 760 011e 2E       		.uleb128 0x2e
 761 011f 01       		.byte	0x1
 762 0120 31       		.uleb128 0x31
 763 0121 13       		.uleb128 0x13
 764 0122 11       		.uleb128 0x11
 765 0123 01       		.uleb128 0x1
 766 0124 12       		.uleb128 0x12
 767 0125 06       		.uleb128 0x6
 768 0126 40       		.uleb128 0x40
 769 0127 18       		.uleb128 0x18
 770 0128 9742     		.uleb128 0x2117
 771 012a 19       		.uleb128 0x19
 772 012b 01       		.uleb128 0x1
 773 012c 13       		.uleb128 0x13
 774 012d 00       		.byte	0
 775 012e 00       		.byte	0
 776 012f 17       		.uleb128 0x17
 777 0130 2E       		.uleb128 0x2e
 778 0131 00       		.byte	0
 779 0132 3F       		.uleb128 0x3f
 780 0133 19       		.uleb128 0x19
 781 0134 03       		.uleb128 0x3
 782 0135 0E       		.uleb128 0xe
 783 0136 3A       		.uleb128 0x3a
 784 0137 0B       		.uleb128 0xb
 785 0138 3B       		.uleb128 0x3b
 786 0139 0B       		.uleb128 0xb
 787 013a 27       		.uleb128 0x27
 788 013b 19       		.uleb128 0x19
 789 013c 49       		.uleb128 0x49
 790 013d 13       		.uleb128 0x13
 791 013e 11       		.uleb128 0x11
 792 013f 01       		.uleb128 0x1
 793 0140 12       		.uleb128 0x12
 794 0141 06       		.uleb128 0x6
 795 0142 40       		.uleb128 0x40
ARM GAS  /tmp/ccguXoVb.s 			page 15


 796 0143 18       		.uleb128 0x18
 797 0144 9742     		.uleb128 0x2117
 798 0146 19       		.uleb128 0x19
 799 0147 00       		.byte	0
 800 0148 00       		.byte	0
 801 0149 18       		.uleb128 0x18
 802 014a 34       		.uleb128 0x34
 803 014b 00       		.byte	0
 804 014c 03       		.uleb128 0x3
 805 014d 0E       		.uleb128 0xe
 806 014e 3A       		.uleb128 0x3a
 807 014f 0B       		.uleb128 0xb
 808 0150 3B       		.uleb128 0x3b
 809 0151 0B       		.uleb128 0xb
 810 0152 49       		.uleb128 0x49
 811 0153 13       		.uleb128 0x13
 812 0154 02       		.uleb128 0x2
 813 0155 18       		.uleb128 0x18
 814 0156 00       		.byte	0
 815 0157 00       		.byte	0
 816 0158 00       		.byte	0
 817              		.section	.debug_loc,"",%progbits
 818              	.Ldebug_loc0:
 819              	.LLST0:
 820 0000 20000000 		.4byte	.LVL0-.Ltext0
 821 0004 40000000 		.4byte	.LVL5-.Ltext0
 822 0008 0100     		.2byte	0x1
 823 000a 50       		.byte	0x50
 824 000b 40000000 		.4byte	.LVL5-.Ltext0
 825 000f 54000000 		.4byte	.LFE8-.Ltext0
 826 0013 0400     		.2byte	0x4
 827 0015 F3       		.byte	0xf3
 828 0016 01       		.uleb128 0x1
 829 0017 50       		.byte	0x50
 830 0018 9F       		.byte	0x9f
 831 0019 00000000 		.4byte	0
 832 001d 00000000 		.4byte	0
 833              	.LLST1:
 834 0021 28000000 		.4byte	.LVL1-.Ltext0
 835 0025 34000000 		.4byte	.LVL2-.Ltext0
 836 0029 0100     		.2byte	0x1
 837 002b 50       		.byte	0x50
 838 002c 34000000 		.4byte	.LVL2-.Ltext0
 839 0030 3C000000 		.4byte	.LVL4-.Ltext0
 840 0034 0100     		.2byte	0x1
 841 0036 53       		.byte	0x53
 842 0037 3C000000 		.4byte	.LVL4-.Ltext0
 843 003b 40000000 		.4byte	.LVL5-.Ltext0
 844 003f 0600     		.2byte	0x6
 845 0041 70       		.byte	0x70
 846 0042 07       		.sleb128 7
 847 0043 09       		.byte	0x9
 848 0044 F8       		.byte	0xf8
 849 0045 1A       		.byte	0x1a
 850 0046 9F       		.byte	0x9f
 851 0047 40000000 		.4byte	.LVL5-.Ltext0
 852 004b 54000000 		.4byte	.LFE8-.Ltext0
ARM GAS  /tmp/ccguXoVb.s 			page 16


 853 004f 0900     		.2byte	0x9
 854 0051 F3       		.byte	0xf3
 855 0052 01       		.uleb128 0x1
 856 0053 50       		.byte	0x50
 857 0054 23       		.byte	0x23
 858 0055 07       		.uleb128 0x7
 859 0056 09       		.byte	0x9
 860 0057 F8       		.byte	0xf8
 861 0058 1A       		.byte	0x1a
 862 0059 9F       		.byte	0x9f
 863 005a 00000000 		.4byte	0
 864 005e 00000000 		.4byte	0
 865              	.LLST2:
 866 0062 60000000 		.4byte	.LVL6-.Ltext0
 867 0066 6A000000 		.4byte	.LVL7-.Ltext0
 868 006a 0100     		.2byte	0x1
 869 006c 50       		.byte	0x50
 870 006d 6A000000 		.4byte	.LVL7-.Ltext0
 871 0071 6E000000 		.4byte	.LVL8-.Ltext0
 872 0075 0300     		.2byte	0x3
 873 0077 70       		.byte	0x70
 874 0078 79       		.sleb128 -7
 875 0079 9F       		.byte	0x9f
 876 007a 6E000000 		.4byte	.LVL8-.Ltext0
 877 007e 76000000 		.4byte	.LVL10-.Ltext0
 878 0082 0100     		.2byte	0x1
 879 0084 53       		.byte	0x53
 880 0085 76000000 		.4byte	.LVL10-.Ltext0
 881 0089 7A000000 		.4byte	.LVL11-.Ltext0
 882 008d 0600     		.2byte	0x6
 883 008f 70       		.byte	0x70
 884 0090 00       		.sleb128 0
 885 0091 09       		.byte	0x9
 886 0092 F8       		.byte	0xf8
 887 0093 1A       		.byte	0x1a
 888 0094 9F       		.byte	0x9f
 889 0095 7A000000 		.4byte	.LVL11-.Ltext0
 890 0099 88000000 		.4byte	.LFE9-.Ltext0
 891 009d 0900     		.2byte	0x9
 892 009f F3       		.byte	0xf3
 893 00a0 01       		.uleb128 0x1
 894 00a1 50       		.byte	0x50
 895 00a2 23       		.byte	0x23
 896 00a3 07       		.uleb128 0x7
 897 00a4 09       		.byte	0x9
 898 00a5 F8       		.byte	0xf8
 899 00a6 1A       		.byte	0x1a
 900 00a7 9F       		.byte	0x9f
 901 00a8 00000000 		.4byte	0
 902 00ac 00000000 		.4byte	0
 903              		.section	.debug_aranges,"",%progbits
 904 0000 1C000000 		.4byte	0x1c
 905 0004 0200     		.2byte	0x2
 906 0006 00000000 		.4byte	.Ldebug_info0
 907 000a 04       		.byte	0x4
 908 000b 00       		.byte	0
 909 000c 0000     		.2byte	0
ARM GAS  /tmp/ccguXoVb.s 			page 17


 910 000e 0000     		.2byte	0
 911 0010 00000000 		.4byte	.Ltext0
 912 0014 A0000000 		.4byte	.Letext0-.Ltext0
 913 0018 00000000 		.4byte	0
 914 001c 00000000 		.4byte	0
 915              		.section	.debug_line,"",%progbits
 916              	.Ldebug_line0:
 917 0000 31020000 		.section	.debug_str,"MS",%progbits,1
 917      0200F801 
 917      00000201 
 917      FB0E0D00 
 917      01010101 
 918              	.LASF20:
 919 0000 656E646D 		.ascii	"endmem\000"
 919      656D00
 920              	.LASF21:
 921 0007 474E5520 		.ascii	"GNU C 4.9.3 20150529 (release) [ARM/embedded-4_9-br"
 921      4320342E 
 921      392E3320 
 921      32303135 
 921      30353239 
 922 003a 616E6368 		.ascii	"anch revision 224288] -mcpu=cortex-m4 -mfloat-abi=h"
 922      20726576 
 922      6973696F 
 922      6E203232 
 922      34323838 
 923 006d 61726420 		.ascii	"ard -mfpu=fpv4-sp-d16 -mno-thumb-interwork -mthumb "
 923      2D6D6670 
 923      753D6670 
 923      76342D73 
 923      702D6431 
 924 00a0 2D676764 		.ascii	"-ggdb -O2 -fomit-frame-pointer -falign-functions=16"
 924      62202D4F 
 924      32202D66 
 924      6F6D6974 
 924      2D667261 
 925 00d3 202D666E 		.ascii	" -fno-math-errno -fsingle-precision-constant\000"
 925      6F2D6D61 
 925      74682D65 
 925      72726E6F 
 925      202D6673 
 926              	.LASF3:
 927 0100 5F5F7569 		.ascii	"__uint8_t\000"
 927      6E74385F 
 927      7400
 928              	.LASF2:
 929 010a 73697A65 		.ascii	"size_t\000"
 929      5F7400
 930              	.LASF19:
 931 0111 6E657874 		.ascii	"nextmem\000"
 931      6D656D00 
 932              	.LASF23:
 933 0119 6368436F 		.ascii	"chCoreAllocI\000"
 933      7265416C 
 933      6C6F6349 
 933      00
 934              	.LASF24:
ARM GAS  /tmp/ccguXoVb.s 			page 18


 935 0126 73697A65 		.ascii	"size\000"
 935      00
 936              	.LASF9:
 937 012b 6C6F6E67 		.ascii	"long unsigned int\000"
 937      20756E73 
 937      69676E65 
 937      6420696E 
 937      7400
 938              	.LASF27:
 939 013d 6368436F 		.ascii	"chCoreStatus\000"
 939      72655374 
 939      61747573 
 939      00
 940              	.LASF6:
 941 014a 73686F72 		.ascii	"short unsigned int\000"
 941      7420756E 
 941      7369676E 
 941      65642069 
 941      6E7400
 942              	.LASF13:
 943 015d 75696E74 		.ascii	"uint32_t\000"
 943      33325F74 
 943      00
 944              	.LASF4:
 945 0166 756E7369 		.ascii	"unsigned char\000"
 945      676E6564 
 945      20636861 
 945      7200
 946              	.LASF8:
 947 0174 5F5F7569 		.ascii	"__uint32_t\000"
 947      6E743332 
 947      5F7400
 948              	.LASF25:
 949 017f 5F636F72 		.ascii	"_core_init\000"
 949      655F696E 
 949      697400
 950              	.LASF0:
 951 018a 756E7369 		.ascii	"unsigned int\000"
 951      676E6564 
 951      20696E74 
 951      00
 952              	.LASF11:
 953 0197 6C6F6E67 		.ascii	"long long unsigned int\000"
 953      206C6F6E 
 953      6720756E 
 953      7369676E 
 953      65642069 
 954              	.LASF12:
 955 01ae 75696E74 		.ascii	"uint8_t\000"
 955      385F7400 
 956              	.LASF17:
 957 01b6 5F5F6865 		.ascii	"__heap_base__\000"
 957      61705F62 
 957      6173655F 
 957      5F00
 958              	.LASF15:
 959 01c4 73697A65 		.ascii	"sizetype\000"
ARM GAS  /tmp/ccguXoVb.s 			page 19


 959      74797065 
 959      00
 960              	.LASF10:
 961 01cd 6C6F6E67 		.ascii	"long long int\000"
 961      206C6F6E 
 961      6720696E 
 961      7400
 962              	.LASF16:
 963 01db 63686172 		.ascii	"char\000"
 963      00
 964              	.LASF18:
 965 01e0 5F5F6865 		.ascii	"__heap_end__\000"
 965      61705F65 
 965      6E645F5F 
 965      00
 966              	.LASF5:
 967 01ed 73686F72 		.ascii	"short int\000"
 967      7420696E 
 967      7400
 968              	.LASF22:
 969 01f7 2F686F6D 		.ascii	"/home/sbcu/Dropbox/pcb-layouts/axo-on-discovery-boa"
 969      652F7362 
 969      63752F44 
 969      726F7062 
 969      6F782F70 
 970 022a 72642F61 		.ascii	"rd/axoloti/platform_linux/../chibios/os/kernel/src/"
 970      786F6C6F 
 970      74692F70 
 970      6C617466 
 970      6F726D5F 
 971 025d 63686D65 		.ascii	"chmemcore.c\000"
 971      6D636F72 
 971      652E6300 
 972              	.LASF26:
 973 0269 6368436F 		.ascii	"chCoreAlloc\000"
 973      7265416C 
 973      6C6F6300 
 974              	.LASF7:
 975 0275 6C6F6E67 		.ascii	"long int\000"
 975      20696E74 
 975      00
 976              	.LASF1:
 977 027e 7369676E 		.ascii	"signed char\000"
 977      65642063 
 977      68617200 
 978              	.LASF14:
 979 028a 5F426F6F 		.ascii	"_Bool\000"
 979      6C00
 980              		.ident	"GCC: (GNU Tools for ARM Embedded Processors) 4.9.3 20150529 (release) [ARM/embedded-4_9-br
ARM GAS  /tmp/ccguXoVb.s 			page 20


DEFINED SYMBOLS
                            *ABS*:00000000 chmemcore.c
     /tmp/ccguXoVb.s:20     .text:00000000 $t
     /tmp/ccguXoVb.s:26     .text:00000000 _core_init
     /tmp/ccguXoVb.s:48     .text:00000014 $d
     /tmp/ccguXoVb.s:54     .text:00000020 $t
     /tmp/ccguXoVb.s:60     .text:00000020 chCoreAlloc
     /tmp/ccguXoVb.s:122    .text:00000050 $d
     /tmp/ccguXoVb.s:126    .text:00000054 $t
     /tmp/ccguXoVb.s:132    .text:00000060 chCoreAllocI
     /tmp/ccguXoVb.s:174    .text:00000084 $d
     /tmp/ccguXoVb.s:178    .text:00000088 $t
     /tmp/ccguXoVb.s:184    .text:00000090 chCoreStatus
     /tmp/ccguXoVb.s:201    .text:0000009c $d
     /tmp/ccguXoVb.s:206    .bss:00000000 $d
     /tmp/ccguXoVb.s:210    .bss:00000000 nextmem
     /tmp/ccguXoVb.s:214    .bss:00000004 endmem
                     .debug_frame:00000010 $d

UNDEFINED SYMBOLS
__heap_base__
__heap_end__
