ARM GAS  /tmp/ccnBwL80.s 			page 1


   1              		.syntax unified
   2              		.cpu cortex-m4
   3              		.eabi_attribute 27, 1
   4              		.eabi_attribute 28, 1
   5              		.fpu fpv4-sp-d16
   6              		.eabi_attribute 20, 1
   7              		.eabi_attribute 21, 1
   8              		.eabi_attribute 23, 3
   9              		.eabi_attribute 24, 1
  10              		.eabi_attribute 25, 1
  11              		.eabi_attribute 26, 1
  12              		.eabi_attribute 30, 2
  13              		.eabi_attribute 34, 1
  14              		.eabi_attribute 18, 4
  15              		.thumb
  16              		.file	"chmtx.c"
  17              		.text
  18              	.Ltext0:
  19              		.cfi_sections	.debug_frame
  20              		.align	2
  21              		.p2align 4,,15
  22              		.global	chMtxInit
  23              		.thumb
  24              		.thumb_func
  25              		.type	chMtxInit, %function
  26              	chMtxInit:
  27              	.LFB7:
  28              		.file 1 "/d_drive/axoloti/platform_linux/../chibios/os/kernel/src/chmtx.c"
  29              		.loc 1 86 0
  30              		.cfi_startproc
  31              		@ args = 0, pretend = 0, frame = 0
  32              		@ frame_needed = 0, uses_anonymous_args = 0
  33              		@ link register save eliminated.
  34              	.LVL0:
  35              		.loc 1 91 0
  36 0000 0023     		movs	r3, #0
  37              		.loc 1 90 0
  38 0002 4060     		str	r0, [r0, #4]
  39 0004 0060     		str	r0, [r0]
  40              		.loc 1 91 0
  41 0006 8360     		str	r3, [r0, #8]
  42 0008 7047     		bx	lr
  43              		.cfi_endproc
  44              	.LFE7:
  45              		.size	chMtxInit, .-chMtxInit
  46 000a 00BF     		.align	2
  47 000c AFF30080 		.p2align 4,,15
  48              		.global	chMtxLockS
  49              		.thumb
  50              		.thumb_func
  51              		.type	chMtxLockS, %function
  52              	chMtxLockS:
  53              	.LFB9:
  54              		.loc 1 121 0
  55              		.cfi_startproc
  56              		@ args = 0, pretend = 0, frame = 0
  57              		@ frame_needed = 0, uses_anonymous_args = 0
ARM GAS  /tmp/ccnBwL80.s 			page 2


  58              	.LVL1:
  59              		.loc 1 122 0
  60 0010 254B     		ldr	r3, .L21
  61              		.loc 1 128 0
  62 0012 8268     		ldr	r2, [r0, #8]
  63              		.loc 1 121 0
  64 0014 70B5     		push	{r4, r5, r6, lr}
  65              		.cfi_def_cfa_offset 16
  66              		.cfi_offset 4, -16
  67              		.cfi_offset 5, -12
  68              		.cfi_offset 6, -8
  69              		.cfi_offset 14, -4
  70              		.loc 1 122 0
  71 0016 9C69     		ldr	r4, [r3, #24]
  72              	.LVL2:
  73              		.loc 1 128 0
  74 0018 002A     		cmp	r2, #0
  75 001a 3FD0     		beq	.L3
  76 001c 0546     		mov	r5, r0
  77              	.LVL3:
  78              	.LBB29:
  79              		.loc 1 135 0
  80 001e 9368     		ldr	r3, [r2, #8]
  81 0020 A068     		ldr	r0, [r4, #8]
  82              	.LVL4:
  83 0022 9842     		cmp	r0, r3
  84 0024 1DD9     		bls	.L5
  85              	.L9:
  86              		.loc 1 139 0
  87 0026 137F     		ldrb	r3, [r2, #28]	@ zero_extendqisi2
  88              		.loc 1 137 0
  89 0028 9060     		str	r0, [r2, #8]
  90              		.loc 1 139 0
  91 002a 002B     		cmp	r3, #0
  92 002c 2DD0     		beq	.L6
  93 002e 042B     		cmp	r3, #4
  94 0030 17D1     		bne	.L5
  95              	.LVL5:
  96              	.LBB30:
  97              	.LBB31:
  98              		.file 2 "/d_drive/axoloti/platform_linux/../chibios/os/kernel/include/chinline.h"
  99              		.loc 2 75 0
 100 0032 92E80A00 		ldmia	r2, {r1, r3}
 101 0036 1960     		str	r1, [r3]
 102              	.LBE31:
 103              	.LBE30:
 104              		.loc 1 142 0
 105 0038 166A     		ldr	r6, [r2, #32]
 106              	.LVL6:
 107              	.LBB33:
 108              	.LBB32:
 109              		.loc 2 76 0
 110 003a 1168     		ldr	r1, [r2]
 111 003c 4B60     		str	r3, [r1, #4]
 112              	.LBE32:
 113              	.LBE33:
 114              		.loc 1 142 0
ARM GAS  /tmp/ccnBwL80.s 			page 3


 115 003e 3346     		mov	r3, r6
 116 0040 02E0     		b	.L11
 117              	.LVL7:
 118              	.L8:
 119              	.LBB34:
 120              	.LBB35:
 121              		.loc 2 46 0
 122 0042 9968     		ldr	r1, [r3, #8]
 123 0044 8142     		cmp	r1, r0
 124 0046 02D3     		bcc	.L12
 125              	.L11:
 126              		.loc 2 45 0
 127 0048 1B68     		ldr	r3, [r3]
 128              	.LVL8:
 129              		.loc 2 46 0
 130 004a 9E42     		cmp	r6, r3
 131 004c F9D1     		bne	.L8
 132              	.L12:
 133              		.loc 2 48 0
 134 004e 5968     		ldr	r1, [r3, #4]
 135 0050 5160     		str	r1, [r2, #4]
 136              		.loc 2 47 0
 137 0052 1360     		str	r3, [r2]
 138              		.loc 2 49 0
 139 0054 5A60     		str	r2, [r3, #4]
 140 0056 0A60     		str	r2, [r1]
 141              	.LBE35:
 142              	.LBE34:
 143              		.loc 1 143 0
 144 0058 B268     		ldr	r2, [r6, #8]
 145              	.LVL9:
 146              		.loc 1 135 0
 147 005a A068     		ldr	r0, [r4, #8]
 148 005c 9368     		ldr	r3, [r2, #8]
 149              	.LVL10:
 150 005e 8342     		cmp	r3, r0
 151 0060 E1D3     		bcc	.L9
 152              	.LVL11:
 153              	.L5:
 154              	.LBB36:
 155              	.LBB37:
 156              		.loc 2 43 0
 157 0062 2B46     		mov	r3, r5
 158 0064 03E0     		b	.L14
 159              	.LVL12:
 160              	.L13:
 161              		.loc 2 46 0
 162 0066 9968     		ldr	r1, [r3, #8]
 163 0068 A268     		ldr	r2, [r4, #8]
 164 006a 9142     		cmp	r1, r2
 165 006c 02D3     		bcc	.L15
 166              	.L14:
 167              		.loc 2 45 0
 168 006e 1B68     		ldr	r3, [r3]
 169              	.LVL13:
 170              		.loc 2 46 0
 171 0070 9D42     		cmp	r5, r3
ARM GAS  /tmp/ccnBwL80.s 			page 4


 172 0072 F8D1     		bne	.L13
 173              	.L15:
 174              		.loc 2 48 0
 175 0074 5A68     		ldr	r2, [r3, #4]
 176 0076 6260     		str	r2, [r4, #4]
 177              		.loc 2 47 0
 178 0078 2360     		str	r3, [r4]
 179              		.loc 2 49 0
 180 007a 5C60     		str	r4, [r3, #4]
 181 007c 1460     		str	r4, [r2]
 182              	.LBE37:
 183              	.LBE36:
 184              		.loc 1 174 0
 185 007e 2562     		str	r5, [r4, #32]
 186              		.loc 1 175 0
 187 0080 0420     		movs	r0, #4
 188              	.LBE29:
 189              		.loc 1 187 0
 190 0082 BDE87040 		pop	{r4, r5, r6, lr}
 191              		.cfi_remember_state
 192              		.cfi_restore 14
 193              		.cfi_restore 6
 194              		.cfi_restore 5
 195              		.cfi_restore 4
 196              		.cfi_def_cfa_offset 0
 197              	.LVL14:
 198              	.LBB42:
 199              		.loc 1 175 0
 200 0086 FFF7FEBF 		b	chSchGoSleepS
 201              	.LVL15:
 202              	.L6:
 203              		.cfi_restore_state
 204              	.LBB38:
 205              	.LBB39:
 206              		.loc 2 75 0
 207 008a 92E80A00 		ldmia	r2, {r1, r3}
 208 008e 1960     		str	r1, [r3]
 209              		.loc 2 76 0
 210 0090 1168     		ldr	r1, [r2]
 211              	.LBE39:
 212              	.LBE38:
 213              		.loc 1 167 0
 214 0092 1046     		mov	r0, r2
 215              	.LBB41:
 216              	.LBB40:
 217              		.loc 2 76 0
 218 0094 4B60     		str	r3, [r1, #4]
 219              	.LBE40:
 220              	.LBE41:
 221              		.loc 1 167 0
 222 0096 FFF7FEFF 		bl	chSchReadyI
 223              	.LVL16:
 224              		.loc 1 168 0
 225 009a E2E7     		b	.L5
 226              	.LVL17:
 227              	.L3:
 228              	.LBE42:
ARM GAS  /tmp/ccnBwL80.s 			page 5


 229              		.loc 1 184 0
 230 009c A36B     		ldr	r3, [r4, #56]
 231 009e C360     		str	r3, [r0, #12]
 232              		.loc 1 183 0
 233 00a0 8460     		str	r4, [r0, #8]
 234              		.loc 1 185 0
 235 00a2 A063     		str	r0, [r4, #56]
 236 00a4 70BD     		pop	{r4, r5, r6, pc}
 237              	.LVL18:
 238              	.L22:
 239 00a6 00BF     		.align	2
 240              	.L21:
 241 00a8 00000000 		.word	rlist
 242              		.cfi_endproc
 243              	.LFE9:
 244              		.size	chMtxLockS, .-chMtxLockS
 245              		.align	2
 246 00ac AFF30080 		.p2align 4,,15
 247              		.global	chMtxLock
 248              		.thumb
 249              		.thumb_func
 250              		.type	chMtxLock, %function
 251              	chMtxLock:
 252              	.LFB8:
 253              		.loc 1 103 0
 254              		.cfi_startproc
 255              		@ args = 0, pretend = 0, frame = 0
 256              		@ frame_needed = 0, uses_anonymous_args = 0
 257              	.LVL19:
 258 00b0 08B5     		push	{r3, lr}
 259              		.cfi_def_cfa_offset 8
 260              		.cfi_offset 3, -8
 261              		.cfi_offset 14, -4
 262              	.LBB43:
 263              		.loc 1 105 0
 264 00b2 2023     		movs	r3, #32
 265              	@ 105 "/d_drive/axoloti/platform_linux/../chibios/os/kernel/src/chmtx.c" 1
 266 00b4 83F31188 		msr     BASEPRI, r3
 267              	@ 0 "" 2
 268              		.thumb
 269              	.LBE43:
 270              		.loc 1 107 0
 271 00b8 FFF7FEFF 		bl	chMtxLockS
 272              	.LVL20:
 273              	.LBB44:
 274              		.loc 1 109 0
 275 00bc 0023     		movs	r3, #0
 276              	@ 109 "/d_drive/axoloti/platform_linux/../chibios/os/kernel/src/chmtx.c" 1
 277 00be 83F31188 		msr     BASEPRI, r3
 278              	@ 0 "" 2
 279              		.thumb
 280 00c2 08BD     		pop	{r3, pc}
 281              	.LBE44:
 282              		.cfi_endproc
 283              	.LFE8:
 284              		.size	chMtxLock, .-chMtxLock
 285              		.align	2
ARM GAS  /tmp/ccnBwL80.s 			page 6


 286 00c4 AFF30080 		.p2align 4,,15
 286      AFF30080 
 286      AFF30080 
 287              		.global	chMtxTryLock
 288              		.thumb
 289              		.thumb_func
 290              		.type	chMtxTryLock, %function
 291              	chMtxTryLock:
 292              	.LFB10:
 293              		.loc 1 206 0
 294              		.cfi_startproc
 295              		@ args = 0, pretend = 0, frame = 0
 296              		@ frame_needed = 0, uses_anonymous_args = 0
 297              		@ link register save eliminated.
 298              	.LVL21:
 299              		.loc 1 206 0
 300 00d0 0246     		mov	r2, r0
 301              	.LBB51:
 302              		.loc 1 209 0
 303 00d2 2023     		movs	r3, #32
 304              	@ 209 "/d_drive/axoloti/platform_linux/../chibios/os/kernel/src/chmtx.c" 1
 305 00d4 83F31188 		msr     BASEPRI, r3
 306              	@ 0 "" 2
 307              	.LVL22:
 308              		.thumb
 309              	.LBE51:
 310              	.LBB52:
 311              	.LBB53:
 312              		.loc 1 239 0
 313 00d8 8368     		ldr	r3, [r0, #8]
 314              		.loc 1 240 0
 315 00da 0020     		movs	r0, #0
 316              	.LVL23:
 317              		.loc 1 239 0
 318 00dc 1BB1     		cbz	r3, .L28
 319              	.LBE53:
 320              	.LBE52:
 321              	.LBB57:
 322              		.loc 1 213 0
 323 00de 0023     		movs	r3, #0
 324              	@ 213 "/d_drive/axoloti/platform_linux/../chibios/os/kernel/src/chmtx.c" 1
 325 00e0 83F31188 		msr     BASEPRI, r3
 326              	@ 0 "" 2
 327              		.thumb
 328              	.LBE57:
 329              		.loc 1 215 0
 330 00e4 7047     		bx	lr
 331              	.L28:
 332              	.LVL24:
 333              	.LBB58:
 334              	.LBB56:
 335              	.LBB54:
 336              	.LBB55:
 337              		.loc 1 241 0
 338 00e6 054B     		ldr	r3, .L29
 339 00e8 9B69     		ldr	r3, [r3, #24]
 340 00ea 9360     		str	r3, [r2, #8]
ARM GAS  /tmp/ccnBwL80.s 			page 7


 341              		.loc 1 242 0
 342 00ec 996B     		ldr	r1, [r3, #56]
 343 00ee D160     		str	r1, [r2, #12]
 344              		.loc 1 243 0
 345 00f0 0120     		movs	r0, #1
 346 00f2 9A63     		str	r2, [r3, #56]
 347              	.LBE55:
 348              	.LBE54:
 349              	.LBE56:
 350              	.LBE58:
 351              	.LBB59:
 352              		.loc 1 213 0
 353 00f4 0023     		movs	r3, #0
 354              	@ 213 "/d_drive/axoloti/platform_linux/../chibios/os/kernel/src/chmtx.c" 1
 355 00f6 83F31188 		msr     BASEPRI, r3
 356              	@ 0 "" 2
 357              		.thumb
 358              	.LBE59:
 359              		.loc 1 215 0
 360 00fa 7047     		bx	lr
 361              	.L30:
 362              		.align	2
 363              	.L29:
 364 00fc 00000000 		.word	rlist
 365              		.cfi_endproc
 366              	.LFE10:
 367              		.size	chMtxTryLock, .-chMtxTryLock
 368              		.align	2
 369              		.p2align 4,,15
 370              		.global	chMtxTryLockS
 371              		.thumb
 372              		.thumb_func
 373              		.type	chMtxTryLockS, %function
 374              	chMtxTryLockS:
 375              	.LFB11:
 376              		.loc 1 234 0
 377              		.cfi_startproc
 378              		@ args = 0, pretend = 0, frame = 0
 379              		@ frame_needed = 0, uses_anonymous_args = 0
 380              		@ link register save eliminated.
 381              	.LVL25:
 382              		.loc 1 239 0
 383 0100 8268     		ldr	r2, [r0, #8]
 384              		.loc 1 234 0
 385 0102 0346     		mov	r3, r0
 386              		.loc 1 239 0
 387 0104 0AB1     		cbz	r2, .L34
 388              		.loc 1 240 0
 389 0106 0020     		movs	r0, #0
 390              	.LVL26:
 391              		.loc 1 245 0
 392 0108 7047     		bx	lr
 393              	.LVL27:
 394              	.L34:
 395              	.LBB62:
 396              	.LBB63:
 397              		.loc 1 241 0
ARM GAS  /tmp/ccnBwL80.s 			page 8


 398 010a 044A     		ldr	r2, .L35
 399 010c 9269     		ldr	r2, [r2, #24]
 400 010e 8260     		str	r2, [r0, #8]
 401              		.loc 1 242 0
 402 0110 916B     		ldr	r1, [r2, #56]
 403 0112 C160     		str	r1, [r0, #12]
 404              		.loc 1 243 0
 405 0114 0120     		movs	r0, #1
 406              	.LVL28:
 407 0116 9363     		str	r3, [r2, #56]
 408 0118 7047     		bx	lr
 409              	.L36:
 410 011a 00BF     		.align	2
 411              	.L35:
 412 011c 00000000 		.word	rlist
 413              	.LBE63:
 414              	.LBE62:
 415              		.cfi_endproc
 416              	.LFE11:
 417              		.size	chMtxTryLockS, .-chMtxTryLockS
 418              		.align	2
 419              		.p2align 4,,15
 420              		.global	chMtxUnlock
 421              		.thumb
 422              		.thumb_func
 423              		.type	chMtxUnlock, %function
 424              	chMtxUnlock:
 425              	.LFB12:
 426              		.loc 1 257 0
 427              		.cfi_startproc
 428              		@ args = 0, pretend = 0, frame = 0
 429              		@ frame_needed = 0, uses_anonymous_args = 0
 430              		.loc 1 258 0
 431 0120 174A     		ldr	r2, .L48
 432              		.loc 1 257 0
 433 0122 38B5     		push	{r3, r4, r5, lr}
 434              		.cfi_def_cfa_offset 16
 435              		.cfi_offset 3, -16
 436              		.cfi_offset 4, -12
 437              		.cfi_offset 5, -8
 438              		.cfi_offset 14, -4
 439              		.loc 1 258 0
 440 0124 9069     		ldr	r0, [r2, #24]
 441              	.LVL29:
 442              	.LBB64:
 443              		.loc 1 261 0
 444 0126 2023     		movs	r3, #32
 445              	@ 261 "/d_drive/axoloti/platform_linux/../chibios/os/kernel/src/chmtx.c" 1
 446 0128 83F31188 		msr     BASEPRI, r3
 447              	@ 0 "" 2
 448              		.thumb
 449              	.LBE64:
 450              		.loc 1 270 0
 451 012c 846B     		ldr	r4, [r0, #56]
 452              	.LVL30:
 453              		.loc 1 273 0
 454 012e 2568     		ldr	r5, [r4]
ARM GAS  /tmp/ccnBwL80.s 			page 9


 455              		.loc 1 271 0
 456 0130 E368     		ldr	r3, [r4, #12]
 457 0132 8363     		str	r3, [r0, #56]
 458              		.loc 1 273 0
 459 0134 A542     		cmp	r5, r4
 460 0136 1CD0     		beq	.L38
 461              	.LBB65:
 462              		.loc 1 278 0
 463 0138 C16B     		ldr	r1, [r0, #60]
 464              	.LVL31:
 465              		.loc 1 280 0
 466 013a 4BB1     		cbz	r3, .L39
 467              	.L41:
 468              		.loc 1 284 0
 469 013c 1A68     		ldr	r2, [r3]
 470 013e 9A42     		cmp	r2, r3
 471 0140 03D0     		beq	.L40
 472              		.loc 1 284 0 is_stmt 0 discriminator 1
 473 0142 9268     		ldr	r2, [r2, #8]
 474 0144 9142     		cmp	r1, r2
 475 0146 38BF     		it	cc
 476 0148 1146     		movcc	r1, r2
 477              	.LVL32:
 478              	.L40:
 479              		.loc 1 286 0 is_stmt 1
 480 014a DB68     		ldr	r3, [r3, #12]
 481              	.LVL33:
 482              		.loc 1 280 0
 483 014c 002B     		cmp	r3, #0
 484 014e F5D1     		bne	.L41
 485              	.L39:
 486              	.LBB66:
 487              	.LBB67:
 488              		.loc 2 62 0
 489 0150 2B68     		ldr	r3, [r5]
 490              	.LVL34:
 491              	.LBE67:
 492              	.LBE66:
 493              		.loc 1 295 0
 494 0152 AA6B     		ldr	r2, [r5, #56]
 495              		.loc 1 290 0
 496 0154 8160     		str	r1, [r0, #8]
 497              	.LVL35:
 498              	.LBB70:
 499              	.LBB68:
 500              		.loc 2 62 0
 501 0156 2360     		str	r3, [r4]
 502              	.LBE68:
 503              	.LBE70:
 504              		.loc 1 297 0
 505 0158 2846     		mov	r0, r5
 506              	.LVL36:
 507              	.LBB71:
 508              	.LBB69:
 509              		.loc 2 62 0
 510 015a 5C60     		str	r4, [r3, #4]
 511              	.LBE69:
ARM GAS  /tmp/ccnBwL80.s 			page 10


 512              	.LBE71:
 513              		.loc 1 297 0
 514 015c 0021     		movs	r1, #0
 515              	.LVL37:
 516              		.loc 1 294 0
 517 015e A560     		str	r5, [r4, #8]
 518              		.loc 1 295 0
 519 0160 E260     		str	r2, [r4, #12]
 520              		.loc 1 296 0
 521 0162 AC63     		str	r4, [r5, #56]
 522              		.loc 1 297 0
 523 0164 FFF7FEFF 		bl	chSchWakeupS
 524              	.LVL38:
 525              	.LBE65:
 526              	.LBB72:
 527              		.loc 1 301 0
 528 0168 0023     		movs	r3, #0
 529              	@ 301 "/d_drive/axoloti/platform_linux/../chibios/os/kernel/src/chmtx.c" 1
 530 016a 83F31188 		msr     BASEPRI, r3
 531              	@ 0 "" 2
 532              		.thumb
 533              	.LBE72:
 534              		.loc 1 303 0
 535 016e 2046     		mov	r0, r4
 536 0170 38BD     		pop	{r3, r4, r5, pc}
 537              	.LVL39:
 538              	.L38:
 539              		.loc 1 300 0
 540 0172 0023     		movs	r3, #0
 541 0174 A360     		str	r3, [r4, #8]
 542              	.LBB73:
 543              		.loc 1 301 0
 544 0176 0023     		movs	r3, #0
 545              	@ 301 "/d_drive/axoloti/platform_linux/../chibios/os/kernel/src/chmtx.c" 1
 546 0178 83F31188 		msr     BASEPRI, r3
 547              	@ 0 "" 2
 548              		.thumb
 549              	.LBE73:
 550              		.loc 1 303 0
 551 017c 2046     		mov	r0, r4
 552              	.LVL40:
 553 017e 38BD     		pop	{r3, r4, r5, pc}
 554              	.LVL41:
 555              	.L49:
 556              		.align	2
 557              	.L48:
 558 0180 00000000 		.word	rlist
 559              		.cfi_endproc
 560              	.LFE12:
 561              		.size	chMtxUnlock, .-chMtxUnlock
 562              		.align	2
 563 0184 AFF30080 		.p2align 4,,15
 563      AFF30080 
 563      AFF30080 
 564              		.global	chMtxUnlockS
 565              		.thumb
 566              		.thumb_func
ARM GAS  /tmp/ccnBwL80.s 			page 11


 567              		.type	chMtxUnlockS, %function
 568              	chMtxUnlockS:
 569              	.LFB13:
 570              		.loc 1 317 0
 571              		.cfi_startproc
 572              		@ args = 0, pretend = 0, frame = 0
 573              		@ frame_needed = 0, uses_anonymous_args = 0
 574 0190 38B5     		push	{r3, r4, r5, lr}
 575              		.cfi_def_cfa_offset 16
 576              		.cfi_offset 3, -16
 577              		.cfi_offset 4, -12
 578              		.cfi_offset 5, -8
 579              		.cfi_offset 14, -4
 580              		.loc 1 318 0
 581 0192 124B     		ldr	r3, .L61
 582 0194 9869     		ldr	r0, [r3, #24]
 583              	.LVL42:
 584              		.loc 1 331 0
 585 0196 846B     		ldr	r4, [r0, #56]
 586              	.LVL43:
 587              		.loc 1 334 0
 588 0198 2568     		ldr	r5, [r4]
 589              		.loc 1 332 0
 590 019a E368     		ldr	r3, [r4, #12]
 591 019c 8363     		str	r3, [r0, #56]
 592              		.loc 1 334 0
 593 019e A542     		cmp	r5, r4
 594 01a0 18D0     		beq	.L51
 595              	.LBB74:
 596              		.loc 1 339 0
 597 01a2 C16B     		ldr	r1, [r0, #60]
 598              	.LVL44:
 599              		.loc 1 341 0
 600 01a4 4BB1     		cbz	r3, .L52
 601              	.L54:
 602              		.loc 1 345 0
 603 01a6 1A68     		ldr	r2, [r3]
 604 01a8 9A42     		cmp	r2, r3
 605 01aa 03D0     		beq	.L53
 606              		.loc 1 345 0 is_stmt 0 discriminator 1
 607 01ac 9268     		ldr	r2, [r2, #8]
 608 01ae 9142     		cmp	r1, r2
 609 01b0 38BF     		it	cc
 610 01b2 1146     		movcc	r1, r2
 611              	.LVL45:
 612              	.L53:
 613              		.loc 1 347 0 is_stmt 1
 614 01b4 DB68     		ldr	r3, [r3, #12]
 615              	.LVL46:
 616              		.loc 1 341 0
 617 01b6 002B     		cmp	r3, #0
 618 01b8 F5D1     		bne	.L54
 619              	.L52:
 620              	.LBB75:
 621              	.LBB76:
 622              		.loc 2 62 0
 623 01ba 2B68     		ldr	r3, [r5]
ARM GAS  /tmp/ccnBwL80.s 			page 12


 624              	.LVL47:
 625              	.LBE76:
 626              	.LBE75:
 627              		.loc 1 354 0
 628 01bc AA6B     		ldr	r2, [r5, #56]
 629              		.loc 1 349 0
 630 01be 8160     		str	r1, [r0, #8]
 631              	.LVL48:
 632              	.LBB79:
 633              	.LBB77:
 634              		.loc 2 62 0
 635 01c0 2360     		str	r3, [r4]
 636              	.LBE77:
 637              	.LBE79:
 638              		.loc 1 356 0
 639 01c2 2846     		mov	r0, r5
 640              	.LVL49:
 641              	.LBB80:
 642              	.LBB78:
 643              		.loc 2 62 0
 644 01c4 5C60     		str	r4, [r3, #4]
 645              	.LBE78:
 646              	.LBE80:
 647              		.loc 1 353 0
 648 01c6 A560     		str	r5, [r4, #8]
 649              		.loc 1 354 0
 650 01c8 E260     		str	r2, [r4, #12]
 651              		.loc 1 355 0
 652 01ca AC63     		str	r4, [r5, #56]
 653              		.loc 1 356 0
 654 01cc FFF7FEFF 		bl	chSchReadyI
 655              	.LVL50:
 656              	.LBE74:
 657              		.loc 1 361 0
 658 01d0 2046     		mov	r0, r4
 659 01d2 38BD     		pop	{r3, r4, r5, pc}
 660              	.LVL51:
 661              	.L51:
 662              		.loc 1 359 0
 663 01d4 0023     		movs	r3, #0
 664 01d6 A360     		str	r3, [r4, #8]
 665              		.loc 1 361 0
 666 01d8 2046     		mov	r0, r4
 667              	.LVL52:
 668 01da 38BD     		pop	{r3, r4, r5, pc}
 669              	.LVL53:
 670              	.L62:
 671              		.align	2
 672              	.L61:
 673 01dc 00000000 		.word	rlist
 674              		.cfi_endproc
 675              	.LFE13:
 676              		.size	chMtxUnlockS, .-chMtxUnlockS
 677              		.align	2
 678              		.p2align 4,,15
 679              		.global	chMtxUnlockAll
 680              		.thumb
ARM GAS  /tmp/ccnBwL80.s 			page 13


 681              		.thumb_func
 682              		.type	chMtxUnlockAll, %function
 683              	chMtxUnlockAll:
 684              	.LFB14:
 685              		.loc 1 374 0
 686              		.cfi_startproc
 687              		@ args = 0, pretend = 0, frame = 0
 688              		@ frame_needed = 0, uses_anonymous_args = 0
 689              		.loc 1 375 0
 690 01e0 134A     		ldr	r2, .L75
 691              		.loc 1 374 0
 692 01e2 70B5     		push	{r4, r5, r6, lr}
 693              		.cfi_def_cfa_offset 16
 694              		.cfi_offset 4, -16
 695              		.cfi_offset 5, -12
 696              		.cfi_offset 6, -8
 697              		.cfi_offset 14, -4
 698              	.LBB81:
 699              		.loc 1 377 0
 700 01e4 2023     		movs	r3, #32
 701              	.LBE81:
 702              		.loc 1 375 0
 703 01e6 9469     		ldr	r4, [r2, #24]
 704              	.LVL54:
 705              	.LBB82:
 706              		.loc 1 377 0
 707              	@ 377 "/d_drive/axoloti/platform_linux/../chibios/os/kernel/src/chmtx.c" 1
 708 01e8 83F31188 		msr     BASEPRI, r3
 709              	@ 0 "" 2
 710              		.thumb
 711              	.LBE82:
 712              		.loc 1 378 0
 713 01ec A36B     		ldr	r3, [r4, #56]
 714 01ee D3B1     		cbz	r3, .L64
 715              	.LBB83:
 716              		.loc 1 390 0
 717 01f0 0026     		movs	r6, #0
 718 01f2 0AE0     		b	.L67
 719              	.LVL55:
 720              	.L74:
 721              	.LBB84:
 722              	.LBB85:
 723              	.LBB86:
 724              		.loc 2 62 0
 725 01f4 1168     		ldr	r1, [r2]
 726              	.LBE86:
 727              	.LBE85:
 728              		.loc 1 385 0
 729 01f6 956B     		ldr	r5, [r2, #56]
 730              	.LBB88:
 731              	.LBB87:
 732              		.loc 2 62 0
 733 01f8 1960     		str	r1, [r3]
 734 01fa 4B60     		str	r3, [r1, #4]
 735              	.LBE87:
 736              	.LBE88:
 737              		.loc 1 384 0
ARM GAS  /tmp/ccnBwL80.s 			page 14


 738 01fc 9A60     		str	r2, [r3, #8]
 739              		.loc 1 385 0
 740 01fe DD60     		str	r5, [r3, #12]
 741              		.loc 1 386 0
 742 0200 9363     		str	r3, [r2, #56]
 743              		.loc 1 387 0
 744 0202 FFF7FEFF 		bl	chSchReadyI
 745              	.LVL56:
 746              	.LBE84:
 747              	.LBE83:
 748              		.loc 1 391 0
 749 0206 A36B     		ldr	r3, [r4, #56]
 750 0208 4BB1     		cbz	r3, .L73
 751              	.L67:
 752              	.LVL57:
 753              	.LBB90:
 754              		.loc 1 382 0
 755 020a 1A68     		ldr	r2, [r3]
 756              	.LVL58:
 757              		.loc 1 381 0
 758 020c D968     		ldr	r1, [r3, #12]
 759 020e A163     		str	r1, [r4, #56]
 760              		.loc 1 382 0
 761 0210 9A42     		cmp	r2, r3
 762              	.LBB89:
 763              		.loc 1 387 0
 764 0212 1046     		mov	r0, r2
 765              	.LBE89:
 766              		.loc 1 382 0
 767 0214 EED1     		bne	.L74
 768              		.loc 1 390 0
 769 0216 9E60     		str	r6, [r3, #8]
 770              	.LBE90:
 771              		.loc 1 391 0
 772 0218 A36B     		ldr	r3, [r4, #56]
 773              	.LVL59:
 774 021a 002B     		cmp	r3, #0
 775 021c F5D1     		bne	.L67
 776              	.LVL60:
 777              	.L73:
 778              		.loc 1 392 0
 779 021e E36B     		ldr	r3, [r4, #60]
 780 0220 A360     		str	r3, [r4, #8]
 781              		.loc 1 393 0
 782 0222 FFF7FEFF 		bl	chSchRescheduleS
 783              	.LVL61:
 784              	.L64:
 785              	.LBB91:
 786              		.loc 1 395 0
 787 0226 0023     		movs	r3, #0
 788              	@ 395 "/d_drive/axoloti/platform_linux/../chibios/os/kernel/src/chmtx.c" 1
 789 0228 83F31188 		msr     BASEPRI, r3
 790              	@ 0 "" 2
 791              		.thumb
 792 022c 70BD     		pop	{r4, r5, r6, pc}
 793              	.LVL62:
 794              	.L76:
ARM GAS  /tmp/ccnBwL80.s 			page 15


 795 022e 00BF     		.align	2
 796              	.L75:
 797 0230 00000000 		.word	rlist
 798              	.LBE91:
 799              		.cfi_endproc
 800              	.LFE14:
 801              		.size	chMtxUnlockAll, .-chMtxUnlockAll
 802              	.Letext0:
 803              		.file 3 "/d_drive/axoloti/platform_linux/arm-none-eabi/include/machine/_default_types.h"
 804              		.file 4 "/d_drive/axoloti/platform_linux/arm-none-eabi/include/sys/_stdint.h"
 805              		.file 5 "/d_drive/axoloti/platform_linux/../chibios/os/ports/GCC/ARMCMx/chtypes.h"
 806              		.file 6 "/d_drive/axoloti/platform_linux/../chibios/os/kernel/include/chlists.h"
 807              		.file 7 "/d_drive/axoloti/platform_linux/../chibios/os/kernel/include/chthreads.h"
 808              		.file 8 "/d_drive/axoloti/platform_linux/../chibios/os/ports/GCC/ARMCMx/chcore_v7m.h"
 809              		.file 9 "/d_drive/axoloti/platform_linux/../chibios/os/kernel/include/chschd.h"
 810              		.file 10 "/d_drive/axoloti/platform_linux/../chibios/os/kernel/include/chmtx.h"