ARM GAS  /tmp/ccnBwL80.s 			page 1


   1              		.syntax unified
   2              		.cpu cortex-m4
   3              		.eabi_attribute 27, 1
   4              		.eabi_attribute 28, 1
   5              		.fpu fpv4-sp-d16
   6              		.eabi_attribute 20, 1
   7              		.eabi_attribute 21, 1
   8              		.eabi_attribute 23, 3
   9              		.eabi_attribute 24, 1
  10              		.eabi_attribute 25, 1
  11              		.eabi_attribute 26, 1
  12              		.eabi_attribute 30, 2
  13              		.eabi_attribute 34, 1
  14              		.eabi_attribute 18, 4
  15              		.thumb
  16              		.file	"chmtx.c"
  17              		.text
  18              	.Ltext0:
  19              		.cfi_sections	.debug_frame
  20              		.align	2
  21              		.p2align 4,,15
  22              		.global	chMtxInit
  23              		.thumb
  24              		.thumb_func
  25              		.type	chMtxInit, %function
  26              	chMtxInit:
  27              	.LFB7:
  28              		.file 1 "/d_drive/axoloti/platform_linux/../chibios/os/kernel/src/chmtx.c"
  29              		.loc 1 86 0
  30              		.cfi_startproc
  31              		@ args = 0, pretend = 0, frame = 0
  32              		@ frame_needed = 0, uses_anonymous_args = 0
  33              		@ link register save eliminated.
  34              	.LVL0:
  35              		.loc 1 91 0
  36 0000 0023     		movs	r3, #0
  37              		.loc 1 90 0
  38 0002 4060     		str	r0, [r0, #4]
  39 0004 0060     		str	r0, [r0]
  40              		.loc 1 91 0
  41 0006 8360     		str	r3, [r0, #8]
  42 0008 7047     		bx	lr
  43              		.cfi_endproc
  44              	.LFE7:
  45              		.size	chMtxInit, .-chMtxInit
  46 000a 00BF     		.align	2
  47 000c AFF30080 		.p2align 4,,15
  48              		.global	chMtxLockS
  49              		.thumb
  50              		.thumb_func
  51              		.type	chMtxLockS, %function
  52              	chMtxLockS:
  53              	.LFB9:
  54              		.loc 1 121 0
  55              		.cfi_startproc
  56              		@ args = 0, pretend = 0, frame = 0
  57              		@ frame_needed = 0, uses_anonymous_args = 0
ARM GAS  /tmp/ccnBwL80.s 			page 2


  58              	.LVL1:
  59              		.loc 1 122 0
  60 0010 254B     		ldr	r3, .L21
  61              		.loc 1 128 0
  62 0012 8268     		ldr	r2, [r0, #8]
  63              		.loc 1 121 0
  64 0014 70B5     		push	{r4, r5, r6, lr}
  65              		.cfi_def_cfa_offset 16
  66              		.cfi_offset 4, -16
  67              		.cfi_offset 5, -12
  68              		.cfi_offset 6, -8
  69              		.cfi_offset 14, -4
  70              		.loc 1 122 0
  71 0016 9C69     		ldr	r4, [r3, #24]
  72              	.LVL2:
  73              		.loc 1 128 0
  74 0018 002A     		cmp	r2, #0
  75 001a 3FD0     		beq	.L3
  76 001c 0546     		mov	r5, r0
  77              	.LVL3:
  78              	.LBB29:
  79              		.loc 1 135 0
  80 001e 9368     		ldr	r3, [r2, #8]
  81 0020 A068     		ldr	r0, [r4, #8]
  82              	.LVL4:
  83 0022 9842     		cmp	r0, r3
  84 0024 1DD9     		bls	.L5
  85              	.L9:
  86              		.loc 1 139 0
  87 0026 137F     		ldrb	r3, [r2, #28]	@ zero_extendqisi2
  88              		.loc 1 137 0
  89 0028 9060     		str	r0, [r2, #8]
  90              		.loc 1 139 0
  91 002a 002B     		cmp	r3, #0
  92 002c 2DD0     		beq	.L6
  93 002e 042B     		cmp	r3, #4
  94 0030 17D1     		bne	.L5
  95              	.LVL5:
  96              	.LBB30:
  97              	.LBB31:
  98              		.file 2 "/d_drive/axoloti/platform_linux/../chibios/os/kernel/include/chinline.h"
  99              		.loc 2 75 0
 100 0032 92E80A00 		ldmia	r2, {r1, r3}
 101 0036 1960     		str	r1, [r3]
 102              	.LBE31:
 103              	.LBE30:
 104              		.loc 1 142 0
 105 0038 166A     		ldr	r6, [r2, #32]
 106              	.LVL6:
 107              	.LBB33:
 108              	.LBB32:
 109              		.loc 2 76 0
 110 003a 1168     		ldr	r1, [r2]
 111 003c 4B60     		str	r3, [r1, #4]
 112              	.LBE32:
 113              	.LBE33:
 114              		.loc 1 142 0
ARM GAS  /tmp/ccnBwL80.s 			page 3


 115 003e 3346     		mov	r3, r6
 116 0040 02E0     		b	.L11
 117              	.LVL7:
 118              	.L8:
 119              	.LBB34:
 120              	.LBB35:
 121              		.loc 2 46 0
 122 0042 9968     		ldr	r1, [r3, #8]
 123 0044 8142     		cmp	r1, r0
 124 0046 02D3     		bcc	.L12
 125              	.L11:
 126              		.loc 2 45 0
 127 0048 1B68     		ldr	r3, [r3]
 128              	.LVL8:
 129              		.loc 2 46 0
 130 004a 9E42     		cmp	r6, r3
 131 004c F9D1     		bne	.L8
 132              	.L12:
 133              		.loc 2 48 0
 134 004e 5968     		ldr	r1, [r3, #4]
 135 0050 5160     		str	r1, [r2, #4]
 136              		.loc 2 47 0
 137 0052 1360     		str	r3, [r2]
 138              		.loc 2 49 0
 139 0054 5A60     		str	r2, [r3, #4]
 140 0056 0A60     		str	r2, [r1]
 141              	.LBE35:
 142              	.LBE34:
 143              		.loc 1 143 0
 144 0058 B268     		ldr	r2, [r6, #8]
 145              	.LVL9:
 146              		.loc 1 135 0
 147 005a A068     		ldr	r0, [r4, #8]
 148 005c 9368     		ldr	r3, [r2, #8]
 149              	.LVL10:
 150 005e 8342     		cmp	r3, r0
 151 0060 E1D3     		bcc	.L9
 152              	.LVL11:
 153              	.L5:
 154              	.LBB36:
 155              	.LBB37:
 156              		.loc 2 43 0
 157 0062 2B46     		mov	r3, r5
 158 0064 03E0     		b	.L14
 159              	.LVL12:
 160              	.L13:
 161              		.loc 2 46 0
 162 0066 9968     		ldr	r1, [r3, #8]
 163 0068 A268     		ldr	r2, [r4, #8]
 164 006a 9142     		cmp	r1, r2
 165 006c 02D3     		bcc	.L15
 166              	.L14:
 167              		.loc 2 45 0
 168 006e 1B68     		ldr	r3, [r3]
 169              	.LVL13:
 170              		.loc 2 46 0
 171 0070 9D42     		cmp	r5, r3
ARM GAS  /tmp/ccnBwL80.s 			page 4


 172 0072 F8D1     		bne	.L13
 173              	.L15:
 174              		.loc 2 48 0
 175 0074 5A68     		ldr	r2, [r3, #4]
 176 0076 6260     		str	r2, [r4, #4]
 177              		.loc 2 47 0
 178 0078 2360     		str	r3, [r4]
 179              		.loc 2 49 0
 180 007a 5C60     		str	r4, [r3, #4]
 181 007c 1460     		str	r4, [r2]
 182              	.LBE37:
 183              	.LBE36:
 184              		.loc 1 174 0
 185 007e 2562     		str	r5, [r4, #32]
 186              		.loc 1 175 0
 187 0080 0420     		movs	r0, #4
 188              	.LBE29:
 189              		.loc 1 187 0
 190 0082 BDE87040 		pop	{r4, r5, r6, lr}
 191              		.cfi_remember_state
 192              		.cfi_restore 14
 193              		.cfi_restore 6
 194              		.cfi_restore 5
 195              		.cfi_restore 4
 196              		.cfi_def_cfa_offset 0
 197              	.LVL14:
 198              	.LBB42:
 199              		.loc 1 175 0
 200 0086 FFF7FEBF 		b	chSchGoSleepS
 201              	.LVL15:
 202              	.L6:
 203              		.cfi_restore_state
 204              	.LBB38:
 205              	.LBB39:
 206              		.loc 2 75 0
 207 008a 92E80A00 		ldmia	r2, {r1, r3}
 208 008e 1960     		str	r1, [r3]
 209              		.loc 2 76 0
 210 0090 1168     		ldr	r1, [r2]
 211              	.LBE39:
 212              	.LBE38:
 213              		.loc 1 167 0
 214 0092 1046     		mov	r0, r2
 215              	.LBB41:
 216              	.LBB40:
 217              		.loc 2 76 0
 218 0094 4B60     		str	r3, [r1, #4]
 219              	.LBE40:
 220              	.LBE41:
 221              		.loc 1 167 0
 222 0096 FFF7FEFF 		bl	chSchReadyI
 223              	.LVL16:
 224              		.loc 1 168 0
 225 009a E2E7     		b	.L5
 226              	.LVL17:
 227              	.L3:
 228              	.LBE42:
ARM GAS  /tmp/ccnBwL80.s 			page 5


 229              		.loc 1 184 0
 230 009c A36B     		ldr	r3, [r4, #56]
 231 009e C360     		str	r3, [r0, #12]
 232              		.loc 1 183 0
 233 00a0 8460     		str	r4, [r0, #8]
 234              		.loc 1 185 0
 235 00a2 A063     		str	r0, [r4, #56]
 236 00a4 70BD     		pop	{r4, r5, r6, pc}
 237              	.LVL18:
 238              	.L22:
 239 00a6 00BF     		.align	2
 240              	.L21:
 241 00a8 00000000 		.word	rlist
 242              		.cfi_endproc
 243              	.LFE9:
 244              		.size	chMtxLockS, .-chMtxLockS
 245              		.align	2
 246 00ac AFF30080 		.p2align 4,,15
 247              		.global	chMtxLock
 248              		.thumb
 249              		.thumb_func
 250              		.type	chMtxLock, %function
 251              	chMtxLock:
 252              	.LFB8:
 253              		.loc 1 103 0
 254              		.cfi_startproc
 255              		@ args = 0, pretend = 0, frame = 0
 256              		@ frame_needed = 0, uses_anonymous_args = 0
 257              	.LVL19:
 258 00b0 08B5     		push	{r3, lr}
 259              		.cfi_def_cfa_offset 8
 260              		.cfi_offset 3, -8
 261              		.cfi_offset 14, -4
 262              	.LBB43:
 263              		.loc 1 105 0
 264 00b2 2023     		movs	r3, #32
 265              	@ 105 "/d_drive/axoloti/platform_linux/../chibios/os/kernel/src/chmtx.c" 1
 266 00b4 83F31188 		msr     BASEPRI, r3
 267              	@ 0 "" 2
 268              		.thumb
 269              	.LBE43:
 270              		.loc 1 107 0
 271 00b8 FFF7FEFF 		bl	chMtxLockS
 272              	.LVL20:
 273              	.LBB44:
 274              		.loc 1 109 0
 275 00bc 0023     		movs	r3, #0
 276              	@ 109 "/d_drive/axoloti/platform_linux/../chibios/os/kernel/src/chmtx.c" 1
 277 00be 83F31188 		msr     BASEPRI, r3
 278              	@ 0 "" 2
 279              		.thumb
 280 00c2 08BD     		pop	{r3, pc}
 281              	.LBE44:
 282              		.cfi_endproc
 283              	.LFE8:
 284              		.size	chMtxLock, .-chMtxLock
 285              		.align	2
ARM GAS  /tmp/ccnBwL80.s 			page 6


 286 00c4 AFF30080 		.p2align 4,,15
 286      AFF30080 
 286      AFF30080 
 287              		.global	chMtxTryLock
 288              		.thumb
 289              		.thumb_func
 290              		.type	chMtxTryLock, %function
 291              	chMtxTryLock:
 292              	.LFB10:
 293              		.loc 1 206 0
 294              		.cfi_startproc
 295              		@ args = 0, pretend = 0, frame = 0
 296              		@ frame_needed = 0, uses_anonymous_args = 0
 297              		@ link register save eliminated.
 298              	.LVL21:
 299              		.loc 1 206 0
 300 00d0 0246     		mov	r2, r0
 301              	.LBB51:
 302              		.loc 1 209 0
 303 00d2 2023     		movs	r3, #32
 304              	@ 209 "/d_drive/axoloti/platform_linux/../chibios/os/kernel/src/chmtx.c" 1
 305 00d4 83F31188 		msr     BASEPRI, r3
 306              	@ 0 "" 2
 307              	.LVL22:
 308              		.thumb
 309              	.LBE51:
 310              	.LBB52:
 311              	.LBB53:
 312              		.loc 1 239 0
 313 00d8 8368     		ldr	r3, [r0, #8]
 314              		.loc 1 240 0
 315 00da 0020     		movs	r0, #0
 316              	.LVL23:
 317              		.loc 1 239 0
 318 00dc 1BB1     		cbz	r3, .L28
 319              	.LBE53:
 320              	.LBE52:
 321              	.LBB57:
 322              		.loc 1 213 0
 323 00de 0023     		movs	r3, #0
 324              	@ 213 "/d_drive/axoloti/platform_linux/../chibios/os/kernel/src/chmtx.c" 1
 325 00e0 83F31188 		msr     BASEPRI, r3
 326              	@ 0 "" 2
 327              		.thumb
 328              	.LBE57:
 329              		.loc 1 215 0
 330 00e4 7047     		bx	lr
 331              	.L28:
 332              	.LVL24:
 333              	.LBB58:
 334              	.LBB56:
 335              	.LBB54:
 336              	.LBB55:
 337              		.loc 1 241 0
 338 00e6 054B     		ldr	r3, .L29
 339 00e8 9B69     		ldr	r3, [r3, #24]
 340 00ea 9360     		str	r3, [r2, #8]
ARM GAS  /tmp/ccnBwL80.s 			page 7


 341              		.loc 1 242 0
 342 00ec 996B     		ldr	r1, [r3, #56]
 343 00ee D160     		str	r1, [r2, #12]
 344              		.loc 1 243 0
 345 00f0 0120     		movs	r0, #1
 346 00f2 9A63     		str	r2, [r3, #56]
 347              	.LBE55:
 348              	.LBE54:
 349              	.LBE56:
 350              	.LBE58:
 351              	.LBB59:
 352              		.loc 1 213 0
 353 00f4 0023     		movs	r3, #0
 354              	@ 213 "/d_drive/axoloti/platform_linux/../chibios/os/kernel/src/chmtx.c" 1
 355 00f6 83F31188 		msr     BASEPRI, r3
 356              	@ 0 "" 2
 357              		.thumb
 358              	.LBE59:
 359              		.loc 1 215 0
 360 00fa 7047     		bx	lr
 361              	.L30:
 362              		.align	2
 363              	.L29:
 364 00fc 00000000 		.word	rlist
 365              		.cfi_endproc
 366              	.LFE10:
 367              		.size	chMtxTryLock, .-chMtxTryLock
 368              		.align	2
 369              		.p2align 4,,15
 370              		.global	chMtxTryLockS
 371              		.thumb
 372              		.thumb_func
 373              		.type	chMtxTryLockS, %function
 374              	chMtxTryLockS:
 375              	.LFB11:
 376              		.loc 1 234 0
 377              		.cfi_startproc
 378              		@ args = 0, pretend = 0, frame = 0
 379              		@ frame_needed = 0, uses_anonymous_args = 0
 380              		@ link register save eliminated.
 381              	.LVL25:
 382              		.loc 1 239 0
 383 0100 8268     		ldr	r2, [r0, #8]
 384              		.loc 1 234 0
 385 0102 0346     		mov	r3, r0
 386              		.loc 1 239 0
 387 0104 0AB1     		cbz	r2, .L34
 388              		.loc 1 240 0
 389 0106 0020     		movs	r0, #0
 390              	.LVL26:
 391              		.loc 1 245 0
 392 0108 7047     		bx	lr
 393              	.LVL27:
 394              	.L34:
 395              	.LBB62:
 396              	.LBB63:
 397              		.loc 1 241 0
ARM GAS  /tmp/ccnBwL80.s 			page 8


 398 010a 044A     		ldr	r2, .L35
 399 010c 9269     		ldr	r2, [r2, #24]
 400 010e 8260     		str	r2, [r0, #8]
 401              		.loc 1 242 0
 402 0110 916B     		ldr	r1, [r2, #56]
 403 0112 C160     		str	r1, [r0, #12]
 404              		.loc 1 243 0
 405 0114 0120     		movs	r0, #1
 406              	.LVL28:
 407 0116 9363     		str	r3, [r2, #56]
 408 0118 7047     		bx	lr
 409              	.L36:
 410 011a 00BF     		.align	2
 411              	.L35:
 412 011c 00000000 		.word	rlist
 413              	.LBE63:
 414              	.LBE62:
 415              		.cfi_endproc
 416              	.LFE11:
 417              		.size	chMtxTryLockS, .-chMtxTryLockS
 418              		.align	2
 419              		.p2align 4,,15
 420              		.global	chMtxUnlock
 421              		.thumb
 422              		.thumb_func
 423              		.type	chMtxUnlock, %function
 424              	chMtxUnlock:
 425              	.LFB12:
 426              		.loc 1 257 0
 427              		.cfi_startproc
 428              		@ args = 0, pretend = 0, frame = 0
 429              		@ frame_needed = 0, uses_anonymous_args = 0
 430              		.loc 1 258 0
 431 0120 174A     		ldr	r2, .L48
 432              		.loc 1 257 0
 433 0122 38B5     		push	{r3, r4, r5, lr}
 434              		.cfi_def_cfa_offset 16
 435              		.cfi_offset 3, -16
 436              		.cfi_offset 4, -12
 437              		.cfi_offset 5, -8
 438              		.cfi_offset 14, -4
 439              		.loc 1 258 0
 440 0124 9069     		ldr	r0, [r2, #24]
 441              	.LVL29:
 442              	.LBB64:
 443              		.loc 1 261 0
 444 0126 2023     		movs	r3, #32
 445              	@ 261 "/d_drive/axoloti/platform_linux/../chibios/os/kernel/src/chmtx.c" 1
 446 0128 83F31188 		msr     BASEPRI, r3
 447              	@ 0 "" 2
 448              		.thumb
 449              	.LBE64:
 450              		.loc 1 270 0
 451 012c 846B     		ldr	r4, [r0, #56]
 452              	.LVL30:
 453              		.loc 1 273 0
 454 012e 2568     		ldr	r5, [r4]
ARM GAS  /tmp/ccnBwL80.s 			page 9


 455              		.loc 1 271 0
 456 0130 E368     		ldr	r3, [r4, #12]
 457 0132 8363     		str	r3, [r0, #56]
 458              		.loc 1 273 0
 459 0134 A542     		cmp	r5, r4
 460 0136 1CD0     		beq	.L38
 461              	.LBB65:
 462              		.loc 1 278 0
 463 0138 C16B     		ldr	r1, [r0, #60]
 464              	.LVL31:
 465              		.loc 1 280 0
 466 013a 4BB1     		cbz	r3, .L39
 467              	.L41:
 468              		.loc 1 284 0
 469 013c 1A68     		ldr	r2, [r3]
 470 013e 9A42     		cmp	r2, r3
 471 0140 03D0     		beq	.L40
 472              		.loc 1 284 0 is_stmt 0 discriminator 1
 473 0142 9268     		ldr	r2, [r2, #8]
 474 0144 9142     		cmp	r1, r2
 475 0146 38BF     		it	cc
 476 0148 1146     		movcc	r1, r2
 477              	.LVL32:
 478              	.L40:
 479              		.loc 1 286 0 is_stmt 1
 480 014a DB68     		ldr	r3, [r3, #12]
 481              	.LVL33:
 482              		.loc 1 280 0
 483 014c 002B     		cmp	r3, #0
 484 014e F5D1     		bne	.L41
 485              	.L39:
 486              	.LBB66:
 487              	.LBB67:
 488              		.loc 2 62 0
 489 0150 2B68     		ldr	r3, [r5]
 490              	.LVL34:
 491              	.LBE67:
 492              	.LBE66:
 493              		.loc 1 295 0
 494 0152 AA6B     		ldr	r2, [r5, #56]
 495              		.loc 1 290 0
 496 0154 8160     		str	r1, [r0, #8]
 497              	.LVL35:
 498              	.LBB70:
 499              	.LBB68:
 500              		.loc 2 62 0
 501 0156 2360     		str	r3, [r4]
 502              	.LBE68:
 503              	.LBE70:
 504              		.loc 1 297 0
 505 0158 2846     		mov	r0, r5
 506              	.LVL36:
 507              	.LBB71:
 508              	.LBB69:
 509              		.loc 2 62 0
 510 015a 5C60     		str	r4, [r3, #4]
 511              	.LBE69:
ARM GAS  /tmp/ccnBwL80.s 			page 10


 512              	.LBE71:
 513              		.loc 1 297 0
 514 015c 0021     		movs	r1, #0
 515              	.LVL37:
 516              		.loc 1 294 0
 517 015e A560     		str	r5, [r4, #8]
 518              		.loc 1 295 0
 519 0160 E260     		str	r2, [r4, #12]
 520              		.loc 1 296 0
 521 0162 AC63     		str	r4, [r5, #56]
 522              		.loc 1 297 0
 523 0164 FFF7FEFF 		bl	chSchWakeupS
 524              	.LVL38:
 525              	.LBE65:
 526              	.LBB72:
 527              		.loc 1 301 0
 528 0168 0023     		movs	r3, #0
 529              	@ 301 "/d_drive/axoloti/platform_linux/../chibios/os/kernel/src/chmtx.c" 1
 530 016a 83F31188 		msr     BASEPRI, r3
 531              	@ 0 "" 2
 532              		.thumb
 533              	.LBE72:
 534              		.loc 1 303 0
 535 016e 2046     		mov	r0, r4
 536 0170 38BD     		pop	{r3, r4, r5, pc}
 537              	.LVL39:
 538              	.L38:
 539              		.loc 1 300 0
 540 0172 0023     		movs	r3, #0
 541 0174 A360     		str	r3, [r4, #8]
 542              	.LBB73:
 543              		.loc 1 301 0
 544 0176 0023     		movs	r3, #0
 545              	@ 301 "/d_drive/axoloti/platform_linux/../chibios/os/kernel/src/chmtx.c" 1
 546 0178 83F31188 		msr     BASEPRI, r3
 547              	@ 0 "" 2
 548              		.thumb
 549              	.LBE73:
 550              		.loc 1 303 0
 551 017c 2046     		mov	r0, r4
 552              	.LVL40:
 553 017e 38BD     		pop	{r3, r4, r5, pc}
 554              	.LVL41:
 555              	.L49:
 556              		.align	2
 557              	.L48:
 558 0180 00000000 		.word	rlist
 559              		.cfi_endproc
 560              	.LFE12:
 561              		.size	chMtxUnlock, .-chMtxUnlock
 562              		.align	2
 563 0184 AFF30080 		.p2align 4,,15
 563      AFF30080 
 563      AFF30080 
 564              		.global	chMtxUnlockS
 565              		.thumb
 566              		.thumb_func
ARM GAS  /tmp/ccnBwL80.s 			page 11


 567              		.type	chMtxUnlockS, %function
 568              	chMtxUnlockS:
 569              	.LFB13:
 570              		.loc 1 317 0
 571              		.cfi_startproc
 572              		@ args = 0, pretend = 0, frame = 0
 573              		@ frame_needed = 0, uses_anonymous_args = 0
 574 0190 38B5     		push	{r3, r4, r5, lr}
 575              		.cfi_def_cfa_offset 16
 576              		.cfi_offset 3, -16
 577              		.cfi_offset 4, -12
 578              		.cfi_offset 5, -8
 579              		.cfi_offset 14, -4
 580              		.loc 1 318 0
 581 0192 124B     		ldr	r3, .L61
 582 0194 9869     		ldr	r0, [r3, #24]
 583              	.LVL42:
 584              		.loc 1 331 0
 585 0196 846B     		ldr	r4, [r0, #56]
 586              	.LVL43:
 587              		.loc 1 334 0
 588 0198 2568     		ldr	r5, [r4]
 589              		.loc 1 332 0
 590 019a E368     		ldr	r3, [r4, #12]
 591 019c 8363     		str	r3, [r0, #56]
 592              		.loc 1 334 0
 593 019e A542     		cmp	r5, r4
 594 01a0 18D0     		beq	.L51
 595              	.LBB74:
 596              		.loc 1 339 0
 597 01a2 C16B     		ldr	r1, [r0, #60]
 598              	.LVL44:
 599              		.loc 1 341 0
 600 01a4 4BB1     		cbz	r3, .L52
 601              	.L54:
 602              		.loc 1 345 0
 603 01a6 1A68     		ldr	r2, [r3]
 604 01a8 9A42     		cmp	r2, r3
 605 01aa 03D0     		beq	.L53
 606              		.loc 1 345 0 is_stmt 0 discriminator 1
 607 01ac 9268     		ldr	r2, [r2, #8]
 608 01ae 9142     		cmp	r1, r2
 609 01b0 38BF     		it	cc
 610 01b2 1146     		movcc	r1, r2
 611              	.LVL45:
 612              	.L53:
 613              		.loc 1 347 0 is_stmt 1
 614 01b4 DB68     		ldr	r3, [r3, #12]
 615              	.LVL46:
 616              		.loc 1 341 0
 617 01b6 002B     		cmp	r3, #0
 618 01b8 F5D1     		bne	.L54
 619              	.L52:
 620              	.LBB75:
 621              	.LBB76:
 622              		.loc 2 62 0
 623 01ba 2B68     		ldr	r3, [r5]
ARM GAS  /tmp/ccnBwL80.s 			page 12


 624              	.LVL47:
 625              	.LBE76:
 626              	.LBE75:
 627              		.loc 1 354 0
 628 01bc AA6B     		ldr	r2, [r5, #56]
 629              		.loc 1 349 0
 630 01be 8160     		str	r1, [r0, #8]
 631              	.LVL48:
 632              	.LBB79:
 633              	.LBB77:
 634              		.loc 2 62 0
 635 01c0 2360     		str	r3, [r4]
 636              	.LBE77:
 637              	.LBE79:
 638              		.loc 1 356 0
 639 01c2 2846     		mov	r0, r5
 640              	.LVL49:
 641              	.LBB80:
 642              	.LBB78:
 643              		.loc 2 62 0
 644 01c4 5C60     		str	r4, [r3, #4]
 645              	.LBE78:
 646              	.LBE80:
 647              		.loc 1 353 0
 648 01c6 A560     		str	r5, [r4, #8]
 649              		.loc 1 354 0
 650 01c8 E260     		str	r2, [r4, #12]
 651              		.loc 1 355 0
 652 01ca AC63     		str	r4, [r5, #56]
 653              		.loc 1 356 0
 654 01cc FFF7FEFF 		bl	chSchReadyI
 655              	.LVL50:
 656              	.LBE74:
 657              		.loc 1 361 0
 658 01d0 2046     		mov	r0, r4
 659 01d2 38BD     		pop	{r3, r4, r5, pc}
 660              	.LVL51:
 661              	.L51:
 662              		.loc 1 359 0
 663 01d4 0023     		movs	r3, #0
 664 01d6 A360     		str	r3, [r4, #8]
 665              		.loc 1 361 0
 666 01d8 2046     		mov	r0, r4
 667              	.LVL52:
 668 01da 38BD     		pop	{r3, r4, r5, pc}
 669              	.LVL53:
 670              	.L62:
 671              		.align	2
 672              	.L61:
 673 01dc 00000000 		.word	rlist
 674              		.cfi_endproc
 675              	.LFE13:
 676              		.size	chMtxUnlockS, .-chMtxUnlockS
 677              		.align	2
 678              		.p2align 4,,15
 679              		.global	chMtxUnlockAll
 680              		.thumb
ARM GAS  /tmp/ccnBwL80.s 			page 13


 681              		.thumb_func
 682              		.type	chMtxUnlockAll, %function
 683              	chMtxUnlockAll:
 684              	.LFB14:
 685              		.loc 1 374 0
 686              		.cfi_startproc
 687              		@ args = 0, pretend = 0, frame = 0
 688              		@ frame_needed = 0, uses_anonymous_args = 0
 689              		.loc 1 375 0
 690 01e0 134A     		ldr	r2, .L75
 691              		.loc 1 374 0
 692 01e2 70B5     		push	{r4, r5, r6, lr}
 693              		.cfi_def_cfa_offset 16
 694              		.cfi_offset 4, -16
 695              		.cfi_offset 5, -12
 696              		.cfi_offset 6, -8
 697              		.cfi_offset 14, -4
 698              	.LBB81:
 699              		.loc 1 377 0
 700 01e4 2023     		movs	r3, #32
 701              	.LBE81:
 702              		.loc 1 375 0
 703 01e6 9469     		ldr	r4, [r2, #24]
 704              	.LVL54:
 705              	.LBB82:
 706              		.loc 1 377 0
 707              	@ 377 "/d_drive/axoloti/platform_linux/../chibios/os/kernel/src/chmtx.c" 1
 708 01e8 83F31188 		msr     BASEPRI, r3
 709              	@ 0 "" 2
 710              		.thumb
 711              	.LBE82:
 712              		.loc 1 378 0
 713 01ec A36B     		ldr	r3, [r4, #56]
 714 01ee D3B1     		cbz	r3, .L64
 715              	.LBB83:
 716              		.loc 1 390 0
 717 01f0 0026     		movs	r6, #0
 718 01f2 0AE0     		b	.L67
 719              	.LVL55:
 720              	.L74:
 721              	.LBB84:
 722              	.LBB85:
 723              	.LBB86:
 724              		.loc 2 62 0
 725 01f4 1168     		ldr	r1, [r2]
 726              	.LBE86:
 727              	.LBE85:
 728              		.loc 1 385 0
 729 01f6 956B     		ldr	r5, [r2, #56]
 730              	.LBB88:
 731              	.LBB87:
 732              		.loc 2 62 0
 733 01f8 1960     		str	r1, [r3]
 734 01fa 4B60     		str	r3, [r1, #4]
 735              	.LBE87:
 736              	.LBE88:
 737              		.loc 1 384 0
ARM GAS  /tmp/ccnBwL80.s 			page 14


 738 01fc 9A60     		str	r2, [r3, #8]
 739              		.loc 1 385 0
 740 01fe DD60     		str	r5, [r3, #12]
 741              		.loc 1 386 0
 742 0200 9363     		str	r3, [r2, #56]
 743              		.loc 1 387 0
 744 0202 FFF7FEFF 		bl	chSchReadyI
 745              	.LVL56:
 746              	.LBE84:
 747              	.LBE83:
 748              		.loc 1 391 0
 749 0206 A36B     		ldr	r3, [r4, #56]
 750 0208 4BB1     		cbz	r3, .L73
 751              	.L67:
 752              	.LVL57:
 753              	.LBB90:
 754              		.loc 1 382 0
 755 020a 1A68     		ldr	r2, [r3]
 756              	.LVL58:
 757              		.loc 1 381 0
 758 020c D968     		ldr	r1, [r3, #12]
 759 020e A163     		str	r1, [r4, #56]
 760              		.loc 1 382 0
 761 0210 9A42     		cmp	r2, r3
 762              	.LBB89:
 763              		.loc 1 387 0
 764 0212 1046     		mov	r0, r2
 765              	.LBE89:
 766              		.loc 1 382 0
 767 0214 EED1     		bne	.L74
 768              		.loc 1 390 0
 769 0216 9E60     		str	r6, [r3, #8]
 770              	.LBE90:
 771              		.loc 1 391 0
 772 0218 A36B     		ldr	r3, [r4, #56]
 773              	.LVL59:
 774 021a 002B     		cmp	r3, #0
 775 021c F5D1     		bne	.L67
 776              	.LVL60:
 777              	.L73:
 778              		.loc 1 392 0
 779 021e E36B     		ldr	r3, [r4, #60]
 780 0220 A360     		str	r3, [r4, #8]
 781              		.loc 1 393 0
 782 0222 FFF7FEFF 		bl	chSchRescheduleS
 783              	.LVL61:
 784              	.L64:
 785              	.LBB91:
 786              		.loc 1 395 0
 787 0226 0023     		movs	r3, #0
 788              	@ 395 "/d_drive/axoloti/platform_linux/../chibios/os/kernel/src/chmtx.c" 1
 789 0228 83F31188 		msr     BASEPRI, r3
 790              	@ 0 "" 2
 791              		.thumb
 792 022c 70BD     		pop	{r4, r5, r6, pc}
 793              	.LVL62:
 794              	.L76:
ARM GAS  /tmp/ccnBwL80.s 			page 15


 795 022e 00BF     		.align	2
 796              	.L75:
 797 0230 00000000 		.word	rlist
 798              	.LBE91:
 799              		.cfi_endproc
 800              	.LFE14:
 801              		.size	chMtxUnlockAll, .-chMtxUnlockAll
 802              	.Letext0:
 803              		.file 3 "/d_drive/axoloti/platform_linux/arm-none-eabi/include/machine/_default_types.h"
 804              		.file 4 "/d_drive/axoloti/platform_linux/arm-none-eabi/include/sys/_stdint.h"
 805              		.file 5 "/d_drive/axoloti/platform_linux/../chibios/os/ports/GCC/ARMCMx/chtypes.h"
 806              		.file 6 "/d_drive/axoloti/platform_linux/../chibios/os/kernel/include/chlists.h"
 807              		.file 7 "/d_drive/axoloti/platform_linux/../chibios/os/kernel/include/chthreads.h"
 808              		.file 8 "/d_drive/axoloti/platform_linux/../chibios/os/ports/GCC/ARMCMx/chcore_v7m.h"
 809              		.file 9 "/d_drive/axoloti/platform_linux/../chibios/os/kernel/include/chschd.h"
 810              		.file 10 "/d_drive/axoloti/platform_linux/../chibios/os/kernel/include/chmtx.h"
 811              		.section	.debug_info,"",%progbits
 812              	.Ldebug_info0:
 813 0000 270A0000 		.4byte	0xa27
 814 0004 0400     		.2byte	0x4
 815 0006 00000000 		.4byte	.Ldebug_abbrev0
 816 000a 04       		.byte	0x4
 817 000b 01       		.uleb128 0x1
 818 000c 25030000 		.4byte	.LASF76
 819 0010 01       		.byte	0x1
 820 0011 95020000 		.4byte	.LASF77
 821 0015 00000000 		.4byte	.Ltext0
 822 0019 34020000 		.4byte	.Letext0-.Ltext0
 823 001d 00000000 		.4byte	.Ldebug_line0
 824 0021 02       		.uleb128 0x2
 825 0022 04       		.byte	0x4
 826 0023 05       		.byte	0x5
 827 0024 696E7400 		.ascii	"int\000"
 828 0028 03       		.uleb128 0x3
 829 0029 04       		.byte	0x4
 830 002a 07       		.byte	0x7
 831 002b D7000000 		.4byte	.LASF0
 832 002f 03       		.uleb128 0x3
 833 0030 01       		.byte	0x1
 834 0031 06       		.byte	0x6
 835 0032 4F000000 		.4byte	.LASF1
 836 0036 04       		.uleb128 0x4
 837 0037 0D000000 		.4byte	.LASF5
 838 003b 03       		.byte	0x3
 839 003c 1D       		.byte	0x1d
 840 003d 41000000 		.4byte	0x41
 841 0041 03       		.uleb128 0x3
 842 0042 01       		.byte	0x1
 843 0043 08       		.byte	0x8
 844 0044 C6010000 		.4byte	.LASF2
 845 0048 03       		.uleb128 0x3
 846 0049 02       		.byte	0x2
 847 004a 05       		.byte	0x5
 848 004b DE010000 		.4byte	.LASF3
 849 004f 03       		.uleb128 0x3
 850 0050 02       		.byte	0x2
 851 0051 07       		.byte	0x7
ARM GAS  /tmp/ccnBwL80.s 			page 16


 852 0052 F6000000 		.4byte	.LASF4
 853 0056 04       		.uleb128 0x4
 854 0057 77020000 		.4byte	.LASF6
 855 005b 03       		.byte	0x3
 856 005c 3F       		.byte	0x3f
 857 005d 61000000 		.4byte	0x61
 858 0061 03       		.uleb128 0x3
 859 0062 04       		.byte	0x4
 860 0063 05       		.byte	0x5
 861 0064 74000000 		.4byte	.LASF7
 862 0068 04       		.uleb128 0x4
 863 0069 B6000000 		.4byte	.LASF8
 864 006d 03       		.byte	0x3
 865 006e 41       		.byte	0x41
 866 006f 73000000 		.4byte	0x73
 867 0073 03       		.uleb128 0x3
 868 0074 04       		.byte	0x4
 869 0075 07       		.byte	0x7
 870 0076 E4000000 		.4byte	.LASF9
 871 007a 03       		.uleb128 0x3
 872 007b 08       		.byte	0x8
 873 007c 05       		.byte	0x5
 874 007d 41000000 		.4byte	.LASF10
 875 0081 03       		.uleb128 0x3
 876 0082 08       		.byte	0x8
 877 0083 07       		.byte	0x7
 878 0084 17000000 		.4byte	.LASF11
 879 0088 04       		.uleb128 0x4
 880 0089 16030000 		.4byte	.LASF12
 881 008d 04       		.byte	0x4
 882 008e 14       		.byte	0x14
 883 008f 36000000 		.4byte	0x36
 884 0093 04       		.uleb128 0x4
 885 0094 BE010000 		.4byte	.LASF13
 886 0098 04       		.byte	0x4
 887 0099 1F       		.byte	0x1f
 888 009a 56000000 		.4byte	0x56
 889 009e 04       		.uleb128 0x4
 890 009f 37020000 		.4byte	.LASF14
 891 00a3 04       		.byte	0x4
 892 00a4 20       		.byte	0x20
 893 00a5 68000000 		.4byte	0x68
 894 00a9 04       		.uleb128 0x4
 895 00aa 5B000000 		.4byte	.LASF15
 896 00ae 05       		.byte	0x5
 897 00af 2B       		.byte	0x2b
 898 00b0 B4000000 		.4byte	0xb4
 899 00b4 03       		.uleb128 0x3
 900 00b5 01       		.byte	0x1
 901 00b6 02       		.byte	0x2
 902 00b7 B8010000 		.4byte	.LASF16
 903 00bb 04       		.uleb128 0x4
 904 00bc 2E010000 		.4byte	.LASF17
 905 00c0 05       		.byte	0x5
 906 00c1 2C       		.byte	0x2c
 907 00c2 88000000 		.4byte	0x88
 908 00c6 04       		.uleb128 0x4
ARM GAS  /tmp/ccnBwL80.s 			page 17


 909 00c7 7D000000 		.4byte	.LASF18
 910 00cb 05       		.byte	0x5
 911 00cc 2D       		.byte	0x2d
 912 00cd 88000000 		.4byte	0x88
 913 00d1 04       		.uleb128 0x4
 914 00d2 6A000000 		.4byte	.LASF19
 915 00d6 05       		.byte	0x5
 916 00d7 2F       		.byte	0x2f
 917 00d8 88000000 		.4byte	0x88
 918 00dc 04       		.uleb128 0x4
 919 00dd B0010000 		.4byte	.LASF20
 920 00e1 05       		.byte	0x5
 921 00e2 30       		.byte	0x30
 922 00e3 9E000000 		.4byte	0x9e
 923 00e7 04       		.uleb128 0x4
 924 00e8 09010000 		.4byte	.LASF21
 925 00ec 05       		.byte	0x5
 926 00ed 31       		.byte	0x31
 927 00ee 93000000 		.4byte	0x93
 928 00f2 04       		.uleb128 0x4
 929 00f3 42010000 		.4byte	.LASF22
 930 00f7 05       		.byte	0x5
 931 00f8 33       		.byte	0x33
 932 00f9 9E000000 		.4byte	0x9e
 933 00fd 04       		.uleb128 0x4
 934 00fe 17020000 		.4byte	.LASF23
 935 0102 06       		.byte	0x6
 936 0103 2A       		.byte	0x2a
 937 0104 08010000 		.4byte	0x108
 938 0108 05       		.uleb128 0x5
 939 0109 17020000 		.4byte	.LASF23
 940 010d 40       		.byte	0x40
 941 010e 07       		.byte	0x7
 942 010f 5E       		.byte	0x5e
 943 0110 E1010000 		.4byte	0x1e1
 944 0114 06       		.uleb128 0x6
 945 0115 08020000 		.4byte	.LASF24
 946 0119 07       		.byte	0x7
 947 011a 5F       		.byte	0x5f
 948 011b 02020000 		.4byte	0x202
 949 011f 00       		.byte	0
 950 0120 06       		.uleb128 0x6
 951 0121 A9010000 		.4byte	.LASF25
 952 0125 07       		.byte	0x7
 953 0126 61       		.byte	0x61
 954 0127 02020000 		.4byte	0x202
 955 012b 04       		.byte	0x4
 956 012c 06       		.uleb128 0x6
 957 012d 3A000000 		.4byte	.LASF26
 958 0131 07       		.byte	0x7
 959 0132 63       		.byte	0x63
 960 0133 DC000000 		.4byte	0xdc
 961 0137 08       		.byte	0x8
 962 0138 06       		.uleb128 0x6
 963 0139 31040000 		.4byte	.LASF27
 964 013d 07       		.byte	0x7
 965 013e 64       		.byte	0x64
ARM GAS  /tmp/ccnBwL80.s 			page 18


 966 013f 8C030000 		.4byte	0x38c
 967 0143 0C       		.byte	0xc
 968 0144 06       		.uleb128 0x6
 969 0145 94000000 		.4byte	.LASF28
 970 0149 07       		.byte	0x7
 971 014a 66       		.byte	0x66
 972 014b 02020000 		.4byte	0x202
 973 014f 10       		.byte	0x10
 974 0150 06       		.uleb128 0x6
 975 0151 74010000 		.4byte	.LASF29
 976 0155 07       		.byte	0x7
 977 0156 67       		.byte	0x67
 978 0157 02020000 		.4byte	0x202
 979 015b 14       		.byte	0x14
 980 015c 06       		.uleb128 0x6
 981 015d FF020000 		.4byte	.LASF30
 982 0161 07       		.byte	0x7
 983 0162 6E       		.byte	0x6e
 984 0163 87040000 		.4byte	0x487
 985 0167 18       		.byte	0x18
 986 0168 06       		.uleb128 0x6
 987 0169 E8010000 		.4byte	.LASF31
 988 016d 07       		.byte	0x7
 989 016e 79       		.byte	0x79
 990 016f C6000000 		.4byte	0xc6
 991 0173 1C       		.byte	0x1c
 992 0174 06       		.uleb128 0x6
 993 0175 0F020000 		.4byte	.LASF32
 994 0179 07       		.byte	0x7
 995 017a 7D       		.byte	0x7d
 996 017b BB000000 		.4byte	0xbb
 997 017f 1D       		.byte	0x1d
 998 0180 06       		.uleb128 0x6
 999 0181 F0010000 		.4byte	.LASF33
 1000 0185 07       		.byte	0x7
 1001 0186 88       		.byte	0x88
 1002 0187 D1000000 		.4byte	0xd1
 1003 018b 1E       		.byte	0x1e
 1004 018c 07       		.uleb128 0x7
 1005 018d 705F7500 		.ascii	"p_u\000"
 1006 0191 07       		.byte	0x7
 1007 0192 B4       		.byte	0xb4
 1008 0193 52040000 		.4byte	0x452
 1009 0197 20       		.byte	0x20
 1010 0198 06       		.uleb128 0x6
 1011 0199 37040000 		.4byte	.LASF34
 1012 019d 07       		.byte	0x7
 1013 019e B9       		.byte	0xb9
 1014 019f 28020000 		.4byte	0x228
 1015 01a3 24       		.byte	0x24
 1016 01a4 06       		.uleb128 0x6
 1017 01a5 DD020000 		.4byte	.LASF35
 1018 01a9 07       		.byte	0x7
 1019 01aa BF       		.byte	0xbf
 1020 01ab 08020000 		.4byte	0x208
 1021 01af 28       		.byte	0x28
 1022 01b0 06       		.uleb128 0x6
ARM GAS  /tmp/ccnBwL80.s 			page 19


 1023 01b1 00000000 		.4byte	.LASF36
 1024 01b5 07       		.byte	0x7
 1025 01b6 C3       		.byte	0xc3
 1026 01b7 E7000000 		.4byte	0xe7
 1027 01bb 30       		.byte	0x30
 1028 01bc 06       		.uleb128 0x6
 1029 01bd 2C020000 		.4byte	.LASF37
 1030 01c1 07       		.byte	0x7
 1031 01c2 C9       		.byte	0xc9
 1032 01c3 F2000000 		.4byte	0xf2
 1033 01c7 34       		.byte	0x34
 1034 01c8 06       		.uleb128 0x6
 1035 01c9 D4010000 		.4byte	.LASF38
 1036 01cd 07       		.byte	0x7
 1037 01ce D0       		.byte	0xd0
 1038 01cf 99040000 		.4byte	0x499
 1039 01d3 38       		.byte	0x38
 1040 01d4 06       		.uleb128 0x6
 1041 01d5 6C020000 		.4byte	.LASF39
 1042 01d9 07       		.byte	0x7
 1043 01da D4       		.byte	0xd4
 1044 01db DC000000 		.4byte	0xdc
 1045 01df 3C       		.byte	0x3c
 1046 01e0 00       		.byte	0
 1047 01e1 08       		.uleb128 0x8
 1048 01e2 08       		.byte	0x8
 1049 01e3 06       		.byte	0x6
 1050 01e4 61       		.byte	0x61
 1051 01e5 02020000 		.4byte	0x202
 1052 01e9 06       		.uleb128 0x6
 1053 01ea 08020000 		.4byte	.LASF24
 1054 01ee 06       		.byte	0x6
 1055 01ef 62       		.byte	0x62
 1056 01f0 02020000 		.4byte	0x202
 1057 01f4 00       		.byte	0
 1058 01f5 06       		.uleb128 0x6
 1059 01f6 A9010000 		.4byte	.LASF25
 1060 01fa 06       		.byte	0x6
 1061 01fb 64       		.byte	0x64
 1062 01fc 02020000 		.4byte	0x202
 1063 0200 04       		.byte	0x4
 1064 0201 00       		.byte	0
 1065 0202 09       		.uleb128 0x9
 1066 0203 04       		.byte	0x4
 1067 0204 FD000000 		.4byte	0xfd
 1068 0208 04       		.uleb128 0x4
 1069 0209 82010000 		.4byte	.LASF40
 1070 020d 06       		.byte	0x6
 1071 020e 66       		.byte	0x66
 1072 020f E1010000 		.4byte	0x1e1
 1073 0213 08       		.uleb128 0x8
 1074 0214 04       		.byte	0x4
 1075 0215 06       		.byte	0x6
 1076 0216 6B       		.byte	0x6b
 1077 0217 28020000 		.4byte	0x228
 1078 021b 06       		.uleb128 0x6
 1079 021c 08020000 		.4byte	.LASF24
ARM GAS  /tmp/ccnBwL80.s 			page 20


 1080 0220 06       		.byte	0x6
 1081 0221 6D       		.byte	0x6d
 1082 0222 02020000 		.4byte	0x202
 1083 0226 00       		.byte	0
 1084 0227 00       		.byte	0
 1085 0228 04       		.uleb128 0x4
 1086 0229 36010000 		.4byte	.LASF41
 1087 022d 06       		.byte	0x6
 1088 022e 70       		.byte	0x70
 1089 022f 13020000 		.4byte	0x213
 1090 0233 04       		.uleb128 0x4
 1091 0234 C1000000 		.4byte	.LASF42
 1092 0238 08       		.byte	0x8
 1093 0239 E5       		.byte	0xe5
 1094 023a 3E020000 		.4byte	0x23e
 1095 023e 0A       		.uleb128 0xa
 1096 023f 04       		.byte	0x4
 1097 0240 0B       		.uleb128 0xb
 1098 0241 D6020000 		.4byte	.LASF43
 1099 0245 64       		.byte	0x64
 1100 0246 08       		.byte	0x8
 1101 0247 0C01     		.2byte	0x10c
 1102 0249 8C030000 		.4byte	0x38c
 1103 024d 0C       		.uleb128 0xc
 1104 024e 73313600 		.ascii	"s16\000"
 1105 0252 08       		.byte	0x8
 1106 0253 0E01     		.2byte	0x10e
 1107 0255 33020000 		.4byte	0x233
 1108 0259 00       		.byte	0
 1109 025a 0C       		.uleb128 0xc
 1110 025b 73313700 		.ascii	"s17\000"
 1111 025f 08       		.byte	0x8
 1112 0260 0F01     		.2byte	0x10f
 1113 0262 33020000 		.4byte	0x233
 1114 0266 04       		.byte	0x4
 1115 0267 0C       		.uleb128 0xc
 1116 0268 73313800 		.ascii	"s18\000"
 1117 026c 08       		.byte	0x8
 1118 026d 1001     		.2byte	0x110
 1119 026f 33020000 		.4byte	0x233
 1120 0273 08       		.byte	0x8
 1121 0274 0C       		.uleb128 0xc
 1122 0275 73313900 		.ascii	"s19\000"
 1123 0279 08       		.byte	0x8
 1124 027a 1101     		.2byte	0x111
 1125 027c 33020000 		.4byte	0x233
 1126 0280 0C       		.byte	0xc
 1127 0281 0C       		.uleb128 0xc
 1128 0282 73323000 		.ascii	"s20\000"
 1129 0286 08       		.byte	0x8
 1130 0287 1201     		.2byte	0x112
 1131 0289 33020000 		.4byte	0x233
 1132 028d 10       		.byte	0x10
 1133 028e 0C       		.uleb128 0xc
 1134 028f 73323100 		.ascii	"s21\000"
 1135 0293 08       		.byte	0x8
 1136 0294 1301     		.2byte	0x113
ARM GAS  /tmp/ccnBwL80.s 			page 21


 1137 0296 33020000 		.4byte	0x233
 1138 029a 14       		.byte	0x14
 1139 029b 0C       		.uleb128 0xc
 1140 029c 73323200 		.ascii	"s22\000"
 1141 02a0 08       		.byte	0x8
 1142 02a1 1401     		.2byte	0x114
 1143 02a3 33020000 		.4byte	0x233
 1144 02a7 18       		.byte	0x18
 1145 02a8 0C       		.uleb128 0xc
 1146 02a9 73323300 		.ascii	"s23\000"
 1147 02ad 08       		.byte	0x8
 1148 02ae 1501     		.2byte	0x115
 1149 02b0 33020000 		.4byte	0x233
 1150 02b4 1C       		.byte	0x1c
 1151 02b5 0C       		.uleb128 0xc
 1152 02b6 73323400 		.ascii	"s24\000"
 1153 02ba 08       		.byte	0x8
 1154 02bb 1601     		.2byte	0x116
 1155 02bd 33020000 		.4byte	0x233
 1156 02c1 20       		.byte	0x20
 1157 02c2 0C       		.uleb128 0xc
 1158 02c3 73323500 		.ascii	"s25\000"
 1159 02c7 08       		.byte	0x8
 1160 02c8 1701     		.2byte	0x117
 1161 02ca 33020000 		.4byte	0x233
 1162 02ce 24       		.byte	0x24
 1163 02cf 0C       		.uleb128 0xc
 1164 02d0 73323600 		.ascii	"s26\000"
 1165 02d4 08       		.byte	0x8
 1166 02d5 1801     		.2byte	0x118
 1167 02d7 33020000 		.4byte	0x233
 1168 02db 28       		.byte	0x28
 1169 02dc 0C       		.uleb128 0xc
 1170 02dd 73323700 		.ascii	"s27\000"
 1171 02e1 08       		.byte	0x8
 1172 02e2 1901     		.2byte	0x119
 1173 02e4 33020000 		.4byte	0x233
 1174 02e8 2C       		.byte	0x2c
 1175 02e9 0C       		.uleb128 0xc
 1176 02ea 73323800 		.ascii	"s28\000"
 1177 02ee 08       		.byte	0x8
 1178 02ef 1A01     		.2byte	0x11a
 1179 02f1 33020000 		.4byte	0x233
 1180 02f5 30       		.byte	0x30
 1181 02f6 0C       		.uleb128 0xc
 1182 02f7 73323900 		.ascii	"s29\000"
 1183 02fb 08       		.byte	0x8
 1184 02fc 1B01     		.2byte	0x11b
 1185 02fe 33020000 		.4byte	0x233
 1186 0302 34       		.byte	0x34
 1187 0303 0C       		.uleb128 0xc
 1188 0304 73333000 		.ascii	"s30\000"
 1189 0308 08       		.byte	0x8
 1190 0309 1C01     		.2byte	0x11c
 1191 030b 33020000 		.4byte	0x233
 1192 030f 38       		.byte	0x38
 1193 0310 0C       		.uleb128 0xc
ARM GAS  /tmp/ccnBwL80.s 			page 22


 1194 0311 73333100 		.ascii	"s31\000"
 1195 0315 08       		.byte	0x8
 1196 0316 1D01     		.2byte	0x11d
 1197 0318 33020000 		.4byte	0x233
 1198 031c 3C       		.byte	0x3c
 1199 031d 0C       		.uleb128 0xc
 1200 031e 723400   		.ascii	"r4\000"
 1201 0321 08       		.byte	0x8
 1202 0322 1F01     		.2byte	0x11f
 1203 0324 33020000 		.4byte	0x233
 1204 0328 40       		.byte	0x40
 1205 0329 0C       		.uleb128 0xc
 1206 032a 723500   		.ascii	"r5\000"
 1207 032d 08       		.byte	0x8
 1208 032e 2001     		.2byte	0x120
 1209 0330 33020000 		.4byte	0x233
 1210 0334 44       		.byte	0x44
 1211 0335 0C       		.uleb128 0xc
 1212 0336 723600   		.ascii	"r6\000"
 1213 0339 08       		.byte	0x8
 1214 033a 2101     		.2byte	0x121
 1215 033c 33020000 		.4byte	0x233
 1216 0340 48       		.byte	0x48
 1217 0341 0C       		.uleb128 0xc
 1218 0342 723700   		.ascii	"r7\000"
 1219 0345 08       		.byte	0x8
 1220 0346 2201     		.2byte	0x122
 1221 0348 33020000 		.4byte	0x233
 1222 034c 4C       		.byte	0x4c
 1223 034d 0C       		.uleb128 0xc
 1224 034e 723800   		.ascii	"r8\000"
 1225 0351 08       		.byte	0x8
 1226 0352 2301     		.2byte	0x123
 1227 0354 33020000 		.4byte	0x233
 1228 0358 50       		.byte	0x50
 1229 0359 0C       		.uleb128 0xc
 1230 035a 723900   		.ascii	"r9\000"
 1231 035d 08       		.byte	0x8
 1232 035e 2401     		.2byte	0x124
 1233 0360 33020000 		.4byte	0x233
 1234 0364 54       		.byte	0x54
 1235 0365 0C       		.uleb128 0xc
 1236 0366 72313000 		.ascii	"r10\000"
 1237 036a 08       		.byte	0x8
 1238 036b 2501     		.2byte	0x125
 1239 036d 33020000 		.4byte	0x233
 1240 0371 58       		.byte	0x58
 1241 0372 0C       		.uleb128 0xc
 1242 0373 72313100 		.ascii	"r11\000"
 1243 0377 08       		.byte	0x8
 1244 0378 2601     		.2byte	0x126
 1245 037a 33020000 		.4byte	0x233
 1246 037e 5C       		.byte	0x5c
 1247 037f 0C       		.uleb128 0xc
 1248 0380 6C7200   		.ascii	"lr\000"
 1249 0383 08       		.byte	0x8
 1250 0384 2701     		.2byte	0x127
ARM GAS  /tmp/ccnBwL80.s 			page 23


 1251 0386 33020000 		.4byte	0x233
 1252 038a 60       		.byte	0x60
 1253 038b 00       		.byte	0
 1254 038c 0B       		.uleb128 0xb
 1255 038d 8D020000 		.4byte	.LASF44
 1256 0391 04       		.byte	0x4
 1257 0392 08       		.byte	0x8
 1258 0393 3101     		.2byte	0x131
 1259 0395 A7030000 		.4byte	0x3a7
 1260 0399 0C       		.uleb128 0xc
 1261 039a 72313300 		.ascii	"r13\000"
 1262 039e 08       		.byte	0x8
 1263 039f 3201     		.2byte	0x132
 1264 03a1 A7030000 		.4byte	0x3a7
 1265 03a5 00       		.byte	0
 1266 03a6 00       		.byte	0
 1267 03a7 09       		.uleb128 0x9
 1268 03a8 04       		.byte	0x4
 1269 03a9 40020000 		.4byte	0x240
 1270 03ad 03       		.uleb128 0x3
 1271 03ae 04       		.byte	0x4
 1272 03af 07       		.byte	0x7
 1273 03b0 61010000 		.4byte	.LASF45
 1274 03b4 08       		.uleb128 0x8
 1275 03b5 1C       		.byte	0x1c
 1276 03b6 09       		.byte	0x9
 1277 03b7 5E       		.byte	0x5e
 1278 03b8 05040000 		.4byte	0x405
 1279 03bc 06       		.uleb128 0x6
 1280 03bd 40020000 		.4byte	.LASF46
 1281 03c1 09       		.byte	0x9
 1282 03c2 5F       		.byte	0x5f
 1283 03c3 08020000 		.4byte	0x208
 1284 03c7 00       		.byte	0
 1285 03c8 06       		.uleb128 0x6
 1286 03c9 FA010000 		.4byte	.LASF47
 1287 03cd 09       		.byte	0x9
 1288 03ce 60       		.byte	0x60
 1289 03cf DC000000 		.4byte	0xdc
 1290 03d3 08       		.byte	0x8
 1291 03d4 06       		.uleb128 0x6
 1292 03d5 7C010000 		.4byte	.LASF48
 1293 03d9 09       		.byte	0x9
 1294 03da 62       		.byte	0x62
 1295 03db 8C030000 		.4byte	0x38c
 1296 03df 0C       		.byte	0xc
 1297 03e0 06       		.uleb128 0x6
 1298 03e1 0F010000 		.4byte	.LASF49
 1299 03e5 09       		.byte	0x9
 1300 03e6 65       		.byte	0x65
 1301 03e7 02020000 		.4byte	0x202
 1302 03eb 10       		.byte	0x10
 1303 03ec 06       		.uleb128 0x6
 1304 03ed A1010000 		.4byte	.LASF50
 1305 03f1 09       		.byte	0x9
 1306 03f2 66       		.byte	0x66
 1307 03f3 02020000 		.4byte	0x202
ARM GAS  /tmp/ccnBwL80.s 			page 24


 1308 03f7 14       		.byte	0x14
 1309 03f8 06       		.uleb128 0x6
 1310 03f9 97010000 		.4byte	.LASF51
 1311 03fd 09       		.byte	0x9
 1312 03fe 69       		.byte	0x69
 1313 03ff 02020000 		.4byte	0x202
 1314 0403 18       		.byte	0x18
 1315 0404 00       		.byte	0
 1316 0405 04       		.uleb128 0x4
 1317 0406 06030000 		.4byte	.LASF52
 1318 040a 09       		.byte	0x9
 1319 040b 6B       		.byte	0x6b
 1320 040c B4030000 		.4byte	0x3b4
 1321 0410 05       		.uleb128 0x5
 1322 0411 5B010000 		.4byte	.LASF53
 1323 0415 10       		.byte	0x10
 1324 0416 0A       		.byte	0xa
 1325 0417 2C       		.byte	0x2c
 1326 0418 41040000 		.4byte	0x441
 1327 041c 06       		.uleb128 0x6
 1328 041d 62000000 		.4byte	.LASF54
 1329 0421 0A       		.byte	0xa
 1330 0422 2D       		.byte	0x2d
 1331 0423 08020000 		.4byte	0x208
 1332 0427 00       		.byte	0
 1333 0428 06       		.uleb128 0x6
 1334 0429 29040000 		.4byte	.LASF55
 1335 042d 0A       		.byte	0xa
 1336 042e 2F       		.byte	0x2f
 1337 042f 02020000 		.4byte	0x202
 1338 0433 08       		.byte	0x8
 1339 0434 06       		.uleb128 0x6
 1340 0435 65020000 		.4byte	.LASF56
 1341 0439 0A       		.byte	0xa
 1342 043a 31       		.byte	0x31
 1343 043b 41040000 		.4byte	0x441
 1344 043f 0C       		.byte	0xc
 1345 0440 00       		.byte	0
 1346 0441 09       		.uleb128 0x9
 1347 0442 04       		.byte	0x4
 1348 0443 10040000 		.4byte	0x410
 1349 0447 04       		.uleb128 0x4
 1350 0448 5B010000 		.4byte	.LASF53
 1351 044c 0A       		.byte	0xa
 1352 044d 33       		.byte	0x33
 1353 044e 10040000 		.4byte	0x410
 1354 0452 0D       		.uleb128 0xd
 1355 0453 04       		.byte	0x4
 1356 0454 07       		.byte	0x7
 1357 0455 96       		.byte	0x96
 1358 0456 87040000 		.4byte	0x487
 1359 045a 0E       		.uleb128 0xe
 1360 045b 06000000 		.4byte	.LASF57
 1361 045f 07       		.byte	0x7
 1362 0460 9D       		.byte	0x9d
 1363 0461 E7000000 		.4byte	0xe7
 1364 0465 0E       		.uleb128 0xe
ARM GAS  /tmp/ccnBwL80.s 			page 25


 1365 0466 9C000000 		.4byte	.LASF58
 1366 046a 07       		.byte	0x7
 1367 046b A4       		.byte	0xa4
 1368 046c E7000000 		.4byte	0xe7
 1369 0470 0E       		.uleb128 0xe
 1370 0471 1E030000 		.4byte	.LASF59
 1371 0475 07       		.byte	0x7
 1372 0476 AB       		.byte	0xab
 1373 0477 3E020000 		.4byte	0x23e
 1374 047b 0E       		.uleb128 0xe
 1375 047c 01020000 		.4byte	.LASF60
 1376 0480 07       		.byte	0x7
 1377 0481 B2       		.byte	0xb2
 1378 0482 F2000000 		.4byte	0xf2
 1379 0486 00       		.byte	0
 1380 0487 09       		.uleb128 0x9
 1381 0488 04       		.byte	0x4
 1382 0489 8D040000 		.4byte	0x48d
 1383 048d 0F       		.uleb128 0xf
 1384 048e 92040000 		.4byte	0x492
 1385 0492 03       		.uleb128 0x3
 1386 0493 01       		.byte	0x1
 1387 0494 08       		.byte	0x8
 1388 0495 48020000 		.4byte	.LASF61
 1389 0499 09       		.uleb128 0x9
 1390 049a 04       		.byte	0x4
 1391 049b 47040000 		.4byte	0x447
 1392 049f 10       		.uleb128 0x10
 1393 04a0 8F010000 		.4byte	.LASF62
 1394 04a4 02       		.byte	0x2
 1395 04a5 49       		.byte	0x49
 1396 04a6 02020000 		.4byte	0x202
 1397 04aa 03       		.byte	0x3
 1398 04ab BA040000 		.4byte	0x4ba
 1399 04af 11       		.uleb128 0x11
 1400 04b0 747000   		.ascii	"tp\000"
 1401 04b3 02       		.byte	0x2
 1402 04b4 49       		.byte	0x49
 1403 04b5 02020000 		.4byte	0x202
 1404 04b9 00       		.byte	0
 1405 04ba 12       		.uleb128 0x12
 1406 04bb 81020000 		.4byte	.LASF78
 1407 04bf 02       		.byte	0x2
 1408 04c0 29       		.byte	0x29
 1409 04c1 03       		.byte	0x3
 1410 04c2 E6040000 		.4byte	0x4e6
 1411 04c6 11       		.uleb128 0x11
 1412 04c7 747000   		.ascii	"tp\000"
 1413 04ca 02       		.byte	0x2
 1414 04cb 29       		.byte	0x29
 1415 04cc 02020000 		.4byte	0x202
 1416 04d0 11       		.uleb128 0x11
 1417 04d1 74717000 		.ascii	"tqp\000"
 1418 04d5 02       		.byte	0x2
 1419 04d6 29       		.byte	0x29
 1420 04d7 E6040000 		.4byte	0x4e6
 1421 04db 13       		.uleb128 0x13
ARM GAS  /tmp/ccnBwL80.s 			page 26


 1422 04dc 637000   		.ascii	"cp\000"
 1423 04df 02       		.byte	0x2
 1424 04e0 2B       		.byte	0x2b
 1425 04e1 02020000 		.4byte	0x202
 1426 04e5 00       		.byte	0
 1427 04e6 09       		.uleb128 0x9
 1428 04e7 04       		.byte	0x4
 1429 04e8 08020000 		.4byte	0x208
 1430 04ec 14       		.uleb128 0x14
 1431 04ed 86000000 		.4byte	.LASF72
 1432 04f1 01       		.byte	0x1
 1433 04f2 EA       		.byte	0xea
 1434 04f3 A9000000 		.4byte	0xa9
 1435 04f7 01       		.byte	0x1
 1436 04f8 07050000 		.4byte	0x507
 1437 04fc 11       		.uleb128 0x11
 1438 04fd 6D7000   		.ascii	"mp\000"
 1439 0500 01       		.byte	0x1
 1440 0501 EA       		.byte	0xea
 1441 0502 99040000 		.4byte	0x499
 1442 0506 00       		.byte	0
 1443 0507 10       		.uleb128 0x10
 1444 0508 4D020000 		.4byte	.LASF63
 1445 050c 02       		.byte	0x2
 1446 050d 3B       		.byte	0x3b
 1447 050e 02020000 		.4byte	0x202
 1448 0512 03       		.byte	0x3
 1449 0513 2D050000 		.4byte	0x52d
 1450 0517 11       		.uleb128 0x11
 1451 0518 74717000 		.ascii	"tqp\000"
 1452 051c 02       		.byte	0x2
 1453 051d 3B       		.byte	0x3b
 1454 051e E6040000 		.4byte	0x4e6
 1455 0522 13       		.uleb128 0x13
 1456 0523 747000   		.ascii	"tp\000"
 1457 0526 02       		.byte	0x2
 1458 0527 3C       		.byte	0x3c
 1459 0528 02020000 		.4byte	0x202
 1460 052c 00       		.byte	0
 1461 052d 15       		.uleb128 0x15
 1462 052e F5020000 		.4byte	.LASF64
 1463 0532 01       		.byte	0x1
 1464 0533 56       		.byte	0x56
 1465 0534 00000000 		.4byte	.LFB7
 1466 0538 0A000000 		.4byte	.LFE7-.LFB7
 1467 053c 01       		.uleb128 0x1
 1468 053d 9C       		.byte	0x9c
 1469 053e 4F050000 		.4byte	0x54f
 1470 0542 16       		.uleb128 0x16
 1471 0543 6D7000   		.ascii	"mp\000"
 1472 0546 01       		.byte	0x1
 1473 0547 56       		.byte	0x56
 1474 0548 99040000 		.4byte	0x499
 1475 054c 01       		.uleb128 0x1
 1476 054d 50       		.byte	0x50
 1477 054e 00       		.byte	0
 1478 054f 15       		.uleb128 0x15
ARM GAS  /tmp/ccnBwL80.s 			page 27


 1479 0550 1E040000 		.4byte	.LASF65
 1480 0554 01       		.byte	0x1
 1481 0555 79       		.byte	0x79
 1482 0556 10000000 		.4byte	.LFB9
 1483 055a 9C000000 		.4byte	.LFE9-.LFB9
 1484 055e 01       		.uleb128 0x1
 1485 055f 9C       		.byte	0x9c
 1486 0560 5E060000 		.4byte	0x65e
 1487 0564 17       		.uleb128 0x17
 1488 0565 6D7000   		.ascii	"mp\000"
 1489 0568 01       		.byte	0x1
 1490 0569 79       		.byte	0x79
 1491 056a 99040000 		.4byte	0x499
 1492 056e 00000000 		.4byte	.LLST0
 1493 0572 18       		.uleb128 0x18
 1494 0573 63747000 		.ascii	"ctp\000"
 1495 0577 01       		.byte	0x1
 1496 0578 7A       		.byte	0x7a
 1497 0579 02020000 		.4byte	0x202
 1498 057d 51000000 		.4byte	.LLST1
 1499 0581 19       		.uleb128 0x19
 1500 0582 00000000 		.4byte	.Ldebug_ranges0+0
 1501 0586 18       		.uleb128 0x18
 1502 0587 747000   		.ascii	"tp\000"
 1503 058a 01       		.byte	0x1
 1504 058b 84       		.byte	0x84
 1505 058c 02020000 		.4byte	0x202
 1506 0590 7B000000 		.4byte	.LLST2
 1507 0594 1A       		.uleb128 0x1a
 1508 0595 9F040000 		.4byte	0x49f
 1509 0599 32000000 		.4byte	.LBB30
 1510 059d 18000000 		.4byte	.Ldebug_ranges0+0x18
 1511 05a1 01       		.byte	0x1
 1512 05a2 8E       		.byte	0x8e
 1513 05a3 B1050000 		.4byte	0x5b1
 1514 05a7 1B       		.uleb128 0x1b
 1515 05a8 AF040000 		.4byte	0x4af
 1516 05ac 99000000 		.4byte	.LLST3
 1517 05b0 00       		.byte	0
 1518 05b1 1C       		.uleb128 0x1c
 1519 05b2 BA040000 		.4byte	0x4ba
 1520 05b6 42000000 		.4byte	.LBB34
 1521 05ba 16000000 		.4byte	.LBE34-.LBB34
 1522 05be 01       		.byte	0x1
 1523 05bf 8E       		.byte	0x8e
 1524 05c0 EA050000 		.4byte	0x5ea
 1525 05c4 1B       		.uleb128 0x1b
 1526 05c5 D0040000 		.4byte	0x4d0
 1527 05c9 C4000000 		.4byte	.LLST4
 1528 05cd 1B       		.uleb128 0x1b
 1529 05ce C6040000 		.4byte	0x4c6
 1530 05d2 D7000000 		.4byte	.LLST5
 1531 05d6 1D       		.uleb128 0x1d
 1532 05d7 42000000 		.4byte	.LBB35
 1533 05db 16000000 		.4byte	.LBE35-.LBB35
 1534 05df 1E       		.uleb128 0x1e
 1535 05e0 DB040000 		.4byte	0x4db
ARM GAS  /tmp/ccnBwL80.s 			page 28


 1536 05e4 02010000 		.4byte	.LLST6
 1537 05e8 00       		.byte	0
 1538 05e9 00       		.byte	0
 1539 05ea 1C       		.uleb128 0x1c
 1540 05eb BA040000 		.4byte	0x4ba
 1541 05ef 62000000 		.4byte	.LBB36
 1542 05f3 1C000000 		.4byte	.LBE36-.LBB36
 1543 05f7 01       		.byte	0x1
 1544 05f8 AD       		.byte	0xad
 1545 05f9 23060000 		.4byte	0x623
 1546 05fd 1B       		.uleb128 0x1b
 1547 05fe D0040000 		.4byte	0x4d0
 1548 0602 20010000 		.4byte	.LLST7
 1549 0606 1B       		.uleb128 0x1b
 1550 0607 C6040000 		.4byte	0x4c6
 1551 060b 50010000 		.4byte	.LLST8
 1552 060f 1D       		.uleb128 0x1d
 1553 0610 62000000 		.4byte	.LBB37
 1554 0614 1C000000 		.4byte	.LBE37-.LBB37
 1555 0618 1E       		.uleb128 0x1e
 1556 0619 DB040000 		.4byte	0x4db
 1557 061d 6F010000 		.4byte	.LLST9
 1558 0621 00       		.byte	0
 1559 0622 00       		.byte	0
 1560 0623 1A       		.uleb128 0x1a
 1561 0624 9F040000 		.4byte	0x49f
 1562 0628 8A000000 		.4byte	.LBB38
 1563 062c 30000000 		.4byte	.Ldebug_ranges0+0x30
 1564 0630 01       		.byte	0x1
 1565 0631 A7       		.byte	0xa7
 1566 0632 40060000 		.4byte	0x640
 1567 0636 1B       		.uleb128 0x1b
 1568 0637 AF040000 		.4byte	0x4af
 1569 063b 8D010000 		.4byte	.LLST10
 1570 063f 00       		.byte	0
 1571 0640 1F       		.uleb128 0x1f
 1572 0641 8A000000 		.4byte	.LVL15
 1573 0645 E7090000 		.4byte	0x9e7
 1574 0649 53060000 		.4byte	0x653
 1575 064d 20       		.uleb128 0x20
 1576 064e 01       		.uleb128 0x1
 1577 064f 50       		.byte	0x50
 1578 0650 01       		.uleb128 0x1
 1579 0651 34       		.byte	0x34
 1580 0652 00       		.byte	0
 1581 0653 21       		.uleb128 0x21
 1582 0654 9A000000 		.4byte	.LVL16
 1583 0658 F8090000 		.4byte	0x9f8
 1584 065c 00       		.byte	0
 1585 065d 00       		.byte	0
 1586 065e 15       		.uleb128 0x15
 1587 065f 6A010000 		.4byte	.LASF66
 1588 0663 01       		.byte	0x1
 1589 0664 67       		.byte	0x67
 1590 0665 B0000000 		.4byte	.LFB8
 1591 0669 14000000 		.4byte	.LFE8-.LFB8
 1592 066d 01       		.uleb128 0x1
ARM GAS  /tmp/ccnBwL80.s 			page 29


 1593 066e 9C       		.byte	0x9c
 1594 066f C9060000 		.4byte	0x6c9
 1595 0673 17       		.uleb128 0x17
 1596 0674 6D7000   		.ascii	"mp\000"
 1597 0677 01       		.byte	0x1
 1598 0678 67       		.byte	0x67
 1599 0679 99040000 		.4byte	0x499
 1600 067d A0010000 		.4byte	.LLST11
 1601 0681 22       		.uleb128 0x22
 1602 0682 B2000000 		.4byte	.LBB43
 1603 0686 06000000 		.4byte	.LBE43-.LBB43
 1604 068a 9C060000 		.4byte	0x69c
 1605 068e 23       		.uleb128 0x23
 1606 068f 746D7000 		.ascii	"tmp\000"
 1607 0693 01       		.byte	0x1
 1608 0694 69       		.byte	0x69
 1609 0695 9E000000 		.4byte	0x9e
 1610 0699 01       		.uleb128 0x1
 1611 069a 53       		.byte	0x53
 1612 069b 00       		.byte	0
 1613 069c 22       		.uleb128 0x22
 1614 069d BC000000 		.4byte	.LBB44
 1615 06a1 08000000 		.4byte	.LBE44-.LBB44
 1616 06a5 B7060000 		.4byte	0x6b7
 1617 06a9 23       		.uleb128 0x23
 1618 06aa 746D7000 		.ascii	"tmp\000"
 1619 06ae 01       		.byte	0x1
 1620 06af 6D       		.byte	0x6d
 1621 06b0 9E000000 		.4byte	0x9e
 1622 06b4 01       		.uleb128 0x1
 1623 06b5 53       		.byte	0x53
 1624 06b6 00       		.byte	0
 1625 06b7 24       		.uleb128 0x24
 1626 06b8 BC000000 		.4byte	.LVL20
 1627 06bc 4F050000 		.4byte	0x54f
 1628 06c0 20       		.uleb128 0x20
 1629 06c1 01       		.uleb128 0x1
 1630 06c2 50       		.byte	0x50
 1631 06c3 03       		.uleb128 0x3
 1632 06c4 F3       		.byte	0xf3
 1633 06c5 01       		.uleb128 0x1
 1634 06c6 50       		.byte	0x50
 1635 06c7 00       		.byte	0
 1636 06c8 00       		.byte	0
 1637 06c9 25       		.uleb128 0x25
 1638 06ca 4E010000 		.4byte	.LASF67
 1639 06ce 01       		.byte	0x1
 1640 06cf CE       		.byte	0xce
 1641 06d0 A9000000 		.4byte	0xa9
 1642 06d4 D0000000 		.4byte	.LFB10
 1643 06d8 30000000 		.4byte	.LFE10-.LFB10
 1644 06dc 01       		.uleb128 0x1
 1645 06dd 9C       		.byte	0x9c
 1646 06de 56070000 		.4byte	0x756
 1647 06e2 17       		.uleb128 0x17
 1648 06e3 6D7000   		.ascii	"mp\000"
 1649 06e6 01       		.byte	0x1
ARM GAS  /tmp/ccnBwL80.s 			page 30


 1650 06e7 CE       		.byte	0xce
 1651 06e8 99040000 		.4byte	0x499
 1652 06ec C1010000 		.4byte	.LLST12
 1653 06f0 13       		.uleb128 0x13
 1654 06f1 6200     		.ascii	"b\000"
 1655 06f3 01       		.byte	0x1
 1656 06f4 CF       		.byte	0xcf
 1657 06f5 A9000000 		.4byte	0xa9
 1658 06f9 22       		.uleb128 0x22
 1659 06fa D2000000 		.4byte	.LBB51
 1660 06fe 06000000 		.4byte	.LBE51-.LBB51
 1661 0702 14070000 		.4byte	0x714
 1662 0706 23       		.uleb128 0x23
 1663 0707 746D7000 		.ascii	"tmp\000"
 1664 070b 01       		.byte	0x1
 1665 070c D1       		.byte	0xd1
 1666 070d 9E000000 		.4byte	0x9e
 1667 0711 01       		.uleb128 0x1
 1668 0712 53       		.byte	0x53
 1669 0713 00       		.byte	0
 1670 0714 1A       		.uleb128 0x1a
 1671 0715 EC040000 		.4byte	0x4ec
 1672 0719 D8000000 		.4byte	.LBB52
 1673 071d 48000000 		.4byte	.Ldebug_ranges0+0x48
 1674 0721 01       		.byte	0x1
 1675 0722 D3       		.byte	0xd3
 1676 0723 42070000 		.4byte	0x742
 1677 0727 1B       		.uleb128 0x1b
 1678 0728 FC040000 		.4byte	0x4fc
 1679 072c DF010000 		.4byte	.LLST13
 1680 0730 1D       		.uleb128 0x1d
 1681 0731 E6000000 		.4byte	.LBB54
 1682 0735 0E000000 		.4byte	.LBE54-.LBB54
 1683 0739 26       		.uleb128 0x26
 1684 073a FC040000 		.4byte	0x4fc
 1685 073e 01       		.uleb128 0x1
 1686 073f 52       		.byte	0x52
 1687 0740 00       		.byte	0
 1688 0741 00       		.byte	0
 1689 0742 19       		.uleb128 0x19
 1690 0743 60000000 		.4byte	.Ldebug_ranges0+0x60
 1691 0747 23       		.uleb128 0x23
 1692 0748 746D7000 		.ascii	"tmp\000"
 1693 074c 01       		.byte	0x1
 1694 074d D5       		.byte	0xd5
 1695 074e 9E000000 		.4byte	0x9e
 1696 0752 01       		.uleb128 0x1
 1697 0753 53       		.byte	0x53
 1698 0754 00       		.byte	0
 1699 0755 00       		.byte	0
 1700 0756 27       		.uleb128 0x27
 1701 0757 EC040000 		.4byte	0x4ec
 1702 075b 00010000 		.4byte	.LFB11
 1703 075f 20000000 		.4byte	.LFE11-.LFB11
 1704 0763 01       		.uleb128 0x1
 1705 0764 9C       		.byte	0x9c
 1706 0765 86070000 		.4byte	0x786
ARM GAS  /tmp/ccnBwL80.s 			page 31


 1707 0769 1B       		.uleb128 0x1b
 1708 076a FC040000 		.4byte	0x4fc
 1709 076e FD010000 		.4byte	.LLST14
 1710 0772 1D       		.uleb128 0x1d
 1711 0773 0A010000 		.4byte	.LBB62
 1712 0777 16000000 		.4byte	.LBE62-.LBB62
 1713 077b 1B       		.uleb128 0x1b
 1714 077c FC040000 		.4byte	0x4fc
 1715 0780 31020000 		.4byte	.LLST15
 1716 0784 00       		.byte	0
 1717 0785 00       		.byte	0
 1718 0786 28       		.uleb128 0x28
 1719 0787 2E000000 		.4byte	.LASF68
 1720 078b 01       		.byte	0x1
 1721 078c 0101     		.2byte	0x101
 1722 078e 99040000 		.4byte	0x499
 1723 0792 20010000 		.4byte	.LFB12
 1724 0796 64000000 		.4byte	.LFE12-.LFB12
 1725 079a 01       		.uleb128 0x1
 1726 079b 9C       		.byte	0x9c
 1727 079c 6B080000 		.4byte	0x86b
 1728 07a0 29       		.uleb128 0x29
 1729 07a1 63747000 		.ascii	"ctp\000"
 1730 07a5 01       		.byte	0x1
 1731 07a6 0201     		.2byte	0x102
 1732 07a8 02020000 		.4byte	0x202
 1733 07ac 4F020000 		.4byte	.LLST16
 1734 07b0 29       		.uleb128 0x29
 1735 07b1 756D7000 		.ascii	"ump\000"
 1736 07b5 01       		.byte	0x1
 1737 07b6 0301     		.2byte	0x103
 1738 07b8 99040000 		.4byte	0x499
 1739 07bc 79020000 		.4byte	.LLST17
 1740 07c0 29       		.uleb128 0x29
 1741 07c1 6D7000   		.ascii	"mp\000"
 1742 07c4 01       		.byte	0x1
 1743 07c5 0301     		.2byte	0x103
 1744 07c7 99040000 		.4byte	0x499
 1745 07cb 97020000 		.4byte	.LLST18
 1746 07cf 22       		.uleb128 0x22
 1747 07d0 26010000 		.4byte	.LBB64
 1748 07d4 06000000 		.4byte	.LBE64-.LBB64
 1749 07d8 EB070000 		.4byte	0x7eb
 1750 07dc 2A       		.uleb128 0x2a
 1751 07dd 746D7000 		.ascii	"tmp\000"
 1752 07e1 01       		.byte	0x1
 1753 07e2 0501     		.2byte	0x105
 1754 07e4 9E000000 		.4byte	0x9e
 1755 07e8 01       		.uleb128 0x1
 1756 07e9 53       		.byte	0x53
 1757 07ea 00       		.byte	0
 1758 07eb 22       		.uleb128 0x22
 1759 07ec 38010000 		.4byte	.LBB65
 1760 07f0 30000000 		.4byte	.LBE65-.LBB65
 1761 07f4 56080000 		.4byte	0x856
 1762 07f8 2B       		.uleb128 0x2b
 1763 07f9 747000   		.ascii	"tp\000"
ARM GAS  /tmp/ccnBwL80.s 			page 32


 1764 07fc 01       		.byte	0x1
 1765 07fd 1201     		.2byte	0x112
 1766 07ff 02020000 		.4byte	0x202
 1767 0803 2C       		.uleb128 0x2c
 1768 0804 26010000 		.4byte	.LASF69
 1769 0808 01       		.byte	0x1
 1770 0809 1601     		.2byte	0x116
 1771 080b DC000000 		.4byte	0xdc
 1772 080f AA020000 		.4byte	.LLST19
 1773 0813 2D       		.uleb128 0x2d
 1774 0814 07050000 		.4byte	0x507
 1775 0818 50010000 		.4byte	.LBB66
 1776 081c 78000000 		.4byte	.Ldebug_ranges0+0x78
 1777 0820 01       		.byte	0x1
 1778 0821 2501     		.2byte	0x125
 1779 0823 40080000 		.4byte	0x840
 1780 0827 1B       		.uleb128 0x1b
 1781 0828 17050000 		.4byte	0x517
 1782 082c BD020000 		.4byte	.LLST20
 1783 0830 19       		.uleb128 0x19
 1784 0831 78000000 		.4byte	.Ldebug_ranges0+0x78
 1785 0835 1E       		.uleb128 0x1e
 1786 0836 22050000 		.4byte	0x522
 1787 083a D0020000 		.4byte	.LLST21
 1788 083e 00       		.byte	0
 1789 083f 00       		.byte	0
 1790 0840 24       		.uleb128 0x24
 1791 0841 68010000 		.4byte	.LVL38
 1792 0845 0D0A0000 		.4byte	0xa0d
 1793 0849 20       		.uleb128 0x20
 1794 084a 01       		.uleb128 0x1
 1795 084b 51       		.byte	0x51
 1796 084c 01       		.uleb128 0x1
 1797 084d 30       		.byte	0x30
 1798 084e 20       		.uleb128 0x20
 1799 084f 01       		.uleb128 0x1
 1800 0850 50       		.byte	0x50
 1801 0851 02       		.uleb128 0x2
 1802 0852 75       		.byte	0x75
 1803 0853 00       		.sleb128 0
 1804 0854 00       		.byte	0
 1805 0855 00       		.byte	0
 1806 0856 19       		.uleb128 0x19
 1807 0857 98000000 		.4byte	.Ldebug_ranges0+0x98
 1808 085b 2A       		.uleb128 0x2a
 1809 085c 746D7000 		.ascii	"tmp\000"
 1810 0860 01       		.byte	0x1
 1811 0861 2D01     		.2byte	0x12d
 1812 0863 9E000000 		.4byte	0x9e
 1813 0867 01       		.uleb128 0x1
 1814 0868 53       		.byte	0x53
 1815 0869 00       		.byte	0
 1816 086a 00       		.byte	0
 1817 086b 28       		.uleb128 0x28
 1818 086c CA000000 		.4byte	.LASF70
 1819 0870 01       		.byte	0x1
 1820 0871 3D01     		.2byte	0x13d
ARM GAS  /tmp/ccnBwL80.s 			page 33


 1821 0873 99040000 		.4byte	0x499
 1822 0877 90010000 		.4byte	.LFB13
 1823 087b 50000000 		.4byte	.LFE13-.LFB13
 1824 087f 01       		.uleb128 0x1
 1825 0880 9C       		.byte	0x9c
 1826 0881 17090000 		.4byte	0x917
 1827 0885 29       		.uleb128 0x29
 1828 0886 63747000 		.ascii	"ctp\000"
 1829 088a 01       		.byte	0x1
 1830 088b 3E01     		.2byte	0x13e
 1831 088d 02020000 		.4byte	0x202
 1832 0891 E3020000 		.4byte	.LLST22
 1833 0895 29       		.uleb128 0x29
 1834 0896 756D7000 		.ascii	"ump\000"
 1835 089a 01       		.byte	0x1
 1836 089b 3F01     		.2byte	0x13f
 1837 089d 99040000 		.4byte	0x499
 1838 08a1 01030000 		.4byte	.LLST23
 1839 08a5 29       		.uleb128 0x29
 1840 08a6 6D7000   		.ascii	"mp\000"
 1841 08a9 01       		.byte	0x1
 1842 08aa 3F01     		.2byte	0x13f
 1843 08ac 99040000 		.4byte	0x499
 1844 08b0 1F030000 		.4byte	.LLST24
 1845 08b4 1D       		.uleb128 0x1d
 1846 08b5 A2010000 		.4byte	.LBB74
 1847 08b9 2E000000 		.4byte	.LBE74-.LBB74
 1848 08bd 2B       		.uleb128 0x2b
 1849 08be 747000   		.ascii	"tp\000"
 1850 08c1 01       		.byte	0x1
 1851 08c2 4F01     		.2byte	0x14f
 1852 08c4 02020000 		.4byte	0x202
 1853 08c8 2C       		.uleb128 0x2c
 1854 08c9 26010000 		.4byte	.LASF69
 1855 08cd 01       		.byte	0x1
 1856 08ce 5301     		.2byte	0x153
 1857 08d0 DC000000 		.4byte	0xdc
 1858 08d4 32030000 		.4byte	.LLST25
 1859 08d8 2D       		.uleb128 0x2d
 1860 08d9 07050000 		.4byte	0x507
 1861 08dd BA010000 		.4byte	.LBB75
 1862 08e1 B0000000 		.4byte	.Ldebug_ranges0+0xb0
 1863 08e5 01       		.byte	0x1
 1864 08e6 6001     		.2byte	0x160
 1865 08e8 05090000 		.4byte	0x905
 1866 08ec 1B       		.uleb128 0x1b
 1867 08ed 17050000 		.4byte	0x517
 1868 08f1 45030000 		.4byte	.LLST26
 1869 08f5 19       		.uleb128 0x19
 1870 08f6 B0000000 		.4byte	.Ldebug_ranges0+0xb0
 1871 08fa 1E       		.uleb128 0x1e
 1872 08fb 22050000 		.4byte	0x522
 1873 08ff 58030000 		.4byte	.LLST27
 1874 0903 00       		.byte	0
 1875 0904 00       		.byte	0
 1876 0905 24       		.uleb128 0x24
 1877 0906 D0010000 		.4byte	.LVL50
ARM GAS  /tmp/ccnBwL80.s 			page 34


 1878 090a F8090000 		.4byte	0x9f8
 1879 090e 20       		.uleb128 0x20
 1880 090f 01       		.uleb128 0x1
 1881 0910 50       		.byte	0x50
 1882 0911 02       		.uleb128 0x2
 1883 0912 75       		.byte	0x75
 1884 0913 00       		.sleb128 0
 1885 0914 00       		.byte	0
 1886 0915 00       		.byte	0
 1887 0916 00       		.byte	0
 1888 0917 2E       		.uleb128 0x2e
 1889 0918 17010000 		.4byte	.LASF71
 1890 091c 01       		.byte	0x1
 1891 091d 7601     		.2byte	0x176
 1892 091f E0010000 		.4byte	.LFB14
 1893 0923 54000000 		.4byte	.LFE14-.LFB14
 1894 0927 01       		.uleb128 0x1
 1895 0928 9C       		.byte	0x9c
 1896 0929 DC090000 		.4byte	0x9dc
 1897 092d 29       		.uleb128 0x29
 1898 092e 63747000 		.ascii	"ctp\000"
 1899 0932 01       		.byte	0x1
 1900 0933 7701     		.2byte	0x177
 1901 0935 02020000 		.4byte	0x202
 1902 0939 6B030000 		.4byte	.LLST28
 1903 093d 2F       		.uleb128 0x2f
 1904 093e D0000000 		.4byte	.Ldebug_ranges0+0xd0
 1905 0942 55090000 		.4byte	0x955
 1906 0946 2A       		.uleb128 0x2a
 1907 0947 746D7000 		.ascii	"tmp\000"
 1908 094b 01       		.byte	0x1
 1909 094c 7901     		.2byte	0x179
 1910 094e 9E000000 		.4byte	0x9e
 1911 0952 01       		.uleb128 0x1
 1912 0953 53       		.byte	0x53
 1913 0954 00       		.byte	0
 1914 0955 2F       		.uleb128 0x2f
 1915 0956 E8000000 		.4byte	.Ldebug_ranges0+0xe8
 1916 095a B6090000 		.4byte	0x9b6
 1917 095e 29       		.uleb128 0x29
 1918 095f 756D7000 		.ascii	"ump\000"
 1919 0963 01       		.byte	0x1
 1920 0964 7C01     		.2byte	0x17c
 1921 0966 99040000 		.4byte	0x499
 1922 096a 7E030000 		.4byte	.LLST29
 1923 096e 19       		.uleb128 0x19
 1924 096f 00010000 		.4byte	.Ldebug_ranges0+0x100
 1925 0973 2B       		.uleb128 0x2b
 1926 0974 747000   		.ascii	"tp\000"
 1927 0977 01       		.byte	0x1
 1928 0978 7F01     		.2byte	0x17f
 1929 097a 02020000 		.4byte	0x202
 1930 097e 2D       		.uleb128 0x2d
 1931 097f 07050000 		.4byte	0x507
 1932 0983 F4010000 		.4byte	.LBB85
 1933 0987 18010000 		.4byte	.Ldebug_ranges0+0x118
 1934 098b 01       		.byte	0x1
ARM GAS  /tmp/ccnBwL80.s 			page 35


 1935 098c 7F01     		.2byte	0x17f
 1936 098e AB090000 		.4byte	0x9ab
 1937 0992 1B       		.uleb128 0x1b
 1938 0993 17050000 		.4byte	0x517
 1939 0997 7E030000 		.4byte	.LLST29
 1940 099b 19       		.uleb128 0x19
 1941 099c 18010000 		.4byte	.Ldebug_ranges0+0x118
 1942 09a0 1E       		.uleb128 0x1e
 1943 09a1 22050000 		.4byte	0x522
 1944 09a5 9C030000 		.4byte	.LLST31
 1945 09a9 00       		.byte	0
 1946 09aa 00       		.byte	0
 1947 09ab 21       		.uleb128 0x21
 1948 09ac 06020000 		.4byte	.LVL56
 1949 09b0 F8090000 		.4byte	0x9f8
 1950 09b4 00       		.byte	0
 1951 09b5 00       		.byte	0
 1952 09b6 22       		.uleb128 0x22
 1953 09b7 26020000 		.4byte	.LBB91
 1954 09bb 0E000000 		.4byte	.LBE91-.LBB91
 1955 09bf D2090000 		.4byte	0x9d2
 1956 09c3 2A       		.uleb128 0x2a
 1957 09c4 746D7000 		.ascii	"tmp\000"
 1958 09c8 01       		.byte	0x1
 1959 09c9 8B01     		.2byte	0x18b
 1960 09cb 9E000000 		.4byte	0x9e
 1961 09cf 01       		.uleb128 0x1
 1962 09d0 53       		.byte	0x53
 1963 09d1 00       		.byte	0
 1964 09d2 21       		.uleb128 0x21
 1965 09d3 26020000 		.4byte	.LVL61
 1966 09d7 230A0000 		.4byte	0xa23
 1967 09db 00       		.byte	0
 1968 09dc 30       		.uleb128 0x30
 1969 09dd 10030000 		.4byte	.LASF79
 1970 09e1 09       		.byte	0x9
 1971 09e2 6F       		.byte	0x6f
 1972 09e3 05040000 		.4byte	0x405
 1973 09e7 31       		.uleb128 0x31
 1974 09e8 1E020000 		.4byte	.LASF74
 1975 09ec 09       		.byte	0x9
 1976 09ed 93       		.byte	0x93
 1977 09ee F8090000 		.4byte	0x9f8
 1978 09f2 32       		.uleb128 0x32
 1979 09f3 C6000000 		.4byte	0xc6
 1980 09f7 00       		.byte	0
 1981 09f8 33       		.uleb128 0x33
 1982 09f9 59020000 		.4byte	.LASF73
 1983 09fd 09       		.byte	0x9
 1984 09fe 90       		.byte	0x90
 1985 09ff 02020000 		.4byte	0x202
 1986 0a03 0D0A0000 		.4byte	0xa0d
 1987 0a07 32       		.uleb128 0x32
 1988 0a08 02020000 		.4byte	0x202
 1989 0a0c 00       		.byte	0
 1990 0a0d 31       		.uleb128 0x31
 1991 0a0e E8020000 		.4byte	.LASF75
ARM GAS  /tmp/ccnBwL80.s 			page 36


 1992 0a12 09       		.byte	0x9
 1993 0a13 99       		.byte	0x99
 1994 0a14 230A0000 		.4byte	0xa23
 1995 0a18 32       		.uleb128 0x32
 1996 0a19 02020000 		.4byte	0x202
 1997 0a1d 32       		.uleb128 0x32
 1998 0a1e E7000000 		.4byte	0xe7
 1999 0a22 00       		.byte	0
 2000 0a23 34       		.uleb128 0x34
 2001 0a24 A5000000 		.4byte	.LASF80
 2002 0a28 09       		.byte	0x9
 2003 0a29 9C       		.byte	0x9c
 2004 0a2a 00       		.byte	0
 2005              		.section	.debug_abbrev,"",%progbits
 2006              	.Ldebug_abbrev0:
 2007 0000 01       		.uleb128 0x1
 2008 0001 11       		.uleb128 0x11
 2009 0002 01       		.byte	0x1
 2010 0003 25       		.uleb128 0x25
 2011 0004 0E       		.uleb128 0xe
 2012 0005 13       		.uleb128 0x13
 2013 0006 0B       		.uleb128 0xb
 2014 0007 03       		.uleb128 0x3
 2015 0008 0E       		.uleb128 0xe
 2016 0009 11       		.uleb128 0x11
 2017 000a 01       		.uleb128 0x1
 2018 000b 12       		.uleb128 0x12
 2019 000c 06       		.uleb128 0x6
 2020 000d 10       		.uleb128 0x10
 2021 000e 17       		.uleb128 0x17
 2022 000f 00       		.byte	0
 2023 0010 00       		.byte	0
 2024 0011 02       		.uleb128 0x2
 2025 0012 24       		.uleb128 0x24
 2026 0013 00       		.byte	0
 2027 0014 0B       		.uleb128 0xb
 2028 0015 0B       		.uleb128 0xb
 2029 0016 3E       		.uleb128 0x3e
 2030 0017 0B       		.uleb128 0xb
 2031 0018 03       		.uleb128 0x3
 2032 0019 08       		.uleb128 0x8
 2033 001a 00       		.byte	0
 2034 001b 00       		.byte	0
 2035 001c 03       		.uleb128 0x3
 2036 001d 24       		.uleb128 0x24
 2037 001e 00       		.byte	0
 2038 001f 0B       		.uleb128 0xb
 2039 0020 0B       		.uleb128 0xb
 2040 0021 3E       		.uleb128 0x3e
 2041 0022 0B       		.uleb128 0xb
 2042 0023 03       		.uleb128 0x3
 2043 0024 0E       		.uleb128 0xe
 2044 0025 00       		.byte	0
 2045 0026 00       		.byte	0
 2046 0027 04       		.uleb128 0x4
 2047 0028 16       		.uleb128 0x16
 2048 0029 00       		.byte	0
ARM GAS  /tmp/ccnBwL80.s 			page 37


 2049 002a 03       		.uleb128 0x3
 2050 002b 0E       		.uleb128 0xe
 2051 002c 3A       		.uleb128 0x3a
 2052 002d 0B       		.uleb128 0xb
 2053 002e 3B       		.uleb128 0x3b
 2054 002f 0B       		.uleb128 0xb
 2055 0030 49       		.uleb128 0x49
 2056 0031 13       		.uleb128 0x13
 2057 0032 00       		.byte	0
 2058 0033 00       		.byte	0
 2059 0034 05       		.uleb128 0x5
 2060 0035 13       		.uleb128 0x13
 2061 0036 01       		.byte	0x1
 2062 0037 03       		.uleb128 0x3
 2063 0038 0E       		.uleb128 0xe
 2064 0039 0B       		.uleb128 0xb
 2065 003a 0B       		.uleb128 0xb
 2066 003b 3A       		.uleb128 0x3a
 2067 003c 0B       		.uleb128 0xb
 2068 003d 3B       		.uleb128 0x3b
 2069 003e 0B       		.uleb128 0xb
 2070 003f 01       		.uleb128 0x1
 2071 0040 13       		.uleb128 0x13
 2072 0041 00       		.byte	0
 2073 0042 00       		.byte	0
 2074 0043 06       		.uleb128 0x6
 2075 0044 0D       		.uleb128 0xd
 2076 0045 00       		.byte	0
 2077 0046 03       		.uleb128 0x3
 2078 0047 0E       		.uleb128 0xe
 2079 0048 3A       		.uleb128 0x3a
 2080 0049 0B       		.uleb128 0xb
 2081 004a 3B       		.uleb128 0x3b
 2082 004b 0B       		.uleb128 0xb
 2083 004c 49       		.uleb128 0x49
 2084 004d 13       		.uleb128 0x13
 2085 004e 38       		.uleb128 0x38
 2086 004f 0B       		.uleb128 0xb
 2087 0050 00       		.byte	0
 2088 0051 00       		.byte	0
 2089 0052 07       		.uleb128 0x7
 2090 0053 0D       		.uleb128 0xd
 2091 0054 00       		.byte	0
 2092 0055 03       		.uleb128 0x3
 2093 0056 08       		.uleb128 0x8
 2094 0057 3A       		.uleb128 0x3a
 2095 0058 0B       		.uleb128 0xb
 2096 0059 3B       		.uleb128 0x3b
 2097 005a 0B       		.uleb128 0xb
 2098 005b 49       		.uleb128 0x49
 2099 005c 13       		.uleb128 0x13
 2100 005d 38       		.uleb128 0x38
 2101 005e 0B       		.uleb128 0xb
 2102 005f 00       		.byte	0
 2103 0060 00       		.byte	0
 2104 0061 08       		.uleb128 0x8
 2105 0062 13       		.uleb128 0x13
ARM GAS  /tmp/ccnBwL80.s 			page 38


 2106 0063 01       		.byte	0x1
 2107 0064 0B       		.uleb128 0xb
 2108 0065 0B       		.uleb128 0xb
 2109 0066 3A       		.uleb128 0x3a
 2110 0067 0B       		.uleb128 0xb
 2111 0068 3B       		.uleb128 0x3b
 2112 0069 0B       		.uleb128 0xb
 2113 006a 01       		.uleb128 0x1
 2114 006b 13       		.uleb128 0x13
 2115 006c 00       		.byte	0
 2116 006d 00       		.byte	0
 2117 006e 09       		.uleb128 0x9
 2118 006f 0F       		.uleb128 0xf
 2119 0070 00       		.byte	0
 2120 0071 0B       		.uleb128 0xb
 2121 0072 0B       		.uleb128 0xb
 2122 0073 49       		.uleb128 0x49
 2123 0074 13       		.uleb128 0x13
 2124 0075 00       		.byte	0
 2125 0076 00       		.byte	0
 2126 0077 0A       		.uleb128 0xa
 2127 0078 0F       		.uleb128 0xf
 2128 0079 00       		.byte	0
 2129 007a 0B       		.uleb128 0xb
 2130 007b 0B       		.uleb128 0xb
 2131 007c 00       		.byte	0
 2132 007d 00       		.byte	0
 2133 007e 0B       		.uleb128 0xb
 2134 007f 13       		.uleb128 0x13
 2135 0080 01       		.byte	0x1
 2136 0081 03       		.uleb128 0x3
 2137 0082 0E       		.uleb128 0xe
 2138 0083 0B       		.uleb128 0xb
 2139 0084 0B       		.uleb128 0xb
 2140 0085 3A       		.uleb128 0x3a
 2141 0086 0B       		.uleb128 0xb
 2142 0087 3B       		.uleb128 0x3b
 2143 0088 05       		.uleb128 0x5
 2144 0089 01       		.uleb128 0x1
 2145 008a 13       		.uleb128 0x13
 2146 008b 00       		.byte	0
 2147 008c 00       		.byte	0
 2148 008d 0C       		.uleb128 0xc
 2149 008e 0D       		.uleb128 0xd
 2150 008f 00       		.byte	0
 2151 0090 03       		.uleb128 0x3
 2152 0091 08       		.uleb128 0x8
 2153 0092 3A       		.uleb128 0x3a
 2154 0093 0B       		.uleb128 0xb
 2155 0094 3B       		.uleb128 0x3b
 2156 0095 05       		.uleb128 0x5
 2157 0096 49       		.uleb128 0x49
 2158 0097 13       		.uleb128 0x13
 2159 0098 38       		.uleb128 0x38
 2160 0099 0B       		.uleb128 0xb
 2161 009a 00       		.byte	0
 2162 009b 00       		.byte	0
ARM GAS  /tmp/ccnBwL80.s 			page 39


 2163 009c 0D       		.uleb128 0xd
 2164 009d 17       		.uleb128 0x17
 2165 009e 01       		.byte	0x1
 2166 009f 0B       		.uleb128 0xb
 2167 00a0 0B       		.uleb128 0xb
 2168 00a1 3A       		.uleb128 0x3a
 2169 00a2 0B       		.uleb128 0xb
 2170 00a3 3B       		.uleb128 0x3b
 2171 00a4 0B       		.uleb128 0xb
 2172 00a5 01       		.uleb128 0x1
 2173 00a6 13       		.uleb128 0x13
 2174 00a7 00       		.byte	0
 2175 00a8 00       		.byte	0
 2176 00a9 0E       		.uleb128 0xe
 2177 00aa 0D       		.uleb128 0xd
 2178 00ab 00       		.byte	0
 2179 00ac 03       		.uleb128 0x3
 2180 00ad 0E       		.uleb128 0xe
 2181 00ae 3A       		.uleb128 0x3a
 2182 00af 0B       		.uleb128 0xb
 2183 00b0 3B       		.uleb128 0x3b
 2184 00b1 0B       		.uleb128 0xb
 2185 00b2 49       		.uleb128 0x49
 2186 00b3 13       		.uleb128 0x13
 2187 00b4 00       		.byte	0
 2188 00b5 00       		.byte	0
 2189 00b6 0F       		.uleb128 0xf
 2190 00b7 26       		.uleb128 0x26
 2191 00b8 00       		.byte	0
 2192 00b9 49       		.uleb128 0x49
 2193 00ba 13       		.uleb128 0x13
 2194 00bb 00       		.byte	0
 2195 00bc 00       		.byte	0
 2196 00bd 10       		.uleb128 0x10
 2197 00be 2E       		.uleb128 0x2e
 2198 00bf 01       		.byte	0x1
 2199 00c0 03       		.uleb128 0x3
 2200 00c1 0E       		.uleb128 0xe
 2201 00c2 3A       		.uleb128 0x3a
 2202 00c3 0B       		.uleb128 0xb
 2203 00c4 3B       		.uleb128 0x3b
 2204 00c5 0B       		.uleb128 0xb
 2205 00c6 27       		.uleb128 0x27
 2206 00c7 19       		.uleb128 0x19
 2207 00c8 49       		.uleb128 0x49
 2208 00c9 13       		.uleb128 0x13
 2209 00ca 20       		.uleb128 0x20
 2210 00cb 0B       		.uleb128 0xb
 2211 00cc 01       		.uleb128 0x1
 2212 00cd 13       		.uleb128 0x13
 2213 00ce 00       		.byte	0
 2214 00cf 00       		.byte	0
 2215 00d0 11       		.uleb128 0x11
 2216 00d1 05       		.uleb128 0x5
 2217 00d2 00       		.byte	0
 2218 00d3 03       		.uleb128 0x3
 2219 00d4 08       		.uleb128 0x8
ARM GAS  /tmp/ccnBwL80.s 			page 40


 2220 00d5 3A       		.uleb128 0x3a
 2221 00d6 0B       		.uleb128 0xb
 2222 00d7 3B       		.uleb128 0x3b
 2223 00d8 0B       		.uleb128 0xb
 2224 00d9 49       		.uleb128 0x49
 2225 00da 13       		.uleb128 0x13
 2226 00db 00       		.byte	0
 2227 00dc 00       		.byte	0
 2228 00dd 12       		.uleb128 0x12
 2229 00de 2E       		.uleb128 0x2e
 2230 00df 01       		.byte	0x1
 2231 00e0 03       		.uleb128 0x3
 2232 00e1 0E       		.uleb128 0xe
 2233 00e2 3A       		.uleb128 0x3a
 2234 00e3 0B       		.uleb128 0xb
 2235 00e4 3B       		.uleb128 0x3b
 2236 00e5 0B       		.uleb128 0xb
 2237 00e6 27       		.uleb128 0x27
 2238 00e7 19       		.uleb128 0x19
 2239 00e8 20       		.uleb128 0x20
 2240 00e9 0B       		.uleb128 0xb
 2241 00ea 01       		.uleb128 0x1
 2242 00eb 13       		.uleb128 0x13
 2243 00ec 00       		.byte	0
 2244 00ed 00       		.byte	0
 2245 00ee 13       		.uleb128 0x13
 2246 00ef 34       		.uleb128 0x34
 2247 00f0 00       		.byte	0
 2248 00f1 03       		.uleb128 0x3
 2249 00f2 08       		.uleb128 0x8
 2250 00f3 3A       		.uleb128 0x3a
 2251 00f4 0B       		.uleb128 0xb
 2252 00f5 3B       		.uleb128 0x3b
 2253 00f6 0B       		.uleb128 0xb
 2254 00f7 49       		.uleb128 0x49
 2255 00f8 13       		.uleb128 0x13
 2256 00f9 00       		.byte	0
 2257 00fa 00       		.byte	0
 2258 00fb 14       		.uleb128 0x14
 2259 00fc 2E       		.uleb128 0x2e
 2260 00fd 01       		.byte	0x1
 2261 00fe 3F       		.uleb128 0x3f
 2262 00ff 19       		.uleb128 0x19
 2263 0100 03       		.uleb128 0x3
 2264 0101 0E       		.uleb128 0xe
 2265 0102 3A       		.uleb128 0x3a
 2266 0103 0B       		.uleb128 0xb
 2267 0104 3B       		.uleb128 0x3b
 2268 0105 0B       		.uleb128 0xb
 2269 0106 27       		.uleb128 0x27
 2270 0107 19       		.uleb128 0x19
 2271 0108 49       		.uleb128 0x49
 2272 0109 13       		.uleb128 0x13
 2273 010a 20       		.uleb128 0x20
 2274 010b 0B       		.uleb128 0xb
 2275 010c 01       		.uleb128 0x1
 2276 010d 13       		.uleb128 0x13
ARM GAS  /tmp/ccnBwL80.s 			page 41


 2277 010e 00       		.byte	0
 2278 010f 00       		.byte	0
 2279 0110 15       		.uleb128 0x15
 2280 0111 2E       		.uleb128 0x2e
 2281 0112 01       		.byte	0x1
 2282 0113 3F       		.uleb128 0x3f
 2283 0114 19       		.uleb128 0x19
 2284 0115 03       		.uleb128 0x3
 2285 0116 0E       		.uleb128 0xe
 2286 0117 3A       		.uleb128 0x3a
 2287 0118 0B       		.uleb128 0xb
 2288 0119 3B       		.uleb128 0x3b
 2289 011a 0B       		.uleb128 0xb
 2290 011b 27       		.uleb128 0x27
 2291 011c 19       		.uleb128 0x19
 2292 011d 11       		.uleb128 0x11
 2293 011e 01       		.uleb128 0x1
 2294 011f 12       		.uleb128 0x12
 2295 0120 06       		.uleb128 0x6
 2296 0121 40       		.uleb128 0x40
 2297 0122 18       		.uleb128 0x18
 2298 0123 9742     		.uleb128 0x2117
 2299 0125 19       		.uleb128 0x19
 2300 0126 01       		.uleb128 0x1
 2301 0127 13       		.uleb128 0x13
 2302 0128 00       		.byte	0
 2303 0129 00       		.byte	0
 2304 012a 16       		.uleb128 0x16
 2305 012b 05       		.uleb128 0x5
 2306 012c 00       		.byte	0
 2307 012d 03       		.uleb128 0x3
 2308 012e 08       		.uleb128 0x8
 2309 012f 3A       		.uleb128 0x3a
 2310 0130 0B       		.uleb128 0xb
 2311 0131 3B       		.uleb128 0x3b
 2312 0132 0B       		.uleb128 0xb
 2313 0133 49       		.uleb128 0x49
 2314 0134 13       		.uleb128 0x13
 2315 0135 02       		.uleb128 0x2
 2316 0136 18       		.uleb128 0x18
 2317 0137 00       		.byte	0
 2318 0138 00       		.byte	0
 2319 0139 17       		.uleb128 0x17
 2320 013a 05       		.uleb128 0x5
 2321 013b 00       		.byte	0
 2322 013c 03       		.uleb128 0x3
 2323 013d 08       		.uleb128 0x8
 2324 013e 3A       		.uleb128 0x3a
 2325 013f 0B       		.uleb128 0xb
 2326 0140 3B       		.uleb128 0x3b
 2327 0141 0B       		.uleb128 0xb
 2328 0142 49       		.uleb128 0x49
 2329 0143 13       		.uleb128 0x13
 2330 0144 02       		.uleb128 0x2
 2331 0145 17       		.uleb128 0x17
 2332 0146 00       		.byte	0
 2333 0147 00       		.byte	0
ARM GAS  /tmp/ccnBwL80.s 			page 42


 2334 0148 18       		.uleb128 0x18
 2335 0149 34       		.uleb128 0x34
 2336 014a 00       		.byte	0
 2337 014b 03       		.uleb128 0x3
 2338 014c 08       		.uleb128 0x8
 2339 014d 3A       		.uleb128 0x3a
 2340 014e 0B       		.uleb128 0xb
 2341 014f 3B       		.uleb128 0x3b
 2342 0150 0B       		.uleb128 0xb
 2343 0151 49       		.uleb128 0x49
 2344 0152 13       		.uleb128 0x13
 2345 0153 02       		.uleb128 0x2
 2346 0154 17       		.uleb128 0x17
 2347 0155 00       		.byte	0
 2348 0156 00       		.byte	0
 2349 0157 19       		.uleb128 0x19
 2350 0158 0B       		.uleb128 0xb
 2351 0159 01       		.byte	0x1
 2352 015a 55       		.uleb128 0x55
 2353 015b 17       		.uleb128 0x17
 2354 015c 00       		.byte	0
 2355 015d 00       		.byte	0
 2356 015e 1A       		.uleb128 0x1a
 2357 015f 1D       		.uleb128 0x1d
 2358 0160 01       		.byte	0x1
 2359 0161 31       		.uleb128 0x31
 2360 0162 13       		.uleb128 0x13
 2361 0163 52       		.uleb128 0x52
 2362 0164 01       		.uleb128 0x1
 2363 0165 55       		.uleb128 0x55
 2364 0166 17       		.uleb128 0x17
 2365 0167 58       		.uleb128 0x58
 2366 0168 0B       		.uleb128 0xb
 2367 0169 59       		.uleb128 0x59
 2368 016a 0B       		.uleb128 0xb
 2369 016b 01       		.uleb128 0x1
 2370 016c 13       		.uleb128 0x13
 2371 016d 00       		.byte	0
 2372 016e 00       		.byte	0
 2373 016f 1B       		.uleb128 0x1b
 2374 0170 05       		.uleb128 0x5
 2375 0171 00       		.byte	0
 2376 0172 31       		.uleb128 0x31
 2377 0173 13       		.uleb128 0x13
 2378 0174 02       		.uleb128 0x2
 2379 0175 17       		.uleb128 0x17
 2380 0176 00       		.byte	0
 2381 0177 00       		.byte	0
 2382 0178 1C       		.uleb128 0x1c
 2383 0179 1D       		.uleb128 0x1d
 2384 017a 01       		.byte	0x1
 2385 017b 31       		.uleb128 0x31
 2386 017c 13       		.uleb128 0x13
 2387 017d 11       		.uleb128 0x11
 2388 017e 01       		.uleb128 0x1
 2389 017f 12       		.uleb128 0x12
 2390 0180 06       		.uleb128 0x6
ARM GAS  /tmp/ccnBwL80.s 			page 43


 2391 0181 58       		.uleb128 0x58
 2392 0182 0B       		.uleb128 0xb
 2393 0183 59       		.uleb128 0x59
 2394 0184 0B       		.uleb128 0xb
 2395 0185 01       		.uleb128 0x1
 2396 0186 13       		.uleb128 0x13
 2397 0187 00       		.byte	0
 2398 0188 00       		.byte	0
 2399 0189 1D       		.uleb128 0x1d
 2400 018a 0B       		.uleb128 0xb
 2401 018b 01       		.byte	0x1
 2402 018c 11       		.uleb128 0x11
 2403 018d 01       		.uleb128 0x1
 2404 018e 12       		.uleb128 0x12
 2405 018f 06       		.uleb128 0x6
 2406 0190 00       		.byte	0
 2407 0191 00       		.byte	0
 2408 0192 1E       		.uleb128 0x1e
 2409 0193 34       		.uleb128 0x34
 2410 0194 00       		.byte	0
 2411 0195 31       		.uleb128 0x31
 2412 0196 13       		.uleb128 0x13
 2413 0197 02       		.uleb128 0x2
 2414 0198 17       		.uleb128 0x17
 2415 0199 00       		.byte	0
 2416 019a 00       		.byte	0
 2417 019b 1F       		.uleb128 0x1f
 2418 019c 898201   		.uleb128 0x4109
 2419 019f 01       		.byte	0x1
 2420 01a0 11       		.uleb128 0x11
 2421 01a1 01       		.uleb128 0x1
 2422 01a2 9542     		.uleb128 0x2115
 2423 01a4 19       		.uleb128 0x19
 2424 01a5 31       		.uleb128 0x31
 2425 01a6 13       		.uleb128 0x13
 2426 01a7 01       		.uleb128 0x1
 2427 01a8 13       		.uleb128 0x13
 2428 01a9 00       		.byte	0
 2429 01aa 00       		.byte	0
 2430 01ab 20       		.uleb128 0x20
 2431 01ac 8A8201   		.uleb128 0x410a
 2432 01af 00       		.byte	0
 2433 01b0 02       		.uleb128 0x2
 2434 01b1 18       		.uleb128 0x18
 2435 01b2 9142     		.uleb128 0x2111
 2436 01b4 18       		.uleb128 0x18
 2437 01b5 00       		.byte	0
 2438 01b6 00       		.byte	0
 2439 01b7 21       		.uleb128 0x21
 2440 01b8 898201   		.uleb128 0x4109
 2441 01bb 00       		.byte	0
 2442 01bc 11       		.uleb128 0x11
 2443 01bd 01       		.uleb128 0x1
 2444 01be 31       		.uleb128 0x31
 2445 01bf 13       		.uleb128 0x13
 2446 01c0 00       		.byte	0
 2447 01c1 00       		.byte	0
ARM GAS  /tmp/ccnBwL80.s 			page 44


 2448 01c2 22       		.uleb128 0x22
 2449 01c3 0B       		.uleb128 0xb
 2450 01c4 01       		.byte	0x1
 2451 01c5 11       		.uleb128 0x11
 2452 01c6 01       		.uleb128 0x1
 2453 01c7 12       		.uleb128 0x12
 2454 01c8 06       		.uleb128 0x6
 2455 01c9 01       		.uleb128 0x1
 2456 01ca 13       		.uleb128 0x13
 2457 01cb 00       		.byte	0
 2458 01cc 00       		.byte	0
 2459 01cd 23       		.uleb128 0x23
 2460 01ce 34       		.uleb128 0x34
 2461 01cf 00       		.byte	0
 2462 01d0 03       		.uleb128 0x3
 2463 01d1 08       		.uleb128 0x8
 2464 01d2 3A       		.uleb128 0x3a
 2465 01d3 0B       		.uleb128 0xb
 2466 01d4 3B       		.uleb128 0x3b
 2467 01d5 0B       		.uleb128 0xb
 2468 01d6 49       		.uleb128 0x49
 2469 01d7 13       		.uleb128 0x13
 2470 01d8 02       		.uleb128 0x2
 2471 01d9 18       		.uleb128 0x18
 2472 01da 00       		.byte	0
 2473 01db 00       		.byte	0
 2474 01dc 24       		.uleb128 0x24
 2475 01dd 898201   		.uleb128 0x4109
 2476 01e0 01       		.byte	0x1
 2477 01e1 11       		.uleb128 0x11
 2478 01e2 01       		.uleb128 0x1
 2479 01e3 31       		.uleb128 0x31
 2480 01e4 13       		.uleb128 0x13
 2481 01e5 00       		.byte	0
 2482 01e6 00       		.byte	0
 2483 01e7 25       		.uleb128 0x25
 2484 01e8 2E       		.uleb128 0x2e
 2485 01e9 01       		.byte	0x1
 2486 01ea 3F       		.uleb128 0x3f
 2487 01eb 19       		.uleb128 0x19
 2488 01ec 03       		.uleb128 0x3
 2489 01ed 0E       		.uleb128 0xe
 2490 01ee 3A       		.uleb128 0x3a
 2491 01ef 0B       		.uleb128 0xb
 2492 01f0 3B       		.uleb128 0x3b
 2493 01f1 0B       		.uleb128 0xb
 2494 01f2 27       		.uleb128 0x27
 2495 01f3 19       		.uleb128 0x19
 2496 01f4 49       		.uleb128 0x49
 2497 01f5 13       		.uleb128 0x13
 2498 01f6 11       		.uleb128 0x11
 2499 01f7 01       		.uleb128 0x1
 2500 01f8 12       		.uleb128 0x12
 2501 01f9 06       		.uleb128 0x6
 2502 01fa 40       		.uleb128 0x40
 2503 01fb 18       		.uleb128 0x18
 2504 01fc 9742     		.uleb128 0x2117
ARM GAS  /tmp/ccnBwL80.s 			page 45


 2505 01fe 19       		.uleb128 0x19
 2506 01ff 01       		.uleb128 0x1
 2507 0200 13       		.uleb128 0x13
 2508 0201 00       		.byte	0
 2509 0202 00       		.byte	0
 2510 0203 26       		.uleb128 0x26
 2511 0204 05       		.uleb128 0x5
 2512 0205 00       		.byte	0
 2513 0206 31       		.uleb128 0x31
 2514 0207 13       		.uleb128 0x13
 2515 0208 02       		.uleb128 0x2
 2516 0209 18       		.uleb128 0x18
 2517 020a 00       		.byte	0
 2518 020b 00       		.byte	0
 2519 020c 27       		.uleb128 0x27
 2520 020d 2E       		.uleb128 0x2e
 2521 020e 01       		.byte	0x1
 2522 020f 31       		.uleb128 0x31
 2523 0210 13       		.uleb128 0x13
 2524 0211 11       		.uleb128 0x11
 2525 0212 01       		.uleb128 0x1
 2526 0213 12       		.uleb128 0x12
 2527 0214 06       		.uleb128 0x6
 2528 0215 40       		.uleb128 0x40
 2529 0216 18       		.uleb128 0x18
 2530 0217 9742     		.uleb128 0x2117
 2531 0219 19       		.uleb128 0x19
 2532 021a 01       		.uleb128 0x1
 2533 021b 13       		.uleb128 0x13
 2534 021c 00       		.byte	0
 2535 021d 00       		.byte	0
 2536 021e 28       		.uleb128 0x28
 2537 021f 2E       		.uleb128 0x2e
 2538 0220 01       		.byte	0x1
 2539 0221 3F       		.uleb128 0x3f
 2540 0222 19       		.uleb128 0x19
 2541 0223 03       		.uleb128 0x3
 2542 0224 0E       		.uleb128 0xe
 2543 0225 3A       		.uleb128 0x3a
 2544 0226 0B       		.uleb128 0xb
 2545 0227 3B       		.uleb128 0x3b
 2546 0228 05       		.uleb128 0x5
 2547 0229 27       		.uleb128 0x27
 2548 022a 19       		.uleb128 0x19
 2549 022b 49       		.uleb128 0x49
 2550 022c 13       		.uleb128 0x13
 2551 022d 11       		.uleb128 0x11
 2552 022e 01       		.uleb128 0x1
 2553 022f 12       		.uleb128 0x12
 2554 0230 06       		.uleb128 0x6
 2555 0231 40       		.uleb128 0x40
 2556 0232 18       		.uleb128 0x18
 2557 0233 9742     		.uleb128 0x2117
 2558 0235 19       		.uleb128 0x19
 2559 0236 01       		.uleb128 0x1
 2560 0237 13       		.uleb128 0x13
 2561 0238 00       		.byte	0
ARM GAS  /tmp/ccnBwL80.s 			page 46


 2562 0239 00       		.byte	0
 2563 023a 29       		.uleb128 0x29
 2564 023b 34       		.uleb128 0x34
 2565 023c 00       		.byte	0
 2566 023d 03       		.uleb128 0x3
 2567 023e 08       		.uleb128 0x8
 2568 023f 3A       		.uleb128 0x3a
 2569 0240 0B       		.uleb128 0xb
 2570 0241 3B       		.uleb128 0x3b
 2571 0242 05       		.uleb128 0x5
 2572 0243 49       		.uleb128 0x49
 2573 0244 13       		.uleb128 0x13
 2574 0245 02       		.uleb128 0x2
 2575 0246 17       		.uleb128 0x17
 2576 0247 00       		.byte	0
 2577 0248 00       		.byte	0
 2578 0249 2A       		.uleb128 0x2a
 2579 024a 34       		.uleb128 0x34
 2580 024b 00       		.byte	0
 2581 024c 03       		.uleb128 0x3
 2582 024d 08       		.uleb128 0x8
 2583 024e 3A       		.uleb128 0x3a
 2584 024f 0B       		.uleb128 0xb
 2585 0250 3B       		.uleb128 0x3b
 2586 0251 05       		.uleb128 0x5
 2587 0252 49       		.uleb128 0x49
 2588 0253 13       		.uleb128 0x13
 2589 0254 02       		.uleb128 0x2
 2590 0255 18       		.uleb128 0x18
 2591 0256 00       		.byte	0
 2592 0257 00       		.byte	0
 2593 0258 2B       		.uleb128 0x2b
 2594 0259 34       		.uleb128 0x34
 2595 025a 00       		.byte	0
 2596 025b 03       		.uleb128 0x3
 2597 025c 08       		.uleb128 0x8
 2598 025d 3A       		.uleb128 0x3a
 2599 025e 0B       		.uleb128 0xb
 2600 025f 3B       		.uleb128 0x3b
 2601 0260 05       		.uleb128 0x5
 2602 0261 49       		.uleb128 0x49
 2603 0262 13       		.uleb128 0x13
 2604 0263 00       		.byte	0
 2605 0264 00       		.byte	0
 2606 0265 2C       		.uleb128 0x2c
 2607 0266 34       		.uleb128 0x34
 2608 0267 00       		.byte	0
 2609 0268 03       		.uleb128 0x3
 2610 0269 0E       		.uleb128 0xe
 2611 026a 3A       		.uleb128 0x3a
 2612 026b 0B       		.uleb128 0xb
 2613 026c 3B       		.uleb128 0x3b
 2614 026d 05       		.uleb128 0x5
 2615 026e 49       		.uleb128 0x49
 2616 026f 13       		.uleb128 0x13
 2617 0270 02       		.uleb128 0x2
 2618 0271 17       		.uleb128 0x17
ARM GAS  /tmp/ccnBwL80.s 			page 47


 2619 0272 00       		.byte	0
 2620 0273 00       		.byte	0
 2621 0274 2D       		.uleb128 0x2d
 2622 0275 1D       		.uleb128 0x1d
 2623 0276 01       		.byte	0x1
 2624 0277 31       		.uleb128 0x31
 2625 0278 13       		.uleb128 0x13
 2626 0279 52       		.uleb128 0x52
 2627 027a 01       		.uleb128 0x1
 2628 027b 55       		.uleb128 0x55
 2629 027c 17       		.uleb128 0x17
 2630 027d 58       		.uleb128 0x58
 2631 027e 0B       		.uleb128 0xb
 2632 027f 59       		.uleb128 0x59
 2633 0280 05       		.uleb128 0x5
 2634 0281 01       		.uleb128 0x1
 2635 0282 13       		.uleb128 0x13
 2636 0283 00       		.byte	0
 2637 0284 00       		.byte	0
 2638 0285 2E       		.uleb128 0x2e
 2639 0286 2E       		.uleb128 0x2e
 2640 0287 01       		.byte	0x1
 2641 0288 3F       		.uleb128 0x3f
 2642 0289 19       		.uleb128 0x19
 2643 028a 03       		.uleb128 0x3
 2644 028b 0E       		.uleb128 0xe
 2645 028c 3A       		.uleb128 0x3a
 2646 028d 0B       		.uleb128 0xb
 2647 028e 3B       		.uleb128 0x3b
 2648 028f 05       		.uleb128 0x5
 2649 0290 27       		.uleb128 0x27
 2650 0291 19       		.uleb128 0x19
 2651 0292 11       		.uleb128 0x11
 2652 0293 01       		.uleb128 0x1
 2653 0294 12       		.uleb128 0x12
 2654 0295 06       		.uleb128 0x6
 2655 0296 40       		.uleb128 0x40
 2656 0297 18       		.uleb128 0x18
 2657 0298 9742     		.uleb128 0x2117
 2658 029a 19       		.uleb128 0x19
 2659 029b 01       		.uleb128 0x1
 2660 029c 13       		.uleb128 0x13
 2661 029d 00       		.byte	0
 2662 029e 00       		.byte	0
 2663 029f 2F       		.uleb128 0x2f
 2664 02a0 0B       		.uleb128 0xb
 2665 02a1 01       		.byte	0x1
 2666 02a2 55       		.uleb128 0x55
 2667 02a3 17       		.uleb128 0x17
 2668 02a4 01       		.uleb128 0x1
 2669 02a5 13       		.uleb128 0x13
 2670 02a6 00       		.byte	0
 2671 02a7 00       		.byte	0
 2672 02a8 30       		.uleb128 0x30
 2673 02a9 34       		.uleb128 0x34
 2674 02aa 00       		.byte	0
 2675 02ab 03       		.uleb128 0x3
ARM GAS  /tmp/ccnBwL80.s 			page 48


 2676 02ac 0E       		.uleb128 0xe
 2677 02ad 3A       		.uleb128 0x3a
 2678 02ae 0B       		.uleb128 0xb
 2679 02af 3B       		.uleb128 0x3b
 2680 02b0 0B       		.uleb128 0xb
 2681 02b1 49       		.uleb128 0x49
 2682 02b2 13       		.uleb128 0x13
 2683 02b3 3F       		.uleb128 0x3f
 2684 02b4 19       		.uleb128 0x19
 2685 02b5 3C       		.uleb128 0x3c
 2686 02b6 19       		.uleb128 0x19
 2687 02b7 00       		.byte	0
 2688 02b8 00       		.byte	0
 2689 02b9 31       		.uleb128 0x31
 2690 02ba 2E       		.uleb128 0x2e
 2691 02bb 01       		.byte	0x1
 2692 02bc 3F       		.uleb128 0x3f
 2693 02bd 19       		.uleb128 0x19
 2694 02be 03       		.uleb128 0x3
 2695 02bf 0E       		.uleb128 0xe
 2696 02c0 3A       		.uleb128 0x3a
 2697 02c1 0B       		.uleb128 0xb
 2698 02c2 3B       		.uleb128 0x3b
 2699 02c3 0B       		.uleb128 0xb
 2700 02c4 27       		.uleb128 0x27
 2701 02c5 19       		.uleb128 0x19
 2702 02c6 3C       		.uleb128 0x3c
 2703 02c7 19       		.uleb128 0x19
 2704 02c8 01       		.uleb128 0x1
 2705 02c9 13       		.uleb128 0x13
 2706 02ca 00       		.byte	0
 2707 02cb 00       		.byte	0
 2708 02cc 32       		.uleb128 0x32
 2709 02cd 05       		.uleb128 0x5
 2710 02ce 00       		.byte	0
 2711 02cf 49       		.uleb128 0x49
 2712 02d0 13       		.uleb128 0x13
 2713 02d1 00       		.byte	0
 2714 02d2 00       		.byte	0
 2715 02d3 33       		.uleb128 0x33
 2716 02d4 2E       		.uleb128 0x2e
 2717 02d5 01       		.byte	0x1
 2718 02d6 3F       		.uleb128 0x3f
 2719 02d7 19       		.uleb128 0x19
 2720 02d8 03       		.uleb128 0x3
 2721 02d9 0E       		.uleb128 0xe
 2722 02da 3A       		.uleb128 0x3a
 2723 02db 0B       		.uleb128 0xb
 2724 02dc 3B       		.uleb128 0x3b
 2725 02dd 0B       		.uleb128 0xb
 2726 02de 27       		.uleb128 0x27
 2727 02df 19       		.uleb128 0x19
 2728 02e0 49       		.uleb128 0x49
 2729 02e1 13       		.uleb128 0x13
 2730 02e2 3C       		.uleb128 0x3c
 2731 02e3 19       		.uleb128 0x19
 2732 02e4 01       		.uleb128 0x1
ARM GAS  /tmp/ccnBwL80.s 			page 49


 2733 02e5 13       		.uleb128 0x13
 2734 02e6 00       		.byte	0
 2735 02e7 00       		.byte	0
 2736 02e8 34       		.uleb128 0x34
 2737 02e9 2E       		.uleb128 0x2e
 2738 02ea 00       		.byte	0
 2739 02eb 3F       		.uleb128 0x3f
 2740 02ec 19       		.uleb128 0x19
 2741 02ed 03       		.uleb128 0x3
 2742 02ee 0E       		.uleb128 0xe
 2743 02ef 3A       		.uleb128 0x3a
 2744 02f0 0B       		.uleb128 0xb
 2745 02f1 3B       		.uleb128 0x3b
 2746 02f2 0B       		.uleb128 0xb
 2747 02f3 27       		.uleb128 0x27
 2748 02f4 19       		.uleb128 0x19
 2749 02f5 3C       		.uleb128 0x3c
 2750 02f6 19       		.uleb128 0x19
 2751 02f7 00       		.byte	0
 2752 02f8 00       		.byte	0
 2753 02f9 00       		.byte	0
 2754              		.section	.debug_loc,"",%progbits
 2755              	.Ldebug_loc0:
 2756              	.LLST0:
 2757 0000 10000000 		.4byte	.LVL1-.Ltext0
 2758 0004 22000000 		.4byte	.LVL4-.Ltext0
 2759 0008 0100     		.2byte	0x1
 2760 000a 50       		.byte	0x50
 2761 000b 22000000 		.4byte	.LVL4-.Ltext0
 2762 000f 86000000 		.4byte	.LVL14-.Ltext0
 2763 0013 0100     		.2byte	0x1
 2764 0015 55       		.byte	0x55
 2765 0016 86000000 		.4byte	.LVL14-.Ltext0
 2766 001a 89000000 		.4byte	.LVL15-1-.Ltext0
 2767 001e 0500     		.2byte	0x5
 2768 0020 73       		.byte	0x73
 2769 0021 04       		.sleb128 4
 2770 0022 06       		.byte	0x6
 2771 0023 23       		.byte	0x23
 2772 0024 20       		.uleb128 0x20
 2773 0025 89000000 		.4byte	.LVL15-1-.Ltext0
 2774 0029 8A000000 		.4byte	.LVL15-.Ltext0
 2775 002d 0400     		.2byte	0x4
 2776 002f F3       		.byte	0xf3
 2777 0030 01       		.uleb128 0x1
 2778 0031 50       		.byte	0x50
 2779 0032 9F       		.byte	0x9f
 2780 0033 8A000000 		.4byte	.LVL15-.Ltext0
 2781 0037 9C000000 		.4byte	.LVL17-.Ltext0
 2782 003b 0100     		.2byte	0x1
 2783 003d 55       		.byte	0x55
 2784 003e 9C000000 		.4byte	.LVL17-.Ltext0
 2785 0042 AC000000 		.4byte	.LFE9-.Ltext0
 2786 0046 0100     		.2byte	0x1
 2787 0048 50       		.byte	0x50
 2788 0049 00000000 		.4byte	0
 2789 004d 00000000 		.4byte	0
ARM GAS  /tmp/ccnBwL80.s 			page 50


 2790              	.LLST1:
 2791 0051 18000000 		.4byte	.LVL2-.Ltext0
 2792 0055 86000000 		.4byte	.LVL14-.Ltext0
 2793 0059 0100     		.2byte	0x1
 2794 005b 54       		.byte	0x54
 2795 005c 86000000 		.4byte	.LVL14-.Ltext0
 2796 0060 89000000 		.4byte	.LVL15-1-.Ltext0
 2797 0064 0200     		.2byte	0x2
 2798 0066 73       		.byte	0x73
 2799 0067 04       		.sleb128 4
 2800 0068 8A000000 		.4byte	.LVL15-.Ltext0
 2801 006c A6000000 		.4byte	.LVL18-.Ltext0
 2802 0070 0100     		.2byte	0x1
 2803 0072 54       		.byte	0x54
 2804 0073 00000000 		.4byte	0
 2805 0077 00000000 		.4byte	0
 2806              	.LLST2:
 2807 007b 1E000000 		.4byte	.LVL3-.Ltext0
 2808 007f 62000000 		.4byte	.LVL11-.Ltext0
 2809 0083 0100     		.2byte	0x1
 2810 0085 52       		.byte	0x52
 2811 0086 8A000000 		.4byte	.LVL15-.Ltext0
 2812 008a 99000000 		.4byte	.LVL16-1-.Ltext0
 2813 008e 0100     		.2byte	0x1
 2814 0090 52       		.byte	0x52
 2815 0091 00000000 		.4byte	0
 2816 0095 00000000 		.4byte	0
 2817              	.LLST3:
 2818 0099 32000000 		.4byte	.LVL5-.Ltext0
 2819 009d 5A000000 		.4byte	.LVL9-.Ltext0
 2820 00a1 0100     		.2byte	0x1
 2821 00a3 52       		.byte	0x52
 2822 00a4 5A000000 		.4byte	.LVL9-.Ltext0
 2823 00a8 5E000000 		.4byte	.LVL10-.Ltext0
 2824 00ac 0200     		.2byte	0x2
 2825 00ae 73       		.byte	0x73
 2826 00af 04       		.sleb128 4
 2827 00b0 5E000000 		.4byte	.LVL10-.Ltext0
 2828 00b4 62000000 		.4byte	.LVL11-.Ltext0
 2829 00b8 0200     		.2byte	0x2
 2830 00ba 71       		.byte	0x71
 2831 00bb 00       		.sleb128 0
 2832 00bc 00000000 		.4byte	0
 2833 00c0 00000000 		.4byte	0
 2834              	.LLST4:
 2835 00c4 3A000000 		.4byte	.LVL6-.Ltext0
 2836 00c8 62000000 		.4byte	.LVL11-.Ltext0
 2837 00cc 0100     		.2byte	0x1
 2838 00ce 56       		.byte	0x56
 2839 00cf 00000000 		.4byte	0
 2840 00d3 00000000 		.4byte	0
 2841              	.LLST5:
 2842 00d7 3A000000 		.4byte	.LVL6-.Ltext0
 2843 00db 5A000000 		.4byte	.LVL9-.Ltext0
 2844 00df 0100     		.2byte	0x1
 2845 00e1 52       		.byte	0x52
 2846 00e2 5A000000 		.4byte	.LVL9-.Ltext0
ARM GAS  /tmp/ccnBwL80.s 			page 51


 2847 00e6 5E000000 		.4byte	.LVL10-.Ltext0
 2848 00ea 0200     		.2byte	0x2
 2849 00ec 73       		.byte	0x73
 2850 00ed 04       		.sleb128 4
 2851 00ee 5E000000 		.4byte	.LVL10-.Ltext0
 2852 00f2 62000000 		.4byte	.LVL11-.Ltext0
 2853 00f6 0200     		.2byte	0x2
 2854 00f8 71       		.byte	0x71
 2855 00f9 00       		.sleb128 0
 2856 00fa 00000000 		.4byte	0
 2857 00fe 00000000 		.4byte	0
 2858              	.LLST6:
 2859 0102 3A000000 		.4byte	.LVL6-.Ltext0
 2860 0106 42000000 		.4byte	.LVL7-.Ltext0
 2861 010a 0100     		.2byte	0x1
 2862 010c 56       		.byte	0x56
 2863 010d 42000000 		.4byte	.LVL7-.Ltext0
 2864 0111 5E000000 		.4byte	.LVL10-.Ltext0
 2865 0115 0100     		.2byte	0x1
 2866 0117 53       		.byte	0x53
 2867 0118 00000000 		.4byte	0
 2868 011c 00000000 		.4byte	0
 2869              	.LLST7:
 2870 0120 62000000 		.4byte	.LVL11-.Ltext0
 2871 0124 86000000 		.4byte	.LVL14-.Ltext0
 2872 0128 0100     		.2byte	0x1
 2873 012a 55       		.byte	0x55
 2874 012b 86000000 		.4byte	.LVL14-.Ltext0
 2875 012f 89000000 		.4byte	.LVL15-1-.Ltext0
 2876 0133 0500     		.2byte	0x5
 2877 0135 73       		.byte	0x73
 2878 0136 04       		.sleb128 4
 2879 0137 06       		.byte	0x6
 2880 0138 23       		.byte	0x23
 2881 0139 20       		.uleb128 0x20
 2882 013a 89000000 		.4byte	.LVL15-1-.Ltext0
 2883 013e 8A000000 		.4byte	.LVL15-.Ltext0
 2884 0142 0400     		.2byte	0x4
 2885 0144 F3       		.byte	0xf3
 2886 0145 01       		.uleb128 0x1
 2887 0146 50       		.byte	0x50
 2888 0147 9F       		.byte	0x9f
 2889 0148 00000000 		.4byte	0
 2890 014c 00000000 		.4byte	0
 2891              	.LLST8:
 2892 0150 62000000 		.4byte	.LVL11-.Ltext0
 2893 0154 86000000 		.4byte	.LVL14-.Ltext0
 2894 0158 0100     		.2byte	0x1
 2895 015a 54       		.byte	0x54
 2896 015b 86000000 		.4byte	.LVL14-.Ltext0
 2897 015f 89000000 		.4byte	.LVL15-1-.Ltext0
 2898 0163 0200     		.2byte	0x2
 2899 0165 73       		.byte	0x73
 2900 0166 04       		.sleb128 4
 2901 0167 00000000 		.4byte	0
 2902 016b 00000000 		.4byte	0
 2903              	.LLST9:
ARM GAS  /tmp/ccnBwL80.s 			page 52


 2904 016f 62000000 		.4byte	.LVL11-.Ltext0
 2905 0173 66000000 		.4byte	.LVL12-.Ltext0
 2906 0177 0100     		.2byte	0x1
 2907 0179 55       		.byte	0x55
 2908 017a 66000000 		.4byte	.LVL12-.Ltext0
 2909 017e 89000000 		.4byte	.LVL15-1-.Ltext0
 2910 0182 0100     		.2byte	0x1
 2911 0184 53       		.byte	0x53
 2912 0185 00000000 		.4byte	0
 2913 0189 00000000 		.4byte	0
 2914              	.LLST10:
 2915 018d 8A000000 		.4byte	.LVL15-.Ltext0
 2916 0191 99000000 		.4byte	.LVL16-1-.Ltext0
 2917 0195 0100     		.2byte	0x1
 2918 0197 52       		.byte	0x52
 2919 0198 00000000 		.4byte	0
 2920 019c 00000000 		.4byte	0
 2921              	.LLST11:
 2922 01a0 B0000000 		.4byte	.LVL19-.Ltext0
 2923 01a4 BB000000 		.4byte	.LVL20-1-.Ltext0
 2924 01a8 0100     		.2byte	0x1
 2925 01aa 50       		.byte	0x50
 2926 01ab BB000000 		.4byte	.LVL20-1-.Ltext0
 2927 01af C4000000 		.4byte	.LFE8-.Ltext0
 2928 01b3 0400     		.2byte	0x4
 2929 01b5 F3       		.byte	0xf3
 2930 01b6 01       		.uleb128 0x1
 2931 01b7 50       		.byte	0x50
 2932 01b8 9F       		.byte	0x9f
 2933 01b9 00000000 		.4byte	0
 2934 01bd 00000000 		.4byte	0
 2935              	.LLST12:
 2936 01c1 D0000000 		.4byte	.LVL21-.Ltext0
 2937 01c5 DC000000 		.4byte	.LVL23-.Ltext0
 2938 01c9 0100     		.2byte	0x1
 2939 01cb 50       		.byte	0x50
 2940 01cc DC000000 		.4byte	.LVL23-.Ltext0
 2941 01d0 00010000 		.4byte	.LFE10-.Ltext0
 2942 01d4 0100     		.2byte	0x1
 2943 01d6 52       		.byte	0x52
 2944 01d7 00000000 		.4byte	0
 2945 01db 00000000 		.4byte	0
 2946              	.LLST13:
 2947 01df D8000000 		.4byte	.LVL22-.Ltext0
 2948 01e3 DC000000 		.4byte	.LVL23-.Ltext0
 2949 01e7 0100     		.2byte	0x1
 2950 01e9 50       		.byte	0x50
 2951 01ea DC000000 		.4byte	.LVL23-.Ltext0
 2952 01ee 00010000 		.4byte	.LFE10-.Ltext0
 2953 01f2 0100     		.2byte	0x1
 2954 01f4 52       		.byte	0x52
 2955 01f5 00000000 		.4byte	0
 2956 01f9 00000000 		.4byte	0
 2957              	.LLST14:
 2958 01fd 00010000 		.4byte	.LVL25-.Ltext0
 2959 0201 08010000 		.4byte	.LVL26-.Ltext0
 2960 0205 0100     		.2byte	0x1
ARM GAS  /tmp/ccnBwL80.s 			page 53


 2961 0207 50       		.byte	0x50
 2962 0208 08010000 		.4byte	.LVL26-.Ltext0
 2963 020c 0A010000 		.4byte	.LVL27-.Ltext0
 2964 0210 0100     		.2byte	0x1
 2965 0212 53       		.byte	0x53
 2966 0213 0A010000 		.4byte	.LVL27-.Ltext0
 2967 0217 16010000 		.4byte	.LVL28-.Ltext0
 2968 021b 0100     		.2byte	0x1
 2969 021d 50       		.byte	0x50
 2970 021e 16010000 		.4byte	.LVL28-.Ltext0
 2971 0222 20010000 		.4byte	.LFE11-.Ltext0
 2972 0226 0100     		.2byte	0x1
 2973 0228 53       		.byte	0x53
 2974 0229 00000000 		.4byte	0
 2975 022d 00000000 		.4byte	0
 2976              	.LLST15:
 2977 0231 0A010000 		.4byte	.LVL27-.Ltext0
 2978 0235 16010000 		.4byte	.LVL28-.Ltext0
 2979 0239 0100     		.2byte	0x1
 2980 023b 50       		.byte	0x50
 2981 023c 16010000 		.4byte	.LVL28-.Ltext0
 2982 0240 20010000 		.4byte	.LFE11-.Ltext0
 2983 0244 0100     		.2byte	0x1
 2984 0246 53       		.byte	0x53
 2985 0247 00000000 		.4byte	0
 2986 024b 00000000 		.4byte	0
 2987              	.LLST16:
 2988 024f 26010000 		.4byte	.LVL29-.Ltext0
 2989 0253 5A010000 		.4byte	.LVL36-.Ltext0
 2990 0257 0100     		.2byte	0x1
 2991 0259 50       		.byte	0x50
 2992 025a 72010000 		.4byte	.LVL39-.Ltext0
 2993 025e 7E010000 		.4byte	.LVL40-.Ltext0
 2994 0262 0100     		.2byte	0x1
 2995 0264 50       		.byte	0x50
 2996 0265 7E010000 		.4byte	.LVL40-.Ltext0
 2997 0269 84010000 		.4byte	.LFE12-.Ltext0
 2998 026d 0200     		.2byte	0x2
 2999 026f 72       		.byte	0x72
 3000 0270 18       		.sleb128 24
 3001 0271 00000000 		.4byte	0
 3002 0275 00000000 		.4byte	0
 3003              	.LLST17:
 3004 0279 2E010000 		.4byte	.LVL30-.Ltext0
 3005 027d 80010000 		.4byte	.LVL41-.Ltext0
 3006 0281 0100     		.2byte	0x1
 3007 0283 54       		.byte	0x54
 3008 0284 80010000 		.4byte	.LVL41-.Ltext0
 3009 0288 84010000 		.4byte	.LFE12-.Ltext0
 3010 028c 0100     		.2byte	0x1
 3011 028e 50       		.byte	0x50
 3012 028f 00000000 		.4byte	0
 3013 0293 00000000 		.4byte	0
 3014              	.LLST18:
 3015 0297 3A010000 		.4byte	.LVL31-.Ltext0
 3016 029b 52010000 		.4byte	.LVL34-.Ltext0
 3017 029f 0100     		.2byte	0x1
ARM GAS  /tmp/ccnBwL80.s 			page 54


 3018 02a1 53       		.byte	0x53
 3019 02a2 00000000 		.4byte	0
 3020 02a6 00000000 		.4byte	0
 3021              	.LLST19:
 3022 02aa 3A010000 		.4byte	.LVL31-.Ltext0
 3023 02ae 5E010000 		.4byte	.LVL37-.Ltext0
 3024 02b2 0100     		.2byte	0x1
 3025 02b4 51       		.byte	0x51
 3026 02b5 00000000 		.4byte	0
 3027 02b9 00000000 		.4byte	0
 3028              	.LLST20:
 3029 02bd 56010000 		.4byte	.LVL35-.Ltext0
 3030 02c1 72010000 		.4byte	.LVL39-.Ltext0
 3031 02c5 0100     		.2byte	0x1
 3032 02c7 54       		.byte	0x54
 3033 02c8 00000000 		.4byte	0
 3034 02cc 00000000 		.4byte	0
 3035              	.LLST21:
 3036 02d0 56010000 		.4byte	.LVL35-.Ltext0
 3037 02d4 72010000 		.4byte	.LVL39-.Ltext0
 3038 02d8 0100     		.2byte	0x1
 3039 02da 55       		.byte	0x55
 3040 02db 00000000 		.4byte	0
 3041 02df 00000000 		.4byte	0
 3042              	.LLST22:
 3043 02e3 96010000 		.4byte	.LVL42-.Ltext0
 3044 02e7 C4010000 		.4byte	.LVL49-.Ltext0
 3045 02eb 0100     		.2byte	0x1
 3046 02ed 50       		.byte	0x50
 3047 02ee D4010000 		.4byte	.LVL51-.Ltext0
 3048 02f2 DA010000 		.4byte	.LVL52-.Ltext0
 3049 02f6 0100     		.2byte	0x1
 3050 02f8 50       		.byte	0x50
 3051 02f9 00000000 		.4byte	0
 3052 02fd 00000000 		.4byte	0
 3053              	.LLST23:
 3054 0301 98010000 		.4byte	.LVL43-.Ltext0
 3055 0305 DC010000 		.4byte	.LVL53-.Ltext0
 3056 0309 0100     		.2byte	0x1
 3057 030b 54       		.byte	0x54
 3058 030c DC010000 		.4byte	.LVL53-.Ltext0
 3059 0310 E0010000 		.4byte	.LFE13-.Ltext0
 3060 0314 0100     		.2byte	0x1
 3061 0316 50       		.byte	0x50
 3062 0317 00000000 		.4byte	0
 3063 031b 00000000 		.4byte	0
 3064              	.LLST24:
 3065 031f A4010000 		.4byte	.LVL44-.Ltext0
 3066 0323 BC010000 		.4byte	.LVL47-.Ltext0
 3067 0327 0100     		.2byte	0x1
 3068 0329 53       		.byte	0x53
 3069 032a 00000000 		.4byte	0
 3070 032e 00000000 		.4byte	0
 3071              	.LLST25:
 3072 0332 A4010000 		.4byte	.LVL44-.Ltext0
 3073 0336 CF010000 		.4byte	.LVL50-1-.Ltext0
 3074 033a 0100     		.2byte	0x1
ARM GAS  /tmp/ccnBwL80.s 			page 55


 3075 033c 51       		.byte	0x51
 3076 033d 00000000 		.4byte	0
 3077 0341 00000000 		.4byte	0
 3078              	.LLST26:
 3079 0345 C0010000 		.4byte	.LVL48-.Ltext0
 3080 0349 D4010000 		.4byte	.LVL51-.Ltext0
 3081 034d 0100     		.2byte	0x1
 3082 034f 54       		.byte	0x54
 3083 0350 00000000 		.4byte	0
 3084 0354 00000000 		.4byte	0
 3085              	.LLST27:
 3086 0358 C0010000 		.4byte	.LVL48-.Ltext0
 3087 035c D4010000 		.4byte	.LVL51-.Ltext0
 3088 0360 0100     		.2byte	0x1
 3089 0362 55       		.byte	0x55
 3090 0363 00000000 		.4byte	0
 3091 0367 00000000 		.4byte	0
 3092              	.LLST28:
 3093 036b E8010000 		.4byte	.LVL54-.Ltext0
 3094 036f 2E020000 		.4byte	.LVL62-.Ltext0
 3095 0373 0100     		.2byte	0x1
 3096 0375 54       		.byte	0x54
 3097 0376 00000000 		.4byte	0
 3098 037a 00000000 		.4byte	0
 3099              	.LLST29:
 3100 037e F4010000 		.4byte	.LVL55-.Ltext0
 3101 0382 05020000 		.4byte	.LVL56-1-.Ltext0
 3102 0386 0100     		.2byte	0x1
 3103 0388 53       		.byte	0x53
 3104 0389 0A020000 		.4byte	.LVL57-.Ltext0
 3105 038d 1A020000 		.4byte	.LVL59-.Ltext0
 3106 0391 0100     		.2byte	0x1
 3107 0393 53       		.byte	0x53
 3108 0394 00000000 		.4byte	0
 3109 0398 00000000 		.4byte	0
 3110              	.LLST31:
 3111 039c F4010000 		.4byte	.LVL55-.Ltext0
 3112 03a0 05020000 		.4byte	.LVL56-1-.Ltext0
 3113 03a4 0100     		.2byte	0x1
 3114 03a6 50       		.byte	0x50
 3115 03a7 0C020000 		.4byte	.LVL58-.Ltext0
 3116 03ab 1E020000 		.4byte	.LVL60-.Ltext0
 3117 03af 0100     		.2byte	0x1
 3118 03b1 52       		.byte	0x52
 3119 03b2 00000000 		.4byte	0
 3120 03b6 00000000 		.4byte	0
 3121              		.section	.debug_aranges,"",%progbits
 3122 0000 1C000000 		.4byte	0x1c
 3123 0004 0200     		.2byte	0x2
 3124 0006 00000000 		.4byte	.Ldebug_info0
 3125 000a 04       		.byte	0x4
 3126 000b 00       		.byte	0
 3127 000c 0000     		.2byte	0
 3128 000e 0000     		.2byte	0
 3129 0010 00000000 		.4byte	.Ltext0
 3130 0014 34020000 		.4byte	.Letext0-.Ltext0
 3131 0018 00000000 		.4byte	0
ARM GAS  /tmp/ccnBwL80.s 			page 56


 3132 001c 00000000 		.4byte	0
 3133              		.section	.debug_ranges,"",%progbits
 3134              	.Ldebug_ranges0:
 3135 0000 1E000000 		.4byte	.LBB29-.Ltext0
 3136 0004 82000000 		.4byte	.LBE29-.Ltext0
 3137 0008 86000000 		.4byte	.LBB42-.Ltext0
 3138 000c 9C000000 		.4byte	.LBE42-.Ltext0
 3139 0010 00000000 		.4byte	0
 3140 0014 00000000 		.4byte	0
 3141 0018 32000000 		.4byte	.LBB30-.Ltext0
 3142 001c 38000000 		.4byte	.LBE30-.Ltext0
 3143 0020 3A000000 		.4byte	.LBB33-.Ltext0
 3144 0024 3E000000 		.4byte	.LBE33-.Ltext0
 3145 0028 00000000 		.4byte	0
 3146 002c 00000000 		.4byte	0
 3147 0030 8A000000 		.4byte	.LBB38-.Ltext0
 3148 0034 92000000 		.4byte	.LBE38-.Ltext0
 3149 0038 94000000 		.4byte	.LBB41-.Ltext0
 3150 003c 96000000 		.4byte	.LBE41-.Ltext0
 3151 0040 00000000 		.4byte	0
 3152 0044 00000000 		.4byte	0
 3153 0048 D8000000 		.4byte	.LBB52-.Ltext0
 3154 004c DE000000 		.4byte	.LBE52-.Ltext0
 3155 0050 E6000000 		.4byte	.LBB58-.Ltext0
 3156 0054 F4000000 		.4byte	.LBE58-.Ltext0
 3157 0058 00000000 		.4byte	0
 3158 005c 00000000 		.4byte	0
 3159 0060 DE000000 		.4byte	.LBB57-.Ltext0
 3160 0064 E4000000 		.4byte	.LBE57-.Ltext0
 3161 0068 F4000000 		.4byte	.LBB59-.Ltext0
 3162 006c FA000000 		.4byte	.LBE59-.Ltext0
 3163 0070 00000000 		.4byte	0
 3164 0074 00000000 		.4byte	0
 3165 0078 50010000 		.4byte	.LBB66-.Ltext0
 3166 007c 52010000 		.4byte	.LBE66-.Ltext0
 3167 0080 56010000 		.4byte	.LBB70-.Ltext0
 3168 0084 58010000 		.4byte	.LBE70-.Ltext0
 3169 0088 5A010000 		.4byte	.LBB71-.Ltext0
 3170 008c 5C010000 		.4byte	.LBE71-.Ltext0
 3171 0090 00000000 		.4byte	0
 3172 0094 00000000 		.4byte	0
 3173 0098 68010000 		.4byte	.LBB72-.Ltext0
 3174 009c 6E010000 		.4byte	.LBE72-.Ltext0
 3175 00a0 76010000 		.4byte	.LBB73-.Ltext0
 3176 00a4 7C010000 		.4byte	.LBE73-.Ltext0
 3177 00a8 00000000 		.4byte	0
 3178 00ac 00000000 		.4byte	0
 3179 00b0 BA010000 		.4byte	.LBB75-.Ltext0
 3180 00b4 BC010000 		.4byte	.LBE75-.Ltext0
 3181 00b8 C0010000 		.4byte	.LBB79-.Ltext0
 3182 00bc C2010000 		.4byte	.LBE79-.Ltext0
 3183 00c0 C4010000 		.4byte	.LBB80-.Ltext0
 3184 00c4 C6010000 		.4byte	.LBE80-.Ltext0
 3185 00c8 00000000 		.4byte	0
 3186 00cc 00000000 		.4byte	0
 3187 00d0 E4010000 		.4byte	.LBB81-.Ltext0
 3188 00d4 E6010000 		.4byte	.LBE81-.Ltext0
ARM GAS  /tmp/ccnBwL80.s 			page 57


 3189 00d8 E8010000 		.4byte	.LBB82-.Ltext0
 3190 00dc EC010000 		.4byte	.LBE82-.Ltext0
 3191 00e0 00000000 		.4byte	0
 3192 00e4 00000000 		.4byte	0
 3193 00e8 F0010000 		.4byte	.LBB83-.Ltext0
 3194 00ec 06020000 		.4byte	.LBE83-.Ltext0
 3195 00f0 0A020000 		.4byte	.LBB90-.Ltext0
 3196 00f4 18020000 		.4byte	.LBE90-.Ltext0
 3197 00f8 00000000 		.4byte	0
 3198 00fc 00000000 		.4byte	0
 3199 0100 F4010000 		.4byte	.LBB84-.Ltext0
 3200 0104 06020000 		.4byte	.LBE84-.Ltext0
 3201 0108 12020000 		.4byte	.LBB89-.Ltext0
 3202 010c 14020000 		.4byte	.LBE89-.Ltext0
 3203 0110 00000000 		.4byte	0
 3204 0114 00000000 		.4byte	0
 3205 0118 F4010000 		.4byte	.LBB85-.Ltext0
 3206 011c F6010000 		.4byte	.LBE85-.Ltext0
 3207 0120 F8010000 		.4byte	.LBB88-.Ltext0
 3208 0124 FC010000 		.4byte	.LBE88-.Ltext0
 3209 0128 00000000 		.4byte	0
 3210 012c 00000000 		.4byte	0
 3211              		.section	.debug_line,"",%progbits
 3212              	.Ldebug_line0:
 3213 0000 3E030000 		.section	.debug_str,"MS",%progbits,1
 3213      0200CA01 
 3213      00000201 
 3213      FB0E0D00 
 3213      01010101 
 3214              	.LASF36:
 3215 0000 705F6D73 		.ascii	"p_msg\000"
 3215      6700
 3216              	.LASF57:
 3217 0006 7264796D 		.ascii	"rdymsg\000"
 3217      736700
 3218              	.LASF5:
 3219 000d 5F5F7569 		.ascii	"__uint8_t\000"
 3219      6E74385F 
 3219      7400
 3220              	.LASF11:
 3221 0017 6C6F6E67 		.ascii	"long long unsigned int\000"
 3221      206C6F6E 
 3221      6720756E 
 3221      7369676E 
 3221      65642069 
 3222              	.LASF68:
 3223 002e 63684D74 		.ascii	"chMtxUnlock\000"
 3223      78556E6C 
 3223      6F636B00 
 3224              	.LASF26:
 3225 003a 705F7072 		.ascii	"p_prio\000"
 3225      696F00
 3226              	.LASF10:
 3227 0041 6C6F6E67 		.ascii	"long long int\000"
 3227      206C6F6E 
 3227      6720696E 
 3227      7400
ARM GAS  /tmp/ccnBwL80.s 			page 58


 3228              	.LASF1:
 3229 004f 7369676E 		.ascii	"signed char\000"
 3229      65642063 
 3229      68617200 
 3230              	.LASF15:
 3231 005b 626F6F6C 		.ascii	"bool_t\000"
 3231      5F7400
 3232              	.LASF54:
 3233 0062 6D5F7175 		.ascii	"m_queue\000"
 3233      65756500 
 3234              	.LASF19:
 3235 006a 74736C69 		.ascii	"tslices_t\000"
 3235      6365735F 
 3235      7400
 3236              	.LASF7:
 3237 0074 6C6F6E67 		.ascii	"long int\000"
 3237      20696E74 
 3237      00
 3238              	.LASF18:
 3239 007d 74737461 		.ascii	"tstate_t\000"
 3239      74655F74 
 3239      00
 3240              	.LASF72:
 3241 0086 63684D74 		.ascii	"chMtxTryLockS\000"
 3241      78547279 
 3241      4C6F636B 
 3241      5300
 3242              	.LASF28:
 3243 0094 705F6E65 		.ascii	"p_newer\000"
 3243      77657200 
 3244              	.LASF58:
 3245 009c 65786974 		.ascii	"exitcode\000"
 3245      636F6465 
 3245      00
 3246              	.LASF80:
 3247 00a5 63685363 		.ascii	"chSchRescheduleS\000"
 3247      68526573 
 3247      63686564 
 3247      756C6553 
 3247      00
 3248              	.LASF8:
 3249 00b6 5F5F7569 		.ascii	"__uint32_t\000"
 3249      6E743332 
 3249      5F7400
 3250              	.LASF42:
 3251 00c1 72656761 		.ascii	"regarm_t\000"
 3251      726D5F74 
 3251      00
 3252              	.LASF70:
 3253 00ca 63684D74 		.ascii	"chMtxUnlockS\000"
 3253      78556E6C 
 3253      6F636B53 
 3253      00
 3254              	.LASF0:
 3255 00d7 756E7369 		.ascii	"unsigned int\000"
 3255      676E6564 
 3255      20696E74 
ARM GAS  /tmp/ccnBwL80.s 			page 59


 3255      00
 3256              	.LASF9:
 3257 00e4 6C6F6E67 		.ascii	"long unsigned int\000"
 3257      20756E73 
 3257      69676E65 
 3257      6420696E 
 3257      7400
 3258              	.LASF4:
 3259 00f6 73686F72 		.ascii	"short unsigned int\000"
 3259      7420756E 
 3259      7369676E 
 3259      65642069 
 3259      6E7400
 3260              	.LASF21:
 3261 0109 6D73675F 		.ascii	"msg_t\000"
 3261      7400
 3262              	.LASF49:
 3263 010f 725F6E65 		.ascii	"r_newer\000"
 3263      77657200 
 3264              	.LASF71:
 3265 0117 63684D74 		.ascii	"chMtxUnlockAll\000"
 3265      78556E6C 
 3265      6F636B41 
 3265      6C6C00
 3266              	.LASF69:
 3267 0126 6E657770 		.ascii	"newprio\000"
 3267      72696F00 
 3268              	.LASF17:
 3269 012e 746D6F64 		.ascii	"tmode_t\000"
 3269      655F7400 
 3270              	.LASF41:
 3271 0136 54687265 		.ascii	"ThreadsList\000"
 3271      6164734C 
 3271      69737400 
 3272              	.LASF22:
 3273 0142 6576656E 		.ascii	"eventmask_t\000"
 3273      746D6173 
 3273      6B5F7400 
 3274              	.LASF67:
 3275 014e 63684D74 		.ascii	"chMtxTryLock\000"
 3275      78547279 
 3275      4C6F636B 
 3275      00
 3276              	.LASF53:
 3277 015b 4D757465 		.ascii	"Mutex\000"
 3277      7800
 3278              	.LASF45:
 3279 0161 73697A65 		.ascii	"sizetype\000"
 3279      74797065 
 3279      00
 3280              	.LASF66:
 3281 016a 63684D74 		.ascii	"chMtxLock\000"
 3281      784C6F63 
 3281      6B00
 3282              	.LASF29:
 3283 0174 705F6F6C 		.ascii	"p_older\000"
 3283      64657200 
ARM GAS  /tmp/ccnBwL80.s 			page 60


 3284              	.LASF48:
 3285 017c 725F6374 		.ascii	"r_ctx\000"
 3285      7800
 3286              	.LASF40:
 3287 0182 54687265 		.ascii	"ThreadsQueue\000"
 3287      61647351 
 3287      75657565 
 3287      00
 3288              	.LASF62:
 3289 018f 64657175 		.ascii	"dequeue\000"
 3289      65756500 
 3290              	.LASF51:
 3291 0197 725F6375 		.ascii	"r_current\000"
 3291      7272656E 
 3291      7400
 3292              	.LASF50:
 3293 01a1 725F6F6C 		.ascii	"r_older\000"
 3293      64657200 
 3294              	.LASF25:
 3295 01a9 705F7072 		.ascii	"p_prev\000"
 3295      657600
 3296              	.LASF20:
 3297 01b0 74707269 		.ascii	"tprio_t\000"
 3297      6F5F7400 
 3298              	.LASF16:
 3299 01b8 5F426F6F 		.ascii	"_Bool\000"
 3299      6C00
 3300              	.LASF13:
 3301 01be 696E7433 		.ascii	"int32_t\000"
 3301      325F7400 
 3302              	.LASF2:
 3303 01c6 756E7369 		.ascii	"unsigned char\000"
 3303      676E6564 
 3303      20636861 
 3303      7200
 3304              	.LASF38:
 3305 01d4 705F6D74 		.ascii	"p_mtxlist\000"
 3305      786C6973 
 3305      7400
 3306              	.LASF3:
 3307 01de 73686F72 		.ascii	"short int\000"
 3307      7420696E 
 3307      7400
 3308              	.LASF31:
 3309 01e8 705F7374 		.ascii	"p_state\000"
 3309      61746500 
 3310              	.LASF33:
 3311 01f0 705F7072 		.ascii	"p_preempt\000"
 3311      65656D70 
 3311      7400
 3312              	.LASF47:
 3313 01fa 725F7072 		.ascii	"r_prio\000"
 3313      696F00
 3314              	.LASF60:
 3315 0201 65776D61 		.ascii	"ewmask\000"
 3315      736B00
 3316              	.LASF24:
ARM GAS  /tmp/ccnBwL80.s 			page 61


 3317 0208 705F6E65 		.ascii	"p_next\000"
 3317      787400
 3318              	.LASF32:
 3319 020f 705F666C 		.ascii	"p_flags\000"
 3319      61677300 
 3320              	.LASF23:
 3321 0217 54687265 		.ascii	"Thread\000"
 3321      616400
 3322              	.LASF74:
 3323 021e 63685363 		.ascii	"chSchGoSleepS\000"
 3323      68476F53 
 3323      6C656570 
 3323      5300
 3324              	.LASF37:
 3325 022c 705F6570 		.ascii	"p_epending\000"
 3325      656E6469 
 3325      6E6700
 3326              	.LASF14:
 3327 0237 75696E74 		.ascii	"uint32_t\000"
 3327      33325F74 
 3327      00
 3328              	.LASF46:
 3329 0240 725F7175 		.ascii	"r_queue\000"
 3329      65756500 
 3330              	.LASF61:
 3331 0248 63686172 		.ascii	"char\000"
 3331      00
 3332              	.LASF63:
 3333 024d 6669666F 		.ascii	"fifo_remove\000"
 3333      5F72656D 
 3333      6F766500 
 3334              	.LASF73:
 3335 0259 63685363 		.ascii	"chSchReadyI\000"
 3335      68526561 
 3335      64794900 
 3336              	.LASF56:
 3337 0265 6D5F6E65 		.ascii	"m_next\000"
 3337      787400
 3338              	.LASF39:
 3339 026c 705F7265 		.ascii	"p_realprio\000"
 3339      616C7072 
 3339      696F00
 3340              	.LASF6:
 3341 0277 5F5F696E 		.ascii	"__int32_t\000"
 3341      7433325F 
 3341      7400
 3342              	.LASF78:
 3343 0281 7072696F 		.ascii	"prio_insert\000"
 3343      5F696E73 
 3343      65727400 
 3344              	.LASF44:
 3345 028d 636F6E74 		.ascii	"context\000"
 3345      65787400 
 3346              	.LASF77:
 3347 0295 2F645F64 		.ascii	"/d_drive/axoloti/platform_linux/../chibios/os/kerne"
 3347      72697665 
 3347      2F61786F 
ARM GAS  /tmp/ccnBwL80.s 			page 62


 3347      6C6F7469 
 3347      2F706C61 
 3348 02c8 6C2F7372 		.ascii	"l/src/chmtx.c\000"
 3348      632F6368 
 3348      6D74782E 
 3348      6300
 3349              	.LASF43:
 3350 02d6 696E7463 		.ascii	"intctx\000"
 3350      747800
 3351              	.LASF35:
 3352 02dd 705F6D73 		.ascii	"p_msgqueue\000"
 3352      67717565 
 3352      756500
 3353              	.LASF75:
 3354 02e8 63685363 		.ascii	"chSchWakeupS\000"
 3354      6857616B 
 3354      65757053 
 3354      00
 3355              	.LASF64:
 3356 02f5 63684D74 		.ascii	"chMtxInit\000"
 3356      78496E69 
 3356      7400
 3357              	.LASF30:
 3358 02ff 705F6E61 		.ascii	"p_name\000"
 3358      6D6500
 3359              	.LASF52:
 3360 0306 52656164 		.ascii	"ReadyList\000"
 3360      794C6973 
 3360      7400
 3361              	.LASF79:
 3362 0310 726C6973 		.ascii	"rlist\000"
 3362      7400
 3363              	.LASF12:
 3364 0316 75696E74 		.ascii	"uint8_t\000"
 3364      385F7400 
 3365              	.LASF59:
 3366 031e 77746F62 		.ascii	"wtobjp\000"
 3366      6A7000
 3367              	.LASF76:
 3368 0325 474E5520 		.ascii	"GNU C 4.9.3 20150529 (release) [ARM/embedded-4_9-br"
 3368      4320342E 
 3368      392E3320 
 3368      32303135 
 3368      30353239 
 3369 0358 616E6368 		.ascii	"anch revision 224288] -mcpu=cortex-m4 -mfloat-abi=h"
 3369      20726576 
 3369      6973696F 
 3369      6E203232 
 3369      34323838 
 3370 038b 61726420 		.ascii	"ard -mfpu=fpv4-sp-d16 -mno-thumb-interwork -mthumb "
 3370      2D6D6670 
 3370      753D6670 
 3370      76342D73 
 3370      702D6431 
 3371 03be 2D676764 		.ascii	"-ggdb -O2 -fomit-frame-pointer -falign-functions=16"
 3371      62202D4F 
 3371      32202D66 
ARM GAS  /tmp/ccnBwL80.s 			page 63


 3371      6F6D6974 
 3371      2D667261 
 3372 03f1 202D666E 		.ascii	" -fno-math-errno -fsingle-precision-constant\000"
 3372      6F2D6D61 
 3372      74682D65 
 3372      72726E6F 
 3372      202D6673 
 3373              	.LASF65:
 3374 041e 63684D74 		.ascii	"chMtxLockS\000"
 3374      784C6F63 
 3374      6B5300
 3375              	.LASF55:
 3376 0429 6D5F6F77 		.ascii	"m_owner\000"
 3376      6E657200 
 3377              	.LASF27:
 3378 0431 705F6374 		.ascii	"p_ctx\000"
 3378      7800
 3379              	.LASF34:
 3380 0437 705F7761 		.ascii	"p_waiting\000"
 3380      6974696E 
 3380      6700
 3381              		.ident	"GCC: (GNU Tools for ARM Embedded Processors) 4.9.3 20150529 (release) [ARM/embedded-4_9-br
ARM GAS  /tmp/ccnBwL80.s 			page 64


DEFINED SYMBOLS
                            *ABS*:00000000 chmtx.c
     /tmp/ccnBwL80.s:20     .text:00000000 $t
     /tmp/ccnBwL80.s:26     .text:00000000 chMtxInit
     /tmp/ccnBwL80.s:52     .text:00000010 chMtxLockS
     /tmp/ccnBwL80.s:241    .text:000000a8 $d
     /tmp/ccnBwL80.s:245    .text:000000ac $t
     /tmp/ccnBwL80.s:251    .text:000000b0 chMtxLock
     /tmp/ccnBwL80.s:291    .text:000000d0 chMtxTryLock
     /tmp/ccnBwL80.s:364    .text:000000fc $d
     /tmp/ccnBwL80.s:368    .text:00000100 $t
     /tmp/ccnBwL80.s:374    .text:00000100 chMtxTryLockS
     /tmp/ccnBwL80.s:412    .text:0000011c $d
     /tmp/ccnBwL80.s:418    .text:00000120 $t
     /tmp/ccnBwL80.s:424    .text:00000120 chMtxUnlock
     /tmp/ccnBwL80.s:558    .text:00000180 $d
     /tmp/ccnBwL80.s:562    .text:00000184 $t
     /tmp/ccnBwL80.s:568    .text:00000190 chMtxUnlockS
     /tmp/ccnBwL80.s:673    .text:000001dc $d
     /tmp/ccnBwL80.s:677    .text:000001e0 $t
     /tmp/ccnBwL80.s:683    .text:000001e0 chMtxUnlockAll
     /tmp/ccnBwL80.s:797    .text:00000230 $d
                     .debug_frame:00000010 $d

UNDEFINED SYMBOLS
chSchGoSleepS
chSchReadyI
rlist
chSchWakeupS
chSchRescheduleS
