ARM GAS  /tmp/cc6KTt4Y.s 			page 1


   1              		.syntax unified
   2              		.cpu cortex-m4
   3              		.eabi_attribute 27, 1
   4              		.eabi_attribute 28, 1
   5              		.fpu fpv4-sp-d16
   6              		.eabi_attribute 20, 1
   7              		.eabi_attribute 21, 1
   8              		.eabi_attribute 23, 3
   9              		.eabi_attribute 24, 1
  10              		.eabi_attribute 25, 1
  11              		.eabi_attribute 26, 1
  12              		.eabi_attribute 30, 2
  13              		.eabi_attribute 34, 1
  14              		.eabi_attribute 18, 4
  15              		.thumb
  16              		.file	"chprintf.c"
  17              		.text
  18              	.Ltext0:
  19              		.cfi_sections	.debug_frame
  20              		.align	2
  21              		.p2align 4,,15
  22              		.thumb
  23              		.thumb_func
  24              		.type	long_to_string_with_divisor, %function
  25              	long_to_string_with_divisor:
  26              	.LFB8:
  27              		.file 1 "/home/sbcu/Dropbox/pcb-layouts/axo-on-discovery-board/axoloti/platform_linux/../chibios/o
  28              		.loc 1 40 0
  29              		.cfi_startproc
  30              		@ args = 0, pretend = 0, frame = 0
  31              		@ frame_needed = 0, uses_anonymous_args = 0
  32              		@ link register save eliminated.
  33              	.LVL0:
  34 0000 F0B4     		push	{r4, r5, r6, r7}
  35              		.cfi_def_cfa_offset 16
  36              		.cfi_offset 4, -16
  37              		.cfi_offset 5, -12
  38              		.cfi_offset 6, -8
  39              		.cfi_offset 7, -4
  40              		.loc 1 52 0
  41 0002 00F10B07 		add	r7, r0, #11
  42              		.loc 1 46 0
  43 0006 002B     		cmp	r3, #0
  44 0008 08BF     		it	eq
  45 000a 0B46     		moveq	r3, r1
  46              	.LVL1:
  47              		.loc 1 52 0
  48 000c 3D46     		mov	r5, r7
  49              	.LVL2:
  50              	.L4:
  51              		.loc 1 54 0
  52 000e B1FBF2F6 		udiv	r6, r1, r2
  53 0012 02FB1611 		mls	r1, r2, r6, r1
  54              	.LVL3:
  55              		.loc 1 55 0
  56 0016 01F13004 		add	r4, r1, #48
  57              	.LVL4:
ARM GAS  /tmp/cc6KTt4Y.s 			page 2


  58              		.loc 1 56 0
  59 001a 392C     		cmp	r4, #57
  60              		.loc 1 57 0
  61 001c C8BF     		it	gt
  62 001e 01F13704 		addgt	r4, r1, #55
  63              	.LVL5:
  64              		.loc 1 58 0
  65 0022 E4B2     		uxtb	r4, r4
  66              	.LVL6:
  67 0024 05F8014D 		strb	r4, [r5, #-1]!
  68              	.LVL7:
  69              		.loc 1 60 0
  70 0028 B3FBF2F3 		udiv	r3, r3, r2
  71              	.LVL8:
  72              		.loc 1 59 0
  73 002c 3146     		mov	r1, r6
  74              	.LVL9:
  75              		.loc 1 60 0
  76 002e 002B     		cmp	r3, #0
  77 0030 EDD1     		bne	.L4
  78              	.LVL10:
  79              		.loc 1 62 0
  80 0032 7B1B     		subs	r3, r7, r5
  81              	.LVL11:
  82 0034 0344     		add	r3, r3, r0
  83 0036 01E0     		b	.L6
  84              	.LVL12:
  85              	.L12:
  86 0038 15F8014F 		ldrb	r4, [r5, #1]!	@ zero_extendqisi2
  87              	.LVL13:
  88              	.L6:
  89              		.loc 1 64 0 discriminator 1
  90 003c 00F8014B 		strb	r4, [r0], #1
  91              	.LVL14:
  92              		.loc 1 65 0 discriminator 1
  93 0040 9842     		cmp	r0, r3
  94 0042 F9D1     		bne	.L12
  95              		.loc 1 68 0
  96 0044 F0BC     		pop	{r4, r5, r6, r7}
  97              		.cfi_restore 7
  98              		.cfi_restore 6
  99              		.cfi_restore 5
 100              		.cfi_restore 4
 101              		.cfi_def_cfa_offset 0
 102 0046 7047     		bx	lr
 103              		.cfi_endproc
 104              	.LFE8:
 105              		.size	long_to_string_with_divisor, .-long_to_string_with_divisor
 106              		.global	__aeabi_d2f
 107              		.global	__aeabi_f2d
 108              		.global	__aeabi_i2d
 109              		.global	__aeabi_dsub
 110              		.global	__aeabi_dmul
 111              		.global	__aeabi_d2iz
 112              		.align	2
 113 0048 AFF30080 		.p2align 4,,15
 113      AFF30080 
ARM GAS  /tmp/cc6KTt4Y.s 			page 3


 114              		.global	chvprintf
 115              		.thumb
 116              		.thumb_func
 117              		.type	chvprintf, %function
 118              	chvprintf:
 119              	.LFB11:
 120              		.loc 1 112 0
 121              		.cfi_startproc
 122              		@ args = 0, pretend = 0, frame = 40
 123              		@ frame_needed = 0, uses_anonymous_args = 0
 124              	.LVL15:
 125 0050 2DE9F04F 		push	{r4, r5, r6, r7, r8, r9, r10, fp, lr}
 126              		.cfi_def_cfa_offset 36
 127              		.cfi_offset 4, -36
 128              		.cfi_offset 5, -32
 129              		.cfi_offset 6, -28
 130              		.cfi_offset 7, -24
 131              		.cfi_offset 8, -20
 132              		.cfi_offset 9, -16
 133              		.cfi_offset 10, -12
 134              		.cfi_offset 11, -8
 135              		.cfi_offset 14, -4
 136 0054 2DED028B 		fstmfdd	sp!, {d8}
 137              		.cfi_def_cfa_offset 44
 138              		.cfi_offset 80, -44
 139              		.cfi_offset 81, -40
 140 0058 8BB0     		sub	sp, sp, #44
 141              		.cfi_def_cfa_offset 88
 142              		.loc 1 112 0
 143 005a 0646     		mov	r6, r0
 144 005c 0D46     		mov	r5, r1
 145 005e 1746     		mov	r7, r2
 146 0060 0DF11009 		add	r9, sp, #16
 147              	.LVL16:
 148              	.L14:
 149              		.loc 1 125 0
 150 0064 2978     		ldrb	r1, [r5]	@ zero_extendqisi2
 151 0066 6B1C     		adds	r3, r5, #1
 152              	.LVL17:
 153              		.loc 1 126 0
 154 0068 51B1     		cbz	r1, .L13
 155              	.L103:
 156              		.loc 1 128 0
 157 006a 2529     		cmp	r1, #37
 158 006c 0DD0     		beq	.L16
 159              		.loc 1 129 0
 160 006e 3268     		ldr	r2, [r6]
 161              	.LVL18:
 162              		.loc 1 125 0
 163 0070 1D46     		mov	r5, r3
 164              		.loc 1 129 0
 165 0072 9268     		ldr	r2, [r2, #8]
 166 0074 3046     		mov	r0, r6
 167 0076 9047     		blx	r2
 168              	.LVL19:
 169              		.loc 1 125 0
 170 0078 2978     		ldrb	r1, [r5]	@ zero_extendqisi2
ARM GAS  /tmp/cc6KTt4Y.s 			page 4


 171 007a 6B1C     		adds	r3, r5, #1
 172              	.LVL20:
 173              		.loc 1 126 0
 174 007c 0029     		cmp	r1, #0
 175 007e F4D1     		bne	.L103
 176              	.LVL21:
 177              	.L13:
 178              		.loc 1 261 0
 179 0080 0BB0     		add	sp, sp, #44
 180              		.cfi_remember_state
 181              		.cfi_def_cfa_offset 44
 182              		@ sp needed
 183 0082 BDEC028B 		fldmfdd	sp!, {d8}
 184              		.cfi_restore 80
 185              		.cfi_restore 81
 186              		.cfi_def_cfa_offset 36
 187 0086 BDE8F08F 		pop	{r4, r5, r6, r7, r8, r9, r10, fp, pc}
 188              	.LVL22:
 189              	.L16:
 190              		.cfi_restore_state
 191              		.loc 1 135 0
 192 008a 6A78     		ldrb	r2, [r5, #1]	@ zero_extendqisi2
 193              	.LVL23:
 194 008c 2D2A     		cmp	r2, #45
 195 008e 03BF     		ittte	eq
 196 0090 AA78     		ldrbeq	r2, [r5, #2]	@ zero_extendqisi2
 197              		.loc 1 136 0
 198 0092 AB1C     		addeq	r3, r5, #2
 199              	.LVL24:
 200              		.loc 1 137 0
 201 0094 4FF0010A 		moveq	r10, #1
 202              		.loc 1 134 0
 203 0098 4FF0000A 		movne	r10, #0
 204              	.LVL25:
 205              		.loc 1 140 0
 206 009c 2E2A     		cmp	r2, #46
 207 009e 00F05C81 		beq	.L19
 208              		.loc 1 140 0 is_stmt 0 discriminator 1
 209 00a2 302A     		cmp	r2, #48
 210 00a4 00F05981 		beq	.L19
 211              		.loc 1 139 0 is_stmt 1
 212 00a8 4FF02008 		mov	r8, #32
 213              	.LVL26:
 214              	.L20:
 215 00ac 591C     		adds	r1, r3, #1
 216              	.LVL27:
 217              		.loc 1 144 0
 218 00ae 0024     		movs	r4, #0
 219 00b0 05E0     		b	.L23
 220              	.LVL28:
 221              	.L104:
 222              		.loc 1 150 0
 223 00b2 3B78     		ldrb	r3, [r7]	@ zero_extendqisi2
 224              	.LVL29:
 225 00b4 0437     		adds	r7, r7, #4
 226              	.LVL30:
 227              	.L21:
ARM GAS  /tmp/cc6KTt4Y.s 			page 5


 228 00b6 2A78     		ldrb	r2, [r5]	@ zero_extendqisi2
 229              		.loc 1 153 0
 230 00b8 03EB4004 		add	r4, r3, r0, lsl #1
 231              	.LVL31:
 232 00bc 0131     		adds	r1, r1, #1
 233              	.LVL32:
 234              	.L23:
 235              		.loc 1 147 0
 236 00be A2F13003 		sub	r3, r2, #48
 237 00c2 DBB2     		uxtb	r3, r3
 238 00c4 092B     		cmp	r3, #9
 239              		.loc 1 146 0
 240 00c6 0D46     		mov	r5, r1
 241              	.LVL33:
 242              		.loc 1 153 0
 243 00c8 04EB8400 		add	r0, r4, r4, lsl #2
 244              		.loc 1 147 0
 245 00cc F3D9     		bls	.L21
 246              		.loc 1 149 0
 247 00ce 2A2A     		cmp	r2, #42
 248 00d0 EFD0     		beq	.L104
 249              	.LVL34:
 250              		.loc 1 156 0
 251 00d2 2E2A     		cmp	r2, #46
 252 00d4 4FF00001 		mov	r1, #0
 253              	.LVL35:
 254 00d8 43D0     		beq	.L26
 255              	.LVL36:
 256              		.loc 1 170 0
 257 00da 02F0DF03 		and	r3, r2, #223
 258 00de 4C2B     		cmp	r3, #76
 259 00e0 4ED0     		beq	.L105
 260              	.L93:
 261              		.loc 1 179 0
 262 00e2 A2F14400 		sub	r0, r2, #68
 263 00e6 3428     		cmp	r0, #52
 264 00e8 00F22E81 		bhi	.L29
 265 00ec DFE810F0 		tbh	[pc, r0, lsl #1]
 266              	.L39:
 267 00f0 1201     		.2byte	(.L47-.L39)/2
 268 00f2 2C01     		.2byte	(.L29-.L39)/2
 269 00f4 2C01     		.2byte	(.L29-.L39)/2
 270 00f6 2C01     		.2byte	(.L29-.L39)/2
 271 00f8 2C01     		.2byte	(.L29-.L39)/2
 272 00fa 1201     		.2byte	(.L47-.L39)/2
 273 00fc 2C01     		.2byte	(.L29-.L39)/2
 274 00fe 2C01     		.2byte	(.L29-.L39)/2
 275 0100 2C01     		.2byte	(.L29-.L39)/2
 276 0102 2C01     		.2byte	(.L29-.L39)/2
 277 0104 2C01     		.2byte	(.L29-.L39)/2
 278 0106 E300     		.2byte	(.L32-.L39)/2
 279 0108 2C01     		.2byte	(.L29-.L39)/2
 280 010a 2C01     		.2byte	(.L29-.L39)/2
 281 010c 2C01     		.2byte	(.L29-.L39)/2
 282 010e 2C01     		.2byte	(.L29-.L39)/2
 283 0110 2C01     		.2byte	(.L29-.L39)/2
 284 0112 1A01     		.2byte	(.L33-.L39)/2
ARM GAS  /tmp/cc6KTt4Y.s 			page 6


 285 0114 2C01     		.2byte	(.L29-.L39)/2
 286 0116 2C01     		.2byte	(.L29-.L39)/2
 287 0118 2901     		.2byte	(.L74-.L39)/2
 288 011a 2C01     		.2byte	(.L29-.L39)/2
 289 011c 2C01     		.2byte	(.L29-.L39)/2
 290 011e 2C01     		.2byte	(.L29-.L39)/2
 291 0120 2C01     		.2byte	(.L29-.L39)/2
 292 0122 2C01     		.2byte	(.L29-.L39)/2
 293 0124 2C01     		.2byte	(.L29-.L39)/2
 294 0126 2C01     		.2byte	(.L29-.L39)/2
 295 0128 2C01     		.2byte	(.L29-.L39)/2
 296 012a 2C01     		.2byte	(.L29-.L39)/2
 297 012c 2C01     		.2byte	(.L29-.L39)/2
 298 012e 1C01     		.2byte	(.L35-.L39)/2
 299 0130 1201     		.2byte	(.L47-.L39)/2
 300 0132 2C01     		.2byte	(.L29-.L39)/2
 301 0134 A100     		.2byte	(.L36-.L39)/2
 302 0136 2C01     		.2byte	(.L29-.L39)/2
 303 0138 2C01     		.2byte	(.L29-.L39)/2
 304 013a 1201     		.2byte	(.L47-.L39)/2
 305 013c 2C01     		.2byte	(.L29-.L39)/2
 306 013e 2C01     		.2byte	(.L29-.L39)/2
 307 0140 2C01     		.2byte	(.L29-.L39)/2
 308 0142 2C01     		.2byte	(.L29-.L39)/2
 309 0144 2C01     		.2byte	(.L29-.L39)/2
 310 0146 E300     		.2byte	(.L32-.L39)/2
 311 0148 2C01     		.2byte	(.L29-.L39)/2
 312 014a 2C01     		.2byte	(.L29-.L39)/2
 313 014c 2C01     		.2byte	(.L29-.L39)/2
 314 014e 6F00     		.2byte	(.L37-.L39)/2
 315 0150 2C01     		.2byte	(.L29-.L39)/2
 316 0152 1A01     		.2byte	(.L33-.L39)/2
 317 0154 2C01     		.2byte	(.L29-.L39)/2
 318 0156 2C01     		.2byte	(.L29-.L39)/2
 319 0158 2901     		.2byte	(.L74-.L39)/2
 320              	.LVL37:
 321              		.p2align 1
 322              	.L106:
 323              		.loc 1 162 0
 324 015a 3B78     		ldrb	r3, [r7]	@ zero_extendqisi2
 325              	.LVL38:
 326 015c 0437     		adds	r7, r7, #4
 327              	.LVL39:
 328              	.L25:
 329              		.loc 1 166 0
 330 015e 03EB4001 		add	r1, r3, r0, lsl #1
 331              	.LVL40:
 332              	.L26:
 333              		.loc 1 158 0
 334 0162 15F8012B 		ldrb	r2, [r5], #1	@ zero_extendqisi2
 335              	.LVL41:
 336              		.loc 1 159 0
 337 0166 A2F13003 		sub	r3, r2, #48
 338 016a DBB2     		uxtb	r3, r3
 339 016c 092B     		cmp	r3, #9
 340              		.loc 1 165 0
 341 016e 01EB8100 		add	r0, r1, r1, lsl #2
ARM GAS  /tmp/cc6KTt4Y.s 			page 7


 342              		.loc 1 159 0
 343 0172 F4D9     		bls	.L25
 344              		.loc 1 161 0
 345 0174 2A2A     		cmp	r2, #42
 346 0176 F0D0     		beq	.L106
 347              	.LVL42:
 348              		.loc 1 170 0
 349 0178 02F0DF03 		and	r3, r2, #223
 350 017c 4C2B     		cmp	r3, #76
 351 017e B0D1     		bne	.L93
 352              	.L105:
 353              	.LVL43:
 354              		.loc 1 172 0
 355 0180 2B78     		ldrb	r3, [r5]	@ zero_extendqisi2
 356 0182 002B     		cmp	r3, #0
 357 0184 00F0E080 		beq	.L29
 358              		.loc 1 179 0
 359 0188 A3F14402 		sub	r2, r3, #68
 360              	.LVL44:
 361              		.loc 1 173 0
 362 018c 0135     		adds	r5, r5, #1
 363              	.LVL45:
 364              		.loc 1 179 0
 365 018e 342A     		cmp	r2, #52
 366 0190 00F2D980 		bhi	.L71
 367 0194 DFE802F0 		tbb	[pc, r2]
 368              	.L31:
 369 0198 BE       		.byte	(.L47-.L31)/2
 370 0199 D7       		.byte	(.L71-.L31)/2
 371 019a D7       		.byte	(.L71-.L31)/2
 372 019b D7       		.byte	(.L71-.L31)/2
 373 019c D7       		.byte	(.L71-.L31)/2
 374 019d BE       		.byte	(.L47-.L31)/2
 375 019e D7       		.byte	(.L71-.L31)/2
 376 019f D7       		.byte	(.L71-.L31)/2
 377 01a0 D7       		.byte	(.L71-.L31)/2
 378 01a1 D7       		.byte	(.L71-.L31)/2
 379 01a2 D7       		.byte	(.L71-.L31)/2
 380 01a3 8F       		.byte	(.L32-.L31)/2
 381 01a4 D7       		.byte	(.L71-.L31)/2
 382 01a5 D7       		.byte	(.L71-.L31)/2
 383 01a6 D7       		.byte	(.L71-.L31)/2
 384 01a7 D7       		.byte	(.L71-.L31)/2
 385 01a8 D7       		.byte	(.L71-.L31)/2
 386 01a9 C6       		.byte	(.L33-.L31)/2
 387 01aa D7       		.byte	(.L71-.L31)/2
 388 01ab D7       		.byte	(.L71-.L31)/2
 389 01ac D5       		.byte	(.L74-.L31)/2
 390 01ad D7       		.byte	(.L71-.L31)/2
 391 01ae D7       		.byte	(.L71-.L31)/2
 392 01af D7       		.byte	(.L71-.L31)/2
 393 01b0 D7       		.byte	(.L71-.L31)/2
 394 01b1 D7       		.byte	(.L71-.L31)/2
 395 01b2 D7       		.byte	(.L71-.L31)/2
 396 01b3 D7       		.byte	(.L71-.L31)/2
 397 01b4 D7       		.byte	(.L71-.L31)/2
 398 01b5 D7       		.byte	(.L71-.L31)/2
ARM GAS  /tmp/cc6KTt4Y.s 			page 8


 399 01b6 D7       		.byte	(.L71-.L31)/2
 400 01b7 C8       		.byte	(.L35-.L31)/2
 401 01b8 BE       		.byte	(.L47-.L31)/2
 402 01b9 D7       		.byte	(.L71-.L31)/2
 403 01ba 4D       		.byte	(.L36-.L31)/2
 404 01bb D7       		.byte	(.L71-.L31)/2
 405 01bc D7       		.byte	(.L71-.L31)/2
 406 01bd BE       		.byte	(.L47-.L31)/2
 407 01be D7       		.byte	(.L71-.L31)/2
 408 01bf D7       		.byte	(.L71-.L31)/2
 409 01c0 D7       		.byte	(.L71-.L31)/2
 410 01c1 D7       		.byte	(.L71-.L31)/2
 411 01c2 D7       		.byte	(.L71-.L31)/2
 412 01c3 8F       		.byte	(.L32-.L31)/2
 413 01c4 D7       		.byte	(.L71-.L31)/2
 414 01c5 D7       		.byte	(.L71-.L31)/2
 415 01c6 D7       		.byte	(.L71-.L31)/2
 416 01c7 1B       		.byte	(.L37-.L31)/2
 417 01c8 D7       		.byte	(.L71-.L31)/2
 418 01c9 C6       		.byte	(.L33-.L31)/2
 419 01ca D7       		.byte	(.L71-.L31)/2
 420 01cb D7       		.byte	(.L71-.L31)/2
 421 01cc D5       		.byte	(.L74-.L31)/2
 422              	.LVL46:
 423 01cd 00       		.p2align 1
 424              	.L37:
 425              		.loc 1 186 0
 426 01ce D7F800B0 		ldr	fp, [r7]
 427              		.loc 1 187 0
 428 01d2 7D4B     		ldr	r3, .L112+8
 429 01d4 BBF1000F 		cmp	fp, #0
 430 01d8 08BF     		it	eq
 431 01da 9B46     		moveq	fp, r3
 432              		.loc 1 186 0
 433 01dc 0437     		adds	r7, r7, #4
 434              	.LVL47:
 435              		.loc 1 190 0
 436 01de 9BF80030 		ldrb	r3, [fp]	@ zero_extendqisi2
 437              		.loc 1 188 0
 438 01e2 0029     		cmp	r1, #0
 439 01e4 00F0BE80 		beq	.L43
 440              	.LVL48:
 441              		.loc 1 190 0 discriminator 1
 442 01e8 002B     		cmp	r3, #0
 443 01ea 00F0C080 		beq	.L44
 444              		.loc 1 190 0 is_stmt 0
 445 01ee 0139     		subs	r1, r1, #1
 446              	.LVL49:
 447              	.L63:
 448              		.loc 1 190 0 discriminator 4
 449 01f0 5846     		mov	r0, fp
 450 01f2 01E0     		b	.L46
 451              	.LVL50:
 452              	.L107:
 453              		.loc 1 190 0 discriminator 3
 454 01f4 0139     		subs	r1, r1, #1
 455              	.LVL51:
ARM GAS  /tmp/cc6KTt4Y.s 			page 9


 456 01f6 03D4     		bmi	.L98
 457              	.LVL52:
 458              	.L46:
 459              		.loc 1 190 0 discriminator 4
 460 01f8 10F8013F 		ldrb	r3, [r0, #1]!	@ zero_extendqisi2
 461              	.LVL53:
 462 01fc 002B     		cmp	r3, #0
 463 01fe F9D1     		bne	.L107
 464              	.LVL54:
 465              	.L98:
 466 0200 CBEB0000 		rsb	r0, fp, r0
 467              	.LVL55:
 468              		.loc 1 240 0 is_stmt 1
 469 0204 241A     		subs	r4, r4, r0
 470              	.LVL56:
 471 0206 431E     		subs	r3, r0, #1
 472              		.loc 1 185 0
 473 0208 4FF02008 		mov	r8, #32
 474              	.LVL57:
 475 020c 24EAE474 		bic	r4, r4, r4, asr #31
 476              	.LVL58:
 477              		.loc 1 242 0
 478 0210 BAF1000F 		cmp	r10, #0
 479 0214 60D0     		beq	.L108
 480              	.L54:
 481              	.LVL59:
 482              		.loc 1 253 0
 483 0216 B3F1000A 		subs	r10, r3, #0
 484              	.LVL60:
 485 021a 6FDA     		bge	.L60
 486              	.LVL61:
 487              	.L59:
 488              		.loc 1 256 0
 489 021c 002C     		cmp	r4, #0
 490 021e 3FF421AF 		beq	.L14
 491              	.L61:
 492              		.loc 1 257 0
 493 0222 3368     		ldr	r3, [r6]
 494 0224 3046     		mov	r0, r6
 495 0226 9B68     		ldr	r3, [r3, #8]
 496 0228 4146     		mov	r1, r8
 497 022a 9847     		blx	r3
 498              	.LVL62:
 499              		.loc 1 256 0
 500 022c 013C     		subs	r4, r4, #1
 501              	.LVL63:
 502 022e F8D1     		bne	.L61
 503 0230 18E7     		b	.L14
 504              	.LVL64:
 505              	.L36:
 506              		.loc 1 209 0
 507 0232 0737     		adds	r7, r7, #7
 508 0234 27F00707 		bic	r7, r7, #7
 509 0238 D7E90001 		ldrd	r0, [r7]
 510 023c FFF7FEFF 		bl	__aeabi_d2f
 511              	.LVL65:
 512 0240 08EE100A 		fmsr	s16, r0
ARM GAS  /tmp/cc6KTt4Y.s 			page 10


 513              		.loc 1 210 0
 514 0244 B5EEC08A 		fcmpezs	s16
 515 0248 F1EE10FA 		fmstat
 516              		.loc 1 209 0
 517 024c 07F10807 		add	r7, r7, #8
 518              	.LVL66:
 519              		.loc 1 210 0
 520 0250 00F1A380 		bmi	.L109
 521              		.loc 1 132 0
 522 0254 4846     		mov	r0, r9
 523              	.LVL67:
 524              	.L50:
 525              	.LBB12:
 526              	.LBB13:
 527              		.loc 1 80 0
 528 0256 FDEEC87A 		ftosizs	s15, s16
 529              		.loc 1 81 0
 530 025a 0A22     		movs	r2, #10
 531 025c 17EE901A 		fmrs	r1, s15	@ int
 532 0260 0023     		movs	r3, #0
 533              		.loc 1 80 0
 534 0262 CDED017A 		fsts	s15, [sp, #4]	@ int
 535              	.LVL68:
 536              		.loc 1 81 0
 537 0266 FFF7CBFE 		bl	long_to_string_with_divisor
 538              	.LVL69:
 539              		.loc 1 82 0
 540 026a 8346     		mov	fp, r0
 541 026c 2E23     		movs	r3, #46
 542 026e 0BF8013B 		strb	r3, [fp], #1
 543              	.LVL70:
 544              	.LBE13:
 545              	.LBE12:
 546              		.loc 1 214 0
 547 0272 18EE100A 		fmrs	r0, s16
 548 0276 FFF7FEFF 		bl	__aeabi_f2d
 549              	.LVL71:
 550 027a CDE90201 		strd	r0, [sp, #8]
 551              	.LBB15:
 552              	.LBB14:
 553              		.loc 1 83 0
 554 027e 0198     		ldr	r0, [sp, #4]
 555 0280 FFF7FEFF 		bl	__aeabi_i2d
 556              	.LVL72:
 557 0284 0246     		mov	r2, r0
 558 0286 0B46     		mov	r3, r1
 559 0288 DDE90201 		ldrd	r0, [sp, #8]
 560 028c FFF7FEFF 		bl	__aeabi_dsub
 561              	.LVL73:
 562 0290 4BA3     		adr	r3, .L112
 563 0292 D3E90023 		ldrd	r2, [r3]
 564 0296 FFF7FEFF 		bl	__aeabi_dmul
 565              	.LVL74:
 566 029a FFF7FEFF 		bl	__aeabi_d2iz
 567              	.LVL75:
 568              		.loc 1 84 0
 569 029e 42F21073 		movw	r3, #10000
ARM GAS  /tmp/cc6KTt4Y.s 			page 11


 570              		.loc 1 83 0
 571 02a2 0146     		mov	r1, r0
 572              		.loc 1 84 0
 573 02a4 0A22     		movs	r2, #10
 574 02a6 5846     		mov	r0, fp
 575 02a8 FFF7AAFE 		bl	long_to_string_with_divisor
 576              	.LVL76:
 577 02ac C9EB0000 		rsb	r0, r9, r0
 578 02b0 431E     		subs	r3, r0, #1
 579              	.LBE14:
 580              	.LBE15:
 581              		.loc 1 133 0
 582 02b2 CB46     		mov	fp, r9
 583              	.LVL77:
 584              		.loc 1 215 0
 585 02b4 0AE0     		b	.L41
 586              	.LVL78:
 587              	.L32:
 588 02b6 0822     		movs	r2, #8
 589              	.LVL79:
 590              	.L100:
 591              		.loc 1 232 0
 592 02b8 3968     		ldr	r1, [r7]
 593              	.LVL80:
 594              	.LBB16:
 595              	.LBB17:
 596              		.loc 1 72 0
 597 02ba 4846     		mov	r0, r9
 598              	.LBE17:
 599              	.LBE16:
 600              		.loc 1 232 0
 601 02bc 0437     		adds	r7, r7, #4
 602              	.LVL81:
 603              	.L99:
 604              	.LBB19:
 605              	.LBB18:
 606              		.loc 1 72 0
 607 02be 0023     		movs	r3, #0
 608 02c0 FFF79EFE 		bl	long_to_string_with_divisor
 609              	.LVL82:
 610 02c4 C9EB0000 		rsb	r0, r9, r0
 611 02c8 431E     		subs	r3, r0, #1
 612              	.LBE18:
 613              	.LBE19:
 614              		.loc 1 133 0
 615 02ca CB46     		mov	fp, r9
 616              	.LVL83:
 617              	.L41:
 618              		.loc 1 240 0
 619 02cc 241A     		subs	r4, r4, r0
 620              	.LVL84:
 621 02ce 24EAE474 		bic	r4, r4, r4, asr #31
 622              	.LVL85:
 623              		.loc 1 242 0
 624 02d2 BAF1000F 		cmp	r10, #0
 625 02d6 9ED1     		bne	.L54
 626              	.LVL86:
ARM GAS  /tmp/cc6KTt4Y.s 			page 12


 627              	.L108:
 628 02d8 9A46     		mov	r10, r3
 629              	.LVL87:
 630              	.L65:
 631              		.loc 1 243 0
 632 02da 6442     		negs	r4, r4
 633              	.LVL88:
 634              		.loc 1 244 0
 635 02dc 54B1     		cbz	r4, .L55
 636              		.loc 1 245 0
 637 02de 9BF80010 		ldrb	r1, [fp]	@ zero_extendqisi2
 638 02e2 2D29     		cmp	r1, #45
 639 02e4 4DD0     		beq	.L110
 640              	.LVL89:
 641              	.L57:
 642              		.loc 1 250 0 discriminator 1
 643 02e6 3368     		ldr	r3, [r6]
 644 02e8 3046     		mov	r0, r6
 645 02ea 9B68     		ldr	r3, [r3, #8]
 646 02ec 4146     		mov	r1, r8
 647 02ee 9847     		blx	r3
 648              	.LVL90:
 649              		.loc 1 251 0 discriminator 1
 650 02f0 0134     		adds	r4, r4, #1
 651              	.LVL91:
 652 02f2 F8D1     		bne	.L57
 653              	.L55:
 654              	.LVL92:
 655              		.loc 1 253 0
 656 02f4 BAF1000F 		cmp	r10, #0
 657 02f8 FFF6B4AE 		blt	.L14
 658              	.LVL93:
 659              	.L60:
 660              		.loc 1 254 0
 661 02fc 3368     		ldr	r3, [r6]
 662 02fe 1BF8011B 		ldrb	r1, [fp], #1	@ zero_extendqisi2
 663              	.LVL94:
 664 0302 9B68     		ldr	r3, [r3, #8]
 665              		.loc 1 253 0
 666 0304 0AF1FF3A 		add	r10, r10, #-1
 667              	.LVL95:
 668              		.loc 1 254 0
 669 0308 3046     		mov	r0, r6
 670 030a 9847     		blx	r3
 671              	.LVL96:
 672              		.loc 1 253 0
 673 030c BAF1FF3F 		cmp	r10, #-1
 674 0310 F4D1     		bne	.L60
 675 0312 83E7     		b	.L59
 676              	.LVL97:
 677              	.L47:
 678              		.loc 1 200 0
 679 0314 3968     		ldr	r1, [r7]
 680              	.LVL98:
 681              		.loc 1 201 0
 682 0316 0029     		cmp	r1, #0
 683              		.loc 1 200 0
ARM GAS  /tmp/cc6KTt4Y.s 			page 13


 684 0318 07F10407 		add	r7, r7, #4
 685              		.loc 1 201 0
 686 031c 45DB     		blt	.L111
 687              		.loc 1 132 0
 688 031e 4846     		mov	r0, r9
 689              	.LVL99:
 690              	.L49:
 691              	.LBB20:
 692              	.LBB21:
 693              		.loc 1 72 0
 694 0320 0A22     		movs	r2, #10
 695 0322 CCE7     		b	.L99
 696              	.LVL100:
 697              	.L33:
 698              	.LBE21:
 699              	.LBE20:
 700              		.loc 1 224 0
 701 0324 0A22     		movs	r2, #10
 702 0326 C7E7     		b	.L100
 703              	.LVL101:
 704              	.L35:
 705 0328 0DF11100 		add	r0, sp, #17
 706              	.LVL102:
 707              		.loc 1 182 0
 708 032c 3B68     		ldr	r3, [r7]
 709 032e 8DF81030 		strb	r3, [sp, #16]
 710 0332 C9EB0000 		rsb	r0, r9, r0
 711              	.LVL103:
 712 0336 431E     		subs	r3, r0, #1
 713 0338 0437     		adds	r7, r7, #4
 714              		.loc 1 181 0
 715 033a 4FF02008 		mov	r8, #32
 716              		.loc 1 133 0
 717 033e CB46     		mov	fp, r9
 718              		.loc 1 183 0
 719 0340 C4E7     		b	.L41
 720              	.LVL104:
 721              	.L74:
 722              	.L40:
 723              		.loc 1 179 0
 724 0342 1022     		movs	r2, #16
 725 0344 B8E7     		b	.L100
 726              	.LVL105:
 727              	.L71:
 728 0346 1A46     		mov	r2, r3
 729              	.LVL106:
 730              	.L29:
 731 0348 0DF11100 		add	r0, sp, #17
 732              	.LVL107:
 733 034c C9EB0000 		rsb	r0, r9, r0
 734              	.LVL108:
 735              		.loc 1 236 0
 736 0350 8DF81020 		strb	r2, [sp, #16]
 737 0354 431E     		subs	r3, r0, #1
 738              		.loc 1 133 0
 739 0356 CB46     		mov	fp, r9
 740              		.loc 1 237 0
ARM GAS  /tmp/cc6KTt4Y.s 			page 14


 741 0358 B8E7     		b	.L41
 742              	.LVL109:
 743              	.L19:
 744 035a 5A78     		ldrb	r2, [r3, #1]	@ zero_extendqisi2
 745              		.loc 1 142 0
 746 035c 4FF03008 		mov	r8, #48
 747              		.loc 1 141 0
 748 0360 0133     		adds	r3, r3, #1
 749              	.LVL110:
 750 0362 A3E6     		b	.L20
 751              	.LVL111:
 752              	.L43:
 753              		.loc 1 190 0
 754 0364 47F6FE71 		movw	r1, #32766
 755 0368 002B     		cmp	r3, #0
 756 036a 7FF441AF 		bne	.L63
 757              	.LVL112:
 758              	.L44:
 759 036e 24EAE474 		bic	r4, r4, r4, asr #31
 760              	.LVL113:
 761              		.loc 1 242 0
 762 0372 BAF1000F 		cmp	r10, #0
 763 0376 1FD1     		bne	.L78
 764 0378 4FF0FF3A 		mov	r10, #-1
 765              	.LVL114:
 766 037c 4FF02008 		mov	r8, #32
 767 0380 ABE7     		b	.L65
 768              	.LVL115:
 769              	.L110:
 770              		.loc 1 245 0 discriminator 1
 771 0382 B8F1300F 		cmp	r8, #48
 772 0386 AED1     		bne	.L57
 773              		.loc 1 246 0
 774 0388 3368     		ldr	r3, [r6]
 775 038a 3046     		mov	r0, r6
 776 038c 9B68     		ldr	r3, [r3, #8]
 777 038e 9847     		blx	r3
 778              	.LVL116:
 779 0390 0BF1010B 		add	fp, fp, #1
 780              	.LVL117:
 781 0394 0AF1FF3A 		add	r10, r10, #-1
 782              	.LVL118:
 783 0398 A5E7     		b	.L57
 784              	.LVL119:
 785              	.L109:
 786              		.loc 1 211 0
 787 039a 2D23     		movs	r3, #45
 788              		.loc 1 212 0
 789 039c B1EE488A 		fnegs	s16, s16
 790              	.LVL120:
 791              		.loc 1 211 0
 792 03a0 8DF81030 		strb	r3, [sp, #16]
 793 03a4 0DF11100 		add	r0, sp, #17
 794              	.LVL121:
 795 03a8 55E7     		b	.L50
 796              	.LVL122:
 797              	.L111:
ARM GAS  /tmp/cc6KTt4Y.s 			page 15


 798              		.loc 1 202 0
 799 03aa 2D23     		movs	r3, #45
 800              		.loc 1 203 0
 801 03ac 4942     		negs	r1, r1
 802              	.LVL123:
 803              		.loc 1 202 0
 804 03ae 8DF81030 		strb	r3, [sp, #16]
 805 03b2 0DF11100 		add	r0, sp, #17
 806              	.LVL124:
 807 03b6 B3E7     		b	.L49
 808              	.LVL125:
 809              	.L78:
 810              		.loc 1 242 0
 811 03b8 4FF02008 		mov	r8, #32
 812 03bc 2EE7     		b	.L59
 813              	.L113:
 814 03be 00BF     		.align	3
 815              	.L112:
 816 03c0 00000000 		.word	0
 817 03c4 006AF840 		.word	1090021888
 818 03c8 00000000 		.word	.LC0
 819              		.cfi_endproc
 820              	.LFE11:
 821              		.size	chvprintf, .-chvprintf
 822              		.align	2
 823 03cc AFF30080 		.p2align 4,,15
 824              		.global	chsnprintf
 825              		.thumb
 826              		.thumb_func
 827              		.type	chsnprintf, %function
 828              	chsnprintf:
 829              	.LFB12:
 830              		.loc 1 288 0
 831              		.cfi_startproc
 832              		@ args = 4, pretend = 8, frame = 24
 833              		@ frame_needed = 0, uses_anonymous_args = 1
 834              	.LVL126:
 835 03d0 0CB4     		push	{r2, r3}
 836              		.cfi_def_cfa_offset 8
 837              		.cfi_offset 2, -8
 838              		.cfi_offset 3, -4
 839 03d2 70B5     		push	{r4, r5, r6, lr}
 840              		.cfi_def_cfa_offset 24
 841              		.cfi_offset 4, -24
 842              		.cfi_offset 5, -20
 843              		.cfi_offset 6, -16
 844              		.cfi_offset 14, -12
 845 03d4 86B0     		sub	sp, sp, #24
 846              		.cfi_def_cfa_offset 48
 847              		.loc 1 288 0
 848 03d6 0AAC     		add	r4, sp, #40
 849 03d8 0546     		mov	r5, r0
 850 03da 54F8046B 		ldr	r6, [r4], #4
 851              		.loc 1 295 0
 852 03de 4A1E     		subs	r2, r1, #1
 853 03e0 0023     		movs	r3, #0
 854 03e2 0146     		mov	r1, r0
ARM GAS  /tmp/cc6KTt4Y.s 			page 16


 855              	.LVL127:
 856 03e4 01A8     		add	r0, sp, #4
 857              	.LVL128:
 858 03e6 FFF7FEFF 		bl	msObjectInit
 859              	.LVL129:
 860              		.loc 1 300 0
 861 03ea 01A8     		add	r0, sp, #4
 862              	.LVL130:
 863 03ec 3146     		mov	r1, r6
 864 03ee 2246     		mov	r2, r4
 865              		.loc 1 299 0
 866 03f0 0094     		str	r4, [sp]
 867              		.loc 1 300 0
 868 03f2 FFF7FEFF 		bl	chvprintf
 869              	.LVL131:
 870              		.loc 1 304 0
 871 03f6 0498     		ldr	r0, [sp, #16]
 872 03f8 0023     		movs	r3, #0
 873 03fa 2B54     		strb	r3, [r5, r0]
 874              		.loc 1 306 0
 875 03fc 06B0     		add	sp, sp, #24
 876              		.cfi_def_cfa_offset 24
 877              		@ sp needed
 878 03fe BDE87040 		pop	{r4, r5, r6, lr}
 879              		.cfi_restore 14
 880              		.cfi_restore 6
 881              		.cfi_restore 5
 882              		.cfi_restore 4
 883              		.cfi_def_cfa_offset 8
 884              	.LVL132:
 885 0402 02B0     		add	sp, sp, #8
 886              		.cfi_restore 3
 887              		.cfi_restore 2
 888              		.cfi_def_cfa_offset 0
 889 0404 7047     		bx	lr
 890              		.cfi_endproc
 891              	.LFE12:
 892              		.size	chsnprintf, .-chsnprintf
 893              		.section	.rodata.str1.4,"aMS",%progbits,1
 894              		.align	2
 895              	.LC0:
 896 0000 286E756C 		.ascii	"(null)\000"
 896      6C2900
 897              		.text
 898              	.Letext0:
 899              		.file 2 "/home/sbcu/Dropbox/pcb-layouts/axo-on-discovery-board/axoloti/platform_linux/lib/gcc/arm-
 900              		.file 3 "/home/sbcu/Dropbox/pcb-layouts/axo-on-discovery-board/axoloti/platform_linux/arm-none-eab
 901              		.file 4 "/home/sbcu/Dropbox/pcb-layouts/axo-on-discovery-board/axoloti/platform_linux/arm-none-eab
 902              		.file 5 "/home/sbcu/Dropbox/pcb-layouts/axo-on-discovery-board/axoloti/platform_linux/../chibios/o
 903              		.file 6 "/home/sbcu/Dropbox/pcb-layouts/axo-on-discovery-board/axoloti/platform_linux/../chibios/o
 904              		.file 7 "/home/sbcu/Dropbox/pcb-layouts/axo-on-discovery-board/axoloti/platform_linux/lib/gcc/arm-
 905              		.file 8 "<built-in>"
 906              		.file 9 "/home/sbcu/Dropbox/pcb-layouts/axo-on-discovery-board/axoloti/platform_linux/../chibios/o
 907 0406 00BF     		.section	.debug_info,"",%progbits
 908              	.Ldebug_info0:
 909 0000 A5060000 		.4byte	0x6a5
 910 0004 0400     		.2byte	0x4
ARM GAS  /tmp/cc6KTt4Y.s 			page 17


 911 0006 00000000 		.4byte	.Ldebug_abbrev0
 912 000a 04       		.byte	0x4
 913 000b 01       		.uleb128 0x1
 914 000c 98020000 		.4byte	.LASF43
 915 0010 01       		.byte	0x1
 916 0011 E8010000 		.4byte	.LASF44
 917 0015 56010000 		.4byte	.LASF45
 918 0019 00000000 		.4byte	.Ltext0
 919 001d 06040000 		.4byte	.Letext0-.Ltext0
 920 0021 00000000 		.4byte	.Ldebug_line0
 921 0025 02       		.uleb128 0x2
 922 0026 08       		.byte	0x8
 923 0027 04       		.byte	0x4
 924 0028 7B000000 		.4byte	.LASF0
 925 002c 03       		.uleb128 0x3
 926 002d 04       		.byte	0x4
 927 002e 05       		.byte	0x5
 928 002f 696E7400 		.ascii	"int\000"
 929 0033 02       		.uleb128 0x2
 930 0034 04       		.byte	0x4
 931 0035 04       		.byte	0x4
 932 0036 50010000 		.4byte	.LASF1
 933 003a 04       		.uleb128 0x4
 934 003b 00000000 		.4byte	.LASF4
 935 003f 02       		.byte	0x2
 936 0040 D4       		.byte	0xd4
 937 0041 45000000 		.4byte	0x45
 938 0045 02       		.uleb128 0x2
 939 0046 04       		.byte	0x4
 940 0047 07       		.byte	0x7
 941 0048 AD000000 		.4byte	.LASF2
 942 004c 02       		.uleb128 0x2
 943 004d 01       		.byte	0x1
 944 004e 06       		.byte	0x6
 945 004f 43000000 		.4byte	.LASF3
 946 0053 04       		.uleb128 0x4
 947 0054 07000000 		.4byte	.LASF5
 948 0058 03       		.byte	0x3
 949 0059 1D       		.byte	0x1d
 950 005a 5E000000 		.4byte	0x5e
 951 005e 02       		.uleb128 0x2
 952 005f 01       		.byte	0x1
 953 0060 08       		.byte	0x8
 954 0061 B8010000 		.4byte	.LASF6
 955 0065 02       		.uleb128 0x2
 956 0066 02       		.byte	0x2
 957 0067 05       		.byte	0x5
 958 0068 C6010000 		.4byte	.LASF7
 959 006c 02       		.uleb128 0x2
 960 006d 02       		.byte	0x2
 961 006e 07       		.byte	0x7
 962 006f E2000000 		.4byte	.LASF8
 963 0073 04       		.uleb128 0x4
 964 0074 65020000 		.4byte	.LASF9
 965 0078 03       		.byte	0x3
 966 0079 3F       		.byte	0x3f
 967 007a 7E000000 		.4byte	0x7e
ARM GAS  /tmp/cc6KTt4Y.s 			page 18


 968 007e 02       		.uleb128 0x2
 969 007f 04       		.byte	0x4
 970 0080 05       		.byte	0x5
 971 0081 5D000000 		.4byte	.LASF10
 972 0085 02       		.uleb128 0x2
 973 0086 04       		.byte	0x4
 974 0087 07       		.byte	0x7
 975 0088 BA000000 		.4byte	.LASF11
 976 008c 02       		.uleb128 0x2
 977 008d 08       		.byte	0x8
 978 008e 05       		.byte	0x5
 979 008f 35000000 		.4byte	.LASF12
 980 0093 02       		.uleb128 0x2
 981 0094 08       		.byte	0x8
 982 0095 07       		.byte	0x7
 983 0096 1E000000 		.4byte	.LASF13
 984 009a 04       		.uleb128 0x4
 985 009b 81020000 		.4byte	.LASF14
 986 009f 04       		.byte	0x4
 987 00a0 14       		.byte	0x14
 988 00a1 53000000 		.4byte	0x53
 989 00a5 04       		.uleb128 0x4
 990 00a6 B0010000 		.4byte	.LASF15
 991 00aa 04       		.byte	0x4
 992 00ab 1F       		.byte	0x1f
 993 00ac 73000000 		.4byte	0x73
 994 00b0 04       		.uleb128 0x4
 995 00b1 4F000000 		.4byte	.LASF16
 996 00b5 05       		.byte	0x5
 997 00b6 2B       		.byte	0x2b
 998 00b7 BB000000 		.4byte	0xbb
 999 00bb 02       		.uleb128 0x2
 1000 00bc 01       		.byte	0x1
 1001 00bd 02       		.byte	0x2
 1002 00be AA010000 		.4byte	.LASF17
 1003 00c2 04       		.uleb128 0x4
 1004 00c3 F5000000 		.4byte	.LASF18
 1005 00c7 05       		.byte	0x5
 1006 00c8 31       		.byte	0x31
 1007 00c9 A5000000 		.4byte	0xa5
 1008 00cd 05       		.uleb128 0x5
 1009 00ce 04       		.byte	0x4
 1010 00cf 02       		.uleb128 0x2
 1011 00d0 04       		.byte	0x4
 1012 00d1 07       		.byte	0x7
 1013 00d2 13010000 		.4byte	.LASF19
 1014 00d6 06       		.uleb128 0x6
 1015 00d7 04       		.byte	0x4
 1016 00d8 DC000000 		.4byte	0xdc
 1017 00dc 07       		.uleb128 0x7
 1018 00dd E1000000 		.4byte	0xe1
 1019 00e1 02       		.uleb128 0x2
 1020 00e2 01       		.byte	0x1
 1021 00e3 08       		.byte	0x8
 1022 00e4 56020000 		.4byte	.LASF20
 1023 00e8 06       		.uleb128 0x6
 1024 00e9 04       		.byte	0x4
ARM GAS  /tmp/cc6KTt4Y.s 			page 19


 1025 00ea EE000000 		.4byte	0xee
 1026 00ee 08       		.uleb128 0x8
 1027 00ef C2000000 		.4byte	0xc2
 1028 00f3 FD000000 		.4byte	0xfd
 1029 00f7 09       		.uleb128 0x9
 1030 00f8 CD000000 		.4byte	0xcd
 1031 00fc 00       		.byte	0
 1032 00fd 06       		.uleb128 0x6
 1033 00fe 04       		.byte	0x4
 1034 00ff 9A000000 		.4byte	0x9a
 1035 0103 0A       		.uleb128 0xa
 1036 0104 D0010000 		.4byte	.LASF25
 1037 0108 10       		.byte	0x10
 1038 0109 06       		.byte	0x6
 1039 010a 48       		.byte	0x48
 1040 010b 40010000 		.4byte	0x140
 1041 010f 0B       		.uleb128 0xb
 1042 0110 0D010000 		.4byte	.LASF21
 1043 0114 06       		.byte	0x6
 1044 0115 49       		.byte	0x49
 1045 0116 64010000 		.4byte	0x164
 1046 011a 00       		.byte	0
 1047 011b 0B       		.uleb128 0xb
 1048 011c 93020000 		.4byte	.LASF22
 1049 0120 06       		.byte	0x6
 1050 0121 49       		.byte	0x49
 1051 0122 83010000 		.4byte	0x183
 1052 0126 04       		.byte	0x4
 1053 0127 0C       		.uleb128 0xc
 1054 0128 70757400 		.ascii	"put\000"
 1055 012c 06       		.byte	0x6
 1056 012d 49       		.byte	0x49
 1057 012e 9D010000 		.4byte	0x19d
 1058 0132 08       		.byte	0x8
 1059 0133 0C       		.uleb128 0xc
 1060 0134 67657400 		.ascii	"get\000"
 1061 0138 06       		.byte	0x6
 1062 0139 49       		.byte	0x49
 1063 013a E8000000 		.4byte	0xe8
 1064 013e 0C       		.byte	0xc
 1065 013f 00       		.byte	0
 1066 0140 08       		.uleb128 0x8
 1067 0141 3A000000 		.4byte	0x3a
 1068 0145 59010000 		.4byte	0x159
 1069 0149 09       		.uleb128 0x9
 1070 014a CD000000 		.4byte	0xcd
 1071 014e 09       		.uleb128 0x9
 1072 014f 59010000 		.4byte	0x159
 1073 0153 09       		.uleb128 0x9
 1074 0154 3A000000 		.4byte	0x3a
 1075 0158 00       		.byte	0
 1076 0159 06       		.uleb128 0x6
 1077 015a 04       		.byte	0x4
 1078 015b 5F010000 		.4byte	0x15f
 1079 015f 07       		.uleb128 0x7
 1080 0160 9A000000 		.4byte	0x9a
 1081 0164 06       		.uleb128 0x6
ARM GAS  /tmp/cc6KTt4Y.s 			page 20


 1082 0165 04       		.byte	0x4
 1083 0166 40010000 		.4byte	0x140
 1084 016a 08       		.uleb128 0x8
 1085 016b 3A000000 		.4byte	0x3a
 1086 016f 83010000 		.4byte	0x183
 1087 0173 09       		.uleb128 0x9
 1088 0174 CD000000 		.4byte	0xcd
 1089 0178 09       		.uleb128 0x9
 1090 0179 FD000000 		.4byte	0xfd
 1091 017d 09       		.uleb128 0x9
 1092 017e 3A000000 		.4byte	0x3a
 1093 0182 00       		.byte	0
 1094 0183 06       		.uleb128 0x6
 1095 0184 04       		.byte	0x4
 1096 0185 6A010000 		.4byte	0x16a
 1097 0189 08       		.uleb128 0x8
 1098 018a C2000000 		.4byte	0xc2
 1099 018e 9D010000 		.4byte	0x19d
 1100 0192 09       		.uleb128 0x9
 1101 0193 CD000000 		.4byte	0xcd
 1102 0197 09       		.uleb128 0x9
 1103 0198 9A000000 		.4byte	0x9a
 1104 019c 00       		.byte	0
 1105 019d 06       		.uleb128 0x6
 1106 019e 04       		.byte	0x4
 1107 019f 89010000 		.4byte	0x189
 1108 01a3 0D       		.uleb128 0xd
 1109 01a4 04       		.byte	0x4
 1110 01a5 06       		.byte	0x6
 1111 01a6 51       		.byte	0x51
 1112 01a7 B8010000 		.4byte	0x1b8
 1113 01ab 0C       		.uleb128 0xc
 1114 01ac 766D7400 		.ascii	"vmt\000"
 1115 01b0 06       		.byte	0x6
 1116 01b1 53       		.byte	0x53
 1117 01b2 B8010000 		.4byte	0x1b8
 1118 01b6 00       		.byte	0
 1119 01b7 00       		.byte	0
 1120 01b8 06       		.uleb128 0x6
 1121 01b9 04       		.byte	0x4
 1122 01ba BE010000 		.4byte	0x1be
 1123 01be 07       		.uleb128 0x7
 1124 01bf 03010000 		.4byte	0x103
 1125 01c3 04       		.uleb128 0x4
 1126 01c4 98000000 		.4byte	.LASF23
 1127 01c8 06       		.byte	0x6
 1128 01c9 55       		.byte	0x55
 1129 01ca A3010000 		.4byte	0x1a3
 1130 01ce 04       		.uleb128 0x4
 1131 01cf 34010000 		.4byte	.LASF24
 1132 01d3 07       		.byte	0x7
 1133 01d4 28       		.byte	0x28
 1134 01d5 D9010000 		.4byte	0x1d9
 1135 01d9 0A       		.uleb128 0xa
 1136 01da 71000000 		.4byte	.LASF26
 1137 01de 04       		.byte	0x4
 1138 01df 08       		.byte	0x8
ARM GAS  /tmp/cc6KTt4Y.s 			page 21


 1139 01e0 00       		.byte	0
 1140 01e1 F0010000 		.4byte	0x1f0
 1141 01e5 0E       		.uleb128 0xe
 1142 01e6 7C020000 		.4byte	.LASF46
 1143 01ea CD000000 		.4byte	0xcd
 1144 01ee 00       		.byte	0
 1145 01ef 00       		.byte	0
 1146 01f0 04       		.uleb128 0x4
 1147 01f1 11000000 		.4byte	.LASF27
 1148 01f5 07       		.byte	0x7
 1149 01f6 62       		.byte	0x62
 1150 01f7 CE010000 		.4byte	0x1ce
 1151 01fb 0A       		.uleb128 0xa
 1152 01fc 43010000 		.4byte	.LASF28
 1153 0200 10       		.byte	0x10
 1154 0201 09       		.byte	0x9
 1155 0202 3D       		.byte	0x3d
 1156 0203 38020000 		.4byte	0x238
 1157 0207 0B       		.uleb128 0xb
 1158 0208 0D010000 		.4byte	.LASF21
 1159 020c 09       		.byte	0x9
 1160 020d 3E       		.byte	0x3e
 1161 020e 64010000 		.4byte	0x164
 1162 0212 00       		.byte	0
 1163 0213 0B       		.uleb128 0xb
 1164 0214 93020000 		.4byte	.LASF22
 1165 0218 09       		.byte	0x9
 1166 0219 3E       		.byte	0x3e
 1167 021a 83010000 		.4byte	0x183
 1168 021e 04       		.byte	0x4
 1169 021f 0C       		.uleb128 0xc
 1170 0220 70757400 		.ascii	"put\000"
 1171 0224 09       		.byte	0x9
 1172 0225 3E       		.byte	0x3e
 1173 0226 9D010000 		.4byte	0x19d
 1174 022a 08       		.byte	0x8
 1175 022b 0C       		.uleb128 0xc
 1176 022c 67657400 		.ascii	"get\000"
 1177 0230 09       		.byte	0x9
 1178 0231 3E       		.byte	0x3e
 1179 0232 E8000000 		.4byte	0xe8
 1180 0236 0C       		.byte	0xc
 1181 0237 00       		.byte	0
 1182 0238 0D       		.uleb128 0xd
 1183 0239 14       		.byte	0x14
 1184 023a 09       		.byte	0x9
 1185 023b 46       		.byte	0x46
 1186 023c 7D020000 		.4byte	0x27d
 1187 0240 0C       		.uleb128 0xc
 1188 0241 766D7400 		.ascii	"vmt\000"
 1189 0245 09       		.byte	0x9
 1190 0246 48       		.byte	0x48
 1191 0247 7D020000 		.4byte	0x27d
 1192 024b 00       		.byte	0
 1193 024c 0B       		.uleb128 0xb
 1194 024d 82000000 		.4byte	.LASF29
 1195 0251 09       		.byte	0x9
ARM GAS  /tmp/cc6KTt4Y.s 			page 22


 1196 0252 49       		.byte	0x49
 1197 0253 FD000000 		.4byte	0xfd
 1198 0257 04       		.byte	0x4
 1199 0258 0B       		.uleb128 0xb
 1200 0259 DD000000 		.4byte	.LASF30
 1201 025d 09       		.byte	0x9
 1202 025e 49       		.byte	0x49
 1203 025f 3A000000 		.4byte	0x3a
 1204 0263 08       		.byte	0x8
 1205 0264 0C       		.uleb128 0xc
 1206 0265 656F7300 		.ascii	"eos\000"
 1207 0269 09       		.byte	0x9
 1208 026a 49       		.byte	0x49
 1209 026b 3A000000 		.4byte	0x3a
 1210 026f 0C       		.byte	0xc
 1211 0270 0B       		.uleb128 0xb
 1212 0271 6F020000 		.4byte	.LASF31
 1213 0275 09       		.byte	0x9
 1214 0276 49       		.byte	0x49
 1215 0277 3A000000 		.4byte	0x3a
 1216 027b 10       		.byte	0x10
 1217 027c 00       		.byte	0
 1218 027d 06       		.uleb128 0x6
 1219 027e 04       		.byte	0x4
 1220 027f 83020000 		.4byte	0x283
 1221 0283 07       		.uleb128 0x7
 1222 0284 FB010000 		.4byte	0x1fb
 1223 0288 04       		.uleb128 0x4
 1224 0289 9D010000 		.4byte	.LASF32
 1225 028d 09       		.byte	0x9
 1226 028e 4A       		.byte	0x4a
 1227 028f 38020000 		.4byte	0x238
 1228 0293 0F       		.uleb128 0xf
 1229 0294 FB000000 		.4byte	.LASF35
 1230 0298 01       		.byte	0x1
 1231 0299 46       		.byte	0x46
 1232 029a C3020000 		.4byte	0x2c3
 1233 029e 01       		.byte	0x1
 1234 029f C3020000 		.4byte	0x2c3
 1235 02a3 10       		.uleb128 0x10
 1236 02a4 7000     		.ascii	"p\000"
 1237 02a6 01       		.byte	0x1
 1238 02a7 46       		.byte	0x46
 1239 02a8 C3020000 		.4byte	0x2c3
 1240 02ac 10       		.uleb128 0x10
 1241 02ad 6E756D00 		.ascii	"num\000"
 1242 02b1 01       		.byte	0x1
 1243 02b2 46       		.byte	0x46
 1244 02b3 7E000000 		.4byte	0x7e
 1245 02b7 11       		.uleb128 0x11
 1246 02b8 76020000 		.4byte	.LASF33
 1247 02bc 01       		.byte	0x1
 1248 02bd 46       		.byte	0x46
 1249 02be 45000000 		.4byte	0x45
 1250 02c2 00       		.byte	0
 1251 02c3 06       		.uleb128 0x6
 1252 02c4 04       		.byte	0x4
ARM GAS  /tmp/cc6KTt4Y.s 			page 23


 1253 02c5 E1000000 		.4byte	0xe1
 1254 02c9 12       		.uleb128 0x12
 1255 02ca 91030000 		.4byte	.LASF47
 1256 02ce 01       		.byte	0x1
 1257 02cf 25       		.byte	0x25
 1258 02d0 C3020000 		.4byte	0x2c3
 1259 02d4 00000000 		.4byte	.LFB8
 1260 02d8 48000000 		.4byte	.LFE8-.LFB8
 1261 02dc 01       		.uleb128 0x1
 1262 02dd 9C       		.byte	0x9c
 1263 02de 50030000 		.4byte	0x350
 1264 02e2 13       		.uleb128 0x13
 1265 02e3 7000     		.ascii	"p\000"
 1266 02e5 01       		.byte	0x1
 1267 02e6 25       		.byte	0x25
 1268 02e7 C3020000 		.4byte	0x2c3
 1269 02eb 00000000 		.4byte	.LLST0
 1270 02ef 13       		.uleb128 0x13
 1271 02f0 6E756D00 		.ascii	"num\000"
 1272 02f4 01       		.byte	0x1
 1273 02f5 26       		.byte	0x26
 1274 02f6 7E000000 		.4byte	0x7e
 1275 02fa 38000000 		.4byte	.LLST1
 1276 02fe 14       		.uleb128 0x14
 1277 02ff 76020000 		.4byte	.LASF33
 1278 0303 01       		.byte	0x1
 1279 0304 27       		.byte	0x27
 1280 0305 45000000 		.4byte	0x45
 1281 0309 01       		.uleb128 0x1
 1282 030a 52       		.byte	0x52
 1283 030b 15       		.uleb128 0x15
 1284 030c 2C010000 		.4byte	.LASF34
 1285 0310 01       		.byte	0x1
 1286 0311 28       		.byte	0x28
 1287 0312 7E000000 		.4byte	0x7e
 1288 0316 59000000 		.4byte	.LLST2
 1289 031a 16       		.uleb128 0x16
 1290 031b 6900     		.ascii	"i\000"
 1291 031d 01       		.byte	0x1
 1292 031e 29       		.byte	0x29
 1293 031f 2C000000 		.4byte	0x2c
 1294 0323 7A000000 		.4byte	.LLST3
 1295 0327 16       		.uleb128 0x16
 1296 0328 7100     		.ascii	"q\000"
 1297 032a 01       		.byte	0x1
 1298 032b 2A       		.byte	0x2a
 1299 032c C3020000 		.4byte	0x2c3
 1300 0330 A8000000 		.4byte	.LLST4
 1301 0334 16       		.uleb128 0x16
 1302 0335 6C00     		.ascii	"l\000"
 1303 0337 01       		.byte	0x1
 1304 0338 2B       		.byte	0x2b
 1305 0339 7E000000 		.4byte	0x7e
 1306 033d DE000000 		.4byte	.LLST5
 1307 0341 16       		.uleb128 0x16
 1308 0342 6C6C00   		.ascii	"ll\000"
 1309 0345 01       		.byte	0x1
ARM GAS  /tmp/cc6KTt4Y.s 			page 24


 1310 0346 2B       		.byte	0x2b
 1311 0347 7E000000 		.4byte	0x7e
 1312 034b FC000000 		.4byte	.LLST6
 1313 034f 00       		.byte	0
 1314 0350 0F       		.uleb128 0xf
 1315 0351 19000000 		.4byte	.LASF36
 1316 0355 01       		.byte	0x1
 1317 0356 4C       		.byte	0x4c
 1318 0357 C3020000 		.4byte	0x2c3
 1319 035b 01       		.byte	0x1
 1320 035c 89030000 		.4byte	0x389
 1321 0360 10       		.uleb128 0x10
 1322 0361 7000     		.ascii	"p\000"
 1323 0363 01       		.byte	0x1
 1324 0364 4C       		.byte	0x4c
 1325 0365 C3020000 		.4byte	0x2c3
 1326 0369 10       		.uleb128 0x10
 1327 036a 6E756D00 		.ascii	"num\000"
 1328 036e 01       		.byte	0x1
 1329 036f 4C       		.byte	0x4c
 1330 0370 25000000 		.4byte	0x25
 1331 0374 17       		.uleb128 0x17
 1332 0375 6C00     		.ascii	"l\000"
 1333 0377 01       		.byte	0x1
 1334 0378 4D       		.byte	0x4d
 1335 0379 7E000000 		.4byte	0x7e
 1336 037d 18       		.uleb128 0x18
 1337 037e 5B020000 		.4byte	.LASF37
 1338 0382 01       		.byte	0x1
 1339 0383 4E       		.byte	0x4e
 1340 0384 85000000 		.4byte	0x85
 1341 0388 00       		.byte	0
 1342 0389 19       		.uleb128 0x19
 1343 038a 89020000 		.4byte	.LASF48
 1344 038e 01       		.byte	0x1
 1345 038f 70       		.byte	0x70
 1346 0390 50000000 		.4byte	.LFB11
 1347 0394 7C030000 		.4byte	.LFE11-.LFB11
 1348 0398 01       		.uleb128 0x1
 1349 0399 9C       		.byte	0x9c
 1350 039a B1050000 		.4byte	0x5b1
 1351 039e 13       		.uleb128 0x13
 1352 039f 63687000 		.ascii	"chp\000"
 1353 03a3 01       		.byte	0x1
 1354 03a4 70       		.byte	0x70
 1355 03a5 B1050000 		.4byte	0x5b1
 1356 03a9 1A010000 		.4byte	.LLST7
 1357 03ad 13       		.uleb128 0x13
 1358 03ae 666D7400 		.ascii	"fmt\000"
 1359 03b2 01       		.byte	0x1
 1360 03b3 70       		.byte	0x70
 1361 03b4 D6000000 		.4byte	0xd6
 1362 03b8 38010000 		.4byte	.LLST8
 1363 03bc 13       		.uleb128 0x13
 1364 03bd 617000   		.ascii	"ap\000"
 1365 03c0 01       		.byte	0x1
 1366 03c1 70       		.byte	0x70
ARM GAS  /tmp/cc6KTt4Y.s 			page 25


 1367 03c2 F0010000 		.4byte	0x1f0
 1368 03c6 F8010000 		.4byte	.LLST9
 1369 03ca 16       		.uleb128 0x16
 1370 03cb 7000     		.ascii	"p\000"
 1371 03cd 01       		.byte	0x1
 1372 03ce 71       		.byte	0x71
 1373 03cf C3020000 		.4byte	0x2c3
 1374 03d3 16020000 		.4byte	.LLST10
 1375 03d7 16       		.uleb128 0x16
 1376 03d8 7300     		.ascii	"s\000"
 1377 03da 01       		.byte	0x1
 1378 03db 71       		.byte	0x71
 1379 03dc C3020000 		.4byte	0x2c3
 1380 03e0 47030000 		.4byte	.LLST11
 1381 03e4 16       		.uleb128 0x16
 1382 03e5 6300     		.ascii	"c\000"
 1383 03e7 01       		.byte	0x1
 1384 03e8 71       		.byte	0x71
 1385 03e9 E1000000 		.4byte	0xe1
 1386 03ed CA030000 		.4byte	.LLST12
 1387 03f1 1A       		.uleb128 0x1a
 1388 03f2 89000000 		.4byte	.LASF38
 1389 03f6 01       		.byte	0x1
 1390 03f7 71       		.byte	0x71
 1391 03f8 E1000000 		.4byte	0xe1
 1392 03fc 58040000 		.4byte	.LLST13
 1393 0400 16       		.uleb128 0x16
 1394 0401 6900     		.ascii	"i\000"
 1395 0403 01       		.byte	0x1
 1396 0404 72       		.byte	0x72
 1397 0405 2C000000 		.4byte	0x2c
 1398 0409 F0040000 		.4byte	.LLST14
 1399 040d 1A       		.uleb128 0x1a
 1400 040e 5B020000 		.4byte	.LASF37
 1401 0412 01       		.byte	0x1
 1402 0413 72       		.byte	0x72
 1403 0414 2C000000 		.4byte	0x2c
 1404 0418 6C050000 		.4byte	.LLST15
 1405 041c 1A       		.uleb128 0x1a
 1406 041d D7000000 		.4byte	.LASF39
 1407 0421 01       		.byte	0x1
 1408 0422 72       		.byte	0x72
 1409 0423 2C000000 		.4byte	0x2c
 1410 0427 04060000 		.4byte	.LLST16
 1411 042b 1A       		.uleb128 0x1a
 1412 042c 90000000 		.4byte	.LASF40
 1413 0430 01       		.byte	0x1
 1414 0431 73       		.byte	0x73
 1415 0432 B0000000 		.4byte	0xb0
 1416 0436 74060000 		.4byte	.LLST17
 1417 043a 1A       		.uleb128 0x1a
 1418 043b CC000000 		.4byte	.LASF41
 1419 043f 01       		.byte	0x1
 1420 0440 73       		.byte	0x73
 1421 0441 B0000000 		.4byte	0xb0
 1422 0445 94060000 		.4byte	.LLST18
 1423 0449 16       		.uleb128 0x16
ARM GAS  /tmp/cc6KTt4Y.s 			page 26


 1424 044a 6C00     		.ascii	"l\000"
 1425 044c 01       		.byte	0x1
 1426 044d 74       		.byte	0x74
 1427 044e 7E000000 		.4byte	0x7e
 1428 0452 E0060000 		.4byte	.LLST19
 1429 0456 16       		.uleb128 0x16
 1430 0457 6600     		.ascii	"f\000"
 1431 0459 01       		.byte	0x1
 1432 045a 76       		.byte	0x76
 1433 045b 33000000 		.4byte	0x33
 1434 045f 09070000 		.4byte	.LLST20
 1435 0463 1B       		.uleb128 0x1b
 1436 0464 56000000 		.4byte	.LASF42
 1437 0468 01       		.byte	0x1
 1438 0469 77       		.byte	0x77
 1439 046a B7050000 		.4byte	0x5b7
 1440 046e 03       		.uleb128 0x3
 1441 046f 91       		.byte	0x91
 1442 0470 B87F     		.sleb128 -72
 1443 0472 1C       		.uleb128 0x1c
 1444 0473 1C010000 		.4byte	.LASF49
 1445 0477 01       		.byte	0x1
 1446 0478 E4       		.byte	0xe4
 1447 0479 42030000 		.4byte	.L40
 1448 047d 1D       		.uleb128 0x1d
 1449 047e 50030000 		.4byte	0x350
 1450 0482 56020000 		.4byte	.LBB12
 1451 0486 00000000 		.4byte	.Ldebug_ranges0+0
 1452 048a 01       		.byte	0x1
 1453 048b D6       		.byte	0xd6
 1454 048c F7040000 		.4byte	0x4f7
 1455 0490 1E       		.uleb128 0x1e
 1456 0491 69030000 		.4byte	0x369
 1457 0495 3F070000 		.4byte	.LLST21
 1458 0499 1E       		.uleb128 0x1e
 1459 049a 60030000 		.4byte	0x360
 1460 049e 57070000 		.4byte	.LLST22
 1461 04a2 1F       		.uleb128 0x1f
 1462 04a3 00000000 		.4byte	.Ldebug_ranges0+0
 1463 04a7 20       		.uleb128 0x20
 1464 04a8 74030000 		.4byte	0x374
 1465 04ac 82070000 		.4byte	.LLST23
 1466 04b0 20       		.uleb128 0x20
 1467 04b1 7D030000 		.4byte	0x37d
 1468 04b5 B4070000 		.4byte	.LLST24
 1469 04b9 21       		.uleb128 0x21
 1470 04ba 6A020000 		.4byte	.LVL69
 1471 04be C9020000 		.4byte	0x2c9
 1472 04c2 D9040000 		.4byte	0x4d9
 1473 04c6 22       		.uleb128 0x22
 1474 04c7 01       		.uleb128 0x1
 1475 04c8 53       		.byte	0x53
 1476 04c9 01       		.uleb128 0x1
 1477 04ca 30       		.byte	0x30
 1478 04cb 22       		.uleb128 0x22
 1479 04cc 01       		.uleb128 0x1
 1480 04cd 52       		.byte	0x52
ARM GAS  /tmp/cc6KTt4Y.s 			page 27


 1481 04ce 01       		.uleb128 0x1
 1482 04cf 3A       		.byte	0x3a
 1483 04d0 22       		.uleb128 0x22
 1484 04d1 01       		.uleb128 0x1
 1485 04d2 51       		.byte	0x51
 1486 04d3 04       		.uleb128 0x4
 1487 04d4 91       		.byte	0x91
 1488 04d5 AC7F     		.sleb128 -84
 1489 04d7 06       		.byte	0x6
 1490 04d8 00       		.byte	0
 1491 04d9 23       		.uleb128 0x23
 1492 04da AC020000 		.4byte	.LVL76
 1493 04de C9020000 		.4byte	0x2c9
 1494 04e2 22       		.uleb128 0x22
 1495 04e3 01       		.uleb128 0x1
 1496 04e4 53       		.byte	0x53
 1497 04e5 03       		.uleb128 0x3
 1498 04e6 0A       		.byte	0xa
 1499 04e7 1027     		.2byte	0x2710
 1500 04e9 22       		.uleb128 0x22
 1501 04ea 01       		.uleb128 0x1
 1502 04eb 52       		.byte	0x52
 1503 04ec 01       		.uleb128 0x1
 1504 04ed 3A       		.byte	0x3a
 1505 04ee 22       		.uleb128 0x22
 1506 04ef 01       		.uleb128 0x1
 1507 04f0 50       		.byte	0x50
 1508 04f1 02       		.uleb128 0x2
 1509 04f2 7B       		.byte	0x7b
 1510 04f3 00       		.sleb128 0
 1511 04f4 00       		.byte	0
 1512 04f5 00       		.byte	0
 1513 04f6 00       		.byte	0
 1514 04f7 1D       		.uleb128 0x1d
 1515 04f8 93020000 		.4byte	0x293
 1516 04fc BA020000 		.4byte	.LBB16
 1517 0500 18000000 		.4byte	.Ldebug_ranges0+0x18
 1518 0504 01       		.byte	0x1
 1519 0505 E9       		.byte	0xe9
 1520 0506 29050000 		.4byte	0x529
 1521 050a 24       		.uleb128 0x24
 1522 050b B7020000 		.4byte	0x2b7
 1523 050f 24       		.uleb128 0x24
 1524 0510 AC020000 		.4byte	0x2ac
 1525 0514 24       		.uleb128 0x24
 1526 0515 A3020000 		.4byte	0x2a3
 1527 0519 23       		.uleb128 0x23
 1528 051a C4020000 		.4byte	.LVL82
 1529 051e C9020000 		.4byte	0x2c9
 1530 0522 22       		.uleb128 0x22
 1531 0523 01       		.uleb128 0x1
 1532 0524 53       		.byte	0x53
 1533 0525 01       		.uleb128 0x1
 1534 0526 30       		.byte	0x30
 1535 0527 00       		.byte	0
 1536 0528 00       		.byte	0
 1537 0529 25       		.uleb128 0x25
ARM GAS  /tmp/cc6KTt4Y.s 			page 28


 1538 052a 93020000 		.4byte	0x293
 1539 052e 20030000 		.4byte	.LBB20
 1540 0532 04000000 		.4byte	.LBE20-.LBB20
 1541 0536 01       		.byte	0x1
 1542 0537 CD       		.byte	0xcd
 1543 0538 58050000 		.4byte	0x558
 1544 053c 1E       		.uleb128 0x1e
 1545 053d B7020000 		.4byte	0x2b7
 1546 0541 CC070000 		.4byte	.LLST25
 1547 0545 1E       		.uleb128 0x1e
 1548 0546 AC020000 		.4byte	0x2ac
 1549 054a E0070000 		.4byte	.LLST26
 1550 054e 1E       		.uleb128 0x1e
 1551 054f A3020000 		.4byte	0x2a3
 1552 0553 F3070000 		.4byte	.LLST27
 1553 0557 00       		.byte	0
 1554 0558 26       		.uleb128 0x26
 1555 0559 78000000 		.4byte	.LVL19
 1556 055d 68050000 		.4byte	0x568
 1557 0561 22       		.uleb128 0x22
 1558 0562 01       		.uleb128 0x1
 1559 0563 50       		.byte	0x50
 1560 0564 02       		.uleb128 0x2
 1561 0565 76       		.byte	0x76
 1562 0566 00       		.sleb128 0
 1563 0567 00       		.byte	0
 1564 0568 26       		.uleb128 0x26
 1565 0569 2C020000 		.4byte	.LVL62
 1566 056d 7E050000 		.4byte	0x57e
 1567 0571 22       		.uleb128 0x22
 1568 0572 01       		.uleb128 0x1
 1569 0573 51       		.byte	0x51
 1570 0574 02       		.uleb128 0x2
 1571 0575 78       		.byte	0x78
 1572 0576 00       		.sleb128 0
 1573 0577 22       		.uleb128 0x22
 1574 0578 01       		.uleb128 0x1
 1575 0579 50       		.byte	0x50
 1576 057a 02       		.uleb128 0x2
 1577 057b 76       		.byte	0x76
 1578 057c 00       		.sleb128 0
 1579 057d 00       		.byte	0
 1580 057e 26       		.uleb128 0x26
 1581 057f F0020000 		.4byte	.LVL90
 1582 0583 94050000 		.4byte	0x594
 1583 0587 22       		.uleb128 0x22
 1584 0588 01       		.uleb128 0x1
 1585 0589 51       		.byte	0x51
 1586 058a 02       		.uleb128 0x2
 1587 058b 78       		.byte	0x78
 1588 058c 00       		.sleb128 0
 1589 058d 22       		.uleb128 0x22
 1590 058e 01       		.uleb128 0x1
 1591 058f 50       		.byte	0x50
 1592 0590 02       		.uleb128 0x2
 1593 0591 76       		.byte	0x76
 1594 0592 00       		.sleb128 0
ARM GAS  /tmp/cc6KTt4Y.s 			page 29


 1595 0593 00       		.byte	0
 1596 0594 26       		.uleb128 0x26
 1597 0595 0C030000 		.4byte	.LVL96
 1598 0599 A4050000 		.4byte	0x5a4
 1599 059d 22       		.uleb128 0x22
 1600 059e 01       		.uleb128 0x1
 1601 059f 50       		.byte	0x50
 1602 05a0 02       		.uleb128 0x2
 1603 05a1 76       		.byte	0x76
 1604 05a2 00       		.sleb128 0
 1605 05a3 00       		.byte	0
 1606 05a4 27       		.uleb128 0x27
 1607 05a5 90030000 		.4byte	.LVL116
 1608 05a9 22       		.uleb128 0x22
 1609 05aa 01       		.uleb128 0x1
 1610 05ab 50       		.byte	0x50
 1611 05ac 02       		.uleb128 0x2
 1612 05ad 76       		.byte	0x76
 1613 05ae 00       		.sleb128 0
 1614 05af 00       		.byte	0
 1615 05b0 00       		.byte	0
 1616 05b1 06       		.uleb128 0x6
 1617 05b2 04       		.byte	0x4
 1618 05b3 C3010000 		.4byte	0x1c3
 1619 05b7 28       		.uleb128 0x28
 1620 05b8 E1000000 		.4byte	0xe1
 1621 05bc C7050000 		.4byte	0x5c7
 1622 05c0 29       		.uleb128 0x29
 1623 05c1 CF000000 		.4byte	0xcf
 1624 05c5 16       		.byte	0x16
 1625 05c6 00       		.byte	0
 1626 05c7 2A       		.uleb128 0x2a
 1627 05c8 66000000 		.4byte	.LASF50
 1628 05cc 01       		.byte	0x1
 1629 05cd 2001     		.2byte	0x120
 1630 05cf 2C000000 		.4byte	0x2c
 1631 05d3 D0030000 		.4byte	.LFB12
 1632 05d7 36000000 		.4byte	.LFE12-.LFB12
 1633 05db 01       		.uleb128 0x1
 1634 05dc 9C       		.byte	0x9c
 1635 05dd 82060000 		.4byte	0x682
 1636 05e1 2B       		.uleb128 0x2b
 1637 05e2 73747200 		.ascii	"str\000"
 1638 05e6 01       		.byte	0x1
 1639 05e7 2001     		.2byte	0x120
 1640 05e9 C3020000 		.4byte	0x2c3
 1641 05ed 06080000 		.4byte	.LLST28
 1642 05f1 2C       		.uleb128 0x2c
 1643 05f2 DD000000 		.4byte	.LASF30
 1644 05f6 01       		.byte	0x1
 1645 05f7 2001     		.2byte	0x120
 1646 05f9 3A000000 		.4byte	0x3a
 1647 05fd 3D080000 		.4byte	.LLST29
 1648 0601 2D       		.uleb128 0x2d
 1649 0602 666D7400 		.ascii	"fmt\000"
 1650 0606 01       		.byte	0x1
 1651 0607 2001     		.2byte	0x120
ARM GAS  /tmp/cc6KTt4Y.s 			page 30


 1652 0609 D6000000 		.4byte	0xd6
 1653 060d 02       		.uleb128 0x2
 1654 060e 91       		.byte	0x91
 1655 060f 78       		.sleb128 -8
 1656 0610 2E       		.uleb128 0x2e
 1657 0611 2F       		.uleb128 0x2f
 1658 0612 617000   		.ascii	"ap\000"
 1659 0615 01       		.byte	0x1
 1660 0616 2101     		.2byte	0x121
 1661 0618 F0010000 		.4byte	0x1f0
 1662 061c 02       		.uleb128 0x2
 1663 061d 91       		.byte	0x91
 1664 061e 50       		.sleb128 -48
 1665 061f 2F       		.uleb128 0x2f
 1666 0620 6D7300   		.ascii	"ms\000"
 1667 0623 01       		.byte	0x1
 1668 0624 2201     		.2byte	0x122
 1669 0626 88020000 		.4byte	0x288
 1670 062a 02       		.uleb128 0x2
 1671 062b 91       		.byte	0x91
 1672 062c 54       		.sleb128 -44
 1673 062d 30       		.uleb128 0x30
 1674 062e 63687000 		.ascii	"chp\000"
 1675 0632 01       		.byte	0x1
 1676 0633 2301     		.2byte	0x123
 1677 0635 B1050000 		.4byte	0x5b1
 1678 0639 6B080000 		.4byte	.LLST30
 1679 063d 21       		.uleb128 0x21
 1680 063e EA030000 		.4byte	.LVL129
 1681 0642 82060000 		.4byte	0x682
 1682 0646 65060000 		.4byte	0x665
 1683 064a 22       		.uleb128 0x22
 1684 064b 01       		.uleb128 0x1
 1685 064c 53       		.byte	0x53
 1686 064d 01       		.uleb128 0x1
 1687 064e 30       		.byte	0x30
 1688 064f 22       		.uleb128 0x22
 1689 0650 01       		.uleb128 0x1
 1690 0651 52       		.byte	0x52
 1691 0652 05       		.uleb128 0x5
 1692 0653 F3       		.byte	0xf3
 1693 0654 01       		.uleb128 0x1
 1694 0655 51       		.byte	0x51
 1695 0656 31       		.byte	0x31
 1696 0657 1C       		.byte	0x1c
 1697 0658 22       		.uleb128 0x22
 1698 0659 01       		.uleb128 0x1
 1699 065a 51       		.byte	0x51
 1700 065b 02       		.uleb128 0x2
 1701 065c 75       		.byte	0x75
 1702 065d 00       		.sleb128 0
 1703 065e 22       		.uleb128 0x22
 1704 065f 01       		.uleb128 0x1
 1705 0660 50       		.byte	0x50
 1706 0661 02       		.uleb128 0x2
 1707 0662 91       		.byte	0x91
 1708 0663 44       		.sleb128 -60
ARM GAS  /tmp/cc6KTt4Y.s 			page 31


 1709 0664 00       		.byte	0
 1710 0665 23       		.uleb128 0x23
 1711 0666 F6030000 		.4byte	.LVL131
 1712 066a 89030000 		.4byte	0x389
 1713 066e 22       		.uleb128 0x22
 1714 066f 01       		.uleb128 0x1
 1715 0670 52       		.byte	0x52
 1716 0671 02       		.uleb128 0x2
 1717 0672 74       		.byte	0x74
 1718 0673 00       		.sleb128 0
 1719 0674 22       		.uleb128 0x22
 1720 0675 01       		.uleb128 0x1
 1721 0676 51       		.byte	0x51
 1722 0677 02       		.uleb128 0x2
 1723 0678 76       		.byte	0x76
 1724 0679 00       		.sleb128 0
 1725 067a 22       		.uleb128 0x22
 1726 067b 01       		.uleb128 0x1
 1727 067c 50       		.byte	0x50
 1728 067d 02       		.uleb128 0x2
 1729 067e 91       		.byte	0x91
 1730 067f 44       		.sleb128 -60
 1731 0680 00       		.byte	0
 1732 0681 00       		.byte	0
 1733 0682 31       		.uleb128 0x31
 1734 0683 00010000 		.4byte	.LASF51
 1735 0687 09       		.byte	0x9
 1736 0688 57       		.byte	0x57
 1737 0689 A2060000 		.4byte	0x6a2
 1738 068d 09       		.uleb128 0x9
 1739 068e A2060000 		.4byte	0x6a2
 1740 0692 09       		.uleb128 0x9
 1741 0693 FD000000 		.4byte	0xfd
 1742 0697 09       		.uleb128 0x9
 1743 0698 3A000000 		.4byte	0x3a
 1744 069c 09       		.uleb128 0x9
 1745 069d 3A000000 		.4byte	0x3a
 1746 06a1 00       		.byte	0
 1747 06a2 06       		.uleb128 0x6
 1748 06a3 04       		.byte	0x4
 1749 06a4 88020000 		.4byte	0x288
 1750 06a8 00       		.byte	0
 1751              		.section	.debug_abbrev,"",%progbits
 1752              	.Ldebug_abbrev0:
 1753 0000 01       		.uleb128 0x1
 1754 0001 11       		.uleb128 0x11
 1755 0002 01       		.byte	0x1
 1756 0003 25       		.uleb128 0x25
 1757 0004 0E       		.uleb128 0xe
 1758 0005 13       		.uleb128 0x13
 1759 0006 0B       		.uleb128 0xb
 1760 0007 03       		.uleb128 0x3
 1761 0008 0E       		.uleb128 0xe
 1762 0009 1B       		.uleb128 0x1b
 1763 000a 0E       		.uleb128 0xe
 1764 000b 11       		.uleb128 0x11
 1765 000c 01       		.uleb128 0x1
ARM GAS  /tmp/cc6KTt4Y.s 			page 32


 1766 000d 12       		.uleb128 0x12
 1767 000e 06       		.uleb128 0x6
 1768 000f 10       		.uleb128 0x10
 1769 0010 17       		.uleb128 0x17
 1770 0011 00       		.byte	0
 1771 0012 00       		.byte	0
 1772 0013 02       		.uleb128 0x2
 1773 0014 24       		.uleb128 0x24
 1774 0015 00       		.byte	0
 1775 0016 0B       		.uleb128 0xb
 1776 0017 0B       		.uleb128 0xb
 1777 0018 3E       		.uleb128 0x3e
 1778 0019 0B       		.uleb128 0xb
 1779 001a 03       		.uleb128 0x3
 1780 001b 0E       		.uleb128 0xe
 1781 001c 00       		.byte	0
 1782 001d 00       		.byte	0
 1783 001e 03       		.uleb128 0x3
 1784 001f 24       		.uleb128 0x24
 1785 0020 00       		.byte	0
 1786 0021 0B       		.uleb128 0xb
 1787 0022 0B       		.uleb128 0xb
 1788 0023 3E       		.uleb128 0x3e
 1789 0024 0B       		.uleb128 0xb
 1790 0025 03       		.uleb128 0x3
 1791 0026 08       		.uleb128 0x8
 1792 0027 00       		.byte	0
 1793 0028 00       		.byte	0
 1794 0029 04       		.uleb128 0x4
 1795 002a 16       		.uleb128 0x16
 1796 002b 00       		.byte	0
 1797 002c 03       		.uleb128 0x3
 1798 002d 0E       		.uleb128 0xe
 1799 002e 3A       		.uleb128 0x3a
 1800 002f 0B       		.uleb128 0xb
 1801 0030 3B       		.uleb128 0x3b
 1802 0031 0B       		.uleb128 0xb
 1803 0032 49       		.uleb128 0x49
 1804 0033 13       		.uleb128 0x13
 1805 0034 00       		.byte	0
 1806 0035 00       		.byte	0
 1807 0036 05       		.uleb128 0x5
 1808 0037 0F       		.uleb128 0xf
 1809 0038 00       		.byte	0
 1810 0039 0B       		.uleb128 0xb
 1811 003a 0B       		.uleb128 0xb
 1812 003b 00       		.byte	0
 1813 003c 00       		.byte	0
 1814 003d 06       		.uleb128 0x6
 1815 003e 0F       		.uleb128 0xf
 1816 003f 00       		.byte	0
 1817 0040 0B       		.uleb128 0xb
 1818 0041 0B       		.uleb128 0xb
 1819 0042 49       		.uleb128 0x49
 1820 0043 13       		.uleb128 0x13
 1821 0044 00       		.byte	0
 1822 0045 00       		.byte	0
ARM GAS  /tmp/cc6KTt4Y.s 			page 33


 1823 0046 07       		.uleb128 0x7
 1824 0047 26       		.uleb128 0x26
 1825 0048 00       		.byte	0
 1826 0049 49       		.uleb128 0x49
 1827 004a 13       		.uleb128 0x13
 1828 004b 00       		.byte	0
 1829 004c 00       		.byte	0
 1830 004d 08       		.uleb128 0x8
 1831 004e 15       		.uleb128 0x15
 1832 004f 01       		.byte	0x1
 1833 0050 27       		.uleb128 0x27
 1834 0051 19       		.uleb128 0x19
 1835 0052 49       		.uleb128 0x49
 1836 0053 13       		.uleb128 0x13
 1837 0054 01       		.uleb128 0x1
 1838 0055 13       		.uleb128 0x13
 1839 0056 00       		.byte	0
 1840 0057 00       		.byte	0
 1841 0058 09       		.uleb128 0x9
 1842 0059 05       		.uleb128 0x5
 1843 005a 00       		.byte	0
 1844 005b 49       		.uleb128 0x49
 1845 005c 13       		.uleb128 0x13
 1846 005d 00       		.byte	0
 1847 005e 00       		.byte	0
 1848 005f 0A       		.uleb128 0xa
 1849 0060 13       		.uleb128 0x13
 1850 0061 01       		.byte	0x1
 1851 0062 03       		.uleb128 0x3
 1852 0063 0E       		.uleb128 0xe
 1853 0064 0B       		.uleb128 0xb
 1854 0065 0B       		.uleb128 0xb
 1855 0066 3A       		.uleb128 0x3a
 1856 0067 0B       		.uleb128 0xb
 1857 0068 3B       		.uleb128 0x3b
 1858 0069 0B       		.uleb128 0xb
 1859 006a 01       		.uleb128 0x1
 1860 006b 13       		.uleb128 0x13
 1861 006c 00       		.byte	0
 1862 006d 00       		.byte	0
 1863 006e 0B       		.uleb128 0xb
 1864 006f 0D       		.uleb128 0xd
 1865 0070 00       		.byte	0
 1866 0071 03       		.uleb128 0x3
 1867 0072 0E       		.uleb128 0xe
 1868 0073 3A       		.uleb128 0x3a
 1869 0074 0B       		.uleb128 0xb
 1870 0075 3B       		.uleb128 0x3b
 1871 0076 0B       		.uleb128 0xb
 1872 0077 49       		.uleb128 0x49
 1873 0078 13       		.uleb128 0x13
 1874 0079 38       		.uleb128 0x38
 1875 007a 0B       		.uleb128 0xb
 1876 007b 00       		.byte	0
 1877 007c 00       		.byte	0
 1878 007d 0C       		.uleb128 0xc
 1879 007e 0D       		.uleb128 0xd
ARM GAS  /tmp/cc6KTt4Y.s 			page 34


 1880 007f 00       		.byte	0
 1881 0080 03       		.uleb128 0x3
 1882 0081 08       		.uleb128 0x8
 1883 0082 3A       		.uleb128 0x3a
 1884 0083 0B       		.uleb128 0xb
 1885 0084 3B       		.uleb128 0x3b
 1886 0085 0B       		.uleb128 0xb
 1887 0086 49       		.uleb128 0x49
 1888 0087 13       		.uleb128 0x13
 1889 0088 38       		.uleb128 0x38
 1890 0089 0B       		.uleb128 0xb
 1891 008a 00       		.byte	0
 1892 008b 00       		.byte	0
 1893 008c 0D       		.uleb128 0xd
 1894 008d 13       		.uleb128 0x13
 1895 008e 01       		.byte	0x1
 1896 008f 0B       		.uleb128 0xb
 1897 0090 0B       		.uleb128 0xb
 1898 0091 3A       		.uleb128 0x3a
 1899 0092 0B       		.uleb128 0xb
 1900 0093 3B       		.uleb128 0x3b
 1901 0094 0B       		.uleb128 0xb
 1902 0095 01       		.uleb128 0x1
 1903 0096 13       		.uleb128 0x13
 1904 0097 00       		.byte	0
 1905 0098 00       		.byte	0
 1906 0099 0E       		.uleb128 0xe
 1907 009a 0D       		.uleb128 0xd
 1908 009b 00       		.byte	0
 1909 009c 03       		.uleb128 0x3
 1910 009d 0E       		.uleb128 0xe
 1911 009e 49       		.uleb128 0x49
 1912 009f 13       		.uleb128 0x13
 1913 00a0 38       		.uleb128 0x38
 1914 00a1 0B       		.uleb128 0xb
 1915 00a2 34       		.uleb128 0x34
 1916 00a3 19       		.uleb128 0x19
 1917 00a4 00       		.byte	0
 1918 00a5 00       		.byte	0
 1919 00a6 0F       		.uleb128 0xf
 1920 00a7 2E       		.uleb128 0x2e
 1921 00a8 01       		.byte	0x1
 1922 00a9 03       		.uleb128 0x3
 1923 00aa 0E       		.uleb128 0xe
 1924 00ab 3A       		.uleb128 0x3a
 1925 00ac 0B       		.uleb128 0xb
 1926 00ad 3B       		.uleb128 0x3b
 1927 00ae 0B       		.uleb128 0xb
 1928 00af 27       		.uleb128 0x27
 1929 00b0 19       		.uleb128 0x19
 1930 00b1 49       		.uleb128 0x49
 1931 00b2 13       		.uleb128 0x13
 1932 00b3 20       		.uleb128 0x20
 1933 00b4 0B       		.uleb128 0xb
 1934 00b5 01       		.uleb128 0x1
 1935 00b6 13       		.uleb128 0x13
 1936 00b7 00       		.byte	0
ARM GAS  /tmp/cc6KTt4Y.s 			page 35


 1937 00b8 00       		.byte	0
 1938 00b9 10       		.uleb128 0x10
 1939 00ba 05       		.uleb128 0x5
 1940 00bb 00       		.byte	0
 1941 00bc 03       		.uleb128 0x3
 1942 00bd 08       		.uleb128 0x8
 1943 00be 3A       		.uleb128 0x3a
 1944 00bf 0B       		.uleb128 0xb
 1945 00c0 3B       		.uleb128 0x3b
 1946 00c1 0B       		.uleb128 0xb
 1947 00c2 49       		.uleb128 0x49
 1948 00c3 13       		.uleb128 0x13
 1949 00c4 00       		.byte	0
 1950 00c5 00       		.byte	0
 1951 00c6 11       		.uleb128 0x11
 1952 00c7 05       		.uleb128 0x5
 1953 00c8 00       		.byte	0
 1954 00c9 03       		.uleb128 0x3
 1955 00ca 0E       		.uleb128 0xe
 1956 00cb 3A       		.uleb128 0x3a
 1957 00cc 0B       		.uleb128 0xb
 1958 00cd 3B       		.uleb128 0x3b
 1959 00ce 0B       		.uleb128 0xb
 1960 00cf 49       		.uleb128 0x49
 1961 00d0 13       		.uleb128 0x13
 1962 00d1 00       		.byte	0
 1963 00d2 00       		.byte	0
 1964 00d3 12       		.uleb128 0x12
 1965 00d4 2E       		.uleb128 0x2e
 1966 00d5 01       		.byte	0x1
 1967 00d6 03       		.uleb128 0x3
 1968 00d7 0E       		.uleb128 0xe
 1969 00d8 3A       		.uleb128 0x3a
 1970 00d9 0B       		.uleb128 0xb
 1971 00da 3B       		.uleb128 0x3b
 1972 00db 0B       		.uleb128 0xb
 1973 00dc 27       		.uleb128 0x27
 1974 00dd 19       		.uleb128 0x19
 1975 00de 49       		.uleb128 0x49
 1976 00df 13       		.uleb128 0x13
 1977 00e0 11       		.uleb128 0x11
 1978 00e1 01       		.uleb128 0x1
 1979 00e2 12       		.uleb128 0x12
 1980 00e3 06       		.uleb128 0x6
 1981 00e4 40       		.uleb128 0x40
 1982 00e5 18       		.uleb128 0x18
 1983 00e6 9742     		.uleb128 0x2117
 1984 00e8 19       		.uleb128 0x19
 1985 00e9 01       		.uleb128 0x1
 1986 00ea 13       		.uleb128 0x13
 1987 00eb 00       		.byte	0
 1988 00ec 00       		.byte	0
 1989 00ed 13       		.uleb128 0x13
 1990 00ee 05       		.uleb128 0x5
 1991 00ef 00       		.byte	0
 1992 00f0 03       		.uleb128 0x3
 1993 00f1 08       		.uleb128 0x8
ARM GAS  /tmp/cc6KTt4Y.s 			page 36


 1994 00f2 3A       		.uleb128 0x3a
 1995 00f3 0B       		.uleb128 0xb
 1996 00f4 3B       		.uleb128 0x3b
 1997 00f5 0B       		.uleb128 0xb
 1998 00f6 49       		.uleb128 0x49
 1999 00f7 13       		.uleb128 0x13
 2000 00f8 02       		.uleb128 0x2
 2001 00f9 17       		.uleb128 0x17
 2002 00fa 00       		.byte	0
 2003 00fb 00       		.byte	0
 2004 00fc 14       		.uleb128 0x14
 2005 00fd 05       		.uleb128 0x5
 2006 00fe 00       		.byte	0
 2007 00ff 03       		.uleb128 0x3
 2008 0100 0E       		.uleb128 0xe
 2009 0101 3A       		.uleb128 0x3a
 2010 0102 0B       		.uleb128 0xb
 2011 0103 3B       		.uleb128 0x3b
 2012 0104 0B       		.uleb128 0xb
 2013 0105 49       		.uleb128 0x49
 2014 0106 13       		.uleb128 0x13
 2015 0107 02       		.uleb128 0x2
 2016 0108 18       		.uleb128 0x18
 2017 0109 00       		.byte	0
 2018 010a 00       		.byte	0
 2019 010b 15       		.uleb128 0x15
 2020 010c 05       		.uleb128 0x5
 2021 010d 00       		.byte	0
 2022 010e 03       		.uleb128 0x3
 2023 010f 0E       		.uleb128 0xe
 2024 0110 3A       		.uleb128 0x3a
 2025 0111 0B       		.uleb128 0xb
 2026 0112 3B       		.uleb128 0x3b
 2027 0113 0B       		.uleb128 0xb
 2028 0114 49       		.uleb128 0x49
 2029 0115 13       		.uleb128 0x13
 2030 0116 02       		.uleb128 0x2
 2031 0117 17       		.uleb128 0x17
 2032 0118 00       		.byte	0
 2033 0119 00       		.byte	0
 2034 011a 16       		.uleb128 0x16
 2035 011b 34       		.uleb128 0x34
 2036 011c 00       		.byte	0
 2037 011d 03       		.uleb128 0x3
 2038 011e 08       		.uleb128 0x8
 2039 011f 3A       		.uleb128 0x3a
 2040 0120 0B       		.uleb128 0xb
 2041 0121 3B       		.uleb128 0x3b
 2042 0122 0B       		.uleb128 0xb
 2043 0123 49       		.uleb128 0x49
 2044 0124 13       		.uleb128 0x13
 2045 0125 02       		.uleb128 0x2
 2046 0126 17       		.uleb128 0x17
 2047 0127 00       		.byte	0
 2048 0128 00       		.byte	0
 2049 0129 17       		.uleb128 0x17
 2050 012a 34       		.uleb128 0x34
ARM GAS  /tmp/cc6KTt4Y.s 			page 37


 2051 012b 00       		.byte	0
 2052 012c 03       		.uleb128 0x3
 2053 012d 08       		.uleb128 0x8
 2054 012e 3A       		.uleb128 0x3a
 2055 012f 0B       		.uleb128 0xb
 2056 0130 3B       		.uleb128 0x3b
 2057 0131 0B       		.uleb128 0xb
 2058 0132 49       		.uleb128 0x49
 2059 0133 13       		.uleb128 0x13
 2060 0134 00       		.byte	0
 2061 0135 00       		.byte	0
 2062 0136 18       		.uleb128 0x18
 2063 0137 34       		.uleb128 0x34
 2064 0138 00       		.byte	0
 2065 0139 03       		.uleb128 0x3
 2066 013a 0E       		.uleb128 0xe
 2067 013b 3A       		.uleb128 0x3a
 2068 013c 0B       		.uleb128 0xb
 2069 013d 3B       		.uleb128 0x3b
 2070 013e 0B       		.uleb128 0xb
 2071 013f 49       		.uleb128 0x49
 2072 0140 13       		.uleb128 0x13
 2073 0141 00       		.byte	0
 2074 0142 00       		.byte	0
 2075 0143 19       		.uleb128 0x19
 2076 0144 2E       		.uleb128 0x2e
 2077 0145 01       		.byte	0x1
 2078 0146 3F       		.uleb128 0x3f
 2079 0147 19       		.uleb128 0x19
 2080 0148 03       		.uleb128 0x3
 2081 0149 0E       		.uleb128 0xe
 2082 014a 3A       		.uleb128 0x3a
 2083 014b 0B       		.uleb128 0xb
 2084 014c 3B       		.uleb128 0x3b
 2085 014d 0B       		.uleb128 0xb
 2086 014e 27       		.uleb128 0x27
 2087 014f 19       		.uleb128 0x19
 2088 0150 11       		.uleb128 0x11
 2089 0151 01       		.uleb128 0x1
 2090 0152 12       		.uleb128 0x12
 2091 0153 06       		.uleb128 0x6
 2092 0154 40       		.uleb128 0x40
 2093 0155 18       		.uleb128 0x18
 2094 0156 9642     		.uleb128 0x2116
 2095 0158 19       		.uleb128 0x19
 2096 0159 01       		.uleb128 0x1
 2097 015a 13       		.uleb128 0x13
 2098 015b 00       		.byte	0
 2099 015c 00       		.byte	0
 2100 015d 1A       		.uleb128 0x1a
 2101 015e 34       		.uleb128 0x34
 2102 015f 00       		.byte	0
 2103 0160 03       		.uleb128 0x3
 2104 0161 0E       		.uleb128 0xe
 2105 0162 3A       		.uleb128 0x3a
 2106 0163 0B       		.uleb128 0xb
 2107 0164 3B       		.uleb128 0x3b
ARM GAS  /tmp/cc6KTt4Y.s 			page 38


 2108 0165 0B       		.uleb128 0xb
 2109 0166 49       		.uleb128 0x49
 2110 0167 13       		.uleb128 0x13
 2111 0168 02       		.uleb128 0x2
 2112 0169 17       		.uleb128 0x17
 2113 016a 00       		.byte	0
 2114 016b 00       		.byte	0
 2115 016c 1B       		.uleb128 0x1b
 2116 016d 34       		.uleb128 0x34
 2117 016e 00       		.byte	0
 2118 016f 03       		.uleb128 0x3
 2119 0170 0E       		.uleb128 0xe
 2120 0171 3A       		.uleb128 0x3a
 2121 0172 0B       		.uleb128 0xb
 2122 0173 3B       		.uleb128 0x3b
 2123 0174 0B       		.uleb128 0xb
 2124 0175 49       		.uleb128 0x49
 2125 0176 13       		.uleb128 0x13
 2126 0177 02       		.uleb128 0x2
 2127 0178 18       		.uleb128 0x18
 2128 0179 00       		.byte	0
 2129 017a 00       		.byte	0
 2130 017b 1C       		.uleb128 0x1c
 2131 017c 0A       		.uleb128 0xa
 2132 017d 00       		.byte	0
 2133 017e 03       		.uleb128 0x3
 2134 017f 0E       		.uleb128 0xe
 2135 0180 3A       		.uleb128 0x3a
 2136 0181 0B       		.uleb128 0xb
 2137 0182 3B       		.uleb128 0x3b
 2138 0183 0B       		.uleb128 0xb
 2139 0184 11       		.uleb128 0x11
 2140 0185 01       		.uleb128 0x1
 2141 0186 00       		.byte	0
 2142 0187 00       		.byte	0
 2143 0188 1D       		.uleb128 0x1d
 2144 0189 1D       		.uleb128 0x1d
 2145 018a 01       		.byte	0x1
 2146 018b 31       		.uleb128 0x31
 2147 018c 13       		.uleb128 0x13
 2148 018d 52       		.uleb128 0x52
 2149 018e 01       		.uleb128 0x1
 2150 018f 55       		.uleb128 0x55
 2151 0190 17       		.uleb128 0x17
 2152 0191 58       		.uleb128 0x58
 2153 0192 0B       		.uleb128 0xb
 2154 0193 59       		.uleb128 0x59
 2155 0194 0B       		.uleb128 0xb
 2156 0195 01       		.uleb128 0x1
 2157 0196 13       		.uleb128 0x13
 2158 0197 00       		.byte	0
 2159 0198 00       		.byte	0
 2160 0199 1E       		.uleb128 0x1e
 2161 019a 05       		.uleb128 0x5
 2162 019b 00       		.byte	0
 2163 019c 31       		.uleb128 0x31
 2164 019d 13       		.uleb128 0x13
ARM GAS  /tmp/cc6KTt4Y.s 			page 39


 2165 019e 02       		.uleb128 0x2
 2166 019f 17       		.uleb128 0x17
 2167 01a0 00       		.byte	0
 2168 01a1 00       		.byte	0
 2169 01a2 1F       		.uleb128 0x1f
 2170 01a3 0B       		.uleb128 0xb
 2171 01a4 01       		.byte	0x1
 2172 01a5 55       		.uleb128 0x55
 2173 01a6 17       		.uleb128 0x17
 2174 01a7 00       		.byte	0
 2175 01a8 00       		.byte	0
 2176 01a9 20       		.uleb128 0x20
 2177 01aa 34       		.uleb128 0x34
 2178 01ab 00       		.byte	0
 2179 01ac 31       		.uleb128 0x31
 2180 01ad 13       		.uleb128 0x13
 2181 01ae 02       		.uleb128 0x2
 2182 01af 17       		.uleb128 0x17
 2183 01b0 00       		.byte	0
 2184 01b1 00       		.byte	0
 2185 01b2 21       		.uleb128 0x21
 2186 01b3 898201   		.uleb128 0x4109
 2187 01b6 01       		.byte	0x1
 2188 01b7 11       		.uleb128 0x11
 2189 01b8 01       		.uleb128 0x1
 2190 01b9 31       		.uleb128 0x31
 2191 01ba 13       		.uleb128 0x13
 2192 01bb 01       		.uleb128 0x1
 2193 01bc 13       		.uleb128 0x13
 2194 01bd 00       		.byte	0
 2195 01be 00       		.byte	0
 2196 01bf 22       		.uleb128 0x22
 2197 01c0 8A8201   		.uleb128 0x410a
 2198 01c3 00       		.byte	0
 2199 01c4 02       		.uleb128 0x2
 2200 01c5 18       		.uleb128 0x18
 2201 01c6 9142     		.uleb128 0x2111
 2202 01c8 18       		.uleb128 0x18
 2203 01c9 00       		.byte	0
 2204 01ca 00       		.byte	0
 2205 01cb 23       		.uleb128 0x23
 2206 01cc 898201   		.uleb128 0x4109
 2207 01cf 01       		.byte	0x1
 2208 01d0 11       		.uleb128 0x11
 2209 01d1 01       		.uleb128 0x1
 2210 01d2 31       		.uleb128 0x31
 2211 01d3 13       		.uleb128 0x13
 2212 01d4 00       		.byte	0
 2213 01d5 00       		.byte	0
 2214 01d6 24       		.uleb128 0x24
 2215 01d7 05       		.uleb128 0x5
 2216 01d8 00       		.byte	0
 2217 01d9 31       		.uleb128 0x31
 2218 01da 13       		.uleb128 0x13
 2219 01db 00       		.byte	0
 2220 01dc 00       		.byte	0
 2221 01dd 25       		.uleb128 0x25
ARM GAS  /tmp/cc6KTt4Y.s 			page 40


 2222 01de 1D       		.uleb128 0x1d
 2223 01df 01       		.byte	0x1
 2224 01e0 31       		.uleb128 0x31
 2225 01e1 13       		.uleb128 0x13
 2226 01e2 11       		.uleb128 0x11
 2227 01e3 01       		.uleb128 0x1
 2228 01e4 12       		.uleb128 0x12
 2229 01e5 06       		.uleb128 0x6
 2230 01e6 58       		.uleb128 0x58
 2231 01e7 0B       		.uleb128 0xb
 2232 01e8 59       		.uleb128 0x59
 2233 01e9 0B       		.uleb128 0xb
 2234 01ea 01       		.uleb128 0x1
 2235 01eb 13       		.uleb128 0x13
 2236 01ec 00       		.byte	0
 2237 01ed 00       		.byte	0
 2238 01ee 26       		.uleb128 0x26
 2239 01ef 898201   		.uleb128 0x4109
 2240 01f2 01       		.byte	0x1
 2241 01f3 11       		.uleb128 0x11
 2242 01f4 01       		.uleb128 0x1
 2243 01f5 01       		.uleb128 0x1
 2244 01f6 13       		.uleb128 0x13
 2245 01f7 00       		.byte	0
 2246 01f8 00       		.byte	0
 2247 01f9 27       		.uleb128 0x27
 2248 01fa 898201   		.uleb128 0x4109
 2249 01fd 01       		.byte	0x1
 2250 01fe 11       		.uleb128 0x11
 2251 01ff 01       		.uleb128 0x1
 2252 0200 00       		.byte	0
 2253 0201 00       		.byte	0
 2254 0202 28       		.uleb128 0x28
 2255 0203 01       		.uleb128 0x1
 2256 0204 01       		.byte	0x1
 2257 0205 49       		.uleb128 0x49
 2258 0206 13       		.uleb128 0x13
 2259 0207 01       		.uleb128 0x1
 2260 0208 13       		.uleb128 0x13
 2261 0209 00       		.byte	0
 2262 020a 00       		.byte	0
 2263 020b 29       		.uleb128 0x29
 2264 020c 21       		.uleb128 0x21
 2265 020d 00       		.byte	0
 2266 020e 49       		.uleb128 0x49
 2267 020f 13       		.uleb128 0x13
 2268 0210 2F       		.uleb128 0x2f
 2269 0211 0B       		.uleb128 0xb
 2270 0212 00       		.byte	0
 2271 0213 00       		.byte	0
 2272 0214 2A       		.uleb128 0x2a
 2273 0215 2E       		.uleb128 0x2e
 2274 0216 01       		.byte	0x1
 2275 0217 3F       		.uleb128 0x3f
 2276 0218 19       		.uleb128 0x19
 2277 0219 03       		.uleb128 0x3
 2278 021a 0E       		.uleb128 0xe
ARM GAS  /tmp/cc6KTt4Y.s 			page 41


 2279 021b 3A       		.uleb128 0x3a
 2280 021c 0B       		.uleb128 0xb
 2281 021d 3B       		.uleb128 0x3b
 2282 021e 05       		.uleb128 0x5
 2283 021f 27       		.uleb128 0x27
 2284 0220 19       		.uleb128 0x19
 2285 0221 49       		.uleb128 0x49
 2286 0222 13       		.uleb128 0x13
 2287 0223 11       		.uleb128 0x11
 2288 0224 01       		.uleb128 0x1
 2289 0225 12       		.uleb128 0x12
 2290 0226 06       		.uleb128 0x6
 2291 0227 40       		.uleb128 0x40
 2292 0228 18       		.uleb128 0x18
 2293 0229 9742     		.uleb128 0x2117
 2294 022b 19       		.uleb128 0x19
 2295 022c 01       		.uleb128 0x1
 2296 022d 13       		.uleb128 0x13
 2297 022e 00       		.byte	0
 2298 022f 00       		.byte	0
 2299 0230 2B       		.uleb128 0x2b
 2300 0231 05       		.uleb128 0x5
 2301 0232 00       		.byte	0
 2302 0233 03       		.uleb128 0x3
 2303 0234 08       		.uleb128 0x8
 2304 0235 3A       		.uleb128 0x3a
 2305 0236 0B       		.uleb128 0xb
 2306 0237 3B       		.uleb128 0x3b
 2307 0238 05       		.uleb128 0x5
 2308 0239 49       		.uleb128 0x49
 2309 023a 13       		.uleb128 0x13
 2310 023b 02       		.uleb128 0x2
 2311 023c 17       		.uleb128 0x17
 2312 023d 00       		.byte	0
 2313 023e 00       		.byte	0
 2314 023f 2C       		.uleb128 0x2c
 2315 0240 05       		.uleb128 0x5
 2316 0241 00       		.byte	0
 2317 0242 03       		.uleb128 0x3
 2318 0243 0E       		.uleb128 0xe
 2319 0244 3A       		.uleb128 0x3a
 2320 0245 0B       		.uleb128 0xb
 2321 0246 3B       		.uleb128 0x3b
 2322 0247 05       		.uleb128 0x5
 2323 0248 49       		.uleb128 0x49
 2324 0249 13       		.uleb128 0x13
 2325 024a 02       		.uleb128 0x2
 2326 024b 17       		.uleb128 0x17
 2327 024c 00       		.byte	0
 2328 024d 00       		.byte	0
 2329 024e 2D       		.uleb128 0x2d
 2330 024f 05       		.uleb128 0x5
 2331 0250 00       		.byte	0
 2332 0251 03       		.uleb128 0x3
 2333 0252 08       		.uleb128 0x8
 2334 0253 3A       		.uleb128 0x3a
 2335 0254 0B       		.uleb128 0xb
ARM GAS  /tmp/cc6KTt4Y.s 			page 42


 2336 0255 3B       		.uleb128 0x3b
 2337 0256 05       		.uleb128 0x5
 2338 0257 49       		.uleb128 0x49
 2339 0258 13       		.uleb128 0x13
 2340 0259 02       		.uleb128 0x2
 2341 025a 18       		.uleb128 0x18
 2342 025b 00       		.byte	0
 2343 025c 00       		.byte	0
 2344 025d 2E       		.uleb128 0x2e
 2345 025e 18       		.uleb128 0x18
 2346 025f 00       		.byte	0
 2347 0260 00       		.byte	0
 2348 0261 00       		.byte	0
 2349 0262 2F       		.uleb128 0x2f
 2350 0263 34       		.uleb128 0x34
 2351 0264 00       		.byte	0
 2352 0265 03       		.uleb128 0x3
 2353 0266 08       		.uleb128 0x8
 2354 0267 3A       		.uleb128 0x3a
 2355 0268 0B       		.uleb128 0xb
 2356 0269 3B       		.uleb128 0x3b
 2357 026a 05       		.uleb128 0x5
 2358 026b 49       		.uleb128 0x49
 2359 026c 13       		.uleb128 0x13
 2360 026d 02       		.uleb128 0x2
 2361 026e 18       		.uleb128 0x18
 2362 026f 00       		.byte	0
 2363 0270 00       		.byte	0
 2364 0271 30       		.uleb128 0x30
 2365 0272 34       		.uleb128 0x34
 2366 0273 00       		.byte	0
 2367 0274 03       		.uleb128 0x3
 2368 0275 08       		.uleb128 0x8
 2369 0276 3A       		.uleb128 0x3a
 2370 0277 0B       		.uleb128 0xb
 2371 0278 3B       		.uleb128 0x3b
 2372 0279 05       		.uleb128 0x5
 2373 027a 49       		.uleb128 0x49
 2374 027b 13       		.uleb128 0x13
 2375 027c 02       		.uleb128 0x2
 2376 027d 17       		.uleb128 0x17
 2377 027e 00       		.byte	0
 2378 027f 00       		.byte	0
 2379 0280 31       		.uleb128 0x31
 2380 0281 2E       		.uleb128 0x2e
 2381 0282 01       		.byte	0x1
 2382 0283 3F       		.uleb128 0x3f
 2383 0284 19       		.uleb128 0x19
 2384 0285 03       		.uleb128 0x3
 2385 0286 0E       		.uleb128 0xe
 2386 0287 3A       		.uleb128 0x3a
 2387 0288 0B       		.uleb128 0xb
 2388 0289 3B       		.uleb128 0x3b
 2389 028a 0B       		.uleb128 0xb
 2390 028b 27       		.uleb128 0x27
 2391 028c 19       		.uleb128 0x19
 2392 028d 3C       		.uleb128 0x3c
ARM GAS  /tmp/cc6KTt4Y.s 			page 43


 2393 028e 19       		.uleb128 0x19
 2394 028f 01       		.uleb128 0x1
 2395 0290 13       		.uleb128 0x13
 2396 0291 00       		.byte	0
 2397 0292 00       		.byte	0
 2398 0293 00       		.byte	0
 2399              		.section	.debug_loc,"",%progbits
 2400              	.Ldebug_loc0:
 2401              	.LLST0:
 2402 0000 00000000 		.4byte	.LVL0-.Ltext0
 2403 0004 38000000 		.4byte	.LVL12-.Ltext0
 2404 0008 0100     		.2byte	0x1
 2405 000a 50       		.byte	0x50
 2406 000b 38000000 		.4byte	.LVL12-.Ltext0
 2407 000f 3C000000 		.4byte	.LVL13-.Ltext0
 2408 0013 0300     		.2byte	0x3
 2409 0015 70       		.byte	0x70
 2410 0016 7F       		.sleb128 -1
 2411 0017 9F       		.byte	0x9f
 2412 0018 3C000000 		.4byte	.LVL13-.Ltext0
 2413 001c 40000000 		.4byte	.LVL14-.Ltext0
 2414 0020 0100     		.2byte	0x1
 2415 0022 50       		.byte	0x50
 2416 0023 40000000 		.4byte	.LVL14-.Ltext0
 2417 0027 48000000 		.4byte	.LFE8-.Ltext0
 2418 002b 0300     		.2byte	0x3
 2419 002d 70       		.byte	0x70
 2420 002e 7F       		.sleb128 -1
 2421 002f 9F       		.byte	0x9f
 2422 0030 00000000 		.4byte	0
 2423 0034 00000000 		.4byte	0
 2424              	.LLST1:
 2425 0038 00000000 		.4byte	.LVL0-.Ltext0
 2426 003c 0E000000 		.4byte	.LVL2-.Ltext0
 2427 0040 0100     		.2byte	0x1
 2428 0042 51       		.byte	0x51
 2429 0043 0E000000 		.4byte	.LVL2-.Ltext0
 2430 0047 48000000 		.4byte	.LFE8-.Ltext0
 2431 004b 0400     		.2byte	0x4
 2432 004d F3       		.byte	0xf3
 2433 004e 01       		.uleb128 0x1
 2434 004f 51       		.byte	0x51
 2435 0050 9F       		.byte	0x9f
 2436 0051 00000000 		.4byte	0
 2437 0055 00000000 		.4byte	0
 2438              	.LLST2:
 2439 0059 00000000 		.4byte	.LVL0-.Ltext0
 2440 005d 0C000000 		.4byte	.LVL1-.Ltext0
 2441 0061 0100     		.2byte	0x1
 2442 0063 53       		.byte	0x53
 2443 0064 0C000000 		.4byte	.LVL1-.Ltext0
 2444 0068 48000000 		.4byte	.LFE8-.Ltext0
 2445 006c 0400     		.2byte	0x4
 2446 006e F3       		.byte	0xf3
 2447 006f 01       		.uleb128 0x1
 2448 0070 53       		.byte	0x53
 2449 0071 9F       		.byte	0x9f
ARM GAS  /tmp/cc6KTt4Y.s 			page 44


 2450 0072 00000000 		.4byte	0
 2451 0076 00000000 		.4byte	0
 2452              	.LLST3:
 2453 007a 16000000 		.4byte	.LVL3-.Ltext0
 2454 007e 1A000000 		.4byte	.LVL4-.Ltext0
 2455 0082 0100     		.2byte	0x1
 2456 0084 51       		.byte	0x51
 2457 0085 1A000000 		.4byte	.LVL4-.Ltext0
 2458 0089 24000000 		.4byte	.LVL6-.Ltext0
 2459 008d 0100     		.2byte	0x1
 2460 008f 54       		.byte	0x54
 2461 0090 32000000 		.4byte	.LVL10-.Ltext0
 2462 0094 38000000 		.4byte	.LVL12-.Ltext0
 2463 0098 0600     		.2byte	0x6
 2464 009a 77       		.byte	0x77
 2465 009b 00       		.sleb128 0
 2466 009c 75       		.byte	0x75
 2467 009d 00       		.sleb128 0
 2468 009e 1C       		.byte	0x1c
 2469 009f 9F       		.byte	0x9f
 2470 00a0 00000000 		.4byte	0
 2471 00a4 00000000 		.4byte	0
 2472              	.LLST4:
 2473 00a8 0C000000 		.4byte	.LVL1-.Ltext0
 2474 00ac 0E000000 		.4byte	.LVL2-.Ltext0
 2475 00b0 0100     		.2byte	0x1
 2476 00b2 57       		.byte	0x57
 2477 00b3 0E000000 		.4byte	.LVL2-.Ltext0
 2478 00b7 22000000 		.4byte	.LVL5-.Ltext0
 2479 00bb 0100     		.2byte	0x1
 2480 00bd 55       		.byte	0x55
 2481 00be 22000000 		.4byte	.LVL5-.Ltext0
 2482 00c2 28000000 		.4byte	.LVL7-.Ltext0
 2483 00c6 0300     		.2byte	0x3
 2484 00c8 75       		.byte	0x75
 2485 00c9 7F       		.sleb128 -1
 2486 00ca 9F       		.byte	0x9f
 2487 00cb 28000000 		.4byte	.LVL7-.Ltext0
 2488 00cf 38000000 		.4byte	.LVL12-.Ltext0
 2489 00d3 0100     		.2byte	0x1
 2490 00d5 55       		.byte	0x55
 2491 00d6 00000000 		.4byte	0
 2492 00da 00000000 		.4byte	0
 2493              	.LLST5:
 2494 00de 00000000 		.4byte	.LVL0-.Ltext0
 2495 00e2 16000000 		.4byte	.LVL3-.Ltext0
 2496 00e6 0100     		.2byte	0x1
 2497 00e8 51       		.byte	0x51
 2498 00e9 2E000000 		.4byte	.LVL9-.Ltext0
 2499 00ed 48000000 		.4byte	.LFE8-.Ltext0
 2500 00f1 0100     		.2byte	0x1
 2501 00f3 51       		.byte	0x51
 2502 00f4 00000000 		.4byte	0
 2503 00f8 00000000 		.4byte	0
 2504              	.LLST6:
 2505 00fc 0C000000 		.4byte	.LVL1-.Ltext0
 2506 0100 2C000000 		.4byte	.LVL8-.Ltext0
ARM GAS  /tmp/cc6KTt4Y.s 			page 45


 2507 0104 0100     		.2byte	0x1
 2508 0106 53       		.byte	0x53
 2509 0107 2E000000 		.4byte	.LVL9-.Ltext0
 2510 010b 34000000 		.4byte	.LVL11-.Ltext0
 2511 010f 0100     		.2byte	0x1
 2512 0111 53       		.byte	0x53
 2513 0112 00000000 		.4byte	0
 2514 0116 00000000 		.4byte	0
 2515              	.LLST7:
 2516 011a 50000000 		.4byte	.LVL15-.Ltext0
 2517 011e 64000000 		.4byte	.LVL16-.Ltext0
 2518 0122 0100     		.2byte	0x1
 2519 0124 50       		.byte	0x50
 2520 0125 64000000 		.4byte	.LVL16-.Ltext0
 2521 0129 CC030000 		.4byte	.LFE11-.Ltext0
 2522 012d 0100     		.2byte	0x1
 2523 012f 56       		.byte	0x56
 2524 0130 00000000 		.4byte	0
 2525 0134 00000000 		.4byte	0
 2526              	.LLST8:
 2527 0138 50000000 		.4byte	.LVL15-.Ltext0
 2528 013c 64000000 		.4byte	.LVL16-.Ltext0
 2529 0140 0100     		.2byte	0x1
 2530 0142 51       		.byte	0x51
 2531 0143 64000000 		.4byte	.LVL16-.Ltext0
 2532 0147 68000000 		.4byte	.LVL17-.Ltext0
 2533 014b 0100     		.2byte	0x1
 2534 014d 55       		.byte	0x55
 2535 014e 68000000 		.4byte	.LVL17-.Ltext0
 2536 0152 77000000 		.4byte	.LVL19-1-.Ltext0
 2537 0156 0100     		.2byte	0x1
 2538 0158 53       		.byte	0x53
 2539 0159 77000000 		.4byte	.LVL19-1-.Ltext0
 2540 015d 7C000000 		.4byte	.LVL20-.Ltext0
 2541 0161 0100     		.2byte	0x1
 2542 0163 55       		.byte	0x55
 2543 0164 7C000000 		.4byte	.LVL20-.Ltext0
 2544 0168 B2000000 		.4byte	.LVL28-.Ltext0
 2545 016c 0100     		.2byte	0x1
 2546 016e 53       		.byte	0x53
 2547 016f B2000000 		.4byte	.LVL28-.Ltext0
 2548 0173 BE000000 		.4byte	.LVL32-.Ltext0
 2549 0177 0100     		.2byte	0x1
 2550 0179 51       		.byte	0x51
 2551 017a BE000000 		.4byte	.LVL32-.Ltext0
 2552 017e C8000000 		.4byte	.LVL33-.Ltext0
 2553 0182 0300     		.2byte	0x3
 2554 0184 71       		.byte	0x71
 2555 0185 7F       		.sleb128 -1
 2556 0186 9F       		.byte	0x9f
 2557 0187 C8000000 		.4byte	.LVL33-.Ltext0
 2558 018b D8000000 		.4byte	.LVL35-.Ltext0
 2559 018f 0100     		.2byte	0x1
 2560 0191 51       		.byte	0x51
 2561 0192 D8000000 		.4byte	.LVL35-.Ltext0
 2562 0196 5A010000 		.4byte	.LVL37-.Ltext0
 2563 019a 0100     		.2byte	0x1
ARM GAS  /tmp/cc6KTt4Y.s 			page 46


 2564 019c 55       		.byte	0x55
 2565 019d 5A010000 		.4byte	.LVL37-.Ltext0
 2566 01a1 62010000 		.4byte	.LVL40-.Ltext0
 2567 01a5 0300     		.2byte	0x3
 2568 01a7 75       		.byte	0x75
 2569 01a8 7F       		.sleb128 -1
 2570 01a9 9F       		.byte	0x9f
 2571 01aa 62010000 		.4byte	.LVL40-.Ltext0
 2572 01ae 66010000 		.4byte	.LVL41-.Ltext0
 2573 01b2 0100     		.2byte	0x1
 2574 01b4 55       		.byte	0x55
 2575 01b5 66010000 		.4byte	.LVL41-.Ltext0
 2576 01b9 78010000 		.4byte	.LVL42-.Ltext0
 2577 01bd 0300     		.2byte	0x3
 2578 01bf 75       		.byte	0x75
 2579 01c0 7F       		.sleb128 -1
 2580 01c1 9F       		.byte	0x9f
 2581 01c2 78010000 		.4byte	.LVL42-.Ltext0
 2582 01c6 5A030000 		.4byte	.LVL109-.Ltext0
 2583 01ca 0100     		.2byte	0x1
 2584 01cc 55       		.byte	0x55
 2585 01cd 5A030000 		.4byte	.LVL109-.Ltext0
 2586 01d1 62030000 		.4byte	.LVL110-.Ltext0
 2587 01d5 0300     		.2byte	0x3
 2588 01d7 73       		.byte	0x73
 2589 01d8 01       		.sleb128 1
 2590 01d9 9F       		.byte	0x9f
 2591 01da 62030000 		.4byte	.LVL110-.Ltext0
 2592 01de 64030000 		.4byte	.LVL111-.Ltext0
 2593 01e2 0100     		.2byte	0x1
 2594 01e4 53       		.byte	0x53
 2595 01e5 64030000 		.4byte	.LVL111-.Ltext0
 2596 01e9 CC030000 		.4byte	.LFE11-.Ltext0
 2597 01ed 0100     		.2byte	0x1
 2598 01ef 55       		.byte	0x55
 2599 01f0 00000000 		.4byte	0
 2600 01f4 00000000 		.4byte	0
 2601              	.LLST9:
 2602 01f8 50000000 		.4byte	.LVL15-.Ltext0
 2603 01fc 70000000 		.4byte	.LVL18-.Ltext0
 2604 0200 0100     		.2byte	0x1
 2605 0202 52       		.byte	0x52
 2606 0203 80000000 		.4byte	.LVL21-.Ltext0
 2607 0207 8C000000 		.4byte	.LVL23-.Ltext0
 2608 020b 0100     		.2byte	0x1
 2609 020d 52       		.byte	0x52
 2610 020e 00000000 		.4byte	0
 2611 0212 00000000 		.4byte	0
 2612              	.LLST10:
 2613 0216 8A000000 		.4byte	.LVL22-.Ltext0
 2614 021a E8010000 		.4byte	.LVL48-.Ltext0
 2615 021e 0100     		.2byte	0x1
 2616 0220 59       		.byte	0x59
 2617 0221 E8010000 		.4byte	.LVL48-.Ltext0
 2618 0225 F4010000 		.4byte	.LVL50-.Ltext0
 2619 0229 0100     		.2byte	0x1
 2620 022b 5B       		.byte	0x5b
ARM GAS  /tmp/cc6KTt4Y.s 			page 47


 2621 022c F4010000 		.4byte	.LVL50-.Ltext0
 2622 0230 F8010000 		.4byte	.LVL52-.Ltext0
 2623 0234 0300     		.2byte	0x3
 2624 0236 70       		.byte	0x70
 2625 0237 7F       		.sleb128 -1
 2626 0238 9F       		.byte	0x9f
 2627 0239 F8010000 		.4byte	.LVL52-.Ltext0
 2628 023d FC010000 		.4byte	.LVL53-.Ltext0
 2629 0241 0100     		.2byte	0x1
 2630 0243 50       		.byte	0x50
 2631 0244 FC010000 		.4byte	.LVL53-.Ltext0
 2632 0248 04020000 		.4byte	.LVL55-.Ltext0
 2633 024c 0300     		.2byte	0x3
 2634 024e 70       		.byte	0x70
 2635 024f 7F       		.sleb128 -1
 2636 0250 9F       		.byte	0x9f
 2637 0251 32020000 		.4byte	.LVL64-.Ltext0
 2638 0255 56020000 		.4byte	.LVL67-.Ltext0
 2639 0259 0100     		.2byte	0x1
 2640 025b 59       		.byte	0x59
 2641 025c 56020000 		.4byte	.LVL67-.Ltext0
 2642 0260 69020000 		.4byte	.LVL69-1-.Ltext0
 2643 0264 0100     		.2byte	0x1
 2644 0266 50       		.byte	0x50
 2645 0267 B6020000 		.4byte	.LVL78-.Ltext0
 2646 026b BE020000 		.4byte	.LVL81-.Ltext0
 2647 026f 0100     		.2byte	0x1
 2648 0271 59       		.byte	0x59
 2649 0272 BE020000 		.4byte	.LVL81-.Ltext0
 2650 0276 C3020000 		.4byte	.LVL82-1-.Ltext0
 2651 027a 0100     		.2byte	0x1
 2652 027c 50       		.byte	0x50
 2653 027d 14030000 		.4byte	.LVL97-.Ltext0
 2654 0281 20030000 		.4byte	.LVL99-.Ltext0
 2655 0285 0100     		.2byte	0x1
 2656 0287 59       		.byte	0x59
 2657 0288 20030000 		.4byte	.LVL99-.Ltext0
 2658 028c 24030000 		.4byte	.LVL100-.Ltext0
 2659 0290 0100     		.2byte	0x1
 2660 0292 50       		.byte	0x50
 2661 0293 24030000 		.4byte	.LVL100-.Ltext0
 2662 0297 28030000 		.4byte	.LVL101-.Ltext0
 2663 029b 0100     		.2byte	0x1
 2664 029d 59       		.byte	0x59
 2665 029e 28030000 		.4byte	.LVL101-.Ltext0
 2666 02a2 2C030000 		.4byte	.LVL102-.Ltext0
 2667 02a6 0400     		.2byte	0x4
 2668 02a8 91       		.byte	0x91
 2669 02a9 B97F     		.sleb128 -71
 2670 02ab 9F       		.byte	0x9f
 2671 02ac 2C030000 		.4byte	.LVL102-.Ltext0
 2672 02b0 36030000 		.4byte	.LVL103-.Ltext0
 2673 02b4 0100     		.2byte	0x1
 2674 02b6 50       		.byte	0x50
 2675 02b7 36030000 		.4byte	.LVL103-.Ltext0
 2676 02bb 42030000 		.4byte	.LVL104-.Ltext0
 2677 02bf 0400     		.2byte	0x4
ARM GAS  /tmp/cc6KTt4Y.s 			page 48


 2678 02c1 91       		.byte	0x91
 2679 02c2 B97F     		.sleb128 -71
 2680 02c4 9F       		.byte	0x9f
 2681 02c5 42030000 		.4byte	.LVL104-.Ltext0
 2682 02c9 48030000 		.4byte	.LVL106-.Ltext0
 2683 02cd 0100     		.2byte	0x1
 2684 02cf 59       		.byte	0x59
 2685 02d0 48030000 		.4byte	.LVL106-.Ltext0
 2686 02d4 4C030000 		.4byte	.LVL107-.Ltext0
 2687 02d8 0400     		.2byte	0x4
 2688 02da 91       		.byte	0x91
 2689 02db B97F     		.sleb128 -71
 2690 02dd 9F       		.byte	0x9f
 2691 02de 4C030000 		.4byte	.LVL107-.Ltext0
 2692 02e2 50030000 		.4byte	.LVL108-.Ltext0
 2693 02e6 0100     		.2byte	0x1
 2694 02e8 50       		.byte	0x50
 2695 02e9 50030000 		.4byte	.LVL108-.Ltext0
 2696 02ed 5A030000 		.4byte	.LVL109-.Ltext0
 2697 02f1 0400     		.2byte	0x4
 2698 02f3 91       		.byte	0x91
 2699 02f4 B97F     		.sleb128 -71
 2700 02f6 9F       		.byte	0x9f
 2701 02f7 5A030000 		.4byte	.LVL109-.Ltext0
 2702 02fb 64030000 		.4byte	.LVL111-.Ltext0
 2703 02ff 0100     		.2byte	0x1
 2704 0301 59       		.byte	0x59
 2705 0302 64030000 		.4byte	.LVL111-.Ltext0
 2706 0306 6E030000 		.4byte	.LVL112-.Ltext0
 2707 030a 0100     		.2byte	0x1
 2708 030c 5B       		.byte	0x5b
 2709 030d 9A030000 		.4byte	.LVL119-.Ltext0
 2710 0311 A8030000 		.4byte	.LVL121-.Ltext0
 2711 0315 0400     		.2byte	0x4
 2712 0317 91       		.byte	0x91
 2713 0318 B97F     		.sleb128 -71
 2714 031a 9F       		.byte	0x9f
 2715 031b A8030000 		.4byte	.LVL121-.Ltext0
 2716 031f AA030000 		.4byte	.LVL122-.Ltext0
 2717 0323 0100     		.2byte	0x1
 2718 0325 50       		.byte	0x50
 2719 0326 AA030000 		.4byte	.LVL122-.Ltext0
 2720 032a B6030000 		.4byte	.LVL124-.Ltext0
 2721 032e 0400     		.2byte	0x4
 2722 0330 91       		.byte	0x91
 2723 0331 B97F     		.sleb128 -71
 2724 0333 9F       		.byte	0x9f
 2725 0334 B6030000 		.4byte	.LVL124-.Ltext0
 2726 0338 B8030000 		.4byte	.LVL125-.Ltext0
 2727 033c 0100     		.2byte	0x1
 2728 033e 50       		.byte	0x50
 2729 033f 00000000 		.4byte	0
 2730 0343 00000000 		.4byte	0
 2731              	.LLST11:
 2732 0347 8A000000 		.4byte	.LVL22-.Ltext0
 2733 034b DE010000 		.4byte	.LVL47-.Ltext0
 2734 034f 0100     		.2byte	0x1
ARM GAS  /tmp/cc6KTt4Y.s 			page 49


 2735 0351 59       		.byte	0x59
 2736 0352 DE010000 		.4byte	.LVL47-.Ltext0
 2737 0356 32020000 		.4byte	.LVL64-.Ltext0
 2738 035a 0100     		.2byte	0x1
 2739 035c 5B       		.byte	0x5b
 2740 035d 32020000 		.4byte	.LVL64-.Ltext0
 2741 0361 D8020000 		.4byte	.LVL86-.Ltext0
 2742 0365 0100     		.2byte	0x1
 2743 0367 59       		.byte	0x59
 2744 0368 D8020000 		.4byte	.LVL86-.Ltext0
 2745 036c E6020000 		.4byte	.LVL89-.Ltext0
 2746 0370 0100     		.2byte	0x1
 2747 0372 5B       		.byte	0x5b
 2748 0373 F4020000 		.4byte	.LVL92-.Ltext0
 2749 0377 02030000 		.4byte	.LVL94-.Ltext0
 2750 037b 0100     		.2byte	0x1
 2751 037d 5B       		.byte	0x5b
 2752 037e 02030000 		.4byte	.LVL94-.Ltext0
 2753 0382 0C030000 		.4byte	.LVL96-.Ltext0
 2754 0386 0300     		.2byte	0x3
 2755 0388 7B       		.byte	0x7b
 2756 0389 7F       		.sleb128 -1
 2757 038a 9F       		.byte	0x9f
 2758 038b 0C030000 		.4byte	.LVL96-.Ltext0
 2759 038f 14030000 		.4byte	.LVL97-.Ltext0
 2760 0393 0100     		.2byte	0x1
 2761 0395 5B       		.byte	0x5b
 2762 0396 14030000 		.4byte	.LVL97-.Ltext0
 2763 039a 64030000 		.4byte	.LVL111-.Ltext0
 2764 039e 0100     		.2byte	0x1
 2765 03a0 59       		.byte	0x59
 2766 03a1 64030000 		.4byte	.LVL111-.Ltext0
 2767 03a5 9A030000 		.4byte	.LVL119-.Ltext0
 2768 03a9 0100     		.2byte	0x1
 2769 03ab 5B       		.byte	0x5b
 2770 03ac 9A030000 		.4byte	.LVL119-.Ltext0
 2771 03b0 B8030000 		.4byte	.LVL125-.Ltext0
 2772 03b4 0100     		.2byte	0x1
 2773 03b6 59       		.byte	0x59
 2774 03b7 B8030000 		.4byte	.LVL125-.Ltext0
 2775 03bb CC030000 		.4byte	.LFE11-.Ltext0
 2776 03bf 0100     		.2byte	0x1
 2777 03c1 5B       		.byte	0x5b
 2778 03c2 00000000 		.4byte	0
 2779 03c6 00000000 		.4byte	0
 2780              	.LLST12:
 2781 03ca 68000000 		.4byte	.LVL17-.Ltext0
 2782 03ce 77000000 		.4byte	.LVL19-1-.Ltext0
 2783 03d2 0100     		.2byte	0x1
 2784 03d4 51       		.byte	0x51
 2785 03d5 7C000000 		.4byte	.LVL20-.Ltext0
 2786 03d9 AE000000 		.4byte	.LVL27-.Ltext0
 2787 03dd 0100     		.2byte	0x1
 2788 03df 51       		.byte	0x51
 2789 03e0 B2000000 		.4byte	.LVL28-.Ltext0
 2790 03e4 B4000000 		.4byte	.LVL29-.Ltext0
 2791 03e8 0100     		.2byte	0x1
ARM GAS  /tmp/cc6KTt4Y.s 			page 50


 2792 03ea 52       		.byte	0x52
 2793 03eb B4000000 		.4byte	.LVL29-.Ltext0
 2794 03ef BE000000 		.4byte	.LVL32-.Ltext0
 2795 03f3 0100     		.2byte	0x1
 2796 03f5 53       		.byte	0x53
 2797 03f6 C8000000 		.4byte	.LVL33-.Ltext0
 2798 03fa 5C010000 		.4byte	.LVL38-.Ltext0
 2799 03fe 0100     		.2byte	0x1
 2800 0400 52       		.byte	0x52
 2801 0401 5C010000 		.4byte	.LVL38-.Ltext0
 2802 0405 62010000 		.4byte	.LVL40-.Ltext0
 2803 0409 0100     		.2byte	0x1
 2804 040b 53       		.byte	0x53
 2805 040c 66010000 		.4byte	.LVL41-.Ltext0
 2806 0410 8C010000 		.4byte	.LVL44-.Ltext0
 2807 0414 0100     		.2byte	0x1
 2808 0416 52       		.byte	0x52
 2809 0417 8E010000 		.4byte	.LVL45-.Ltext0
 2810 041b CD010000 		.4byte	.LVL46-.Ltext0
 2811 041f 0100     		.2byte	0x1
 2812 0421 53       		.byte	0x53
 2813 0422 B6020000 		.4byte	.LVL78-.Ltext0
 2814 0426 B8020000 		.4byte	.LVL79-.Ltext0
 2815 042a 0200     		.2byte	0x2
 2816 042c 38       		.byte	0x38
 2817 042d 9F       		.byte	0x9f
 2818 042e 24030000 		.4byte	.LVL100-.Ltext0
 2819 0432 28030000 		.4byte	.LVL101-.Ltext0
 2820 0436 0200     		.2byte	0x2
 2821 0438 3A       		.byte	0x3a
 2822 0439 9F       		.byte	0x9f
 2823 043a 46030000 		.4byte	.LVL105-.Ltext0
 2824 043e 48030000 		.4byte	.LVL106-.Ltext0
 2825 0442 0100     		.2byte	0x1
 2826 0444 53       		.byte	0x53
 2827 0445 5A030000 		.4byte	.LVL109-.Ltext0
 2828 0449 64030000 		.4byte	.LVL111-.Ltext0
 2829 044d 0100     		.2byte	0x1
 2830 044f 51       		.byte	0x51
 2831 0450 00000000 		.4byte	0
 2832 0454 00000000 		.4byte	0
 2833              	.LLST13:
 2834 0458 9C000000 		.4byte	.LVL25-.Ltext0
 2835 045c AC000000 		.4byte	.LVL26-.Ltext0
 2836 0460 0300     		.2byte	0x3
 2837 0462 08       		.byte	0x8
 2838 0463 20       		.byte	0x20
 2839 0464 9F       		.byte	0x9f
 2840 0465 AC000000 		.4byte	.LVL26-.Ltext0
 2841 0469 CD010000 		.4byte	.LVL46-.Ltext0
 2842 046d 0100     		.2byte	0x1
 2843 046f 58       		.byte	0x58
 2844 0470 CD010000 		.4byte	.LVL46-.Ltext0
 2845 0474 0C020000 		.4byte	.LVL57-.Ltext0
 2846 0478 0300     		.2byte	0x3
 2847 047a 08       		.byte	0x8
 2848 047b 20       		.byte	0x20
ARM GAS  /tmp/cc6KTt4Y.s 			page 51


 2849 047c 9F       		.byte	0x9f
 2850 047d 0C020000 		.4byte	.LVL57-.Ltext0
 2851 0481 1C020000 		.4byte	.LVL61-.Ltext0
 2852 0485 0100     		.2byte	0x1
 2853 0487 58       		.byte	0x58
 2854 0488 32020000 		.4byte	.LVL64-.Ltext0
 2855 048c DA020000 		.4byte	.LVL87-.Ltext0
 2856 0490 0100     		.2byte	0x1
 2857 0492 58       		.byte	0x58
 2858 0493 14030000 		.4byte	.LVL97-.Ltext0
 2859 0497 28030000 		.4byte	.LVL101-.Ltext0
 2860 049b 0100     		.2byte	0x1
 2861 049d 58       		.byte	0x58
 2862 049e 28030000 		.4byte	.LVL101-.Ltext0
 2863 04a2 42030000 		.4byte	.LVL104-.Ltext0
 2864 04a6 0300     		.2byte	0x3
 2865 04a8 08       		.byte	0x8
 2866 04a9 20       		.byte	0x20
 2867 04aa 9F       		.byte	0x9f
 2868 04ab 42030000 		.4byte	.LVL104-.Ltext0
 2869 04af 5A030000 		.4byte	.LVL109-.Ltext0
 2870 04b3 0100     		.2byte	0x1
 2871 04b5 58       		.byte	0x58
 2872 04b6 5A030000 		.4byte	.LVL109-.Ltext0
 2873 04ba 64030000 		.4byte	.LVL111-.Ltext0
 2874 04be 0300     		.2byte	0x3
 2875 04c0 08       		.byte	0x8
 2876 04c1 30       		.byte	0x30
 2877 04c2 9F       		.byte	0x9f
 2878 04c3 64030000 		.4byte	.LVL111-.Ltext0
 2879 04c7 82030000 		.4byte	.LVL115-.Ltext0
 2880 04cb 0300     		.2byte	0x3
 2881 04cd 08       		.byte	0x8
 2882 04ce 20       		.byte	0x20
 2883 04cf 9F       		.byte	0x9f
 2884 04d0 9A030000 		.4byte	.LVL119-.Ltext0
 2885 04d4 B8030000 		.4byte	.LVL125-.Ltext0
 2886 04d8 0100     		.2byte	0x1
 2887 04da 58       		.byte	0x58
 2888 04db B8030000 		.4byte	.LVL125-.Ltext0
 2889 04df CC030000 		.4byte	.LFE11-.Ltext0
 2890 04e3 0300     		.2byte	0x3
 2891 04e5 08       		.byte	0x8
 2892 04e6 20       		.byte	0x20
 2893 04e7 9F       		.byte	0x9f
 2894 04e8 00000000 		.4byte	0
 2895 04ec 00000000 		.4byte	0
 2896              	.LLST14:
 2897 04f0 0C020000 		.4byte	.LVL57-.Ltext0
 2898 04f4 16020000 		.4byte	.LVL59-.Ltext0
 2899 04f8 0100     		.2byte	0x1
 2900 04fa 50       		.byte	0x50
 2901 04fb 16020000 		.4byte	.LVL59-.Ltext0
 2902 04ff 1C020000 		.4byte	.LVL61-.Ltext0
 2903 0503 0100     		.2byte	0x1
 2904 0505 53       		.byte	0x53
 2905 0506 CC020000 		.4byte	.LVL83-.Ltext0
ARM GAS  /tmp/cc6KTt4Y.s 			page 52


 2906 050a DA020000 		.4byte	.LVL87-.Ltext0
 2907 050e 0100     		.2byte	0x1
 2908 0510 50       		.byte	0x50
 2909 0511 F4020000 		.4byte	.LVL92-.Ltext0
 2910 0515 08030000 		.4byte	.LVL95-.Ltext0
 2911 0519 0100     		.2byte	0x1
 2912 051b 5A       		.byte	0x5a
 2913 051c 08030000 		.4byte	.LVL95-.Ltext0
 2914 0520 0C030000 		.4byte	.LVL96-.Ltext0
 2915 0524 0300     		.2byte	0x3
 2916 0526 7A       		.byte	0x7a
 2917 0527 01       		.sleb128 1
 2918 0528 9F       		.byte	0x9f
 2919 0529 0C030000 		.4byte	.LVL96-.Ltext0
 2920 052d 14030000 		.4byte	.LVL97-.Ltext0
 2921 0531 0100     		.2byte	0x1
 2922 0533 5A       		.byte	0x5a
 2923 0534 6E030000 		.4byte	.LVL112-.Ltext0
 2924 0538 82030000 		.4byte	.LVL115-.Ltext0
 2925 053c 0200     		.2byte	0x2
 2926 053e 30       		.byte	0x30
 2927 053f 9F       		.byte	0x9f
 2928 0540 94030000 		.4byte	.LVL117-.Ltext0
 2929 0544 98030000 		.4byte	.LVL118-.Ltext0
 2930 0548 0100     		.2byte	0x1
 2931 054a 5A       		.byte	0x5a
 2932 054b 98030000 		.4byte	.LVL118-.Ltext0
 2933 054f 9A030000 		.4byte	.LVL119-.Ltext0
 2934 0553 0300     		.2byte	0x3
 2935 0555 7A       		.byte	0x7a
 2936 0556 01       		.sleb128 1
 2937 0557 9F       		.byte	0x9f
 2938 0558 B8030000 		.4byte	.LVL125-.Ltext0
 2939 055c CC030000 		.4byte	.LFE11-.Ltext0
 2940 0560 0200     		.2byte	0x2
 2941 0562 30       		.byte	0x30
 2942 0563 9F       		.byte	0x9f
 2943 0564 00000000 		.4byte	0
 2944 0568 00000000 		.4byte	0
 2945              	.LLST15:
 2946 056c D2000000 		.4byte	.LVL34-.Ltext0
 2947 0570 DA000000 		.4byte	.LVL36-.Ltext0
 2948 0574 0200     		.2byte	0x2
 2949 0576 30       		.byte	0x30
 2950 0577 9F       		.byte	0x9f
 2951 0578 DA000000 		.4byte	.LVL36-.Ltext0
 2952 057c 5E010000 		.4byte	.LVL39-.Ltext0
 2953 0580 0100     		.2byte	0x1
 2954 0582 51       		.byte	0x51
 2955 0583 5E010000 		.4byte	.LVL39-.Ltext0
 2956 0587 62010000 		.4byte	.LVL40-.Ltext0
 2957 058b 0500     		.2byte	0x5
 2958 058d 70       		.byte	0x70
 2959 058e 00       		.sleb128 0
 2960 058f 31       		.byte	0x31
 2961 0590 24       		.byte	0x24
 2962 0591 9F       		.byte	0x9f
ARM GAS  /tmp/cc6KTt4Y.s 			page 53


 2963 0592 62010000 		.4byte	.LVL40-.Ltext0
 2964 0596 F4010000 		.4byte	.LVL50-.Ltext0
 2965 059a 0100     		.2byte	0x1
 2966 059c 51       		.byte	0x51
 2967 059d F4010000 		.4byte	.LVL50-.Ltext0
 2968 05a1 F6010000 		.4byte	.LVL51-.Ltext0
 2969 05a5 0300     		.2byte	0x3
 2970 05a7 71       		.byte	0x71
 2971 05a8 7F       		.sleb128 -1
 2972 05a9 9F       		.byte	0x9f
 2973 05aa F6010000 		.4byte	.LVL51-.Ltext0
 2974 05ae F8010000 		.4byte	.LVL52-.Ltext0
 2975 05b2 0100     		.2byte	0x1
 2976 05b4 51       		.byte	0x51
 2977 05b5 F8010000 		.4byte	.LVL52-.Ltext0
 2978 05b9 00020000 		.4byte	.LVL54-.Ltext0
 2979 05bd 0300     		.2byte	0x3
 2980 05bf 71       		.byte	0x71
 2981 05c0 7F       		.sleb128 -1
 2982 05c1 9F       		.byte	0x9f
 2983 05c2 32020000 		.4byte	.LVL64-.Ltext0
 2984 05c6 3F020000 		.4byte	.LVL65-1-.Ltext0
 2985 05ca 0100     		.2byte	0x1
 2986 05cc 51       		.byte	0x51
 2987 05cd B6020000 		.4byte	.LVL78-.Ltext0
 2988 05d1 BA020000 		.4byte	.LVL80-.Ltext0
 2989 05d5 0100     		.2byte	0x1
 2990 05d7 51       		.byte	0x51
 2991 05d8 14030000 		.4byte	.LVL97-.Ltext0
 2992 05dc 16030000 		.4byte	.LVL98-.Ltext0
 2993 05e0 0100     		.2byte	0x1
 2994 05e2 51       		.byte	0x51
 2995 05e3 24030000 		.4byte	.LVL100-.Ltext0
 2996 05e7 5A030000 		.4byte	.LVL109-.Ltext0
 2997 05eb 0100     		.2byte	0x1
 2998 05ed 51       		.byte	0x51
 2999 05ee 64030000 		.4byte	.LVL111-.Ltext0
 3000 05f2 6E030000 		.4byte	.LVL112-.Ltext0
 3001 05f6 0400     		.2byte	0x4
 3002 05f8 0A       		.byte	0xa
 3003 05f9 FF7F     		.2byte	0x7fff
 3004 05fb 9F       		.byte	0x9f
 3005 05fc 00000000 		.4byte	0
 3006 0600 00000000 		.4byte	0
 3007              	.LLST16:
 3008 0604 AC000000 		.4byte	.LVL26-.Ltext0
 3009 0608 B2000000 		.4byte	.LVL28-.Ltext0
 3010 060c 0200     		.2byte	0x2
 3011 060e 30       		.byte	0x30
 3012 060f 9F       		.byte	0x9f
 3013 0610 B2000000 		.4byte	.LVL28-.Ltext0
 3014 0614 06020000 		.4byte	.LVL56-.Ltext0
 3015 0618 0100     		.2byte	0x1
 3016 061a 54       		.byte	0x54
 3017 061b 0C020000 		.4byte	.LVL57-.Ltext0
 3018 061f 2C020000 		.4byte	.LVL62-.Ltext0
 3019 0623 0100     		.2byte	0x1
ARM GAS  /tmp/cc6KTt4Y.s 			page 54


 3020 0625 54       		.byte	0x54
 3021 0626 2C020000 		.4byte	.LVL62-.Ltext0
 3022 062a 2E020000 		.4byte	.LVL63-.Ltext0
 3023 062e 0300     		.2byte	0x3
 3024 0630 74       		.byte	0x74
 3025 0631 7F       		.sleb128 -1
 3026 0632 9F       		.byte	0x9f
 3027 0633 2E020000 		.4byte	.LVL63-.Ltext0
 3028 0637 F0020000 		.4byte	.LVL90-.Ltext0
 3029 063b 0100     		.2byte	0x1
 3030 063d 54       		.byte	0x54
 3031 063e F0020000 		.4byte	.LVL90-.Ltext0
 3032 0642 F2020000 		.4byte	.LVL91-.Ltext0
 3033 0646 0300     		.2byte	0x3
 3034 0648 74       		.byte	0x74
 3035 0649 01       		.sleb128 1
 3036 064a 9F       		.byte	0x9f
 3037 064b F2020000 		.4byte	.LVL91-.Ltext0
 3038 064f FC020000 		.4byte	.LVL93-.Ltext0
 3039 0653 0100     		.2byte	0x1
 3040 0655 54       		.byte	0x54
 3041 0656 14030000 		.4byte	.LVL97-.Ltext0
 3042 065a 5A030000 		.4byte	.LVL109-.Ltext0
 3043 065e 0100     		.2byte	0x1
 3044 0660 54       		.byte	0x54
 3045 0661 64030000 		.4byte	.LVL111-.Ltext0
 3046 0665 CC030000 		.4byte	.LFE11-.Ltext0
 3047 0669 0100     		.2byte	0x1
 3048 066b 54       		.byte	0x54
 3049 066c 00000000 		.4byte	0
 3050 0670 00000000 		.4byte	0
 3051              	.LLST17:
 3052 0674 80010000 		.4byte	.LVL43-.Ltext0
 3053 0678 CD010000 		.4byte	.LVL46-.Ltext0
 3054 067c 0200     		.2byte	0x2
 3055 067e 31       		.byte	0x31
 3056 067f 9F       		.byte	0x9f
 3057 0680 46030000 		.4byte	.LVL105-.Ltext0
 3058 0684 48030000 		.4byte	.LVL106-.Ltext0
 3059 0688 0200     		.2byte	0x2
 3060 068a 31       		.byte	0x31
 3061 068b 9F       		.byte	0x9f
 3062 068c 00000000 		.4byte	0
 3063 0690 00000000 		.4byte	0
 3064              	.LLST18:
 3065 0694 8A000000 		.4byte	.LVL22-.Ltext0
 3066 0698 94000000 		.4byte	.LVL24-.Ltext0
 3067 069c 0200     		.2byte	0x2
 3068 069e 30       		.byte	0x30
 3069 069f 9F       		.byte	0x9f
 3070 06a0 94000000 		.4byte	.LVL24-.Ltext0
 3071 06a4 9C000000 		.4byte	.LVL25-.Ltext0
 3072 06a8 0200     		.2byte	0x2
 3073 06aa 31       		.byte	0x31
 3074 06ab 9F       		.byte	0x9f
 3075 06ac 9C000000 		.4byte	.LVL25-.Ltext0
 3076 06b0 1A020000 		.4byte	.LVL60-.Ltext0
ARM GAS  /tmp/cc6KTt4Y.s 			page 55


 3077 06b4 0100     		.2byte	0x1
 3078 06b6 5A       		.byte	0x5a
 3079 06b7 32020000 		.4byte	.LVL64-.Ltext0
 3080 06bb DA020000 		.4byte	.LVL87-.Ltext0
 3081 06bf 0100     		.2byte	0x1
 3082 06c1 5A       		.byte	0x5a
 3083 06c2 14030000 		.4byte	.LVL97-.Ltext0
 3084 06c6 7C030000 		.4byte	.LVL114-.Ltext0
 3085 06ca 0100     		.2byte	0x1
 3086 06cc 5A       		.byte	0x5a
 3087 06cd 9A030000 		.4byte	.LVL119-.Ltext0
 3088 06d1 CC030000 		.4byte	.LFE11-.Ltext0
 3089 06d5 0100     		.2byte	0x1
 3090 06d7 5A       		.byte	0x5a
 3091 06d8 00000000 		.4byte	0
 3092 06dc 00000000 		.4byte	0
 3093              	.LLST19:
 3094 06e0 BA020000 		.4byte	.LVL80-.Ltext0
 3095 06e4 C3020000 		.4byte	.LVL82-1-.Ltext0
 3096 06e8 0100     		.2byte	0x1
 3097 06ea 51       		.byte	0x51
 3098 06eb 16030000 		.4byte	.LVL98-.Ltext0
 3099 06ef 24030000 		.4byte	.LVL100-.Ltext0
 3100 06f3 0100     		.2byte	0x1
 3101 06f5 51       		.byte	0x51
 3102 06f6 AA030000 		.4byte	.LVL122-.Ltext0
 3103 06fa B8030000 		.4byte	.LVL125-.Ltext0
 3104 06fe 0100     		.2byte	0x1
 3105 0700 51       		.byte	0x51
 3106 0701 00000000 		.4byte	0
 3107 0705 00000000 		.4byte	0
 3108              	.LLST20:
 3109 0709 50020000 		.4byte	.LVL66-.Ltext0
 3110 070d 56020000 		.4byte	.LVL67-.Ltext0
 3111 0711 0100     		.2byte	0x1
 3112 0713 50       		.byte	0x50
 3113 0714 56020000 		.4byte	.LVL67-.Ltext0
 3114 0718 B6020000 		.4byte	.LVL78-.Ltext0
 3115 071c 0200     		.2byte	0x2
 3116 071e 90       		.byte	0x90
 3117 071f 50       		.uleb128 0x50
 3118 0720 9A030000 		.4byte	.LVL119-.Ltext0
 3119 0724 A0030000 		.4byte	.LVL120-.Ltext0
 3120 0728 0100     		.2byte	0x1
 3121 072a 50       		.byte	0x50
 3122 072b A0030000 		.4byte	.LVL120-.Ltext0
 3123 072f AA030000 		.4byte	.LVL122-.Ltext0
 3124 0733 0200     		.2byte	0x2
 3125 0735 90       		.byte	0x90
 3126 0736 50       		.uleb128 0x50
 3127 0737 00000000 		.4byte	0
 3128 073b 00000000 		.4byte	0
 3129              	.LLST21:
 3130 073f 56020000 		.4byte	.LVL67-.Ltext0
 3131 0743 B6020000 		.4byte	.LVL78-.Ltext0
 3132 0747 0600     		.2byte	0x6
 3133 0749 F5       		.byte	0xf5
ARM GAS  /tmp/cc6KTt4Y.s 			page 56


 3134 074a 50       		.uleb128 0x50
 3135 074b 33       		.uleb128 0x33
 3136 074c F7       		.byte	0xf7
 3137 074d 25       		.uleb128 0x25
 3138 074e 9F       		.byte	0x9f
 3139 074f 00000000 		.4byte	0
 3140 0753 00000000 		.4byte	0
 3141              	.LLST22:
 3142 0757 56020000 		.4byte	.LVL67-.Ltext0
 3143 075b 69020000 		.4byte	.LVL69-1-.Ltext0
 3144 075f 0100     		.2byte	0x1
 3145 0761 50       		.byte	0x50
 3146 0762 6A020000 		.4byte	.LVL69-.Ltext0
 3147 0766 72020000 		.4byte	.LVL70-.Ltext0
 3148 076a 0300     		.2byte	0x3
 3149 076c 70       		.byte	0x70
 3150 076d 01       		.sleb128 1
 3151 076e 9F       		.byte	0x9f
 3152 076f 72020000 		.4byte	.LVL70-.Ltext0
 3153 0773 B4020000 		.4byte	.LVL77-.Ltext0
 3154 0777 0100     		.2byte	0x1
 3155 0779 5B       		.byte	0x5b
 3156 077a 00000000 		.4byte	0
 3157 077e 00000000 		.4byte	0
 3158              	.LLST23:
 3159 0782 66020000 		.4byte	.LVL68-.Ltext0
 3160 0786 69020000 		.4byte	.LVL69-1-.Ltext0
 3161 078a 0100     		.2byte	0x1
 3162 078c 51       		.byte	0x51
 3163 078d 69020000 		.4byte	.LVL69-1-.Ltext0
 3164 0791 9A020000 		.4byte	.LVL74-.Ltext0
 3165 0795 0300     		.2byte	0x3
 3166 0797 91       		.byte	0x91
 3167 0798 AC7F     		.sleb128 -84
 3168 079a 9A020000 		.4byte	.LVL74-.Ltext0
 3169 079e 9D020000 		.4byte	.LVL75-1-.Ltext0
 3170 07a2 0800     		.2byte	0x8
 3171 07a4 F5       		.byte	0xf5
 3172 07a5 00       		.uleb128 0
 3173 07a6 25       		.uleb128 0x25
 3174 07a7 F7       		.byte	0xf7
 3175 07a8 2C       		.uleb128 0x2c
 3176 07a9 F7       		.byte	0xf7
 3177 07aa 00       		.uleb128 0
 3178 07ab 9F       		.byte	0x9f
 3179 07ac 00000000 		.4byte	0
 3180 07b0 00000000 		.4byte	0
 3181              	.LLST24:
 3182 07b4 56020000 		.4byte	.LVL67-.Ltext0
 3183 07b8 B6020000 		.4byte	.LVL78-.Ltext0
 3184 07bc 0600     		.2byte	0x6
 3185 07be 0C       		.byte	0xc
 3186 07bf A0860100 		.4byte	0x186a0
 3187 07c3 9F       		.byte	0x9f
 3188 07c4 00000000 		.4byte	0
 3189 07c8 00000000 		.4byte	0
 3190              	.LLST25:
ARM GAS  /tmp/cc6KTt4Y.s 			page 57


 3191 07cc 20030000 		.4byte	.LVL99-.Ltext0
 3192 07d0 24030000 		.4byte	.LVL100-.Ltext0
 3193 07d4 0200     		.2byte	0x2
 3194 07d6 3A       		.byte	0x3a
 3195 07d7 9F       		.byte	0x9f
 3196 07d8 00000000 		.4byte	0
 3197 07dc 00000000 		.4byte	0
 3198              	.LLST26:
 3199 07e0 20030000 		.4byte	.LVL99-.Ltext0
 3200 07e4 24030000 		.4byte	.LVL100-.Ltext0
 3201 07e8 0100     		.2byte	0x1
 3202 07ea 51       		.byte	0x51
 3203 07eb 00000000 		.4byte	0
 3204 07ef 00000000 		.4byte	0
 3205              	.LLST27:
 3206 07f3 20030000 		.4byte	.LVL99-.Ltext0
 3207 07f7 24030000 		.4byte	.LVL100-.Ltext0
 3208 07fb 0100     		.2byte	0x1
 3209 07fd 50       		.byte	0x50
 3210 07fe 00000000 		.4byte	0
 3211 0802 00000000 		.4byte	0
 3212              	.LLST28:
 3213 0806 D0030000 		.4byte	.LVL126-.Ltext0
 3214 080a E6030000 		.4byte	.LVL128-.Ltext0
 3215 080e 0100     		.2byte	0x1
 3216 0810 50       		.byte	0x50
 3217 0811 E6030000 		.4byte	.LVL128-.Ltext0
 3218 0815 E9030000 		.4byte	.LVL129-1-.Ltext0
 3219 0819 0100     		.2byte	0x1
 3220 081b 51       		.byte	0x51
 3221 081c E9030000 		.4byte	.LVL129-1-.Ltext0
 3222 0820 02040000 		.4byte	.LVL132-.Ltext0
 3223 0824 0100     		.2byte	0x1
 3224 0826 55       		.byte	0x55
 3225 0827 02040000 		.4byte	.LVL132-.Ltext0
 3226 082b 06040000 		.4byte	.LFE12-.Ltext0
 3227 082f 0400     		.2byte	0x4
 3228 0831 F3       		.byte	0xf3
 3229 0832 01       		.uleb128 0x1
 3230 0833 50       		.byte	0x50
 3231 0834 9F       		.byte	0x9f
 3232 0835 00000000 		.4byte	0
 3233 0839 00000000 		.4byte	0
 3234              	.LLST29:
 3235 083d D0030000 		.4byte	.LVL126-.Ltext0
 3236 0841 E4030000 		.4byte	.LVL127-.Ltext0
 3237 0845 0100     		.2byte	0x1
 3238 0847 51       		.byte	0x51
 3239 0848 E4030000 		.4byte	.LVL127-.Ltext0
 3240 084c E9030000 		.4byte	.LVL129-1-.Ltext0
 3241 0850 0300     		.2byte	0x3
 3242 0852 72       		.byte	0x72
 3243 0853 01       		.sleb128 1
 3244 0854 9F       		.byte	0x9f
 3245 0855 E9030000 		.4byte	.LVL129-1-.Ltext0
 3246 0859 06040000 		.4byte	.LFE12-.Ltext0
 3247 085d 0400     		.2byte	0x4
ARM GAS  /tmp/cc6KTt4Y.s 			page 58


 3248 085f F3       		.byte	0xf3
 3249 0860 01       		.uleb128 0x1
 3250 0861 51       		.byte	0x51
 3251 0862 9F       		.byte	0x9f
 3252 0863 00000000 		.4byte	0
 3253 0867 00000000 		.4byte	0
 3254              	.LLST30:
 3255 086b EA030000 		.4byte	.LVL129-.Ltext0
 3256 086f EC030000 		.4byte	.LVL130-.Ltext0
 3257 0873 0300     		.2byte	0x3
 3258 0875 91       		.byte	0x91
 3259 0876 44       		.sleb128 -60
 3260 0877 9F       		.byte	0x9f
 3261 0878 EC030000 		.4byte	.LVL130-.Ltext0
 3262 087c F5030000 		.4byte	.LVL131-1-.Ltext0
 3263 0880 0100     		.2byte	0x1
 3264 0882 50       		.byte	0x50
 3265 0883 F5030000 		.4byte	.LVL131-1-.Ltext0
 3266 0887 06040000 		.4byte	.LFE12-.Ltext0
 3267 088b 0300     		.2byte	0x3
 3268 088d 91       		.byte	0x91
 3269 088e 44       		.sleb128 -60
 3270 088f 9F       		.byte	0x9f
 3271 0890 00000000 		.4byte	0
 3272 0894 00000000 		.4byte	0
 3273              		.section	.debug_aranges,"",%progbits
 3274 0000 1C000000 		.4byte	0x1c
 3275 0004 0200     		.2byte	0x2
 3276 0006 00000000 		.4byte	.Ldebug_info0
 3277 000a 04       		.byte	0x4
 3278 000b 00       		.byte	0
 3279 000c 0000     		.2byte	0
 3280 000e 0000     		.2byte	0
 3281 0010 00000000 		.4byte	.Ltext0
 3282 0014 06040000 		.4byte	.Letext0-.Ltext0
 3283 0018 00000000 		.4byte	0
 3284 001c 00000000 		.4byte	0
 3285              		.section	.debug_ranges,"",%progbits
 3286              	.Ldebug_ranges0:
 3287 0000 56020000 		.4byte	.LBB12-.Ltext0
 3288 0004 72020000 		.4byte	.LBE12-.Ltext0
 3289 0008 7E020000 		.4byte	.LBB15-.Ltext0
 3290 000c B2020000 		.4byte	.LBE15-.Ltext0
 3291 0010 00000000 		.4byte	0
 3292 0014 00000000 		.4byte	0
 3293 0018 BA020000 		.4byte	.LBB16-.Ltext0
 3294 001c BC020000 		.4byte	.LBE16-.Ltext0
 3295 0020 BE020000 		.4byte	.LBB19-.Ltext0
 3296 0024 CA020000 		.4byte	.LBE19-.Ltext0
 3297 0028 00000000 		.4byte	0
 3298 002c 00000000 		.4byte	0
 3299              		.section	.debug_line,"",%progbits
 3300              	.Ldebug_line0:
 3301 0000 54040000 		.section	.debug_str,"MS",%progbits,1
 3301      02001003 
 3301      00000201 
 3301      FB0E0D00 
ARM GAS  /tmp/cc6KTt4Y.s 			page 59


 3301      01010101 
 3302              	.LASF4:
 3303 0000 73697A65 		.ascii	"size_t\000"
 3303      5F7400
 3304              	.LASF5:
 3305 0007 5F5F7569 		.ascii	"__uint8_t\000"
 3305      6E74385F 
 3305      7400
 3306              	.LASF27:
 3307 0011 76615F6C 		.ascii	"va_list\000"
 3307      69737400 
 3308              	.LASF36:
 3309 0019 66746F61 		.ascii	"ftoa\000"
 3309      00
 3310              	.LASF13:
 3311 001e 6C6F6E67 		.ascii	"long long unsigned int\000"
 3311      206C6F6E 
 3311      6720756E 
 3311      7369676E 
 3311      65642069 
 3312              	.LASF12:
 3313 0035 6C6F6E67 		.ascii	"long long int\000"
 3313      206C6F6E 
 3313      6720696E 
 3313      7400
 3314              	.LASF3:
 3315 0043 7369676E 		.ascii	"signed char\000"
 3315      65642063 
 3315      68617200 
 3316              	.LASF16:
 3317 004f 626F6F6C 		.ascii	"bool_t\000"
 3317      5F7400
 3318              	.LASF42:
 3319 0056 746D7062 		.ascii	"tmpbuf\000"
 3319      756600
 3320              	.LASF10:
 3321 005d 6C6F6E67 		.ascii	"long int\000"
 3321      20696E74 
 3321      00
 3322              	.LASF50:
 3323 0066 6368736E 		.ascii	"chsnprintf\000"
 3323      7072696E 
 3323      746600
 3324              	.LASF26:
 3325 0071 5F5F7661 		.ascii	"__va_list\000"
 3325      5F6C6973 
 3325      7400
 3326              	.LASF0:
 3327 007b 646F7562 		.ascii	"double\000"
 3327      6C6500
 3328              	.LASF29:
 3329 0082 62756666 		.ascii	"buffer\000"
 3329      657200
 3330              	.LASF38:
 3331 0089 66696C6C 		.ascii	"filler\000"
 3331      657200
 3332              	.LASF40:
ARM GAS  /tmp/cc6KTt4Y.s 			page 60


 3333 0090 69735F6C 		.ascii	"is_long\000"
 3333      6F6E6700 
 3334              	.LASF23:
 3335 0098 42617365 		.ascii	"BaseSequentialStream\000"
 3335      53657175 
 3335      656E7469 
 3335      616C5374 
 3335      7265616D 
 3336              	.LASF2:
 3337 00ad 756E7369 		.ascii	"unsigned int\000"
 3337      676E6564 
 3337      20696E74 
 3337      00
 3338              	.LASF11:
 3339 00ba 6C6F6E67 		.ascii	"long unsigned int\000"
 3339      20756E73 
 3339      69676E65 
 3339      6420696E 
 3339      7400
 3340              	.LASF41:
 3341 00cc 6C656674 		.ascii	"left_align\000"
 3341      5F616C69 
 3341      676E00
 3342              	.LASF39:
 3343 00d7 77696474 		.ascii	"width\000"
 3343      6800
 3344              	.LASF30:
 3345 00dd 73697A65 		.ascii	"size\000"
 3345      00
 3346              	.LASF8:
 3347 00e2 73686F72 		.ascii	"short unsigned int\000"
 3347      7420756E 
 3347      7369676E 
 3347      65642069 
 3347      6E7400
 3348              	.LASF18:
 3349 00f5 6D73675F 		.ascii	"msg_t\000"
 3349      7400
 3350              	.LASF35:
 3351 00fb 6C746F61 		.ascii	"ltoa\000"
 3351      00
 3352              	.LASF51:
 3353 0100 6D734F62 		.ascii	"msObjectInit\000"
 3353      6A656374 
 3353      496E6974 
 3353      00
 3354              	.LASF21:
 3355 010d 77726974 		.ascii	"write\000"
 3355      6500
 3356              	.LASF19:
 3357 0113 73697A65 		.ascii	"sizetype\000"
 3357      74797065 
 3357      00
 3358              	.LASF49:
 3359 011c 756E7369 		.ascii	"unsigned_common\000"
 3359      676E6564 
 3359      5F636F6D 
ARM GAS  /tmp/cc6KTt4Y.s 			page 61


 3359      6D6F6E00 
 3360              	.LASF34:
 3361 012c 64697669 		.ascii	"divisor\000"
 3361      736F7200 
 3362              	.LASF24:
 3363 0134 5F5F676E 		.ascii	"__gnuc_va_list\000"
 3363      75635F76 
 3363      615F6C69 
 3363      737400
 3364              	.LASF28:
 3365 0143 4D656D53 		.ascii	"MemStreamVMT\000"
 3365      74726561 
 3365      6D564D54 
 3365      00
 3366              	.LASF1:
 3367 0150 666C6F61 		.ascii	"float\000"
 3367      7400
 3368              	.LASF45:
 3369 0156 2F686F6D 		.ascii	"/home/sbcu/Dropbox/pcb-layouts/axo-on-discovery-boa"
 3369      652F7362 
 3369      63752F44 
 3369      726F7062 
 3369      6F782F70 
 3370 0189 72642F61 		.ascii	"rd/axoloti/firmware\000"
 3370      786F6C6F 
 3370      74692F66 
 3370      69726D77 
 3370      61726500 
 3371              	.LASF32:
 3372 019d 4D656D6F 		.ascii	"MemoryStream\000"
 3372      72795374 
 3372      7265616D 
 3372      00
 3373              	.LASF17:
 3374 01aa 5F426F6F 		.ascii	"_Bool\000"
 3374      6C00
 3375              	.LASF15:
 3376 01b0 696E7433 		.ascii	"int32_t\000"
 3376      325F7400 
 3377              	.LASF6:
 3378 01b8 756E7369 		.ascii	"unsigned char\000"
 3378      676E6564 
 3378      20636861 
 3378      7200
 3379              	.LASF7:
 3380 01c6 73686F72 		.ascii	"short int\000"
 3380      7420696E 
 3380      7400
 3381              	.LASF25:
 3382 01d0 42617365 		.ascii	"BaseSequentialStreamVMT\000"
 3382      53657175 
 3382      656E7469 
 3382      616C5374 
 3382      7265616D 
 3383              	.LASF44:
 3384 01e8 2F686F6D 		.ascii	"/home/sbcu/Dropbox/pcb-layouts/axo-on-discovery-boa"
 3384      652F7362 
ARM GAS  /tmp/cc6KTt4Y.s 			page 62


 3384      63752F44 
 3384      726F7062 
 3384      6F782F70 
 3385 021b 72642F61 		.ascii	"rd/axoloti/platform_linux/../chibios/os/various/chp"
 3385      786F6C6F 
 3385      74692F70 
 3385      6C617466 
 3385      6F726D5F 
 3386 024e 72696E74 		.ascii	"rintf.c\000"
 3386      662E6300 
 3387              	.LASF20:
 3388 0256 63686172 		.ascii	"char\000"
 3388      00
 3389              	.LASF37:
 3390 025b 70726563 		.ascii	"precision\000"
 3390      6973696F 
 3390      6E00
 3391              	.LASF9:
 3392 0265 5F5F696E 		.ascii	"__int32_t\000"
 3392      7433325F 
 3392      7400
 3393              	.LASF31:
 3394 026f 6F666673 		.ascii	"offset\000"
 3394      657400
 3395              	.LASF33:
 3396 0276 72616469 		.ascii	"radix\000"
 3396      7800
 3397              	.LASF46:
 3398 027c 5F5F6170 		.ascii	"__ap\000"
 3398      00
 3399              	.LASF14:
 3400 0281 75696E74 		.ascii	"uint8_t\000"
 3400      385F7400 
 3401              	.LASF48:
 3402 0289 63687670 		.ascii	"chvprintf\000"
 3402      72696E74 
 3402      6600
 3403              	.LASF22:
 3404 0293 72656164 		.ascii	"read\000"
 3404      00
 3405              	.LASF43:
 3406 0298 474E5520 		.ascii	"GNU C 4.9.3 20150529 (release) [ARM/embedded-4_9-br"
 3406      4320342E 
 3406      392E3320 
 3406      32303135 
 3406      30353239 
 3407 02cb 616E6368 		.ascii	"anch revision 224288] -mcpu=cortex-m4 -mfloat-abi=h"
 3407      20726576 
 3407      6973696F 
 3407      6E203232 
 3407      34323838 
 3408 02fe 61726420 		.ascii	"ard -mfpu=fpv4-sp-d16 -mno-thumb-interwork -mthumb "
 3408      2D6D6670 
 3408      753D6670 
 3408      76342D73 
 3408      702D6431 
 3409 0331 2D676764 		.ascii	"-ggdb -O2 -fomit-frame-pointer -falign-functions=16"
ARM GAS  /tmp/cc6KTt4Y.s 			page 63


 3409      62202D4F 
 3409      32202D66 
 3409      6F6D6974 
 3409      2D667261 
 3410 0364 202D666E 		.ascii	" -fno-math-errno -fsingle-precision-constant\000"
 3410      6F2D6D61 
 3410      74682D65 
 3410      72726E6F 
 3410      202D6673 
 3411              	.LASF47:
 3412 0391 6C6F6E67 		.ascii	"long_to_string_with_divisor\000"
 3412      5F746F5F 
 3412      73747269 
 3412      6E675F77 
 3412      6974685F 
 3413              		.ident	"GCC: (GNU Tools for ARM Embedded Processors) 4.9.3 20150529 (release) [ARM/embedded-4_9-br
ARM GAS  /tmp/cc6KTt4Y.s 			page 64


DEFINED SYMBOLS
                            *ABS*:00000000 chprintf.c
     /tmp/cc6KTt4Y.s:20     .text:00000000 $t
     /tmp/cc6KTt4Y.s:25     .text:00000000 long_to_string_with_divisor
     /tmp/cc6KTt4Y.s:118    .text:00000050 chvprintf
     /tmp/cc6KTt4Y.s:267    .text:000000f0 $d
     /tmp/cc6KTt4Y.s:321    .text:0000015a $t
     /tmp/cc6KTt4Y.s:369    .text:00000198 $d
     /tmp/cc6KTt4Y.s:816    .text:000003c0 $d
     /tmp/cc6KTt4Y.s:822    .text:000003cc $t
     /tmp/cc6KTt4Y.s:828    .text:000003d0 chsnprintf
     /tmp/cc6KTt4Y.s:894    .rodata.str1.4:00000000 $d
                     .debug_frame:00000010 $d
     /tmp/cc6KTt4Y.s:423    .text:000001cd $d
     /tmp/cc6KTt4Y.s:423    .text:000001ce $t

UNDEFINED SYMBOLS
__aeabi_d2f
__aeabi_f2d
__aeabi_i2d
__aeabi_dsub
__aeabi_dmul
__aeabi_d2iz
msObjectInit
