ARM GAS  /tmp/cch85XqM.s 			page 1


   1              		.syntax unified
   2              		.cpu cortex-m4
   3              		.eabi_attribute 27, 1
   4              		.eabi_attribute 28, 1
   5              		.fpu fpv4-sp-d16
   6              		.eabi_attribute 20, 1
   7              		.eabi_attribute 21, 1
   8              		.eabi_attribute 23, 3
   9              		.eabi_attribute 24, 1
  10              		.eabi_attribute 25, 1
  11              		.eabi_attribute 26, 1
  12              		.eabi_attribute 30, 2
  13              		.eabi_attribute 34, 1
  14              		.eabi_attribute 18, 4
  15              		.thumb
  16              		.file	"chschd.c"
  17              		.text
  18              	.Ltext0:
  19              		.cfi_sections	.debug_frame
  20              		.align	2
  21              		.p2align 4,,15
  22              		.thumb
  23              		.thumb_func
  24              		.type	wakeup, %function
  25              	wakeup:
  26              	.LFB10:
  27              		.file 1 "/d_drive/axoloti/platform_linux/../chibios/os/kernel/src/chschd.c"
  28              		.loc 1 136 0
  29              		.cfi_startproc
  30              		@ args = 0, pretend = 0, frame = 0
  31              		@ frame_needed = 0, uses_anonymous_args = 0
  32              		@ link register save eliminated.
  33              	.LVL0:
  34 0000 10B4     		push	{r4}
  35              		.cfi_def_cfa_offset 4
  36              		.cfi_offset 4, -4
  37              	.LBB44:
  38              		.loc 1 139 0
  39 0002 2023     		movs	r3, #32
  40              	@ 139 "/d_drive/axoloti/platform_linux/../chibios/os/kernel/src/chschd.c" 1
  41 0004 83F31188 		msr     BASEPRI, r3
  42              	@ 0 "" 2
  43              		.thumb
  44              	.LBE44:
  45              		.loc 1 140 0
  46 0008 037F     		ldrb	r3, [r0, #28]	@ zero_extendqisi2
  47 000a 032B     		cmp	r3, #3
  48 000c 18D0     		beq	.L3
  49 000e 0D2B     		cmp	r3, #13
  50 0010 1AD0     		beq	.L4
  51 0012 83B1     		cbz	r3, .L13
  52              	.L2:
  53              		.loc 1 163 0
  54 0014 4FF0FF34 		mov	r4, #-1
  55              	.LBB45:
  56              	.LBB46:
  57              		.loc 1 92 0
ARM GAS  /tmp/cch85XqM.s 			page 2


  58 0018 0023     		movs	r3, #0
  59 001a 8168     		ldr	r1, [r0, #8]
  60              	.LBE46:
  61              	.LBE45:
  62              	.LBB48:
  63              	.LBB49:
  64              	.LBB50:
  65              	.LBB51:
  66              		.loc 1 93 0
  67 001c 0D4A     		ldr	r2, .L15
  68              	.LBE51:
  69              	.LBE50:
  70              	.LBE49:
  71              	.LBE48:
  72              		.loc 1 163 0
  73 001e 0462     		str	r4, [r0, #32]
  74              	.LVL1:
  75              	.LBB59:
  76              	.LBB47:
  77              		.loc 1 92 0
  78 0020 0377     		strb	r3, [r0, #28]
  79              	.LVL2:
  80              	.L7:
  81              	.LBE47:
  82              	.LBE59:
  83              	.LBB60:
  84              	.LBB58:
  85              	.LBB54:
  86              	.LBB52:
  87              		.loc 1 95 0
  88 0022 1268     		ldr	r2, [r2]
  89              	.LVL3:
  90              		.loc 1 96 0
  91 0024 9368     		ldr	r3, [r2, #8]
  92 0026 8B42     		cmp	r3, r1
  93 0028 FBD2     		bcs	.L7
  94              		.loc 1 99 0
  95 002a 5168     		ldr	r1, [r2, #4]
  96 002c 4160     		str	r1, [r0, #4]
  97              		.loc 1 98 0
  98 002e 0260     		str	r2, [r0]
  99              	.LBE52:
 100              	.LBE54:
 101              	.LBB55:
 102              		.loc 1 165 0
 103 0030 0023     		movs	r3, #0
 104              	.LBE55:
 105              	.LBB56:
 106              	.LBB53:
 107              		.loc 1 100 0
 108 0032 5060     		str	r0, [r2, #4]
 109 0034 0860     		str	r0, [r1]
 110              	.LVL4:
 111              	.L13:
 112              	.LBE53:
 113              	.LBE56:
 114              	.LBB57:
ARM GAS  /tmp/cch85XqM.s 			page 3


 115              		.loc 1 165 0
 116              	@ 165 "/d_drive/axoloti/platform_linux/../chibios/os/kernel/src/chschd.c" 1
 117 0036 83F31188 		msr     BASEPRI, r3
 118              	@ 0 "" 2
 119              		.thumb
 120              	.LBE57:
 121              	.LBE58:
 122              	.LBE60:
 123              		.loc 1 166 0
 124 003a 5DF8044B 		ldr	r4, [sp], #4
 125              		.cfi_remember_state
 126              		.cfi_restore 4
 127              		.cfi_def_cfa_offset 0
 128 003e 7047     		bx	lr
 129              	.L3:
 130              		.cfi_restore_state
 131              		.loc 1 150 0
 132 0040 026A     		ldr	r2, [r0, #32]
 133 0042 9368     		ldr	r3, [r2, #8]
 134 0044 0133     		adds	r3, r3, #1
 135 0046 9360     		str	r3, [r2, #8]
 136              	.L4:
 137              	.LVL5:
 138              	.LBB61:
 139              	.LBB62:
 140              		.file 2 "/d_drive/axoloti/platform_linux/../chibios/os/kernel/include/chinline.h"
 141              		.loc 2 75 0
 142 0048 90E80C00 		ldmia	r0, {r2, r3}
 143 004c 1A60     		str	r2, [r3]
 144              		.loc 2 76 0
 145 004e 0268     		ldr	r2, [r0]
 146 0050 5360     		str	r3, [r2, #4]
 147 0052 DFE7     		b	.L2
 148              	.L16:
 149              		.align	2
 150              	.L15:
 151 0054 00000000 		.word	rlist
 152              	.LBE62:
 153              	.LBE61:
 154              		.cfi_endproc
 155              	.LFE10:
 156              		.size	wakeup, .-wakeup
 157              		.align	2
 158 0058 AFF30080 		.p2align 4,,15
 158      AFF30080 
 159              		.global	_scheduler_init
 160              		.thumb
 161              		.thumb_func
 162              		.type	_scheduler_init, %function
 163              	_scheduler_init:
 164              	.LFB7:
 165              		.loc 1 55 0
 166              		.cfi_startproc
 167              		@ args = 0, pretend = 0, frame = 0
 168              		@ frame_needed = 0, uses_anonymous_args = 0
 169              		@ link register save eliminated.
 170              		.loc 1 57 0
ARM GAS  /tmp/cch85XqM.s 			page 4


 171 0060 034B     		ldr	r3, .L18
 172              		.loc 1 58 0
 173 0062 0022     		movs	r2, #0
 174              		.loc 1 57 0
 175 0064 5B60     		str	r3, [r3, #4]
 176 0066 1B60     		str	r3, [r3]
 177              		.loc 1 60 0
 178 0068 5B61     		str	r3, [r3, #20]
 179 006a 1B61     		str	r3, [r3, #16]
 180              		.loc 1 58 0
 181 006c 9A60     		str	r2, [r3, #8]
 182 006e 7047     		bx	lr
 183              	.L19:
 184              		.align	2
 185              	.L18:
 186 0070 00000000 		.word	rlist
 187              		.cfi_endproc
 188              	.LFE7:
 189              		.size	_scheduler_init, .-_scheduler_init
 190              		.align	2
 191 0074 AFF30080 		.p2align 4,,15
 191      AFF30080 
 191      AFF30080 
 192              		.global	chSchReadyI
 193              		.thumb
 194              		.thumb_func
 195              		.type	chSchReadyI, %function
 196              	chSchReadyI:
 197              	.LFB8:
 198              		.loc 1 81 0
 199              		.cfi_startproc
 200              		@ args = 0, pretend = 0, frame = 0
 201              		@ frame_needed = 0, uses_anonymous_args = 0
 202              		@ link register save eliminated.
 203              	.LVL6:
 204              		.loc 1 92 0
 205 0080 0022     		movs	r2, #0
 206 0082 8168     		ldr	r1, [r0, #8]
 207              		.loc 1 93 0
 208 0084 084B     		ldr	r3, .L24
 209              		.loc 1 81 0
 210 0086 10B4     		push	{r4}
 211              		.cfi_def_cfa_offset 4
 212              		.cfi_offset 4, -4
 213              		.loc 1 81 0
 214 0088 0446     		mov	r4, r0
 215              		.loc 1 92 0
 216 008a 0277     		strb	r2, [r0, #28]
 217              	.LVL7:
 218              	.L21:
 219              		.loc 1 95 0 discriminator 1
 220 008c 1B68     		ldr	r3, [r3]
 221              	.LVL8:
 222              		.loc 1 96 0 discriminator 1
 223 008e 9A68     		ldr	r2, [r3, #8]
 224 0090 8A42     		cmp	r2, r1
 225 0092 FBD2     		bcs	.L21
ARM GAS  /tmp/cch85XqM.s 			page 5


 226              		.loc 1 99 0
 227 0094 5A68     		ldr	r2, [r3, #4]
 228 0096 6260     		str	r2, [r4, #4]
 229              		.loc 1 98 0
 230 0098 2360     		str	r3, [r4]
 231              		.loc 1 102 0
 232 009a 2046     		mov	r0, r4
 233              	.LVL9:
 234              		.loc 1 100 0
 235 009c 5C60     		str	r4, [r3, #4]
 236 009e 1460     		str	r4, [r2]
 237              		.loc 1 102 0
 238 00a0 5DF8044B 		ldr	r4, [sp], #4
 239              		.cfi_restore 4
 240              		.cfi_def_cfa_offset 0
 241              	.LVL10:
 242 00a4 7047     		bx	lr
 243              	.L25:
 244 00a6 00BF     		.align	2
 245              	.L24:
 246 00a8 00000000 		.word	rlist
 247              		.cfi_endproc
 248              	.LFE8:
 249              		.size	chSchReadyI, .-chSchReadyI
 250              		.align	2
 251 00ac AFF30080 		.p2align 4,,15
 252              		.global	chSchGoSleepS
 253              		.thumb
 254              		.thumb_func
 255              		.type	chSchGoSleepS, %function
 256              	chSchGoSleepS:
 257              	.LFB9:
 258              		.loc 1 115 0
 259              		.cfi_startproc
 260              		@ args = 0, pretend = 0, frame = 0
 261              		@ frame_needed = 0, uses_anonymous_args = 0
 262              		@ link register save eliminated.
 263              	.LVL11:
 264              		.loc 1 120 0
 265 00b0 084B     		ldr	r3, .L28
 266              		.loc 1 115 0
 267 00b2 30B4     		push	{r4, r5}
 268              		.cfi_def_cfa_offset 8
 269              		.cfi_offset 4, -8
 270              		.cfi_offset 5, -4
 271              	.LBB63:
 272              	.LBB64:
 273              		.loc 2 60 0
 274 00b4 1A68     		ldr	r2, [r3]
 275              	.LBE64:
 276              	.LBE63:
 277              		.loc 1 120 0
 278 00b6 9969     		ldr	r1, [r3, #24]
 279              	.LVL12:
 280              	.LBB68:
 281              	.LBB65:
 282              		.loc 2 62 0
ARM GAS  /tmp/cch85XqM.s 			page 6


 283 00b8 1468     		ldr	r4, [r2]
 284              	.LBE65:
 285              	.LBE68:
 286              		.loc 1 120 0
 287 00ba 0877     		strb	r0, [r1, #28]
 288              		.loc 1 127 0
 289 00bc 0125     		movs	r5, #1
 290              		.loc 1 124 0
 291 00be 1420     		movs	r0, #20
 292              	.LVL13:
 293 00c0 8877     		strb	r0, [r1, #30]
 294              	.LVL14:
 295              	.LBB69:
 296              	.LBB66:
 297              		.loc 2 62 0
 298 00c2 6360     		str	r3, [r4, #4]
 299              	.LBE66:
 300              	.LBE69:
 301              		.loc 1 127 0
 302 00c4 1577     		strb	r5, [r2, #28]
 303              	.LVL15:
 304              	.LBB70:
 305              	.LBB67:
 306              		.loc 2 62 0
 307 00c6 1C60     		str	r4, [r3]
 308              	.LBE67:
 309              	.LBE70:
 310              		.loc 1 128 0
 311 00c8 1046     		mov	r0, r2
 312              		.loc 1 129 0
 313 00ca 30BC     		pop	{r4, r5}
 314              		.cfi_restore 5
 315              		.cfi_restore 4
 316              		.cfi_def_cfa_offset 0
 317              		.loc 1 126 0
 318 00cc 9A61     		str	r2, [r3, #24]
 319              		.loc 1 128 0
 320 00ce FFF7FEBF 		b	_port_switch
 321              	.LVL16:
 322              	.L29:
 323 00d2 00BF     		.align	2
 324              	.L28:
 325 00d4 00000000 		.word	rlist
 326              		.cfi_endproc
 327              	.LFE9:
 328              		.size	chSchGoSleepS, .-chSchGoSleepS
 329              		.align	2
 330 00d8 AFF30080 		.p2align 4,,15
 330      AFF30080 
 331              		.global	chSchGoSleepTimeoutS
 332              		.thumb
 333              		.thumb_func
 334              		.type	chSchGoSleepTimeoutS, %function
 335              	chSchGoSleepTimeoutS:
 336              	.LFB11:
 337              		.loc 1 189 0
 338              		.cfi_startproc
ARM GAS  /tmp/cch85XqM.s 			page 7


 339              		@ args = 0, pretend = 0, frame = 24
 340              		@ frame_needed = 0, uses_anonymous_args = 0
 341              	.LVL17:
 342 00e0 30B5     		push	{r4, r5, lr}
 343              		.cfi_def_cfa_offset 12
 344              		.cfi_offset 4, -12
 345              		.cfi_offset 5, -8
 346              		.cfi_offset 14, -4
 347              		.loc 1 193 0
 348 00e2 4B1C     		adds	r3, r1, #1
 349              		.loc 1 189 0
 350 00e4 87B0     		sub	sp, sp, #28
 351              		.cfi_def_cfa_offset 40
 352              		.loc 1 193 0
 353 00e6 12D0     		beq	.L31
 354              	.LBB71:
 355              		.loc 1 196 0
 356 00e8 0C4C     		ldr	r4, .L38
 357 00ea 0D4A     		ldr	r2, .L38+4
 358 00ec A369     		ldr	r3, [r4, #24]
 359 00ee 0546     		mov	r5, r0
 360 00f0 01A8     		add	r0, sp, #4
 361              	.LVL18:
 362 00f2 FFF7FEFF 		bl	chVTSetI
 363              	.LVL19:
 364              		.loc 1 197 0
 365 00f6 2846     		mov	r0, r5
 366 00f8 FFF7FEFF 		bl	chSchGoSleepS
 367              	.LVL20:
 368              		.loc 1 198 0
 369 00fc 049B     		ldr	r3, [sp, #16]
 370 00fe 13B1     		cbz	r3, .L33
 371              		.loc 1 199 0
 372 0100 01A8     		add	r0, sp, #4
 373 0102 FFF7FEFF 		bl	chVTResetI
 374              	.LVL21:
 375              	.L33:
 376              	.LBE71:
 377              		.loc 1 203 0
 378 0106 A369     		ldr	r3, [r4, #24]
 379              		.loc 1 204 0
 380 0108 186A     		ldr	r0, [r3, #32]
 381 010a 07B0     		add	sp, sp, #28
 382              		.cfi_remember_state
 383              		.cfi_def_cfa_offset 12
 384              		@ sp needed
 385 010c 30BD     		pop	{r4, r5, pc}
 386              	.LVL22:
 387              	.L31:
 388              		.cfi_restore_state
 389 010e 034C     		ldr	r4, .L38
 390              		.loc 1 202 0
 391 0110 FFF7FEFF 		bl	chSchGoSleepS
 392              	.LVL23:
 393              		.loc 1 203 0
 394 0114 A369     		ldr	r3, [r4, #24]
 395              		.loc 1 204 0
ARM GAS  /tmp/cch85XqM.s 			page 8


 396 0116 186A     		ldr	r0, [r3, #32]
 397 0118 07B0     		add	sp, sp, #28
 398              		.cfi_def_cfa_offset 12
 399              		@ sp needed
 400 011a 30BD     		pop	{r4, r5, pc}
 401              	.L39:
 402              		.align	2
 403              	.L38:
 404 011c 00000000 		.word	rlist
 405 0120 00000000 		.word	wakeup
 406              		.cfi_endproc
 407              	.LFE11:
 408              		.size	chSchGoSleepTimeoutS, .-chSchGoSleepTimeoutS
 409              		.align	2
 410 0124 AFF30080 		.p2align 4,,15
 410      AFF30080 
 410      AFF30080 
 411              		.global	chSchWakeupS
 412              		.thumb
 413              		.thumb_func
 414              		.type	chSchWakeupS, %function
 415              	chSchWakeupS:
 416              	.LFB12:
 417              		.loc 1 225 0
 418              		.cfi_startproc
 419              		@ args = 0, pretend = 0, frame = 0
 420              		@ frame_needed = 0, uses_anonymous_args = 0
 421              		@ link register save eliminated.
 422              	.LVL24:
 423              		.loc 1 234 0
 424 0130 144B     		ldr	r3, .L49
 425              		.loc 1 225 0
 426 0132 F0B4     		push	{r4, r5, r6, r7}
 427              		.cfi_def_cfa_offset 16
 428              		.cfi_offset 4, -16
 429              		.cfi_offset 5, -12
 430              		.cfi_offset 6, -8
 431              		.cfi_offset 7, -4
 432              		.loc 1 234 0
 433 0134 9E69     		ldr	r6, [r3, #24]
 434 0136 8468     		ldr	r4, [r0, #8]
 435              		.loc 1 225 0
 436 0138 0546     		mov	r5, r0
 437              		.loc 1 234 0
 438 013a B068     		ldr	r0, [r6, #8]
 439              	.LVL25:
 440              		.loc 1 229 0
 441 013c 2962     		str	r1, [r5, #32]
 442              		.loc 1 234 0
 443 013e 8442     		cmp	r4, r0
 444              	.LBB72:
 445              	.LBB73:
 446              		.loc 1 92 0
 447 0140 4FF00002 		mov	r2, #0
 448              	.LBE73:
 449              	.LBE72:
 450              		.loc 1 234 0
ARM GAS  /tmp/cch85XqM.s 			page 9


 451 0144 0BD8     		bhi	.L41
 452              	.LVL26:
 453              	.LBB75:
 454              	.LBB74:
 455              		.loc 1 92 0
 456 0146 2A77     		strb	r2, [r5, #28]
 457              	.LVL27:
 458              	.L42:
 459              		.loc 1 95 0
 460 0148 1B68     		ldr	r3, [r3]
 461              	.LVL28:
 462              		.loc 1 96 0
 463 014a 9A68     		ldr	r2, [r3, #8]
 464 014c 9442     		cmp	r4, r2
 465 014e FBD9     		bls	.L42
 466              		.loc 1 99 0
 467 0150 5A68     		ldr	r2, [r3, #4]
 468 0152 6A60     		str	r2, [r5, #4]
 469              		.loc 1 98 0
 470 0154 2B60     		str	r3, [r5]
 471              		.loc 1 100 0
 472 0156 5D60     		str	r5, [r3, #4]
 473 0158 1560     		str	r5, [r2]
 474              	.LBE74:
 475              	.LBE75:
 476              		.loc 1 242 0
 477 015a F0BC     		pop	{r4, r5, r6, r7}
 478              		.cfi_remember_state
 479              		.cfi_restore 7
 480              		.cfi_restore 6
 481              		.cfi_restore 5
 482              		.cfi_restore 4
 483              		.cfi_def_cfa_offset 0
 484              	.LVL29:
 485 015c 7047     		bx	lr
 486              	.LVL30:
 487              	.L41:
 488              		.cfi_restore_state
 489              	.LBB76:
 490              	.LBB77:
 491              	.LBB78:
 492              		.loc 1 92 0
 493 015e 3277     		strb	r2, [r6, #28]
 494              	.LVL31:
 495              		.loc 1 93 0
 496 0160 1A46     		mov	r2, r3
 497              	.LVL32:
 498              	.L44:
 499              		.loc 1 95 0
 500 0162 1268     		ldr	r2, [r2]
 501              	.LVL33:
 502              		.loc 1 96 0
 503 0164 9168     		ldr	r1, [r2, #8]
 504 0166 8842     		cmp	r0, r1
 505 0168 FBD9     		bls	.L44
 506              		.loc 1 99 0
 507 016a 5468     		ldr	r4, [r2, #4]
ARM GAS  /tmp/cch85XqM.s 			page 10


 508 016c 7460     		str	r4, [r6, #4]
 509              	.LBE78:
 510              	.LBE77:
 511              		.loc 1 239 0
 512 016e 0127     		movs	r7, #1
 513              	.LBB80:
 514              	.LBB79:
 515              		.loc 1 98 0
 516 0170 3260     		str	r2, [r6]
 517              		.loc 1 100 0
 518 0172 5660     		str	r6, [r2, #4]
 519 0174 2660     		str	r6, [r4]
 520              	.LBE79:
 521              	.LBE80:
 522              		.loc 1 239 0
 523 0176 2F77     		strb	r7, [r5, #28]
 524              		.loc 1 240 0
 525 0178 3146     		mov	r1, r6
 526 017a 2846     		mov	r0, r5
 527              		.loc 1 238 0
 528 017c 9D61     		str	r5, [r3, #24]
 529              	.LBE76:
 530              		.loc 1 242 0
 531 017e F0BC     		pop	{r4, r5, r6, r7}
 532              		.cfi_restore 7
 533              		.cfi_restore 6
 534              		.cfi_restore 5
 535              		.cfi_restore 4
 536              		.cfi_def_cfa_offset 0
 537              	.LVL34:
 538              	.LBB81:
 539              		.loc 1 240 0
 540 0180 FFF7FEBF 		b	_port_switch
 541              	.LVL35:
 542              	.L50:
 543              		.align	2
 544              	.L49:
 545 0184 00000000 		.word	rlist
 546              	.LBE81:
 547              		.cfi_endproc
 548              	.LFE12:
 549              		.size	chSchWakeupS, .-chSchWakeupS
 550              		.align	2
 551 0188 AFF30080 		.p2align 4,,15
 551      AFF30080 
 552              		.global	chSchDoRescheduleBehind
 553              		.thumb
 554              		.thumb_func
 555              		.type	chSchDoRescheduleBehind, %function
 556              	chSchDoRescheduleBehind:
 557              	.LFB14:
 558              		.loc 1 304 0
 559              		.cfi_startproc
 560              		@ args = 0, pretend = 0, frame = 0
 561              		@ frame_needed = 0, uses_anonymous_args = 0
 562              		@ link register save eliminated.
 563              		.loc 1 307 0
ARM GAS  /tmp/cch85XqM.s 			page 11


 564 0190 0E4A     		ldr	r2, .L56
 565              	.LBB82:
 566              	.LBB83:
 567              		.loc 2 60 0
 568 0192 1068     		ldr	r0, [r2]
 569              	.LBE83:
 570              	.LBE82:
 571              		.loc 1 304 0
 572 0194 F0B4     		push	{r4, r5, r6, r7}
 573              		.cfi_def_cfa_offset 16
 574              		.cfi_offset 4, -16
 575              		.cfi_offset 5, -12
 576              		.cfi_offset 6, -8
 577              		.cfi_offset 7, -4
 578              	.LBB87:
 579              	.LBB84:
 580              		.loc 2 62 0
 581 0196 0368     		ldr	r3, [r0]
 582              	.LBE84:
 583              	.LBE87:
 584              		.loc 1 307 0
 585 0198 9469     		ldr	r4, [r2, #24]
 586              	.LVL36:
 587              	.LBB88:
 588              	.LBB85:
 589              		.loc 2 62 0
 590 019a 1360     		str	r3, [r2]
 591              	.LBE85:
 592              	.LBE88:
 593              		.loc 1 310 0
 594 019c 0127     		movs	r7, #1
 595              		.loc 1 312 0
 596 019e 1426     		movs	r6, #20
 597              	.LBB89:
 598              	.LBB90:
 599              		.loc 1 92 0
 600 01a0 0025     		movs	r5, #0
 601 01a2 A168     		ldr	r1, [r4, #8]
 602              	.LBE90:
 603              	.LBE89:
 604              	.LBB94:
 605              	.LBB86:
 606              		.loc 2 62 0
 607 01a4 5A60     		str	r2, [r3, #4]
 608              	.LBE86:
 609              	.LBE94:
 610              		.loc 1 310 0
 611 01a6 0777     		strb	r7, [r0, #28]
 612              	.LBB95:
 613              	.LBB91:
 614              		.loc 1 92 0
 615 01a8 0346     		mov	r3, r0
 616              	.LBE91:
 617              	.LBE95:
 618              		.loc 1 309 0
 619 01aa 9061     		str	r0, [r2, #24]
 620              		.loc 1 312 0
ARM GAS  /tmp/cch85XqM.s 			page 12


 621 01ac A677     		strb	r6, [r4, #30]
 622              	.LVL37:
 623              	.LBB96:
 624              	.LBB92:
 625              		.loc 1 92 0
 626 01ae 2577     		strb	r5, [r4, #28]
 627              	.LVL38:
 628 01b0 00E0     		b	.L53
 629              	.LVL39:
 630              	.L55:
 631 01b2 1B68     		ldr	r3, [r3]
 632              	.LVL40:
 633              	.L53:
 634              		.loc 1 96 0
 635 01b4 9A68     		ldr	r2, [r3, #8]
 636 01b6 8A42     		cmp	r2, r1
 637 01b8 FBD2     		bcs	.L55
 638              		.loc 1 99 0
 639 01ba 5A68     		ldr	r2, [r3, #4]
 640 01bc 6260     		str	r2, [r4, #4]
 641              		.loc 1 98 0
 642 01be 2360     		str	r3, [r4]
 643              	.LBE92:
 644              	.LBE96:
 645              		.loc 1 315 0
 646 01c0 2146     		mov	r1, r4
 647              	.LBB97:
 648              	.LBB93:
 649              		.loc 1 100 0
 650 01c2 5C60     		str	r4, [r3, #4]
 651 01c4 1460     		str	r4, [r2]
 652              	.LBE93:
 653              	.LBE97:
 654              		.loc 1 316 0
 655 01c6 F0BC     		pop	{r4, r5, r6, r7}
 656              		.cfi_restore 7
 657              		.cfi_restore 6
 658              		.cfi_restore 5
 659              		.cfi_restore 4
 660              		.cfi_def_cfa_offset 0
 661              	.LVL41:
 662              		.loc 1 315 0
 663 01c8 FFF7FEBF 		b	_port_switch
 664              	.LVL42:
 665              	.L57:
 666              		.align	2
 667              	.L56:
 668 01cc 00000000 		.word	rlist
 669              		.cfi_endproc
 670              	.LFE14:
 671              		.size	chSchDoRescheduleBehind, .-chSchDoRescheduleBehind
 672              		.align	2
 673              		.p2align 4,,15
 674              		.global	chSchDoRescheduleAhead
 675              		.thumb
 676              		.thumb_func
 677              		.type	chSchDoRescheduleAhead, %function
ARM GAS  /tmp/cch85XqM.s 			page 13


 678              	chSchDoRescheduleAhead:
 679              	.LFB15:
 680              		.loc 1 329 0
 681              		.cfi_startproc
 682              		@ args = 0, pretend = 0, frame = 0
 683              		@ frame_needed = 0, uses_anonymous_args = 0
 684              		@ link register save eliminated.
 685              		.loc 1 332 0
 686 01d0 0D4A     		ldr	r2, .L63
 687              	.LBB98:
 688              	.LBB99:
 689              		.loc 2 60 0
 690 01d2 1068     		ldr	r0, [r2]
 691              	.LBE99:
 692              	.LBE98:
 693              		.loc 1 329 0
 694 01d4 70B4     		push	{r4, r5, r6}
 695              		.cfi_def_cfa_offset 12
 696              		.cfi_offset 4, -12
 697              		.cfi_offset 5, -8
 698              		.cfi_offset 6, -4
 699              	.LBB103:
 700              	.LBB100:
 701              		.loc 2 62 0
 702 01d6 0368     		ldr	r3, [r0]
 703              	.LBE100:
 704              	.LBE103:
 705              		.loc 1 332 0
 706 01d8 9469     		ldr	r4, [r2, #24]
 707              	.LVL43:
 708              	.LBB104:
 709              	.LBB101:
 710              		.loc 2 62 0
 711 01da 1360     		str	r3, [r2]
 712              	.LBE101:
 713              	.LBE104:
 714              		.loc 1 335 0
 715 01dc 0126     		movs	r6, #1
 716              		.loc 1 337 0
 717 01de 0025     		movs	r5, #0
 718 01e0 A168     		ldr	r1, [r4, #8]
 719              	.LBB105:
 720              	.LBB102:
 721              		.loc 2 62 0
 722 01e2 5A60     		str	r2, [r3, #4]
 723              	.LBE102:
 724              	.LBE105:
 725              		.loc 1 335 0
 726 01e4 0677     		strb	r6, [r0, #28]
 727              		.loc 1 337 0
 728 01e6 0346     		mov	r3, r0
 729              		.loc 1 334 0
 730 01e8 9061     		str	r0, [r2, #24]
 731              		.loc 1 337 0
 732 01ea 2577     		strb	r5, [r4, #28]
 733              	.LVL44:
 734 01ec 00E0     		b	.L60
ARM GAS  /tmp/cch85XqM.s 			page 14


 735              	.LVL45:
 736              	.L62:
 737 01ee 1B68     		ldr	r3, [r3]
 738              	.LVL46:
 739              	.L60:
 740              		.loc 1 341 0 discriminator 1
 741 01f0 9A68     		ldr	r2, [r3, #8]
 742 01f2 8A42     		cmp	r2, r1
 743 01f4 FBD8     		bhi	.L62
 744              		.loc 1 344 0
 745 01f6 5A68     		ldr	r2, [r3, #4]
 746 01f8 6260     		str	r2, [r4, #4]
 747              		.loc 1 343 0
 748 01fa 2360     		str	r3, [r4]
 749              		.loc 1 347 0
 750 01fc 2146     		mov	r1, r4
 751              		.loc 1 345 0
 752 01fe 5C60     		str	r4, [r3, #4]
 753 0200 1460     		str	r4, [r2]
 754              		.loc 1 348 0
 755 0202 70BC     		pop	{r4, r5, r6}
 756              		.cfi_restore 6
 757              		.cfi_restore 5
 758              		.cfi_restore 4
 759              		.cfi_def_cfa_offset 0
 760              	.LVL47:
 761              		.loc 1 347 0
 762 0204 FFF7FEBF 		b	_port_switch
 763              	.LVL48:
 764              	.L64:
 765              		.align	2
 766              	.L63:
 767 0208 00000000 		.word	rlist
 768              		.cfi_endproc
 769              	.LFE15:
 770              		.size	chSchDoRescheduleAhead, .-chSchDoRescheduleAhead
 771              		.align	2
 772 020c AFF30080 		.p2align 4,,15
 773              		.global	chSchRescheduleS
 774              		.thumb
 775              		.thumb_func
 776              		.type	chSchRescheduleS, %function
 777              	chSchRescheduleS:
 778              	.LFB13:
 779              		.loc 1 253 0
 780              		.cfi_startproc
 781              		@ args = 0, pretend = 0, frame = 0
 782              		@ frame_needed = 0, uses_anonymous_args = 0
 783              		@ link register save eliminated.
 784              		.loc 1 257 0
 785 0210 044B     		ldr	r3, .L68
 786 0212 1A68     		ldr	r2, [r3]
 787 0214 9B69     		ldr	r3, [r3, #24]
 788 0216 9268     		ldr	r2, [r2, #8]
 789 0218 9B68     		ldr	r3, [r3, #8]
 790 021a 9A42     		cmp	r2, r3
 791 021c 00D8     		bhi	.L67
ARM GAS  /tmp/cch85XqM.s 			page 15


 792 021e 7047     		bx	lr
 793              	.L67:
 794              		.loc 1 258 0
 795 0220 FFF7FEBF 		b	chSchDoRescheduleAhead
 796              	.LVL49:
 797              	.L69:
 798              		.align	2
 799              	.L68:
 800 0224 00000000 		.word	rlist
 801              		.cfi_endproc
 802              	.LFE13:
 803              		.size	chSchRescheduleS, .-chSchRescheduleS
 804              		.align	2
 805 0228 AFF30080 		.p2align 4,,15
 805      AFF30080 
 806              		.global	chSchDoReschedule
 807              		.thumb
 808              		.thumb_func
 809              		.type	chSchDoReschedule, %function
 810              	chSchDoReschedule:
 811              	.LFB16:
 812              		.loc 1 362 0
 813              		.cfi_startproc
 814              		@ args = 0, pretend = 0, frame = 0
 815              		@ frame_needed = 0, uses_anonymous_args = 0
 816              		@ link register save eliminated.
 817              		.loc 1 367 0
 818 0230 034B     		ldr	r3, .L73
 819 0232 9B69     		ldr	r3, [r3, #24]
 820 0234 9B7F     		ldrb	r3, [r3, #30]	@ zero_extendqisi2
 821 0236 0BB1     		cbz	r3, .L72
 822              		.loc 1 375 0
 823 0238 FFF7FEBF 		b	chSchDoRescheduleAhead
 824              	.LVL50:
 825              	.L72:
 826              		.loc 1 370 0
 827 023c FFF7FEBF 		b	chSchDoRescheduleBehind
 828              	.LVL51:
 829              	.L74:
 830              		.align	2
 831              	.L73:
 832 0240 00000000 		.word	rlist
 833              		.cfi_endproc
 834              	.LFE16:
 835              		.size	chSchDoReschedule, .-chSchDoReschedule
 836              		.comm	rlist,28,4
 837              	.Letext0:
 838              		.file 3 "/d_drive/axoloti/platform_linux/arm-none-eabi/include/machine/_default_types.h"
 839              		.file 4 "/d_drive/axoloti/platform_linux/arm-none-eabi/include/sys/_stdint.h"
 840              		.file 5 "/d_drive/axoloti/platform_linux/../chibios/os/ports/GCC/ARMCMx/chtypes.h"
 841              		.file 6 "/d_drive/axoloti/platform_linux/../chibios/os/kernel/include/chlists.h"
 842              		.file 7 "/d_drive/axoloti/platform_linux/../chibios/os/kernel/include/chthreads.h"
 843              		.file 8 "/d_drive/axoloti/platform_linux/../chibios/os/ports/GCC/ARMCMx/chcore_v7m.h"
 844              		.file 9 "/d_drive/axoloti/platform_linux/../chibios/os/kernel/include/chvt.h"
 845              		.file 10 "/d_drive/axoloti/platform_linux/../chibios/os/kernel/include/chschd.h"
 846              		.file 11 "/d_drive/axoloti/platform_linux/../chibios/os/kernel/include/chsem.h"
 847              		.file 12 "/d_drive/axoloti/platform_linux/../chibios/os/kernel/include/chmtx.h"
ARM GAS  /tmp/cch85XqM.s 			page 16


 848              		.section	.debug_info,"",%progbits
 849              	.Ldebug_info0:
 850 0000 610A0000 		.4byte	0xa61
 851 0004 0400     		.2byte	0x4
 852 0006 00000000 		.4byte	.Ldebug_abbrev0
 853 000a 04       		.byte	0x4
 854 000b 01       		.uleb128 0x1
 855 000c 5E030000 		.4byte	.LASF85
 856 0010 01       		.byte	0x1
 857 0011 6C040000 		.4byte	.LASF86
 858 0015 00000000 		.4byte	.Ltext0
 859 0019 44020000 		.4byte	.Letext0-.Ltext0
 860 001d 00000000 		.4byte	.Ldebug_line0
 861 0021 02       		.uleb128 0x2
 862 0022 04       		.byte	0x4
 863 0023 05       		.byte	0x5
 864 0024 696E7400 		.ascii	"int\000"
 865 0028 03       		.uleb128 0x3
 866 0029 04       		.byte	0x4
 867 002a 07       		.byte	0x7
 868 002b F8000000 		.4byte	.LASF0
 869 002f 03       		.uleb128 0x3
 870 0030 01       		.byte	0x1
 871 0031 06       		.byte	0x6
 872 0032 6A000000 		.4byte	.LASF1
 873 0036 04       		.uleb128 0x4
 874 0037 24000000 		.4byte	.LASF5
 875 003b 03       		.byte	0x3
 876 003c 1D       		.byte	0x1d
 877 003d 41000000 		.4byte	0x41
 878 0041 03       		.uleb128 0x3
 879 0042 01       		.byte	0x1
 880 0043 08       		.byte	0x8
 881 0044 2F020000 		.4byte	.LASF2
 882 0048 03       		.uleb128 0x3
 883 0049 02       		.byte	0x2
 884 004a 05       		.byte	0x5
 885 004b 50020000 		.4byte	.LASF3
 886 004f 03       		.uleb128 0x3
 887 0050 02       		.byte	0x2
 888 0051 07       		.byte	0x7
 889 0052 4F010000 		.4byte	.LASF4
 890 0056 04       		.uleb128 0x4
 891 0057 FE020000 		.4byte	.LASF6
 892 005b 03       		.byte	0x3
 893 005c 3F       		.byte	0x3f
 894 005d 61000000 		.4byte	0x61
 895 0061 03       		.uleb128 0x3
 896 0062 04       		.byte	0x4
 897 0063 05       		.byte	0x5
 898 0064 88000000 		.4byte	.LASF7
 899 0068 04       		.uleb128 0x4
 900 0069 C4000000 		.4byte	.LASF8
 901 006d 03       		.byte	0x3
 902 006e 41       		.byte	0x41
 903 006f 73000000 		.4byte	0x73
 904 0073 03       		.uleb128 0x3
ARM GAS  /tmp/cch85XqM.s 			page 17


 905 0074 04       		.byte	0x4
 906 0075 07       		.byte	0x7
 907 0076 21010000 		.4byte	.LASF9
 908 007a 03       		.uleb128 0x3
 909 007b 08       		.byte	0x8
 910 007c 05       		.byte	0x5
 911 007d 5C000000 		.4byte	.LASF10
 912 0081 03       		.uleb128 0x3
 913 0082 08       		.byte	0x8
 914 0083 07       		.byte	0x7
 915 0084 2E000000 		.4byte	.LASF11
 916 0088 04       		.uleb128 0x4
 917 0089 4F030000 		.4byte	.LASF12
 918 008d 04       		.byte	0x4
 919 008e 14       		.byte	0x14
 920 008f 36000000 		.4byte	0x36
 921 0093 04       		.uleb128 0x4
 922 0094 27020000 		.4byte	.LASF13
 923 0098 04       		.byte	0x4
 924 0099 1F       		.byte	0x1f
 925 009a 56000000 		.4byte	0x56
 926 009e 04       		.uleb128 0x4
 927 009f B4020000 		.4byte	.LASF14
 928 00a3 04       		.byte	0x4
 929 00a4 20       		.byte	0x20
 930 00a5 68000000 		.4byte	0x68
 931 00a9 03       		.uleb128 0x3
 932 00aa 01       		.byte	0x1
 933 00ab 02       		.byte	0x2
 934 00ac 21020000 		.4byte	.LASF15
 935 00b0 04       		.uleb128 0x4
 936 00b1 7D010000 		.4byte	.LASF16
 937 00b5 05       		.byte	0x5
 938 00b6 2C       		.byte	0x2c
 939 00b7 88000000 		.4byte	0x88
 940 00bb 04       		.uleb128 0x4
 941 00bc 91000000 		.4byte	.LASF17
 942 00c0 05       		.byte	0x5
 943 00c1 2D       		.byte	0x2d
 944 00c2 88000000 		.4byte	0x88
 945 00c6 04       		.uleb128 0x4
 946 00c7 7E000000 		.4byte	.LASF18
 947 00cb 05       		.byte	0x5
 948 00cc 2F       		.byte	0x2f
 949 00cd 88000000 		.4byte	0x88
 950 00d1 04       		.uleb128 0x4
 951 00d2 19020000 		.4byte	.LASF19
 952 00d6 05       		.byte	0x5
 953 00d7 30       		.byte	0x30
 954 00d8 9E000000 		.4byte	0x9e
 955 00dc 04       		.uleb128 0x4
 956 00dd 6F010000 		.4byte	.LASF20
 957 00e1 05       		.byte	0x5
 958 00e2 31       		.byte	0x31
 959 00e3 93000000 		.4byte	0x93
 960 00e7 04       		.uleb128 0x4
 961 00e8 91010000 		.4byte	.LASF21
ARM GAS  /tmp/cch85XqM.s 			page 18


 962 00ec 05       		.byte	0x5
 963 00ed 33       		.byte	0x33
 964 00ee 9E000000 		.4byte	0x9e
 965 00f2 04       		.uleb128 0x4
 966 00f3 E9020000 		.4byte	.LASF22
 967 00f7 05       		.byte	0x5
 968 00f8 35       		.byte	0x35
 969 00f9 9E000000 		.4byte	0x9e
 970 00fd 04       		.uleb128 0x4
 971 00fe F2000000 		.4byte	.LASF23
 972 0102 05       		.byte	0x5
 973 0103 36       		.byte	0x36
 974 0104 93000000 		.4byte	0x93
 975 0108 04       		.uleb128 0x4
 976 0109 89020000 		.4byte	.LASF24
 977 010d 06       		.byte	0x6
 978 010e 2A       		.byte	0x2a
 979 010f 13010000 		.4byte	0x113
 980 0113 05       		.uleb128 0x5
 981 0114 89020000 		.4byte	.LASF24
 982 0118 40       		.byte	0x40
 983 0119 07       		.byte	0x7
 984 011a 5E       		.byte	0x5e
 985 011b EC010000 		.4byte	0x1ec
 986 011f 06       		.uleb128 0x6
 987 0120 7A020000 		.4byte	.LASF25
 988 0124 07       		.byte	0x7
 989 0125 5F       		.byte	0x5f
 990 0126 0D020000 		.4byte	0x20d
 991 012a 00       		.byte	0
 992 012b 06       		.uleb128 0x6
 993 012c 12020000 		.4byte	.LASF26
 994 0130 07       		.byte	0x7
 995 0131 61       		.byte	0x61
 996 0132 0D020000 		.4byte	0x20d
 997 0136 04       		.byte	0x4
 998 0137 06       		.uleb128 0x6
 999 0138 45000000 		.4byte	.LASF27
 1000 013c 07       		.byte	0x7
 1001 013d 63       		.byte	0x63
 1002 013e D1000000 		.4byte	0xd1
 1003 0142 08       		.byte	0x8
 1004 0143 06       		.uleb128 0x6
 1005 0144 B6040000 		.4byte	.LASF28
 1006 0148 07       		.byte	0x7
 1007 0149 64       		.byte	0x64
 1008 014a 97030000 		.4byte	0x397
 1009 014e 0C       		.byte	0xc
 1010 014f 06       		.uleb128 0x6
 1011 0150 9A000000 		.4byte	.LASF29
 1012 0154 07       		.byte	0x7
 1013 0155 66       		.byte	0x66
 1014 0156 0D020000 		.4byte	0x20d
 1015 015a 10       		.byte	0x10
 1016 015b 06       		.uleb128 0x6
 1017 015c DD010000 		.4byte	.LASF30
 1018 0160 07       		.byte	0x7
ARM GAS  /tmp/cch85XqM.s 			page 19


 1019 0161 67       		.byte	0x67
 1020 0162 0D020000 		.4byte	0x20d
 1021 0166 14       		.byte	0x14
 1022 0167 06       		.uleb128 0x6
 1023 0168 38030000 		.4byte	.LASF31
 1024 016c 07       		.byte	0x7
 1025 016d 6E       		.byte	0x6e
 1026 016e 38050000 		.4byte	0x538
 1027 0172 18       		.byte	0x18
 1028 0173 06       		.uleb128 0x6
 1029 0174 5A020000 		.4byte	.LASF32
 1030 0178 07       		.byte	0x7
 1031 0179 79       		.byte	0x79
 1032 017a BB000000 		.4byte	0xbb
 1033 017e 1C       		.byte	0x1c
 1034 017f 06       		.uleb128 0x6
 1035 0180 81020000 		.4byte	.LASF33
 1036 0184 07       		.byte	0x7
 1037 0185 7D       		.byte	0x7d
 1038 0186 B0000000 		.4byte	0xb0
 1039 018a 1D       		.byte	0x1d
 1040 018b 06       		.uleb128 0x6
 1041 018c 62020000 		.4byte	.LASF34
 1042 0190 07       		.byte	0x7
 1043 0191 88       		.byte	0x88
 1044 0192 C6000000 		.4byte	0xc6
 1045 0196 1E       		.byte	0x1e
 1046 0197 07       		.uleb128 0x7
 1047 0198 705F7500 		.ascii	"p_u\000"
 1048 019c 07       		.byte	0x7
 1049 019d B4       		.byte	0xb4
 1050 019e 03050000 		.4byte	0x503
 1051 01a2 20       		.byte	0x20
 1052 01a3 06       		.uleb128 0x6
 1053 01a4 BC040000 		.4byte	.LASF35
 1054 01a8 07       		.byte	0x7
 1055 01a9 B9       		.byte	0xb9
 1056 01aa 33020000 		.4byte	0x233
 1057 01ae 24       		.byte	0x24
 1058 01af 06       		.uleb128 0x6
 1059 01b0 17030000 		.4byte	.LASF36
 1060 01b4 07       		.byte	0x7
 1061 01b5 BF       		.byte	0xbf
 1062 01b6 13020000 		.4byte	0x213
 1063 01ba 28       		.byte	0x28
 1064 01bb 06       		.uleb128 0x6
 1065 01bc 00000000 		.4byte	.LASF37
 1066 01c0 07       		.byte	0x7
 1067 01c1 C3       		.byte	0xc3
 1068 01c2 DC000000 		.4byte	0xdc
 1069 01c6 30       		.byte	0x30
 1070 01c7 06       		.uleb128 0x6
 1071 01c8 A9020000 		.4byte	.LASF38
 1072 01cc 07       		.byte	0x7
 1073 01cd C9       		.byte	0xc9
 1074 01ce E7000000 		.4byte	0xe7
 1075 01d2 34       		.byte	0x34
ARM GAS  /tmp/cch85XqM.s 			page 20


 1076 01d3 06       		.uleb128 0x6
 1077 01d4 46020000 		.4byte	.LASF39
 1078 01d8 07       		.byte	0x7
 1079 01d9 D0       		.byte	0xd0
 1080 01da 4A050000 		.4byte	0x54a
 1081 01de 38       		.byte	0x38
 1082 01df 06       		.uleb128 0x6
 1083 01e0 F3020000 		.4byte	.LASF40
 1084 01e4 07       		.byte	0x7
 1085 01e5 D4       		.byte	0xd4
 1086 01e6 D1000000 		.4byte	0xd1
 1087 01ea 3C       		.byte	0x3c
 1088 01eb 00       		.byte	0
 1089 01ec 08       		.uleb128 0x8
 1090 01ed 08       		.byte	0x8
 1091 01ee 06       		.byte	0x6
 1092 01ef 61       		.byte	0x61
 1093 01f0 0D020000 		.4byte	0x20d
 1094 01f4 06       		.uleb128 0x6
 1095 01f5 7A020000 		.4byte	.LASF25
 1096 01f9 06       		.byte	0x6
 1097 01fa 62       		.byte	0x62
 1098 01fb 0D020000 		.4byte	0x20d
 1099 01ff 00       		.byte	0
 1100 0200 06       		.uleb128 0x6
 1101 0201 12020000 		.4byte	.LASF26
 1102 0205 06       		.byte	0x6
 1103 0206 64       		.byte	0x64
 1104 0207 0D020000 		.4byte	0x20d
 1105 020b 04       		.byte	0x4
 1106 020c 00       		.byte	0
 1107 020d 09       		.uleb128 0x9
 1108 020e 04       		.byte	0x4
 1109 020f 08010000 		.4byte	0x108
 1110 0213 04       		.uleb128 0x4
 1111 0214 EB010000 		.4byte	.LASF41
 1112 0218 06       		.byte	0x6
 1113 0219 66       		.byte	0x66
 1114 021a EC010000 		.4byte	0x1ec
 1115 021e 08       		.uleb128 0x8
 1116 021f 04       		.byte	0x4
 1117 0220 06       		.byte	0x6
 1118 0221 6B       		.byte	0x6b
 1119 0222 33020000 		.4byte	0x233
 1120 0226 06       		.uleb128 0x6
 1121 0227 7A020000 		.4byte	.LASF25
 1122 022b 06       		.byte	0x6
 1123 022c 6D       		.byte	0x6d
 1124 022d 0D020000 		.4byte	0x20d
 1125 0231 00       		.byte	0
 1126 0232 00       		.byte	0
 1127 0233 04       		.uleb128 0x4
 1128 0234 85010000 		.4byte	.LASF42
 1129 0238 06       		.byte	0x6
 1130 0239 70       		.byte	0x70
 1131 023a 1E020000 		.4byte	0x21e
 1132 023e 04       		.uleb128 0x4
ARM GAS  /tmp/cch85XqM.s 			page 21


 1133 023f CF000000 		.4byte	.LASF43
 1134 0243 08       		.byte	0x8
 1135 0244 E5       		.byte	0xe5
 1136 0245 49020000 		.4byte	0x249
 1137 0249 0A       		.uleb128 0xa
 1138 024a 04       		.byte	0x4
 1139 024b 0B       		.uleb128 0xb
 1140 024c 10030000 		.4byte	.LASF44
 1141 0250 64       		.byte	0x64
 1142 0251 08       		.byte	0x8
 1143 0252 0C01     		.2byte	0x10c
 1144 0254 97030000 		.4byte	0x397
 1145 0258 0C       		.uleb128 0xc
 1146 0259 73313600 		.ascii	"s16\000"
 1147 025d 08       		.byte	0x8
 1148 025e 0E01     		.2byte	0x10e
 1149 0260 3E020000 		.4byte	0x23e
 1150 0264 00       		.byte	0
 1151 0265 0C       		.uleb128 0xc
 1152 0266 73313700 		.ascii	"s17\000"
 1153 026a 08       		.byte	0x8
 1154 026b 0F01     		.2byte	0x10f
 1155 026d 3E020000 		.4byte	0x23e
 1156 0271 04       		.byte	0x4
 1157 0272 0C       		.uleb128 0xc
 1158 0273 73313800 		.ascii	"s18\000"
 1159 0277 08       		.byte	0x8
 1160 0278 1001     		.2byte	0x110
 1161 027a 3E020000 		.4byte	0x23e
 1162 027e 08       		.byte	0x8
 1163 027f 0C       		.uleb128 0xc
 1164 0280 73313900 		.ascii	"s19\000"
 1165 0284 08       		.byte	0x8
 1166 0285 1101     		.2byte	0x111
 1167 0287 3E020000 		.4byte	0x23e
 1168 028b 0C       		.byte	0xc
 1169 028c 0C       		.uleb128 0xc
 1170 028d 73323000 		.ascii	"s20\000"
 1171 0291 08       		.byte	0x8
 1172 0292 1201     		.2byte	0x112
 1173 0294 3E020000 		.4byte	0x23e
 1174 0298 10       		.byte	0x10
 1175 0299 0C       		.uleb128 0xc
 1176 029a 73323100 		.ascii	"s21\000"
 1177 029e 08       		.byte	0x8
 1178 029f 1301     		.2byte	0x113
 1179 02a1 3E020000 		.4byte	0x23e
 1180 02a5 14       		.byte	0x14
 1181 02a6 0C       		.uleb128 0xc
 1182 02a7 73323200 		.ascii	"s22\000"
 1183 02ab 08       		.byte	0x8
 1184 02ac 1401     		.2byte	0x114
 1185 02ae 3E020000 		.4byte	0x23e
 1186 02b2 18       		.byte	0x18
 1187 02b3 0C       		.uleb128 0xc
 1188 02b4 73323300 		.ascii	"s23\000"
 1189 02b8 08       		.byte	0x8
ARM GAS  /tmp/cch85XqM.s 			page 22


 1190 02b9 1501     		.2byte	0x115
 1191 02bb 3E020000 		.4byte	0x23e
 1192 02bf 1C       		.byte	0x1c
 1193 02c0 0C       		.uleb128 0xc
 1194 02c1 73323400 		.ascii	"s24\000"
 1195 02c5 08       		.byte	0x8
 1196 02c6 1601     		.2byte	0x116
 1197 02c8 3E020000 		.4byte	0x23e
 1198 02cc 20       		.byte	0x20
 1199 02cd 0C       		.uleb128 0xc
 1200 02ce 73323500 		.ascii	"s25\000"
 1201 02d2 08       		.byte	0x8
 1202 02d3 1701     		.2byte	0x117
 1203 02d5 3E020000 		.4byte	0x23e
 1204 02d9 24       		.byte	0x24
 1205 02da 0C       		.uleb128 0xc
 1206 02db 73323600 		.ascii	"s26\000"
 1207 02df 08       		.byte	0x8
 1208 02e0 1801     		.2byte	0x118
 1209 02e2 3E020000 		.4byte	0x23e
 1210 02e6 28       		.byte	0x28
 1211 02e7 0C       		.uleb128 0xc
 1212 02e8 73323700 		.ascii	"s27\000"
 1213 02ec 08       		.byte	0x8
 1214 02ed 1901     		.2byte	0x119
 1215 02ef 3E020000 		.4byte	0x23e
 1216 02f3 2C       		.byte	0x2c
 1217 02f4 0C       		.uleb128 0xc
 1218 02f5 73323800 		.ascii	"s28\000"
 1219 02f9 08       		.byte	0x8
 1220 02fa 1A01     		.2byte	0x11a
 1221 02fc 3E020000 		.4byte	0x23e
 1222 0300 30       		.byte	0x30
 1223 0301 0C       		.uleb128 0xc
 1224 0302 73323900 		.ascii	"s29\000"
 1225 0306 08       		.byte	0x8
 1226 0307 1B01     		.2byte	0x11b
 1227 0309 3E020000 		.4byte	0x23e
 1228 030d 34       		.byte	0x34
 1229 030e 0C       		.uleb128 0xc
 1230 030f 73333000 		.ascii	"s30\000"
 1231 0313 08       		.byte	0x8
 1232 0314 1C01     		.2byte	0x11c
 1233 0316 3E020000 		.4byte	0x23e
 1234 031a 38       		.byte	0x38
 1235 031b 0C       		.uleb128 0xc
 1236 031c 73333100 		.ascii	"s31\000"
 1237 0320 08       		.byte	0x8
 1238 0321 1D01     		.2byte	0x11d
 1239 0323 3E020000 		.4byte	0x23e
 1240 0327 3C       		.byte	0x3c
 1241 0328 0C       		.uleb128 0xc
 1242 0329 723400   		.ascii	"r4\000"
 1243 032c 08       		.byte	0x8
 1244 032d 1F01     		.2byte	0x11f
 1245 032f 3E020000 		.4byte	0x23e
 1246 0333 40       		.byte	0x40
ARM GAS  /tmp/cch85XqM.s 			page 23


 1247 0334 0C       		.uleb128 0xc
 1248 0335 723500   		.ascii	"r5\000"
 1249 0338 08       		.byte	0x8
 1250 0339 2001     		.2byte	0x120
 1251 033b 3E020000 		.4byte	0x23e
 1252 033f 44       		.byte	0x44
 1253 0340 0C       		.uleb128 0xc
 1254 0341 723600   		.ascii	"r6\000"
 1255 0344 08       		.byte	0x8
 1256 0345 2101     		.2byte	0x121
 1257 0347 3E020000 		.4byte	0x23e
 1258 034b 48       		.byte	0x48
 1259 034c 0C       		.uleb128 0xc
 1260 034d 723700   		.ascii	"r7\000"
 1261 0350 08       		.byte	0x8
 1262 0351 2201     		.2byte	0x122
 1263 0353 3E020000 		.4byte	0x23e
 1264 0357 4C       		.byte	0x4c
 1265 0358 0C       		.uleb128 0xc
 1266 0359 723800   		.ascii	"r8\000"
 1267 035c 08       		.byte	0x8
 1268 035d 2301     		.2byte	0x123
 1269 035f 3E020000 		.4byte	0x23e
 1270 0363 50       		.byte	0x50
 1271 0364 0C       		.uleb128 0xc
 1272 0365 723900   		.ascii	"r9\000"
 1273 0368 08       		.byte	0x8
 1274 0369 2401     		.2byte	0x124
 1275 036b 3E020000 		.4byte	0x23e
 1276 036f 54       		.byte	0x54
 1277 0370 0C       		.uleb128 0xc
 1278 0371 72313000 		.ascii	"r10\000"
 1279 0375 08       		.byte	0x8
 1280 0376 2501     		.2byte	0x125
 1281 0378 3E020000 		.4byte	0x23e
 1282 037c 58       		.byte	0x58
 1283 037d 0C       		.uleb128 0xc
 1284 037e 72313100 		.ascii	"r11\000"
 1285 0382 08       		.byte	0x8
 1286 0383 2601     		.2byte	0x126
 1287 0385 3E020000 		.4byte	0x23e
 1288 0389 5C       		.byte	0x5c
 1289 038a 0C       		.uleb128 0xc
 1290 038b 6C7200   		.ascii	"lr\000"
 1291 038e 08       		.byte	0x8
 1292 038f 2701     		.2byte	0x127
 1293 0391 3E020000 		.4byte	0x23e
 1294 0395 60       		.byte	0x60
 1295 0396 00       		.byte	0
 1296 0397 0B       		.uleb128 0xb
 1297 0398 08030000 		.4byte	.LASF45
 1298 039c 04       		.byte	0x4
 1299 039d 08       		.byte	0x8
 1300 039e 3101     		.2byte	0x131
 1301 03a0 B2030000 		.4byte	0x3b2
 1302 03a4 0C       		.uleb128 0xc
 1303 03a5 72313300 		.ascii	"r13\000"
ARM GAS  /tmp/cch85XqM.s 			page 24


 1304 03a9 08       		.byte	0x8
 1305 03aa 3201     		.2byte	0x132
 1306 03ac B2030000 		.4byte	0x3b2
 1307 03b0 00       		.byte	0
 1308 03b1 00       		.byte	0
 1309 03b2 09       		.uleb128 0x9
 1310 03b3 04       		.byte	0x4
 1311 03b4 4B020000 		.4byte	0x24b
 1312 03b8 03       		.uleb128 0x3
 1313 03b9 04       		.byte	0x4
 1314 03ba 07       		.byte	0x7
 1315 03bb AB010000 		.4byte	.LASF46
 1316 03bf 04       		.uleb128 0x4
 1317 03c0 33010000 		.4byte	.LASF47
 1318 03c4 09       		.byte	0x9
 1319 03c5 58       		.byte	0x58
 1320 03c6 CA030000 		.4byte	0x3ca
 1321 03ca 09       		.uleb128 0x9
 1322 03cb 04       		.byte	0x4
 1323 03cc D0030000 		.4byte	0x3d0
 1324 03d0 0D       		.uleb128 0xd
 1325 03d1 DB030000 		.4byte	0x3db
 1326 03d5 0E       		.uleb128 0xe
 1327 03d6 49020000 		.4byte	0x249
 1328 03da 00       		.byte	0
 1329 03db 04       		.uleb128 0x4
 1330 03dc 3C010000 		.4byte	.LASF48
 1331 03e0 09       		.byte	0x9
 1332 03e1 5D       		.byte	0x5d
 1333 03e2 E6030000 		.4byte	0x3e6
 1334 03e6 05       		.uleb128 0x5
 1335 03e7 3C010000 		.4byte	.LASF48
 1336 03eb 14       		.byte	0x14
 1337 03ec 09       		.byte	0x9
 1338 03ed 64       		.byte	0x64
 1339 03ee 2F040000 		.4byte	0x42f
 1340 03f2 06       		.uleb128 0x6
 1341 03f3 0C010000 		.4byte	.LASF49
 1342 03f7 09       		.byte	0x9
 1343 03f8 65       		.byte	0x65
 1344 03f9 2F040000 		.4byte	0x42f
 1345 03fd 00       		.byte	0
 1346 03fe 06       		.uleb128 0x6
 1347 03ff D8000000 		.4byte	.LASF50
 1348 0403 09       		.byte	0x9
 1349 0404 67       		.byte	0x67
 1350 0405 2F040000 		.4byte	0x42f
 1351 0409 04       		.byte	0x4
 1352 040a 06       		.uleb128 0x6
 1353 040b A3010000 		.4byte	.LASF51
 1354 040f 09       		.byte	0x9
 1355 0410 69       		.byte	0x69
 1356 0411 F2000000 		.4byte	0xf2
 1357 0415 08       		.byte	0x8
 1358 0416 06       		.uleb128 0x6
 1359 0417 B4010000 		.4byte	.LASF52
 1360 041b 09       		.byte	0x9
ARM GAS  /tmp/cch85XqM.s 			page 25


 1361 041c 6A       		.byte	0x6a
 1362 041d BF030000 		.4byte	0x3bf
 1363 0421 0C       		.byte	0xc
 1364 0422 06       		.uleb128 0x6
 1365 0423 27030000 		.4byte	.LASF53
 1366 0427 09       		.byte	0x9
 1367 0428 6C       		.byte	0x6c
 1368 0429 49020000 		.4byte	0x249
 1369 042d 10       		.byte	0x10
 1370 042e 00       		.byte	0
 1371 042f 09       		.uleb128 0x9
 1372 0430 04       		.byte	0x4
 1373 0431 DB030000 		.4byte	0x3db
 1374 0435 08       		.uleb128 0x8
 1375 0436 1C       		.byte	0x1c
 1376 0437 0A       		.byte	0xa
 1377 0438 5E       		.byte	0x5e
 1378 0439 86040000 		.4byte	0x486
 1379 043d 06       		.uleb128 0x6
 1380 043e BD020000 		.4byte	.LASF54
 1381 0442 0A       		.byte	0xa
 1382 0443 5F       		.byte	0x5f
 1383 0444 13020000 		.4byte	0x213
 1384 0448 00       		.byte	0
 1385 0449 06       		.uleb128 0x6
 1386 044a 6C020000 		.4byte	.LASF55
 1387 044e 0A       		.byte	0xa
 1388 044f 60       		.byte	0x60
 1389 0450 D1000000 		.4byte	0xd1
 1390 0454 08       		.byte	0x8
 1391 0455 06       		.uleb128 0x6
 1392 0456 E5010000 		.4byte	.LASF56
 1393 045a 0A       		.byte	0xa
 1394 045b 62       		.byte	0x62
 1395 045c 97030000 		.4byte	0x397
 1396 0460 0C       		.byte	0xc
 1397 0461 06       		.uleb128 0x6
 1398 0462 75010000 		.4byte	.LASF57
 1399 0466 0A       		.byte	0xa
 1400 0467 65       		.byte	0x65
 1401 0468 0D020000 		.4byte	0x20d
 1402 046c 10       		.byte	0x10
 1403 046d 06       		.uleb128 0x6
 1404 046e 0A020000 		.4byte	.LASF58
 1405 0472 0A       		.byte	0xa
 1406 0473 66       		.byte	0x66
 1407 0474 0D020000 		.4byte	0x20d
 1408 0478 14       		.byte	0x14
 1409 0479 06       		.uleb128 0x6
 1410 047a 00020000 		.4byte	.LASF59
 1411 047e 0A       		.byte	0xa
 1412 047f 69       		.byte	0x69
 1413 0480 0D020000 		.4byte	0x20d
 1414 0484 18       		.byte	0x18
 1415 0485 00       		.byte	0
 1416 0486 04       		.uleb128 0x4
 1417 0487 3F030000 		.4byte	.LASF60
ARM GAS  /tmp/cch85XqM.s 			page 26


 1418 048b 0A       		.byte	0xa
 1419 048c 6B       		.byte	0x6b
 1420 048d 35040000 		.4byte	0x435
 1421 0491 05       		.uleb128 0x5
 1422 0492 2E030000 		.4byte	.LASF61
 1423 0496 0C       		.byte	0xc
 1424 0497 0B       		.byte	0xb
 1425 0498 2C       		.byte	0x2c
 1426 0499 B6040000 		.4byte	0x4b6
 1427 049d 06       		.uleb128 0x6
 1428 049e A2000000 		.4byte	.LASF62
 1429 04a2 0B       		.byte	0xb
 1430 04a3 2D       		.byte	0x2d
 1431 04a4 13020000 		.4byte	0x213
 1432 04a8 00       		.byte	0
 1433 04a9 06       		.uleb128 0x6
 1434 04aa 49010000 		.4byte	.LASF63
 1435 04ae 0B       		.byte	0xb
 1436 04af 2F       		.byte	0x2f
 1437 04b0 FD000000 		.4byte	0xfd
 1438 04b4 08       		.byte	0x8
 1439 04b5 00       		.byte	0
 1440 04b6 04       		.uleb128 0x4
 1441 04b7 2E030000 		.4byte	.LASF61
 1442 04bb 0B       		.byte	0xb
 1443 04bc 30       		.byte	0x30
 1444 04bd 91040000 		.4byte	0x491
 1445 04c1 05       		.uleb128 0x5
 1446 04c2 9D010000 		.4byte	.LASF64
 1447 04c6 10       		.byte	0x10
 1448 04c7 0C       		.byte	0xc
 1449 04c8 2C       		.byte	0x2c
 1450 04c9 F2040000 		.4byte	0x4f2
 1451 04cd 06       		.uleb128 0x6
 1452 04ce 76000000 		.4byte	.LASF65
 1453 04d2 0C       		.byte	0xc
 1454 04d3 2D       		.byte	0x2d
 1455 04d4 13020000 		.4byte	0x213
 1456 04d8 00       		.byte	0
 1457 04d9 06       		.uleb128 0x6
 1458 04da AE040000 		.4byte	.LASF66
 1459 04de 0C       		.byte	0xc
 1460 04df 2F       		.byte	0x2f
 1461 04e0 0D020000 		.4byte	0x20d
 1462 04e4 08       		.byte	0x8
 1463 04e5 06       		.uleb128 0x6
 1464 04e6 E2020000 		.4byte	.LASF67
 1465 04ea 0C       		.byte	0xc
 1466 04eb 31       		.byte	0x31
 1467 04ec F2040000 		.4byte	0x4f2
 1468 04f0 0C       		.byte	0xc
 1469 04f1 00       		.byte	0
 1470 04f2 09       		.uleb128 0x9
 1471 04f3 04       		.byte	0x4
 1472 04f4 C1040000 		.4byte	0x4c1
 1473 04f8 04       		.uleb128 0x4
 1474 04f9 9D010000 		.4byte	.LASF64
ARM GAS  /tmp/cch85XqM.s 			page 27


 1475 04fd 0C       		.byte	0xc
 1476 04fe 33       		.byte	0x33
 1477 04ff C1040000 		.4byte	0x4c1
 1478 0503 0F       		.uleb128 0xf
 1479 0504 04       		.byte	0x4
 1480 0505 07       		.byte	0x7
 1481 0506 96       		.byte	0x96
 1482 0507 38050000 		.4byte	0x538
 1483 050b 10       		.uleb128 0x10
 1484 050c 06000000 		.4byte	.LASF68
 1485 0510 07       		.byte	0x7
 1486 0511 9D       		.byte	0x9d
 1487 0512 DC000000 		.4byte	0xdc
 1488 0516 10       		.uleb128 0x10
 1489 0517 AA000000 		.4byte	.LASF69
 1490 051b 07       		.byte	0x7
 1491 051c A4       		.byte	0xa4
 1492 051d DC000000 		.4byte	0xdc
 1493 0521 10       		.uleb128 0x10
 1494 0522 57030000 		.4byte	.LASF70
 1495 0526 07       		.byte	0x7
 1496 0527 AB       		.byte	0xab
 1497 0528 49020000 		.4byte	0x249
 1498 052c 10       		.uleb128 0x10
 1499 052d 73020000 		.4byte	.LASF71
 1500 0531 07       		.byte	0x7
 1501 0532 B2       		.byte	0xb2
 1502 0533 E7000000 		.4byte	0xe7
 1503 0537 00       		.byte	0
 1504 0538 09       		.uleb128 0x9
 1505 0539 04       		.byte	0x4
 1506 053a 3E050000 		.4byte	0x53e
 1507 053e 11       		.uleb128 0x11
 1508 053f 43050000 		.4byte	0x543
 1509 0543 03       		.uleb128 0x3
 1510 0544 01       		.byte	0x1
 1511 0545 08       		.byte	0x8
 1512 0546 C5020000 		.4byte	.LASF72
 1513 054a 09       		.uleb128 0x9
 1514 054b 04       		.byte	0x4
 1515 054c F8040000 		.4byte	0x4f8
 1516 0550 12       		.uleb128 0x12
 1517 0551 F8010000 		.4byte	.LASF73
 1518 0555 02       		.byte	0x2
 1519 0556 49       		.byte	0x49
 1520 0557 0D020000 		.4byte	0x20d
 1521 055b 03       		.byte	0x3
 1522 055c 6B050000 		.4byte	0x56b
 1523 0560 13       		.uleb128 0x13
 1524 0561 747000   		.ascii	"tp\000"
 1525 0564 02       		.byte	0x2
 1526 0565 49       		.byte	0x49
 1527 0566 0D020000 		.4byte	0x20d
 1528 056a 00       		.byte	0
 1529 056b 14       		.uleb128 0x14
 1530 056c D6020000 		.4byte	.LASF87
 1531 0570 01       		.byte	0x1
ARM GAS  /tmp/cch85XqM.s 			page 28


 1532 0571 51       		.byte	0x51
 1533 0572 0D020000 		.4byte	0x20d
 1534 0576 01       		.byte	0x1
 1535 0577 90050000 		.4byte	0x590
 1536 057b 13       		.uleb128 0x13
 1537 057c 747000   		.ascii	"tp\000"
 1538 057f 01       		.byte	0x1
 1539 0580 51       		.byte	0x51
 1540 0581 0D020000 		.4byte	0x20d
 1541 0585 15       		.uleb128 0x15
 1542 0586 637000   		.ascii	"cp\000"
 1543 0589 01       		.byte	0x1
 1544 058a 52       		.byte	0x52
 1545 058b 0D020000 		.4byte	0x20d
 1546 058f 00       		.byte	0
 1547 0590 16       		.uleb128 0x16
 1548 0591 05010000 		.4byte	.LASF88
 1549 0595 01       		.byte	0x1
 1550 0596 88       		.byte	0x88
 1551 0597 01       		.byte	0x1
 1552 0598 DF050000 		.4byte	0x5df
 1553 059c 13       		.uleb128 0x13
 1554 059d 7000     		.ascii	"p\000"
 1555 059f 01       		.byte	0x1
 1556 05a0 88       		.byte	0x88
 1557 05a1 49020000 		.4byte	0x249
 1558 05a5 15       		.uleb128 0x15
 1559 05a6 747000   		.ascii	"tp\000"
 1560 05a9 01       		.byte	0x1
 1561 05aa 89       		.byte	0x89
 1562 05ab 0D020000 		.4byte	0x20d
 1563 05af 17       		.uleb128 0x17
 1564 05b0 C0050000 		.4byte	0x5c0
 1565 05b4 15       		.uleb128 0x15
 1566 05b5 746D7000 		.ascii	"tmp\000"
 1567 05b9 01       		.byte	0x1
 1568 05ba 8B       		.byte	0x8b
 1569 05bb 9E000000 		.4byte	0x9e
 1570 05bf 00       		.byte	0
 1571 05c0 17       		.uleb128 0x17
 1572 05c1 D1050000 		.4byte	0x5d1
 1573 05c5 15       		.uleb128 0x15
 1574 05c6 746D7000 		.ascii	"tmp\000"
 1575 05ca 01       		.byte	0x1
 1576 05cb 90       		.byte	0x90
 1577 05cc 9E000000 		.4byte	0x9e
 1578 05d0 00       		.byte	0
 1579 05d1 18       		.uleb128 0x18
 1580 05d2 15       		.uleb128 0x15
 1581 05d3 746D7000 		.ascii	"tmp\000"
 1582 05d7 01       		.byte	0x1
 1583 05d8 A5       		.byte	0xa5
 1584 05d9 9E000000 		.4byte	0x9e
 1585 05dd 00       		.byte	0
 1586 05de 00       		.byte	0
 1587 05df 12       		.uleb128 0x12
 1588 05e0 CA020000 		.4byte	.LASF74
ARM GAS  /tmp/cch85XqM.s 			page 29


 1589 05e4 02       		.byte	0x2
 1590 05e5 3B       		.byte	0x3b
 1591 05e6 0D020000 		.4byte	0x20d
 1592 05ea 03       		.byte	0x3
 1593 05eb 05060000 		.4byte	0x605
 1594 05ef 13       		.uleb128 0x13
 1595 05f0 74717000 		.ascii	"tqp\000"
 1596 05f4 02       		.byte	0x2
 1597 05f5 3B       		.byte	0x3b
 1598 05f6 05060000 		.4byte	0x605
 1599 05fa 15       		.uleb128 0x15
 1600 05fb 747000   		.ascii	"tp\000"
 1601 05fe 02       		.byte	0x2
 1602 05ff 3C       		.byte	0x3c
 1603 0600 0D020000 		.4byte	0x20d
 1604 0604 00       		.byte	0
 1605 0605 09       		.uleb128 0x9
 1606 0606 04       		.byte	0x4
 1607 0607 13020000 		.4byte	0x213
 1608 060b 19       		.uleb128 0x19
 1609 060c 90050000 		.4byte	0x590
 1610 0610 00000000 		.4byte	.LFB10
 1611 0614 58000000 		.4byte	.LFE10-.LFB10
 1612 0618 01       		.uleb128 0x1
 1613 0619 9C       		.byte	0x9c
 1614 061a D8060000 		.4byte	0x6d8
 1615 061e 1A       		.uleb128 0x1a
 1616 061f 9C050000 		.4byte	0x59c
 1617 0623 01       		.uleb128 0x1
 1618 0624 50       		.byte	0x50
 1619 0625 1B       		.uleb128 0x1b
 1620 0626 A5050000 		.4byte	0x5a5
 1621 062a 01       		.uleb128 0x1
 1622 062b 50       		.byte	0x50
 1623 062c 1C       		.uleb128 0x1c
 1624 062d 02000000 		.4byte	.LBB44
 1625 0631 06000000 		.4byte	.LBE44-.LBB44
 1626 0635 41060000 		.4byte	0x641
 1627 0639 1B       		.uleb128 0x1b
 1628 063a B4050000 		.4byte	0x5b4
 1629 063e 01       		.uleb128 0x1
 1630 063f 53       		.byte	0x53
 1631 0640 00       		.byte	0
 1632 0641 1D       		.uleb128 0x1d
 1633 0642 6B050000 		.4byte	0x56b
 1634 0646 18000000 		.4byte	.LBB45
 1635 064a 00000000 		.4byte	.Ldebug_ranges0+0
 1636 064e 01       		.byte	0x1
 1637 064f A4       		.byte	0xa4
 1638 0650 6D060000 		.4byte	0x66d
 1639 0654 1E       		.uleb128 0x1e
 1640 0655 7B050000 		.4byte	0x57b
 1641 0659 00000000 		.4byte	.LLST0
 1642 065d 1F       		.uleb128 0x1f
 1643 065e 00000000 		.4byte	.Ldebug_ranges0+0
 1644 0662 20       		.uleb128 0x20
 1645 0663 85050000 		.4byte	0x585
ARM GAS  /tmp/cch85XqM.s 			page 30


 1646 0667 13000000 		.4byte	.LLST1
 1647 066b 00       		.byte	0
 1648 066c 00       		.byte	0
 1649 066d 21       		.uleb128 0x21
 1650 066e 18000000 		.4byte	.Ldebug_ranges0+0x18
 1651 0672 C0060000 		.4byte	0x6c0
 1652 0676 1E       		.uleb128 0x1e
 1653 0677 9C050000 		.4byte	0x59c
 1654 067b 2B000000 		.4byte	.LLST2
 1655 067f 1F       		.uleb128 0x1f
 1656 0680 18000000 		.4byte	.Ldebug_ranges0+0x18
 1657 0684 22       		.uleb128 0x22
 1658 0685 A5050000 		.4byte	0x5a5
 1659 0689 1D       		.uleb128 0x1d
 1660 068a 6B050000 		.4byte	0x56b
 1661 068e 1C000000 		.4byte	.LBB50
 1662 0692 30000000 		.4byte	.Ldebug_ranges0+0x30
 1663 0696 01       		.byte	0x1
 1664 0697 A4       		.byte	0xa4
 1665 0698 B1060000 		.4byte	0x6b1
 1666 069c 23       		.uleb128 0x23
 1667 069d 7B050000 		.4byte	0x57b
 1668 06a1 1F       		.uleb128 0x1f
 1669 06a2 30000000 		.4byte	.Ldebug_ranges0+0x30
 1670 06a6 20       		.uleb128 0x20
 1671 06a7 85050000 		.4byte	0x585
 1672 06ab 3E000000 		.4byte	.LLST3
 1673 06af 00       		.byte	0
 1674 06b0 00       		.byte	0
 1675 06b1 1F       		.uleb128 0x1f
 1676 06b2 50000000 		.4byte	.Ldebug_ranges0+0x50
 1677 06b6 1B       		.uleb128 0x1b
 1678 06b7 D2050000 		.4byte	0x5d2
 1679 06bb 01       		.uleb128 0x1
 1680 06bc 53       		.byte	0x53
 1681 06bd 00       		.byte	0
 1682 06be 00       		.byte	0
 1683 06bf 00       		.byte	0
 1684 06c0 24       		.uleb128 0x24
 1685 06c1 50050000 		.4byte	0x550
 1686 06c5 48000000 		.4byte	.LBB61
 1687 06c9 10000000 		.4byte	.LBE61-.LBB61
 1688 06cd 01       		.byte	0x1
 1689 06ce A0       		.byte	0xa0
 1690 06cf 1A       		.uleb128 0x1a
 1691 06d0 60050000 		.4byte	0x560
 1692 06d4 01       		.uleb128 0x1
 1693 06d5 50       		.byte	0x50
 1694 06d6 00       		.byte	0
 1695 06d7 00       		.byte	0
 1696 06d8 25       		.uleb128 0x25
 1697 06d9 4C000000 		.4byte	.LASF89
 1698 06dd 01       		.byte	0x1
 1699 06de 37       		.byte	0x37
 1700 06df 60000000 		.4byte	.LFB7
 1701 06e3 14000000 		.4byte	.LFE7-.LFB7
 1702 06e7 01       		.uleb128 0x1
ARM GAS  /tmp/cch85XqM.s 			page 31


 1703 06e8 9C       		.byte	0x9c
 1704 06e9 19       		.uleb128 0x19
 1705 06ea 6B050000 		.4byte	0x56b
 1706 06ee 80000000 		.4byte	.LFB8
 1707 06f2 2C000000 		.4byte	.LFE8-.LFB8
 1708 06f6 01       		.uleb128 0x1
 1709 06f7 9C       		.byte	0x9c
 1710 06f8 0D070000 		.4byte	0x70d
 1711 06fc 1E       		.uleb128 0x1e
 1712 06fd 7B050000 		.4byte	0x57b
 1713 0701 51000000 		.4byte	.LLST4
 1714 0705 1B       		.uleb128 0x1b
 1715 0706 85050000 		.4byte	0x585
 1716 070a 01       		.uleb128 0x1
 1717 070b 53       		.byte	0x53
 1718 070c 00       		.byte	0
 1719 070d 26       		.uleb128 0x26
 1720 070e 9B020000 		.4byte	.LASF77
 1721 0712 01       		.byte	0x1
 1722 0713 73       		.byte	0x73
 1723 0714 B0000000 		.4byte	.LFB9
 1724 0718 28000000 		.4byte	.LFE9-.LFB9
 1725 071c 01       		.uleb128 0x1
 1726 071d 9C       		.byte	0x9c
 1727 071e 79070000 		.4byte	0x779
 1728 0722 27       		.uleb128 0x27
 1729 0723 3D020000 		.4byte	.LASF75
 1730 0727 01       		.byte	0x1
 1731 0728 73       		.byte	0x73
 1732 0729 BB000000 		.4byte	0xbb
 1733 072d 7A000000 		.4byte	.LLST5
 1734 0731 28       		.uleb128 0x28
 1735 0732 6F747000 		.ascii	"otp\000"
 1736 0736 01       		.byte	0x1
 1737 0737 74       		.byte	0x74
 1738 0738 0D020000 		.4byte	0x20d
 1739 073c A7000000 		.4byte	.LLST6
 1740 0740 1D       		.uleb128 0x1d
 1741 0741 DF050000 		.4byte	0x5df
 1742 0745 B4000000 		.4byte	.LBB63
 1743 0749 68000000 		.4byte	.Ldebug_ranges0+0x68
 1744 074d 01       		.byte	0x1
 1745 074e 7E       		.byte	0x7e
 1746 074f 6F070000 		.4byte	0x76f
 1747 0753 1A       		.uleb128 0x1a
 1748 0754 EF050000 		.4byte	0x5ef
 1749 0758 06       		.uleb128 0x6
 1750 0759 03       		.byte	0x3
 1751 075a 00000000 		.4byte	rlist
 1752 075e 9F       		.byte	0x9f
 1753 075f 1F       		.uleb128 0x1f
 1754 0760 68000000 		.4byte	.Ldebug_ranges0+0x68
 1755 0764 20       		.uleb128 0x20
 1756 0765 FA050000 		.4byte	0x5fa
 1757 0769 BA000000 		.4byte	.LLST7
 1758 076d 00       		.byte	0
 1759 076e 00       		.byte	0
ARM GAS  /tmp/cch85XqM.s 			page 32


 1760 076f 29       		.uleb128 0x29
 1761 0770 D2000000 		.4byte	.LVL16
 1762 0774 200A0000 		.4byte	0xa20
 1763 0778 00       		.byte	0
 1764 0779 2A       		.uleb128 0x2a
 1765 077a 57040000 		.4byte	.LASF90
 1766 077e 01       		.byte	0x1
 1767 077f BD       		.byte	0xbd
 1768 0780 DC000000 		.4byte	0xdc
 1769 0784 E0000000 		.4byte	.LFB11
 1770 0788 44000000 		.4byte	.LFE11-.LFB11
 1771 078c 01       		.uleb128 0x1
 1772 078d 9C       		.byte	0x9c
 1773 078e 1D080000 		.4byte	0x81d
 1774 0792 27       		.uleb128 0x27
 1775 0793 3D020000 		.4byte	.LASF75
 1776 0797 01       		.byte	0x1
 1777 0798 BD       		.byte	0xbd
 1778 0799 BB000000 		.4byte	0xbb
 1779 079d CD000000 		.4byte	.LLST8
 1780 07a1 27       		.uleb128 0x27
 1781 07a2 22030000 		.4byte	.LASF76
 1782 07a6 01       		.byte	0x1
 1783 07a7 BD       		.byte	0xbd
 1784 07a8 F2000000 		.4byte	0xf2
 1785 07ac 07010000 		.4byte	.LLST9
 1786 07b0 1C       		.uleb128 0x1c
 1787 07b1 E8000000 		.4byte	.LBB71
 1788 07b5 1E000000 		.4byte	.LBE71-.LBB71
 1789 07b9 13080000 		.4byte	0x813
 1790 07bd 2B       		.uleb128 0x2b
 1791 07be 767400   		.ascii	"vt\000"
 1792 07c1 01       		.byte	0x1
 1793 07c2 C2       		.byte	0xc2
 1794 07c3 DB030000 		.4byte	0x3db
 1795 07c7 02       		.uleb128 0x2
 1796 07c8 91       		.byte	0x91
 1797 07c9 5C       		.sleb128 -36
 1798 07ca 2C       		.uleb128 0x2c
 1799 07cb F6000000 		.4byte	.LVL19
 1800 07cf 370A0000 		.4byte	0xa37
 1801 07d3 EE070000 		.4byte	0x7ee
 1802 07d7 2D       		.uleb128 0x2d
 1803 07d8 01       		.uleb128 0x1
 1804 07d9 52       		.byte	0x52
 1805 07da 05       		.uleb128 0x5
 1806 07db 03       		.byte	0x3
 1807 07dc 00000000 		.4byte	wakeup
 1808 07e0 2D       		.uleb128 0x2d
 1809 07e1 01       		.uleb128 0x1
 1810 07e2 51       		.byte	0x51
 1811 07e3 03       		.uleb128 0x3
 1812 07e4 F3       		.byte	0xf3
 1813 07e5 01       		.uleb128 0x1
 1814 07e6 51       		.byte	0x51
 1815 07e7 2D       		.uleb128 0x2d
 1816 07e8 01       		.uleb128 0x1
ARM GAS  /tmp/cch85XqM.s 			page 33


 1817 07e9 50       		.byte	0x50
 1818 07ea 02       		.uleb128 0x2
 1819 07eb 91       		.byte	0x91
 1820 07ec 5C       		.sleb128 -36
 1821 07ed 00       		.byte	0
 1822 07ee 2C       		.uleb128 0x2c
 1823 07ef FC000000 		.4byte	.LVL20
 1824 07f3 0D070000 		.4byte	0x70d
 1825 07f7 02080000 		.4byte	0x802
 1826 07fb 2D       		.uleb128 0x2d
 1827 07fc 01       		.uleb128 0x1
 1828 07fd 50       		.byte	0x50
 1829 07fe 02       		.uleb128 0x2
 1830 07ff 75       		.byte	0x75
 1831 0800 00       		.sleb128 0
 1832 0801 00       		.byte	0
 1833 0802 2E       		.uleb128 0x2e
 1834 0803 06010000 		.4byte	.LVL21
 1835 0807 570A0000 		.4byte	0xa57
 1836 080b 2D       		.uleb128 0x2d
 1837 080c 01       		.uleb128 0x1
 1838 080d 50       		.byte	0x50
 1839 080e 02       		.uleb128 0x2
 1840 080f 91       		.byte	0x91
 1841 0810 5C       		.sleb128 -36
 1842 0811 00       		.byte	0
 1843 0812 00       		.byte	0
 1844 0813 2F       		.uleb128 0x2f
 1845 0814 14010000 		.4byte	.LVL23
 1846 0818 0D070000 		.4byte	0x70d
 1847 081c 00       		.byte	0
 1848 081d 26       		.uleb128 0x26
 1849 081e 62010000 		.4byte	.LASF78
 1850 0822 01       		.byte	0x1
 1851 0823 E1       		.byte	0xe1
 1852 0824 30010000 		.4byte	.LFB12
 1853 0828 58000000 		.4byte	.LFE12-.LFB12
 1854 082c 01       		.uleb128 0x1
 1855 082d 9C       		.byte	0x9c
 1856 082e CB080000 		.4byte	0x8cb
 1857 0832 30       		.uleb128 0x30
 1858 0833 6E747000 		.ascii	"ntp\000"
 1859 0837 01       		.byte	0x1
 1860 0838 E1       		.byte	0xe1
 1861 0839 0D020000 		.4byte	0x20d
 1862 083d 41010000 		.4byte	.LLST10
 1863 0841 30       		.uleb128 0x30
 1864 0842 6D736700 		.ascii	"msg\000"
 1865 0846 01       		.byte	0x1
 1866 0847 E1       		.byte	0xe1
 1867 0848 DC000000 		.4byte	0xdc
 1868 084c 8F010000 		.4byte	.LLST11
 1869 0850 1D       		.uleb128 0x1d
 1870 0851 6B050000 		.4byte	0x56b
 1871 0855 40010000 		.4byte	.LBB72
 1872 0859 90000000 		.4byte	.Ldebug_ranges0+0x90
 1873 085d 01       		.byte	0x1
ARM GAS  /tmp/cch85XqM.s 			page 34


 1874 085e EB       		.byte	0xeb
 1875 085f 7C080000 		.4byte	0x87c
 1876 0863 1E       		.uleb128 0x1e
 1877 0864 7B050000 		.4byte	0x57b
 1878 0868 C8010000 		.4byte	.LLST12
 1879 086c 1F       		.uleb128 0x1f
 1880 086d 90000000 		.4byte	.Ldebug_ranges0+0x90
 1881 0871 20       		.uleb128 0x20
 1882 0872 85050000 		.4byte	0x585
 1883 0876 E7010000 		.4byte	.LLST13
 1884 087a 00       		.byte	0
 1885 087b 00       		.byte	0
 1886 087c 1F       		.uleb128 0x1f
 1887 087d A8000000 		.4byte	.Ldebug_ranges0+0xa8
 1888 0881 15       		.uleb128 0x15
 1889 0882 6F747000 		.ascii	"otp\000"
 1890 0886 01       		.byte	0x1
 1891 0887 ED       		.byte	0xed
 1892 0888 0D020000 		.4byte	0x20d
 1893 088c 1D       		.uleb128 0x1d
 1894 088d 6B050000 		.4byte	0x56b
 1895 0891 5E010000 		.4byte	.LBB77
 1896 0895 C0000000 		.4byte	.Ldebug_ranges0+0xc0
 1897 0899 01       		.byte	0x1
 1898 089a ED       		.byte	0xed
 1899 089b B8080000 		.4byte	0x8b8
 1900 089f 1E       		.uleb128 0x1e
 1901 08a0 7B050000 		.4byte	0x57b
 1902 08a4 FA010000 		.4byte	.LLST14
 1903 08a8 1F       		.uleb128 0x1f
 1904 08a9 C0000000 		.4byte	.Ldebug_ranges0+0xc0
 1905 08ad 20       		.uleb128 0x20
 1906 08ae 85050000 		.4byte	0x585
 1907 08b2 18020000 		.4byte	.LLST15
 1908 08b6 00       		.byte	0
 1909 08b7 00       		.byte	0
 1910 08b8 31       		.uleb128 0x31
 1911 08b9 84010000 		.4byte	.LVL35
 1912 08bd 200A0000 		.4byte	0xa20
 1913 08c1 2D       		.uleb128 0x2d
 1914 08c2 01       		.uleb128 0x1
 1915 08c3 50       		.byte	0x50
 1916 08c4 03       		.uleb128 0x3
 1917 08c5 F3       		.byte	0xf3
 1918 08c6 01       		.uleb128 0x1
 1919 08c7 50       		.byte	0x50
 1920 08c8 00       		.byte	0
 1921 08c9 00       		.byte	0
 1922 08ca 00       		.byte	0
 1923 08cb 32       		.uleb128 0x32
 1924 08cc BC010000 		.4byte	.LASF79
 1925 08d0 01       		.byte	0x1
 1926 08d1 3001     		.2byte	0x130
 1927 08d3 90010000 		.4byte	.LFB14
 1928 08d7 40000000 		.4byte	.LFE14-.LFB14
 1929 08db 01       		.uleb128 0x1
 1930 08dc 9C       		.byte	0x9c
ARM GAS  /tmp/cch85XqM.s 			page 35


 1931 08dd 58090000 		.4byte	0x958
 1932 08e1 33       		.uleb128 0x33
 1933 08e2 6F747000 		.ascii	"otp\000"
 1934 08e6 01       		.byte	0x1
 1935 08e7 3101     		.2byte	0x131
 1936 08e9 0D020000 		.4byte	0x20d
 1937 08ed 3B020000 		.4byte	.LLST16
 1938 08f1 34       		.uleb128 0x34
 1939 08f2 DF050000 		.4byte	0x5df
 1940 08f6 92010000 		.4byte	.LBB82
 1941 08fa D8000000 		.4byte	.Ldebug_ranges0+0xd8
 1942 08fe 01       		.byte	0x1
 1943 08ff 3501     		.2byte	0x135
 1944 0901 21090000 		.4byte	0x921
 1945 0905 1A       		.uleb128 0x1a
 1946 0906 EF050000 		.4byte	0x5ef
 1947 090a 06       		.uleb128 0x6
 1948 090b 03       		.byte	0x3
 1949 090c 00000000 		.4byte	rlist
 1950 0910 9F       		.byte	0x9f
 1951 0911 1F       		.uleb128 0x1f
 1952 0912 D8000000 		.4byte	.Ldebug_ranges0+0xd8
 1953 0916 20       		.uleb128 0x20
 1954 0917 FA050000 		.4byte	0x5fa
 1955 091b 59020000 		.4byte	.LLST17
 1956 091f 00       		.byte	0
 1957 0920 00       		.byte	0
 1958 0921 34       		.uleb128 0x34
 1959 0922 6B050000 		.4byte	0x56b
 1960 0926 A0010000 		.4byte	.LBB89
 1961 092a 00010000 		.4byte	.Ldebug_ranges0+0x100
 1962 092e 01       		.byte	0x1
 1963 092f 3A01     		.2byte	0x13a
 1964 0931 4E090000 		.4byte	0x94e
 1965 0935 1E       		.uleb128 0x1e
 1966 0936 7B050000 		.4byte	0x57b
 1967 093a 6C020000 		.4byte	.LLST18
 1968 093e 1F       		.uleb128 0x1f
 1969 093f 00010000 		.4byte	.Ldebug_ranges0+0x100
 1970 0943 20       		.uleb128 0x20
 1971 0944 85050000 		.4byte	0x585
 1972 0948 8A020000 		.4byte	.LLST19
 1973 094c 00       		.byte	0
 1974 094d 00       		.byte	0
 1975 094e 29       		.uleb128 0x29
 1976 094f CC010000 		.4byte	.LVL42
 1977 0953 200A0000 		.4byte	0xa20
 1978 0957 00       		.byte	0
 1979 0958 32       		.uleb128 0x32
 1980 0959 0D000000 		.4byte	.LASF80
 1981 095d 01       		.byte	0x1
 1982 095e 4901     		.2byte	0x149
 1983 0960 D0010000 		.4byte	.LFB15
 1984 0964 3C000000 		.4byte	.LFE15-.LFB15
 1985 0968 01       		.uleb128 0x1
 1986 0969 9C       		.byte	0x9c
 1987 096a C7090000 		.4byte	0x9c7
ARM GAS  /tmp/cch85XqM.s 			page 36


 1988 096e 33       		.uleb128 0x33
 1989 096f 6F747000 		.ascii	"otp\000"
 1990 0973 01       		.byte	0x1
 1991 0974 4A01     		.2byte	0x14a
 1992 0976 0D020000 		.4byte	0x20d
 1993 097a AD020000 		.4byte	.LLST20
 1994 097e 33       		.uleb128 0x33
 1995 097f 637000   		.ascii	"cp\000"
 1996 0982 01       		.byte	0x1
 1997 0983 4A01     		.2byte	0x14a
 1998 0985 0D020000 		.4byte	0x20d
 1999 0989 CB020000 		.4byte	.LLST21
 2000 098d 34       		.uleb128 0x34
 2001 098e DF050000 		.4byte	0x5df
 2002 0992 D2010000 		.4byte	.LBB98
 2003 0996 28010000 		.4byte	.Ldebug_ranges0+0x128
 2004 099a 01       		.byte	0x1
 2005 099b 4E01     		.2byte	0x14e
 2006 099d BD090000 		.4byte	0x9bd
 2007 09a1 1A       		.uleb128 0x1a
 2008 09a2 EF050000 		.4byte	0x5ef
 2009 09a6 06       		.uleb128 0x6
 2010 09a7 03       		.byte	0x3
 2011 09a8 00000000 		.4byte	rlist
 2012 09ac 9F       		.byte	0x9f
 2013 09ad 1F       		.uleb128 0x1f
 2014 09ae 28010000 		.4byte	.Ldebug_ranges0+0x128
 2015 09b2 20       		.uleb128 0x20
 2016 09b3 FA050000 		.4byte	0x5fa
 2017 09b7 EE020000 		.4byte	.LLST22
 2018 09bb 00       		.byte	0
 2019 09bc 00       		.byte	0
 2020 09bd 29       		.uleb128 0x29
 2021 09be 08020000 		.4byte	.LVL48
 2022 09c2 200A0000 		.4byte	0xa20
 2023 09c6 00       		.byte	0
 2024 09c7 26       		.uleb128 0x26
 2025 09c8 B3000000 		.4byte	.LASF81
 2026 09cc 01       		.byte	0x1
 2027 09cd FD       		.byte	0xfd
 2028 09ce 10020000 		.4byte	.LFB13
 2029 09d2 18000000 		.4byte	.LFE13-.LFB13
 2030 09d6 01       		.uleb128 0x1
 2031 09d7 9C       		.byte	0x9c
 2032 09d8 E6090000 		.4byte	0x9e6
 2033 09dc 29       		.uleb128 0x29
 2034 09dd 24020000 		.4byte	.LVL49
 2035 09e1 58090000 		.4byte	0x958
 2036 09e5 00       		.byte	0
 2037 09e6 32       		.uleb128 0x32
 2038 09e7 E0000000 		.4byte	.LASF82
 2039 09eb 01       		.byte	0x1
 2040 09ec 6A01     		.2byte	0x16a
 2041 09ee 30020000 		.4byte	.LFB16
 2042 09f2 14000000 		.4byte	.LFE16-.LFB16
 2043 09f6 01       		.uleb128 0x1
 2044 09f7 9C       		.byte	0x9c
ARM GAS  /tmp/cch85XqM.s 			page 37


 2045 09f8 0F0A0000 		.4byte	0xa0f
 2046 09fc 29       		.uleb128 0x29
 2047 09fd 3C020000 		.4byte	.LVL50
 2048 0a01 58090000 		.4byte	0x958
 2049 0a05 29       		.uleb128 0x29
 2050 0a06 40020000 		.4byte	.LVL51
 2051 0a0a CB080000 		.4byte	0x8cb
 2052 0a0e 00       		.byte	0
 2053 0a0f 35       		.uleb128 0x35
 2054 0a10 49030000 		.4byte	.LASF91
 2055 0a14 01       		.byte	0x1
 2056 0a15 2F       		.byte	0x2f
 2057 0a16 86040000 		.4byte	0x486
 2058 0a1a 05       		.uleb128 0x5
 2059 0a1b 03       		.byte	0x3
 2060 0a1c 00000000 		.4byte	rlist
 2061 0a20 36       		.uleb128 0x36
 2062 0a21 14010000 		.4byte	.LASF83
 2063 0a25 08       		.byte	0x8
 2064 0a26 0602     		.2byte	0x206
 2065 0a28 370A0000 		.4byte	0xa37
 2066 0a2c 0E       		.uleb128 0xe
 2067 0a2d 0D020000 		.4byte	0x20d
 2068 0a31 0E       		.uleb128 0xe
 2069 0a32 0D020000 		.4byte	0x20d
 2070 0a36 00       		.byte	0
 2071 0a37 37       		.uleb128 0x37
 2072 0a38 D4010000 		.4byte	.LASF84
 2073 0a3c 09       		.byte	0x9
 2074 0a3d FE       		.byte	0xfe
 2075 0a3e 570A0000 		.4byte	0xa57
 2076 0a42 0E       		.uleb128 0xe
 2077 0a43 2F040000 		.4byte	0x42f
 2078 0a47 0E       		.uleb128 0xe
 2079 0a48 F2000000 		.4byte	0xf2
 2080 0a4c 0E       		.uleb128 0xe
 2081 0a4d BF030000 		.4byte	0x3bf
 2082 0a51 0E       		.uleb128 0xe
 2083 0a52 49020000 		.4byte	0x249
 2084 0a56 00       		.byte	0
 2085 0a57 38       		.uleb128 0x38
 2086 0a58 90020000 		.4byte	.LASF92
 2087 0a5c 09       		.byte	0x9
 2088 0a5d FF       		.byte	0xff
 2089 0a5e 0E       		.uleb128 0xe
 2090 0a5f 2F040000 		.4byte	0x42f
 2091 0a63 00       		.byte	0
 2092 0a64 00       		.byte	0
 2093              		.section	.debug_abbrev,"",%progbits
 2094              	.Ldebug_abbrev0:
 2095 0000 01       		.uleb128 0x1
 2096 0001 11       		.uleb128 0x11
 2097 0002 01       		.byte	0x1
 2098 0003 25       		.uleb128 0x25
 2099 0004 0E       		.uleb128 0xe
 2100 0005 13       		.uleb128 0x13
 2101 0006 0B       		.uleb128 0xb
ARM GAS  /tmp/cch85XqM.s 			page 38


 2102 0007 03       		.uleb128 0x3
 2103 0008 0E       		.uleb128 0xe
 2104 0009 11       		.uleb128 0x11
 2105 000a 01       		.uleb128 0x1
 2106 000b 12       		.uleb128 0x12
 2107 000c 06       		.uleb128 0x6
 2108 000d 10       		.uleb128 0x10
 2109 000e 17       		.uleb128 0x17
 2110 000f 00       		.byte	0
 2111 0010 00       		.byte	0
 2112 0011 02       		.uleb128 0x2
 2113 0012 24       		.uleb128 0x24
 2114 0013 00       		.byte	0
 2115 0014 0B       		.uleb128 0xb
 2116 0015 0B       		.uleb128 0xb
 2117 0016 3E       		.uleb128 0x3e
 2118 0017 0B       		.uleb128 0xb
 2119 0018 03       		.uleb128 0x3
 2120 0019 08       		.uleb128 0x8
 2121 001a 00       		.byte	0
 2122 001b 00       		.byte	0
 2123 001c 03       		.uleb128 0x3
 2124 001d 24       		.uleb128 0x24
 2125 001e 00       		.byte	0
 2126 001f 0B       		.uleb128 0xb
 2127 0020 0B       		.uleb128 0xb
 2128 0021 3E       		.uleb128 0x3e
 2129 0022 0B       		.uleb128 0xb
 2130 0023 03       		.uleb128 0x3
 2131 0024 0E       		.uleb128 0xe
 2132 0025 00       		.byte	0
 2133 0026 00       		.byte	0
 2134 0027 04       		.uleb128 0x4
 2135 0028 16       		.uleb128 0x16
 2136 0029 00       		.byte	0
 2137 002a 03       		.uleb128 0x3
 2138 002b 0E       		.uleb128 0xe
 2139 002c 3A       		.uleb128 0x3a
 2140 002d 0B       		.uleb128 0xb
 2141 002e 3B       		.uleb128 0x3b
 2142 002f 0B       		.uleb128 0xb
 2143 0030 49       		.uleb128 0x49
 2144 0031 13       		.uleb128 0x13
 2145 0032 00       		.byte	0
 2146 0033 00       		.byte	0
 2147 0034 05       		.uleb128 0x5
 2148 0035 13       		.uleb128 0x13
 2149 0036 01       		.byte	0x1
 2150 0037 03       		.uleb128 0x3
 2151 0038 0E       		.uleb128 0xe
 2152 0039 0B       		.uleb128 0xb
 2153 003a 0B       		.uleb128 0xb
 2154 003b 3A       		.uleb128 0x3a
 2155 003c 0B       		.uleb128 0xb
 2156 003d 3B       		.uleb128 0x3b
 2157 003e 0B       		.uleb128 0xb
 2158 003f 01       		.uleb128 0x1
ARM GAS  /tmp/cch85XqM.s 			page 39


 2159 0040 13       		.uleb128 0x13
 2160 0041 00       		.byte	0
 2161 0042 00       		.byte	0
 2162 0043 06       		.uleb128 0x6
 2163 0044 0D       		.uleb128 0xd
 2164 0045 00       		.byte	0
 2165 0046 03       		.uleb128 0x3
 2166 0047 0E       		.uleb128 0xe
 2167 0048 3A       		.uleb128 0x3a
 2168 0049 0B       		.uleb128 0xb
 2169 004a 3B       		.uleb128 0x3b
 2170 004b 0B       		.uleb128 0xb
 2171 004c 49       		.uleb128 0x49
 2172 004d 13       		.uleb128 0x13
 2173 004e 38       		.uleb128 0x38
 2174 004f 0B       		.uleb128 0xb
 2175 0050 00       		.byte	0
 2176 0051 00       		.byte	0
 2177 0052 07       		.uleb128 0x7
 2178 0053 0D       		.uleb128 0xd
 2179 0054 00       		.byte	0
 2180 0055 03       		.uleb128 0x3
 2181 0056 08       		.uleb128 0x8
 2182 0057 3A       		.uleb128 0x3a
 2183 0058 0B       		.uleb128 0xb
 2184 0059 3B       		.uleb128 0x3b
 2185 005a 0B       		.uleb128 0xb
 2186 005b 49       		.uleb128 0x49
 2187 005c 13       		.uleb128 0x13
 2188 005d 38       		.uleb128 0x38
 2189 005e 0B       		.uleb128 0xb
 2190 005f 00       		.byte	0
 2191 0060 00       		.byte	0
 2192 0061 08       		.uleb128 0x8
 2193 0062 13       		.uleb128 0x13
 2194 0063 01       		.byte	0x1
 2195 0064 0B       		.uleb128 0xb
 2196 0065 0B       		.uleb128 0xb
 2197 0066 3A       		.uleb128 0x3a
 2198 0067 0B       		.uleb128 0xb
 2199 0068 3B       		.uleb128 0x3b
 2200 0069 0B       		.uleb128 0xb
 2201 006a 01       		.uleb128 0x1
 2202 006b 13       		.uleb128 0x13
 2203 006c 00       		.byte	0
 2204 006d 00       		.byte	0
 2205 006e 09       		.uleb128 0x9
 2206 006f 0F       		.uleb128 0xf
 2207 0070 00       		.byte	0
 2208 0071 0B       		.uleb128 0xb
 2209 0072 0B       		.uleb128 0xb
 2210 0073 49       		.uleb128 0x49
 2211 0074 13       		.uleb128 0x13
 2212 0075 00       		.byte	0
 2213 0076 00       		.byte	0
 2214 0077 0A       		.uleb128 0xa
 2215 0078 0F       		.uleb128 0xf
ARM GAS  /tmp/cch85XqM.s 			page 40


 2216 0079 00       		.byte	0
 2217 007a 0B       		.uleb128 0xb
 2218 007b 0B       		.uleb128 0xb
 2219 007c 00       		.byte	0
 2220 007d 00       		.byte	0
 2221 007e 0B       		.uleb128 0xb
 2222 007f 13       		.uleb128 0x13
 2223 0080 01       		.byte	0x1
 2224 0081 03       		.uleb128 0x3
 2225 0082 0E       		.uleb128 0xe
 2226 0083 0B       		.uleb128 0xb
 2227 0084 0B       		.uleb128 0xb
 2228 0085 3A       		.uleb128 0x3a
 2229 0086 0B       		.uleb128 0xb
 2230 0087 3B       		.uleb128 0x3b
 2231 0088 05       		.uleb128 0x5
 2232 0089 01       		.uleb128 0x1
 2233 008a 13       		.uleb128 0x13
 2234 008b 00       		.byte	0
 2235 008c 00       		.byte	0
 2236 008d 0C       		.uleb128 0xc
 2237 008e 0D       		.uleb128 0xd
 2238 008f 00       		.byte	0
 2239 0090 03       		.uleb128 0x3
 2240 0091 08       		.uleb128 0x8
 2241 0092 3A       		.uleb128 0x3a
 2242 0093 0B       		.uleb128 0xb
 2243 0094 3B       		.uleb128 0x3b
 2244 0095 05       		.uleb128 0x5
 2245 0096 49       		.uleb128 0x49
 2246 0097 13       		.uleb128 0x13
 2247 0098 38       		.uleb128 0x38
 2248 0099 0B       		.uleb128 0xb
 2249 009a 00       		.byte	0
 2250 009b 00       		.byte	0
 2251 009c 0D       		.uleb128 0xd
 2252 009d 15       		.uleb128 0x15
 2253 009e 01       		.byte	0x1
 2254 009f 27       		.uleb128 0x27
 2255 00a0 19       		.uleb128 0x19
 2256 00a1 01       		.uleb128 0x1
 2257 00a2 13       		.uleb128 0x13
 2258 00a3 00       		.byte	0
 2259 00a4 00       		.byte	0
 2260 00a5 0E       		.uleb128 0xe
 2261 00a6 05       		.uleb128 0x5
 2262 00a7 00       		.byte	0
 2263 00a8 49       		.uleb128 0x49
 2264 00a9 13       		.uleb128 0x13
 2265 00aa 00       		.byte	0
 2266 00ab 00       		.byte	0
 2267 00ac 0F       		.uleb128 0xf
 2268 00ad 17       		.uleb128 0x17
 2269 00ae 01       		.byte	0x1
 2270 00af 0B       		.uleb128 0xb
 2271 00b0 0B       		.uleb128 0xb
 2272 00b1 3A       		.uleb128 0x3a
ARM GAS  /tmp/cch85XqM.s 			page 41


 2273 00b2 0B       		.uleb128 0xb
 2274 00b3 3B       		.uleb128 0x3b
 2275 00b4 0B       		.uleb128 0xb
 2276 00b5 01       		.uleb128 0x1
 2277 00b6 13       		.uleb128 0x13
 2278 00b7 00       		.byte	0
 2279 00b8 00       		.byte	0
 2280 00b9 10       		.uleb128 0x10
 2281 00ba 0D       		.uleb128 0xd
 2282 00bb 00       		.byte	0
 2283 00bc 03       		.uleb128 0x3
 2284 00bd 0E       		.uleb128 0xe
 2285 00be 3A       		.uleb128 0x3a
 2286 00bf 0B       		.uleb128 0xb
 2287 00c0 3B       		.uleb128 0x3b
 2288 00c1 0B       		.uleb128 0xb
 2289 00c2 49       		.uleb128 0x49
 2290 00c3 13       		.uleb128 0x13
 2291 00c4 00       		.byte	0
 2292 00c5 00       		.byte	0
 2293 00c6 11       		.uleb128 0x11
 2294 00c7 26       		.uleb128 0x26
 2295 00c8 00       		.byte	0
 2296 00c9 49       		.uleb128 0x49
 2297 00ca 13       		.uleb128 0x13
 2298 00cb 00       		.byte	0
 2299 00cc 00       		.byte	0
 2300 00cd 12       		.uleb128 0x12
 2301 00ce 2E       		.uleb128 0x2e
 2302 00cf 01       		.byte	0x1
 2303 00d0 03       		.uleb128 0x3
 2304 00d1 0E       		.uleb128 0xe
 2305 00d2 3A       		.uleb128 0x3a
 2306 00d3 0B       		.uleb128 0xb
 2307 00d4 3B       		.uleb128 0x3b
 2308 00d5 0B       		.uleb128 0xb
 2309 00d6 27       		.uleb128 0x27
 2310 00d7 19       		.uleb128 0x19
 2311 00d8 49       		.uleb128 0x49
 2312 00d9 13       		.uleb128 0x13
 2313 00da 20       		.uleb128 0x20
 2314 00db 0B       		.uleb128 0xb
 2315 00dc 01       		.uleb128 0x1
 2316 00dd 13       		.uleb128 0x13
 2317 00de 00       		.byte	0
 2318 00df 00       		.byte	0
 2319 00e0 13       		.uleb128 0x13
 2320 00e1 05       		.uleb128 0x5
 2321 00e2 00       		.byte	0
 2322 00e3 03       		.uleb128 0x3
 2323 00e4 08       		.uleb128 0x8
 2324 00e5 3A       		.uleb128 0x3a
 2325 00e6 0B       		.uleb128 0xb
 2326 00e7 3B       		.uleb128 0x3b
 2327 00e8 0B       		.uleb128 0xb
 2328 00e9 49       		.uleb128 0x49
 2329 00ea 13       		.uleb128 0x13
ARM GAS  /tmp/cch85XqM.s 			page 42


 2330 00eb 00       		.byte	0
 2331 00ec 00       		.byte	0
 2332 00ed 14       		.uleb128 0x14
 2333 00ee 2E       		.uleb128 0x2e
 2334 00ef 01       		.byte	0x1
 2335 00f0 3F       		.uleb128 0x3f
 2336 00f1 19       		.uleb128 0x19
 2337 00f2 03       		.uleb128 0x3
 2338 00f3 0E       		.uleb128 0xe
 2339 00f4 3A       		.uleb128 0x3a
 2340 00f5 0B       		.uleb128 0xb
 2341 00f6 3B       		.uleb128 0x3b
 2342 00f7 0B       		.uleb128 0xb
 2343 00f8 27       		.uleb128 0x27
 2344 00f9 19       		.uleb128 0x19
 2345 00fa 49       		.uleb128 0x49
 2346 00fb 13       		.uleb128 0x13
 2347 00fc 20       		.uleb128 0x20
 2348 00fd 0B       		.uleb128 0xb
 2349 00fe 01       		.uleb128 0x1
 2350 00ff 13       		.uleb128 0x13
 2351 0100 00       		.byte	0
 2352 0101 00       		.byte	0
 2353 0102 15       		.uleb128 0x15
 2354 0103 34       		.uleb128 0x34
 2355 0104 00       		.byte	0
 2356 0105 03       		.uleb128 0x3
 2357 0106 08       		.uleb128 0x8
 2358 0107 3A       		.uleb128 0x3a
 2359 0108 0B       		.uleb128 0xb
 2360 0109 3B       		.uleb128 0x3b
 2361 010a 0B       		.uleb128 0xb
 2362 010b 49       		.uleb128 0x49
 2363 010c 13       		.uleb128 0x13
 2364 010d 00       		.byte	0
 2365 010e 00       		.byte	0
 2366 010f 16       		.uleb128 0x16
 2367 0110 2E       		.uleb128 0x2e
 2368 0111 01       		.byte	0x1
 2369 0112 03       		.uleb128 0x3
 2370 0113 0E       		.uleb128 0xe
 2371 0114 3A       		.uleb128 0x3a
 2372 0115 0B       		.uleb128 0xb
 2373 0116 3B       		.uleb128 0x3b
 2374 0117 0B       		.uleb128 0xb
 2375 0118 27       		.uleb128 0x27
 2376 0119 19       		.uleb128 0x19
 2377 011a 20       		.uleb128 0x20
 2378 011b 0B       		.uleb128 0xb
 2379 011c 01       		.uleb128 0x1
 2380 011d 13       		.uleb128 0x13
 2381 011e 00       		.byte	0
 2382 011f 00       		.byte	0
 2383 0120 17       		.uleb128 0x17
 2384 0121 0B       		.uleb128 0xb
 2385 0122 01       		.byte	0x1
 2386 0123 01       		.uleb128 0x1
ARM GAS  /tmp/cch85XqM.s 			page 43


 2387 0124 13       		.uleb128 0x13
 2388 0125 00       		.byte	0
 2389 0126 00       		.byte	0
 2390 0127 18       		.uleb128 0x18
 2391 0128 0B       		.uleb128 0xb
 2392 0129 01       		.byte	0x1
 2393 012a 00       		.byte	0
 2394 012b 00       		.byte	0
 2395 012c 19       		.uleb128 0x19
 2396 012d 2E       		.uleb128 0x2e
 2397 012e 01       		.byte	0x1
 2398 012f 31       		.uleb128 0x31
 2399 0130 13       		.uleb128 0x13
 2400 0131 11       		.uleb128 0x11
 2401 0132 01       		.uleb128 0x1
 2402 0133 12       		.uleb128 0x12
 2403 0134 06       		.uleb128 0x6
 2404 0135 40       		.uleb128 0x40
 2405 0136 18       		.uleb128 0x18
 2406 0137 9742     		.uleb128 0x2117
 2407 0139 19       		.uleb128 0x19
 2408 013a 01       		.uleb128 0x1
 2409 013b 13       		.uleb128 0x13
 2410 013c 00       		.byte	0
 2411 013d 00       		.byte	0
 2412 013e 1A       		.uleb128 0x1a
 2413 013f 05       		.uleb128 0x5
 2414 0140 00       		.byte	0
 2415 0141 31       		.uleb128 0x31
 2416 0142 13       		.uleb128 0x13
 2417 0143 02       		.uleb128 0x2
 2418 0144 18       		.uleb128 0x18
 2419 0145 00       		.byte	0
 2420 0146 00       		.byte	0
 2421 0147 1B       		.uleb128 0x1b
 2422 0148 34       		.uleb128 0x34
 2423 0149 00       		.byte	0
 2424 014a 31       		.uleb128 0x31
 2425 014b 13       		.uleb128 0x13
 2426 014c 02       		.uleb128 0x2
 2427 014d 18       		.uleb128 0x18
 2428 014e 00       		.byte	0
 2429 014f 00       		.byte	0
 2430 0150 1C       		.uleb128 0x1c
 2431 0151 0B       		.uleb128 0xb
 2432 0152 01       		.byte	0x1
 2433 0153 11       		.uleb128 0x11
 2434 0154 01       		.uleb128 0x1
 2435 0155 12       		.uleb128 0x12
 2436 0156 06       		.uleb128 0x6
 2437 0157 01       		.uleb128 0x1
 2438 0158 13       		.uleb128 0x13
 2439 0159 00       		.byte	0
 2440 015a 00       		.byte	0
 2441 015b 1D       		.uleb128 0x1d
 2442 015c 1D       		.uleb128 0x1d
 2443 015d 01       		.byte	0x1
ARM GAS  /tmp/cch85XqM.s 			page 44


 2444 015e 31       		.uleb128 0x31
 2445 015f 13       		.uleb128 0x13
 2446 0160 52       		.uleb128 0x52
 2447 0161 01       		.uleb128 0x1
 2448 0162 55       		.uleb128 0x55
 2449 0163 17       		.uleb128 0x17
 2450 0164 58       		.uleb128 0x58
 2451 0165 0B       		.uleb128 0xb
 2452 0166 59       		.uleb128 0x59
 2453 0167 0B       		.uleb128 0xb
 2454 0168 01       		.uleb128 0x1
 2455 0169 13       		.uleb128 0x13
 2456 016a 00       		.byte	0
 2457 016b 00       		.byte	0
 2458 016c 1E       		.uleb128 0x1e
 2459 016d 05       		.uleb128 0x5
 2460 016e 00       		.byte	0
 2461 016f 31       		.uleb128 0x31
 2462 0170 13       		.uleb128 0x13
 2463 0171 02       		.uleb128 0x2
 2464 0172 17       		.uleb128 0x17
 2465 0173 00       		.byte	0
 2466 0174 00       		.byte	0
 2467 0175 1F       		.uleb128 0x1f
 2468 0176 0B       		.uleb128 0xb
 2469 0177 01       		.byte	0x1
 2470 0178 55       		.uleb128 0x55
 2471 0179 17       		.uleb128 0x17
 2472 017a 00       		.byte	0
 2473 017b 00       		.byte	0
 2474 017c 20       		.uleb128 0x20
 2475 017d 34       		.uleb128 0x34
 2476 017e 00       		.byte	0
 2477 017f 31       		.uleb128 0x31
 2478 0180 13       		.uleb128 0x13
 2479 0181 02       		.uleb128 0x2
 2480 0182 17       		.uleb128 0x17
 2481 0183 00       		.byte	0
 2482 0184 00       		.byte	0
 2483 0185 21       		.uleb128 0x21
 2484 0186 0B       		.uleb128 0xb
 2485 0187 01       		.byte	0x1
 2486 0188 55       		.uleb128 0x55
 2487 0189 17       		.uleb128 0x17
 2488 018a 01       		.uleb128 0x1
 2489 018b 13       		.uleb128 0x13
 2490 018c 00       		.byte	0
 2491 018d 00       		.byte	0
 2492 018e 22       		.uleb128 0x22
 2493 018f 34       		.uleb128 0x34
 2494 0190 00       		.byte	0
 2495 0191 31       		.uleb128 0x31
 2496 0192 13       		.uleb128 0x13
 2497 0193 00       		.byte	0
 2498 0194 00       		.byte	0
 2499 0195 23       		.uleb128 0x23
 2500 0196 05       		.uleb128 0x5
ARM GAS  /tmp/cch85XqM.s 			page 45


 2501 0197 00       		.byte	0
 2502 0198 31       		.uleb128 0x31
 2503 0199 13       		.uleb128 0x13
 2504 019a 00       		.byte	0
 2505 019b 00       		.byte	0
 2506 019c 24       		.uleb128 0x24
 2507 019d 1D       		.uleb128 0x1d
 2508 019e 01       		.byte	0x1
 2509 019f 31       		.uleb128 0x31
 2510 01a0 13       		.uleb128 0x13
 2511 01a1 11       		.uleb128 0x11
 2512 01a2 01       		.uleb128 0x1
 2513 01a3 12       		.uleb128 0x12
 2514 01a4 06       		.uleb128 0x6
 2515 01a5 58       		.uleb128 0x58
 2516 01a6 0B       		.uleb128 0xb
 2517 01a7 59       		.uleb128 0x59
 2518 01a8 0B       		.uleb128 0xb
 2519 01a9 00       		.byte	0
 2520 01aa 00       		.byte	0
 2521 01ab 25       		.uleb128 0x25
 2522 01ac 2E       		.uleb128 0x2e
 2523 01ad 00       		.byte	0
 2524 01ae 3F       		.uleb128 0x3f
 2525 01af 19       		.uleb128 0x19
 2526 01b0 03       		.uleb128 0x3
 2527 01b1 0E       		.uleb128 0xe
 2528 01b2 3A       		.uleb128 0x3a
 2529 01b3 0B       		.uleb128 0xb
 2530 01b4 3B       		.uleb128 0x3b
 2531 01b5 0B       		.uleb128 0xb
 2532 01b6 27       		.uleb128 0x27
 2533 01b7 19       		.uleb128 0x19
 2534 01b8 11       		.uleb128 0x11
 2535 01b9 01       		.uleb128 0x1
 2536 01ba 12       		.uleb128 0x12
 2537 01bb 06       		.uleb128 0x6
 2538 01bc 40       		.uleb128 0x40
 2539 01bd 18       		.uleb128 0x18
 2540 01be 9742     		.uleb128 0x2117
 2541 01c0 19       		.uleb128 0x19
 2542 01c1 00       		.byte	0
 2543 01c2 00       		.byte	0
 2544 01c3 26       		.uleb128 0x26
 2545 01c4 2E       		.uleb128 0x2e
 2546 01c5 01       		.byte	0x1
 2547 01c6 3F       		.uleb128 0x3f
 2548 01c7 19       		.uleb128 0x19
 2549 01c8 03       		.uleb128 0x3
 2550 01c9 0E       		.uleb128 0xe
 2551 01ca 3A       		.uleb128 0x3a
 2552 01cb 0B       		.uleb128 0xb
 2553 01cc 3B       		.uleb128 0x3b
 2554 01cd 0B       		.uleb128 0xb
 2555 01ce 27       		.uleb128 0x27
 2556 01cf 19       		.uleb128 0x19
 2557 01d0 11       		.uleb128 0x11
ARM GAS  /tmp/cch85XqM.s 			page 46


 2558 01d1 01       		.uleb128 0x1
 2559 01d2 12       		.uleb128 0x12
 2560 01d3 06       		.uleb128 0x6
 2561 01d4 40       		.uleb128 0x40
 2562 01d5 18       		.uleb128 0x18
 2563 01d6 9742     		.uleb128 0x2117
 2564 01d8 19       		.uleb128 0x19
 2565 01d9 01       		.uleb128 0x1
 2566 01da 13       		.uleb128 0x13
 2567 01db 00       		.byte	0
 2568 01dc 00       		.byte	0
 2569 01dd 27       		.uleb128 0x27
 2570 01de 05       		.uleb128 0x5
 2571 01df 00       		.byte	0
 2572 01e0 03       		.uleb128 0x3
 2573 01e1 0E       		.uleb128 0xe
 2574 01e2 3A       		.uleb128 0x3a
 2575 01e3 0B       		.uleb128 0xb
 2576 01e4 3B       		.uleb128 0x3b
 2577 01e5 0B       		.uleb128 0xb
 2578 01e6 49       		.uleb128 0x49
 2579 01e7 13       		.uleb128 0x13
 2580 01e8 02       		.uleb128 0x2
 2581 01e9 17       		.uleb128 0x17
 2582 01ea 00       		.byte	0
 2583 01eb 00       		.byte	0
 2584 01ec 28       		.uleb128 0x28
 2585 01ed 34       		.uleb128 0x34
 2586 01ee 00       		.byte	0
 2587 01ef 03       		.uleb128 0x3
 2588 01f0 08       		.uleb128 0x8
 2589 01f1 3A       		.uleb128 0x3a
 2590 01f2 0B       		.uleb128 0xb
 2591 01f3 3B       		.uleb128 0x3b
 2592 01f4 0B       		.uleb128 0xb
 2593 01f5 49       		.uleb128 0x49
 2594 01f6 13       		.uleb128 0x13
 2595 01f7 02       		.uleb128 0x2
 2596 01f8 17       		.uleb128 0x17
 2597 01f9 00       		.byte	0
 2598 01fa 00       		.byte	0
 2599 01fb 29       		.uleb128 0x29
 2600 01fc 898201   		.uleb128 0x4109
 2601 01ff 00       		.byte	0
 2602 0200 11       		.uleb128 0x11
 2603 0201 01       		.uleb128 0x1
 2604 0202 9542     		.uleb128 0x2115
 2605 0204 19       		.uleb128 0x19
 2606 0205 31       		.uleb128 0x31
 2607 0206 13       		.uleb128 0x13
 2608 0207 00       		.byte	0
 2609 0208 00       		.byte	0
 2610 0209 2A       		.uleb128 0x2a
 2611 020a 2E       		.uleb128 0x2e
 2612 020b 01       		.byte	0x1
 2613 020c 3F       		.uleb128 0x3f
 2614 020d 19       		.uleb128 0x19
ARM GAS  /tmp/cch85XqM.s 			page 47


 2615 020e 03       		.uleb128 0x3
 2616 020f 0E       		.uleb128 0xe
 2617 0210 3A       		.uleb128 0x3a
 2618 0211 0B       		.uleb128 0xb
 2619 0212 3B       		.uleb128 0x3b
 2620 0213 0B       		.uleb128 0xb
 2621 0214 27       		.uleb128 0x27
 2622 0215 19       		.uleb128 0x19
 2623 0216 49       		.uleb128 0x49
 2624 0217 13       		.uleb128 0x13
 2625 0218 11       		.uleb128 0x11
 2626 0219 01       		.uleb128 0x1
 2627 021a 12       		.uleb128 0x12
 2628 021b 06       		.uleb128 0x6
 2629 021c 40       		.uleb128 0x40
 2630 021d 18       		.uleb128 0x18
 2631 021e 9742     		.uleb128 0x2117
 2632 0220 19       		.uleb128 0x19
 2633 0221 01       		.uleb128 0x1
 2634 0222 13       		.uleb128 0x13
 2635 0223 00       		.byte	0
 2636 0224 00       		.byte	0
 2637 0225 2B       		.uleb128 0x2b
 2638 0226 34       		.uleb128 0x34
 2639 0227 00       		.byte	0
 2640 0228 03       		.uleb128 0x3
 2641 0229 08       		.uleb128 0x8
 2642 022a 3A       		.uleb128 0x3a
 2643 022b 0B       		.uleb128 0xb
 2644 022c 3B       		.uleb128 0x3b
 2645 022d 0B       		.uleb128 0xb
 2646 022e 49       		.uleb128 0x49
 2647 022f 13       		.uleb128 0x13
 2648 0230 02       		.uleb128 0x2
 2649 0231 18       		.uleb128 0x18
 2650 0232 00       		.byte	0
 2651 0233 00       		.byte	0
 2652 0234 2C       		.uleb128 0x2c
 2653 0235 898201   		.uleb128 0x4109
 2654 0238 01       		.byte	0x1
 2655 0239 11       		.uleb128 0x11
 2656 023a 01       		.uleb128 0x1
 2657 023b 31       		.uleb128 0x31
 2658 023c 13       		.uleb128 0x13
 2659 023d 01       		.uleb128 0x1
 2660 023e 13       		.uleb128 0x13
 2661 023f 00       		.byte	0
 2662 0240 00       		.byte	0
 2663 0241 2D       		.uleb128 0x2d
 2664 0242 8A8201   		.uleb128 0x410a
 2665 0245 00       		.byte	0
 2666 0246 02       		.uleb128 0x2
 2667 0247 18       		.uleb128 0x18
 2668 0248 9142     		.uleb128 0x2111
 2669 024a 18       		.uleb128 0x18
 2670 024b 00       		.byte	0
 2671 024c 00       		.byte	0
ARM GAS  /tmp/cch85XqM.s 			page 48


 2672 024d 2E       		.uleb128 0x2e
 2673 024e 898201   		.uleb128 0x4109
 2674 0251 01       		.byte	0x1
 2675 0252 11       		.uleb128 0x11
 2676 0253 01       		.uleb128 0x1
 2677 0254 31       		.uleb128 0x31
 2678 0255 13       		.uleb128 0x13
 2679 0256 00       		.byte	0
 2680 0257 00       		.byte	0
 2681 0258 2F       		.uleb128 0x2f
 2682 0259 898201   		.uleb128 0x4109
 2683 025c 00       		.byte	0
 2684 025d 11       		.uleb128 0x11
 2685 025e 01       		.uleb128 0x1
 2686 025f 31       		.uleb128 0x31
 2687 0260 13       		.uleb128 0x13
 2688 0261 00       		.byte	0
 2689 0262 00       		.byte	0
 2690 0263 30       		.uleb128 0x30
 2691 0264 05       		.uleb128 0x5
 2692 0265 00       		.byte	0
 2693 0266 03       		.uleb128 0x3
 2694 0267 08       		.uleb128 0x8
 2695 0268 3A       		.uleb128 0x3a
 2696 0269 0B       		.uleb128 0xb
 2697 026a 3B       		.uleb128 0x3b
 2698 026b 0B       		.uleb128 0xb
 2699 026c 49       		.uleb128 0x49
 2700 026d 13       		.uleb128 0x13
 2701 026e 02       		.uleb128 0x2
 2702 026f 17       		.uleb128 0x17
 2703 0270 00       		.byte	0
 2704 0271 00       		.byte	0
 2705 0272 31       		.uleb128 0x31
 2706 0273 898201   		.uleb128 0x4109
 2707 0276 01       		.byte	0x1
 2708 0277 11       		.uleb128 0x11
 2709 0278 01       		.uleb128 0x1
 2710 0279 9542     		.uleb128 0x2115
 2711 027b 19       		.uleb128 0x19
 2712 027c 31       		.uleb128 0x31
 2713 027d 13       		.uleb128 0x13
 2714 027e 00       		.byte	0
 2715 027f 00       		.byte	0
 2716 0280 32       		.uleb128 0x32
 2717 0281 2E       		.uleb128 0x2e
 2718 0282 01       		.byte	0x1
 2719 0283 3F       		.uleb128 0x3f
 2720 0284 19       		.uleb128 0x19
 2721 0285 03       		.uleb128 0x3
 2722 0286 0E       		.uleb128 0xe
 2723 0287 3A       		.uleb128 0x3a
 2724 0288 0B       		.uleb128 0xb
 2725 0289 3B       		.uleb128 0x3b
 2726 028a 05       		.uleb128 0x5
 2727 028b 27       		.uleb128 0x27
 2728 028c 19       		.uleb128 0x19
ARM GAS  /tmp/cch85XqM.s 			page 49


 2729 028d 11       		.uleb128 0x11
 2730 028e 01       		.uleb128 0x1
 2731 028f 12       		.uleb128 0x12
 2732 0290 06       		.uleb128 0x6
 2733 0291 40       		.uleb128 0x40
 2734 0292 18       		.uleb128 0x18
 2735 0293 9742     		.uleb128 0x2117
 2736 0295 19       		.uleb128 0x19
 2737 0296 01       		.uleb128 0x1
 2738 0297 13       		.uleb128 0x13
 2739 0298 00       		.byte	0
 2740 0299 00       		.byte	0
 2741 029a 33       		.uleb128 0x33
 2742 029b 34       		.uleb128 0x34
 2743 029c 00       		.byte	0
 2744 029d 03       		.uleb128 0x3
 2745 029e 08       		.uleb128 0x8
 2746 029f 3A       		.uleb128 0x3a
 2747 02a0 0B       		.uleb128 0xb
 2748 02a1 3B       		.uleb128 0x3b
 2749 02a2 05       		.uleb128 0x5
 2750 02a3 49       		.uleb128 0x49
 2751 02a4 13       		.uleb128 0x13
 2752 02a5 02       		.uleb128 0x2
 2753 02a6 17       		.uleb128 0x17
 2754 02a7 00       		.byte	0
 2755 02a8 00       		.byte	0
 2756 02a9 34       		.uleb128 0x34
 2757 02aa 1D       		.uleb128 0x1d
 2758 02ab 01       		.byte	0x1
 2759 02ac 31       		.uleb128 0x31
 2760 02ad 13       		.uleb128 0x13
 2761 02ae 52       		.uleb128 0x52
 2762 02af 01       		.uleb128 0x1
 2763 02b0 55       		.uleb128 0x55
 2764 02b1 17       		.uleb128 0x17
 2765 02b2 58       		.uleb128 0x58
 2766 02b3 0B       		.uleb128 0xb
 2767 02b4 59       		.uleb128 0x59
 2768 02b5 05       		.uleb128 0x5
 2769 02b6 01       		.uleb128 0x1
 2770 02b7 13       		.uleb128 0x13
 2771 02b8 00       		.byte	0
 2772 02b9 00       		.byte	0
 2773 02ba 35       		.uleb128 0x35
 2774 02bb 34       		.uleb128 0x34
 2775 02bc 00       		.byte	0
 2776 02bd 03       		.uleb128 0x3
 2777 02be 0E       		.uleb128 0xe
 2778 02bf 3A       		.uleb128 0x3a
 2779 02c0 0B       		.uleb128 0xb
 2780 02c1 3B       		.uleb128 0x3b
 2781 02c2 0B       		.uleb128 0xb
 2782 02c3 49       		.uleb128 0x49
 2783 02c4 13       		.uleb128 0x13
 2784 02c5 3F       		.uleb128 0x3f
 2785 02c6 19       		.uleb128 0x19
ARM GAS  /tmp/cch85XqM.s 			page 50


 2786 02c7 02       		.uleb128 0x2
 2787 02c8 18       		.uleb128 0x18
 2788 02c9 00       		.byte	0
 2789 02ca 00       		.byte	0
 2790 02cb 36       		.uleb128 0x36
 2791 02cc 2E       		.uleb128 0x2e
 2792 02cd 01       		.byte	0x1
 2793 02ce 3F       		.uleb128 0x3f
 2794 02cf 19       		.uleb128 0x19
 2795 02d0 03       		.uleb128 0x3
 2796 02d1 0E       		.uleb128 0xe
 2797 02d2 3A       		.uleb128 0x3a
 2798 02d3 0B       		.uleb128 0xb
 2799 02d4 3B       		.uleb128 0x3b
 2800 02d5 05       		.uleb128 0x5
 2801 02d6 27       		.uleb128 0x27
 2802 02d7 19       		.uleb128 0x19
 2803 02d8 3C       		.uleb128 0x3c
 2804 02d9 19       		.uleb128 0x19
 2805 02da 01       		.uleb128 0x1
 2806 02db 13       		.uleb128 0x13
 2807 02dc 00       		.byte	0
 2808 02dd 00       		.byte	0
 2809 02de 37       		.uleb128 0x37
 2810 02df 2E       		.uleb128 0x2e
 2811 02e0 01       		.byte	0x1
 2812 02e1 3F       		.uleb128 0x3f
 2813 02e2 19       		.uleb128 0x19
 2814 02e3 03       		.uleb128 0x3
 2815 02e4 0E       		.uleb128 0xe
 2816 02e5 3A       		.uleb128 0x3a
 2817 02e6 0B       		.uleb128 0xb
 2818 02e7 3B       		.uleb128 0x3b
 2819 02e8 0B       		.uleb128 0xb
 2820 02e9 27       		.uleb128 0x27
 2821 02ea 19       		.uleb128 0x19
 2822 02eb 3C       		.uleb128 0x3c
 2823 02ec 19       		.uleb128 0x19
 2824 02ed 01       		.uleb128 0x1
 2825 02ee 13       		.uleb128 0x13
 2826 02ef 00       		.byte	0
 2827 02f0 00       		.byte	0
 2828 02f1 38       		.uleb128 0x38
 2829 02f2 2E       		.uleb128 0x2e
 2830 02f3 01       		.byte	0x1
 2831 02f4 3F       		.uleb128 0x3f
 2832 02f5 19       		.uleb128 0x19
 2833 02f6 03       		.uleb128 0x3
 2834 02f7 0E       		.uleb128 0xe
 2835 02f8 3A       		.uleb128 0x3a
 2836 02f9 0B       		.uleb128 0xb
 2837 02fa 3B       		.uleb128 0x3b
 2838 02fb 0B       		.uleb128 0xb
 2839 02fc 27       		.uleb128 0x27
 2840 02fd 19       		.uleb128 0x19
 2841 02fe 3C       		.uleb128 0x3c
 2842 02ff 19       		.uleb128 0x19
ARM GAS  /tmp/cch85XqM.s 			page 51


 2843 0300 00       		.byte	0
 2844 0301 00       		.byte	0
 2845 0302 00       		.byte	0
 2846              		.section	.debug_loc,"",%progbits
 2847              	.Ldebug_loc0:
 2848              	.LLST0:
 2849 0000 20000000 		.4byte	.LVL1-.Ltext0
 2850 0004 36000000 		.4byte	.LVL4-.Ltext0
 2851 0008 0100     		.2byte	0x1
 2852 000a 50       		.byte	0x50
 2853 000b 00000000 		.4byte	0
 2854 000f 00000000 		.4byte	0
 2855              	.LLST1:
 2856 0013 22000000 		.4byte	.LVL2-.Ltext0
 2857 0017 36000000 		.4byte	.LVL4-.Ltext0
 2858 001b 0600     		.2byte	0x6
 2859 001d 03       		.byte	0x3
 2860 001e 00000000 		.4byte	rlist
 2861 0022 9F       		.byte	0x9f
 2862 0023 00000000 		.4byte	0
 2863 0027 00000000 		.4byte	0
 2864              	.LLST2:
 2865 002b 22000000 		.4byte	.LVL2-.Ltext0
 2866 002f 36000000 		.4byte	.LVL4-.Ltext0
 2867 0033 0100     		.2byte	0x1
 2868 0035 50       		.byte	0x50
 2869 0036 00000000 		.4byte	0
 2870 003a 00000000 		.4byte	0
 2871              	.LLST3:
 2872 003e 22000000 		.4byte	.LVL2-.Ltext0
 2873 0042 36000000 		.4byte	.LVL4-.Ltext0
 2874 0046 0100     		.2byte	0x1
 2875 0048 52       		.byte	0x52
 2876 0049 00000000 		.4byte	0
 2877 004d 00000000 		.4byte	0
 2878              	.LLST4:
 2879 0051 80000000 		.4byte	.LVL6-.Ltext0
 2880 0055 9C000000 		.4byte	.LVL9-.Ltext0
 2881 0059 0100     		.2byte	0x1
 2882 005b 50       		.byte	0x50
 2883 005c 9C000000 		.4byte	.LVL9-.Ltext0
 2884 0060 A4000000 		.4byte	.LVL10-.Ltext0
 2885 0064 0100     		.2byte	0x1
 2886 0066 54       		.byte	0x54
 2887 0067 A4000000 		.4byte	.LVL10-.Ltext0
 2888 006b AC000000 		.4byte	.LFE8-.Ltext0
 2889 006f 0100     		.2byte	0x1
 2890 0071 50       		.byte	0x50
 2891 0072 00000000 		.4byte	0
 2892 0076 00000000 		.4byte	0
 2893              	.LLST5:
 2894 007a B0000000 		.4byte	.LVL11-.Ltext0
 2895 007e C0000000 		.4byte	.LVL13-.Ltext0
 2896 0082 0100     		.2byte	0x1
 2897 0084 50       		.byte	0x50
 2898 0085 C0000000 		.4byte	.LVL13-.Ltext0
 2899 0089 C6000000 		.4byte	.LVL15-.Ltext0
ARM GAS  /tmp/cch85XqM.s 			page 52


 2900 008d 0200     		.2byte	0x2
 2901 008f 71       		.byte	0x71
 2902 0090 1C       		.sleb128 28
 2903 0091 C6000000 		.4byte	.LVL15-.Ltext0
 2904 0095 D8000000 		.4byte	.LFE9-.Ltext0
 2905 0099 0400     		.2byte	0x4
 2906 009b F3       		.byte	0xf3
 2907 009c 01       		.uleb128 0x1
 2908 009d 50       		.byte	0x50
 2909 009e 9F       		.byte	0x9f
 2910 009f 00000000 		.4byte	0
 2911 00a3 00000000 		.4byte	0
 2912              	.LLST6:
 2913 00a7 B8000000 		.4byte	.LVL12-.Ltext0
 2914 00ab D1000000 		.4byte	.LVL16-1-.Ltext0
 2915 00af 0100     		.2byte	0x1
 2916 00b1 51       		.byte	0x51
 2917 00b2 00000000 		.4byte	0
 2918 00b6 00000000 		.4byte	0
 2919              	.LLST7:
 2920 00ba C2000000 		.4byte	.LVL14-.Ltext0
 2921 00be D1000000 		.4byte	.LVL16-1-.Ltext0
 2922 00c2 0100     		.2byte	0x1
 2923 00c4 52       		.byte	0x52
 2924 00c5 00000000 		.4byte	0
 2925 00c9 00000000 		.4byte	0
 2926              	.LLST8:
 2927 00cd E0000000 		.4byte	.LVL17-.Ltext0
 2928 00d1 F2000000 		.4byte	.LVL18-.Ltext0
 2929 00d5 0100     		.2byte	0x1
 2930 00d7 50       		.byte	0x50
 2931 00d8 F2000000 		.4byte	.LVL18-.Ltext0
 2932 00dc 0E010000 		.4byte	.LVL22-.Ltext0
 2933 00e0 0400     		.2byte	0x4
 2934 00e2 F3       		.byte	0xf3
 2935 00e3 01       		.uleb128 0x1
 2936 00e4 50       		.byte	0x50
 2937 00e5 9F       		.byte	0x9f
 2938 00e6 0E010000 		.4byte	.LVL22-.Ltext0
 2939 00ea 13010000 		.4byte	.LVL23-1-.Ltext0
 2940 00ee 0100     		.2byte	0x1
 2941 00f0 50       		.byte	0x50
 2942 00f1 13010000 		.4byte	.LVL23-1-.Ltext0
 2943 00f5 24010000 		.4byte	.LFE11-.Ltext0
 2944 00f9 0400     		.2byte	0x4
 2945 00fb F3       		.byte	0xf3
 2946 00fc 01       		.uleb128 0x1
 2947 00fd 50       		.byte	0x50
 2948 00fe 9F       		.byte	0x9f
 2949 00ff 00000000 		.4byte	0
 2950 0103 00000000 		.4byte	0
 2951              	.LLST9:
 2952 0107 E0000000 		.4byte	.LVL17-.Ltext0
 2953 010b F5000000 		.4byte	.LVL19-1-.Ltext0
 2954 010f 0100     		.2byte	0x1
 2955 0111 51       		.byte	0x51
 2956 0112 F5000000 		.4byte	.LVL19-1-.Ltext0
ARM GAS  /tmp/cch85XqM.s 			page 53


 2957 0116 0E010000 		.4byte	.LVL22-.Ltext0
 2958 011a 0400     		.2byte	0x4
 2959 011c F3       		.byte	0xf3
 2960 011d 01       		.uleb128 0x1
 2961 011e 51       		.byte	0x51
 2962 011f 9F       		.byte	0x9f
 2963 0120 0E010000 		.4byte	.LVL22-.Ltext0
 2964 0124 13010000 		.4byte	.LVL23-1-.Ltext0
 2965 0128 0100     		.2byte	0x1
 2966 012a 51       		.byte	0x51
 2967 012b 13010000 		.4byte	.LVL23-1-.Ltext0
 2968 012f 24010000 		.4byte	.LFE11-.Ltext0
 2969 0133 0400     		.2byte	0x4
 2970 0135 F3       		.byte	0xf3
 2971 0136 01       		.uleb128 0x1
 2972 0137 51       		.byte	0x51
 2973 0138 9F       		.byte	0x9f
 2974 0139 00000000 		.4byte	0
 2975 013d 00000000 		.4byte	0
 2976              	.LLST10:
 2977 0141 30010000 		.4byte	.LVL24-.Ltext0
 2978 0145 3C010000 		.4byte	.LVL25-.Ltext0
 2979 0149 0100     		.2byte	0x1
 2980 014b 50       		.byte	0x50
 2981 014c 3C010000 		.4byte	.LVL25-.Ltext0
 2982 0150 5C010000 		.4byte	.LVL29-.Ltext0
 2983 0154 0100     		.2byte	0x1
 2984 0156 55       		.byte	0x55
 2985 0157 5C010000 		.4byte	.LVL29-.Ltext0
 2986 015b 5E010000 		.4byte	.LVL30-.Ltext0
 2987 015f 0200     		.2byte	0x2
 2988 0161 73       		.byte	0x73
 2989 0162 04       		.sleb128 4
 2990 0163 5E010000 		.4byte	.LVL30-.Ltext0
 2991 0167 80010000 		.4byte	.LVL34-.Ltext0
 2992 016b 0100     		.2byte	0x1
 2993 016d 55       		.byte	0x55
 2994 016e 80010000 		.4byte	.LVL34-.Ltext0
 2995 0172 83010000 		.4byte	.LVL35-1-.Ltext0
 2996 0176 0100     		.2byte	0x1
 2997 0178 50       		.byte	0x50
 2998 0179 83010000 		.4byte	.LVL35-1-.Ltext0
 2999 017d 88010000 		.4byte	.LFE12-.Ltext0
 3000 0181 0400     		.2byte	0x4
 3001 0183 F3       		.byte	0xf3
 3002 0184 01       		.uleb128 0x1
 3003 0185 50       		.byte	0x50
 3004 0186 9F       		.byte	0x9f
 3005 0187 00000000 		.4byte	0
 3006 018b 00000000 		.4byte	0
 3007              	.LLST11:
 3008 018f 30010000 		.4byte	.LVL24-.Ltext0
 3009 0193 62010000 		.4byte	.LVL32-.Ltext0
 3010 0197 0100     		.2byte	0x1
 3011 0199 51       		.byte	0x51
 3012 019a 62010000 		.4byte	.LVL32-.Ltext0
 3013 019e 80010000 		.4byte	.LVL34-.Ltext0
ARM GAS  /tmp/cch85XqM.s 			page 54


 3014 01a2 0200     		.2byte	0x2
 3015 01a4 75       		.byte	0x75
 3016 01a5 20       		.sleb128 32
 3017 01a6 80010000 		.4byte	.LVL34-.Ltext0
 3018 01aa 83010000 		.4byte	.LVL35-1-.Ltext0
 3019 01ae 0200     		.2byte	0x2
 3020 01b0 70       		.byte	0x70
 3021 01b1 20       		.sleb128 32
 3022 01b2 83010000 		.4byte	.LVL35-1-.Ltext0
 3023 01b6 88010000 		.4byte	.LFE12-.Ltext0
 3024 01ba 0400     		.2byte	0x4
 3025 01bc F3       		.byte	0xf3
 3026 01bd 01       		.uleb128 0x1
 3027 01be 51       		.byte	0x51
 3028 01bf 9F       		.byte	0x9f
 3029 01c0 00000000 		.4byte	0
 3030 01c4 00000000 		.4byte	0
 3031              	.LLST12:
 3032 01c8 46010000 		.4byte	.LVL26-.Ltext0
 3033 01cc 5C010000 		.4byte	.LVL29-.Ltext0
 3034 01d0 0100     		.2byte	0x1
 3035 01d2 55       		.byte	0x55
 3036 01d3 5C010000 		.4byte	.LVL29-.Ltext0
 3037 01d7 5E010000 		.4byte	.LVL30-.Ltext0
 3038 01db 0200     		.2byte	0x2
 3039 01dd 73       		.byte	0x73
 3040 01de 04       		.sleb128 4
 3041 01df 00000000 		.4byte	0
 3042 01e3 00000000 		.4byte	0
 3043              	.LLST13:
 3044 01e7 48010000 		.4byte	.LVL27-.Ltext0
 3045 01eb 5E010000 		.4byte	.LVL30-.Ltext0
 3046 01ef 0100     		.2byte	0x1
 3047 01f1 53       		.byte	0x53
 3048 01f2 00000000 		.4byte	0
 3049 01f6 00000000 		.4byte	0
 3050              	.LLST14:
 3051 01fa 5E010000 		.4byte	.LVL30-.Ltext0
 3052 01fe 80010000 		.4byte	.LVL34-.Ltext0
 3053 0202 0100     		.2byte	0x1
 3054 0204 56       		.byte	0x56
 3055 0205 80010000 		.4byte	.LVL34-.Ltext0
 3056 0209 83010000 		.4byte	.LVL35-1-.Ltext0
 3057 020d 0100     		.2byte	0x1
 3058 020f 51       		.byte	0x51
 3059 0210 00000000 		.4byte	0
 3060 0214 00000000 		.4byte	0
 3061              	.LLST15:
 3062 0218 60010000 		.4byte	.LVL31-.Ltext0
 3063 021c 62010000 		.4byte	.LVL32-.Ltext0
 3064 0220 0600     		.2byte	0x6
 3065 0222 03       		.byte	0x3
 3066 0223 00000000 		.4byte	rlist
 3067 0227 9F       		.byte	0x9f
 3068 0228 62010000 		.4byte	.LVL32-.Ltext0
 3069 022c 83010000 		.4byte	.LVL35-1-.Ltext0
 3070 0230 0100     		.2byte	0x1
ARM GAS  /tmp/cch85XqM.s 			page 55


 3071 0232 52       		.byte	0x52
 3072 0233 00000000 		.4byte	0
 3073 0237 00000000 		.4byte	0
 3074              	.LLST16:
 3075 023b 9A010000 		.4byte	.LVL36-.Ltext0
 3076 023f C8010000 		.4byte	.LVL41-.Ltext0
 3077 0243 0100     		.2byte	0x1
 3078 0245 54       		.byte	0x54
 3079 0246 C8010000 		.4byte	.LVL41-.Ltext0
 3080 024a CB010000 		.4byte	.LVL42-1-.Ltext0
 3081 024e 0100     		.2byte	0x1
 3082 0250 51       		.byte	0x51
 3083 0251 00000000 		.4byte	0
 3084 0255 00000000 		.4byte	0
 3085              	.LLST17:
 3086 0259 9A010000 		.4byte	.LVL36-.Ltext0
 3087 025d CB010000 		.4byte	.LVL42-1-.Ltext0
 3088 0261 0100     		.2byte	0x1
 3089 0263 50       		.byte	0x50
 3090 0264 00000000 		.4byte	0
 3091 0268 00000000 		.4byte	0
 3092              	.LLST18:
 3093 026c AE010000 		.4byte	.LVL37-.Ltext0
 3094 0270 C8010000 		.4byte	.LVL41-.Ltext0
 3095 0274 0100     		.2byte	0x1
 3096 0276 54       		.byte	0x54
 3097 0277 C8010000 		.4byte	.LVL41-.Ltext0
 3098 027b CB010000 		.4byte	.LVL42-1-.Ltext0
 3099 027f 0100     		.2byte	0x1
 3100 0281 51       		.byte	0x51
 3101 0282 00000000 		.4byte	0
 3102 0286 00000000 		.4byte	0
 3103              	.LLST19:
 3104 028a B0010000 		.4byte	.LVL38-.Ltext0
 3105 028e B2010000 		.4byte	.LVL39-.Ltext0
 3106 0292 0600     		.2byte	0x6
 3107 0294 03       		.byte	0x3
 3108 0295 00000000 		.4byte	rlist
 3109 0299 9F       		.byte	0x9f
 3110 029a B2010000 		.4byte	.LVL39-.Ltext0
 3111 029e CB010000 		.4byte	.LVL42-1-.Ltext0
 3112 02a2 0100     		.2byte	0x1
 3113 02a4 53       		.byte	0x53
 3114 02a5 00000000 		.4byte	0
 3115 02a9 00000000 		.4byte	0
 3116              	.LLST20:
 3117 02ad DA010000 		.4byte	.LVL43-.Ltext0
 3118 02b1 04020000 		.4byte	.LVL47-.Ltext0
 3119 02b5 0100     		.2byte	0x1
 3120 02b7 54       		.byte	0x54
 3121 02b8 04020000 		.4byte	.LVL47-.Ltext0
 3122 02bc 07020000 		.4byte	.LVL48-1-.Ltext0
 3123 02c0 0100     		.2byte	0x1
 3124 02c2 51       		.byte	0x51
 3125 02c3 00000000 		.4byte	0
 3126 02c7 00000000 		.4byte	0
 3127              	.LLST21:
ARM GAS  /tmp/cch85XqM.s 			page 56


 3128 02cb EC010000 		.4byte	.LVL44-.Ltext0
 3129 02cf EE010000 		.4byte	.LVL45-.Ltext0
 3130 02d3 0600     		.2byte	0x6
 3131 02d5 03       		.byte	0x3
 3132 02d6 00000000 		.4byte	rlist
 3133 02da 9F       		.byte	0x9f
 3134 02db EE010000 		.4byte	.LVL45-.Ltext0
 3135 02df 07020000 		.4byte	.LVL48-1-.Ltext0
 3136 02e3 0100     		.2byte	0x1
 3137 02e5 53       		.byte	0x53
 3138 02e6 00000000 		.4byte	0
 3139 02ea 00000000 		.4byte	0
 3140              	.LLST22:
 3141 02ee DA010000 		.4byte	.LVL43-.Ltext0
 3142 02f2 07020000 		.4byte	.LVL48-1-.Ltext0
 3143 02f6 0100     		.2byte	0x1
 3144 02f8 50       		.byte	0x50
 3145 02f9 00000000 		.4byte	0
 3146 02fd 00000000 		.4byte	0
 3147              		.section	.debug_aranges,"",%progbits
 3148 0000 1C000000 		.4byte	0x1c
 3149 0004 0200     		.2byte	0x2
 3150 0006 00000000 		.4byte	.Ldebug_info0
 3151 000a 04       		.byte	0x4
 3152 000b 00       		.byte	0
 3153 000c 0000     		.2byte	0
 3154 000e 0000     		.2byte	0
 3155 0010 00000000 		.4byte	.Ltext0
 3156 0014 44020000 		.4byte	.Letext0-.Ltext0
 3157 0018 00000000 		.4byte	0
 3158 001c 00000000 		.4byte	0
 3159              		.section	.debug_ranges,"",%progbits
 3160              	.Ldebug_ranges0:
 3161 0000 18000000 		.4byte	.LBB45-.Ltext0
 3162 0004 1C000000 		.4byte	.LBE45-.Ltext0
 3163 0008 20000000 		.4byte	.LBB59-.Ltext0
 3164 000c 22000000 		.4byte	.LBE59-.Ltext0
 3165 0010 00000000 		.4byte	0
 3166 0014 00000000 		.4byte	0
 3167 0018 1C000000 		.4byte	.LBB48-.Ltext0
 3168 001c 1E000000 		.4byte	.LBE48-.Ltext0
 3169 0020 22000000 		.4byte	.LBB60-.Ltext0
 3170 0024 3A000000 		.4byte	.LBE60-.Ltext0
 3171 0028 00000000 		.4byte	0
 3172 002c 00000000 		.4byte	0
 3173 0030 1C000000 		.4byte	.LBB50-.Ltext0
 3174 0034 1E000000 		.4byte	.LBE50-.Ltext0
 3175 0038 22000000 		.4byte	.LBB54-.Ltext0
 3176 003c 30000000 		.4byte	.LBE54-.Ltext0
 3177 0040 32000000 		.4byte	.LBB56-.Ltext0
 3178 0044 36000000 		.4byte	.LBE56-.Ltext0
 3179 0048 00000000 		.4byte	0
 3180 004c 00000000 		.4byte	0
 3181 0050 30000000 		.4byte	.LBB55-.Ltext0
 3182 0054 32000000 		.4byte	.LBE55-.Ltext0
 3183 0058 36000000 		.4byte	.LBB57-.Ltext0
 3184 005c 3A000000 		.4byte	.LBE57-.Ltext0
ARM GAS  /tmp/cch85XqM.s 			page 57


 3185 0060 00000000 		.4byte	0
 3186 0064 00000000 		.4byte	0
 3187 0068 B4000000 		.4byte	.LBB63-.Ltext0
 3188 006c B6000000 		.4byte	.LBE63-.Ltext0
 3189 0070 B8000000 		.4byte	.LBB68-.Ltext0
 3190 0074 BA000000 		.4byte	.LBE68-.Ltext0
 3191 0078 C2000000 		.4byte	.LBB69-.Ltext0
 3192 007c C4000000 		.4byte	.LBE69-.Ltext0
 3193 0080 C6000000 		.4byte	.LBB70-.Ltext0
 3194 0084 C8000000 		.4byte	.LBE70-.Ltext0
 3195 0088 00000000 		.4byte	0
 3196 008c 00000000 		.4byte	0
 3197 0090 40010000 		.4byte	.LBB72-.Ltext0
 3198 0094 44010000 		.4byte	.LBE72-.Ltext0
 3199 0098 46010000 		.4byte	.LBB75-.Ltext0
 3200 009c 5A010000 		.4byte	.LBE75-.Ltext0
 3201 00a0 00000000 		.4byte	0
 3202 00a4 00000000 		.4byte	0
 3203 00a8 5E010000 		.4byte	.LBB76-.Ltext0
 3204 00ac 7E010000 		.4byte	.LBE76-.Ltext0
 3205 00b0 80010000 		.4byte	.LBB81-.Ltext0
 3206 00b4 88010000 		.4byte	.LBE81-.Ltext0
 3207 00b8 00000000 		.4byte	0
 3208 00bc 00000000 		.4byte	0
 3209 00c0 5E010000 		.4byte	.LBB77-.Ltext0
 3210 00c4 6E010000 		.4byte	.LBE77-.Ltext0
 3211 00c8 70010000 		.4byte	.LBB80-.Ltext0
 3212 00cc 76010000 		.4byte	.LBE80-.Ltext0
 3213 00d0 00000000 		.4byte	0
 3214 00d4 00000000 		.4byte	0
 3215 00d8 92010000 		.4byte	.LBB82-.Ltext0
 3216 00dc 94010000 		.4byte	.LBE82-.Ltext0
 3217 00e0 96010000 		.4byte	.LBB87-.Ltext0
 3218 00e4 98010000 		.4byte	.LBE87-.Ltext0
 3219 00e8 9A010000 		.4byte	.LBB88-.Ltext0
 3220 00ec 9C010000 		.4byte	.LBE88-.Ltext0
 3221 00f0 A4010000 		.4byte	.LBB94-.Ltext0
 3222 00f4 A6010000 		.4byte	.LBE94-.Ltext0
 3223 00f8 00000000 		.4byte	0
 3224 00fc 00000000 		.4byte	0
 3225 0100 A0010000 		.4byte	.LBB89-.Ltext0
 3226 0104 A4010000 		.4byte	.LBE89-.Ltext0
 3227 0108 A8010000 		.4byte	.LBB95-.Ltext0
 3228 010c AA010000 		.4byte	.LBE95-.Ltext0
 3229 0110 AE010000 		.4byte	.LBB96-.Ltext0
 3230 0114 C0010000 		.4byte	.LBE96-.Ltext0
 3231 0118 C2010000 		.4byte	.LBB97-.Ltext0
 3232 011c C6010000 		.4byte	.LBE97-.Ltext0
 3233 0120 00000000 		.4byte	0
 3234 0124 00000000 		.4byte	0
 3235 0128 D2010000 		.4byte	.LBB98-.Ltext0
 3236 012c D4010000 		.4byte	.LBE98-.Ltext0
 3237 0130 D6010000 		.4byte	.LBB103-.Ltext0
 3238 0134 D8010000 		.4byte	.LBE103-.Ltext0
 3239 0138 DA010000 		.4byte	.LBB104-.Ltext0
 3240 013c DC010000 		.4byte	.LBE104-.Ltext0
 3241 0140 E2010000 		.4byte	.LBB105-.Ltext0
ARM GAS  /tmp/cch85XqM.s 			page 58


 3242 0144 E4010000 		.4byte	.LBE105-.Ltext0
 3243 0148 00000000 		.4byte	0
 3244 014c 00000000 		.4byte	0
 3245              		.section	.debug_line,"",%progbits
 3246              	.Ldebug_line0:
 3247 0000 76030000 		.section	.debug_str,"MS",%progbits,1
 3247      0200E001 
 3247      00000201 
 3247      FB0E0D00 
 3247      01010101 
 3248              	.LASF37:
 3249 0000 705F6D73 		.ascii	"p_msg\000"
 3249      6700
 3250              	.LASF68:
 3251 0006 7264796D 		.ascii	"rdymsg\000"
 3251      736700
 3252              	.LASF80:
 3253 000d 63685363 		.ascii	"chSchDoRescheduleAhead\000"
 3253      68446F52 
 3253      65736368 
 3253      6564756C 
 3253      65416865 
 3254              	.LASF5:
 3255 0024 5F5F7569 		.ascii	"__uint8_t\000"
 3255      6E74385F 
 3255      7400
 3256              	.LASF11:
 3257 002e 6C6F6E67 		.ascii	"long long unsigned int\000"
 3257      206C6F6E 
 3257      6720756E 
 3257      7369676E 
 3257      65642069 
 3258              	.LASF27:
 3259 0045 705F7072 		.ascii	"p_prio\000"
 3259      696F00
 3260              	.LASF89:
 3261 004c 5F736368 		.ascii	"_scheduler_init\000"
 3261      6564756C 
 3261      65725F69 
 3261      6E697400 
 3262              	.LASF10:
 3263 005c 6C6F6E67 		.ascii	"long long int\000"
 3263      206C6F6E 
 3263      6720696E 
 3263      7400
 3264              	.LASF1:
 3265 006a 7369676E 		.ascii	"signed char\000"
 3265      65642063 
 3265      68617200 
 3266              	.LASF65:
 3267 0076 6D5F7175 		.ascii	"m_queue\000"
 3267      65756500 
 3268              	.LASF18:
 3269 007e 74736C69 		.ascii	"tslices_t\000"
 3269      6365735F 
 3269      7400
 3270              	.LASF7:
ARM GAS  /tmp/cch85XqM.s 			page 59


 3271 0088 6C6F6E67 		.ascii	"long int\000"
 3271      20696E74 
 3271      00
 3272              	.LASF17:
 3273 0091 74737461 		.ascii	"tstate_t\000"
 3273      74655F74 
 3273      00
 3274              	.LASF29:
 3275 009a 705F6E65 		.ascii	"p_newer\000"
 3275      77657200 
 3276              	.LASF62:
 3277 00a2 735F7175 		.ascii	"s_queue\000"
 3277      65756500 
 3278              	.LASF69:
 3279 00aa 65786974 		.ascii	"exitcode\000"
 3279      636F6465 
 3279      00
 3280              	.LASF81:
 3281 00b3 63685363 		.ascii	"chSchRescheduleS\000"
 3281      68526573 
 3281      63686564 
 3281      756C6553 
 3281      00
 3282              	.LASF8:
 3283 00c4 5F5F7569 		.ascii	"__uint32_t\000"
 3283      6E743332 
 3283      5F7400
 3284              	.LASF43:
 3285 00cf 72656761 		.ascii	"regarm_t\000"
 3285      726D5F74 
 3285      00
 3286              	.LASF50:
 3287 00d8 76745F70 		.ascii	"vt_prev\000"
 3287      72657600 
 3288              	.LASF82:
 3289 00e0 63685363 		.ascii	"chSchDoReschedule\000"
 3289      68446F52 
 3289      65736368 
 3289      6564756C 
 3289      6500
 3290              	.LASF23:
 3291 00f2 636E745F 		.ascii	"cnt_t\000"
 3291      7400
 3292              	.LASF0:
 3293 00f8 756E7369 		.ascii	"unsigned int\000"
 3293      676E6564 
 3293      20696E74 
 3293      00
 3294              	.LASF88:
 3295 0105 77616B65 		.ascii	"wakeup\000"
 3295      757000
 3296              	.LASF49:
 3297 010c 76745F6E 		.ascii	"vt_next\000"
 3297      65787400 
 3298              	.LASF83:
 3299 0114 5F706F72 		.ascii	"_port_switch\000"
 3299      745F7377 
ARM GAS  /tmp/cch85XqM.s 			page 60


 3299      69746368 
 3299      00
 3300              	.LASF9:
 3301 0121 6C6F6E67 		.ascii	"long unsigned int\000"
 3301      20756E73 
 3301      69676E65 
 3301      6420696E 
 3301      7400
 3302              	.LASF47:
 3303 0133 76746675 		.ascii	"vtfunc_t\000"
 3303      6E635F74 
 3303      00
 3304              	.LASF48:
 3305 013c 56697274 		.ascii	"VirtualTimer\000"
 3305      75616C54 
 3305      696D6572 
 3305      00
 3306              	.LASF63:
 3307 0149 735F636E 		.ascii	"s_cnt\000"
 3307      7400
 3308              	.LASF4:
 3309 014f 73686F72 		.ascii	"short unsigned int\000"
 3309      7420756E 
 3309      7369676E 
 3309      65642069 
 3309      6E7400
 3310              	.LASF78:
 3311 0162 63685363 		.ascii	"chSchWakeupS\000"
 3311      6857616B 
 3311      65757053 
 3311      00
 3312              	.LASF20:
 3313 016f 6D73675F 		.ascii	"msg_t\000"
 3313      7400
 3314              	.LASF57:
 3315 0175 725F6E65 		.ascii	"r_newer\000"
 3315      77657200 
 3316              	.LASF16:
 3317 017d 746D6F64 		.ascii	"tmode_t\000"
 3317      655F7400 
 3318              	.LASF42:
 3319 0185 54687265 		.ascii	"ThreadsList\000"
 3319      6164734C 
 3319      69737400 
 3320              	.LASF21:
 3321 0191 6576656E 		.ascii	"eventmask_t\000"
 3321      746D6173 
 3321      6B5F7400 
 3322              	.LASF64:
 3323 019d 4D757465 		.ascii	"Mutex\000"
 3323      7800
 3324              	.LASF51:
 3325 01a3 76745F74 		.ascii	"vt_time\000"
 3325      696D6500 
 3326              	.LASF46:
 3327 01ab 73697A65 		.ascii	"sizetype\000"
 3327      74797065 
ARM GAS  /tmp/cch85XqM.s 			page 61


 3327      00
 3328              	.LASF52:
 3329 01b4 76745F66 		.ascii	"vt_func\000"
 3329      756E6300 
 3330              	.LASF79:
 3331 01bc 63685363 		.ascii	"chSchDoRescheduleBehind\000"
 3331      68446F52 
 3331      65736368 
 3331      6564756C 
 3331      65426568 
 3332              	.LASF84:
 3333 01d4 63685654 		.ascii	"chVTSetI\000"
 3333      53657449 
 3333      00
 3334              	.LASF30:
 3335 01dd 705F6F6C 		.ascii	"p_older\000"
 3335      64657200 
 3336              	.LASF56:
 3337 01e5 725F6374 		.ascii	"r_ctx\000"
 3337      7800
 3338              	.LASF41:
 3339 01eb 54687265 		.ascii	"ThreadsQueue\000"
 3339      61647351 
 3339      75657565 
 3339      00
 3340              	.LASF73:
 3341 01f8 64657175 		.ascii	"dequeue\000"
 3341      65756500 
 3342              	.LASF59:
 3343 0200 725F6375 		.ascii	"r_current\000"
 3343      7272656E 
 3343      7400
 3344              	.LASF58:
 3345 020a 725F6F6C 		.ascii	"r_older\000"
 3345      64657200 
 3346              	.LASF26:
 3347 0212 705F7072 		.ascii	"p_prev\000"
 3347      657600
 3348              	.LASF19:
 3349 0219 74707269 		.ascii	"tprio_t\000"
 3349      6F5F7400 
 3350              	.LASF15:
 3351 0221 5F426F6F 		.ascii	"_Bool\000"
 3351      6C00
 3352              	.LASF13:
 3353 0227 696E7433 		.ascii	"int32_t\000"
 3353      325F7400 
 3354              	.LASF2:
 3355 022f 756E7369 		.ascii	"unsigned char\000"
 3355      676E6564 
 3355      20636861 
 3355      7200
 3356              	.LASF75:
 3357 023d 6E657773 		.ascii	"newstate\000"
 3357      74617465 
 3357      00
 3358              	.LASF39:
ARM GAS  /tmp/cch85XqM.s 			page 62


 3359 0246 705F6D74 		.ascii	"p_mtxlist\000"
 3359      786C6973 
 3359      7400
 3360              	.LASF3:
 3361 0250 73686F72 		.ascii	"short int\000"
 3361      7420696E 
 3361      7400
 3362              	.LASF32:
 3363 025a 705F7374 		.ascii	"p_state\000"
 3363      61746500 
 3364              	.LASF34:
 3365 0262 705F7072 		.ascii	"p_preempt\000"
 3365      65656D70 
 3365      7400
 3366              	.LASF55:
 3367 026c 725F7072 		.ascii	"r_prio\000"
 3367      696F00
 3368              	.LASF71:
 3369 0273 65776D61 		.ascii	"ewmask\000"
 3369      736B00
 3370              	.LASF25:
 3371 027a 705F6E65 		.ascii	"p_next\000"
 3371      787400
 3372              	.LASF33:
 3373 0281 705F666C 		.ascii	"p_flags\000"
 3373      61677300 
 3374              	.LASF24:
 3375 0289 54687265 		.ascii	"Thread\000"
 3375      616400
 3376              	.LASF92:
 3377 0290 63685654 		.ascii	"chVTResetI\000"
 3377      52657365 
 3377      744900
 3378              	.LASF77:
 3379 029b 63685363 		.ascii	"chSchGoSleepS\000"
 3379      68476F53 
 3379      6C656570 
 3379      5300
 3380              	.LASF38:
 3381 02a9 705F6570 		.ascii	"p_epending\000"
 3381      656E6469 
 3381      6E6700
 3382              	.LASF14:
 3383 02b4 75696E74 		.ascii	"uint32_t\000"
 3383      33325F74 
 3383      00
 3384              	.LASF54:
 3385 02bd 725F7175 		.ascii	"r_queue\000"
 3385      65756500 
 3386              	.LASF72:
 3387 02c5 63686172 		.ascii	"char\000"
 3387      00
 3388              	.LASF74:
 3389 02ca 6669666F 		.ascii	"fifo_remove\000"
 3389      5F72656D 
 3389      6F766500 
 3390              	.LASF87:
ARM GAS  /tmp/cch85XqM.s 			page 63


 3391 02d6 63685363 		.ascii	"chSchReadyI\000"
 3391      68526561 
 3391      64794900 
 3392              	.LASF67:
 3393 02e2 6D5F6E65 		.ascii	"m_next\000"
 3393      787400
 3394              	.LASF22:
 3395 02e9 73797374 		.ascii	"systime_t\000"
 3395      696D655F 
 3395      7400
 3396              	.LASF40:
 3397 02f3 705F7265 		.ascii	"p_realprio\000"
 3397      616C7072 
 3397      696F00
 3398              	.LASF6:
 3399 02fe 5F5F696E 		.ascii	"__int32_t\000"
 3399      7433325F 
 3399      7400
 3400              	.LASF45:
 3401 0308 636F6E74 		.ascii	"context\000"
 3401      65787400 
 3402              	.LASF44:
 3403 0310 696E7463 		.ascii	"intctx\000"
 3403      747800
 3404              	.LASF36:
 3405 0317 705F6D73 		.ascii	"p_msgqueue\000"
 3405      67717565 
 3405      756500
 3406              	.LASF76:
 3407 0322 74696D65 		.ascii	"time\000"
 3407      00
 3408              	.LASF53:
 3409 0327 76745F70 		.ascii	"vt_par\000"
 3409      617200
 3410              	.LASF61:
 3411 032e 53656D61 		.ascii	"Semaphore\000"
 3411      70686F72 
 3411      6500
 3412              	.LASF31:
 3413 0338 705F6E61 		.ascii	"p_name\000"
 3413      6D6500
 3414              	.LASF60:
 3415 033f 52656164 		.ascii	"ReadyList\000"
 3415      794C6973 
 3415      7400
 3416              	.LASF91:
 3417 0349 726C6973 		.ascii	"rlist\000"
 3417      7400
 3418              	.LASF12:
 3419 034f 75696E74 		.ascii	"uint8_t\000"
 3419      385F7400 
 3420              	.LASF70:
 3421 0357 77746F62 		.ascii	"wtobjp\000"
 3421      6A7000
 3422              	.LASF85:
 3423 035e 474E5520 		.ascii	"GNU C 4.9.3 20150529 (release) [ARM/embedded-4_9-br"
 3423      4320342E 
ARM GAS  /tmp/cch85XqM.s 			page 64


 3423      392E3320 
 3423      32303135 
 3423      30353239 
 3424 0391 616E6368 		.ascii	"anch revision 224288] -mcpu=cortex-m4 -mfloat-abi=h"
 3424      20726576 
 3424      6973696F 
 3424      6E203232 
 3424      34323838 
 3425 03c4 61726420 		.ascii	"ard -mfpu=fpv4-sp-d16 -mno-thumb-interwork -mthumb "
 3425      2D6D6670 
 3425      753D6670 
 3425      76342D73 
 3425      702D6431 
 3426 03f7 2D676764 		.ascii	"-ggdb -O2 -fomit-frame-pointer -falign-functions=16"
 3426      62202D4F 
 3426      32202D66 
 3426      6F6D6974 
 3426      2D667261 
 3427 042a 202D666E 		.ascii	" -fno-math-errno -fsingle-precision-constant\000"
 3427      6F2D6D61 
 3427      74682D65 
 3427      72726E6F 
 3427      202D6673 
 3428              	.LASF90:
 3429 0457 63685363 		.ascii	"chSchGoSleepTimeoutS\000"
 3429      68476F53 
 3429      6C656570 
 3429      54696D65 
 3429      6F757453 
 3430              	.LASF86:
 3431 046c 2F645F64 		.ascii	"/d_drive/axoloti/platform_linux/../chibios/os/kerne"
 3431      72697665 
 3431      2F61786F 
 3431      6C6F7469 
 3431      2F706C61 
 3432 049f 6C2F7372 		.ascii	"l/src/chschd.c\000"
 3432      632F6368 
 3432      73636864 
 3432      2E6300
 3433              	.LASF66:
 3434 04ae 6D5F6F77 		.ascii	"m_owner\000"
 3434      6E657200 
 3435              	.LASF28:
 3436 04b6 705F6374 		.ascii	"p_ctx\000"
 3436      7800
 3437              	.LASF35:
 3438 04bc 705F7761 		.ascii	"p_waiting\000"
 3438      6974696E 
 3438      6700
 3439              		.ident	"GCC: (GNU Tools for ARM Embedded Processors) 4.9.3 20150529 (release) [ARM/embedded-4_9-br
ARM GAS  /tmp/cch85XqM.s 			page 65


DEFINED SYMBOLS
                            *ABS*:00000000 chschd.c
     /tmp/cch85XqM.s:20     .text:00000000 $t
     /tmp/cch85XqM.s:25     .text:00000000 wakeup
     /tmp/cch85XqM.s:151    .text:00000054 $d
                            *COM*:0000001c rlist
     /tmp/cch85XqM.s:157    .text:00000058 $t
     /tmp/cch85XqM.s:163    .text:00000060 _scheduler_init
     /tmp/cch85XqM.s:186    .text:00000070 $d
     /tmp/cch85XqM.s:190    .text:00000074 $t
     /tmp/cch85XqM.s:196    .text:00000080 chSchReadyI
     /tmp/cch85XqM.s:246    .text:000000a8 $d
     /tmp/cch85XqM.s:250    .text:000000ac $t
     /tmp/cch85XqM.s:256    .text:000000b0 chSchGoSleepS
     /tmp/cch85XqM.s:325    .text:000000d4 $d
     /tmp/cch85XqM.s:329    .text:000000d8 $t
     /tmp/cch85XqM.s:335    .text:000000e0 chSchGoSleepTimeoutS
     /tmp/cch85XqM.s:404    .text:0000011c $d
     /tmp/cch85XqM.s:409    .text:00000124 $t
     /tmp/cch85XqM.s:415    .text:00000130 chSchWakeupS
     /tmp/cch85XqM.s:545    .text:00000184 $d
     /tmp/cch85XqM.s:550    .text:00000188 $t
     /tmp/cch85XqM.s:556    .text:00000190 chSchDoRescheduleBehind
     /tmp/cch85XqM.s:668    .text:000001cc $d
     /tmp/cch85XqM.s:672    .text:000001d0 $t
     /tmp/cch85XqM.s:678    .text:000001d0 chSchDoRescheduleAhead
     /tmp/cch85XqM.s:767    .text:00000208 $d
     /tmp/cch85XqM.s:771    .text:0000020c $t
     /tmp/cch85XqM.s:777    .text:00000210 chSchRescheduleS
     /tmp/cch85XqM.s:800    .text:00000224 $d
     /tmp/cch85XqM.s:804    .text:00000228 $t
     /tmp/cch85XqM.s:810    .text:00000230 chSchDoReschedule
     /tmp/cch85XqM.s:832    .text:00000240 $d
                     .debug_frame:00000010 $d

UNDEFINED SYMBOLS
_port_switch
chVTSetI
chVTResetI
