ARM GAS  /tmp/ccQZJKRf.s 			page 1


   1              		.syntax unified
   2              		.cpu cortex-m4
   3              		.eabi_attribute 27, 1
   4              		.eabi_attribute 28, 1
   5              		.fpu fpv4-sp-d16
   6              		.eabi_attribute 20, 1
   7              		.eabi_attribute 21, 1
   8              		.eabi_attribute 23, 3
   9              		.eabi_attribute 24, 1
  10              		.eabi_attribute 25, 1
  11              		.eabi_attribute 26, 1
  12              		.eabi_attribute 30, 2
  13              		.eabi_attribute 34, 1
  14              		.eabi_attribute 18, 4
  15              		.thumb
  16              		.file	"chsem.c"
  17              		.text
  18              	.Ltext0:
  19              		.cfi_sections	.debug_frame
  20              		.align	2
  21              		.p2align 4,,15
  22              		.global	chSemInit
  23              		.thumb
  24              		.thumb_func
  25              		.type	chSemInit, %function
  26              	chSemInit:
  27              	.LFB7:
  28              		.file 1 "/home/sbcu/Dropbox/pcb-layouts/axo-on-discovery-board/axoloti/platform_linux/../chibios/o
  29              		.loc 1 86 0
  30              		.cfi_startproc
  31              		@ args = 0, pretend = 0, frame = 0
  32              		@ frame_needed = 0, uses_anonymous_args = 0
  33              		@ link register save eliminated.
  34              	.LVL0:
  35              		.loc 1 90 0
  36 0000 4060     		str	r0, [r0, #4]
  37 0002 0060     		str	r0, [r0]
  38              		.loc 1 91 0
  39 0004 8160     		str	r1, [r0, #8]
  40 0006 7047     		bx	lr
  41              		.cfi_endproc
  42              	.LFE7:
  43              		.size	chSemInit, .-chSemInit
  44              		.align	2
  45 0008 AFF30080 		.p2align 4,,15
  45      AFF30080 
  46              		.global	chSemResetI
  47              		.thumb
  48              		.thumb_func
  49              		.type	chSemResetI, %function
  50              	chSemResetI:
  51              	.LFB9:
  52              		.loc 1 136 0
  53              		.cfi_startproc
  54              		@ args = 0, pretend = 0, frame = 0
  55              		@ frame_needed = 0, uses_anonymous_args = 0
  56              	.LVL1:
ARM GAS  /tmp/ccQZJKRf.s 			page 2


  57 0010 70B5     		push	{r4, r5, r6, lr}
  58              		.cfi_def_cfa_offset 16
  59              		.cfi_offset 4, -16
  60              		.cfi_offset 5, -12
  61              		.cfi_offset 6, -8
  62              		.cfi_offset 14, -4
  63              		.loc 1 141 0
  64 0012 8568     		ldr	r5, [r0, #8]
  65              	.LVL2:
  66              		.loc 1 147 0
  67 0014 8160     		str	r1, [r0, #8]
  68              		.loc 1 148 0
  69 0016 0135     		adds	r5, r5, #1
  70              	.LVL3:
  71 0018 002D     		cmp	r5, #0
  72 001a 0CDC     		bgt	.L2
  73 001c 0446     		mov	r4, r0
  74              		.loc 1 149 0
  75 001e 6FF00106 		mvn	r6, #1
  76              	.LVL4:
  77              	.L4:
  78              	.LBB32:
  79              	.LBB33:
  80              		.file 2 "/home/sbcu/Dropbox/pcb-layouts/axo-on-discovery-board/axoloti/platform_linux/../chibios/o
  81              		.loc 2 67 0
  82 0022 6068     		ldr	r0, [r4, #4]
  83              	.LVL5:
  84              		.loc 2 69 0
  85 0024 4368     		ldr	r3, [r0, #4]
  86 0026 6360     		str	r3, [r4, #4]
  87 0028 1C60     		str	r4, [r3]
  88              	.LBE33:
  89              	.LBE32:
  90              		.loc 1 149 0
  91 002a FFF7FEFF 		bl	chSchReadyI
  92              	.LVL6:
  93              		.loc 1 148 0
  94 002e 0135     		adds	r5, r5, #1
  95              	.LVL7:
  96 0030 012D     		cmp	r5, #1
  97              		.loc 1 149 0
  98 0032 0662     		str	r6, [r0, #32]
  99              	.LVL8:
 100              		.loc 1 148 0
 101 0034 F5D1     		bne	.L4
 102              	.LVL9:
 103              	.L2:
 104 0036 70BD     		pop	{r4, r5, r6, pc}
 105              		.cfi_endproc
 106              	.LFE9:
 107              		.size	chSemResetI, .-chSemResetI
 108              		.align	2
 109 0038 AFF30080 		.p2align 4,,15
 109      AFF30080 
 110              		.global	chSemReset
 111              		.thumb
 112              		.thumb_func
ARM GAS  /tmp/ccQZJKRf.s 			page 3


 113              		.type	chSemReset, %function
 114              	chSemReset:
 115              	.LFB8:
 116              		.loc 1 109 0
 117              		.cfi_startproc
 118              		@ args = 0, pretend = 0, frame = 0
 119              		@ frame_needed = 0, uses_anonymous_args = 0
 120              	.LVL10:
 121 0040 08B5     		push	{r3, lr}
 122              		.cfi_def_cfa_offset 8
 123              		.cfi_offset 3, -8
 124              		.cfi_offset 14, -4
 125              	.LBB34:
 126              		.loc 1 111 0
 127 0042 2023     		movs	r3, #32
 128              	@ 111 "/home/sbcu/Dropbox/pcb-layouts/axo-on-discovery-board/axoloti/platform_linux/../chibios/os/k
 129 0044 83F31188 		msr     BASEPRI, r3
 130              	@ 0 "" 2
 131              		.thumb
 132              	.LBE34:
 133              		.loc 1 112 0
 134 0048 FFF7FEFF 		bl	chSemResetI
 135              	.LVL11:
 136              		.loc 1 113 0
 137 004c FFF7FEFF 		bl	chSchRescheduleS
 138              	.LVL12:
 139              	.LBB35:
 140              		.loc 1 114 0
 141 0050 0023     		movs	r3, #0
 142              	@ 114 "/home/sbcu/Dropbox/pcb-layouts/axo-on-discovery-board/axoloti/platform_linux/../chibios/os/k
 143 0052 83F31188 		msr     BASEPRI, r3
 144              	@ 0 "" 2
 145              		.thumb
 146 0056 08BD     		pop	{r3, pc}
 147              	.LBE35:
 148              		.cfi_endproc
 149              	.LFE8:
 150              		.size	chSemReset, .-chSemReset
 151              		.align	2
 152 0058 AFF30080 		.p2align 4,,15
 152      AFF30080 
 153              		.global	chSemWait
 154              		.thumb
 155              		.thumb_func
 156              		.type	chSemWait, %function
 157              	chSemWait:
 158              	.LFB10:
 159              		.loc 1 164 0
 160              		.cfi_startproc
 161              		@ args = 0, pretend = 0, frame = 0
 162              		@ frame_needed = 0, uses_anonymous_args = 0
 163              	.LVL13:
 164              	.LBB44:
 165              		.loc 1 167 0
 166 0060 2023     		movs	r3, #32
 167              	@ 167 "/home/sbcu/Dropbox/pcb-layouts/axo-on-discovery-board/axoloti/platform_linux/../chibios/os/k
 168 0062 83F31188 		msr     BASEPRI, r3
ARM GAS  /tmp/ccQZJKRf.s 			page 4


 169              	@ 0 "" 2
 170              	.LVL14:
 171              		.thumb
 172              	.LBE44:
 173              	.LBB45:
 174              	.LBB46:
 175              		.loc 1 194 0
 176 0066 8368     		ldr	r3, [r0, #8]
 177 0068 013B     		subs	r3, r3, #1
 178 006a 002B     		cmp	r3, #0
 179 006c 8360     		str	r3, [r0, #8]
 180 006e 04DB     		blt	.L16
 181              		.loc 1 200 0
 182 0070 0020     		movs	r0, #0
 183              	.LVL15:
 184              	.LBE46:
 185              	.LBE45:
 186              	.LBB54:
 187              		.loc 1 169 0
 188 0072 0023     		movs	r3, #0
 189              	@ 169 "/home/sbcu/Dropbox/pcb-layouts/axo-on-discovery-board/axoloti/platform_linux/../chibios/os/k
 190 0074 83F31188 		msr     BASEPRI, r3
 191              	@ 0 "" 2
 192              		.thumb
 193              	.LBE54:
 194              		.loc 1 171 0
 195 0078 7047     		bx	lr
 196              	.LVL16:
 197              	.L16:
 198              		.loc 1 164 0
 199 007a 10B5     		push	{r4, lr}
 200              		.cfi_def_cfa_offset 8
 201              		.cfi_offset 4, -8
 202              		.cfi_offset 14, -4
 203              	.LBB55:
 204              	.LBB53:
 205              	.LBB47:
 206              	.LBB48:
 207              		.loc 1 195 0
 208 007c 084C     		ldr	r4, .L17
 209 007e A269     		ldr	r2, [r4, #24]
 210 0080 1062     		str	r0, [r2, #32]
 211              	.LBB49:
 212              	.LBB50:
 213              		.loc 2 55 0
 214 0082 4168     		ldr	r1, [r0, #4]
 215 0084 5160     		str	r1, [r2, #4]
 216 0086 0346     		mov	r3, r0
 217              	.LVL17:
 218              		.loc 2 54 0
 219 0088 1060     		str	r0, [r2]
 220              		.loc 2 56 0
 221 008a 5A60     		str	r2, [r3, #4]
 222              	.LBE50:
 223              	.LBE49:
 224              		.loc 1 197 0
 225 008c 0320     		movs	r0, #3
ARM GAS  /tmp/ccQZJKRf.s 			page 5


 226              	.LVL18:
 227              	.LBB52:
 228              	.LBB51:
 229              		.loc 2 56 0
 230 008e 0A60     		str	r2, [r1]
 231              	.LBE51:
 232              	.LBE52:
 233              		.loc 1 197 0
 234 0090 FFF7FEFF 		bl	chSchGoSleepS
 235              	.LVL19:
 236              		.loc 1 198 0
 237 0094 A369     		ldr	r3, [r4, #24]
 238 0096 186A     		ldr	r0, [r3, #32]
 239              	.LBE48:
 240              	.LBE47:
 241              	.LBE53:
 242              	.LBE55:
 243              	.LBB56:
 244              		.loc 1 169 0
 245 0098 0023     		movs	r3, #0
 246              	@ 169 "/home/sbcu/Dropbox/pcb-layouts/axo-on-discovery-board/axoloti/platform_linux/../chibios/os/k
 247 009a 83F31188 		msr     BASEPRI, r3
 248              	@ 0 "" 2
 249              		.thumb
 250              	.LBE56:
 251              		.loc 1 171 0
 252 009e 10BD     		pop	{r4, pc}
 253              	.L18:
 254              		.align	2
 255              	.L17:
 256 00a0 00000000 		.word	rlist
 257              		.cfi_endproc
 258              	.LFE10:
 259              		.size	chSemWait, .-chSemWait
 260              		.align	2
 261 00a4 AFF30080 		.p2align 4,,15
 261      AFF30080 
 261      AFF30080 
 262              		.global	chSemWaitS
 263              		.thumb
 264              		.thumb_func
 265              		.type	chSemWaitS, %function
 266              	chSemWaitS:
 267              	.LFB11:
 268              		.loc 1 185 0
 269              		.cfi_startproc
 270              		@ args = 0, pretend = 0, frame = 0
 271              		@ frame_needed = 0, uses_anonymous_args = 0
 272              	.LVL20:
 273              		.loc 1 194 0
 274 00b0 8368     		ldr	r3, [r0, #8]
 275 00b2 013B     		subs	r3, r3, #1
 276 00b4 002B     		cmp	r3, #0
 277 00b6 8360     		str	r3, [r0, #8]
 278 00b8 01DB     		blt	.L24
 279              		.loc 1 200 0
 280 00ba 0020     		movs	r0, #0
ARM GAS  /tmp/ccQZJKRf.s 			page 6


 281              	.LVL21:
 282 00bc 7047     		bx	lr
 283              	.LVL22:
 284              	.L24:
 285              		.loc 1 185 0
 286 00be 10B5     		push	{r4, lr}
 287              		.cfi_def_cfa_offset 8
 288              		.cfi_offset 4, -8
 289              		.cfi_offset 14, -4
 290              	.LBB61:
 291              	.LBB62:
 292              		.loc 1 195 0
 293 00c0 074C     		ldr	r4, .L25
 294 00c2 A269     		ldr	r2, [r4, #24]
 295 00c4 1062     		str	r0, [r2, #32]
 296              	.LBB63:
 297              	.LBB64:
 298              		.loc 2 55 0
 299 00c6 4168     		ldr	r1, [r0, #4]
 300 00c8 5160     		str	r1, [r2, #4]
 301 00ca 0346     		mov	r3, r0
 302              	.LVL23:
 303              		.loc 2 54 0
 304 00cc 1060     		str	r0, [r2]
 305              		.loc 2 56 0
 306 00ce 5A60     		str	r2, [r3, #4]
 307              	.LBE64:
 308              	.LBE63:
 309              		.loc 1 197 0
 310 00d0 0320     		movs	r0, #3
 311              	.LVL24:
 312              	.LBB66:
 313              	.LBB65:
 314              		.loc 2 56 0
 315 00d2 0A60     		str	r2, [r1]
 316              	.LBE65:
 317              	.LBE66:
 318              		.loc 1 197 0
 319 00d4 FFF7FEFF 		bl	chSchGoSleepS
 320              	.LVL25:
 321              		.loc 1 198 0
 322 00d8 A369     		ldr	r3, [r4, #24]
 323 00da 186A     		ldr	r0, [r3, #32]
 324 00dc 10BD     		pop	{r4, pc}
 325              	.L26:
 326 00de 00BF     		.align	2
 327              	.L25:
 328 00e0 00000000 		.word	rlist
 329              	.LBE62:
 330              	.LBE61:
 331              		.cfi_endproc
 332              	.LFE11:
 333              		.size	chSemWaitS, .-chSemWaitS
 334              		.align	2
 335 00e4 AFF30080 		.p2align 4,,15
 335      AFF30080 
 335      AFF30080 
ARM GAS  /tmp/ccQZJKRf.s 			page 7


 336              		.global	chSemWaitTimeoutS
 337              		.thumb
 338              		.thumb_func
 339              		.type	chSemWaitTimeoutS, %function
 340              	chSemWaitTimeoutS:
 341              	.LFB13:
 342              		.loc 1 250 0
 343              		.cfi_startproc
 344              		@ args = 0, pretend = 0, frame = 0
 345              		@ frame_needed = 0, uses_anonymous_args = 0
 346              		@ link register save eliminated.
 347              	.LVL26:
 348 00f0 0346     		mov	r3, r0
 349              		.loc 1 254 0
 350 00f2 8068     		ldr	r0, [r0, #8]
 351              	.LVL27:
 352              		.loc 1 259 0
 353 00f4 421E     		subs	r2, r0, #1
 354 00f6 002A     		cmp	r2, #0
 355 00f8 9A60     		str	r2, [r3, #8]
 356 00fa 01DB     		blt	.L33
 357              		.loc 1 268 0
 358 00fc 0020     		movs	r0, #0
 359 00fe 7047     		bx	lr
 360              	.L33:
 361              		.loc 1 250 0
 362 0100 10B4     		push	{r4}
 363              		.cfi_def_cfa_offset 4
 364              		.cfi_offset 4, -4
 365              		.loc 1 260 0
 366 0102 61B1     		cbz	r1, .L34
 367              	.LVL28:
 368              	.LBB71:
 369              	.LBB72:
 370              		.loc 1 264 0
 371 0104 094A     		ldr	r2, .L35
 372 0106 9269     		ldr	r2, [r2, #24]
 373 0108 1362     		str	r3, [r2, #32]
 374              	.LVL29:
 375              	.LBB73:
 376              	.LBB74:
 377              		.loc 2 55 0
 378 010a 5C68     		ldr	r4, [r3, #4]
 379              	.LBE74:
 380              	.LBE73:
 381              		.loc 1 266 0
 382 010c 0320     		movs	r0, #3
 383              	.LBB76:
 384              	.LBB75:
 385              		.loc 2 55 0
 386 010e 82E81800 		stmia	r2, {r3, r4}
 387              		.loc 2 56 0
 388 0112 5A60     		str	r2, [r3, #4]
 389 0114 2260     		str	r2, [r4]
 390              	.LBE75:
 391              	.LBE76:
 392              	.LBE72:
ARM GAS  /tmp/ccQZJKRf.s 			page 8


 393              	.LBE71:
 394              		.loc 1 269 0
 395 0116 5DF8044B 		ldr	r4, [sp], #4
 396              		.cfi_remember_state
 397              		.cfi_restore 4
 398              		.cfi_def_cfa_offset 0
 399              	.LBB78:
 400              	.LBB77:
 401              		.loc 1 266 0
 402 011a FFF7FEBF 		b	chSchGoSleepTimeoutS
 403              	.LVL30:
 404              	.L34:
 405              		.cfi_restore_state
 406              	.LBE77:
 407              	.LBE78:
 408              		.loc 1 261 0
 409 011e 9860     		str	r0, [r3, #8]
 410              		.loc 1 269 0
 411 0120 5DF8044B 		ldr	r4, [sp], #4
 412              		.cfi_restore 4
 413              		.cfi_def_cfa_offset 0
 414              		.loc 1 262 0
 415 0124 4FF0FF30 		mov	r0, #-1
 416              		.loc 1 269 0
 417 0128 7047     		bx	lr
 418              	.L36:
 419 012a 00BF     		.align	2
 420              	.L35:
 421 012c 00000000 		.word	rlist
 422              		.cfi_endproc
 423              	.LFE13:
 424              		.size	chSemWaitTimeoutS, .-chSemWaitTimeoutS
 425              		.align	2
 426              		.p2align 4,,15
 427              		.global	chSemWaitTimeout
 428              		.thumb
 429              		.thumb_func
 430              		.type	chSemWaitTimeout, %function
 431              	chSemWaitTimeout:
 432              	.LFB12:
 433              		.loc 1 222 0
 434              		.cfi_startproc
 435              		@ args = 0, pretend = 0, frame = 0
 436              		@ frame_needed = 0, uses_anonymous_args = 0
 437              	.LVL31:
 438 0130 08B5     		push	{r3, lr}
 439              		.cfi_def_cfa_offset 8
 440              		.cfi_offset 3, -8
 441              		.cfi_offset 14, -4
 442              	.LBB79:
 443              		.loc 1 225 0
 444 0132 2023     		movs	r3, #32
 445              	@ 225 "/home/sbcu/Dropbox/pcb-layouts/axo-on-discovery-board/axoloti/platform_linux/../chibios/os/k
 446 0134 83F31188 		msr     BASEPRI, r3
 447              	@ 0 "" 2
 448              		.thumb
 449              	.LBE79:
ARM GAS  /tmp/ccQZJKRf.s 			page 9


 450              		.loc 1 226 0
 451 0138 FFF7FEFF 		bl	chSemWaitTimeoutS
 452              	.LVL32:
 453              	.LBB80:
 454              		.loc 1 227 0
 455 013c 0023     		movs	r3, #0
 456              	@ 227 "/home/sbcu/Dropbox/pcb-layouts/axo-on-discovery-board/axoloti/platform_linux/../chibios/os/k
 457 013e 83F31188 		msr     BASEPRI, r3
 458              	@ 0 "" 2
 459              		.thumb
 460              	.LBE80:
 461              		.loc 1 229 0
 462 0142 08BD     		pop	{r3, pc}
 463              		.cfi_endproc
 464              	.LFE12:
 465              		.size	chSemWaitTimeout, .-chSemWaitTimeout
 466              		.align	2
 467 0144 AFF30080 		.p2align 4,,15
 467      AFF30080 
 467      AFF30080 
 468              		.global	chSemSignal
 469              		.thumb
 470              		.thumb_func
 471              		.type	chSemSignal, %function
 472              	chSemSignal:
 473              	.LFB14:
 474              		.loc 1 278 0
 475              		.cfi_startproc
 476              		@ args = 0, pretend = 0, frame = 0
 477              		@ frame_needed = 0, uses_anonymous_args = 0
 478              	.LVL33:
 479 0150 08B5     		push	{r3, lr}
 480              		.cfi_def_cfa_offset 8
 481              		.cfi_offset 3, -8
 482              		.cfi_offset 14, -4
 483              	.LBB81:
 484              		.loc 1 286 0
 485 0152 2023     		movs	r3, #32
 486              	@ 286 "/home/sbcu/Dropbox/pcb-layouts/axo-on-discovery-board/axoloti/platform_linux/../chibios/os/k
 487 0154 83F31188 		msr     BASEPRI, r3
 488              	@ 0 "" 2
 489              		.thumb
 490              	.LBE81:
 491              		.loc 1 287 0
 492 0158 8368     		ldr	r3, [r0, #8]
 493 015a 0133     		adds	r3, r3, #1
 494 015c 002B     		cmp	r3, #0
 495 015e 8360     		str	r3, [r0, #8]
 496 0160 03DD     		ble	.L42
 497              	.LBB82:
 498              		.loc 1 289 0
 499 0162 0023     		movs	r3, #0
 500              	@ 289 "/home/sbcu/Dropbox/pcb-layouts/axo-on-discovery-board/axoloti/platform_linux/../chibios/os/k
 501 0164 83F31188 		msr     BASEPRI, r3
 502              	@ 0 "" 2
 503              		.thumb
 504 0168 08BD     		pop	{r3, pc}
ARM GAS  /tmp/ccQZJKRf.s 			page 10


 505              	.L42:
 506 016a 0346     		mov	r3, r0
 507              	.LVL34:
 508              	.LBE82:
 509              	.LBB83:
 510              	.LBB84:
 511              		.loc 2 60 0
 512 016c 0068     		ldr	r0, [r0]
 513              	.LVL35:
 514              		.loc 2 62 0
 515 016e 0268     		ldr	r2, [r0]
 516 0170 1A60     		str	r2, [r3]
 517              	.LBE84:
 518              	.LBE83:
 519              		.loc 1 288 0
 520 0172 0021     		movs	r1, #0
 521              	.LBB86:
 522              	.LBB85:
 523              		.loc 2 62 0
 524 0174 5360     		str	r3, [r2, #4]
 525              	.LBE85:
 526              	.LBE86:
 527              		.loc 1 288 0
 528 0176 FFF7FEFF 		bl	chSchWakeupS
 529              	.LVL36:
 530              	.LBB87:
 531              		.loc 1 289 0
 532 017a 0023     		movs	r3, #0
 533              	@ 289 "/home/sbcu/Dropbox/pcb-layouts/axo-on-discovery-board/axoloti/platform_linux/../chibios/os/k
 534 017c 83F31188 		msr     BASEPRI, r3
 535              	@ 0 "" 2
 536              		.thumb
 537 0180 08BD     		pop	{r3, pc}
 538              	.LBE87:
 539              		.cfi_endproc
 540              	.LFE14:
 541              		.size	chSemSignal, .-chSemSignal
 542 0182 00BF     		.align	2
 543 0184 AFF30080 		.p2align 4,,15
 543      AFF30080 
 543      AFF30080 
 544              		.global	chSemSignalI
 545              		.thumb
 546              		.thumb_func
 547              		.type	chSemSignalI, %function
 548              	chSemSignalI:
 549              	.LFB15:
 550              		.loc 1 303 0
 551              		.cfi_startproc
 552              		@ args = 0, pretend = 0, frame = 0
 553              		@ frame_needed = 0, uses_anonymous_args = 0
 554              		@ link register save eliminated.
 555              	.LVL37:
 556              		.loc 1 312 0
 557 0190 8368     		ldr	r3, [r0, #8]
 558 0192 0133     		adds	r3, r3, #1
 559 0194 002B     		cmp	r3, #0
ARM GAS  /tmp/ccQZJKRf.s 			page 11


 560 0196 8360     		str	r3, [r0, #8]
 561 0198 00DD     		ble	.L45
 562 019a 7047     		bx	lr
 563              	.L45:
 564              	.LVL38:
 565              	.LBB88:
 566              	.LBB89:
 567              	.LBB90:
 568              		.loc 2 60 0
 569 019c 0368     		ldr	r3, [r0]
 570              	.LVL39:
 571              		.loc 2 62 0
 572 019e 1A68     		ldr	r2, [r3]
 573 01a0 0260     		str	r2, [r0]
 574              	.LBE90:
 575              	.LBE89:
 576              		.loc 1 316 0
 577 01a2 0021     		movs	r1, #0
 578              	.LBB92:
 579              	.LBB91:
 580              		.loc 2 62 0
 581 01a4 5060     		str	r0, [r2, #4]
 582              	.LBE91:
 583              	.LBE92:
 584              		.loc 1 317 0
 585 01a6 1846     		mov	r0, r3
 586              	.LVL40:
 587              		.loc 1 316 0
 588 01a8 1962     		str	r1, [r3, #32]
 589              		.loc 1 317 0
 590 01aa FFF7FEBF 		b	chSchReadyI
 591              	.LVL41:
 592              	.LBE88:
 593              		.cfi_endproc
 594              	.LFE15:
 595              		.size	chSemSignalI, .-chSemSignalI
 596 01ae 00BF     		.align	2
 597              		.p2align 4,,15
 598              		.global	chSemAddCounterI
 599              		.thumb
 600              		.thumb_func
 601              		.type	chSemAddCounterI, %function
 602              	chSemAddCounterI:
 603              	.LFB16:
 604              		.loc 1 334 0
 605              		.cfi_startproc
 606              		@ args = 0, pretend = 0, frame = 0
 607              		@ frame_needed = 0, uses_anonymous_args = 0
 608              	.LVL42:
 609 01b0 70B5     		push	{r4, r5, r6, lr}
 610              		.cfi_def_cfa_offset 16
 611              		.cfi_offset 4, -16
 612              		.cfi_offset 5, -12
 613              		.cfi_offset 6, -8
 614              		.cfi_offset 14, -4
 615              		.loc 1 343 0
 616 01b2 0C1E     		subs	r4, r1, #0
ARM GAS  /tmp/ccQZJKRf.s 			page 12


 617 01b4 12DD     		ble	.L46
 618 01b6 0546     		mov	r5, r0
 619              		.loc 1 345 0
 620 01b8 0026     		movs	r6, #0
 621 01ba 01E0     		b	.L49
 622              	.LVL43:
 623              	.L48:
 624              		.loc 1 343 0
 625 01bc 013C     		subs	r4, r4, #1
 626              	.LVL44:
 627 01be 0DD0     		beq	.L46
 628              	.LVL45:
 629              	.L49:
 630              		.loc 1 344 0
 631 01c0 AB68     		ldr	r3, [r5, #8]
 632 01c2 0133     		adds	r3, r3, #1
 633 01c4 002B     		cmp	r3, #0
 634 01c6 AB60     		str	r3, [r5, #8]
 635 01c8 F8DC     		bgt	.L48
 636              	.LVL46:
 637              	.LBB93:
 638              	.LBB94:
 639              		.loc 2 60 0
 640 01ca 2868     		ldr	r0, [r5]
 641              	.LVL47:
 642              		.loc 2 62 0
 643 01cc 0368     		ldr	r3, [r0]
 644 01ce 2B60     		str	r3, [r5]
 645 01d0 5D60     		str	r5, [r3, #4]
 646              	.LBE94:
 647              	.LBE93:
 648              		.loc 1 345 0
 649 01d2 FFF7FEFF 		bl	chSchReadyI
 650              	.LVL48:
 651              		.loc 1 343 0
 652 01d6 013C     		subs	r4, r4, #1
 653              	.LVL49:
 654              		.loc 1 345 0
 655 01d8 0662     		str	r6, [r0, #32]
 656              	.LVL50:
 657              		.loc 1 343 0
 658 01da F1D1     		bne	.L49
 659              	.LVL51:
 660              	.L46:
 661 01dc 70BD     		pop	{r4, r5, r6, pc}
 662              		.cfi_endproc
 663              	.LFE16:
 664              		.size	chSemAddCounterI, .-chSemAddCounterI
 665 01de 00BF     		.align	2
 666              		.p2align 4,,15
 667              		.global	chSemSignalWait
 668              		.thumb
 669              		.thumb_func
 670              		.type	chSemSignalWait, %function
 671              	chSemSignalWait:
 672              	.LFB17:
 673              		.loc 1 366 0
ARM GAS  /tmp/ccQZJKRf.s 			page 13


 674              		.cfi_startproc
 675              		@ args = 0, pretend = 0, frame = 8
 676              		@ frame_needed = 0, uses_anonymous_args = 0
 677              	.LVL52:
 678 01e0 10B5     		push	{r4, lr}
 679              		.cfi_def_cfa_offset 8
 680              		.cfi_offset 4, -8
 681              		.cfi_offset 14, -4
 682 01e2 0246     		mov	r2, r0
 683 01e4 82B0     		sub	sp, sp, #8
 684              		.cfi_def_cfa_offset 16
 685              	.LBB95:
 686              		.loc 1 379 0
 687 01e6 2023     		movs	r3, #32
 688              	@ 379 "/home/sbcu/Dropbox/pcb-layouts/axo-on-discovery-board/axoloti/platform_linux/../chibios/os/k
 689 01e8 83F31188 		msr     BASEPRI, r3
 690              	@ 0 "" 2
 691              		.thumb
 692              	.LBE95:
 693              		.loc 1 380 0
 694 01ec 8368     		ldr	r3, [r0, #8]
 695 01ee 0133     		adds	r3, r3, #1
 696 01f0 002B     		cmp	r3, #0
 697 01f2 8360     		str	r3, [r0, #8]
 698 01f4 1DDD     		ble	.L58
 699              	.LVL53:
 700              	.L54:
 701              		.loc 1 382 0
 702 01f6 8B68     		ldr	r3, [r1, #8]
 703 01f8 013B     		subs	r3, r3, #1
 704 01fa 002B     		cmp	r3, #0
 705 01fc 8B60     		str	r3, [r1, #8]
 706 01fe 07DB     		blt	.L59
 707              		.loc 1 390 0
 708 0200 FFF7FEFF 		bl	chSchRescheduleS
 709              	.LVL54:
 710              		.loc 1 391 0
 711 0204 0020     		movs	r0, #0
 712              	.LVL55:
 713              	.LBB96:
 714              		.loc 1 393 0
 715 0206 0023     		movs	r3, #0
 716              	@ 393 "/home/sbcu/Dropbox/pcb-layouts/axo-on-discovery-board/axoloti/platform_linux/../chibios/os/k
 717 0208 83F31188 		msr     BASEPRI, r3
 718              	@ 0 "" 2
 719              		.thumb
 720              	.LBE96:
 721              		.loc 1 395 0
 722 020c 02B0     		add	sp, sp, #8
 723              		.cfi_remember_state
 724              		.cfi_def_cfa_offset 8
 725              		@ sp needed
 726 020e 10BD     		pop	{r4, pc}
 727              	.LVL56:
 728              	.L59:
 729              		.cfi_restore_state
 730              	.LBB97:
ARM GAS  /tmp/ccQZJKRf.s 			page 14


 731              		.loc 1 383 0
 732 0210 0D4A     		ldr	r2, .L60
 733              	.LBB98:
 734              	.LBB99:
 735              		.loc 2 55 0
 736 0212 4B68     		ldr	r3, [r1, #4]
 737              	.LBE99:
 738              	.LBE98:
 739              		.loc 1 383 0
 740 0214 9469     		ldr	r4, [r2, #24]
 741              	.LVL57:
 742              		.loc 1 386 0
 743 0216 0320     		movs	r0, #3
 744              	.LBB101:
 745              	.LBB100:
 746              		.loc 2 55 0
 747 0218 84E80A00 		stmia	r4, {r1, r3}
 748              		.loc 2 56 0
 749 021c 4C60     		str	r4, [r1, #4]
 750 021e 1C60     		str	r4, [r3]
 751              	.LBE100:
 752              	.LBE101:
 753              		.loc 1 385 0
 754 0220 2162     		str	r1, [r4, #32]
 755              		.loc 1 386 0
 756 0222 FFF7FEFF 		bl	chSchGoSleepS
 757              	.LVL58:
 758              		.loc 1 387 0
 759 0226 206A     		ldr	r0, [r4, #32]
 760              	.LVL59:
 761              	.LBE97:
 762              	.LBB102:
 763              		.loc 1 393 0
 764 0228 0023     		movs	r3, #0
 765              	@ 393 "/home/sbcu/Dropbox/pcb-layouts/axo-on-discovery-board/axoloti/platform_linux/../chibios/os/k
 766 022a 83F31188 		msr     BASEPRI, r3
 767              	@ 0 "" 2
 768              		.thumb
 769              	.LBE102:
 770              		.loc 1 395 0
 771 022e 02B0     		add	sp, sp, #8
 772              		.cfi_remember_state
 773              		.cfi_def_cfa_offset 8
 774              		@ sp needed
 775 0230 10BD     		pop	{r4, pc}
 776              	.LVL60:
 777              	.L58:
 778              		.cfi_restore_state
 779              	.LBB103:
 780              	.LBB104:
 781              		.loc 2 60 0
 782 0232 0068     		ldr	r0, [r0]
 783              	.LVL61:
 784 0234 0191     		str	r1, [sp, #4]
 785              	.LVL62:
 786              		.loc 2 62 0
 787 0236 0368     		ldr	r3, [r0]
ARM GAS  /tmp/ccQZJKRf.s 			page 15


 788 0238 1360     		str	r3, [r2]
 789 023a 5A60     		str	r2, [r3, #4]
 790              	.LBE104:
 791              	.LBE103:
 792              		.loc 1 381 0
 793 023c FFF7FEFF 		bl	chSchReadyI
 794              	.LVL63:
 795 0240 0023     		movs	r3, #0
 796 0242 0362     		str	r3, [r0, #32]
 797 0244 0199     		ldr	r1, [sp, #4]
 798 0246 D6E7     		b	.L54
 799              	.L61:
 800              		.align	2
 801              	.L60:
 802 0248 00000000 		.word	rlist
 803              		.cfi_endproc
 804              	.LFE17:
 805              		.size	chSemSignalWait, .-chSemSignalWait
 806              	.Letext0:
 807              		.file 3 "/home/sbcu/Dropbox/pcb-layouts/axo-on-discovery-board/axoloti/platform_linux/arm-none-eab
 808              		.file 4 "/home/sbcu/Dropbox/pcb-layouts/axo-on-discovery-board/axoloti/platform_linux/arm-none-eab
 809              		.file 5 "/home/sbcu/Dropbox/pcb-layouts/axo-on-discovery-board/axoloti/platform_linux/../chibios/o
 810              		.file 6 "/home/sbcu/Dropbox/pcb-layouts/axo-on-discovery-board/axoloti/platform_linux/../chibios/o
 811              		.file 7 "/home/sbcu/Dropbox/pcb-layouts/axo-on-discovery-board/axoloti/platform_linux/../chibios/o
 812              		.file 8 "/home/sbcu/Dropbox/pcb-layouts/axo-on-discovery-board/axoloti/platform_linux/../chibios/o
 813              		.file 9 "/home/sbcu/Dropbox/pcb-layouts/axo-on-discovery-board/axoloti/platform_linux/../chibios/o
 814              		.file 10 "/home/sbcu/Dropbox/pcb-layouts/axo-on-discovery-board/axoloti/platform_linux/../chibios/
 815              		.file 11 "/home/sbcu/Dropbox/pcb-layouts/axo-on-discovery-board/axoloti/platform_linux/../chibios/
 816              		.section	.debug_info,"",%progbits
 817              	.Ldebug_info0:
 818 0000 DE0B0000 		.4byte	0xbde
 819 0004 0400     		.2byte	0x4
 820 0006 00000000 		.4byte	.Ldebug_abbrev0
 821 000a 04       		.byte	0x4
 822 000b 01       		.uleb128 0x1
 823 000c A7030000 		.4byte	.LASF82
 824 0010 01       		.byte	0x1
 825 0011 2E010000 		.4byte	.LASF83
 826 0015 00000000 		.4byte	.Ltext0
 827 0019 4C020000 		.4byte	.Letext0-.Ltext0
 828 001d 00000000 		.4byte	.Ldebug_line0
 829 0021 02       		.uleb128 0x2
 830 0022 04       		.byte	0x4
 831 0023 05       		.byte	0x5
 832 0024 696E7400 		.ascii	"int\000"
 833 0028 03       		.uleb128 0x3
 834 0029 04       		.byte	0x4
 835 002a 07       		.byte	0x7
 836 002b F2000000 		.4byte	.LASF0
 837 002f 03       		.uleb128 0x3
 838 0030 01       		.byte	0x1
 839 0031 06       		.byte	0x6
 840 0032 6E000000 		.4byte	.LASF1
 841 0036 04       		.uleb128 0x4
 842 0037 27000000 		.4byte	.LASF5
 843 003b 03       		.byte	0x3
 844 003c 1D       		.byte	0x1d
ARM GAS  /tmp/ccQZJKRf.s 			page 16


 845 003d 41000000 		.4byte	0x41
 846 0041 03       		.uleb128 0x3
 847 0042 01       		.byte	0x1
 848 0043 08       		.byte	0x8
 849 0044 4C020000 		.4byte	.LASF2
 850 0048 03       		.uleb128 0x3
 851 0049 02       		.byte	0x2
 852 004a 05       		.byte	0x5
 853 004b 64020000 		.4byte	.LASF3
 854 004f 03       		.uleb128 0x3
 855 0050 02       		.byte	0x2
 856 0051 07       		.byte	0x7
 857 0052 A2010000 		.4byte	.LASF4
 858 0056 04       		.uleb128 0x4
 859 0057 24030000 		.4byte	.LASF6
 860 005b 03       		.byte	0x3
 861 005c 3F       		.byte	0x3f
 862 005d 61000000 		.4byte	0x61
 863 0061 03       		.uleb128 0x3
 864 0062 04       		.byte	0x4
 865 0063 05       		.byte	0x5
 866 0064 9C000000 		.4byte	.LASF7
 867 0068 04       		.uleb128 0x4
 868 0069 D8000000 		.4byte	.LASF8
 869 006d 03       		.byte	0x3
 870 006e 41       		.byte	0x41
 871 006f 73000000 		.4byte	0x73
 872 0073 03       		.uleb128 0x3
 873 0074 04       		.byte	0x4
 874 0075 07       		.byte	0x7
 875 0076 10010000 		.4byte	.LASF9
 876 007a 03       		.uleb128 0x3
 877 007b 08       		.byte	0x8
 878 007c 05       		.byte	0x5
 879 007d 60000000 		.4byte	.LASF10
 880 0081 03       		.uleb128 0x3
 881 0082 08       		.byte	0x8
 882 0083 07       		.byte	0x7
 883 0084 31000000 		.4byte	.LASF11
 884 0088 04       		.uleb128 0x4
 885 0089 98030000 		.4byte	.LASF12
 886 008d 04       		.byte	0x4
 887 008e 14       		.byte	0x14
 888 008f 36000000 		.4byte	0x36
 889 0093 04       		.uleb128 0x4
 890 0094 44020000 		.4byte	.LASF13
 891 0098 04       		.byte	0x4
 892 0099 1F       		.byte	0x1f
 893 009a 56000000 		.4byte	0x56
 894 009e 04       		.uleb128 0x4
 895 009f C8020000 		.4byte	.LASF14
 896 00a3 04       		.byte	0x4
 897 00a4 20       		.byte	0x20
 898 00a5 68000000 		.4byte	0x68
 899 00a9 03       		.uleb128 0x3
 900 00aa 01       		.byte	0x1
 901 00ab 02       		.byte	0x2
ARM GAS  /tmp/ccQZJKRf.s 			page 17


 902 00ac 3E020000 		.4byte	.LASF15
 903 00b0 04       		.uleb128 0x4
 904 00b1 CE010000 		.4byte	.LASF16
 905 00b5 05       		.byte	0x5
 906 00b6 2C       		.byte	0x2c
 907 00b7 88000000 		.4byte	0x88
 908 00bb 04       		.uleb128 0x4
 909 00bc A5000000 		.4byte	.LASF17
 910 00c0 05       		.byte	0x5
 911 00c1 2D       		.byte	0x2d
 912 00c2 88000000 		.4byte	0x88
 913 00c6 04       		.uleb128 0x4
 914 00c7 92000000 		.4byte	.LASF18
 915 00cb 05       		.byte	0x5
 916 00cc 2F       		.byte	0x2f
 917 00cd 88000000 		.4byte	0x88
 918 00d1 04       		.uleb128 0x4
 919 00d2 36020000 		.4byte	.LASF19
 920 00d6 05       		.byte	0x5
 921 00d7 30       		.byte	0x30
 922 00d8 9E000000 		.4byte	0x9e
 923 00dc 04       		.uleb128 0x4
 924 00dd C0010000 		.4byte	.LASF20
 925 00e1 05       		.byte	0x5
 926 00e2 31       		.byte	0x31
 927 00e3 93000000 		.4byte	0x93
 928 00e7 04       		.uleb128 0x4
 929 00e8 E2010000 		.4byte	.LASF21
 930 00ec 05       		.byte	0x5
 931 00ed 33       		.byte	0x33
 932 00ee 9E000000 		.4byte	0x9e
 933 00f2 04       		.uleb128 0x4
 934 00f3 0F030000 		.4byte	.LASF22
 935 00f7 05       		.byte	0x5
 936 00f8 35       		.byte	0x35
 937 00f9 9E000000 		.4byte	0x9e
 938 00fd 04       		.uleb128 0x4
 939 00fe EC000000 		.4byte	.LASF23
 940 0102 05       		.byte	0x5
 941 0103 36       		.byte	0x36
 942 0104 93000000 		.4byte	0x93
 943 0108 04       		.uleb128 0x4
 944 0109 A8020000 		.4byte	.LASF24
 945 010d 06       		.byte	0x6
 946 010e 2A       		.byte	0x2a
 947 010f 13010000 		.4byte	0x113
 948 0113 05       		.uleb128 0x5
 949 0114 A8020000 		.4byte	.LASF24
 950 0118 40       		.byte	0x40
 951 0119 07       		.byte	0x7
 952 011a 5E       		.byte	0x5e
 953 011b EC010000 		.4byte	0x1ec
 954 011f 06       		.uleb128 0x6
 955 0120 8E020000 		.4byte	.LASF25
 956 0124 07       		.byte	0x7
 957 0125 5F       		.byte	0x5f
 958 0126 0D020000 		.4byte	0x20d
ARM GAS  /tmp/ccQZJKRf.s 			page 18


 959 012a 00       		.byte	0
 960 012b 06       		.uleb128 0x6
 961 012c 2F020000 		.4byte	.LASF26
 962 0130 07       		.byte	0x7
 963 0131 61       		.byte	0x61
 964 0132 0D020000 		.4byte	0x20d
 965 0136 04       		.byte	0x4
 966 0137 06       		.uleb128 0x6
 967 0138 59000000 		.4byte	.LASF27
 968 013c 07       		.byte	0x7
 969 013d 63       		.byte	0x63
 970 013e D1000000 		.4byte	0xd1
 971 0142 08       		.byte	0x8
 972 0143 06       		.uleb128 0x6
 973 0144 BD040000 		.4byte	.LASF28
 974 0148 07       		.byte	0x7
 975 0149 64       		.byte	0x64
 976 014a 97030000 		.4byte	0x397
 977 014e 0C       		.byte	0xc
 978 014f 06       		.uleb128 0x6
 979 0150 AE000000 		.4byte	.LASF29
 980 0154 07       		.byte	0x7
 981 0155 66       		.byte	0x66
 982 0156 0D020000 		.4byte	0x20d
 983 015a 10       		.byte	0x10
 984 015b 06       		.uleb128 0x6
 985 015c FD010000 		.4byte	.LASF30
 986 0160 07       		.byte	0x7
 987 0161 67       		.byte	0x67
 988 0162 0D020000 		.4byte	0x20d
 989 0166 14       		.byte	0x14
 990 0167 06       		.uleb128 0x6
 991 0168 75030000 		.4byte	.LASF31
 992 016c 07       		.byte	0x7
 993 016d 6E       		.byte	0x6e
 994 016e C2040000 		.4byte	0x4c2
 995 0172 18       		.byte	0x18
 996 0173 06       		.uleb128 0x6
 997 0174 6E020000 		.4byte	.LASF32
 998 0178 07       		.byte	0x7
 999 0179 79       		.byte	0x79
 1000 017a BB000000 		.4byte	0xbb
 1001 017e 1C       		.byte	0x1c
 1002 017f 06       		.uleb128 0x6
 1003 0180 95020000 		.4byte	.LASF33
 1004 0184 07       		.byte	0x7
 1005 0185 7D       		.byte	0x7d
 1006 0186 B0000000 		.4byte	0xb0
 1007 018a 1D       		.byte	0x1d
 1008 018b 06       		.uleb128 0x6
 1009 018c 76020000 		.4byte	.LASF34
 1010 0190 07       		.byte	0x7
 1011 0191 88       		.byte	0x88
 1012 0192 C6000000 		.4byte	0xc6
 1013 0196 1E       		.byte	0x1e
 1014 0197 07       		.uleb128 0x7
 1015 0198 705F7500 		.ascii	"p_u\000"
ARM GAS  /tmp/ccQZJKRf.s 			page 19


 1016 019c 07       		.byte	0x7
 1017 019d B4       		.byte	0xb4
 1018 019e 8D040000 		.4byte	0x48d
 1019 01a2 20       		.byte	0x20
 1020 01a3 06       		.uleb128 0x6
 1021 01a4 C3040000 		.4byte	.LASF35
 1022 01a8 07       		.byte	0x7
 1023 01a9 B9       		.byte	0xb9
 1024 01aa 33020000 		.4byte	0x233
 1025 01ae 24       		.byte	0x24
 1026 01af 06       		.uleb128 0x6
 1027 01b0 53030000 		.4byte	.LASF36
 1028 01b4 07       		.byte	0x7
 1029 01b5 BF       		.byte	0xbf
 1030 01b6 13020000 		.4byte	0x213
 1031 01ba 28       		.byte	0x28
 1032 01bb 06       		.uleb128 0x6
 1033 01bc 00000000 		.4byte	.LASF37
 1034 01c0 07       		.byte	0x7
 1035 01c1 C3       		.byte	0xc3
 1036 01c2 DC000000 		.4byte	0xdc
 1037 01c6 30       		.byte	0x30
 1038 01c7 06       		.uleb128 0x6
 1039 01c8 BD020000 		.4byte	.LASF38
 1040 01cc 07       		.byte	0x7
 1041 01cd C9       		.byte	0xc9
 1042 01ce E7000000 		.4byte	0xe7
 1043 01d2 34       		.byte	0x34
 1044 01d3 06       		.uleb128 0x6
 1045 01d4 5A020000 		.4byte	.LASF39
 1046 01d8 07       		.byte	0x7
 1047 01d9 D0       		.byte	0xd0
 1048 01da D4040000 		.4byte	0x4d4
 1049 01de 38       		.byte	0x38
 1050 01df 06       		.uleb128 0x6
 1051 01e0 19030000 		.4byte	.LASF40
 1052 01e4 07       		.byte	0x7
 1053 01e5 D4       		.byte	0xd4
 1054 01e6 D1000000 		.4byte	0xd1
 1055 01ea 3C       		.byte	0x3c
 1056 01eb 00       		.byte	0
 1057 01ec 08       		.uleb128 0x8
 1058 01ed 08       		.byte	0x8
 1059 01ee 06       		.byte	0x6
 1060 01ef 61       		.byte	0x61
 1061 01f0 0D020000 		.4byte	0x20d
 1062 01f4 06       		.uleb128 0x6
 1063 01f5 8E020000 		.4byte	.LASF25
 1064 01f9 06       		.byte	0x6
 1065 01fa 62       		.byte	0x62
 1066 01fb 0D020000 		.4byte	0x20d
 1067 01ff 00       		.byte	0
 1068 0200 06       		.uleb128 0x6
 1069 0201 2F020000 		.4byte	.LASF26
 1070 0205 06       		.byte	0x6
 1071 0206 64       		.byte	0x64
 1072 0207 0D020000 		.4byte	0x20d
ARM GAS  /tmp/ccQZJKRf.s 			page 20


 1073 020b 04       		.byte	0x4
 1074 020c 00       		.byte	0
 1075 020d 09       		.uleb128 0x9
 1076 020e 04       		.byte	0x4
 1077 020f 08010000 		.4byte	0x108
 1078 0213 04       		.uleb128 0x4
 1079 0214 0B020000 		.4byte	.LASF41
 1080 0218 06       		.byte	0x6
 1081 0219 66       		.byte	0x66
 1082 021a EC010000 		.4byte	0x1ec
 1083 021e 08       		.uleb128 0x8
 1084 021f 04       		.byte	0x4
 1085 0220 06       		.byte	0x6
 1086 0221 6B       		.byte	0x6b
 1087 0222 33020000 		.4byte	0x233
 1088 0226 06       		.uleb128 0x6
 1089 0227 8E020000 		.4byte	.LASF25
 1090 022b 06       		.byte	0x6
 1091 022c 6D       		.byte	0x6d
 1092 022d 0D020000 		.4byte	0x20d
 1093 0231 00       		.byte	0
 1094 0232 00       		.byte	0
 1095 0233 04       		.uleb128 0x4
 1096 0234 D6010000 		.4byte	.LASF42
 1097 0238 06       		.byte	0x6
 1098 0239 70       		.byte	0x70
 1099 023a 1E020000 		.4byte	0x21e
 1100 023e 04       		.uleb128 0x4
 1101 023f E3000000 		.4byte	.LASF43
 1102 0243 08       		.byte	0x8
 1103 0244 E5       		.byte	0xe5
 1104 0245 49020000 		.4byte	0x249
 1105 0249 0A       		.uleb128 0xa
 1106 024a 04       		.byte	0x4
 1107 024b 0B       		.uleb128 0xb
 1108 024c 4C030000 		.4byte	.LASF44
 1109 0250 64       		.byte	0x64
 1110 0251 08       		.byte	0x8
 1111 0252 0C01     		.2byte	0x10c
 1112 0254 97030000 		.4byte	0x397
 1113 0258 0C       		.uleb128 0xc
 1114 0259 73313600 		.ascii	"s16\000"
 1115 025d 08       		.byte	0x8
 1116 025e 0E01     		.2byte	0x10e
 1117 0260 3E020000 		.4byte	0x23e
 1118 0264 00       		.byte	0
 1119 0265 0C       		.uleb128 0xc
 1120 0266 73313700 		.ascii	"s17\000"
 1121 026a 08       		.byte	0x8
 1122 026b 0F01     		.2byte	0x10f
 1123 026d 3E020000 		.4byte	0x23e
 1124 0271 04       		.byte	0x4
 1125 0272 0C       		.uleb128 0xc
 1126 0273 73313800 		.ascii	"s18\000"
 1127 0277 08       		.byte	0x8
 1128 0278 1001     		.2byte	0x110
 1129 027a 3E020000 		.4byte	0x23e
ARM GAS  /tmp/ccQZJKRf.s 			page 21


 1130 027e 08       		.byte	0x8
 1131 027f 0C       		.uleb128 0xc
 1132 0280 73313900 		.ascii	"s19\000"
 1133 0284 08       		.byte	0x8
 1134 0285 1101     		.2byte	0x111
 1135 0287 3E020000 		.4byte	0x23e
 1136 028b 0C       		.byte	0xc
 1137 028c 0C       		.uleb128 0xc
 1138 028d 73323000 		.ascii	"s20\000"
 1139 0291 08       		.byte	0x8
 1140 0292 1201     		.2byte	0x112
 1141 0294 3E020000 		.4byte	0x23e
 1142 0298 10       		.byte	0x10
 1143 0299 0C       		.uleb128 0xc
 1144 029a 73323100 		.ascii	"s21\000"
 1145 029e 08       		.byte	0x8
 1146 029f 1301     		.2byte	0x113
 1147 02a1 3E020000 		.4byte	0x23e
 1148 02a5 14       		.byte	0x14
 1149 02a6 0C       		.uleb128 0xc
 1150 02a7 73323200 		.ascii	"s22\000"
 1151 02ab 08       		.byte	0x8
 1152 02ac 1401     		.2byte	0x114
 1153 02ae 3E020000 		.4byte	0x23e
 1154 02b2 18       		.byte	0x18
 1155 02b3 0C       		.uleb128 0xc
 1156 02b4 73323300 		.ascii	"s23\000"
 1157 02b8 08       		.byte	0x8
 1158 02b9 1501     		.2byte	0x115
 1159 02bb 3E020000 		.4byte	0x23e
 1160 02bf 1C       		.byte	0x1c
 1161 02c0 0C       		.uleb128 0xc
 1162 02c1 73323400 		.ascii	"s24\000"
 1163 02c5 08       		.byte	0x8
 1164 02c6 1601     		.2byte	0x116
 1165 02c8 3E020000 		.4byte	0x23e
 1166 02cc 20       		.byte	0x20
 1167 02cd 0C       		.uleb128 0xc
 1168 02ce 73323500 		.ascii	"s25\000"
 1169 02d2 08       		.byte	0x8
 1170 02d3 1701     		.2byte	0x117
 1171 02d5 3E020000 		.4byte	0x23e
 1172 02d9 24       		.byte	0x24
 1173 02da 0C       		.uleb128 0xc
 1174 02db 73323600 		.ascii	"s26\000"
 1175 02df 08       		.byte	0x8
 1176 02e0 1801     		.2byte	0x118
 1177 02e2 3E020000 		.4byte	0x23e
 1178 02e6 28       		.byte	0x28
 1179 02e7 0C       		.uleb128 0xc
 1180 02e8 73323700 		.ascii	"s27\000"
 1181 02ec 08       		.byte	0x8
 1182 02ed 1901     		.2byte	0x119
 1183 02ef 3E020000 		.4byte	0x23e
 1184 02f3 2C       		.byte	0x2c
 1185 02f4 0C       		.uleb128 0xc
 1186 02f5 73323800 		.ascii	"s28\000"
ARM GAS  /tmp/ccQZJKRf.s 			page 22


 1187 02f9 08       		.byte	0x8
 1188 02fa 1A01     		.2byte	0x11a
 1189 02fc 3E020000 		.4byte	0x23e
 1190 0300 30       		.byte	0x30
 1191 0301 0C       		.uleb128 0xc
 1192 0302 73323900 		.ascii	"s29\000"
 1193 0306 08       		.byte	0x8
 1194 0307 1B01     		.2byte	0x11b
 1195 0309 3E020000 		.4byte	0x23e
 1196 030d 34       		.byte	0x34
 1197 030e 0C       		.uleb128 0xc
 1198 030f 73333000 		.ascii	"s30\000"
 1199 0313 08       		.byte	0x8
 1200 0314 1C01     		.2byte	0x11c
 1201 0316 3E020000 		.4byte	0x23e
 1202 031a 38       		.byte	0x38
 1203 031b 0C       		.uleb128 0xc
 1204 031c 73333100 		.ascii	"s31\000"
 1205 0320 08       		.byte	0x8
 1206 0321 1D01     		.2byte	0x11d
 1207 0323 3E020000 		.4byte	0x23e
 1208 0327 3C       		.byte	0x3c
 1209 0328 0C       		.uleb128 0xc
 1210 0329 723400   		.ascii	"r4\000"
 1211 032c 08       		.byte	0x8
 1212 032d 1F01     		.2byte	0x11f
 1213 032f 3E020000 		.4byte	0x23e
 1214 0333 40       		.byte	0x40
 1215 0334 0C       		.uleb128 0xc
 1216 0335 723500   		.ascii	"r5\000"
 1217 0338 08       		.byte	0x8
 1218 0339 2001     		.2byte	0x120
 1219 033b 3E020000 		.4byte	0x23e
 1220 033f 44       		.byte	0x44
 1221 0340 0C       		.uleb128 0xc
 1222 0341 723600   		.ascii	"r6\000"
 1223 0344 08       		.byte	0x8
 1224 0345 2101     		.2byte	0x121
 1225 0347 3E020000 		.4byte	0x23e
 1226 034b 48       		.byte	0x48
 1227 034c 0C       		.uleb128 0xc
 1228 034d 723700   		.ascii	"r7\000"
 1229 0350 08       		.byte	0x8
 1230 0351 2201     		.2byte	0x122
 1231 0353 3E020000 		.4byte	0x23e
 1232 0357 4C       		.byte	0x4c
 1233 0358 0C       		.uleb128 0xc
 1234 0359 723800   		.ascii	"r8\000"
 1235 035c 08       		.byte	0x8
 1236 035d 2301     		.2byte	0x123
 1237 035f 3E020000 		.4byte	0x23e
 1238 0363 50       		.byte	0x50
 1239 0364 0C       		.uleb128 0xc
 1240 0365 723900   		.ascii	"r9\000"
 1241 0368 08       		.byte	0x8
 1242 0369 2401     		.2byte	0x124
 1243 036b 3E020000 		.4byte	0x23e
ARM GAS  /tmp/ccQZJKRf.s 			page 23


 1244 036f 54       		.byte	0x54
 1245 0370 0C       		.uleb128 0xc
 1246 0371 72313000 		.ascii	"r10\000"
 1247 0375 08       		.byte	0x8
 1248 0376 2501     		.2byte	0x125
 1249 0378 3E020000 		.4byte	0x23e
 1250 037c 58       		.byte	0x58
 1251 037d 0C       		.uleb128 0xc
 1252 037e 72313100 		.ascii	"r11\000"
 1253 0382 08       		.byte	0x8
 1254 0383 2601     		.2byte	0x126
 1255 0385 3E020000 		.4byte	0x23e
 1256 0389 5C       		.byte	0x5c
 1257 038a 0C       		.uleb128 0xc
 1258 038b 6C7200   		.ascii	"lr\000"
 1259 038e 08       		.byte	0x8
 1260 038f 2701     		.2byte	0x127
 1261 0391 3E020000 		.4byte	0x23e
 1262 0395 60       		.byte	0x60
 1263 0396 00       		.byte	0
 1264 0397 0B       		.uleb128 0xb
 1265 0398 38030000 		.4byte	.LASF45
 1266 039c 04       		.byte	0x4
 1267 039d 08       		.byte	0x8
 1268 039e 3101     		.2byte	0x131
 1269 03a0 B2030000 		.4byte	0x3b2
 1270 03a4 0C       		.uleb128 0xc
 1271 03a5 72313300 		.ascii	"r13\000"
 1272 03a9 08       		.byte	0x8
 1273 03aa 3201     		.2byte	0x132
 1274 03ac B2030000 		.4byte	0x3b2
 1275 03b0 00       		.byte	0
 1276 03b1 00       		.byte	0
 1277 03b2 09       		.uleb128 0x9
 1278 03b3 04       		.byte	0x4
 1279 03b4 4B020000 		.4byte	0x24b
 1280 03b8 03       		.uleb128 0x3
 1281 03b9 04       		.byte	0x4
 1282 03ba 07       		.byte	0x7
 1283 03bb F4010000 		.4byte	.LASF46
 1284 03bf 08       		.uleb128 0x8
 1285 03c0 1C       		.byte	0x1c
 1286 03c1 09       		.byte	0x9
 1287 03c2 5E       		.byte	0x5e
 1288 03c3 10040000 		.4byte	0x410
 1289 03c7 06       		.uleb128 0x6
 1290 03c8 D1020000 		.4byte	.LASF47
 1291 03cc 09       		.byte	0x9
 1292 03cd 5F       		.byte	0x5f
 1293 03ce 13020000 		.4byte	0x213
 1294 03d2 00       		.byte	0
 1295 03d3 06       		.uleb128 0x6
 1296 03d4 80020000 		.4byte	.LASF48
 1297 03d8 09       		.byte	0x9
 1298 03d9 60       		.byte	0x60
 1299 03da D1000000 		.4byte	0xd1
 1300 03de 08       		.byte	0x8
ARM GAS  /tmp/ccQZJKRf.s 			page 24


 1301 03df 06       		.uleb128 0x6
 1302 03e0 05020000 		.4byte	.LASF49
 1303 03e4 09       		.byte	0x9
 1304 03e5 62       		.byte	0x62
 1305 03e6 97030000 		.4byte	0x397
 1306 03ea 0C       		.byte	0xc
 1307 03eb 06       		.uleb128 0x6
 1308 03ec C6010000 		.4byte	.LASF50
 1309 03f0 09       		.byte	0x9
 1310 03f1 65       		.byte	0x65
 1311 03f2 0D020000 		.4byte	0x20d
 1312 03f6 10       		.byte	0x10
 1313 03f7 06       		.uleb128 0x6
 1314 03f8 27020000 		.4byte	.LASF51
 1315 03fc 09       		.byte	0x9
 1316 03fd 66       		.byte	0x66
 1317 03fe 0D020000 		.4byte	0x20d
 1318 0402 14       		.byte	0x14
 1319 0403 06       		.uleb128 0x6
 1320 0404 1D020000 		.4byte	.LASF52
 1321 0408 09       		.byte	0x9
 1322 0409 69       		.byte	0x69
 1323 040a 0D020000 		.4byte	0x20d
 1324 040e 18       		.byte	0x18
 1325 040f 00       		.byte	0
 1326 0410 04       		.uleb128 0x4
 1327 0411 7C030000 		.4byte	.LASF53
 1328 0415 09       		.byte	0x9
 1329 0416 6B       		.byte	0x6b
 1330 0417 BF030000 		.4byte	0x3bf
 1331 041b 05       		.uleb128 0x5
 1332 041c 6B030000 		.4byte	.LASF54
 1333 0420 0C       		.byte	0xc
 1334 0421 0A       		.byte	0xa
 1335 0422 2C       		.byte	0x2c
 1336 0423 40040000 		.4byte	0x440
 1337 0427 06       		.uleb128 0x6
 1338 0428 B6000000 		.4byte	.LASF55
 1339 042c 0A       		.byte	0xa
 1340 042d 2D       		.byte	0x2d
 1341 042e 13020000 		.4byte	0x213
 1342 0432 00       		.byte	0
 1343 0433 06       		.uleb128 0x6
 1344 0434 9C010000 		.4byte	.LASF56
 1345 0438 0A       		.byte	0xa
 1346 0439 2F       		.byte	0x2f
 1347 043a FD000000 		.4byte	0xfd
 1348 043e 08       		.byte	0x8
 1349 043f 00       		.byte	0
 1350 0440 04       		.uleb128 0x4
 1351 0441 6B030000 		.4byte	.LASF54
 1352 0445 0A       		.byte	0xa
 1353 0446 30       		.byte	0x30
 1354 0447 1B040000 		.4byte	0x41b
 1355 044b 05       		.uleb128 0x5
 1356 044c EE010000 		.4byte	.LASF57
 1357 0450 10       		.byte	0x10
ARM GAS  /tmp/ccQZJKRf.s 			page 25


 1358 0451 0B       		.byte	0xb
 1359 0452 2C       		.byte	0x2c
 1360 0453 7C040000 		.4byte	0x47c
 1361 0457 06       		.uleb128 0x6
 1362 0458 8A000000 		.4byte	.LASF58
 1363 045c 0B       		.byte	0xb
 1364 045d 2D       		.byte	0x2d
 1365 045e 13020000 		.4byte	0x213
 1366 0462 00       		.byte	0
 1367 0463 06       		.uleb128 0x6
 1368 0464 B5040000 		.4byte	.LASF59
 1369 0468 0B       		.byte	0xb
 1370 0469 2F       		.byte	0x2f
 1371 046a 0D020000 		.4byte	0x20d
 1372 046e 08       		.byte	0x8
 1373 046f 06       		.uleb128 0x6
 1374 0470 08030000 		.4byte	.LASF60
 1375 0474 0B       		.byte	0xb
 1376 0475 31       		.byte	0x31
 1377 0476 7C040000 		.4byte	0x47c
 1378 047a 0C       		.byte	0xc
 1379 047b 00       		.byte	0
 1380 047c 09       		.uleb128 0x9
 1381 047d 04       		.byte	0x4
 1382 047e 4B040000 		.4byte	0x44b
 1383 0482 04       		.uleb128 0x4
 1384 0483 EE010000 		.4byte	.LASF57
 1385 0487 0B       		.byte	0xb
 1386 0488 33       		.byte	0x33
 1387 0489 4B040000 		.4byte	0x44b
 1388 048d 0D       		.uleb128 0xd
 1389 048e 04       		.byte	0x4
 1390 048f 07       		.byte	0x7
 1391 0490 96       		.byte	0x96
 1392 0491 C2040000 		.4byte	0x4c2
 1393 0495 0E       		.uleb128 0xe
 1394 0496 20000000 		.4byte	.LASF61
 1395 049a 07       		.byte	0x7
 1396 049b 9D       		.byte	0x9d
 1397 049c DC000000 		.4byte	0xdc
 1398 04a0 0E       		.uleb128 0xe
 1399 04a1 BE000000 		.4byte	.LASF62
 1400 04a5 07       		.byte	0x7
 1401 04a6 A4       		.byte	0xa4
 1402 04a7 DC000000 		.4byte	0xdc
 1403 04ab 0E       		.uleb128 0xe
 1404 04ac A0030000 		.4byte	.LASF63
 1405 04b0 07       		.byte	0x7
 1406 04b1 AB       		.byte	0xab
 1407 04b2 49020000 		.4byte	0x249
 1408 04b6 0E       		.uleb128 0xe
 1409 04b7 87020000 		.4byte	.LASF64
 1410 04bb 07       		.byte	0x7
 1411 04bc B2       		.byte	0xb2
 1412 04bd E7000000 		.4byte	0xe7
 1413 04c1 00       		.byte	0
 1414 04c2 09       		.uleb128 0x9
ARM GAS  /tmp/ccQZJKRf.s 			page 26


 1415 04c3 04       		.byte	0x4
 1416 04c4 C8040000 		.4byte	0x4c8
 1417 04c8 0F       		.uleb128 0xf
 1418 04c9 CD040000 		.4byte	0x4cd
 1419 04cd 03       		.uleb128 0x3
 1420 04ce 01       		.byte	0x1
 1421 04cf 08       		.byte	0x8
 1422 04d0 D9020000 		.4byte	.LASF65
 1423 04d4 09       		.uleb128 0x9
 1424 04d5 04       		.byte	0x4
 1425 04d6 82040000 		.4byte	0x482
 1426 04da 10       		.uleb128 0x10
 1427 04db 40030000 		.4byte	.LASF69
 1428 04df 02       		.byte	0x2
 1429 04e0 42       		.byte	0x42
 1430 04e1 0D020000 		.4byte	0x20d
 1431 04e5 03       		.byte	0x3
 1432 04e6 00050000 		.4byte	0x500
 1433 04ea 11       		.uleb128 0x11
 1434 04eb 74717000 		.ascii	"tqp\000"
 1435 04ef 02       		.byte	0x2
 1436 04f0 42       		.byte	0x42
 1437 04f1 00050000 		.4byte	0x500
 1438 04f5 12       		.uleb128 0x12
 1439 04f6 747000   		.ascii	"tp\000"
 1440 04f9 02       		.byte	0x2
 1441 04fa 43       		.byte	0x43
 1442 04fb 0D020000 		.4byte	0x20d
 1443 04ff 00       		.byte	0
 1444 0500 09       		.uleb128 0x9
 1445 0501 04       		.byte	0x4
 1446 0502 13020000 		.4byte	0x213
 1447 0506 13       		.uleb128 0x13
 1448 0507 06000000 		.4byte	.LASF84
 1449 050b 02       		.byte	0x2
 1450 050c 34       		.byte	0x34
 1451 050d 03       		.byte	0x3
 1452 050e 28050000 		.4byte	0x528
 1453 0512 11       		.uleb128 0x11
 1454 0513 747000   		.ascii	"tp\000"
 1455 0516 02       		.byte	0x2
 1456 0517 34       		.byte	0x34
 1457 0518 0D020000 		.4byte	0x20d
 1458 051c 11       		.uleb128 0x11
 1459 051d 74717000 		.ascii	"tqp\000"
 1460 0521 02       		.byte	0x2
 1461 0522 34       		.byte	0x34
 1462 0523 00050000 		.4byte	0x500
 1463 0527 00       		.byte	0
 1464 0528 14       		.uleb128 0x14
 1465 0529 9D020000 		.4byte	.LASF66
 1466 052d 01       		.byte	0x1
 1467 052e B9       		.byte	0xb9
 1468 052f DC000000 		.4byte	0xdc
 1469 0533 01       		.byte	0x1
 1470 0534 43050000 		.4byte	0x543
 1471 0538 11       		.uleb128 0x11
ARM GAS  /tmp/ccQZJKRf.s 			page 27


 1472 0539 737000   		.ascii	"sp\000"
 1473 053c 01       		.byte	0x1
 1474 053d B9       		.byte	0xb9
 1475 053e 43050000 		.4byte	0x543
 1476 0542 00       		.byte	0
 1477 0543 09       		.uleb128 0x9
 1478 0544 04       		.byte	0x4
 1479 0545 40040000 		.4byte	0x440
 1480 0549 14       		.uleb128 0x14
 1481 054a EA020000 		.4byte	.LASF67
 1482 054e 01       		.byte	0x1
 1483 054f FA       		.byte	0xfa
 1484 0550 DC000000 		.4byte	0xdc
 1485 0554 01       		.byte	0x1
 1486 0555 6F050000 		.4byte	0x56f
 1487 0559 11       		.uleb128 0x11
 1488 055a 737000   		.ascii	"sp\000"
 1489 055d 01       		.byte	0x1
 1490 055e FA       		.byte	0xfa
 1491 055f 43050000 		.4byte	0x543
 1492 0563 15       		.uleb128 0x15
 1493 0564 18020000 		.4byte	.LASF68
 1494 0568 01       		.byte	0x1
 1495 0569 FA       		.byte	0xfa
 1496 056a F2000000 		.4byte	0xf2
 1497 056e 00       		.byte	0
 1498 056f 10       		.uleb128 0x10
 1499 0570 DE020000 		.4byte	.LASF70
 1500 0574 02       		.byte	0x2
 1501 0575 3B       		.byte	0x3b
 1502 0576 0D020000 		.4byte	0x20d
 1503 057a 03       		.byte	0x3
 1504 057b 95050000 		.4byte	0x595
 1505 057f 11       		.uleb128 0x11
 1506 0580 74717000 		.ascii	"tqp\000"
 1507 0584 02       		.byte	0x2
 1508 0585 3B       		.byte	0x3b
 1509 0586 00050000 		.4byte	0x500
 1510 058a 12       		.uleb128 0x12
 1511 058b 747000   		.ascii	"tp\000"
 1512 058e 02       		.byte	0x2
 1513 058f 3C       		.byte	0x3c
 1514 0590 0D020000 		.4byte	0x20d
 1515 0594 00       		.byte	0
 1516 0595 16       		.uleb128 0x16
 1517 0596 CD040000 		.4byte	.LASF71
 1518 059a 01       		.byte	0x1
 1519 059b 56       		.byte	0x56
 1520 059c 00000000 		.4byte	.LFB7
 1521 05a0 08000000 		.4byte	.LFE7-.LFB7
 1522 05a4 01       		.uleb128 0x1
 1523 05a5 9C       		.byte	0x9c
 1524 05a6 C2050000 		.4byte	0x5c2
 1525 05aa 17       		.uleb128 0x17
 1526 05ab 737000   		.ascii	"sp\000"
 1527 05ae 01       		.byte	0x1
 1528 05af 56       		.byte	0x56
ARM GAS  /tmp/ccQZJKRf.s 			page 28


 1529 05b0 43050000 		.4byte	0x543
 1530 05b4 01       		.uleb128 0x1
 1531 05b5 50       		.byte	0x50
 1532 05b6 17       		.uleb128 0x17
 1533 05b7 6E00     		.ascii	"n\000"
 1534 05b9 01       		.byte	0x1
 1535 05ba 56       		.byte	0x56
 1536 05bb FD000000 		.4byte	0xfd
 1537 05bf 01       		.uleb128 0x1
 1538 05c0 51       		.byte	0x51
 1539 05c1 00       		.byte	0
 1540 05c2 16       		.uleb128 0x16
 1541 05c3 86030000 		.4byte	.LASF72
 1542 05c7 01       		.byte	0x1
 1543 05c8 88       		.byte	0x88
 1544 05c9 10000000 		.4byte	.LFB9
 1545 05cd 28000000 		.4byte	.LFE9-.LFB9
 1546 05d1 01       		.uleb128 0x1
 1547 05d2 9C       		.byte	0x9c
 1548 05d3 3B060000 		.4byte	0x63b
 1549 05d7 18       		.uleb128 0x18
 1550 05d8 737000   		.ascii	"sp\000"
 1551 05db 01       		.byte	0x1
 1552 05dc 88       		.byte	0x88
 1553 05dd 43050000 		.4byte	0x543
 1554 05e1 00000000 		.4byte	.LLST0
 1555 05e5 18       		.uleb128 0x18
 1556 05e6 6E00     		.ascii	"n\000"
 1557 05e8 01       		.byte	0x1
 1558 05e9 88       		.byte	0x88
 1559 05ea FD000000 		.4byte	0xfd
 1560 05ee 2C000000 		.4byte	.LLST1
 1561 05f2 19       		.uleb128 0x19
 1562 05f3 636E7400 		.ascii	"cnt\000"
 1563 05f7 01       		.byte	0x1
 1564 05f8 89       		.byte	0x89
 1565 05f9 FD000000 		.4byte	0xfd
 1566 05fd 4D000000 		.4byte	.LLST2
 1567 0601 1A       		.uleb128 0x1a
 1568 0602 DA040000 		.4byte	0x4da
 1569 0606 22000000 		.4byte	.LBB32
 1570 060a 08000000 		.4byte	.LBE32-.LBB32
 1571 060e 01       		.byte	0x1
 1572 060f 95       		.byte	0x95
 1573 0610 31060000 		.4byte	0x631
 1574 0614 1B       		.uleb128 0x1b
 1575 0615 EA040000 		.4byte	0x4ea
 1576 0619 78000000 		.4byte	.LLST3
 1577 061d 1C       		.uleb128 0x1c
 1578 061e 22000000 		.4byte	.LBB33
 1579 0622 08000000 		.4byte	.LBE33-.LBB33
 1580 0626 1D       		.uleb128 0x1d
 1581 0627 F5040000 		.4byte	0x4f5
 1582 062b 8B000000 		.4byte	.LLST4
 1583 062f 00       		.byte	0
 1584 0630 00       		.byte	0
 1585 0631 1E       		.uleb128 0x1e
ARM GAS  /tmp/ccQZJKRf.s 			page 29


 1586 0632 2E000000 		.4byte	.LVL6
 1587 0636 880B0000 		.4byte	0xb88
 1588 063a 00       		.byte	0
 1589 063b 16       		.uleb128 0x16
 1590 063c B5010000 		.4byte	.LASF73
 1591 0640 01       		.byte	0x1
 1592 0641 6D       		.byte	0x6d
 1593 0642 40000000 		.4byte	.LFB8
 1594 0646 18000000 		.4byte	.LFE8-.LFB8
 1595 064a 01       		.uleb128 0x1
 1596 064b 9C       		.byte	0x9c
 1597 064c C7060000 		.4byte	0x6c7
 1598 0650 18       		.uleb128 0x18
 1599 0651 737000   		.ascii	"sp\000"
 1600 0654 01       		.byte	0x1
 1601 0655 6D       		.byte	0x6d
 1602 0656 43050000 		.4byte	0x543
 1603 065a 9E000000 		.4byte	.LLST5
 1604 065e 18       		.uleb128 0x18
 1605 065f 6E00     		.ascii	"n\000"
 1606 0661 01       		.byte	0x1
 1607 0662 6D       		.byte	0x6d
 1608 0663 FD000000 		.4byte	0xfd
 1609 0667 BF000000 		.4byte	.LLST6
 1610 066b 1F       		.uleb128 0x1f
 1611 066c 42000000 		.4byte	.LBB34
 1612 0670 06000000 		.4byte	.LBE34-.LBB34
 1613 0674 86060000 		.4byte	0x686
 1614 0678 20       		.uleb128 0x20
 1615 0679 746D7000 		.ascii	"tmp\000"
 1616 067d 01       		.byte	0x1
 1617 067e 6F       		.byte	0x6f
 1618 067f 9E000000 		.4byte	0x9e
 1619 0683 01       		.uleb128 0x1
 1620 0684 53       		.byte	0x53
 1621 0685 00       		.byte	0
 1622 0686 1F       		.uleb128 0x1f
 1623 0687 50000000 		.4byte	.LBB35
 1624 068b 08000000 		.4byte	.LBE35-.LBB35
 1625 068f A1060000 		.4byte	0x6a1
 1626 0693 20       		.uleb128 0x20
 1627 0694 746D7000 		.ascii	"tmp\000"
 1628 0698 01       		.byte	0x1
 1629 0699 72       		.byte	0x72
 1630 069a 9E000000 		.4byte	0x9e
 1631 069e 01       		.uleb128 0x1
 1632 069f 53       		.byte	0x53
 1633 06a0 00       		.byte	0
 1634 06a1 21       		.uleb128 0x21
 1635 06a2 4C000000 		.4byte	.LVL11
 1636 06a6 C2050000 		.4byte	0x5c2
 1637 06aa BD060000 		.4byte	0x6bd
 1638 06ae 22       		.uleb128 0x22
 1639 06af 01       		.uleb128 0x1
 1640 06b0 51       		.byte	0x51
 1641 06b1 03       		.uleb128 0x3
 1642 06b2 F3       		.byte	0xf3
ARM GAS  /tmp/ccQZJKRf.s 			page 30


 1643 06b3 01       		.uleb128 0x1
 1644 06b4 51       		.byte	0x51
 1645 06b5 22       		.uleb128 0x22
 1646 06b6 01       		.uleb128 0x1
 1647 06b7 50       		.byte	0x50
 1648 06b8 03       		.uleb128 0x3
 1649 06b9 F3       		.byte	0xf3
 1650 06ba 01       		.uleb128 0x1
 1651 06bb 50       		.byte	0x50
 1652 06bc 00       		.byte	0
 1653 06bd 1E       		.uleb128 0x1e
 1654 06be 50000000 		.4byte	.LVL12
 1655 06c2 9D0B0000 		.4byte	0xb9d
 1656 06c6 00       		.byte	0
 1657 06c7 23       		.uleb128 0x23
 1658 06c8 2E030000 		.4byte	.LASF74
 1659 06cc 01       		.byte	0x1
 1660 06cd A4       		.byte	0xa4
 1661 06ce DC000000 		.4byte	0xdc
 1662 06d2 60000000 		.4byte	.LFB10
 1663 06d6 44000000 		.4byte	.LFE10-.LFB10
 1664 06da 01       		.uleb128 0x1
 1665 06db 9C       		.byte	0x9c
 1666 06dc 8D070000 		.4byte	0x78d
 1667 06e0 18       		.uleb128 0x18
 1668 06e1 737000   		.ascii	"sp\000"
 1669 06e4 01       		.byte	0x1
 1670 06e5 A4       		.byte	0xa4
 1671 06e6 43050000 		.4byte	0x543
 1672 06ea E0000000 		.4byte	.LLST7
 1673 06ee 12       		.uleb128 0x12
 1674 06ef 6D736700 		.ascii	"msg\000"
 1675 06f3 01       		.byte	0x1
 1676 06f4 A5       		.byte	0xa5
 1677 06f5 DC000000 		.4byte	0xdc
 1678 06f9 1F       		.uleb128 0x1f
 1679 06fa 60000000 		.4byte	.LBB44
 1680 06fe 06000000 		.4byte	.LBE44-.LBB44
 1681 0702 14070000 		.4byte	0x714
 1682 0706 20       		.uleb128 0x20
 1683 0707 746D7000 		.ascii	"tmp\000"
 1684 070b 01       		.byte	0x1
 1685 070c A7       		.byte	0xa7
 1686 070d 9E000000 		.4byte	0x9e
 1687 0711 01       		.uleb128 0x1
 1688 0712 53       		.byte	0x53
 1689 0713 00       		.byte	0
 1690 0714 24       		.uleb128 0x24
 1691 0715 28050000 		.4byte	0x528
 1692 0719 66000000 		.4byte	.LBB45
 1693 071d 00000000 		.4byte	.Ldebug_ranges0+0
 1694 0721 01       		.byte	0x1
 1695 0722 A8       		.byte	0xa8
 1696 0723 79070000 		.4byte	0x779
 1697 0727 1B       		.uleb128 0x1b
 1698 0728 38050000 		.4byte	0x538
 1699 072c 25010000 		.4byte	.LLST8
ARM GAS  /tmp/ccQZJKRf.s 			page 31


 1700 0730 1C       		.uleb128 0x1c
 1701 0731 7C000000 		.4byte	.LBB47
 1702 0735 1C000000 		.4byte	.LBE47-.LBB47
 1703 0739 1B       		.uleb128 0x1b
 1704 073a 38050000 		.4byte	0x538
 1705 073e 6A010000 		.4byte	.LLST9
 1706 0742 24       		.uleb128 0x24
 1707 0743 06050000 		.4byte	0x506
 1708 0747 82000000 		.4byte	.LBB49
 1709 074b 18000000 		.4byte	.Ldebug_ranges0+0x18
 1710 074f 01       		.byte	0x1
 1711 0750 C4       		.byte	0xc4
 1712 0751 68070000 		.4byte	0x768
 1713 0755 1B       		.uleb128 0x1b
 1714 0756 1C050000 		.4byte	0x51c
 1715 075a 6A010000 		.4byte	.LLST9
 1716 075e 1B       		.uleb128 0x1b
 1717 075f 12050000 		.4byte	0x512
 1718 0763 8B010000 		.4byte	.LLST11
 1719 0767 00       		.byte	0
 1720 0768 25       		.uleb128 0x25
 1721 0769 94000000 		.4byte	.LVL19
 1722 076d A40B0000 		.4byte	0xba4
 1723 0771 22       		.uleb128 0x22
 1724 0772 01       		.uleb128 0x1
 1725 0773 50       		.byte	0x50
 1726 0774 01       		.uleb128 0x1
 1727 0775 33       		.byte	0x33
 1728 0776 00       		.byte	0
 1729 0777 00       		.byte	0
 1730 0778 00       		.byte	0
 1731 0779 26       		.uleb128 0x26
 1732 077a 30000000 		.4byte	.Ldebug_ranges0+0x30
 1733 077e 20       		.uleb128 0x20
 1734 077f 746D7000 		.ascii	"tmp\000"
 1735 0783 01       		.byte	0x1
 1736 0784 A9       		.byte	0xa9
 1737 0785 9E000000 		.4byte	0x9e
 1738 0789 01       		.uleb128 0x1
 1739 078a 53       		.byte	0x53
 1740 078b 00       		.byte	0
 1741 078c 00       		.byte	0
 1742 078d 27       		.uleb128 0x27
 1743 078e 28050000 		.4byte	0x528
 1744 0792 B0000000 		.4byte	.LFB11
 1745 0796 34000000 		.4byte	.LFE11-.LFB11
 1746 079a 01       		.uleb128 0x1
 1747 079b 9C       		.byte	0x9c
 1748 079c F2070000 		.4byte	0x7f2
 1749 07a0 1B       		.uleb128 0x1b
 1750 07a1 38050000 		.4byte	0x538
 1751 07a5 9E010000 		.4byte	.LLST12
 1752 07a9 1C       		.uleb128 0x1c
 1753 07aa C0000000 		.4byte	.LBB61
 1754 07ae 24000000 		.4byte	.LBE61-.LBB61
 1755 07b2 1B       		.uleb128 0x1b
 1756 07b3 38050000 		.4byte	0x538
ARM GAS  /tmp/ccQZJKRf.s 			page 32


 1757 07b7 E3010000 		.4byte	.LLST13
 1758 07bb 24       		.uleb128 0x24
 1759 07bc 06050000 		.4byte	0x506
 1760 07c0 C6000000 		.4byte	.LBB63
 1761 07c4 48000000 		.4byte	.Ldebug_ranges0+0x48
 1762 07c8 01       		.byte	0x1
 1763 07c9 C4       		.byte	0xc4
 1764 07ca E1070000 		.4byte	0x7e1
 1765 07ce 1B       		.uleb128 0x1b
 1766 07cf 1C050000 		.4byte	0x51c
 1767 07d3 E3010000 		.4byte	.LLST13
 1768 07d7 1B       		.uleb128 0x1b
 1769 07d8 12050000 		.4byte	0x512
 1770 07dc 04020000 		.4byte	.LLST15
 1771 07e0 00       		.byte	0
 1772 07e1 25       		.uleb128 0x25
 1773 07e2 D8000000 		.4byte	.LVL25
 1774 07e6 A40B0000 		.4byte	0xba4
 1775 07ea 22       		.uleb128 0x22
 1776 07eb 01       		.uleb128 0x1
 1777 07ec 50       		.byte	0x50
 1778 07ed 01       		.uleb128 0x1
 1779 07ee 33       		.byte	0x33
 1780 07ef 00       		.byte	0
 1781 07f0 00       		.byte	0
 1782 07f1 00       		.byte	0
 1783 07f2 27       		.uleb128 0x27
 1784 07f3 49050000 		.4byte	0x549
 1785 07f7 F0000000 		.4byte	.LFB13
 1786 07fb 40000000 		.4byte	.LFE13-.LFB13
 1787 07ff 01       		.uleb128 0x1
 1788 0800 9C       		.byte	0x9c
 1789 0801 62080000 		.4byte	0x862
 1790 0805 1B       		.uleb128 0x1b
 1791 0806 59050000 		.4byte	0x559
 1792 080a 17020000 		.4byte	.LLST16
 1793 080e 1B       		.uleb128 0x1b
 1794 080f 63050000 		.4byte	0x563
 1795 0813 4E020000 		.4byte	.LLST17
 1796 0817 26       		.uleb128 0x26
 1797 0818 60000000 		.4byte	.Ldebug_ranges0+0x60
 1798 081c 28       		.uleb128 0x28
 1799 081d 63050000 		.4byte	0x563
 1800 0821 1B       		.uleb128 0x1b
 1801 0822 59050000 		.4byte	0x559
 1802 0826 7A020000 		.4byte	.LLST18
 1803 082a 29       		.uleb128 0x29
 1804 082b 06050000 		.4byte	0x506
 1805 082f 0A010000 		.4byte	.LBB73
 1806 0833 78000000 		.4byte	.Ldebug_ranges0+0x78
 1807 0837 01       		.byte	0x1
 1808 0838 0901     		.2byte	0x109
 1809 083a 51080000 		.4byte	0x851
 1810 083e 1B       		.uleb128 0x1b
 1811 083f 1C050000 		.4byte	0x51c
 1812 0843 9B020000 		.4byte	.LLST19
 1813 0847 1B       		.uleb128 0x1b
ARM GAS  /tmp/ccQZJKRf.s 			page 33


 1814 0848 12050000 		.4byte	0x512
 1815 084c BC020000 		.4byte	.LLST20
 1816 0850 00       		.byte	0
 1817 0851 2A       		.uleb128 0x2a
 1818 0852 1E010000 		.4byte	.LVL30
 1819 0856 B50B0000 		.4byte	0xbb5
 1820 085a 22       		.uleb128 0x22
 1821 085b 01       		.uleb128 0x1
 1822 085c 50       		.byte	0x50
 1823 085d 01       		.uleb128 0x1
 1824 085e 33       		.byte	0x33
 1825 085f 00       		.byte	0
 1826 0860 00       		.byte	0
 1827 0861 00       		.byte	0
 1828 0862 23       		.uleb128 0x23
 1829 0863 FF000000 		.4byte	.LASF75
 1830 0867 01       		.byte	0x1
 1831 0868 DE       		.byte	0xde
 1832 0869 DC000000 		.4byte	0xdc
 1833 086d 30010000 		.4byte	.LFB12
 1834 0871 14000000 		.4byte	.LFE12-.LFB12
 1835 0875 01       		.uleb128 0x1
 1836 0876 9C       		.byte	0x9c
 1837 0877 F4080000 		.4byte	0x8f4
 1838 087b 18       		.uleb128 0x18
 1839 087c 737000   		.ascii	"sp\000"
 1840 087f 01       		.byte	0x1
 1841 0880 DE       		.byte	0xde
 1842 0881 43050000 		.4byte	0x543
 1843 0885 CF020000 		.4byte	.LLST21
 1844 0889 2B       		.uleb128 0x2b
 1845 088a 18020000 		.4byte	.LASF68
 1846 088e 01       		.byte	0x1
 1847 088f DE       		.byte	0xde
 1848 0890 F2000000 		.4byte	0xf2
 1849 0894 F0020000 		.4byte	.LLST22
 1850 0898 20       		.uleb128 0x20
 1851 0899 6D736700 		.ascii	"msg\000"
 1852 089d 01       		.byte	0x1
 1853 089e DF       		.byte	0xdf
 1854 089f DC000000 		.4byte	0xdc
 1855 08a3 01       		.uleb128 0x1
 1856 08a4 50       		.byte	0x50
 1857 08a5 1F       		.uleb128 0x1f
 1858 08a6 32010000 		.4byte	.LBB79
 1859 08aa 06000000 		.4byte	.LBE79-.LBB79
 1860 08ae C0080000 		.4byte	0x8c0
 1861 08b2 20       		.uleb128 0x20
 1862 08b3 746D7000 		.ascii	"tmp\000"
 1863 08b7 01       		.byte	0x1
 1864 08b8 E1       		.byte	0xe1
 1865 08b9 9E000000 		.4byte	0x9e
 1866 08bd 01       		.uleb128 0x1
 1867 08be 53       		.byte	0x53
 1868 08bf 00       		.byte	0
 1869 08c0 1F       		.uleb128 0x1f
 1870 08c1 3C010000 		.4byte	.LBB80
ARM GAS  /tmp/ccQZJKRf.s 			page 34


 1871 08c5 06000000 		.4byte	.LBE80-.LBB80
 1872 08c9 DB080000 		.4byte	0x8db
 1873 08cd 20       		.uleb128 0x20
 1874 08ce 746D7000 		.ascii	"tmp\000"
 1875 08d2 01       		.byte	0x1
 1876 08d3 E3       		.byte	0xe3
 1877 08d4 9E000000 		.4byte	0x9e
 1878 08d8 01       		.uleb128 0x1
 1879 08d9 53       		.byte	0x53
 1880 08da 00       		.byte	0
 1881 08db 25       		.uleb128 0x25
 1882 08dc 3C010000 		.4byte	.LVL32
 1883 08e0 49050000 		.4byte	0x549
 1884 08e4 22       		.uleb128 0x22
 1885 08e5 01       		.uleb128 0x1
 1886 08e6 51       		.byte	0x51
 1887 08e7 03       		.uleb128 0x3
 1888 08e8 F3       		.byte	0xf3
 1889 08e9 01       		.uleb128 0x1
 1890 08ea 51       		.byte	0x51
 1891 08eb 22       		.uleb128 0x22
 1892 08ec 01       		.uleb128 0x1
 1893 08ed 50       		.byte	0x50
 1894 08ee 03       		.uleb128 0x3
 1895 08ef F3       		.byte	0xf3
 1896 08f0 01       		.uleb128 0x1
 1897 08f1 50       		.byte	0x50
 1898 08f2 00       		.byte	0
 1899 08f3 00       		.byte	0
 1900 08f4 2C       		.uleb128 0x2c
 1901 08f5 22010000 		.4byte	.LASF76
 1902 08f9 01       		.byte	0x1
 1903 08fa 1601     		.2byte	0x116
 1904 08fc 50010000 		.4byte	.LFB14
 1905 0900 32000000 		.4byte	.LFE14-.LFB14
 1906 0904 01       		.uleb128 0x1
 1907 0905 9C       		.byte	0x9c
 1908 0906 8A090000 		.4byte	0x98a
 1909 090a 2D       		.uleb128 0x2d
 1910 090b 737000   		.ascii	"sp\000"
 1911 090e 01       		.byte	0x1
 1912 090f 1601     		.2byte	0x116
 1913 0911 43050000 		.4byte	0x543
 1914 0915 11030000 		.4byte	.LLST23
 1915 0919 1F       		.uleb128 0x1f
 1916 091a 52010000 		.4byte	.LBB81
 1917 091e 06000000 		.4byte	.LBE81-.LBB81
 1918 0922 35090000 		.4byte	0x935
 1919 0926 2E       		.uleb128 0x2e
 1920 0927 746D7000 		.ascii	"tmp\000"
 1921 092b 01       		.byte	0x1
 1922 092c 1E01     		.2byte	0x11e
 1923 092e 9E000000 		.4byte	0x9e
 1924 0932 01       		.uleb128 0x1
 1925 0933 53       		.byte	0x53
 1926 0934 00       		.byte	0
 1927 0935 2F       		.uleb128 0x2f
ARM GAS  /tmp/ccQZJKRf.s 			page 35


 1928 0936 90000000 		.4byte	.Ldebug_ranges0+0x90
 1929 093a 4D090000 		.4byte	0x94d
 1930 093e 2E       		.uleb128 0x2e
 1931 093f 746D7000 		.ascii	"tmp\000"
 1932 0943 01       		.byte	0x1
 1933 0944 2101     		.2byte	0x121
 1934 0946 9E000000 		.4byte	0x9e
 1935 094a 01       		.uleb128 0x1
 1936 094b 53       		.byte	0x53
 1937 094c 00       		.byte	0
 1938 094d 29       		.uleb128 0x29
 1939 094e 6F050000 		.4byte	0x56f
 1940 0952 6C010000 		.4byte	.LBB83
 1941 0956 A8000000 		.4byte	.Ldebug_ranges0+0xa8
 1942 095a 01       		.byte	0x1
 1943 095b 2001     		.2byte	0x120
 1944 095d 7A090000 		.4byte	0x97a
 1945 0961 1B       		.uleb128 0x1b
 1946 0962 7F050000 		.4byte	0x57f
 1947 0966 3D030000 		.4byte	.LLST24
 1948 096a 26       		.uleb128 0x26
 1949 096b A8000000 		.4byte	.Ldebug_ranges0+0xa8
 1950 096f 1D       		.uleb128 0x1d
 1951 0970 8A050000 		.4byte	0x58a
 1952 0974 5E030000 		.4byte	.LLST25
 1953 0978 00       		.byte	0
 1954 0979 00       		.byte	0
 1955 097a 25       		.uleb128 0x25
 1956 097b 7A010000 		.4byte	.LVL36
 1957 097f CF0B0000 		.4byte	0xbcf
 1958 0983 22       		.uleb128 0x22
 1959 0984 01       		.uleb128 0x1
 1960 0985 51       		.byte	0x51
 1961 0986 01       		.uleb128 0x1
 1962 0987 30       		.byte	0x30
 1963 0988 00       		.byte	0
 1964 0989 00       		.byte	0
 1965 098a 2C       		.uleb128 0x2c
 1966 098b 13000000 		.4byte	.LASF77
 1967 098f 01       		.byte	0x1
 1968 0990 2F01     		.2byte	0x12f
 1969 0992 90010000 		.4byte	.LFB15
 1970 0996 1E000000 		.4byte	.LFE15-.LFB15
 1971 099a 01       		.uleb128 0x1
 1972 099b 9C       		.byte	0x9c
 1973 099c FD090000 		.4byte	0x9fd
 1974 09a0 2D       		.uleb128 0x2d
 1975 09a1 737000   		.ascii	"sp\000"
 1976 09a4 01       		.byte	0x1
 1977 09a5 2F01     		.2byte	0x12f
 1978 09a7 43050000 		.4byte	0x543
 1979 09ab 71030000 		.4byte	.LLST26
 1980 09af 1C       		.uleb128 0x1c
 1981 09b0 9C010000 		.4byte	.LBB88
 1982 09b4 12000000 		.4byte	.LBE88-.LBB88
 1983 09b8 2E       		.uleb128 0x2e
 1984 09b9 747000   		.ascii	"tp\000"
ARM GAS  /tmp/ccQZJKRf.s 			page 36


 1985 09bc 01       		.byte	0x1
 1986 09bd 3B01     		.2byte	0x13b
 1987 09bf 0D020000 		.4byte	0x20d
 1988 09c3 01       		.uleb128 0x1
 1989 09c4 53       		.byte	0x53
 1990 09c5 29       		.uleb128 0x29
 1991 09c6 6F050000 		.4byte	0x56f
 1992 09ca 9C010000 		.4byte	.LBB89
 1993 09ce C0000000 		.4byte	.Ldebug_ranges0+0xc0
 1994 09d2 01       		.byte	0x1
 1995 09d3 3B01     		.2byte	0x13b
 1996 09d5 F2090000 		.4byte	0x9f2
 1997 09d9 1B       		.uleb128 0x1b
 1998 09da 7F050000 		.4byte	0x57f
 1999 09de 9E030000 		.4byte	.LLST27
 2000 09e2 26       		.uleb128 0x26
 2001 09e3 C0000000 		.4byte	.Ldebug_ranges0+0xc0
 2002 09e7 1D       		.uleb128 0x1d
 2003 09e8 8A050000 		.4byte	0x58a
 2004 09ec CB030000 		.4byte	.LLST28
 2005 09f0 00       		.byte	0
 2006 09f1 00       		.byte	0
 2007 09f2 30       		.uleb128 0x30
 2008 09f3 AE010000 		.4byte	.LVL41
 2009 09f7 880B0000 		.4byte	0xb88
 2010 09fb 00       		.byte	0
 2011 09fc 00       		.byte	0
 2012 09fd 2C       		.uleb128 0x2c
 2013 09fe 48000000 		.4byte	.LASF78
 2014 0a02 01       		.byte	0x1
 2015 0a03 4E01     		.2byte	0x14e
 2016 0a05 B0010000 		.4byte	.LFB16
 2017 0a09 2E000000 		.4byte	.LFE16-.LFB16
 2018 0a0d 01       		.uleb128 0x1
 2019 0a0e 9C       		.byte	0x9c
 2020 0a0f 6B0A0000 		.4byte	0xa6b
 2021 0a13 2D       		.uleb128 0x2d
 2022 0a14 737000   		.ascii	"sp\000"
 2023 0a17 01       		.byte	0x1
 2024 0a18 4E01     		.2byte	0x14e
 2025 0a1a 43050000 		.4byte	0x543
 2026 0a1e DE030000 		.4byte	.LLST29
 2027 0a22 2D       		.uleb128 0x2d
 2028 0a23 6E00     		.ascii	"n\000"
 2029 0a25 01       		.byte	0x1
 2030 0a26 4E01     		.2byte	0x14e
 2031 0a28 FD000000 		.4byte	0xfd
 2032 0a2c 0A040000 		.4byte	.LLST30
 2033 0a30 31       		.uleb128 0x31
 2034 0a31 6F050000 		.4byte	0x56f
 2035 0a35 CA010000 		.4byte	.LBB93
 2036 0a39 08000000 		.4byte	.LBE93-.LBB93
 2037 0a3d 01       		.byte	0x1
 2038 0a3e 5901     		.2byte	0x159
 2039 0a40 610A0000 		.4byte	0xa61
 2040 0a44 1B       		.uleb128 0x1b
 2041 0a45 7F050000 		.4byte	0x57f
ARM GAS  /tmp/ccQZJKRf.s 			page 37


 2042 0a49 42040000 		.4byte	.LLST31
 2043 0a4d 1C       		.uleb128 0x1c
 2044 0a4e CA010000 		.4byte	.LBB94
 2045 0a52 08000000 		.4byte	.LBE94-.LBB94
 2046 0a56 1D       		.uleb128 0x1d
 2047 0a57 8A050000 		.4byte	0x58a
 2048 0a5b 55040000 		.4byte	.LLST32
 2049 0a5f 00       		.byte	0
 2050 0a60 00       		.byte	0
 2051 0a61 1E       		.uleb128 0x1e
 2052 0a62 D6010000 		.4byte	.LVL48
 2053 0a66 880B0000 		.4byte	0xb88
 2054 0a6a 00       		.byte	0
 2055 0a6b 32       		.uleb128 0x32
 2056 0a6c 7A000000 		.4byte	.LASF79
 2057 0a70 01       		.byte	0x1
 2058 0a71 6E01     		.2byte	0x16e
 2059 0a73 DC000000 		.4byte	0xdc
 2060 0a77 E0010000 		.4byte	.LFB17
 2061 0a7b 6C000000 		.4byte	.LFE17-.LFB17
 2062 0a7f 01       		.uleb128 0x1
 2063 0a80 9C       		.byte	0x9c
 2064 0a81 7D0B0000 		.4byte	0xb7d
 2065 0a85 2D       		.uleb128 0x2d
 2066 0a86 73707300 		.ascii	"sps\000"
 2067 0a8a 01       		.byte	0x1
 2068 0a8b 6E01     		.2byte	0x16e
 2069 0a8d 43050000 		.4byte	0x543
 2070 0a91 68040000 		.4byte	.LLST33
 2071 0a95 2D       		.uleb128 0x2d
 2072 0a96 73707700 		.ascii	"spw\000"
 2073 0a9a 01       		.byte	0x1
 2074 0a9b 6E01     		.2byte	0x16e
 2075 0a9d 43050000 		.4byte	0x543
 2076 0aa1 AD040000 		.4byte	.LLST34
 2077 0aa5 33       		.uleb128 0x33
 2078 0aa6 6D736700 		.ascii	"msg\000"
 2079 0aaa 01       		.byte	0x1
 2080 0aab 6F01     		.2byte	0x16f
 2081 0aad DC000000 		.4byte	0xdc
 2082 0ab1 E5040000 		.4byte	.LLST35
 2083 0ab5 1F       		.uleb128 0x1f
 2084 0ab6 E6010000 		.4byte	.LBB95
 2085 0aba 06000000 		.4byte	.LBE95-.LBB95
 2086 0abe D10A0000 		.4byte	0xad1
 2087 0ac2 2E       		.uleb128 0x2e
 2088 0ac3 746D7000 		.ascii	"tmp\000"
 2089 0ac7 01       		.byte	0x1
 2090 0ac8 7B01     		.2byte	0x17b
 2091 0aca 9E000000 		.4byte	0x9e
 2092 0ace 01       		.uleb128 0x1
 2093 0acf 53       		.byte	0x53
 2094 0ad0 00       		.byte	0
 2095 0ad1 2F       		.uleb128 0x2f
 2096 0ad2 D8000000 		.4byte	.Ldebug_ranges0+0xd8
 2097 0ad6 E90A0000 		.4byte	0xae9
 2098 0ada 2E       		.uleb128 0x2e
ARM GAS  /tmp/ccQZJKRf.s 			page 38


 2099 0adb 746D7000 		.ascii	"tmp\000"
 2100 0adf 01       		.byte	0x1
 2101 0ae0 8901     		.2byte	0x189
 2102 0ae2 9E000000 		.4byte	0x9e
 2103 0ae6 01       		.uleb128 0x1
 2104 0ae7 53       		.byte	0x53
 2105 0ae8 00       		.byte	0
 2106 0ae9 1F       		.uleb128 0x1f
 2107 0aea 10020000 		.4byte	.LBB97
 2108 0aee 18000000 		.4byte	.LBE97-.LBB97
 2109 0af2 3D0B0000 		.4byte	0xb3d
 2110 0af6 33       		.uleb128 0x33
 2111 0af7 63747000 		.ascii	"ctp\000"
 2112 0afb 01       		.byte	0x1
 2113 0afc 7F01     		.2byte	0x17f
 2114 0afe 0D020000 		.4byte	0x20d
 2115 0b02 0F050000 		.4byte	.LLST36
 2116 0b06 29       		.uleb128 0x29
 2117 0b07 06050000 		.4byte	0x506
 2118 0b0b 12020000 		.4byte	.LBB98
 2119 0b0f F0000000 		.4byte	.Ldebug_ranges0+0xf0
 2120 0b13 01       		.byte	0x1
 2121 0b14 8001     		.2byte	0x180
 2122 0b16 2D0B0000 		.4byte	0xb2d
 2123 0b1a 1B       		.uleb128 0x1b
 2124 0b1b 1C050000 		.4byte	0x51c
 2125 0b1f 22050000 		.4byte	.LLST37
 2126 0b23 1B       		.uleb128 0x1b
 2127 0b24 12050000 		.4byte	0x512
 2128 0b28 0F050000 		.4byte	.LLST36
 2129 0b2c 00       		.byte	0
 2130 0b2d 25       		.uleb128 0x25
 2131 0b2e 26020000 		.4byte	.LVL58
 2132 0b32 A40B0000 		.4byte	0xba4
 2133 0b36 22       		.uleb128 0x22
 2134 0b37 01       		.uleb128 0x1
 2135 0b38 50       		.byte	0x50
 2136 0b39 01       		.uleb128 0x1
 2137 0b3a 33       		.byte	0x33
 2138 0b3b 00       		.byte	0
 2139 0b3c 00       		.byte	0
 2140 0b3d 31       		.uleb128 0x31
 2141 0b3e 6F050000 		.4byte	0x56f
 2142 0b42 32020000 		.4byte	.LBB103
 2143 0b46 0A000000 		.4byte	.LBE103-.LBB103
 2144 0b4a 01       		.byte	0x1
 2145 0b4b 7D01     		.2byte	0x17d
 2146 0b4d 6A0B0000 		.4byte	0xb6a
 2147 0b51 28       		.uleb128 0x28
 2148 0b52 7F050000 		.4byte	0x57f
 2149 0b56 1C       		.uleb128 0x1c
 2150 0b57 32020000 		.4byte	.LBB104
 2151 0b5b 0A000000 		.4byte	.LBE104-.LBB104
 2152 0b5f 1D       		.uleb128 0x1d
 2153 0b60 8A050000 		.4byte	0x58a
 2154 0b64 35050000 		.4byte	.LLST39
 2155 0b68 00       		.byte	0
ARM GAS  /tmp/ccQZJKRf.s 			page 39


 2156 0b69 00       		.byte	0
 2157 0b6a 1E       		.uleb128 0x1e
 2158 0b6b 04020000 		.4byte	.LVL54
 2159 0b6f 9D0B0000 		.4byte	0xb9d
 2160 0b73 1E       		.uleb128 0x1e
 2161 0b74 40020000 		.4byte	.LVL63
 2162 0b78 880B0000 		.4byte	0xb88
 2163 0b7c 00       		.byte	0
 2164 0b7d 34       		.uleb128 0x34
 2165 0b7e 92030000 		.4byte	.LASF85
 2166 0b82 09       		.byte	0x9
 2167 0b83 6F       		.byte	0x6f
 2168 0b84 10040000 		.4byte	0x410
 2169 0b88 35       		.uleb128 0x35
 2170 0b89 FC020000 		.4byte	.LASF80
 2171 0b8d 09       		.byte	0x9
 2172 0b8e 90       		.byte	0x90
 2173 0b8f 0D020000 		.4byte	0x20d
 2174 0b93 9D0B0000 		.4byte	0xb9d
 2175 0b97 36       		.uleb128 0x36
 2176 0b98 0D020000 		.4byte	0x20d
 2177 0b9c 00       		.byte	0
 2178 0b9d 37       		.uleb128 0x37
 2179 0b9e C7000000 		.4byte	.LASF86
 2180 0ba2 09       		.byte	0x9
 2181 0ba3 9C       		.byte	0x9c
 2182 0ba4 38       		.uleb128 0x38
 2183 0ba5 AF020000 		.4byte	.LASF87
 2184 0ba9 09       		.byte	0x9
 2185 0baa 93       		.byte	0x93
 2186 0bab B50B0000 		.4byte	0xbb5
 2187 0baf 36       		.uleb128 0x36
 2188 0bb0 BB000000 		.4byte	0xbb
 2189 0bb4 00       		.byte	0
 2190 0bb5 35       		.uleb128 0x35
 2191 0bb6 A0040000 		.4byte	.LASF81
 2192 0bba 09       		.byte	0x9
 2193 0bbb 96       		.byte	0x96
 2194 0bbc DC000000 		.4byte	0xdc
 2195 0bc0 CF0B0000 		.4byte	0xbcf
 2196 0bc4 36       		.uleb128 0x36
 2197 0bc5 BB000000 		.4byte	0xbb
 2198 0bc9 36       		.uleb128 0x36
 2199 0bca F2000000 		.4byte	0xf2
 2200 0bce 00       		.byte	0
 2201 0bcf 39       		.uleb128 0x39
 2202 0bd0 5E030000 		.4byte	.LASF88
 2203 0bd4 09       		.byte	0x9
 2204 0bd5 99       		.byte	0x99
 2205 0bd6 36       		.uleb128 0x36
 2206 0bd7 0D020000 		.4byte	0x20d
 2207 0bdb 36       		.uleb128 0x36
 2208 0bdc DC000000 		.4byte	0xdc
 2209 0be0 00       		.byte	0
 2210 0be1 00       		.byte	0
 2211              		.section	.debug_abbrev,"",%progbits
 2212              	.Ldebug_abbrev0:
ARM GAS  /tmp/ccQZJKRf.s 			page 40


 2213 0000 01       		.uleb128 0x1
 2214 0001 11       		.uleb128 0x11
 2215 0002 01       		.byte	0x1
 2216 0003 25       		.uleb128 0x25
 2217 0004 0E       		.uleb128 0xe
 2218 0005 13       		.uleb128 0x13
 2219 0006 0B       		.uleb128 0xb
 2220 0007 03       		.uleb128 0x3
 2221 0008 0E       		.uleb128 0xe
 2222 0009 11       		.uleb128 0x11
 2223 000a 01       		.uleb128 0x1
 2224 000b 12       		.uleb128 0x12
 2225 000c 06       		.uleb128 0x6
 2226 000d 10       		.uleb128 0x10
 2227 000e 17       		.uleb128 0x17
 2228 000f 00       		.byte	0
 2229 0010 00       		.byte	0
 2230 0011 02       		.uleb128 0x2
 2231 0012 24       		.uleb128 0x24
 2232 0013 00       		.byte	0
 2233 0014 0B       		.uleb128 0xb
 2234 0015 0B       		.uleb128 0xb
 2235 0016 3E       		.uleb128 0x3e
 2236 0017 0B       		.uleb128 0xb
 2237 0018 03       		.uleb128 0x3
 2238 0019 08       		.uleb128 0x8
 2239 001a 00       		.byte	0
 2240 001b 00       		.byte	0
 2241 001c 03       		.uleb128 0x3
 2242 001d 24       		.uleb128 0x24
 2243 001e 00       		.byte	0
 2244 001f 0B       		.uleb128 0xb
 2245 0020 0B       		.uleb128 0xb
 2246 0021 3E       		.uleb128 0x3e
 2247 0022 0B       		.uleb128 0xb
 2248 0023 03       		.uleb128 0x3
 2249 0024 0E       		.uleb128 0xe
 2250 0025 00       		.byte	0
 2251 0026 00       		.byte	0
 2252 0027 04       		.uleb128 0x4
 2253 0028 16       		.uleb128 0x16
 2254 0029 00       		.byte	0
 2255 002a 03       		.uleb128 0x3
 2256 002b 0E       		.uleb128 0xe
 2257 002c 3A       		.uleb128 0x3a
 2258 002d 0B       		.uleb128 0xb
 2259 002e 3B       		.uleb128 0x3b
 2260 002f 0B       		.uleb128 0xb
 2261 0030 49       		.uleb128 0x49
 2262 0031 13       		.uleb128 0x13
 2263 0032 00       		.byte	0
 2264 0033 00       		.byte	0
 2265 0034 05       		.uleb128 0x5
 2266 0035 13       		.uleb128 0x13
 2267 0036 01       		.byte	0x1
 2268 0037 03       		.uleb128 0x3
 2269 0038 0E       		.uleb128 0xe
ARM GAS  /tmp/ccQZJKRf.s 			page 41


 2270 0039 0B       		.uleb128 0xb
 2271 003a 0B       		.uleb128 0xb
 2272 003b 3A       		.uleb128 0x3a
 2273 003c 0B       		.uleb128 0xb
 2274 003d 3B       		.uleb128 0x3b
 2275 003e 0B       		.uleb128 0xb
 2276 003f 01       		.uleb128 0x1
 2277 0040 13       		.uleb128 0x13
 2278 0041 00       		.byte	0
 2279 0042 00       		.byte	0
 2280 0043 06       		.uleb128 0x6
 2281 0044 0D       		.uleb128 0xd
 2282 0045 00       		.byte	0
 2283 0046 03       		.uleb128 0x3
 2284 0047 0E       		.uleb128 0xe
 2285 0048 3A       		.uleb128 0x3a
 2286 0049 0B       		.uleb128 0xb
 2287 004a 3B       		.uleb128 0x3b
 2288 004b 0B       		.uleb128 0xb
 2289 004c 49       		.uleb128 0x49
 2290 004d 13       		.uleb128 0x13
 2291 004e 38       		.uleb128 0x38
 2292 004f 0B       		.uleb128 0xb
 2293 0050 00       		.byte	0
 2294 0051 00       		.byte	0
 2295 0052 07       		.uleb128 0x7
 2296 0053 0D       		.uleb128 0xd
 2297 0054 00       		.byte	0
 2298 0055 03       		.uleb128 0x3
 2299 0056 08       		.uleb128 0x8
 2300 0057 3A       		.uleb128 0x3a
 2301 0058 0B       		.uleb128 0xb
 2302 0059 3B       		.uleb128 0x3b
 2303 005a 0B       		.uleb128 0xb
 2304 005b 49       		.uleb128 0x49
 2305 005c 13       		.uleb128 0x13
 2306 005d 38       		.uleb128 0x38
 2307 005e 0B       		.uleb128 0xb
 2308 005f 00       		.byte	0
 2309 0060 00       		.byte	0
 2310 0061 08       		.uleb128 0x8
 2311 0062 13       		.uleb128 0x13
 2312 0063 01       		.byte	0x1
 2313 0064 0B       		.uleb128 0xb
 2314 0065 0B       		.uleb128 0xb
 2315 0066 3A       		.uleb128 0x3a
 2316 0067 0B       		.uleb128 0xb
 2317 0068 3B       		.uleb128 0x3b
 2318 0069 0B       		.uleb128 0xb
 2319 006a 01       		.uleb128 0x1
 2320 006b 13       		.uleb128 0x13
 2321 006c 00       		.byte	0
 2322 006d 00       		.byte	0
 2323 006e 09       		.uleb128 0x9
 2324 006f 0F       		.uleb128 0xf
 2325 0070 00       		.byte	0
 2326 0071 0B       		.uleb128 0xb
ARM GAS  /tmp/ccQZJKRf.s 			page 42


 2327 0072 0B       		.uleb128 0xb
 2328 0073 49       		.uleb128 0x49
 2329 0074 13       		.uleb128 0x13
 2330 0075 00       		.byte	0
 2331 0076 00       		.byte	0
 2332 0077 0A       		.uleb128 0xa
 2333 0078 0F       		.uleb128 0xf
 2334 0079 00       		.byte	0
 2335 007a 0B       		.uleb128 0xb
 2336 007b 0B       		.uleb128 0xb
 2337 007c 00       		.byte	0
 2338 007d 00       		.byte	0
 2339 007e 0B       		.uleb128 0xb
 2340 007f 13       		.uleb128 0x13
 2341 0080 01       		.byte	0x1
 2342 0081 03       		.uleb128 0x3
 2343 0082 0E       		.uleb128 0xe
 2344 0083 0B       		.uleb128 0xb
 2345 0084 0B       		.uleb128 0xb
 2346 0085 3A       		.uleb128 0x3a
 2347 0086 0B       		.uleb128 0xb
 2348 0087 3B       		.uleb128 0x3b
 2349 0088 05       		.uleb128 0x5
 2350 0089 01       		.uleb128 0x1
 2351 008a 13       		.uleb128 0x13
 2352 008b 00       		.byte	0
 2353 008c 00       		.byte	0
 2354 008d 0C       		.uleb128 0xc
 2355 008e 0D       		.uleb128 0xd
 2356 008f 00       		.byte	0
 2357 0090 03       		.uleb128 0x3
 2358 0091 08       		.uleb128 0x8
 2359 0092 3A       		.uleb128 0x3a
 2360 0093 0B       		.uleb128 0xb
 2361 0094 3B       		.uleb128 0x3b
 2362 0095 05       		.uleb128 0x5
 2363 0096 49       		.uleb128 0x49
 2364 0097 13       		.uleb128 0x13
 2365 0098 38       		.uleb128 0x38
 2366 0099 0B       		.uleb128 0xb
 2367 009a 00       		.byte	0
 2368 009b 00       		.byte	0
 2369 009c 0D       		.uleb128 0xd
 2370 009d 17       		.uleb128 0x17
 2371 009e 01       		.byte	0x1
 2372 009f 0B       		.uleb128 0xb
 2373 00a0 0B       		.uleb128 0xb
 2374 00a1 3A       		.uleb128 0x3a
 2375 00a2 0B       		.uleb128 0xb
 2376 00a3 3B       		.uleb128 0x3b
 2377 00a4 0B       		.uleb128 0xb
 2378 00a5 01       		.uleb128 0x1
 2379 00a6 13       		.uleb128 0x13
 2380 00a7 00       		.byte	0
 2381 00a8 00       		.byte	0
 2382 00a9 0E       		.uleb128 0xe
 2383 00aa 0D       		.uleb128 0xd
ARM GAS  /tmp/ccQZJKRf.s 			page 43


 2384 00ab 00       		.byte	0
 2385 00ac 03       		.uleb128 0x3
 2386 00ad 0E       		.uleb128 0xe
 2387 00ae 3A       		.uleb128 0x3a
 2388 00af 0B       		.uleb128 0xb
 2389 00b0 3B       		.uleb128 0x3b
 2390 00b1 0B       		.uleb128 0xb
 2391 00b2 49       		.uleb128 0x49
 2392 00b3 13       		.uleb128 0x13
 2393 00b4 00       		.byte	0
 2394 00b5 00       		.byte	0
 2395 00b6 0F       		.uleb128 0xf
 2396 00b7 26       		.uleb128 0x26
 2397 00b8 00       		.byte	0
 2398 00b9 49       		.uleb128 0x49
 2399 00ba 13       		.uleb128 0x13
 2400 00bb 00       		.byte	0
 2401 00bc 00       		.byte	0
 2402 00bd 10       		.uleb128 0x10
 2403 00be 2E       		.uleb128 0x2e
 2404 00bf 01       		.byte	0x1
 2405 00c0 03       		.uleb128 0x3
 2406 00c1 0E       		.uleb128 0xe
 2407 00c2 3A       		.uleb128 0x3a
 2408 00c3 0B       		.uleb128 0xb
 2409 00c4 3B       		.uleb128 0x3b
 2410 00c5 0B       		.uleb128 0xb
 2411 00c6 27       		.uleb128 0x27
 2412 00c7 19       		.uleb128 0x19
 2413 00c8 49       		.uleb128 0x49
 2414 00c9 13       		.uleb128 0x13
 2415 00ca 20       		.uleb128 0x20
 2416 00cb 0B       		.uleb128 0xb
 2417 00cc 01       		.uleb128 0x1
 2418 00cd 13       		.uleb128 0x13
 2419 00ce 00       		.byte	0
 2420 00cf 00       		.byte	0
 2421 00d0 11       		.uleb128 0x11
 2422 00d1 05       		.uleb128 0x5
 2423 00d2 00       		.byte	0
 2424 00d3 03       		.uleb128 0x3
 2425 00d4 08       		.uleb128 0x8
 2426 00d5 3A       		.uleb128 0x3a
 2427 00d6 0B       		.uleb128 0xb
 2428 00d7 3B       		.uleb128 0x3b
 2429 00d8 0B       		.uleb128 0xb
 2430 00d9 49       		.uleb128 0x49
 2431 00da 13       		.uleb128 0x13
 2432 00db 00       		.byte	0
 2433 00dc 00       		.byte	0
 2434 00dd 12       		.uleb128 0x12
 2435 00de 34       		.uleb128 0x34
 2436 00df 00       		.byte	0
 2437 00e0 03       		.uleb128 0x3
 2438 00e1 08       		.uleb128 0x8
 2439 00e2 3A       		.uleb128 0x3a
 2440 00e3 0B       		.uleb128 0xb
ARM GAS  /tmp/ccQZJKRf.s 			page 44


 2441 00e4 3B       		.uleb128 0x3b
 2442 00e5 0B       		.uleb128 0xb
 2443 00e6 49       		.uleb128 0x49
 2444 00e7 13       		.uleb128 0x13
 2445 00e8 00       		.byte	0
 2446 00e9 00       		.byte	0
 2447 00ea 13       		.uleb128 0x13
 2448 00eb 2E       		.uleb128 0x2e
 2449 00ec 01       		.byte	0x1
 2450 00ed 03       		.uleb128 0x3
 2451 00ee 0E       		.uleb128 0xe
 2452 00ef 3A       		.uleb128 0x3a
 2453 00f0 0B       		.uleb128 0xb
 2454 00f1 3B       		.uleb128 0x3b
 2455 00f2 0B       		.uleb128 0xb
 2456 00f3 27       		.uleb128 0x27
 2457 00f4 19       		.uleb128 0x19
 2458 00f5 20       		.uleb128 0x20
 2459 00f6 0B       		.uleb128 0xb
 2460 00f7 01       		.uleb128 0x1
 2461 00f8 13       		.uleb128 0x13
 2462 00f9 00       		.byte	0
 2463 00fa 00       		.byte	0
 2464 00fb 14       		.uleb128 0x14
 2465 00fc 2E       		.uleb128 0x2e
 2466 00fd 01       		.byte	0x1
 2467 00fe 3F       		.uleb128 0x3f
 2468 00ff 19       		.uleb128 0x19
 2469 0100 03       		.uleb128 0x3
 2470 0101 0E       		.uleb128 0xe
 2471 0102 3A       		.uleb128 0x3a
 2472 0103 0B       		.uleb128 0xb
 2473 0104 3B       		.uleb128 0x3b
 2474 0105 0B       		.uleb128 0xb
 2475 0106 27       		.uleb128 0x27
 2476 0107 19       		.uleb128 0x19
 2477 0108 49       		.uleb128 0x49
 2478 0109 13       		.uleb128 0x13
 2479 010a 20       		.uleb128 0x20
 2480 010b 0B       		.uleb128 0xb
 2481 010c 01       		.uleb128 0x1
 2482 010d 13       		.uleb128 0x13
 2483 010e 00       		.byte	0
 2484 010f 00       		.byte	0
 2485 0110 15       		.uleb128 0x15
 2486 0111 05       		.uleb128 0x5
 2487 0112 00       		.byte	0
 2488 0113 03       		.uleb128 0x3
 2489 0114 0E       		.uleb128 0xe
 2490 0115 3A       		.uleb128 0x3a
 2491 0116 0B       		.uleb128 0xb
 2492 0117 3B       		.uleb128 0x3b
 2493 0118 0B       		.uleb128 0xb
 2494 0119 49       		.uleb128 0x49
 2495 011a 13       		.uleb128 0x13
 2496 011b 00       		.byte	0
 2497 011c 00       		.byte	0
ARM GAS  /tmp/ccQZJKRf.s 			page 45


 2498 011d 16       		.uleb128 0x16
 2499 011e 2E       		.uleb128 0x2e
 2500 011f 01       		.byte	0x1
 2501 0120 3F       		.uleb128 0x3f
 2502 0121 19       		.uleb128 0x19
 2503 0122 03       		.uleb128 0x3
 2504 0123 0E       		.uleb128 0xe
 2505 0124 3A       		.uleb128 0x3a
 2506 0125 0B       		.uleb128 0xb
 2507 0126 3B       		.uleb128 0x3b
 2508 0127 0B       		.uleb128 0xb
 2509 0128 27       		.uleb128 0x27
 2510 0129 19       		.uleb128 0x19
 2511 012a 11       		.uleb128 0x11
 2512 012b 01       		.uleb128 0x1
 2513 012c 12       		.uleb128 0x12
 2514 012d 06       		.uleb128 0x6
 2515 012e 40       		.uleb128 0x40
 2516 012f 18       		.uleb128 0x18
 2517 0130 9742     		.uleb128 0x2117
 2518 0132 19       		.uleb128 0x19
 2519 0133 01       		.uleb128 0x1
 2520 0134 13       		.uleb128 0x13
 2521 0135 00       		.byte	0
 2522 0136 00       		.byte	0
 2523 0137 17       		.uleb128 0x17
 2524 0138 05       		.uleb128 0x5
 2525 0139 00       		.byte	0
 2526 013a 03       		.uleb128 0x3
 2527 013b 08       		.uleb128 0x8
 2528 013c 3A       		.uleb128 0x3a
 2529 013d 0B       		.uleb128 0xb
 2530 013e 3B       		.uleb128 0x3b
 2531 013f 0B       		.uleb128 0xb
 2532 0140 49       		.uleb128 0x49
 2533 0141 13       		.uleb128 0x13
 2534 0142 02       		.uleb128 0x2
 2535 0143 18       		.uleb128 0x18
 2536 0144 00       		.byte	0
 2537 0145 00       		.byte	0
 2538 0146 18       		.uleb128 0x18
 2539 0147 05       		.uleb128 0x5
 2540 0148 00       		.byte	0
 2541 0149 03       		.uleb128 0x3
 2542 014a 08       		.uleb128 0x8
 2543 014b 3A       		.uleb128 0x3a
 2544 014c 0B       		.uleb128 0xb
 2545 014d 3B       		.uleb128 0x3b
 2546 014e 0B       		.uleb128 0xb
 2547 014f 49       		.uleb128 0x49
 2548 0150 13       		.uleb128 0x13
 2549 0151 02       		.uleb128 0x2
 2550 0152 17       		.uleb128 0x17
 2551 0153 00       		.byte	0
 2552 0154 00       		.byte	0
 2553 0155 19       		.uleb128 0x19
 2554 0156 34       		.uleb128 0x34
ARM GAS  /tmp/ccQZJKRf.s 			page 46


 2555 0157 00       		.byte	0
 2556 0158 03       		.uleb128 0x3
 2557 0159 08       		.uleb128 0x8
 2558 015a 3A       		.uleb128 0x3a
 2559 015b 0B       		.uleb128 0xb
 2560 015c 3B       		.uleb128 0x3b
 2561 015d 0B       		.uleb128 0xb
 2562 015e 49       		.uleb128 0x49
 2563 015f 13       		.uleb128 0x13
 2564 0160 02       		.uleb128 0x2
 2565 0161 17       		.uleb128 0x17
 2566 0162 00       		.byte	0
 2567 0163 00       		.byte	0
 2568 0164 1A       		.uleb128 0x1a
 2569 0165 1D       		.uleb128 0x1d
 2570 0166 01       		.byte	0x1
 2571 0167 31       		.uleb128 0x31
 2572 0168 13       		.uleb128 0x13
 2573 0169 11       		.uleb128 0x11
 2574 016a 01       		.uleb128 0x1
 2575 016b 12       		.uleb128 0x12
 2576 016c 06       		.uleb128 0x6
 2577 016d 58       		.uleb128 0x58
 2578 016e 0B       		.uleb128 0xb
 2579 016f 59       		.uleb128 0x59
 2580 0170 0B       		.uleb128 0xb
 2581 0171 01       		.uleb128 0x1
 2582 0172 13       		.uleb128 0x13
 2583 0173 00       		.byte	0
 2584 0174 00       		.byte	0
 2585 0175 1B       		.uleb128 0x1b
 2586 0176 05       		.uleb128 0x5
 2587 0177 00       		.byte	0
 2588 0178 31       		.uleb128 0x31
 2589 0179 13       		.uleb128 0x13
 2590 017a 02       		.uleb128 0x2
 2591 017b 17       		.uleb128 0x17
 2592 017c 00       		.byte	0
 2593 017d 00       		.byte	0
 2594 017e 1C       		.uleb128 0x1c
 2595 017f 0B       		.uleb128 0xb
 2596 0180 01       		.byte	0x1
 2597 0181 11       		.uleb128 0x11
 2598 0182 01       		.uleb128 0x1
 2599 0183 12       		.uleb128 0x12
 2600 0184 06       		.uleb128 0x6
 2601 0185 00       		.byte	0
 2602 0186 00       		.byte	0
 2603 0187 1D       		.uleb128 0x1d
 2604 0188 34       		.uleb128 0x34
 2605 0189 00       		.byte	0
 2606 018a 31       		.uleb128 0x31
 2607 018b 13       		.uleb128 0x13
 2608 018c 02       		.uleb128 0x2
 2609 018d 17       		.uleb128 0x17
 2610 018e 00       		.byte	0
 2611 018f 00       		.byte	0
ARM GAS  /tmp/ccQZJKRf.s 			page 47


 2612 0190 1E       		.uleb128 0x1e
 2613 0191 898201   		.uleb128 0x4109
 2614 0194 00       		.byte	0
 2615 0195 11       		.uleb128 0x11
 2616 0196 01       		.uleb128 0x1
 2617 0197 31       		.uleb128 0x31
 2618 0198 13       		.uleb128 0x13
 2619 0199 00       		.byte	0
 2620 019a 00       		.byte	0
 2621 019b 1F       		.uleb128 0x1f
 2622 019c 0B       		.uleb128 0xb
 2623 019d 01       		.byte	0x1
 2624 019e 11       		.uleb128 0x11
 2625 019f 01       		.uleb128 0x1
 2626 01a0 12       		.uleb128 0x12
 2627 01a1 06       		.uleb128 0x6
 2628 01a2 01       		.uleb128 0x1
 2629 01a3 13       		.uleb128 0x13
 2630 01a4 00       		.byte	0
 2631 01a5 00       		.byte	0
 2632 01a6 20       		.uleb128 0x20
 2633 01a7 34       		.uleb128 0x34
 2634 01a8 00       		.byte	0
 2635 01a9 03       		.uleb128 0x3
 2636 01aa 08       		.uleb128 0x8
 2637 01ab 3A       		.uleb128 0x3a
 2638 01ac 0B       		.uleb128 0xb
 2639 01ad 3B       		.uleb128 0x3b
 2640 01ae 0B       		.uleb128 0xb
 2641 01af 49       		.uleb128 0x49
 2642 01b0 13       		.uleb128 0x13
 2643 01b1 02       		.uleb128 0x2
 2644 01b2 18       		.uleb128 0x18
 2645 01b3 00       		.byte	0
 2646 01b4 00       		.byte	0
 2647 01b5 21       		.uleb128 0x21
 2648 01b6 898201   		.uleb128 0x4109
 2649 01b9 01       		.byte	0x1
 2650 01ba 11       		.uleb128 0x11
 2651 01bb 01       		.uleb128 0x1
 2652 01bc 31       		.uleb128 0x31
 2653 01bd 13       		.uleb128 0x13
 2654 01be 01       		.uleb128 0x1
 2655 01bf 13       		.uleb128 0x13
 2656 01c0 00       		.byte	0
 2657 01c1 00       		.byte	0
 2658 01c2 22       		.uleb128 0x22
 2659 01c3 8A8201   		.uleb128 0x410a
 2660 01c6 00       		.byte	0
 2661 01c7 02       		.uleb128 0x2
 2662 01c8 18       		.uleb128 0x18
 2663 01c9 9142     		.uleb128 0x2111
 2664 01cb 18       		.uleb128 0x18
 2665 01cc 00       		.byte	0
 2666 01cd 00       		.byte	0
 2667 01ce 23       		.uleb128 0x23
 2668 01cf 2E       		.uleb128 0x2e
ARM GAS  /tmp/ccQZJKRf.s 			page 48


 2669 01d0 01       		.byte	0x1
 2670 01d1 3F       		.uleb128 0x3f
 2671 01d2 19       		.uleb128 0x19
 2672 01d3 03       		.uleb128 0x3
 2673 01d4 0E       		.uleb128 0xe
 2674 01d5 3A       		.uleb128 0x3a
 2675 01d6 0B       		.uleb128 0xb
 2676 01d7 3B       		.uleb128 0x3b
 2677 01d8 0B       		.uleb128 0xb
 2678 01d9 27       		.uleb128 0x27
 2679 01da 19       		.uleb128 0x19
 2680 01db 49       		.uleb128 0x49
 2681 01dc 13       		.uleb128 0x13
 2682 01dd 11       		.uleb128 0x11
 2683 01de 01       		.uleb128 0x1
 2684 01df 12       		.uleb128 0x12
 2685 01e0 06       		.uleb128 0x6
 2686 01e1 40       		.uleb128 0x40
 2687 01e2 18       		.uleb128 0x18
 2688 01e3 9742     		.uleb128 0x2117
 2689 01e5 19       		.uleb128 0x19
 2690 01e6 01       		.uleb128 0x1
 2691 01e7 13       		.uleb128 0x13
 2692 01e8 00       		.byte	0
 2693 01e9 00       		.byte	0
 2694 01ea 24       		.uleb128 0x24
 2695 01eb 1D       		.uleb128 0x1d
 2696 01ec 01       		.byte	0x1
 2697 01ed 31       		.uleb128 0x31
 2698 01ee 13       		.uleb128 0x13
 2699 01ef 52       		.uleb128 0x52
 2700 01f0 01       		.uleb128 0x1
 2701 01f1 55       		.uleb128 0x55
 2702 01f2 17       		.uleb128 0x17
 2703 01f3 58       		.uleb128 0x58
 2704 01f4 0B       		.uleb128 0xb
 2705 01f5 59       		.uleb128 0x59
 2706 01f6 0B       		.uleb128 0xb
 2707 01f7 01       		.uleb128 0x1
 2708 01f8 13       		.uleb128 0x13
 2709 01f9 00       		.byte	0
 2710 01fa 00       		.byte	0
 2711 01fb 25       		.uleb128 0x25
 2712 01fc 898201   		.uleb128 0x4109
 2713 01ff 01       		.byte	0x1
 2714 0200 11       		.uleb128 0x11
 2715 0201 01       		.uleb128 0x1
 2716 0202 31       		.uleb128 0x31
 2717 0203 13       		.uleb128 0x13
 2718 0204 00       		.byte	0
 2719 0205 00       		.byte	0
 2720 0206 26       		.uleb128 0x26
 2721 0207 0B       		.uleb128 0xb
 2722 0208 01       		.byte	0x1
 2723 0209 55       		.uleb128 0x55
 2724 020a 17       		.uleb128 0x17
 2725 020b 00       		.byte	0
ARM GAS  /tmp/ccQZJKRf.s 			page 49


 2726 020c 00       		.byte	0
 2727 020d 27       		.uleb128 0x27
 2728 020e 2E       		.uleb128 0x2e
 2729 020f 01       		.byte	0x1
 2730 0210 31       		.uleb128 0x31
 2731 0211 13       		.uleb128 0x13
 2732 0212 11       		.uleb128 0x11
 2733 0213 01       		.uleb128 0x1
 2734 0214 12       		.uleb128 0x12
 2735 0215 06       		.uleb128 0x6
 2736 0216 40       		.uleb128 0x40
 2737 0217 18       		.uleb128 0x18
 2738 0218 9742     		.uleb128 0x2117
 2739 021a 19       		.uleb128 0x19
 2740 021b 01       		.uleb128 0x1
 2741 021c 13       		.uleb128 0x13
 2742 021d 00       		.byte	0
 2743 021e 00       		.byte	0
 2744 021f 28       		.uleb128 0x28
 2745 0220 05       		.uleb128 0x5
 2746 0221 00       		.byte	0
 2747 0222 31       		.uleb128 0x31
 2748 0223 13       		.uleb128 0x13
 2749 0224 00       		.byte	0
 2750 0225 00       		.byte	0
 2751 0226 29       		.uleb128 0x29
 2752 0227 1D       		.uleb128 0x1d
 2753 0228 01       		.byte	0x1
 2754 0229 31       		.uleb128 0x31
 2755 022a 13       		.uleb128 0x13
 2756 022b 52       		.uleb128 0x52
 2757 022c 01       		.uleb128 0x1
 2758 022d 55       		.uleb128 0x55
 2759 022e 17       		.uleb128 0x17
 2760 022f 58       		.uleb128 0x58
 2761 0230 0B       		.uleb128 0xb
 2762 0231 59       		.uleb128 0x59
 2763 0232 05       		.uleb128 0x5
 2764 0233 01       		.uleb128 0x1
 2765 0234 13       		.uleb128 0x13
 2766 0235 00       		.byte	0
 2767 0236 00       		.byte	0
 2768 0237 2A       		.uleb128 0x2a
 2769 0238 898201   		.uleb128 0x4109
 2770 023b 01       		.byte	0x1
 2771 023c 11       		.uleb128 0x11
 2772 023d 01       		.uleb128 0x1
 2773 023e 9542     		.uleb128 0x2115
 2774 0240 19       		.uleb128 0x19
 2775 0241 31       		.uleb128 0x31
 2776 0242 13       		.uleb128 0x13
 2777 0243 00       		.byte	0
 2778 0244 00       		.byte	0
 2779 0245 2B       		.uleb128 0x2b
 2780 0246 05       		.uleb128 0x5
 2781 0247 00       		.byte	0
 2782 0248 03       		.uleb128 0x3
ARM GAS  /tmp/ccQZJKRf.s 			page 50


 2783 0249 0E       		.uleb128 0xe
 2784 024a 3A       		.uleb128 0x3a
 2785 024b 0B       		.uleb128 0xb
 2786 024c 3B       		.uleb128 0x3b
 2787 024d 0B       		.uleb128 0xb
 2788 024e 49       		.uleb128 0x49
 2789 024f 13       		.uleb128 0x13
 2790 0250 02       		.uleb128 0x2
 2791 0251 17       		.uleb128 0x17
 2792 0252 00       		.byte	0
 2793 0253 00       		.byte	0
 2794 0254 2C       		.uleb128 0x2c
 2795 0255 2E       		.uleb128 0x2e
 2796 0256 01       		.byte	0x1
 2797 0257 3F       		.uleb128 0x3f
 2798 0258 19       		.uleb128 0x19
 2799 0259 03       		.uleb128 0x3
 2800 025a 0E       		.uleb128 0xe
 2801 025b 3A       		.uleb128 0x3a
 2802 025c 0B       		.uleb128 0xb
 2803 025d 3B       		.uleb128 0x3b
 2804 025e 05       		.uleb128 0x5
 2805 025f 27       		.uleb128 0x27
 2806 0260 19       		.uleb128 0x19
 2807 0261 11       		.uleb128 0x11
 2808 0262 01       		.uleb128 0x1
 2809 0263 12       		.uleb128 0x12
 2810 0264 06       		.uleb128 0x6
 2811 0265 40       		.uleb128 0x40
 2812 0266 18       		.uleb128 0x18
 2813 0267 9742     		.uleb128 0x2117
 2814 0269 19       		.uleb128 0x19
 2815 026a 01       		.uleb128 0x1
 2816 026b 13       		.uleb128 0x13
 2817 026c 00       		.byte	0
 2818 026d 00       		.byte	0
 2819 026e 2D       		.uleb128 0x2d
 2820 026f 05       		.uleb128 0x5
 2821 0270 00       		.byte	0
 2822 0271 03       		.uleb128 0x3
 2823 0272 08       		.uleb128 0x8
 2824 0273 3A       		.uleb128 0x3a
 2825 0274 0B       		.uleb128 0xb
 2826 0275 3B       		.uleb128 0x3b
 2827 0276 05       		.uleb128 0x5
 2828 0277 49       		.uleb128 0x49
 2829 0278 13       		.uleb128 0x13
 2830 0279 02       		.uleb128 0x2
 2831 027a 17       		.uleb128 0x17
 2832 027b 00       		.byte	0
 2833 027c 00       		.byte	0
 2834 027d 2E       		.uleb128 0x2e
 2835 027e 34       		.uleb128 0x34
 2836 027f 00       		.byte	0
 2837 0280 03       		.uleb128 0x3
 2838 0281 08       		.uleb128 0x8
 2839 0282 3A       		.uleb128 0x3a
ARM GAS  /tmp/ccQZJKRf.s 			page 51


 2840 0283 0B       		.uleb128 0xb
 2841 0284 3B       		.uleb128 0x3b
 2842 0285 05       		.uleb128 0x5
 2843 0286 49       		.uleb128 0x49
 2844 0287 13       		.uleb128 0x13
 2845 0288 02       		.uleb128 0x2
 2846 0289 18       		.uleb128 0x18
 2847 028a 00       		.byte	0
 2848 028b 00       		.byte	0
 2849 028c 2F       		.uleb128 0x2f
 2850 028d 0B       		.uleb128 0xb
 2851 028e 01       		.byte	0x1
 2852 028f 55       		.uleb128 0x55
 2853 0290 17       		.uleb128 0x17
 2854 0291 01       		.uleb128 0x1
 2855 0292 13       		.uleb128 0x13
 2856 0293 00       		.byte	0
 2857 0294 00       		.byte	0
 2858 0295 30       		.uleb128 0x30
 2859 0296 898201   		.uleb128 0x4109
 2860 0299 00       		.byte	0
 2861 029a 11       		.uleb128 0x11
 2862 029b 01       		.uleb128 0x1
 2863 029c 9542     		.uleb128 0x2115
 2864 029e 19       		.uleb128 0x19
 2865 029f 31       		.uleb128 0x31
 2866 02a0 13       		.uleb128 0x13
 2867 02a1 00       		.byte	0
 2868 02a2 00       		.byte	0
 2869 02a3 31       		.uleb128 0x31
 2870 02a4 1D       		.uleb128 0x1d
 2871 02a5 01       		.byte	0x1
 2872 02a6 31       		.uleb128 0x31
 2873 02a7 13       		.uleb128 0x13
 2874 02a8 11       		.uleb128 0x11
 2875 02a9 01       		.uleb128 0x1
 2876 02aa 12       		.uleb128 0x12
 2877 02ab 06       		.uleb128 0x6
 2878 02ac 58       		.uleb128 0x58
 2879 02ad 0B       		.uleb128 0xb
 2880 02ae 59       		.uleb128 0x59
 2881 02af 05       		.uleb128 0x5
 2882 02b0 01       		.uleb128 0x1
 2883 02b1 13       		.uleb128 0x13
 2884 02b2 00       		.byte	0
 2885 02b3 00       		.byte	0
 2886 02b4 32       		.uleb128 0x32
 2887 02b5 2E       		.uleb128 0x2e
 2888 02b6 01       		.byte	0x1
 2889 02b7 3F       		.uleb128 0x3f
 2890 02b8 19       		.uleb128 0x19
 2891 02b9 03       		.uleb128 0x3
 2892 02ba 0E       		.uleb128 0xe
 2893 02bb 3A       		.uleb128 0x3a
 2894 02bc 0B       		.uleb128 0xb
 2895 02bd 3B       		.uleb128 0x3b
 2896 02be 05       		.uleb128 0x5
ARM GAS  /tmp/ccQZJKRf.s 			page 52


 2897 02bf 27       		.uleb128 0x27
 2898 02c0 19       		.uleb128 0x19
 2899 02c1 49       		.uleb128 0x49
 2900 02c2 13       		.uleb128 0x13
 2901 02c3 11       		.uleb128 0x11
 2902 02c4 01       		.uleb128 0x1
 2903 02c5 12       		.uleb128 0x12
 2904 02c6 06       		.uleb128 0x6
 2905 02c7 40       		.uleb128 0x40
 2906 02c8 18       		.uleb128 0x18
 2907 02c9 9742     		.uleb128 0x2117
 2908 02cb 19       		.uleb128 0x19
 2909 02cc 01       		.uleb128 0x1
 2910 02cd 13       		.uleb128 0x13
 2911 02ce 00       		.byte	0
 2912 02cf 00       		.byte	0
 2913 02d0 33       		.uleb128 0x33
 2914 02d1 34       		.uleb128 0x34
 2915 02d2 00       		.byte	0
 2916 02d3 03       		.uleb128 0x3
 2917 02d4 08       		.uleb128 0x8
 2918 02d5 3A       		.uleb128 0x3a
 2919 02d6 0B       		.uleb128 0xb
 2920 02d7 3B       		.uleb128 0x3b
 2921 02d8 05       		.uleb128 0x5
 2922 02d9 49       		.uleb128 0x49
 2923 02da 13       		.uleb128 0x13
 2924 02db 02       		.uleb128 0x2
 2925 02dc 17       		.uleb128 0x17
 2926 02dd 00       		.byte	0
 2927 02de 00       		.byte	0
 2928 02df 34       		.uleb128 0x34
 2929 02e0 34       		.uleb128 0x34
 2930 02e1 00       		.byte	0
 2931 02e2 03       		.uleb128 0x3
 2932 02e3 0E       		.uleb128 0xe
 2933 02e4 3A       		.uleb128 0x3a
 2934 02e5 0B       		.uleb128 0xb
 2935 02e6 3B       		.uleb128 0x3b
 2936 02e7 0B       		.uleb128 0xb
 2937 02e8 49       		.uleb128 0x49
 2938 02e9 13       		.uleb128 0x13
 2939 02ea 3F       		.uleb128 0x3f
 2940 02eb 19       		.uleb128 0x19
 2941 02ec 3C       		.uleb128 0x3c
 2942 02ed 19       		.uleb128 0x19
 2943 02ee 00       		.byte	0
 2944 02ef 00       		.byte	0
 2945 02f0 35       		.uleb128 0x35
 2946 02f1 2E       		.uleb128 0x2e
 2947 02f2 01       		.byte	0x1
 2948 02f3 3F       		.uleb128 0x3f
 2949 02f4 19       		.uleb128 0x19
 2950 02f5 03       		.uleb128 0x3
 2951 02f6 0E       		.uleb128 0xe
 2952 02f7 3A       		.uleb128 0x3a
 2953 02f8 0B       		.uleb128 0xb
ARM GAS  /tmp/ccQZJKRf.s 			page 53


 2954 02f9 3B       		.uleb128 0x3b
 2955 02fa 0B       		.uleb128 0xb
 2956 02fb 27       		.uleb128 0x27
 2957 02fc 19       		.uleb128 0x19
 2958 02fd 49       		.uleb128 0x49
 2959 02fe 13       		.uleb128 0x13
 2960 02ff 3C       		.uleb128 0x3c
 2961 0300 19       		.uleb128 0x19
 2962 0301 01       		.uleb128 0x1
 2963 0302 13       		.uleb128 0x13
 2964 0303 00       		.byte	0
 2965 0304 00       		.byte	0
 2966 0305 36       		.uleb128 0x36
 2967 0306 05       		.uleb128 0x5
 2968 0307 00       		.byte	0
 2969 0308 49       		.uleb128 0x49
 2970 0309 13       		.uleb128 0x13
 2971 030a 00       		.byte	0
 2972 030b 00       		.byte	0
 2973 030c 37       		.uleb128 0x37
 2974 030d 2E       		.uleb128 0x2e
 2975 030e 00       		.byte	0
 2976 030f 3F       		.uleb128 0x3f
 2977 0310 19       		.uleb128 0x19
 2978 0311 03       		.uleb128 0x3
 2979 0312 0E       		.uleb128 0xe
 2980 0313 3A       		.uleb128 0x3a
 2981 0314 0B       		.uleb128 0xb
 2982 0315 3B       		.uleb128 0x3b
 2983 0316 0B       		.uleb128 0xb
 2984 0317 27       		.uleb128 0x27
 2985 0318 19       		.uleb128 0x19
 2986 0319 3C       		.uleb128 0x3c
 2987 031a 19       		.uleb128 0x19
 2988 031b 00       		.byte	0
 2989 031c 00       		.byte	0
 2990 031d 38       		.uleb128 0x38
 2991 031e 2E       		.uleb128 0x2e
 2992 031f 01       		.byte	0x1
 2993 0320 3F       		.uleb128 0x3f
 2994 0321 19       		.uleb128 0x19
 2995 0322 03       		.uleb128 0x3
 2996 0323 0E       		.uleb128 0xe
 2997 0324 3A       		.uleb128 0x3a
 2998 0325 0B       		.uleb128 0xb
 2999 0326 3B       		.uleb128 0x3b
 3000 0327 0B       		.uleb128 0xb
 3001 0328 27       		.uleb128 0x27
 3002 0329 19       		.uleb128 0x19
 3003 032a 3C       		.uleb128 0x3c
 3004 032b 19       		.uleb128 0x19
 3005 032c 01       		.uleb128 0x1
 3006 032d 13       		.uleb128 0x13
 3007 032e 00       		.byte	0
 3008 032f 00       		.byte	0
 3009 0330 39       		.uleb128 0x39
 3010 0331 2E       		.uleb128 0x2e
ARM GAS  /tmp/ccQZJKRf.s 			page 54


 3011 0332 01       		.byte	0x1
 3012 0333 3F       		.uleb128 0x3f
 3013 0334 19       		.uleb128 0x19
 3014 0335 03       		.uleb128 0x3
 3015 0336 0E       		.uleb128 0xe
 3016 0337 3A       		.uleb128 0x3a
 3017 0338 0B       		.uleb128 0xb
 3018 0339 3B       		.uleb128 0x3b
 3019 033a 0B       		.uleb128 0xb
 3020 033b 27       		.uleb128 0x27
 3021 033c 19       		.uleb128 0x19
 3022 033d 3C       		.uleb128 0x3c
 3023 033e 19       		.uleb128 0x19
 3024 033f 00       		.byte	0
 3025 0340 00       		.byte	0
 3026 0341 00       		.byte	0
 3027              		.section	.debug_loc,"",%progbits
 3028              	.Ldebug_loc0:
 3029              	.LLST0:
 3030 0000 10000000 		.4byte	.LVL1-.Ltext0
 3031 0004 22000000 		.4byte	.LVL4-.Ltext0
 3032 0008 0100     		.2byte	0x1
 3033 000a 50       		.byte	0x50
 3034 000b 22000000 		.4byte	.LVL4-.Ltext0
 3035 000f 36000000 		.4byte	.LVL9-.Ltext0
 3036 0013 0100     		.2byte	0x1
 3037 0015 54       		.byte	0x54
 3038 0016 36000000 		.4byte	.LVL9-.Ltext0
 3039 001a 38000000 		.4byte	.LFE9-.Ltext0
 3040 001e 0400     		.2byte	0x4
 3041 0020 F3       		.byte	0xf3
 3042 0021 01       		.uleb128 0x1
 3043 0022 50       		.byte	0x50
 3044 0023 9F       		.byte	0x9f
 3045 0024 00000000 		.4byte	0
 3046 0028 00000000 		.4byte	0
 3047              	.LLST1:
 3048 002c 10000000 		.4byte	.LVL1-.Ltext0
 3049 0030 22000000 		.4byte	.LVL4-.Ltext0
 3050 0034 0100     		.2byte	0x1
 3051 0036 51       		.byte	0x51
 3052 0037 22000000 		.4byte	.LVL4-.Ltext0
 3053 003b 38000000 		.4byte	.LFE9-.Ltext0
 3054 003f 0400     		.2byte	0x4
 3055 0041 F3       		.byte	0xf3
 3056 0042 01       		.uleb128 0x1
 3057 0043 51       		.byte	0x51
 3058 0044 9F       		.byte	0x9f
 3059 0045 00000000 		.4byte	0
 3060 0049 00000000 		.4byte	0
 3061              	.LLST2:
 3062 004d 14000000 		.4byte	.LVL2-.Ltext0
 3063 0051 30000000 		.4byte	.LVL7-.Ltext0
 3064 0055 0100     		.2byte	0x1
 3065 0057 55       		.byte	0x55
 3066 0058 30000000 		.4byte	.LVL7-.Ltext0
 3067 005c 34000000 		.4byte	.LVL8-.Ltext0
ARM GAS  /tmp/ccQZJKRf.s 			page 55


 3068 0060 0300     		.2byte	0x3
 3069 0062 75       		.byte	0x75
 3070 0063 7F       		.sleb128 -1
 3071 0064 9F       		.byte	0x9f
 3072 0065 34000000 		.4byte	.LVL8-.Ltext0
 3073 0069 38000000 		.4byte	.LFE9-.Ltext0
 3074 006d 0100     		.2byte	0x1
 3075 006f 55       		.byte	0x55
 3076 0070 00000000 		.4byte	0
 3077 0074 00000000 		.4byte	0
 3078              	.LLST3:
 3079 0078 22000000 		.4byte	.LVL4-.Ltext0
 3080 007c 36000000 		.4byte	.LVL9-.Ltext0
 3081 0080 0100     		.2byte	0x1
 3082 0082 54       		.byte	0x54
 3083 0083 00000000 		.4byte	0
 3084 0087 00000000 		.4byte	0
 3085              	.LLST4:
 3086 008b 24000000 		.4byte	.LVL5-.Ltext0
 3087 008f 2D000000 		.4byte	.LVL6-1-.Ltext0
 3088 0093 0100     		.2byte	0x1
 3089 0095 50       		.byte	0x50
 3090 0096 00000000 		.4byte	0
 3091 009a 00000000 		.4byte	0
 3092              	.LLST5:
 3093 009e 40000000 		.4byte	.LVL10-.Ltext0
 3094 00a2 4B000000 		.4byte	.LVL11-1-.Ltext0
 3095 00a6 0100     		.2byte	0x1
 3096 00a8 50       		.byte	0x50
 3097 00a9 4B000000 		.4byte	.LVL11-1-.Ltext0
 3098 00ad 58000000 		.4byte	.LFE8-.Ltext0
 3099 00b1 0400     		.2byte	0x4
 3100 00b3 F3       		.byte	0xf3
 3101 00b4 01       		.uleb128 0x1
 3102 00b5 50       		.byte	0x50
 3103 00b6 9F       		.byte	0x9f
 3104 00b7 00000000 		.4byte	0
 3105 00bb 00000000 		.4byte	0
 3106              	.LLST6:
 3107 00bf 40000000 		.4byte	.LVL10-.Ltext0
 3108 00c3 4B000000 		.4byte	.LVL11-1-.Ltext0
 3109 00c7 0100     		.2byte	0x1
 3110 00c9 51       		.byte	0x51
 3111 00ca 4B000000 		.4byte	.LVL11-1-.Ltext0
 3112 00ce 58000000 		.4byte	.LFE8-.Ltext0
 3113 00d2 0400     		.2byte	0x4
 3114 00d4 F3       		.byte	0xf3
 3115 00d5 01       		.uleb128 0x1
 3116 00d6 51       		.byte	0x51
 3117 00d7 9F       		.byte	0x9f
 3118 00d8 00000000 		.4byte	0
 3119 00dc 00000000 		.4byte	0
 3120              	.LLST7:
 3121 00e0 60000000 		.4byte	.LVL13-.Ltext0
 3122 00e4 72000000 		.4byte	.LVL15-.Ltext0
 3123 00e8 0100     		.2byte	0x1
 3124 00ea 50       		.byte	0x50
ARM GAS  /tmp/ccQZJKRf.s 			page 56


 3125 00eb 72000000 		.4byte	.LVL15-.Ltext0
 3126 00ef 7A000000 		.4byte	.LVL16-.Ltext0
 3127 00f3 0400     		.2byte	0x4
 3128 00f5 F3       		.byte	0xf3
 3129 00f6 01       		.uleb128 0x1
 3130 00f7 50       		.byte	0x50
 3131 00f8 9F       		.byte	0x9f
 3132 00f9 7A000000 		.4byte	.LVL16-.Ltext0
 3133 00fd 8E000000 		.4byte	.LVL18-.Ltext0
 3134 0101 0100     		.2byte	0x1
 3135 0103 50       		.byte	0x50
 3136 0104 8E000000 		.4byte	.LVL18-.Ltext0
 3137 0108 93000000 		.4byte	.LVL19-1-.Ltext0
 3138 010c 0100     		.2byte	0x1
 3139 010e 53       		.byte	0x53
 3140 010f 93000000 		.4byte	.LVL19-1-.Ltext0
 3141 0113 A4000000 		.4byte	.LFE10-.Ltext0
 3142 0117 0400     		.2byte	0x4
 3143 0119 F3       		.byte	0xf3
 3144 011a 01       		.uleb128 0x1
 3145 011b 50       		.byte	0x50
 3146 011c 9F       		.byte	0x9f
 3147 011d 00000000 		.4byte	0
 3148 0121 00000000 		.4byte	0
 3149              	.LLST8:
 3150 0125 66000000 		.4byte	.LVL14-.Ltext0
 3151 0129 72000000 		.4byte	.LVL15-.Ltext0
 3152 012d 0100     		.2byte	0x1
 3153 012f 50       		.byte	0x50
 3154 0130 72000000 		.4byte	.LVL15-.Ltext0
 3155 0134 7A000000 		.4byte	.LVL16-.Ltext0
 3156 0138 0400     		.2byte	0x4
 3157 013a F3       		.byte	0xf3
 3158 013b 01       		.uleb128 0x1
 3159 013c 50       		.byte	0x50
 3160 013d 9F       		.byte	0x9f
 3161 013e 7A000000 		.4byte	.LVL16-.Ltext0
 3162 0142 8E000000 		.4byte	.LVL18-.Ltext0
 3163 0146 0100     		.2byte	0x1
 3164 0148 50       		.byte	0x50
 3165 0149 8E000000 		.4byte	.LVL18-.Ltext0
 3166 014d 93000000 		.4byte	.LVL19-1-.Ltext0
 3167 0151 0100     		.2byte	0x1
 3168 0153 53       		.byte	0x53
 3169 0154 93000000 		.4byte	.LVL19-1-.Ltext0
 3170 0158 A4000000 		.4byte	.LFE10-.Ltext0
 3171 015c 0400     		.2byte	0x4
 3172 015e F3       		.byte	0xf3
 3173 015f 01       		.uleb128 0x1
 3174 0160 50       		.byte	0x50
 3175 0161 9F       		.byte	0x9f
 3176 0162 00000000 		.4byte	0
 3177 0166 00000000 		.4byte	0
 3178              	.LLST9:
 3179 016a 88000000 		.4byte	.LVL17-.Ltext0
 3180 016e 93000000 		.4byte	.LVL19-1-.Ltext0
 3181 0172 0100     		.2byte	0x1
ARM GAS  /tmp/ccQZJKRf.s 			page 57


 3182 0174 53       		.byte	0x53
 3183 0175 93000000 		.4byte	.LVL19-1-.Ltext0
 3184 0179 A4000000 		.4byte	.LFE10-.Ltext0
 3185 017d 0400     		.2byte	0x4
 3186 017f F3       		.byte	0xf3
 3187 0180 01       		.uleb128 0x1
 3188 0181 50       		.byte	0x50
 3189 0182 9F       		.byte	0x9f
 3190 0183 00000000 		.4byte	0
 3191 0187 00000000 		.4byte	0
 3192              	.LLST11:
 3193 018b 88000000 		.4byte	.LVL17-.Ltext0
 3194 018f 93000000 		.4byte	.LVL19-1-.Ltext0
 3195 0193 0100     		.2byte	0x1
 3196 0195 52       		.byte	0x52
 3197 0196 00000000 		.4byte	0
 3198 019a 00000000 		.4byte	0
 3199              	.LLST12:
 3200 019e B0000000 		.4byte	.LVL20-.Ltext0
 3201 01a2 BC000000 		.4byte	.LVL21-.Ltext0
 3202 01a6 0100     		.2byte	0x1
 3203 01a8 50       		.byte	0x50
 3204 01a9 BC000000 		.4byte	.LVL21-.Ltext0
 3205 01ad BE000000 		.4byte	.LVL22-.Ltext0
 3206 01b1 0400     		.2byte	0x4
 3207 01b3 F3       		.byte	0xf3
 3208 01b4 01       		.uleb128 0x1
 3209 01b5 50       		.byte	0x50
 3210 01b6 9F       		.byte	0x9f
 3211 01b7 BE000000 		.4byte	.LVL22-.Ltext0
 3212 01bb D2000000 		.4byte	.LVL24-.Ltext0
 3213 01bf 0100     		.2byte	0x1
 3214 01c1 50       		.byte	0x50
 3215 01c2 D2000000 		.4byte	.LVL24-.Ltext0
 3216 01c6 D7000000 		.4byte	.LVL25-1-.Ltext0
 3217 01ca 0100     		.2byte	0x1
 3218 01cc 53       		.byte	0x53
 3219 01cd D7000000 		.4byte	.LVL25-1-.Ltext0
 3220 01d1 E4000000 		.4byte	.LFE11-.Ltext0
 3221 01d5 0400     		.2byte	0x4
 3222 01d7 F3       		.byte	0xf3
 3223 01d8 01       		.uleb128 0x1
 3224 01d9 50       		.byte	0x50
 3225 01da 9F       		.byte	0x9f
 3226 01db 00000000 		.4byte	0
 3227 01df 00000000 		.4byte	0
 3228              	.LLST13:
 3229 01e3 CC000000 		.4byte	.LVL23-.Ltext0
 3230 01e7 D7000000 		.4byte	.LVL25-1-.Ltext0
 3231 01eb 0100     		.2byte	0x1
 3232 01ed 53       		.byte	0x53
 3233 01ee D7000000 		.4byte	.LVL25-1-.Ltext0
 3234 01f2 E4000000 		.4byte	.LFE11-.Ltext0
 3235 01f6 0400     		.2byte	0x4
 3236 01f8 F3       		.byte	0xf3
 3237 01f9 01       		.uleb128 0x1
 3238 01fa 50       		.byte	0x50
ARM GAS  /tmp/ccQZJKRf.s 			page 58


 3239 01fb 9F       		.byte	0x9f
 3240 01fc 00000000 		.4byte	0
 3241 0200 00000000 		.4byte	0
 3242              	.LLST15:
 3243 0204 CC000000 		.4byte	.LVL23-.Ltext0
 3244 0208 D7000000 		.4byte	.LVL25-1-.Ltext0
 3245 020c 0100     		.2byte	0x1
 3246 020e 52       		.byte	0x52
 3247 020f 00000000 		.4byte	0
 3248 0213 00000000 		.4byte	0
 3249              	.LLST16:
 3250 0217 F0000000 		.4byte	.LVL26-.Ltext0
 3251 021b F4000000 		.4byte	.LVL27-.Ltext0
 3252 021f 0100     		.2byte	0x1
 3253 0221 50       		.byte	0x50
 3254 0222 F4000000 		.4byte	.LVL27-.Ltext0
 3255 0226 1D010000 		.4byte	.LVL30-1-.Ltext0
 3256 022a 0100     		.2byte	0x1
 3257 022c 53       		.byte	0x53
 3258 022d 1D010000 		.4byte	.LVL30-1-.Ltext0
 3259 0231 1E010000 		.4byte	.LVL30-.Ltext0
 3260 0235 0400     		.2byte	0x4
 3261 0237 F3       		.byte	0xf3
 3262 0238 01       		.uleb128 0x1
 3263 0239 50       		.byte	0x50
 3264 023a 9F       		.byte	0x9f
 3265 023b 1E010000 		.4byte	.LVL30-.Ltext0
 3266 023f 30010000 		.4byte	.LFE13-.Ltext0
 3267 0243 0100     		.2byte	0x1
 3268 0245 53       		.byte	0x53
 3269 0246 00000000 		.4byte	0
 3270 024a 00000000 		.4byte	0
 3271              	.LLST17:
 3272 024e F0000000 		.4byte	.LVL26-.Ltext0
 3273 0252 1D010000 		.4byte	.LVL30-1-.Ltext0
 3274 0256 0100     		.2byte	0x1
 3275 0258 51       		.byte	0x51
 3276 0259 1D010000 		.4byte	.LVL30-1-.Ltext0
 3277 025d 1E010000 		.4byte	.LVL30-.Ltext0
 3278 0261 0400     		.2byte	0x4
 3279 0263 F3       		.byte	0xf3
 3280 0264 01       		.uleb128 0x1
 3281 0265 51       		.byte	0x51
 3282 0266 9F       		.byte	0x9f
 3283 0267 1E010000 		.4byte	.LVL30-.Ltext0
 3284 026b 30010000 		.4byte	.LFE13-.Ltext0
 3285 026f 0100     		.2byte	0x1
 3286 0271 51       		.byte	0x51
 3287 0272 00000000 		.4byte	0
 3288 0276 00000000 		.4byte	0
 3289              	.LLST18:
 3290 027a 04010000 		.4byte	.LVL28-.Ltext0
 3291 027e 1D010000 		.4byte	.LVL30-1-.Ltext0
 3292 0282 0100     		.2byte	0x1
 3293 0284 53       		.byte	0x53
 3294 0285 1D010000 		.4byte	.LVL30-1-.Ltext0
 3295 0289 1E010000 		.4byte	.LVL30-.Ltext0
ARM GAS  /tmp/ccQZJKRf.s 			page 59


 3296 028d 0400     		.2byte	0x4
 3297 028f F3       		.byte	0xf3
 3298 0290 01       		.uleb128 0x1
 3299 0291 50       		.byte	0x50
 3300 0292 9F       		.byte	0x9f
 3301 0293 00000000 		.4byte	0
 3302 0297 00000000 		.4byte	0
 3303              	.LLST19:
 3304 029b 0A010000 		.4byte	.LVL29-.Ltext0
 3305 029f 1D010000 		.4byte	.LVL30-1-.Ltext0
 3306 02a3 0100     		.2byte	0x1
 3307 02a5 53       		.byte	0x53
 3308 02a6 1D010000 		.4byte	.LVL30-1-.Ltext0
 3309 02aa 1E010000 		.4byte	.LVL30-.Ltext0
 3310 02ae 0400     		.2byte	0x4
 3311 02b0 F3       		.byte	0xf3
 3312 02b1 01       		.uleb128 0x1
 3313 02b2 50       		.byte	0x50
 3314 02b3 9F       		.byte	0x9f
 3315 02b4 00000000 		.4byte	0
 3316 02b8 00000000 		.4byte	0
 3317              	.LLST20:
 3318 02bc 0A010000 		.4byte	.LVL29-.Ltext0
 3319 02c0 1D010000 		.4byte	.LVL30-1-.Ltext0
 3320 02c4 0100     		.2byte	0x1
 3321 02c6 52       		.byte	0x52
 3322 02c7 00000000 		.4byte	0
 3323 02cb 00000000 		.4byte	0
 3324              	.LLST21:
 3325 02cf 30010000 		.4byte	.LVL31-.Ltext0
 3326 02d3 3B010000 		.4byte	.LVL32-1-.Ltext0
 3327 02d7 0100     		.2byte	0x1
 3328 02d9 50       		.byte	0x50
 3329 02da 3B010000 		.4byte	.LVL32-1-.Ltext0
 3330 02de 44010000 		.4byte	.LFE12-.Ltext0
 3331 02e2 0400     		.2byte	0x4
 3332 02e4 F3       		.byte	0xf3
 3333 02e5 01       		.uleb128 0x1
 3334 02e6 50       		.byte	0x50
 3335 02e7 9F       		.byte	0x9f
 3336 02e8 00000000 		.4byte	0
 3337 02ec 00000000 		.4byte	0
 3338              	.LLST22:
 3339 02f0 30010000 		.4byte	.LVL31-.Ltext0
 3340 02f4 3B010000 		.4byte	.LVL32-1-.Ltext0
 3341 02f8 0100     		.2byte	0x1
 3342 02fa 51       		.byte	0x51
 3343 02fb 3B010000 		.4byte	.LVL32-1-.Ltext0
 3344 02ff 44010000 		.4byte	.LFE12-.Ltext0
 3345 0303 0400     		.2byte	0x4
 3346 0305 F3       		.byte	0xf3
 3347 0306 01       		.uleb128 0x1
 3348 0307 51       		.byte	0x51
 3349 0308 9F       		.byte	0x9f
 3350 0309 00000000 		.4byte	0
 3351 030d 00000000 		.4byte	0
 3352              	.LLST23:
ARM GAS  /tmp/ccQZJKRf.s 			page 60


 3353 0311 50010000 		.4byte	.LVL33-.Ltext0
 3354 0315 6E010000 		.4byte	.LVL35-.Ltext0
 3355 0319 0100     		.2byte	0x1
 3356 031b 50       		.byte	0x50
 3357 031c 6E010000 		.4byte	.LVL35-.Ltext0
 3358 0320 79010000 		.4byte	.LVL36-1-.Ltext0
 3359 0324 0100     		.2byte	0x1
 3360 0326 53       		.byte	0x53
 3361 0327 79010000 		.4byte	.LVL36-1-.Ltext0
 3362 032b 82010000 		.4byte	.LFE14-.Ltext0
 3363 032f 0400     		.2byte	0x4
 3364 0331 F3       		.byte	0xf3
 3365 0332 01       		.uleb128 0x1
 3366 0333 50       		.byte	0x50
 3367 0334 9F       		.byte	0x9f
 3368 0335 00000000 		.4byte	0
 3369 0339 00000000 		.4byte	0
 3370              	.LLST24:
 3371 033d 6C010000 		.4byte	.LVL34-.Ltext0
 3372 0341 79010000 		.4byte	.LVL36-1-.Ltext0
 3373 0345 0100     		.2byte	0x1
 3374 0347 53       		.byte	0x53
 3375 0348 79010000 		.4byte	.LVL36-1-.Ltext0
 3376 034c 82010000 		.4byte	.LFE14-.Ltext0
 3377 0350 0400     		.2byte	0x4
 3378 0352 F3       		.byte	0xf3
 3379 0353 01       		.uleb128 0x1
 3380 0354 50       		.byte	0x50
 3381 0355 9F       		.byte	0x9f
 3382 0356 00000000 		.4byte	0
 3383 035a 00000000 		.4byte	0
 3384              	.LLST25:
 3385 035e 6E010000 		.4byte	.LVL35-.Ltext0
 3386 0362 79010000 		.4byte	.LVL36-1-.Ltext0
 3387 0366 0100     		.2byte	0x1
 3388 0368 50       		.byte	0x50
 3389 0369 00000000 		.4byte	0
 3390 036d 00000000 		.4byte	0
 3391              	.LLST26:
 3392 0371 90010000 		.4byte	.LVL37-.Ltext0
 3393 0375 A8010000 		.4byte	.LVL40-.Ltext0
 3394 0379 0100     		.2byte	0x1
 3395 037b 50       		.byte	0x50
 3396 037c A8010000 		.4byte	.LVL40-.Ltext0
 3397 0380 AD010000 		.4byte	.LVL41-1-.Ltext0
 3398 0384 0200     		.2byte	0x2
 3399 0386 72       		.byte	0x72
 3400 0387 04       		.sleb128 4
 3401 0388 AD010000 		.4byte	.LVL41-1-.Ltext0
 3402 038c AE010000 		.4byte	.LFE15-.Ltext0
 3403 0390 0400     		.2byte	0x4
 3404 0392 F3       		.byte	0xf3
 3405 0393 01       		.uleb128 0x1
 3406 0394 50       		.byte	0x50
 3407 0395 9F       		.byte	0x9f
 3408 0396 00000000 		.4byte	0
 3409 039a 00000000 		.4byte	0
ARM GAS  /tmp/ccQZJKRf.s 			page 61


 3410              	.LLST27:
 3411 039e 9C010000 		.4byte	.LVL38-.Ltext0
 3412 03a2 A8010000 		.4byte	.LVL40-.Ltext0
 3413 03a6 0100     		.2byte	0x1
 3414 03a8 50       		.byte	0x50
 3415 03a9 A8010000 		.4byte	.LVL40-.Ltext0
 3416 03ad AD010000 		.4byte	.LVL41-1-.Ltext0
 3417 03b1 0200     		.2byte	0x2
 3418 03b3 72       		.byte	0x72
 3419 03b4 04       		.sleb128 4
 3420 03b5 AD010000 		.4byte	.LVL41-1-.Ltext0
 3421 03b9 AE010000 		.4byte	.LFE15-.Ltext0
 3422 03bd 0400     		.2byte	0x4
 3423 03bf F3       		.byte	0xf3
 3424 03c0 01       		.uleb128 0x1
 3425 03c1 50       		.byte	0x50
 3426 03c2 9F       		.byte	0x9f
 3427 03c3 00000000 		.4byte	0
 3428 03c7 00000000 		.4byte	0
 3429              	.LLST28:
 3430 03cb 9E010000 		.4byte	.LVL39-.Ltext0
 3431 03cf AD010000 		.4byte	.LVL41-1-.Ltext0
 3432 03d3 0100     		.2byte	0x1
 3433 03d5 53       		.byte	0x53
 3434 03d6 00000000 		.4byte	0
 3435 03da 00000000 		.4byte	0
 3436              	.LLST29:
 3437 03de B0010000 		.4byte	.LVL42-.Ltext0
 3438 03e2 BC010000 		.4byte	.LVL43-.Ltext0
 3439 03e6 0100     		.2byte	0x1
 3440 03e8 50       		.byte	0x50
 3441 03e9 BC010000 		.4byte	.LVL43-.Ltext0
 3442 03ed DC010000 		.4byte	.LVL51-.Ltext0
 3443 03f1 0100     		.2byte	0x1
 3444 03f3 55       		.byte	0x55
 3445 03f4 DC010000 		.4byte	.LVL51-.Ltext0
 3446 03f8 DE010000 		.4byte	.LFE16-.Ltext0
 3447 03fc 0400     		.2byte	0x4
 3448 03fe F3       		.byte	0xf3
 3449 03ff 01       		.uleb128 0x1
 3450 0400 50       		.byte	0x50
 3451 0401 9F       		.byte	0x9f
 3452 0402 00000000 		.4byte	0
 3453 0406 00000000 		.4byte	0
 3454              	.LLST30:
 3455 040a B0010000 		.4byte	.LVL42-.Ltext0
 3456 040e BC010000 		.4byte	.LVL43-.Ltext0
 3457 0412 0100     		.2byte	0x1
 3458 0414 51       		.byte	0x51
 3459 0415 BC010000 		.4byte	.LVL43-.Ltext0
 3460 0419 BE010000 		.4byte	.LVL44-.Ltext0
 3461 041d 0300     		.2byte	0x3
 3462 041f 74       		.byte	0x74
 3463 0420 7F       		.sleb128 -1
 3464 0421 9F       		.byte	0x9f
 3465 0422 BE010000 		.4byte	.LVL44-.Ltext0
 3466 0426 D8010000 		.4byte	.LVL49-.Ltext0
ARM GAS  /tmp/ccQZJKRf.s 			page 62


 3467 042a 0100     		.2byte	0x1
 3468 042c 54       		.byte	0x54
 3469 042d D8010000 		.4byte	.LVL49-.Ltext0
 3470 0431 DA010000 		.4byte	.LVL50-.Ltext0
 3471 0435 0300     		.2byte	0x3
 3472 0437 74       		.byte	0x74
 3473 0438 01       		.sleb128 1
 3474 0439 9F       		.byte	0x9f
 3475 043a 00000000 		.4byte	0
 3476 043e 00000000 		.4byte	0
 3477              	.LLST31:
 3478 0442 CA010000 		.4byte	.LVL46-.Ltext0
 3479 0446 DC010000 		.4byte	.LVL51-.Ltext0
 3480 044a 0100     		.2byte	0x1
 3481 044c 55       		.byte	0x55
 3482 044d 00000000 		.4byte	0
 3483 0451 00000000 		.4byte	0
 3484              	.LLST32:
 3485 0455 CC010000 		.4byte	.LVL47-.Ltext0
 3486 0459 D5010000 		.4byte	.LVL48-1-.Ltext0
 3487 045d 0100     		.2byte	0x1
 3488 045f 50       		.byte	0x50
 3489 0460 00000000 		.4byte	0
 3490 0464 00000000 		.4byte	0
 3491              	.LLST33:
 3492 0468 E0010000 		.4byte	.LVL52-.Ltext0
 3493 046c F6010000 		.4byte	.LVL53-.Ltext0
 3494 0470 0100     		.2byte	0x1
 3495 0472 50       		.byte	0x50
 3496 0473 F6010000 		.4byte	.LVL53-.Ltext0
 3497 0477 32020000 		.4byte	.LVL60-.Ltext0
 3498 047b 0400     		.2byte	0x4
 3499 047d F3       		.byte	0xf3
 3500 047e 01       		.uleb128 0x1
 3501 047f 50       		.byte	0x50
 3502 0480 9F       		.byte	0x9f
 3503 0481 32020000 		.4byte	.LVL60-.Ltext0
 3504 0485 34020000 		.4byte	.LVL61-.Ltext0
 3505 0489 0100     		.2byte	0x1
 3506 048b 50       		.byte	0x50
 3507 048c 34020000 		.4byte	.LVL61-.Ltext0
 3508 0490 3F020000 		.4byte	.LVL63-1-.Ltext0
 3509 0494 0100     		.2byte	0x1
 3510 0496 52       		.byte	0x52
 3511 0497 3F020000 		.4byte	.LVL63-1-.Ltext0
 3512 049b 4C020000 		.4byte	.LFE17-.Ltext0
 3513 049f 0400     		.2byte	0x4
 3514 04a1 F3       		.byte	0xf3
 3515 04a2 01       		.uleb128 0x1
 3516 04a3 50       		.byte	0x50
 3517 04a4 9F       		.byte	0x9f
 3518 04a5 00000000 		.4byte	0
 3519 04a9 00000000 		.4byte	0
 3520              	.LLST34:
 3521 04ad E0010000 		.4byte	.LVL52-.Ltext0
 3522 04b1 F6010000 		.4byte	.LVL53-.Ltext0
 3523 04b5 0100     		.2byte	0x1
ARM GAS  /tmp/ccQZJKRf.s 			page 63


 3524 04b7 51       		.byte	0x51
 3525 04b8 F6010000 		.4byte	.LVL53-.Ltext0
 3526 04bc 32020000 		.4byte	.LVL60-.Ltext0
 3527 04c0 0400     		.2byte	0x4
 3528 04c2 F3       		.byte	0xf3
 3529 04c3 01       		.uleb128 0x1
 3530 04c4 51       		.byte	0x51
 3531 04c5 9F       		.byte	0x9f
 3532 04c6 32020000 		.4byte	.LVL60-.Ltext0
 3533 04ca 3F020000 		.4byte	.LVL63-1-.Ltext0
 3534 04ce 0100     		.2byte	0x1
 3535 04d0 51       		.byte	0x51
 3536 04d1 3F020000 		.4byte	.LVL63-1-.Ltext0
 3537 04d5 4C020000 		.4byte	.LFE17-.Ltext0
 3538 04d9 0200     		.2byte	0x2
 3539 04db 91       		.byte	0x91
 3540 04dc 74       		.sleb128 -12
 3541 04dd 00000000 		.4byte	0
 3542 04e1 00000000 		.4byte	0
 3543              	.LLST35:
 3544 04e5 04020000 		.4byte	.LVL54-.Ltext0
 3545 04e9 06020000 		.4byte	.LVL55-.Ltext0
 3546 04ed 0200     		.2byte	0x2
 3547 04ef 30       		.byte	0x30
 3548 04f0 9F       		.byte	0x9f
 3549 04f1 06020000 		.4byte	.LVL55-.Ltext0
 3550 04f5 10020000 		.4byte	.LVL56-.Ltext0
 3551 04f9 0100     		.2byte	0x1
 3552 04fb 50       		.byte	0x50
 3553 04fc 28020000 		.4byte	.LVL59-.Ltext0
 3554 0500 32020000 		.4byte	.LVL60-.Ltext0
 3555 0504 0100     		.2byte	0x1
 3556 0506 50       		.byte	0x50
 3557 0507 00000000 		.4byte	0
 3558 050b 00000000 		.4byte	0
 3559              	.LLST36:
 3560 050f 16020000 		.4byte	.LVL57-.Ltext0
 3561 0513 32020000 		.4byte	.LVL60-.Ltext0
 3562 0517 0100     		.2byte	0x1
 3563 0519 54       		.byte	0x54
 3564 051a 00000000 		.4byte	0
 3565 051e 00000000 		.4byte	0
 3566              	.LLST37:
 3567 0522 16020000 		.4byte	.LVL57-.Ltext0
 3568 0526 25020000 		.4byte	.LVL58-1-.Ltext0
 3569 052a 0100     		.2byte	0x1
 3570 052c 51       		.byte	0x51
 3571 052d 00000000 		.4byte	0
 3572 0531 00000000 		.4byte	0
 3573              	.LLST39:
 3574 0535 36020000 		.4byte	.LVL62-.Ltext0
 3575 0539 3F020000 		.4byte	.LVL63-1-.Ltext0
 3576 053d 0100     		.2byte	0x1
 3577 053f 50       		.byte	0x50
 3578 0540 00000000 		.4byte	0
 3579 0544 00000000 		.4byte	0
 3580              		.section	.debug_aranges,"",%progbits
ARM GAS  /tmp/ccQZJKRf.s 			page 64


 3581 0000 1C000000 		.4byte	0x1c
 3582 0004 0200     		.2byte	0x2
 3583 0006 00000000 		.4byte	.Ldebug_info0
 3584 000a 04       		.byte	0x4
 3585 000b 00       		.byte	0
 3586 000c 0000     		.2byte	0
 3587 000e 0000     		.2byte	0
 3588 0010 00000000 		.4byte	.Ltext0
 3589 0014 4C020000 		.4byte	.Letext0-.Ltext0
 3590 0018 00000000 		.4byte	0
 3591 001c 00000000 		.4byte	0
 3592              		.section	.debug_ranges,"",%progbits
 3593              	.Ldebug_ranges0:
 3594 0000 66000000 		.4byte	.LBB45-.Ltext0
 3595 0004 72000000 		.4byte	.LBE45-.Ltext0
 3596 0008 7C000000 		.4byte	.LBB55-.Ltext0
 3597 000c 98000000 		.4byte	.LBE55-.Ltext0
 3598 0010 00000000 		.4byte	0
 3599 0014 00000000 		.4byte	0
 3600 0018 82000000 		.4byte	.LBB49-.Ltext0
 3601 001c 8C000000 		.4byte	.LBE49-.Ltext0
 3602 0020 8E000000 		.4byte	.LBB52-.Ltext0
 3603 0024 90000000 		.4byte	.LBE52-.Ltext0
 3604 0028 00000000 		.4byte	0
 3605 002c 00000000 		.4byte	0
 3606 0030 72000000 		.4byte	.LBB54-.Ltext0
 3607 0034 78000000 		.4byte	.LBE54-.Ltext0
 3608 0038 98000000 		.4byte	.LBB56-.Ltext0
 3609 003c 9E000000 		.4byte	.LBE56-.Ltext0
 3610 0040 00000000 		.4byte	0
 3611 0044 00000000 		.4byte	0
 3612 0048 C6000000 		.4byte	.LBB63-.Ltext0
 3613 004c D0000000 		.4byte	.LBE63-.Ltext0
 3614 0050 D2000000 		.4byte	.LBB66-.Ltext0
 3615 0054 D4000000 		.4byte	.LBE66-.Ltext0
 3616 0058 00000000 		.4byte	0
 3617 005c 00000000 		.4byte	0
 3618 0060 04010000 		.4byte	.LBB71-.Ltext0
 3619 0064 16010000 		.4byte	.LBE71-.Ltext0
 3620 0068 1A010000 		.4byte	.LBB78-.Ltext0
 3621 006c 1E010000 		.4byte	.LBE78-.Ltext0
 3622 0070 00000000 		.4byte	0
 3623 0074 00000000 		.4byte	0
 3624 0078 0A010000 		.4byte	.LBB73-.Ltext0
 3625 007c 0C010000 		.4byte	.LBE73-.Ltext0
 3626 0080 0E010000 		.4byte	.LBB76-.Ltext0
 3627 0084 16010000 		.4byte	.LBE76-.Ltext0
 3628 0088 00000000 		.4byte	0
 3629 008c 00000000 		.4byte	0
 3630 0090 62010000 		.4byte	.LBB82-.Ltext0
 3631 0094 6C010000 		.4byte	.LBE82-.Ltext0
 3632 0098 7A010000 		.4byte	.LBB87-.Ltext0
 3633 009c 82010000 		.4byte	.LBE87-.Ltext0
 3634 00a0 00000000 		.4byte	0
 3635 00a4 00000000 		.4byte	0
 3636 00a8 6C010000 		.4byte	.LBB83-.Ltext0
 3637 00ac 72010000 		.4byte	.LBE83-.Ltext0
ARM GAS  /tmp/ccQZJKRf.s 			page 65


 3638 00b0 74010000 		.4byte	.LBB86-.Ltext0
 3639 00b4 76010000 		.4byte	.LBE86-.Ltext0
 3640 00b8 00000000 		.4byte	0
 3641 00bc 00000000 		.4byte	0
 3642 00c0 9C010000 		.4byte	.LBB89-.Ltext0
 3643 00c4 A2010000 		.4byte	.LBE89-.Ltext0
 3644 00c8 A4010000 		.4byte	.LBB92-.Ltext0
 3645 00cc A6010000 		.4byte	.LBE92-.Ltext0
 3646 00d0 00000000 		.4byte	0
 3647 00d4 00000000 		.4byte	0
 3648 00d8 06020000 		.4byte	.LBB96-.Ltext0
 3649 00dc 0C020000 		.4byte	.LBE96-.Ltext0
 3650 00e0 28020000 		.4byte	.LBB102-.Ltext0
 3651 00e4 2E020000 		.4byte	.LBE102-.Ltext0
 3652 00e8 00000000 		.4byte	0
 3653 00ec 00000000 		.4byte	0
 3654 00f0 12020000 		.4byte	.LBB98-.Ltext0
 3655 00f4 14020000 		.4byte	.LBE98-.Ltext0
 3656 00f8 18020000 		.4byte	.LBB101-.Ltext0
 3657 00fc 20020000 		.4byte	.LBE101-.Ltext0
 3658 0100 00000000 		.4byte	0
 3659 0104 00000000 		.4byte	0
 3660              		.section	.debug_line,"",%progbits
 3661              	.Ldebug_line0:
 3662 0000 0F040000 		.section	.debug_str,"MS",%progbits,1
 3662      0200B602 
 3662      00000201 
 3662      FB0E0D00 
 3662      01010101 
 3663              	.LASF37:
 3664 0000 705F6D73 		.ascii	"p_msg\000"
 3664      6700
 3665              	.LASF84:
 3666 0006 71756575 		.ascii	"queue_insert\000"
 3666      655F696E 
 3666      73657274 
 3666      00
 3667              	.LASF77:
 3668 0013 63685365 		.ascii	"chSemSignalI\000"
 3668      6D536967 
 3668      6E616C49 
 3668      00
 3669              	.LASF61:
 3670 0020 7264796D 		.ascii	"rdymsg\000"
 3670      736700
 3671              	.LASF5:
 3672 0027 5F5F7569 		.ascii	"__uint8_t\000"
 3672      6E74385F 
 3672      7400
 3673              	.LASF11:
 3674 0031 6C6F6E67 		.ascii	"long long unsigned int\000"
 3674      206C6F6E 
 3674      6720756E 
 3674      7369676E 
 3674      65642069 
 3675              	.LASF78:
 3676 0048 63685365 		.ascii	"chSemAddCounterI\000"
ARM GAS  /tmp/ccQZJKRf.s 			page 66


 3676      6D416464 
 3676      436F756E 
 3676      74657249 
 3676      00
 3677              	.LASF27:
 3678 0059 705F7072 		.ascii	"p_prio\000"
 3678      696F00
 3679              	.LASF10:
 3680 0060 6C6F6E67 		.ascii	"long long int\000"
 3680      206C6F6E 
 3680      6720696E 
 3680      7400
 3681              	.LASF1:
 3682 006e 7369676E 		.ascii	"signed char\000"
 3682      65642063 
 3682      68617200 
 3683              	.LASF79:
 3684 007a 63685365 		.ascii	"chSemSignalWait\000"
 3684      6D536967 
 3684      6E616C57 
 3684      61697400 
 3685              	.LASF58:
 3686 008a 6D5F7175 		.ascii	"m_queue\000"
 3686      65756500 
 3687              	.LASF18:
 3688 0092 74736C69 		.ascii	"tslices_t\000"
 3688      6365735F 
 3688      7400
 3689              	.LASF7:
 3690 009c 6C6F6E67 		.ascii	"long int\000"
 3690      20696E74 
 3690      00
 3691              	.LASF17:
 3692 00a5 74737461 		.ascii	"tstate_t\000"
 3692      74655F74 
 3692      00
 3693              	.LASF29:
 3694 00ae 705F6E65 		.ascii	"p_newer\000"
 3694      77657200 
 3695              	.LASF55:
 3696 00b6 735F7175 		.ascii	"s_queue\000"
 3696      65756500 
 3697              	.LASF62:
 3698 00be 65786974 		.ascii	"exitcode\000"
 3698      636F6465 
 3698      00
 3699              	.LASF86:
 3700 00c7 63685363 		.ascii	"chSchRescheduleS\000"
 3700      68526573 
 3700      63686564 
 3700      756C6553 
 3700      00
 3701              	.LASF8:
 3702 00d8 5F5F7569 		.ascii	"__uint32_t\000"
 3702      6E743332 
 3702      5F7400
 3703              	.LASF43:
ARM GAS  /tmp/ccQZJKRf.s 			page 67


 3704 00e3 72656761 		.ascii	"regarm_t\000"
 3704      726D5F74 
 3704      00
 3705              	.LASF23:
 3706 00ec 636E745F 		.ascii	"cnt_t\000"
 3706      7400
 3707              	.LASF0:
 3708 00f2 756E7369 		.ascii	"unsigned int\000"
 3708      676E6564 
 3708      20696E74 
 3708      00
 3709              	.LASF75:
 3710 00ff 63685365 		.ascii	"chSemWaitTimeout\000"
 3710      6D576169 
 3710      7454696D 
 3710      656F7574 
 3710      00
 3711              	.LASF9:
 3712 0110 6C6F6E67 		.ascii	"long unsigned int\000"
 3712      20756E73 
 3712      69676E65 
 3712      6420696E 
 3712      7400
 3713              	.LASF76:
 3714 0122 63685365 		.ascii	"chSemSignal\000"
 3714      6D536967 
 3714      6E616C00 
 3715              	.LASF83:
 3716 012e 2F686F6D 		.ascii	"/home/sbcu/Dropbox/pcb-layouts/axo-on-discovery-boa"
 3716      652F7362 
 3716      63752F44 
 3716      726F7062 
 3716      6F782F70 
 3717 0161 72642F61 		.ascii	"rd/axoloti/platform_linux/../chibios/os/kernel/src/"
 3717      786F6C6F 
 3717      74692F70 
 3717      6C617466 
 3717      6F726D5F 
 3718 0194 63687365 		.ascii	"chsem.c\000"
 3718      6D2E6300 
 3719              	.LASF56:
 3720 019c 735F636E 		.ascii	"s_cnt\000"
 3720      7400
 3721              	.LASF4:
 3722 01a2 73686F72 		.ascii	"short unsigned int\000"
 3722      7420756E 
 3722      7369676E 
 3722      65642069 
 3722      6E7400
 3723              	.LASF73:
 3724 01b5 63685365 		.ascii	"chSemReset\000"
 3724      6D526573 
 3724      657400
 3725              	.LASF20:
 3726 01c0 6D73675F 		.ascii	"msg_t\000"
 3726      7400
 3727              	.LASF50:
ARM GAS  /tmp/ccQZJKRf.s 			page 68


 3728 01c6 725F6E65 		.ascii	"r_newer\000"
 3728      77657200 
 3729              	.LASF16:
 3730 01ce 746D6F64 		.ascii	"tmode_t\000"
 3730      655F7400 
 3731              	.LASF42:
 3732 01d6 54687265 		.ascii	"ThreadsList\000"
 3732      6164734C 
 3732      69737400 
 3733              	.LASF21:
 3734 01e2 6576656E 		.ascii	"eventmask_t\000"
 3734      746D6173 
 3734      6B5F7400 
 3735              	.LASF57:
 3736 01ee 4D757465 		.ascii	"Mutex\000"
 3736      7800
 3737              	.LASF46:
 3738 01f4 73697A65 		.ascii	"sizetype\000"
 3738      74797065 
 3738      00
 3739              	.LASF30:
 3740 01fd 705F6F6C 		.ascii	"p_older\000"
 3740      64657200 
 3741              	.LASF49:
 3742 0205 725F6374 		.ascii	"r_ctx\000"
 3742      7800
 3743              	.LASF41:
 3744 020b 54687265 		.ascii	"ThreadsQueue\000"
 3744      61647351 
 3744      75657565 
 3744      00
 3745              	.LASF68:
 3746 0218 74696D65 		.ascii	"time\000"
 3746      00
 3747              	.LASF52:
 3748 021d 725F6375 		.ascii	"r_current\000"
 3748      7272656E 
 3748      7400
 3749              	.LASF51:
 3750 0227 725F6F6C 		.ascii	"r_older\000"
 3750      64657200 
 3751              	.LASF26:
 3752 022f 705F7072 		.ascii	"p_prev\000"
 3752      657600
 3753              	.LASF19:
 3754 0236 74707269 		.ascii	"tprio_t\000"
 3754      6F5F7400 
 3755              	.LASF15:
 3756 023e 5F426F6F 		.ascii	"_Bool\000"
 3756      6C00
 3757              	.LASF13:
 3758 0244 696E7433 		.ascii	"int32_t\000"
 3758      325F7400 
 3759              	.LASF2:
 3760 024c 756E7369 		.ascii	"unsigned char\000"
 3760      676E6564 
 3760      20636861 
ARM GAS  /tmp/ccQZJKRf.s 			page 69


 3760      7200
 3761              	.LASF39:
 3762 025a 705F6D74 		.ascii	"p_mtxlist\000"
 3762      786C6973 
 3762      7400
 3763              	.LASF3:
 3764 0264 73686F72 		.ascii	"short int\000"
 3764      7420696E 
 3764      7400
 3765              	.LASF32:
 3766 026e 705F7374 		.ascii	"p_state\000"
 3766      61746500 
 3767              	.LASF34:
 3768 0276 705F7072 		.ascii	"p_preempt\000"
 3768      65656D70 
 3768      7400
 3769              	.LASF48:
 3770 0280 725F7072 		.ascii	"r_prio\000"
 3770      696F00
 3771              	.LASF64:
 3772 0287 65776D61 		.ascii	"ewmask\000"
 3772      736B00
 3773              	.LASF25:
 3774 028e 705F6E65 		.ascii	"p_next\000"
 3774      787400
 3775              	.LASF33:
 3776 0295 705F666C 		.ascii	"p_flags\000"
 3776      61677300 
 3777              	.LASF66:
 3778 029d 63685365 		.ascii	"chSemWaitS\000"
 3778      6D576169 
 3778      745300
 3779              	.LASF24:
 3780 02a8 54687265 		.ascii	"Thread\000"
 3780      616400
 3781              	.LASF87:
 3782 02af 63685363 		.ascii	"chSchGoSleepS\000"
 3782      68476F53 
 3782      6C656570 
 3782      5300
 3783              	.LASF38:
 3784 02bd 705F6570 		.ascii	"p_epending\000"
 3784      656E6469 
 3784      6E6700
 3785              	.LASF14:
 3786 02c8 75696E74 		.ascii	"uint32_t\000"
 3786      33325F74 
 3786      00
 3787              	.LASF47:
 3788 02d1 725F7175 		.ascii	"r_queue\000"
 3788      65756500 
 3789              	.LASF65:
 3790 02d9 63686172 		.ascii	"char\000"
 3790      00
 3791              	.LASF70:
 3792 02de 6669666F 		.ascii	"fifo_remove\000"
 3792      5F72656D 
ARM GAS  /tmp/ccQZJKRf.s 			page 70


 3792      6F766500 
 3793              	.LASF67:
 3794 02ea 63685365 		.ascii	"chSemWaitTimeoutS\000"
 3794      6D576169 
 3794      7454696D 
 3794      656F7574 
 3794      5300
 3795              	.LASF80:
 3796 02fc 63685363 		.ascii	"chSchReadyI\000"
 3796      68526561 
 3796      64794900 
 3797              	.LASF60:
 3798 0308 6D5F6E65 		.ascii	"m_next\000"
 3798      787400
 3799              	.LASF22:
 3800 030f 73797374 		.ascii	"systime_t\000"
 3800      696D655F 
 3800      7400
 3801              	.LASF40:
 3802 0319 705F7265 		.ascii	"p_realprio\000"
 3802      616C7072 
 3802      696F00
 3803              	.LASF6:
 3804 0324 5F5F696E 		.ascii	"__int32_t\000"
 3804      7433325F 
 3804      7400
 3805              	.LASF74:
 3806 032e 63685365 		.ascii	"chSemWait\000"
 3806      6D576169 
 3806      7400
 3807              	.LASF45:
 3808 0338 636F6E74 		.ascii	"context\000"
 3808      65787400 
 3809              	.LASF69:
 3810 0340 6C69666F 		.ascii	"lifo_remove\000"
 3810      5F72656D 
 3810      6F766500 
 3811              	.LASF44:
 3812 034c 696E7463 		.ascii	"intctx\000"
 3812      747800
 3813              	.LASF36:
 3814 0353 705F6D73 		.ascii	"p_msgqueue\000"
 3814      67717565 
 3814      756500
 3815              	.LASF88:
 3816 035e 63685363 		.ascii	"chSchWakeupS\000"
 3816      6857616B 
 3816      65757053 
 3816      00
 3817              	.LASF54:
 3818 036b 53656D61 		.ascii	"Semaphore\000"
 3818      70686F72 
 3818      6500
 3819              	.LASF31:
 3820 0375 705F6E61 		.ascii	"p_name\000"
 3820      6D6500
 3821              	.LASF53:
ARM GAS  /tmp/ccQZJKRf.s 			page 71


 3822 037c 52656164 		.ascii	"ReadyList\000"
 3822      794C6973 
 3822      7400
 3823              	.LASF72:
 3824 0386 63685365 		.ascii	"chSemResetI\000"
 3824      6D526573 
 3824      65744900 
 3825              	.LASF85:
 3826 0392 726C6973 		.ascii	"rlist\000"
 3826      7400
 3827              	.LASF12:
 3828 0398 75696E74 		.ascii	"uint8_t\000"
 3828      385F7400 
 3829              	.LASF63:
 3830 03a0 77746F62 		.ascii	"wtobjp\000"
 3830      6A7000
 3831              	.LASF82:
 3832 03a7 474E5520 		.ascii	"GNU C 4.9.3 20150529 (release) [ARM/embedded-4_9-br"
 3832      4320342E 
 3832      392E3320 
 3832      32303135 
 3832      30353239 
 3833 03da 616E6368 		.ascii	"anch revision 224288] -mcpu=cortex-m4 -mfloat-abi=h"
 3833      20726576 
 3833      6973696F 
 3833      6E203232 
 3833      34323838 
 3834 040d 61726420 		.ascii	"ard -mfpu=fpv4-sp-d16 -mno-thumb-interwork -mthumb "
 3834      2D6D6670 
 3834      753D6670 
 3834      76342D73 
 3834      702D6431 
 3835 0440 2D676764 		.ascii	"-ggdb -O2 -fomit-frame-pointer -falign-functions=16"
 3835      62202D4F 
 3835      32202D66 
 3835      6F6D6974 
 3835      2D667261 
 3836 0473 202D666E 		.ascii	" -fno-math-errno -fsingle-precision-constant\000"
 3836      6F2D6D61 
 3836      74682D65 
 3836      72726E6F 
 3836      202D6673 
 3837              	.LASF81:
 3838 04a0 63685363 		.ascii	"chSchGoSleepTimeoutS\000"
 3838      68476F53 
 3838      6C656570 
 3838      54696D65 
 3838      6F757453 
 3839              	.LASF59:
 3840 04b5 6D5F6F77 		.ascii	"m_owner\000"
 3840      6E657200 
 3841              	.LASF28:
 3842 04bd 705F6374 		.ascii	"p_ctx\000"
 3842      7800
 3843              	.LASF35:
 3844 04c3 705F7761 		.ascii	"p_waiting\000"
 3844      6974696E 
ARM GAS  /tmp/ccQZJKRf.s 			page 72


 3844      6700
 3845              	.LASF71:
 3846 04cd 63685365 		.ascii	"chSemInit\000"
 3846      6D496E69 
 3846      7400
 3847              		.ident	"GCC: (GNU Tools for ARM Embedded Processors) 4.9.3 20150529 (release) [ARM/embedded-4_9-br
ARM GAS  /tmp/ccQZJKRf.s 			page 73


DEFINED SYMBOLS
                            *ABS*:00000000 chsem.c
     /tmp/ccQZJKRf.s:20     .text:00000000 $t
     /tmp/ccQZJKRf.s:26     .text:00000000 chSemInit
     /tmp/ccQZJKRf.s:50     .text:00000010 chSemResetI
     /tmp/ccQZJKRf.s:114    .text:00000040 chSemReset
     /tmp/ccQZJKRf.s:157    .text:00000060 chSemWait
     /tmp/ccQZJKRf.s:256    .text:000000a0 $d
     /tmp/ccQZJKRf.s:260    .text:000000a4 $t
     /tmp/ccQZJKRf.s:266    .text:000000b0 chSemWaitS
     /tmp/ccQZJKRf.s:328    .text:000000e0 $d
     /tmp/ccQZJKRf.s:334    .text:000000e4 $t
     /tmp/ccQZJKRf.s:340    .text:000000f0 chSemWaitTimeoutS
     /tmp/ccQZJKRf.s:421    .text:0000012c $d
     /tmp/ccQZJKRf.s:425    .text:00000130 $t
     /tmp/ccQZJKRf.s:431    .text:00000130 chSemWaitTimeout
     /tmp/ccQZJKRf.s:472    .text:00000150 chSemSignal
     /tmp/ccQZJKRf.s:548    .text:00000190 chSemSignalI
     /tmp/ccQZJKRf.s:602    .text:000001b0 chSemAddCounterI
     /tmp/ccQZJKRf.s:671    .text:000001e0 chSemSignalWait
     /tmp/ccQZJKRf.s:802    .text:00000248 $d
                     .debug_frame:00000010 $d

UNDEFINED SYMBOLS
chSchReadyI
chSchRescheduleS
chSchGoSleepS
rlist
chSchGoSleepTimeoutS
chSchWakeupS
