ARM GAS  /tmp/ccQZJKRf.s 			page 1


   1              		.syntax unified
   2              		.cpu cortex-m4
   3              		.eabi_attribute 27, 1
   4              		.eabi_attribute 28, 1
   5              		.fpu fpv4-sp-d16
   6              		.eabi_attribute 20, 1
   7              		.eabi_attribute 21, 1
   8              		.eabi_attribute 23, 3
   9              		.eabi_attribute 24, 1
  10              		.eabi_attribute 25, 1
  11              		.eabi_attribute 26, 1
  12              		.eabi_attribute 30, 2
  13              		.eabi_attribute 34, 1
  14              		.eabi_attribute 18, 4
  15              		.thumb
  16              		.file	"chsem.c"
  17              		.text
  18              	.Ltext0:
  19              		.cfi_sections	.debug_frame
  20              		.align	2
  21              		.p2align 4,,15
  22              		.global	chSemInit
  23              		.thumb
  24              		.thumb_func
  25              		.type	chSemInit, %function
  26              	chSemInit:
  27              	.LFB7:
  28              		.file 1 "/home/sbcu/Dropbox/pcb-layouts/axo-on-discovery-board/axoloti/platform_linux/../chibios/o
  29              		.loc 1 86 0
  30              		.cfi_startproc
  31              		@ args = 0, pretend = 0, frame = 0
  32              		@ frame_needed = 0, uses_anonymous_args = 0
  33              		@ link register save eliminated.
  34              	.LVL0:
  35              		.loc 1 90 0
  36 0000 4060     		str	r0, [r0, #4]
  37 0002 0060     		str	r0, [r0]
  38              		.loc 1 91 0
  39 0004 8160     		str	r1, [r0, #8]
  40 0006 7047     		bx	lr
  41              		.cfi_endproc
  42              	.LFE7:
  43              		.size	chSemInit, .-chSemInit
  44              		.align	2
  45 0008 AFF30080 		.p2align 4,,15
  45      AFF30080 
  46              		.global	chSemResetI
  47              		.thumb
  48              		.thumb_func
  49              		.type	chSemResetI, %function
  50              	chSemResetI:
  51              	.LFB9:
  52              		.loc 1 136 0
  53              		.cfi_startproc
  54              		@ args = 0, pretend = 0, frame = 0
  55              		@ frame_needed = 0, uses_anonymous_args = 0
  56              	.LVL1:
ARM GAS  /tmp/ccQZJKRf.s 			page 2


  57 0010 70B5     		push	{r4, r5, r6, lr}
  58              		.cfi_def_cfa_offset 16
  59              		.cfi_offset 4, -16
  60              		.cfi_offset 5, -12
  61              		.cfi_offset 6, -8
  62              		.cfi_offset 14, -4
  63              		.loc 1 141 0
  64 0012 8568     		ldr	r5, [r0, #8]
  65              	.LVL2:
  66              		.loc 1 147 0
  67 0014 8160     		str	r1, [r0, #8]
  68              		.loc 1 148 0
  69 0016 0135     		adds	r5, r5, #1
  70              	.LVL3:
  71 0018 002D     		cmp	r5, #0
  72 001a 0CDC     		bgt	.L2
  73 001c 0446     		mov	r4, r0
  74              		.loc 1 149 0
  75 001e 6FF00106 		mvn	r6, #1
  76              	.LVL4:
  77              	.L4:
  78              	.LBB32:
  79              	.LBB33:
  80              		.file 2 "/home/sbcu/Dropbox/pcb-layouts/axo-on-discovery-board/axoloti/platform_linux/../chibios/o
  81              		.loc 2 67 0
  82 0022 6068     		ldr	r0, [r4, #4]
  83              	.LVL5:
  84              		.loc 2 69 0
  85 0024 4368     		ldr	r3, [r0, #4]
  86 0026 6360     		str	r3, [r4, #4]
  87 0028 1C60     		str	r4, [r3]
  88              	.LBE33:
  89              	.LBE32:
  90              		.loc 1 149 0
  91 002a FFF7FEFF 		bl	chSchReadyI
  92              	.LVL6:
  93              		.loc 1 148 0
  94 002e 0135     		adds	r5, r5, #1
  95              	.LVL7:
  96 0030 012D     		cmp	r5, #1
  97              		.loc 1 149 0
  98 0032 0662     		str	r6, [r0, #32]
  99              	.LVL8:
 100              		.loc 1 148 0
 101 0034 F5D1     		bne	.L4
 102              	.LVL9:
 103              	.L2:
 104 0036 70BD     		pop	{r4, r5, r6, pc}
 105              		.cfi_endproc
 106              	.LFE9:
 107              		.size	chSemResetI, .-chSemResetI
 108              		.align	2
 109 0038 AFF30080 		.p2align 4,,15
 109      AFF30080 
 110              		.global	chSemReset
 111              		.thumb
 112              		.thumb_func
ARM GAS  /tmp/ccQZJKRf.s 			page 3


 113              		.type	chSemReset, %function
 114              	chSemReset:
 115              	.LFB8:
 116              		.loc 1 109 0
 117              		.cfi_startproc
 118              		@ args = 0, pretend = 0, frame = 0
 119              		@ frame_needed = 0, uses_anonymous_args = 0
 120              	.LVL10:
 121 0040 08B5     		push	{r3, lr}
 122              		.cfi_def_cfa_offset 8
 123              		.cfi_offset 3, -8
 124              		.cfi_offset 14, -4
 125              	.LBB34:
 126              		.loc 1 111 0
 127 0042 2023     		movs	r3, #32
 128              	@ 111 "/home/sbcu/Dropbox/pcb-layouts/axo-on-discovery-board/axoloti/platform_linux/../chibios/os/k
 129 0044 83F31188 		msr     BASEPRI, r3
 130              	@ 0 "" 2
 131              		.thumb
 132              	.LBE34:
 133              		.loc 1 112 0
 134 0048 FFF7FEFF 		bl	chSemResetI
 135              	.LVL11:
 136              		.loc 1 113 0
 137 004c FFF7FEFF 		bl	chSchRescheduleS
 138              	.LVL12:
 139              	.LBB35:
 140              		.loc 1 114 0
 141 0050 0023     		movs	r3, #0
 142              	@ 114 "/home/sbcu/Dropbox/pcb-layouts/axo-on-discovery-board/axoloti/platform_linux/../chibios/os/k
 143 0052 83F31188 		msr     BASEPRI, r3
 144              	@ 0 "" 2
 145              		.thumb
 146 0056 08BD     		pop	{r3, pc}
 147              	.LBE35:
 148              		.cfi_endproc
 149              	.LFE8:
 150              		.size	chSemReset, .-chSemReset
 151              		.align	2
 152 0058 AFF30080 		.p2align 4,,15
 152      AFF30080 
 153              		.global	chSemWait
 154              		.thumb
 155              		.thumb_func
 156              		.type	chSemWait, %function
 157              	chSemWait:
 158              	.LFB10:
 159              		.loc 1 164 0
 160              		.cfi_startproc
 161              		@ args = 0, pretend = 0, frame = 0
 162              		@ frame_needed = 0, uses_anonymous_args = 0
 163              	.LVL13:
 164              	.LBB44:
 165              		.loc 1 167 0
 166 0060 2023     		movs	r3, #32
 167              	@ 167 "/home/sbcu/Dropbox/pcb-layouts/axo-on-discovery-board/axoloti/platform_linux/../chibios/os/k
 168 0062 83F31188 		msr     BASEPRI, r3
ARM GAS  /tmp/ccQZJKRf.s 			page 4


 169              	@ 0 "" 2
 170              	.LVL14:
 171              		.thumb
 172              	.LBE44:
 173              	.LBB45:
 174              	.LBB46:
 175              		.loc 1 194 0
 176 0066 8368     		ldr	r3, [r0, #8]
 177 0068 013B     		subs	r3, r3, #1
 178 006a 002B     		cmp	r3, #0
 179 006c 8360     		str	r3, [r0, #8]
 180 006e 04DB     		blt	.L16
 181              		.loc 1 200 0
 182 0070 0020     		movs	r0, #0
 183              	.LVL15:
 184              	.LBE46:
 185              	.LBE45:
 186              	.LBB54:
 187              		.loc 1 169 0
 188 0072 0023     		movs	r3, #0
 189              	@ 169 "/home/sbcu/Dropbox/pcb-layouts/axo-on-discovery-board/axoloti/platform_linux/../chibios/os/k
 190 0074 83F31188 		msr     BASEPRI, r3
 191              	@ 0 "" 2
 192              		.thumb
 193              	.LBE54:
 194              		.loc 1 171 0
 195 0078 7047     		bx	lr
 196              	.LVL16:
 197              	.L16:
 198              		.loc 1 164 0
 199 007a 10B5     		push	{r4, lr}
 200              		.cfi_def_cfa_offset 8
 201              		.cfi_offset 4, -8
 202              		.cfi_offset 14, -4
 203              	.LBB55:
 204              	.LBB53:
 205              	.LBB47:
 206              	.LBB48:
 207              		.loc 1 195 0
 208 007c 084C     		ldr	r4, .L17
 209 007e A269     		ldr	r2, [r4, #24]
 210 0080 1062     		str	r0, [r2, #32]
 211              	.LBB49:
 212              	.LBB50:
 213              		.loc 2 55 0
 214 0082 4168     		ldr	r1, [r0, #4]
 215 0084 5160     		str	r1, [r2, #4]
 216 0086 0346     		mov	r3, r0
 217              	.LVL17:
 218              		.loc 2 54 0
 219 0088 1060     		str	r0, [r2]
 220              		.loc 2 56 0
 221 008a 5A60     		str	r2, [r3, #4]
 222              	.LBE50:
 223              	.LBE49:
 224              		.loc 1 197 0
 225 008c 0320     		movs	r0, #3
ARM GAS  /tmp/ccQZJKRf.s 			page 5


 226              	.LVL18:
 227              	.LBB52:
 228              	.LBB51:
 229              		.loc 2 56 0
 230 008e 0A60     		str	r2, [r1]
 231              	.LBE51:
 232              	.LBE52:
 233              		.loc 1 197 0
 234 0090 FFF7FEFF 		bl	chSchGoSleepS
 235              	.LVL19:
 236              		.loc 1 198 0
 237 0094 A369     		ldr	r3, [r4, #24]
 238 0096 186A     		ldr	r0, [r3, #32]
 239              	.LBE48:
 240              	.LBE47:
 241              	.LBE53:
 242              	.LBE55:
 243              	.LBB56:
 244              		.loc 1 169 0
 245 0098 0023     		movs	r3, #0
 246              	@ 169 "/home/sbcu/Dropbox/pcb-layouts/axo-on-discovery-board/axoloti/platform_linux/../chibios/os/k
 247 009a 83F31188 		msr     BASEPRI, r3
 248              	@ 0 "" 2
 249              		.thumb
 250              	.LBE56:
 251              		.loc 1 171 0
 252 009e 10BD     		pop	{r4, pc}
 253              	.L18:
 254              		.align	2
 255              	.L17:
 256 00a0 00000000 		.word	rlist
 257              		.cfi_endproc
 258              	.LFE10:
 259              		.size	chSemWait, .-chSemWait
 260              		.align	2
 261 00a4 AFF30080 		.p2align 4,,15
 261      AFF30080 
 261      AFF30080 
 262              		.global	chSemWaitS
 263              		.thumb
 264              		.thumb_func
 265              		.type	chSemWaitS, %function
 266              	chSemWaitS:
 267              	.LFB11:
 268              		.loc 1 185 0
 269              		.cfi_startproc
 270              		@ args = 0, pretend = 0, frame = 0
 271              		@ frame_needed = 0, uses_anonymous_args = 0
 272              	.LVL20:
 273              		.loc 1 194 0
 274 00b0 8368     		ldr	r3, [r0, #8]
 275 00b2 013B     		subs	r3, r3, #1
 276 00b4 002B     		cmp	r3, #0
 277 00b6 8360     		str	r3, [r0, #8]
 278 00b8 01DB     		blt	.L24
 279              		.loc 1 200 0
 280 00ba 0020     		movs	r0, #0
ARM GAS  /tmp/ccQZJKRf.s 			page 6


 281              	.LVL21:
 282 00bc 7047     		bx	lr
 283              	.LVL22:
 284              	.L24:
 285              		.loc 1 185 0
 286 00be 10B5     		push	{r4, lr}
 287              		.cfi_def_cfa_offset 8
 288              		.cfi_offset 4, -8
 289              		.cfi_offset 14, -4
 290              	.LBB61:
 291              	.LBB62:
 292              		.loc 1 195 0
 293 00c0 074C     		ldr	r4, .L25
 294 00c2 A269     		ldr	r2, [r4, #24]
 295 00c4 1062     		str	r0, [r2, #32]
 296              	.LBB63:
 297              	.LBB64:
 298              		.loc 2 55 0
 299 00c6 4168     		ldr	r1, [r0, #4]
 300 00c8 5160     		str	r1, [r2, #4]
 301 00ca 0346     		mov	r3, r0
 302              	.LVL23:
 303              		.loc 2 54 0
 304 00cc 1060     		str	r0, [r2]
 305              		.loc 2 56 0
 306 00ce 5A60     		str	r2, [r3, #4]
 307              	.LBE64:
 308              	.LBE63:
 309              		.loc 1 197 0
 310 00d0 0320     		movs	r0, #3
 311              	.LVL24:
 312              	.LBB66:
 313              	.LBB65:
 314              		.loc 2 56 0
 315 00d2 0A60     		str	r2, [r1]
 316              	.LBE65:
 317              	.LBE66:
 318              		.loc 1 197 0
 319 00d4 FFF7FEFF 		bl	chSchGoSleepS
 320              	.LVL25:
 321              		.loc 1 198 0
 322 00d8 A369     		ldr	r3, [r4, #24]
 323 00da 186A     		ldr	r0, [r3, #32]
 324 00dc 10BD     		pop	{r4, pc}
 325              	.L26:
 326 00de 00BF     		.align	2
 327              	.L25:
 328 00e0 00000000 		.word	rlist
 329              	.LBE62:
 330              	.LBE61:
 331              		.cfi_endproc
 332              	.LFE11:
 333              		.size	chSemWaitS, .-chSemWaitS
 334              		.align	2
 335 00e4 AFF30080 		.p2align 4,,15
 335      AFF30080 
 335      AFF30080 
ARM GAS  /tmp/ccQZJKRf.s 			page 7


 336              		.global	chSemWaitTimeoutS
 337              		.thumb
 338              		.thumb_func
 339              		.type	chSemWaitTimeoutS, %function
 340              	chSemWaitTimeoutS:
 341              	.LFB13:
 342              		.loc 1 250 0
 343              		.cfi_startproc
 344              		@ args = 0, pretend = 0, frame = 0
 345              		@ frame_needed = 0, uses_anonymous_args = 0
 346              		@ link register save eliminated.
 347              	.LVL26:
 348 00f0 0346     		mov	r3, r0
 349              		.loc 1 254 0
 350 00f2 8068     		ldr	r0, [r0, #8]
 351              	.LVL27:
 352              		.loc 1 259 0
 353 00f4 421E     		subs	r2, r0, #1
 354 00f6 002A     		cmp	r2, #0
 355 00f8 9A60     		str	r2, [r3, #8]
 356 00fa 01DB     		blt	.L33
 357              		.loc 1 268 0
 358 00fc 0020     		movs	r0, #0
 359 00fe 7047     		bx	lr
 360              	.L33:
 361              		.loc 1 250 0
 362 0100 10B4     		push	{r4}
 363              		.cfi_def_cfa_offset 4
 364              		.cfi_offset 4, -4
 365              		.loc 1 260 0
 366 0102 61B1     		cbz	r1, .L34
 367              	.LVL28:
 368              	.LBB71:
 369              	.LBB72:
 370              		.loc 1 264 0
 371 0104 094A     		ldr	r2, .L35
 372 0106 9269     		ldr	r2, [r2, #24]
 373 0108 1362     		str	r3, [r2, #32]
 374              	.LVL29:
 375              	.LBB73:
 376              	.LBB74:
 377              		.loc 2 55 0
 378 010a 5C68     		ldr	r4, [r3, #4]
 379              	.LBE74:
 380              	.LBE73:
 381              		.loc 1 266 0
 382 010c 0320     		movs	r0, #3
 383              	.LBB76:
 384              	.LBB75:
 385              		.loc 2 55 0
 386 010e 82E81800 		stmia	r2, {r3, r4}
 387              		.loc 2 56 0
 388 0112 5A60     		str	r2, [r3, #4]
 389 0114 2260     		str	r2, [r4]
 390              	.LBE75:
 391              	.LBE76:
 392              	.LBE72:
ARM GAS  /tmp/ccQZJKRf.s 			page 8


 393              	.LBE71:
 394              		.loc 1 269 0
 395 0116 5DF8044B 		ldr	r4, [sp], #4
 396              		.cfi_remember_state
 397              		.cfi_restore 4
 398              		.cfi_def_cfa_offset 0
 399              	.LBB78:
 400              	.LBB77:
 401              		.loc 1 266 0
 402 011a FFF7FEBF 		b	chSchGoSleepTimeoutS
 403              	.LVL30:
 404              	.L34:
 405              		.cfi_restore_state
 406              	.LBE77:
 407              	.LBE78:
 408              		.loc 1 261 0
 409 011e 9860     		str	r0, [r3, #8]
 410              		.loc 1 269 0
 411 0120 5DF8044B 		ldr	r4, [sp], #4
 412              		.cfi_restore 4
 413              		.cfi_def_cfa_offset 0
 414              		.loc 1 262 0
 415 0124 4FF0FF30 		mov	r0, #-1
 416              		.loc 1 269 0
 417 0128 7047     		bx	lr
 418              	.L36:
 419 012a 00BF     		.align	2
 420              	.L35:
 421 012c 00000000 		.word	rlist
 422              		.cfi_endproc
 423              	.LFE13:
 424              		.size	chSemWaitTimeoutS, .-chSemWaitTimeoutS
 425              		.align	2
 426              		.p2align 4,,15
 427              		.global	chSemWaitTimeout
 428              		.thumb
 429              		.thumb_func
 430              		.type	chSemWaitTimeout, %function
 431              	chSemWaitTimeout:
 432              	.LFB12:
 433              		.loc 1 222 0
 434              		.cfi_startproc
 435              		@ args = 0, pretend = 0, frame = 0
 436              		@ frame_needed = 0, uses_anonymous_args = 0
 437              	.LVL31:
 438 0130 08B5     		push	{r3, lr}
 439              		.cfi_def_cfa_offset 8
 440              		.cfi_offset 3, -8
 441              		.cfi_offset 14, -4
 442              	.LBB79:
 443              		.loc 1 225 0
 444 0132 2023     		movs	r3, #32
 445              	@ 225 "/home/sbcu/Dropbox/pcb-layouts/axo-on-discovery-board/axoloti/platform_linux/../chibios/os/k
 446 0134 83F31188 		msr     BASEPRI, r3
 447              	@ 0 "" 2
 448              		.thumb
 449              	.LBE79:
ARM GAS  /tmp/ccQZJKRf.s 			page 9


 450              		.loc 1 226 0
 451 0138 FFF7FEFF 		bl	chSemWaitTimeoutS
 452              	.LVL32:
 453              	.LBB80:
 454              		.loc 1 227 0
 455 013c 0023     		movs	r3, #0
 456              	@ 227 "/home/sbcu/Dropbox/pcb-layouts/axo-on-discovery-board/axoloti/platform_linux/../chibios/os/k
 457 013e 83F31188 		msr     BASEPRI, r3
 458              	@ 0 "" 2
 459              		.thumb
 460              	.LBE80:
 461              		.loc 1 229 0
 462 0142 08BD     		pop	{r3, pc}
 463              		.cfi_endproc
 464              	.LFE12:
 465              		.size	chSemWaitTimeout, .-chSemWaitTimeout
 466              		.align	2
 467 0144 AFF30080 		.p2align 4,,15
 467      AFF30080 
 467      AFF30080 
 468              		.global	chSemSignal
 469              		.thumb
 470              		.thumb_func
 471              		.type	chSemSignal, %function
 472              	chSemSignal:
 473              	.LFB14:
 474              		.loc 1 278 0
 475              		.cfi_startproc
 476              		@ args = 0, pretend = 0, frame = 0
 477              		@ frame_needed = 0, uses_anonymous_args = 0
 478              	.LVL33:
 479 0150 08B5     		push	{r3, lr}
 480              		.cfi_def_cfa_offset 8
 481              		.cfi_offset 3, -8
 482              		.cfi_offset 14, -4
 483              	.LBB81:
 484              		.loc 1 286 0
 485 0152 2023     		movs	r3, #32
 486              	@ 286 "/home/sbcu/Dropbox/pcb-layouts/axo-on-discovery-board/axoloti/platform_linux/../chibios/os/k
 487 0154 83F31188 		msr     BASEPRI, r3
 488              	@ 0 "" 2
 489              		.thumb
 490              	.LBE81:
 491              		.loc 1 287 0
 492 0158 8368     		ldr	r3, [r0, #8]
 493 015a 0133     		adds	r3, r3, #1
 494 015c 002B     		cmp	r3, #0
 495 015e 8360     		str	r3, [r0, #8]
 496 0160 03DD     		ble	.L42
 497              	.LBB82:
 498              		.loc 1 289 0
 499 0162 0023     		movs	r3, #0
 500              	@ 289 "/home/sbcu/Dropbox/pcb-layouts/axo-on-discovery-board/axoloti/platform_linux/../chibios/os/k
 501 0164 83F31188 		msr     BASEPRI, r3
 502              	@ 0 "" 2
 503              		.thumb
 504 0168 08BD     		pop	{r3, pc}
ARM GAS  /tmp/ccQZJKRf.s 			page 10


 505              	.L42:
 506 016a 0346     		mov	r3, r0
 507              	.LVL34:
 508              	.LBE82:
 509              	.LBB83:
 510              	.LBB84:
 511              		.loc 2 60 0
 512 016c 0068     		ldr	r0, [r0]
 513              	.LVL35:
 514              		.loc 2 62 0
 515 016e 0268     		ldr	r2, [r0]
 516 0170 1A60     		str	r2, [r3]
 517              	.LBE84:
 518              	.LBE83:
 519              		.loc 1 288 0
 520 0172 0021     		movs	r1, #0
 521              	.LBB86:
 522              	.LBB85:
 523              		.loc 2 62 0
 524 0174 5360     		str	r3, [r2, #4]
 525              	.LBE85:
 526              	.LBE86:
 527              		.loc 1 288 0
 528 0176 FFF7FEFF 		bl	chSchWakeupS
 529              	.LVL36:
 530              	.LBB87:
 531              		.loc 1 289 0
 532 017a 0023     		movs	r3, #0
 533              	@ 289 "/home/sbcu/Dropbox/pcb-layouts/axo-on-discovery-board/axoloti/platform_linux/../chibios/os/k
 534 017c 83F31188 		msr     BASEPRI, r3
 535              	@ 0 "" 2
 536              		.thumb
 537 0180 08BD     		pop	{r3, pc}
 538              	.LBE87:
 539              		.cfi_endproc
 540              	.LFE14:
 541              		.size	chSemSignal, .-chSemSignal
 542 0182 00BF     		.align	2
 543 0184 AFF30080 		.p2align 4,,15
 543      AFF30080 
 543      AFF30080 
 544              		.global	chSemSignalI
 545              		.thumb
 546              		.thumb_func
 547              		.type	chSemSignalI, %function
 548              	chSemSignalI:
 549              	.LFB15:
 550              		.loc 1 303 0
 551              		.cfi_startproc
 552              		@ args = 0, pretend = 0, frame = 0
 553              		@ frame_needed = 0, uses_anonymous_args = 0
 554              		@ link register save eliminated.
 555              	.LVL37:
 556              		.loc 1 312 0
 557 0190 8368     		ldr	r3, [r0, #8]
 558 0192 0133     		adds	r3, r3, #1
 559 0194 002B     		cmp	r3, #0
ARM GAS  /tmp/ccQZJKRf.s 			page 11


 560 0196 8360     		str	r3, [r0, #8]
 561 0198 00DD     		ble	.L45
 562 019a 7047     		bx	lr
 563              	.L45:
 564              	.LVL38:
 565              	.LBB88:
 566              	.LBB89:
 567              	.LBB90:
 568              		.loc 2 60 0
 569 019c 0368     		ldr	r3, [r0]
 570              	.LVL39:
 571              		.loc 2 62 0
 572 019e 1A68     		ldr	r2, [r3]
 573 01a0 0260     		str	r2, [r0]
 574              	.LBE90:
 575              	.LBE89:
 576              		.loc 1 316 0
 577 01a2 0021     		movs	r1, #0
 578              	.LBB92:
 579              	.LBB91:
 580              		.loc 2 62 0
 581 01a4 5060     		str	r0, [r2, #4]
 582              	.LBE91:
 583              	.LBE92:
 584              		.loc 1 317 0
 585 01a6 1846     		mov	r0, r3
 586              	.LVL40:
 587              		.loc 1 316 0
 588 01a8 1962     		str	r1, [r3, #32]
 589              		.loc 1 317 0
 590 01aa FFF7FEBF 		b	chSchReadyI
 591              	.LVL41:
 592              	.LBE88:
 593              		.cfi_endproc
 594              	.LFE15:
 595              		.size	chSemSignalI, .-chSemSignalI
 596 01ae 00BF     		.align	2
 597              		.p2align 4,,15
 598              		.global	chSemAddCounterI
 599              		.thumb
 600              		.thumb_func
 601              		.type	chSemAddCounterI, %function
 602              	chSemAddCounterI:
 603              	.LFB16:
 604              		.loc 1 334 0
 605              		.cfi_startproc
 606              		@ args = 0, pretend = 0, frame = 0
 607              		@ frame_needed = 0, uses_anonymous_args = 0
 608              	.LVL42:
 609 01b0 70B5     		push	{r4, r5, r6, lr}
 610              		.cfi_def_cfa_offset 16
 611              		.cfi_offset 4, -16
 612              		.cfi_offset 5, -12
 613              		.cfi_offset 6, -8
 614              		.cfi_offset 14, -4
 615              		.loc 1 343 0
 616 01b2 0C1E     		subs	r4, r1, #0
ARM GAS  /tmp/ccQZJKRf.s 			page 12


 617 01b4 12DD     		ble	.L46
 618 01b6 0546     		mov	r5, r0
 619              		.loc 1 345 0
 620 01b8 0026     		movs	r6, #0
 621 01ba 01E0     		b	.L49
 622              	.LVL43:
 623              	.L48:
 624              		.loc 1 343 0
 625 01bc 013C     		subs	r4, r4, #1
 626              	.LVL44:
 627 01be 0DD0     		beq	.L46
 628              	.LVL45:
 629              	.L49:
 630              		.loc 1 344 0
 631 01c0 AB68     		ldr	r3, [r5, #8]
 632 01c2 0133     		adds	r3, r3, #1
 633 01c4 002B     		cmp	r3, #0
 634 01c6 AB60     		str	r3, [r5, #8]
 635 01c8 F8DC     		bgt	.L48
 636              	.LVL46:
 637              	.LBB93:
 638              	.LBB94:
 639              		.loc 2 60 0
 640 01ca 2868     		ldr	r0, [r5]
 641              	.LVL47:
 642              		.loc 2 62 0
 643 01cc 0368     		ldr	r3, [r0]
 644 01ce 2B60     		str	r3, [r5]
 645 01d0 5D60     		str	r5, [r3, #4]
 646              	.LBE94:
 647              	.LBE93:
 648              		.loc 1 345 0
 649 01d2 FFF7FEFF 		bl	chSchReadyI
 650              	.LVL48:
 651              		.loc 1 343 0
 652 01d6 013C     		subs	r4, r4, #1
 653              	.LVL49:
 654              		.loc 1 345 0
 655 01d8 0662     		str	r6, [r0, #32]
 656              	.LVL50:
 657              		.loc 1 343 0
 658 01da F1D1     		bne	.L49
 659              	.LVL51:
 660              	.L46:
 661 01dc 70BD     		pop	{r4, r5, r6, pc}
 662              		.cfi_endproc
 663              	.LFE16:
 664              		.size	chSemAddCounterI, .-chSemAddCounterI
 665 01de 00BF     		.align	2
 666              		.p2align 4,,15
 667              		.global	chSemSignalWait
 668              		.thumb
 669              		.thumb_func
 670              		.type	chSemSignalWait, %function
 671              	chSemSignalWait:
 672              	.LFB17:
 673              		.loc 1 366 0
ARM GAS  /tmp/ccQZJKRf.s 			page 13


 674              		.cfi_startproc
 675              		@ args = 0, pretend = 0, frame = 8
 676              		@ frame_needed = 0, uses_anonymous_args = 0
 677              	.LVL52:
 678 01e0 10B5     		push	{r4, lr}
 679              		.cfi_def_cfa_offset 8
 680              		.cfi_offset 4, -8
 681              		.cfi_offset 14, -4
 682 01e2 0246     		mov	r2, r0
 683 01e4 82B0     		sub	sp, sp, #8
 684              		.cfi_def_cfa_offset 16
 685              	.LBB95:
 686              		.loc 1 379 0
 687 01e6 2023     		movs	r3, #32
 688              	@ 379 "/home/sbcu/Dropbox/pcb-layouts/axo-on-discovery-board/axoloti/platform_linux/../chibios/os/k
 689 01e8 83F31188 		msr     BASEPRI, r3
 690              	@ 0 "" 2
 691              		.thumb
 692              	.LBE95:
 693              		.loc 1 380 0
 694 01ec 8368     		ldr	r3, [r0, #8]
 695 01ee 0133     		adds	r3, r3, #1
 696 01f0 002B     		cmp	r3, #0
 697 01f2 8360     		str	r3, [r0, #8]
 698 01f4 1DDD     		ble	.L58
 699              	.LVL53:
 700              	.L54:
 701              		.loc 1 382 0
 702 01f6 8B68     		ldr	r3, [r1, #8]
 703 01f8 013B     		subs	r3, r3, #1
 704 01fa 002B     		cmp	r3, #0
 705 01fc 8B60     		str	r3, [r1, #8]
 706 01fe 07DB     		blt	.L59
 707              		.loc 1 390 0
 708 0200 FFF7FEFF 		bl	chSchRescheduleS
 709              	.LVL54:
 710              		.loc 1 391 0
 711 0204 0020     		movs	r0, #0
 712              	.LVL55:
 713              	.LBB96:
 714              		.loc 1 393 0
 715 0206 0023     		movs	r3, #0
 716              	@ 393 "/home/sbcu/Dropbox/pcb-layouts/axo-on-discovery-board/axoloti/platform_linux/../chibios/os/k
 717 0208 83F31188 		msr     BASEPRI, r3
 718              	@ 0 "" 2
 719              		.thumb
 720              	.LBE96:
 721              		.loc 1 395 0
 722 020c 02B0     		add	sp, sp, #8
 723              		.cfi_remember_state
 724              		.cfi_def_cfa_offset 8
 725              		@ sp needed
 726 020e 10BD     		pop	{r4, pc}
 727              	.LVL56:
 728              	.L59:
 729              		.cfi_restore_state
 730              	.LBB97:
ARM GAS  /tmp/ccQZJKRf.s 			page 14


 731              		.loc 1 383 0
 732 0210 0D4A     		ldr	r2, .L60
 733              	.LBB98:
 734              	.LBB99:
 735              		.loc 2 55 0
 736 0212 4B68     		ldr	r3, [r1, #4]
 737              	.LBE99:
 738              	.LBE98:
 739              		.loc 1 383 0
 740 0214 9469     		ldr	r4, [r2, #24]
 741              	.LVL57:
 742              		.loc 1 386 0
 743 0216 0320     		movs	r0, #3
 744              	.LBB101:
 745              	.LBB100:
 746              		.loc 2 55 0
 747 0218 84E80A00 		stmia	r4, {r1, r3}
 748              		.loc 2 56 0
 749 021c 4C60     		str	r4, [r1, #4]
 750 021e 1C60     		str	r4, [r3]
 751              	.LBE100:
 752              	.LBE101:
 753              		.loc 1 385 0
 754 0220 2162     		str	r1, [r4, #32]
 755              		.loc 1 386 0
 756 0222 FFF7FEFF 		bl	chSchGoSleepS
 757              	.LVL58:
 758              		.loc 1 387 0
 759 0226 206A     		ldr	r0, [r4, #32]
 760              	.LVL59:
 761              	.LBE97:
 762              	.LBB102:
 763              		.loc 1 393 0
 764 0228 0023     		movs	r3, #0
 765              	@ 393 "/home/sbcu/Dropbox/pcb-layouts/axo-on-discovery-board/axoloti/platform_linux/../chibios/os/k
 766 022a 83F31188 		msr     BASEPRI, r3
 767              	@ 0 "" 2
 768              		.thumb
 769              	.LBE102:
 770              		.loc 1 395 0
 771 022e 02B0     		add	sp, sp, #8
 772              		.cfi_remember_state
 773              		.cfi_def_cfa_offset 8
 774              		@ sp needed
 775 0230 10BD     		pop	{r4, pc}
 776              	.LVL60:
 777              	.L58:
 778              		.cfi_restore_state
 779              	.LBB103:
 780              	.LBB104:
 781              		.loc 2 60 0
 782 0232 0068     		ldr	r0, [r0]
 783              	.LVL61:
 784 0234 0191     		str	r1, [sp, #4]
 785              	.LVL62:
 786              		.loc 2 62 0
 787 0236 0368     		ldr	r3, [r0]
ARM GAS  /tmp/ccQZJKRf.s 			page 15


 788 0238 1360     		str	r3, [r2]
 789 023a 5A60     		str	r2, [r3, #4]
 790              	.LBE104:
 791              	.LBE103:
 792              		.loc 1 381 0
 793 023c FFF7FEFF 		bl	chSchReadyI
 794              	.LVL63:
 795 0240 0023     		movs	r3, #0
 796 0242 0362     		str	r3, [r0, #32]
 797 0244 0199     		ldr	r1, [sp, #4]
 798 0246 D6E7     		b	.L54
 799              	.L61:
 800              		.align	2
 801              	.L60:
 802 0248 00000000 		.word	rlist
 803              		.cfi_endproc
 804              	.LFE17:
 805              		.size	chSemSignalWait, .-chSemSignalWait
 806              	.Letext0:
 807              		.file 3 "/home/sbcu/Dropbox/pcb-layouts/axo-on-discovery-board/axoloti/platform_linux/arm-none-eab
 808              		.file 4 "/home/sbcu/Dropbox/pcb-layouts/axo-on-discovery-board/axoloti/platform_linux/arm-none-eab
 809              		.file 5 "/home/sbcu/Dropbox/pcb-layouts/axo-on-discovery-board/axoloti/platform_linux/../chibios/o
 810              		.file 6 "/home/sbcu/Dropbox/pcb-layouts/axo-on-discovery-board/axoloti/platform_linux/../chibios/o
 811              		.file 7 "/home/sbcu/Dropbox/pcb-layouts/axo-on-discovery-board/axoloti/platform_linux/../chibios/o
 812              		.file 8 "/home/sbcu/Dropbox/pcb-layouts/axo-on-discovery-board/axoloti/platform_linux/../chibios/o
 813              		.file 9 "/home/sbcu/Dropbox/pcb-layouts/axo-on-discovery-board/axoloti/platform_linux/../chibios/o
 814              		.file 10 "/home/sbcu/Dropbox/pcb-layouts/axo-on-discovery-board/axoloti/platform_linux/../chibios/
 815              		.file 11 "/home/sbcu/Dropbox/pcb-layouts/axo-on-discovery-board/axoloti/platform_linux/../chibios/