ARM GAS  /tmp/cckJNi2V.s 			page 1


   1              		.syntax unified
   2              		.cpu cortex-m4
   3              		.eabi_attribute 27, 1
   4              		.eabi_attribute 28, 1
   5              		.fpu fpv4-sp-d16
   6              		.eabi_attribute 20, 1
   7              		.eabi_attribute 21, 1
   8              		.eabi_attribute 23, 3
   9              		.eabi_attribute 24, 1
  10              		.eabi_attribute 25, 1
  11              		.eabi_attribute 26, 1
  12              		.eabi_attribute 30, 2
  13              		.eabi_attribute 34, 1
  14              		.eabi_attribute 18, 4
  15              		.thumb
  16              		.file	"chsys.c"
  17              		.text
  18              	.Ltext0:
  19              		.cfi_sections	.debug_frame
  20              		.align	2
  21              		.p2align 4,,15
  22              		.global	_idle_thread
  23              		.thumb
  24              		.thumb_func
  25              		.type	_idle_thread, %function
  26              	_idle_thread:
  27              	.LFB7:
  28              		.file 1 "/home/sbcu/Dropbox/pcb-layouts/axo-on-discovery-board/axoloti/platform_linux/../chibios/o
  29              		.loc 1 61 0
  30              		.cfi_startproc
  31              		@ Volatile: function does not return.
  32              		@ args = 0, pretend = 0, frame = 0
  33              		@ frame_needed = 0, uses_anonymous_args = 0
  34              		@ link register save eliminated.
  35              	.LVL0:
  36              		.loc 1 64 0
  37 0000 024B     		ldr	r3, .L4
  38 0002 034A     		ldr	r2, .L4+4
  39 0004 9B69     		ldr	r3, [r3, #24]
  40 0006 9A61     		str	r2, [r3, #24]
  41              	.L2:
  42              		.loc 1 68 0 discriminator 1
  43 0008 FEE7     		b	.L2
  44              	.L5:
  45 000a 00BF     		.align	2
  46              	.L4:
  47 000c 00000000 		.word	rlist
  48 0010 00000000 		.word	.LC0
  49              		.cfi_endproc
  50              	.LFE7:
  51              		.size	_idle_thread, .-_idle_thread
  52              		.align	2
  53 0014 AFF30080 		.p2align 4,,15
  53      AFF30080 
  53      AFF30080 
  54              		.global	chSysInit
  55              		.thumb
ARM GAS  /tmp/cckJNi2V.s 			page 2


  56              		.thumb_func
  57              		.type	chSysInit, %function
  58              	chSysInit:
  59              	.LFB8:
  60              		.loc 1 84 0
  61              		.cfi_startproc
  62              		@ args = 0, pretend = 0, frame = 0
  63              		@ frame_needed = 0, uses_anonymous_args = 0
  64 0020 00B5     		push	{lr}
  65              		.cfi_def_cfa_offset 4
  66              		.cfi_offset 14, -4
  67 0022 83B0     		sub	sp, sp, #12
  68              		.cfi_def_cfa_offset 16
  69              		.loc 1 90 0
  70 0024 FFF7FEFF 		bl	_port_init
  71              	.LVL1:
  72              		.loc 1 91 0
  73 0028 FFF7FEFF 		bl	_scheduler_init
  74              	.LVL2:
  75              		.loc 1 92 0
  76 002c FFF7FEFF 		bl	_vt_init
  77              	.LVL3:
  78              		.loc 1 94 0
  79 0030 FFF7FEFF 		bl	_core_init
  80              	.LVL4:
  81              		.loc 1 97 0
  82 0034 FFF7FEFF 		bl	_heap_init
  83              	.LVL5:
  84              		.loc 1 104 0
  85 0038 4021     		movs	r1, #64
  86 003a 0C48     		ldr	r0, .L8
  87 003c FFF7FEFF 		bl	_thread_init
  88              	.LVL6:
  89 0040 0B49     		ldr	r1, .L8+4
  90              		.loc 1 105 0
  91 0042 0122     		movs	r2, #1
  92              		.loc 1 104 0
  93 0044 8861     		str	r0, [r1, #24]
  94              		.loc 1 105 0
  95 0046 0277     		strb	r2, [r0, #28]
  96              	.LBB2:
  97              		.loc 1 111 0
  98 0048 0023     		movs	r3, #0
  99              	@ 111 "/home/sbcu/Dropbox/pcb-layouts/axo-on-discovery-board/axoloti/platform_linux/../chibios/os/k
 100 004a 83F31188 		msr     BASEPRI, r3                    
 101 004e 62B6     		cpsie   i
 102              	@ 0 "" 2
 103              		.thumb
 104              	.LBE2:
 105              		.loc 1 115 0
 106 0050 8969     		ldr	r1, [r1, #24]
 107 0052 0848     		ldr	r0, .L8+8
 108 0054 8861     		str	r0, [r1, #24]
 109              		.loc 1 121 0
 110 0056 0093     		str	r3, [sp]
 111 0058 4FF4B071 		mov	r1, #352
 112 005c 064B     		ldr	r3, .L8+12
ARM GAS  /tmp/cckJNi2V.s 			page 3


 113 005e 0748     		ldr	r0, .L8+16
 114 0060 FFF7FEFF 		bl	chThdCreateStatic
 115              	.LVL7:
 116              		.loc 1 124 0
 117 0064 03B0     		add	sp, sp, #12
 118              		.cfi_def_cfa_offset 4
 119              		@ sp needed
 120 0066 5DF804FB 		ldr	pc, [sp], #4
 121              	.L9:
 122 006a 00BF     		.align	2
 123              	.L8:
 124 006c 00000000 		.word	.LANCHOR0
 125 0070 00000000 		.word	rlist
 126 0074 00000000 		.word	ch_debug
 127 0078 00000000 		.word	_idle_thread
 128 007c 00000000 		.word	_idle_thread_wa
 129              		.cfi_endproc
 130              	.LFE8:
 131              		.size	chSysInit, .-chSysInit
 132              		.align	2
 133              		.p2align 4,,15
 134              		.global	chSysTimerHandlerI
 135              		.thumb
 136              		.thumb_func
 137              		.type	chSysTimerHandlerI, %function
 138              	chSysTimerHandlerI:
 139              	.LFB9:
 140              		.loc 1 137 0
 141              		.cfi_startproc
 142              		@ args = 0, pretend = 0, frame = 0
 143              		@ frame_needed = 0, uses_anonymous_args = 0
 144 0080 70B5     		push	{r4, r5, r6, lr}
 145              		.cfi_def_cfa_offset 16
 146              		.cfi_offset 4, -16
 147              		.cfi_offset 5, -12
 148              		.cfi_offset 6, -8
 149              		.cfi_offset 14, -4
 150              		.loc 1 143 0
 151 0082 114B     		ldr	r3, .L21
 152 0084 9A69     		ldr	r2, [r3, #24]
 153 0086 937F     		ldrb	r3, [r2, #30]	@ zero_extendqisi2
 154 0088 0BB1     		cbz	r3, .L11
 155              		.loc 1 145 0
 156 008a 013B     		subs	r3, r3, #1
 157 008c 9377     		strb	r3, [r2, #30]
 158              	.L11:
 159              		.loc 1 150 0
 160 008e 0F4C     		ldr	r4, .L21+4
 161 0090 E368     		ldr	r3, [r4, #12]
 162 0092 2268     		ldr	r2, [r4]
 163 0094 0133     		adds	r3, r3, #1
 164 0096 A242     		cmp	r2, r4
 165 0098 E360     		str	r3, [r4, #12]
 166 009a 14D0     		beq	.L10
 167              	.LBB3:
 168              		.loc 1 150 0 is_stmt 0 discriminator 1
 169 009c 9668     		ldr	r6, [r2, #8]
ARM GAS  /tmp/cckJNi2V.s 			page 4


 170 009e 013E     		subs	r6, r6, #1
 171 00a0 9660     		str	r6, [r2, #8]
 172              	.LVL8:
 173 00a2 86B9     		cbnz	r6, .L10
 174              	.L14:
 175              	.LBB4:
 176              		.loc 1 150 0 discriminator 4
 177 00a4 1168     		ldr	r1, [r2]
 178 00a6 D568     		ldr	r5, [r2, #12]
 179              	.LVL9:
 180 00a8 2160     		str	r1, [r4]
 181 00aa D660     		str	r6, [r2, #12]
 182              	.LBB5:
 183 00ac 0023     		movs	r3, #0
 184              	.LBE5:
 185 00ae 4C60     		str	r4, [r1, #4]
 186              	.LBB6:
 187              	@ 150 "/home/sbcu/Dropbox/pcb-layouts/axo-on-discovery-board/axoloti/platform_linux/../chibios/os/k
 188 00b0 83F31188 		msr     BASEPRI, r3
 189              	@ 0 "" 2
 190              		.thumb
 191              	.LBE6:
 192 00b4 1069     		ldr	r0, [r2, #16]
 193 00b6 A847     		blx	r5
 194              	.LVL10:
 195              	.LBB7:
 196 00b8 2023     		movs	r3, #32
 197              	@ 150 "/home/sbcu/Dropbox/pcb-layouts/axo-on-discovery-board/axoloti/platform_linux/../chibios/os/k
 198 00ba 83F31188 		msr     BASEPRI, r3
 199              	@ 0 "" 2
 200              		.thumb
 201              	.LBE7:
 202              	.LBE4:
 203 00be 2268     		ldr	r2, [r4]
 204              	.LVL11:
 205 00c0 9368     		ldr	r3, [r2, #8]
 206 00c2 002B     		cmp	r3, #0
 207 00c4 EED0     		beq	.L14
 208              	.LVL12:
 209              	.L10:
 210 00c6 70BD     		pop	{r4, r5, r6, pc}
 211              	.L22:
 212              		.align	2
 213              	.L21:
 214 00c8 00000000 		.word	rlist
 215 00cc 00000000 		.word	vtlist
 216              	.LBE3:
 217              		.cfi_endproc
 218              	.LFE9:
 219              		.size	chSysTimerHandlerI, .-chSysTimerHandlerI
 220              		.comm	_idle_thread_wa,352,8
 221              		.section	.rodata.str1.4,"aMS",%progbits,1
 222              		.align	2
 223              	.LC0:
 224 0000 69646C65 		.ascii	"idle\000"
 224      00
 225              		.bss
ARM GAS  /tmp/cckJNi2V.s 			page 5


 226              		.align	2
 227              		.set	.LANCHOR0,. + 0
 228              		.type	mainthread.4737, %object
 229              		.size	mainthread.4737, 64
 230              	mainthread.4737:
 231 0000 00000000 		.space	64
 231      00000000 
 231      00000000 
 231      00000000 
 231      00000000 
 232              		.text
 233              	.Letext0:
 234              		.file 2 "/home/sbcu/Dropbox/pcb-layouts/axo-on-discovery-board/axoloti/platform_linux/lib/gcc/arm-
 235              		.file 3 "/home/sbcu/Dropbox/pcb-layouts/axo-on-discovery-board/axoloti/platform_linux/arm-none-eab
 236              		.file 4 "/home/sbcu/Dropbox/pcb-layouts/axo-on-discovery-board/axoloti/platform_linux/arm-none-eab
 237              		.file 5 "/home/sbcu/Dropbox/pcb-layouts/axo-on-discovery-board/axoloti/platform_linux/../chibios/o
 238              		.file 6 "/home/sbcu/Dropbox/pcb-layouts/axo-on-discovery-board/axoloti/platform_linux/../chibios/o
 239              		.file 7 "/home/sbcu/Dropbox/pcb-layouts/axo-on-discovery-board/axoloti/platform_linux/../chibios/o
 240              		.file 8 "/home/sbcu/Dropbox/pcb-layouts/axo-on-discovery-board/axoloti/platform_linux/../chibios/o
 241              		.file 9 "/home/sbcu/Dropbox/pcb-layouts/axo-on-discovery-board/axoloti/platform_linux/../chibios/o
 242              		.file 10 "/home/sbcu/Dropbox/pcb-layouts/axo-on-discovery-board/axoloti/platform_linux/../chibios/
 243              		.file 11 "/home/sbcu/Dropbox/pcb-layouts/axo-on-discovery-board/axoloti/platform_linux/../chibios/
 244              		.file 12 "/home/sbcu/Dropbox/pcb-layouts/axo-on-discovery-board/axoloti/platform_linux/../chibios/
 245              		.file 13 "/home/sbcu/Dropbox/pcb-layouts/axo-on-discovery-board/axoloti/platform_linux/../chibios/
 246              		.file 14 "/home/sbcu/Dropbox/pcb-layouts/axo-on-discovery-board/axoloti/platform_linux/../chibios/