ARM GAS  /tmp/ccHVbZYN.s 			page 1


   1              		.syntax unified
   2              		.cpu cortex-m4
   3              		.eabi_attribute 27, 1
   4              		.eabi_attribute 28, 1
   5              		.fpu fpv4-sp-d16
   6              		.eabi_attribute 20, 1
   7              		.eabi_attribute 21, 1
   8              		.eabi_attribute 23, 3
   9              		.eabi_attribute 24, 1
  10              		.eabi_attribute 25, 1
  11              		.eabi_attribute 26, 1
  12              		.eabi_attribute 30, 2
  13              		.eabi_attribute 34, 1
  14              		.eabi_attribute 18, 4
  15              		.thumb
  16              		.file	"chvt.c"
  17              		.text
  18              	.Ltext0:
  19              		.cfi_sections	.debug_frame
  20              		.align	2
  21              		.p2align 4,,15
  22              		.global	_vt_init
  23              		.thumb
  24              		.thumb_func
  25              		.type	_vt_init, %function
  26              	_vt_init:
  27              	.LFB7:
  28              		.file 1 "/d_drive/axoloti/platform_linux/../chibios/os/kernel/src/chvt.c"
  29              		.loc 1 50 0
  30              		.cfi_startproc
  31              		@ args = 0, pretend = 0, frame = 0
  32              		@ frame_needed = 0, uses_anonymous_args = 0
  33              		@ link register save eliminated.
  34              		.loc 1 52 0
  35 0000 044B     		ldr	r3, .L2
  36              		.loc 1 53 0
  37 0002 4FF0FF31 		mov	r1, #-1
  38              		.loc 1 54 0
  39 0006 0022     		movs	r2, #0
  40              		.loc 1 52 0
  41 0008 5B60     		str	r3, [r3, #4]
  42 000a 1B60     		str	r3, [r3]
  43              		.loc 1 53 0
  44 000c 9960     		str	r1, [r3, #8]
  45              		.loc 1 54 0
  46 000e DA60     		str	r2, [r3, #12]
  47 0010 7047     		bx	lr
  48              	.L3:
  49 0012 00BF     		.align	2
  50              	.L2:
  51 0014 00000000 		.word	vtlist
  52              		.cfi_endproc
  53              	.LFE7:
  54              		.size	_vt_init, .-_vt_init
  55              		.align	2
  56 0018 AFF30080 		.p2align 4,,15
  56      AFF30080 
ARM GAS  /tmp/ccHVbZYN.s 			page 2


  57              		.global	chVTSetI
  58              		.thumb
  59              		.thumb_func
  60              		.type	chVTSetI, %function
  61              	chVTSetI:
  62              	.LFB8:
  63              		.loc 1 76 0
  64              		.cfi_startproc
  65              		@ args = 0, pretend = 0, frame = 0
  66              		@ frame_needed = 0, uses_anonymous_args = 0
  67              		@ link register save eliminated.
  68              	.LVL0:
  69 0020 70B4     		push	{r4, r5, r6}
  70              		.cfi_def_cfa_offset 12
  71              		.cfi_offset 4, -12
  72              		.cfi_offset 5, -8
  73              		.cfi_offset 6, -4
  74              		.loc 1 85 0
  75 0022 0C4E     		ldr	r6, .L11
  76 0024 3468     		ldr	r4, [r6]
  77              	.LVL1:
  78              		.loc 1 86 0
  79 0026 A568     		ldr	r5, [r4, #8]
  80              		.loc 1 83 0
  81 0028 0361     		str	r3, [r0, #16]
  82              		.loc 1 86 0
  83 002a A942     		cmp	r1, r5
  84              		.loc 1 84 0
  85 002c C260     		str	r2, [r0, #12]
  86              		.loc 1 86 0
  87 002e 04D9     		bls	.L5
  88              	.L6:
  89              		.loc 1 88 0
  90 0030 2468     		ldr	r4, [r4]
  91              	.LVL2:
  92              		.loc 1 87 0
  93 0032 491B     		subs	r1, r1, r5
  94              	.LVL3:
  95              		.loc 1 86 0
  96 0034 A568     		ldr	r5, [r4, #8]
  97 0036 8D42     		cmp	r5, r1
  98 0038 FAD3     		bcc	.L6
  99              	.L5:
 100              		.loc 1 91 0
 101 003a 6368     		ldr	r3, [r4, #4]
 102              	.LVL4:
 103 003c 4360     		str	r3, [r0, #4]
 104              		.loc 1 94 0
 105 003e B442     		cmp	r4, r6
 106              		.loc 1 91 0
 107 0040 0460     		str	r4, [r0]
 108              		.loc 1 92 0
 109 0042 6060     		str	r0, [r4, #4]
 110 0044 1860     		str	r0, [r3]
 111              		.loc 1 93 0
 112 0046 8160     		str	r1, [r0, #8]
 113              		.loc 1 94 0
ARM GAS  /tmp/ccHVbZYN.s 			page 3


 114 0048 02D0     		beq	.L4
 115              		.loc 1 95 0
 116 004a A368     		ldr	r3, [r4, #8]
 117 004c 591A     		subs	r1, r3, r1
 118              	.LVL5:
 119 004e A160     		str	r1, [r4, #8]
 120              	.LVL6:
 121              	.L4:
 122              		.loc 1 96 0
 123 0050 70BC     		pop	{r4, r5, r6}
 124              		.cfi_restore 6
 125              		.cfi_restore 5
 126              		.cfi_restore 4
 127              		.cfi_def_cfa_offset 0
 128              	.LVL7:
 129 0052 7047     		bx	lr
 130              	.L12:
 131              		.align	2
 132              	.L11:
 133 0054 00000000 		.word	vtlist
 134              		.cfi_endproc
 135              	.LFE8:
 136              		.size	chVTSetI, .-chVTSetI
 137              		.align	2
 138 0058 AFF30080 		.p2align 4,,15
 138      AFF30080 
 139              		.global	chVTResetI
 140              		.thumb
 141              		.thumb_func
 142              		.type	chVTResetI, %function
 143              	chVTResetI:
 144              	.LFB9:
 145              		.loc 1 106 0
 146              		.cfi_startproc
 147              		@ args = 0, pretend = 0, frame = 0
 148              		@ frame_needed = 0, uses_anonymous_args = 0
 149              		@ link register save eliminated.
 150              	.LVL8:
 151              		.loc 1 114 0
 152 0060 074A     		ldr	r2, .L15
 153 0062 0368     		ldr	r3, [r0]
 154 0064 9342     		cmp	r3, r2
 155 0066 03D0     		beq	.L14
 156              		.loc 1 115 0
 157 0068 9968     		ldr	r1, [r3, #8]
 158 006a 8268     		ldr	r2, [r0, #8]
 159 006c 0A44     		add	r2, r2, r1
 160 006e 9A60     		str	r2, [r3, #8]
 161              	.L14:
 162              		.loc 1 116 0
 163 0070 4268     		ldr	r2, [r0, #4]
 164 0072 1360     		str	r3, [r2]
 165              		.loc 1 117 0
 166 0074 0168     		ldr	r1, [r0]
 167              		.loc 1 118 0
 168 0076 0023     		movs	r3, #0
 169              		.loc 1 117 0
ARM GAS  /tmp/ccHVbZYN.s 			page 4


 170 0078 4A60     		str	r2, [r1, #4]
 171              		.loc 1 118 0
 172 007a C360     		str	r3, [r0, #12]
 173 007c 7047     		bx	lr
 174              	.L16:
 175 007e 00BF     		.align	2
 176              	.L15:
 177 0080 00000000 		.word	vtlist
 178              		.cfi_endproc
 179              	.LFE9:
 180              		.size	chVTResetI, .-chVTResetI
 181              		.comm	vtlist,16,4
 182              	.Letext0:
 183              		.file 2 "/d_drive/axoloti/platform_linux/arm-none-eabi/include/machine/_default_types.h"
 184              		.file 3 "/d_drive/axoloti/platform_linux/arm-none-eabi/include/sys/_stdint.h"
 185              		.file 4 "/d_drive/axoloti/platform_linux/../chibios/os/ports/GCC/ARMCMx/chtypes.h"
 186              		.file 5 "/d_drive/axoloti/platform_linux/../chibios/os/kernel/include/chvt.h"