ARM GAS  /tmp/ccg0r710.s 			page 1


   1              		.syntax unified
   2              		.cpu cortex-m4
   3              		.eabi_attribute 27, 1
   4              		.eabi_attribute 28, 1
   5              		.fpu fpv4-sp-d16
   6              		.eabi_attribute 20, 1
   7              		.eabi_attribute 21, 1
   8              		.eabi_attribute 23, 3
   9              		.eabi_attribute 24, 1
  10              		.eabi_attribute 25, 1
  11              		.eabi_attribute 26, 1
  12              		.eabi_attribute 30, 2
  13              		.eabi_attribute 34, 1
  14              		.eabi_attribute 18, 4
  15              		.thumb
  16              		.file	"codec.c"
  17              		.text
  18              	.Ltext0:
  19              		.cfi_sections	.debug_frame
  20              		.align	2
  21              		.p2align 4,,15
  22              		.thumb
  23              		.thumb_func
  24              		.type	dma_i2s_interrupt, %function
  25              	dma_i2s_interrupt:
  26              	.LFB135:
  27              		.file 1 "codec_WM8731.c"
  28              		.loc 1 44 0
  29              		.cfi_startproc
  30              		@ args = 0, pretend = 0, frame = 0
  31              		@ frame_needed = 0, uses_anonymous_args = 0
  32              	.LVL0:
  33 0000 10B5     		push	{r4, lr}
  34              		.cfi_def_cfa_offset 8
  35              		.cfi_offset 4, -8
  36              		.cfi_offset 14, -4
  37              		.loc 1 49 0
  38 0002 094C     		ldr	r4, .L5
  39 0004 2368     		ldr	r3, [r4]
  40 0006 1B68     		ldr	r3, [r3]
  41 0008 1B68     		ldr	r3, [r3]
  42 000a 1B03     		lsls	r3, r3, #12
  43              		.loc 1 50 0
  44 000c 4CBF     		ite	mi
  45 000e 0748     		ldrmi	r0, .L5+4
  46              	.LVL1:
  47              		.loc 1 52 0
  48 0010 0748     		ldrpl	r0, .L5+8
  49 0012 00F18001 		add	r1, r0, #128
  50              	.LVL2:
  51 0016 FFF7FEFF 		bl	computebufI
  52              	.LVL3:
  53              		.loc 1 54 0
  54 001a 2368     		ldr	r3, [r4]
  55 001c 197A     		ldrb	r1, [r3, #8]	@ zero_extendqisi2
  56 001e 5A68     		ldr	r2, [r3, #4]
  57 0020 3D23     		movs	r3, #61
ARM GAS  /tmp/ccg0r710.s 			page 2


  58 0022 8B40     		lsls	r3, r3, r1
  59 0024 1360     		str	r3, [r2]
  60 0026 10BD     		pop	{r4, pc}
  61              	.L6:
  62              		.align	2
  63              	.L5:
  64 0028 00000000 		.word	i2sdmaWM
  65 002c 00000000 		.word	.LANCHOR0
  66 0030 00010000 		.word	.LANCHOR0+256
  67              		.cfi_endproc
  68              	.LFE135:
  69              		.size	dma_i2s_interrupt, .-dma_i2s_interrupt
  70              		.align	2
  71 0034 AFF30080 		.p2align 4,,15
  71      AFF30080 
  71      AFF30080 
  72              		.global	codecStop
  73              		.thumb
  74              		.thumb_func
  75              		.type	codecStop, %function
  76              	codecStop:
  77              	.LFB131:
  78              		.file 2 "codec.c"
  79              		.loc 2 60 0
  80              		.cfi_startproc
  81              		@ args = 0, pretend = 0, frame = 0
  82              		@ frame_needed = 0, uses_anonymous_args = 0
  83              		@ link register save eliminated.
  84 0040 7047     		bx	lr
  85              		.cfi_endproc
  86              	.LFE131:
  87              		.size	codecStop, .-codecStop
  88 0042 00BF     		.align	2
  89 0044 AFF30080 		.p2align 4,,15
  89      AFF30080 
  89      AFF30080 
  90              		.global	codec_clearbuffer
  91              		.thumb
  92              		.thumb_func
  93              		.type	codec_clearbuffer, %function
  94              	codec_clearbuffer:
  95              	.LFB132:
  96              		.loc 2 63 0
  97              		.cfi_startproc
  98              		@ args = 0, pretend = 0, frame = 0
  99              		@ frame_needed = 0, uses_anonymous_args = 0
 100              		@ link register save eliminated.
 101              	.LVL4:
 102 0050 064B     		ldr	r3, .L12
 103              		.loc 2 66 0
 104 0052 0021     		movs	r1, #0
 105 0054 03F58072 		add	r2, r3, #256
 106 0058 03F18000 		add	r0, r3, #128
 107              	.LVL5:
 108              	.L9:
 109              		.loc 2 66 0 is_stmt 0 discriminator 3
 110 005c 43F8041F 		str	r1, [r3, #4]!
ARM GAS  /tmp/ccg0r710.s 			page 3


 111              		.loc 2 65 0 is_stmt 1 discriminator 3
 112 0060 8342     		cmp	r3, r0
 113              		.loc 2 67 0 discriminator 3
 114 0062 42F8041F 		str	r1, [r2, #4]!
 115              		.loc 2 65 0 discriminator 3
 116 0066 F9D1     		bne	.L9
 117              		.loc 2 69 0
 118 0068 7047     		bx	lr
 119              	.L13:
 120 006a 00BF     		.align	2
 121              	.L12:
 122 006c 7C000000 		.word	.LANCHOR0+124
 123              		.cfi_endproc
 124              	.LFE132:
 125              		.size	codec_clearbuffer, .-codec_clearbuffer
 126              		.align	2
 127              		.p2align 4,,15
 128              		.global	codec_WM8731_i2s_init_48k
 129              		.thumb
 130              		.thumb_func
 131              		.type	codec_WM8731_i2s_init_48k, %function
 132              	codec_WM8731_i2s_init_48k:
 133              	.LFB137:
 134              		.loc 1 77 0
 135              		.cfi_startproc
 136              		@ args = 0, pretend = 0, frame = 0
 137              		@ frame_needed = 0, uses_anonymous_args = 0
 138 0070 2DE9F041 		push	{r4, r5, r6, r7, r8, lr}
 139              		.cfi_def_cfa_offset 24
 140              		.cfi_offset 4, -24
 141              		.cfi_offset 5, -20
 142              		.cfi_offset 6, -16
 143              		.cfi_offset 7, -12
 144              		.cfi_offset 8, -8
 145              		.cfi_offset 14, -4
 146              		.loc 1 81 0
 147 0074 304D     		ldr	r5, .L16
 148              		.loc 1 96 0
 149 0076 314C     		ldr	r4, .L16+4
 150              	.LBB4:
 151              	.LBB5:
 152              		.loc 1 61 0
 153 0078 314E     		ldr	r6, .L16+8
 154              		.loc 1 59 0
 155 007a 324F     		ldr	r7, .L16+12
 156              	.LBE5:
 157              	.LBE4:
 158              		.loc 1 81 0
 159 007c 2846     		mov	r0, r5
 160 007e 4FF48051 		mov	r1, #4096
 161 0082 40F28222 		movw	r2, #642
 162 0086 FFF7FEFF 		bl	_pal_lld_setgroupmode
 163              	.LVL6:
 164              		.loc 1 84 0
 165 008a 2846     		mov	r0, r5
 166 008c 4FF40051 		mov	r1, #8192
 167 0090 40F28222 		movw	r2, #642
ARM GAS  /tmp/ccg0r710.s 			page 4


 168 0094 FFF7FEFF 		bl	_pal_lld_setgroupmode
 169              	.LVL7:
 170              		.loc 1 86 0
 171 0098 2846     		mov	r0, r5
 172 009a 4FF48041 		mov	r1, #16384
 173 009e 40F28222 		movw	r2, #642
 174 00a2 FFF7FEFF 		bl	_pal_lld_setgroupmode
 175              	.LVL8:
 176              		.loc 1 89 0
 177 00a6 2846     		mov	r0, r5
 178 00a8 4FF40041 		mov	r1, #32768
 179 00ac 40F28222 		movw	r2, #642
 180 00b0 FFF7FEFF 		bl	_pal_lld_setgroupmode
 181              	.LVL9:
 182              		.loc 1 92 0
 183 00b4 2448     		ldr	r0, .L16+16
 184              	.LBB12:
 185              	.LBB6:
 186              		.loc 1 59 0
 187 00b6 254D     		ldr	r5, .L16+20
 188              	.LBE6:
 189              	.LBE12:
 190              		.loc 1 92 0
 191 00b8 4021     		movs	r1, #64
 192 00ba 40F28222 		movw	r2, #642
 193 00be FFF7FEFF 		bl	_pal_lld_setgroupmode
 194              	.LVL10:
 195              		.loc 1 95 0
 196 00c2 2348     		ldr	r0, .L16+24
 197              	.LBB13:
 198              	.LBB7:
 199              		.loc 1 61 0
 200 00c4 DFF89CE0 		ldr	lr, .L16+44
 201              	.LBE7:
 202              	.LBE13:
 203              		.loc 1 95 0
 204 00c8 016C     		ldr	r1, [r0, #64]
 205              	.LBB14:
 206              	.LBB8:
 207              		.loc 1 63 0
 208 00ca 224A     		ldr	r2, .L16+28
 209 00cc 224B     		ldr	r3, .L16+32
 210              	.LBE8:
 211              	.LBE14:
 212              		.loc 1 95 0
 213 00ce 41F48041 		orr	r1, r1, #16384
 214              		.loc 1 98 0
 215 00d2 40F2033C 		movw	ip, #771
 216              		.loc 1 96 0
 217 00d6 40F60428 		movw	r8, #2564
 218              		.loc 1 95 0
 219 00da 0164     		str	r1, [r0, #64]
 220              		.loc 1 96 0
 221 00dc A4F81C80 		strh	r8, [r4, #28]	@ movhi
 222              	.LBB15:
 223              	.LBB9:
 224              		.loc 1 63 0
ARM GAS  /tmp/ccg0r710.s 			page 5


 225 00e0 2846     		mov	r0, r5
 226              	.LBE9:
 227              	.LBE15:
 228              		.loc 1 98 0
 229 00e2 A4F820C0 		strh	ip, [r4, #32]	@ movhi
 230              	.LBB16:
 231              	.LBB10:
 232              		.loc 1 63 0
 233 00e6 0221     		movs	r1, #2
 234              		.loc 1 59 0
 235 00e8 3D60     		str	r5, [r7]
 236              		.loc 1 61 0
 237 00ea C6F800E0 		str	lr, [r6]
 238              		.loc 1 63 0
 239 00ee FFF7FEFF 		bl	dmaStreamAllocate
 240              	.LVL11:
 241              		.loc 1 65 0
 242 00f2 3968     		ldr	r1, [r7]
 243              		.loc 1 69 0
 244 00f4 3068     		ldr	r0, [r6]
 245              		.loc 1 65 0
 246 00f6 0B68     		ldr	r3, [r1]
 247              		.loc 1 66 0
 248 00f8 184A     		ldr	r2, .L16+36
 249              		.loc 1 65 0
 250 00fa 194D     		ldr	r5, .L16+40
 251 00fc 9D60     		str	r5, [r3, #8]
 252              		.loc 1 69 0
 253 00fe 40F48060 		orr	r0, r0, #1024
 254              		.loc 1 66 0
 255 0102 02F18006 		add	r6, r2, #128
 256              		.loc 1 68 0
 257 0106 4025     		movs	r5, #64
 258              		.loc 1 67 0
 259 0108 02F5C072 		add	r2, r2, #384
 260              		.loc 1 66 0
 261 010c DE60     		str	r6, [r3, #12]
 262              		.loc 1 67 0
 263 010e 1A61     		str	r2, [r3, #16]
 264              		.loc 1 68 0
 265 0110 5D60     		str	r5, [r3, #4]
 266              		.loc 1 69 0
 267 0112 1860     		str	r0, [r3]
 268              		.loc 1 73 0
 269 0114 087A     		ldrb	r0, [r1, #8]	@ zero_extendqisi2
 270 0116 4968     		ldr	r1, [r1, #4]
 271 0118 3D22     		movs	r2, #61
 272 011a 8240     		lsls	r2, r2, r0
 273 011c 0A60     		str	r2, [r1]
 274              		.loc 1 74 0
 275 011e 1A68     		ldr	r2, [r3]
 276              	.LBE10:
 277              	.LBE16:
 278              		.loc 1 100 0
 279 0120 0221     		movs	r1, #2
 280              	.LBB17:
 281              	.LBB11:
ARM GAS  /tmp/ccg0r710.s 			page 6


 282              		.loc 1 74 0
 283 0122 42F00102 		orr	r2, r2, #1
 284 0126 1A60     		str	r2, [r3]
 285              	.LBE11:
 286              	.LBE17:
 287              		.loc 1 100 0
 288 0128 A180     		strh	r1, [r4, #4]	@ movhi
 289              		.loc 1 101 0
 290 012a A38B     		ldrh	r3, [r4, #28]
 291 012c 9BB2     		uxth	r3, r3
 292 012e 43F48063 		orr	r3, r3, #1024
 293 0132 A383     		strh	r3, [r4, #28]	@ movhi
 294 0134 BDE8F081 		pop	{r4, r5, r6, r7, r8, pc}
 295              	.L17:
 296              		.align	2
 297              	.L16:
 298 0138 00040240 		.word	1073873920
 299 013c 00380040 		.word	1073756160
 300 0140 00000000 		.word	.LANCHOR1
 301 0144 00000000 		.word	i2sdmaWM
 302 0148 00080240 		.word	1073874944
 303 014c 30000000 		.word	_stm32_dma_streams+48
 304 0150 00380240 		.word	1073887232
 305 0154 00000000 		.word	dma_i2s_interrupt
 306 0158 00000000 		.word	SPID2
 307 015c 00000000 		.word	.LANCHOR0
 308 0160 0C380040 		.word	1073756172
 309 0164 54480500 		.word	346196
 310              		.cfi_endproc
 311              	.LFE137:
 312              		.size	codec_WM8731_i2s_init_48k, .-codec_WM8731_i2s_init_48k
 313              		.align	2
 314 0168 AFF30080 		.p2align 4,,15
 314      AFF30080 
 315              		.global	codec_WM8731_writeReg
 316              		.thumb
 317              		.thumb_func
 318              		.type	codec_WM8731_writeReg, %function
 319              	codec_WM8731_writeReg:
 320              	.LFB138:
 321              		.loc 1 104 0
 322              		.cfi_startproc
 323              		@ args = 0, pretend = 0, frame = 0
 324              		@ frame_needed = 0, uses_anonymous_args = 0
 325              	.LVL12:
 326 0170 70B5     		push	{r4, r5, r6, lr}
 327              		.cfi_def_cfa_offset 16
 328              		.cfi_offset 4, -16
 329              		.cfi_offset 5, -12
 330              		.cfi_offset 6, -8
 331              		.cfi_offset 14, -4
 332              		.loc 1 106 0
 333 0172 0C4B     		ldr	r3, .L20
 334              		.loc 1 104 0
 335 0174 84B0     		sub	sp, sp, #16
 336              		.cfi_def_cfa_offset 32
 337              		.loc 1 109 0
ARM GAS  /tmp/ccg0r710.s 			page 7


 338 0176 0024     		movs	r4, #0
 339              		.loc 1 106 0
 340 0178 4500     		lsls	r5, r0, #1
 341              		.loc 1 109 0
 342 017a 0426     		movs	r6, #4
 343              		.loc 1 107 0
 344 017c 83F80112 		strb	r1, [r3, #513]
 345              		.loc 1 109 0
 346 0180 03F50072 		add	r2, r3, #512
 347 0184 0094     		str	r4, [sp]
 348 0186 0194     		str	r4, [sp, #4]
 349 0188 0296     		str	r6, [sp, #8]
 350 018a 1A21     		movs	r1, #26
 351              	.LVL13:
 352              		.loc 1 106 0
 353 018c 83F80052 		strb	r5, [r3, #512]
 354              		.loc 1 109 0
 355 0190 0548     		ldr	r0, .L20+4
 356              	.LVL14:
 357 0192 0223     		movs	r3, #2
 358 0194 FFF7FEFF 		bl	i2cMasterTransmitTimeout
 359              	.LVL15:
 360              		.loc 1 110 0
 361 0198 0120     		movs	r0, #1
 362              		.loc 1 111 0
 363 019a 04B0     		add	sp, sp, #16
 364              		.cfi_def_cfa_offset 16
 365              		@ sp needed
 366 019c BDE87040 		pop	{r4, r5, r6, lr}
 367              		.cfi_restore 14
 368              		.cfi_restore 6
 369              		.cfi_restore 5
 370              		.cfi_restore 4
 371              		.cfi_def_cfa_offset 0
 372              		.loc 1 110 0
 373 01a0 FFF7FEBF 		b	chThdSleep
 374              	.LVL16:
 375              	.L21:
 376              		.align	2
 377              	.L20:
 378 01a4 00000000 		.word	.LANCHOR0
 379 01a8 00000000 		.word	I2CD2
 380              		.cfi_endproc
 381              	.LFE138:
 382              		.size	codec_WM8731_writeReg, .-codec_WM8731_writeReg
 383              		.align	2
 384 01ac AFF30080 		.p2align 4,,15
 385              		.global	codec_WM8731_hw_reset
 386              		.thumb
 387              		.thumb_func
 388              		.type	codec_WM8731_hw_reset, %function
 389              	codec_WM8731_hw_reset:
 390              	.LFB134:
 391              		.loc 1 39 0
 392              		.cfi_startproc
 393              		@ args = 0, pretend = 0, frame = 0
 394              		@ frame_needed = 0, uses_anonymous_args = 0
ARM GAS  /tmp/ccg0r710.s 			page 8


 395 01b0 08B5     		push	{r3, lr}
 396              		.cfi_def_cfa_offset 8
 397              		.cfi_offset 3, -8
 398              		.cfi_offset 14, -4
 399              		.loc 1 40 0
 400 01b2 0F20     		movs	r0, #15
 401 01b4 0021     		movs	r1, #0
 402 01b6 FFF7FEFF 		bl	codec_WM8731_writeReg
 403              	.LVL17:
 404              		.loc 1 41 0
 405 01ba 0A20     		movs	r0, #10
 406              		.loc 1 42 0
 407 01bc BDE80840 		pop	{r3, lr}
 408              		.cfi_restore 14
 409              		.cfi_restore 3
 410              		.cfi_def_cfa_offset 0
 411              		.loc 1 41 0
 412 01c0 FFF7FEBF 		b	chThdSleep
 413              	.LVL18:
 414              		.cfi_endproc
 415              	.LFE134:
 416              		.size	codec_WM8731_hw_reset, .-codec_WM8731_hw_reset
 417              		.align	2
 418 01c4 AFF30080 		.p2align 4,,15
 418      AFF30080 
 418      AFF30080 
 419              		.global	codec_WM8731_pwrCtl
 420              		.thumb
 421              		.thumb_func
 422              		.type	codec_WM8731_pwrCtl, %function
 423              	codec_WM8731_pwrCtl:
 424              	.LFB139:
 425              		.loc 1 113 0
 426              		.cfi_startproc
 427              		@ args = 0, pretend = 0, frame = 0
 428              		@ frame_needed = 0, uses_anonymous_args = 0
 429              		@ link register save eliminated.
 430              	.LVL19:
 431              		.loc 1 115 0
 432 01d0 18B9     		cbnz	r0, .L26
 433              		.loc 1 118 0
 434 01d2 0620     		movs	r0, #6
 435              	.LVL20:
 436 01d4 0121     		movs	r1, #1
 437 01d6 FFF7FEBF 		b	codec_WM8731_writeReg
 438              	.LVL21:
 439              	.L26:
 440              	.LBB20:
 441              	.LBB21:
 442              		.loc 1 116 0
 443 01da 0620     		movs	r0, #6
 444              	.LVL22:
 445 01dc 0021     		movs	r1, #0
 446 01de FFF7FEBF 		b	codec_WM8731_writeReg
 447              	.LVL23:
 448              	.LBE21:
 449              	.LBE20:
ARM GAS  /tmp/ccg0r710.s 			page 9


 450              		.cfi_endproc
 451              	.LFE139:
 452              		.size	codec_WM8731_pwrCtl, .-codec_WM8731_pwrCtl
 453 01e2 00BF     		.align	2
 454 01e4 AFF30080 		.p2align 4,,15
 454      AFF30080 
 454      AFF30080 
 455              		.global	codec_WM8731_muteCtl
 456              		.thumb
 457              		.thumb_func
 458              		.type	codec_WM8731_muteCtl, %function
 459              	codec_WM8731_muteCtl:
 460              	.LFB140:
 461              		.loc 1 121 0
 462              		.cfi_startproc
 463              		@ args = 0, pretend = 0, frame = 0
 464              		@ frame_needed = 0, uses_anonymous_args = 0
 465              	.LVL24:
 466              		.loc 1 123 0
 467 01f0 50B9     		cbnz	r0, .L30
 468              		.loc 1 121 0
 469 01f2 08B5     		push	{r3, lr}
 470              		.cfi_def_cfa_offset 8
 471              		.cfi_offset 3, -8
 472              		.cfi_offset 14, -4
 473 01f4 0146     		mov	r1, r0
 474              		.loc 1 126 0
 475 01f6 0520     		movs	r0, #5
 476              	.LVL25:
 477 01f8 FFF7FEFF 		bl	codec_WM8731_writeReg
 478              	.LVL26:
 479              		.loc 1 127 0
 480 01fc 0420     		movs	r0, #4
 481 01fe 1021     		movs	r1, #16
 482              		.loc 1 129 0
 483 0200 BDE80840 		pop	{r3, lr}
 484              		.cfi_restore 14
 485              		.cfi_restore 3
 486              		.cfi_def_cfa_offset 0
 487              		.loc 1 127 0
 488 0204 FFF7FEBF 		b	codec_WM8731_writeReg
 489              	.LVL27:
 490              	.L30:
 491              	.LBB24:
 492              	.LBB25:
 493              		.loc 1 124 0
 494 0208 0520     		movs	r0, #5
 495              	.LVL28:
 496 020a 0821     		movs	r1, #8
 497 020c FFF7FEBF 		b	codec_WM8731_writeReg
 498              	.LVL29:
 499              	.LBE25:
 500              	.LBE24:
 501              		.cfi_endproc
 502              	.LFE140:
 503              		.size	codec_WM8731_muteCtl, .-codec_WM8731_muteCtl
 504              		.align	2
ARM GAS  /tmp/ccg0r710.s 			page 10


 505              		.p2align 4,,15
 506              		.global	codec_WM8731_hw_init
 507              		.thumb
 508              		.thumb_func
 509              		.type	codec_WM8731_hw_init, %function
 510              	codec_WM8731_hw_init:
 511              	.LFB133:
 512              		.loc 1 15 0
 513              		.cfi_startproc
 514              		@ args = 0, pretend = 0, frame = 0
 515              		@ frame_needed = 0, uses_anonymous_args = 0
 516 0210 10B5     		push	{r4, lr}
 517              		.cfi_def_cfa_offset 8
 518              		.cfi_offset 4, -8
 519              		.cfi_offset 14, -4
 520              		.loc 1 17 0
 521 0212 184C     		ldr	r4, .L33
 522 0214 4FF48061 		mov	r1, #1024
 523 0218 2046     		mov	r0, r4
 524 021a 40F20622 		movw	r2, #518
 525 021e FFF7FEFF 		bl	_pal_lld_setgroupmode
 526              	.LVL30:
 527              		.loc 1 18 0
 528 0222 40F20622 		movw	r2, #518
 529 0226 2046     		mov	r0, r4
 530 0228 4FF40061 		mov	r1, #2048
 531 022c FFF7FEFF 		bl	_pal_lld_setgroupmode
 532              	.LVL31:
 533              		.loc 1 20 0
 534 0230 1149     		ldr	r1, .L33+4
 535 0232 1248     		ldr	r0, .L33+8
 536 0234 FFF7FEFF 		bl	i2cStart
 537              	.LVL32:
 538              		.loc 1 23 0
 539 0238 FFF7FEFF 		bl	codec_WM8731_hw_reset
 540              	.LVL33:
 541              		.loc 1 26 0
 542 023c 0020     		movs	r0, #0
 543 023e FFF7FEFF 		bl	codec_WM8731_pwrCtl
 544              	.LVL34:
 545              		.loc 1 29 0
 546 0242 0720     		movs	r0, #7
 547 0244 0E21     		movs	r1, #14
 548 0246 FFF7FEFF 		bl	codec_WM8731_writeReg
 549              	.LVL35:
 550              		.loc 1 31 0
 551 024a 0820     		movs	r0, #8
 552 024c 4021     		movs	r1, #64
 553 024e FFF7FEFF 		bl	codec_WM8731_writeReg
 554              	.LVL36:
 555              	.LBB34:
 556              	.LBB35:
 557              	.LBB36:
 558              		.loc 1 116 0
 559 0252 0021     		movs	r1, #0
 560 0254 0620     		movs	r0, #6
 561 0256 FFF7FEFF 		bl	codec_WM8731_writeReg
ARM GAS  /tmp/ccg0r710.s 			page 11


 562              	.LVL37:
 563              	.LBE36:
 564              	.LBE35:
 565              	.LBE34:
 566              		.loc 1 35 0
 567 025a 0020     		movs	r0, #0
 568 025c FFF7FEFF 		bl	codec_WM8731_muteCtl
 569              	.LVL38:
 570              	.LBB37:
 571              	.LBB38:
 572              	.LBB39:
 573              		.loc 1 134 0
 574 0260 0020     		movs	r0, #0
 575 0262 1721     		movs	r1, #23
 576 0264 FFF7FEFF 		bl	codec_WM8731_writeReg
 577              	.LVL39:
 578              		.loc 1 135 0
 579 0268 0120     		movs	r0, #1
 580 026a 1721     		movs	r1, #23
 581              	.LBE39:
 582              	.LBE38:
 583              	.LBE37:
 584              		.loc 1 37 0
 585 026c BDE81040 		pop	{r4, lr}
 586              		.cfi_restore 14
 587              		.cfi_restore 4
 588              		.cfi_def_cfa_offset 0
 589              	.LBB42:
 590              	.LBB41:
 591              	.LBB40:
 592              		.loc 1 135 0
 593 0270 FFF7FEBF 		b	codec_WM8731_writeReg
 594              	.LVL40:
 595              	.L34:
 596              		.align	2
 597              	.L33:
 598 0274 00040240 		.word	1073873920
 599 0278 00000000 		.word	.LANCHOR2
 600 027c 00000000 		.word	I2CD2
 601              	.LBE40:
 602              	.LBE41:
 603              	.LBE42:
 604              		.cfi_endproc
 605              	.LFE133:
 606              		.size	codec_WM8731_hw_init, .-codec_WM8731_hw_init
 607              		.align	2
 608              		.p2align 4,,15
 609              		.global	codec_init
 610              		.thumb
 611              		.thumb_func
 612              		.type	codec_init, %function
 613              	codec_init:
 614              	.LFB130:
 615              		.loc 2 36 0
 616              		.cfi_startproc
 617              		@ args = 0, pretend = 0, frame = 0
 618              		@ frame_needed = 0, uses_anonymous_args = 0
ARM GAS  /tmp/ccg0r710.s 			page 12


 619 0280 08B5     		push	{r3, lr}
 620              		.cfi_def_cfa_offset 8
 621              		.cfi_offset 3, -8
 622              		.cfi_offset 14, -4
 623              		.loc 2 42 0
 624 0282 FFF7FEFF 		bl	codec_WM8731_i2s_init_48k
 625              	.LVL41:
 626              		.loc 2 43 0
 627 0286 FFF7FEFF 		bl	codec_WM8731_hw_init
 628              	.LVL42:
 629              	.LBB47:
 630              	.LBB48:
 631              	.LBB49:
 632              		.loc 1 116 0
 633 028a 0620     		movs	r0, #6
 634 028c 0021     		movs	r1, #0
 635 028e FFF7FEFF 		bl	codec_WM8731_writeReg
 636              	.LVL43:
 637              	.LBE49:
 638              	.LBE48:
 639              	.LBE47:
 640              		.loc 2 47 0
 641 0292 0020     		movs	r0, #0
 642              		.loc 2 58 0
 643 0294 BDE80840 		pop	{r3, lr}
 644              		.cfi_restore 14
 645              		.cfi_restore 3
 646              		.cfi_def_cfa_offset 0
 647              		.loc 2 47 0
 648 0298 FFF7FEBF 		b	codec_WM8731_muteCtl
 649              	.LVL44:
 650              		.cfi_endproc
 651              	.LFE130:
 652              		.size	codec_init, .-codec_init
 653              		.align	2
 654 029c AFF30080 		.p2align 4,,15
 655              		.global	codec_WM8731_volCtl
 656              		.thumb
 657              		.thumb_func
 658              		.type	codec_WM8731_volCtl, %function
 659              	codec_WM8731_volCtl:
 660              	.LFB141:
 661              		.loc 1 131 0
 662              		.cfi_startproc
 663              		@ args = 0, pretend = 0, frame = 0
 664              		@ frame_needed = 0, uses_anonymous_args = 0
 665              	.LVL45:
 666 02a0 10B5     		push	{r4, lr}
 667              		.cfi_def_cfa_offset 8
 668              		.cfi_offset 4, -8
 669              		.cfi_offset 14, -4
 670              		.loc 1 131 0
 671 02a2 0446     		mov	r4, r0
 672              		.loc 1 133 0
 673 02a4 1F2C     		cmp	r4, #31
 674              	.LBB52:
 675              	.LBB53:
ARM GAS  /tmp/ccg0r710.s 			page 13


 676              		.loc 1 134 0
 677 02a6 4FF00000 		mov	r0, #0
 678              	.LVL46:
 679              	.LBE53:
 680              	.LBE52:
 681              		.loc 1 133 0
 682 02aa 08D9     		bls	.L40
 683              		.loc 1 138 0
 684 02ac 1F21     		movs	r1, #31
 685 02ae FFF7FEFF 		bl	codec_WM8731_writeReg
 686              	.LVL47:
 687              		.loc 1 139 0
 688 02b2 0120     		movs	r0, #1
 689 02b4 1F21     		movs	r1, #31
 690              		.loc 1 141 0
 691 02b6 BDE81040 		pop	{r4, lr}
 692              		.cfi_remember_state
 693              		.cfi_restore 14
 694              		.cfi_restore 4
 695              		.cfi_def_cfa_offset 0
 696              		.loc 1 139 0
 697 02ba FFF7FEBF 		b	codec_WM8731_writeReg
 698              	.LVL48:
 699              	.L40:
 700              		.cfi_restore_state
 701              	.LBB56:
 702              	.LBB54:
 703              		.loc 1 134 0
 704 02be 2146     		mov	r1, r4
 705 02c0 FFF7FEFF 		bl	codec_WM8731_writeReg
 706              	.LVL49:
 707              		.loc 1 135 0
 708 02c4 2146     		mov	r1, r4
 709 02c6 0120     		movs	r0, #1
 710              	.LBE54:
 711              	.LBE56:
 712              		.loc 1 141 0
 713 02c8 BDE81040 		pop	{r4, lr}
 714              		.cfi_restore 14
 715              		.cfi_restore 4
 716              		.cfi_def_cfa_offset 0
 717              	.LVL50:
 718              	.LBB57:
 719              	.LBB55:
 720              		.loc 1 135 0
 721 02cc FFF7FEBF 		b	codec_WM8731_writeReg
 722              	.LVL51:
 723              	.LBE55:
 724              	.LBE57:
 725              		.cfi_endproc
 726              	.LFE141:
 727              		.size	codec_WM8731_volCtl, .-codec_WM8731_volCtl
 728              		.comm	i2sdmaWM,4,4
 729              		.global	rbuf2
 730              		.global	rbuf
 731              		.global	buf2
 732              		.global	buf
ARM GAS  /tmp/ccg0r710.s 			page 14


 733              		.section	.rodata
 734              		.align	2
 735              		.set	.LANCHOR2,. + 0
 736              		.type	i2cfgWM, %object
 737              		.size	i2cfgWM, 12
 738              	i2cfgWM:
 739 0000 01       		.byte	1
 740 0001 000000   		.space	3
 741 0004 A0860100 		.word	100000
 742 0008 01       		.byte	1
 743 0009 000000   		.space	3
 744              		.section	.sram2,"aw",%progbits
 745              		.align	2
 746              		.set	.LANCHOR0,. + 0
 747              		.type	rbuf, %object
 748              		.size	rbuf, 128
 749              	rbuf:
 750 0000 00000000 		.space	128
 750      00000000 
 750      00000000 
 750      00000000 
 750      00000000 
 751              		.type	buf, %object
 752              		.size	buf, 128
 753              	buf:
 754 0080 00000000 		.space	128
 754      00000000 
 754      00000000 
 754      00000000 
 754      00000000 
 755              		.type	rbuf2, %object
 756              		.size	rbuf2, 128
 757              	rbuf2:
 758 0100 00000000 		.space	128
 758      00000000 
 758      00000000 
 758      00000000 
 758      00000000 
 759              		.type	buf2, %object
 760              		.size	buf2, 128
 761              	buf2:
 762 0180 00000000 		.space	128
 762      00000000 
 762      00000000 
 762      00000000 
 762      00000000 
 763              		.type	txbufWM, %object
 764              		.size	txbufWM, 2
 765              	txbufWM:
 766 0200 0000     		.space	2
 767              		.bss
 768              		.align	2
 769              		.set	.LANCHOR1,. + 0
 770              		.type	i2stxdmamodeWM, %object
 771              		.size	i2stxdmamodeWM, 4
 772              	i2stxdmamodeWM:
 773 0000 00000000 		.space	4
ARM GAS  /tmp/ccg0r710.s 			page 15


 774              		.text
 775              	.Letext0:
 776              		.file 3 "/home/sbcu/Dropbox/pcb-layouts/axo-on-discovery-board/axoloti/platform_linux/arm-none-eab
 777              		.file 4 "/home/sbcu/Dropbox/pcb-layouts/axo-on-discovery-board/axoloti/platform_linux/arm-none-eab
 778              		.file 5 "/home/sbcu/Dropbox/pcb-layouts/axo-on-discovery-board/axoloti/platform_linux/lib/gcc/arm-
 779              		.file 6 "/home/sbcu/Dropbox/pcb-layouts/axo-on-discovery-board/axoloti/platform_linux/../chibios/o
 780              		.file 7 "/home/sbcu/Dropbox/pcb-layouts/axo-on-discovery-board/axoloti/platform_linux/../chibios/o
 781              		.file 8 "/home/sbcu/Dropbox/pcb-layouts/axo-on-discovery-board/axoloti/platform_linux/../chibios/o
 782              		.file 9 "/home/sbcu/Dropbox/pcb-layouts/axo-on-discovery-board/axoloti/platform_linux/../chibios/o
 783              		.file 10 "/home/sbcu/Dropbox/pcb-layouts/axo-on-discovery-board/axoloti/platform_linux/../chibios/
 784              		.file 11 "/home/sbcu/Dropbox/pcb-layouts/axo-on-discovery-board/axoloti/platform_linux/../chibios/
 785              		.file 12 "/home/sbcu/Dropbox/pcb-layouts/axo-on-discovery-board/axoloti/platform_linux/../chibios/
 786              		.file 13 "/home/sbcu/Dropbox/pcb-layouts/axo-on-discovery-board/axoloti/platform_linux/../chibios/
 787              		.file 14 "/home/sbcu/Dropbox/pcb-layouts/axo-on-discovery-board/axoloti/platform_linux/../chibios/
 788              		.file 15 "/home/sbcu/Dropbox/pcb-layouts/axo-on-discovery-board/axoloti/platform_linux/../chibios/
 789              		.file 16 "/home/sbcu/Dropbox/pcb-layouts/axo-on-discovery-board/axoloti/platform_linux/../chibios/
 790              		.file 17 "/home/sbcu/Dropbox/pcb-layouts/axo-on-discovery-board/axoloti/platform_linux/../chibios/
 791              		.file 18 "/home/sbcu/Dropbox/pcb-layouts/axo-on-discovery-board/axoloti/platform_linux/../CMSIS//I
 792              		.file 19 "codec.h"
 793              		.section	.debug_info,"",%progbits
 794              	.Ldebug_info0:
 795 0000 41140000 		.4byte	0x1441
 796 0004 0400     		.2byte	0x4
 797 0006 00000000 		.4byte	.Ldebug_abbrev0
 798 000a 04       		.byte	0x4
 799 000b 01       		.uleb128 0x1
 800 000c 5D070000 		.4byte	.LASF199
 801 0010 01       		.byte	0x1
 802 0011 4D030000 		.4byte	.LASF200
 803 0015 E4060000 		.4byte	.LASF201
 804 0019 00000000 		.4byte	.Ltext0
 805 001d D0020000 		.4byte	.Letext0-.Ltext0
 806 0021 00000000 		.4byte	.Ldebug_line0
 807 0025 02       		.uleb128 0x2
 808 0026 01       		.byte	0x1
 809 0027 06       		.byte	0x6
 810 0028 C8010000 		.4byte	.LASF0
 811 002c 03       		.uleb128 0x3
 812 002d 08010000 		.4byte	.LASF3
 813 0031 03       		.byte	0x3
 814 0032 1D       		.byte	0x1d
 815 0033 37000000 		.4byte	0x37
 816 0037 02       		.uleb128 0x2
 817 0038 01       		.byte	0x1
 818 0039 08       		.byte	0x8
 819 003a 23020000 		.4byte	.LASF1
 820 003e 02       		.uleb128 0x2
 821 003f 02       		.byte	0x2
 822 0040 05       		.byte	0x5
 823 0041 C4060000 		.4byte	.LASF2
 824 0045 03       		.uleb128 0x3
 825 0046 ED020000 		.4byte	.LASF4
 826 004a 03       		.byte	0x3
 827 004b 2B       		.byte	0x2b
 828 004c 50000000 		.4byte	0x50
 829 0050 02       		.uleb128 0x2
 830 0051 02       		.byte	0x2
ARM GAS  /tmp/ccg0r710.s 			page 16


 831 0052 07       		.byte	0x7
 832 0053 C3080000 		.4byte	.LASF5
 833 0057 03       		.uleb128 0x3
 834 0058 07090000 		.4byte	.LASF6
 835 005c 03       		.byte	0x3
 836 005d 3F       		.byte	0x3f
 837 005e 62000000 		.4byte	0x62
 838 0062 02       		.uleb128 0x2
 839 0063 04       		.byte	0x4
 840 0064 05       		.byte	0x5
 841 0065 65010000 		.4byte	.LASF7
 842 0069 03       		.uleb128 0x3
 843 006a FE030000 		.4byte	.LASF8
 844 006e 03       		.byte	0x3
 845 006f 41       		.byte	0x41
 846 0070 74000000 		.4byte	0x74
 847 0074 02       		.uleb128 0x2
 848 0075 04       		.byte	0x4
 849 0076 07       		.byte	0x7
 850 0077 A5030000 		.4byte	.LASF9
 851 007b 02       		.uleb128 0x2
 852 007c 08       		.byte	0x8
 853 007d 05       		.byte	0x5
 854 007e 19040000 		.4byte	.LASF10
 855 0082 02       		.uleb128 0x2
 856 0083 08       		.byte	0x8
 857 0084 07       		.byte	0x7
 858 0085 CB050000 		.4byte	.LASF11
 859 0089 04       		.uleb128 0x4
 860 008a 04       		.byte	0x4
 861 008b 05       		.byte	0x5
 862 008c 696E7400 		.ascii	"int\000"
 863 0090 02       		.uleb128 0x2
 864 0091 04       		.byte	0x4
 865 0092 07       		.byte	0x7
 866 0093 DC040000 		.4byte	.LASF12
 867 0097 03       		.uleb128 0x3
 868 0098 F3010000 		.4byte	.LASF13
 869 009c 04       		.byte	0x4
 870 009d 14       		.byte	0x14
 871 009e 2C000000 		.4byte	0x2c
 872 00a2 03       		.uleb128 0x3
 873 00a3 F6050000 		.4byte	.LASF14
 874 00a7 04       		.byte	0x4
 875 00a8 1A       		.byte	0x1a
 876 00a9 45000000 		.4byte	0x45
 877 00ad 03       		.uleb128 0x3
 878 00ae 62000000 		.4byte	.LASF15
 879 00b2 04       		.byte	0x4
 880 00b3 1F       		.byte	0x1f
 881 00b4 57000000 		.4byte	0x57
 882 00b8 03       		.uleb128 0x3
 883 00b9 67080000 		.4byte	.LASF16
 884 00bd 04       		.byte	0x4
 885 00be 20       		.byte	0x20
 886 00bf 69000000 		.4byte	0x69
 887 00c3 02       		.uleb128 0x2
ARM GAS  /tmp/ccg0r710.s 			page 17


 888 00c4 04       		.byte	0x4
 889 00c5 07       		.byte	0x7
 890 00c6 0C000000 		.4byte	.LASF17
 891 00ca 03       		.uleb128 0x3
 892 00cb 05000000 		.4byte	.LASF18
 893 00cf 05       		.byte	0x5
 894 00d0 D4       		.byte	0xd4
 895 00d1 90000000 		.4byte	0x90
 896 00d5 03       		.uleb128 0x3
 897 00d6 3D070000 		.4byte	.LASF19
 898 00da 06       		.byte	0x6
 899 00db 2B       		.byte	0x2b
 900 00dc E0000000 		.4byte	0xe0
 901 00e0 02       		.uleb128 0x2
 902 00e1 01       		.byte	0x1
 903 00e2 02       		.byte	0x2
 904 00e3 9E020000 		.4byte	.LASF20
 905 00e7 03       		.uleb128 0x3
 906 00e8 7B060000 		.4byte	.LASF21
 907 00ec 06       		.byte	0x6
 908 00ed 2C       		.byte	0x2c
 909 00ee 97000000 		.4byte	0x97
 910 00f2 03       		.uleb128 0x3
 911 00f3 92010000 		.4byte	.LASF22
 912 00f7 06       		.byte	0x6
 913 00f8 2D       		.byte	0x2d
 914 00f9 97000000 		.4byte	0x97
 915 00fd 03       		.uleb128 0x3
 916 00fe 19060000 		.4byte	.LASF23
 917 0102 06       		.byte	0x6
 918 0103 2F       		.byte	0x2f
 919 0104 97000000 		.4byte	0x97
 920 0108 03       		.uleb128 0x3
 921 0109 44000000 		.4byte	.LASF24
 922 010d 06       		.byte	0x6
 923 010e 30       		.byte	0x30
 924 010f B8000000 		.4byte	0xb8
 925 0113 03       		.uleb128 0x3
 926 0114 FF050000 		.4byte	.LASF25
 927 0118 06       		.byte	0x6
 928 0119 31       		.byte	0x31
 929 011a AD000000 		.4byte	0xad
 930 011e 03       		.uleb128 0x3
 931 011f FB010000 		.4byte	.LASF26
 932 0123 06       		.byte	0x6
 933 0124 33       		.byte	0x33
 934 0125 B8000000 		.4byte	0xb8
 935 0129 03       		.uleb128 0x3
 936 012a 29000000 		.4byte	.LASF27
 937 012e 06       		.byte	0x6
 938 012f 35       		.byte	0x35
 939 0130 B8000000 		.4byte	0xb8
 940 0134 03       		.uleb128 0x3
 941 0135 49070000 		.4byte	.LASF28
 942 0139 07       		.byte	0x7
 943 013a 2A       		.byte	0x2a
 944 013b 3F010000 		.4byte	0x13f
ARM GAS  /tmp/ccg0r710.s 			page 18


 945 013f 05       		.uleb128 0x5
 946 0140 49070000 		.4byte	.LASF28
 947 0144 40       		.byte	0x40
 948 0145 08       		.byte	0x8
 949 0146 5E       		.byte	0x5e
 950 0147 18020000 		.4byte	0x218
 951 014b 06       		.uleb128 0x6
 952 014c 79010000 		.4byte	.LASF29
 953 0150 08       		.byte	0x8
 954 0151 5F       		.byte	0x5f
 955 0152 39020000 		.4byte	0x239
 956 0156 00       		.byte	0
 957 0157 06       		.uleb128 0x6
 958 0158 80010000 		.4byte	.LASF30
 959 015c 08       		.byte	0x8
 960 015d 61       		.byte	0x61
 961 015e 39020000 		.4byte	0x239
 962 0162 04       		.byte	0x4
 963 0163 06       		.uleb128 0x6
 964 0164 DC020000 		.4byte	.LASF31
 965 0168 08       		.byte	0x8
 966 0169 63       		.byte	0x63
 967 016a 08010000 		.4byte	0x108
 968 016e 08       		.byte	0x8
 969 016f 06       		.uleb128 0x6
 970 0170 3E000000 		.4byte	.LASF32
 971 0174 08       		.byte	0x8
 972 0175 64       		.byte	0x64
 973 0176 C3030000 		.4byte	0x3c3
 974 017a 0C       		.byte	0xc
 975 017b 06       		.uleb128 0x6
 976 017c 54010000 		.4byte	.LASF33
 977 0180 08       		.byte	0x8
 978 0181 66       		.byte	0x66
 979 0182 39020000 		.4byte	0x239
 980 0186 10       		.byte	0x10
 981 0187 06       		.uleb128 0x6
 982 0188 E2050000 		.4byte	.LASF34
 983 018c 08       		.byte	0x8
 984 018d 67       		.byte	0x67
 985 018e 39020000 		.4byte	0x239
 986 0192 14       		.byte	0x14
 987 0193 06       		.uleb128 0x6
 988 0194 2A090000 		.4byte	.LASF35
 989 0198 08       		.byte	0x8
 990 0199 6E       		.byte	0x6e
 991 019a 60040000 		.4byte	0x460
 992 019e 18       		.byte	0x18
 993 019f 06       		.uleb128 0x6
 994 01a0 4D090000 		.4byte	.LASF36
 995 01a4 08       		.byte	0x8
 996 01a5 79       		.byte	0x79
 997 01a6 F2000000 		.4byte	0xf2
 998 01aa 1C       		.byte	0x1c
 999 01ab 06       		.uleb128 0x6
 1000 01ac C5040000 		.4byte	.LASF37
 1001 01b0 08       		.byte	0x8
ARM GAS  /tmp/ccg0r710.s 			page 19


 1002 01b1 7D       		.byte	0x7d
 1003 01b2 E7000000 		.4byte	0xe7
 1004 01b6 1D       		.byte	0x1d
 1005 01b7 06       		.uleb128 0x6
 1006 01b8 D4010000 		.4byte	.LASF38
 1007 01bc 08       		.byte	0x8
 1008 01bd 88       		.byte	0x88
 1009 01be FD000000 		.4byte	0xfd
 1010 01c2 1E       		.byte	0x1e
 1011 01c3 07       		.uleb128 0x7
 1012 01c4 705F7500 		.ascii	"p_u\000"
 1013 01c8 08       		.byte	0x8
 1014 01c9 B4       		.byte	0xb4
 1015 01ca 2B040000 		.4byte	0x42b
 1016 01ce 20       		.byte	0x20
 1017 01cf 06       		.uleb128 0x6
 1018 01d0 AA040000 		.4byte	.LASF39
 1019 01d4 08       		.byte	0x8
 1020 01d5 B9       		.byte	0xb9
 1021 01d6 5F020000 		.4byte	0x25f
 1022 01da 24       		.byte	0x24
 1023 01db 06       		.uleb128 0x6
 1024 01dc 57000000 		.4byte	.LASF40
 1025 01e0 08       		.byte	0x8
 1026 01e1 BF       		.byte	0xbf
 1027 01e2 3F020000 		.4byte	0x23f
 1028 01e6 28       		.byte	0x28
 1029 01e7 06       		.uleb128 0x6
 1030 01e8 47090000 		.4byte	.LASF41
 1031 01ec 08       		.byte	0x8
 1032 01ed C3       		.byte	0xc3
 1033 01ee 13010000 		.4byte	0x113
 1034 01f2 30       		.byte	0x30
 1035 01f3 06       		.uleb128 0x6
 1036 01f4 6F030000 		.4byte	.LASF42
 1037 01f8 08       		.byte	0x8
 1038 01f9 C9       		.byte	0xc9
 1039 01fa 1E010000 		.4byte	0x11e
 1040 01fe 34       		.byte	0x34
 1041 01ff 06       		.uleb128 0x6
 1042 0200 9B010000 		.4byte	.LASF43
 1043 0204 08       		.byte	0x8
 1044 0205 D0       		.byte	0xd0
 1045 0206 72040000 		.4byte	0x472
 1046 020a 38       		.byte	0x38
 1047 020b 06       		.uleb128 0x6
 1048 020c 87050000 		.4byte	.LASF44
 1049 0210 08       		.byte	0x8
 1050 0211 D4       		.byte	0xd4
 1051 0212 08010000 		.4byte	0x108
 1052 0216 3C       		.byte	0x3c
 1053 0217 00       		.byte	0
 1054 0218 08       		.uleb128 0x8
 1055 0219 08       		.byte	0x8
 1056 021a 07       		.byte	0x7
 1057 021b 61       		.byte	0x61
 1058 021c 39020000 		.4byte	0x239
ARM GAS  /tmp/ccg0r710.s 			page 20


 1059 0220 06       		.uleb128 0x6
 1060 0221 79010000 		.4byte	.LASF29
 1061 0225 07       		.byte	0x7
 1062 0226 62       		.byte	0x62
 1063 0227 39020000 		.4byte	0x239
 1064 022b 00       		.byte	0
 1065 022c 06       		.uleb128 0x6
 1066 022d 80010000 		.4byte	.LASF30
 1067 0231 07       		.byte	0x7
 1068 0232 64       		.byte	0x64
 1069 0233 39020000 		.4byte	0x239
 1070 0237 04       		.byte	0x4
 1071 0238 00       		.byte	0
 1072 0239 09       		.uleb128 0x9
 1073 023a 04       		.byte	0x4
 1074 023b 34010000 		.4byte	0x134
 1075 023f 03       		.uleb128 0x3
 1076 0240 76080000 		.4byte	.LASF45
 1077 0244 07       		.byte	0x7
 1078 0245 66       		.byte	0x66
 1079 0246 18020000 		.4byte	0x218
 1080 024a 08       		.uleb128 0x8
 1081 024b 04       		.byte	0x4
 1082 024c 07       		.byte	0x7
 1083 024d 6B       		.byte	0x6b
 1084 024e 5F020000 		.4byte	0x25f
 1085 0252 06       		.uleb128 0x6
 1086 0253 79010000 		.4byte	.LASF29
 1087 0257 07       		.byte	0x7
 1088 0258 6D       		.byte	0x6d
 1089 0259 39020000 		.4byte	0x239
 1090 025d 00       		.byte	0
 1091 025e 00       		.byte	0
 1092 025f 03       		.uleb128 0x3
 1093 0260 18050000 		.4byte	.LASF46
 1094 0264 07       		.byte	0x7
 1095 0265 70       		.byte	0x70
 1096 0266 4A020000 		.4byte	0x24a
 1097 026a 03       		.uleb128 0x3
 1098 026b A5010000 		.4byte	.LASF47
 1099 026f 09       		.byte	0x9
 1100 0270 E5       		.byte	0xe5
 1101 0271 75020000 		.4byte	0x275
 1102 0275 0A       		.uleb128 0xa
 1103 0276 04       		.byte	0x4
 1104 0277 0B       		.uleb128 0xb
 1105 0278 68030000 		.4byte	.LASF48
 1106 027c 64       		.byte	0x64
 1107 027d 09       		.byte	0x9
 1108 027e 0C01     		.2byte	0x10c
 1109 0280 C3030000 		.4byte	0x3c3
 1110 0284 0C       		.uleb128 0xc
 1111 0285 73313600 		.ascii	"s16\000"
 1112 0289 09       		.byte	0x9
 1113 028a 0E01     		.2byte	0x10e
 1114 028c 6A020000 		.4byte	0x26a
 1115 0290 00       		.byte	0
ARM GAS  /tmp/ccg0r710.s 			page 21


 1116 0291 0C       		.uleb128 0xc
 1117 0292 73313700 		.ascii	"s17\000"
 1118 0296 09       		.byte	0x9
 1119 0297 0F01     		.2byte	0x10f
 1120 0299 6A020000 		.4byte	0x26a
 1121 029d 04       		.byte	0x4
 1122 029e 0C       		.uleb128 0xc
 1123 029f 73313800 		.ascii	"s18\000"
 1124 02a3 09       		.byte	0x9
 1125 02a4 1001     		.2byte	0x110
 1126 02a6 6A020000 		.4byte	0x26a
 1127 02aa 08       		.byte	0x8
 1128 02ab 0C       		.uleb128 0xc
 1129 02ac 73313900 		.ascii	"s19\000"
 1130 02b0 09       		.byte	0x9
 1131 02b1 1101     		.2byte	0x111
 1132 02b3 6A020000 		.4byte	0x26a
 1133 02b7 0C       		.byte	0xc
 1134 02b8 0C       		.uleb128 0xc
 1135 02b9 73323000 		.ascii	"s20\000"
 1136 02bd 09       		.byte	0x9
 1137 02be 1201     		.2byte	0x112
 1138 02c0 6A020000 		.4byte	0x26a
 1139 02c4 10       		.byte	0x10
 1140 02c5 0C       		.uleb128 0xc
 1141 02c6 73323100 		.ascii	"s21\000"
 1142 02ca 09       		.byte	0x9
 1143 02cb 1301     		.2byte	0x113
 1144 02cd 6A020000 		.4byte	0x26a
 1145 02d1 14       		.byte	0x14
 1146 02d2 0C       		.uleb128 0xc
 1147 02d3 73323200 		.ascii	"s22\000"
 1148 02d7 09       		.byte	0x9
 1149 02d8 1401     		.2byte	0x114
 1150 02da 6A020000 		.4byte	0x26a
 1151 02de 18       		.byte	0x18
 1152 02df 0C       		.uleb128 0xc
 1153 02e0 73323300 		.ascii	"s23\000"
 1154 02e4 09       		.byte	0x9
 1155 02e5 1501     		.2byte	0x115
 1156 02e7 6A020000 		.4byte	0x26a
 1157 02eb 1C       		.byte	0x1c
 1158 02ec 0C       		.uleb128 0xc
 1159 02ed 73323400 		.ascii	"s24\000"
 1160 02f1 09       		.byte	0x9
 1161 02f2 1601     		.2byte	0x116
 1162 02f4 6A020000 		.4byte	0x26a
 1163 02f8 20       		.byte	0x20
 1164 02f9 0C       		.uleb128 0xc
 1165 02fa 73323500 		.ascii	"s25\000"
 1166 02fe 09       		.byte	0x9
 1167 02ff 1701     		.2byte	0x117
 1168 0301 6A020000 		.4byte	0x26a
 1169 0305 24       		.byte	0x24
 1170 0306 0C       		.uleb128 0xc
 1171 0307 73323600 		.ascii	"s26\000"
 1172 030b 09       		.byte	0x9
ARM GAS  /tmp/ccg0r710.s 			page 22


 1173 030c 1801     		.2byte	0x118
 1174 030e 6A020000 		.4byte	0x26a
 1175 0312 28       		.byte	0x28
 1176 0313 0C       		.uleb128 0xc
 1177 0314 73323700 		.ascii	"s27\000"
 1178 0318 09       		.byte	0x9
 1179 0319 1901     		.2byte	0x119
 1180 031b 6A020000 		.4byte	0x26a
 1181 031f 2C       		.byte	0x2c
 1182 0320 0C       		.uleb128 0xc
 1183 0321 73323800 		.ascii	"s28\000"
 1184 0325 09       		.byte	0x9
 1185 0326 1A01     		.2byte	0x11a
 1186 0328 6A020000 		.4byte	0x26a
 1187 032c 30       		.byte	0x30
 1188 032d 0C       		.uleb128 0xc
 1189 032e 73323900 		.ascii	"s29\000"
 1190 0332 09       		.byte	0x9
 1191 0333 1B01     		.2byte	0x11b
 1192 0335 6A020000 		.4byte	0x26a
 1193 0339 34       		.byte	0x34
 1194 033a 0C       		.uleb128 0xc
 1195 033b 73333000 		.ascii	"s30\000"
 1196 033f 09       		.byte	0x9
 1197 0340 1C01     		.2byte	0x11c
 1198 0342 6A020000 		.4byte	0x26a
 1199 0346 38       		.byte	0x38
 1200 0347 0C       		.uleb128 0xc
 1201 0348 73333100 		.ascii	"s31\000"
 1202 034c 09       		.byte	0x9
 1203 034d 1D01     		.2byte	0x11d
 1204 034f 6A020000 		.4byte	0x26a
 1205 0353 3C       		.byte	0x3c
 1206 0354 0C       		.uleb128 0xc
 1207 0355 723400   		.ascii	"r4\000"
 1208 0358 09       		.byte	0x9
 1209 0359 1F01     		.2byte	0x11f
 1210 035b 6A020000 		.4byte	0x26a
 1211 035f 40       		.byte	0x40
 1212 0360 0C       		.uleb128 0xc
 1213 0361 723500   		.ascii	"r5\000"
 1214 0364 09       		.byte	0x9
 1215 0365 2001     		.2byte	0x120
 1216 0367 6A020000 		.4byte	0x26a
 1217 036b 44       		.byte	0x44
 1218 036c 0C       		.uleb128 0xc
 1219 036d 723600   		.ascii	"r6\000"
 1220 0370 09       		.byte	0x9
 1221 0371 2101     		.2byte	0x121
 1222 0373 6A020000 		.4byte	0x26a
 1223 0377 48       		.byte	0x48
 1224 0378 0C       		.uleb128 0xc
 1225 0379 723700   		.ascii	"r7\000"
 1226 037c 09       		.byte	0x9
 1227 037d 2201     		.2byte	0x122
 1228 037f 6A020000 		.4byte	0x26a
 1229 0383 4C       		.byte	0x4c
ARM GAS  /tmp/ccg0r710.s 			page 23


 1230 0384 0C       		.uleb128 0xc
 1231 0385 723800   		.ascii	"r8\000"
 1232 0388 09       		.byte	0x9
 1233 0389 2301     		.2byte	0x123
 1234 038b 6A020000 		.4byte	0x26a
 1235 038f 50       		.byte	0x50
 1236 0390 0C       		.uleb128 0xc
 1237 0391 723900   		.ascii	"r9\000"
 1238 0394 09       		.byte	0x9
 1239 0395 2401     		.2byte	0x124
 1240 0397 6A020000 		.4byte	0x26a
 1241 039b 54       		.byte	0x54
 1242 039c 0C       		.uleb128 0xc
 1243 039d 72313000 		.ascii	"r10\000"
 1244 03a1 09       		.byte	0x9
 1245 03a2 2501     		.2byte	0x125
 1246 03a4 6A020000 		.4byte	0x26a
 1247 03a8 58       		.byte	0x58
 1248 03a9 0C       		.uleb128 0xc
 1249 03aa 72313100 		.ascii	"r11\000"
 1250 03ae 09       		.byte	0x9
 1251 03af 2601     		.2byte	0x126
 1252 03b1 6A020000 		.4byte	0x26a
 1253 03b5 5C       		.byte	0x5c
 1254 03b6 0C       		.uleb128 0xc
 1255 03b7 6C7200   		.ascii	"lr\000"
 1256 03ba 09       		.byte	0x9
 1257 03bb 2701     		.2byte	0x127
 1258 03bd 6A020000 		.4byte	0x26a
 1259 03c1 60       		.byte	0x60
 1260 03c2 00       		.byte	0
 1261 03c3 0B       		.uleb128 0xb
 1262 03c4 07020000 		.4byte	.LASF49
 1263 03c8 04       		.byte	0x4
 1264 03c9 09       		.byte	0x9
 1265 03ca 3101     		.2byte	0x131
 1266 03cc DE030000 		.4byte	0x3de
 1267 03d0 0C       		.uleb128 0xc
 1268 03d1 72313300 		.ascii	"r13\000"
 1269 03d5 09       		.byte	0x9
 1270 03d6 3201     		.2byte	0x132
 1271 03d8 DE030000 		.4byte	0x3de
 1272 03dc 00       		.byte	0
 1273 03dd 00       		.byte	0
 1274 03de 09       		.uleb128 0x9
 1275 03df 04       		.byte	0x4
 1276 03e0 77020000 		.4byte	0x277
 1277 03e4 0D       		.uleb128 0xd
 1278 03e5 B8000000 		.4byte	0xb8
 1279 03e9 05       		.uleb128 0x5
 1280 03ea 09040000 		.4byte	.LASF50
 1281 03ee 10       		.byte	0x10
 1282 03ef 0A       		.byte	0xa
 1283 03f0 2C       		.byte	0x2c
 1284 03f1 1A040000 		.4byte	0x41a
 1285 03f5 06       		.uleb128 0x6
 1286 03f6 32040000 		.4byte	.LASF51
ARM GAS  /tmp/ccg0r710.s 			page 24


 1287 03fa 0A       		.byte	0xa
 1288 03fb 2D       		.byte	0x2d
 1289 03fc 3F020000 		.4byte	0x23f
 1290 0400 00       		.byte	0
 1291 0401 06       		.uleb128 0x6
 1292 0402 E8000000 		.4byte	.LASF52
 1293 0406 0A       		.byte	0xa
 1294 0407 2F       		.byte	0x2f
 1295 0408 39020000 		.4byte	0x239
 1296 040c 08       		.byte	0x8
 1297 040d 06       		.uleb128 0x6
 1298 040e 36090000 		.4byte	.LASF53
 1299 0412 0A       		.byte	0xa
 1300 0413 31       		.byte	0x31
 1301 0414 1A040000 		.4byte	0x41a
 1302 0418 0C       		.byte	0xc
 1303 0419 00       		.byte	0
 1304 041a 09       		.uleb128 0x9
 1305 041b 04       		.byte	0x4
 1306 041c E9030000 		.4byte	0x3e9
 1307 0420 03       		.uleb128 0x3
 1308 0421 09040000 		.4byte	.LASF50
 1309 0425 0A       		.byte	0xa
 1310 0426 33       		.byte	0x33
 1311 0427 E9030000 		.4byte	0x3e9
 1312 042b 0E       		.uleb128 0xe
 1313 042c 04       		.byte	0x4
 1314 042d 08       		.byte	0x8
 1315 042e 96       		.byte	0x96
 1316 042f 60040000 		.4byte	0x460
 1317 0433 0F       		.uleb128 0xf
 1318 0434 BC080000 		.4byte	.LASF54
 1319 0438 08       		.byte	0x8
 1320 0439 9D       		.byte	0x9d
 1321 043a 13010000 		.4byte	0x113
 1322 043e 0F       		.uleb128 0xf
 1323 043f F7000000 		.4byte	.LASF55
 1324 0443 08       		.byte	0x8
 1325 0444 A4       		.byte	0xa4
 1326 0445 13010000 		.4byte	0x113
 1327 0449 0F       		.uleb128 0xf
 1328 044a 00030000 		.4byte	.LASF56
 1329 044e 08       		.byte	0x8
 1330 044f AB       		.byte	0xab
 1331 0450 75020000 		.4byte	0x275
 1332 0454 0F       		.uleb128 0xf
 1333 0455 1C010000 		.4byte	.LASF57
 1334 0459 08       		.byte	0x8
 1335 045a B2       		.byte	0xb2
 1336 045b 1E010000 		.4byte	0x11e
 1337 045f 00       		.byte	0
 1338 0460 09       		.uleb128 0x9
 1339 0461 04       		.byte	0x4
 1340 0462 66040000 		.4byte	0x466
 1341 0466 10       		.uleb128 0x10
 1342 0467 6B040000 		.4byte	0x46b
 1343 046b 02       		.uleb128 0x2
ARM GAS  /tmp/ccg0r710.s 			page 25


 1344 046c 01       		.byte	0x1
 1345 046d 08       		.byte	0x8
 1346 046e C7020000 		.4byte	.LASF58
 1347 0472 09       		.uleb128 0x9
 1348 0473 04       		.byte	0x4
 1349 0474 20040000 		.4byte	0x420
 1350 0478 09       		.uleb128 0x9
 1351 0479 04       		.byte	0x4
 1352 047a 97000000 		.4byte	0x97
 1353 047e 09       		.uleb128 0x9
 1354 047f 04       		.byte	0x4
 1355 0480 84040000 		.4byte	0x484
 1356 0484 10       		.uleb128 0x10
 1357 0485 97000000 		.4byte	0x97
 1358 0489 11       		.uleb128 0x11
 1359 048a B8000000 		.4byte	0xb8
 1360 048e 99040000 		.4byte	0x499
 1361 0492 12       		.uleb128 0x12
 1362 0493 C3000000 		.4byte	0xc3
 1363 0497 01       		.byte	0x1
 1364 0498 00       		.byte	0
 1365 0499 0D       		.uleb128 0xd
 1366 049a A2000000 		.4byte	0xa2
 1367 049e 0D       		.uleb128 0xd
 1368 049f AD000000 		.4byte	0xad
 1369 04a3 13       		.uleb128 0x13
 1370 04a4 18       		.byte	0x18
 1371 04a5 0B       		.byte	0xb
 1372 04a6 B102     		.2byte	0x2b1
 1373 04a8 FA040000 		.4byte	0x4fa
 1374 04ac 0C       		.uleb128 0xc
 1375 04ad 435200   		.ascii	"CR\000"
 1376 04b0 0B       		.byte	0xb
 1377 04b1 B302     		.2byte	0x2b3
 1378 04b3 E4030000 		.4byte	0x3e4
 1379 04b7 00       		.byte	0
 1380 04b8 14       		.uleb128 0x14
 1381 04b9 11090000 		.4byte	.LASF59
 1382 04bd 0B       		.byte	0xb
 1383 04be B402     		.2byte	0x2b4
 1384 04c0 E4030000 		.4byte	0x3e4
 1385 04c4 04       		.byte	0x4
 1386 04c5 0C       		.uleb128 0xc
 1387 04c6 50415200 		.ascii	"PAR\000"
 1388 04ca 0B       		.byte	0xb
 1389 04cb B502     		.2byte	0x2b5
 1390 04cd E4030000 		.4byte	0x3e4
 1391 04d1 08       		.byte	0x8
 1392 04d2 14       		.uleb128 0x14
 1393 04d3 B3060000 		.4byte	.LASF60
 1394 04d7 0B       		.byte	0xb
 1395 04d8 B602     		.2byte	0x2b6
 1396 04da E4030000 		.4byte	0x3e4
 1397 04de 0C       		.byte	0xc
 1398 04df 14       		.uleb128 0x14
 1399 04e0 00000000 		.4byte	.LASF61
 1400 04e4 0B       		.byte	0xb
ARM GAS  /tmp/ccg0r710.s 			page 26


 1401 04e5 B702     		.2byte	0x2b7
 1402 04e7 E4030000 		.4byte	0x3e4
 1403 04eb 10       		.byte	0x10
 1404 04ec 0C       		.uleb128 0xc
 1405 04ed 46435200 		.ascii	"FCR\000"
 1406 04f1 0B       		.byte	0xb
 1407 04f2 B802     		.2byte	0x2b8
 1408 04f4 E4030000 		.4byte	0x3e4
 1409 04f8 14       		.byte	0x14
 1410 04f9 00       		.byte	0
 1411 04fa 15       		.uleb128 0x15
 1412 04fb 44050000 		.4byte	.LASF62
 1413 04ff 0B       		.byte	0xb
 1414 0500 B902     		.2byte	0x2b9
 1415 0502 A3040000 		.4byte	0x4a3
 1416 0506 13       		.uleb128 0x13
 1417 0507 28       		.byte	0x28
 1418 0508 0B       		.byte	0xb
 1419 0509 F603     		.2byte	0x3f6
 1420 050b 13060000 		.4byte	0x613
 1421 050f 0C       		.uleb128 0xc
 1422 0510 43523100 		.ascii	"CR1\000"
 1423 0514 0B       		.byte	0xb
 1424 0515 F803     		.2byte	0x3f8
 1425 0517 99040000 		.4byte	0x499
 1426 051b 00       		.byte	0
 1427 051c 14       		.uleb128 0x14
 1428 051d 0F020000 		.4byte	.LASF63
 1429 0521 0B       		.byte	0xb
 1430 0522 F903     		.2byte	0x3f9
 1431 0524 A2000000 		.4byte	0xa2
 1432 0528 02       		.byte	0x2
 1433 0529 0C       		.uleb128 0xc
 1434 052a 43523200 		.ascii	"CR2\000"
 1435 052e 0B       		.byte	0xb
 1436 052f FA03     		.2byte	0x3fa
 1437 0531 99040000 		.4byte	0x499
 1438 0535 04       		.byte	0x4
 1439 0536 14       		.uleb128 0x14
 1440 0537 19020000 		.4byte	.LASF64
 1441 053b 0B       		.byte	0xb
 1442 053c FB03     		.2byte	0x3fb
 1443 053e A2000000 		.4byte	0xa2
 1444 0542 06       		.byte	0x6
 1445 0543 14       		.uleb128 0x14
 1446 0544 89060000 		.4byte	.LASF65
 1447 0548 0B       		.byte	0xb
 1448 0549 FC03     		.2byte	0x3fc
 1449 054b 99040000 		.4byte	0x499
 1450 054f 08       		.byte	0x8
 1451 0550 14       		.uleb128 0x14
 1452 0551 A4020000 		.4byte	.LASF66
 1453 0555 0B       		.byte	0xb
 1454 0556 FD03     		.2byte	0x3fd
 1455 0558 A2000000 		.4byte	0xa2
 1456 055c 0A       		.byte	0xa
 1457 055d 14       		.uleb128 0x14
ARM GAS  /tmp/ccg0r710.s 			page 27


 1458 055e 8E060000 		.4byte	.LASF67
 1459 0562 0B       		.byte	0xb
 1460 0563 FE03     		.2byte	0x3fe
 1461 0565 99040000 		.4byte	0x499
 1462 0569 0C       		.byte	0xc
 1463 056a 14       		.uleb128 0x14
 1464 056b 31020000 		.4byte	.LASF68
 1465 056f 0B       		.byte	0xb
 1466 0570 FF03     		.2byte	0x3ff
 1467 0572 A2000000 		.4byte	0xa2
 1468 0576 0E       		.byte	0xe
 1469 0577 0C       		.uleb128 0xc
 1470 0578 445200   		.ascii	"DR\000"
 1471 057b 0B       		.byte	0xb
 1472 057c 0004     		.2byte	0x400
 1473 057e 99040000 		.4byte	0x499
 1474 0582 10       		.byte	0x10
 1475 0583 14       		.uleb128 0x14
 1476 0584 3B020000 		.4byte	.LASF69
 1477 0588 0B       		.byte	0xb
 1478 0589 0104     		.2byte	0x401
 1479 058b A2000000 		.4byte	0xa2
 1480 058f 12       		.byte	0x12
 1481 0590 0C       		.uleb128 0xc
 1482 0591 53523100 		.ascii	"SR1\000"
 1483 0595 0B       		.byte	0xb
 1484 0596 0204     		.2byte	0x402
 1485 0598 99040000 		.4byte	0x499
 1486 059c 14       		.byte	0x14
 1487 059d 14       		.uleb128 0x14
 1488 059e 45020000 		.4byte	.LASF70
 1489 05a2 0B       		.byte	0xb
 1490 05a3 0304     		.2byte	0x403
 1491 05a5 A2000000 		.4byte	0xa2
 1492 05a9 16       		.byte	0x16
 1493 05aa 0C       		.uleb128 0xc
 1494 05ab 53523200 		.ascii	"SR2\000"
 1495 05af 0B       		.byte	0xb
 1496 05b0 0404     		.2byte	0x404
 1497 05b2 99040000 		.4byte	0x499
 1498 05b6 18       		.byte	0x18
 1499 05b7 14       		.uleb128 0x14
 1500 05b8 4F020000 		.4byte	.LASF71
 1501 05bc 0B       		.byte	0xb
 1502 05bd 0504     		.2byte	0x405
 1503 05bf A2000000 		.4byte	0xa2
 1504 05c3 1A       		.byte	0x1a
 1505 05c4 0C       		.uleb128 0xc
 1506 05c5 43435200 		.ascii	"CCR\000"
 1507 05c9 0B       		.byte	0xb
 1508 05ca 0604     		.2byte	0x406
 1509 05cc 99040000 		.4byte	0x499
 1510 05d0 1C       		.byte	0x1c
 1511 05d1 14       		.uleb128 0x14
 1512 05d2 59020000 		.4byte	.LASF72
 1513 05d6 0B       		.byte	0xb
 1514 05d7 0704     		.2byte	0x407
ARM GAS  /tmp/ccg0r710.s 			page 28


 1515 05d9 A2000000 		.4byte	0xa2
 1516 05dd 1E       		.byte	0x1e
 1517 05de 14       		.uleb128 0x14
 1518 05df CA030000 		.4byte	.LASF73
 1519 05e3 0B       		.byte	0xb
 1520 05e4 0804     		.2byte	0x408
 1521 05e6 99040000 		.4byte	0x499
 1522 05ea 20       		.byte	0x20
 1523 05eb 14       		.uleb128 0x14
 1524 05ec 63020000 		.4byte	.LASF74
 1525 05f0 0B       		.byte	0xb
 1526 05f1 0904     		.2byte	0x409
 1527 05f3 A2000000 		.4byte	0xa2
 1528 05f7 22       		.byte	0x22
 1529 05f8 14       		.uleb128 0x14
 1530 05f9 6C040000 		.4byte	.LASF75
 1531 05fd 0B       		.byte	0xb
 1532 05fe 0A04     		.2byte	0x40a
 1533 0600 99040000 		.4byte	0x499
 1534 0604 24       		.byte	0x24
 1535 0605 14       		.uleb128 0x14
 1536 0606 6D020000 		.4byte	.LASF76
 1537 060a 0B       		.byte	0xb
 1538 060b 0B04     		.2byte	0x40b
 1539 060d A2000000 		.4byte	0xa2
 1540 0611 26       		.byte	0x26
 1541 0612 00       		.byte	0
 1542 0613 15       		.uleb128 0x15
 1543 0614 34060000 		.4byte	.LASF77
 1544 0618 0B       		.byte	0xb
 1545 0619 0C04     		.2byte	0x40c
 1546 061b 06050000 		.4byte	0x506
 1547 061f 13       		.uleb128 0x13
 1548 0620 90       		.byte	0x90
 1549 0621 0B       		.byte	0xb
 1550 0622 5804     		.2byte	0x458
 1551 0624 C8070000 		.4byte	0x7c8
 1552 0628 0C       		.uleb128 0xc
 1553 0629 435200   		.ascii	"CR\000"
 1554 062c 0B       		.byte	0xb
 1555 062d 5A04     		.2byte	0x45a
 1556 062f E4030000 		.4byte	0x3e4
 1557 0633 00       		.byte	0
 1558 0634 14       		.uleb128 0x14
 1559 0635 F0030000 		.4byte	.LASF78
 1560 0639 0B       		.byte	0xb
 1561 063a 5B04     		.2byte	0x45b
 1562 063c E4030000 		.4byte	0x3e4
 1563 0640 04       		.byte	0x4
 1564 0641 14       		.uleb128 0x14
 1565 0642 96030000 		.4byte	.LASF79
 1566 0646 0B       		.byte	0xb
 1567 0647 5C04     		.2byte	0x45c
 1568 0649 E4030000 		.4byte	0x3e4
 1569 064d 08       		.byte	0x8
 1570 064e 0C       		.uleb128 0xc
 1571 064f 43495200 		.ascii	"CIR\000"
ARM GAS  /tmp/ccg0r710.s 			page 29


 1572 0653 0B       		.byte	0xb
 1573 0654 5D04     		.2byte	0x45d
 1574 0656 E4030000 		.4byte	0x3e4
 1575 065a 0C       		.byte	0xc
 1576 065b 14       		.uleb128 0x14
 1577 065c D3020000 		.4byte	.LASF80
 1578 0660 0B       		.byte	0xb
 1579 0661 5E04     		.2byte	0x45e
 1580 0663 E4030000 		.4byte	0x3e4
 1581 0667 10       		.byte	0x10
 1582 0668 14       		.uleb128 0x14
 1583 0669 A3060000 		.4byte	.LASF81
 1584 066d 0B       		.byte	0xb
 1585 066e 5F04     		.2byte	0x45f
 1586 0670 E4030000 		.4byte	0x3e4
 1587 0674 14       		.byte	0x14
 1588 0675 14       		.uleb128 0x14
 1589 0676 57050000 		.4byte	.LASF82
 1590 067a 0B       		.byte	0xb
 1591 067b 6004     		.2byte	0x460
 1592 067d E4030000 		.4byte	0x3e4
 1593 0681 18       		.byte	0x18
 1594 0682 14       		.uleb128 0x14
 1595 0683 0F020000 		.4byte	.LASF63
 1596 0687 0B       		.byte	0xb
 1597 0688 6104     		.2byte	0x461
 1598 068a B8000000 		.4byte	0xb8
 1599 068e 1C       		.byte	0x1c
 1600 068f 14       		.uleb128 0x14
 1601 0690 9C050000 		.4byte	.LASF83
 1602 0694 0B       		.byte	0xb
 1603 0695 6204     		.2byte	0x462
 1604 0697 E4030000 		.4byte	0x3e4
 1605 069b 20       		.byte	0x20
 1606 069c 14       		.uleb128 0x14
 1607 069d 45040000 		.4byte	.LASF84
 1608 06a1 0B       		.byte	0xb
 1609 06a2 6304     		.2byte	0x463
 1610 06a4 E4030000 		.4byte	0x3e4
 1611 06a8 24       		.byte	0x24
 1612 06a9 14       		.uleb128 0x14
 1613 06aa 19020000 		.4byte	.LASF64
 1614 06ae 0B       		.byte	0xb
 1615 06af 6404     		.2byte	0x464
 1616 06b1 89040000 		.4byte	0x489
 1617 06b5 28       		.byte	0x28
 1618 06b6 14       		.uleb128 0x14
 1619 06b7 93060000 		.4byte	.LASF85
 1620 06bb 0B       		.byte	0xb
 1621 06bc 6504     		.2byte	0x465
 1622 06be E4030000 		.4byte	0x3e4
 1623 06c2 30       		.byte	0x30
 1624 06c3 14       		.uleb128 0x14
 1625 06c4 F8020000 		.4byte	.LASF86
 1626 06c8 0B       		.byte	0xb
 1627 06c9 6604     		.2byte	0x466
 1628 06cb E4030000 		.4byte	0x3e4
ARM GAS  /tmp/ccg0r710.s 			page 30


 1629 06cf 34       		.byte	0x34
 1630 06d0 14       		.uleb128 0x14
 1631 06d1 9B060000 		.4byte	.LASF87
 1632 06d5 0B       		.byte	0xb
 1633 06d6 6704     		.2byte	0x467
 1634 06d8 E4030000 		.4byte	0x3e4
 1635 06dc 38       		.byte	0x38
 1636 06dd 14       		.uleb128 0x14
 1637 06de A4020000 		.4byte	.LASF66
 1638 06e2 0B       		.byte	0xb
 1639 06e3 6804     		.2byte	0x468
 1640 06e5 B8000000 		.4byte	0xb8
 1641 06e9 3C       		.byte	0x3c
 1642 06ea 14       		.uleb128 0x14
 1643 06eb B4050000 		.4byte	.LASF88
 1644 06ef 0B       		.byte	0xb
 1645 06f0 6904     		.2byte	0x469
 1646 06f2 E4030000 		.4byte	0x3e4
 1647 06f6 40       		.byte	0x40
 1648 06f7 14       		.uleb128 0x14
 1649 06f8 AE010000 		.4byte	.LASF89
 1650 06fc 0B       		.byte	0xb
 1651 06fd 6A04     		.2byte	0x46a
 1652 06ff E4030000 		.4byte	0x3e4
 1653 0703 44       		.byte	0x44
 1654 0704 14       		.uleb128 0x14
 1655 0705 31020000 		.4byte	.LASF68
 1656 0709 0B       		.byte	0xb
 1657 070a 6B04     		.2byte	0x46b
 1658 070c 89040000 		.4byte	0x489
 1659 0710 48       		.byte	0x48
 1660 0711 14       		.uleb128 0x14
 1661 0712 B6010000 		.4byte	.LASF90
 1662 0716 0B       		.byte	0xb
 1663 0717 6C04     		.2byte	0x46c
 1664 0719 E4030000 		.4byte	0x3e4
 1665 071d 50       		.byte	0x50
 1666 071e 14       		.uleb128 0x14
 1667 071f 23010000 		.4byte	.LASF91
 1668 0723 0B       		.byte	0xb
 1669 0724 6D04     		.2byte	0x46d
 1670 0726 E4030000 		.4byte	0x3e4
 1671 072a 54       		.byte	0x54
 1672 072b 14       		.uleb128 0x14
 1673 072c 57060000 		.4byte	.LASF92
 1674 0730 0B       		.byte	0xb
 1675 0731 6E04     		.2byte	0x46e
 1676 0733 E4030000 		.4byte	0x3e4
 1677 0737 58       		.byte	0x58
 1678 0738 14       		.uleb128 0x14
 1679 0739 3B020000 		.4byte	.LASF69
 1680 073d 0B       		.byte	0xb
 1681 073e 6F04     		.2byte	0x46f
 1682 0740 B8000000 		.4byte	0xb8
 1683 0744 5C       		.byte	0x5c
 1684 0745 14       		.uleb128 0x14
 1685 0746 35050000 		.4byte	.LASF93
ARM GAS  /tmp/ccg0r710.s 			page 31


 1686 074a 0B       		.byte	0xb
 1687 074b 7004     		.2byte	0x470
 1688 074d E4030000 		.4byte	0x3e4
 1689 0751 60       		.byte	0x60
 1690 0752 14       		.uleb128 0x14
 1691 0753 A0040000 		.4byte	.LASF94
 1692 0757 0B       		.byte	0xb
 1693 0758 7104     		.2byte	0x471
 1694 075a E4030000 		.4byte	0x3e4
 1695 075e 64       		.byte	0x64
 1696 075f 14       		.uleb128 0x14
 1697 0760 45020000 		.4byte	.LASF70
 1698 0764 0B       		.byte	0xb
 1699 0765 7204     		.2byte	0x472
 1700 0767 89040000 		.4byte	0x489
 1701 076b 68       		.byte	0x68
 1702 076c 14       		.uleb128 0x14
 1703 076d 48030000 		.4byte	.LASF95
 1704 0771 0B       		.byte	0xb
 1705 0772 7304     		.2byte	0x473
 1706 0774 E4030000 		.4byte	0x3e4
 1707 0778 70       		.byte	0x70
 1708 0779 0C       		.uleb128 0xc
 1709 077a 43535200 		.ascii	"CSR\000"
 1710 077e 0B       		.byte	0xb
 1711 077f 7404     		.2byte	0x474
 1712 0781 E4030000 		.4byte	0x3e4
 1713 0785 74       		.byte	0x74
 1714 0786 14       		.uleb128 0x14
 1715 0787 4F020000 		.4byte	.LASF71
 1716 078b 0B       		.byte	0xb
 1717 078c 7504     		.2byte	0x475
 1718 078e 89040000 		.4byte	0x489
 1719 0792 78       		.byte	0x78
 1720 0793 14       		.uleb128 0x14
 1721 0794 3A040000 		.4byte	.LASF96
 1722 0798 0B       		.byte	0xb
 1723 0799 7604     		.2byte	0x476
 1724 079b E4030000 		.4byte	0x3e4
 1725 079f 80       		.byte	0x80
 1726 07a0 14       		.uleb128 0x14
 1727 07a1 33000000 		.4byte	.LASF97
 1728 07a5 0B       		.byte	0xb
 1729 07a6 7704     		.2byte	0x477
 1730 07a8 E4030000 		.4byte	0x3e4
 1731 07ac 84       		.byte	0x84
 1732 07ad 14       		.uleb128 0x14
 1733 07ae B1080000 		.4byte	.LASF98
 1734 07b2 0B       		.byte	0xb
 1735 07b3 7804     		.2byte	0x478
 1736 07b5 E4030000 		.4byte	0x3e4
 1737 07b9 88       		.byte	0x88
 1738 07ba 14       		.uleb128 0x14
 1739 07bb C0010000 		.4byte	.LASF99
 1740 07bf 0B       		.byte	0xb
 1741 07c0 7904     		.2byte	0x479
 1742 07c2 E4030000 		.4byte	0x3e4
ARM GAS  /tmp/ccg0r710.s 			page 32


 1743 07c6 8C       		.byte	0x8c
 1744 07c7 00       		.byte	0
 1745 07c8 15       		.uleb128 0x15
 1746 07c9 B8060000 		.4byte	.LASF100
 1747 07cd 0B       		.byte	0xb
 1748 07ce 7B04     		.2byte	0x47b
 1749 07d0 1F060000 		.4byte	0x61f
 1750 07d4 13       		.uleb128 0x13
 1751 07d5 24       		.byte	0x24
 1752 07d6 0B       		.byte	0xb
 1753 07d7 E304     		.2byte	0x4e3
 1754 07d9 C6080000 		.4byte	0x8c6
 1755 07dd 0C       		.uleb128 0xc
 1756 07de 43523100 		.ascii	"CR1\000"
 1757 07e2 0B       		.byte	0xb
 1758 07e3 E504     		.2byte	0x4e5
 1759 07e5 99040000 		.4byte	0x499
 1760 07e9 00       		.byte	0
 1761 07ea 14       		.uleb128 0x14
 1762 07eb 0F020000 		.4byte	.LASF63
 1763 07ef 0B       		.byte	0xb
 1764 07f0 E604     		.2byte	0x4e6
 1765 07f2 A2000000 		.4byte	0xa2
 1766 07f6 02       		.byte	0x2
 1767 07f7 0C       		.uleb128 0xc
 1768 07f8 43523200 		.ascii	"CR2\000"
 1769 07fc 0B       		.byte	0xb
 1770 07fd E704     		.2byte	0x4e7
 1771 07ff 99040000 		.4byte	0x499
 1772 0803 04       		.byte	0x4
 1773 0804 14       		.uleb128 0x14
 1774 0805 19020000 		.4byte	.LASF64
 1775 0809 0B       		.byte	0xb
 1776 080a E804     		.2byte	0x4e8
 1777 080c A2000000 		.4byte	0xa2
 1778 0810 06       		.byte	0x6
 1779 0811 0C       		.uleb128 0xc
 1780 0812 535200   		.ascii	"SR\000"
 1781 0815 0B       		.byte	0xb
 1782 0816 E904     		.2byte	0x4e9
 1783 0818 99040000 		.4byte	0x499
 1784 081c 08       		.byte	0x8
 1785 081d 14       		.uleb128 0x14
 1786 081e A4020000 		.4byte	.LASF66
 1787 0822 0B       		.byte	0xb
 1788 0823 EA04     		.2byte	0x4ea
 1789 0825 A2000000 		.4byte	0xa2
 1790 0829 0A       		.byte	0xa
 1791 082a 0C       		.uleb128 0xc
 1792 082b 445200   		.ascii	"DR\000"
 1793 082e 0B       		.byte	0xb
 1794 082f EB04     		.2byte	0x4eb
 1795 0831 99040000 		.4byte	0x499
 1796 0835 0C       		.byte	0xc
 1797 0836 14       		.uleb128 0x14
 1798 0837 31020000 		.4byte	.LASF68
 1799 083b 0B       		.byte	0xb
ARM GAS  /tmp/ccg0r710.s 			page 33


 1800 083c EC04     		.2byte	0x4ec
 1801 083e A2000000 		.4byte	0xa2
 1802 0842 0E       		.byte	0xe
 1803 0843 14       		.uleb128 0x14
 1804 0844 83060000 		.4byte	.LASF101
 1805 0848 0B       		.byte	0xb
 1806 0849 ED04     		.2byte	0x4ed
 1807 084b 99040000 		.4byte	0x499
 1808 084f 10       		.byte	0x10
 1809 0850 14       		.uleb128 0x14
 1810 0851 3B020000 		.4byte	.LASF69
 1811 0855 0B       		.byte	0xb
 1812 0856 EE04     		.2byte	0x4ee
 1813 0858 A2000000 		.4byte	0xa2
 1814 085c 12       		.byte	0x12
 1815 085d 14       		.uleb128 0x14
 1816 085e 8F040000 		.4byte	.LASF102
 1817 0862 0B       		.byte	0xb
 1818 0863 EF04     		.2byte	0x4ef
 1819 0865 99040000 		.4byte	0x499
 1820 0869 14       		.byte	0x14
 1821 086a 14       		.uleb128 0x14
 1822 086b 45020000 		.4byte	.LASF70
 1823 086f 0B       		.byte	0xb
 1824 0870 F004     		.2byte	0x4f0
 1825 0872 A2000000 		.4byte	0xa2
 1826 0876 16       		.byte	0x16
 1827 0877 14       		.uleb128 0x14
 1828 0878 68060000 		.4byte	.LASF103
 1829 087c 0B       		.byte	0xb
 1830 087d F104     		.2byte	0x4f1
 1831 087f 99040000 		.4byte	0x499
 1832 0883 18       		.byte	0x18
 1833 0884 14       		.uleb128 0x14
 1834 0885 4F020000 		.4byte	.LASF71
 1835 0889 0B       		.byte	0xb
 1836 088a F204     		.2byte	0x4f2
 1837 088c A2000000 		.4byte	0xa2
 1838 0890 1A       		.byte	0x1a
 1839 0891 14       		.uleb128 0x14
 1840 0892 00010000 		.4byte	.LASF104
 1841 0896 0B       		.byte	0xb
 1842 0897 F304     		.2byte	0x4f3
 1843 0899 99040000 		.4byte	0x499
 1844 089d 1C       		.byte	0x1c
 1845 089e 14       		.uleb128 0x14
 1846 089f 59020000 		.4byte	.LASF72
 1847 08a3 0B       		.byte	0xb
 1848 08a4 F404     		.2byte	0x4f4
 1849 08a6 A2000000 		.4byte	0xa2
 1850 08aa 1E       		.byte	0x1e
 1851 08ab 14       		.uleb128 0x14
 1852 08ac 70080000 		.4byte	.LASF105
 1853 08b0 0B       		.byte	0xb
 1854 08b1 F504     		.2byte	0x4f5
 1855 08b3 99040000 		.4byte	0x499
 1856 08b7 20       		.byte	0x20
ARM GAS  /tmp/ccg0r710.s 			page 34


 1857 08b8 14       		.uleb128 0x14
 1858 08b9 63020000 		.4byte	.LASF74
 1859 08bd 0B       		.byte	0xb
 1860 08be F604     		.2byte	0x4f6
 1861 08c0 A2000000 		.4byte	0xa2
 1862 08c4 22       		.byte	0x22
 1863 08c5 00       		.byte	0
 1864 08c6 15       		.uleb128 0x15
 1865 08c7 6F060000 		.4byte	.LASF106
 1866 08cb 0B       		.byte	0xb
 1867 08cc F704     		.2byte	0x4f7
 1868 08ce D4070000 		.4byte	0x7d4
 1869 08d2 08       		.uleb128 0x8
 1870 08d3 0C       		.byte	0xc
 1871 08d4 0C       		.byte	0xc
 1872 08d5 DA       		.byte	0xda
 1873 08d6 17090000 		.4byte	0x917
 1874 08da 06       		.uleb128 0x6
 1875 08db 1C030000 		.4byte	.LASF107
 1876 08df 0C       		.byte	0xc
 1877 08e0 DB       		.byte	0xdb
 1878 08e1 17090000 		.4byte	0x917
 1879 08e5 00       		.byte	0
 1880 08e6 06       		.uleb128 0x6
 1881 08e7 16090000 		.4byte	.LASF108
 1882 08eb 0C       		.byte	0xc
 1883 08ec DC       		.byte	0xdc
 1884 08ed 1D090000 		.4byte	0x91d
 1885 08f1 04       		.byte	0x4
 1886 08f2 06       		.uleb128 0x6
 1887 08f3 CC020000 		.4byte	.LASF109
 1888 08f7 0C       		.byte	0xc
 1889 08f8 DD       		.byte	0xdd
 1890 08f9 97000000 		.4byte	0x97
 1891 08fd 08       		.byte	0x8
 1892 08fe 06       		.uleb128 0x6
 1893 08ff D2040000 		.4byte	.LASF110
 1894 0903 0C       		.byte	0xc
 1895 0904 DF       		.byte	0xdf
 1896 0905 97000000 		.4byte	0x97
 1897 0909 09       		.byte	0x9
 1898 090a 06       		.uleb128 0x6
 1899 090b 2D060000 		.4byte	.LASF111
 1900 090f 0C       		.byte	0xc
 1901 0910 E0       		.byte	0xe0
 1902 0911 97000000 		.4byte	0x97
 1903 0915 0A       		.byte	0xa
 1904 0916 00       		.byte	0
 1905 0917 09       		.uleb128 0x9
 1906 0918 04       		.byte	0x4
 1907 0919 FA040000 		.4byte	0x4fa
 1908 091d 09       		.uleb128 0x9
 1909 091e 04       		.byte	0x4
 1910 091f E4030000 		.4byte	0x3e4
 1911 0923 03       		.uleb128 0x3
 1912 0924 D0030000 		.4byte	.LASF112
 1913 0928 0C       		.byte	0xc
ARM GAS  /tmp/ccg0r710.s 			page 35


 1914 0929 E1       		.byte	0xe1
 1915 092a D2080000 		.4byte	0x8d2
 1916 092e 03       		.uleb128 0x3
 1917 092f A5050000 		.4byte	.LASF113
 1918 0933 0C       		.byte	0xc
 1919 0934 EA       		.byte	0xea
 1920 0935 39090000 		.4byte	0x939
 1921 0939 09       		.uleb128 0x9
 1922 093a 04       		.byte	0x4
 1923 093b 3F090000 		.4byte	0x93f
 1924 093f 16       		.uleb128 0x16
 1925 0940 4F090000 		.4byte	0x94f
 1926 0944 17       		.uleb128 0x17
 1927 0945 75020000 		.4byte	0x275
 1928 0949 17       		.uleb128 0x17
 1929 094a B8000000 		.4byte	0xb8
 1930 094e 00       		.byte	0
 1931 094f 08       		.uleb128 0x8
 1932 0950 04       		.byte	0x4
 1933 0951 0D       		.byte	0xd
 1934 0952 96       		.byte	0x96
 1935 0953 70090000 		.4byte	0x970
 1936 0957 07       		.uleb128 0x7
 1937 0958 73657400 		.ascii	"set\000"
 1938 095c 0D       		.byte	0xd
 1939 095d 97       		.byte	0x97
 1940 095e A2000000 		.4byte	0xa2
 1941 0962 00       		.byte	0
 1942 0963 06       		.uleb128 0x6
 1943 0964 90030000 		.4byte	.LASF114
 1944 0968 0D       		.byte	0xd
 1945 0969 98       		.byte	0x98
 1946 096a A2000000 		.4byte	0xa2
 1947 096e 02       		.byte	0x2
 1948 096f 00       		.byte	0
 1949 0970 0E       		.uleb128 0xe
 1950 0971 04       		.byte	0x4
 1951 0972 0D       		.byte	0xd
 1952 0973 94       		.byte	0x94
 1953 0974 8B090000 		.4byte	0x98b
 1954 0978 18       		.uleb128 0x18
 1955 0979 5700     		.ascii	"W\000"
 1956 097b 0D       		.byte	0xd
 1957 097c 95       		.byte	0x95
 1958 097d B8000000 		.4byte	0xb8
 1959 0981 18       		.uleb128 0x18
 1960 0982 4800     		.ascii	"H\000"
 1961 0984 0D       		.byte	0xd
 1962 0985 99       		.byte	0x99
 1963 0986 4F090000 		.4byte	0x94f
 1964 098a 00       		.byte	0
 1965 098b 08       		.uleb128 0x8
 1966 098c 28       		.byte	0x28
 1967 098d 0D       		.byte	0xd
 1968 098e 8C       		.byte	0x8c
 1969 098f 0C0A0000 		.4byte	0xa0c
 1970 0993 06       		.uleb128 0x6
ARM GAS  /tmp/ccg0r710.s 			page 36


 1971 0994 BF040000 		.4byte	.LASF115
 1972 0998 0D       		.byte	0xd
 1973 0999 8E       		.byte	0x8e
 1974 099a E4030000 		.4byte	0x3e4
 1975 099e 00       		.byte	0
 1976 099f 06       		.uleb128 0x6
 1977 09a0 61060000 		.4byte	.LASF116
 1978 09a4 0D       		.byte	0xd
 1979 09a5 8F       		.byte	0x8f
 1980 09a6 E4030000 		.4byte	0x3e4
 1981 09aa 04       		.byte	0x4
 1982 09ab 06       		.uleb128 0x6
 1983 09ac E8030000 		.4byte	.LASF117
 1984 09b0 0D       		.byte	0xd
 1985 09b1 90       		.byte	0x90
 1986 09b2 E4030000 		.4byte	0x3e4
 1987 09b6 08       		.byte	0x8
 1988 09b7 06       		.uleb128 0x6
 1989 09b8 2D010000 		.4byte	.LASF118
 1990 09bc 0D       		.byte	0xd
 1991 09bd 91       		.byte	0x91
 1992 09be E4030000 		.4byte	0x3e4
 1993 09c2 0C       		.byte	0xc
 1994 09c3 07       		.uleb128 0x7
 1995 09c4 49445200 		.ascii	"IDR\000"
 1996 09c8 0D       		.byte	0xd
 1997 09c9 92       		.byte	0x92
 1998 09ca E4030000 		.4byte	0x3e4
 1999 09ce 10       		.byte	0x10
 2000 09cf 07       		.uleb128 0x7
 2001 09d0 4F445200 		.ascii	"ODR\000"
 2002 09d4 0D       		.byte	0xd
 2003 09d5 93       		.byte	0x93
 2004 09d6 E4030000 		.4byte	0x3e4
 2005 09da 14       		.byte	0x14
 2006 09db 06       		.uleb128 0x6
 2007 09dc 44070000 		.4byte	.LASF119
 2008 09e0 0D       		.byte	0xd
 2009 09e1 9A       		.byte	0x9a
 2010 09e2 0C0A0000 		.4byte	0xa0c
 2011 09e6 18       		.byte	0x18
 2012 09e7 06       		.uleb128 0x6
 2013 09e8 E3030000 		.4byte	.LASF120
 2014 09ec 0D       		.byte	0xd
 2015 09ed 9B       		.byte	0x9b
 2016 09ee E4030000 		.4byte	0x3e4
 2017 09f2 1C       		.byte	0x1c
 2018 09f3 06       		.uleb128 0x6
 2019 09f4 28060000 		.4byte	.LASF121
 2020 09f8 0D       		.byte	0xd
 2021 09f9 9C       		.byte	0x9c
 2022 09fa E4030000 		.4byte	0x3e4
 2023 09fe 20       		.byte	0x20
 2024 09ff 06       		.uleb128 0x6
 2025 0a00 23060000 		.4byte	.LASF122
 2026 0a04 0D       		.byte	0xd
 2027 0a05 9D       		.byte	0x9d
ARM GAS  /tmp/ccg0r710.s 			page 37


 2028 0a06 E4030000 		.4byte	0x3e4
 2029 0a0a 24       		.byte	0x24
 2030 0a0b 00       		.byte	0
 2031 0a0c 0D       		.uleb128 0xd
 2032 0a0d 70090000 		.4byte	0x970
 2033 0a11 03       		.uleb128 0x3
 2034 0a12 50070000 		.4byte	.LASF123
 2035 0a16 0D       		.byte	0xd
 2036 0a17 9E       		.byte	0x9e
 2037 0a18 8B090000 		.4byte	0x98b
 2038 0a1c 03       		.uleb128 0x3
 2039 0a1d 29030000 		.4byte	.LASF124
 2040 0a21 0D       		.byte	0xd
 2041 0a22 F0       		.byte	0xf0
 2042 0a23 B8000000 		.4byte	0xb8
 2043 0a27 03       		.uleb128 0x3
 2044 0a28 C9000000 		.4byte	.LASF125
 2045 0a2c 0D       		.byte	0xd
 2046 0a2d F5       		.byte	0xf5
 2047 0a2e B8000000 		.4byte	0xb8
 2048 0a32 03       		.uleb128 0x3
 2049 0a33 87010000 		.4byte	.LASF126
 2050 0a37 0D       		.byte	0xd
 2051 0a38 FD       		.byte	0xfd
 2052 0a39 3D0A0000 		.4byte	0xa3d
 2053 0a3d 09       		.uleb128 0x9
 2054 0a3e 04       		.byte	0x4
 2055 0a3f 110A0000 		.4byte	0xa11
 2056 0a43 09       		.uleb128 0x9
 2057 0a44 04       		.byte	0x4
 2058 0a45 490A0000 		.4byte	0xa49
 2059 0a49 10       		.uleb128 0x10
 2060 0a4a 23090000 		.4byte	0x923
 2061 0a4e 19       		.uleb128 0x19
 2062 0a4f 01       		.byte	0x1
 2063 0a50 0E       		.byte	0xe
 2064 0a51 5A       		.byte	0x5a
 2065 0a52 7B0A0000 		.4byte	0xa7b
 2066 0a56 1A       		.uleb128 0x1a
 2067 0a57 27040000 		.4byte	.LASF127
 2068 0a5b 00       		.sleb128 0
 2069 0a5c 1A       		.uleb128 0x1a
 2070 0a5d 21090000 		.4byte	.LASF128
 2071 0a61 01       		.sleb128 1
 2072 0a62 1A       		.uleb128 0x1a
 2073 0a63 24050000 		.4byte	.LASF129
 2074 0a67 02       		.sleb128 2
 2075 0a68 1A       		.uleb128 0x1a
 2076 0a69 0E030000 		.4byte	.LASF130
 2077 0a6d 03       		.sleb128 3
 2078 0a6e 1A       		.uleb128 0x1a
 2079 0a6f 90020000 		.4byte	.LASF131
 2080 0a73 04       		.sleb128 4
 2081 0a74 1A       		.uleb128 0x1a
 2082 0a75 7A030000 		.4byte	.LASF132
 2083 0a79 05       		.sleb128 5
 2084 0a7a 00       		.byte	0
ARM GAS  /tmp/ccg0r710.s 			page 38


 2085 0a7b 03       		.uleb128 0x3
 2086 0a7c 71040000 		.4byte	.LASF133
 2087 0a80 0E       		.byte	0xe
 2088 0a81 61       		.byte	0x61
 2089 0a82 4E0A0000 		.4byte	0xa4e
 2090 0a86 15       		.uleb128 0x15
 2091 0a87 12010000 		.4byte	.LASF134
 2092 0a8b 0F       		.byte	0xf
 2093 0a8c 3501     		.2byte	0x135
 2094 0a8e A2000000 		.4byte	0xa2
 2095 0a92 15       		.uleb128 0x15
 2096 0a93 90080000 		.4byte	.LASF135
 2097 0a97 0F       		.byte	0xf
 2098 0a98 3A01     		.2byte	0x13a
 2099 0a9a B8000000 		.4byte	0xb8
 2100 0a9e 1B       		.uleb128 0x1b
 2101 0a9f 01       		.byte	0x1
 2102 0aa0 0F       		.byte	0xf
 2103 0aa1 3F01     		.2byte	0x13f
 2104 0aa3 BA0A0000 		.4byte	0xaba
 2105 0aa7 1A       		.uleb128 0x1a
 2106 0aa8 BC020000 		.4byte	.LASF136
 2107 0aac 01       		.sleb128 1
 2108 0aad 1A       		.uleb128 0x1a
 2109 0aae 05060000 		.4byte	.LASF137
 2110 0ab2 02       		.sleb128 2
 2111 0ab3 1A       		.uleb128 0x1a
 2112 0ab4 2B070000 		.4byte	.LASF138
 2113 0ab8 03       		.sleb128 3
 2114 0ab9 00       		.byte	0
 2115 0aba 15       		.uleb128 0x15
 2116 0abb EA050000 		.4byte	.LASF139
 2117 0abf 0F       		.byte	0xf
 2118 0ac0 4301     		.2byte	0x143
 2119 0ac2 9E0A0000 		.4byte	0xa9e
 2120 0ac6 1B       		.uleb128 0x1b
 2121 0ac7 01       		.byte	0x1
 2122 0ac8 0F       		.byte	0xf
 2123 0ac9 4801     		.2byte	0x148
 2124 0acb E20A0000 		.4byte	0xae2
 2125 0acf 1A       		.uleb128 0x1a
 2126 0ad0 40060000 		.4byte	.LASF140
 2127 0ad4 01       		.sleb128 1
 2128 0ad5 1A       		.uleb128 0x1a
 2129 0ad6 79000000 		.4byte	.LASF141
 2130 0ada 02       		.sleb128 2
 2131 0adb 1A       		.uleb128 0x1a
 2132 0adc 60050000 		.4byte	.LASF142
 2133 0ae0 03       		.sleb128 3
 2134 0ae1 00       		.byte	0
 2135 0ae2 15       		.uleb128 0x15
 2136 0ae3 33010000 		.4byte	.LASF143
 2137 0ae7 0F       		.byte	0xf
 2138 0ae8 4C01     		.2byte	0x14c
 2139 0aea C60A0000 		.4byte	0xac6
 2140 0aee 13       		.uleb128 0x13
 2141 0aef 0C       		.byte	0xc
ARM GAS  /tmp/ccg0r710.s 			page 39


 2142 0af0 0F       		.byte	0xf
 2143 0af1 5101     		.2byte	0x151
 2144 0af3 1F0B0000 		.4byte	0xb1f
 2145 0af7 14       		.uleb128 0x14
 2146 0af8 5F080000 		.4byte	.LASF144
 2147 0afc 0F       		.byte	0xf
 2148 0afd 5201     		.2byte	0x152
 2149 0aff BA0A0000 		.4byte	0xaba
 2150 0b03 00       		.byte	0
 2151 0b04 14       		.uleb128 0x14
 2152 0b05 F0080000 		.4byte	.LASF145
 2153 0b09 0F       		.byte	0xf
 2154 0b0a 5301     		.2byte	0x153
 2155 0b0c B8000000 		.4byte	0xb8
 2156 0b10 04       		.byte	0x4
 2157 0b11 14       		.uleb128 0x14
 2158 0b12 85030000 		.4byte	.LASF146
 2159 0b16 0F       		.byte	0xf
 2160 0b17 5601     		.2byte	0x156
 2161 0b19 E20A0000 		.4byte	0xae2
 2162 0b1d 08       		.byte	0x8
 2163 0b1e 00       		.byte	0
 2164 0b1f 15       		.uleb128 0x15
 2165 0b20 92050000 		.4byte	.LASF147
 2166 0b24 0F       		.byte	0xf
 2167 0b25 5801     		.2byte	0x158
 2168 0b27 EE0A0000 		.4byte	0xaee
 2169 0b2b 15       		.uleb128 0x15
 2170 0b2c 9B030000 		.4byte	.LASF148
 2171 0b30 0F       		.byte	0xf
 2172 0b31 5D01     		.2byte	0x15d
 2173 0b33 370B0000 		.4byte	0xb37
 2174 0b37 0B       		.uleb128 0xb
 2175 0b38 9B030000 		.4byte	.LASF148
 2176 0b3c 38       		.byte	0x38
 2177 0b3d 0F       		.byte	0xf
 2178 0b3e 6201     		.2byte	0x162
 2179 0b40 D40B0000 		.4byte	0xbd4
 2180 0b44 14       		.uleb128 0x14
 2181 0b45 92000000 		.4byte	.LASF149
 2182 0b49 0F       		.byte	0xf
 2183 0b4a 6601     		.2byte	0x166
 2184 0b4c 7B0A0000 		.4byte	0xa7b
 2185 0b50 00       		.byte	0
 2186 0b51 14       		.uleb128 0x14
 2187 0b52 8B000000 		.4byte	.LASF150
 2188 0b56 0F       		.byte	0xf
 2189 0b57 6A01     		.2byte	0x16a
 2190 0b59 D40B0000 		.4byte	0xbd4
 2191 0b5d 04       		.byte	0x4
 2192 0b5e 14       		.uleb128 0x14
 2193 0b5f 07030000 		.4byte	.LASF151
 2194 0b63 0F       		.byte	0xf
 2195 0b64 6E01     		.2byte	0x16e
 2196 0b66 920A0000 		.4byte	0xa92
 2197 0b6a 08       		.byte	0x8
 2198 0b6b 14       		.uleb128 0x14
ARM GAS  /tmp/ccg0r710.s 			page 40


 2199 0b6c 7C040000 		.4byte	.LASF152
 2200 0b70 0F       		.byte	0xf
 2201 0b71 7401     		.2byte	0x174
 2202 0b73 20040000 		.4byte	0x420
 2203 0b77 0C       		.byte	0xc
 2204 0b78 14       		.uleb128 0x14
 2205 0b79 AC060000 		.4byte	.LASF153
 2206 0b7d 0F       		.byte	0xf
 2207 0b7e 8001     		.2byte	0x180
 2208 0b80 39020000 		.4byte	0x239
 2209 0b84 1C       		.byte	0x1c
 2210 0b85 14       		.uleb128 0x14
 2211 0b86 B4040000 		.4byte	.LASF154
 2212 0b8a 0F       		.byte	0xf
 2213 0b8b 8401     		.2byte	0x184
 2214 0b8d 860A0000 		.4byte	0xa86
 2215 0b91 20       		.byte	0x20
 2216 0b92 14       		.uleb128 0x14
 2217 0b93 96040000 		.4byte	.LASF155
 2218 0b97 0F       		.byte	0xf
 2219 0b98 8801     		.2byte	0x188
 2220 0b9a B8000000 		.4byte	0xb8
 2221 0b9e 24       		.byte	0x24
 2222 0b9f 14       		.uleb128 0x14
 2223 0ba0 3D090000 		.4byte	.LASF156
 2224 0ba4 0F       		.byte	0xf
 2225 0ba5 8C01     		.2byte	0x18c
 2226 0ba7 B8000000 		.4byte	0xb8
 2227 0bab 28       		.byte	0x28
 2228 0bac 14       		.uleb128 0x14
 2229 0bad F8030000 		.4byte	.LASF157
 2230 0bb1 0F       		.byte	0xf
 2231 0bb2 9001     		.2byte	0x190
 2232 0bb4 430A0000 		.4byte	0xa43
 2233 0bb8 2C       		.byte	0x2c
 2234 0bb9 14       		.uleb128 0x14
 2235 0bba B9040000 		.4byte	.LASF158
 2236 0bbe 0F       		.byte	0xf
 2237 0bbf 9401     		.2byte	0x194
 2238 0bc1 430A0000 		.4byte	0xa43
 2239 0bc5 30       		.byte	0x30
 2240 0bc6 0C       		.uleb128 0xc
 2241 0bc7 69326300 		.ascii	"i2c\000"
 2242 0bcb 0F       		.byte	0xf
 2243 0bcc 9801     		.2byte	0x198
 2244 0bce DF0B0000 		.4byte	0xbdf
 2245 0bd2 34       		.byte	0x34
 2246 0bd3 00       		.byte	0
 2247 0bd4 09       		.uleb128 0x9
 2248 0bd5 04       		.byte	0x4
 2249 0bd6 DA0B0000 		.4byte	0xbda
 2250 0bda 10       		.uleb128 0x10
 2251 0bdb 1F0B0000 		.4byte	0xb1f
 2252 0bdf 09       		.uleb128 0x9
 2253 0be0 04       		.byte	0x4
 2254 0be1 13060000 		.4byte	0x613
 2255 0be5 19       		.uleb128 0x19
ARM GAS  /tmp/ccg0r710.s 			page 41


 2256 0be6 01       		.byte	0x1
 2257 0be7 10       		.byte	0x10
 2258 0be8 55       		.byte	0x55
 2259 0be9 0C0C0000 		.4byte	0xc0c
 2260 0bed 1A       		.uleb128 0x1a
 2261 0bee 6E010000 		.4byte	.LASF159
 2262 0bf2 00       		.sleb128 0
 2263 0bf3 1A       		.uleb128 0x1a
 2264 0bf4 5C010000 		.4byte	.LASF160
 2265 0bf8 01       		.sleb128 1
 2266 0bf9 1A       		.uleb128 0x1a
 2267 0bfa 0F040000 		.4byte	.LASF161
 2268 0bfe 02       		.sleb128 2
 2269 0bff 1A       		.uleb128 0x1a
 2270 0c00 01050000 		.4byte	.LASF162
 2271 0c04 03       		.sleb128 3
 2272 0c05 1A       		.uleb128 0x1a
 2273 0c06 83080000 		.4byte	.LASF163
 2274 0c0a 04       		.sleb128 4
 2275 0c0b 00       		.byte	0
 2276 0c0c 03       		.uleb128 0x3
 2277 0c0d FC080000 		.4byte	.LASF164
 2278 0c11 10       		.byte	0x10
 2279 0c12 5B       		.byte	0x5b
 2280 0c13 E50B0000 		.4byte	0xbe5
 2281 0c17 15       		.uleb128 0x15
 2282 0c18 E3020000 		.4byte	.LASF165
 2283 0c1c 11       		.byte	0x11
 2284 0c1d E701     		.2byte	0x1e7
 2285 0c1f 230C0000 		.4byte	0xc23
 2286 0c23 0B       		.uleb128 0xb
 2287 0c24 E3020000 		.4byte	.LASF165
 2288 0c28 30       		.byte	0x30
 2289 0c29 11       		.byte	0x11
 2290 0c2a 0B02     		.2byte	0x20b
 2291 0c2c A60C0000 		.4byte	0xca6
 2292 0c30 14       		.uleb128 0x14
 2293 0c31 92000000 		.4byte	.LASF149
 2294 0c35 11       		.byte	0x11
 2295 0c36 0F02     		.2byte	0x20f
 2296 0c38 0C0C0000 		.4byte	0xc0c
 2297 0c3c 00       		.byte	0
 2298 0c3d 14       		.uleb128 0x14
 2299 0c3e 8B000000 		.4byte	.LASF150
 2300 0c42 11       		.byte	0x11
 2301 0c43 1302     		.2byte	0x213
 2302 0c45 130D0000 		.4byte	0xd13
 2303 0c49 04       		.byte	0x4
 2304 0c4a 14       		.uleb128 0x14
 2305 0c4b AC060000 		.4byte	.LASF153
 2306 0c4f 11       		.byte	0x11
 2307 0c50 1802     		.2byte	0x218
 2308 0c52 39020000 		.4byte	0x239
 2309 0c56 08       		.byte	0x8
 2310 0c57 14       		.uleb128 0x14
 2311 0c58 7C040000 		.4byte	.LASF152
 2312 0c5c 11       		.byte	0x11
ARM GAS  /tmp/ccg0r710.s 			page 42


 2313 0c5d 1F02     		.2byte	0x21f
 2314 0c5f 20040000 		.4byte	0x420
 2315 0c63 0C       		.byte	0xc
 2316 0c64 0C       		.uleb128 0xc
 2317 0c65 73706900 		.ascii	"spi\000"
 2318 0c69 11       		.byte	0x11
 2319 0c6a 2B02     		.2byte	0x22b
 2320 0c6c 1E0D0000 		.4byte	0xd1e
 2321 0c70 1C       		.byte	0x1c
 2322 0c71 14       		.uleb128 0x14
 2323 0c72 F8030000 		.4byte	.LASF157
 2324 0c76 11       		.byte	0x11
 2325 0c77 2F02     		.2byte	0x22f
 2326 0c79 430A0000 		.4byte	0xa43
 2327 0c7d 20       		.byte	0x20
 2328 0c7e 14       		.uleb128 0x14
 2329 0c7f B9040000 		.4byte	.LASF158
 2330 0c83 11       		.byte	0x11
 2331 0c84 3302     		.2byte	0x233
 2332 0c86 430A0000 		.4byte	0xa43
 2333 0c8a 24       		.byte	0x24
 2334 0c8b 14       		.uleb128 0x14
 2335 0c8c 96040000 		.4byte	.LASF155
 2336 0c90 11       		.byte	0x11
 2337 0c91 3702     		.2byte	0x237
 2338 0c93 B8000000 		.4byte	0xb8
 2339 0c97 28       		.byte	0x28
 2340 0c98 14       		.uleb128 0x14
 2341 0c99 3D090000 		.4byte	.LASF156
 2342 0c9d 11       		.byte	0x11
 2343 0c9e 3B02     		.2byte	0x23b
 2344 0ca0 B8000000 		.4byte	0xb8
 2345 0ca4 2C       		.byte	0x2c
 2346 0ca5 00       		.byte	0
 2347 0ca6 15       		.uleb128 0x15
 2348 0ca7 F3040000 		.4byte	.LASF166
 2349 0cab 11       		.byte	0x11
 2350 0cac EF01     		.2byte	0x1ef
 2351 0cae B20C0000 		.4byte	0xcb2
 2352 0cb2 09       		.uleb128 0x9
 2353 0cb3 04       		.byte	0x4
 2354 0cb4 B80C0000 		.4byte	0xcb8
 2355 0cb8 16       		.uleb128 0x16
 2356 0cb9 C30C0000 		.4byte	0xcc3
 2357 0cbd 17       		.uleb128 0x17
 2358 0cbe C30C0000 		.4byte	0xcc3
 2359 0cc2 00       		.byte	0
 2360 0cc3 09       		.uleb128 0x9
 2361 0cc4 04       		.byte	0x4
 2362 0cc5 170C0000 		.4byte	0xc17
 2363 0cc9 13       		.uleb128 0x13
 2364 0cca 0C       		.byte	0xc
 2365 0ccb 11       		.byte	0x11
 2366 0ccc F401     		.2byte	0x1f4
 2367 0cce 070D0000 		.4byte	0xd07
 2368 0cd2 14       		.uleb128 0x14
 2369 0cd3 F0000000 		.4byte	.LASF167
ARM GAS  /tmp/ccg0r710.s 			page 43


 2370 0cd7 11       		.byte	0x11
 2371 0cd8 F801     		.2byte	0x1f8
 2372 0cda A60C0000 		.4byte	0xca6
 2373 0cde 00       		.byte	0
 2374 0cdf 14       		.uleb128 0x14
 2375 0ce0 2E050000 		.4byte	.LASF168
 2376 0ce4 11       		.byte	0x11
 2377 0ce5 FD01     		.2byte	0x1fd
 2378 0ce7 320A0000 		.4byte	0xa32
 2379 0ceb 04       		.byte	0x4
 2380 0cec 14       		.uleb128 0x14
 2381 0ced 1B090000 		.4byte	.LASF169
 2382 0cf1 11       		.byte	0x11
 2383 0cf2 0102     		.2byte	0x201
 2384 0cf4 A2000000 		.4byte	0xa2
 2385 0cf8 08       		.byte	0x8
 2386 0cf9 0C       		.uleb128 0xc
 2387 0cfa 63723100 		.ascii	"cr1\000"
 2388 0cfe 11       		.byte	0x11
 2389 0cff 0502     		.2byte	0x205
 2390 0d01 A2000000 		.4byte	0xa2
 2391 0d05 0A       		.byte	0xa
 2392 0d06 00       		.byte	0
 2393 0d07 15       		.uleb128 0x15
 2394 0d08 E9040000 		.4byte	.LASF170
 2395 0d0c 11       		.byte	0x11
 2396 0d0d 0602     		.2byte	0x206
 2397 0d0f C90C0000 		.4byte	0xcc9
 2398 0d13 09       		.uleb128 0x9
 2399 0d14 04       		.byte	0x4
 2400 0d15 190D0000 		.4byte	0xd19
 2401 0d19 10       		.uleb128 0x10
 2402 0d1a 070D0000 		.4byte	0xd07
 2403 0d1e 09       		.uleb128 0x9
 2404 0d1f 04       		.byte	0x4
 2405 0d20 C6080000 		.4byte	0x8c6
 2406 0d24 1C       		.uleb128 0x1c
 2407 0d25 15000000 		.4byte	.LASF171
 2408 0d29 01       		.byte	0x1
 2409 0d2a 71       		.byte	0x71
 2410 0d2b 01       		.byte	0x1
 2411 0d2c 3C0D0000 		.4byte	0xd3c
 2412 0d30 1D       		.uleb128 0x1d
 2413 0d31 70777200 		.ascii	"pwr\000"
 2414 0d35 01       		.byte	0x1
 2415 0d36 71       		.byte	0x71
 2416 0d37 97000000 		.4byte	0x97
 2417 0d3b 00       		.byte	0
 2418 0d3c 1C       		.uleb128 0x1c
 2419 0d3d DE010000 		.4byte	.LASF172
 2420 0d41 01       		.byte	0x1
 2421 0d42 79       		.byte	0x79
 2422 0d43 01       		.byte	0x1
 2423 0d44 540D0000 		.4byte	0xd54
 2424 0d48 1E       		.uleb128 0x1e
 2425 0d49 CD040000 		.4byte	.LASF173
 2426 0d4d 01       		.byte	0x1
ARM GAS  /tmp/ccg0r710.s 			page 44


 2427 0d4e 79       		.byte	0x79
 2428 0d4f 97000000 		.4byte	0x97
 2429 0d53 00       		.byte	0
 2430 0d54 1C       		.uleb128 0x1c
 2431 0d55 4E040000 		.4byte	.LASF174
 2432 0d59 01       		.byte	0x1
 2433 0d5a 83       		.byte	0x83
 2434 0d5b 01       		.byte	0x1
 2435 0d5c 6C0D0000 		.4byte	0xd6c
 2436 0d60 1D       		.uleb128 0x1d
 2437 0d61 766F6C00 		.ascii	"vol\000"
 2438 0d65 01       		.byte	0x1
 2439 0d66 83       		.byte	0x83
 2440 0d67 97000000 		.4byte	0x97
 2441 0d6b 00       		.byte	0
 2442 0d6c 1F       		.uleb128 0x1f
 2443 0d6d 42010000 		.4byte	.LASF202
 2444 0d71 01       		.byte	0x1
 2445 0d72 2C       		.byte	0x2c
 2446 0d73 00000000 		.4byte	.LFB135
 2447 0d77 34000000 		.4byte	.LFE135-.LFB135
 2448 0d7b 01       		.uleb128 0x1
 2449 0d7c 9C       		.byte	0x9c
 2450 0d7d A90D0000 		.4byte	0xda9
 2451 0d81 20       		.uleb128 0x20
 2452 0d82 64617400 		.ascii	"dat\000"
 2453 0d86 01       		.byte	0x1
 2454 0d87 2C       		.byte	0x2c
 2455 0d88 75020000 		.4byte	0x275
 2456 0d8c 00000000 		.4byte	.LLST0
 2457 0d90 21       		.uleb128 0x21
 2458 0d91 AE020000 		.4byte	.LASF175
 2459 0d95 01       		.byte	0x1
 2460 0d96 2C       		.byte	0x2c
 2461 0d97 B8000000 		.4byte	0xb8
 2462 0d9b 21000000 		.4byte	.LLST1
 2463 0d9f 22       		.uleb128 0x22
 2464 0da0 1A000000 		.4byte	.LVL3
 2465 0da4 8A130000 		.4byte	0x138a
 2466 0da8 00       		.byte	0
 2467 0da9 23       		.uleb128 0x23
 2468 0daa 62040000 		.4byte	.LASF203
 2469 0dae 02       		.byte	0x2
 2470 0daf 3C       		.byte	0x3c
 2471 0db0 40000000 		.4byte	.LFB131
 2472 0db4 02000000 		.4byte	.LFE131-.LFB131
 2473 0db8 01       		.uleb128 0x1
 2474 0db9 9C       		.byte	0x9c
 2475 0dba 24       		.uleb128 0x24
 2476 0dbb 75050000 		.4byte	.LASF176
 2477 0dbf 02       		.byte	0x2
 2478 0dc0 3F       		.byte	0x3f
 2479 0dc1 50000000 		.4byte	.LFB132
 2480 0dc5 20000000 		.4byte	.LFE132-.LFB132
 2481 0dc9 01       		.uleb128 0x1
 2482 0dca 9C       		.byte	0x9c
 2483 0dcb DD0D0000 		.4byte	0xddd
ARM GAS  /tmp/ccg0r710.s 			page 45


 2484 0dcf 25       		.uleb128 0x25
 2485 0dd0 6900     		.ascii	"i\000"
 2486 0dd2 02       		.byte	0x2
 2487 0dd3 40       		.byte	0x40
 2488 0dd4 89000000 		.4byte	0x89
 2489 0dd8 42000000 		.4byte	.LLST2
 2490 0ddc 00       		.byte	0
 2491 0ddd 26       		.uleb128 0x26
 2492 0dde B3000000 		.4byte	.LASF204
 2493 0de2 01       		.byte	0x1
 2494 0de3 39       		.byte	0x39
 2495 0de4 01       		.byte	0x1
 2496 0de5 24       		.uleb128 0x24
 2497 0de6 D6080000 		.4byte	.LASF177
 2498 0dea 01       		.byte	0x1
 2499 0deb 4D       		.byte	0x4d
 2500 0dec 70000000 		.4byte	.LFB137
 2501 0df0 F8000000 		.4byte	.LFE137-.LFB137
 2502 0df4 01       		.uleb128 0x1
 2503 0df5 9C       		.byte	0x9c
 2504 0df6 D50E0000 		.4byte	0xed5
 2505 0dfa 27       		.uleb128 0x27
 2506 0dfb DD0D0000 		.4byte	0xddd
 2507 0dff 78000000 		.4byte	.LBB4
 2508 0e03 00000000 		.4byte	.Ldebug_ranges0+0
 2509 0e07 01       		.byte	0x1
 2510 0e08 63       		.byte	0x63
 2511 0e09 2C0E0000 		.4byte	0xe2c
 2512 0e0d 28       		.uleb128 0x28
 2513 0e0e F2000000 		.4byte	.LVL11
 2514 0e12 A6130000 		.4byte	0x13a6
 2515 0e16 29       		.uleb128 0x29
 2516 0e17 01       		.uleb128 0x1
 2517 0e18 52       		.byte	0x52
 2518 0e19 05       		.uleb128 0x5
 2519 0e1a 03       		.byte	0x3
 2520 0e1b 00000000 		.4byte	dma_i2s_interrupt
 2521 0e1f 29       		.uleb128 0x29
 2522 0e20 01       		.uleb128 0x1
 2523 0e21 51       		.byte	0x51
 2524 0e22 01       		.uleb128 0x1
 2525 0e23 32       		.byte	0x32
 2526 0e24 29       		.uleb128 0x29
 2527 0e25 01       		.uleb128 0x1
 2528 0e26 50       		.byte	0x50
 2529 0e27 02       		.uleb128 0x2
 2530 0e28 75       		.byte	0x75
 2531 0e29 00       		.sleb128 0
 2532 0e2a 00       		.byte	0
 2533 0e2b 00       		.byte	0
 2534 0e2c 2A       		.uleb128 0x2a
 2535 0e2d 8A000000 		.4byte	.LVL6
 2536 0e31 CB130000 		.4byte	0x13cb
 2537 0e35 4E0E0000 		.4byte	0xe4e
 2538 0e39 29       		.uleb128 0x29
 2539 0e3a 01       		.uleb128 0x1
 2540 0e3b 52       		.byte	0x52
ARM GAS  /tmp/ccg0r710.s 			page 46


 2541 0e3c 03       		.uleb128 0x3
 2542 0e3d 0A       		.byte	0xa
 2543 0e3e 8202     		.2byte	0x282
 2544 0e40 29       		.uleb128 0x29
 2545 0e41 01       		.uleb128 0x1
 2546 0e42 51       		.byte	0x51
 2547 0e43 03       		.uleb128 0x3
 2548 0e44 0A       		.byte	0xa
 2549 0e45 0010     		.2byte	0x1000
 2550 0e47 29       		.uleb128 0x29
 2551 0e48 01       		.uleb128 0x1
 2552 0e49 50       		.byte	0x50
 2553 0e4a 02       		.uleb128 0x2
 2554 0e4b 75       		.byte	0x75
 2555 0e4c 00       		.sleb128 0
 2556 0e4d 00       		.byte	0
 2557 0e4e 2A       		.uleb128 0x2a
 2558 0e4f 98000000 		.4byte	.LVL7
 2559 0e53 CB130000 		.4byte	0x13cb
 2560 0e57 700E0000 		.4byte	0xe70
 2561 0e5b 29       		.uleb128 0x29
 2562 0e5c 01       		.uleb128 0x1
 2563 0e5d 52       		.byte	0x52
 2564 0e5e 03       		.uleb128 0x3
 2565 0e5f 0A       		.byte	0xa
 2566 0e60 8202     		.2byte	0x282
 2567 0e62 29       		.uleb128 0x29
 2568 0e63 01       		.uleb128 0x1
 2569 0e64 51       		.byte	0x51
 2570 0e65 03       		.uleb128 0x3
 2571 0e66 0A       		.byte	0xa
 2572 0e67 0020     		.2byte	0x2000
 2573 0e69 29       		.uleb128 0x29
 2574 0e6a 01       		.uleb128 0x1
 2575 0e6b 50       		.byte	0x50
 2576 0e6c 02       		.uleb128 0x2
 2577 0e6d 75       		.byte	0x75
 2578 0e6e 00       		.sleb128 0
 2579 0e6f 00       		.byte	0
 2580 0e70 2A       		.uleb128 0x2a
 2581 0e71 A6000000 		.4byte	.LVL8
 2582 0e75 CB130000 		.4byte	0x13cb
 2583 0e79 920E0000 		.4byte	0xe92
 2584 0e7d 29       		.uleb128 0x29
 2585 0e7e 01       		.uleb128 0x1
 2586 0e7f 52       		.byte	0x52
 2587 0e80 03       		.uleb128 0x3
 2588 0e81 0A       		.byte	0xa
 2589 0e82 8202     		.2byte	0x282
 2590 0e84 29       		.uleb128 0x29
 2591 0e85 01       		.uleb128 0x1
 2592 0e86 51       		.byte	0x51
 2593 0e87 03       		.uleb128 0x3
 2594 0e88 0A       		.byte	0xa
 2595 0e89 0040     		.2byte	0x4000
 2596 0e8b 29       		.uleb128 0x29
 2597 0e8c 01       		.uleb128 0x1
ARM GAS  /tmp/ccg0r710.s 			page 47


 2598 0e8d 50       		.byte	0x50
 2599 0e8e 02       		.uleb128 0x2
 2600 0e8f 75       		.byte	0x75
 2601 0e90 00       		.sleb128 0
 2602 0e91 00       		.byte	0
 2603 0e92 2A       		.uleb128 0x2a
 2604 0e93 B4000000 		.4byte	.LVL9
 2605 0e97 CB130000 		.4byte	0x13cb
 2606 0e9b B40E0000 		.4byte	0xeb4
 2607 0e9f 29       		.uleb128 0x29
 2608 0ea0 01       		.uleb128 0x1
 2609 0ea1 52       		.byte	0x52
 2610 0ea2 03       		.uleb128 0x3
 2611 0ea3 0A       		.byte	0xa
 2612 0ea4 8202     		.2byte	0x282
 2613 0ea6 29       		.uleb128 0x29
 2614 0ea7 01       		.uleb128 0x1
 2615 0ea8 51       		.byte	0x51
 2616 0ea9 03       		.uleb128 0x3
 2617 0eaa 0A       		.byte	0xa
 2618 0eab 0080     		.2byte	0x8000
 2619 0ead 29       		.uleb128 0x29
 2620 0eae 01       		.uleb128 0x1
 2621 0eaf 50       		.byte	0x50
 2622 0eb0 02       		.uleb128 0x2
 2623 0eb1 75       		.byte	0x75
 2624 0eb2 00       		.sleb128 0
 2625 0eb3 00       		.byte	0
 2626 0eb4 28       		.uleb128 0x28
 2627 0eb5 C2000000 		.4byte	.LVL10
 2628 0eb9 CB130000 		.4byte	0x13cb
 2629 0ebd 29       		.uleb128 0x29
 2630 0ebe 01       		.uleb128 0x1
 2631 0ebf 52       		.byte	0x52
 2632 0ec0 03       		.uleb128 0x3
 2633 0ec1 0A       		.byte	0xa
 2634 0ec2 8202     		.2byte	0x282
 2635 0ec4 29       		.uleb128 0x29
 2636 0ec5 01       		.uleb128 0x1
 2637 0ec6 51       		.byte	0x51
 2638 0ec7 02       		.uleb128 0x2
 2639 0ec8 08       		.byte	0x8
 2640 0ec9 40       		.byte	0x40
 2641 0eca 29       		.uleb128 0x29
 2642 0ecb 01       		.uleb128 0x1
 2643 0ecc 50       		.byte	0x50
 2644 0ecd 05       		.uleb128 0x5
 2645 0ece 0C       		.byte	0xc
 2646 0ecf 00080240 		.4byte	0x40020800
 2647 0ed3 00       		.byte	0
 2648 0ed4 00       		.byte	0
 2649 0ed5 24       		.uleb128 0x24
 2650 0ed6 9B080000 		.4byte	.LASF178
 2651 0eda 01       		.byte	0x1
 2652 0edb 68       		.byte	0x68
 2653 0edc 70010000 		.4byte	.LFB138
 2654 0ee0 3C000000 		.4byte	.LFE138-.LFB138
ARM GAS  /tmp/ccg0r710.s 			page 48


 2655 0ee4 01       		.uleb128 0x1
 2656 0ee5 9C       		.byte	0x9c
 2657 0ee6 390F0000 		.4byte	0xf39
 2658 0eea 21       		.uleb128 0x21
 2659 0eeb B4040000 		.4byte	.LASF154
 2660 0eef 01       		.byte	0x1
 2661 0ef0 68       		.byte	0x68
 2662 0ef1 97000000 		.4byte	0x97
 2663 0ef5 56000000 		.4byte	.LLST3
 2664 0ef9 21       		.uleb128 0x21
 2665 0efa 31090000 		.4byte	.LASF179
 2666 0efe 01       		.byte	0x1
 2667 0eff 68       		.byte	0x68
 2668 0f00 97000000 		.4byte	0x97
 2669 0f04 77000000 		.4byte	.LLST4
 2670 0f08 2A       		.uleb128 0x2a
 2671 0f09 98010000 		.4byte	.LVL15
 2672 0f0d E7130000 		.4byte	0x13e7
 2673 0f11 290F0000 		.4byte	0xf29
 2674 0f15 29       		.uleb128 0x29
 2675 0f16 01       		.uleb128 0x1
 2676 0f17 53       		.byte	0x53
 2677 0f18 01       		.uleb128 0x1
 2678 0f19 32       		.byte	0x32
 2679 0f1a 29       		.uleb128 0x29
 2680 0f1b 01       		.uleb128 0x1
 2681 0f1c 52       		.byte	0x52
 2682 0f1d 05       		.uleb128 0x5
 2683 0f1e 03       		.byte	0x3
 2684 0f1f 00020000 		.4byte	.LANCHOR0+512
 2685 0f23 29       		.uleb128 0x29
 2686 0f24 01       		.uleb128 0x1
 2687 0f25 51       		.byte	0x51
 2688 0f26 01       		.uleb128 0x1
 2689 0f27 4A       		.byte	0x4a
 2690 0f28 00       		.byte	0
 2691 0f29 2B       		.uleb128 0x2b
 2692 0f2a A4010000 		.4byte	.LVL16
 2693 0f2e 20140000 		.4byte	0x1420
 2694 0f32 29       		.uleb128 0x29
 2695 0f33 01       		.uleb128 0x1
 2696 0f34 50       		.byte	0x50
 2697 0f35 01       		.uleb128 0x1
 2698 0f36 31       		.byte	0x31
 2699 0f37 00       		.byte	0
 2700 0f38 00       		.byte	0
 2701 0f39 24       		.uleb128 0x24
 2702 0f3a CE060000 		.4byte	.LASF180
 2703 0f3e 01       		.byte	0x1
 2704 0f3f 27       		.byte	0x27
 2705 0f40 B0010000 		.4byte	.LFB134
 2706 0f44 14000000 		.4byte	.LFE134-.LFB134
 2707 0f48 01       		.uleb128 0x1
 2708 0f49 9C       		.byte	0x9c
 2709 0f4a 760F0000 		.4byte	0xf76
 2710 0f4e 2A       		.uleb128 0x2a
 2711 0f4f BA010000 		.4byte	.LVL17
ARM GAS  /tmp/ccg0r710.s 			page 49


 2712 0f53 D50E0000 		.4byte	0xed5
 2713 0f57 660F0000 		.4byte	0xf66
 2714 0f5b 29       		.uleb128 0x29
 2715 0f5c 01       		.uleb128 0x1
 2716 0f5d 51       		.byte	0x51
 2717 0f5e 01       		.uleb128 0x1
 2718 0f5f 30       		.byte	0x30
 2719 0f60 29       		.uleb128 0x29
 2720 0f61 01       		.uleb128 0x1
 2721 0f62 50       		.byte	0x50
 2722 0f63 01       		.uleb128 0x1
 2723 0f64 3F       		.byte	0x3f
 2724 0f65 00       		.byte	0
 2725 0f66 2B       		.uleb128 0x2b
 2726 0f67 C4010000 		.4byte	.LVL18
 2727 0f6b 20140000 		.4byte	0x1420
 2728 0f6f 29       		.uleb128 0x29
 2729 0f70 01       		.uleb128 0x1
 2730 0f71 50       		.byte	0x50
 2731 0f72 01       		.uleb128 0x1
 2732 0f73 3A       		.byte	0x3a
 2733 0f74 00       		.byte	0
 2734 0f75 00       		.byte	0
 2735 0f76 2C       		.uleb128 0x2c
 2736 0f77 240D0000 		.4byte	0xd24
 2737 0f7b D0010000 		.4byte	.LFB139
 2738 0f7f 12000000 		.4byte	.LFE139-.LFB139
 2739 0f83 01       		.uleb128 0x1
 2740 0f84 9C       		.byte	0x9c
 2741 0f85 D20F0000 		.4byte	0xfd2
 2742 0f89 2D       		.uleb128 0x2d
 2743 0f8a 300D0000 		.4byte	0xd30
 2744 0f8e A7000000 		.4byte	.LLST5
 2745 0f92 2E       		.uleb128 0x2e
 2746 0f93 DA010000 		.4byte	.LBB20
 2747 0f97 08000000 		.4byte	.LBE20-.LBB20
 2748 0f9b BD0F0000 		.4byte	0xfbd
 2749 0f9f 2D       		.uleb128 0x2d
 2750 0fa0 300D0000 		.4byte	0xd30
 2751 0fa4 E1000000 		.4byte	.LLST6
 2752 0fa8 2B       		.uleb128 0x2b
 2753 0fa9 E2010000 		.4byte	.LVL23
 2754 0fad D50E0000 		.4byte	0xed5
 2755 0fb1 29       		.uleb128 0x29
 2756 0fb2 01       		.uleb128 0x1
 2757 0fb3 51       		.byte	0x51
 2758 0fb4 01       		.uleb128 0x1
 2759 0fb5 30       		.byte	0x30
 2760 0fb6 29       		.uleb128 0x29
 2761 0fb7 01       		.uleb128 0x1
 2762 0fb8 50       		.byte	0x50
 2763 0fb9 01       		.uleb128 0x1
 2764 0fba 36       		.byte	0x36
 2765 0fbb 00       		.byte	0
 2766 0fbc 00       		.byte	0
 2767 0fbd 2B       		.uleb128 0x2b
 2768 0fbe DA010000 		.4byte	.LVL21
ARM GAS  /tmp/ccg0r710.s 			page 50


 2769 0fc2 D50E0000 		.4byte	0xed5
 2770 0fc6 29       		.uleb128 0x29
 2771 0fc7 01       		.uleb128 0x1
 2772 0fc8 51       		.byte	0x51
 2773 0fc9 01       		.uleb128 0x1
 2774 0fca 31       		.byte	0x31
 2775 0fcb 29       		.uleb128 0x29
 2776 0fcc 01       		.uleb128 0x1
 2777 0fcd 50       		.byte	0x50
 2778 0fce 01       		.uleb128 0x1
 2779 0fcf 36       		.byte	0x36
 2780 0fd0 00       		.byte	0
 2781 0fd1 00       		.byte	0
 2782 0fd2 2C       		.uleb128 0x2c
 2783 0fd3 3C0D0000 		.4byte	0xd3c
 2784 0fd7 F0010000 		.4byte	.LFB140
 2785 0fdb 20000000 		.4byte	.LFE140-.LFB140
 2786 0fdf 01       		.uleb128 0x1
 2787 0fe0 9C       		.byte	0x9c
 2788 0fe1 41100000 		.4byte	0x1041
 2789 0fe5 2D       		.uleb128 0x2d
 2790 0fe6 480D0000 		.4byte	0xd48
 2791 0fea F4000000 		.4byte	.LLST7
 2792 0fee 2E       		.uleb128 0x2e
 2793 0fef 08020000 		.4byte	.LBB24
 2794 0ff3 08000000 		.4byte	.LBE24-.LBB24
 2795 0ff7 19100000 		.4byte	0x1019
 2796 0ffb 2D       		.uleb128 0x2d
 2797 0ffc 480D0000 		.4byte	0xd48
 2798 1000 2E010000 		.4byte	.LLST8
 2799 1004 2B       		.uleb128 0x2b
 2800 1005 10020000 		.4byte	.LVL29
 2801 1009 D50E0000 		.4byte	0xed5
 2802 100d 29       		.uleb128 0x29
 2803 100e 01       		.uleb128 0x1
 2804 100f 51       		.byte	0x51
 2805 1010 01       		.uleb128 0x1
 2806 1011 38       		.byte	0x38
 2807 1012 29       		.uleb128 0x29
 2808 1013 01       		.uleb128 0x1
 2809 1014 50       		.byte	0x50
 2810 1015 01       		.uleb128 0x1
 2811 1016 35       		.byte	0x35
 2812 1017 00       		.byte	0
 2813 1018 00       		.byte	0
 2814 1019 2A       		.uleb128 0x2a
 2815 101a FC010000 		.4byte	.LVL26
 2816 101e D50E0000 		.4byte	0xed5
 2817 1022 2C100000 		.4byte	0x102c
 2818 1026 29       		.uleb128 0x29
 2819 1027 01       		.uleb128 0x1
 2820 1028 50       		.byte	0x50
 2821 1029 01       		.uleb128 0x1
 2822 102a 35       		.byte	0x35
 2823 102b 00       		.byte	0
 2824 102c 2B       		.uleb128 0x2b
 2825 102d 08020000 		.4byte	.LVL27
ARM GAS  /tmp/ccg0r710.s 			page 51


 2826 1031 D50E0000 		.4byte	0xed5
 2827 1035 29       		.uleb128 0x29
 2828 1036 01       		.uleb128 0x1
 2829 1037 51       		.byte	0x51
 2830 1038 01       		.uleb128 0x1
 2831 1039 40       		.byte	0x40
 2832 103a 29       		.uleb128 0x29
 2833 103b 01       		.uleb128 0x1
 2834 103c 50       		.byte	0x50
 2835 103d 01       		.uleb128 0x1
 2836 103e 34       		.byte	0x34
 2837 103f 00       		.byte	0
 2838 1040 00       		.byte	0
 2839 1041 24       		.uleb128 0x24
 2840 1042 9E000000 		.4byte	.LASF181
 2841 1046 01       		.byte	0x1
 2842 1047 0F       		.byte	0xf
 2843 1048 10020000 		.4byte	.LFB133
 2844 104c 70000000 		.4byte	.LFE133-.LFB133
 2845 1050 01       		.uleb128 0x1
 2846 1051 9C       		.byte	0x9c
 2847 1052 9E110000 		.4byte	0x119e
 2848 1056 2F       		.uleb128 0x2f
 2849 1057 240D0000 		.4byte	0xd24
 2850 105b 52020000 		.4byte	.LBB34
 2851 105f 08000000 		.4byte	.LBE34-.LBB34
 2852 1063 01       		.byte	0x1
 2853 1064 21       		.byte	0x21
 2854 1065 94100000 		.4byte	0x1094
 2855 1069 30       		.uleb128 0x30
 2856 106a 300D0000 		.4byte	0xd30
 2857 106e 01       		.byte	0x1
 2858 106f 31       		.uleb128 0x31
 2859 1070 52020000 		.4byte	.LBB35
 2860 1074 08000000 		.4byte	.LBE35-.LBB35
 2861 1078 30       		.uleb128 0x30
 2862 1079 300D0000 		.4byte	0xd30
 2863 107d 01       		.byte	0x1
 2864 107e 28       		.uleb128 0x28
 2865 107f 5A020000 		.4byte	.LVL37
 2866 1083 D50E0000 		.4byte	0xed5
 2867 1087 29       		.uleb128 0x29
 2868 1088 01       		.uleb128 0x1
 2869 1089 51       		.byte	0x51
 2870 108a 01       		.uleb128 0x1
 2871 108b 30       		.byte	0x30
 2872 108c 29       		.uleb128 0x29
 2873 108d 01       		.uleb128 0x1
 2874 108e 50       		.byte	0x50
 2875 108f 01       		.uleb128 0x1
 2876 1090 36       		.byte	0x36
 2877 1091 00       		.byte	0
 2878 1092 00       		.byte	0
 2879 1093 00       		.byte	0
 2880 1094 27       		.uleb128 0x27
 2881 1095 540D0000 		.4byte	0xd54
 2882 1099 60020000 		.4byte	.LBB37
ARM GAS  /tmp/ccg0r710.s 			page 52


 2883 109d 40000000 		.4byte	.Ldebug_ranges0+0x40
 2884 10a1 01       		.byte	0x1
 2885 10a2 24       		.byte	0x24
 2886 10a3 E6100000 		.4byte	0x10e6
 2887 10a7 30       		.uleb128 0x30
 2888 10a8 600D0000 		.4byte	0xd60
 2889 10ac 17       		.byte	0x17
 2890 10ad 32       		.uleb128 0x32
 2891 10ae 40000000 		.4byte	.Ldebug_ranges0+0x40
 2892 10b2 30       		.uleb128 0x30
 2893 10b3 600D0000 		.4byte	0xd60
 2894 10b7 17       		.byte	0x17
 2895 10b8 2A       		.uleb128 0x2a
 2896 10b9 68020000 		.4byte	.LVL39
 2897 10bd D50E0000 		.4byte	0xed5
 2898 10c1 D0100000 		.4byte	0x10d0
 2899 10c5 29       		.uleb128 0x29
 2900 10c6 01       		.uleb128 0x1
 2901 10c7 51       		.byte	0x51
 2902 10c8 01       		.uleb128 0x1
 2903 10c9 47       		.byte	0x47
 2904 10ca 29       		.uleb128 0x29
 2905 10cb 01       		.uleb128 0x1
 2906 10cc 50       		.byte	0x50
 2907 10cd 01       		.uleb128 0x1
 2908 10ce 30       		.byte	0x30
 2909 10cf 00       		.byte	0
 2910 10d0 2B       		.uleb128 0x2b
 2911 10d1 74020000 		.4byte	.LVL40
 2912 10d5 D50E0000 		.4byte	0xed5
 2913 10d9 29       		.uleb128 0x29
 2914 10da 01       		.uleb128 0x1
 2915 10db 51       		.byte	0x51
 2916 10dc 01       		.uleb128 0x1
 2917 10dd 47       		.byte	0x47
 2918 10de 29       		.uleb128 0x29
 2919 10df 01       		.uleb128 0x1
 2920 10e0 50       		.byte	0x50
 2921 10e1 01       		.uleb128 0x1
 2922 10e2 31       		.byte	0x31
 2923 10e3 00       		.byte	0
 2924 10e4 00       		.byte	0
 2925 10e5 00       		.byte	0
 2926 10e6 2A       		.uleb128 0x2a
 2927 10e7 22020000 		.4byte	.LVL30
 2928 10eb CB130000 		.4byte	0x13cb
 2929 10ef 08110000 		.4byte	0x1108
 2930 10f3 29       		.uleb128 0x29
 2931 10f4 01       		.uleb128 0x1
 2932 10f5 52       		.byte	0x52
 2933 10f6 03       		.uleb128 0x3
 2934 10f7 0A       		.byte	0xa
 2935 10f8 0602     		.2byte	0x206
 2936 10fa 29       		.uleb128 0x29
 2937 10fb 01       		.uleb128 0x1
 2938 10fc 51       		.byte	0x51
 2939 10fd 03       		.uleb128 0x3
ARM GAS  /tmp/ccg0r710.s 			page 53


 2940 10fe 0A       		.byte	0xa
 2941 10ff 0004     		.2byte	0x400
 2942 1101 29       		.uleb128 0x29
 2943 1102 01       		.uleb128 0x1
 2944 1103 50       		.byte	0x50
 2945 1104 02       		.uleb128 0x2
 2946 1105 74       		.byte	0x74
 2947 1106 00       		.sleb128 0
 2948 1107 00       		.byte	0
 2949 1108 2A       		.uleb128 0x2a
 2950 1109 30020000 		.4byte	.LVL31
 2951 110d CB130000 		.4byte	0x13cb
 2952 1111 2A110000 		.4byte	0x112a
 2953 1115 29       		.uleb128 0x29
 2954 1116 01       		.uleb128 0x1
 2955 1117 52       		.byte	0x52
 2956 1118 03       		.uleb128 0x3
 2957 1119 0A       		.byte	0xa
 2958 111a 0602     		.2byte	0x206
 2959 111c 29       		.uleb128 0x29
 2960 111d 01       		.uleb128 0x1
 2961 111e 51       		.byte	0x51
 2962 111f 03       		.uleb128 0x3
 2963 1120 0A       		.byte	0xa
 2964 1121 0008     		.2byte	0x800
 2965 1123 29       		.uleb128 0x29
 2966 1124 01       		.uleb128 0x1
 2967 1125 50       		.byte	0x50
 2968 1126 02       		.uleb128 0x2
 2969 1127 74       		.byte	0x74
 2970 1128 00       		.sleb128 0
 2971 1129 00       		.byte	0
 2972 112a 2A       		.uleb128 0x2a
 2973 112b 38020000 		.4byte	.LVL32
 2974 112f 32140000 		.4byte	0x1432
 2975 1133 41110000 		.4byte	0x1141
 2976 1137 29       		.uleb128 0x29
 2977 1138 01       		.uleb128 0x1
 2978 1139 51       		.byte	0x51
 2979 113a 05       		.uleb128 0x5
 2980 113b 03       		.byte	0x3
 2981 113c 00000000 		.4byte	.LANCHOR2
 2982 1140 00       		.byte	0
 2983 1141 22       		.uleb128 0x22
 2984 1142 3C020000 		.4byte	.LVL33
 2985 1146 390F0000 		.4byte	0xf39
 2986 114a 2A       		.uleb128 0x2a
 2987 114b 42020000 		.4byte	.LVL34
 2988 114f 240D0000 		.4byte	0xd24
 2989 1153 5D110000 		.4byte	0x115d
 2990 1157 29       		.uleb128 0x29
 2991 1158 01       		.uleb128 0x1
 2992 1159 50       		.byte	0x50
 2993 115a 01       		.uleb128 0x1
 2994 115b 30       		.byte	0x30
 2995 115c 00       		.byte	0
 2996 115d 2A       		.uleb128 0x2a
ARM GAS  /tmp/ccg0r710.s 			page 54


 2997 115e 4A020000 		.4byte	.LVL35
 2998 1162 D50E0000 		.4byte	0xed5
 2999 1166 75110000 		.4byte	0x1175
 3000 116a 29       		.uleb128 0x29
 3001 116b 01       		.uleb128 0x1
 3002 116c 51       		.byte	0x51
 3003 116d 01       		.uleb128 0x1
 3004 116e 3E       		.byte	0x3e
 3005 116f 29       		.uleb128 0x29
 3006 1170 01       		.uleb128 0x1
 3007 1171 50       		.byte	0x50
 3008 1172 01       		.uleb128 0x1
 3009 1173 37       		.byte	0x37
 3010 1174 00       		.byte	0
 3011 1175 2A       		.uleb128 0x2a
 3012 1176 52020000 		.4byte	.LVL36
 3013 117a D50E0000 		.4byte	0xed5
 3014 117e 8E110000 		.4byte	0x118e
 3015 1182 29       		.uleb128 0x29
 3016 1183 01       		.uleb128 0x1
 3017 1184 51       		.byte	0x51
 3018 1185 02       		.uleb128 0x2
 3019 1186 08       		.byte	0x8
 3020 1187 40       		.byte	0x40
 3021 1188 29       		.uleb128 0x29
 3022 1189 01       		.uleb128 0x1
 3023 118a 50       		.byte	0x50
 3024 118b 01       		.uleb128 0x1
 3025 118c 38       		.byte	0x38
 3026 118d 00       		.byte	0
 3027 118e 28       		.uleb128 0x28
 3028 118f 60020000 		.4byte	.LVL38
 3029 1193 3C0D0000 		.4byte	0xd3c
 3030 1197 29       		.uleb128 0x29
 3031 1198 01       		.uleb128 0x1
 3032 1199 50       		.byte	0x50
 3033 119a 01       		.uleb128 0x1
 3034 119b 30       		.byte	0x30
 3035 119c 00       		.byte	0
 3036 119d 00       		.byte	0
 3037 119e 24       		.uleb128 0x24
 3038 119f 4C000000 		.4byte	.LASF182
 3039 11a3 02       		.byte	0x2
 3040 11a4 24       		.byte	0x24
 3041 11a5 80020000 		.4byte	.LFB130
 3042 11a9 1C000000 		.4byte	.LFE130-.LFB130
 3043 11ad 01       		.uleb128 0x1
 3044 11ae 9C       		.byte	0x9c
 3045 11af 13120000 		.4byte	0x1213
 3046 11b3 2F       		.uleb128 0x2f
 3047 11b4 240D0000 		.4byte	0xd24
 3048 11b8 8A020000 		.4byte	.LBB47
 3049 11bc 08000000 		.4byte	.LBE47-.LBB47
 3050 11c0 02       		.byte	0x2
 3051 11c1 2D       		.byte	0x2d
 3052 11c2 F1110000 		.4byte	0x11f1
 3053 11c6 30       		.uleb128 0x30
ARM GAS  /tmp/ccg0r710.s 			page 55


 3054 11c7 300D0000 		.4byte	0xd30
 3055 11cb 01       		.byte	0x1
 3056 11cc 31       		.uleb128 0x31
 3057 11cd 8A020000 		.4byte	.LBB48
 3058 11d1 08000000 		.4byte	.LBE48-.LBB48
 3059 11d5 30       		.uleb128 0x30
 3060 11d6 300D0000 		.4byte	0xd30
 3061 11da 01       		.byte	0x1
 3062 11db 28       		.uleb128 0x28
 3063 11dc 92020000 		.4byte	.LVL43
 3064 11e0 D50E0000 		.4byte	0xed5
 3065 11e4 29       		.uleb128 0x29
 3066 11e5 01       		.uleb128 0x1
 3067 11e6 51       		.byte	0x51
 3068 11e7 01       		.uleb128 0x1
 3069 11e8 30       		.byte	0x30
 3070 11e9 29       		.uleb128 0x29
 3071 11ea 01       		.uleb128 0x1
 3072 11eb 50       		.byte	0x50
 3073 11ec 01       		.uleb128 0x1
 3074 11ed 36       		.byte	0x36
 3075 11ee 00       		.byte	0
 3076 11ef 00       		.byte	0
 3077 11f0 00       		.byte	0
 3078 11f1 22       		.uleb128 0x22
 3079 11f2 86020000 		.4byte	.LVL41
 3080 11f6 E50D0000 		.4byte	0xde5
 3081 11fa 22       		.uleb128 0x22
 3082 11fb 8A020000 		.4byte	.LVL42
 3083 11ff 41100000 		.4byte	0x1041
 3084 1203 2B       		.uleb128 0x2b
 3085 1204 9C020000 		.4byte	.LVL44
 3086 1208 3C0D0000 		.4byte	0xd3c
 3087 120c 29       		.uleb128 0x29
 3088 120d 01       		.uleb128 0x1
 3089 120e 50       		.byte	0x50
 3090 120f 01       		.uleb128 0x1
 3091 1210 30       		.byte	0x30
 3092 1211 00       		.byte	0
 3093 1212 00       		.byte	0
 3094 1213 2C       		.uleb128 0x2c
 3095 1214 540D0000 		.4byte	0xd54
 3096 1218 A0020000 		.4byte	.LFB141
 3097 121c 30000000 		.4byte	.LFE141-.LFB141
 3098 1220 01       		.uleb128 0x1
 3099 1221 9C       		.byte	0x9c
 3100 1222 92120000 		.4byte	0x1292
 3101 1226 2D       		.uleb128 0x2d
 3102 1227 600D0000 		.4byte	0xd60
 3103 122b 41010000 		.4byte	.LLST9
 3104 122f 33       		.uleb128 0x33
 3105 1230 58000000 		.4byte	.Ldebug_ranges0+0x58
 3106 1234 65120000 		.4byte	0x1265
 3107 1238 2D       		.uleb128 0x2d
 3108 1239 600D0000 		.4byte	0xd60
 3109 123d 62010000 		.4byte	.LLST10
 3110 1241 2A       		.uleb128 0x2a
ARM GAS  /tmp/ccg0r710.s 			page 56


 3111 1242 C4020000 		.4byte	.LVL49
 3112 1246 D50E0000 		.4byte	0xed5
 3113 124a 55120000 		.4byte	0x1255
 3114 124e 29       		.uleb128 0x29
 3115 124f 01       		.uleb128 0x1
 3116 1250 51       		.byte	0x51
 3117 1251 02       		.uleb128 0x2
 3118 1252 74       		.byte	0x74
 3119 1253 00       		.sleb128 0
 3120 1254 00       		.byte	0
 3121 1255 2B       		.uleb128 0x2b
 3122 1256 D0020000 		.4byte	.LVL51
 3123 125a D50E0000 		.4byte	0xed5
 3124 125e 29       		.uleb128 0x29
 3125 125f 01       		.uleb128 0x1
 3126 1260 50       		.byte	0x50
 3127 1261 01       		.uleb128 0x1
 3128 1262 31       		.byte	0x31
 3129 1263 00       		.byte	0
 3130 1264 00       		.byte	0
 3131 1265 2A       		.uleb128 0x2a
 3132 1266 B2020000 		.4byte	.LVL47
 3133 126a D50E0000 		.4byte	0xed5
 3134 126e 7D120000 		.4byte	0x127d
 3135 1272 29       		.uleb128 0x29
 3136 1273 01       		.uleb128 0x1
 3137 1274 51       		.byte	0x51
 3138 1275 01       		.uleb128 0x1
 3139 1276 4F       		.byte	0x4f
 3140 1277 29       		.uleb128 0x29
 3141 1278 01       		.uleb128 0x1
 3142 1279 50       		.byte	0x50
 3143 127a 01       		.uleb128 0x1
 3144 127b 30       		.byte	0x30
 3145 127c 00       		.byte	0
 3146 127d 2B       		.uleb128 0x2b
 3147 127e BE020000 		.4byte	.LVL48
 3148 1282 D50E0000 		.4byte	0xed5
 3149 1286 29       		.uleb128 0x29
 3150 1287 01       		.uleb128 0x1
 3151 1288 51       		.byte	0x51
 3152 1289 01       		.uleb128 0x1
 3153 128a 4F       		.byte	0x4f
 3154 128b 29       		.uleb128 0x29
 3155 128c 01       		.uleb128 0x1
 3156 128d 50       		.byte	0x50
 3157 128e 01       		.uleb128 0x1
 3158 128f 31       		.byte	0x31
 3159 1290 00       		.byte	0
 3160 1291 00       		.byte	0
 3161 1292 34       		.uleb128 0x34
 3162 1293 6A000000 		.4byte	.LASF183
 3163 1297 01       		.byte	0x1
 3164 1298 05       		.byte	0x5
 3165 1299 B8000000 		.4byte	0xb8
 3166 129d 05       		.uleb128 0x5
 3167 129e 03       		.byte	0x3
ARM GAS  /tmp/ccg0r710.s 			page 57


 3168 129f 00000000 		.4byte	i2stxdmamodeWM
 3169 12a3 34       		.uleb128 0x34
 3170 12a4 4F060000 		.4byte	.LASF184
 3171 12a8 01       		.byte	0x1
 3172 12a9 07       		.byte	0x7
 3173 12aa DA0B0000 		.4byte	0xbda
 3174 12ae 05       		.uleb128 0x5
 3175 12af 03       		.byte	0x3
 3176 12b0 00000000 		.4byte	i2cfgWM
 3177 12b4 11       		.uleb128 0x11
 3178 12b5 97000000 		.4byte	0x97
 3179 12b9 C4120000 		.4byte	0x12c4
 3180 12bd 12       		.uleb128 0x12
 3181 12be C3000000 		.4byte	0xc3
 3182 12c2 01       		.byte	0x1
 3183 12c3 00       		.byte	0
 3184 12c4 34       		.uleb128 0x34
 3185 12c5 60030000 		.4byte	.LASF185
 3186 12c9 01       		.byte	0x1
 3187 12ca 0B       		.byte	0xb
 3188 12cb B4120000 		.4byte	0x12b4
 3189 12cf 05       		.uleb128 0x5
 3190 12d0 03       		.byte	0x3
 3191 12d1 00020000 		.4byte	txbufWM
 3192 12d5 35       		.uleb128 0x35
 3193 12d6 B4020000 		.4byte	.LASF205
 3194 12da 01       		.byte	0x1
 3195 12db 0C       		.byte	0xc
 3196 12dc B4120000 		.4byte	0x12b4
 3197 12e0 11       		.uleb128 0x11
 3198 12e1 AD000000 		.4byte	0xad
 3199 12e5 F0120000 		.4byte	0x12f0
 3200 12e9 12       		.uleb128 0x12
 3201 12ea C3000000 		.4byte	0xc3
 3202 12ee 1F       		.byte	0x1f
 3203 12ef 00       		.byte	0
 3204 12f0 36       		.uleb128 0x36
 3205 12f1 62756600 		.ascii	"buf\000"
 3206 12f5 02       		.byte	0x2
 3207 12f6 1F       		.byte	0x1f
 3208 12f7 E0120000 		.4byte	0x12e0
 3209 12fb 05       		.uleb128 0x5
 3210 12fc 03       		.byte	0x3
 3211 12fd 00000000 		.4byte	buf
 3212 1301 37       		.uleb128 0x37
 3213 1302 40040000 		.4byte	.LASF186
 3214 1306 02       		.byte	0x2
 3215 1307 20       		.byte	0x20
 3216 1308 E0120000 		.4byte	0x12e0
 3217 130c 05       		.uleb128 0x5
 3218 130d 03       		.byte	0x3
 3219 130e 00000000 		.4byte	buf2
 3220 1312 37       		.uleb128 0x37
 3221 1313 3F050000 		.4byte	.LASF187
 3222 1317 02       		.byte	0x2
 3223 1318 21       		.byte	0x21
 3224 1319 E0120000 		.4byte	0x12e0
ARM GAS  /tmp/ccg0r710.s 			page 58


 3225 131d 05       		.uleb128 0x5
 3226 131e 03       		.byte	0x3
 3227 131f 00000000 		.4byte	rbuf
 3228 1323 37       		.uleb128 0x37
 3229 1324 BC050000 		.4byte	.LASF188
 3230 1328 02       		.byte	0x2
 3231 1329 22       		.byte	0x22
 3232 132a E0120000 		.4byte	0x12e0
 3233 132e 05       		.uleb128 0x5
 3234 132f 03       		.byte	0x3
 3235 1330 00000000 		.4byte	rbuf2
 3236 1334 38       		.uleb128 0x38
 3237 1335 82040000 		.4byte	.LASF189
 3238 1339 12       		.byte	0x12
 3239 133a DF07     		.2byte	0x7df
 3240 133c 9E040000 		.4byte	0x49e
 3241 1340 11       		.uleb128 0x11
 3242 1341 23090000 		.4byte	0x923
 3243 1345 50130000 		.4byte	0x1350
 3244 1349 12       		.uleb128 0x12
 3245 134a C3000000 		.4byte	0xc3
 3246 134e 0F       		.byte	0xf
 3247 134f 00       		.byte	0
 3248 1350 38       		.uleb128 0x38
 3249 1351 B7030000 		.4byte	.LASF190
 3250 1355 0C       		.byte	0xc
 3251 1356 BB01     		.2byte	0x1bb
 3252 1358 5C130000 		.4byte	0x135c
 3253 135c 10       		.uleb128 0x10
 3254 135d 40130000 		.4byte	0x1340
 3255 1361 38       		.uleb128 0x38
 3256 1362 23030000 		.4byte	.LASF191
 3257 1366 0F       		.byte	0xf
 3258 1367 B201     		.2byte	0x1b2
 3259 1369 2B0B0000 		.4byte	0xb2b
 3260 136d 38       		.uleb128 0x38
 3261 136e 98000000 		.4byte	.LASF192
 3262 1372 11       		.byte	0x11
 3263 1373 4B02     		.2byte	0x24b
 3264 1375 170C0000 		.4byte	0xc17
 3265 1379 37       		.uleb128 0x37
 3266 137a C2050000 		.4byte	.LASF193
 3267 137e 01       		.byte	0x1
 3268 137f 04       		.byte	0x4
 3269 1380 430A0000 		.4byte	0xa43
 3270 1384 05       		.uleb128 0x5
 3271 1385 03       		.byte	0x3
 3272 1386 00000000 		.4byte	i2sdmaWM
 3273 138a 39       		.uleb128 0x39
 3274 138b 0C050000 		.4byte	.LASF194
 3275 138f 13       		.byte	0x13
 3276 1390 21       		.byte	0x21
 3277 1391 A0130000 		.4byte	0x13a0
 3278 1395 17       		.uleb128 0x17
 3279 1396 A0130000 		.4byte	0x13a0
 3280 139a 17       		.uleb128 0x17
 3281 139b A0130000 		.4byte	0x13a0
ARM GAS  /tmp/ccg0r710.s 			page 59


 3282 139f 00       		.byte	0
 3283 13a0 09       		.uleb128 0x9
 3284 13a1 04       		.byte	0x4
 3285 13a2 AD000000 		.4byte	0xad
 3286 13a6 3A       		.uleb128 0x3a
 3287 13a7 36030000 		.4byte	.LASF196
 3288 13ab 0C       		.byte	0xc
 3289 13ac C201     		.2byte	0x1c2
 3290 13ae D5000000 		.4byte	0xd5
 3291 13b2 CB130000 		.4byte	0x13cb
 3292 13b6 17       		.uleb128 0x17
 3293 13b7 430A0000 		.4byte	0xa43
 3294 13bb 17       		.uleb128 0x17
 3295 13bc B8000000 		.4byte	0xb8
 3296 13c0 17       		.uleb128 0x17
 3297 13c1 2E090000 		.4byte	0x92e
 3298 13c5 17       		.uleb128 0x17
 3299 13c6 75020000 		.4byte	0x275
 3300 13ca 00       		.byte	0
 3301 13cb 3B       		.uleb128 0x3b
 3302 13cc D2000000 		.4byte	.LASF195
 3303 13d0 0D       		.byte	0xd
 3304 13d1 C201     		.2byte	0x1c2
 3305 13d3 E7130000 		.4byte	0x13e7
 3306 13d7 17       		.uleb128 0x17
 3307 13d8 320A0000 		.4byte	0xa32
 3308 13dc 17       		.uleb128 0x17
 3309 13dd 1C0A0000 		.4byte	0xa1c
 3310 13e1 17       		.uleb128 0x17
 3311 13e2 270A0000 		.4byte	0xa27
 3312 13e6 00       		.byte	0
 3313 13e7 3C       		.uleb128 0x3c
 3314 13e8 77020000 		.4byte	.LASF197
 3315 13ec 0E       		.byte	0xe
 3316 13ed 84       		.byte	0x84
 3317 13ee 13010000 		.4byte	0x113
 3318 13f2 1A140000 		.4byte	0x141a
 3319 13f6 17       		.uleb128 0x17
 3320 13f7 1A140000 		.4byte	0x141a
 3321 13fb 17       		.uleb128 0x17
 3322 13fc 860A0000 		.4byte	0xa86
 3323 1400 17       		.uleb128 0x17
 3324 1401 7E040000 		.4byte	0x47e
 3325 1405 17       		.uleb128 0x17
 3326 1406 CA000000 		.4byte	0xca
 3327 140a 17       		.uleb128 0x17
 3328 140b 78040000 		.4byte	0x478
 3329 140f 17       		.uleb128 0x17
 3330 1410 CA000000 		.4byte	0xca
 3331 1414 17       		.uleb128 0x17
 3332 1415 29010000 		.4byte	0x129
 3333 1419 00       		.byte	0
 3334 141a 09       		.uleb128 0x9
 3335 141b 04       		.byte	0x4
 3336 141c 2B0B0000 		.4byte	0xb2b
 3337 1420 3B       		.uleb128 0x3b
 3338 1421 55030000 		.4byte	.LASF198
ARM GAS  /tmp/ccg0r710.s 			page 60


 3339 1425 08       		.byte	0x8
 3340 1426 7501     		.2byte	0x175
 3341 1428 32140000 		.4byte	0x1432
 3342 142c 17       		.uleb128 0x17
 3343 142d 29010000 		.4byte	0x129
 3344 1431 00       		.byte	0
 3345 1432 3D       		.uleb128 0x3d
 3346 1433 56080000 		.4byte	.LASF206
 3347 1437 0E       		.byte	0xe
 3348 1438 81       		.byte	0x81
 3349 1439 17       		.uleb128 0x17
 3350 143a 1A140000 		.4byte	0x141a
 3351 143e 17       		.uleb128 0x17
 3352 143f D40B0000 		.4byte	0xbd4
 3353 1443 00       		.byte	0
 3354 1444 00       		.byte	0
 3355              		.section	.debug_abbrev,"",%progbits
 3356              	.Ldebug_abbrev0:
 3357 0000 01       		.uleb128 0x1
 3358 0001 11       		.uleb128 0x11
 3359 0002 01       		.byte	0x1
 3360 0003 25       		.uleb128 0x25
 3361 0004 0E       		.uleb128 0xe
 3362 0005 13       		.uleb128 0x13
 3363 0006 0B       		.uleb128 0xb
 3364 0007 03       		.uleb128 0x3
 3365 0008 0E       		.uleb128 0xe
 3366 0009 1B       		.uleb128 0x1b
 3367 000a 0E       		.uleb128 0xe
 3368 000b 11       		.uleb128 0x11
 3369 000c 01       		.uleb128 0x1
 3370 000d 12       		.uleb128 0x12
 3371 000e 06       		.uleb128 0x6
 3372 000f 10       		.uleb128 0x10
 3373 0010 17       		.uleb128 0x17
 3374 0011 00       		.byte	0
 3375 0012 00       		.byte	0
 3376 0013 02       		.uleb128 0x2
 3377 0014 24       		.uleb128 0x24
 3378 0015 00       		.byte	0
 3379 0016 0B       		.uleb128 0xb
 3380 0017 0B       		.uleb128 0xb
 3381 0018 3E       		.uleb128 0x3e
 3382 0019 0B       		.uleb128 0xb
 3383 001a 03       		.uleb128 0x3
 3384 001b 0E       		.uleb128 0xe
 3385 001c 00       		.byte	0
 3386 001d 00       		.byte	0
 3387 001e 03       		.uleb128 0x3
 3388 001f 16       		.uleb128 0x16
 3389 0020 00       		.byte	0
 3390 0021 03       		.uleb128 0x3
 3391 0022 0E       		.uleb128 0xe
 3392 0023 3A       		.uleb128 0x3a
 3393 0024 0B       		.uleb128 0xb
 3394 0025 3B       		.uleb128 0x3b
 3395 0026 0B       		.uleb128 0xb
ARM GAS  /tmp/ccg0r710.s 			page 61


 3396 0027 49       		.uleb128 0x49
 3397 0028 13       		.uleb128 0x13
 3398 0029 00       		.byte	0
 3399 002a 00       		.byte	0
 3400 002b 04       		.uleb128 0x4
 3401 002c 24       		.uleb128 0x24
 3402 002d 00       		.byte	0
 3403 002e 0B       		.uleb128 0xb
 3404 002f 0B       		.uleb128 0xb
 3405 0030 3E       		.uleb128 0x3e
 3406 0031 0B       		.uleb128 0xb
 3407 0032 03       		.uleb128 0x3
 3408 0033 08       		.uleb128 0x8
 3409 0034 00       		.byte	0
 3410 0035 00       		.byte	0
 3411 0036 05       		.uleb128 0x5
 3412 0037 13       		.uleb128 0x13
 3413 0038 01       		.byte	0x1
 3414 0039 03       		.uleb128 0x3
 3415 003a 0E       		.uleb128 0xe
 3416 003b 0B       		.uleb128 0xb
 3417 003c 0B       		.uleb128 0xb
 3418 003d 3A       		.uleb128 0x3a
 3419 003e 0B       		.uleb128 0xb
 3420 003f 3B       		.uleb128 0x3b
 3421 0040 0B       		.uleb128 0xb
 3422 0041 01       		.uleb128 0x1
 3423 0042 13       		.uleb128 0x13
 3424 0043 00       		.byte	0
 3425 0044 00       		.byte	0
 3426 0045 06       		.uleb128 0x6
 3427 0046 0D       		.uleb128 0xd
 3428 0047 00       		.byte	0
 3429 0048 03       		.uleb128 0x3
 3430 0049 0E       		.uleb128 0xe
 3431 004a 3A       		.uleb128 0x3a
 3432 004b 0B       		.uleb128 0xb
 3433 004c 3B       		.uleb128 0x3b
 3434 004d 0B       		.uleb128 0xb
 3435 004e 49       		.uleb128 0x49
 3436 004f 13       		.uleb128 0x13
 3437 0050 38       		.uleb128 0x38
 3438 0051 0B       		.uleb128 0xb
 3439 0052 00       		.byte	0
 3440 0053 00       		.byte	0
 3441 0054 07       		.uleb128 0x7
 3442 0055 0D       		.uleb128 0xd
 3443 0056 00       		.byte	0
 3444 0057 03       		.uleb128 0x3
 3445 0058 08       		.uleb128 0x8
 3446 0059 3A       		.uleb128 0x3a
 3447 005a 0B       		.uleb128 0xb
 3448 005b 3B       		.uleb128 0x3b
 3449 005c 0B       		.uleb128 0xb
 3450 005d 49       		.uleb128 0x49
 3451 005e 13       		.uleb128 0x13
 3452 005f 38       		.uleb128 0x38
ARM GAS  /tmp/ccg0r710.s 			page 62


 3453 0060 0B       		.uleb128 0xb
 3454 0061 00       		.byte	0
 3455 0062 00       		.byte	0
 3456 0063 08       		.uleb128 0x8
 3457 0064 13       		.uleb128 0x13
 3458 0065 01       		.byte	0x1
 3459 0066 0B       		.uleb128 0xb
 3460 0067 0B       		.uleb128 0xb
 3461 0068 3A       		.uleb128 0x3a
 3462 0069 0B       		.uleb128 0xb
 3463 006a 3B       		.uleb128 0x3b
 3464 006b 0B       		.uleb128 0xb
 3465 006c 01       		.uleb128 0x1
 3466 006d 13       		.uleb128 0x13
 3467 006e 00       		.byte	0
 3468 006f 00       		.byte	0
 3469 0070 09       		.uleb128 0x9
 3470 0071 0F       		.uleb128 0xf
 3471 0072 00       		.byte	0
 3472 0073 0B       		.uleb128 0xb
 3473 0074 0B       		.uleb128 0xb
 3474 0075 49       		.uleb128 0x49
 3475 0076 13       		.uleb128 0x13
 3476 0077 00       		.byte	0
 3477 0078 00       		.byte	0
 3478 0079 0A       		.uleb128 0xa
 3479 007a 0F       		.uleb128 0xf
 3480 007b 00       		.byte	0
 3481 007c 0B       		.uleb128 0xb
 3482 007d 0B       		.uleb128 0xb
 3483 007e 00       		.byte	0
 3484 007f 00       		.byte	0
 3485 0080 0B       		.uleb128 0xb
 3486 0081 13       		.uleb128 0x13
 3487 0082 01       		.byte	0x1
 3488 0083 03       		.uleb128 0x3
 3489 0084 0E       		.uleb128 0xe
 3490 0085 0B       		.uleb128 0xb
 3491 0086 0B       		.uleb128 0xb
 3492 0087 3A       		.uleb128 0x3a
 3493 0088 0B       		.uleb128 0xb
 3494 0089 3B       		.uleb128 0x3b
 3495 008a 05       		.uleb128 0x5
 3496 008b 01       		.uleb128 0x1
 3497 008c 13       		.uleb128 0x13
 3498 008d 00       		.byte	0
 3499 008e 00       		.byte	0
 3500 008f 0C       		.uleb128 0xc
 3501 0090 0D       		.uleb128 0xd
 3502 0091 00       		.byte	0
 3503 0092 03       		.uleb128 0x3
 3504 0093 08       		.uleb128 0x8
 3505 0094 3A       		.uleb128 0x3a
 3506 0095 0B       		.uleb128 0xb
 3507 0096 3B       		.uleb128 0x3b
 3508 0097 05       		.uleb128 0x5
 3509 0098 49       		.uleb128 0x49
ARM GAS  /tmp/ccg0r710.s 			page 63


 3510 0099 13       		.uleb128 0x13
 3511 009a 38       		.uleb128 0x38
 3512 009b 0B       		.uleb128 0xb
 3513 009c 00       		.byte	0
 3514 009d 00       		.byte	0
 3515 009e 0D       		.uleb128 0xd
 3516 009f 35       		.uleb128 0x35
 3517 00a0 00       		.byte	0
 3518 00a1 49       		.uleb128 0x49
 3519 00a2 13       		.uleb128 0x13
 3520 00a3 00       		.byte	0
 3521 00a4 00       		.byte	0
 3522 00a5 0E       		.uleb128 0xe
 3523 00a6 17       		.uleb128 0x17
 3524 00a7 01       		.byte	0x1
 3525 00a8 0B       		.uleb128 0xb
 3526 00a9 0B       		.uleb128 0xb
 3527 00aa 3A       		.uleb128 0x3a
 3528 00ab 0B       		.uleb128 0xb
 3529 00ac 3B       		.uleb128 0x3b
 3530 00ad 0B       		.uleb128 0xb
 3531 00ae 01       		.uleb128 0x1
 3532 00af 13       		.uleb128 0x13
 3533 00b0 00       		.byte	0
 3534 00b1 00       		.byte	0
 3535 00b2 0F       		.uleb128 0xf
 3536 00b3 0D       		.uleb128 0xd
 3537 00b4 00       		.byte	0
 3538 00b5 03       		.uleb128 0x3
 3539 00b6 0E       		.uleb128 0xe
 3540 00b7 3A       		.uleb128 0x3a
 3541 00b8 0B       		.uleb128 0xb
 3542 00b9 3B       		.uleb128 0x3b
 3543 00ba 0B       		.uleb128 0xb
 3544 00bb 49       		.uleb128 0x49
 3545 00bc 13       		.uleb128 0x13
 3546 00bd 00       		.byte	0
 3547 00be 00       		.byte	0
 3548 00bf 10       		.uleb128 0x10
 3549 00c0 26       		.uleb128 0x26
 3550 00c1 00       		.byte	0
 3551 00c2 49       		.uleb128 0x49
 3552 00c3 13       		.uleb128 0x13
 3553 00c4 00       		.byte	0
 3554 00c5 00       		.byte	0
 3555 00c6 11       		.uleb128 0x11
 3556 00c7 01       		.uleb128 0x1
 3557 00c8 01       		.byte	0x1
 3558 00c9 49       		.uleb128 0x49
 3559 00ca 13       		.uleb128 0x13
 3560 00cb 01       		.uleb128 0x1
 3561 00cc 13       		.uleb128 0x13
 3562 00cd 00       		.byte	0
 3563 00ce 00       		.byte	0
 3564 00cf 12       		.uleb128 0x12
 3565 00d0 21       		.uleb128 0x21
 3566 00d1 00       		.byte	0
ARM GAS  /tmp/ccg0r710.s 			page 64


 3567 00d2 49       		.uleb128 0x49
 3568 00d3 13       		.uleb128 0x13
 3569 00d4 2F       		.uleb128 0x2f
 3570 00d5 0B       		.uleb128 0xb
 3571 00d6 00       		.byte	0
 3572 00d7 00       		.byte	0
 3573 00d8 13       		.uleb128 0x13
 3574 00d9 13       		.uleb128 0x13
 3575 00da 01       		.byte	0x1
 3576 00db 0B       		.uleb128 0xb
 3577 00dc 0B       		.uleb128 0xb
 3578 00dd 3A       		.uleb128 0x3a
 3579 00de 0B       		.uleb128 0xb
 3580 00df 3B       		.uleb128 0x3b
 3581 00e0 05       		.uleb128 0x5
 3582 00e1 01       		.uleb128 0x1
 3583 00e2 13       		.uleb128 0x13
 3584 00e3 00       		.byte	0
 3585 00e4 00       		.byte	0
 3586 00e5 14       		.uleb128 0x14
 3587 00e6 0D       		.uleb128 0xd
 3588 00e7 00       		.byte	0
 3589 00e8 03       		.uleb128 0x3
 3590 00e9 0E       		.uleb128 0xe
 3591 00ea 3A       		.uleb128 0x3a
 3592 00eb 0B       		.uleb128 0xb
 3593 00ec 3B       		.uleb128 0x3b
 3594 00ed 05       		.uleb128 0x5
 3595 00ee 49       		.uleb128 0x49
 3596 00ef 13       		.uleb128 0x13
 3597 00f0 38       		.uleb128 0x38
 3598 00f1 0B       		.uleb128 0xb
 3599 00f2 00       		.byte	0
 3600 00f3 00       		.byte	0
 3601 00f4 15       		.uleb128 0x15
 3602 00f5 16       		.uleb128 0x16
 3603 00f6 00       		.byte	0
 3604 00f7 03       		.uleb128 0x3
 3605 00f8 0E       		.uleb128 0xe
 3606 00f9 3A       		.uleb128 0x3a
 3607 00fa 0B       		.uleb128 0xb
 3608 00fb 3B       		.uleb128 0x3b
 3609 00fc 05       		.uleb128 0x5
 3610 00fd 49       		.uleb128 0x49
 3611 00fe 13       		.uleb128 0x13
 3612 00ff 00       		.byte	0
 3613 0100 00       		.byte	0
 3614 0101 16       		.uleb128 0x16
 3615 0102 15       		.uleb128 0x15
 3616 0103 01       		.byte	0x1
 3617 0104 27       		.uleb128 0x27
 3618 0105 19       		.uleb128 0x19
 3619 0106 01       		.uleb128 0x1
 3620 0107 13       		.uleb128 0x13
 3621 0108 00       		.byte	0
 3622 0109 00       		.byte	0
 3623 010a 17       		.uleb128 0x17
ARM GAS  /tmp/ccg0r710.s 			page 65


 3624 010b 05       		.uleb128 0x5
 3625 010c 00       		.byte	0
 3626 010d 49       		.uleb128 0x49
 3627 010e 13       		.uleb128 0x13
 3628 010f 00       		.byte	0
 3629 0110 00       		.byte	0
 3630 0111 18       		.uleb128 0x18
 3631 0112 0D       		.uleb128 0xd
 3632 0113 00       		.byte	0
 3633 0114 03       		.uleb128 0x3
 3634 0115 08       		.uleb128 0x8
 3635 0116 3A       		.uleb128 0x3a
 3636 0117 0B       		.uleb128 0xb
 3637 0118 3B       		.uleb128 0x3b
 3638 0119 0B       		.uleb128 0xb
 3639 011a 49       		.uleb128 0x49
 3640 011b 13       		.uleb128 0x13
 3641 011c 00       		.byte	0
 3642 011d 00       		.byte	0
 3643 011e 19       		.uleb128 0x19
 3644 011f 04       		.uleb128 0x4
 3645 0120 01       		.byte	0x1
 3646 0121 0B       		.uleb128 0xb
 3647 0122 0B       		.uleb128 0xb
 3648 0123 3A       		.uleb128 0x3a
 3649 0124 0B       		.uleb128 0xb
 3650 0125 3B       		.uleb128 0x3b
 3651 0126 0B       		.uleb128 0xb
 3652 0127 01       		.uleb128 0x1
 3653 0128 13       		.uleb128 0x13
 3654 0129 00       		.byte	0
 3655 012a 00       		.byte	0
 3656 012b 1A       		.uleb128 0x1a
 3657 012c 28       		.uleb128 0x28
 3658 012d 00       		.byte	0
 3659 012e 03       		.uleb128 0x3
 3660 012f 0E       		.uleb128 0xe
 3661 0130 1C       		.uleb128 0x1c
 3662 0131 0D       		.uleb128 0xd
 3663 0132 00       		.byte	0
 3664 0133 00       		.byte	0
 3665 0134 1B       		.uleb128 0x1b
 3666 0135 04       		.uleb128 0x4
 3667 0136 01       		.byte	0x1
 3668 0137 0B       		.uleb128 0xb
 3669 0138 0B       		.uleb128 0xb
 3670 0139 3A       		.uleb128 0x3a
 3671 013a 0B       		.uleb128 0xb
 3672 013b 3B       		.uleb128 0x3b
 3673 013c 05       		.uleb128 0x5
 3674 013d 01       		.uleb128 0x1
 3675 013e 13       		.uleb128 0x13
 3676 013f 00       		.byte	0
 3677 0140 00       		.byte	0
 3678 0141 1C       		.uleb128 0x1c
 3679 0142 2E       		.uleb128 0x2e
 3680 0143 01       		.byte	0x1
ARM GAS  /tmp/ccg0r710.s 			page 66


 3681 0144 3F       		.uleb128 0x3f
 3682 0145 19       		.uleb128 0x19
 3683 0146 03       		.uleb128 0x3
 3684 0147 0E       		.uleb128 0xe
 3685 0148 3A       		.uleb128 0x3a
 3686 0149 0B       		.uleb128 0xb
 3687 014a 3B       		.uleb128 0x3b
 3688 014b 0B       		.uleb128 0xb
 3689 014c 27       		.uleb128 0x27
 3690 014d 19       		.uleb128 0x19
 3691 014e 20       		.uleb128 0x20
 3692 014f 0B       		.uleb128 0xb
 3693 0150 01       		.uleb128 0x1
 3694 0151 13       		.uleb128 0x13
 3695 0152 00       		.byte	0
 3696 0153 00       		.byte	0
 3697 0154 1D       		.uleb128 0x1d
 3698 0155 05       		.uleb128 0x5
 3699 0156 00       		.byte	0
 3700 0157 03       		.uleb128 0x3
 3701 0158 08       		.uleb128 0x8
 3702 0159 3A       		.uleb128 0x3a
 3703 015a 0B       		.uleb128 0xb
 3704 015b 3B       		.uleb128 0x3b
 3705 015c 0B       		.uleb128 0xb
 3706 015d 49       		.uleb128 0x49
 3707 015e 13       		.uleb128 0x13
 3708 015f 00       		.byte	0
 3709 0160 00       		.byte	0
 3710 0161 1E       		.uleb128 0x1e
 3711 0162 05       		.uleb128 0x5
 3712 0163 00       		.byte	0
 3713 0164 03       		.uleb128 0x3
 3714 0165 0E       		.uleb128 0xe
 3715 0166 3A       		.uleb128 0x3a
 3716 0167 0B       		.uleb128 0xb
 3717 0168 3B       		.uleb128 0x3b
 3718 0169 0B       		.uleb128 0xb
 3719 016a 49       		.uleb128 0x49
 3720 016b 13       		.uleb128 0x13
 3721 016c 00       		.byte	0
 3722 016d 00       		.byte	0
 3723 016e 1F       		.uleb128 0x1f
 3724 016f 2E       		.uleb128 0x2e
 3725 0170 01       		.byte	0x1
 3726 0171 03       		.uleb128 0x3
 3727 0172 0E       		.uleb128 0xe
 3728 0173 3A       		.uleb128 0x3a
 3729 0174 0B       		.uleb128 0xb
 3730 0175 3B       		.uleb128 0x3b
 3731 0176 0B       		.uleb128 0xb
 3732 0177 27       		.uleb128 0x27
 3733 0178 19       		.uleb128 0x19
 3734 0179 11       		.uleb128 0x11
 3735 017a 01       		.uleb128 0x1
 3736 017b 12       		.uleb128 0x12
 3737 017c 06       		.uleb128 0x6
ARM GAS  /tmp/ccg0r710.s 			page 67


 3738 017d 40       		.uleb128 0x40
 3739 017e 18       		.uleb128 0x18
 3740 017f 9742     		.uleb128 0x2117
 3741 0181 19       		.uleb128 0x19
 3742 0182 01       		.uleb128 0x1
 3743 0183 13       		.uleb128 0x13
 3744 0184 00       		.byte	0
 3745 0185 00       		.byte	0
 3746 0186 20       		.uleb128 0x20
 3747 0187 05       		.uleb128 0x5
 3748 0188 00       		.byte	0
 3749 0189 03       		.uleb128 0x3
 3750 018a 08       		.uleb128 0x8
 3751 018b 3A       		.uleb128 0x3a
 3752 018c 0B       		.uleb128 0xb
 3753 018d 3B       		.uleb128 0x3b
 3754 018e 0B       		.uleb128 0xb
 3755 018f 49       		.uleb128 0x49
 3756 0190 13       		.uleb128 0x13
 3757 0191 02       		.uleb128 0x2
 3758 0192 17       		.uleb128 0x17
 3759 0193 00       		.byte	0
 3760 0194 00       		.byte	0
 3761 0195 21       		.uleb128 0x21
 3762 0196 05       		.uleb128 0x5
 3763 0197 00       		.byte	0
 3764 0198 03       		.uleb128 0x3
 3765 0199 0E       		.uleb128 0xe
 3766 019a 3A       		.uleb128 0x3a
 3767 019b 0B       		.uleb128 0xb
 3768 019c 3B       		.uleb128 0x3b
 3769 019d 0B       		.uleb128 0xb
 3770 019e 49       		.uleb128 0x49
 3771 019f 13       		.uleb128 0x13
 3772 01a0 02       		.uleb128 0x2
 3773 01a1 17       		.uleb128 0x17
 3774 01a2 00       		.byte	0
 3775 01a3 00       		.byte	0
 3776 01a4 22       		.uleb128 0x22
 3777 01a5 898201   		.uleb128 0x4109
 3778 01a8 00       		.byte	0
 3779 01a9 11       		.uleb128 0x11
 3780 01aa 01       		.uleb128 0x1
 3781 01ab 31       		.uleb128 0x31
 3782 01ac 13       		.uleb128 0x13
 3783 01ad 00       		.byte	0
 3784 01ae 00       		.byte	0
 3785 01af 23       		.uleb128 0x23
 3786 01b0 2E       		.uleb128 0x2e
 3787 01b1 00       		.byte	0
 3788 01b2 3F       		.uleb128 0x3f
 3789 01b3 19       		.uleb128 0x19
 3790 01b4 03       		.uleb128 0x3
 3791 01b5 0E       		.uleb128 0xe
 3792 01b6 3A       		.uleb128 0x3a
 3793 01b7 0B       		.uleb128 0xb
 3794 01b8 3B       		.uleb128 0x3b
ARM GAS  /tmp/ccg0r710.s 			page 68


 3795 01b9 0B       		.uleb128 0xb
 3796 01ba 27       		.uleb128 0x27
 3797 01bb 19       		.uleb128 0x19
 3798 01bc 11       		.uleb128 0x11
 3799 01bd 01       		.uleb128 0x1
 3800 01be 12       		.uleb128 0x12
 3801 01bf 06       		.uleb128 0x6
 3802 01c0 40       		.uleb128 0x40
 3803 01c1 18       		.uleb128 0x18
 3804 01c2 9742     		.uleb128 0x2117
 3805 01c4 19       		.uleb128 0x19
 3806 01c5 00       		.byte	0
 3807 01c6 00       		.byte	0
 3808 01c7 24       		.uleb128 0x24
 3809 01c8 2E       		.uleb128 0x2e
 3810 01c9 01       		.byte	0x1
 3811 01ca 3F       		.uleb128 0x3f
 3812 01cb 19       		.uleb128 0x19
 3813 01cc 03       		.uleb128 0x3
 3814 01cd 0E       		.uleb128 0xe
 3815 01ce 3A       		.uleb128 0x3a
 3816 01cf 0B       		.uleb128 0xb
 3817 01d0 3B       		.uleb128 0x3b
 3818 01d1 0B       		.uleb128 0xb
 3819 01d2 27       		.uleb128 0x27
 3820 01d3 19       		.uleb128 0x19
 3821 01d4 11       		.uleb128 0x11
 3822 01d5 01       		.uleb128 0x1
 3823 01d6 12       		.uleb128 0x12
 3824 01d7 06       		.uleb128 0x6
 3825 01d8 40       		.uleb128 0x40
 3826 01d9 18       		.uleb128 0x18
 3827 01da 9742     		.uleb128 0x2117
 3828 01dc 19       		.uleb128 0x19
 3829 01dd 01       		.uleb128 0x1
 3830 01de 13       		.uleb128 0x13
 3831 01df 00       		.byte	0
 3832 01e0 00       		.byte	0
 3833 01e1 25       		.uleb128 0x25
 3834 01e2 34       		.uleb128 0x34
 3835 01e3 00       		.byte	0
 3836 01e4 03       		.uleb128 0x3
 3837 01e5 08       		.uleb128 0x8
 3838 01e6 3A       		.uleb128 0x3a
 3839 01e7 0B       		.uleb128 0xb
 3840 01e8 3B       		.uleb128 0x3b
 3841 01e9 0B       		.uleb128 0xb
 3842 01ea 49       		.uleb128 0x49
 3843 01eb 13       		.uleb128 0x13
 3844 01ec 02       		.uleb128 0x2
 3845 01ed 17       		.uleb128 0x17
 3846 01ee 00       		.byte	0
 3847 01ef 00       		.byte	0
 3848 01f0 26       		.uleb128 0x26
 3849 01f1 2E       		.uleb128 0x2e
 3850 01f2 00       		.byte	0
 3851 01f3 03       		.uleb128 0x3
ARM GAS  /tmp/ccg0r710.s 			page 69


 3852 01f4 0E       		.uleb128 0xe
 3853 01f5 3A       		.uleb128 0x3a
 3854 01f6 0B       		.uleb128 0xb
 3855 01f7 3B       		.uleb128 0x3b
 3856 01f8 0B       		.uleb128 0xb
 3857 01f9 27       		.uleb128 0x27
 3858 01fa 19       		.uleb128 0x19
 3859 01fb 20       		.uleb128 0x20
 3860 01fc 0B       		.uleb128 0xb
 3861 01fd 00       		.byte	0
 3862 01fe 00       		.byte	0
 3863 01ff 27       		.uleb128 0x27
 3864 0200 1D       		.uleb128 0x1d
 3865 0201 01       		.byte	0x1
 3866 0202 31       		.uleb128 0x31
 3867 0203 13       		.uleb128 0x13
 3868 0204 52       		.uleb128 0x52
 3869 0205 01       		.uleb128 0x1
 3870 0206 55       		.uleb128 0x55
 3871 0207 17       		.uleb128 0x17
 3872 0208 58       		.uleb128 0x58
 3873 0209 0B       		.uleb128 0xb
 3874 020a 59       		.uleb128 0x59
 3875 020b 0B       		.uleb128 0xb
 3876 020c 01       		.uleb128 0x1
 3877 020d 13       		.uleb128 0x13
 3878 020e 00       		.byte	0
 3879 020f 00       		.byte	0
 3880 0210 28       		.uleb128 0x28
 3881 0211 898201   		.uleb128 0x4109
 3882 0214 01       		.byte	0x1
 3883 0215 11       		.uleb128 0x11
 3884 0216 01       		.uleb128 0x1
 3885 0217 31       		.uleb128 0x31
 3886 0218 13       		.uleb128 0x13
 3887 0219 00       		.byte	0
 3888 021a 00       		.byte	0
 3889 021b 29       		.uleb128 0x29
 3890 021c 8A8201   		.uleb128 0x410a
 3891 021f 00       		.byte	0
 3892 0220 02       		.uleb128 0x2
 3893 0221 18       		.uleb128 0x18
 3894 0222 9142     		.uleb128 0x2111
 3895 0224 18       		.uleb128 0x18
 3896 0225 00       		.byte	0
 3897 0226 00       		.byte	0
 3898 0227 2A       		.uleb128 0x2a
 3899 0228 898201   		.uleb128 0x4109
 3900 022b 01       		.byte	0x1
 3901 022c 11       		.uleb128 0x11
 3902 022d 01       		.uleb128 0x1
 3903 022e 31       		.uleb128 0x31
 3904 022f 13       		.uleb128 0x13
 3905 0230 01       		.uleb128 0x1
 3906 0231 13       		.uleb128 0x13
 3907 0232 00       		.byte	0
 3908 0233 00       		.byte	0
ARM GAS  /tmp/ccg0r710.s 			page 70


 3909 0234 2B       		.uleb128 0x2b
 3910 0235 898201   		.uleb128 0x4109
 3911 0238 01       		.byte	0x1
 3912 0239 11       		.uleb128 0x11
 3913 023a 01       		.uleb128 0x1
 3914 023b 9542     		.uleb128 0x2115
 3915 023d 19       		.uleb128 0x19
 3916 023e 31       		.uleb128 0x31
 3917 023f 13       		.uleb128 0x13
 3918 0240 00       		.byte	0
 3919 0241 00       		.byte	0
 3920 0242 2C       		.uleb128 0x2c
 3921 0243 2E       		.uleb128 0x2e
 3922 0244 01       		.byte	0x1
 3923 0245 31       		.uleb128 0x31
 3924 0246 13       		.uleb128 0x13
 3925 0247 11       		.uleb128 0x11
 3926 0248 01       		.uleb128 0x1
 3927 0249 12       		.uleb128 0x12
 3928 024a 06       		.uleb128 0x6
 3929 024b 40       		.uleb128 0x40
 3930 024c 18       		.uleb128 0x18
 3931 024d 9742     		.uleb128 0x2117
 3932 024f 19       		.uleb128 0x19
 3933 0250 01       		.uleb128 0x1
 3934 0251 13       		.uleb128 0x13
 3935 0252 00       		.byte	0
 3936 0253 00       		.byte	0
 3937 0254 2D       		.uleb128 0x2d
 3938 0255 05       		.uleb128 0x5
 3939 0256 00       		.byte	0
 3940 0257 31       		.uleb128 0x31
 3941 0258 13       		.uleb128 0x13
 3942 0259 02       		.uleb128 0x2
 3943 025a 17       		.uleb128 0x17
 3944 025b 00       		.byte	0
 3945 025c 00       		.byte	0
 3946 025d 2E       		.uleb128 0x2e
 3947 025e 0B       		.uleb128 0xb
 3948 025f 01       		.byte	0x1
 3949 0260 11       		.uleb128 0x11
 3950 0261 01       		.uleb128 0x1
 3951 0262 12       		.uleb128 0x12
 3952 0263 06       		.uleb128 0x6
 3953 0264 01       		.uleb128 0x1
 3954 0265 13       		.uleb128 0x13
 3955 0266 00       		.byte	0
 3956 0267 00       		.byte	0
 3957 0268 2F       		.uleb128 0x2f
 3958 0269 1D       		.uleb128 0x1d
 3959 026a 01       		.byte	0x1
 3960 026b 31       		.uleb128 0x31
 3961 026c 13       		.uleb128 0x13
 3962 026d 11       		.uleb128 0x11
 3963 026e 01       		.uleb128 0x1
 3964 026f 12       		.uleb128 0x12
 3965 0270 06       		.uleb128 0x6
ARM GAS  /tmp/ccg0r710.s 			page 71


 3966 0271 58       		.uleb128 0x58
 3967 0272 0B       		.uleb128 0xb
 3968 0273 59       		.uleb128 0x59
 3969 0274 0B       		.uleb128 0xb
 3970 0275 01       		.uleb128 0x1
 3971 0276 13       		.uleb128 0x13
 3972 0277 00       		.byte	0
 3973 0278 00       		.byte	0
 3974 0279 30       		.uleb128 0x30
 3975 027a 05       		.uleb128 0x5
 3976 027b 00       		.byte	0
 3977 027c 31       		.uleb128 0x31
 3978 027d 13       		.uleb128 0x13
 3979 027e 1C       		.uleb128 0x1c
 3980 027f 0B       		.uleb128 0xb
 3981 0280 00       		.byte	0
 3982 0281 00       		.byte	0
 3983 0282 31       		.uleb128 0x31
 3984 0283 0B       		.uleb128 0xb
 3985 0284 01       		.byte	0x1
 3986 0285 11       		.uleb128 0x11
 3987 0286 01       		.uleb128 0x1
 3988 0287 12       		.uleb128 0x12
 3989 0288 06       		.uleb128 0x6
 3990 0289 00       		.byte	0
 3991 028a 00       		.byte	0
 3992 028b 32       		.uleb128 0x32
 3993 028c 0B       		.uleb128 0xb
 3994 028d 01       		.byte	0x1
 3995 028e 55       		.uleb128 0x55
 3996 028f 17       		.uleb128 0x17
 3997 0290 00       		.byte	0
 3998 0291 00       		.byte	0
 3999 0292 33       		.uleb128 0x33
 4000 0293 0B       		.uleb128 0xb
 4001 0294 01       		.byte	0x1
 4002 0295 55       		.uleb128 0x55
 4003 0296 17       		.uleb128 0x17
 4004 0297 01       		.uleb128 0x1
 4005 0298 13       		.uleb128 0x13
 4006 0299 00       		.byte	0
 4007 029a 00       		.byte	0
 4008 029b 34       		.uleb128 0x34
 4009 029c 34       		.uleb128 0x34
 4010 029d 00       		.byte	0
 4011 029e 03       		.uleb128 0x3
 4012 029f 0E       		.uleb128 0xe
 4013 02a0 3A       		.uleb128 0x3a
 4014 02a1 0B       		.uleb128 0xb
 4015 02a2 3B       		.uleb128 0x3b
 4016 02a3 0B       		.uleb128 0xb
 4017 02a4 49       		.uleb128 0x49
 4018 02a5 13       		.uleb128 0x13
 4019 02a6 02       		.uleb128 0x2
 4020 02a7 18       		.uleb128 0x18
 4021 02a8 00       		.byte	0
 4022 02a9 00       		.byte	0
ARM GAS  /tmp/ccg0r710.s 			page 72


 4023 02aa 35       		.uleb128 0x35
 4024 02ab 34       		.uleb128 0x34
 4025 02ac 00       		.byte	0
 4026 02ad 03       		.uleb128 0x3
 4027 02ae 0E       		.uleb128 0xe
 4028 02af 3A       		.uleb128 0x3a
 4029 02b0 0B       		.uleb128 0xb
 4030 02b1 3B       		.uleb128 0x3b
 4031 02b2 0B       		.uleb128 0xb
 4032 02b3 49       		.uleb128 0x49
 4033 02b4 13       		.uleb128 0x13
 4034 02b5 00       		.byte	0
 4035 02b6 00       		.byte	0
 4036 02b7 36       		.uleb128 0x36
 4037 02b8 34       		.uleb128 0x34
 4038 02b9 00       		.byte	0
 4039 02ba 03       		.uleb128 0x3
 4040 02bb 08       		.uleb128 0x8
 4041 02bc 3A       		.uleb128 0x3a
 4042 02bd 0B       		.uleb128 0xb
 4043 02be 3B       		.uleb128 0x3b
 4044 02bf 0B       		.uleb128 0xb
 4045 02c0 49       		.uleb128 0x49
 4046 02c1 13       		.uleb128 0x13
 4047 02c2 3F       		.uleb128 0x3f
 4048 02c3 19       		.uleb128 0x19
 4049 02c4 02       		.uleb128 0x2
 4050 02c5 18       		.uleb128 0x18
 4051 02c6 00       		.byte	0
 4052 02c7 00       		.byte	0
 4053 02c8 37       		.uleb128 0x37
 4054 02c9 34       		.uleb128 0x34
 4055 02ca 00       		.byte	0
 4056 02cb 03       		.uleb128 0x3
 4057 02cc 0E       		.uleb128 0xe
 4058 02cd 3A       		.uleb128 0x3a
 4059 02ce 0B       		.uleb128 0xb
 4060 02cf 3B       		.uleb128 0x3b
 4061 02d0 0B       		.uleb128 0xb
 4062 02d1 49       		.uleb128 0x49
 4063 02d2 13       		.uleb128 0x13
 4064 02d3 3F       		.uleb128 0x3f
 4065 02d4 19       		.uleb128 0x19
 4066 02d5 02       		.uleb128 0x2
 4067 02d6 18       		.uleb128 0x18
 4068 02d7 00       		.byte	0
 4069 02d8 00       		.byte	0
 4070 02d9 38       		.uleb128 0x38
 4071 02da 34       		.uleb128 0x34
 4072 02db 00       		.byte	0
 4073 02dc 03       		.uleb128 0x3
 4074 02dd 0E       		.uleb128 0xe
 4075 02de 3A       		.uleb128 0x3a
 4076 02df 0B       		.uleb128 0xb
 4077 02e0 3B       		.uleb128 0x3b
 4078 02e1 05       		.uleb128 0x5
 4079 02e2 49       		.uleb128 0x49
ARM GAS  /tmp/ccg0r710.s 			page 73


 4080 02e3 13       		.uleb128 0x13
 4081 02e4 3F       		.uleb128 0x3f
 4082 02e5 19       		.uleb128 0x19
 4083 02e6 3C       		.uleb128 0x3c
 4084 02e7 19       		.uleb128 0x19
 4085 02e8 00       		.byte	0
 4086 02e9 00       		.byte	0
 4087 02ea 39       		.uleb128 0x39
 4088 02eb 2E       		.uleb128 0x2e
 4089 02ec 01       		.byte	0x1
 4090 02ed 3F       		.uleb128 0x3f
 4091 02ee 19       		.uleb128 0x19
 4092 02ef 03       		.uleb128 0x3
 4093 02f0 0E       		.uleb128 0xe
 4094 02f1 3A       		.uleb128 0x3a
 4095 02f2 0B       		.uleb128 0xb
 4096 02f3 3B       		.uleb128 0x3b
 4097 02f4 0B       		.uleb128 0xb
 4098 02f5 27       		.uleb128 0x27
 4099 02f6 19       		.uleb128 0x19
 4100 02f7 3C       		.uleb128 0x3c
 4101 02f8 19       		.uleb128 0x19
 4102 02f9 01       		.uleb128 0x1
 4103 02fa 13       		.uleb128 0x13
 4104 02fb 00       		.byte	0
 4105 02fc 00       		.byte	0
 4106 02fd 3A       		.uleb128 0x3a
 4107 02fe 2E       		.uleb128 0x2e
 4108 02ff 01       		.byte	0x1
 4109 0300 3F       		.uleb128 0x3f
 4110 0301 19       		.uleb128 0x19
 4111 0302 03       		.uleb128 0x3
 4112 0303 0E       		.uleb128 0xe
 4113 0304 3A       		.uleb128 0x3a
 4114 0305 0B       		.uleb128 0xb
 4115 0306 3B       		.uleb128 0x3b
 4116 0307 05       		.uleb128 0x5
 4117 0308 27       		.uleb128 0x27
 4118 0309 19       		.uleb128 0x19
 4119 030a 49       		.uleb128 0x49
 4120 030b 13       		.uleb128 0x13
 4121 030c 3C       		.uleb128 0x3c
 4122 030d 19       		.uleb128 0x19
 4123 030e 01       		.uleb128 0x1
 4124 030f 13       		.uleb128 0x13
 4125 0310 00       		.byte	0
 4126 0311 00       		.byte	0
 4127 0312 3B       		.uleb128 0x3b
 4128 0313 2E       		.uleb128 0x2e
 4129 0314 01       		.byte	0x1
 4130 0315 3F       		.uleb128 0x3f
 4131 0316 19       		.uleb128 0x19
 4132 0317 03       		.uleb128 0x3
 4133 0318 0E       		.uleb128 0xe
 4134 0319 3A       		.uleb128 0x3a
 4135 031a 0B       		.uleb128 0xb
 4136 031b 3B       		.uleb128 0x3b
ARM GAS  /tmp/ccg0r710.s 			page 74


 4137 031c 05       		.uleb128 0x5
 4138 031d 27       		.uleb128 0x27
 4139 031e 19       		.uleb128 0x19
 4140 031f 3C       		.uleb128 0x3c
 4141 0320 19       		.uleb128 0x19
 4142 0321 01       		.uleb128 0x1
 4143 0322 13       		.uleb128 0x13
 4144 0323 00       		.byte	0
 4145 0324 00       		.byte	0
 4146 0325 3C       		.uleb128 0x3c
 4147 0326 2E       		.uleb128 0x2e
 4148 0327 01       		.byte	0x1
 4149 0328 3F       		.uleb128 0x3f
 4150 0329 19       		.uleb128 0x19
 4151 032a 03       		.uleb128 0x3
 4152 032b 0E       		.uleb128 0xe
 4153 032c 3A       		.uleb128 0x3a
 4154 032d 0B       		.uleb128 0xb
 4155 032e 3B       		.uleb128 0x3b
 4156 032f 0B       		.uleb128 0xb
 4157 0330 27       		.uleb128 0x27
 4158 0331 19       		.uleb128 0x19
 4159 0332 49       		.uleb128 0x49
 4160 0333 13       		.uleb128 0x13
 4161 0334 3C       		.uleb128 0x3c
 4162 0335 19       		.uleb128 0x19
 4163 0336 01       		.uleb128 0x1
 4164 0337 13       		.uleb128 0x13
 4165 0338 00       		.byte	0
 4166 0339 00       		.byte	0
 4167 033a 3D       		.uleb128 0x3d
 4168 033b 2E       		.uleb128 0x2e
 4169 033c 01       		.byte	0x1
 4170 033d 3F       		.uleb128 0x3f
 4171 033e 19       		.uleb128 0x19
 4172 033f 03       		.uleb128 0x3
 4173 0340 0E       		.uleb128 0xe
 4174 0341 3A       		.uleb128 0x3a
 4175 0342 0B       		.uleb128 0xb
 4176 0343 3B       		.uleb128 0x3b
 4177 0344 0B       		.uleb128 0xb
 4178 0345 27       		.uleb128 0x27
 4179 0346 19       		.uleb128 0x19
 4180 0347 3C       		.uleb128 0x3c
 4181 0348 19       		.uleb128 0x19
 4182 0349 00       		.byte	0
 4183 034a 00       		.byte	0
 4184 034b 00       		.byte	0
 4185              		.section	.debug_loc,"",%progbits
 4186              	.Ldebug_loc0:
 4187              	.LLST0:
 4188 0000 00000000 		.4byte	.LVL0-.Ltext0
 4189 0004 10000000 		.4byte	.LVL1-.Ltext0
 4190 0008 0100     		.2byte	0x1
 4191 000a 50       		.byte	0x50
 4192 000b 10000000 		.4byte	.LVL1-.Ltext0
 4193 000f 34000000 		.4byte	.LFE135-.Ltext0
ARM GAS  /tmp/ccg0r710.s 			page 75


 4194 0013 0400     		.2byte	0x4
 4195 0015 F3       		.byte	0xf3
 4196 0016 01       		.uleb128 0x1
 4197 0017 50       		.byte	0x50
 4198 0018 9F       		.byte	0x9f
 4199 0019 00000000 		.4byte	0
 4200 001d 00000000 		.4byte	0
 4201              	.LLST1:
 4202 0021 00000000 		.4byte	.LVL0-.Ltext0
 4203 0025 16000000 		.4byte	.LVL2-.Ltext0
 4204 0029 0100     		.2byte	0x1
 4205 002b 51       		.byte	0x51
 4206 002c 16000000 		.4byte	.LVL2-.Ltext0
 4207 0030 34000000 		.4byte	.LFE135-.Ltext0
 4208 0034 0400     		.2byte	0x4
 4209 0036 F3       		.byte	0xf3
 4210 0037 01       		.uleb128 0x1
 4211 0038 51       		.byte	0x51
 4212 0039 9F       		.byte	0x9f
 4213 003a 00000000 		.4byte	0
 4214 003e 00000000 		.4byte	0
 4215              	.LLST2:
 4216 0042 50000000 		.4byte	.LVL4-.Ltext0
 4217 0046 5C000000 		.4byte	.LVL5-.Ltext0
 4218 004a 0200     		.2byte	0x2
 4219 004c 30       		.byte	0x30
 4220 004d 9F       		.byte	0x9f
 4221 004e 00000000 		.4byte	0
 4222 0052 00000000 		.4byte	0
 4223              	.LLST3:
 4224 0056 70010000 		.4byte	.LVL12-.Ltext0
 4225 005a 92010000 		.4byte	.LVL14-.Ltext0
 4226 005e 0100     		.2byte	0x1
 4227 0060 50       		.byte	0x50
 4228 0061 92010000 		.4byte	.LVL14-.Ltext0
 4229 0065 AC010000 		.4byte	.LFE138-.Ltext0
 4230 0069 0400     		.2byte	0x4
 4231 006b F3       		.byte	0xf3
 4232 006c 01       		.uleb128 0x1
 4233 006d 50       		.byte	0x50
 4234 006e 9F       		.byte	0x9f
 4235 006f 00000000 		.4byte	0
 4236 0073 00000000 		.4byte	0
 4237              	.LLST4:
 4238 0077 70010000 		.4byte	.LVL12-.Ltext0
 4239 007b 8C010000 		.4byte	.LVL13-.Ltext0
 4240 007f 0100     		.2byte	0x1
 4241 0081 51       		.byte	0x51
 4242 0082 8C010000 		.4byte	.LVL13-.Ltext0
 4243 0086 97010000 		.4byte	.LVL15-1-.Ltext0
 4244 008a 0500     		.2byte	0x5
 4245 008c 03       		.byte	0x3
 4246 008d 01020000 		.4byte	txbufWM+1
 4247 0091 97010000 		.4byte	.LVL15-1-.Ltext0
 4248 0095 AC010000 		.4byte	.LFE138-.Ltext0
 4249 0099 0400     		.2byte	0x4
 4250 009b F3       		.byte	0xf3
ARM GAS  /tmp/ccg0r710.s 			page 76


 4251 009c 01       		.uleb128 0x1
 4252 009d 51       		.byte	0x51
 4253 009e 9F       		.byte	0x9f
 4254 009f 00000000 		.4byte	0
 4255 00a3 00000000 		.4byte	0
 4256              	.LLST5:
 4257 00a7 D0010000 		.4byte	.LVL19-.Ltext0
 4258 00ab D4010000 		.4byte	.LVL20-.Ltext0
 4259 00af 0100     		.2byte	0x1
 4260 00b1 50       		.byte	0x50
 4261 00b2 D4010000 		.4byte	.LVL20-.Ltext0
 4262 00b6 DA010000 		.4byte	.LVL21-.Ltext0
 4263 00ba 0400     		.2byte	0x4
 4264 00bc F3       		.byte	0xf3
 4265 00bd 01       		.uleb128 0x1
 4266 00be 50       		.byte	0x50
 4267 00bf 9F       		.byte	0x9f
 4268 00c0 DA010000 		.4byte	.LVL21-.Ltext0
 4269 00c4 DC010000 		.4byte	.LVL22-.Ltext0
 4270 00c8 0100     		.2byte	0x1
 4271 00ca 50       		.byte	0x50
 4272 00cb DC010000 		.4byte	.LVL22-.Ltext0
 4273 00cf E2010000 		.4byte	.LFE139-.Ltext0
 4274 00d3 0400     		.2byte	0x4
 4275 00d5 F3       		.byte	0xf3
 4276 00d6 01       		.uleb128 0x1
 4277 00d7 50       		.byte	0x50
 4278 00d8 9F       		.byte	0x9f
 4279 00d9 00000000 		.4byte	0
 4280 00dd 00000000 		.4byte	0
 4281              	.LLST6:
 4282 00e1 DA010000 		.4byte	.LVL21-.Ltext0
 4283 00e5 DC010000 		.4byte	.LVL22-.Ltext0
 4284 00e9 0100     		.2byte	0x1
 4285 00eb 50       		.byte	0x50
 4286 00ec 00000000 		.4byte	0
 4287 00f0 00000000 		.4byte	0
 4288              	.LLST7:
 4289 00f4 F0010000 		.4byte	.LVL24-.Ltext0
 4290 00f8 F8010000 		.4byte	.LVL25-.Ltext0
 4291 00fc 0100     		.2byte	0x1
 4292 00fe 50       		.byte	0x50
 4293 00ff F8010000 		.4byte	.LVL25-.Ltext0
 4294 0103 08020000 		.4byte	.LVL27-.Ltext0
 4295 0107 0400     		.2byte	0x4
 4296 0109 F3       		.byte	0xf3
 4297 010a 01       		.uleb128 0x1
 4298 010b 50       		.byte	0x50
 4299 010c 9F       		.byte	0x9f
 4300 010d 08020000 		.4byte	.LVL27-.Ltext0
 4301 0111 0A020000 		.4byte	.LVL28-.Ltext0
 4302 0115 0100     		.2byte	0x1
 4303 0117 50       		.byte	0x50
 4304 0118 0A020000 		.4byte	.LVL28-.Ltext0
 4305 011c 10020000 		.4byte	.LFE140-.Ltext0
 4306 0120 0400     		.2byte	0x4
 4307 0122 F3       		.byte	0xf3
ARM GAS  /tmp/ccg0r710.s 			page 77


 4308 0123 01       		.uleb128 0x1
 4309 0124 50       		.byte	0x50
 4310 0125 9F       		.byte	0x9f
 4311 0126 00000000 		.4byte	0
 4312 012a 00000000 		.4byte	0
 4313              	.LLST8:
 4314 012e 08020000 		.4byte	.LVL27-.Ltext0
 4315 0132 0A020000 		.4byte	.LVL28-.Ltext0
 4316 0136 0100     		.2byte	0x1
 4317 0138 50       		.byte	0x50
 4318 0139 00000000 		.4byte	0
 4319 013d 00000000 		.4byte	0
 4320              	.LLST9:
 4321 0141 A0020000 		.4byte	.LVL45-.Ltext0
 4322 0145 AA020000 		.4byte	.LVL46-.Ltext0
 4323 0149 0100     		.2byte	0x1
 4324 014b 50       		.byte	0x50
 4325 014c AA020000 		.4byte	.LVL46-.Ltext0
 4326 0150 D0020000 		.4byte	.LFE141-.Ltext0
 4327 0154 0400     		.2byte	0x4
 4328 0156 F3       		.byte	0xf3
 4329 0157 01       		.uleb128 0x1
 4330 0158 50       		.byte	0x50
 4331 0159 9F       		.byte	0x9f
 4332 015a 00000000 		.4byte	0
 4333 015e 00000000 		.4byte	0
 4334              	.LLST10:
 4335 0162 BE020000 		.4byte	.LVL48-.Ltext0
 4336 0166 CC020000 		.4byte	.LVL50-.Ltext0
 4337 016a 0100     		.2byte	0x1
 4338 016c 54       		.byte	0x54
 4339 016d 00000000 		.4byte	0
 4340 0171 00000000 		.4byte	0
 4341              		.section	.debug_aranges,"",%progbits
 4342 0000 1C000000 		.4byte	0x1c
 4343 0004 0200     		.2byte	0x2
 4344 0006 00000000 		.4byte	.Ldebug_info0
 4345 000a 04       		.byte	0x4
 4346 000b 00       		.byte	0
 4347 000c 0000     		.2byte	0
 4348 000e 0000     		.2byte	0
 4349 0010 00000000 		.4byte	.Ltext0
 4350 0014 D0020000 		.4byte	.Letext0-.Ltext0
 4351 0018 00000000 		.4byte	0
 4352 001c 00000000 		.4byte	0
 4353              		.section	.debug_ranges,"",%progbits
 4354              	.Ldebug_ranges0:
 4355 0000 78000000 		.4byte	.LBB4-.Ltext0
 4356 0004 7C000000 		.4byte	.LBE4-.Ltext0
 4357 0008 B6000000 		.4byte	.LBB12-.Ltext0
 4358 000c B8000000 		.4byte	.LBE12-.Ltext0
 4359 0010 C4000000 		.4byte	.LBB13-.Ltext0
 4360 0014 C8000000 		.4byte	.LBE13-.Ltext0
 4361 0018 CA000000 		.4byte	.LBB14-.Ltext0
 4362 001c CE000000 		.4byte	.LBE14-.Ltext0
 4363 0020 E0000000 		.4byte	.LBB15-.Ltext0
 4364 0024 E2000000 		.4byte	.LBE15-.Ltext0
ARM GAS  /tmp/ccg0r710.s 			page 78


 4365 0028 E6000000 		.4byte	.LBB16-.Ltext0
 4366 002c 20010000 		.4byte	.LBE16-.Ltext0
 4367 0030 22010000 		.4byte	.LBB17-.Ltext0
 4368 0034 28010000 		.4byte	.LBE17-.Ltext0
 4369 0038 00000000 		.4byte	0
 4370 003c 00000000 		.4byte	0
 4371 0040 60020000 		.4byte	.LBB37-.Ltext0
 4372 0044 6C020000 		.4byte	.LBE37-.Ltext0
 4373 0048 70020000 		.4byte	.LBB42-.Ltext0
 4374 004c 80020000 		.4byte	.LBE42-.Ltext0
 4375 0050 00000000 		.4byte	0
 4376 0054 00000000 		.4byte	0
 4377 0058 A6020000 		.4byte	.LBB52-.Ltext0
 4378 005c AA020000 		.4byte	.LBE52-.Ltext0
 4379 0060 BE020000 		.4byte	.LBB56-.Ltext0
 4380 0064 C8020000 		.4byte	.LBE56-.Ltext0
 4381 0068 CC020000 		.4byte	.LBB57-.Ltext0
 4382 006c D0020000 		.4byte	.LBE57-.Ltext0
 4383 0070 00000000 		.4byte	0
 4384 0074 00000000 		.4byte	0
 4385              		.section	.debug_line,"",%progbits
 4386              	.Ldebug_line0:
 4387 0000 BB060000 		.section	.debug_str,"MS",%progbits,1
 4387      0200C305 
 4387      00000201 
 4387      FB0E0D00 
 4387      01010101 
 4388              	.LASF61:
 4389 0000 4D314152 		.ascii	"M1AR\000"
 4389      00
 4390              	.LASF18:
 4391 0005 73697A65 		.ascii	"size_t\000"
 4391      5F7400
 4392              	.LASF17:
 4393 000c 73697A65 		.ascii	"sizetype\000"
 4393      74797065 
 4393      00
 4394              	.LASF171:
 4395 0015 636F6465 		.ascii	"codec_WM8731_pwrCtl\000"
 4395      635F574D 
 4395      38373331 
 4395      5F707772 
 4395      43746C00 
 4396              	.LASF27:
 4397 0029 73797374 		.ascii	"systime_t\000"
 4397      696D655F 
 4397      7400
 4398              	.LASF97:
 4399 0033 504C4C49 		.ascii	"PLLI2SCFGR\000"
 4399      32534346 
 4399      475200
 4400              	.LASF32:
 4401 003e 705F6374 		.ascii	"p_ctx\000"
 4401      7800
 4402              	.LASF24:
 4403 0044 74707269 		.ascii	"tprio_t\000"
 4403      6F5F7400 
ARM GAS  /tmp/ccg0r710.s 			page 79


 4404              	.LASF182:
 4405 004c 636F6465 		.ascii	"codec_init\000"
 4405      635F696E 
 4405      697400
 4406              	.LASF40:
 4407 0057 705F6D73 		.ascii	"p_msgqueue\000"
 4407      67717565 
 4407      756500
 4408              	.LASF15:
 4409 0062 696E7433 		.ascii	"int32_t\000"
 4409      325F7400 
 4410              	.LASF183:
 4411 006a 69327374 		.ascii	"i2stxdmamodeWM\000"
 4411      78646D61 
 4411      6D6F6465 
 4411      574D00
 4412              	.LASF141:
 4413 0079 46415354 		.ascii	"FAST_DUTY_CYCLE_2\000"
 4413      5F445554 
 4413      595F4359 
 4413      434C455F 
 4413      3200
 4414              	.LASF150:
 4415 008b 636F6E66 		.ascii	"config\000"
 4415      696700
 4416              	.LASF149:
 4417 0092 73746174 		.ascii	"state\000"
 4417      6500
 4418              	.LASF192:
 4419 0098 53504944 		.ascii	"SPID2\000"
 4419      3200
 4420              	.LASF181:
 4421 009e 636F6465 		.ascii	"codec_WM8731_hw_init\000"
 4421      635F574D 
 4421      38373331 
 4421      5F68775F 
 4421      696E6974 
 4422              	.LASF204:
 4423 00b3 636F6465 		.ascii	"codec_WM8731_dma_init\000"
 4423      635F574D 
 4423      38373331 
 4423      5F646D61 
 4423      5F696E69 
 4424              	.LASF125:
 4425 00c9 696F6D6F 		.ascii	"iomode_t\000"
 4425      64655F74 
 4425      00
 4426              	.LASF195:
 4427 00d2 5F70616C 		.ascii	"_pal_lld_setgroupmode\000"
 4427      5F6C6C64 
 4427      5F736574 
 4427      67726F75 
 4427      706D6F64 
 4428              	.LASF52:
 4429 00e8 6D5F6F77 		.ascii	"m_owner\000"
 4429      6E657200 
 4430              	.LASF167:
ARM GAS  /tmp/ccg0r710.s 			page 80


 4431 00f0 656E645F 		.ascii	"end_cb\000"
 4431      636200
 4432              	.LASF55:
 4433 00f7 65786974 		.ascii	"exitcode\000"
 4433      636F6465 
 4433      00
 4434              	.LASF104:
 4435 0100 49325343 		.ascii	"I2SCFGR\000"
 4435      46475200 
 4436              	.LASF3:
 4437 0108 5F5F7569 		.ascii	"__uint8_t\000"
 4437      6E74385F 
 4437      7400
 4438              	.LASF134:
 4439 0112 69326361 		.ascii	"i2caddr_t\000"
 4439      6464725F 
 4439      7400
 4440              	.LASF57:
 4441 011c 65776D61 		.ascii	"ewmask\000"
 4441      736B00
 4442              	.LASF91:
 4443 0123 41484232 		.ascii	"AHB2LPENR\000"
 4443      4C50454E 
 4443      5200
 4444              	.LASF118:
 4445 012d 50555044 		.ascii	"PUPDR\000"
 4445      5200
 4446              	.LASF143:
 4447 0133 69326364 		.ascii	"i2cdutycycle_t\000"
 4447      75747963 
 4447      79636C65 
 4447      5F7400
 4448              	.LASF202:
 4449 0142 646D615F 		.ascii	"dma_i2s_interrupt\000"
 4449      6932735F 
 4449      696E7465 
 4449      72727570 
 4449      7400
 4450              	.LASF33:
 4451 0154 705F6E65 		.ascii	"p_newer\000"
 4451      77657200 
 4452              	.LASF160:
 4453 015c 5350495F 		.ascii	"SPI_STOP\000"
 4453      53544F50 
 4453      00
 4454              	.LASF7:
 4455 0165 6C6F6E67 		.ascii	"long int\000"
 4455      20696E74 
 4455      00
 4456              	.LASF159:
 4457 016e 5350495F 		.ascii	"SPI_UNINIT\000"
 4457      554E494E 
 4457      495400
 4458              	.LASF29:
 4459 0179 705F6E65 		.ascii	"p_next\000"
 4459      787400
 4460              	.LASF30:
ARM GAS  /tmp/ccg0r710.s 			page 81


 4461 0180 705F7072 		.ascii	"p_prev\000"
 4461      657600
 4462              	.LASF126:
 4463 0187 696F706F 		.ascii	"ioportid_t\000"
 4463      72746964 
 4463      5F7400
 4464              	.LASF22:
 4465 0192 74737461 		.ascii	"tstate_t\000"
 4465      74655F74 
 4465      00
 4466              	.LASF43:
 4467 019b 705F6D74 		.ascii	"p_mtxlist\000"
 4467      786C6973 
 4467      7400
 4468              	.LASF47:
 4469 01a5 72656761 		.ascii	"regarm_t\000"
 4469      726D5F74 
 4469      00
 4470              	.LASF89:
 4471 01ae 41504232 		.ascii	"APB2ENR\000"
 4471      454E5200 
 4472              	.LASF90:
 4473 01b6 41484231 		.ascii	"AHB1LPENR\000"
 4473      4C50454E 
 4473      5200
 4474              	.LASF99:
 4475 01c0 44434B43 		.ascii	"DCKCFGR\000"
 4475      46475200 
 4476              	.LASF0:
 4477 01c8 7369676E 		.ascii	"signed char\000"
 4477      65642063 
 4477      68617200 
 4478              	.LASF38:
 4479 01d4 705F7072 		.ascii	"p_preempt\000"
 4479      65656D70 
 4479      7400
 4480              	.LASF172:
 4481 01de 636F6465 		.ascii	"codec_WM8731_muteCtl\000"
 4481      635F574D 
 4481      38373331 
 4481      5F6D7574 
 4481      6543746C 
 4482              	.LASF13:
 4483 01f3 75696E74 		.ascii	"uint8_t\000"
 4483      385F7400 
 4484              	.LASF26:
 4485 01fb 6576656E 		.ascii	"eventmask_t\000"
 4485      746D6173 
 4485      6B5F7400 
 4486              	.LASF49:
 4487 0207 636F6E74 		.ascii	"context\000"
 4487      65787400 
 4488              	.LASF63:
 4489 020f 52455345 		.ascii	"RESERVED0\000"
 4489      52564544 
 4489      3000
 4490              	.LASF64:
ARM GAS  /tmp/ccg0r710.s 			page 82


 4491 0219 52455345 		.ascii	"RESERVED1\000"
 4491      52564544 
 4491      3100
 4492              	.LASF1:
 4493 0223 756E7369 		.ascii	"unsigned char\000"
 4493      676E6564 
 4493      20636861 
 4493      7200
 4494              	.LASF68:
 4495 0231 52455345 		.ascii	"RESERVED3\000"
 4495      52564544 
 4495      3300
 4496              	.LASF69:
 4497 023b 52455345 		.ascii	"RESERVED4\000"
 4497      52564544 
 4497      3400
 4498              	.LASF70:
 4499 0245 52455345 		.ascii	"RESERVED5\000"
 4499      52564544 
 4499      3500
 4500              	.LASF71:
 4501 024f 52455345 		.ascii	"RESERVED6\000"
 4501      52564544 
 4501      3600
 4502              	.LASF72:
 4503 0259 52455345 		.ascii	"RESERVED7\000"
 4503      52564544 
 4503      3700
 4504              	.LASF74:
 4505 0263 52455345 		.ascii	"RESERVED8\000"
 4505      52564544 
 4505      3800
 4506              	.LASF76:
 4507 026d 52455345 		.ascii	"RESERVED9\000"
 4507      52564544 
 4507      3900
 4508              	.LASF197:
 4509 0277 6932634D 		.ascii	"i2cMasterTransmitTimeout\000"
 4509      61737465 
 4509      72547261 
 4509      6E736D69 
 4509      7454696D 
 4510              	.LASF131:
 4511 0290 4932435F 		.ascii	"I2C_ACTIVE_RX\000"
 4511      41435449 
 4511      56455F52 
 4511      5800
 4512              	.LASF20:
 4513 029e 5F426F6F 		.ascii	"_Bool\000"
 4513      6C00
 4514              	.LASF66:
 4515 02a4 52455345 		.ascii	"RESERVED2\000"
 4515      52564544 
 4515      3200
 4516              	.LASF175:
 4517 02ae 666C6167 		.ascii	"flags\000"
 4517      7300
ARM GAS  /tmp/ccg0r710.s 			page 83


 4518              	.LASF205:
 4519 02b4 72786275 		.ascii	"rxbufWM\000"
 4519      66574D00 
 4520              	.LASF136:
 4521 02bc 4F504D4F 		.ascii	"OPMODE_I2C\000"
 4521      44455F49 
 4521      324300
 4522              	.LASF58:
 4523 02c7 63686172 		.ascii	"char\000"
 4523      00
 4524              	.LASF109:
 4525 02cc 69736869 		.ascii	"ishift\000"
 4525      667400
 4526              	.LASF80:
 4527 02d3 41484231 		.ascii	"AHB1RSTR\000"
 4527      52535452 
 4527      00
 4528              	.LASF31:
 4529 02dc 705F7072 		.ascii	"p_prio\000"
 4529      696F00
 4530              	.LASF165:
 4531 02e3 53504944 		.ascii	"SPIDriver\000"
 4531      72697665 
 4531      7200
 4532              	.LASF4:
 4533 02ed 5F5F7569 		.ascii	"__uint16_t\000"
 4533      6E743136 
 4533      5F7400
 4534              	.LASF86:
 4535 02f8 41484232 		.ascii	"AHB2ENR\000"
 4535      454E5200 
 4536              	.LASF56:
 4537 0300 77746F62 		.ascii	"wtobjp\000"
 4537      6A7000
 4538              	.LASF151:
 4539 0307 6572726F 		.ascii	"errors\000"
 4539      727300
 4540              	.LASF130:
 4541 030e 4932435F 		.ascii	"I2C_ACTIVE_TX\000"
 4541      41435449 
 4541      56455F54 
 4541      5800
 4542              	.LASF107:
 4543 031c 73747265 		.ascii	"stream\000"
 4543      616D00
 4544              	.LASF191:
 4545 0323 49324344 		.ascii	"I2CD2\000"
 4545      3200
 4546              	.LASF124:
 4547 0329 696F706F 		.ascii	"ioportmask_t\000"
 4547      72746D61 
 4547      736B5F74 
 4547      00
 4548              	.LASF196:
 4549 0336 646D6153 		.ascii	"dmaStreamAllocate\000"
 4549      74726561 
 4549      6D416C6C 
ARM GAS  /tmp/ccg0r710.s 			page 84


 4549      6F636174 
 4549      6500
 4550              	.LASF95:
 4551 0348 42444352 		.ascii	"BDCR\000"
 4551      00
 4552              	.LASF200:
 4553 034d 636F6465 		.ascii	"codec.c\000"
 4553      632E6300 
 4554              	.LASF198:
 4555 0355 63685468 		.ascii	"chThdSleep\000"
 4555      64536C65 
 4555      657000
 4556              	.LASF185:
 4557 0360 74786275 		.ascii	"txbufWM\000"
 4557      66574D00 
 4558              	.LASF48:
 4559 0368 696E7463 		.ascii	"intctx\000"
 4559      747800
 4560              	.LASF42:
 4561 036f 705F6570 		.ascii	"p_epending\000"
 4561      656E6469 
 4561      6E6700
 4562              	.LASF132:
 4563 037a 4932435F 		.ascii	"I2C_LOCKED\000"
 4563      4C4F434B 
 4563      454400
 4564              	.LASF146:
 4565 0385 64757479 		.ascii	"duty_cycle\000"
 4565      5F637963 
 4565      6C6500
 4566              	.LASF114:
 4567 0390 636C6561 		.ascii	"clear\000"
 4567      7200
 4568              	.LASF79:
 4569 0396 43464752 		.ascii	"CFGR\000"
 4569      00
 4570              	.LASF148:
 4571 039b 49324344 		.ascii	"I2CDriver\000"
 4571      72697665 
 4571      7200
 4572              	.LASF9:
 4573 03a5 6C6F6E67 		.ascii	"long unsigned int\000"
 4573      20756E73 
 4573      69676E65 
 4573      6420696E 
 4573      7400
 4574              	.LASF190:
 4575 03b7 5F73746D 		.ascii	"_stm32_dma_streams\000"
 4575      33325F64 
 4575      6D615F73 
 4575      74726561 
 4575      6D7300
 4576              	.LASF73:
 4577 03ca 54524953 		.ascii	"TRISE\000"
 4577      4500
 4578              	.LASF112:
 4579 03d0 73746D33 		.ascii	"stm32_dma_stream_t\000"
ARM GAS  /tmp/ccg0r710.s 			page 85


 4579      325F646D 
 4579      615F7374 
 4579      7265616D 
 4579      5F7400
 4580              	.LASF120:
 4581 03e3 4C434B52 		.ascii	"LCKR\000"
 4581      00
 4582              	.LASF117:
 4583 03e8 4F535045 		.ascii	"OSPEEDR\000"
 4583      45445200 
 4584              	.LASF78:
 4585 03f0 504C4C43 		.ascii	"PLLCFGR\000"
 4585      46475200 
 4586              	.LASF157:
 4587 03f8 646D6172 		.ascii	"dmarx\000"
 4587      7800
 4588              	.LASF8:
 4589 03fe 5F5F7569 		.ascii	"__uint32_t\000"
 4589      6E743332 
 4589      5F7400
 4590              	.LASF50:
 4591 0409 4D757465 		.ascii	"Mutex\000"
 4591      7800
 4592              	.LASF161:
 4593 040f 5350495F 		.ascii	"SPI_READY\000"
 4593      52454144 
 4593      5900
 4594              	.LASF10:
 4595 0419 6C6F6E67 		.ascii	"long long int\000"
 4595      206C6F6E 
 4595      6720696E 
 4595      7400
 4596              	.LASF127:
 4597 0427 4932435F 		.ascii	"I2C_UNINIT\000"
 4597      554E494E 
 4597      495400
 4598              	.LASF51:
 4599 0432 6D5F7175 		.ascii	"m_queue\000"
 4599      65756500 
 4600              	.LASF96:
 4601 043a 53534347 		.ascii	"SSCGR\000"
 4601      5200
 4602              	.LASF186:
 4603 0440 62756632 		.ascii	"buf2\000"
 4603      00
 4604              	.LASF84:
 4605 0445 41504232 		.ascii	"APB2RSTR\000"
 4605      52535452 
 4605      00
 4606              	.LASF174:
 4607 044e 636F6465 		.ascii	"codec_WM8731_volCtl\000"
 4607      635F574D 
 4607      38373331 
 4607      5F766F6C 
 4607      43746C00 
 4608              	.LASF203:
 4609 0462 636F6465 		.ascii	"codecStop\000"
ARM GAS  /tmp/ccg0r710.s 			page 86


 4609      6353746F 
 4609      7000
 4610              	.LASF75:
 4611 046c 464C5452 		.ascii	"FLTR\000"
 4611      00
 4612              	.LASF133:
 4613 0471 69326373 		.ascii	"i2cstate_t\000"
 4613      74617465 
 4613      5F7400
 4614              	.LASF152:
 4615 047c 6D757465 		.ascii	"mutex\000"
 4615      7800
 4616              	.LASF189:
 4617 0482 49544D5F 		.ascii	"ITM_RxBuffer\000"
 4617      52784275 
 4617      66666572 
 4617      00
 4618              	.LASF102:
 4619 048f 52584352 		.ascii	"RXCRCR\000"
 4619      435200
 4620              	.LASF155:
 4621 0496 7278646D 		.ascii	"rxdmamode\000"
 4621      616D6F64 
 4621      6500
 4622              	.LASF94:
 4623 04a0 41504232 		.ascii	"APB2LPENR\000"
 4623      4C50454E 
 4623      5200
 4624              	.LASF39:
 4625 04aa 705F7761 		.ascii	"p_waiting\000"
 4625      6974696E 
 4625      6700
 4626              	.LASF154:
 4627 04b4 61646472 		.ascii	"addr\000"
 4627      00
 4628              	.LASF158:
 4629 04b9 646D6174 		.ascii	"dmatx\000"
 4629      7800
 4630              	.LASF115:
 4631 04bf 4D4F4445 		.ascii	"MODER\000"
 4631      5200
 4632              	.LASF37:
 4633 04c5 705F666C 		.ascii	"p_flags\000"
 4633      61677300 
 4634              	.LASF173:
 4635 04cd 6D757465 		.ascii	"mute\000"
 4635      00
 4636              	.LASF110:
 4637 04d2 73656C66 		.ascii	"selfindex\000"
 4637      696E6465 
 4637      7800
 4638              	.LASF12:
 4639 04dc 756E7369 		.ascii	"unsigned int\000"
 4639      676E6564 
 4639      20696E74 
 4639      00
 4640              	.LASF170:
ARM GAS  /tmp/ccg0r710.s 			page 87


 4641 04e9 53504943 		.ascii	"SPIConfig\000"
 4641      6F6E6669 
 4641      6700
 4642              	.LASF166:
 4643 04f3 73706963 		.ascii	"spicallback_t\000"
 4643      616C6C62 
 4643      61636B5F 
 4643      7400
 4644              	.LASF162:
 4645 0501 5350495F 		.ascii	"SPI_ACTIVE\000"
 4645      41435449 
 4645      564500
 4646              	.LASF194:
 4647 050c 636F6D70 		.ascii	"computebufI\000"
 4647      75746562 
 4647      75664900 
 4648              	.LASF46:
 4649 0518 54687265 		.ascii	"ThreadsList\000"
 4649      6164734C 
 4649      69737400 
 4650              	.LASF129:
 4651 0524 4932435F 		.ascii	"I2C_READY\000"
 4651      52454144 
 4651      5900
 4652              	.LASF168:
 4653 052e 7373706F 		.ascii	"ssport\000"
 4653      727400
 4654              	.LASF93:
 4655 0535 41504231 		.ascii	"APB1LPENR\000"
 4655      4C50454E 
 4655      5200
 4656              	.LASF187:
 4657 053f 72627566 		.ascii	"rbuf\000"
 4657      00
 4658              	.LASF62:
 4659 0544 444D415F 		.ascii	"DMA_Stream_TypeDef\000"
 4659      53747265 
 4659      616D5F54 
 4659      79706544 
 4659      656600
 4660              	.LASF82:
 4661 0557 41484233 		.ascii	"AHB3RSTR\000"
 4661      52535452 
 4661      00
 4662              	.LASF142:
 4663 0560 46415354 		.ascii	"FAST_DUTY_CYCLE_16_9\000"
 4663      5F445554 
 4663      595F4359 
 4663      434C455F 
 4663      31365F39 
 4664              	.LASF176:
 4665 0575 636F6465 		.ascii	"codec_clearbuffer\000"
 4665      635F636C 
 4665      65617262 
 4665      75666665 
 4665      7200
 4666              	.LASF44:
ARM GAS  /tmp/ccg0r710.s 			page 88


 4667 0587 705F7265 		.ascii	"p_realprio\000"
 4667      616C7072 
 4667      696F00
 4668              	.LASF147:
 4669 0592 49324343 		.ascii	"I2CConfig\000"
 4669      6F6E6669 
 4669      6700
 4670              	.LASF83:
 4671 059c 41504231 		.ascii	"APB1RSTR\000"
 4671      52535452 
 4671      00
 4672              	.LASF113:
 4673 05a5 73746D33 		.ascii	"stm32_dmaisr_t\000"
 4673      325F646D 
 4673      61697372 
 4673      5F7400
 4674              	.LASF88:
 4675 05b4 41504231 		.ascii	"APB1ENR\000"
 4675      454E5200 
 4676              	.LASF188:
 4677 05bc 72627566 		.ascii	"rbuf2\000"
 4677      3200
 4678              	.LASF193:
 4679 05c2 69327364 		.ascii	"i2sdmaWM\000"
 4679      6D61574D 
 4679      00
 4680              	.LASF11:
 4681 05cb 6C6F6E67 		.ascii	"long long unsigned int\000"
 4681      206C6F6E 
 4681      6720756E 
 4681      7369676E 
 4681      65642069 
 4682              	.LASF34:
 4683 05e2 705F6F6C 		.ascii	"p_older\000"
 4683      64657200 
 4684              	.LASF139:
 4685 05ea 6932636F 		.ascii	"i2copmode_t\000"
 4685      706D6F64 
 4685      655F7400 
 4686              	.LASF14:
 4687 05f6 75696E74 		.ascii	"uint16_t\000"
 4687      31365F74 
 4687      00
 4688              	.LASF25:
 4689 05ff 6D73675F 		.ascii	"msg_t\000"
 4689      7400
 4690              	.LASF137:
 4691 0605 4F504D4F 		.ascii	"OPMODE_SMBUS_DEVICE\000"
 4691      44455F53 
 4691      4D425553 
 4691      5F444556 
 4691      49434500 
 4692              	.LASF23:
 4693 0619 74736C69 		.ascii	"tslices_t\000"
 4693      6365735F 
 4693      7400
 4694              	.LASF122:
ARM GAS  /tmp/ccg0r710.s 			page 89


 4695 0623 41465248 		.ascii	"AFRH\000"
 4695      00
 4696              	.LASF121:
 4697 0628 4146524C 		.ascii	"AFRL\000"
 4697      00
 4698              	.LASF111:
 4699 062d 76656374 		.ascii	"vector\000"
 4699      6F7200
 4700              	.LASF77:
 4701 0634 4932435F 		.ascii	"I2C_TypeDef\000"
 4701      54797065 
 4701      44656600 
 4702              	.LASF140:
 4703 0640 5354445F 		.ascii	"STD_DUTY_CYCLE\000"
 4703      44555459 
 4703      5F435943 
 4703      4C4500
 4704              	.LASF184:
 4705 064f 69326366 		.ascii	"i2cfgWM\000"
 4705      67574D00 
 4706              	.LASF92:
 4707 0657 41484233 		.ascii	"AHB3LPENR\000"
 4707      4C50454E 
 4707      5200
 4708              	.LASF116:
 4709 0661 4F545950 		.ascii	"OTYPER\000"
 4709      455200
 4710              	.LASF103:
 4711 0668 54584352 		.ascii	"TXCRCR\000"
 4711      435200
 4712              	.LASF106:
 4713 066f 5350495F 		.ascii	"SPI_TypeDef\000"
 4713      54797065 
 4713      44656600 
 4714              	.LASF21:
 4715 067b 746D6F64 		.ascii	"tmode_t\000"
 4715      655F7400 
 4716              	.LASF101:
 4717 0683 43524350 		.ascii	"CRCPR\000"
 4717      5200
 4718              	.LASF65:
 4719 0689 4F415231 		.ascii	"OAR1\000"
 4719      00
 4720              	.LASF67:
 4721 068e 4F415232 		.ascii	"OAR2\000"
 4721      00
 4722              	.LASF85:
 4723 0693 41484231 		.ascii	"AHB1ENR\000"
 4723      454E5200 
 4724              	.LASF87:
 4725 069b 41484233 		.ascii	"AHB3ENR\000"
 4725      454E5200 
 4726              	.LASF81:
 4727 06a3 41484232 		.ascii	"AHB2RSTR\000"
 4727      52535452 
 4727      00
 4728              	.LASF153:
ARM GAS  /tmp/ccg0r710.s 			page 90


 4729 06ac 74687265 		.ascii	"thread\000"
 4729      616400
 4730              	.LASF60:
 4731 06b3 4D304152 		.ascii	"M0AR\000"
 4731      00
 4732              	.LASF100:
 4733 06b8 5243435F 		.ascii	"RCC_TypeDef\000"
 4733      54797065 
 4733      44656600 
 4734              	.LASF2:
 4735 06c4 73686F72 		.ascii	"short int\000"
 4735      7420696E 
 4735      7400
 4736              	.LASF180:
 4737 06ce 636F6465 		.ascii	"codec_WM8731_hw_reset\000"
 4737      635F574D 
 4737      38373331 
 4737      5F68775F 
 4737      72657365 
 4738              	.LASF201:
 4739 06e4 2F686F6D 		.ascii	"/home/sbcu/Dropbox/pcb-layouts/axo-on-discovery-boa"
 4739      652F7362 
 4739      63752F44 
 4739      726F7062 
 4739      6F782F70 
 4740 0717 72642F61 		.ascii	"rd/axoloti/firmware\000"
 4740      786F6C6F 
 4740      74692F66 
 4740      69726D77 
 4740      61726500 
 4741              	.LASF138:
 4742 072b 4F504D4F 		.ascii	"OPMODE_SMBUS_HOST\000"
 4742      44455F53 
 4742      4D425553 
 4742      5F484F53 
 4742      5400
 4743              	.LASF19:
 4744 073d 626F6F6C 		.ascii	"bool_t\000"
 4744      5F7400
 4745              	.LASF119:
 4746 0744 42535252 		.ascii	"BSRR\000"
 4746      00
 4747              	.LASF28:
 4748 0749 54687265 		.ascii	"Thread\000"
 4748      616400
 4749              	.LASF123:
 4750 0750 4750494F 		.ascii	"GPIO_TypeDef\000"
 4750      5F547970 
 4750      65446566 
 4750      00
 4751              	.LASF199:
 4752 075d 474E5520 		.ascii	"GNU C 4.9.3 20150529 (release) [ARM/embedded-4_9-br"
 4752      4320342E 
 4752      392E3320 
 4752      32303135 
 4752      30353239 
 4753 0790 616E6368 		.ascii	"anch revision 224288] -mcpu=cortex-m4 -mfloat-abi=h"
ARM GAS  /tmp/ccg0r710.s 			page 91


 4753      20726576 
 4753      6973696F 
 4753      6E203232 
 4753      34323838 
 4754 07c3 61726420 		.ascii	"ard -mfpu=fpv4-sp-d16 -mno-thumb-interwork -mthumb "
 4754      2D6D6670 
 4754      753D6670 
 4754      76342D73 
 4754      702D6431 
 4755 07f6 2D676764 		.ascii	"-ggdb -O2 -fomit-frame-pointer -falign-functions=16"
 4755      62202D4F 
 4755      32202D66 
 4755      6F6D6974 
 4755      2D667261 
 4756 0829 202D666E 		.ascii	" -fno-math-errno -fsingle-precision-constant\000"
 4756      6F2D6D61 
 4756      74682D65 
 4756      72726E6F 
 4756      202D6673 
 4757              	.LASF206:
 4758 0856 69326353 		.ascii	"i2cStart\000"
 4758      74617274 
 4758      00
 4759              	.LASF144:
 4760 085f 6F705F6D 		.ascii	"op_mode\000"
 4760      6F646500 
 4761              	.LASF16:
 4762 0867 75696E74 		.ascii	"uint32_t\000"
 4762      33325F74 
 4762      00
 4763              	.LASF105:
 4764 0870 49325350 		.ascii	"I2SPR\000"
 4764      5200
 4765              	.LASF45:
 4766 0876 54687265 		.ascii	"ThreadsQueue\000"
 4766      61647351 
 4766      75657565 
 4766      00
 4767              	.LASF163:
 4768 0883 5350495F 		.ascii	"SPI_COMPLETE\000"
 4768      434F4D50 
 4768      4C455445 
 4768      00
 4769              	.LASF135:
 4770 0890 69326366 		.ascii	"i2cflags_t\000"
 4770      6C616773 
 4770      5F7400
 4771              	.LASF178:
 4772 089b 636F6465 		.ascii	"codec_WM8731_writeReg\000"
 4772      635F574D 
 4772      38373331 
 4772      5F777269 
 4772      74655265 
 4773              	.LASF98:
 4774 08b1 504C4C53 		.ascii	"PLLSAICFGR\000"
 4774      41494346 
 4774      475200
ARM GAS  /tmp/ccg0r710.s 			page 92


 4775              	.LASF54:
 4776 08bc 7264796D 		.ascii	"rdymsg\000"
 4776      736700
 4777              	.LASF5:
 4778 08c3 73686F72 		.ascii	"short unsigned int\000"
 4778      7420756E 
 4778      7369676E 
 4778      65642069 
 4778      6E7400
 4779              	.LASF177:
 4780 08d6 636F6465 		.ascii	"codec_WM8731_i2s_init_48k\000"
 4780      635F574D 
 4780      38373331 
 4780      5F693273 
 4780      5F696E69 
 4781              	.LASF145:
 4782 08f0 636C6F63 		.ascii	"clock_speed\000"
 4782      6B5F7370 
 4782      65656400 
 4783              	.LASF164:
 4784 08fc 73706973 		.ascii	"spistate_t\000"
 4784      74617465 
 4784      5F7400
 4785              	.LASF6:
 4786 0907 5F5F696E 		.ascii	"__int32_t\000"
 4786      7433325F 
 4786      7400
 4787              	.LASF59:
 4788 0911 4E445452 		.ascii	"NDTR\000"
 4788      00
 4789              	.LASF108:
 4790 0916 69666372 		.ascii	"ifcr\000"
 4790      00
 4791              	.LASF169:
 4792 091b 73737061 		.ascii	"sspad\000"
 4792      6400
 4793              	.LASF128:
 4794 0921 4932435F 		.ascii	"I2C_STOP\000"
 4794      53544F50 
 4794      00
 4795              	.LASF35:
 4796 092a 705F6E61 		.ascii	"p_name\000"
 4796      6D6500
 4797              	.LASF179:
 4798 0931 64617461 		.ascii	"data\000"
 4798      00
 4799              	.LASF53:
 4800 0936 6D5F6E65 		.ascii	"m_next\000"
 4800      787400
 4801              	.LASF156:
 4802 093d 7478646D 		.ascii	"txdmamode\000"
 4802      616D6F64 
 4802      6500
 4803              	.LASF41:
 4804 0947 705F6D73 		.ascii	"p_msg\000"
 4804      6700
 4805              	.LASF36:
ARM GAS  /tmp/ccg0r710.s 			page 93


 4806 094d 705F7374 		.ascii	"p_state\000"
 4806      61746500 
 4807              		.ident	"GCC: (GNU Tools for ARM Embedded Processors) 4.9.3 20150529 (release) [ARM/embedded-4_9-br
ARM GAS  /tmp/ccg0r710.s 			page 94


DEFINED SYMBOLS
                            *ABS*:00000000 codec.c
     /tmp/ccg0r710.s:20     .text:00000000 $t
     /tmp/ccg0r710.s:25     .text:00000000 dma_i2s_interrupt
     /tmp/ccg0r710.s:64     .text:00000028 $d
                            *COM*:00000004 i2sdmaWM
     /tmp/ccg0r710.s:70     .text:00000034 $t
     /tmp/ccg0r710.s:76     .text:00000040 codecStop
     /tmp/ccg0r710.s:94     .text:00000050 codec_clearbuffer
     /tmp/ccg0r710.s:122    .text:0000006c $d
     /tmp/ccg0r710.s:126    .text:00000070 $t
     /tmp/ccg0r710.s:132    .text:00000070 codec_WM8731_i2s_init_48k
     /tmp/ccg0r710.s:298    .text:00000138 $d
     /tmp/ccg0r710.s:313    .text:00000168 $t
     /tmp/ccg0r710.s:319    .text:00000170 codec_WM8731_writeReg
     /tmp/ccg0r710.s:378    .text:000001a4 $d
     /tmp/ccg0r710.s:383    .text:000001ac $t
     /tmp/ccg0r710.s:389    .text:000001b0 codec_WM8731_hw_reset
     /tmp/ccg0r710.s:423    .text:000001d0 codec_WM8731_pwrCtl
     /tmp/ccg0r710.s:459    .text:000001f0 codec_WM8731_muteCtl
     /tmp/ccg0r710.s:510    .text:00000210 codec_WM8731_hw_init
     /tmp/ccg0r710.s:598    .text:00000274 $d
     /tmp/ccg0r710.s:607    .text:00000280 $t
     /tmp/ccg0r710.s:613    .text:00000280 codec_init
     /tmp/ccg0r710.s:659    .text:000002a0 codec_WM8731_volCtl
     /tmp/ccg0r710.s:757    .sram2:00000100 rbuf2
     /tmp/ccg0r710.s:749    .sram2:00000000 rbuf
     /tmp/ccg0r710.s:761    .sram2:00000180 buf2
     /tmp/ccg0r710.s:753    .sram2:00000080 buf
     /tmp/ccg0r710.s:734    .rodata:00000000 $d
     /tmp/ccg0r710.s:738    .rodata:00000000 i2cfgWM
     /tmp/ccg0r710.s:745    .sram2:00000000 $d
     /tmp/ccg0r710.s:765    .sram2:00000200 txbufWM
     /tmp/ccg0r710.s:768    .bss:00000000 $d
     /tmp/ccg0r710.s:772    .bss:00000000 i2stxdmamodeWM
                     .debug_frame:00000010 $d

UNDEFINED SYMBOLS
computebufI
_pal_lld_setgroupmode
dmaStreamAllocate
_stm32_dma_streams
SPID2
i2cMasterTransmitTimeout
chThdSleep
I2CD2
i2cStart
