ARM GAS  /tmp/ccg0r710.s 			page 1


   1              		.syntax unified
   2              		.cpu cortex-m4
   3              		.eabi_attribute 27, 1
   4              		.eabi_attribute 28, 1
   5              		.fpu fpv4-sp-d16
   6              		.eabi_attribute 20, 1
   7              		.eabi_attribute 21, 1
   8              		.eabi_attribute 23, 3
   9              		.eabi_attribute 24, 1
  10              		.eabi_attribute 25, 1
  11              		.eabi_attribute 26, 1
  12              		.eabi_attribute 30, 2
  13              		.eabi_attribute 34, 1
  14              		.eabi_attribute 18, 4
  15              		.thumb
  16              		.file	"codec.c"
  17              		.text
  18              	.Ltext0:
  19              		.cfi_sections	.debug_frame
  20              		.align	2
  21              		.p2align 4,,15
  22              		.thumb
  23              		.thumb_func
  24              		.type	dma_i2s_interrupt, %function
  25              	dma_i2s_interrupt:
  26              	.LFB135:
  27              		.file 1 "codec_WM8731.c"
  28              		.loc 1 44 0
  29              		.cfi_startproc
  30              		@ args = 0, pretend = 0, frame = 0
  31              		@ frame_needed = 0, uses_anonymous_args = 0
  32              	.LVL0:
  33 0000 10B5     		push	{r4, lr}
  34              		.cfi_def_cfa_offset 8
  35              		.cfi_offset 4, -8
  36              		.cfi_offset 14, -4
  37              		.loc 1 49 0
  38 0002 094C     		ldr	r4, .L5
  39 0004 2368     		ldr	r3, [r4]
  40 0006 1B68     		ldr	r3, [r3]
  41 0008 1B68     		ldr	r3, [r3]
  42 000a 1B03     		lsls	r3, r3, #12
  43              		.loc 1 50 0
  44 000c 4CBF     		ite	mi
  45 000e 0748     		ldrmi	r0, .L5+4
  46              	.LVL1:
  47              		.loc 1 52 0
  48 0010 0748     		ldrpl	r0, .L5+8
  49 0012 00F18001 		add	r1, r0, #128
  50              	.LVL2:
  51 0016 FFF7FEFF 		bl	computebufI
  52              	.LVL3:
  53              		.loc 1 54 0
  54 001a 2368     		ldr	r3, [r4]
  55 001c 197A     		ldrb	r1, [r3, #8]	@ zero_extendqisi2
  56 001e 5A68     		ldr	r2, [r3, #4]
  57 0020 3D23     		movs	r3, #61
ARM GAS  /tmp/ccg0r710.s 			page 2


  58 0022 8B40     		lsls	r3, r3, r1
  59 0024 1360     		str	r3, [r2]
  60 0026 10BD     		pop	{r4, pc}
  61              	.L6:
  62              		.align	2
  63              	.L5:
  64 0028 00000000 		.word	i2sdmaWM
  65 002c 00000000 		.word	.LANCHOR0
  66 0030 00010000 		.word	.LANCHOR0+256
  67              		.cfi_endproc
  68              	.LFE135:
  69              		.size	dma_i2s_interrupt, .-dma_i2s_interrupt
  70              		.align	2
  71 0034 AFF30080 		.p2align 4,,15
  71      AFF30080 
  71      AFF30080 
  72              		.global	codecStop
  73              		.thumb
  74              		.thumb_func
  75              		.type	codecStop, %function
  76              	codecStop:
  77              	.LFB131:
  78              		.file 2 "codec.c"
  79              		.loc 2 60 0
  80              		.cfi_startproc
  81              		@ args = 0, pretend = 0, frame = 0
  82              		@ frame_needed = 0, uses_anonymous_args = 0
  83              		@ link register save eliminated.
  84 0040 7047     		bx	lr
  85              		.cfi_endproc
  86              	.LFE131:
  87              		.size	codecStop, .-codecStop
  88 0042 00BF     		.align	2
  89 0044 AFF30080 		.p2align 4,,15
  89      AFF30080 
  89      AFF30080 
  90              		.global	codec_clearbuffer
  91              		.thumb
  92              		.thumb_func
  93              		.type	codec_clearbuffer, %function
  94              	codec_clearbuffer:
  95              	.LFB132:
  96              		.loc 2 63 0
  97              		.cfi_startproc
  98              		@ args = 0, pretend = 0, frame = 0
  99              		@ frame_needed = 0, uses_anonymous_args = 0
 100              		@ link register save eliminated.
 101              	.LVL4:
 102 0050 064B     		ldr	r3, .L12
 103              		.loc 2 66 0
 104 0052 0021     		movs	r1, #0
 105 0054 03F58072 		add	r2, r3, #256
 106 0058 03F18000 		add	r0, r3, #128
 107              	.LVL5:
 108              	.L9:
 109              		.loc 2 66 0 is_stmt 0 discriminator 3
 110 005c 43F8041F 		str	r1, [r3, #4]!
ARM GAS  /tmp/ccg0r710.s 			page 3


 111              		.loc 2 65 0 is_stmt 1 discriminator 3
 112 0060 8342     		cmp	r3, r0
 113              		.loc 2 67 0 discriminator 3
 114 0062 42F8041F 		str	r1, [r2, #4]!
 115              		.loc 2 65 0 discriminator 3
 116 0066 F9D1     		bne	.L9
 117              		.loc 2 69 0
 118 0068 7047     		bx	lr
 119              	.L13:
 120 006a 00BF     		.align	2
 121              	.L12:
 122 006c 7C000000 		.word	.LANCHOR0+124
 123              		.cfi_endproc
 124              	.LFE132:
 125              		.size	codec_clearbuffer, .-codec_clearbuffer
 126              		.align	2
 127              		.p2align 4,,15
 128              		.global	codec_WM8731_i2s_init_48k
 129              		.thumb
 130              		.thumb_func
 131              		.type	codec_WM8731_i2s_init_48k, %function
 132              	codec_WM8731_i2s_init_48k:
 133              	.LFB137:
 134              		.loc 1 77 0
 135              		.cfi_startproc
 136              		@ args = 0, pretend = 0, frame = 0
 137              		@ frame_needed = 0, uses_anonymous_args = 0
 138 0070 2DE9F041 		push	{r4, r5, r6, r7, r8, lr}
 139              		.cfi_def_cfa_offset 24
 140              		.cfi_offset 4, -24
 141              		.cfi_offset 5, -20
 142              		.cfi_offset 6, -16
 143              		.cfi_offset 7, -12
 144              		.cfi_offset 8, -8
 145              		.cfi_offset 14, -4
 146              		.loc 1 81 0
 147 0074 304D     		ldr	r5, .L16
 148              		.loc 1 96 0
 149 0076 314C     		ldr	r4, .L16+4
 150              	.LBB4:
 151              	.LBB5:
 152              		.loc 1 61 0
 153 0078 314E     		ldr	r6, .L16+8
 154              		.loc 1 59 0
 155 007a 324F     		ldr	r7, .L16+12
 156              	.LBE5:
 157              	.LBE4:
 158              		.loc 1 81 0
 159 007c 2846     		mov	r0, r5
 160 007e 4FF48051 		mov	r1, #4096
 161 0082 40F28222 		movw	r2, #642
 162 0086 FFF7FEFF 		bl	_pal_lld_setgroupmode
 163              	.LVL6:
 164              		.loc 1 84 0
 165 008a 2846     		mov	r0, r5
 166 008c 4FF40051 		mov	r1, #8192
 167 0090 40F28222 		movw	r2, #642
ARM GAS  /tmp/ccg0r710.s 			page 4


 168 0094 FFF7FEFF 		bl	_pal_lld_setgroupmode
 169              	.LVL7:
 170              		.loc 1 86 0
 171 0098 2846     		mov	r0, r5
 172 009a 4FF48041 		mov	r1, #16384
 173 009e 40F28222 		movw	r2, #642
 174 00a2 FFF7FEFF 		bl	_pal_lld_setgroupmode
 175              	.LVL8:
 176              		.loc 1 89 0
 177 00a6 2846     		mov	r0, r5
 178 00a8 4FF40041 		mov	r1, #32768
 179 00ac 40F28222 		movw	r2, #642
 180 00b0 FFF7FEFF 		bl	_pal_lld_setgroupmode
 181              	.LVL9:
 182              		.loc 1 92 0
 183 00b4 2448     		ldr	r0, .L16+16
 184              	.LBB12:
 185              	.LBB6:
 186              		.loc 1 59 0
 187 00b6 254D     		ldr	r5, .L16+20
 188              	.LBE6:
 189              	.LBE12:
 190              		.loc 1 92 0
 191 00b8 4021     		movs	r1, #64
 192 00ba 40F28222 		movw	r2, #642
 193 00be FFF7FEFF 		bl	_pal_lld_setgroupmode
 194              	.LVL10:
 195              		.loc 1 95 0
 196 00c2 2348     		ldr	r0, .L16+24
 197              	.LBB13:
 198              	.LBB7:
 199              		.loc 1 61 0
 200 00c4 DFF89CE0 		ldr	lr, .L16+44
 201              	.LBE7:
 202              	.LBE13:
 203              		.loc 1 95 0
 204 00c8 016C     		ldr	r1, [r0, #64]
 205              	.LBB14:
 206              	.LBB8:
 207              		.loc 1 63 0
 208 00ca 224A     		ldr	r2, .L16+28
 209 00cc 224B     		ldr	r3, .L16+32
 210              	.LBE8:
 211              	.LBE14:
 212              		.loc 1 95 0
 213 00ce 41F48041 		orr	r1, r1, #16384
 214              		.loc 1 98 0
 215 00d2 40F2033C 		movw	ip, #771
 216              		.loc 1 96 0
 217 00d6 40F60428 		movw	r8, #2564
 218              		.loc 1 95 0
 219 00da 0164     		str	r1, [r0, #64]
 220              		.loc 1 96 0
 221 00dc A4F81C80 		strh	r8, [r4, #28]	@ movhi
 222              	.LBB15:
 223              	.LBB9:
 224              		.loc 1 63 0
ARM GAS  /tmp/ccg0r710.s 			page 5


 225 00e0 2846     		mov	r0, r5
 226              	.LBE9:
 227              	.LBE15:
 228              		.loc 1 98 0
 229 00e2 A4F820C0 		strh	ip, [r4, #32]	@ movhi
 230              	.LBB16:
 231              	.LBB10:
 232              		.loc 1 63 0
 233 00e6 0221     		movs	r1, #2
 234              		.loc 1 59 0
 235 00e8 3D60     		str	r5, [r7]
 236              		.loc 1 61 0
 237 00ea C6F800E0 		str	lr, [r6]
 238              		.loc 1 63 0
 239 00ee FFF7FEFF 		bl	dmaStreamAllocate
 240              	.LVL11:
 241              		.loc 1 65 0
 242 00f2 3968     		ldr	r1, [r7]
 243              		.loc 1 69 0
 244 00f4 3068     		ldr	r0, [r6]
 245              		.loc 1 65 0
 246 00f6 0B68     		ldr	r3, [r1]
 247              		.loc 1 66 0
 248 00f8 184A     		ldr	r2, .L16+36
 249              		.loc 1 65 0
 250 00fa 194D     		ldr	r5, .L16+40
 251 00fc 9D60     		str	r5, [r3, #8]
 252              		.loc 1 69 0
 253 00fe 40F48060 		orr	r0, r0, #1024
 254              		.loc 1 66 0
 255 0102 02F18006 		add	r6, r2, #128
 256              		.loc 1 68 0
 257 0106 4025     		movs	r5, #64
 258              		.loc 1 67 0
 259 0108 02F5C072 		add	r2, r2, #384
 260              		.loc 1 66 0
 261 010c DE60     		str	r6, [r3, #12]
 262              		.loc 1 67 0
 263 010e 1A61     		str	r2, [r3, #16]
 264              		.loc 1 68 0
 265 0110 5D60     		str	r5, [r3, #4]
 266              		.loc 1 69 0
 267 0112 1860     		str	r0, [r3]
 268              		.loc 1 73 0
 269 0114 087A     		ldrb	r0, [r1, #8]	@ zero_extendqisi2
 270 0116 4968     		ldr	r1, [r1, #4]
 271 0118 3D22     		movs	r2, #61
 272 011a 8240     		lsls	r2, r2, r0
 273 011c 0A60     		str	r2, [r1]
 274              		.loc 1 74 0
 275 011e 1A68     		ldr	r2, [r3]
 276              	.LBE10:
 277              	.LBE16:
 278              		.loc 1 100 0
 279 0120 0221     		movs	r1, #2
 280              	.LBB17:
 281              	.LBB11:
ARM GAS  /tmp/ccg0r710.s 			page 6


 282              		.loc 1 74 0
 283 0122 42F00102 		orr	r2, r2, #1
 284 0126 1A60     		str	r2, [r3]
 285              	.LBE11:
 286              	.LBE17:
 287              		.loc 1 100 0
 288 0128 A180     		strh	r1, [r4, #4]	@ movhi
 289              		.loc 1 101 0
 290 012a A38B     		ldrh	r3, [r4, #28]
 291 012c 9BB2     		uxth	r3, r3
 292 012e 43F48063 		orr	r3, r3, #1024
 293 0132 A383     		strh	r3, [r4, #28]	@ movhi
 294 0134 BDE8F081 		pop	{r4, r5, r6, r7, r8, pc}
 295              	.L17:
 296              		.align	2
 297              	.L16:
 298 0138 00040240 		.word	1073873920
 299 013c 00380040 		.word	1073756160
 300 0140 00000000 		.word	.LANCHOR1
 301 0144 00000000 		.word	i2sdmaWM
 302 0148 00080240 		.word	1073874944
 303 014c 30000000 		.word	_stm32_dma_streams+48
 304 0150 00380240 		.word	1073887232
 305 0154 00000000 		.word	dma_i2s_interrupt
 306 0158 00000000 		.word	SPID2
 307 015c 00000000 		.word	.LANCHOR0
 308 0160 0C380040 		.word	1073756172
 309 0164 54480500 		.word	346196
 310              		.cfi_endproc
 311              	.LFE137:
 312              		.size	codec_WM8731_i2s_init_48k, .-codec_WM8731_i2s_init_48k
 313              		.align	2
 314 0168 AFF30080 		.p2align 4,,15
 314      AFF30080 
 315              		.global	codec_WM8731_writeReg
 316              		.thumb
 317              		.thumb_func
 318              		.type	codec_WM8731_writeReg, %function
 319              	codec_WM8731_writeReg:
 320              	.LFB138:
 321              		.loc 1 104 0
 322              		.cfi_startproc
 323              		@ args = 0, pretend = 0, frame = 0
 324              		@ frame_needed = 0, uses_anonymous_args = 0
 325              	.LVL12:
 326 0170 70B5     		push	{r4, r5, r6, lr}
 327              		.cfi_def_cfa_offset 16
 328              		.cfi_offset 4, -16
 329              		.cfi_offset 5, -12
 330              		.cfi_offset 6, -8
 331              		.cfi_offset 14, -4
 332              		.loc 1 106 0
 333 0172 0C4B     		ldr	r3, .L20
 334              		.loc 1 104 0
 335 0174 84B0     		sub	sp, sp, #16
 336              		.cfi_def_cfa_offset 32
 337              		.loc 1 109 0
ARM GAS  /tmp/ccg0r710.s 			page 7


 338 0176 0024     		movs	r4, #0
 339              		.loc 1 106 0
 340 0178 4500     		lsls	r5, r0, #1
 341              		.loc 1 109 0
 342 017a 0426     		movs	r6, #4
 343              		.loc 1 107 0
 344 017c 83F80112 		strb	r1, [r3, #513]
 345              		.loc 1 109 0
 346 0180 03F50072 		add	r2, r3, #512
 347 0184 0094     		str	r4, [sp]
 348 0186 0194     		str	r4, [sp, #4]
 349 0188 0296     		str	r6, [sp, #8]
 350 018a 1A21     		movs	r1, #26
 351              	.LVL13:
 352              		.loc 1 106 0
 353 018c 83F80052 		strb	r5, [r3, #512]
 354              		.loc 1 109 0
 355 0190 0548     		ldr	r0, .L20+4
 356              	.LVL14:
 357 0192 0223     		movs	r3, #2
 358 0194 FFF7FEFF 		bl	i2cMasterTransmitTimeout
 359              	.LVL15:
 360              		.loc 1 110 0
 361 0198 0120     		movs	r0, #1
 362              		.loc 1 111 0
 363 019a 04B0     		add	sp, sp, #16
 364              		.cfi_def_cfa_offset 16
 365              		@ sp needed
 366 019c BDE87040 		pop	{r4, r5, r6, lr}
 367              		.cfi_restore 14
 368              		.cfi_restore 6
 369              		.cfi_restore 5
 370              		.cfi_restore 4
 371              		.cfi_def_cfa_offset 0
 372              		.loc 1 110 0
 373 01a0 FFF7FEBF 		b	chThdSleep
 374              	.LVL16:
 375              	.L21:
 376              		.align	2
 377              	.L20:
 378 01a4 00000000 		.word	.LANCHOR0
 379 01a8 00000000 		.word	I2CD2
 380              		.cfi_endproc
 381              	.LFE138:
 382              		.size	codec_WM8731_writeReg, .-codec_WM8731_writeReg
 383              		.align	2
 384 01ac AFF30080 		.p2align 4,,15
 385              		.global	codec_WM8731_hw_reset
 386              		.thumb
 387              		.thumb_func
 388              		.type	codec_WM8731_hw_reset, %function
 389              	codec_WM8731_hw_reset:
 390              	.LFB134:
 391              		.loc 1 39 0
 392              		.cfi_startproc
 393              		@ args = 0, pretend = 0, frame = 0
 394              		@ frame_needed = 0, uses_anonymous_args = 0
ARM GAS  /tmp/ccg0r710.s 			page 8


 395 01b0 08B5     		push	{r3, lr}
 396              		.cfi_def_cfa_offset 8
 397              		.cfi_offset 3, -8
 398              		.cfi_offset 14, -4
 399              		.loc 1 40 0
 400 01b2 0F20     		movs	r0, #15
 401 01b4 0021     		movs	r1, #0
 402 01b6 FFF7FEFF 		bl	codec_WM8731_writeReg
 403              	.LVL17:
 404              		.loc 1 41 0
 405 01ba 0A20     		movs	r0, #10
 406              		.loc 1 42 0
 407 01bc BDE80840 		pop	{r3, lr}
 408              		.cfi_restore 14
 409              		.cfi_restore 3
 410              		.cfi_def_cfa_offset 0
 411              		.loc 1 41 0
 412 01c0 FFF7FEBF 		b	chThdSleep
 413              	.LVL18:
 414              		.cfi_endproc
 415              	.LFE134:
 416              		.size	codec_WM8731_hw_reset, .-codec_WM8731_hw_reset
 417              		.align	2
 418 01c4 AFF30080 		.p2align 4,,15
 418      AFF30080 
 418      AFF30080 
 419              		.global	codec_WM8731_pwrCtl
 420              		.thumb
 421              		.thumb_func
 422              		.type	codec_WM8731_pwrCtl, %function
 423              	codec_WM8731_pwrCtl:
 424              	.LFB139:
 425              		.loc 1 113 0
 426              		.cfi_startproc
 427              		@ args = 0, pretend = 0, frame = 0
 428              		@ frame_needed = 0, uses_anonymous_args = 0
 429              		@ link register save eliminated.
 430              	.LVL19:
 431              		.loc 1 115 0
 432 01d0 18B9     		cbnz	r0, .L26
 433              		.loc 1 118 0
 434 01d2 0620     		movs	r0, #6
 435              	.LVL20:
 436 01d4 0121     		movs	r1, #1
 437 01d6 FFF7FEBF 		b	codec_WM8731_writeReg
 438              	.LVL21:
 439              	.L26:
 440              	.LBB20:
 441              	.LBB21:
 442              		.loc 1 116 0
 443 01da 0620     		movs	r0, #6
 444              	.LVL22:
 445 01dc 0021     		movs	r1, #0
 446 01de FFF7FEBF 		b	codec_WM8731_writeReg
 447              	.LVL23:
 448              	.LBE21:
 449              	.LBE20:
ARM GAS  /tmp/ccg0r710.s 			page 9


 450              		.cfi_endproc
 451              	.LFE139:
 452              		.size	codec_WM8731_pwrCtl, .-codec_WM8731_pwrCtl
 453 01e2 00BF     		.align	2
 454 01e4 AFF30080 		.p2align 4,,15
 454      AFF30080 
 454      AFF30080 
 455              		.global	codec_WM8731_muteCtl
 456              		.thumb
 457              		.thumb_func
 458              		.type	codec_WM8731_muteCtl, %function
 459              	codec_WM8731_muteCtl:
 460              	.LFB140:
 461              		.loc 1 121 0
 462              		.cfi_startproc
 463              		@ args = 0, pretend = 0, frame = 0
 464              		@ frame_needed = 0, uses_anonymous_args = 0
 465              	.LVL24:
 466              		.loc 1 123 0
 467 01f0 50B9     		cbnz	r0, .L30
 468              		.loc 1 121 0
 469 01f2 08B5     		push	{r3, lr}
 470              		.cfi_def_cfa_offset 8
 471              		.cfi_offset 3, -8
 472              		.cfi_offset 14, -4
 473 01f4 0146     		mov	r1, r0
 474              		.loc 1 126 0
 475 01f6 0520     		movs	r0, #5
 476              	.LVL25:
 477 01f8 FFF7FEFF 		bl	codec_WM8731_writeReg
 478              	.LVL26:
 479              		.loc 1 127 0
 480 01fc 0420     		movs	r0, #4
 481 01fe 1021     		movs	r1, #16
 482              		.loc 1 129 0
 483 0200 BDE80840 		pop	{r3, lr}
 484              		.cfi_restore 14
 485              		.cfi_restore 3
 486              		.cfi_def_cfa_offset 0
 487              		.loc 1 127 0
 488 0204 FFF7FEBF 		b	codec_WM8731_writeReg
 489              	.LVL27:
 490              	.L30:
 491              	.LBB24:
 492              	.LBB25:
 493              		.loc 1 124 0
 494 0208 0520     		movs	r0, #5
 495              	.LVL28:
 496 020a 0821     		movs	r1, #8
 497 020c FFF7FEBF 		b	codec_WM8731_writeReg
 498              	.LVL29:
 499              	.LBE25:
 500              	.LBE24:
 501              		.cfi_endproc
 502              	.LFE140:
 503              		.size	codec_WM8731_muteCtl, .-codec_WM8731_muteCtl
 504              		.align	2
ARM GAS  /tmp/ccg0r710.s 			page 10


 505              		.p2align 4,,15
 506              		.global	codec_WM8731_hw_init
 507              		.thumb
 508              		.thumb_func
 509              		.type	codec_WM8731_hw_init, %function
 510              	codec_WM8731_hw_init:
 511              	.LFB133:
 512              		.loc 1 15 0
 513              		.cfi_startproc
 514              		@ args = 0, pretend = 0, frame = 0
 515              		@ frame_needed = 0, uses_anonymous_args = 0
 516 0210 10B5     		push	{r4, lr}
 517              		.cfi_def_cfa_offset 8
 518              		.cfi_offset 4, -8
 519              		.cfi_offset 14, -4
 520              		.loc 1 17 0
 521 0212 184C     		ldr	r4, .L33
 522 0214 4FF48061 		mov	r1, #1024
 523 0218 2046     		mov	r0, r4
 524 021a 40F20622 		movw	r2, #518
 525 021e FFF7FEFF 		bl	_pal_lld_setgroupmode
 526              	.LVL30:
 527              		.loc 1 18 0
 528 0222 40F20622 		movw	r2, #518
 529 0226 2046     		mov	r0, r4
 530 0228 4FF40061 		mov	r1, #2048
 531 022c FFF7FEFF 		bl	_pal_lld_setgroupmode
 532              	.LVL31:
 533              		.loc 1 20 0
 534 0230 1149     		ldr	r1, .L33+4
 535 0232 1248     		ldr	r0, .L33+8
 536 0234 FFF7FEFF 		bl	i2cStart
 537              	.LVL32:
 538              		.loc 1 23 0
 539 0238 FFF7FEFF 		bl	codec_WM8731_hw_reset
 540              	.LVL33:
 541              		.loc 1 26 0
 542 023c 0020     		movs	r0, #0
 543 023e FFF7FEFF 		bl	codec_WM8731_pwrCtl
 544              	.LVL34:
 545              		.loc 1 29 0
 546 0242 0720     		movs	r0, #7
 547 0244 0E21     		movs	r1, #14
 548 0246 FFF7FEFF 		bl	codec_WM8731_writeReg
 549              	.LVL35:
 550              		.loc 1 31 0
 551 024a 0820     		movs	r0, #8
 552 024c 4021     		movs	r1, #64
 553 024e FFF7FEFF 		bl	codec_WM8731_writeReg
 554              	.LVL36:
 555              	.LBB34:
 556              	.LBB35:
 557              	.LBB36:
 558              		.loc 1 116 0
 559 0252 0021     		movs	r1, #0
 560 0254 0620     		movs	r0, #6
 561 0256 FFF7FEFF 		bl	codec_WM8731_writeReg
ARM GAS  /tmp/ccg0r710.s 			page 11


 562              	.LVL37:
 563              	.LBE36:
 564              	.LBE35:
 565              	.LBE34:
 566              		.loc 1 35 0
 567 025a 0020     		movs	r0, #0
 568 025c FFF7FEFF 		bl	codec_WM8731_muteCtl
 569              	.LVL38:
 570              	.LBB37:
 571              	.LBB38:
 572              	.LBB39:
 573              		.loc 1 134 0
 574 0260 0020     		movs	r0, #0
 575 0262 1721     		movs	r1, #23
 576 0264 FFF7FEFF 		bl	codec_WM8731_writeReg
 577              	.LVL39:
 578              		.loc 1 135 0
 579 0268 0120     		movs	r0, #1
 580 026a 1721     		movs	r1, #23
 581              	.LBE39:
 582              	.LBE38:
 583              	.LBE37:
 584              		.loc 1 37 0
 585 026c BDE81040 		pop	{r4, lr}
 586              		.cfi_restore 14
 587              		.cfi_restore 4
 588              		.cfi_def_cfa_offset 0
 589              	.LBB42:
 590              	.LBB41:
 591              	.LBB40:
 592              		.loc 1 135 0
 593 0270 FFF7FEBF 		b	codec_WM8731_writeReg
 594              	.LVL40:
 595              	.L34:
 596              		.align	2
 597              	.L33:
 598 0274 00040240 		.word	1073873920
 599 0278 00000000 		.word	.LANCHOR2
 600 027c 00000000 		.word	I2CD2
 601              	.LBE40:
 602              	.LBE41:
 603              	.LBE42:
 604              		.cfi_endproc
 605              	.LFE133:
 606              		.size	codec_WM8731_hw_init, .-codec_WM8731_hw_init
 607              		.align	2
 608              		.p2align 4,,15
 609              		.global	codec_init
 610              		.thumb
 611              		.thumb_func
 612              		.type	codec_init, %function
 613              	codec_init:
 614              	.LFB130:
 615              		.loc 2 36 0
 616              		.cfi_startproc
 617              		@ args = 0, pretend = 0, frame = 0
 618              		@ frame_needed = 0, uses_anonymous_args = 0
ARM GAS  /tmp/ccg0r710.s 			page 12


 619 0280 08B5     		push	{r3, lr}
 620              		.cfi_def_cfa_offset 8
 621              		.cfi_offset 3, -8
 622              		.cfi_offset 14, -4
 623              		.loc 2 42 0
 624 0282 FFF7FEFF 		bl	codec_WM8731_i2s_init_48k
 625              	.LVL41:
 626              		.loc 2 43 0
 627 0286 FFF7FEFF 		bl	codec_WM8731_hw_init
 628              	.LVL42:
 629              	.LBB47:
 630              	.LBB48:
 631              	.LBB49:
 632              		.loc 1 116 0
 633 028a 0620     		movs	r0, #6
 634 028c 0021     		movs	r1, #0
 635 028e FFF7FEFF 		bl	codec_WM8731_writeReg
 636              	.LVL43:
 637              	.LBE49:
 638              	.LBE48:
 639              	.LBE47:
 640              		.loc 2 47 0
 641 0292 0020     		movs	r0, #0
 642              		.loc 2 58 0
 643 0294 BDE80840 		pop	{r3, lr}
 644              		.cfi_restore 14
 645              		.cfi_restore 3
 646              		.cfi_def_cfa_offset 0
 647              		.loc 2 47 0
 648 0298 FFF7FEBF 		b	codec_WM8731_muteCtl
 649              	.LVL44:
 650              		.cfi_endproc
 651              	.LFE130:
 652              		.size	codec_init, .-codec_init
 653              		.align	2
 654 029c AFF30080 		.p2align 4,,15
 655              		.global	codec_WM8731_volCtl
 656              		.thumb
 657              		.thumb_func
 658              		.type	codec_WM8731_volCtl, %function
 659              	codec_WM8731_volCtl:
 660              	.LFB141:
 661              		.loc 1 131 0
 662              		.cfi_startproc
 663              		@ args = 0, pretend = 0, frame = 0
 664              		@ frame_needed = 0, uses_anonymous_args = 0
 665              	.LVL45:
 666 02a0 10B5     		push	{r4, lr}
 667              		.cfi_def_cfa_offset 8
 668              		.cfi_offset 4, -8
 669              		.cfi_offset 14, -4
 670              		.loc 1 131 0
 671 02a2 0446     		mov	r4, r0
 672              		.loc 1 133 0
 673 02a4 1F2C     		cmp	r4, #31
 674              	.LBB52:
 675              	.LBB53:
ARM GAS  /tmp/ccg0r710.s 			page 13


 676              		.loc 1 134 0
 677 02a6 4FF00000 		mov	r0, #0
 678              	.LVL46:
 679              	.LBE53:
 680              	.LBE52:
 681              		.loc 1 133 0
 682 02aa 08D9     		bls	.L40
 683              		.loc 1 138 0
 684 02ac 1F21     		movs	r1, #31
 685 02ae FFF7FEFF 		bl	codec_WM8731_writeReg
 686              	.LVL47:
 687              		.loc 1 139 0
 688 02b2 0120     		movs	r0, #1
 689 02b4 1F21     		movs	r1, #31
 690              		.loc 1 141 0
 691 02b6 BDE81040 		pop	{r4, lr}
 692              		.cfi_remember_state
 693              		.cfi_restore 14
 694              		.cfi_restore 4
 695              		.cfi_def_cfa_offset 0
 696              		.loc 1 139 0
 697 02ba FFF7FEBF 		b	codec_WM8731_writeReg
 698              	.LVL48:
 699              	.L40:
 700              		.cfi_restore_state
 701              	.LBB56:
 702              	.LBB54:
 703              		.loc 1 134 0
 704 02be 2146     		mov	r1, r4
 705 02c0 FFF7FEFF 		bl	codec_WM8731_writeReg
 706              	.LVL49:
 707              		.loc 1 135 0
 708 02c4 2146     		mov	r1, r4
 709 02c6 0120     		movs	r0, #1
 710              	.LBE54:
 711              	.LBE56:
 712              		.loc 1 141 0
 713 02c8 BDE81040 		pop	{r4, lr}
 714              		.cfi_restore 14
 715              		.cfi_restore 4
 716              		.cfi_def_cfa_offset 0
 717              	.LVL50:
 718              	.LBB57:
 719              	.LBB55:
 720              		.loc 1 135 0
 721 02cc FFF7FEBF 		b	codec_WM8731_writeReg
 722              	.LVL51:
 723              	.LBE55:
 724              	.LBE57:
 725              		.cfi_endproc
 726              	.LFE141:
 727              		.size	codec_WM8731_volCtl, .-codec_WM8731_volCtl
 728              		.comm	i2sdmaWM,4,4
 729              		.global	rbuf2
 730              		.global	rbuf
 731              		.global	buf2
 732              		.global	buf
ARM GAS  /tmp/ccg0r710.s 			page 14


 733              		.section	.rodata
 734              		.align	2
 735              		.set	.LANCHOR2,. + 0
 736              		.type	i2cfgWM, %object
 737              		.size	i2cfgWM, 12
 738              	i2cfgWM:
 739 0000 01       		.byte	1
 740 0001 000000   		.space	3
 741 0004 A0860100 		.word	100000
 742 0008 01       		.byte	1
 743 0009 000000   		.space	3
 744              		.section	.sram2,"aw",%progbits
 745              		.align	2
 746              		.set	.LANCHOR0,. + 0
 747              		.type	rbuf, %object
 748              		.size	rbuf, 128
 749              	rbuf:
 750 0000 00000000 		.space	128
 750      00000000 
 750      00000000 
 750      00000000 
 750      00000000 
 751              		.type	buf, %object
 752              		.size	buf, 128
 753              	buf:
 754 0080 00000000 		.space	128
 754      00000000 
 754      00000000 
 754      00000000 
 754      00000000 
 755              		.type	rbuf2, %object
 756              		.size	rbuf2, 128
 757              	rbuf2:
 758 0100 00000000 		.space	128
 758      00000000 
 758      00000000 
 758      00000000 
 758      00000000 
 759              		.type	buf2, %object
 760              		.size	buf2, 128
 761              	buf2:
 762 0180 00000000 		.space	128
 762      00000000 
 762      00000000 
 762      00000000 
 762      00000000 
 763              		.type	txbufWM, %object
 764              		.size	txbufWM, 2
 765              	txbufWM:
 766 0200 0000     		.space	2
 767              		.bss
 768              		.align	2
 769              		.set	.LANCHOR1,. + 0
 770              		.type	i2stxdmamodeWM, %object
 771              		.size	i2stxdmamodeWM, 4
 772              	i2stxdmamodeWM:
 773 0000 00000000 		.space	4
ARM GAS  /tmp/ccg0r710.s 			page 15


 774              		.text
 775              	.Letext0:
 776              		.file 3 "/home/sbcu/Dropbox/pcb-layouts/axo-on-discovery-board/axoloti/platform_linux/arm-none-eab
 777              		.file 4 "/home/sbcu/Dropbox/pcb-layouts/axo-on-discovery-board/axoloti/platform_linux/arm-none-eab
 778              		.file 5 "/home/sbcu/Dropbox/pcb-layouts/axo-on-discovery-board/axoloti/platform_linux/lib/gcc/arm-
 779              		.file 6 "/home/sbcu/Dropbox/pcb-layouts/axo-on-discovery-board/axoloti/platform_linux/../chibios/o
 780              		.file 7 "/home/sbcu/Dropbox/pcb-layouts/axo-on-discovery-board/axoloti/platform_linux/../chibios/o
 781              		.file 8 "/home/sbcu/Dropbox/pcb-layouts/axo-on-discovery-board/axoloti/platform_linux/../chibios/o
 782              		.file 9 "/home/sbcu/Dropbox/pcb-layouts/axo-on-discovery-board/axoloti/platform_linux/../chibios/o
 783              		.file 10 "/home/sbcu/Dropbox/pcb-layouts/axo-on-discovery-board/axoloti/platform_linux/../chibios/
 784              		.file 11 "/home/sbcu/Dropbox/pcb-layouts/axo-on-discovery-board/axoloti/platform_linux/../chibios/
 785              		.file 12 "/home/sbcu/Dropbox/pcb-layouts/axo-on-discovery-board/axoloti/platform_linux/../chibios/
 786              		.file 13 "/home/sbcu/Dropbox/pcb-layouts/axo-on-discovery-board/axoloti/platform_linux/../chibios/
 787              		.file 14 "/home/sbcu/Dropbox/pcb-layouts/axo-on-discovery-board/axoloti/platform_linux/../chibios/
 788              		.file 15 "/home/sbcu/Dropbox/pcb-layouts/axo-on-discovery-board/axoloti/platform_linux/../chibios/
 789              		.file 16 "/home/sbcu/Dropbox/pcb-layouts/axo-on-discovery-board/axoloti/platform_linux/../chibios/
 790              		.file 17 "/home/sbcu/Dropbox/pcb-layouts/axo-on-discovery-board/axoloti/platform_linux/../chibios/
 791              		.file 18 "/home/sbcu/Dropbox/pcb-layouts/axo-on-discovery-board/axoloti/platform_linux/../CMSIS//I
 792              		.file 19 "codec.h"