ARM GAS  /tmp/cckFEW2X.s 			page 1


   1              		.syntax unified
   2              		.cpu cortex-m4
   3              		.eabi_attribute 27, 1
   4              		.eabi_attribute 28, 1
   5              		.fpu fpv4-sp-d16
   6              		.eabi_attribute 20, 1
   7              		.eabi_attribute 21, 1
   8              		.eabi_attribute 23, 3
   9              		.eabi_attribute 24, 1
  10              		.eabi_attribute 25, 1
  11              		.eabi_attribute 26, 1
  12              		.eabi_attribute 30, 2
  13              		.eabi_attribute 34, 1
  14              		.eabi_attribute 18, 4
  15              		.thumb
  16              		.file	"correlator.cpp"
  17              		.text
  18              	.Ltext0:
  19              		.cfi_sections	.debug_frame
  20              		.align	2
  21              		.p2align 4,,15
  22              		.global	_ZN6clouds10Correlator4InitEPmS1_
  23              		.thumb
  24              		.thumb_func
  25              		.type	_ZN6clouds10Correlator4InitEPmS1_, %function
  26              	_ZN6clouds10Correlator4InitEPmS1_:
  27              		.fnstart
  28              	.LFB453:
  29              		.file 1 "./mutable_instruments/clouds/dsp/correlator.cpp"
  30              		.loc 1 37 0
  31              		.cfi_startproc
  32              		@ args = 0, pretend = 0, frame = 0
  33              		@ frame_needed = 0, uses_anonymous_args = 0
  34              		@ link register save eliminated.
  35              	.LVL0:
  36 0000 10B4     		push	{r4}
  37              		.cfi_def_cfa_offset 4
  38              		.cfi_offset 4, -4
  39              		.loc 1 40 0
  40 0002 0023     		movs	r3, #0
  41              		.loc 1 42 0
  42 0004 0124     		movs	r4, #1
  43 0006 80F82440 		strb	r4, [r0, #36]
  44              		.loc 1 39 0
  45 000a 80E80600 		stmia	r0, {r1, r2}
  46              		.loc 1 40 0
  47 000e 8360     		str	r3, [r0, #8]
  48              		.loc 1 41 0
  49 0010 C361     		str	r3, [r0, #28]
  50              		.loc 1 43 0
  51 0012 5DF8044B 		ldr	r4, [sp], #4
  52              		.cfi_restore 4
  53              		.cfi_def_cfa_offset 0
  54 0016 7047     		bx	lr
  55              		.cfi_endproc
  56              	.LFE453:
  57              		.cantunwind
ARM GAS  /tmp/cckFEW2X.s 			page 2


  58              		.fnend
  59              		.size	_ZN6clouds10Correlator4InitEPmS1_, .-_ZN6clouds10Correlator4InitEPmS1_
  60              		.align	2
  61 0018 AFF30080 		.p2align 4,,15
  61      AFF30080 
  62              		.global	_ZN6clouds10Correlator21EvaluateNextCandidateEv
  63              		.thumb
  64              		.thumb_func
  65              		.type	_ZN6clouds10Correlator21EvaluateNextCandidateEv, %function
  66              	_ZN6clouds10Correlator21EvaluateNextCandidateEv:
  67              		.fnstart
  68              	.LFB454:
  69              		.loc 1 45 0
  70              		.cfi_startproc
  71              		@ args = 0, pretend = 0, frame = 0
  72              		@ frame_needed = 0, uses_anonymous_args = 0
  73              	.LVL1:
  74 0020 2DE9F04F 		push	{r4, r5, r6, r7, r8, r9, r10, fp, lr}
  75              		.cfi_def_cfa_offset 36
  76              		.cfi_offset 4, -36
  77              		.cfi_offset 5, -32
  78              		.cfi_offset 6, -28
  79              		.cfi_offset 7, -24
  80              		.cfi_offset 8, -20
  81              		.cfi_offset 9, -16
  82              		.cfi_offset 10, -12
  83              		.cfi_offset 11, -8
  84              		.cfi_offset 14, -4
  85              	.LBB2:
  86              		.loc 1 46 0
  87 0024 90F82450 		ldrb	r5, [r0, #36]	@ zero_extendqisi2
  88 0028 002D     		cmp	r5, #0
  89 002a 4AD1     		bne	.L3
  90              		.loc 1 50 0
  91 002c D0F81480 		ldr	r8, [r0, #20]
  92              		.loc 1 49 0
  93 0030 D0F81090 		ldr	r9, [r0, #16]
  94              	.LVL2:
  95              		.loc 1 53 0
  96 0034 4368     		ldr	r3, [r0, #4]
  97              		.loc 1 52 0
  98 0036 0168     		ldr	r1, [r0]
  99              		.loc 1 50 0
 100 0038 4FEA6812 		asr	r2, r8, #5
 101              	.LVL3:
 102              	.LBB3:
 103              		.loc 1 56 0
 104 003c 5FEA6917 		asrs	r7, r9, #5
 105              	.LVL4:
 106              	.LBE3:
 107              		.loc 1 53 0
 108 0040 03EB8206 		add	r6, r3, r2, lsl #2
 109              		.loc 1 51 0
 110 0044 08F01F0E 		and	lr, r8, #31
 111              	.LVL5:
 112              	.LBB6:
 113              		.loc 1 56 0
ARM GAS  /tmp/cckFEW2X.s 			page 3


 114 0048 30D0     		beq	.L5
 115 004a 53F82240 		ldr	r4, [r3, r2, lsl #2]
 116 004e 01EB8707 		add	r7, r1, r7, lsl #2
 117              	.LVL6:
 118 0052 CEF1200C 		rsb	ip, lr, #32
 119              	.LVL7:
 120              	.L6:
 121              	.LBB4:
 122              		.loc 1 59 0 discriminator 3
 123 0056 04FA0EFB 		lsl	fp, r4, lr
 124              		.loc 1 60 0 discriminator 3
 125 005a 56F8044F 		ldr	r4, [r6, #4]!
 126              		.loc 1 57 0 discriminator 3
 127 005e 51F8043B 		ldr	r3, [r1], #4
 128              	.LVL8:
 129              		.loc 1 60 0 discriminator 3
 130 0062 24FA0CF2 		lsr	r2, r4, ip
 131 0066 42EA0B02 		orr	r2, r2, fp
 132              	.LVL9:
 133              		.loc 1 61 0 discriminator 3
 134 006a 5A40     		eors	r2, r2, r3
 135              	.LVL10:
 136 006c 6FEA020A 		mvn	r10, r2
 137              	.LVL11:
 138              		.loc 1 62 0 discriminator 3
 139 0070 4FEA5A02 		lsr	r2, r10, #1
 140 0074 02F05532 		and	r2, r2, #1431655765
 141 0078 C2EB0A02 		rsb	r2, r2, r10
 142              	.LVL12:
 143              		.loc 1 63 0 discriminator 3
 144 007c 9308     		lsrs	r3, r2, #2
 145              	.LVL13:
 146 007e 03F03333 		and	r3, r3, #858993459
 147 0082 02F03332 		and	r2, r2, #858993459
 148              	.LVL14:
 149 0086 1344     		add	r3, r3, r2
 150              	.LVL15:
 151              		.loc 1 64 0 discriminator 3
 152 0088 03EB1313 		add	r3, r3, r3, lsr #4
 153              	.LVL16:
 154 008c 03F00F33 		and	r3, r3, #252645135
 155 0090 03EB0323 		add	r3, r3, r3, lsl #8
 156 0094 03EB0343 		add	r3, r3, r3, lsl #16
 157              	.LVL17:
 158              	.LBE4:
 159              		.loc 1 56 0 discriminator 3
 160 0098 B942     		cmp	r1, r7
 161              	.LBB5:
 162              		.loc 1 65 0 discriminator 3
 163 009a 05EB1365 		add	r5, r5, r3, lsr #24
 164              	.LVL18:
 165              	.LBE5:
 166              		.loc 1 56 0 discriminator 3
 167 009e DAD1     		bne	.L6
 168              	.LBE6:
 169              		.loc 1 67 0
 170 00a0 8369     		ldr	r3, [r0, #24]
ARM GAS  /tmp/cckFEW2X.s 			page 4


 171              	.LVL19:
 172 00a2 AB42     		cmp	r3, r5
 173              		.loc 1 68 0
 174 00a4 3CBF     		itt	cc
 175 00a6 C0F81C80 		strcc	r8, [r0, #28]
 176              	.LVL20:
 177              		.loc 1 69 0
 178 00aa 8561     		strcc	r5, [r0, #24]
 179              	.LVL21:
 180              	.L5:
 181              		.loc 1 71 0
 182 00ac 08F10103 		add	r3, r8, #1
 183              		.loc 1 72 0
 184 00b0 9945     		cmp	r9, r3
 185 00b2 CCBF     		ite	gt
 186 00b4 4FF00009 		movgt	r9, #0
 187              	.LVL22:
 188 00b8 4FF00109 		movle	r9, #1
 189 00bc 80F82490 		strb	r9, [r0, #36]
 190              		.loc 1 71 0
 191 00c0 4361     		str	r3, [r0, #20]
 192              	.LVL23:
 193              	.L3:
 194 00c2 BDE8F08F 		pop	{r4, r5, r6, r7, r8, r9, r10, fp, pc}
 195              	.LBE2:
 196              		.cfi_endproc
 197              	.LFE454:
 198              		.cantunwind
 199              		.fnend
 200              		.size	_ZN6clouds10Correlator21EvaluateNextCandidateEv, .-_ZN6clouds10Correlator21EvaluateNextCandi
 201 00c6 00BF     		.align	2
 202 00c8 AFF30080 		.p2align 4,,15
 202      AFF30080 
 203              		.global	_ZN6clouds10Correlator11StartSearchElll
 204              		.thumb
 205              		.thumb_func
 206              		.type	_ZN6clouds10Correlator11StartSearchElll, %function
 207              	_ZN6clouds10Correlator11StartSearchElll:
 208              		.fnstart
 209              	.LFB455:
 210              		.loc 1 78 0
 211              		.cfi_startproc
 212              		@ args = 0, pretend = 0, frame = 0
 213              		@ frame_needed = 0, uses_anonymous_args = 0
 214              		@ link register save eliminated.
 215              	.LVL24:
 216 00d0 10B4     		push	{r4}
 217              		.cfi_def_cfa_offset 4
 218              		.cfi_offset 4, -4
 219              		.loc 1 81 0
 220 00d2 0024     		movs	r4, #0
 221 00d4 8461     		str	r4, [r0, #24]
 222              		.loc 1 82 0
 223 00d6 C461     		str	r4, [r0, #28]
 224              		.loc 1 83 0
 225 00d8 4461     		str	r4, [r0, #20]
 226              		.loc 1 85 0
ARM GAS  /tmp/cckFEW2X.s 			page 5


 227 00da 80F82440 		strb	r4, [r0, #36]
 228              		.loc 1 79 0
 229 00de 8260     		str	r2, [r0, #8]
 230              		.loc 1 80 0
 231 00e0 C360     		str	r3, [r0, #12]
 232              		.loc 1 84 0
 233 00e2 0161     		str	r1, [r0, #16]
 234              		.loc 1 86 0
 235 00e4 5DF8044B 		ldr	r4, [sp], #4
 236              		.cfi_restore 4
 237              		.cfi_def_cfa_offset 0
 238 00e8 7047     		bx	lr
 239              		.cfi_endproc
 240              	.LFE455:
 241              		.cantunwind
 242              		.fnend
 243              		.size	_ZN6clouds10Correlator11StartSearchElll, .-_ZN6clouds10Correlator11StartSearchElll
 244              	.Letext0:
 245              		.file 2 "/home/sbcu/Dropbox/pcb-layouts/axo-on-discovery-board/axoloti/platform_linux/arm-none-eab
 246              		.file 3 "/home/sbcu/Dropbox/pcb-layouts/axo-on-discovery-board/axoloti/platform_linux/arm-none-eab
 247              		.file 4 "/home/sbcu/Dropbox/pcb-layouts/axo-on-discovery-board/axoloti/platform_linux/lib/gcc/arm-
 248              		.file 5 "./mutable_instruments/stmlib/stmlib.h"
 249              		.file 6 "./mutable_instruments/clouds/dsp/correlator.h"
 250              		.file 7 "/home/sbcu/Dropbox/pcb-layouts/axo-on-discovery-board/axoloti/platform_linux/arm-none-eab
 251              		.file 8 "/home/sbcu/Dropbox/pcb-layouts/axo-on-discovery-board/axoloti/platform_linux/arm-none-eab
 252              		.file 9 "/home/sbcu/Dropbox/pcb-layouts/axo-on-discovery-board/axoloti/platform_linux/arm-none-eab
 253              		.file 10 "/home/sbcu/Dropbox/pcb-layouts/axo-on-discovery-board/axoloti/platform_linux/arm-none-ea
 254              		.file 11 "/home/sbcu/Dropbox/pcb-layouts/axo-on-discovery-board/axoloti/platform_linux/arm-none-ea
 255              		.file 12 "/home/sbcu/Dropbox/pcb-layouts/axo-on-discovery-board/axoloti/platform_linux/arm-none-ea
 256              		.file 13 "/home/sbcu/Dropbox/pcb-layouts/axo-on-discovery-board/axoloti/platform_linux/arm-none-ea
 257              		.file 14 "/home/sbcu/Dropbox/pcb-layouts/axo-on-discovery-board/axoloti/platform_linux/arm-none-ea
 258              		.file 15 "<built-in>"
 259              		.file 16 "/home/sbcu/Dropbox/pcb-layouts/axo-on-discovery-board/axoloti/platform_linux/arm-none-ea
 260 00ea 00BF     		.section	.debug_info,"",%progbits
 261              	.Ldebug_info0:
 262 0000 9F080000 		.4byte	0x89f
 263 0004 0400     		.2byte	0x4
 264 0006 00000000 		.4byte	.Ldebug_abbrev0
 265 000a 04       		.byte	0x4
 266 000b 01       		.uleb128 0x1
 267 000c 15040000 		.4byte	.LASF99
 268 0010 04       		.byte	0x4
 269 0011 50020000 		.4byte	.LASF100
 270 0015 EB050000 		.4byte	.LASF101
 271 0019 00000000 		.4byte	.Ltext0
 272 001d EA000000 		.4byte	.Letext0-.Ltext0
 273 0021 00000000 		.4byte	.Ldebug_line0
 274 0025 02       		.uleb128 0x2
 275 0026 01       		.byte	0x1
 276 0027 06       		.byte	0x6
 277 0028 43010000 		.4byte	.LASF0
 278 002c 02       		.uleb128 0x2
 279 002d 01       		.byte	0x1
 280 002e 08       		.byte	0x8
 281 002f 0C020000 		.4byte	.LASF1
 282 0033 02       		.uleb128 0x2
 283 0034 02       		.byte	0x2
ARM GAS  /tmp/cckFEW2X.s 			page 6


 284 0035 05       		.byte	0x5
 285 0036 48000000 		.4byte	.LASF2
 286 003a 02       		.uleb128 0x2
 287 003b 02       		.byte	0x2
 288 003c 07       		.byte	0x7
 289 003d 9A030000 		.4byte	.LASF3
 290 0041 03       		.uleb128 0x3
 291 0042 B5050000 		.4byte	.LASF5
 292 0046 02       		.byte	0x2
 293 0047 3F       		.byte	0x3f
 294 0048 4C000000 		.4byte	0x4c
 295 004c 02       		.uleb128 0x2
 296 004d 04       		.byte	0x4
 297 004e 05       		.byte	0x5
 298 004f C4010000 		.4byte	.LASF4
 299 0053 03       		.uleb128 0x3
 300 0054 BE000000 		.4byte	.LASF6
 301 0058 02       		.byte	0x2
 302 0059 41       		.byte	0x41
 303 005a 5E000000 		.4byte	0x5e
 304 005e 02       		.uleb128 0x2
 305 005f 04       		.byte	0x4
 306 0060 07       		.byte	0x7
 307 0061 DB010000 		.4byte	.LASF7
 308 0065 02       		.uleb128 0x2
 309 0066 08       		.byte	0x8
 310 0067 05       		.byte	0x5
 311 0068 7F010000 		.4byte	.LASF8
 312 006c 02       		.uleb128 0x2
 313 006d 08       		.byte	0x8
 314 006e 07       		.byte	0x7
 315 006f 21030000 		.4byte	.LASF9
 316 0073 04       		.uleb128 0x4
 317 0074 04       		.byte	0x4
 318 0075 05       		.byte	0x5
 319 0076 696E7400 		.ascii	"int\000"
 320 007a 02       		.uleb128 0x2
 321 007b 04       		.byte	0x4
 322 007c 07       		.byte	0x7
 323 007d 47030000 		.4byte	.LASF10
 324 0081 03       		.uleb128 0x3
 325 0082 CD030000 		.4byte	.LASF11
 326 0086 03       		.byte	0x3
 327 0087 1F       		.byte	0x1f
 328 0088 41000000 		.4byte	0x41
 329 008c 03       		.uleb128 0x3
 330 008d 38030000 		.4byte	.LASF12
 331 0091 03       		.byte	0x3
 332 0092 20       		.byte	0x20
 333 0093 53000000 		.4byte	0x53
 334 0097 03       		.uleb128 0x3
 335 0098 52000000 		.4byte	.LASF13
 336 009c 04       		.byte	0x4
 337 009d D4       		.byte	0xd4
 338 009e 7A000000 		.4byte	0x7a
 339 00a2 05       		.uleb128 0x5
 340 00a3 59050000 		.4byte	.LASF14
ARM GAS  /tmp/cckFEW2X.s 			page 7


 341 00a7 05       		.byte	0x5
 342 00a8 3C       		.byte	0x3c
 343 00a9 05       		.uleb128 0x5
 344 00aa CD010000 		.4byte	.LASF15
 345 00ae 05       		.byte	0x5
 346 00af 5D       		.byte	0x5d
 347 00b0 02       		.uleb128 0x2
 348 00b1 04       		.byte	0x4
 349 00b2 07       		.byte	0x7
 350 00b3 40060000 		.4byte	.LASF16
 351 00b7 06       		.uleb128 0x6
 352 00b8 53060000 		.4byte	.LASF48
 353 00bc 06       		.byte	0x6
 354 00bd 24       		.byte	0x24
 355 00be DC020000 		.4byte	0x2dc
 356 00c2 07       		.uleb128 0x7
 357 00c3 C2030000 		.4byte	.LASF27
 358 00c7 28       		.byte	0x28
 359 00c8 06       		.byte	0x6
 360 00c9 26       		.byte	0x26
 361 00ca CF020000 		.4byte	0x2cf
 362 00ce 08       		.uleb128 0x8
 363 00cf AD030000 		.4byte	.LASF17
 364 00d3 06       		.byte	0x6
 365 00d4 44       		.byte	0x44
 366 00d5 DC020000 		.4byte	0x2dc
 367 00d9 00       		.byte	0
 368 00da 08       		.uleb128 0x8
 369 00db 08040000 		.4byte	.LASF18
 370 00df 06       		.byte	0x6
 371 00e0 45       		.byte	0x45
 372 00e1 DC020000 		.4byte	0x2dc
 373 00e5 04       		.byte	0x4
 374 00e6 08       		.uleb128 0x8
 375 00e7 36010000 		.4byte	.LASF19
 376 00eb 06       		.byte	0x6
 377 00ec 47       		.byte	0x47
 378 00ed 81000000 		.4byte	0x81
 379 00f1 08       		.byte	0x8
 380 00f2 08       		.uleb128 0x8
 381 00f3 F8030000 		.4byte	.LASF20
 382 00f7 06       		.byte	0x6
 383 00f8 48       		.byte	0x48
 384 00f9 81000000 		.4byte	0x81
 385 00fd 0C       		.byte	0xc
 386 00fe 08       		.uleb128 0x8
 387 00ff 7D030000 		.4byte	.LASF21
 388 0103 06       		.byte	0x6
 389 0104 49       		.byte	0x49
 390 0105 81000000 		.4byte	0x81
 391 0109 10       		.byte	0x10
 392 010a 08       		.uleb128 0x8
 393 010b 0B010000 		.4byte	.LASF22
 394 010f 06       		.byte	0x6
 395 0110 4A       		.byte	0x4a
 396 0111 81000000 		.4byte	0x81
 397 0115 14       		.byte	0x14
ARM GAS  /tmp/cckFEW2X.s 			page 8


 398 0116 08       		.uleb128 0x8
 399 0117 00020000 		.4byte	.LASF23
 400 011b 06       		.byte	0x6
 401 011c 4C       		.byte	0x4c
 402 011d 8C000000 		.4byte	0x8c
 403 0121 18       		.byte	0x18
 404 0122 08       		.uleb128 0x8
 405 0123 4F010000 		.4byte	.LASF24
 406 0127 06       		.byte	0x6
 407 0128 4D       		.byte	0x4d
 408 0129 81000000 		.4byte	0x81
 409 012d 1C       		.byte	0x1c
 410 012e 08       		.uleb128 0x8
 411 012f 0D000000 		.4byte	.LASF25
 412 0133 06       		.byte	0x6
 413 0134 4F       		.byte	0x4f
 414 0135 81000000 		.4byte	0x81
 415 0139 20       		.byte	0x20
 416 013a 08       		.uleb128 0x8
 417 013b EB020000 		.4byte	.LASF26
 418 013f 06       		.byte	0x6
 419 0140 51       		.byte	0x51
 420 0141 E2020000 		.4byte	0x2e2
 421 0145 24       		.byte	0x24
 422 0146 09       		.uleb128 0x9
 423 0147 C2030000 		.4byte	.LASF27
 424 014b 06       		.byte	0x6
 425 014c 28       		.byte	0x28
 426 014d E9020000 		.4byte	0x2e9
 427 0151 01       		.byte	0x1
 428 0152 5A010000 		.4byte	0x15a
 429 0156 60010000 		.4byte	0x160
 430 015a 0A       		.uleb128 0xa
 431 015b E9020000 		.4byte	0x2e9
 432 015f 00       		.byte	0
 433 0160 09       		.uleb128 0x9
 434 0161 F4010000 		.4byte	.LASF28
 435 0165 06       		.byte	0x6
 436 0166 29       		.byte	0x29
 437 0167 EF020000 		.4byte	0x2ef
 438 016b 01       		.byte	0x1
 439 016c 74010000 		.4byte	0x174
 440 0170 7F010000 		.4byte	0x17f
 441 0174 0A       		.uleb128 0xa
 442 0175 E9020000 		.4byte	0x2e9
 443 0179 0A       		.uleb128 0xa
 444 017a 73000000 		.4byte	0x73
 445 017e 00       		.byte	0
 446 017f 0B       		.uleb128 0xb
 447 0180 8D010000 		.4byte	.LASF29
 448 0184 06       		.byte	0x6
 449 0185 2B       		.byte	0x2b
 450 0186 1A020000 		.4byte	.LASF31
 451 018a 01       		.byte	0x1
 452 018b 93010000 		.4byte	0x193
 453 018f A3010000 		.4byte	0x1a3
 454 0193 0A       		.uleb128 0xa
ARM GAS  /tmp/cckFEW2X.s 			page 9


 455 0194 E9020000 		.4byte	0x2e9
 456 0198 0C       		.uleb128 0xc
 457 0199 DC020000 		.4byte	0x2dc
 458 019d 0C       		.uleb128 0xc
 459 019e DC020000 		.4byte	0x2dc
 460 01a2 00       		.byte	0
 461 01a3 0B       		.uleb128 0xb
 462 01a4 91060000 		.4byte	.LASF30
 463 01a8 06       		.byte	0x6
 464 01a9 2D       		.byte	0x2d
 465 01aa 96000000 		.4byte	.LASF32
 466 01ae 01       		.byte	0x1
 467 01af B7010000 		.4byte	0x1b7
 468 01b3 CC010000 		.4byte	0x1cc
 469 01b7 0A       		.uleb128 0xa
 470 01b8 E9020000 		.4byte	0x2e9
 471 01bc 0C       		.uleb128 0xc
 472 01bd 81000000 		.4byte	0x81
 473 01c1 0C       		.uleb128 0xc
 474 01c2 81000000 		.4byte	0x81
 475 01c6 0C       		.uleb128 0xc
 476 01c7 81000000 		.4byte	0x81
 477 01cb 00       		.byte	0
 478 01cc 0D       		.uleb128 0xd
 479 01cd 68010000 		.4byte	.LASF37
 480 01d1 06       		.byte	0x6
 481 01d2 2F       		.byte	0x2f
 482 01d3 8A020000 		.4byte	.LASF39
 483 01d7 81000000 		.4byte	0x81
 484 01db 01       		.byte	0x1
 485 01dc E4010000 		.4byte	0x1e4
 486 01e0 EA010000 		.4byte	0x1ea
 487 01e4 0A       		.uleb128 0xa
 488 01e5 F1020000 		.4byte	0x2f1
 489 01e9 00       		.byte	0
 490 01ea 0B       		.uleb128 0xb
 491 01eb 83030000 		.4byte	.LASF33
 492 01ef 06       		.byte	0x6
 493 01f0 33       		.byte	0x33
 494 01f1 C9000000 		.4byte	.LASF34
 495 01f5 01       		.byte	0x1
 496 01f6 FE010000 		.4byte	0x1fe
 497 01fa 04020000 		.4byte	0x204
 498 01fe 0A       		.uleb128 0xa
 499 01ff E9020000 		.4byte	0x2e9
 500 0203 00       		.byte	0
 501 0204 0B       		.uleb128 0xb
 502 0205 8E050000 		.4byte	.LASF35
 503 0209 06       		.byte	0x6
 504 020a 3B       		.byte	0x3b
 505 020b 5E050000 		.4byte	.LASF36
 506 020f 01       		.byte	0x1
 507 0210 18020000 		.4byte	0x218
 508 0214 1E020000 		.4byte	0x21e
 509 0218 0A       		.uleb128 0xa
 510 0219 E9020000 		.4byte	0x2e9
 511 021d 00       		.byte	0
ARM GAS  /tmp/cckFEW2X.s 			page 10


 512 021e 0D       		.uleb128 0xd
 513 021f 6F000000 		.4byte	.LASF38
 514 0223 06       		.byte	0x6
 515 0224 3D       		.byte	0x3d
 516 0225 76000000 		.4byte	.LASF40
 517 0229 DC020000 		.4byte	0x2dc
 518 022d 01       		.byte	0x1
 519 022e 36020000 		.4byte	0x236
 520 0232 3C020000 		.4byte	0x23c
 521 0236 0A       		.uleb128 0xa
 522 0237 E9020000 		.4byte	0x2e9
 523 023b 00       		.byte	0
 524 023c 0D       		.uleb128 0xd
 525 023d 46050000 		.4byte	.LASF41
 526 0241 06       		.byte	0x6
 527 0242 3E       		.byte	0x3e
 528 0243 C5050000 		.4byte	.LASF42
 529 0247 DC020000 		.4byte	0x2dc
 530 024b 01       		.byte	0x1
 531 024c 54020000 		.4byte	0x254
 532 0250 5A020000 		.4byte	0x25a
 533 0254 0A       		.uleb128 0xa
 534 0255 E9020000 		.4byte	0x2e9
 535 0259 00       		.byte	0
 536 025a 0D       		.uleb128 0xd
 537 025b 49060000 		.4byte	.LASF43
 538 025f 06       		.byte	0x6
 539 0260 3F       		.byte	0x3f
 540 0261 D5030000 		.4byte	.LASF44
 541 0265 81000000 		.4byte	0x81
 542 0269 01       		.byte	0x1
 543 026a 72020000 		.4byte	0x272
 544 026e 78020000 		.4byte	0x278
 545 0272 0A       		.uleb128 0xa
 546 0273 E9020000 		.4byte	0x2e9
 547 0277 00       		.byte	0
 548 0278 0D       		.uleb128 0xd
 549 0279 41050000 		.4byte	.LASF45
 550 027d 06       		.byte	0x6
 551 027e 41       		.byte	0x41
 552 027f CD020000 		.4byte	.LASF46
 553 0283 E2020000 		.4byte	0x2e2
 554 0287 01       		.byte	0x1
 555 0288 90020000 		.4byte	0x290
 556 028c 96020000 		.4byte	0x296
 557 0290 0A       		.uleb128 0xa
 558 0291 E9020000 		.4byte	0x2e9
 559 0295 00       		.byte	0
 560 0296 0E       		.uleb128 0xe
 561 0297 C2030000 		.4byte	.LASF27
 562 029b 06       		.byte	0x6
 563 029c 53       		.byte	0x53
 564 029d E9020000 		.4byte	0x2e9
 565 02a1 A9020000 		.4byte	0x2a9
 566 02a5 B4020000 		.4byte	0x2b4
 567 02a9 0A       		.uleb128 0xa
 568 02aa E9020000 		.4byte	0x2e9
ARM GAS  /tmp/cckFEW2X.s 			page 11


 569 02ae 0C       		.uleb128 0xc
 570 02af F7020000 		.4byte	0x2f7
 571 02b3 00       		.byte	0
 572 02b4 0F       		.uleb128 0xf
 573 02b5 17030000 		.4byte	.LASF68
 574 02b9 06       		.byte	0x6
 575 02ba 53       		.byte	0x53
 576 02bb 5A060000 		.4byte	.LASF102
 577 02bf C3020000 		.4byte	0x2c3
 578 02c3 0A       		.uleb128 0xa
 579 02c4 E9020000 		.4byte	0x2e9
 580 02c8 0C       		.uleb128 0xc
 581 02c9 F7020000 		.4byte	0x2f7
 582 02cd 00       		.byte	0
 583 02ce 00       		.byte	0
 584 02cf 10       		.uleb128 0x10
 585 02d0 C2000000 		.4byte	0xc2
 586 02d4 11       		.uleb128 0x11
 587 02d5 01       		.byte	0x1
 588 02d6 23       		.byte	0x23
 589 02d7 FD020000 		.4byte	0x2fd
 590 02db 00       		.byte	0
 591 02dc 12       		.uleb128 0x12
 592 02dd 04       		.byte	0x4
 593 02de 8C000000 		.4byte	0x8c
 594 02e2 02       		.uleb128 0x2
 595 02e3 01       		.byte	0x1
 596 02e4 02       		.byte	0x2
 597 02e5 3E010000 		.4byte	.LASF47
 598 02e9 12       		.uleb128 0x12
 599 02ea 04       		.byte	0x4
 600 02eb C2000000 		.4byte	0xc2
 601 02ef 13       		.uleb128 0x13
 602 02f0 04       		.byte	0x4
 603 02f1 12       		.uleb128 0x12
 604 02f2 04       		.byte	0x4
 605 02f3 CF020000 		.4byte	0x2cf
 606 02f7 14       		.uleb128 0x14
 607 02f8 04       		.byte	0x4
 608 02f9 CF020000 		.4byte	0x2cf
 609 02fd 15       		.uleb128 0x15
 610 02fe 73746400 		.ascii	"std\000"
 611 0302 0F       		.byte	0xf
 612 0303 00       		.byte	0
 613 0304 DC030000 		.4byte	0x3dc
 614 0308 05       		.uleb128 0x5
 615 0309 83060000 		.4byte	.LASF49
 616 030d 07       		.byte	0x7
 617 030e 30       		.byte	0x30
 618 030f 16       		.uleb128 0x16
 619 0310 08       		.byte	0x8
 620 0311 76       		.byte	0x76
 621 0312 A7040000 		.4byte	0x4a7
 622 0316 16       		.uleb128 0x16
 623 0317 08       		.byte	0x8
 624 0318 77       		.byte	0x77
 625 0319 D7040000 		.4byte	0x4d7
ARM GAS  /tmp/cckFEW2X.s 			page 12


 626 031d 16       		.uleb128 0x16
 627 031e 08       		.byte	0x8
 628 031f 7B       		.byte	0x7b
 629 0320 0E050000 		.4byte	0x50e
 630 0324 16       		.uleb128 0x16
 631 0325 08       		.byte	0x8
 632 0326 81       		.byte	0x81
 633 0327 23050000 		.4byte	0x523
 634 032b 16       		.uleb128 0x16
 635 032c 08       		.byte	0x8
 636 032d 82       		.byte	0x82
 637 032e 38050000 		.4byte	0x538
 638 0332 16       		.uleb128 0x16
 639 0333 08       		.byte	0x8
 640 0334 83       		.byte	0x83
 641 0335 4D050000 		.4byte	0x54d
 642 0339 16       		.uleb128 0x16
 643 033a 08       		.byte	0x8
 644 033b 84       		.byte	0x84
 645 033c 62050000 		.4byte	0x562
 646 0340 16       		.uleb128 0x16
 647 0341 08       		.byte	0x8
 648 0342 86       		.byte	0x86
 649 0343 8B050000 		.4byte	0x58b
 650 0347 16       		.uleb128 0x16
 651 0348 08       		.byte	0x8
 652 0349 89       		.byte	0x89
 653 034a A5050000 		.4byte	0x5a5
 654 034e 16       		.uleb128 0x16
 655 034f 08       		.byte	0x8
 656 0350 8B       		.byte	0x8b
 657 0351 BA050000 		.4byte	0x5ba
 658 0355 16       		.uleb128 0x16
 659 0356 08       		.byte	0x8
 660 0357 8E       		.byte	0x8e
 661 0358 D4050000 		.4byte	0x5d4
 662 035c 16       		.uleb128 0x16
 663 035d 08       		.byte	0x8
 664 035e 8F       		.byte	0x8f
 665 035f EE050000 		.4byte	0x5ee
 666 0363 16       		.uleb128 0x16
 667 0364 08       		.byte	0x8
 668 0365 90       		.byte	0x90
 669 0366 1A060000 		.4byte	0x61a
 670 036a 16       		.uleb128 0x16
 671 036b 08       		.byte	0x8
 672 036c 92       		.byte	0x92
 673 036d 39060000 		.4byte	0x639
 674 0371 16       		.uleb128 0x16
 675 0372 08       		.byte	0x8
 676 0373 98       		.byte	0x98
 677 0374 59060000 		.4byte	0x659
 678 0378 16       		.uleb128 0x16
 679 0379 08       		.byte	0x8
 680 037a 9A       		.byte	0x9a
 681 037b 64060000 		.4byte	0x664
 682 037f 16       		.uleb128 0x16
ARM GAS  /tmp/cckFEW2X.s 			page 13


 683 0380 08       		.byte	0x8
 684 0381 9B       		.byte	0x9b
 685 0382 75060000 		.4byte	0x675
 686 0386 16       		.uleb128 0x16
 687 0387 08       		.byte	0x8
 688 0388 9C       		.byte	0x9c
 689 0389 95060000 		.4byte	0x695
 690 038d 16       		.uleb128 0x16
 691 038e 08       		.byte	0x8
 692 038f 9D       		.byte	0x9d
 693 0390 B4060000 		.4byte	0x6b4
 694 0394 16       		.uleb128 0x16
 695 0395 08       		.byte	0x8
 696 0396 9E       		.byte	0x9e
 697 0397 D3060000 		.4byte	0x6d3
 698 039b 16       		.uleb128 0x16
 699 039c 08       		.byte	0x8
 700 039d A0       		.byte	0xa0
 701 039e E8060000 		.4byte	0x6e8
 702 03a2 16       		.uleb128 0x16
 703 03a3 08       		.byte	0x8
 704 03a4 A1       		.byte	0xa1
 705 03a5 12070000 		.4byte	0x712
 706 03a9 17       		.uleb128 0x17
 707 03aa 27010000 		.4byte	.LASF103
 708 03ae 01       		.byte	0x1
 709 03af 10       		.byte	0x10
 710 03b0 63       		.byte	0x63
 711 03b1 03       		.uleb128 0x3
 712 03b2 52000000 		.4byte	.LASF13
 713 03b6 09       		.byte	0x9
 714 03b7 BC       		.byte	0xbc
 715 03b8 7A000000 		.4byte	0x7a
 716 03bc 03       		.uleb128 0x3
 717 03bd 79060000 		.4byte	.LASF50
 718 03c1 09       		.byte	0x9
 719 03c2 BD       		.byte	0xbd
 720 03c3 73000000 		.4byte	0x73
 721 03c7 18       		.uleb128 0x18
 722 03c8 A6060000 		.4byte	.LASF104
 723 03cc 10       		.byte	0x10
 724 03cd 65       		.byte	0x65
 725 03ce 1A050000 		.4byte	.LASF105
 726 03d2 D6030000 		.4byte	0x3d6
 727 03d6 10       		.uleb128 0x10
 728 03d7 A9030000 		.4byte	0x3a9
 729 03db 00       		.byte	0
 730 03dc 06       		.uleb128 0x6
 731 03dd 08030000 		.4byte	.LASF51
 732 03e1 0A       		.byte	0xa
 733 03e2 45       		.byte	0x45
 734 03e3 3B040000 		.4byte	0x43b
 735 03e7 05       		.uleb128 0x5
 736 03e8 F1020000 		.4byte	.LASF52
 737 03ec 0B       		.byte	0xb
 738 03ed 24       		.byte	0x24
 739 03ee 16       		.uleb128 0x16
ARM GAS  /tmp/cckFEW2X.s 			page 14


 740 03ef 0C       		.byte	0xc
 741 03f0 2C       		.byte	0x2c
 742 03f1 B1030000 		.4byte	0x3b1
 743 03f5 16       		.uleb128 0x16
 744 03f6 0C       		.byte	0xc
 745 03f7 2D       		.byte	0x2d
 746 03f8 BC030000 		.4byte	0x3bc
 747 03fc 19       		.uleb128 0x19
 748 03fd 21000000 		.4byte	.LASF106
 749 0401 01       		.byte	0x1
 750 0402 0D       		.byte	0xd
 751 0403 37       		.byte	0x37
 752 0404 1A       		.uleb128 0x1a
 753 0405 BF050000 		.4byte	.LASF53
 754 0409 0D       		.byte	0xd
 755 040a 3A       		.byte	0x3a
 756 040b 2C070000 		.4byte	0x72c
 757 040f 1A       		.uleb128 0x1a
 758 0410 41030000 		.4byte	.LASF54
 759 0414 0D       		.byte	0xd
 760 0415 3B       		.byte	0x3b
 761 0416 2C070000 		.4byte	0x72c
 762 041a 1A       		.uleb128 0x1a
 763 041b 73010000 		.4byte	.LASF55
 764 041f 0D       		.byte	0xd
 765 0420 3F       		.byte	0x3f
 766 0421 31070000 		.4byte	0x731
 767 0425 1A       		.uleb128 0x1a
 768 0426 9D060000 		.4byte	.LASF56
 769 042a 0D       		.byte	0xd
 770 042b 40       		.byte	0x40
 771 042c 2C070000 		.4byte	0x72c
 772 0430 1B       		.uleb128 0x1b
 773 0431 61000000 		.4byte	.LASF107
 774 0435 73000000 		.4byte	0x73
 775 0439 00       		.byte	0
 776 043a 00       		.byte	0
 777 043b 02       		.uleb128 0x2
 778 043c 08       		.byte	0x8
 779 043d 04       		.byte	0x4
 780 043e B9020000 		.4byte	.LASF57
 781 0442 02       		.uleb128 0x2
 782 0443 08       		.byte	0x8
 783 0444 04       		.byte	0x4
 784 0445 52050000 		.4byte	.LASF58
 785 0449 02       		.uleb128 0x2
 786 044a 04       		.byte	0x4
 787 044b 04       		.byte	0x4
 788 044c 5B010000 		.4byte	.LASF59
 789 0450 06       		.uleb128 0x6
 790 0451 FC020000 		.4byte	.LASF60
 791 0455 07       		.byte	0x7
 792 0456 37       		.byte	0x37
 793 0457 63040000 		.4byte	0x463
 794 045b 11       		.uleb128 0x11
 795 045c 07       		.byte	0x7
 796 045d 38       		.byte	0x38
ARM GAS  /tmp/cckFEW2X.s 			page 15


 797 045e 08030000 		.4byte	0x308
 798 0462 00       		.byte	0
 799 0463 12       		.uleb128 0x12
 800 0464 04       		.byte	0x4
 801 0465 69040000 		.4byte	0x469
 802 0469 1C       		.uleb128 0x1c
 803 046a 12       		.uleb128 0x12
 804 046b 04       		.byte	0x4
 805 046c 70040000 		.4byte	0x470
 806 0470 02       		.uleb128 0x2
 807 0471 01       		.byte	0x1
 808 0472 08       		.byte	0x8
 809 0473 BD030000 		.4byte	.LASF61
 810 0477 12       		.uleb128 0x12
 811 0478 04       		.byte	0x4
 812 0479 7D040000 		.4byte	0x47d
 813 047d 10       		.uleb128 0x10
 814 047e 70040000 		.4byte	0x470
 815 0482 1D       		.uleb128 0x1d
 816 0483 08       		.byte	0x8
 817 0484 0E       		.byte	0xe
 818 0485 20       		.byte	0x20
 819 0486 27050000 		.4byte	.LASF64
 820 048a A7040000 		.4byte	0x4a7
 821 048e 08       		.uleb128 0x8
 822 048f 08000000 		.4byte	.LASF62
 823 0493 0E       		.byte	0xe
 824 0494 21       		.byte	0x21
 825 0495 73000000 		.4byte	0x73
 826 0499 00       		.byte	0
 827 049a 1E       		.uleb128 0x1e
 828 049b 72656D00 		.ascii	"rem\000"
 829 049f 0E       		.byte	0xe
 830 04a0 22       		.byte	0x22
 831 04a1 73000000 		.4byte	0x73
 832 04a5 04       		.byte	0x4
 833 04a6 00       		.byte	0
 834 04a7 03       		.uleb128 0x3
 835 04a8 AF050000 		.4byte	.LASF63
 836 04ac 0E       		.byte	0xe
 837 04ad 23       		.byte	0x23
 838 04ae 82040000 		.4byte	0x482
 839 04b2 1D       		.uleb128 0x1d
 840 04b3 08       		.byte	0x8
 841 04b4 0E       		.byte	0xe
 842 04b5 26       		.byte	0x26
 843 04b6 00000000 		.4byte	.LASF65
 844 04ba D7040000 		.4byte	0x4d7
 845 04be 08       		.uleb128 0x8
 846 04bf 08000000 		.4byte	.LASF62
 847 04c3 0E       		.byte	0xe
 848 04c4 27       		.byte	0x27
 849 04c5 4C000000 		.4byte	0x4c
 850 04c9 00       		.byte	0
 851 04ca 1E       		.uleb128 0x1e
 852 04cb 72656D00 		.ascii	"rem\000"
 853 04cf 0E       		.byte	0xe
ARM GAS  /tmp/cckFEW2X.s 			page 16


 854 04d0 28       		.byte	0x28
 855 04d1 4C000000 		.4byte	0x4c
 856 04d5 04       		.byte	0x4
 857 04d6 00       		.byte	0
 858 04d7 03       		.uleb128 0x3
 859 04d8 71030000 		.4byte	.LASF66
 860 04dc 0E       		.byte	0xe
 861 04dd 29       		.byte	0x29
 862 04de B2040000 		.4byte	0x4b2
 863 04e2 03       		.uleb128 0x3
 864 04e3 32060000 		.4byte	.LASF67
 865 04e7 0E       		.byte	0xe
 866 04e8 37       		.byte	0x37
 867 04e9 ED040000 		.4byte	0x4ed
 868 04ed 12       		.uleb128 0x12
 869 04ee 04       		.byte	0x4
 870 04ef F3040000 		.4byte	0x4f3
 871 04f3 1F       		.uleb128 0x1f
 872 04f4 73000000 		.4byte	0x73
 873 04f8 07050000 		.4byte	0x507
 874 04fc 0C       		.uleb128 0xc
 875 04fd 07050000 		.4byte	0x507
 876 0501 0C       		.uleb128 0xc
 877 0502 07050000 		.4byte	0x507
 878 0506 00       		.byte	0
 879 0507 12       		.uleb128 0x12
 880 0508 04       		.byte	0x4
 881 0509 0D050000 		.4byte	0x50d
 882 050d 20       		.uleb128 0x20
 883 050e 21       		.uleb128 0x21
 884 050f 68000000 		.4byte	.LASF69
 885 0513 0E       		.byte	0xe
 886 0514 45       		.byte	0x45
 887 0515 73000000 		.4byte	0x73
 888 0519 23050000 		.4byte	0x523
 889 051d 0C       		.uleb128 0xc
 890 051e 63040000 		.4byte	0x463
 891 0522 00       		.byte	0
 892 0523 21       		.uleb128 0x21
 893 0524 F7020000 		.4byte	.LASF70
 894 0528 0E       		.byte	0xe
 895 0529 46       		.byte	0x46
 896 052a 42040000 		.4byte	0x442
 897 052e 38050000 		.4byte	0x538
 898 0532 0C       		.uleb128 0xc
 899 0533 77040000 		.4byte	0x477
 900 0537 00       		.byte	0
 901 0538 21       		.uleb128 0x21
 902 0539 54030000 		.4byte	.LASF71
 903 053d 0E       		.byte	0xe
 904 053e 4A       		.byte	0x4a
 905 053f 73000000 		.4byte	0x73
 906 0543 4D050000 		.4byte	0x54d
 907 0547 0C       		.uleb128 0xc
 908 0548 77040000 		.4byte	0x477
 909 054c 00       		.byte	0
 910 054d 21       		.uleb128 0x21
ARM GAS  /tmp/cckFEW2X.s 			page 17


 911 054e 12030000 		.4byte	.LASF72
 912 0552 0E       		.byte	0xe
 913 0553 4C       		.byte	0x4c
 914 0554 4C000000 		.4byte	0x4c
 915 0558 62050000 		.4byte	0x562
 916 055c 0C       		.uleb128 0xc
 917 055d 77040000 		.4byte	0x477
 918 0561 00       		.byte	0
 919 0562 21       		.uleb128 0x21
 920 0563 59000000 		.4byte	.LASF73
 921 0567 0E       		.byte	0xe
 922 0568 4E       		.byte	0x4e
 923 0569 EF020000 		.4byte	0x2ef
 924 056d 8B050000 		.4byte	0x58b
 925 0571 0C       		.uleb128 0xc
 926 0572 07050000 		.4byte	0x507
 927 0576 0C       		.uleb128 0xc
 928 0577 07050000 		.4byte	0x507
 929 057b 0C       		.uleb128 0xc
 930 057c 97000000 		.4byte	0x97
 931 0580 0C       		.uleb128 0xc
 932 0581 97000000 		.4byte	0x97
 933 0585 0C       		.uleb128 0xc
 934 0586 E2040000 		.4byte	0x4e2
 935 058a 00       		.byte	0
 936 058b 22       		.uleb128 0x22
 937 058c 64697600 		.ascii	"div\000"
 938 0590 0E       		.byte	0xe
 939 0591 54       		.byte	0x54
 940 0592 A7040000 		.4byte	0x4a7
 941 0596 A5050000 		.4byte	0x5a5
 942 059a 0C       		.uleb128 0xc
 943 059b 73000000 		.4byte	0x73
 944 059f 0C       		.uleb128 0xc
 945 05a0 73000000 		.4byte	0x73
 946 05a4 00       		.byte	0
 947 05a5 21       		.uleb128 0x21
 948 05a6 20010000 		.4byte	.LASF74
 949 05aa 0E       		.byte	0xe
 950 05ab 57       		.byte	0x57
 951 05ac 6A040000 		.4byte	0x46a
 952 05b0 BA050000 		.4byte	0x5ba
 953 05b4 0C       		.uleb128 0xc
 954 05b5 77040000 		.4byte	0x477
 955 05b9 00       		.byte	0
 956 05ba 21       		.uleb128 0x21
 957 05bb 78030000 		.4byte	.LASF75
 958 05bf 0E       		.byte	0xe
 959 05c0 60       		.byte	0x60
 960 05c1 D7040000 		.4byte	0x4d7
 961 05c5 D4050000 		.4byte	0x5d4
 962 05c9 0C       		.uleb128 0xc
 963 05ca 4C000000 		.4byte	0x4c
 964 05ce 0C       		.uleb128 0xc
 965 05cf 4C000000 		.4byte	0x4c
 966 05d3 00       		.byte	0
 967 05d4 21       		.uleb128 0x21
ARM GAS  /tmp/cckFEW2X.s 			page 18


 968 05d5 5F030000 		.4byte	.LASF76
 969 05d9 0E       		.byte	0xe
 970 05da 62       		.byte	0x62
 971 05db 73000000 		.4byte	0x73
 972 05df EE050000 		.4byte	0x5ee
 973 05e3 0C       		.uleb128 0xc
 974 05e4 77040000 		.4byte	0x477
 975 05e8 0C       		.uleb128 0xc
 976 05e9 97000000 		.4byte	0x97
 977 05ed 00       		.byte	0
 978 05ee 21       		.uleb128 0x21
 979 05ef 3F000000 		.4byte	.LASF77
 980 05f3 0E       		.byte	0xe
 981 05f4 68       		.byte	0x68
 982 05f5 97000000 		.4byte	0x97
 983 05f9 0D060000 		.4byte	0x60d
 984 05fd 0C       		.uleb128 0xc
 985 05fe 0D060000 		.4byte	0x60d
 986 0602 0C       		.uleb128 0xc
 987 0603 77040000 		.4byte	0x477
 988 0607 0C       		.uleb128 0xc
 989 0608 97000000 		.4byte	0x97
 990 060c 00       		.byte	0
 991 060d 12       		.uleb128 0x12
 992 060e 04       		.byte	0x4
 993 060f 13060000 		.4byte	0x613
 994 0613 02       		.uleb128 0x2
 995 0614 04       		.byte	0x4
 996 0615 07       		.byte	0x7
 997 0616 B5030000 		.4byte	.LASF78
 998 061a 21       		.uleb128 0x21
 999 061b 61010000 		.4byte	.LASF79
 1000 061f 0E       		.byte	0xe
 1001 0620 64       		.byte	0x64
 1002 0621 73000000 		.4byte	0x73
 1003 0625 39060000 		.4byte	0x639
 1004 0629 0C       		.uleb128 0xc
 1005 062a 0D060000 		.4byte	0x60d
 1006 062e 0C       		.uleb128 0xc
 1007 062f 77040000 		.4byte	0x477
 1008 0633 0C       		.uleb128 0xc
 1009 0634 97000000 		.4byte	0x97
 1010 0638 00       		.byte	0
 1011 0639 23       		.uleb128 0x23
 1012 063a 14000000 		.4byte	.LASF80
 1013 063e 0E       		.byte	0xe
 1014 063f 7C       		.byte	0x7c
 1015 0640 59060000 		.4byte	0x659
 1016 0644 0C       		.uleb128 0xc
 1017 0645 EF020000 		.4byte	0x2ef
 1018 0649 0C       		.uleb128 0xc
 1019 064a 97000000 		.4byte	0x97
 1020 064e 0C       		.uleb128 0xc
 1021 064f 97000000 		.4byte	0x97
 1022 0653 0C       		.uleb128 0xc
 1023 0654 E2040000 		.4byte	0x4e2
 1024 0658 00       		.byte	0
ARM GAS  /tmp/cckFEW2X.s 			page 19


 1025 0659 24       		.uleb128 0x24
 1026 065a 31010000 		.4byte	.LASF108
 1027 065e 0E       		.byte	0xe
 1028 065f 7D       		.byte	0x7d
 1029 0660 73000000 		.4byte	0x73
 1030 0664 23       		.uleb128 0x23
 1031 0665 8B060000 		.4byte	.LASF81
 1032 0669 0E       		.byte	0xe
 1033 066a 83       		.byte	0x83
 1034 066b 75060000 		.4byte	0x675
 1035 066f 0C       		.uleb128 0xc
 1036 0670 7A000000 		.4byte	0x7a
 1037 0674 00       		.byte	0
 1038 0675 21       		.uleb128 0x21
 1039 0676 1A000000 		.4byte	.LASF82
 1040 067a 0E       		.byte	0xe
 1041 067b 84       		.byte	0x84
 1042 067c 42040000 		.4byte	0x442
 1043 0680 8F060000 		.4byte	0x68f
 1044 0684 0C       		.uleb128 0xc
 1045 0685 77040000 		.4byte	0x477
 1046 0689 0C       		.uleb128 0xc
 1047 068a 8F060000 		.4byte	0x68f
 1048 068e 00       		.byte	0
 1049 068f 12       		.uleb128 0x12
 1050 0690 04       		.byte	0x4
 1051 0691 6A040000 		.4byte	0x46a
 1052 0695 21       		.uleb128 0x21
 1053 0696 ED010000 		.4byte	.LASF83
 1054 069a 0E       		.byte	0xe
 1055 069b 91       		.byte	0x91
 1056 069c 4C000000 		.4byte	0x4c
 1057 06a0 B4060000 		.4byte	0x6b4
 1058 06a4 0C       		.uleb128 0xc
 1059 06a5 77040000 		.4byte	0x477
 1060 06a9 0C       		.uleb128 0xc
 1061 06aa 8F060000 		.4byte	0x68f
 1062 06ae 0C       		.uleb128 0xc
 1063 06af 73000000 		.4byte	0x73
 1064 06b3 00       		.byte	0
 1065 06b4 21       		.uleb128 0x21
 1066 06b5 C5020000 		.4byte	.LASF84
 1067 06b9 0E       		.byte	0xe
 1068 06ba 93       		.byte	0x93
 1069 06bb 5E000000 		.4byte	0x5e
 1070 06bf D3060000 		.4byte	0x6d3
 1071 06c3 0C       		.uleb128 0xc
 1072 06c4 77040000 		.4byte	0x477
 1073 06c8 0C       		.uleb128 0xc
 1074 06c9 8F060000 		.4byte	0x68f
 1075 06cd 0C       		.uleb128 0xc
 1076 06ce 73000000 		.4byte	0x73
 1077 06d2 00       		.byte	0
 1078 06d3 21       		.uleb128 0x21
 1079 06d4 3A050000 		.4byte	.LASF85
 1080 06d8 0E       		.byte	0xe
 1081 06d9 96       		.byte	0x96
ARM GAS  /tmp/cckFEW2X.s 			page 20


 1082 06da 73000000 		.4byte	0x73
 1083 06de E8060000 		.4byte	0x6e8
 1084 06e2 0C       		.uleb128 0xc
 1085 06e3 77040000 		.4byte	0x477
 1086 06e7 00       		.byte	0
 1087 06e8 21       		.uleb128 0x21
 1088 06e9 B0020000 		.4byte	.LASF86
 1089 06ed 0E       		.byte	0xe
 1090 06ee 6A       		.byte	0x6a
 1091 06ef 97000000 		.4byte	0x97
 1092 06f3 07070000 		.4byte	0x707
 1093 06f7 0C       		.uleb128 0xc
 1094 06f8 6A040000 		.4byte	0x46a
 1095 06fc 0C       		.uleb128 0xc
 1096 06fd 07070000 		.4byte	0x707
 1097 0701 0C       		.uleb128 0xc
 1098 0702 97000000 		.4byte	0x97
 1099 0706 00       		.byte	0
 1100 0707 12       		.uleb128 0x12
 1101 0708 04       		.byte	0x4
 1102 0709 0D070000 		.4byte	0x70d
 1103 070d 10       		.uleb128 0x10
 1104 070e 13060000 		.4byte	0x613
 1105 0712 21       		.uleb128 0x21
 1106 0713 3C020000 		.4byte	.LASF87
 1107 0717 0E       		.byte	0xe
 1108 0718 66       		.byte	0x66
 1109 0719 73000000 		.4byte	0x73
 1110 071d 2C070000 		.4byte	0x72c
 1111 0721 0C       		.uleb128 0xc
 1112 0722 6A040000 		.4byte	0x46a
 1113 0726 0C       		.uleb128 0xc
 1114 0727 13060000 		.4byte	0x613
 1115 072b 00       		.byte	0
 1116 072c 10       		.uleb128 0x10
 1117 072d 73000000 		.4byte	0x73
 1118 0731 10       		.uleb128 0x10
 1119 0732 E2020000 		.4byte	0x2e2
 1120 0736 25       		.uleb128 0x25
 1121 0737 7F010000 		.4byte	0x17f
 1122 073b 01       		.byte	0x1
 1123 073c 25       		.byte	0x25
 1124 073d 00000000 		.4byte	.LFB453
 1125 0741 18000000 		.4byte	.LFE453-.LFB453
 1126 0745 01       		.uleb128 0x1
 1127 0746 9C       		.byte	0x9c
 1128 0747 4F070000 		.4byte	0x74f
 1129 074b 75070000 		.4byte	0x775
 1130 074f 26       		.uleb128 0x26
 1131 0750 03040000 		.4byte	.LASF88
 1132 0754 75070000 		.4byte	0x775
 1133 0758 01       		.uleb128 0x1
 1134 0759 50       		.byte	0x50
 1135 075a 27       		.uleb128 0x27
 1136 075b 6F000000 		.4byte	.LASF38
 1137 075f 01       		.byte	0x1
 1138 0760 25       		.byte	0x25
ARM GAS  /tmp/cckFEW2X.s 			page 21


 1139 0761 DC020000 		.4byte	0x2dc
 1140 0765 01       		.uleb128 0x1
 1141 0766 51       		.byte	0x51
 1142 0767 27       		.uleb128 0x27
 1143 0768 46050000 		.4byte	.LASF41
 1144 076c 01       		.byte	0x1
 1145 076d 25       		.byte	0x25
 1146 076e DC020000 		.4byte	0x2dc
 1147 0772 01       		.uleb128 0x1
 1148 0773 52       		.byte	0x52
 1149 0774 00       		.byte	0
 1150 0775 10       		.uleb128 0x10
 1151 0776 E9020000 		.4byte	0x2e9
 1152 077a 25       		.uleb128 0x25
 1153 077b 04020000 		.4byte	0x204
 1154 077f 01       		.byte	0x1
 1155 0780 2D       		.byte	0x2d
 1156 0781 20000000 		.4byte	.LFB454
 1157 0785 A6000000 		.4byte	.LFE454-.LFB454
 1158 0789 01       		.uleb128 0x1
 1159 078a 9C       		.byte	0x9c
 1160 078b 93070000 		.4byte	0x793
 1161 078f 49080000 		.4byte	0x849
 1162 0793 26       		.uleb128 0x26
 1163 0794 03040000 		.4byte	.LASF88
 1164 0798 75070000 		.4byte	0x775
 1165 079c 01       		.uleb128 0x1
 1166 079d 50       		.byte	0x50
 1167 079e 28       		.uleb128 0x28
 1168 079f 24000000 		.4byte	.LBB2
 1169 07a3 A2000000 		.4byte	.LBE2-.LBB2
 1170 07a7 29       		.uleb128 0x29
 1171 07a8 16010000 		.4byte	.LASF89
 1172 07ac 01       		.byte	0x1
 1173 07ad 31       		.byte	0x31
 1174 07ae 8C000000 		.4byte	0x8c
 1175 07b2 00000000 		.4byte	.LLST0
 1176 07b6 29       		.uleb128 0x29
 1177 07b7 43020000 		.4byte	.LASF90
 1178 07bb 01       		.byte	0x1
 1179 07bc 32       		.byte	0x32
 1180 07bd 8C000000 		.4byte	0x8c
 1181 07c1 41000000 		.4byte	.LLST1
 1182 07c5 29       		.uleb128 0x29
 1183 07c6 65030000 		.4byte	.LASF91
 1184 07ca 01       		.byte	0x1
 1185 07cb 33       		.byte	0x33
 1186 07cc 8C000000 		.4byte	0x8c
 1187 07d0 72000000 		.4byte	.LLST2
 1188 07d4 29       		.uleb128 0x29
 1189 07d5 6F000000 		.4byte	.LASF38
 1190 07d9 01       		.byte	0x1
 1191 07da 34       		.byte	0x34
 1192 07db DC020000 		.4byte	0x2dc
 1193 07df 85000000 		.4byte	.LLST3
 1194 07e3 29       		.uleb128 0x29
 1195 07e4 46050000 		.4byte	.LASF41
ARM GAS  /tmp/cckFEW2X.s 			page 22


 1196 07e8 01       		.byte	0x1
 1197 07e9 35       		.byte	0x35
 1198 07ea DC020000 		.4byte	0x2dc
 1199 07ee A4000000 		.4byte	.LLST4
 1200 07f2 29       		.uleb128 0x29
 1201 07f3 59030000 		.4byte	.LASF92
 1202 07f7 01       		.byte	0x1
 1203 07f8 37       		.byte	0x37
 1204 07f9 8C000000 		.4byte	0x8c
 1205 07fd CC000000 		.4byte	.LLST5
 1206 0801 2A       		.uleb128 0x2a
 1207 0802 00000000 		.4byte	.Ldebug_ranges0+0
 1208 0806 2B       		.uleb128 0x2b
 1209 0807 6900     		.ascii	"i\000"
 1210 0809 01       		.byte	0x1
 1211 080a 38       		.byte	0x38
 1212 080b 8C000000 		.4byte	0x8c
 1213 080f EB000000 		.4byte	.LLST6
 1214 0813 2A       		.uleb128 0x2a
 1215 0814 18000000 		.4byte	.Ldebug_ranges0+0x18
 1216 0818 29       		.uleb128 0x29
 1217 0819 2E050000 		.4byte	.LASF93
 1218 081d 01       		.byte	0x1
 1219 081e 39       		.byte	0x39
 1220 081f 8C000000 		.4byte	0x8c
 1221 0823 FF000000 		.4byte	.LLST7
 1222 0827 29       		.uleb128 0x29
 1223 0828 FA000000 		.4byte	.LASF94
 1224 082c 01       		.byte	0x1
 1225 082d 3A       		.byte	0x3a
 1226 082e 8C000000 		.4byte	0x8c
 1227 0832 1E010000 		.4byte	.LLST8
 1228 0836 29       		.uleb128 0x29
 1229 0837 A9050000 		.4byte	.LASF95
 1230 083b 01       		.byte	0x1
 1231 083c 3D       		.byte	0x3d
 1232 083d 8C000000 		.4byte	0x8c
 1233 0841 57010000 		.4byte	.LLST9
 1234 0845 00       		.byte	0
 1235 0846 00       		.byte	0
 1236 0847 00       		.byte	0
 1237 0848 00       		.byte	0
 1238 0849 25       		.uleb128 0x25
 1239 084a A3010000 		.4byte	0x1a3
 1240 084e 01       		.byte	0x1
 1241 084f 4B       		.byte	0x4b
 1242 0850 D0000000 		.4byte	.LFB455
 1243 0854 1A000000 		.4byte	.LFE455-.LFB455
 1244 0858 01       		.uleb128 0x1
 1245 0859 9C       		.byte	0x9c
 1246 085a 62080000 		.4byte	0x862
 1247 085e 95080000 		.4byte	0x895
 1248 0862 26       		.uleb128 0x26
 1249 0863 03040000 		.4byte	.LASF88
 1250 0867 75070000 		.4byte	0x775
 1251 086b 01       		.uleb128 0x1
 1252 086c 50       		.byte	0x50
ARM GAS  /tmp/cckFEW2X.s 			page 23


 1253 086d 27       		.uleb128 0x27
 1254 086e A4050000 		.4byte	.LASF96
 1255 0872 01       		.byte	0x1
 1256 0873 4C       		.byte	0x4c
 1257 0874 81000000 		.4byte	0x81
 1258 0878 01       		.uleb128 0x1
 1259 0879 51       		.byte	0x51
 1260 087a 27       		.uleb128 0x27
 1261 087b D4010000 		.4byte	.LASF97
 1262 087f 01       		.byte	0x1
 1263 0880 4D       		.byte	0x4d
 1264 0881 81000000 		.4byte	0x81
 1265 0885 01       		.uleb128 0x1
 1266 0886 52       		.byte	0x52
 1267 0887 27       		.uleb128 0x27
 1268 0888 80020000 		.4byte	.LASF98
 1269 088c 01       		.byte	0x1
 1270 088d 4E       		.byte	0x4e
 1271 088e 81000000 		.4byte	0x81
 1272 0892 01       		.uleb128 0x1
 1273 0893 53       		.byte	0x53
 1274 0894 00       		.byte	0
 1275 0895 2C       		.uleb128 0x2c
 1276 0896 0F040000 		.4byte	0x40f
 1277 089a 92010000 		.4byte	.LASF109
 1278 089e FFFFFF7F 		.4byte	0x7fffffff
 1279 08a2 00       		.byte	0
 1280              		.section	.debug_abbrev,"",%progbits
 1281              	.Ldebug_abbrev0:
 1282 0000 01       		.uleb128 0x1
 1283 0001 11       		.uleb128 0x11
 1284 0002 01       		.byte	0x1
 1285 0003 25       		.uleb128 0x25
 1286 0004 0E       		.uleb128 0xe
 1287 0005 13       		.uleb128 0x13
 1288 0006 0B       		.uleb128 0xb
 1289 0007 03       		.uleb128 0x3
 1290 0008 0E       		.uleb128 0xe
 1291 0009 1B       		.uleb128 0x1b
 1292 000a 0E       		.uleb128 0xe
 1293 000b 11       		.uleb128 0x11
 1294 000c 01       		.uleb128 0x1
 1295 000d 12       		.uleb128 0x12
 1296 000e 06       		.uleb128 0x6
 1297 000f 10       		.uleb128 0x10
 1298 0010 17       		.uleb128 0x17
 1299 0011 00       		.byte	0
 1300 0012 00       		.byte	0
 1301 0013 02       		.uleb128 0x2
 1302 0014 24       		.uleb128 0x24
 1303 0015 00       		.byte	0
 1304 0016 0B       		.uleb128 0xb
 1305 0017 0B       		.uleb128 0xb
 1306 0018 3E       		.uleb128 0x3e
 1307 0019 0B       		.uleb128 0xb
 1308 001a 03       		.uleb128 0x3
 1309 001b 0E       		.uleb128 0xe
ARM GAS  /tmp/cckFEW2X.s 			page 24


 1310 001c 00       		.byte	0
 1311 001d 00       		.byte	0
 1312 001e 03       		.uleb128 0x3
 1313 001f 16       		.uleb128 0x16
 1314 0020 00       		.byte	0
 1315 0021 03       		.uleb128 0x3
 1316 0022 0E       		.uleb128 0xe
 1317 0023 3A       		.uleb128 0x3a
 1318 0024 0B       		.uleb128 0xb
 1319 0025 3B       		.uleb128 0x3b
 1320 0026 0B       		.uleb128 0xb
 1321 0027 49       		.uleb128 0x49
 1322 0028 13       		.uleb128 0x13
 1323 0029 00       		.byte	0
 1324 002a 00       		.byte	0
 1325 002b 04       		.uleb128 0x4
 1326 002c 24       		.uleb128 0x24
 1327 002d 00       		.byte	0
 1328 002e 0B       		.uleb128 0xb
 1329 002f 0B       		.uleb128 0xb
 1330 0030 3E       		.uleb128 0x3e
 1331 0031 0B       		.uleb128 0xb
 1332 0032 03       		.uleb128 0x3
 1333 0033 08       		.uleb128 0x8
 1334 0034 00       		.byte	0
 1335 0035 00       		.byte	0
 1336 0036 05       		.uleb128 0x5
 1337 0037 39       		.uleb128 0x39
 1338 0038 00       		.byte	0
 1339 0039 03       		.uleb128 0x3
 1340 003a 0E       		.uleb128 0xe
 1341 003b 3A       		.uleb128 0x3a
 1342 003c 0B       		.uleb128 0xb
 1343 003d 3B       		.uleb128 0x3b
 1344 003e 0B       		.uleb128 0xb
 1345 003f 00       		.byte	0
 1346 0040 00       		.byte	0
 1347 0041 06       		.uleb128 0x6
 1348 0042 39       		.uleb128 0x39
 1349 0043 01       		.byte	0x1
 1350 0044 03       		.uleb128 0x3
 1351 0045 0E       		.uleb128 0xe
 1352 0046 3A       		.uleb128 0x3a
 1353 0047 0B       		.uleb128 0xb
 1354 0048 3B       		.uleb128 0x3b
 1355 0049 0B       		.uleb128 0xb
 1356 004a 01       		.uleb128 0x1
 1357 004b 13       		.uleb128 0x13
 1358 004c 00       		.byte	0
 1359 004d 00       		.byte	0
 1360 004e 07       		.uleb128 0x7
 1361 004f 02       		.uleb128 0x2
 1362 0050 01       		.byte	0x1
 1363 0051 03       		.uleb128 0x3
 1364 0052 0E       		.uleb128 0xe
 1365 0053 0B       		.uleb128 0xb
 1366 0054 0B       		.uleb128 0xb
ARM GAS  /tmp/cckFEW2X.s 			page 25


 1367 0055 3A       		.uleb128 0x3a
 1368 0056 0B       		.uleb128 0xb
 1369 0057 3B       		.uleb128 0x3b
 1370 0058 0B       		.uleb128 0xb
 1371 0059 01       		.uleb128 0x1
 1372 005a 13       		.uleb128 0x13
 1373 005b 00       		.byte	0
 1374 005c 00       		.byte	0
 1375 005d 08       		.uleb128 0x8
 1376 005e 0D       		.uleb128 0xd
 1377 005f 00       		.byte	0
 1378 0060 03       		.uleb128 0x3
 1379 0061 0E       		.uleb128 0xe
 1380 0062 3A       		.uleb128 0x3a
 1381 0063 0B       		.uleb128 0xb
 1382 0064 3B       		.uleb128 0x3b
 1383 0065 0B       		.uleb128 0xb
 1384 0066 49       		.uleb128 0x49
 1385 0067 13       		.uleb128 0x13
 1386 0068 38       		.uleb128 0x38
 1387 0069 0B       		.uleb128 0xb
 1388 006a 00       		.byte	0
 1389 006b 00       		.byte	0
 1390 006c 09       		.uleb128 0x9
 1391 006d 2E       		.uleb128 0x2e
 1392 006e 01       		.byte	0x1
 1393 006f 3F       		.uleb128 0x3f
 1394 0070 19       		.uleb128 0x19
 1395 0071 03       		.uleb128 0x3
 1396 0072 0E       		.uleb128 0xe
 1397 0073 3A       		.uleb128 0x3a
 1398 0074 0B       		.uleb128 0xb
 1399 0075 3B       		.uleb128 0x3b
 1400 0076 0B       		.uleb128 0xb
 1401 0077 49       		.uleb128 0x49
 1402 0078 13       		.uleb128 0x13
 1403 0079 32       		.uleb128 0x32
 1404 007a 0B       		.uleb128 0xb
 1405 007b 3C       		.uleb128 0x3c
 1406 007c 19       		.uleb128 0x19
 1407 007d 64       		.uleb128 0x64
 1408 007e 13       		.uleb128 0x13
 1409 007f 01       		.uleb128 0x1
 1410 0080 13       		.uleb128 0x13
 1411 0081 00       		.byte	0
 1412 0082 00       		.byte	0
 1413 0083 0A       		.uleb128 0xa
 1414 0084 05       		.uleb128 0x5
 1415 0085 00       		.byte	0
 1416 0086 49       		.uleb128 0x49
 1417 0087 13       		.uleb128 0x13
 1418 0088 34       		.uleb128 0x34
 1419 0089 19       		.uleb128 0x19
 1420 008a 00       		.byte	0
 1421 008b 00       		.byte	0
 1422 008c 0B       		.uleb128 0xb
 1423 008d 2E       		.uleb128 0x2e
ARM GAS  /tmp/cckFEW2X.s 			page 26


 1424 008e 01       		.byte	0x1
 1425 008f 3F       		.uleb128 0x3f
 1426 0090 19       		.uleb128 0x19
 1427 0091 03       		.uleb128 0x3
 1428 0092 0E       		.uleb128 0xe
 1429 0093 3A       		.uleb128 0x3a
 1430 0094 0B       		.uleb128 0xb
 1431 0095 3B       		.uleb128 0x3b
 1432 0096 0B       		.uleb128 0xb
 1433 0097 6E       		.uleb128 0x6e
 1434 0098 0E       		.uleb128 0xe
 1435 0099 32       		.uleb128 0x32
 1436 009a 0B       		.uleb128 0xb
 1437 009b 3C       		.uleb128 0x3c
 1438 009c 19       		.uleb128 0x19
 1439 009d 64       		.uleb128 0x64
 1440 009e 13       		.uleb128 0x13
 1441 009f 01       		.uleb128 0x1
 1442 00a0 13       		.uleb128 0x13
 1443 00a1 00       		.byte	0
 1444 00a2 00       		.byte	0
 1445 00a3 0C       		.uleb128 0xc
 1446 00a4 05       		.uleb128 0x5
 1447 00a5 00       		.byte	0
 1448 00a6 49       		.uleb128 0x49
 1449 00a7 13       		.uleb128 0x13
 1450 00a8 00       		.byte	0
 1451 00a9 00       		.byte	0
 1452 00aa 0D       		.uleb128 0xd
 1453 00ab 2E       		.uleb128 0x2e
 1454 00ac 01       		.byte	0x1
 1455 00ad 3F       		.uleb128 0x3f
 1456 00ae 19       		.uleb128 0x19
 1457 00af 03       		.uleb128 0x3
 1458 00b0 0E       		.uleb128 0xe
 1459 00b1 3A       		.uleb128 0x3a
 1460 00b2 0B       		.uleb128 0xb
 1461 00b3 3B       		.uleb128 0x3b
 1462 00b4 0B       		.uleb128 0xb
 1463 00b5 6E       		.uleb128 0x6e
 1464 00b6 0E       		.uleb128 0xe
 1465 00b7 49       		.uleb128 0x49
 1466 00b8 13       		.uleb128 0x13
 1467 00b9 32       		.uleb128 0x32
 1468 00ba 0B       		.uleb128 0xb
 1469 00bb 3C       		.uleb128 0x3c
 1470 00bc 19       		.uleb128 0x19
 1471 00bd 64       		.uleb128 0x64
 1472 00be 13       		.uleb128 0x13
 1473 00bf 01       		.uleb128 0x1
 1474 00c0 13       		.uleb128 0x13
 1475 00c1 00       		.byte	0
 1476 00c2 00       		.byte	0
 1477 00c3 0E       		.uleb128 0xe
 1478 00c4 2E       		.uleb128 0x2e
 1479 00c5 01       		.byte	0x1
 1480 00c6 3F       		.uleb128 0x3f
ARM GAS  /tmp/cckFEW2X.s 			page 27


 1481 00c7 19       		.uleb128 0x19
 1482 00c8 03       		.uleb128 0x3
 1483 00c9 0E       		.uleb128 0xe
 1484 00ca 3A       		.uleb128 0x3a
 1485 00cb 0B       		.uleb128 0xb
 1486 00cc 3B       		.uleb128 0x3b
 1487 00cd 0B       		.uleb128 0xb
 1488 00ce 49       		.uleb128 0x49
 1489 00cf 13       		.uleb128 0x13
 1490 00d0 3C       		.uleb128 0x3c
 1491 00d1 19       		.uleb128 0x19
 1492 00d2 64       		.uleb128 0x64
 1493 00d3 13       		.uleb128 0x13
 1494 00d4 01       		.uleb128 0x1
 1495 00d5 13       		.uleb128 0x13
 1496 00d6 00       		.byte	0
 1497 00d7 00       		.byte	0
 1498 00d8 0F       		.uleb128 0xf
 1499 00d9 2E       		.uleb128 0x2e
 1500 00da 01       		.byte	0x1
 1501 00db 3F       		.uleb128 0x3f
 1502 00dc 19       		.uleb128 0x19
 1503 00dd 03       		.uleb128 0x3
 1504 00de 0E       		.uleb128 0xe
 1505 00df 3A       		.uleb128 0x3a
 1506 00e0 0B       		.uleb128 0xb
 1507 00e1 3B       		.uleb128 0x3b
 1508 00e2 0B       		.uleb128 0xb
 1509 00e3 6E       		.uleb128 0x6e
 1510 00e4 0E       		.uleb128 0xe
 1511 00e5 3C       		.uleb128 0x3c
 1512 00e6 19       		.uleb128 0x19
 1513 00e7 64       		.uleb128 0x64
 1514 00e8 13       		.uleb128 0x13
 1515 00e9 00       		.byte	0
 1516 00ea 00       		.byte	0
 1517 00eb 10       		.uleb128 0x10
 1518 00ec 26       		.uleb128 0x26
 1519 00ed 00       		.byte	0
 1520 00ee 49       		.uleb128 0x49
 1521 00ef 13       		.uleb128 0x13
 1522 00f0 00       		.byte	0
 1523 00f1 00       		.byte	0
 1524 00f2 11       		.uleb128 0x11
 1525 00f3 3A       		.uleb128 0x3a
 1526 00f4 00       		.byte	0
 1527 00f5 3A       		.uleb128 0x3a
 1528 00f6 0B       		.uleb128 0xb
 1529 00f7 3B       		.uleb128 0x3b
 1530 00f8 0B       		.uleb128 0xb
 1531 00f9 18       		.uleb128 0x18
 1532 00fa 13       		.uleb128 0x13
 1533 00fb 00       		.byte	0
 1534 00fc 00       		.byte	0
 1535 00fd 12       		.uleb128 0x12
 1536 00fe 0F       		.uleb128 0xf
 1537 00ff 00       		.byte	0
ARM GAS  /tmp/cckFEW2X.s 			page 28


 1538 0100 0B       		.uleb128 0xb
 1539 0101 0B       		.uleb128 0xb
 1540 0102 49       		.uleb128 0x49
 1541 0103 13       		.uleb128 0x13
 1542 0104 00       		.byte	0
 1543 0105 00       		.byte	0
 1544 0106 13       		.uleb128 0x13
 1545 0107 0F       		.uleb128 0xf
 1546 0108 00       		.byte	0
 1547 0109 0B       		.uleb128 0xb
 1548 010a 0B       		.uleb128 0xb
 1549 010b 00       		.byte	0
 1550 010c 00       		.byte	0
 1551 010d 14       		.uleb128 0x14
 1552 010e 10       		.uleb128 0x10
 1553 010f 00       		.byte	0
 1554 0110 0B       		.uleb128 0xb
 1555 0111 0B       		.uleb128 0xb
 1556 0112 49       		.uleb128 0x49
 1557 0113 13       		.uleb128 0x13
 1558 0114 00       		.byte	0
 1559 0115 00       		.byte	0
 1560 0116 15       		.uleb128 0x15
 1561 0117 39       		.uleb128 0x39
 1562 0118 01       		.byte	0x1
 1563 0119 03       		.uleb128 0x3
 1564 011a 08       		.uleb128 0x8
 1565 011b 3A       		.uleb128 0x3a
 1566 011c 0B       		.uleb128 0xb
 1567 011d 3B       		.uleb128 0x3b
 1568 011e 0B       		.uleb128 0xb
 1569 011f 01       		.uleb128 0x1
 1570 0120 13       		.uleb128 0x13
 1571 0121 00       		.byte	0
 1572 0122 00       		.byte	0
 1573 0123 16       		.uleb128 0x16
 1574 0124 08       		.uleb128 0x8
 1575 0125 00       		.byte	0
 1576 0126 3A       		.uleb128 0x3a
 1577 0127 0B       		.uleb128 0xb
 1578 0128 3B       		.uleb128 0x3b
 1579 0129 0B       		.uleb128 0xb
 1580 012a 18       		.uleb128 0x18
 1581 012b 13       		.uleb128 0x13
 1582 012c 00       		.byte	0
 1583 012d 00       		.byte	0
 1584 012e 17       		.uleb128 0x17
 1585 012f 13       		.uleb128 0x13
 1586 0130 00       		.byte	0
 1587 0131 03       		.uleb128 0x3
 1588 0132 0E       		.uleb128 0xe
 1589 0133 0B       		.uleb128 0xb
 1590 0134 0B       		.uleb128 0xb
 1591 0135 3A       		.uleb128 0x3a
 1592 0136 0B       		.uleb128 0xb
 1593 0137 3B       		.uleb128 0x3b
 1594 0138 0B       		.uleb128 0xb
ARM GAS  /tmp/cckFEW2X.s 			page 29


 1595 0139 00       		.byte	0
 1596 013a 00       		.byte	0
 1597 013b 18       		.uleb128 0x18
 1598 013c 34       		.uleb128 0x34
 1599 013d 00       		.byte	0
 1600 013e 03       		.uleb128 0x3
 1601 013f 0E       		.uleb128 0xe
 1602 0140 3A       		.uleb128 0x3a
 1603 0141 0B       		.uleb128 0xb
 1604 0142 3B       		.uleb128 0x3b
 1605 0143 0B       		.uleb128 0xb
 1606 0144 6E       		.uleb128 0x6e
 1607 0145 0E       		.uleb128 0xe
 1608 0146 49       		.uleb128 0x49
 1609 0147 13       		.uleb128 0x13
 1610 0148 3F       		.uleb128 0x3f
 1611 0149 19       		.uleb128 0x19
 1612 014a 3C       		.uleb128 0x3c
 1613 014b 19       		.uleb128 0x19
 1614 014c 00       		.byte	0
 1615 014d 00       		.byte	0
 1616 014e 19       		.uleb128 0x19
 1617 014f 13       		.uleb128 0x13
 1618 0150 01       		.byte	0x1
 1619 0151 03       		.uleb128 0x3
 1620 0152 0E       		.uleb128 0xe
 1621 0153 0B       		.uleb128 0xb
 1622 0154 0B       		.uleb128 0xb
 1623 0155 3A       		.uleb128 0x3a
 1624 0156 0B       		.uleb128 0xb
 1625 0157 3B       		.uleb128 0x3b
 1626 0158 0B       		.uleb128 0xb
 1627 0159 00       		.byte	0
 1628 015a 00       		.byte	0
 1629 015b 1A       		.uleb128 0x1a
 1630 015c 0D       		.uleb128 0xd
 1631 015d 00       		.byte	0
 1632 015e 03       		.uleb128 0x3
 1633 015f 0E       		.uleb128 0xe
 1634 0160 3A       		.uleb128 0x3a
 1635 0161 0B       		.uleb128 0xb
 1636 0162 3B       		.uleb128 0x3b
 1637 0163 0B       		.uleb128 0xb
 1638 0164 49       		.uleb128 0x49
 1639 0165 13       		.uleb128 0x13
 1640 0166 3F       		.uleb128 0x3f
 1641 0167 19       		.uleb128 0x19
 1642 0168 3C       		.uleb128 0x3c
 1643 0169 19       		.uleb128 0x19
 1644 016a 00       		.byte	0
 1645 016b 00       		.byte	0
 1646 016c 1B       		.uleb128 0x1b
 1647 016d 2F       		.uleb128 0x2f
 1648 016e 00       		.byte	0
 1649 016f 03       		.uleb128 0x3
 1650 0170 0E       		.uleb128 0xe
 1651 0171 49       		.uleb128 0x49
ARM GAS  /tmp/cckFEW2X.s 			page 30


 1652 0172 13       		.uleb128 0x13
 1653 0173 00       		.byte	0
 1654 0174 00       		.byte	0
 1655 0175 1C       		.uleb128 0x1c
 1656 0176 15       		.uleb128 0x15
 1657 0177 00       		.byte	0
 1658 0178 00       		.byte	0
 1659 0179 00       		.byte	0
 1660 017a 1D       		.uleb128 0x1d
 1661 017b 13       		.uleb128 0x13
 1662 017c 01       		.byte	0x1
 1663 017d 0B       		.uleb128 0xb
 1664 017e 0B       		.uleb128 0xb
 1665 017f 3A       		.uleb128 0x3a
 1666 0180 0B       		.uleb128 0xb
 1667 0181 3B       		.uleb128 0x3b
 1668 0182 0B       		.uleb128 0xb
 1669 0183 6E       		.uleb128 0x6e
 1670 0184 0E       		.uleb128 0xe
 1671 0185 01       		.uleb128 0x1
 1672 0186 13       		.uleb128 0x13
 1673 0187 00       		.byte	0
 1674 0188 00       		.byte	0
 1675 0189 1E       		.uleb128 0x1e
 1676 018a 0D       		.uleb128 0xd
 1677 018b 00       		.byte	0
 1678 018c 03       		.uleb128 0x3
 1679 018d 08       		.uleb128 0x8
 1680 018e 3A       		.uleb128 0x3a
 1681 018f 0B       		.uleb128 0xb
 1682 0190 3B       		.uleb128 0x3b
 1683 0191 0B       		.uleb128 0xb
 1684 0192 49       		.uleb128 0x49
 1685 0193 13       		.uleb128 0x13
 1686 0194 38       		.uleb128 0x38
 1687 0195 0B       		.uleb128 0xb
 1688 0196 00       		.byte	0
 1689 0197 00       		.byte	0
 1690 0198 1F       		.uleb128 0x1f
 1691 0199 15       		.uleb128 0x15
 1692 019a 01       		.byte	0x1
 1693 019b 49       		.uleb128 0x49
 1694 019c 13       		.uleb128 0x13
 1695 019d 01       		.uleb128 0x1
 1696 019e 13       		.uleb128 0x13
 1697 019f 00       		.byte	0
 1698 01a0 00       		.byte	0
 1699 01a1 20       		.uleb128 0x20
 1700 01a2 26       		.uleb128 0x26
 1701 01a3 00       		.byte	0
 1702 01a4 00       		.byte	0
 1703 01a5 00       		.byte	0
 1704 01a6 21       		.uleb128 0x21
 1705 01a7 2E       		.uleb128 0x2e
 1706 01a8 01       		.byte	0x1
 1707 01a9 3F       		.uleb128 0x3f
 1708 01aa 19       		.uleb128 0x19
ARM GAS  /tmp/cckFEW2X.s 			page 31


 1709 01ab 03       		.uleb128 0x3
 1710 01ac 0E       		.uleb128 0xe
 1711 01ad 3A       		.uleb128 0x3a
 1712 01ae 0B       		.uleb128 0xb
 1713 01af 3B       		.uleb128 0x3b
 1714 01b0 0B       		.uleb128 0xb
 1715 01b1 49       		.uleb128 0x49
 1716 01b2 13       		.uleb128 0x13
 1717 01b3 3C       		.uleb128 0x3c
 1718 01b4 19       		.uleb128 0x19
 1719 01b5 01       		.uleb128 0x1
 1720 01b6 13       		.uleb128 0x13
 1721 01b7 00       		.byte	0
 1722 01b8 00       		.byte	0
 1723 01b9 22       		.uleb128 0x22
 1724 01ba 2E       		.uleb128 0x2e
 1725 01bb 01       		.byte	0x1
 1726 01bc 3F       		.uleb128 0x3f
 1727 01bd 19       		.uleb128 0x19
 1728 01be 03       		.uleb128 0x3
 1729 01bf 08       		.uleb128 0x8
 1730 01c0 3A       		.uleb128 0x3a
 1731 01c1 0B       		.uleb128 0xb
 1732 01c2 3B       		.uleb128 0x3b
 1733 01c3 0B       		.uleb128 0xb
 1734 01c4 49       		.uleb128 0x49
 1735 01c5 13       		.uleb128 0x13
 1736 01c6 3C       		.uleb128 0x3c
 1737 01c7 19       		.uleb128 0x19
 1738 01c8 01       		.uleb128 0x1
 1739 01c9 13       		.uleb128 0x13
 1740 01ca 00       		.byte	0
 1741 01cb 00       		.byte	0
 1742 01cc 23       		.uleb128 0x23
 1743 01cd 2E       		.uleb128 0x2e
 1744 01ce 01       		.byte	0x1
 1745 01cf 3F       		.uleb128 0x3f
 1746 01d0 19       		.uleb128 0x19
 1747 01d1 03       		.uleb128 0x3
 1748 01d2 0E       		.uleb128 0xe
 1749 01d3 3A       		.uleb128 0x3a
 1750 01d4 0B       		.uleb128 0xb
 1751 01d5 3B       		.uleb128 0x3b
 1752 01d6 0B       		.uleb128 0xb
 1753 01d7 3C       		.uleb128 0x3c
 1754 01d8 19       		.uleb128 0x19
 1755 01d9 01       		.uleb128 0x1
 1756 01da 13       		.uleb128 0x13
 1757 01db 00       		.byte	0
 1758 01dc 00       		.byte	0
 1759 01dd 24       		.uleb128 0x24
 1760 01de 2E       		.uleb128 0x2e
 1761 01df 00       		.byte	0
 1762 01e0 3F       		.uleb128 0x3f
 1763 01e1 19       		.uleb128 0x19
 1764 01e2 03       		.uleb128 0x3
 1765 01e3 0E       		.uleb128 0xe
ARM GAS  /tmp/cckFEW2X.s 			page 32


 1766 01e4 3A       		.uleb128 0x3a
 1767 01e5 0B       		.uleb128 0xb
 1768 01e6 3B       		.uleb128 0x3b
 1769 01e7 0B       		.uleb128 0xb
 1770 01e8 49       		.uleb128 0x49
 1771 01e9 13       		.uleb128 0x13
 1772 01ea 3C       		.uleb128 0x3c
 1773 01eb 19       		.uleb128 0x19
 1774 01ec 00       		.byte	0
 1775 01ed 00       		.byte	0
 1776 01ee 25       		.uleb128 0x25
 1777 01ef 2E       		.uleb128 0x2e
 1778 01f0 01       		.byte	0x1
 1779 01f1 47       		.uleb128 0x47
 1780 01f2 13       		.uleb128 0x13
 1781 01f3 3A       		.uleb128 0x3a
 1782 01f4 0B       		.uleb128 0xb
 1783 01f5 3B       		.uleb128 0x3b
 1784 01f6 0B       		.uleb128 0xb
 1785 01f7 11       		.uleb128 0x11
 1786 01f8 01       		.uleb128 0x1
 1787 01f9 12       		.uleb128 0x12
 1788 01fa 06       		.uleb128 0x6
 1789 01fb 40       		.uleb128 0x40
 1790 01fc 18       		.uleb128 0x18
 1791 01fd 64       		.uleb128 0x64
 1792 01fe 13       		.uleb128 0x13
 1793 01ff 9742     		.uleb128 0x2117
 1794 0201 19       		.uleb128 0x19
 1795 0202 01       		.uleb128 0x1
 1796 0203 13       		.uleb128 0x13
 1797 0204 00       		.byte	0
 1798 0205 00       		.byte	0
 1799 0206 26       		.uleb128 0x26
 1800 0207 05       		.uleb128 0x5
 1801 0208 00       		.byte	0
 1802 0209 03       		.uleb128 0x3
 1803 020a 0E       		.uleb128 0xe
 1804 020b 49       		.uleb128 0x49
 1805 020c 13       		.uleb128 0x13
 1806 020d 34       		.uleb128 0x34
 1807 020e 19       		.uleb128 0x19
 1808 020f 02       		.uleb128 0x2
 1809 0210 18       		.uleb128 0x18
 1810 0211 00       		.byte	0
 1811 0212 00       		.byte	0
 1812 0213 27       		.uleb128 0x27
 1813 0214 05       		.uleb128 0x5
 1814 0215 00       		.byte	0
 1815 0216 03       		.uleb128 0x3
 1816 0217 0E       		.uleb128 0xe
 1817 0218 3A       		.uleb128 0x3a
 1818 0219 0B       		.uleb128 0xb
 1819 021a 3B       		.uleb128 0x3b
 1820 021b 0B       		.uleb128 0xb
 1821 021c 49       		.uleb128 0x49
 1822 021d 13       		.uleb128 0x13
ARM GAS  /tmp/cckFEW2X.s 			page 33


 1823 021e 02       		.uleb128 0x2
 1824 021f 18       		.uleb128 0x18
 1825 0220 00       		.byte	0
 1826 0221 00       		.byte	0
 1827 0222 28       		.uleb128 0x28
 1828 0223 0B       		.uleb128 0xb
 1829 0224 01       		.byte	0x1
 1830 0225 11       		.uleb128 0x11
 1831 0226 01       		.uleb128 0x1
 1832 0227 12       		.uleb128 0x12
 1833 0228 06       		.uleb128 0x6
 1834 0229 00       		.byte	0
 1835 022a 00       		.byte	0
 1836 022b 29       		.uleb128 0x29
 1837 022c 34       		.uleb128 0x34
 1838 022d 00       		.byte	0
 1839 022e 03       		.uleb128 0x3
 1840 022f 0E       		.uleb128 0xe
 1841 0230 3A       		.uleb128 0x3a
 1842 0231 0B       		.uleb128 0xb
 1843 0232 3B       		.uleb128 0x3b
 1844 0233 0B       		.uleb128 0xb
 1845 0234 49       		.uleb128 0x49
 1846 0235 13       		.uleb128 0x13
 1847 0236 02       		.uleb128 0x2
 1848 0237 17       		.uleb128 0x17
 1849 0238 00       		.byte	0
 1850 0239 00       		.byte	0
 1851 023a 2A       		.uleb128 0x2a
 1852 023b 0B       		.uleb128 0xb
 1853 023c 01       		.byte	0x1
 1854 023d 55       		.uleb128 0x55
 1855 023e 17       		.uleb128 0x17
 1856 023f 00       		.byte	0
 1857 0240 00       		.byte	0
 1858 0241 2B       		.uleb128 0x2b
 1859 0242 34       		.uleb128 0x34
 1860 0243 00       		.byte	0
 1861 0244 03       		.uleb128 0x3
 1862 0245 08       		.uleb128 0x8
 1863 0246 3A       		.uleb128 0x3a
 1864 0247 0B       		.uleb128 0xb
 1865 0248 3B       		.uleb128 0x3b
 1866 0249 0B       		.uleb128 0xb
 1867 024a 49       		.uleb128 0x49
 1868 024b 13       		.uleb128 0x13
 1869 024c 02       		.uleb128 0x2
 1870 024d 17       		.uleb128 0x17
 1871 024e 00       		.byte	0
 1872 024f 00       		.byte	0
 1873 0250 2C       		.uleb128 0x2c
 1874 0251 34       		.uleb128 0x34
 1875 0252 00       		.byte	0
 1876 0253 47       		.uleb128 0x47
 1877 0254 13       		.uleb128 0x13
 1878 0255 6E       		.uleb128 0x6e
 1879 0256 0E       		.uleb128 0xe
ARM GAS  /tmp/cckFEW2X.s 			page 34


 1880 0257 1C       		.uleb128 0x1c
 1881 0258 06       		.uleb128 0x6
 1882 0259 00       		.byte	0
 1883 025a 00       		.byte	0
 1884 025b 00       		.byte	0
 1885              		.section	.debug_loc,"",%progbits
 1886              	.Ldebug_loc0:
 1887              	.LLST0:
 1888 0000 34000000 		.4byte	.LVL2-.Ltext0
 1889 0004 40000000 		.4byte	.LVL4-.Ltext0
 1890 0008 0500     		.2byte	0x5
 1891 000a 79       		.byte	0x79
 1892 000b 00       		.sleb128 0
 1893 000c 35       		.byte	0x35
 1894 000d 26       		.byte	0x26
 1895 000e 9F       		.byte	0x9f
 1896 000f 40000000 		.4byte	.LVL4-.Ltext0
 1897 0013 52000000 		.4byte	.LVL6-.Ltext0
 1898 0017 0100     		.2byte	0x1
 1899 0019 57       		.byte	0x57
 1900 001a 52000000 		.4byte	.LVL6-.Ltext0
 1901 001e B8000000 		.4byte	.LVL22-.Ltext0
 1902 0022 0500     		.2byte	0x5
 1903 0024 79       		.byte	0x79
 1904 0025 00       		.sleb128 0
 1905 0026 35       		.byte	0x35
 1906 0027 26       		.byte	0x26
 1907 0028 9F       		.byte	0x9f
 1908 0029 B8000000 		.4byte	.LVL22-.Ltext0
 1909 002d C2000000 		.4byte	.LVL23-.Ltext0
 1910 0031 0600     		.2byte	0x6
 1911 0033 70       		.byte	0x70
 1912 0034 10       		.sleb128 16
 1913 0035 06       		.byte	0x6
 1914 0036 35       		.byte	0x35
 1915 0037 26       		.byte	0x26
 1916 0038 9F       		.byte	0x9f
 1917 0039 00000000 		.4byte	0
 1918 003d 00000000 		.4byte	0
 1919              	.LLST1:
 1920 0041 34000000 		.4byte	.LVL2-.Ltext0
 1921 0045 3C000000 		.4byte	.LVL3-.Ltext0
 1922 0049 0500     		.2byte	0x5
 1923 004b 78       		.byte	0x78
 1924 004c 00       		.sleb128 0
 1925 004d 35       		.byte	0x35
 1926 004e 26       		.byte	0x26
 1927 004f 9F       		.byte	0x9f
 1928 0050 3C000000 		.4byte	.LVL3-.Ltext0
 1929 0054 56000000 		.4byte	.LVL7-.Ltext0
 1930 0058 0100     		.2byte	0x1
 1931 005a 52       		.byte	0x52
 1932 005b 56000000 		.4byte	.LVL7-.Ltext0
 1933 005f C2000000 		.4byte	.LVL23-.Ltext0
 1934 0063 0500     		.2byte	0x5
 1935 0065 78       		.byte	0x78
 1936 0066 00       		.sleb128 0
ARM GAS  /tmp/cckFEW2X.s 			page 35


 1937 0067 35       		.byte	0x35
 1938 0068 26       		.byte	0x26
 1939 0069 9F       		.byte	0x9f
 1940 006a 00000000 		.4byte	0
 1941 006e 00000000 		.4byte	0
 1942              	.LLST2:
 1943 0072 48000000 		.4byte	.LVL5-.Ltext0
 1944 0076 C2000000 		.4byte	.LVL23-.Ltext0
 1945 007a 0100     		.2byte	0x1
 1946 007c 5E       		.byte	0x5e
 1947 007d 00000000 		.4byte	0
 1948 0081 00000000 		.4byte	0
 1949              	.LLST3:
 1950 0085 48000000 		.4byte	.LVL5-.Ltext0
 1951 0089 56000000 		.4byte	.LVL7-.Ltext0
 1952 008d 0100     		.2byte	0x1
 1953 008f 51       		.byte	0x51
 1954 0090 56000000 		.4byte	.LVL7-.Ltext0
 1955 0094 C2000000 		.4byte	.LVL23-.Ltext0
 1956 0098 0200     		.2byte	0x2
 1957 009a 70       		.byte	0x70
 1958 009b 00       		.sleb128 0
 1959 009c 00000000 		.4byte	0
 1960 00a0 00000000 		.4byte	0
 1961              	.LLST4:
 1962 00a4 48000000 		.4byte	.LVL5-.Ltext0
 1963 00a8 56000000 		.4byte	.LVL7-.Ltext0
 1964 00ac 0100     		.2byte	0x1
 1965 00ae 56       		.byte	0x56
 1966 00af 56000000 		.4byte	.LVL7-.Ltext0
 1967 00b3 C2000000 		.4byte	.LVL23-.Ltext0
 1968 00b7 0B00     		.2byte	0xb
 1969 00b9 78       		.byte	0x78
 1970 00ba 00       		.sleb128 0
 1971 00bb 35       		.byte	0x35
 1972 00bc 26       		.byte	0x26
 1973 00bd 32       		.byte	0x32
 1974 00be 24       		.byte	0x24
 1975 00bf 70       		.byte	0x70
 1976 00c0 04       		.sleb128 4
 1977 00c1 06       		.byte	0x6
 1978 00c2 22       		.byte	0x22
 1979 00c3 9F       		.byte	0x9f
 1980 00c4 00000000 		.4byte	0
 1981 00c8 00000000 		.4byte	0
 1982              	.LLST5:
 1983 00cc 48000000 		.4byte	.LVL5-.Ltext0
 1984 00d0 56000000 		.4byte	.LVL7-.Ltext0
 1985 00d4 0200     		.2byte	0x2
 1986 00d6 30       		.byte	0x30
 1987 00d7 9F       		.byte	0x9f
 1988 00d8 56000000 		.4byte	.LVL7-.Ltext0
 1989 00dc AC000000 		.4byte	.LVL21-.Ltext0
 1990 00e0 0100     		.2byte	0x1
 1991 00e2 55       		.byte	0x55
 1992 00e3 00000000 		.4byte	0
 1993 00e7 00000000 		.4byte	0
ARM GAS  /tmp/cckFEW2X.s 			page 36


 1994              	.LLST6:
 1995 00eb 48000000 		.4byte	.LVL5-.Ltext0
 1996 00ef 56000000 		.4byte	.LVL7-.Ltext0
 1997 00f3 0200     		.2byte	0x2
 1998 00f5 30       		.byte	0x30
 1999 00f6 9F       		.byte	0x9f
 2000 00f7 00000000 		.4byte	0
 2001 00fb 00000000 		.4byte	0
 2002              	.LLST7:
 2003 00ff 62000000 		.4byte	.LVL8-.Ltext0
 2004 0103 7E000000 		.4byte	.LVL13-.Ltext0
 2005 0107 0100     		.2byte	0x1
 2006 0109 53       		.byte	0x53
 2007 010a 7E000000 		.4byte	.LVL13-.Ltext0
 2008 010e AA000000 		.4byte	.LVL20-.Ltext0
 2009 0112 0200     		.2byte	0x2
 2010 0114 71       		.byte	0x71
 2011 0115 7C       		.sleb128 -4
 2012 0116 00000000 		.4byte	0
 2013 011a 00000000 		.4byte	0
 2014              	.LLST8:
 2015 011e 62000000 		.4byte	.LVL8-.Ltext0
 2016 0122 6A000000 		.4byte	.LVL9-.Ltext0
 2017 0126 0900     		.2byte	0x9
 2018 0128 74       		.byte	0x74
 2019 0129 00       		.sleb128 0
 2020 012a 7C       		.byte	0x7c
 2021 012b 00       		.sleb128 0
 2022 012c 25       		.byte	0x25
 2023 012d 7B       		.byte	0x7b
 2024 012e 00       		.sleb128 0
 2025 012f 21       		.byte	0x21
 2026 0130 9F       		.byte	0x9f
 2027 0131 6A000000 		.4byte	.LVL9-.Ltext0
 2028 0135 6C000000 		.4byte	.LVL10-.Ltext0
 2029 0139 0100     		.2byte	0x1
 2030 013b 52       		.byte	0x52
 2031 013c 6C000000 		.4byte	.LVL10-.Ltext0
 2032 0140 AC000000 		.4byte	.LVL21-.Ltext0
 2033 0144 0900     		.2byte	0x9
 2034 0146 74       		.byte	0x74
 2035 0147 00       		.sleb128 0
 2036 0148 7C       		.byte	0x7c
 2037 0149 00       		.sleb128 0
 2038 014a 25       		.byte	0x25
 2039 014b 7B       		.byte	0x7b
 2040 014c 00       		.sleb128 0
 2041 014d 21       		.byte	0x21
 2042 014e 9F       		.byte	0x9f
 2043 014f 00000000 		.4byte	0
 2044 0153 00000000 		.4byte	0
 2045              	.LLST9:
 2046 0157 70000000 		.4byte	.LVL11-.Ltext0
 2047 015b 7C000000 		.4byte	.LVL12-.Ltext0
 2048 015f 0100     		.2byte	0x1
 2049 0161 5A       		.byte	0x5a
 2050 0162 7C000000 		.4byte	.LVL12-.Ltext0
ARM GAS  /tmp/cckFEW2X.s 			page 37


 2051 0166 86000000 		.4byte	.LVL14-.Ltext0
 2052 016a 0100     		.2byte	0x1
 2053 016c 52       		.byte	0x52
 2054 016d 86000000 		.4byte	.LVL14-.Ltext0
 2055 0171 88000000 		.4byte	.LVL15-.Ltext0
 2056 0175 0E00     		.2byte	0xe
 2057 0177 7A       		.byte	0x7a
 2058 0178 00       		.sleb128 0
 2059 0179 7A       		.byte	0x7a
 2060 017a 00       		.sleb128 0
 2061 017b 31       		.byte	0x31
 2062 017c 25       		.byte	0x25
 2063 017d 0C       		.byte	0xc
 2064 017e 55555555 		.4byte	0x55555555
 2065 0182 1A       		.byte	0x1a
 2066 0183 1C       		.byte	0x1c
 2067 0184 9F       		.byte	0x9f
 2068 0185 88000000 		.4byte	.LVL15-.Ltext0
 2069 0189 8C000000 		.4byte	.LVL16-.Ltext0
 2070 018d 0100     		.2byte	0x1
 2071 018f 53       		.byte	0x53
 2072 0190 8C000000 		.4byte	.LVL16-.Ltext0
 2073 0194 98000000 		.4byte	.LVL17-.Ltext0
 2074 0198 1900     		.2byte	0x19
 2075 019a 7A       		.byte	0x7a
 2076 019b 00       		.sleb128 0
 2077 019c 7A       		.byte	0x7a
 2078 019d 00       		.sleb128 0
 2079 019e 31       		.byte	0x31
 2080 019f 25       		.byte	0x25
 2081 01a0 0C       		.byte	0xc
 2082 01a1 55555555 		.4byte	0x55555555
 2083 01a5 1A       		.byte	0x1a
 2084 01a6 1C       		.byte	0x1c
 2085 01a7 32       		.byte	0x32
 2086 01a8 25       		.byte	0x25
 2087 01a9 0C       		.byte	0xc
 2088 01aa 33333333 		.4byte	0x33333333
 2089 01ae 1A       		.byte	0x1a
 2090 01af 72       		.byte	0x72
 2091 01b0 00       		.sleb128 0
 2092 01b1 22       		.byte	0x22
 2093 01b2 9F       		.byte	0x9f
 2094 01b3 98000000 		.4byte	.LVL17-.Ltext0
 2095 01b7 A2000000 		.4byte	.LVL19-.Ltext0
 2096 01bb 0500     		.2byte	0x5
 2097 01bd 73       		.byte	0x73
 2098 01be 00       		.sleb128 0
 2099 01bf 48       		.byte	0x48
 2100 01c0 25       		.byte	0x25
 2101 01c1 9F       		.byte	0x9f
 2102 01c2 A2000000 		.4byte	.LVL19-.Ltext0
 2103 01c6 AC000000 		.4byte	.LVL21-.Ltext0
 2104 01ca 8000     		.2byte	0x80
 2105 01cc 7A       		.byte	0x7a
 2106 01cd 00       		.sleb128 0
 2107 01ce 7A       		.byte	0x7a
ARM GAS  /tmp/cckFEW2X.s 			page 38


 2108 01cf 00       		.sleb128 0
 2109 01d0 31       		.byte	0x31
 2110 01d1 25       		.byte	0x25
 2111 01d2 0C       		.byte	0xc
 2112 01d3 55555555 		.4byte	0x55555555
 2113 01d7 1A       		.byte	0x1a
 2114 01d8 1C       		.byte	0x1c
 2115 01d9 32       		.byte	0x32
 2116 01da 25       		.byte	0x25
 2117 01db 0C       		.byte	0xc
 2118 01dc 33333333 		.4byte	0x33333333
 2119 01e0 1A       		.byte	0x1a
 2120 01e1 72       		.byte	0x72
 2121 01e2 00       		.sleb128 0
 2122 01e3 22       		.byte	0x22
 2123 01e4 7A       		.byte	0x7a
 2124 01e5 00       		.sleb128 0
 2125 01e6 7A       		.byte	0x7a
 2126 01e7 00       		.sleb128 0
 2127 01e8 31       		.byte	0x31
 2128 01e9 25       		.byte	0x25
 2129 01ea 0C       		.byte	0xc
 2130 01eb 55555555 		.4byte	0x55555555
 2131 01ef 1A       		.byte	0x1a
 2132 01f0 1C       		.byte	0x1c
 2133 01f1 32       		.byte	0x32
 2134 01f2 25       		.byte	0x25
 2135 01f3 0C       		.byte	0xc
 2136 01f4 33333333 		.4byte	0x33333333
 2137 01f8 1A       		.byte	0x1a
 2138 01f9 72       		.byte	0x72
 2139 01fa 00       		.sleb128 0
 2140 01fb 22       		.byte	0x22
 2141 01fc 34       		.byte	0x34
 2142 01fd 25       		.byte	0x25
 2143 01fe 22       		.byte	0x22
 2144 01ff 0C       		.byte	0xc
 2145 0200 0F0F0F0F 		.4byte	0xf0f0f0f
 2146 0204 1A       		.byte	0x1a
 2147 0205 0A       		.byte	0xa
 2148 0206 0101     		.2byte	0x101
 2149 0208 1E       		.byte	0x1e
 2150 0209 7A       		.byte	0x7a
 2151 020a 00       		.sleb128 0
 2152 020b 7A       		.byte	0x7a
 2153 020c 00       		.sleb128 0
 2154 020d 31       		.byte	0x31
 2155 020e 25       		.byte	0x25
 2156 020f 0C       		.byte	0xc
 2157 0210 55555555 		.4byte	0x55555555
 2158 0214 1A       		.byte	0x1a
 2159 0215 1C       		.byte	0x1c
 2160 0216 32       		.byte	0x32
 2161 0217 25       		.byte	0x25
 2162 0218 0C       		.byte	0xc
 2163 0219 33333333 		.4byte	0x33333333
 2164 021d 1A       		.byte	0x1a
ARM GAS  /tmp/cckFEW2X.s 			page 39


 2165 021e 72       		.byte	0x72
 2166 021f 00       		.sleb128 0
 2167 0220 22       		.byte	0x22
 2168 0221 7A       		.byte	0x7a
 2169 0222 00       		.sleb128 0
 2170 0223 7A       		.byte	0x7a
 2171 0224 00       		.sleb128 0
 2172 0225 31       		.byte	0x31
 2173 0226 25       		.byte	0x25
 2174 0227 0C       		.byte	0xc
 2175 0228 55555555 		.4byte	0x55555555
 2176 022c 1A       		.byte	0x1a
 2177 022d 1C       		.byte	0x1c
 2178 022e 32       		.byte	0x32
 2179 022f 25       		.byte	0x25
 2180 0230 0C       		.byte	0xc
 2181 0231 33333333 		.4byte	0x33333333
 2182 0235 1A       		.byte	0x1a
 2183 0236 72       		.byte	0x72
 2184 0237 00       		.sleb128 0
 2185 0238 22       		.byte	0x22
 2186 0239 34       		.byte	0x34
 2187 023a 25       		.byte	0x25
 2188 023b 22       		.byte	0x22
 2189 023c 0C       		.byte	0xc
 2190 023d 0F0F0F0F 		.4byte	0xf0f0f0f
 2191 0241 1A       		.byte	0x1a
 2192 0242 0A       		.byte	0xa
 2193 0243 0101     		.2byte	0x101
 2194 0245 1E       		.byte	0x1e
 2195 0246 40       		.byte	0x40
 2196 0247 24       		.byte	0x24
 2197 0248 22       		.byte	0x22
 2198 0249 48       		.byte	0x48
 2199 024a 25       		.byte	0x25
 2200 024b 9F       		.byte	0x9f
 2201 024c 00000000 		.4byte	0
 2202 0250 00000000 		.4byte	0
 2203              		.section	.debug_aranges,"",%progbits
 2204 0000 1C000000 		.4byte	0x1c
 2205 0004 0200     		.2byte	0x2
 2206 0006 00000000 		.4byte	.Ldebug_info0
 2207 000a 04       		.byte	0x4
 2208 000b 00       		.byte	0
 2209 000c 0000     		.2byte	0
 2210 000e 0000     		.2byte	0
 2211 0010 00000000 		.4byte	.Ltext0
 2212 0014 EA000000 		.4byte	.Letext0-.Ltext0
 2213 0018 00000000 		.4byte	0
 2214 001c 00000000 		.4byte	0
 2215              		.section	.debug_ranges,"",%progbits
 2216              	.Ldebug_ranges0:
 2217 0000 3C000000 		.4byte	.LBB3-.Ltext0
 2218 0004 40000000 		.4byte	.LBE3-.Ltext0
 2219 0008 48000000 		.4byte	.LBB6-.Ltext0
 2220 000c A0000000 		.4byte	.LBE6-.Ltext0
 2221 0010 00000000 		.4byte	0
ARM GAS  /tmp/cckFEW2X.s 			page 40


 2222 0014 00000000 		.4byte	0
 2223 0018 56000000 		.4byte	.LBB4-.Ltext0
 2224 001c 98000000 		.4byte	.LBE4-.Ltext0
 2225 0020 9A000000 		.4byte	.LBB5-.Ltext0
 2226 0024 9E000000 		.4byte	.LBE5-.Ltext0
 2227 0028 00000000 		.4byte	0
 2228 002c 00000000 		.4byte	0
 2229              		.section	.debug_line,"",%progbits
 2230              	.Ldebug_line0:
 2231 0000 AE050000 		.section	.debug_str,"MS",%progbits,1
 2231      02003805 
 2231      00000201 
 2231      FB0E0D00 
 2231      01010101 
 2232              	.LASF65:
 2233 0000 366C6469 		.ascii	"6ldiv_t\000"
 2233      765F7400 
 2234              	.LASF62:
 2235 0008 71756F74 		.ascii	"quot\000"
 2235      00
 2236              	.LASF25:
 2237 000d 74726163 		.ascii	"trace_\000"
 2237      655F00
 2238              	.LASF80:
 2239 0014 71736F72 		.ascii	"qsort\000"
 2239      7400
 2240              	.LASF82:
 2241 001a 73747274 		.ascii	"strtod\000"
 2241      6F6400
 2242              	.LASF106:
 2243 0021 5F5F6E75 		.ascii	"__numeric_traits_integer<int>\000"
 2243      6D657269 
 2243      635F7472 
 2243      61697473 
 2243      5F696E74 
 2244              	.LASF77:
 2245 003f 6D627374 		.ascii	"mbstowcs\000"
 2245      6F776373 
 2245      00
 2246              	.LASF2:
 2247 0048 73686F72 		.ascii	"short int\000"
 2247      7420696E 
 2247      7400
 2248              	.LASF13:
 2249 0052 73697A65 		.ascii	"size_t\000"
 2249      5F7400
 2250              	.LASF73:
 2251 0059 62736561 		.ascii	"bsearch\000"
 2251      72636800 
 2252              	.LASF107:
 2253 0061 5F56616C 		.ascii	"_Value\000"
 2253      756500
 2254              	.LASF69:
 2255 0068 61746578 		.ascii	"atexit\000"
 2255      697400
 2256              	.LASF38:
 2257 006f 736F7572 		.ascii	"source\000"
ARM GAS  /tmp/cckFEW2X.s 			page 41


 2257      636500
 2258              	.LASF40:
 2259 0076 5F5A4E36 		.ascii	"_ZN6clouds10Correlator6sourceEv\000"
 2259      636C6F75 
 2259      64733130 
 2259      436F7272 
 2259      656C6174 
 2260              	.LASF32:
 2261 0096 5F5A4E36 		.ascii	"_ZN6clouds10Correlator11StartSearchElll\000"
 2261      636C6F75 
 2261      64733130 
 2261      436F7272 
 2261      656C6174 
 2262              	.LASF6:
 2263 00be 5F5F7569 		.ascii	"__uint32_t\000"
 2263      6E743332 
 2263      5F7400
 2264              	.LASF34:
 2265 00c9 5F5A4E36 		.ascii	"_ZN6clouds10Correlator22EvaluateSomeCandidatesEv\000"
 2265      636C6F75 
 2265      64733130 
 2265      436F7272 
 2265      656C6174 
 2266              	.LASF94:
 2267 00fa 64657374 		.ascii	"destination_bits\000"
 2267      696E6174 
 2267      696F6E5F 
 2267      62697473 
 2267      00
 2268              	.LASF22:
 2269 010b 63616E64 		.ascii	"candidate_\000"
 2269      69646174 
 2269      655F00
 2270              	.LASF89:
 2271 0116 6E756D5F 		.ascii	"num_words\000"
 2271      776F7264 
 2271      7300
 2272              	.LASF74:
 2273 0120 67657465 		.ascii	"getenv\000"
 2273      6E7600
 2274              	.LASF103:
 2275 0127 6E6F7468 		.ascii	"nothrow_t\000"
 2275      726F775F 
 2275      7400
 2276              	.LASF108:
 2277 0131 72616E64 		.ascii	"rand\000"
 2277      00
 2278              	.LASF19:
 2279 0136 6F666673 		.ascii	"offset_\000"
 2279      65745F00 
 2280              	.LASF47:
 2281 013e 626F6F6C 		.ascii	"bool\000"
 2281      00
 2282              	.LASF0:
 2283 0143 7369676E 		.ascii	"signed char\000"
 2283      65642063 
 2283      68617200 
ARM GAS  /tmp/cckFEW2X.s 			page 42


 2284              	.LASF24:
 2285 014f 62657374 		.ascii	"best_match_\000"
 2285      5F6D6174 
 2285      63685F00 
 2286              	.LASF59:
 2287 015b 666C6F61 		.ascii	"float\000"
 2287      7400
 2288              	.LASF79:
 2289 0161 6D62746F 		.ascii	"mbtowc\000"
 2289      776300
 2290              	.LASF37:
 2291 0168 62657374 		.ascii	"best_match\000"
 2291      5F6D6174 
 2291      636800
 2292              	.LASF55:
 2293 0173 5F5F6973 		.ascii	"__is_signed\000"
 2293      5F736967 
 2293      6E656400 
 2294              	.LASF8:
 2295 017f 6C6F6E67 		.ascii	"long long int\000"
 2295      206C6F6E 
 2295      6720696E 
 2295      7400
 2296              	.LASF29:
 2297 018d 496E6974 		.ascii	"Init\000"
 2297      00
 2298              	.LASF109:
 2299 0192 5F5A4E39 		.ascii	"_ZN9__gnu_cxx24__numeric_traits_integerIiE5__maxE\000"
 2299      5F5F676E 
 2299      755F6378 
 2299      7832345F 
 2299      5F6E756D 
 2300              	.LASF4:
 2301 01c4 6C6F6E67 		.ascii	"long int\000"
 2301      20696E74 
 2301      00
 2302              	.LASF15:
 2303 01cd 73746D6C 		.ascii	"stmlib\000"
 2303      696200
 2304              	.LASF97:
 2305 01d4 6F666673 		.ascii	"offset\000"
 2305      657400
 2306              	.LASF7:
 2307 01db 6C6F6E67 		.ascii	"long unsigned int\000"
 2307      20756E73 
 2307      69676E65 
 2307      6420696E 
 2307      7400
 2308              	.LASF83:
 2309 01ed 73747274 		.ascii	"strtol\000"
 2309      6F6C00
 2310              	.LASF28:
 2311 01f4 7E436F72 		.ascii	"~Correlator\000"
 2311      72656C61 
 2311      746F7200 
 2312              	.LASF23:
 2313 0200 62657374 		.ascii	"best_score_\000"
ARM GAS  /tmp/cckFEW2X.s 			page 43


 2313      5F73636F 
 2313      72655F00 
 2314              	.LASF1:
 2315 020c 756E7369 		.ascii	"unsigned char\000"
 2315      676E6564 
 2315      20636861 
 2315      7200
 2316              	.LASF31:
 2317 021a 5F5A4E36 		.ascii	"_ZN6clouds10Correlator4InitEPmS1_\000"
 2317      636C6F75 
 2317      64733130 
 2317      436F7272 
 2317      656C6174 
 2318              	.LASF87:
 2319 023c 7763746F 		.ascii	"wctomb\000"
 2319      6D6200
 2320              	.LASF90:
 2321 0243 6F666673 		.ascii	"offset_words\000"
 2321      65745F77 
 2321      6F726473 
 2321      00
 2322              	.LASF100:
 2323 0250 2E2F6D75 		.ascii	"./mutable_instruments/clouds/dsp/correlator.cpp\000"
 2323      7461626C 
 2323      655F696E 
 2323      73747275 
 2323      6D656E74 
 2324              	.LASF98:
 2325 0280 696E6372 		.ascii	"increment\000"
 2325      656D656E 
 2325      7400
 2326              	.LASF39:
 2327 028a 5F5A4E4B 		.ascii	"_ZNK6clouds10Correlator10best_matchEv\000"
 2327      36636C6F 
 2327      75647331 
 2327      30436F72 
 2327      72656C61 
 2328              	.LASF86:
 2329 02b0 77637374 		.ascii	"wcstombs\000"
 2329      6F6D6273 
 2329      00
 2330              	.LASF57:
 2331 02b9 6C6F6E67 		.ascii	"long double\000"
 2331      20646F75 
 2331      626C6500 
 2332              	.LASF84:
 2333 02c5 73747274 		.ascii	"strtoul\000"
 2333      6F756C00 
 2334              	.LASF46:
 2335 02cd 5F5A4E36 		.ascii	"_ZN6clouds10Correlator4doneEv\000"
 2335      636C6F75 
 2335      64733130 
 2335      436F7272 
 2335      656C6174 
 2336              	.LASF26:
 2337 02eb 646F6E65 		.ascii	"done_\000"
 2337      5F00
ARM GAS  /tmp/cckFEW2X.s 			page 44


 2338              	.LASF52:
 2339 02f1 5F5F6F70 		.ascii	"__ops\000"
 2339      7300
 2340              	.LASF70:
 2341 02f7 61746F66 		.ascii	"atof\000"
 2341      00
 2342              	.LASF60:
 2343 02fc 5F5F676E 		.ascii	"__gnu_debug\000"
 2343      755F6465 
 2343      62756700 
 2344              	.LASF51:
 2345 0308 5F5F676E 		.ascii	"__gnu_cxx\000"
 2345      755F6378 
 2345      7800
 2346              	.LASF72:
 2347 0312 61746F6C 		.ascii	"atol\000"
 2347      00
 2348              	.LASF68:
 2349 0317 6F706572 		.ascii	"operator=\000"
 2349      61746F72 
 2349      3D00
 2350              	.LASF9:
 2351 0321 6C6F6E67 		.ascii	"long long unsigned int\000"
 2351      206C6F6E 
 2351      6720756E 
 2351      7369676E 
 2351      65642069 
 2352              	.LASF12:
 2353 0338 75696E74 		.ascii	"uint32_t\000"
 2353      33325F74 
 2353      00
 2354              	.LASF54:
 2355 0341 5F5F6D61 		.ascii	"__max\000"
 2355      7800
 2356              	.LASF10:
 2357 0347 756E7369 		.ascii	"unsigned int\000"
 2357      676E6564 
 2357      20696E74 
 2357      00
 2358              	.LASF71:
 2359 0354 61746F69 		.ascii	"atoi\000"
 2359      00
 2360              	.LASF92:
 2361 0359 78636F72 		.ascii	"xcorr\000"
 2361      7200
 2362              	.LASF76:
 2363 035f 6D626C65 		.ascii	"mblen\000"
 2363      6E00
 2364              	.LASF91:
 2365 0365 6F666673 		.ascii	"offset_bits\000"
 2365      65745F62 
 2365      69747300 
 2366              	.LASF66:
 2367 0371 6C646976 		.ascii	"ldiv_t\000"
 2367      5F7400
 2368              	.LASF75:
 2369 0378 6C646976 		.ascii	"ldiv\000"
ARM GAS  /tmp/cckFEW2X.s 			page 45


 2369      00
 2370              	.LASF21:
 2371 037d 73697A65 		.ascii	"size_\000"
 2371      5F00
 2372              	.LASF33:
 2373 0383 4576616C 		.ascii	"EvaluateSomeCandidates\000"
 2373      75617465 
 2373      536F6D65 
 2373      43616E64 
 2373      69646174 
 2374              	.LASF3:
 2375 039a 73686F72 		.ascii	"short unsigned int\000"
 2375      7420756E 
 2375      7369676E 
 2375      65642069 
 2375      6E7400
 2376              	.LASF17:
 2377 03ad 736F7572 		.ascii	"source_\000"
 2377      63655F00 
 2378              	.LASF78:
 2379 03b5 77636861 		.ascii	"wchar_t\000"
 2379      725F7400 
 2380              	.LASF61:
 2381 03bd 63686172 		.ascii	"char\000"
 2381      00
 2382              	.LASF27:
 2383 03c2 436F7272 		.ascii	"Correlator\000"
 2383      656C6174 
 2383      6F7200
 2384              	.LASF11:
 2385 03cd 696E7433 		.ascii	"int32_t\000"
 2385      325F7400 
 2386              	.LASF44:
 2387 03d5 5F5A4E36 		.ascii	"_ZN6clouds10Correlator9candidateEv\000"
 2387      636C6F75 
 2387      64733130 
 2387      436F7272 
 2387      656C6174 
 2388              	.LASF20:
 2389 03f8 696E6372 		.ascii	"increment_\000"
 2389      656D656E 
 2389      745F00
 2390              	.LASF88:
 2391 0403 74686973 		.ascii	"this\000"
 2391      00
 2392              	.LASF18:
 2393 0408 64657374 		.ascii	"destination_\000"
 2393      696E6174 
 2393      696F6E5F 
 2393      00
 2394              	.LASF99:
 2395 0415 474E5520 		.ascii	"GNU C++ 4.9.3 20150529 (release) [ARM/embedded-4_9-"
 2395      432B2B20 
 2395      342E392E 
 2395      33203230 
 2395      31353035 
 2396 0448 6272616E 		.ascii	"branch revision 224288] -mcpu=cortex-m4 -mfloat-abi"
ARM GAS  /tmp/cckFEW2X.s 			page 46


 2396      63682072 
 2396      65766973 
 2396      696F6E20 
 2396      32323432 
 2397 047b 3D686172 		.ascii	"=hard -mfpu=fpv4-sp-d16 -mno-thumb-interwork -mthum"
 2397      64202D6D 
 2397      6670753D 
 2397      66707634 
 2397      2D73702D 
 2398 04ae 62202D67 		.ascii	"b -ggdb -O2 -fomit-frame-pointer -falign-functions="
 2398      67646220 
 2398      2D4F3220 
 2398      2D666F6D 
 2398      69742D66 
 2399 04e1 3136202D 		.ascii	"16 -fno-math-errno -fsingle-precision-constant -fno"
 2399      666E6F2D 
 2399      6D617468 
 2399      2D657272 
 2399      6E6F202D 
 2400 0514 2D727474 		.ascii	"-rtti\000"
 2400      6900
 2401              	.LASF105:
 2402 051a 5F5A5374 		.ascii	"_ZSt7nothrow\000"
 2402      376E6F74 
 2402      68726F77 
 2402      00
 2403              	.LASF64:
 2404 0527 35646976 		.ascii	"5div_t\000"
 2404      5F7400
 2405              	.LASF93:
 2406 052e 736F7572 		.ascii	"source_bits\000"
 2406      63655F62 
 2406      69747300 
 2407              	.LASF85:
 2408 053a 73797374 		.ascii	"system\000"
 2408      656D00
 2409              	.LASF45:
 2410 0541 646F6E65 		.ascii	"done\000"
 2410      00
 2411              	.LASF41:
 2412 0546 64657374 		.ascii	"destination\000"
 2412      696E6174 
 2412      696F6E00 
 2413              	.LASF58:
 2414 0552 646F7562 		.ascii	"double\000"
 2414      6C6500
 2415              	.LASF14:
 2416 0559 696D706C 		.ascii	"impl\000"
 2416      00
 2417              	.LASF36:
 2418 055e 5F5A4E36 		.ascii	"_ZN6clouds10Correlator21EvaluateNextCandidateEv\000"
 2418      636C6F75 
 2418      64733130 
 2418      436F7272 
 2418      656C6174 
 2419              	.LASF35:
 2420 058e 4576616C 		.ascii	"EvaluateNextCandidate\000"
ARM GAS  /tmp/cckFEW2X.s 			page 47


 2420      75617465 
 2420      4E657874 
 2420      43616E64 
 2420      69646174 
 2421              	.LASF96:
 2422 05a4 73697A65 		.ascii	"size\000"
 2422      00
 2423              	.LASF95:
 2424 05a9 636F756E 		.ascii	"count\000"
 2424      7400
 2425              	.LASF63:
 2426 05af 6469765F 		.ascii	"div_t\000"
 2426      7400
 2427              	.LASF5:
 2428 05b5 5F5F696E 		.ascii	"__int32_t\000"
 2428      7433325F 
 2428      7400
 2429              	.LASF53:
 2430 05bf 5F5F6D69 		.ascii	"__min\000"
 2430      6E00
 2431              	.LASF42:
 2432 05c5 5F5A4E36 		.ascii	"_ZN6clouds10Correlator11destinationEv\000"
 2432      636C6F75 
 2432      64733130 
 2432      436F7272 
 2432      656C6174 
 2433              	.LASF101:
 2434 05eb 2F686F6D 		.ascii	"/home/sbcu/Dropbox/pcb-layouts/axo-on-discovery-boa"
 2434      652F7362 
 2434      63752F44 
 2434      726F7062 
 2434      6F782F70 
 2435 061e 72642F61 		.ascii	"rd/axoloti/firmware\000"
 2435      786F6C6F 
 2435      74692F66 
 2435      69726D77 
 2435      61726500 
 2436              	.LASF67:
 2437 0632 5F5F636F 		.ascii	"__compar_fn_t\000"
 2437      6D706172 
 2437      5F666E5F 
 2437      7400
 2438              	.LASF16:
 2439 0640 73697A65 		.ascii	"sizetype\000"
 2439      74797065 
 2439      00
 2440              	.LASF43:
 2441 0649 63616E64 		.ascii	"candidate\000"
 2441      69646174 
 2441      6500
 2442              	.LASF48:
 2443 0653 636C6F75 		.ascii	"clouds\000"
 2443      647300
 2444              	.LASF102:
 2445 065a 5F5A4E36 		.ascii	"_ZN6clouds10CorrelatoraSERKS0_\000"
 2445      636C6F75 
 2445      64733130 
ARM GAS  /tmp/cckFEW2X.s 			page 48


 2445      436F7272 
 2445      656C6174 
 2446              	.LASF50:
 2447 0679 70747264 		.ascii	"ptrdiff_t\000"
 2447      6966665F 
 2447      7400
 2448              	.LASF49:
 2449 0683 5F5F6465 		.ascii	"__debug\000"
 2449      62756700 
 2450              	.LASF81:
 2451 068b 7372616E 		.ascii	"srand\000"
 2451      6400
 2452              	.LASF30:
 2453 0691 53746172 		.ascii	"StartSearch\000"
 2453      74536561 
 2453      72636800 
 2454              	.LASF56:
 2455 069d 5F5F6469 		.ascii	"__digits\000"
 2455      67697473 
 2455      00
 2456              	.LASF104:
 2457 06a6 6E6F7468 		.ascii	"nothrow\000"
 2457      726F7700 
 2458              		.ident	"GCC: (GNU Tools for ARM Embedded Processors) 4.9.3 20150529 (release) [ARM/embedded-4_9-br
ARM GAS  /tmp/cckFEW2X.s 			page 49


DEFINED SYMBOLS
                            *ABS*:00000000 correlator.cpp
     /tmp/cckFEW2X.s:20     .text:00000000 $t
     /tmp/cckFEW2X.s:26     .text:00000000 _ZN6clouds10Correlator4InitEPmS1_
                       .ARM.exidx:00000000 $d
     /tmp/cckFEW2X.s:66     .text:00000020 _ZN6clouds10Correlator21EvaluateNextCandidateEv
     /tmp/cckFEW2X.s:207    .text:000000d0 _ZN6clouds10Correlator11StartSearchElll
                     .debug_frame:00000010 $d

NO UNDEFINED SYMBOLS
