ARM GAS  /tmp/cckFEW2X.s 			page 1


   1              		.syntax unified
   2              		.cpu cortex-m4
   3              		.eabi_attribute 27, 1
   4              		.eabi_attribute 28, 1
   5              		.fpu fpv4-sp-d16
   6              		.eabi_attribute 20, 1
   7              		.eabi_attribute 21, 1
   8              		.eabi_attribute 23, 3
   9              		.eabi_attribute 24, 1
  10              		.eabi_attribute 25, 1
  11              		.eabi_attribute 26, 1
  12              		.eabi_attribute 30, 2
  13              		.eabi_attribute 34, 1
  14              		.eabi_attribute 18, 4
  15              		.thumb
  16              		.file	"correlator.cpp"
  17              		.text
  18              	.Ltext0:
  19              		.cfi_sections	.debug_frame
  20              		.align	2
  21              		.p2align 4,,15
  22              		.global	_ZN6clouds10Correlator4InitEPmS1_
  23              		.thumb
  24              		.thumb_func
  25              		.type	_ZN6clouds10Correlator4InitEPmS1_, %function
  26              	_ZN6clouds10Correlator4InitEPmS1_:
  27              		.fnstart
  28              	.LFB453:
  29              		.file 1 "./mutable_instruments/clouds/dsp/correlator.cpp"
  30              		.loc 1 37 0
  31              		.cfi_startproc
  32              		@ args = 0, pretend = 0, frame = 0
  33              		@ frame_needed = 0, uses_anonymous_args = 0
  34              		@ link register save eliminated.
  35              	.LVL0:
  36 0000 10B4     		push	{r4}
  37              		.cfi_def_cfa_offset 4
  38              		.cfi_offset 4, -4
  39              		.loc 1 40 0
  40 0002 0023     		movs	r3, #0
  41              		.loc 1 42 0
  42 0004 0124     		movs	r4, #1
  43 0006 80F82440 		strb	r4, [r0, #36]
  44              		.loc 1 39 0
  45 000a 80E80600 		stmia	r0, {r1, r2}
  46              		.loc 1 40 0
  47 000e 8360     		str	r3, [r0, #8]
  48              		.loc 1 41 0
  49 0010 C361     		str	r3, [r0, #28]
  50              		.loc 1 43 0
  51 0012 5DF8044B 		ldr	r4, [sp], #4
  52              		.cfi_restore 4
  53              		.cfi_def_cfa_offset 0
  54 0016 7047     		bx	lr
  55              		.cfi_endproc
  56              	.LFE453:
  57              		.cantunwind
ARM GAS  /tmp/cckFEW2X.s 			page 2


  58              		.fnend
  59              		.size	_ZN6clouds10Correlator4InitEPmS1_, .-_ZN6clouds10Correlator4InitEPmS1_
  60              		.align	2
  61 0018 AFF30080 		.p2align 4,,15
  61      AFF30080 
  62              		.global	_ZN6clouds10Correlator21EvaluateNextCandidateEv
  63              		.thumb
  64              		.thumb_func
  65              		.type	_ZN6clouds10Correlator21EvaluateNextCandidateEv, %function
  66              	_ZN6clouds10Correlator21EvaluateNextCandidateEv:
  67              		.fnstart
  68              	.LFB454:
  69              		.loc 1 45 0
  70              		.cfi_startproc
  71              		@ args = 0, pretend = 0, frame = 0
  72              		@ frame_needed = 0, uses_anonymous_args = 0
  73              	.LVL1:
  74 0020 2DE9F04F 		push	{r4, r5, r6, r7, r8, r9, r10, fp, lr}
  75              		.cfi_def_cfa_offset 36
  76              		.cfi_offset 4, -36
  77              		.cfi_offset 5, -32
  78              		.cfi_offset 6, -28
  79              		.cfi_offset 7, -24
  80              		.cfi_offset 8, -20
  81              		.cfi_offset 9, -16
  82              		.cfi_offset 10, -12
  83              		.cfi_offset 11, -8
  84              		.cfi_offset 14, -4
  85              	.LBB2:
  86              		.loc 1 46 0
  87 0024 90F82450 		ldrb	r5, [r0, #36]	@ zero_extendqisi2
  88 0028 002D     		cmp	r5, #0
  89 002a 4AD1     		bne	.L3
  90              		.loc 1 50 0
  91 002c D0F81480 		ldr	r8, [r0, #20]
  92              		.loc 1 49 0
  93 0030 D0F81090 		ldr	r9, [r0, #16]
  94              	.LVL2:
  95              		.loc 1 53 0
  96 0034 4368     		ldr	r3, [r0, #4]
  97              		.loc 1 52 0
  98 0036 0168     		ldr	r1, [r0]
  99              		.loc 1 50 0
 100 0038 4FEA6812 		asr	r2, r8, #5
 101              	.LVL3:
 102              	.LBB3:
 103              		.loc 1 56 0
 104 003c 5FEA6917 		asrs	r7, r9, #5
 105              	.LVL4:
 106              	.LBE3:
 107              		.loc 1 53 0
 108 0040 03EB8206 		add	r6, r3, r2, lsl #2
 109              		.loc 1 51 0
 110 0044 08F01F0E 		and	lr, r8, #31
 111              	.LVL5:
 112              	.LBB6:
 113              		.loc 1 56 0
ARM GAS  /tmp/cckFEW2X.s 			page 3


 114 0048 30D0     		beq	.L5
 115 004a 53F82240 		ldr	r4, [r3, r2, lsl #2]
 116 004e 01EB8707 		add	r7, r1, r7, lsl #2
 117              	.LVL6:
 118 0052 CEF1200C 		rsb	ip, lr, #32
 119              	.LVL7:
 120              	.L6:
 121              	.LBB4:
 122              		.loc 1 59 0 discriminator 3
 123 0056 04FA0EFB 		lsl	fp, r4, lr
 124              		.loc 1 60 0 discriminator 3
 125 005a 56F8044F 		ldr	r4, [r6, #4]!
 126              		.loc 1 57 0 discriminator 3
 127 005e 51F8043B 		ldr	r3, [r1], #4
 128              	.LVL8:
 129              		.loc 1 60 0 discriminator 3
 130 0062 24FA0CF2 		lsr	r2, r4, ip
 131 0066 42EA0B02 		orr	r2, r2, fp
 132              	.LVL9:
 133              		.loc 1 61 0 discriminator 3
 134 006a 5A40     		eors	r2, r2, r3
 135              	.LVL10:
 136 006c 6FEA020A 		mvn	r10, r2
 137              	.LVL11:
 138              		.loc 1 62 0 discriminator 3
 139 0070 4FEA5A02 		lsr	r2, r10, #1
 140 0074 02F05532 		and	r2, r2, #1431655765
 141 0078 C2EB0A02 		rsb	r2, r2, r10
 142              	.LVL12:
 143              		.loc 1 63 0 discriminator 3
 144 007c 9308     		lsrs	r3, r2, #2
 145              	.LVL13:
 146 007e 03F03333 		and	r3, r3, #858993459
 147 0082 02F03332 		and	r2, r2, #858993459
 148              	.LVL14:
 149 0086 1344     		add	r3, r3, r2
 150              	.LVL15:
 151              		.loc 1 64 0 discriminator 3
 152 0088 03EB1313 		add	r3, r3, r3, lsr #4
 153              	.LVL16:
 154 008c 03F00F33 		and	r3, r3, #252645135
 155 0090 03EB0323 		add	r3, r3, r3, lsl #8
 156 0094 03EB0343 		add	r3, r3, r3, lsl #16
 157              	.LVL17:
 158              	.LBE4:
 159              		.loc 1 56 0 discriminator 3
 160 0098 B942     		cmp	r1, r7
 161              	.LBB5:
 162              		.loc 1 65 0 discriminator 3
 163 009a 05EB1365 		add	r5, r5, r3, lsr #24
 164              	.LVL18:
 165              	.LBE5:
 166              		.loc 1 56 0 discriminator 3
 167 009e DAD1     		bne	.L6
 168              	.LBE6:
 169              		.loc 1 67 0
 170 00a0 8369     		ldr	r3, [r0, #24]
ARM GAS  /tmp/cckFEW2X.s 			page 4


 171              	.LVL19:
 172 00a2 AB42     		cmp	r3, r5
 173              		.loc 1 68 0
 174 00a4 3CBF     		itt	cc
 175 00a6 C0F81C80 		strcc	r8, [r0, #28]
 176              	.LVL20:
 177              		.loc 1 69 0
 178 00aa 8561     		strcc	r5, [r0, #24]
 179              	.LVL21:
 180              	.L5:
 181              		.loc 1 71 0
 182 00ac 08F10103 		add	r3, r8, #1
 183              		.loc 1 72 0
 184 00b0 9945     		cmp	r9, r3
 185 00b2 CCBF     		ite	gt
 186 00b4 4FF00009 		movgt	r9, #0
 187              	.LVL22:
 188 00b8 4FF00109 		movle	r9, #1
 189 00bc 80F82490 		strb	r9, [r0, #36]
 190              		.loc 1 71 0
 191 00c0 4361     		str	r3, [r0, #20]
 192              	.LVL23:
 193              	.L3:
 194 00c2 BDE8F08F 		pop	{r4, r5, r6, r7, r8, r9, r10, fp, pc}
 195              	.LBE2:
 196              		.cfi_endproc
 197              	.LFE454:
 198              		.cantunwind
 199              		.fnend
 200              		.size	_ZN6clouds10Correlator21EvaluateNextCandidateEv, .-_ZN6clouds10Correlator21EvaluateNextCandi
 201 00c6 00BF     		.align	2
 202 00c8 AFF30080 		.p2align 4,,15
 202      AFF30080 
 203              		.global	_ZN6clouds10Correlator11StartSearchElll
 204              		.thumb
 205              		.thumb_func
 206              		.type	_ZN6clouds10Correlator11StartSearchElll, %function
 207              	_ZN6clouds10Correlator11StartSearchElll:
 208              		.fnstart
 209              	.LFB455:
 210              		.loc 1 78 0
 211              		.cfi_startproc
 212              		@ args = 0, pretend = 0, frame = 0
 213              		@ frame_needed = 0, uses_anonymous_args = 0
 214              		@ link register save eliminated.
 215              	.LVL24:
 216 00d0 10B4     		push	{r4}
 217              		.cfi_def_cfa_offset 4
 218              		.cfi_offset 4, -4
 219              		.loc 1 81 0
 220 00d2 0024     		movs	r4, #0
 221 00d4 8461     		str	r4, [r0, #24]
 222              		.loc 1 82 0
 223 00d6 C461     		str	r4, [r0, #28]
 224              		.loc 1 83 0
 225 00d8 4461     		str	r4, [r0, #20]
 226              		.loc 1 85 0
ARM GAS  /tmp/cckFEW2X.s 			page 5


 227 00da 80F82440 		strb	r4, [r0, #36]
 228              		.loc 1 79 0
 229 00de 8260     		str	r2, [r0, #8]
 230              		.loc 1 80 0
 231 00e0 C360     		str	r3, [r0, #12]
 232              		.loc 1 84 0
 233 00e2 0161     		str	r1, [r0, #16]
 234              		.loc 1 86 0
 235 00e4 5DF8044B 		ldr	r4, [sp], #4
 236              		.cfi_restore 4
 237              		.cfi_def_cfa_offset 0
 238 00e8 7047     		bx	lr
 239              		.cfi_endproc
 240              	.LFE455:
 241              		.cantunwind
 242              		.fnend
 243              		.size	_ZN6clouds10Correlator11StartSearchElll, .-_ZN6clouds10Correlator11StartSearchElll
 244              	.Letext0:
 245              		.file 2 "/home/sbcu/Dropbox/pcb-layouts/axo-on-discovery-board/axoloti/platform_linux/arm-none-eab
 246              		.file 3 "/home/sbcu/Dropbox/pcb-layouts/axo-on-discovery-board/axoloti/platform_linux/arm-none-eab
 247              		.file 4 "/home/sbcu/Dropbox/pcb-layouts/axo-on-discovery-board/axoloti/platform_linux/lib/gcc/arm-
 248              		.file 5 "./mutable_instruments/stmlib/stmlib.h"
 249              		.file 6 "./mutable_instruments/clouds/dsp/correlator.h"
 250              		.file 7 "/home/sbcu/Dropbox/pcb-layouts/axo-on-discovery-board/axoloti/platform_linux/arm-none-eab
 251              		.file 8 "/home/sbcu/Dropbox/pcb-layouts/axo-on-discovery-board/axoloti/platform_linux/arm-none-eab
 252              		.file 9 "/home/sbcu/Dropbox/pcb-layouts/axo-on-discovery-board/axoloti/platform_linux/arm-none-eab
 253              		.file 10 "/home/sbcu/Dropbox/pcb-layouts/axo-on-discovery-board/axoloti/platform_linux/arm-none-ea
 254              		.file 11 "/home/sbcu/Dropbox/pcb-layouts/axo-on-discovery-board/axoloti/platform_linux/arm-none-ea
 255              		.file 12 "/home/sbcu/Dropbox/pcb-layouts/axo-on-discovery-board/axoloti/platform_linux/arm-none-ea
 256              		.file 13 "/home/sbcu/Dropbox/pcb-layouts/axo-on-discovery-board/axoloti/platform_linux/arm-none-ea
 257              		.file 14 "/home/sbcu/Dropbox/pcb-layouts/axo-on-discovery-board/axoloti/platform_linux/arm-none-ea
 258              		.file 15 "<built-in>"
 259              		.file 16 "/home/sbcu/Dropbox/pcb-layouts/axo-on-discovery-board/axoloti/platform_linux/arm-none-ea