ARM GAS  /tmp/ccbaX1zV.s 			page 1


   1              		.syntax unified
   2              		.cpu cortex-m4
   3              		.eabi_attribute 27, 1
   4              		.eabi_attribute 28, 1
   5              		.fpu fpv4-sp-d16
   6              		.eabi_attribute 20, 1
   7              		.eabi_attribute 21, 1
   8              		.eabi_attribute 23, 3
   9              		.eabi_attribute 24, 1
  10              		.eabi_attribute 25, 1
  11              		.eabi_attribute 26, 1
  12              		.eabi_attribute 30, 2
  13              		.eabi_attribute 34, 1
  14              		.eabi_attribute 18, 4
  15              		.thumb
  16              		.file	"crc32.c"
  17              		.text
  18              	.Ltext0:
  19              		.cfi_sections	.debug_frame
  20              		.align	2
  21              		.p2align 4,,15
  22              		.global	revbit
  23              		.thumb
  24              		.thumb_func
  25              		.type	revbit, %function
  26              	revbit:
  27              	.LFB130:
  28              		.file 1 "crc32.c"
  29              		.loc 1 25 0
  30              		.cfi_startproc
  31              		@ args = 0, pretend = 0, frame = 0
  32              		@ frame_needed = 0, uses_anonymous_args = 0
  33              		@ link register save eliminated.
  34              	.LVL0:
  35              		.loc 1 27 0
  36              	@ 27 "crc32.c" 1
  37 0000 90FAA0F0 		rbit r0, r0
  38              	@ 0 "" 2
  39              	.LVL1:
  40              		.loc 1 30 0
  41              		.thumb
  42 0004 7047     		bx	lr
  43              		.cfi_endproc
  44              	.LFE130:
  45              		.size	revbit, .-revbit
  46 0006 00BF     		.align	2
  47 0008 AFF30080 		.p2align 4,,15
  47      AFF30080 
  48              		.global	CalcCRC32
  49              		.thumb
  50              		.thumb_func
  51              		.type	CalcCRC32, %function
  52              	CalcCRC32:
  53              	.LFB131:
  54              		.loc 1 32 0
  55              		.cfi_startproc
  56              		@ args = 0, pretend = 0, frame = 8
ARM GAS  /tmp/ccbaX1zV.s 			page 2


  57              		@ frame_needed = 0, uses_anonymous_args = 0
  58              	.LVL2:
  59 0010 F0B5     		push	{r4, r5, r6, r7, lr}
  60              		.cfi_def_cfa_offset 20
  61              		.cfi_offset 4, -20
  62              		.cfi_offset 5, -16
  63              		.cfi_offset 6, -12
  64              		.cfi_offset 7, -8
  65              		.cfi_offset 14, -4
  66              		.loc 1 36 0
  67 0012 1E4A     		ldr	r2, .L16
  68              		.loc 1 37 0
  69 0014 1E4E     		ldr	r6, .L16+4
  70              		.loc 1 36 0
  71 0016 136B     		ldr	r3, [r2, #48]
  72              		.loc 1 37 0
  73 0018 0124     		movs	r4, #1
  74              		.loc 1 36 0
  75 001a 43F48053 		orr	r3, r3, #4096
  76 001e 1363     		str	r3, [r2, #48]
  77              		.loc 1 32 0
  78 0020 83B0     		sub	sp, sp, #12
  79              		.cfi_def_cfa_offset 32
  80              		.loc 1 37 0
  81 0022 B460     		str	r4, [r6, #8]
  82              		.loc 1 38 0
  83              	@ 38 "crc32.c" 1
  84 0024 00BF     		NOP
  85              	@ 0 "" 2
  86              		.loc 1 39 0
  87              	@ 39 "crc32.c" 1
  88 0026 00BF     		NOP
  89              	@ 0 "" 2
  90              		.loc 1 40 0
  91              	@ 40 "crc32.c" 1
  92 0028 00BF     		NOP
  93              	@ 0 "" 2
  94              		.loc 1 43 0
  95              		.thumb
  96 002a 8F08     		lsrs	r7, r1, #2
  97              	.LVL3:
  98 002c 7C1E     		subs	r4, r7, #1
  99              		.loc 1 45 0
 100 002e 0546     		mov	r5, r0
 101 0030 06E0     		b	.L3
 102              	.LVL4:
 103              	.L5:
 104              		.loc 1 46 0
 105 0032 55F8043B 		ldr	r3, [r5], #4
 106              	.LVL5:
 107              	.LBB6:
 108              	.LBB7:
 109              		.loc 1 27 0
 110              	@ 27 "crc32.c" 1
 111 0036 93FAA3F3 		rbit r3, r3
 112              	@ 0 "" 2
 113              	.LVL6:
ARM GAS  /tmp/ccbaX1zV.s 			page 3


 114              		.thumb
 115              	.LBE7:
 116              	.LBE6:
 117              		.loc 1 49 0
 118 003a 3360     		str	r3, [r6]
 119              	.LVL7:
 120              		.loc 1 50 0
 121 003c FCB1     		cbz	r4, .L14
 122              	.LVL8:
 123              	.L4:
 124 003e 013C     		subs	r4, r4, #1
 125              	.LVL9:
 126              	.L3:
 127              		.loc 1 45 0
 128 0040 631C     		adds	r3, r4, #1
 129 0042 F6D1     		bne	.L5
 130              		.loc 1 53 0
 131 0044 124B     		ldr	r3, .L16+4
 132 0046 00EB8704 		add	r4, r0, r7, lsl #2
 133              	.LVL10:
 134 004a 1868     		ldr	r0, [r3]
 135              	.LVL11:
 136              	.LBB8:
 137              	.LBB9:
 138              		.loc 1 27 0
 139              	@ 27 "crc32.c" 1
 140 004c 90FAA0F0 		rbit r0, r0
 141              	@ 0 "" 2
 142              	.LVL12:
 143              		.thumb
 144              	.LBE9:
 145              	.LBE8:
 146              		.loc 1 56 0
 147 0050 01F00301 		and	r1, r1, #3
 148              	.LVL13:
 149 0054 2144     		add	r1, r1, r4
 150              	.LVL14:
 151              		.loc 1 57 0
 152 0056 8C42     		cmp	r4, r1
 153 0058 0ED0     		beq	.L15
 154              	.LVL15:
 155              	.L10:
 156              		.loc 1 58 0
 157 005a 14F8012B 		ldrb	r2, [r4], #1	@ zero_extendqisi2
 158              	.LVL16:
 159 005e 0823     		movs	r3, #8
 160 0060 5040     		eors	r0, r0, r2
 161              	.LVL17:
 162              	.L9:
 163              		.loc 1 61 0
 164 0062 C507     		lsls	r5, r0, #31
 165              		.loc 1 62 0
 166 0064 4FEA5002 		lsr	r2, r0, #1
 167 0068 4ABF     		itet	mi
 168 006a 0A48     		ldrmi	r0, .L16+8
 169              	.LVL18:
 170              		.loc 1 64 0
ARM GAS  /tmp/ccbaX1zV.s 			page 4


 171 006c 4008     		lsrpl	r0, r0, #1
 172              		.loc 1 62 0
 173 006e 5040     		eormi	r0, r0, r2
 174              	.LVL19:
 175              		.loc 1 60 0
 176 0070 013B     		subs	r3, r3, #1
 177              	.LVL20:
 178 0072 F6D1     		bne	.L9
 179              	.LVL21:
 180              		.loc 1 57 0
 181 0074 8C42     		cmp	r4, r1
 182 0076 F0D1     		bne	.L10
 183              	.LVL22:
 184              	.L15:
 185              		.loc 1 68 0
 186 0078 C043     		mvns	r0, r0
 187              	.LVL23:
 188 007a 03B0     		add	sp, sp, #12
 189              		.cfi_remember_state
 190              		.cfi_def_cfa_offset 20
 191              		@ sp needed
 192 007c F0BD     		pop	{r4, r5, r6, r7, pc}
 193              	.LVL24:
 194              	.L14:
 195              		.cfi_restore_state
 196 007e 8DE80300 		stmia	sp, {r0, r1}
 197              		.loc 1 51 0
 198 0082 FFF7FEFF 		bl	watchdog_feed
 199              	.LVL25:
 200 0086 9DE80300 		ldmia	sp, {r0, r1}
 201 008a D8E7     		b	.L4
 202              	.L17:
 203              		.align	2
 204              	.L16:
 205 008c 00380240 		.word	1073887232
 206 0090 00300240 		.word	1073885184
 207 0094 2083B8ED 		.word	-306674912
 208              		.cfi_endproc
 209              	.LFE131:
 210              		.size	CalcCRC32, .-CalcCRC32
 211              	.Letext0:
 212              		.file 2 "/home/sbcu/Dropbox/pcb-layouts/axo-on-discovery-board/axoloti/platform_linux/arm-none-eab
 213              		.file 3 "/home/sbcu/Dropbox/pcb-layouts/axo-on-discovery-board/axoloti/platform_linux/arm-none-eab
 214              		.file 4 "/home/sbcu/Dropbox/pcb-layouts/axo-on-discovery-board/axoloti/platform_linux/../chibios/o
 215              		.file 5 "/home/sbcu/Dropbox/pcb-layouts/axo-on-discovery-board/axoloti/platform_linux/../CMSIS//In
 216              		.file 6 "exceptions.h"