ARM GAS  /tmp/ccBgl6wy.s 			page 1


   1              		.syntax unified
   2              		.cpu cortex-m4
   3              		.eabi_attribute 27, 1
   4              		.eabi_attribute 28, 1
   5              		.fpu fpv4-sp-d16
   6              		.eabi_attribute 20, 1
   7              		.eabi_attribute 21, 1
   8              		.eabi_attribute 23, 3
   9              		.eabi_attribute 24, 1
  10              		.eabi_attribute 25, 1
  11              		.eabi_attribute 26, 1
  12              		.eabi_attribute 30, 2
  13              		.eabi_attribute 34, 1
  14              		.eabi_attribute 18, 4
  15              		.thumb
  16              		.file	"crt0.c"
  17              		.text
  18              	.Ltext0:
  19              		.cfi_sections	.debug_frame
  20              		.align	2
  21              		.p2align 4,,15
  22              		.weak	__early_init
  23              		.thumb
  24              		.thumb_func
  25              		.type	__early_init, %function
  26              	__early_init:
  27              	.LFB0:
  28              		.file 1 "/home/sbcu/Dropbox/pcb-layouts/axo-on-discovery-board/axoloti/platform_linux/../chibios/o
  29              		.loc 1 234 0
  30              		.cfi_startproc
  31              		@ args = 0, pretend = 0, frame = 0
  32              		@ frame_needed = 0, uses_anonymous_args = 0
  33              		@ link register save eliminated.
  34 0000 7047     		bx	lr
  35              		.cfi_endproc
  36              	.LFE0:
  37              		.size	__early_init, .-__early_init
  38 0002 00BF     		.align	2
  39 0004 AFF30080 		.p2align 4,,15
  39      AFF30080 
  39      AFF30080 
  40              		.weak	__late_init
  41              		.thumb
  42              		.thumb_func
  43              		.type	__late_init, %function
  44              	__late_init:
  45              	.LFB1:
  46              		.loc 1 246 0
  47              		.cfi_startproc
  48              		@ args = 0, pretend = 0, frame = 0
  49              		@ frame_needed = 0, uses_anonymous_args = 0
  50              		@ link register save eliminated.
  51 0010 7047     		bx	lr
  52              		.cfi_endproc
  53              	.LFE1:
  54              		.size	__late_init, .-__late_init
  55 0012 00BF     		.align	2
ARM GAS  /tmp/ccBgl6wy.s 			page 2


  56 0014 AFF30080 		.p2align 4,,15
  56      AFF30080 
  56      AFF30080 
  57              		.weak	_default_exit
  58              		.thumb
  59              		.thumb_func
  60              		.type	_default_exit, %function
  61              	_default_exit:
  62              	.LFB2:
  63              		.loc 1 257 0
  64              		.cfi_startproc
  65              		@ Naked Function: prologue and epilogue provided by programmer.
  66              		@ args = 0, pretend = 0, frame = 0
  67              		@ frame_needed = 0, uses_anonymous_args = 0
  68              	.L4:
  69              		.loc 1 259 0 discriminator 1
  70 0020 FEE7     		b	.L4
  71              		.cfi_endproc
  72              	.LFE2:
  73              		.size	_default_exit, .-_default_exit
  74 0022 00BF     		.align	2
  75 0024 AFF30080 		.p2align 4,,15
  75      AFF30080 
  75      AFF30080 
  76              		.global	ResetHandler
  77              		.thumb
  78              		.thumb_func
  79              		.type	ResetHandler, %function
  80              	ResetHandler:
  81              	.LFB3:
  82              		.loc 1 268 0
  83              		.cfi_startproc
  84              		@ Naked Function: prologue and epilogue provided by programmer.
  85              		@ args = 0, pretend = 0, frame = 0
  86              		@ frame_needed = 0, uses_anonymous_args = 0
  87              		.loc 1 274 0
  88              	@ 274 "/home/sbcu/Dropbox/pcb-layouts/axo-on-discovery-board/axoloti/platform_linux/../chibios/os/p
  89 0030 72B6     		cpsid   i
  90              	@ 0 "" 2
  91              		.loc 1 275 0
  92              		.thumb
  93 0032 3748     		ldr	r0, .L32
  94              	.LVL0:
  95              		.loc 1 276 0
  96              	@ 276 "/home/sbcu/Dropbox/pcb-layouts/axo-on-discovery-board/axoloti/platform_linux/../chibios/os/p
  97 0034 80F30988 		msr     PSP, r0
  98              	@ 0 "" 2
  99              		.loc 1 283 0
 100              		.thumb
 101 0038 364A     		ldr	r2, .L32+4
 102              		.loc 1 280 0
 103 003a 3749     		ldr	r1, .L32+8
 104              		.loc 1 283 0
 105 003c 1368     		ldr	r3, [r2]
 106              		.loc 1 280 0
 107 003e 4FF04044 		mov	r4, #-1073741824
 108              		.loc 1 283 0
ARM GAS  /tmp/ccBgl6wy.s 			page 3


 109 0042 43F47003 		orr	r3, r3, #15728640
 110 0046 1360     		str	r3, [r2]
 111              	.LVL1:
 112              		.loc 1 280 0
 113 0048 0C60     		str	r4, [r1]
 114              		.loc 1 287 0
 115 004a 0023     		movs	r3, #0
 116              	@ 287 "/home/sbcu/Dropbox/pcb-layouts/axo-on-discovery-board/axoloti/platform_linux/../chibios/os/p
 117 004c E1EE103A 		vmsr    FPSCR, r3
 118              	@ 0 "" 2
 119              		.loc 1 296 0
 120              		.thumb
 121 0050 0622     		movs	r2, #6
 122              		.loc 1 288 0
 123 0052 8B60     		str	r3, [r1, #8]
 124              	.LVL2:
 125              		.loc 1 296 0
 126              	@ 296 "/home/sbcu/Dropbox/pcb-layouts/axo-on-discovery-board/axoloti/platform_linux/../chibios/os/p
 127 0054 82F31488 		msr     CONTROL, r2
 128              	@ 0 "" 2
 129              		.loc 1 297 0
 130              	@ 297 "/home/sbcu/Dropbox/pcb-layouts/axo-on-discovery-board/axoloti/platform_linux/../chibios/os/p
 131 0058 BFF36F8F 		isb
 132              	@ 0 "" 2
 133              	.LVL3:
 134              		.thumb
 135              	.LBB2:
 136              		.loc 1 301 0
 137 005c 2F4B     		ldr	r3, .L32+12
 138 005e 304A     		ldr	r2, .L32+16
 139 0060 9342     		cmp	r3, r2
 140 0062 0BD2     		bcs	.L10
 141 0064 D943     		mvns	r1, r3
 142 0066 0A44     		add	r2, r2, r1
 143 0068 22F00302 		bic	r2, r2, #3
 144 006c 0432     		adds	r2, r2, #4
 145 006e 1A44     		add	r2, r2, r3
 146 0070 4FF05531 		mov	r1, #1431655765
 147              	.LVL4:
 148              	.L9:
 149              		.loc 1 301 0 is_stmt 0 discriminator 3
 150 0074 43F8041B 		str	r1, [r3], #4
 151              	.LVL5:
 152 0078 9342     		cmp	r3, r2
 153 007a FBD1     		bne	.L9
 154              	.LVL6:
 155              	.L10:
 156              	.LBE2:
 157              	.LBB3:
 158              		.loc 1 304 0 is_stmt 1
 159 007c 294B     		ldr	r3, .L32+20
 160 007e 8342     		cmp	r3, r0
 161 0080 0CD2     		bcs	.L8
 162 0082 294A     		ldr	r2, .L32+24
 163 0084 191D     		adds	r1, r3, #4
 164 0086 521A     		subs	r2, r2, r1
 165 0088 22F00302 		bic	r2, r2, #3
ARM GAS  /tmp/ccBgl6wy.s 			page 4


 166 008c 0432     		adds	r2, r2, #4
 167 008e 1A44     		add	r2, r2, r3
 168 0090 4FF05531 		mov	r1, #1431655765
 169              	.LVL7:
 170              	.L13:
 171              		.loc 1 304 0 is_stmt 0 discriminator 3
 172 0094 43F8041B 		str	r1, [r3], #4
 173              	.LVL8:
 174 0098 9342     		cmp	r3, r2
 175 009a FBD1     		bne	.L13
 176              	.LVL9:
 177              	.L8:
 178              	.LBE3:
 179              		.loc 1 310 0 is_stmt 1
 180 009c FFF7FEFF 		bl	__early_init
 181              	.LVL10:
 182              	.LBB4:
 183              		.loc 1 319 0
 184 00a0 224A     		ldr	r2, .L32+28
 185 00a2 234B     		ldr	r3, .L32+32
 186 00a4 9A42     		cmp	r2, r3
 187 00a6 0CD2     		bcs	.L12
 188 00a8 D043     		mvns	r0, r2
 189 00aa 1844     		add	r0, r0, r3
 190 00ac 20F00300 		bic	r0, r0, #3
 191 00b0 204B     		ldr	r3, .L32+36
 192 00b2 0430     		adds	r0, r0, #4
 193 00b4 1844     		add	r0, r0, r3
 194              	.LVL11:
 195              	.L16:
 196              		.loc 1 320 0
 197 00b6 53F8041B 		ldr	r1, [r3], #4
 198              	.LVL12:
 199 00ba 42F8041B 		str	r1, [r2], #4
 200              	.LVL13:
 201              		.loc 1 319 0
 202 00be 8342     		cmp	r3, r0
 203 00c0 F9D1     		bne	.L16
 204              	.LVL14:
 205              	.L12:
 206              	.LBE4:
 207              	.LBB5:
 208              		.loc 1 326 0
 209 00c2 1D4B     		ldr	r3, .L32+40
 210 00c4 1D4A     		ldr	r2, .L32+44
 211 00c6 9342     		cmp	r3, r2
 212 00c8 0AD2     		bcs	.L15
 213 00ca D943     		mvns	r1, r3
 214 00cc 0A44     		add	r2, r2, r1
 215 00ce 22F00302 		bic	r2, r2, #3
 216 00d2 0432     		adds	r2, r2, #4
 217 00d4 1A44     		add	r2, r2, r3
 218 00d6 0021     		movs	r1, #0
 219              	.LVL15:
 220              	.L19:
 221              		.loc 1 326 0 is_stmt 0 discriminator 3
 222 00d8 43F8041B 		str	r1, [r3], #4
ARM GAS  /tmp/ccBgl6wy.s 			page 5


 223              	.LVL16:
 224 00dc 9342     		cmp	r3, r2
 225 00de FBD1     		bne	.L19
 226              	.LVL17:
 227              	.L15:
 228              	.LBE5:
 229              	.LBB6:
 230              		.loc 1 336 0 is_stmt 1
 231 00e0 174D     		ldr	r5, .L32+48
 232 00e2 184C     		ldr	r4, .L32+52
 233              	.LBE6:
 234              		.loc 1 330 0
 235 00e4 FFF7FEFF 		bl	__late_init
 236              	.LVL18:
 237              	.LBB7:
 238              		.loc 1 336 0
 239 00e8 AC42     		cmp	r4, r5
 240 00ea 04D2     		bcs	.L18
 241              	.LVL19:
 242              	.L17:
 243              		.loc 1 337 0
 244 00ec 54F8043B 		ldr	r3, [r4], #4
 245              	.LVL20:
 246 00f0 9847     		blx	r3
 247              	.LVL21:
 248              		.loc 1 336 0
 249 00f2 AC42     		cmp	r4, r5
 250 00f4 FAD3     		bcc	.L17
 251              	.LVL22:
 252              	.L18:
 253              	.LBE7:
 254              	.LBB8:
 255              		.loc 1 350 0
 256 00f6 144D     		ldr	r5, .L32+56
 257 00f8 144C     		ldr	r4, .L32+60
 258              	.LBE8:
 259              		.loc 1 344 0
 260 00fa FFF7FEFF 		bl	main
 261              	.LVL23:
 262              	.LBB9:
 263              		.loc 1 350 0
 264 00fe AC42     		cmp	r4, r5
 265 0100 04D2     		bcs	.L21
 266              	.LVL24:
 267              	.L20:
 268              		.loc 1 351 0
 269 0102 54F8043B 		ldr	r3, [r4], #4
 270              	.LVL25:
 271 0106 9847     		blx	r3
 272              	.LVL26:
 273              		.loc 1 350 0
 274 0108 AC42     		cmp	r4, r5
 275 010a FAD3     		bcc	.L20
 276              	.LVL27:
 277              	.L21:
 278              	.LBE9:
 279              		.loc 1 358 0
ARM GAS  /tmp/ccBgl6wy.s 			page 6


 280 010c FFF7FEFF 		bl	_default_exit
 281              	.LVL28:
 282              		.loc 1 359 0
 283              	.L33:
 284              		.align	2
 285              	.L32:
 286 0110 00000000 		.word	__process_stack_end__
 287 0114 88ED00E0 		.word	-536810104
 288 0118 34EF00E0 		.word	-536809676
 289 011c 00000000 		.word	__main_stack_base__
 290 0120 00000000 		.word	__main_stack_end__
 291 0124 00000000 		.word	__process_stack_base__
 292 0128 03000000 		.word	__process_stack_end__+3
 293 012c 00000000 		.word	_data
 294 0130 00000000 		.word	_edata
 295 0134 00000000 		.word	_textdata
 296 0138 00000000 		.word	_bss_start
 297 013c 00000000 		.word	_bss_end
 298 0140 00000000 		.word	__init_array_end
 299 0144 00000000 		.word	__init_array_start
 300 0148 00000000 		.word	__fini_array_end
 301 014c 00000000 		.word	__fini_array_start
 302              		.cfi_endproc
 303              	.LFE3:
 304              		.size	ResetHandler, .-ResetHandler
 305              	.Letext0:
 306              		.file 2 "/home/sbcu/Dropbox/pcb-layouts/axo-on-discovery-board/axoloti/platform_linux/arm-none-eab
 307              		.file 3 "/home/sbcu/Dropbox/pcb-layouts/axo-on-discovery-board/axoloti/platform_linux/arm-none-eab