ARM GAS  /tmp/ccuLV1lx.s 			page 1


   1              		.syntax unified
   2              		.cpu cortex-m4
   3              		.eabi_attribute 27, 1
   4              		.eabi_attribute 28, 1
   5              		.fpu fpv4-sp-d16
   6              		.eabi_attribute 20, 1
   7              		.eabi_attribute 21, 1
   8              		.eabi_attribute 23, 3
   9              		.eabi_attribute 24, 1
  10              		.eabi_attribute 25, 1
  11              		.eabi_attribute 26, 1
  12              		.eabi_attribute 30, 2
  13              		.eabi_attribute 34, 1
  14              		.eabi_attribute 18, 4
  15              		.thumb
  16              		.file	"envelope.cpp"
  17              		.text
  18              	.Ltext0:
  19              		.cfi_sections	.debug_frame
  20              		.align	2
  21              		.p2align 4,,15
  22              		.global	_ZN7streams8Envelope4InitEv
  23              		.thumb
  24              		.thumb_func
  25              		.type	_ZN7streams8Envelope4InitEv, %function
  26              	_ZN7streams8Envelope4InitEv:
  27              		.fnstart
  28              	.LFB473:
  29              		.file 1 "./mutable_instruments/streams/envelope.cpp"
  30              		.loc 1 44 0
  31              		.cfi_startproc
  32              		@ args = 0, pretend = 0, frame = 0
  33              		@ frame_needed = 0, uses_anonymous_args = 0
  34              		@ link register save eliminated.
  35              	.LVL0:
  36 0000 30B4     		push	{r4, r5}
  37              		.cfi_def_cfa_offset 8
  38              		.cfi_offset 4, -8
  39              		.cfi_offset 5, -4
  40              		.loc 1 45 0
  41 0002 00F12203 		add	r3, r0, #34
  42 0006 00F12A04 		add	r4, r0, #42
  43              	.LVL1:
  44              	.LBB22:
  45              	.LBB23:
  46              	.LBB24:
  47              		.file 2 "/home/sbcu/Dropbox/pcb-layouts/axo-on-discovery-board/axoloti/platform_linux/arm-none-eab
  48              		.loc 2 693 0
  49 000a 0021     		movs	r1, #0
  50              	.LVL2:
  51              	.L2:
  52 000c 03F8011B 		strb	r1, [r3], #1
  53              	.LVL3:
  54              		.loc 2 692 0
  55 0010 A342     		cmp	r3, r4
  56              		.loc 2 693 0
  57 0012 4FF00002 		mov	r2, #0
ARM GAS  /tmp/ccuLV1lx.s 			page 2


  58              		.loc 2 692 0
  59 0016 F9D1     		bne	.L2
  60              	.LVL4:
  61              	.LBE24:
  62              	.LBE23:
  63              	.LBE22:
  64              	.LBB25:
  65              	.LBB26:
  66              		.file 3 "./mutable_instruments/streams/envelope.h"
  67              		.loc 3 105 0
  68 0018 0223     		movs	r3, #2
  69              	.LVL5:
  70              		.loc 3 109 0
  71 001a 47F6FF75 		movw	r5, #32767
  72              		.loc 3 113 0
  73 001e 4FF40054 		mov	r4, #8192
  74              	.LVL6:
  75              		.loc 3 116 0
  76 0022 0121     		movs	r1, #1
  77              		.loc 3 109 0
  78 0024 8580     		strh	r5, [r0, #4]	@ movhi
  79              		.loc 3 113 0
  80 0026 8482     		strh	r4, [r0, #20]	@ movhi
  81              		.loc 3 106 0
  82 0028 4287     		strh	r2, [r0, #58]	@ movhi
  83              		.loc 3 108 0
  84 002a 4280     		strh	r2, [r0, #2]	@ movhi
  85              		.loc 3 110 0
  86 002c C280     		strh	r2, [r0, #6]	@ movhi
  87              		.loc 3 112 0
  88 002e 4282     		strh	r2, [r0, #18]	@ movhi
  89              		.loc 3 115 0
  90 0030 80F82220 		strb	r2, [r0, #34]
  91              	.LBE26:
  92              	.LBE25:
  93              		.loc 1 48 0
  94 0034 0263     		str	r2, [r0, #48]
  95              		.loc 1 49 0
  96 0036 4263     		str	r2, [r0, #52]
  97              		.loc 1 50 0
  98 0038 8285     		strh	r2, [r0, #44]	@ movhi
  99              		.loc 1 51 0
 100 003a C285     		strh	r2, [r0, #46]	@ movhi
 101              		.loc 1 52 0
 102 003c 4265     		str	r2, [r0, #84]
 103              		.loc 1 53 0
 104 003e 8265     		str	r2, [r0, #88]
 105              		.loc 1 54 0
 106 0040 0270     		strb	r2, [r0]
 107              		.loc 1 55 0
 108 0042 80F85120 		strb	r2, [r0, #81]
 109              		.loc 1 56 0
 110 0046 A0F84C20 		strh	r2, [r0, #76]	@ movhi
 111              		.loc 1 57 0
 112 004a A0F84E20 		strh	r2, [r0, #78]	@ movhi
 113              	.LBB29:
 114              	.LBB27:
ARM GAS  /tmp/ccuLV1lx.s 			page 3


 115              		.loc 3 105 0
 116 004e 0387     		strh	r3, [r0, #56]	@ movhi
 117              	.LBE27:
 118              	.LBE29:
 119              		.loc 1 47 0
 120 0050 4385     		strh	r3, [r0, #42]	@ movhi
 121              	.LBB30:
 122              	.LBB28:
 123              		.loc 3 116 0
 124 0052 80F82310 		strb	r1, [r0, #35]
 125              	.LBE28:
 126              	.LBE30:
 127              		.loc 1 58 0
 128 0056 30BC     		pop	{r4, r5}
 129              		.cfi_restore 5
 130              		.cfi_restore 4
 131              		.cfi_def_cfa_offset 0
 132 0058 7047     		bx	lr
 133              		.cfi_endproc
 134              	.LFE473:
 135              		.cantunwind
 136              		.fnend
 137              		.size	_ZN7streams8Envelope4InitEv, .-_ZN7streams8Envelope4InitEv
 138 005a 00BF     		.align	2
 139 005c AFF30080 		.p2align 4,,15
 140              		.global	_ZN7streams8Envelope7ProcessEssPtS1_
 141              		.thumb
 142              		.thumb_func
 143              		.type	_ZN7streams8Envelope7ProcessEssPtS1_, %function
 144              	_ZN7streams8Envelope7ProcessEssPtS1_:
 145              		.fnstart
 146              	.LFB474:
 147              		.loc 1 64 0
 148              		.cfi_startproc
 149              		@ args = 4, pretend = 0, frame = 8
 150              		@ frame_needed = 0, uses_anonymous_args = 0
 151              	.LVL7:
 152 0060 2DE9F04F 		push	{r4, r5, r6, r7, r8, r9, r10, fp, lr}
 153              		.cfi_def_cfa_offset 36
 154              		.cfi_offset 4, -36
 155              		.cfi_offset 5, -32
 156              		.cfi_offset 6, -28
 157              		.cfi_offset 7, -24
 158              		.cfi_offset 8, -20
 159              		.cfi_offset 9, -16
 160              		.cfi_offset 10, -12
 161              		.cfi_offset 11, -8
 162              		.cfi_offset 14, -4
 163              	.LBB31:
 164              		.loc 1 66 0
 165 0064 416C     		ldr	r1, [r0, #68]
 166              	.LVL8:
 167              		.loc 1 67 0
 168 0066 846C     		ldr	r4, [r0, #72]
 169              		.loc 1 66 0
 170 0068 C66B     		ldr	r6, [r0, #60]
 171              		.loc 1 67 0
ARM GAS  /tmp/ccuLV1lx.s 			page 4


 172 006a 056C     		ldr	r5, [r0, #64]
 173              		.loc 1 71 0
 174 006c 0778     		ldrb	r7, [r0]	@ zero_extendqisi2
 175              	.LBE31:
 176              		.loc 1 64 0
 177 006e 83B0     		sub	sp, sp, #12
 178              		.cfi_def_cfa_offset 48
 179              	.LBB40:
 180              		.loc 1 66 0
 181 0070 761A     		subs	r6, r6, r1
 182              		.loc 1 67 0
 183 0072 2D1B     		subs	r5, r5, r4
 184              		.loc 1 66 0
 185 0074 01EB2621 		add	r1, r1, r6, asr #8
 186              		.loc 1 67 0
 187 0078 04EB2524 		add	r4, r4, r5, asr #8
 188              		.loc 1 66 0
 189 007c 0091     		str	r1, [sp]
 190              	.LBE40:
 191              		.loc 1 64 0
 192 007e 0193     		str	r3, [sp, #4]
 193              	.LBB41:
 194              		.loc 1 66 0
 195 0080 4164     		str	r1, [r0, #68]
 196              		.loc 1 67 0
 197 0082 8464     		str	r4, [r0, #72]
 198              	.LVL9:
 199              		.loc 1 71 0
 200 0084 1FBB     		cbnz	r7, .L7
 201              		.loc 1 72 0
 202 0086 43F25553 		movw	r3, #13653
 203              	.LVL10:
 204 008a 9A42     		cmp	r2, r3
 205 008c 40F3CC80 		ble	.L8
 206              	.LVL11:
 207              		.loc 1 87 0
 208 0090 B0F83890 		ldrh	r9, [r0, #56]
 209 0094 B0F92A30 		ldrsh	r3, [r0, #42]
 210              	.LBB32:
 211              	.LBB33:
 212              		.loc 3 207 0
 213 0098 80F85170 		strb	r7, [r0, #81]
 214              	.LBE33:
 215              	.LBE32:
 216              		.loc 1 74 0
 217 009c 0125     		movs	r5, #1
 218              		.loc 1 89 0
 219 009e 4B45     		cmp	r3, r9
 220              		.loc 1 74 0
 221 00a0 0570     		strb	r5, [r0]
 222              	.LVL12:
 223              		.loc 1 89 0
 224 00a2 00F0C380 		beq	.L29
 225 00a6 C78D     		ldrh	r7, [r0, #46]
 226              	.L13:
 227              		.loc 1 89 0 is_stmt 0 discriminator 2
 228 00a8 8785     		strh	r7, [r0, #44]	@ movhi
ARM GAS  /tmp/ccuLV1lx.s 			page 5


 229              		.loc 1 90 0 is_stmt 1 discriminator 2
 230 00aa 0023     		movs	r3, #0
 231              		.loc 1 103 0 discriminator 2
 232 00ac 9C46     		mov	ip, r3
 233              		.loc 1 104 0 discriminator 2
 234 00ae CC45     		cmp	ip, r9
 235              		.loc 1 103 0 discriminator 2
 236 00b0 1E46     		mov	r6, r3
 237              		.loc 1 90 0 discriminator 2
 238 00b2 4385     		strh	r3, [r0, #42]	@ movhi
 239              		.loc 1 91 0 discriminator 2
 240 00b4 0363     		str	r3, [r0, #48]
 241              		.loc 1 103 0 discriminator 2
 242 00b6 9E46     		mov	lr, r3
 243 00b8 1D46     		mov	r5, r3
 244 00ba 4FF00201 		mov	r1, #2
 245 00be 836D     		ldr	r3, [r0, #88]
 246              	.LVL13:
 247 00c0 4FF0010B 		mov	fp, #1
 248              	.LVL14:
 249              		.loc 1 104 0 discriminator 2
 250 00c4 32D1     		bne	.L19
 251              	.LVL15:
 252              	.L20:
 253 00c6 4FF00009 		mov	r9, #0
 254              		.loc 1 104 0 is_stmt 0
 255 00ca C846     		mov	r8, r9
 256 00cc 3AE0     		b	.L15
 257              	.LVL16:
 258              	.L7:
 259              		.loc 1 78 0 is_stmt 1
 260 00ce 41F6A923 		movw	r3, #6825
 261              	.LVL17:
 262 00d2 9A42     		cmp	r2, r3
 263 00d4 40F39080 		ble	.L30
 264              		.loc 1 83 0
 265 00d8 836D     		ldr	r3, [r0, #88]
 266 00da D51A     		subs	r5, r2, r3
 267 00dc 03EB2523 		add	r3, r3, r5, asr #8
 268 00e0 8365     		str	r3, [r0, #88]
 269              	.L12:
 270              		.loc 1 96 0
 271 00e2 056B     		ldr	r5, [r0, #48]
 272 00e4 466B     		ldr	r6, [r0, #52]
 273 00e6 B542     		cmp	r5, r6
 274 00e8 80F08E80 		bcs	.L31
 275              	.L17:
 276              		.loc 1 97 0
 277 00ec 458D     		ldrh	r5, [r0, #42]
 278 00ee B0F83890 		ldrh	r9, [r0, #56]
 279 00f2 2EB2     		sxth	r6, r5
 280 00f4 00EB4606 		add	r6, r0, r6, lsl #1
 281              		.loc 1 98 0
 282 00f8 0135     		adds	r5, r5, #1
 283 00fa ADB2     		uxth	r5, r5
 284              		.loc 1 97 0
 285 00fc B788     		ldrh	r7, [r6, #4]
ARM GAS  /tmp/ccuLV1lx.s 			page 6


 286 00fe 8785     		strh	r7, [r0, #44]	@ movhi
 287              		.loc 1 99 0
 288 0100 4FF0000E 		mov	lr, #0
 289 0104 0FFA85FC 		sxth	ip, r5
 290              		.loc 1 98 0
 291 0108 4585     		strh	r5, [r0, #42]	@ movhi
 292 010a 7646     		mov	r6, lr
 293 010c 0CF1010B 		add	fp, ip, #1
 294              		.loc 1 99 0
 295 0110 C0F830E0 		str	lr, [r0, #48]
 296 0114 7546     		mov	r5, lr
 297 0116 0221     		movs	r1, #2
 298              	.L18:
 299              	.LVL18:
 300              		.loc 1 103 0
 301 0118 B0F83A80 		ldrh	r8, [r0, #58]
 302 011c B8F1000F 		cmp	r8, #0
 303 0120 02D0     		beq	.L14
 304              		.loc 1 103 0 is_stmt 0 discriminator 1
 305 0122 E045     		cmp	r8, ip
 306 0124 00F08480 		beq	.L32
 307              	.L14:
 308              	.LVL19:
 309              		.loc 1 104 0 is_stmt 1
 310 0128 CC45     		cmp	ip, r9
 311 012a CCD0     		beq	.L20
 312              	.LVL20:
 313              	.L19:
 314              		.loc 1 104 0 is_stmt 0 discriminator 3
 315 012c 00EB4C08 		add	r8, r0, ip, lsl #1
 316 0130 DFF80C91 		ldr	r9, .L33
 317 0134 B8F81280 		ldrh	r8, [r8, #18]
 318 0138 4FEA2828 		asr	r8, r8, #8
 319 013c 59F82880 		ldr	r8, [r9, r8, lsl #2]
 320 0140 4FEAD819 		lsr	r9, r8, #7
 321              	.LVL21:
 322              	.L15:
 323              		.loc 1 115 0 is_stmt 1 discriminator 6
 324 0144 8444     		add	ip, ip, r0
 325 0146 DFF8FCA0 		ldr	r10, .L33+4
 326 014a 9CF822C0 		ldrb	ip, [ip, #34]	@ zero_extendqisi2
 327 014e 5AF82CA0 		ldr	r10, [r10, ip, lsl #2]
 328              	.LBB34:
 329              	.LBB35:
 330              		.file 4 "./mutable_instruments/stmlib/utils/dsp.h"
 331              		.loc 4 101 0 discriminator 6
 332 0152 3AF80EE0 		ldrh	lr, [r10, lr]
 333              		.loc 4 102 0 discriminator 6
 334 0156 3AF801A0 		ldrh	r10, [r10, r1]
 335              	.LBE35:
 336              	.LBE34:
 337              		.loc 1 107 0 discriminator 6
 338 015a 416D     		ldr	r1, [r0, #84]
 339              		.loc 1 113 0 discriminator 6
 340 015c 00EB4B0B 		add	fp, r0, fp, lsl #1
 341              	.LBB38:
 342              	.LBB36:
ARM GAS  /tmp/ccuLV1lx.s 			page 7


 343              		.loc 4 103 0 discriminator 6
 344 0160 CEEB0A0A 		rsb	r10, lr, r10
 345              	.LBE36:
 346              	.LBE38:
 347              		.loc 1 113 0 discriminator 6
 348 0164 BBF902B0 		ldrsh	fp, [fp, #2]
 349              	.LBB39:
 350              	.LBB37:
 351              		.loc 4 103 0 discriminator 6
 352 0168 06FB0AFA 		mul	r10, r6, r10
 353 016c 0EEB1A4E 		add	lr, lr, r10, lsr #16
 354              	.LBE37:
 355              	.LBE39:
 356              		.loc 1 112 0 discriminator 6
 357 0170 3EB2     		sxth	r6, r7
 358              		.loc 1 116 0 discriminator 6
 359 0172 C6EB0B0B 		rsb	fp, r6, fp
 360 0176 CEF34E0E 		ubfx	lr, lr, #1, #15
 361 017a 0EFB0BFE 		mul	lr, lr, fp
 362 017e 07EBEE37 		add	r7, r7, lr, asr #15
 363 0182 BFB2     		uxth	r7, r7
 364              		.loc 1 120 0 discriminator 6
 365 0184 0FFA87FA 		sxth	r10, r7
 366 0188 CAF5FF46 		rsb	r6, r10, #32640
 367 018c 7F36     		adds	r6, r6, #127
 368 018e 06FB06F6 		mul	r6, r6, r6
 369 0192 F613     		asrs	r6, r6, #15
 370              		.loc 1 121 0 discriminator 6
 371 0194 06FB06F6 		mul	r6, r6, r6
 372 0198 F613     		asrs	r6, r6, #15
 373 019a C6F5FF46 		rsb	r6, r6, #32640
 374 019e 7F36     		adds	r6, r6, #127
 375              		.loc 1 122 0 discriminator 6
 376 01a0 CAEB0606 		rsb	r6, r10, r6
 377              		.loc 1 107 0 discriminator 6
 378 01a4 43F2555E 		movw	lr, #13653
 379              		.loc 1 122 0 discriminator 6
 380 01a8 03FB06F6 		mul	r6, r3, r6
 381              		.loc 1 107 0 discriminator 6
 382 01ac 7245     		cmp	r2, lr
 383 01ae D8BF     		it	le
 384 01b0 0022     		movle	r2, #0
 385              	.LVL22:
 386              		.loc 1 123 0 discriminator 6
 387 01b2 DB10     		asrs	r3, r3, #3
 388              		.loc 1 122 0 discriminator 6
 389 01b4 0AEBE636 		add	r6, r10, r6, asr #15
 390              		.loc 1 107 0 discriminator 6
 391 01b8 521A     		subs	r2, r2, r1
 392              		.loc 1 123 0 discriminator 6
 393 01ba 03F5E043 		add	r3, r3, #28672
 394              		.loc 1 107 0 discriminator 6
 395 01be 01EB2232 		add	r2, r1, r2, asr #12
 396              		.loc 1 123 0 discriminator 6
 397 01c2 06FB03F3 		mul	r3, r6, r3
 398              		.loc 1 125 0 discriminator 6
 399 01c6 0099     		ldr	r1, [sp]
ARM GAS  /tmp/ccuLV1lx.s 			page 8


 400              		.loc 1 107 0 discriminator 6
 401 01c8 4265     		str	r2, [r0, #84]
 402              		.loc 1 123 0 discriminator 6
 403 01ca DB13     		asrs	r3, r3, #15
 404              		.loc 1 108 0 discriminator 6
 405 01cc D611     		asrs	r6, r2, #7
 406 01ce 09FB0686 		mla	r6, r9, r6, r8
 407              		.loc 1 125 0 discriminator 6
 408 01d2 03FB01F1 		mul	r1, r3, r1
 409              	.LVL23:
 410              		.loc 1 124 0 discriminator 6
 411 01d6 019A     		ldr	r2, [sp, #4]
 412              		.loc 1 116 0 discriminator 6
 413 01d8 C785     		strh	r7, [r0, #46]	@ movhi
 414              		.loc 1 124 0 discriminator 6
 415 01da 03EB0323 		add	r3, r3, r3, lsl #8
 416 01de 43F31023 		sbfx	r3, r3, #8, #17
 417              		.loc 1 117 0 discriminator 6
 418 01e2 3544     		add	r5, r5, r6
 419 01e4 0563     		str	r5, [r0, #48]
 420              		.loc 1 110 0 discriminator 6
 421 01e6 4663     		str	r6, [r0, #52]
 422              		.loc 1 124 0 discriminator 6
 423 01e8 1380     		strh	r3, [r2]	@ movhi
 424              		.loc 1 125 0 discriminator 6
 425 01ea 0C9B     		ldr	r3, [sp, #48]
 426 01ec 04EBE131 		add	r1, r4, r1, asr #15
 427              	.LVL24:
 428 01f0 1980     		strh	r1, [r3]	@ movhi
 429              	.LBE41:
 430              		.loc 1 126 0 discriminator 6
 431 01f2 03B0     		add	sp, sp, #12
 432              		.cfi_remember_state
 433              		.cfi_def_cfa_offset 36
 434              		@ sp needed
 435 01f4 BDE8F08F 		pop	{r4, r5, r6, r7, r8, r9, r10, fp, pc}
 436              	.LVL25:
 437              	.L30:
 438              		.cfi_restore_state
 439              	.LBB42:
 440              		.loc 1 96 0
 441 01f8 056B     		ldr	r5, [r0, #48]
 442 01fa 466B     		ldr	r6, [r0, #52]
 443              		.loc 1 79 0
 444 01fc 0023     		movs	r3, #0
 445              		.loc 1 96 0
 446 01fe B542     		cmp	r5, r6
 447              		.loc 1 79 0
 448 0200 0370     		strb	r3, [r0]
 449 0202 836D     		ldr	r3, [r0, #88]
 450              		.loc 1 96 0
 451 0204 FFF472AF 		bcc	.L17
 452              	.L31:
 453 0208 4FEA156E 		lsr	lr, r5, #24
 454 020c B0F92AC0 		ldrsh	ip, [r0, #42]
 455 0210 B0F83890 		ldrh	r9, [r0, #56]
 456 0214 878D     		ldrh	r7, [r0, #44]
ARM GAS  /tmp/ccuLV1lx.s 			page 9


 457 0216 4FEA4E0E 		lsl	lr, lr, #1
 458 021a 0EF10201 		add	r1, lr, #2
 459 021e 0CF1010B 		add	fp, ip, #1
 460 0222 C5F30F26 		ubfx	r6, r5, #8, #16
 461 0226 77E7     		b	.L18
 462              	.L8:
 463 0228 836D     		ldr	r3, [r0, #88]
 464 022a 5AE7     		b	.L12
 465              	.LVL26:
 466              	.L29:
 467              		.loc 1 89 0 discriminator 1
 468 022c 4788     		ldrh	r7, [r0, #2]
 469 022e 3BE7     		b	.L13
 470              	.LVL27:
 471              	.L32:
 472              		.loc 1 103 0 discriminator 3
 473 0230 90F80080 		ldrb	r8, [r0]	@ zero_extendqisi2
 474 0234 B8F1000F 		cmp	r8, #0
 475 0238 7FF445AF 		bne	.L20
 476 023c 74E7     		b	.L14
 477              	.L34:
 478 023e 00BF     		.align	2
 479              	.L33:
 480 0240 00000000 		.word	_ZN7streams18lut_env_incrementsE
 481 0244 00000000 		.word	_ZN7streams18lookup_table_tableE
 482              	.LBE42:
 483              		.cfi_endproc
 484              	.LFE474:
 485              		.cantunwind
 486              		.fnend
 487              		.size	_ZN7streams8Envelope7ProcessEssPtS1_, .-_ZN7streams8Envelope7ProcessEssPtS1_
 488              	.Letext0:
 489              		.file 5 "/home/sbcu/Dropbox/pcb-layouts/axo-on-discovery-board/axoloti/platform_linux/arm-none-eab
 490              		.file 6 "/home/sbcu/Dropbox/pcb-layouts/axo-on-discovery-board/axoloti/platform_linux/arm-none-eab
 491              		.file 7 "/home/sbcu/Dropbox/pcb-layouts/axo-on-discovery-board/axoloti/platform_linux/lib/gcc/arm-
 492              		.file 8 "./mutable_instruments/stmlib/stmlib.h"
 493              		.file 9 "./mutable_instruments/streams/meta_parameters.h"
 494              		.file 10 "./mutable_instruments/streams/resources.h"
 495              		.file 11 "./mutable_instruments/streams/gain.h"
 496              		.file 12 "/home/sbcu/Dropbox/pcb-layouts/axo-on-discovery-board/axoloti/platform_linux/arm-none-ea
 497              		.file 13 "/home/sbcu/Dropbox/pcb-layouts/axo-on-discovery-board/axoloti/platform_linux/arm-none-ea
 498              		.file 14 "/home/sbcu/Dropbox/pcb-layouts/axo-on-discovery-board/axoloti/platform_linux/arm-none-ea
 499              		.file 15 "/home/sbcu/Dropbox/pcb-layouts/axo-on-discovery-board/axoloti/platform_linux/arm-none-ea
 500              		.file 16 "/home/sbcu/Dropbox/pcb-layouts/axo-on-discovery-board/axoloti/platform_linux/arm-none-ea
 501              		.file 17 "/home/sbcu/Dropbox/pcb-layouts/axo-on-discovery-board/axoloti/platform_linux/arm-none-ea
 502              		.file 18 "/home/sbcu/Dropbox/pcb-layouts/axo-on-discovery-board/axoloti/platform_linux/arm-none-ea
 503              		.file 19 "/home/sbcu/Dropbox/pcb-layouts/axo-on-discovery-board/axoloti/platform_linux/arm-none-ea
 504              		.file 20 "/home/sbcu/Dropbox/pcb-layouts/axo-on-discovery-board/axoloti/platform_linux/arm-none-ea
 505              		.file 21 "/home/sbcu/Dropbox/pcb-layouts/axo-on-discovery-board/axoloti/platform_linux/arm-none-ea
 506              		.file 22 "<built-in>"