ARM GAS  /tmp/ccuLV1lx.s 			page 1


   1              		.syntax unified
   2              		.cpu cortex-m4
   3              		.eabi_attribute 27, 1
   4              		.eabi_attribute 28, 1
   5              		.fpu fpv4-sp-d16
   6              		.eabi_attribute 20, 1
   7              		.eabi_attribute 21, 1
   8              		.eabi_attribute 23, 3
   9              		.eabi_attribute 24, 1
  10              		.eabi_attribute 25, 1
  11              		.eabi_attribute 26, 1
  12              		.eabi_attribute 30, 2
  13              		.eabi_attribute 34, 1
  14              		.eabi_attribute 18, 4
  15              		.thumb
  16              		.file	"envelope.cpp"
  17              		.text
  18              	.Ltext0:
  19              		.cfi_sections	.debug_frame
  20              		.align	2
  21              		.p2align 4,,15
  22              		.global	_ZN7streams8Envelope4InitEv
  23              		.thumb
  24              		.thumb_func
  25              		.type	_ZN7streams8Envelope4InitEv, %function
  26              	_ZN7streams8Envelope4InitEv:
  27              		.fnstart
  28              	.LFB473:
  29              		.file 1 "./mutable_instruments/streams/envelope.cpp"
  30              		.loc 1 44 0
  31              		.cfi_startproc
  32              		@ args = 0, pretend = 0, frame = 0
  33              		@ frame_needed = 0, uses_anonymous_args = 0
  34              		@ link register save eliminated.
  35              	.LVL0:
  36 0000 30B4     		push	{r4, r5}
  37              		.cfi_def_cfa_offset 8
  38              		.cfi_offset 4, -8
  39              		.cfi_offset 5, -4
  40              		.loc 1 45 0
  41 0002 00F12203 		add	r3, r0, #34
  42 0006 00F12A04 		add	r4, r0, #42
  43              	.LVL1:
  44              	.LBB22:
  45              	.LBB23:
  46              	.LBB24:
  47              		.file 2 "/home/sbcu/Dropbox/pcb-layouts/axo-on-discovery-board/axoloti/platform_linux/arm-none-eab
  48              		.loc 2 693 0
  49 000a 0021     		movs	r1, #0
  50              	.LVL2:
  51              	.L2:
  52 000c 03F8011B 		strb	r1, [r3], #1
  53              	.LVL3:
  54              		.loc 2 692 0
  55 0010 A342     		cmp	r3, r4
  56              		.loc 2 693 0
  57 0012 4FF00002 		mov	r2, #0
ARM GAS  /tmp/ccuLV1lx.s 			page 2


  58              		.loc 2 692 0
  59 0016 F9D1     		bne	.L2
  60              	.LVL4:
  61              	.LBE24:
  62              	.LBE23:
  63              	.LBE22:
  64              	.LBB25:
  65              	.LBB26:
  66              		.file 3 "./mutable_instruments/streams/envelope.h"
  67              		.loc 3 105 0
  68 0018 0223     		movs	r3, #2
  69              	.LVL5:
  70              		.loc 3 109 0
  71 001a 47F6FF75 		movw	r5, #32767
  72              		.loc 3 113 0
  73 001e 4FF40054 		mov	r4, #8192
  74              	.LVL6:
  75              		.loc 3 116 0
  76 0022 0121     		movs	r1, #1
  77              		.loc 3 109 0
  78 0024 8580     		strh	r5, [r0, #4]	@ movhi
  79              		.loc 3 113 0
  80 0026 8482     		strh	r4, [r0, #20]	@ movhi
  81              		.loc 3 106 0
  82 0028 4287     		strh	r2, [r0, #58]	@ movhi
  83              		.loc 3 108 0
  84 002a 4280     		strh	r2, [r0, #2]	@ movhi
  85              		.loc 3 110 0
  86 002c C280     		strh	r2, [r0, #6]	@ movhi
  87              		.loc 3 112 0
  88 002e 4282     		strh	r2, [r0, #18]	@ movhi
  89              		.loc 3 115 0
  90 0030 80F82220 		strb	r2, [r0, #34]
  91              	.LBE26:
  92              	.LBE25:
  93              		.loc 1 48 0
  94 0034 0263     		str	r2, [r0, #48]
  95              		.loc 1 49 0
  96 0036 4263     		str	r2, [r0, #52]
  97              		.loc 1 50 0
  98 0038 8285     		strh	r2, [r0, #44]	@ movhi
  99              		.loc 1 51 0
 100 003a C285     		strh	r2, [r0, #46]	@ movhi
 101              		.loc 1 52 0
 102 003c 4265     		str	r2, [r0, #84]
 103              		.loc 1 53 0
 104 003e 8265     		str	r2, [r0, #88]
 105              		.loc 1 54 0
 106 0040 0270     		strb	r2, [r0]
 107              		.loc 1 55 0
 108 0042 80F85120 		strb	r2, [r0, #81]
 109              		.loc 1 56 0
 110 0046 A0F84C20 		strh	r2, [r0, #76]	@ movhi
 111              		.loc 1 57 0
 112 004a A0F84E20 		strh	r2, [r0, #78]	@ movhi
 113              	.LBB29:
 114              	.LBB27:
ARM GAS  /tmp/ccuLV1lx.s 			page 3


 115              		.loc 3 105 0
 116 004e 0387     		strh	r3, [r0, #56]	@ movhi
 117              	.LBE27:
 118              	.LBE29:
 119              		.loc 1 47 0
 120 0050 4385     		strh	r3, [r0, #42]	@ movhi
 121              	.LBB30:
 122              	.LBB28:
 123              		.loc 3 116 0
 124 0052 80F82310 		strb	r1, [r0, #35]
 125              	.LBE28:
 126              	.LBE30:
 127              		.loc 1 58 0
 128 0056 30BC     		pop	{r4, r5}
 129              		.cfi_restore 5
 130              		.cfi_restore 4
 131              		.cfi_def_cfa_offset 0
 132 0058 7047     		bx	lr
 133              		.cfi_endproc
 134              	.LFE473:
 135              		.cantunwind
 136              		.fnend
 137              		.size	_ZN7streams8Envelope4InitEv, .-_ZN7streams8Envelope4InitEv
 138 005a 00BF     		.align	2
 139 005c AFF30080 		.p2align 4,,15
 140              		.global	_ZN7streams8Envelope7ProcessEssPtS1_
 141              		.thumb
 142              		.thumb_func
 143              		.type	_ZN7streams8Envelope7ProcessEssPtS1_, %function
 144              	_ZN7streams8Envelope7ProcessEssPtS1_:
 145              		.fnstart
 146              	.LFB474:
 147              		.loc 1 64 0
 148              		.cfi_startproc
 149              		@ args = 4, pretend = 0, frame = 8
 150              		@ frame_needed = 0, uses_anonymous_args = 0
 151              	.LVL7:
 152 0060 2DE9F04F 		push	{r4, r5, r6, r7, r8, r9, r10, fp, lr}
 153              		.cfi_def_cfa_offset 36
 154              		.cfi_offset 4, -36
 155              		.cfi_offset 5, -32
 156              		.cfi_offset 6, -28
 157              		.cfi_offset 7, -24
 158              		.cfi_offset 8, -20
 159              		.cfi_offset 9, -16
 160              		.cfi_offset 10, -12
 161              		.cfi_offset 11, -8
 162              		.cfi_offset 14, -4
 163              	.LBB31:
 164              		.loc 1 66 0
 165 0064 416C     		ldr	r1, [r0, #68]
 166              	.LVL8:
 167              		.loc 1 67 0
 168 0066 846C     		ldr	r4, [r0, #72]
 169              		.loc 1 66 0
 170 0068 C66B     		ldr	r6, [r0, #60]
 171              		.loc 1 67 0
ARM GAS  /tmp/ccuLV1lx.s 			page 4


 172 006a 056C     		ldr	r5, [r0, #64]
 173              		.loc 1 71 0
 174 006c 0778     		ldrb	r7, [r0]	@ zero_extendqisi2
 175              	.LBE31:
 176              		.loc 1 64 0
 177 006e 83B0     		sub	sp, sp, #12
 178              		.cfi_def_cfa_offset 48
 179              	.LBB40:
 180              		.loc 1 66 0
 181 0070 761A     		subs	r6, r6, r1
 182              		.loc 1 67 0
 183 0072 2D1B     		subs	r5, r5, r4
 184              		.loc 1 66 0
 185 0074 01EB2621 		add	r1, r1, r6, asr #8
 186              		.loc 1 67 0
 187 0078 04EB2524 		add	r4, r4, r5, asr #8
 188              		.loc 1 66 0
 189 007c 0091     		str	r1, [sp]
 190              	.LBE40:
 191              		.loc 1 64 0
 192 007e 0193     		str	r3, [sp, #4]
 193              	.LBB41:
 194              		.loc 1 66 0
 195 0080 4164     		str	r1, [r0, #68]
 196              		.loc 1 67 0
 197 0082 8464     		str	r4, [r0, #72]
 198              	.LVL9:
 199              		.loc 1 71 0
 200 0084 1FBB     		cbnz	r7, .L7
 201              		.loc 1 72 0
 202 0086 43F25553 		movw	r3, #13653
 203              	.LVL10:
 204 008a 9A42     		cmp	r2, r3
 205 008c 40F3CC80 		ble	.L8
 206              	.LVL11:
 207              		.loc 1 87 0
 208 0090 B0F83890 		ldrh	r9, [r0, #56]
 209 0094 B0F92A30 		ldrsh	r3, [r0, #42]
 210              	.LBB32:
 211              	.LBB33:
 212              		.loc 3 207 0
 213 0098 80F85170 		strb	r7, [r0, #81]
 214              	.LBE33:
 215              	.LBE32:
 216              		.loc 1 74 0
 217 009c 0125     		movs	r5, #1
 218              		.loc 1 89 0
 219 009e 4B45     		cmp	r3, r9
 220              		.loc 1 74 0
 221 00a0 0570     		strb	r5, [r0]
 222              	.LVL12:
 223              		.loc 1 89 0
 224 00a2 00F0C380 		beq	.L29
 225 00a6 C78D     		ldrh	r7, [r0, #46]
 226              	.L13:
 227              		.loc 1 89 0 is_stmt 0 discriminator 2
 228 00a8 8785     		strh	r7, [r0, #44]	@ movhi
ARM GAS  /tmp/ccuLV1lx.s 			page 5


 229              		.loc 1 90 0 is_stmt 1 discriminator 2
 230 00aa 0023     		movs	r3, #0
 231              		.loc 1 103 0 discriminator 2
 232 00ac 9C46     		mov	ip, r3
 233              		.loc 1 104 0 discriminator 2
 234 00ae CC45     		cmp	ip, r9
 235              		.loc 1 103 0 discriminator 2
 236 00b0 1E46     		mov	r6, r3
 237              		.loc 1 90 0 discriminator 2
 238 00b2 4385     		strh	r3, [r0, #42]	@ movhi
 239              		.loc 1 91 0 discriminator 2
 240 00b4 0363     		str	r3, [r0, #48]
 241              		.loc 1 103 0 discriminator 2
 242 00b6 9E46     		mov	lr, r3
 243 00b8 1D46     		mov	r5, r3
 244 00ba 4FF00201 		mov	r1, #2
 245 00be 836D     		ldr	r3, [r0, #88]
 246              	.LVL13:
 247 00c0 4FF0010B 		mov	fp, #1
 248              	.LVL14:
 249              		.loc 1 104 0 discriminator 2
 250 00c4 32D1     		bne	.L19
 251              	.LVL15:
 252              	.L20:
 253 00c6 4FF00009 		mov	r9, #0
 254              		.loc 1 104 0 is_stmt 0
 255 00ca C846     		mov	r8, r9
 256 00cc 3AE0     		b	.L15
 257              	.LVL16:
 258              	.L7:
 259              		.loc 1 78 0 is_stmt 1
 260 00ce 41F6A923 		movw	r3, #6825
 261              	.LVL17:
 262 00d2 9A42     		cmp	r2, r3
 263 00d4 40F39080 		ble	.L30
 264              		.loc 1 83 0
 265 00d8 836D     		ldr	r3, [r0, #88]
 266 00da D51A     		subs	r5, r2, r3
 267 00dc 03EB2523 		add	r3, r3, r5, asr #8
 268 00e0 8365     		str	r3, [r0, #88]
 269              	.L12:
 270              		.loc 1 96 0
 271 00e2 056B     		ldr	r5, [r0, #48]
 272 00e4 466B     		ldr	r6, [r0, #52]
 273 00e6 B542     		cmp	r5, r6
 274 00e8 80F08E80 		bcs	.L31
 275              	.L17:
 276              		.loc 1 97 0
 277 00ec 458D     		ldrh	r5, [r0, #42]
 278 00ee B0F83890 		ldrh	r9, [r0, #56]
 279 00f2 2EB2     		sxth	r6, r5
 280 00f4 00EB4606 		add	r6, r0, r6, lsl #1
 281              		.loc 1 98 0
 282 00f8 0135     		adds	r5, r5, #1
 283 00fa ADB2     		uxth	r5, r5
 284              		.loc 1 97 0
 285 00fc B788     		ldrh	r7, [r6, #4]
ARM GAS  /tmp/ccuLV1lx.s 			page 6


 286 00fe 8785     		strh	r7, [r0, #44]	@ movhi
 287              		.loc 1 99 0
 288 0100 4FF0000E 		mov	lr, #0
 289 0104 0FFA85FC 		sxth	ip, r5
 290              		.loc 1 98 0
 291 0108 4585     		strh	r5, [r0, #42]	@ movhi
 292 010a 7646     		mov	r6, lr
 293 010c 0CF1010B 		add	fp, ip, #1
 294              		.loc 1 99 0
 295 0110 C0F830E0 		str	lr, [r0, #48]
 296 0114 7546     		mov	r5, lr
 297 0116 0221     		movs	r1, #2
 298              	.L18:
 299              	.LVL18:
 300              		.loc 1 103 0
 301 0118 B0F83A80 		ldrh	r8, [r0, #58]
 302 011c B8F1000F 		cmp	r8, #0
 303 0120 02D0     		beq	.L14
 304              		.loc 1 103 0 is_stmt 0 discriminator 1
 305 0122 E045     		cmp	r8, ip
 306 0124 00F08480 		beq	.L32
 307              	.L14:
 308              	.LVL19:
 309              		.loc 1 104 0 is_stmt 1
 310 0128 CC45     		cmp	ip, r9
 311 012a CCD0     		beq	.L20
 312              	.LVL20:
 313              	.L19:
 314              		.loc 1 104 0 is_stmt 0 discriminator 3
 315 012c 00EB4C08 		add	r8, r0, ip, lsl #1
 316 0130 DFF80C91 		ldr	r9, .L33
 317 0134 B8F81280 		ldrh	r8, [r8, #18]
 318 0138 4FEA2828 		asr	r8, r8, #8
 319 013c 59F82880 		ldr	r8, [r9, r8, lsl #2]
 320 0140 4FEAD819 		lsr	r9, r8, #7
 321              	.LVL21:
 322              	.L15:
 323              		.loc 1 115 0 is_stmt 1 discriminator 6
 324 0144 8444     		add	ip, ip, r0
 325 0146 DFF8FCA0 		ldr	r10, .L33+4
 326 014a 9CF822C0 		ldrb	ip, [ip, #34]	@ zero_extendqisi2
 327 014e 5AF82CA0 		ldr	r10, [r10, ip, lsl #2]
 328              	.LBB34:
 329              	.LBB35:
 330              		.file 4 "./mutable_instruments/stmlib/utils/dsp.h"
 331              		.loc 4 101 0 discriminator 6
 332 0152 3AF80EE0 		ldrh	lr, [r10, lr]
 333              		.loc 4 102 0 discriminator 6
 334 0156 3AF801A0 		ldrh	r10, [r10, r1]
 335              	.LBE35:
 336              	.LBE34:
 337              		.loc 1 107 0 discriminator 6
 338 015a 416D     		ldr	r1, [r0, #84]
 339              		.loc 1 113 0 discriminator 6
 340 015c 00EB4B0B 		add	fp, r0, fp, lsl #1
 341              	.LBB38:
 342              	.LBB36:
ARM GAS  /tmp/ccuLV1lx.s 			page 7


 343              		.loc 4 103 0 discriminator 6
 344 0160 CEEB0A0A 		rsb	r10, lr, r10
 345              	.LBE36:
 346              	.LBE38:
 347              		.loc 1 113 0 discriminator 6
 348 0164 BBF902B0 		ldrsh	fp, [fp, #2]
 349              	.LBB39:
 350              	.LBB37:
 351              		.loc 4 103 0 discriminator 6
 352 0168 06FB0AFA 		mul	r10, r6, r10
 353 016c 0EEB1A4E 		add	lr, lr, r10, lsr #16
 354              	.LBE37:
 355              	.LBE39:
 356              		.loc 1 112 0 discriminator 6
 357 0170 3EB2     		sxth	r6, r7
 358              		.loc 1 116 0 discriminator 6
 359 0172 C6EB0B0B 		rsb	fp, r6, fp
 360 0176 CEF34E0E 		ubfx	lr, lr, #1, #15
 361 017a 0EFB0BFE 		mul	lr, lr, fp
 362 017e 07EBEE37 		add	r7, r7, lr, asr #15
 363 0182 BFB2     		uxth	r7, r7
 364              		.loc 1 120 0 discriminator 6
 365 0184 0FFA87FA 		sxth	r10, r7
 366 0188 CAF5FF46 		rsb	r6, r10, #32640
 367 018c 7F36     		adds	r6, r6, #127
 368 018e 06FB06F6 		mul	r6, r6, r6
 369 0192 F613     		asrs	r6, r6, #15
 370              		.loc 1 121 0 discriminator 6
 371 0194 06FB06F6 		mul	r6, r6, r6
 372 0198 F613     		asrs	r6, r6, #15
 373 019a C6F5FF46 		rsb	r6, r6, #32640
 374 019e 7F36     		adds	r6, r6, #127
 375              		.loc 1 122 0 discriminator 6
 376 01a0 CAEB0606 		rsb	r6, r10, r6
 377              		.loc 1 107 0 discriminator 6
 378 01a4 43F2555E 		movw	lr, #13653
 379              		.loc 1 122 0 discriminator 6
 380 01a8 03FB06F6 		mul	r6, r3, r6
 381              		.loc 1 107 0 discriminator 6
 382 01ac 7245     		cmp	r2, lr
 383 01ae D8BF     		it	le
 384 01b0 0022     		movle	r2, #0
 385              	.LVL22:
 386              		.loc 1 123 0 discriminator 6
 387 01b2 DB10     		asrs	r3, r3, #3
 388              		.loc 1 122 0 discriminator 6
 389 01b4 0AEBE636 		add	r6, r10, r6, asr #15
 390              		.loc 1 107 0 discriminator 6
 391 01b8 521A     		subs	r2, r2, r1
 392              		.loc 1 123 0 discriminator 6
 393 01ba 03F5E043 		add	r3, r3, #28672
 394              		.loc 1 107 0 discriminator 6
 395 01be 01EB2232 		add	r2, r1, r2, asr #12
 396              		.loc 1 123 0 discriminator 6
 397 01c2 06FB03F3 		mul	r3, r6, r3
 398              		.loc 1 125 0 discriminator 6
 399 01c6 0099     		ldr	r1, [sp]
ARM GAS  /tmp/ccuLV1lx.s 			page 8


 400              		.loc 1 107 0 discriminator 6
 401 01c8 4265     		str	r2, [r0, #84]
 402              		.loc 1 123 0 discriminator 6
 403 01ca DB13     		asrs	r3, r3, #15
 404              		.loc 1 108 0 discriminator 6
 405 01cc D611     		asrs	r6, r2, #7
 406 01ce 09FB0686 		mla	r6, r9, r6, r8
 407              		.loc 1 125 0 discriminator 6
 408 01d2 03FB01F1 		mul	r1, r3, r1
 409              	.LVL23:
 410              		.loc 1 124 0 discriminator 6
 411 01d6 019A     		ldr	r2, [sp, #4]
 412              		.loc 1 116 0 discriminator 6
 413 01d8 C785     		strh	r7, [r0, #46]	@ movhi
 414              		.loc 1 124 0 discriminator 6
 415 01da 03EB0323 		add	r3, r3, r3, lsl #8
 416 01de 43F31023 		sbfx	r3, r3, #8, #17
 417              		.loc 1 117 0 discriminator 6
 418 01e2 3544     		add	r5, r5, r6
 419 01e4 0563     		str	r5, [r0, #48]
 420              		.loc 1 110 0 discriminator 6
 421 01e6 4663     		str	r6, [r0, #52]
 422              		.loc 1 124 0 discriminator 6
 423 01e8 1380     		strh	r3, [r2]	@ movhi
 424              		.loc 1 125 0 discriminator 6
 425 01ea 0C9B     		ldr	r3, [sp, #48]
 426 01ec 04EBE131 		add	r1, r4, r1, asr #15
 427              	.LVL24:
 428 01f0 1980     		strh	r1, [r3]	@ movhi
 429              	.LBE41:
 430              		.loc 1 126 0 discriminator 6
 431 01f2 03B0     		add	sp, sp, #12
 432              		.cfi_remember_state
 433              		.cfi_def_cfa_offset 36
 434              		@ sp needed
 435 01f4 BDE8F08F 		pop	{r4, r5, r6, r7, r8, r9, r10, fp, pc}
 436              	.LVL25:
 437              	.L30:
 438              		.cfi_restore_state
 439              	.LBB42:
 440              		.loc 1 96 0
 441 01f8 056B     		ldr	r5, [r0, #48]
 442 01fa 466B     		ldr	r6, [r0, #52]
 443              		.loc 1 79 0
 444 01fc 0023     		movs	r3, #0
 445              		.loc 1 96 0
 446 01fe B542     		cmp	r5, r6
 447              		.loc 1 79 0
 448 0200 0370     		strb	r3, [r0]
 449 0202 836D     		ldr	r3, [r0, #88]
 450              		.loc 1 96 0
 451 0204 FFF472AF 		bcc	.L17
 452              	.L31:
 453 0208 4FEA156E 		lsr	lr, r5, #24
 454 020c B0F92AC0 		ldrsh	ip, [r0, #42]
 455 0210 B0F83890 		ldrh	r9, [r0, #56]
 456 0214 878D     		ldrh	r7, [r0, #44]
ARM GAS  /tmp/ccuLV1lx.s 			page 9


 457 0216 4FEA4E0E 		lsl	lr, lr, #1
 458 021a 0EF10201 		add	r1, lr, #2
 459 021e 0CF1010B 		add	fp, ip, #1
 460 0222 C5F30F26 		ubfx	r6, r5, #8, #16
 461 0226 77E7     		b	.L18
 462              	.L8:
 463 0228 836D     		ldr	r3, [r0, #88]
 464 022a 5AE7     		b	.L12
 465              	.LVL26:
 466              	.L29:
 467              		.loc 1 89 0 discriminator 1
 468 022c 4788     		ldrh	r7, [r0, #2]
 469 022e 3BE7     		b	.L13
 470              	.LVL27:
 471              	.L32:
 472              		.loc 1 103 0 discriminator 3
 473 0230 90F80080 		ldrb	r8, [r0]	@ zero_extendqisi2
 474 0234 B8F1000F 		cmp	r8, #0
 475 0238 7FF445AF 		bne	.L20
 476 023c 74E7     		b	.L14
 477              	.L34:
 478 023e 00BF     		.align	2
 479              	.L33:
 480 0240 00000000 		.word	_ZN7streams18lut_env_incrementsE
 481 0244 00000000 		.word	_ZN7streams18lookup_table_tableE
 482              	.LBE42:
 483              		.cfi_endproc
 484              	.LFE474:
 485              		.cantunwind
 486              		.fnend
 487              		.size	_ZN7streams8Envelope7ProcessEssPtS1_, .-_ZN7streams8Envelope7ProcessEssPtS1_
 488              	.Letext0:
 489              		.file 5 "/home/sbcu/Dropbox/pcb-layouts/axo-on-discovery-board/axoloti/platform_linux/arm-none-eab
 490              		.file 6 "/home/sbcu/Dropbox/pcb-layouts/axo-on-discovery-board/axoloti/platform_linux/arm-none-eab
 491              		.file 7 "/home/sbcu/Dropbox/pcb-layouts/axo-on-discovery-board/axoloti/platform_linux/lib/gcc/arm-
 492              		.file 8 "./mutable_instruments/stmlib/stmlib.h"
 493              		.file 9 "./mutable_instruments/streams/meta_parameters.h"
 494              		.file 10 "./mutable_instruments/streams/resources.h"
 495              		.file 11 "./mutable_instruments/streams/gain.h"
 496              		.file 12 "/home/sbcu/Dropbox/pcb-layouts/axo-on-discovery-board/axoloti/platform_linux/arm-none-ea
 497              		.file 13 "/home/sbcu/Dropbox/pcb-layouts/axo-on-discovery-board/axoloti/platform_linux/arm-none-ea
 498              		.file 14 "/home/sbcu/Dropbox/pcb-layouts/axo-on-discovery-board/axoloti/platform_linux/arm-none-ea
 499              		.file 15 "/home/sbcu/Dropbox/pcb-layouts/axo-on-discovery-board/axoloti/platform_linux/arm-none-ea
 500              		.file 16 "/home/sbcu/Dropbox/pcb-layouts/axo-on-discovery-board/axoloti/platform_linux/arm-none-ea
 501              		.file 17 "/home/sbcu/Dropbox/pcb-layouts/axo-on-discovery-board/axoloti/platform_linux/arm-none-ea
 502              		.file 18 "/home/sbcu/Dropbox/pcb-layouts/axo-on-discovery-board/axoloti/platform_linux/arm-none-ea
 503              		.file 19 "/home/sbcu/Dropbox/pcb-layouts/axo-on-discovery-board/axoloti/platform_linux/arm-none-ea
 504              		.file 20 "/home/sbcu/Dropbox/pcb-layouts/axo-on-discovery-board/axoloti/platform_linux/arm-none-ea
 505              		.file 21 "/home/sbcu/Dropbox/pcb-layouts/axo-on-discovery-board/axoloti/platform_linux/arm-none-ea
 506              		.file 22 "<built-in>"
 507              		.section	.debug_info,"",%progbits
 508              	.Ldebug_info0:
 509 0000 67100000 		.4byte	0x1067
 510 0004 0400     		.2byte	0x4
 511 0006 00000000 		.4byte	.Ldebug_abbrev0
 512 000a 04       		.byte	0x4
 513 000b 01       		.uleb128 0x1
ARM GAS  /tmp/ccuLV1lx.s 			page 10


 514 000c 2A030000 		.4byte	.LASF190
 515 0010 04       		.byte	0x4
 516 0011 FB0A0000 		.4byte	.LASF191
 517 0015 320B0000 		.4byte	.LASF192
 518 0019 00000000 		.4byte	.Ltext0
 519 001d 48020000 		.4byte	.Letext0-.Ltext0
 520 0021 00000000 		.4byte	.Ldebug_line0
 521 0025 02       		.uleb128 0x2
 522 0026 01       		.byte	0x1
 523 0027 06       		.byte	0x6
 524 0028 260B0000 		.4byte	.LASF0
 525 002c 02       		.uleb128 0x2
 526 002d 01       		.byte	0x1
 527 002e 08       		.byte	0x8
 528 002f F6090000 		.4byte	.LASF1
 529 0033 03       		.uleb128 0x3
 530 0034 B5060000 		.4byte	.LASF3
 531 0038 05       		.byte	0x5
 532 0039 29       		.byte	0x29
 533 003a 3E000000 		.4byte	0x3e
 534 003e 02       		.uleb128 0x2
 535 003f 02       		.byte	0x2
 536 0040 05       		.byte	0x5
 537 0041 6C080000 		.4byte	.LASF2
 538 0045 03       		.uleb128 0x3
 539 0046 3E040000 		.4byte	.LASF4
 540 004a 05       		.byte	0x5
 541 004b 2B       		.byte	0x2b
 542 004c 50000000 		.4byte	0x50
 543 0050 02       		.uleb128 0x2
 544 0051 02       		.byte	0x2
 545 0052 07       		.byte	0x7
 546 0053 790B0000 		.4byte	.LASF5
 547 0057 03       		.uleb128 0x3
 548 0058 05010000 		.4byte	.LASF6
 549 005c 05       		.byte	0x5
 550 005d 3F       		.byte	0x3f
 551 005e 62000000 		.4byte	0x62
 552 0062 02       		.uleb128 0x2
 553 0063 04       		.byte	0x4
 554 0064 05       		.byte	0x5
 555 0065 80080000 		.4byte	.LASF7
 556 0069 03       		.uleb128 0x3
 557 006a 090A0000 		.4byte	.LASF8
 558 006e 05       		.byte	0x5
 559 006f 41       		.byte	0x41
 560 0070 74000000 		.4byte	0x74
 561 0074 02       		.uleb128 0x2
 562 0075 04       		.byte	0x4
 563 0076 07       		.byte	0x7
 564 0077 74090000 		.4byte	.LASF9
 565 007b 02       		.uleb128 0x2
 566 007c 08       		.byte	0x8
 567 007d 05       		.byte	0x5
 568 007e 59060000 		.4byte	.LASF10
 569 0082 02       		.uleb128 0x2
 570 0083 08       		.byte	0x8
ARM GAS  /tmp/ccuLV1lx.s 			page 11


 571 0084 07       		.byte	0x7
 572 0085 0A030000 		.4byte	.LASF11
 573 0089 04       		.uleb128 0x4
 574 008a 04       		.byte	0x4
 575 008b 05       		.byte	0x5
 576 008c 696E7400 		.ascii	"int\000"
 577 0090 02       		.uleb128 0x2
 578 0091 04       		.byte	0x4
 579 0092 07       		.byte	0x7
 580 0093 D5000000 		.4byte	.LASF12
 581 0097 03       		.uleb128 0x3
 582 0098 DB020000 		.4byte	.LASF13
 583 009c 06       		.byte	0x6
 584 009d 19       		.byte	0x19
 585 009e 33000000 		.4byte	0x33
 586 00a2 03       		.uleb128 0x3
 587 00a3 EA070000 		.4byte	.LASF14
 588 00a7 06       		.byte	0x6
 589 00a8 1A       		.byte	0x1a
 590 00a9 45000000 		.4byte	0x45
 591 00ad 03       		.uleb128 0x3
 592 00ae C6090000 		.4byte	.LASF15
 593 00b2 06       		.byte	0x6
 594 00b3 1F       		.byte	0x1f
 595 00b4 57000000 		.4byte	0x57
 596 00b8 03       		.uleb128 0x3
 597 00b9 49020000 		.4byte	.LASF16
 598 00bd 06       		.byte	0x6
 599 00be 20       		.byte	0x20
 600 00bf 69000000 		.4byte	0x69
 601 00c3 03       		.uleb128 0x3
 602 00c4 B7040000 		.4byte	.LASF17
 603 00c8 07       		.byte	0x7
 604 00c9 D4       		.byte	0xd4
 605 00ca 90000000 		.4byte	0x90
 606 00ce 05       		.uleb128 0x5
 607 00cf 040A0000 		.4byte	.LASF118
 608 00d3 08       		.byte	0x8
 609 00d4 3C       		.byte	0x3c
 610 00d5 06       		.uleb128 0x6
 611 00d6 B5050000 		.4byte	.LASF19
 612 00da 08       		.byte	0x8
 613 00db 5D       		.byte	0x5d
 614 00dc F7000000 		.4byte	0xf7
 615 00e0 07       		.uleb128 0x7
 616 00e1 52040000 		.4byte	.LASF126
 617 00e5 04       		.byte	0x4
 618 00e6 64       		.byte	0x64
 619 00e7 A2000000 		.4byte	0xa2
 620 00eb 08       		.uleb128 0x8
 621 00ec 320C0000 		.4byte	0xc32
 622 00f0 08       		.uleb128 0x8
 623 00f1 B8000000 		.4byte	0xb8
 624 00f5 00       		.byte	0
 625 00f6 00       		.byte	0
 626 00f7 02       		.uleb128 0x2
 627 00f8 04       		.byte	0x4
ARM GAS  /tmp/ccuLV1lx.s 			page 12


 628 00f9 07       		.byte	0x7
 629 00fa 63090000 		.4byte	.LASF18
 630 00fe 06       		.uleb128 0x6
 631 00ff 6F000000 		.4byte	.LASF20
 632 0103 09       		.byte	0x9
 633 0104 22       		.byte	0x22
 634 0105 BB060000 		.4byte	0x6bb
 635 0109 09       		.uleb128 0x9
 636 010a 6E060000 		.4byte	.LASF193
 637 010e 01       		.byte	0x1
 638 010f 03       		.byte	0x3
 639 0110 26       		.byte	0x26
 640 0111 28010000 		.4byte	0x128
 641 0115 0A       		.uleb128 0xa
 642 0116 7C060000 		.4byte	.LASF21
 643 011a 00       		.sleb128 0
 644 011b 0A       		.uleb128 0xa
 645 011c 9F060000 		.4byte	.LASF22
 646 0120 01       		.sleb128 1
 647 0121 0A       		.uleb128 0xa
 648 0122 8D060000 		.4byte	.LASF23
 649 0126 02       		.sleb128 2
 650 0127 00       		.byte	0
 651 0128 0B       		.uleb128 0xb
 652 0129 1C0A0000 		.4byte	.LASF45
 653 012d 5C       		.byte	0x5c
 654 012e 03       		.byte	0x3
 655 012f 2E       		.byte	0x2e
 656 0130 8A040000 		.4byte	0x48a
 657 0134 0C       		.uleb128 0xc
 658 0135 55090000 		.4byte	.LASF24
 659 0139 03       		.byte	0x3
 660 013a D3       		.byte	0xd3
 661 013b BB060000 		.4byte	0x6bb
 662 013f 00       		.byte	0
 663 0140 0C       		.uleb128 0xc
 664 0141 390C0000 		.4byte	.LASF25
 665 0145 03       		.byte	0x3
 666 0146 D5       		.byte	0xd5
 667 0147 C2060000 		.4byte	0x6c2
 668 014b 02       		.byte	0x2
 669 014c 0C       		.uleb128 0xc
 670 014d D50B0000 		.4byte	.LASF26
 671 0151 03       		.byte	0x3
 672 0152 D6       		.byte	0xd6
 673 0153 D2060000 		.4byte	0x6d2
 674 0157 12       		.byte	0x12
 675 0158 0C       		.uleb128 0xc
 676 0159 400C0000 		.4byte	.LASF27
 677 015d 03       		.byte	0x3
 678 015e D7       		.byte	0xd7
 679 015f E2060000 		.4byte	0x6e2
 680 0163 22       		.byte	0x22
 681 0164 0C       		.uleb128 0xc
 682 0165 40060000 		.4byte	.LASF28
 683 0169 03       		.byte	0x3
 684 016a D9       		.byte	0xd9
ARM GAS  /tmp/ccuLV1lx.s 			page 13


 685 016b 97000000 		.4byte	0x97
 686 016f 2A       		.byte	0x2a
 687 0170 0C       		.uleb128 0xc
 688 0171 9E040000 		.4byte	.LASF29
 689 0175 03       		.byte	0x3
 690 0176 DA       		.byte	0xda
 691 0177 97000000 		.4byte	0x97
 692 017b 2C       		.byte	0x2c
 693 017c 0C       		.uleb128 0xc
 694 017d 16070000 		.4byte	.LASF30
 695 0181 03       		.byte	0x3
 696 0182 DB       		.byte	0xdb
 697 0183 97000000 		.4byte	0x97
 698 0187 2E       		.byte	0x2e
 699 0188 0C       		.uleb128 0xc
 700 0189 26050000 		.4byte	.LASF31
 701 018d 03       		.byte	0x3
 702 018e DD       		.byte	0xdd
 703 018f B8000000 		.4byte	0xb8
 704 0193 30       		.byte	0x30
 705 0194 0C       		.uleb128 0xc
 706 0195 1C060000 		.4byte	.LASF32
 707 0199 03       		.byte	0x3
 708 019a DE       		.byte	0xde
 709 019b B8000000 		.4byte	0xb8
 710 019f 34       		.byte	0x34
 711 01a0 0C       		.uleb128 0xc
 712 01a1 B7010000 		.4byte	.LASF33
 713 01a5 03       		.byte	0x3
 714 01a6 E0       		.byte	0xe0
 715 01a7 A2000000 		.4byte	0xa2
 716 01ab 38       		.byte	0x38
 717 01ac 0C       		.uleb128 0xc
 718 01ad 9F050000 		.4byte	.LASF34
 719 01b1 03       		.byte	0x3
 720 01b2 E1       		.byte	0xe1
 721 01b3 A2000000 		.4byte	0xa2
 722 01b7 3A       		.byte	0x3a
 723 01b8 0C       		.uleb128 0xc
 724 01b9 C5070000 		.4byte	.LASF35
 725 01bd 03       		.byte	0x3
 726 01be E3       		.byte	0xe3
 727 01bf AD000000 		.4byte	0xad
 728 01c3 3C       		.byte	0x3c
 729 01c4 0C       		.uleb128 0xc
 730 01c5 1D070000 		.4byte	.LASF36
 731 01c9 03       		.byte	0x3
 732 01ca E4       		.byte	0xe4
 733 01cb AD000000 		.4byte	0xad
 734 01cf 40       		.byte	0x40
 735 01d0 0C       		.uleb128 0xc
 736 01d1 5B070000 		.4byte	.LASF37
 737 01d5 03       		.byte	0x3
 738 01d6 E5       		.byte	0xe5
 739 01d7 AD000000 		.4byte	0xad
 740 01db 44       		.byte	0x44
 741 01dc 0C       		.uleb128 0xc
ARM GAS  /tmp/ccuLV1lx.s 			page 14


 742 01dd D3060000 		.4byte	.LASF38
 743 01e1 03       		.byte	0x3
 744 01e2 E6       		.byte	0xe6
 745 01e3 AD000000 		.4byte	0xad
 746 01e7 48       		.byte	0x48
 747 01e8 0C       		.uleb128 0xc
 748 01e9 5B090000 		.4byte	.LASF39
 749 01ed 03       		.byte	0x3
 750 01ee E8       		.byte	0xe8
 751 01ef A2000000 		.4byte	0xa2
 752 01f3 4C       		.byte	0x4c
 753 01f4 0C       		.uleb128 0xc
 754 01f5 67060000 		.4byte	.LASF40
 755 01f9 03       		.byte	0x3
 756 01fa E9       		.byte	0xe9
 757 01fb A2000000 		.4byte	0xa2
 758 01ff 4E       		.byte	0x4e
 759 0200 0C       		.uleb128 0xc
 760 0201 16000000 		.4byte	.LASF41
 761 0205 03       		.byte	0x3
 762 0206 EB       		.byte	0xeb
 763 0207 BB060000 		.4byte	0x6bb
 764 020b 50       		.byte	0x50
 765 020c 0C       		.uleb128 0xc
 766 020d D5080000 		.4byte	.LASF42
 767 0211 03       		.byte	0x3
 768 0212 EC       		.byte	0xec
 769 0213 BB060000 		.4byte	0x6bb
 770 0217 51       		.byte	0x51
 771 0218 0C       		.uleb128 0xc
 772 0219 10090000 		.4byte	.LASF43
 773 021d 03       		.byte	0x3
 774 021e EE       		.byte	0xee
 775 021f AD000000 		.4byte	0xad
 776 0223 54       		.byte	0x54
 777 0224 0C       		.uleb128 0xc
 778 0225 51050000 		.4byte	.LASF44
 779 0229 03       		.byte	0x3
 780 022a EF       		.byte	0xef
 781 022b AD000000 		.4byte	0xad
 782 022f 58       		.byte	0x58
 783 0230 0D       		.uleb128 0xd
 784 0231 1C0A0000 		.4byte	.LASF45
 785 0235 03       		.byte	0x3
 786 0236 30       		.byte	0x30
 787 0237 F2060000 		.4byte	0x6f2
 788 023b 01       		.byte	0x1
 789 023c 44020000 		.4byte	0x244
 790 0240 4A020000 		.4byte	0x24a
 791 0244 0E       		.uleb128 0xe
 792 0245 F2060000 		.4byte	0x6f2
 793 0249 00       		.byte	0
 794 024a 0D       		.uleb128 0xd
 795 024b 36070000 		.4byte	.LASF46
 796 024f 03       		.byte	0x3
 797 0250 31       		.byte	0x31
 798 0251 F8060000 		.4byte	0x6f8
ARM GAS  /tmp/ccuLV1lx.s 			page 15


 799 0255 01       		.byte	0x1
 800 0256 5E020000 		.4byte	0x25e
 801 025a 69020000 		.4byte	0x269
 802 025e 0E       		.uleb128 0xe
 803 025f F2060000 		.4byte	0x6f2
 804 0263 0E       		.uleb128 0xe
 805 0264 89000000 		.4byte	0x89
 806 0268 00       		.byte	0
 807 0269 0F       		.uleb128 0xf
 808 026a AB040000 		.4byte	.LASF47
 809 026e 03       		.byte	0x3
 810 026f 33       		.byte	0x33
 811 0270 11020000 		.4byte	.LASF49
 812 0274 01       		.byte	0x1
 813 0275 7D020000 		.4byte	0x27d
 814 0279 83020000 		.4byte	0x283
 815 027d 0E       		.uleb128 0xe
 816 027e F2060000 		.4byte	0x6f2
 817 0282 00       		.byte	0
 818 0283 0F       		.uleb128 0xf
 819 0284 AD020000 		.4byte	.LASF48
 820 0288 03       		.byte	0x3
 821 0289 34       		.byte	0x34
 822 028a 88020000 		.4byte	.LASF50
 823 028e 01       		.byte	0x1
 824 028f 97020000 		.4byte	0x297
 825 0293 B1020000 		.4byte	0x2b1
 826 0297 0E       		.uleb128 0xe
 827 0298 F2060000 		.4byte	0x6f2
 828 029c 08       		.uleb128 0x8
 829 029d 97000000 		.4byte	0x97
 830 02a1 08       		.uleb128 0x8
 831 02a2 97000000 		.4byte	0x97
 832 02a6 08       		.uleb128 0x8
 833 02a7 FA060000 		.4byte	0x6fa
 834 02ab 08       		.uleb128 0x8
 835 02ac FA060000 		.4byte	0x6fa
 836 02b0 00       		.byte	0
 837 02b1 0F       		.uleb128 0xf
 838 02b2 C1050000 		.4byte	.LASF51
 839 02b6 03       		.byte	0x3
 840 02b7 3A       		.byte	0x3a
 841 02b8 65010000 		.4byte	.LASF52
 842 02bc 01       		.byte	0x1
 843 02bd C5020000 		.4byte	0x2c5
 844 02c1 DA020000 		.4byte	0x2da
 845 02c5 0E       		.uleb128 0xe
 846 02c6 F2060000 		.4byte	0x6f2
 847 02ca 08       		.uleb128 0x8
 848 02cb BB060000 		.4byte	0x6bb
 849 02cf 08       		.uleb128 0x8
 850 02d0 00070000 		.4byte	0x700
 851 02d4 08       		.uleb128 0x8
 852 02d5 00070000 		.4byte	0x700
 853 02d9 00       		.byte	0
 854 02da 0F       		.uleb128 0xf
 855 02db 2D060000 		.4byte	.LASF53
ARM GAS  /tmp/ccuLV1lx.s 			page 16


 856 02df 03       		.byte	0x3
 857 02e0 58       		.byte	0x58
 858 02e1 FB040000 		.4byte	.LASF54
 859 02e5 01       		.byte	0x1
 860 02e6 EE020000 		.4byte	0x2ee
 861 02ea FE020000 		.4byte	0x2fe
 862 02ee 0E       		.uleb128 0xe
 863 02ef F2060000 		.4byte	0x6f2
 864 02f3 08       		.uleb128 0x8
 865 02f4 A2000000 		.4byte	0xa2
 866 02f8 08       		.uleb128 0x8
 867 02f9 A2000000 		.4byte	0xa2
 868 02fd 00       		.byte	0
 869 02fe 0F       		.uleb128 0xf
 870 02ff 4A000000 		.4byte	.LASF55
 871 0303 03       		.byte	0x3
 872 0304 5C       		.byte	0x5c
 873 0305 18080000 		.4byte	.LASF56
 874 0309 01       		.byte	0x1
 875 030a 12030000 		.4byte	0x312
 876 030e 22030000 		.4byte	0x322
 877 0312 0E       		.uleb128 0xe
 878 0313 F2060000 		.4byte	0x6f2
 879 0317 08       		.uleb128 0x8
 880 0318 A2000000 		.4byte	0xa2
 881 031c 08       		.uleb128 0x8
 882 031d 97000000 		.4byte	0x97
 883 0321 00       		.byte	0
 884 0322 0F       		.uleb128 0xf
 885 0323 FF080000 		.4byte	.LASF57
 886 0327 03       		.byte	0x3
 887 0328 60       		.byte	0x60
 888 0329 FA0B0000 		.4byte	.LASF58
 889 032d 01       		.byte	0x1
 890 032e 36030000 		.4byte	0x336
 891 0332 41030000 		.4byte	0x341
 892 0336 0E       		.uleb128 0xe
 893 0337 F2060000 		.4byte	0x6f2
 894 033b 08       		.uleb128 0x8
 895 033c A2000000 		.4byte	0xa2
 896 0340 00       		.byte	0
 897 0341 0F       		.uleb128 0xf
 898 0342 B5020000 		.4byte	.LASF59
 899 0346 03       		.byte	0x3
 900 0347 64       		.byte	0x64
 901 0348 C5010000 		.4byte	.LASF60
 902 034c 01       		.byte	0x1
 903 034d 55030000 		.4byte	0x355
 904 0351 60030000 		.4byte	0x360
 905 0355 0E       		.uleb128 0xe
 906 0356 F2060000 		.4byte	0x6f2
 907 035a 08       		.uleb128 0x8
 908 035b A2000000 		.4byte	0xa2
 909 035f 00       		.byte	0
 910 0360 0F       		.uleb128 0xf
 911 0361 7B0C0000 		.4byte	.LASF61
 912 0365 03       		.byte	0x3
ARM GAS  /tmp/ccuLV1lx.s 			page 17


 913 0366 68       		.byte	0x68
 914 0367 470C0000 		.4byte	.LASF62
 915 036b 01       		.byte	0x1
 916 036c 74030000 		.4byte	0x374
 917 0370 84030000 		.4byte	0x384
 918 0374 0E       		.uleb128 0xe
 919 0375 F2060000 		.4byte	0x6f2
 920 0379 08       		.uleb128 0x8
 921 037a A2000000 		.4byte	0xa2
 922 037e 08       		.uleb128 0x8
 923 037f A2000000 		.4byte	0xa2
 924 0383 00       		.byte	0
 925 0384 0F       		.uleb128 0xf
 926 0385 36040000 		.4byte	.LASF63
 927 0389 03       		.byte	0x3
 928 038a 77       		.byte	0x77
 929 038b EF010000 		.4byte	.LASF64
 930 038f 01       		.byte	0x1
 931 0390 98030000 		.4byte	0x398
 932 0394 B2030000 		.4byte	0x3b2
 933 0398 0E       		.uleb128 0xe
 934 0399 F2060000 		.4byte	0x6f2
 935 039d 08       		.uleb128 0x8
 936 039e A2000000 		.4byte	0xa2
 937 03a2 08       		.uleb128 0x8
 938 03a3 A2000000 		.4byte	0xa2
 939 03a7 08       		.uleb128 0x8
 940 03a8 A2000000 		.4byte	0xa2
 941 03ac 08       		.uleb128 0x8
 942 03ad A2000000 		.4byte	0xa2
 943 03b1 00       		.byte	0
 944 03b2 0F       		.uleb128 0xf
 945 03b3 07000000 		.4byte	.LASF65
 946 03b7 03       		.byte	0x3
 947 03b8 8D       		.byte	0x8d
 948 03b9 77000000 		.4byte	.LASF66
 949 03bd 01       		.byte	0x1
 950 03be C6030000 		.4byte	0x3c6
 951 03c2 D6030000 		.4byte	0x3d6
 952 03c6 0E       		.uleb128 0xe
 953 03c7 F2060000 		.4byte	0x6f2
 954 03cb 08       		.uleb128 0x8
 955 03cc A2000000 		.4byte	0xa2
 956 03d0 08       		.uleb128 0x8
 957 03d1 A2000000 		.4byte	0xa2
 958 03d5 00       		.byte	0
 959 03d6 0F       		.uleb128 0xf
 960 03d7 76080000 		.4byte	.LASF67
 961 03db 03       		.byte	0x3
 962 03dc 9C       		.byte	0x9c
 963 03dd 21000000 		.4byte	.LASF68
 964 03e1 01       		.byte	0x1
 965 03e2 EA030000 		.4byte	0x3ea
 966 03e6 04040000 		.4byte	0x404
 967 03ea 0E       		.uleb128 0xe
 968 03eb F2060000 		.4byte	0x6f2
 969 03ef 08       		.uleb128 0x8
ARM GAS  /tmp/ccuLV1lx.s 			page 18


 970 03f0 A2000000 		.4byte	0xa2
 971 03f4 08       		.uleb128 0x8
 972 03f5 A2000000 		.4byte	0xa2
 973 03f9 08       		.uleb128 0x8
 974 03fa A2000000 		.4byte	0xa2
 975 03fe 08       		.uleb128 0x8
 976 03ff A2000000 		.4byte	0xa2
 977 0403 00       		.byte	0
 978 0404 0F       		.uleb128 0xf
 979 0405 21090000 		.4byte	.LASF69
 980 0409 03       		.byte	0x3
 981 040a B5       		.byte	0xb5
 982 040b 9B0C0000 		.4byte	.LASF70
 983 040f 01       		.byte	0x1
 984 0410 18040000 		.4byte	0x418
 985 0414 32040000 		.4byte	0x432
 986 0418 0E       		.uleb128 0xe
 987 0419 F2060000 		.4byte	0x6f2
 988 041d 08       		.uleb128 0x8
 989 041e A2000000 		.4byte	0xa2
 990 0422 08       		.uleb128 0x8
 991 0423 A2000000 		.4byte	0xa2
 992 0427 08       		.uleb128 0x8
 993 0428 A2000000 		.4byte	0xa2
 994 042c 08       		.uleb128 0x8
 995 042d A2000000 		.4byte	0xa2
 996 0431 00       		.byte	0
 997 0432 0F       		.uleb128 0xf
 998 0433 BF060000 		.4byte	.LASF71
 999 0437 03       		.byte	0x3
 1000 0438 CE       		.byte	0xce
 1001 0439 E3020000 		.4byte	.LASF72
 1002 043d 01       		.byte	0x1
 1003 043e 46040000 		.4byte	0x446
 1004 0442 51040000 		.4byte	0x451
 1005 0446 0E       		.uleb128 0xe
 1006 0447 F2060000 		.4byte	0x6f2
 1007 044b 08       		.uleb128 0x8
 1008 044c BB060000 		.4byte	0x6bb
 1009 0450 00       		.byte	0
 1010 0451 10       		.uleb128 0x10
 1011 0452 1C0A0000 		.4byte	.LASF45
 1012 0456 03       		.byte	0x3
 1013 0457 F1       		.byte	0xf1
 1014 0458 F2060000 		.4byte	0x6f2
 1015 045c 64040000 		.4byte	0x464
 1016 0460 6F040000 		.4byte	0x46f
 1017 0464 0E       		.uleb128 0xe
 1018 0465 F2060000 		.4byte	0x6f2
 1019 0469 08       		.uleb128 0x8
 1020 046a 06070000 		.4byte	0x706
 1021 046e 00       		.byte	0
 1022 046f 11       		.uleb128 0x11
 1023 0470 0C070000 		.4byte	.LASF123
 1024 0474 03       		.byte	0x3
 1025 0475 F1       		.byte	0xf1
 1026 0476 25010000 		.4byte	.LASF194
ARM GAS  /tmp/ccuLV1lx.s 			page 19


 1027 047a 7E040000 		.4byte	0x47e
 1028 047e 0E       		.uleb128 0xe
 1029 047f F2060000 		.4byte	0x6f2
 1030 0483 08       		.uleb128 0x8
 1031 0484 06070000 		.4byte	0x706
 1032 0488 00       		.byte	0
 1033 0489 00       		.byte	0
 1034 048a 12       		.uleb128 0x12
 1035 048b 28010000 		.4byte	0x128
 1036 048f 13       		.uleb128 0x13
 1037 0490 01       		.byte	0x1
 1038 0491 29       		.byte	0x29
 1039 0492 0C070000 		.4byte	0x70c
 1040 0496 13       		.uleb128 0x13
 1041 0497 01       		.byte	0x1
 1042 0498 2A       		.byte	0x2a
 1043 0499 D5000000 		.4byte	0xd5
 1044 049d 12       		.uleb128 0x12
 1045 049e 09010000 		.4byte	0x109
 1046 04a2 14       		.uleb128 0x14
 1047 04a3 3A0A0000 		.4byte	.LASF77
 1048 04a7 03       		.byte	0x3
 1049 04a8 2C       		.byte	0x2c
 1050 04a9 380C0000 		.4byte	0xc38
 1051 04ad 08       		.byte	0x8
 1052 04ae 15       		.uleb128 0x15
 1053 04af E70B0000 		.4byte	.LASF73
 1054 04b3 0A       		.byte	0xa
 1055 04b4 31       		.byte	0x31
 1056 04b5 96000000 		.4byte	.LASF75
 1057 04b9 3E0F0000 		.4byte	0xf3e
 1058 04bd 15       		.uleb128 0x15
 1059 04be 7B040000 		.4byte	.LASF74
 1060 04c2 0A       		.byte	0xa
 1061 04c3 40       		.byte	0x40
 1062 04c4 FB050000 		.4byte	.LASF76
 1063 04c8 490F0000 		.4byte	0xf49
 1064 04cc 14       		.uleb128 0x14
 1065 04cd 62080000 		.4byte	.LASF78
 1066 04d1 0A       		.byte	0xa
 1067 04d2 45       		.byte	0x45
 1068 04d3 FA0B0000 		.4byte	0xbfa
 1069 04d7 00       		.byte	0
 1070 04d8 14       		.uleb128 0x14
 1071 04d9 0B080000 		.4byte	.LASF79
 1072 04dd 0A       		.byte	0xa
 1073 04de 46       		.byte	0x46
 1074 04df FA0B0000 		.4byte	0xbfa
 1075 04e3 00       		.byte	0
 1076 04e4 16       		.uleb128 0x16
 1077 04e5 8B010000 		.4byte	.LASF80
 1078 04e9 0A       		.byte	0xa
 1079 04ea 47       		.byte	0x47
 1080 04eb FA0B0000 		.4byte	0xbfa
 1081 04ef 0104     		.2byte	0x401
 1082 04f1 14       		.uleb128 0x14
 1083 04f2 33050000 		.4byte	.LASF81
ARM GAS  /tmp/ccuLV1lx.s 			page 20


 1084 04f6 0A       		.byte	0xa
 1085 04f7 48       		.byte	0x48
 1086 04f8 FA0B0000 		.4byte	0xbfa
 1087 04fc 01       		.byte	0x1
 1088 04fd 16       		.uleb128 0x16
 1089 04fe DB0B0000 		.4byte	.LASF82
 1090 0502 0A       		.byte	0xa
 1091 0503 49       		.byte	0x49
 1092 0504 FA0B0000 		.4byte	0xbfa
 1093 0508 0101     		.2byte	0x101
 1094 050a 14       		.uleb128 0x14
 1095 050b 6C040000 		.4byte	.LASF83
 1096 050f 0A       		.byte	0xa
 1097 0510 4A       		.byte	0x4a
 1098 0511 FA0B0000 		.4byte	0xbfa
 1099 0515 00       		.byte	0
 1100 0516 16       		.uleb128 0x16
 1101 0517 72070000 		.4byte	.LASF84
 1102 051b 0A       		.byte	0xa
 1103 051c 4B       		.byte	0x4b
 1104 051d FA0B0000 		.4byte	0xbfa
 1105 0521 0101     		.2byte	0x101
 1106 0523 14       		.uleb128 0x14
 1107 0524 EE0A0000 		.4byte	.LASF85
 1108 0528 0A       		.byte	0xa
 1109 0529 4C       		.byte	0x4c
 1110 052a FA0B0000 		.4byte	0xbfa
 1111 052e 01       		.byte	0x1
 1112 052f 16       		.uleb128 0x16
 1113 0530 C4040000 		.4byte	.LASF86
 1114 0534 0A       		.byte	0xa
 1115 0535 4D       		.byte	0x4d
 1116 0536 FA0B0000 		.4byte	0xbfa
 1117 053a 0101     		.2byte	0x101
 1118 053c 14       		.uleb128 0x14
 1119 053d 39020000 		.4byte	.LASF87
 1120 0541 0A       		.byte	0xa
 1121 0542 4E       		.byte	0x4e
 1122 0543 FA0B0000 		.4byte	0xbfa
 1123 0547 02       		.byte	0x2
 1124 0548 16       		.uleb128 0x16
 1125 0549 D6040000 		.4byte	.LASF88
 1126 054d 0A       		.byte	0xa
 1127 054e 4F       		.byte	0x4f
 1128 054f FA0B0000 		.4byte	0xbfa
 1129 0553 0101     		.2byte	0x101
 1130 0555 14       		.uleb128 0x14
 1131 0556 230C0000 		.4byte	.LASF89
 1132 055a 0A       		.byte	0xa
 1133 055b 50       		.byte	0x50
 1134 055c FA0B0000 		.4byte	0xbfa
 1135 0560 03       		.byte	0x3
 1136 0561 16       		.uleb128 0x16
 1137 0562 950B0000 		.4byte	.LASF90
 1138 0566 0A       		.byte	0xa
 1139 0567 51       		.byte	0x51
 1140 0568 FA0B0000 		.4byte	0xbfa
ARM GAS  /tmp/ccuLV1lx.s 			page 21


 1141 056c 0101     		.2byte	0x101
 1142 056e 14       		.uleb128 0x14
 1143 056f 73020000 		.4byte	.LASF91
 1144 0573 0A       		.byte	0xa
 1145 0574 52       		.byte	0x52
 1146 0575 FA0B0000 		.4byte	0xbfa
 1147 0579 04       		.byte	0x4
 1148 057a 16       		.uleb128 0x16
 1149 057b 51010000 		.4byte	.LASF92
 1150 057f 0A       		.byte	0xa
 1151 0580 53       		.byte	0x53
 1152 0581 FA0B0000 		.4byte	0xbfa
 1153 0585 0101     		.2byte	0x101
 1154 0587 14       		.uleb128 0x14
 1155 0588 510A0000 		.4byte	.LASF93
 1156 058c 0A       		.byte	0xa
 1157 058d 54       		.byte	0x54
 1158 058e FA0B0000 		.4byte	0xbfa
 1159 0592 05       		.byte	0x5
 1160 0593 16       		.uleb128 0x16
 1161 0594 F3000000 		.4byte	.LASF94
 1162 0598 0A       		.byte	0xa
 1163 0599 55       		.byte	0x55
 1164 059a FA0B0000 		.4byte	0xbfa
 1165 059e 0101     		.2byte	0x101
 1166 05a0 14       		.uleb128 0x14
 1167 05a1 C1000000 		.4byte	.LASF95
 1168 05a5 0A       		.byte	0xa
 1169 05a6 56       		.byte	0x56
 1170 05a7 FA0B0000 		.4byte	0xbfa
 1171 05ab 06       		.byte	0x6
 1172 05ac 16       		.uleb128 0x16
 1173 05ad 820C0000 		.4byte	.LASF96
 1174 05b1 0A       		.byte	0xa
 1175 05b2 57       		.byte	0x57
 1176 05b3 FA0B0000 		.4byte	0xbfa
 1177 05b7 0101     		.2byte	0x101
 1178 05b9 14       		.uleb128 0x14
 1179 05ba B1090000 		.4byte	.LASF97
 1180 05be 0A       		.byte	0xa
 1181 05bf 58       		.byte	0x58
 1182 05c0 FA0B0000 		.4byte	0xbfa
 1183 05c4 07       		.byte	0x7
 1184 05c5 16       		.uleb128 0x16
 1185 05c6 52020000 		.4byte	.LASF98
 1186 05ca 0A       		.byte	0xa
 1187 05cb 59       		.byte	0x59
 1188 05cc FA0B0000 		.4byte	0xbfa
 1189 05d0 0101     		.2byte	0x101
 1190 05d2 14       		.uleb128 0x14
 1191 05d3 5E0A0000 		.4byte	.LASF99
 1192 05d7 0A       		.byte	0xa
 1193 05d8 5A       		.byte	0x5a
 1194 05d9 FA0B0000 		.4byte	0xbfa
 1195 05dd 08       		.byte	0x8
 1196 05de 16       		.uleb128 0x16
 1197 05df CE090000 		.4byte	.LASF100
ARM GAS  /tmp/ccuLV1lx.s 			page 22


 1198 05e3 0A       		.byte	0xa
 1199 05e4 5B       		.byte	0x5b
 1200 05e5 FA0B0000 		.4byte	0xbfa
 1201 05e9 0101     		.2byte	0x101
 1202 05eb 14       		.uleb128 0x14
 1203 05ec F3070000 		.4byte	.LASF101
 1204 05f0 0A       		.byte	0xa
 1205 05f1 5C       		.byte	0x5c
 1206 05f2 FA0B0000 		.4byte	0xbfa
 1207 05f6 00       		.byte	0
 1208 05f7 16       		.uleb128 0x16
 1209 05f8 4A080000 		.4byte	.LASF102
 1210 05fc 0A       		.byte	0xa
 1211 05fd 5D       		.byte	0x5d
 1212 05fe FA0B0000 		.4byte	0xbfa
 1213 0602 0101     		.2byte	0x101
 1214 0604 14       		.uleb128 0x14
 1215 0605 54000000 		.4byte	.LASF103
 1216 0609 0A       		.byte	0xa
 1217 060a 5E       		.byte	0x5e
 1218 060b FA0B0000 		.4byte	0xbfa
 1219 060f 01       		.byte	0x1
 1220 0610 16       		.uleb128 0x16
 1221 0611 D2050000 		.4byte	.LASF104
 1222 0615 0A       		.byte	0xa
 1223 0616 5F       		.byte	0x5f
 1224 0617 FA0B0000 		.4byte	0xbfa
 1225 061b 8002     		.2byte	0x280
 1226 061d 14       		.uleb128 0x14
 1227 061e 21030000 		.4byte	.LASF105
 1228 0622 0A       		.byte	0xa
 1229 0623 60       		.byte	0x60
 1230 0624 FA0B0000 		.4byte	0xbfa
 1231 0628 02       		.byte	0x2
 1232 0629 16       		.uleb128 0x16
 1233 062a 17010000 		.4byte	.LASF106
 1234 062e 0A       		.byte	0xa
 1235 062f 61       		.byte	0x61
 1236 0630 FA0B0000 		.4byte	0xbfa
 1237 0634 0101     		.2byte	0x101
 1238 0636 14       		.uleb128 0x14
 1239 0637 48010000 		.4byte	.LASF107
 1240 063b 0A       		.byte	0xa
 1241 063c 62       		.byte	0x62
 1242 063d FA0B0000 		.4byte	0xbfa
 1243 0641 03       		.byte	0x3
 1244 0642 16       		.uleb128 0x16
 1245 0643 D20A0000 		.4byte	.LASF108
 1246 0647 0A       		.byte	0xa
 1247 0648 63       		.byte	0x63
 1248 0649 FA0B0000 		.4byte	0xbfa
 1249 064d 0101     		.2byte	0x101
 1250 064f 14       		.uleb128 0x14
 1251 0650 49060000 		.4byte	.LASF109
 1252 0654 0A       		.byte	0xa
 1253 0655 64       		.byte	0x64
 1254 0656 FA0B0000 		.4byte	0xbfa
ARM GAS  /tmp/ccuLV1lx.s 			page 23


 1255 065a 04       		.byte	0x4
 1256 065b 16       		.uleb128 0x16
 1257 065c 250A0000 		.4byte	.LASF110
 1258 0660 0A       		.byte	0xa
 1259 0661 65       		.byte	0x65
 1260 0662 FA0B0000 		.4byte	0xbfa
 1261 0666 0101     		.2byte	0x101
 1262 0668 16       		.uleb128 0x16
 1263 0669 E1090000 		.4byte	.LASF111
 1264 066d 0B       		.byte	0xb
 1265 066e 27       		.byte	0x27
 1266 066f 2A100000 		.4byte	0x102a
 1267 0673 8F02     		.2byte	0x28f
 1268 0675 16       		.uleb128 0x16
 1269 0676 660C0000 		.4byte	.LASF112
 1270 067a 0B       		.byte	0xb
 1271 067b 2A       		.byte	0x2a
 1272 067c 2A100000 		.4byte	0x102a
 1273 0680 FF7F     		.2byte	0x7fff
 1274 0682 16       		.uleb128 0x16
 1275 0683 3A080000 		.4byte	.LASF113
 1276 0687 0B       		.byte	0xb
 1277 0688 2D       		.byte	0x2d
 1278 0689 2A100000 		.4byte	0x102a
 1279 068d 8080     		.2byte	0x8080
 1280 068f 17       		.uleb128 0x17
 1281 0690 89080000 		.4byte	.LASF114
 1282 0694 0B       		.byte	0xb
 1283 0695 30       		.byte	0x30
 1284 0696 2A100000 		.4byte	0x102a
 1285 069a 00000100 		.4byte	0x10000
 1286 069e 17       		.uleb128 0x17
 1287 069f C7020000 		.4byte	.LASF115
 1288 06a3 0B       		.byte	0xb
 1289 06a4 32       		.byte	0x32
 1290 06a5 2A100000 		.4byte	0x102a
 1291 06a9 55550300 		.4byte	0x35555
 1292 06ad 16       		.uleb128 0x16
 1293 06ae E5060000 		.4byte	.LASF116
 1294 06b2 0B       		.byte	0xb
 1295 06b3 34       		.byte	0x34
 1296 06b4 380C0000 		.4byte	0xc38
 1297 06b8 5535     		.2byte	0x3555
 1298 06ba 00       		.byte	0
 1299 06bb 02       		.uleb128 0x2
 1300 06bc 01       		.byte	0x1
 1301 06bd 02       		.byte	0x2
 1302 06be 2A090000 		.4byte	.LASF117
 1303 06c2 18       		.uleb128 0x18
 1304 06c3 3E000000 		.4byte	0x3e
 1305 06c7 D2060000 		.4byte	0x6d2
 1306 06cb 19       		.uleb128 0x19
 1307 06cc F7000000 		.4byte	0xf7
 1308 06d0 07       		.byte	0x7
 1309 06d1 00       		.byte	0
 1310 06d2 18       		.uleb128 0x18
 1311 06d3 50000000 		.4byte	0x50
ARM GAS  /tmp/ccuLV1lx.s 			page 24


 1312 06d7 E2060000 		.4byte	0x6e2
 1313 06db 19       		.uleb128 0x19
 1314 06dc F7000000 		.4byte	0xf7
 1315 06e0 07       		.byte	0x7
 1316 06e1 00       		.byte	0
 1317 06e2 18       		.uleb128 0x18
 1318 06e3 09010000 		.4byte	0x109
 1319 06e7 F2060000 		.4byte	0x6f2
 1320 06eb 19       		.uleb128 0x19
 1321 06ec F7000000 		.4byte	0xf7
 1322 06f0 07       		.byte	0x7
 1323 06f1 00       		.byte	0
 1324 06f2 1A       		.uleb128 0x1a
 1325 06f3 04       		.byte	0x4
 1326 06f4 28010000 		.4byte	0x128
 1327 06f8 1B       		.uleb128 0x1b
 1328 06f9 04       		.byte	0x4
 1329 06fa 1A       		.uleb128 0x1a
 1330 06fb 04       		.byte	0x4
 1331 06fc A2000000 		.4byte	0xa2
 1332 0700 1A       		.uleb128 0x1a
 1333 0701 04       		.byte	0x4
 1334 0702 AD000000 		.4byte	0xad
 1335 0706 1C       		.uleb128 0x1c
 1336 0707 04       		.byte	0x4
 1337 0708 8A040000 		.4byte	0x48a
 1338 070c 1D       		.uleb128 0x1d
 1339 070d 73746400 		.ascii	"std\000"
 1340 0711 16       		.byte	0x16
 1341 0712 00       		.byte	0
 1342 0713 AA080000 		.4byte	0x8aa
 1343 0717 05       		.uleb128 0x5
 1344 0718 0E000000 		.4byte	.LASF119
 1345 071c 0C       		.byte	0xc
 1346 071d 30       		.byte	0x30
 1347 071e 1E       		.uleb128 0x1e
 1348 071f 0D       		.byte	0xd
 1349 0720 76       		.byte	0x76
 1350 0721 75090000 		.4byte	0x975
 1351 0725 1E       		.uleb128 0x1e
 1352 0726 0D       		.byte	0xd
 1353 0727 77       		.byte	0x77
 1354 0728 A5090000 		.4byte	0x9a5
 1355 072c 1E       		.uleb128 0x1e
 1356 072d 0D       		.byte	0xd
 1357 072e 7B       		.byte	0x7b
 1358 072f DC090000 		.4byte	0x9dc
 1359 0733 1E       		.uleb128 0x1e
 1360 0734 0D       		.byte	0xd
 1361 0735 81       		.byte	0x81
 1362 0736 F1090000 		.4byte	0x9f1
 1363 073a 1E       		.uleb128 0x1e
 1364 073b 0D       		.byte	0xd
 1365 073c 82       		.byte	0x82
 1366 073d 060A0000 		.4byte	0xa06
 1367 0741 1E       		.uleb128 0x1e
 1368 0742 0D       		.byte	0xd
ARM GAS  /tmp/ccuLV1lx.s 			page 25


 1369 0743 83       		.byte	0x83
 1370 0744 1B0A0000 		.4byte	0xa1b
 1371 0748 1E       		.uleb128 0x1e
 1372 0749 0D       		.byte	0xd
 1373 074a 84       		.byte	0x84
 1374 074b 300A0000 		.4byte	0xa30
 1375 074f 1E       		.uleb128 0x1e
 1376 0750 0D       		.byte	0xd
 1377 0751 86       		.byte	0x86
 1378 0752 590A0000 		.4byte	0xa59
 1379 0756 1E       		.uleb128 0x1e
 1380 0757 0D       		.byte	0xd
 1381 0758 89       		.byte	0x89
 1382 0759 730A0000 		.4byte	0xa73
 1383 075d 1E       		.uleb128 0x1e
 1384 075e 0D       		.byte	0xd
 1385 075f 8B       		.byte	0x8b
 1386 0760 880A0000 		.4byte	0xa88
 1387 0764 1E       		.uleb128 0x1e
 1388 0765 0D       		.byte	0xd
 1389 0766 8E       		.byte	0x8e
 1390 0767 A20A0000 		.4byte	0xaa2
 1391 076b 1E       		.uleb128 0x1e
 1392 076c 0D       		.byte	0xd
 1393 076d 8F       		.byte	0x8f
 1394 076e BC0A0000 		.4byte	0xabc
 1395 0772 1E       		.uleb128 0x1e
 1396 0773 0D       		.byte	0xd
 1397 0774 90       		.byte	0x90
 1398 0775 E80A0000 		.4byte	0xae8
 1399 0779 1E       		.uleb128 0x1e
 1400 077a 0D       		.byte	0xd
 1401 077b 92       		.byte	0x92
 1402 077c 070B0000 		.4byte	0xb07
 1403 0780 1E       		.uleb128 0x1e
 1404 0781 0D       		.byte	0xd
 1405 0782 98       		.byte	0x98
 1406 0783 270B0000 		.4byte	0xb27
 1407 0787 1E       		.uleb128 0x1e
 1408 0788 0D       		.byte	0xd
 1409 0789 9A       		.byte	0x9a
 1410 078a 320B0000 		.4byte	0xb32
 1411 078e 1E       		.uleb128 0x1e
 1412 078f 0D       		.byte	0xd
 1413 0790 9B       		.byte	0x9b
 1414 0791 430B0000 		.4byte	0xb43
 1415 0795 1E       		.uleb128 0x1e
 1416 0796 0D       		.byte	0xd
 1417 0797 9C       		.byte	0x9c
 1418 0798 630B0000 		.4byte	0xb63
 1419 079c 1E       		.uleb128 0x1e
 1420 079d 0D       		.byte	0xd
 1421 079e 9D       		.byte	0x9d
 1422 079f 820B0000 		.4byte	0xb82
 1423 07a3 1E       		.uleb128 0x1e
 1424 07a4 0D       		.byte	0xd
 1425 07a5 9E       		.byte	0x9e
ARM GAS  /tmp/ccuLV1lx.s 			page 26


 1426 07a6 A10B0000 		.4byte	0xba1
 1427 07aa 1E       		.uleb128 0x1e
 1428 07ab 0D       		.byte	0xd
 1429 07ac A0       		.byte	0xa0
 1430 07ad B60B0000 		.4byte	0xbb6
 1431 07b1 1E       		.uleb128 0x1e
 1432 07b2 0D       		.byte	0xd
 1433 07b3 A1       		.byte	0xa1
 1434 07b4 E00B0000 		.4byte	0xbe0
 1435 07b8 1F       		.uleb128 0x1f
 1436 07b9 1C050000 		.4byte	.LASF195
 1437 07bd 01       		.byte	0x1
 1438 07be 10       		.byte	0x10
 1439 07bf 63       		.byte	0x63
 1440 07c0 03       		.uleb128 0x3
 1441 07c1 B7040000 		.4byte	.LASF17
 1442 07c5 0E       		.byte	0xe
 1443 07c6 BC       		.byte	0xbc
 1444 07c7 90000000 		.4byte	0x90
 1445 07cb 03       		.uleb128 0x3
 1446 07cc EB050000 		.4byte	.LASF120
 1447 07d0 0E       		.byte	0xe
 1448 07d1 BD       		.byte	0xbd
 1449 07d2 89000000 		.4byte	0x89
 1450 07d6 20       		.uleb128 0x20
 1451 07d7 86090000 		.4byte	.LASF196
 1452 07db 01       		.byte	0x1
 1453 07dc 0F       		.byte	0xf
 1454 07dd D1       		.byte	0xd1
 1455 07de 1A080000 		.4byte	0x81a
 1456 07e2 03       		.uleb128 0x3
 1457 07e3 FE060000 		.4byte	.LASF121
 1458 07e7 0F       		.byte	0xf
 1459 07e8 D3       		.byte	0xd3
 1460 07e9 040C0000 		.4byte	0xc04
 1461 07ed 21       		.uleb128 0x21
 1462 07ee EB040000 		.4byte	.LASF122
 1463 07f2 0F       		.byte	0xf
 1464 07f3 D4       		.byte	0xd4
 1465 07f4 7C0A0000 		.4byte	.LASF197
 1466 07f8 E2070000 		.4byte	0x7e2
 1467 07fc 06080000 		.4byte	0x806
 1468 0800 08       		.uleb128 0x8
 1469 0801 040C0000 		.4byte	0xc04
 1470 0805 00       		.byte	0
 1471 0806 22       		.uleb128 0x22
 1472 0807 8E040000 		.4byte	.LASF125
 1473 080b 040C0000 		.4byte	0xc04
 1474 080f 23       		.uleb128 0x23
 1475 0810 AA0B0000 		.4byte	.LASF198
 1476 0814 BB060000 		.4byte	0x6bb
 1477 0818 00       		.byte	0
 1478 0819 00       		.byte	0
 1479 081a 24       		.uleb128 0x24
 1480 081b 2F090000 		.4byte	.LASF124
 1481 081f 02       		.byte	0x2
 1482 0820 1601     		.2byte	0x116
ARM GAS  /tmp/ccuLV1lx.s 			page 27


 1483 0822 E2070000 		.4byte	0x7e2
 1484 0826 39080000 		.4byte	0x839
 1485 082a 22       		.uleb128 0x22
 1486 082b 8E040000 		.4byte	.LASF125
 1487 082f 040C0000 		.4byte	0xc04
 1488 0833 08       		.uleb128 0x8
 1489 0834 040C0000 		.4byte	0xc04
 1490 0838 00       		.byte	0
 1491 0839 25       		.uleb128 0x25
 1492 083a 65050000 		.4byte	.LASF127
 1493 083e 02       		.byte	0x2
 1494 083f B102     		.2byte	0x2b1
 1495 0841 67080000 		.4byte	0x867
 1496 0845 22       		.uleb128 0x22
 1497 0846 40050000 		.4byte	.LASF128
 1498 084a 040C0000 		.4byte	0xc04
 1499 084e 26       		.uleb128 0x26
 1500 084f 5F547000 		.ascii	"_Tp\000"
 1501 0853 09010000 		.4byte	0x109
 1502 0857 08       		.uleb128 0x8
 1503 0858 040C0000 		.4byte	0xc04
 1504 085c 08       		.uleb128 0x8
 1505 085d 040C0000 		.4byte	0xc04
 1506 0861 08       		.uleb128 0x8
 1507 0862 A80C0000 		.4byte	0xca8
 1508 0866 00       		.byte	0
 1509 0867 25       		.uleb128 0x25
 1510 0868 98080000 		.4byte	.LASF129
 1511 086c 02       		.byte	0x2
 1512 086d DC02     		.2byte	0x2dc
 1513 086f 95080000 		.4byte	0x895
 1514 0873 22       		.uleb128 0x22
 1515 0874 40050000 		.4byte	.LASF128
 1516 0878 040C0000 		.4byte	0xc04
 1517 087c 26       		.uleb128 0x26
 1518 087d 5F547000 		.ascii	"_Tp\000"
 1519 0881 09010000 		.4byte	0x109
 1520 0885 08       		.uleb128 0x8
 1521 0886 040C0000 		.4byte	0xc04
 1522 088a 08       		.uleb128 0x8
 1523 088b 040C0000 		.4byte	0xc04
 1524 088f 08       		.uleb128 0x8
 1525 0890 A80C0000 		.4byte	0xca8
 1526 0894 00       		.byte	0
 1527 0895 15       		.uleb128 0x15
 1528 0896 AF010000 		.4byte	.LASF130
 1529 089a 10       		.byte	0x10
 1530 089b 65       		.byte	0x65
 1531 089c B8070000 		.4byte	.LASF131
 1532 08a0 A4080000 		.4byte	0x8a4
 1533 08a4 12       		.uleb128 0x12
 1534 08a5 B8070000 		.4byte	0x7b8
 1535 08a9 00       		.byte	0
 1536 08aa 06       		.uleb128 0x6
 1537 08ab E2000000 		.4byte	.LASF132
 1538 08af 11       		.byte	0x11
 1539 08b0 45       		.byte	0x45
ARM GAS  /tmp/ccuLV1lx.s 			page 28


 1540 08b1 09090000 		.4byte	0x909
 1541 08b5 05       		.uleb128 0x5
 1542 08b6 330C0000 		.4byte	.LASF133
 1543 08ba 12       		.byte	0x12
 1544 08bb 24       		.byte	0x24
 1545 08bc 1E       		.uleb128 0x1e
 1546 08bd 13       		.byte	0x13
 1547 08be 2C       		.byte	0x2c
 1548 08bf C0070000 		.4byte	0x7c0
 1549 08c3 1E       		.uleb128 0x1e
 1550 08c4 13       		.byte	0x13
 1551 08c5 2D       		.byte	0x2d
 1552 08c6 CB070000 		.4byte	0x7cb
 1553 08ca 27       		.uleb128 0x27
 1554 08cb E1080000 		.4byte	.LASF199
 1555 08cf 01       		.byte	0x1
 1556 08d0 14       		.byte	0x14
 1557 08d1 37       		.byte	0x37
 1558 08d2 28       		.uleb128 0x28
 1559 08d3 E80A0000 		.4byte	.LASF134
 1560 08d7 14       		.byte	0x14
 1561 08d8 3A       		.byte	0x3a
 1562 08d9 FA0B0000 		.4byte	0xbfa
 1563 08dd 28       		.uleb128 0x28
 1564 08de 2D050000 		.4byte	.LASF135
 1565 08e2 14       		.byte	0x14
 1566 08e3 3B       		.byte	0x3b
 1567 08e4 FA0B0000 		.4byte	0xbfa
 1568 08e8 28       		.uleb128 0x28
 1569 08e9 40070000 		.4byte	.LASF136
 1570 08ed 14       		.byte	0x14
 1571 08ee 3F       		.byte	0x3f
 1572 08ef FF0B0000 		.4byte	0xbff
 1573 08f3 28       		.uleb128 0x28
 1574 08f4 8C0B0000 		.4byte	.LASF137
 1575 08f8 14       		.byte	0x14
 1576 08f9 40       		.byte	0x40
 1577 08fa FA0B0000 		.4byte	0xbfa
 1578 08fe 22       		.uleb128 0x22
 1579 08ff 4C070000 		.4byte	.LASF138
 1580 0903 89000000 		.4byte	0x89
 1581 0907 00       		.byte	0
 1582 0908 00       		.byte	0
 1583 0909 02       		.uleb128 0x2
 1584 090a 08       		.byte	0x8
 1585 090b 04       		.byte	0x4
 1586 090c DE070000 		.4byte	.LASF139
 1587 0910 02       		.uleb128 0x2
 1588 0911 08       		.byte	0x8
 1589 0912 04       		.byte	0x4
 1590 0913 CE0B0000 		.4byte	.LASF140
 1591 0917 02       		.uleb128 0x2
 1592 0918 04       		.byte	0x4
 1593 0919 04       		.byte	0x4
 1594 091a 82020000 		.4byte	.LASF141
 1595 091e 06       		.uleb128 0x6
 1596 091f 2D020000 		.4byte	.LASF142
ARM GAS  /tmp/ccuLV1lx.s 			page 29


 1597 0923 0C       		.byte	0xc
 1598 0924 37       		.byte	0x37
 1599 0925 31090000 		.4byte	0x931
 1600 0929 13       		.uleb128 0x13
 1601 092a 0C       		.byte	0xc
 1602 092b 38       		.byte	0x38
 1603 092c 17070000 		.4byte	0x717
 1604 0930 00       		.byte	0
 1605 0931 1A       		.uleb128 0x1a
 1606 0932 04       		.byte	0x4
 1607 0933 37090000 		.4byte	0x937
 1608 0937 29       		.uleb128 0x29
 1609 0938 1A       		.uleb128 0x1a
 1610 0939 04       		.byte	0x4
 1611 093a 3E090000 		.4byte	0x93e
 1612 093e 02       		.uleb128 0x2
 1613 093f 01       		.byte	0x1
 1614 0940 08       		.byte	0x8
 1615 0941 BC050000 		.4byte	.LASF143
 1616 0945 1A       		.uleb128 0x1a
 1617 0946 04       		.byte	0x4
 1618 0947 4B090000 		.4byte	0x94b
 1619 094b 12       		.uleb128 0x12
 1620 094c 3E090000 		.4byte	0x93e
 1621 0950 2A       		.uleb128 0x2a
 1622 0951 08       		.byte	0x8
 1623 0952 15       		.byte	0x15
 1624 0953 20       		.byte	0x20
 1625 0954 CB050000 		.4byte	.LASF146
 1626 0958 75090000 		.4byte	0x975
 1627 095c 0C       		.uleb128 0xc
 1628 095d 36060000 		.4byte	.LASF144
 1629 0961 15       		.byte	0x15
 1630 0962 21       		.byte	0x21
 1631 0963 89000000 		.4byte	0x89
 1632 0967 00       		.byte	0
 1633 0968 2B       		.uleb128 0x2b
 1634 0969 72656D00 		.ascii	"rem\000"
 1635 096d 15       		.byte	0x15
 1636 096e 22       		.byte	0x22
 1637 096f 89000000 		.4byte	0x89
 1638 0973 04       		.byte	0x4
 1639 0974 00       		.byte	0
 1640 0975 03       		.uleb128 0x3
 1641 0976 F0090000 		.4byte	.LASF145
 1642 097a 15       		.byte	0x15
 1643 097b 23       		.byte	0x23
 1644 097c 50090000 		.4byte	0x950
 1645 0980 2A       		.uleb128 0x2a
 1646 0981 08       		.byte	0x8
 1647 0982 15       		.byte	0x15
 1648 0983 26       		.byte	0x26
 1649 0984 E00A0000 		.4byte	.LASF147
 1650 0988 A5090000 		.4byte	0x9a5
 1651 098c 0C       		.uleb128 0xc
 1652 098d 36060000 		.4byte	.LASF144
 1653 0991 15       		.byte	0x15
ARM GAS  /tmp/ccuLV1lx.s 			page 30


 1654 0992 27       		.byte	0x27
 1655 0993 62000000 		.4byte	0x62
 1656 0997 00       		.byte	0
 1657 0998 2B       		.uleb128 0x2b
 1658 0999 72656D00 		.ascii	"rem\000"
 1659 099d 15       		.byte	0x15
 1660 099e 28       		.byte	0x28
 1661 099f 62000000 		.4byte	0x62
 1662 09a3 04       		.byte	0x4
 1663 09a4 00       		.byte	0
 1664 09a5 03       		.uleb128 0x3
 1665 09a6 EC000000 		.4byte	.LASF148
 1666 09aa 15       		.byte	0x15
 1667 09ab 29       		.byte	0x29
 1668 09ac 80090000 		.4byte	0x980
 1669 09b0 03       		.uleb128 0x3
 1670 09b1 C40A0000 		.4byte	.LASF149
 1671 09b5 15       		.byte	0x15
 1672 09b6 37       		.byte	0x37
 1673 09b7 BB090000 		.4byte	0x9bb
 1674 09bb 1A       		.uleb128 0x1a
 1675 09bc 04       		.byte	0x4
 1676 09bd C1090000 		.4byte	0x9c1
 1677 09c1 2C       		.uleb128 0x2c
 1678 09c2 89000000 		.4byte	0x89
 1679 09c6 D5090000 		.4byte	0x9d5
 1680 09ca 08       		.uleb128 0x8
 1681 09cb D5090000 		.4byte	0x9d5
 1682 09cf 08       		.uleb128 0x8
 1683 09d0 D5090000 		.4byte	0x9d5
 1684 09d4 00       		.byte	0
 1685 09d5 1A       		.uleb128 0x1a
 1686 09d6 04       		.byte	0x4
 1687 09d7 DB090000 		.4byte	0x9db
 1688 09db 2D       		.uleb128 0x2d
 1689 09dc 2E       		.uleb128 0x2e
 1690 09dd CE080000 		.4byte	.LASF150
 1691 09e1 15       		.byte	0x15
 1692 09e2 45       		.byte	0x45
 1693 09e3 89000000 		.4byte	0x89
 1694 09e7 F1090000 		.4byte	0x9f1
 1695 09eb 08       		.uleb128 0x8
 1696 09ec 31090000 		.4byte	0x931
 1697 09f0 00       		.byte	0
 1698 09f1 2E       		.uleb128 0x2e
 1699 09f2 B30B0000 		.4byte	.LASF151
 1700 09f6 15       		.byte	0x15
 1701 09f7 46       		.byte	0x46
 1702 09f8 10090000 		.4byte	0x910
 1703 09fc 060A0000 		.4byte	0xa06
 1704 0a00 08       		.uleb128 0x8
 1705 0a01 45090000 		.4byte	0x945
 1706 0a05 00       		.byte	0
 1707 0a06 2E       		.uleb128 0x2e
 1708 0a07 B80B0000 		.4byte	.LASF152
 1709 0a0b 15       		.byte	0x15
 1710 0a0c 4A       		.byte	0x4a
ARM GAS  /tmp/ccuLV1lx.s 			page 31


 1711 0a0d 89000000 		.4byte	0x89
 1712 0a11 1B0A0000 		.4byte	0xa1b
 1713 0a15 08       		.uleb128 0x8
 1714 0a16 45090000 		.4byte	0x945
 1715 0a1a 00       		.byte	0
 1716 0a1b 2E       		.uleb128 0x2e
 1717 0a1c BD0B0000 		.4byte	.LASF153
 1718 0a20 15       		.byte	0x15
 1719 0a21 4C       		.byte	0x4c
 1720 0a22 62000000 		.4byte	0x62
 1721 0a26 300A0000 		.4byte	0xa30
 1722 0a2a 08       		.uleb128 0x8
 1723 0a2b 45090000 		.4byte	0x945
 1724 0a2f 00       		.byte	0
 1725 0a30 2E       		.uleb128 0x2e
 1726 0a31 F3040000 		.4byte	.LASF154
 1727 0a35 15       		.byte	0x15
 1728 0a36 4E       		.byte	0x4e
 1729 0a37 F8060000 		.4byte	0x6f8
 1730 0a3b 590A0000 		.4byte	0xa59
 1731 0a3f 08       		.uleb128 0x8
 1732 0a40 D5090000 		.4byte	0x9d5
 1733 0a44 08       		.uleb128 0x8
 1734 0a45 D5090000 		.4byte	0x9d5
 1735 0a49 08       		.uleb128 0x8
 1736 0a4a C3000000 		.4byte	0xc3
 1737 0a4e 08       		.uleb128 0x8
 1738 0a4f C3000000 		.4byte	0xc3
 1739 0a53 08       		.uleb128 0x8
 1740 0a54 B0090000 		.4byte	0x9b0
 1741 0a58 00       		.byte	0
 1742 0a59 2F       		.uleb128 0x2f
 1743 0a5a 64697600 		.ascii	"div\000"
 1744 0a5e 15       		.byte	0x15
 1745 0a5f 54       		.byte	0x54
 1746 0a60 75090000 		.4byte	0x975
 1747 0a64 730A0000 		.4byte	0xa73
 1748 0a68 08       		.uleb128 0x8
 1749 0a69 89000000 		.4byte	0x89
 1750 0a6d 08       		.uleb128 0x8
 1751 0a6e 89000000 		.4byte	0x89
 1752 0a72 00       		.byte	0
 1753 0a73 2E       		.uleb128 0x2e
 1754 0a74 00000000 		.4byte	.LASF155
 1755 0a78 15       		.byte	0x15
 1756 0a79 57       		.byte	0x57
 1757 0a7a 38090000 		.4byte	0x938
 1758 0a7e 880A0000 		.4byte	0xa88
 1759 0a82 08       		.uleb128 0x8
 1760 0a83 45090000 		.4byte	0x945
 1761 0a87 00       		.byte	0
 1762 0a88 2E       		.uleb128 0x2e
 1763 0a89 CE060000 		.4byte	.LASF156
 1764 0a8d 15       		.byte	0x15
 1765 0a8e 60       		.byte	0x60
 1766 0a8f A5090000 		.4byte	0x9a5
 1767 0a93 A20A0000 		.4byte	0xaa2
ARM GAS  /tmp/ccuLV1lx.s 			page 32


 1768 0a97 08       		.uleb128 0x8
 1769 0a98 62000000 		.4byte	0x62
 1770 0a9c 08       		.uleb128 0x8
 1771 0a9d 62000000 		.4byte	0x62
 1772 0aa1 00       		.byte	0
 1773 0aa2 2E       		.uleb128 0x2e
 1774 0aa3 CF000000 		.4byte	.LASF157
 1775 0aa7 15       		.byte	0x15
 1776 0aa8 62       		.byte	0x62
 1777 0aa9 89000000 		.4byte	0x89
 1778 0aad BC0A0000 		.4byte	0xabc
 1779 0ab1 08       		.uleb128 0x8
 1780 0ab2 45090000 		.4byte	0x945
 1781 0ab6 08       		.uleb128 0x8
 1782 0ab7 C3000000 		.4byte	0xc3
 1783 0abb 00       		.byte	0
 1784 0abc 2E       		.uleb128 0x2e
 1785 0abd 49040000 		.4byte	.LASF158
 1786 0ac1 15       		.byte	0x15
 1787 0ac2 68       		.byte	0x68
 1788 0ac3 C3000000 		.4byte	0xc3
 1789 0ac7 DB0A0000 		.4byte	0xadb
 1790 0acb 08       		.uleb128 0x8
 1791 0acc DB0A0000 		.4byte	0xadb
 1792 0ad0 08       		.uleb128 0x8
 1793 0ad1 45090000 		.4byte	0x945
 1794 0ad5 08       		.uleb128 0x8
 1795 0ad6 C3000000 		.4byte	0xc3
 1796 0ada 00       		.byte	0
 1797 0adb 1A       		.uleb128 0x1a
 1798 0adc 04       		.byte	0x4
 1799 0add E10A0000 		.4byte	0xae1
 1800 0ae1 02       		.uleb128 0x2
 1801 0ae2 04       		.byte	0x4
 1802 0ae3 07       		.byte	0x7
 1803 0ae4 0F010000 		.4byte	.LASF159
 1804 0ae8 2E       		.uleb128 0x2e
 1805 0ae9 6C020000 		.4byte	.LASF160
 1806 0aed 15       		.byte	0x15
 1807 0aee 64       		.byte	0x64
 1808 0aef 89000000 		.4byte	0x89
 1809 0af3 070B0000 		.4byte	0xb07
 1810 0af7 08       		.uleb128 0x8
 1811 0af8 DB0A0000 		.4byte	0xadb
 1812 0afc 08       		.uleb128 0x8
 1813 0afd 45090000 		.4byte	0x945
 1814 0b01 08       		.uleb128 0x8
 1815 0b02 C3000000 		.4byte	0xc3
 1816 0b06 00       		.byte	0
 1817 0b07 30       		.uleb128 0x30
 1818 0b08 950C0000 		.4byte	.LASF161
 1819 0b0c 15       		.byte	0x15
 1820 0b0d 7C       		.byte	0x7c
 1821 0b0e 270B0000 		.4byte	0xb27
 1822 0b12 08       		.uleb128 0x8
 1823 0b13 F8060000 		.4byte	0x6f8
 1824 0b17 08       		.uleb128 0x8
ARM GAS  /tmp/ccuLV1lx.s 			page 33


 1825 0b18 C3000000 		.4byte	0xc3
 1826 0b1c 08       		.uleb128 0x8
 1827 0b1d C3000000 		.4byte	0xc3
 1828 0b21 08       		.uleb128 0x8
 1829 0b22 B0090000 		.4byte	0x9b0
 1830 0b26 00       		.byte	0
 1831 0b27 31       		.uleb128 0x31
 1832 0b28 45000000 		.4byte	.LASF200
 1833 0b2c 15       		.byte	0x15
 1834 0b2d 7D       		.byte	0x7d
 1835 0b2e 89000000 		.4byte	0x89
 1836 0b32 30       		.uleb128 0x30
 1837 0b33 BE040000 		.4byte	.LASF162
 1838 0b37 15       		.byte	0x15
 1839 0b38 83       		.byte	0x83
 1840 0b39 430B0000 		.4byte	0xb43
 1841 0b3d 08       		.uleb128 0x8
 1842 0b3e 90000000 		.4byte	0x90
 1843 0b42 00       		.byte	0
 1844 0b43 2E       		.uleb128 0x2e
 1845 0b44 4A0A0000 		.4byte	.LASF163
 1846 0b48 15       		.byte	0x15
 1847 0b49 84       		.byte	0x84
 1848 0b4a 10090000 		.4byte	0x910
 1849 0b4e 5D0B0000 		.4byte	0xb5d
 1850 0b52 08       		.uleb128 0x8
 1851 0b53 45090000 		.4byte	0x945
 1852 0b57 08       		.uleb128 0x8
 1853 0b58 5D0B0000 		.4byte	0xb5d
 1854 0b5c 00       		.byte	0
 1855 0b5d 1A       		.uleb128 0x1a
 1856 0b5e 04       		.byte	0x4
 1857 0b5f 38090000 		.4byte	0x938
 1858 0b63 2E       		.uleb128 0x2e
 1859 0b64 750A0000 		.4byte	.LASF164
 1860 0b68 15       		.byte	0x15
 1861 0b69 91       		.byte	0x91
 1862 0b6a 62000000 		.4byte	0x62
 1863 0b6e 820B0000 		.4byte	0xb82
 1864 0b72 08       		.uleb128 0x8
 1865 0b73 45090000 		.4byte	0x945
 1866 0b77 08       		.uleb128 0x8
 1867 0b78 5D0B0000 		.4byte	0xb5d
 1868 0b7c 08       		.uleb128 0x8
 1869 0b7d 89000000 		.4byte	0x89
 1870 0b81 00       		.byte	0
 1871 0b82 2E       		.uleb128 0x2e
 1872 0b83 6C090000 		.4byte	.LASF165
 1873 0b87 15       		.byte	0x15
 1874 0b88 93       		.byte	0x93
 1875 0b89 74000000 		.4byte	0x74
 1876 0b8d A10B0000 		.4byte	0xba1
 1877 0b91 08       		.uleb128 0x8
 1878 0b92 45090000 		.4byte	0x945
 1879 0b96 08       		.uleb128 0x8
 1880 0b97 5D0B0000 		.4byte	0xb5d
 1881 0b9b 08       		.uleb128 0x8
ARM GAS  /tmp/ccuLV1lx.s 			page 34


 1882 0b9c 89000000 		.4byte	0x89
 1883 0ba0 00       		.byte	0
 1884 0ba1 2E       		.uleb128 0x2e
 1885 0ba2 68000000 		.4byte	.LASF166
 1886 0ba6 15       		.byte	0x15
 1887 0ba7 96       		.byte	0x96
 1888 0ba8 89000000 		.4byte	0x89
 1889 0bac B60B0000 		.4byte	0xbb6
 1890 0bb0 08       		.uleb128 0x8
 1891 0bb1 45090000 		.4byte	0x945
 1892 0bb5 00       		.byte	0
 1893 0bb6 2E       		.uleb128 0x2e
 1894 0bb7 6C0A0000 		.4byte	.LASF167
 1895 0bbb 15       		.byte	0x15
 1896 0bbc 6A       		.byte	0x6a
 1897 0bbd C3000000 		.4byte	0xc3
 1898 0bc1 D50B0000 		.4byte	0xbd5
 1899 0bc5 08       		.uleb128 0x8
 1900 0bc6 38090000 		.4byte	0x938
 1901 0bca 08       		.uleb128 0x8
 1902 0bcb D50B0000 		.4byte	0xbd5
 1903 0bcf 08       		.uleb128 0x8
 1904 0bd0 C3000000 		.4byte	0xc3
 1905 0bd4 00       		.byte	0
 1906 0bd5 1A       		.uleb128 0x1a
 1907 0bd6 04       		.byte	0x4
 1908 0bd7 DB0B0000 		.4byte	0xbdb
 1909 0bdb 12       		.uleb128 0x12
 1910 0bdc E10A0000 		.4byte	0xae1
 1911 0be0 2E       		.uleb128 0x2e
 1912 0be1 C20B0000 		.4byte	.LASF168
 1913 0be5 15       		.byte	0x15
 1914 0be6 66       		.byte	0x66
 1915 0be7 89000000 		.4byte	0x89
 1916 0beb FA0B0000 		.4byte	0xbfa
 1917 0bef 08       		.uleb128 0x8
 1918 0bf0 38090000 		.4byte	0x938
 1919 0bf4 08       		.uleb128 0x8
 1920 0bf5 E10A0000 		.4byte	0xae1
 1921 0bf9 00       		.byte	0
 1922 0bfa 12       		.uleb128 0x12
 1923 0bfb 89000000 		.4byte	0x89
 1924 0bff 12       		.uleb128 0x12
 1925 0c00 BB060000 		.4byte	0x6bb
 1926 0c04 1A       		.uleb128 0x1a
 1927 0c05 04       		.byte	0x4
 1928 0c06 09010000 		.4byte	0x109
 1929 0c0a 32       		.uleb128 0x32
 1930 0c0b 32040000 		.4byte	0x432
 1931 0c0f 03       		.byte	0x3
 1932 0c10 180C0000 		.4byte	0xc18
 1933 0c14 2D0C0000 		.4byte	0xc2d
 1934 0c18 33       		.uleb128 0x33
 1935 0c19 06080000 		.4byte	.LASF176
 1936 0c1d 2D0C0000 		.4byte	0xc2d
 1937 0c21 34       		.uleb128 0x34
 1938 0c22 61040000 		.4byte	.LASF169
ARM GAS  /tmp/ccuLV1lx.s 			page 35


 1939 0c26 03       		.byte	0x3
 1940 0c27 CE       		.byte	0xce
 1941 0c28 BB060000 		.4byte	0x6bb
 1942 0c2c 00       		.byte	0
 1943 0c2d 12       		.uleb128 0x12
 1944 0c2e F2060000 		.4byte	0x6f2
 1945 0c32 1A       		.uleb128 0x1a
 1946 0c33 04       		.byte	0x4
 1947 0c34 380C0000 		.4byte	0xc38
 1948 0c38 12       		.uleb128 0x12
 1949 0c39 A2000000 		.4byte	0xa2
 1950 0c3d 35       		.uleb128 0x35
 1951 0c3e E0000000 		.4byte	0xe0
 1952 0c42 03       		.byte	0x3
 1953 0c43 720C0000 		.4byte	0xc72
 1954 0c47 34       		.uleb128 0x34
 1955 0c48 F5050000 		.4byte	.LASF170
 1956 0c4c 04       		.byte	0x4
 1957 0c4d 64       		.byte	0x64
 1958 0c4e 320C0000 		.4byte	0xc32
 1959 0c52 34       		.uleb128 0x34
 1960 0c53 3A050000 		.4byte	.LASF171
 1961 0c57 04       		.byte	0x4
 1962 0c58 64       		.byte	0x64
 1963 0c59 B8000000 		.4byte	0xb8
 1964 0c5d 36       		.uleb128 0x36
 1965 0c5e 37       		.uleb128 0x37
 1966 0c5f 6100     		.ascii	"a\000"
 1967 0c61 04       		.byte	0x4
 1968 0c62 65       		.byte	0x65
 1969 0c63 B8000000 		.4byte	0xb8
 1970 0c67 37       		.uleb128 0x37
 1971 0c68 6200     		.ascii	"b\000"
 1972 0c6a 04       		.byte	0x4
 1973 0c6b 66       		.byte	0x66
 1974 0c6c B8000000 		.4byte	0xb8
 1975 0c70 00       		.byte	0
 1976 0c71 00       		.byte	0
 1977 0c72 35       		.uleb128 0x35
 1978 0c73 ED070000 		.4byte	0x7ed
 1979 0c77 03       		.byte	0x3
 1980 0c78 880C0000 		.4byte	0xc88
 1981 0c7c 34       		.uleb128 0x34
 1982 0c7d C90B0000 		.4byte	.LASF172
 1983 0c81 0F       		.byte	0xf
 1984 0c82 D4       		.byte	0xd4
 1985 0c83 040C0000 		.4byte	0xc04
 1986 0c87 00       		.byte	0
 1987 0c88 35       		.uleb128 0x35
 1988 0c89 1A080000 		.4byte	0x81a
 1989 0c8d 03       		.byte	0x3
 1990 0c8e A80C0000 		.4byte	0xca8
 1991 0c92 22       		.uleb128 0x22
 1992 0c93 8E040000 		.4byte	.LASF125
 1993 0c97 040C0000 		.4byte	0xc04
 1994 0c9b 38       		.uleb128 0x38
 1995 0c9c C90B0000 		.4byte	.LASF172
ARM GAS  /tmp/ccuLV1lx.s 			page 36


 1996 0ca0 02       		.byte	0x2
 1997 0ca1 1601     		.2byte	0x116
 1998 0ca3 040C0000 		.4byte	0xc04
 1999 0ca7 00       		.byte	0
 2000 0ca8 1C       		.uleb128 0x1c
 2001 0ca9 04       		.byte	0x4
 2002 0caa 9D040000 		.4byte	0x49d
 2003 0cae 35       		.uleb128 0x35
 2004 0caf 39080000 		.4byte	0x839
 2005 0cb3 03       		.byte	0x3
 2006 0cb4 EF0C0000 		.4byte	0xcef
 2007 0cb8 22       		.uleb128 0x22
 2008 0cb9 40050000 		.4byte	.LASF128
 2009 0cbd 040C0000 		.4byte	0xc04
 2010 0cc1 26       		.uleb128 0x26
 2011 0cc2 5F547000 		.ascii	"_Tp\000"
 2012 0cc6 09010000 		.4byte	0x109
 2013 0cca 38       		.uleb128 0x38
 2014 0ccb 140A0000 		.4byte	.LASF173
 2015 0ccf 02       		.byte	0x2
 2016 0cd0 B102     		.2byte	0x2b1
 2017 0cd2 040C0000 		.4byte	0xc04
 2018 0cd6 38       		.uleb128 0x38
 2019 0cd7 B0040000 		.4byte	.LASF174
 2020 0cdb 02       		.byte	0x2
 2021 0cdc B102     		.2byte	0x2b1
 2022 0cde 040C0000 		.4byte	0xc04
 2023 0ce2 38       		.uleb128 0x38
 2024 0ce3 5D050000 		.4byte	.LASF175
 2025 0ce7 02       		.byte	0x2
 2026 0ce8 B202     		.2byte	0x2b2
 2027 0cea EF0C0000 		.4byte	0xcef
 2028 0cee 00       		.byte	0
 2029 0cef 12       		.uleb128 0x12
 2030 0cf0 A80C0000 		.4byte	0xca8
 2031 0cf4 35       		.uleb128 0x35
 2032 0cf5 67080000 		.4byte	0x867
 2033 0cf9 03       		.byte	0x3
 2034 0cfa 350D0000 		.4byte	0xd35
 2035 0cfe 22       		.uleb128 0x22
 2036 0cff 40050000 		.4byte	.LASF128
 2037 0d03 040C0000 		.4byte	0xc04
 2038 0d07 26       		.uleb128 0x26
 2039 0d08 5F547000 		.ascii	"_Tp\000"
 2040 0d0c 09010000 		.4byte	0x109
 2041 0d10 38       		.uleb128 0x38
 2042 0d11 140A0000 		.4byte	.LASF173
 2043 0d15 02       		.byte	0x2
 2044 0d16 DC02     		.2byte	0x2dc
 2045 0d18 040C0000 		.4byte	0xc04
 2046 0d1c 38       		.uleb128 0x38
 2047 0d1d B0040000 		.4byte	.LASF174
 2048 0d21 02       		.byte	0x2
 2049 0d22 DC02     		.2byte	0x2dc
 2050 0d24 040C0000 		.4byte	0xc04
 2051 0d28 38       		.uleb128 0x38
 2052 0d29 5D050000 		.4byte	.LASF175
ARM GAS  /tmp/ccuLV1lx.s 			page 37


 2053 0d2d 02       		.byte	0x2
 2054 0d2e DC02     		.2byte	0x2dc
 2055 0d30 350D0000 		.4byte	0xd35
 2056 0d34 00       		.byte	0
 2057 0d35 12       		.uleb128 0x12
 2058 0d36 A80C0000 		.4byte	0xca8
 2059 0d3a 32       		.uleb128 0x32
 2060 0d3b 60030000 		.4byte	0x360
 2061 0d3f 03       		.byte	0x3
 2062 0d40 480D0000 		.4byte	0xd48
 2063 0d44 680D0000 		.4byte	0xd68
 2064 0d48 33       		.uleb128 0x33
 2065 0d49 06080000 		.4byte	.LASF176
 2066 0d4d 2D0C0000 		.4byte	0xc2d
 2067 0d51 34       		.uleb128 0x34
 2068 0d52 AE050000 		.4byte	.LASF177
 2069 0d56 03       		.byte	0x3
 2070 0d57 68       		.byte	0x68
 2071 0d58 A2000000 		.4byte	0xa2
 2072 0d5c 34       		.uleb128 0x34
 2073 0d5d 42010000 		.4byte	.LASF178
 2074 0d61 03       		.byte	0x3
 2075 0d62 68       		.byte	0x68
 2076 0d63 A2000000 		.4byte	0xa2
 2077 0d67 00       		.byte	0
 2078 0d68 39       		.uleb128 0x39
 2079 0d69 69020000 		.4byte	0x269
 2080 0d6d 01       		.byte	0x1
 2081 0d6e 2C       		.byte	0x2c
 2082 0d6f 00000000 		.4byte	.LFB473
 2083 0d73 5A000000 		.4byte	.LFE473-.LFB473
 2084 0d77 01       		.uleb128 0x1
 2085 0d78 9C       		.byte	0x9c
 2086 0d79 810D0000 		.4byte	0xd81
 2087 0d7d 040E0000 		.4byte	0xe04
 2088 0d81 3A       		.uleb128 0x3a
 2089 0d82 06080000 		.4byte	.LASF176
 2090 0d86 2D0C0000 		.4byte	0xc2d
 2091 0d8a 01       		.uleb128 0x1
 2092 0d8b 50       		.byte	0x50
 2093 0d8c 3B       		.uleb128 0x3b
 2094 0d8d F40C0000 		.4byte	0xcf4
 2095 0d91 0A000000 		.4byte	.LBB22
 2096 0d95 0E000000 		.4byte	.LBE22-.LBB22
 2097 0d99 01       		.byte	0x1
 2098 0d9a 2D       		.byte	0x2d
 2099 0d9b DF0D0000 		.4byte	0xddf
 2100 0d9f 3C       		.uleb128 0x3c
 2101 0da0 280D0000 		.4byte	0xd28
 2102 0da4 3D       		.uleb128 0x3d
 2103 0da5 1C0D0000 		.4byte	0xd1c
 2104 0da9 00000000 		.4byte	.LLST0
 2105 0dad 3D       		.uleb128 0x3d
 2106 0dae 100D0000 		.4byte	0xd10
 2107 0db2 20000000 		.4byte	.LLST1
 2108 0db6 3E       		.uleb128 0x3e
 2109 0db7 AE0C0000 		.4byte	0xcae
ARM GAS  /tmp/ccuLV1lx.s 			page 38


 2110 0dbb 0A000000 		.4byte	.LBB23
 2111 0dbf 0E000000 		.4byte	.LBE23-.LBB23
 2112 0dc3 02       		.byte	0x2
 2113 0dc4 E302     		.2byte	0x2e3
 2114 0dc6 3C       		.uleb128 0x3c
 2115 0dc7 E20C0000 		.4byte	0xce2
 2116 0dcb 3D       		.uleb128 0x3d
 2117 0dcc D60C0000 		.4byte	0xcd6
 2118 0dd0 00000000 		.4byte	.LLST0
 2119 0dd4 3D       		.uleb128 0x3d
 2120 0dd5 CA0C0000 		.4byte	0xcca
 2121 0dd9 40000000 		.4byte	.LLST3
 2122 0ddd 00       		.byte	0
 2123 0dde 00       		.byte	0
 2124 0ddf 3F       		.uleb128 0x3f
 2125 0de0 3A0D0000 		.4byte	0xd3a
 2126 0de4 18000000 		.4byte	.LBB25
 2127 0de8 00000000 		.4byte	.Ldebug_ranges0+0
 2128 0dec 01       		.byte	0x1
 2129 0ded 2E       		.byte	0x2e
 2130 0dee 40       		.uleb128 0x40
 2131 0def 5C0D0000 		.4byte	0xd5c
 2132 0df3 0020     		.2byte	0x2000
 2133 0df5 41       		.uleb128 0x41
 2134 0df6 510D0000 		.4byte	0xd51
 2135 0dfa 00       		.byte	0
 2136 0dfb 42       		.uleb128 0x42
 2137 0dfc 480D0000 		.4byte	0xd48
 2138 0e00 01       		.uleb128 0x1
 2139 0e01 50       		.byte	0x50
 2140 0e02 00       		.byte	0
 2141 0e03 00       		.byte	0
 2142 0e04 39       		.uleb128 0x39
 2143 0e05 83020000 		.4byte	0x283
 2144 0e09 01       		.byte	0x1
 2145 0e0a 3C       		.byte	0x3c
 2146 0e0b 60000000 		.4byte	.LFB474
 2147 0e0f E8010000 		.4byte	.LFE474-.LFB474
 2148 0e13 01       		.uleb128 0x1
 2149 0e14 9C       		.byte	0x9c
 2150 0e15 1D0E0000 		.4byte	0xe1d
 2151 0e19 380F0000 		.4byte	0xf38
 2152 0e1d 3A       		.uleb128 0x3a
 2153 0e1e 06080000 		.4byte	.LASF176
 2154 0e22 2D0C0000 		.4byte	0xc2d
 2155 0e26 01       		.uleb128 0x1
 2156 0e27 50       		.byte	0x50
 2157 0e28 43       		.uleb128 0x43
 2158 0e29 98040000 		.4byte	.LASF179
 2159 0e2d 01       		.byte	0x1
 2160 0e2e 3D       		.byte	0x3d
 2161 0e2f 97000000 		.4byte	0x97
 2162 0e33 53000000 		.4byte	.LLST4
 2163 0e37 43       		.uleb128 0x43
 2164 0e38 2F040000 		.4byte	.LASF180
 2165 0e3c 01       		.byte	0x1
 2166 0e3d 3E       		.byte	0x3e
ARM GAS  /tmp/ccuLV1lx.s 			page 39


 2167 0e3e 97000000 		.4byte	0x97
 2168 0e42 74000000 		.4byte	.LLST5
 2169 0e46 43       		.uleb128 0x43
 2170 0e47 3B060000 		.4byte	.LASF181
 2171 0e4b 01       		.byte	0x1
 2172 0e4c 3F       		.byte	0x3f
 2173 0e4d FA060000 		.4byte	0x6fa
 2174 0e51 A0000000 		.4byte	.LLST6
 2175 0e55 43       		.uleb128 0x43
 2176 0e56 BA0A0000 		.4byte	.LASF182
 2177 0e5a 01       		.byte	0x1
 2178 0e5b 40       		.byte	0x40
 2179 0e5c FA060000 		.4byte	0x6fa
 2180 0e60 D6000000 		.4byte	.LLST7
 2181 0e64 44       		.uleb128 0x44
 2182 0e65 20000000 		.4byte	.Ldebug_ranges0+0x20
 2183 0e69 45       		.uleb128 0x45
 2184 0e6a 53070000 		.4byte	.LASF183
 2185 0e6e 01       		.byte	0x1
 2186 0e6f 45       		.byte	0x45
 2187 0e70 BB060000 		.4byte	0x6bb
 2188 0e74 F6000000 		.4byte	.LLST8
 2189 0e78 46       		.uleb128 0x46
 2190 0e79 BE0C0000 		.4byte	.LASF184
 2191 0e7d 01       		.byte	0x1
 2192 0e7e 46       		.byte	0x46
 2193 0e7f BB060000 		.4byte	0x6bb
 2194 0e83 00       		.byte	0
 2195 0e84 45       		.uleb128 0x45
 2196 0e85 6D070000 		.4byte	.LASF185
 2197 0e89 01       		.byte	0x1
 2198 0e8a 66       		.byte	0x66
 2199 0e8b BB060000 		.4byte	0x6bb
 2200 0e8f 46010000 		.4byte	.LLST9
 2201 0e93 45       		.uleb128 0x45
 2202 0e94 710C0000 		.4byte	.LASF186
 2203 0e98 01       		.byte	0x1
 2204 0e99 67       		.byte	0x67
 2205 0e9a BB060000 		.4byte	0x6bb
 2206 0e9e 7D010000 		.4byte	.LLST10
 2207 0ea2 45       		.uleb128 0x45
 2208 0ea3 B7000000 		.4byte	.LASF187
 2209 0ea7 01       		.byte	0x1
 2210 0ea8 68       		.byte	0x68
 2211 0ea9 B8000000 		.4byte	0xb8
 2212 0ead 9D010000 		.4byte	.LLST11
 2213 0eb1 37       		.uleb128 0x37
 2214 0eb2 6100     		.ascii	"a\000"
 2215 0eb4 01       		.byte	0x1
 2216 0eb5 70       		.byte	0x70
 2217 0eb6 AD000000 		.4byte	0xad
 2218 0eba 37       		.uleb128 0x37
 2219 0ebb 6200     		.ascii	"b\000"
 2220 0ebd 01       		.byte	0x1
 2221 0ebe 71       		.byte	0x71
 2222 0ebf AD000000 		.4byte	0xad
 2223 0ec3 37       		.uleb128 0x37
ARM GAS  /tmp/ccuLV1lx.s 			page 40


 2224 0ec4 7400     		.ascii	"t\000"
 2225 0ec6 01       		.byte	0x1
 2226 0ec7 72       		.byte	0x72
 2227 0ec8 A2000000 		.4byte	0xa2
 2228 0ecc 45       		.uleb128 0x45
 2229 0ecd A4010000 		.4byte	.LASF188
 2230 0ed1 01       		.byte	0x1
 2231 0ed2 78       		.byte	0x78
 2232 0ed3 AD000000 		.4byte	0xad
 2233 0ed7 BB010000 		.4byte	.LLST12
 2234 0edb 47       		.uleb128 0x47
 2235 0edc 9D010000 		.4byte	.LASF189
 2236 0ee0 01       		.byte	0x1
 2237 0ee1 7A       		.byte	0x7a
 2238 0ee2 AD000000 		.4byte	0xad
 2239 0ee6 3B       		.uleb128 0x3b
 2240 0ee7 0A0C0000 		.4byte	0xc0a
 2241 0eeb 98000000 		.4byte	.LBB32
 2242 0eef 04000000 		.4byte	.LBE32-.LBB32
 2243 0ef3 01       		.byte	0x1
 2244 0ef4 4B       		.byte	0x4b
 2245 0ef5 0C0F0000 		.4byte	0xf0c
 2246 0ef9 3D       		.uleb128 0x3d
 2247 0efa 180C0000 		.4byte	0xc18
 2248 0efe F3010000 		.4byte	.LLST13
 2249 0f02 3D       		.uleb128 0x3d
 2250 0f03 210C0000 		.4byte	0xc21
 2251 0f07 11020000 		.4byte	.LLST14
 2252 0f0b 00       		.byte	0
 2253 0f0c 3F       		.uleb128 0x3f
 2254 0f0d 3D0C0000 		.4byte	0xc3d
 2255 0f11 52010000 		.4byte	.LBB34
 2256 0f15 48000000 		.4byte	.Ldebug_ranges0+0x48
 2257 0f19 01       		.byte	0x1
 2258 0f1a 73       		.byte	0x73
 2259 0f1b 3C       		.uleb128 0x3c
 2260 0f1c 520C0000 		.4byte	0xc52
 2261 0f20 3C       		.uleb128 0x3c
 2262 0f21 470C0000 		.4byte	0xc47
 2263 0f25 44       		.uleb128 0x44
 2264 0f26 48000000 		.4byte	.Ldebug_ranges0+0x48
 2265 0f2a 48       		.uleb128 0x48
 2266 0f2b 5E0C0000 		.4byte	0xc5e
 2267 0f2f 48       		.uleb128 0x48
 2268 0f30 670C0000 		.4byte	0xc67
 2269 0f34 00       		.byte	0
 2270 0f35 00       		.byte	0
 2271 0f36 00       		.byte	0
 2272 0f37 00       		.byte	0
 2273 0f38 49       		.uleb128 0x49
 2274 0f39 A2040000 		.4byte	0x4a2
 2275 0f3d 08       		.byte	0x8
 2276 0f3e 18       		.uleb128 0x18
 2277 0f3f 320C0000 		.4byte	0xc32
 2278 0f43 490F0000 		.4byte	0xf49
 2279 0f47 4A       		.uleb128 0x4a
 2280 0f48 00       		.byte	0
ARM GAS  /tmp/ccuLV1lx.s 			page 41


 2281 0f49 18       		.uleb128 0x18
 2282 0f4a 74000000 		.4byte	0x74
 2283 0f4e 540F0000 		.4byte	0xf54
 2284 0f52 4A       		.uleb128 0x4a
 2285 0f53 00       		.byte	0
 2286 0f54 49       		.uleb128 0x49
 2287 0f55 CC040000 		.4byte	0x4cc
 2288 0f59 00       		.byte	0
 2289 0f5a 49       		.uleb128 0x49
 2290 0f5b D8040000 		.4byte	0x4d8
 2291 0f5f 00       		.byte	0
 2292 0f60 4B       		.uleb128 0x4b
 2293 0f61 E4040000 		.4byte	0x4e4
 2294 0f65 0104     		.2byte	0x401
 2295 0f67 49       		.uleb128 0x49
 2296 0f68 F1040000 		.4byte	0x4f1
 2297 0f6c 01       		.byte	0x1
 2298 0f6d 4B       		.uleb128 0x4b
 2299 0f6e FD040000 		.4byte	0x4fd
 2300 0f72 0101     		.2byte	0x101
 2301 0f74 49       		.uleb128 0x49
 2302 0f75 0A050000 		.4byte	0x50a
 2303 0f79 00       		.byte	0
 2304 0f7a 4B       		.uleb128 0x4b
 2305 0f7b 16050000 		.4byte	0x516
 2306 0f7f 0101     		.2byte	0x101
 2307 0f81 49       		.uleb128 0x49
 2308 0f82 23050000 		.4byte	0x523
 2309 0f86 01       		.byte	0x1
 2310 0f87 4B       		.uleb128 0x4b
 2311 0f88 2F050000 		.4byte	0x52f
 2312 0f8c 0101     		.2byte	0x101
 2313 0f8e 49       		.uleb128 0x49
 2314 0f8f 3C050000 		.4byte	0x53c
 2315 0f93 02       		.byte	0x2
 2316 0f94 4B       		.uleb128 0x4b
 2317 0f95 48050000 		.4byte	0x548
 2318 0f99 0101     		.2byte	0x101
 2319 0f9b 49       		.uleb128 0x49
 2320 0f9c 55050000 		.4byte	0x555
 2321 0fa0 03       		.byte	0x3
 2322 0fa1 4B       		.uleb128 0x4b
 2323 0fa2 61050000 		.4byte	0x561
 2324 0fa6 0101     		.2byte	0x101
 2325 0fa8 49       		.uleb128 0x49
 2326 0fa9 6E050000 		.4byte	0x56e
 2327 0fad 04       		.byte	0x4
 2328 0fae 4B       		.uleb128 0x4b
 2329 0faf 7A050000 		.4byte	0x57a
 2330 0fb3 0101     		.2byte	0x101
 2331 0fb5 49       		.uleb128 0x49
 2332 0fb6 87050000 		.4byte	0x587
 2333 0fba 05       		.byte	0x5
 2334 0fbb 4B       		.uleb128 0x4b
 2335 0fbc 93050000 		.4byte	0x593
 2336 0fc0 0101     		.2byte	0x101
 2337 0fc2 49       		.uleb128 0x49
ARM GAS  /tmp/ccuLV1lx.s 			page 42


 2338 0fc3 A0050000 		.4byte	0x5a0
 2339 0fc7 06       		.byte	0x6
 2340 0fc8 4B       		.uleb128 0x4b
 2341 0fc9 AC050000 		.4byte	0x5ac
 2342 0fcd 0101     		.2byte	0x101
 2343 0fcf 49       		.uleb128 0x49
 2344 0fd0 B9050000 		.4byte	0x5b9
 2345 0fd4 07       		.byte	0x7
 2346 0fd5 4B       		.uleb128 0x4b
 2347 0fd6 C5050000 		.4byte	0x5c5
 2348 0fda 0101     		.2byte	0x101
 2349 0fdc 49       		.uleb128 0x49
 2350 0fdd D2050000 		.4byte	0x5d2
 2351 0fe1 08       		.byte	0x8
 2352 0fe2 4B       		.uleb128 0x4b
 2353 0fe3 DE050000 		.4byte	0x5de
 2354 0fe7 0101     		.2byte	0x101
 2355 0fe9 49       		.uleb128 0x49
 2356 0fea EB050000 		.4byte	0x5eb
 2357 0fee 00       		.byte	0
 2358 0fef 4B       		.uleb128 0x4b
 2359 0ff0 F7050000 		.4byte	0x5f7
 2360 0ff4 0101     		.2byte	0x101
 2361 0ff6 49       		.uleb128 0x49
 2362 0ff7 04060000 		.4byte	0x604
 2363 0ffb 01       		.byte	0x1
 2364 0ffc 4B       		.uleb128 0x4b
 2365 0ffd 10060000 		.4byte	0x610
 2366 1001 8002     		.2byte	0x280
 2367 1003 49       		.uleb128 0x49
 2368 1004 1D060000 		.4byte	0x61d
 2369 1008 02       		.byte	0x2
 2370 1009 4B       		.uleb128 0x4b
 2371 100a 29060000 		.4byte	0x629
 2372 100e 0101     		.2byte	0x101
 2373 1010 49       		.uleb128 0x49
 2374 1011 36060000 		.4byte	0x636
 2375 1015 03       		.byte	0x3
 2376 1016 4B       		.uleb128 0x4b
 2377 1017 42060000 		.4byte	0x642
 2378 101b 0101     		.2byte	0x101
 2379 101d 49       		.uleb128 0x49
 2380 101e 4F060000 		.4byte	0x64f
 2381 1022 04       		.byte	0x4
 2382 1023 4B       		.uleb128 0x4b
 2383 1024 5B060000 		.4byte	0x65b
 2384 1028 0101     		.2byte	0x101
 2385 102a 12       		.uleb128 0x12
 2386 102b AD000000 		.4byte	0xad
 2387 102f 4B       		.uleb128 0x4b
 2388 1030 68060000 		.4byte	0x668
 2389 1034 8F02     		.2byte	0x28f
 2390 1036 4B       		.uleb128 0x4b
 2391 1037 75060000 		.4byte	0x675
 2392 103b FF7F     		.2byte	0x7fff
 2393 103d 4B       		.uleb128 0x4b
 2394 103e 82060000 		.4byte	0x682
ARM GAS  /tmp/ccuLV1lx.s 			page 43


 2395 1042 8080     		.2byte	0x8080
 2396 1044 4C       		.uleb128 0x4c
 2397 1045 8F060000 		.4byte	0x68f
 2398 1049 00000100 		.4byte	0x10000
 2399 104d 4C       		.uleb128 0x4c
 2400 104e 9E060000 		.4byte	0x69e
 2401 1052 55550300 		.4byte	0x35555
 2402 1056 4B       		.uleb128 0x4b
 2403 1057 AD060000 		.4byte	0x6ad
 2404 105b 5535     		.2byte	0x3555
 2405 105d 4D       		.uleb128 0x4d
 2406 105e DD080000 		.4byte	0x8dd
 2407 1062 86070000 		.4byte	.LASF201
 2408 1066 FFFFFF7F 		.4byte	0x7fffffff
 2409 106a 00       		.byte	0
 2410              		.section	.debug_abbrev,"",%progbits
 2411              	.Ldebug_abbrev0:
 2412 0000 01       		.uleb128 0x1
 2413 0001 11       		.uleb128 0x11
 2414 0002 01       		.byte	0x1
 2415 0003 25       		.uleb128 0x25
 2416 0004 0E       		.uleb128 0xe
 2417 0005 13       		.uleb128 0x13
 2418 0006 0B       		.uleb128 0xb
 2419 0007 03       		.uleb128 0x3
 2420 0008 0E       		.uleb128 0xe
 2421 0009 1B       		.uleb128 0x1b
 2422 000a 0E       		.uleb128 0xe
 2423 000b 11       		.uleb128 0x11
 2424 000c 01       		.uleb128 0x1
 2425 000d 12       		.uleb128 0x12
 2426 000e 06       		.uleb128 0x6
 2427 000f 10       		.uleb128 0x10
 2428 0010 17       		.uleb128 0x17
 2429 0011 00       		.byte	0
 2430 0012 00       		.byte	0
 2431 0013 02       		.uleb128 0x2
 2432 0014 24       		.uleb128 0x24
 2433 0015 00       		.byte	0
 2434 0016 0B       		.uleb128 0xb
 2435 0017 0B       		.uleb128 0xb
 2436 0018 3E       		.uleb128 0x3e
 2437 0019 0B       		.uleb128 0xb
 2438 001a 03       		.uleb128 0x3
 2439 001b 0E       		.uleb128 0xe
 2440 001c 00       		.byte	0
 2441 001d 00       		.byte	0
 2442 001e 03       		.uleb128 0x3
 2443 001f 16       		.uleb128 0x16
 2444 0020 00       		.byte	0
 2445 0021 03       		.uleb128 0x3
 2446 0022 0E       		.uleb128 0xe
 2447 0023 3A       		.uleb128 0x3a
 2448 0024 0B       		.uleb128 0xb
 2449 0025 3B       		.uleb128 0x3b
 2450 0026 0B       		.uleb128 0xb
 2451 0027 49       		.uleb128 0x49
ARM GAS  /tmp/ccuLV1lx.s 			page 44


 2452 0028 13       		.uleb128 0x13
 2453 0029 00       		.byte	0
 2454 002a 00       		.byte	0
 2455 002b 04       		.uleb128 0x4
 2456 002c 24       		.uleb128 0x24
 2457 002d 00       		.byte	0
 2458 002e 0B       		.uleb128 0xb
 2459 002f 0B       		.uleb128 0xb
 2460 0030 3E       		.uleb128 0x3e
 2461 0031 0B       		.uleb128 0xb
 2462 0032 03       		.uleb128 0x3
 2463 0033 08       		.uleb128 0x8
 2464 0034 00       		.byte	0
 2465 0035 00       		.byte	0
 2466 0036 05       		.uleb128 0x5
 2467 0037 39       		.uleb128 0x39
 2468 0038 00       		.byte	0
 2469 0039 03       		.uleb128 0x3
 2470 003a 0E       		.uleb128 0xe
 2471 003b 3A       		.uleb128 0x3a
 2472 003c 0B       		.uleb128 0xb
 2473 003d 3B       		.uleb128 0x3b
 2474 003e 0B       		.uleb128 0xb
 2475 003f 00       		.byte	0
 2476 0040 00       		.byte	0
 2477 0041 06       		.uleb128 0x6
 2478 0042 39       		.uleb128 0x39
 2479 0043 01       		.byte	0x1
 2480 0044 03       		.uleb128 0x3
 2481 0045 0E       		.uleb128 0xe
 2482 0046 3A       		.uleb128 0x3a
 2483 0047 0B       		.uleb128 0xb
 2484 0048 3B       		.uleb128 0x3b
 2485 0049 0B       		.uleb128 0xb
 2486 004a 01       		.uleb128 0x1
 2487 004b 13       		.uleb128 0x13
 2488 004c 00       		.byte	0
 2489 004d 00       		.byte	0
 2490 004e 07       		.uleb128 0x7
 2491 004f 2E       		.uleb128 0x2e
 2492 0050 01       		.byte	0x1
 2493 0051 3F       		.uleb128 0x3f
 2494 0052 19       		.uleb128 0x19
 2495 0053 03       		.uleb128 0x3
 2496 0054 0E       		.uleb128 0xe
 2497 0055 3A       		.uleb128 0x3a
 2498 0056 0B       		.uleb128 0xb
 2499 0057 3B       		.uleb128 0x3b
 2500 0058 0B       		.uleb128 0xb
 2501 0059 49       		.uleb128 0x49
 2502 005a 13       		.uleb128 0x13
 2503 005b 3C       		.uleb128 0x3c
 2504 005c 19       		.uleb128 0x19
 2505 005d 00       		.byte	0
 2506 005e 00       		.byte	0
 2507 005f 08       		.uleb128 0x8
 2508 0060 05       		.uleb128 0x5
ARM GAS  /tmp/ccuLV1lx.s 			page 45


 2509 0061 00       		.byte	0
 2510 0062 49       		.uleb128 0x49
 2511 0063 13       		.uleb128 0x13
 2512 0064 00       		.byte	0
 2513 0065 00       		.byte	0
 2514 0066 09       		.uleb128 0x9
 2515 0067 04       		.uleb128 0x4
 2516 0068 01       		.byte	0x1
 2517 0069 03       		.uleb128 0x3
 2518 006a 0E       		.uleb128 0xe
 2519 006b 0B       		.uleb128 0xb
 2520 006c 0B       		.uleb128 0xb
 2521 006d 3A       		.uleb128 0x3a
 2522 006e 0B       		.uleb128 0xb
 2523 006f 3B       		.uleb128 0x3b
 2524 0070 0B       		.uleb128 0xb
 2525 0071 01       		.uleb128 0x1
 2526 0072 13       		.uleb128 0x13
 2527 0073 00       		.byte	0
 2528 0074 00       		.byte	0
 2529 0075 0A       		.uleb128 0xa
 2530 0076 28       		.uleb128 0x28
 2531 0077 00       		.byte	0
 2532 0078 03       		.uleb128 0x3
 2533 0079 0E       		.uleb128 0xe
 2534 007a 1C       		.uleb128 0x1c
 2535 007b 0D       		.uleb128 0xd
 2536 007c 00       		.byte	0
 2537 007d 00       		.byte	0
 2538 007e 0B       		.uleb128 0xb
 2539 007f 02       		.uleb128 0x2
 2540 0080 01       		.byte	0x1
 2541 0081 03       		.uleb128 0x3
 2542 0082 0E       		.uleb128 0xe
 2543 0083 0B       		.uleb128 0xb
 2544 0084 0B       		.uleb128 0xb
 2545 0085 3A       		.uleb128 0x3a
 2546 0086 0B       		.uleb128 0xb
 2547 0087 3B       		.uleb128 0x3b
 2548 0088 0B       		.uleb128 0xb
 2549 0089 01       		.uleb128 0x1
 2550 008a 13       		.uleb128 0x13
 2551 008b 00       		.byte	0
 2552 008c 00       		.byte	0
 2553 008d 0C       		.uleb128 0xc
 2554 008e 0D       		.uleb128 0xd
 2555 008f 00       		.byte	0
 2556 0090 03       		.uleb128 0x3
 2557 0091 0E       		.uleb128 0xe
 2558 0092 3A       		.uleb128 0x3a
 2559 0093 0B       		.uleb128 0xb
 2560 0094 3B       		.uleb128 0x3b
 2561 0095 0B       		.uleb128 0xb
 2562 0096 49       		.uleb128 0x49
 2563 0097 13       		.uleb128 0x13
 2564 0098 38       		.uleb128 0x38
 2565 0099 0B       		.uleb128 0xb
ARM GAS  /tmp/ccuLV1lx.s 			page 46


 2566 009a 00       		.byte	0
 2567 009b 00       		.byte	0
 2568 009c 0D       		.uleb128 0xd
 2569 009d 2E       		.uleb128 0x2e
 2570 009e 01       		.byte	0x1
 2571 009f 3F       		.uleb128 0x3f
 2572 00a0 19       		.uleb128 0x19
 2573 00a1 03       		.uleb128 0x3
 2574 00a2 0E       		.uleb128 0xe
 2575 00a3 3A       		.uleb128 0x3a
 2576 00a4 0B       		.uleb128 0xb
 2577 00a5 3B       		.uleb128 0x3b
 2578 00a6 0B       		.uleb128 0xb
 2579 00a7 49       		.uleb128 0x49
 2580 00a8 13       		.uleb128 0x13
 2581 00a9 32       		.uleb128 0x32
 2582 00aa 0B       		.uleb128 0xb
 2583 00ab 3C       		.uleb128 0x3c
 2584 00ac 19       		.uleb128 0x19
 2585 00ad 64       		.uleb128 0x64
 2586 00ae 13       		.uleb128 0x13
 2587 00af 01       		.uleb128 0x1
 2588 00b0 13       		.uleb128 0x13
 2589 00b1 00       		.byte	0
 2590 00b2 00       		.byte	0
 2591 00b3 0E       		.uleb128 0xe
 2592 00b4 05       		.uleb128 0x5
 2593 00b5 00       		.byte	0
 2594 00b6 49       		.uleb128 0x49
 2595 00b7 13       		.uleb128 0x13
 2596 00b8 34       		.uleb128 0x34
 2597 00b9 19       		.uleb128 0x19
 2598 00ba 00       		.byte	0
 2599 00bb 00       		.byte	0
 2600 00bc 0F       		.uleb128 0xf
 2601 00bd 2E       		.uleb128 0x2e
 2602 00be 01       		.byte	0x1
 2603 00bf 3F       		.uleb128 0x3f
 2604 00c0 19       		.uleb128 0x19
 2605 00c1 03       		.uleb128 0x3
 2606 00c2 0E       		.uleb128 0xe
 2607 00c3 3A       		.uleb128 0x3a
 2608 00c4 0B       		.uleb128 0xb
 2609 00c5 3B       		.uleb128 0x3b
 2610 00c6 0B       		.uleb128 0xb
 2611 00c7 6E       		.uleb128 0x6e
 2612 00c8 0E       		.uleb128 0xe
 2613 00c9 32       		.uleb128 0x32
 2614 00ca 0B       		.uleb128 0xb
 2615 00cb 3C       		.uleb128 0x3c
 2616 00cc 19       		.uleb128 0x19
 2617 00cd 64       		.uleb128 0x64
 2618 00ce 13       		.uleb128 0x13
 2619 00cf 01       		.uleb128 0x1
 2620 00d0 13       		.uleb128 0x13
 2621 00d1 00       		.byte	0
 2622 00d2 00       		.byte	0
ARM GAS  /tmp/ccuLV1lx.s 			page 47


 2623 00d3 10       		.uleb128 0x10
 2624 00d4 2E       		.uleb128 0x2e
 2625 00d5 01       		.byte	0x1
 2626 00d6 3F       		.uleb128 0x3f
 2627 00d7 19       		.uleb128 0x19
 2628 00d8 03       		.uleb128 0x3
 2629 00d9 0E       		.uleb128 0xe
 2630 00da 3A       		.uleb128 0x3a
 2631 00db 0B       		.uleb128 0xb
 2632 00dc 3B       		.uleb128 0x3b
 2633 00dd 0B       		.uleb128 0xb
 2634 00de 49       		.uleb128 0x49
 2635 00df 13       		.uleb128 0x13
 2636 00e0 3C       		.uleb128 0x3c
 2637 00e1 19       		.uleb128 0x19
 2638 00e2 64       		.uleb128 0x64
 2639 00e3 13       		.uleb128 0x13
 2640 00e4 01       		.uleb128 0x1
 2641 00e5 13       		.uleb128 0x13
 2642 00e6 00       		.byte	0
 2643 00e7 00       		.byte	0
 2644 00e8 11       		.uleb128 0x11
 2645 00e9 2E       		.uleb128 0x2e
 2646 00ea 01       		.byte	0x1
 2647 00eb 3F       		.uleb128 0x3f
 2648 00ec 19       		.uleb128 0x19
 2649 00ed 03       		.uleb128 0x3
 2650 00ee 0E       		.uleb128 0xe
 2651 00ef 3A       		.uleb128 0x3a
 2652 00f0 0B       		.uleb128 0xb
 2653 00f1 3B       		.uleb128 0x3b
 2654 00f2 0B       		.uleb128 0xb
 2655 00f3 6E       		.uleb128 0x6e
 2656 00f4 0E       		.uleb128 0xe
 2657 00f5 3C       		.uleb128 0x3c
 2658 00f6 19       		.uleb128 0x19
 2659 00f7 64       		.uleb128 0x64
 2660 00f8 13       		.uleb128 0x13
 2661 00f9 00       		.byte	0
 2662 00fa 00       		.byte	0
 2663 00fb 12       		.uleb128 0x12
 2664 00fc 26       		.uleb128 0x26
 2665 00fd 00       		.byte	0
 2666 00fe 49       		.uleb128 0x49
 2667 00ff 13       		.uleb128 0x13
 2668 0100 00       		.byte	0
 2669 0101 00       		.byte	0
 2670 0102 13       		.uleb128 0x13
 2671 0103 3A       		.uleb128 0x3a
 2672 0104 00       		.byte	0
 2673 0105 3A       		.uleb128 0x3a
 2674 0106 0B       		.uleb128 0xb
 2675 0107 3B       		.uleb128 0x3b
 2676 0108 0B       		.uleb128 0xb
 2677 0109 18       		.uleb128 0x18
 2678 010a 13       		.uleb128 0x13
 2679 010b 00       		.byte	0
ARM GAS  /tmp/ccuLV1lx.s 			page 48


 2680 010c 00       		.byte	0
 2681 010d 14       		.uleb128 0x14
 2682 010e 34       		.uleb128 0x34
 2683 010f 00       		.byte	0
 2684 0110 03       		.uleb128 0x3
 2685 0111 0E       		.uleb128 0xe
 2686 0112 3A       		.uleb128 0x3a
 2687 0113 0B       		.uleb128 0xb
 2688 0114 3B       		.uleb128 0x3b
 2689 0115 0B       		.uleb128 0xb
 2690 0116 49       		.uleb128 0x49
 2691 0117 13       		.uleb128 0x13
 2692 0118 3C       		.uleb128 0x3c
 2693 0119 19       		.uleb128 0x19
 2694 011a 1C       		.uleb128 0x1c
 2695 011b 0B       		.uleb128 0xb
 2696 011c 00       		.byte	0
 2697 011d 00       		.byte	0
 2698 011e 15       		.uleb128 0x15
 2699 011f 34       		.uleb128 0x34
 2700 0120 00       		.byte	0
 2701 0121 03       		.uleb128 0x3
 2702 0122 0E       		.uleb128 0xe
 2703 0123 3A       		.uleb128 0x3a
 2704 0124 0B       		.uleb128 0xb
 2705 0125 3B       		.uleb128 0x3b
 2706 0126 0B       		.uleb128 0xb
 2707 0127 6E       		.uleb128 0x6e
 2708 0128 0E       		.uleb128 0xe
 2709 0129 49       		.uleb128 0x49
 2710 012a 13       		.uleb128 0x13
 2711 012b 3F       		.uleb128 0x3f
 2712 012c 19       		.uleb128 0x19
 2713 012d 3C       		.uleb128 0x3c
 2714 012e 19       		.uleb128 0x19
 2715 012f 00       		.byte	0
 2716 0130 00       		.byte	0
 2717 0131 16       		.uleb128 0x16
 2718 0132 34       		.uleb128 0x34
 2719 0133 00       		.byte	0
 2720 0134 03       		.uleb128 0x3
 2721 0135 0E       		.uleb128 0xe
 2722 0136 3A       		.uleb128 0x3a
 2723 0137 0B       		.uleb128 0xb
 2724 0138 3B       		.uleb128 0x3b
 2725 0139 0B       		.uleb128 0xb
 2726 013a 49       		.uleb128 0x49
 2727 013b 13       		.uleb128 0x13
 2728 013c 3C       		.uleb128 0x3c
 2729 013d 19       		.uleb128 0x19
 2730 013e 1C       		.uleb128 0x1c
 2731 013f 05       		.uleb128 0x5
 2732 0140 00       		.byte	0
 2733 0141 00       		.byte	0
 2734 0142 17       		.uleb128 0x17
 2735 0143 34       		.uleb128 0x34
 2736 0144 00       		.byte	0
ARM GAS  /tmp/ccuLV1lx.s 			page 49


 2737 0145 03       		.uleb128 0x3
 2738 0146 0E       		.uleb128 0xe
 2739 0147 3A       		.uleb128 0x3a
 2740 0148 0B       		.uleb128 0xb
 2741 0149 3B       		.uleb128 0x3b
 2742 014a 0B       		.uleb128 0xb
 2743 014b 49       		.uleb128 0x49
 2744 014c 13       		.uleb128 0x13
 2745 014d 3C       		.uleb128 0x3c
 2746 014e 19       		.uleb128 0x19
 2747 014f 1C       		.uleb128 0x1c
 2748 0150 06       		.uleb128 0x6
 2749 0151 00       		.byte	0
 2750 0152 00       		.byte	0
 2751 0153 18       		.uleb128 0x18
 2752 0154 01       		.uleb128 0x1
 2753 0155 01       		.byte	0x1
 2754 0156 49       		.uleb128 0x49
 2755 0157 13       		.uleb128 0x13
 2756 0158 01       		.uleb128 0x1
 2757 0159 13       		.uleb128 0x13
 2758 015a 00       		.byte	0
 2759 015b 00       		.byte	0
 2760 015c 19       		.uleb128 0x19
 2761 015d 21       		.uleb128 0x21
 2762 015e 00       		.byte	0
 2763 015f 49       		.uleb128 0x49
 2764 0160 13       		.uleb128 0x13
 2765 0161 2F       		.uleb128 0x2f
 2766 0162 0B       		.uleb128 0xb
 2767 0163 00       		.byte	0
 2768 0164 00       		.byte	0
 2769 0165 1A       		.uleb128 0x1a
 2770 0166 0F       		.uleb128 0xf
 2771 0167 00       		.byte	0
 2772 0168 0B       		.uleb128 0xb
 2773 0169 0B       		.uleb128 0xb
 2774 016a 49       		.uleb128 0x49
 2775 016b 13       		.uleb128 0x13
 2776 016c 00       		.byte	0
 2777 016d 00       		.byte	0
 2778 016e 1B       		.uleb128 0x1b
 2779 016f 0F       		.uleb128 0xf
 2780 0170 00       		.byte	0
 2781 0171 0B       		.uleb128 0xb
 2782 0172 0B       		.uleb128 0xb
 2783 0173 00       		.byte	0
 2784 0174 00       		.byte	0
 2785 0175 1C       		.uleb128 0x1c
 2786 0176 10       		.uleb128 0x10
 2787 0177 00       		.byte	0
 2788 0178 0B       		.uleb128 0xb
 2789 0179 0B       		.uleb128 0xb
 2790 017a 49       		.uleb128 0x49
 2791 017b 13       		.uleb128 0x13
 2792 017c 00       		.byte	0
 2793 017d 00       		.byte	0
ARM GAS  /tmp/ccuLV1lx.s 			page 50


 2794 017e 1D       		.uleb128 0x1d
 2795 017f 39       		.uleb128 0x39
 2796 0180 01       		.byte	0x1
 2797 0181 03       		.uleb128 0x3
 2798 0182 08       		.uleb128 0x8
 2799 0183 3A       		.uleb128 0x3a
 2800 0184 0B       		.uleb128 0xb
 2801 0185 3B       		.uleb128 0x3b
 2802 0186 0B       		.uleb128 0xb
 2803 0187 01       		.uleb128 0x1
 2804 0188 13       		.uleb128 0x13
 2805 0189 00       		.byte	0
 2806 018a 00       		.byte	0
 2807 018b 1E       		.uleb128 0x1e
 2808 018c 08       		.uleb128 0x8
 2809 018d 00       		.byte	0
 2810 018e 3A       		.uleb128 0x3a
 2811 018f 0B       		.uleb128 0xb
 2812 0190 3B       		.uleb128 0x3b
 2813 0191 0B       		.uleb128 0xb
 2814 0192 18       		.uleb128 0x18
 2815 0193 13       		.uleb128 0x13
 2816 0194 00       		.byte	0
 2817 0195 00       		.byte	0
 2818 0196 1F       		.uleb128 0x1f
 2819 0197 13       		.uleb128 0x13
 2820 0198 00       		.byte	0
 2821 0199 03       		.uleb128 0x3
 2822 019a 0E       		.uleb128 0xe
 2823 019b 0B       		.uleb128 0xb
 2824 019c 0B       		.uleb128 0xb
 2825 019d 3A       		.uleb128 0x3a
 2826 019e 0B       		.uleb128 0xb
 2827 019f 3B       		.uleb128 0x3b
 2828 01a0 0B       		.uleb128 0xb
 2829 01a1 00       		.byte	0
 2830 01a2 00       		.byte	0
 2831 01a3 20       		.uleb128 0x20
 2832 01a4 13       		.uleb128 0x13
 2833 01a5 01       		.byte	0x1
 2834 01a6 03       		.uleb128 0x3
 2835 01a7 0E       		.uleb128 0xe
 2836 01a8 0B       		.uleb128 0xb
 2837 01a9 0B       		.uleb128 0xb
 2838 01aa 3A       		.uleb128 0x3a
 2839 01ab 0B       		.uleb128 0xb
 2840 01ac 3B       		.uleb128 0x3b
 2841 01ad 0B       		.uleb128 0xb
 2842 01ae 01       		.uleb128 0x1
 2843 01af 13       		.uleb128 0x13
 2844 01b0 00       		.byte	0
 2845 01b1 00       		.byte	0
 2846 01b2 21       		.uleb128 0x21
 2847 01b3 2E       		.uleb128 0x2e
 2848 01b4 01       		.byte	0x1
 2849 01b5 3F       		.uleb128 0x3f
 2850 01b6 19       		.uleb128 0x19
ARM GAS  /tmp/ccuLV1lx.s 			page 51


 2851 01b7 03       		.uleb128 0x3
 2852 01b8 0E       		.uleb128 0xe
 2853 01b9 3A       		.uleb128 0x3a
 2854 01ba 0B       		.uleb128 0xb
 2855 01bb 3B       		.uleb128 0x3b
 2856 01bc 0B       		.uleb128 0xb
 2857 01bd 6E       		.uleb128 0x6e
 2858 01be 0E       		.uleb128 0xe
 2859 01bf 49       		.uleb128 0x49
 2860 01c0 13       		.uleb128 0x13
 2861 01c1 3C       		.uleb128 0x3c
 2862 01c2 19       		.uleb128 0x19
 2863 01c3 01       		.uleb128 0x1
 2864 01c4 13       		.uleb128 0x13
 2865 01c5 00       		.byte	0
 2866 01c6 00       		.byte	0
 2867 01c7 22       		.uleb128 0x22
 2868 01c8 2F       		.uleb128 0x2f
 2869 01c9 00       		.byte	0
 2870 01ca 03       		.uleb128 0x3
 2871 01cb 0E       		.uleb128 0xe
 2872 01cc 49       		.uleb128 0x49
 2873 01cd 13       		.uleb128 0x13
 2874 01ce 00       		.byte	0
 2875 01cf 00       		.byte	0
 2876 01d0 23       		.uleb128 0x23
 2877 01d1 30       		.uleb128 0x30
 2878 01d2 00       		.byte	0
 2879 01d3 03       		.uleb128 0x3
 2880 01d4 0E       		.uleb128 0xe
 2881 01d5 49       		.uleb128 0x49
 2882 01d6 13       		.uleb128 0x13
 2883 01d7 1C       		.uleb128 0x1c
 2884 01d8 0B       		.uleb128 0xb
 2885 01d9 00       		.byte	0
 2886 01da 00       		.byte	0
 2887 01db 24       		.uleb128 0x24
 2888 01dc 2E       		.uleb128 0x2e
 2889 01dd 01       		.byte	0x1
 2890 01de 3F       		.uleb128 0x3f
 2891 01df 19       		.uleb128 0x19
 2892 01e0 03       		.uleb128 0x3
 2893 01e1 0E       		.uleb128 0xe
 2894 01e2 3A       		.uleb128 0x3a
 2895 01e3 0B       		.uleb128 0xb
 2896 01e4 3B       		.uleb128 0x3b
 2897 01e5 05       		.uleb128 0x5
 2898 01e6 49       		.uleb128 0x49
 2899 01e7 13       		.uleb128 0x13
 2900 01e8 3C       		.uleb128 0x3c
 2901 01e9 19       		.uleb128 0x19
 2902 01ea 01       		.uleb128 0x1
 2903 01eb 13       		.uleb128 0x13
 2904 01ec 00       		.byte	0
 2905 01ed 00       		.byte	0
 2906 01ee 25       		.uleb128 0x25
 2907 01ef 2E       		.uleb128 0x2e
ARM GAS  /tmp/ccuLV1lx.s 			page 52


 2908 01f0 01       		.byte	0x1
 2909 01f1 3F       		.uleb128 0x3f
 2910 01f2 19       		.uleb128 0x19
 2911 01f3 03       		.uleb128 0x3
 2912 01f4 0E       		.uleb128 0xe
 2913 01f5 3A       		.uleb128 0x3a
 2914 01f6 0B       		.uleb128 0xb
 2915 01f7 3B       		.uleb128 0x3b
 2916 01f8 05       		.uleb128 0x5
 2917 01f9 3C       		.uleb128 0x3c
 2918 01fa 19       		.uleb128 0x19
 2919 01fb 01       		.uleb128 0x1
 2920 01fc 13       		.uleb128 0x13
 2921 01fd 00       		.byte	0
 2922 01fe 00       		.byte	0
 2923 01ff 26       		.uleb128 0x26
 2924 0200 2F       		.uleb128 0x2f
 2925 0201 00       		.byte	0
 2926 0202 03       		.uleb128 0x3
 2927 0203 08       		.uleb128 0x8
 2928 0204 49       		.uleb128 0x49
 2929 0205 13       		.uleb128 0x13
 2930 0206 00       		.byte	0
 2931 0207 00       		.byte	0
 2932 0208 27       		.uleb128 0x27
 2933 0209 13       		.uleb128 0x13
 2934 020a 01       		.byte	0x1
 2935 020b 03       		.uleb128 0x3
 2936 020c 0E       		.uleb128 0xe
 2937 020d 0B       		.uleb128 0xb
 2938 020e 0B       		.uleb128 0xb
 2939 020f 3A       		.uleb128 0x3a
 2940 0210 0B       		.uleb128 0xb
 2941 0211 3B       		.uleb128 0x3b
 2942 0212 0B       		.uleb128 0xb
 2943 0213 00       		.byte	0
 2944 0214 00       		.byte	0
 2945 0215 28       		.uleb128 0x28
 2946 0216 0D       		.uleb128 0xd
 2947 0217 00       		.byte	0
 2948 0218 03       		.uleb128 0x3
 2949 0219 0E       		.uleb128 0xe
 2950 021a 3A       		.uleb128 0x3a
 2951 021b 0B       		.uleb128 0xb
 2952 021c 3B       		.uleb128 0x3b
 2953 021d 0B       		.uleb128 0xb
 2954 021e 49       		.uleb128 0x49
 2955 021f 13       		.uleb128 0x13
 2956 0220 3F       		.uleb128 0x3f
 2957 0221 19       		.uleb128 0x19
 2958 0222 3C       		.uleb128 0x3c
 2959 0223 19       		.uleb128 0x19
 2960 0224 00       		.byte	0
 2961 0225 00       		.byte	0
 2962 0226 29       		.uleb128 0x29
 2963 0227 15       		.uleb128 0x15
 2964 0228 00       		.byte	0
ARM GAS  /tmp/ccuLV1lx.s 			page 53


 2965 0229 00       		.byte	0
 2966 022a 00       		.byte	0
 2967 022b 2A       		.uleb128 0x2a
 2968 022c 13       		.uleb128 0x13
 2969 022d 01       		.byte	0x1
 2970 022e 0B       		.uleb128 0xb
 2971 022f 0B       		.uleb128 0xb
 2972 0230 3A       		.uleb128 0x3a
 2973 0231 0B       		.uleb128 0xb
 2974 0232 3B       		.uleb128 0x3b
 2975 0233 0B       		.uleb128 0xb
 2976 0234 6E       		.uleb128 0x6e
 2977 0235 0E       		.uleb128 0xe
 2978 0236 01       		.uleb128 0x1
 2979 0237 13       		.uleb128 0x13
 2980 0238 00       		.byte	0
 2981 0239 00       		.byte	0
 2982 023a 2B       		.uleb128 0x2b
 2983 023b 0D       		.uleb128 0xd
 2984 023c 00       		.byte	0
 2985 023d 03       		.uleb128 0x3
 2986 023e 08       		.uleb128 0x8
 2987 023f 3A       		.uleb128 0x3a
 2988 0240 0B       		.uleb128 0xb
 2989 0241 3B       		.uleb128 0x3b
 2990 0242 0B       		.uleb128 0xb
 2991 0243 49       		.uleb128 0x49
 2992 0244 13       		.uleb128 0x13
 2993 0245 38       		.uleb128 0x38
 2994 0246 0B       		.uleb128 0xb
 2995 0247 00       		.byte	0
 2996 0248 00       		.byte	0
 2997 0249 2C       		.uleb128 0x2c
 2998 024a 15       		.uleb128 0x15
 2999 024b 01       		.byte	0x1
 3000 024c 49       		.uleb128 0x49
 3001 024d 13       		.uleb128 0x13
 3002 024e 01       		.uleb128 0x1
 3003 024f 13       		.uleb128 0x13
 3004 0250 00       		.byte	0
 3005 0251 00       		.byte	0
 3006 0252 2D       		.uleb128 0x2d
 3007 0253 26       		.uleb128 0x26
 3008 0254 00       		.byte	0
 3009 0255 00       		.byte	0
 3010 0256 00       		.byte	0
 3011 0257 2E       		.uleb128 0x2e
 3012 0258 2E       		.uleb128 0x2e
 3013 0259 01       		.byte	0x1
 3014 025a 3F       		.uleb128 0x3f
 3015 025b 19       		.uleb128 0x19
 3016 025c 03       		.uleb128 0x3
 3017 025d 0E       		.uleb128 0xe
 3018 025e 3A       		.uleb128 0x3a
 3019 025f 0B       		.uleb128 0xb
 3020 0260 3B       		.uleb128 0x3b
 3021 0261 0B       		.uleb128 0xb
ARM GAS  /tmp/ccuLV1lx.s 			page 54


 3022 0262 49       		.uleb128 0x49
 3023 0263 13       		.uleb128 0x13
 3024 0264 3C       		.uleb128 0x3c
 3025 0265 19       		.uleb128 0x19
 3026 0266 01       		.uleb128 0x1
 3027 0267 13       		.uleb128 0x13
 3028 0268 00       		.byte	0
 3029 0269 00       		.byte	0
 3030 026a 2F       		.uleb128 0x2f
 3031 026b 2E       		.uleb128 0x2e
 3032 026c 01       		.byte	0x1
 3033 026d 3F       		.uleb128 0x3f
 3034 026e 19       		.uleb128 0x19
 3035 026f 03       		.uleb128 0x3
 3036 0270 08       		.uleb128 0x8
 3037 0271 3A       		.uleb128 0x3a
 3038 0272 0B       		.uleb128 0xb
 3039 0273 3B       		.uleb128 0x3b
 3040 0274 0B       		.uleb128 0xb
 3041 0275 49       		.uleb128 0x49
 3042 0276 13       		.uleb128 0x13
 3043 0277 3C       		.uleb128 0x3c
 3044 0278 19       		.uleb128 0x19
 3045 0279 01       		.uleb128 0x1
 3046 027a 13       		.uleb128 0x13
 3047 027b 00       		.byte	0
 3048 027c 00       		.byte	0
 3049 027d 30       		.uleb128 0x30
 3050 027e 2E       		.uleb128 0x2e
 3051 027f 01       		.byte	0x1
 3052 0280 3F       		.uleb128 0x3f
 3053 0281 19       		.uleb128 0x19
 3054 0282 03       		.uleb128 0x3
 3055 0283 0E       		.uleb128 0xe
 3056 0284 3A       		.uleb128 0x3a
 3057 0285 0B       		.uleb128 0xb
 3058 0286 3B       		.uleb128 0x3b
 3059 0287 0B       		.uleb128 0xb
 3060 0288 3C       		.uleb128 0x3c
 3061 0289 19       		.uleb128 0x19
 3062 028a 01       		.uleb128 0x1
 3063 028b 13       		.uleb128 0x13
 3064 028c 00       		.byte	0
 3065 028d 00       		.byte	0
 3066 028e 31       		.uleb128 0x31
 3067 028f 2E       		.uleb128 0x2e
 3068 0290 00       		.byte	0
 3069 0291 3F       		.uleb128 0x3f
 3070 0292 19       		.uleb128 0x19
 3071 0293 03       		.uleb128 0x3
 3072 0294 0E       		.uleb128 0xe
 3073 0295 3A       		.uleb128 0x3a
 3074 0296 0B       		.uleb128 0xb
 3075 0297 3B       		.uleb128 0x3b
 3076 0298 0B       		.uleb128 0xb
 3077 0299 49       		.uleb128 0x49
 3078 029a 13       		.uleb128 0x13
ARM GAS  /tmp/ccuLV1lx.s 			page 55


 3079 029b 3C       		.uleb128 0x3c
 3080 029c 19       		.uleb128 0x19
 3081 029d 00       		.byte	0
 3082 029e 00       		.byte	0
 3083 029f 32       		.uleb128 0x32
 3084 02a0 2E       		.uleb128 0x2e
 3085 02a1 01       		.byte	0x1
 3086 02a2 47       		.uleb128 0x47
 3087 02a3 13       		.uleb128 0x13
 3088 02a4 20       		.uleb128 0x20
 3089 02a5 0B       		.uleb128 0xb
 3090 02a6 64       		.uleb128 0x64
 3091 02a7 13       		.uleb128 0x13
 3092 02a8 01       		.uleb128 0x1
 3093 02a9 13       		.uleb128 0x13
 3094 02aa 00       		.byte	0
 3095 02ab 00       		.byte	0
 3096 02ac 33       		.uleb128 0x33
 3097 02ad 05       		.uleb128 0x5
 3098 02ae 00       		.byte	0
 3099 02af 03       		.uleb128 0x3
 3100 02b0 0E       		.uleb128 0xe
 3101 02b1 49       		.uleb128 0x49
 3102 02b2 13       		.uleb128 0x13
 3103 02b3 34       		.uleb128 0x34
 3104 02b4 19       		.uleb128 0x19
 3105 02b5 00       		.byte	0
 3106 02b6 00       		.byte	0
 3107 02b7 34       		.uleb128 0x34
 3108 02b8 05       		.uleb128 0x5
 3109 02b9 00       		.byte	0
 3110 02ba 03       		.uleb128 0x3
 3111 02bb 0E       		.uleb128 0xe
 3112 02bc 3A       		.uleb128 0x3a
 3113 02bd 0B       		.uleb128 0xb
 3114 02be 3B       		.uleb128 0x3b
 3115 02bf 0B       		.uleb128 0xb
 3116 02c0 49       		.uleb128 0x49
 3117 02c1 13       		.uleb128 0x13
 3118 02c2 00       		.byte	0
 3119 02c3 00       		.byte	0
 3120 02c4 35       		.uleb128 0x35
 3121 02c5 2E       		.uleb128 0x2e
 3122 02c6 01       		.byte	0x1
 3123 02c7 47       		.uleb128 0x47
 3124 02c8 13       		.uleb128 0x13
 3125 02c9 20       		.uleb128 0x20
 3126 02ca 0B       		.uleb128 0xb
 3127 02cb 01       		.uleb128 0x1
 3128 02cc 13       		.uleb128 0x13
 3129 02cd 00       		.byte	0
 3130 02ce 00       		.byte	0
 3131 02cf 36       		.uleb128 0x36
 3132 02d0 0B       		.uleb128 0xb
 3133 02d1 01       		.byte	0x1
 3134 02d2 00       		.byte	0
 3135 02d3 00       		.byte	0
ARM GAS  /tmp/ccuLV1lx.s 			page 56


 3136 02d4 37       		.uleb128 0x37
 3137 02d5 34       		.uleb128 0x34
 3138 02d6 00       		.byte	0
 3139 02d7 03       		.uleb128 0x3
 3140 02d8 08       		.uleb128 0x8
 3141 02d9 3A       		.uleb128 0x3a
 3142 02da 0B       		.uleb128 0xb
 3143 02db 3B       		.uleb128 0x3b
 3144 02dc 0B       		.uleb128 0xb
 3145 02dd 49       		.uleb128 0x49
 3146 02de 13       		.uleb128 0x13
 3147 02df 00       		.byte	0
 3148 02e0 00       		.byte	0
 3149 02e1 38       		.uleb128 0x38
 3150 02e2 05       		.uleb128 0x5
 3151 02e3 00       		.byte	0
 3152 02e4 03       		.uleb128 0x3
 3153 02e5 0E       		.uleb128 0xe
 3154 02e6 3A       		.uleb128 0x3a
 3155 02e7 0B       		.uleb128 0xb
 3156 02e8 3B       		.uleb128 0x3b
 3157 02e9 05       		.uleb128 0x5
 3158 02ea 49       		.uleb128 0x49
 3159 02eb 13       		.uleb128 0x13
 3160 02ec 00       		.byte	0
 3161 02ed 00       		.byte	0
 3162 02ee 39       		.uleb128 0x39
 3163 02ef 2E       		.uleb128 0x2e
 3164 02f0 01       		.byte	0x1
 3165 02f1 47       		.uleb128 0x47
 3166 02f2 13       		.uleb128 0x13
 3167 02f3 3A       		.uleb128 0x3a
 3168 02f4 0B       		.uleb128 0xb
 3169 02f5 3B       		.uleb128 0x3b
 3170 02f6 0B       		.uleb128 0xb
 3171 02f7 11       		.uleb128 0x11
 3172 02f8 01       		.uleb128 0x1
 3173 02f9 12       		.uleb128 0x12
 3174 02fa 06       		.uleb128 0x6
 3175 02fb 40       		.uleb128 0x40
 3176 02fc 18       		.uleb128 0x18
 3177 02fd 64       		.uleb128 0x64
 3178 02fe 13       		.uleb128 0x13
 3179 02ff 9742     		.uleb128 0x2117
 3180 0301 19       		.uleb128 0x19
 3181 0302 01       		.uleb128 0x1
 3182 0303 13       		.uleb128 0x13
 3183 0304 00       		.byte	0
 3184 0305 00       		.byte	0
 3185 0306 3A       		.uleb128 0x3a
 3186 0307 05       		.uleb128 0x5
 3187 0308 00       		.byte	0
 3188 0309 03       		.uleb128 0x3
 3189 030a 0E       		.uleb128 0xe
 3190 030b 49       		.uleb128 0x49
 3191 030c 13       		.uleb128 0x13
 3192 030d 34       		.uleb128 0x34
ARM GAS  /tmp/ccuLV1lx.s 			page 57


 3193 030e 19       		.uleb128 0x19
 3194 030f 02       		.uleb128 0x2
 3195 0310 18       		.uleb128 0x18
 3196 0311 00       		.byte	0
 3197 0312 00       		.byte	0
 3198 0313 3B       		.uleb128 0x3b
 3199 0314 1D       		.uleb128 0x1d
 3200 0315 01       		.byte	0x1
 3201 0316 31       		.uleb128 0x31
 3202 0317 13       		.uleb128 0x13
 3203 0318 11       		.uleb128 0x11
 3204 0319 01       		.uleb128 0x1
 3205 031a 12       		.uleb128 0x12
 3206 031b 06       		.uleb128 0x6
 3207 031c 58       		.uleb128 0x58
 3208 031d 0B       		.uleb128 0xb
 3209 031e 59       		.uleb128 0x59
 3210 031f 0B       		.uleb128 0xb
 3211 0320 01       		.uleb128 0x1
 3212 0321 13       		.uleb128 0x13
 3213 0322 00       		.byte	0
 3214 0323 00       		.byte	0
 3215 0324 3C       		.uleb128 0x3c
 3216 0325 05       		.uleb128 0x5
 3217 0326 00       		.byte	0
 3218 0327 31       		.uleb128 0x31
 3219 0328 13       		.uleb128 0x13
 3220 0329 00       		.byte	0
 3221 032a 00       		.byte	0
 3222 032b 3D       		.uleb128 0x3d
 3223 032c 05       		.uleb128 0x5
 3224 032d 00       		.byte	0
 3225 032e 31       		.uleb128 0x31
 3226 032f 13       		.uleb128 0x13
 3227 0330 02       		.uleb128 0x2
 3228 0331 17       		.uleb128 0x17
 3229 0332 00       		.byte	0
 3230 0333 00       		.byte	0
 3231 0334 3E       		.uleb128 0x3e
 3232 0335 1D       		.uleb128 0x1d
 3233 0336 01       		.byte	0x1
 3234 0337 31       		.uleb128 0x31
 3235 0338 13       		.uleb128 0x13
 3236 0339 11       		.uleb128 0x11
 3237 033a 01       		.uleb128 0x1
 3238 033b 12       		.uleb128 0x12
 3239 033c 06       		.uleb128 0x6
 3240 033d 58       		.uleb128 0x58
 3241 033e 0B       		.uleb128 0xb
 3242 033f 59       		.uleb128 0x59
 3243 0340 05       		.uleb128 0x5
 3244 0341 00       		.byte	0
 3245 0342 00       		.byte	0
 3246 0343 3F       		.uleb128 0x3f
 3247 0344 1D       		.uleb128 0x1d
 3248 0345 01       		.byte	0x1
 3249 0346 31       		.uleb128 0x31
ARM GAS  /tmp/ccuLV1lx.s 			page 58


 3250 0347 13       		.uleb128 0x13
 3251 0348 52       		.uleb128 0x52
 3252 0349 01       		.uleb128 0x1
 3253 034a 55       		.uleb128 0x55
 3254 034b 17       		.uleb128 0x17
 3255 034c 58       		.uleb128 0x58
 3256 034d 0B       		.uleb128 0xb
 3257 034e 59       		.uleb128 0x59
 3258 034f 0B       		.uleb128 0xb
 3259 0350 00       		.byte	0
 3260 0351 00       		.byte	0
 3261 0352 40       		.uleb128 0x40
 3262 0353 05       		.uleb128 0x5
 3263 0354 00       		.byte	0
 3264 0355 31       		.uleb128 0x31
 3265 0356 13       		.uleb128 0x13
 3266 0357 1C       		.uleb128 0x1c
 3267 0358 05       		.uleb128 0x5
 3268 0359 00       		.byte	0
 3269 035a 00       		.byte	0
 3270 035b 41       		.uleb128 0x41
 3271 035c 05       		.uleb128 0x5
 3272 035d 00       		.byte	0
 3273 035e 31       		.uleb128 0x31
 3274 035f 13       		.uleb128 0x13
 3275 0360 1C       		.uleb128 0x1c
 3276 0361 0B       		.uleb128 0xb
 3277 0362 00       		.byte	0
 3278 0363 00       		.byte	0
 3279 0364 42       		.uleb128 0x42
 3280 0365 05       		.uleb128 0x5
 3281 0366 00       		.byte	0
 3282 0367 31       		.uleb128 0x31
 3283 0368 13       		.uleb128 0x13
 3284 0369 02       		.uleb128 0x2
 3285 036a 18       		.uleb128 0x18
 3286 036b 00       		.byte	0
 3287 036c 00       		.byte	0
 3288 036d 43       		.uleb128 0x43
 3289 036e 05       		.uleb128 0x5
 3290 036f 00       		.byte	0
 3291 0370 03       		.uleb128 0x3
 3292 0371 0E       		.uleb128 0xe
 3293 0372 3A       		.uleb128 0x3a
 3294 0373 0B       		.uleb128 0xb
 3295 0374 3B       		.uleb128 0x3b
 3296 0375 0B       		.uleb128 0xb
 3297 0376 49       		.uleb128 0x49
 3298 0377 13       		.uleb128 0x13
 3299 0378 02       		.uleb128 0x2
 3300 0379 17       		.uleb128 0x17
 3301 037a 00       		.byte	0
 3302 037b 00       		.byte	0
 3303 037c 44       		.uleb128 0x44
 3304 037d 0B       		.uleb128 0xb
 3305 037e 01       		.byte	0x1
 3306 037f 55       		.uleb128 0x55
ARM GAS  /tmp/ccuLV1lx.s 			page 59


 3307 0380 17       		.uleb128 0x17
 3308 0381 00       		.byte	0
 3309 0382 00       		.byte	0
 3310 0383 45       		.uleb128 0x45
 3311 0384 34       		.uleb128 0x34
 3312 0385 00       		.byte	0
 3313 0386 03       		.uleb128 0x3
 3314 0387 0E       		.uleb128 0xe
 3315 0388 3A       		.uleb128 0x3a
 3316 0389 0B       		.uleb128 0xb
 3317 038a 3B       		.uleb128 0x3b
 3318 038b 0B       		.uleb128 0xb
 3319 038c 49       		.uleb128 0x49
 3320 038d 13       		.uleb128 0x13
 3321 038e 02       		.uleb128 0x2
 3322 038f 17       		.uleb128 0x17
 3323 0390 00       		.byte	0
 3324 0391 00       		.byte	0
 3325 0392 46       		.uleb128 0x46
 3326 0393 34       		.uleb128 0x34
 3327 0394 00       		.byte	0
 3328 0395 03       		.uleb128 0x3
 3329 0396 0E       		.uleb128 0xe
 3330 0397 3A       		.uleb128 0x3a
 3331 0398 0B       		.uleb128 0xb
 3332 0399 3B       		.uleb128 0x3b
 3333 039a 0B       		.uleb128 0xb
 3334 039b 49       		.uleb128 0x49
 3335 039c 13       		.uleb128 0x13
 3336 039d 1C       		.uleb128 0x1c
 3337 039e 0B       		.uleb128 0xb
 3338 039f 00       		.byte	0
 3339 03a0 00       		.byte	0
 3340 03a1 47       		.uleb128 0x47
 3341 03a2 34       		.uleb128 0x34
 3342 03a3 00       		.byte	0
 3343 03a4 03       		.uleb128 0x3
 3344 03a5 0E       		.uleb128 0xe
 3345 03a6 3A       		.uleb128 0x3a
 3346 03a7 0B       		.uleb128 0xb
 3347 03a8 3B       		.uleb128 0x3b
 3348 03a9 0B       		.uleb128 0xb
 3349 03aa 49       		.uleb128 0x49
 3350 03ab 13       		.uleb128 0x13
 3351 03ac 00       		.byte	0
 3352 03ad 00       		.byte	0
 3353 03ae 48       		.uleb128 0x48
 3354 03af 34       		.uleb128 0x34
 3355 03b0 00       		.byte	0
 3356 03b1 31       		.uleb128 0x31
 3357 03b2 13       		.uleb128 0x13
 3358 03b3 00       		.byte	0
 3359 03b4 00       		.byte	0
 3360 03b5 49       		.uleb128 0x49
 3361 03b6 34       		.uleb128 0x34
 3362 03b7 00       		.byte	0
 3363 03b8 47       		.uleb128 0x47
ARM GAS  /tmp/ccuLV1lx.s 			page 60


 3364 03b9 13       		.uleb128 0x13
 3365 03ba 1C       		.uleb128 0x1c
 3366 03bb 0B       		.uleb128 0xb
 3367 03bc 00       		.byte	0
 3368 03bd 00       		.byte	0
 3369 03be 4A       		.uleb128 0x4a
 3370 03bf 21       		.uleb128 0x21
 3371 03c0 00       		.byte	0
 3372 03c1 00       		.byte	0
 3373 03c2 00       		.byte	0
 3374 03c3 4B       		.uleb128 0x4b
 3375 03c4 34       		.uleb128 0x34
 3376 03c5 00       		.byte	0
 3377 03c6 47       		.uleb128 0x47
 3378 03c7 13       		.uleb128 0x13
 3379 03c8 1C       		.uleb128 0x1c
 3380 03c9 05       		.uleb128 0x5
 3381 03ca 00       		.byte	0
 3382 03cb 00       		.byte	0
 3383 03cc 4C       		.uleb128 0x4c
 3384 03cd 34       		.uleb128 0x34
 3385 03ce 00       		.byte	0
 3386 03cf 47       		.uleb128 0x47
 3387 03d0 13       		.uleb128 0x13
 3388 03d1 1C       		.uleb128 0x1c
 3389 03d2 06       		.uleb128 0x6
 3390 03d3 00       		.byte	0
 3391 03d4 00       		.byte	0
 3392 03d5 4D       		.uleb128 0x4d
 3393 03d6 34       		.uleb128 0x34
 3394 03d7 00       		.byte	0
 3395 03d8 47       		.uleb128 0x47
 3396 03d9 13       		.uleb128 0x13
 3397 03da 6E       		.uleb128 0x6e
 3398 03db 0E       		.uleb128 0xe
 3399 03dc 1C       		.uleb128 0x1c
 3400 03dd 06       		.uleb128 0x6
 3401 03de 00       		.byte	0
 3402 03df 00       		.byte	0
 3403 03e0 00       		.byte	0
 3404              		.section	.debug_loc,"",%progbits
 3405              	.Ldebug_loc0:
 3406              	.LLST0:
 3407 0000 0A000000 		.4byte	.LVL1-.Ltext0
 3408 0004 22000000 		.4byte	.LVL6-.Ltext0
 3409 0008 0100     		.2byte	0x1
 3410 000a 54       		.byte	0x54
 3411 000b 22000000 		.4byte	.LVL6-.Ltext0
 3412 000f 5A000000 		.4byte	.LFE473-.Ltext0
 3413 0013 0300     		.2byte	0x3
 3414 0015 70       		.byte	0x70
 3415 0016 2A       		.sleb128 42
 3416 0017 9F       		.byte	0x9f
 3417 0018 00000000 		.4byte	0
 3418 001c 00000000 		.4byte	0
 3419              	.LLST1:
 3420 0020 0A000000 		.4byte	.LVL1-.Ltext0
ARM GAS  /tmp/ccuLV1lx.s 			page 61


 3421 0024 0C000000 		.4byte	.LVL2-.Ltext0
 3422 0028 0100     		.2byte	0x1
 3423 002a 53       		.byte	0x53
 3424 002b 0C000000 		.4byte	.LVL2-.Ltext0
 3425 002f 5A000000 		.4byte	.LFE473-.Ltext0
 3426 0033 0300     		.2byte	0x3
 3427 0035 70       		.byte	0x70
 3428 0036 22       		.sleb128 34
 3429 0037 9F       		.byte	0x9f
 3430 0038 00000000 		.4byte	0
 3431 003c 00000000 		.4byte	0
 3432              	.LLST3:
 3433 0040 0A000000 		.4byte	.LVL1-.Ltext0
 3434 0044 1A000000 		.4byte	.LVL5-.Ltext0
 3435 0048 0100     		.2byte	0x1
 3436 004a 53       		.byte	0x53
 3437 004b 00000000 		.4byte	0
 3438 004f 00000000 		.4byte	0
 3439              	.LLST4:
 3440 0053 60000000 		.4byte	.LVL7-.Ltext0
 3441 0057 66000000 		.4byte	.LVL8-.Ltext0
 3442 005b 0100     		.2byte	0x1
 3443 005d 51       		.byte	0x51
 3444 005e 66000000 		.4byte	.LVL8-.Ltext0
 3445 0062 48020000 		.4byte	.LFE474-.Ltext0
 3446 0066 0400     		.2byte	0x4
 3447 0068 F3       		.byte	0xf3
 3448 0069 01       		.uleb128 0x1
 3449 006a 51       		.byte	0x51
 3450 006b 9F       		.byte	0x9f
 3451 006c 00000000 		.4byte	0
 3452 0070 00000000 		.4byte	0
 3453              	.LLST5:
 3454 0074 60000000 		.4byte	.LVL7-.Ltext0
 3455 0078 B2010000 		.4byte	.LVL22-.Ltext0
 3456 007c 0100     		.2byte	0x1
 3457 007e 52       		.byte	0x52
 3458 007f B2010000 		.4byte	.LVL22-.Ltext0
 3459 0083 F8010000 		.4byte	.LVL25-.Ltext0
 3460 0087 0400     		.2byte	0x4
 3461 0089 F3       		.byte	0xf3
 3462 008a 01       		.uleb128 0x1
 3463 008b 52       		.byte	0x52
 3464 008c 9F       		.byte	0x9f
 3465 008d F8010000 		.4byte	.LVL25-.Ltext0
 3466 0091 48020000 		.4byte	.LFE474-.Ltext0
 3467 0095 0100     		.2byte	0x1
 3468 0097 52       		.byte	0x52
 3469 0098 00000000 		.4byte	0
 3470 009c 00000000 		.4byte	0
 3471              	.LLST6:
 3472 00a0 60000000 		.4byte	.LVL7-.Ltext0
 3473 00a4 8A000000 		.4byte	.LVL10-.Ltext0
 3474 00a8 0100     		.2byte	0x1
 3475 00aa 53       		.byte	0x53
 3476 00ab 8A000000 		.4byte	.LVL10-.Ltext0
 3477 00af CE000000 		.4byte	.LVL16-.Ltext0
ARM GAS  /tmp/ccuLV1lx.s 			page 62


 3478 00b3 0200     		.2byte	0x2
 3479 00b5 91       		.byte	0x91
 3480 00b6 54       		.sleb128 -44
 3481 00b7 CE000000 		.4byte	.LVL16-.Ltext0
 3482 00bb D2000000 		.4byte	.LVL17-.Ltext0
 3483 00bf 0100     		.2byte	0x1
 3484 00c1 53       		.byte	0x53
 3485 00c2 D2000000 		.4byte	.LVL17-.Ltext0
 3486 00c6 48020000 		.4byte	.LFE474-.Ltext0
 3487 00ca 0200     		.2byte	0x2
 3488 00cc 91       		.byte	0x91
 3489 00cd 54       		.sleb128 -44
 3490 00ce 00000000 		.4byte	0
 3491 00d2 00000000 		.4byte	0
 3492              	.LLST7:
 3493 00d6 60000000 		.4byte	.LVL7-.Ltext0
 3494 00da F8010000 		.4byte	.LVL25-.Ltext0
 3495 00de 0200     		.2byte	0x2
 3496 00e0 91       		.byte	0x91
 3497 00e1 00       		.sleb128 0
 3498 00e2 F8010000 		.4byte	.LVL25-.Ltext0
 3499 00e6 48020000 		.4byte	.LFE474-.Ltext0
 3500 00ea 0200     		.2byte	0x2
 3501 00ec 91       		.byte	0x91
 3502 00ed 00       		.sleb128 0
 3503 00ee 00000000 		.4byte	0
 3504 00f2 00000000 		.4byte	0
 3505              	.LLST8:
 3506 00f6 84000000 		.4byte	.LVL9-.Ltext0
 3507 00fa 90000000 		.4byte	.LVL11-.Ltext0
 3508 00fe 0200     		.2byte	0x2
 3509 0100 30       		.byte	0x30
 3510 0101 9F       		.byte	0x9f
 3511 0102 90000000 		.4byte	.LVL11-.Ltext0
 3512 0106 C6000000 		.4byte	.LVL15-.Ltext0
 3513 010a 0200     		.2byte	0x2
 3514 010c 31       		.byte	0x31
 3515 010d 9F       		.byte	0x9f
 3516 010e CE000000 		.4byte	.LVL16-.Ltext0
 3517 0112 2C010000 		.4byte	.LVL20-.Ltext0
 3518 0116 0200     		.2byte	0x2
 3519 0118 30       		.byte	0x30
 3520 0119 9F       		.byte	0x9f
 3521 011a F8010000 		.4byte	.LVL25-.Ltext0
 3522 011e 2C020000 		.4byte	.LVL26-.Ltext0
 3523 0122 0200     		.2byte	0x2
 3524 0124 30       		.byte	0x30
 3525 0125 9F       		.byte	0x9f
 3526 0126 2C020000 		.4byte	.LVL26-.Ltext0
 3527 012a 30020000 		.4byte	.LVL27-.Ltext0
 3528 012e 0200     		.2byte	0x2
 3529 0130 31       		.byte	0x31
 3530 0131 9F       		.byte	0x9f
 3531 0132 30020000 		.4byte	.LVL27-.Ltext0
 3532 0136 48020000 		.4byte	.LFE474-.Ltext0
 3533 013a 0200     		.2byte	0x2
 3534 013c 30       		.byte	0x30
ARM GAS  /tmp/ccuLV1lx.s 			page 63


 3535 013d 9F       		.byte	0x9f
 3536 013e 00000000 		.4byte	0
 3537 0142 00000000 		.4byte	0
 3538              	.LLST9:
 3539 0146 C0000000 		.4byte	.LVL13-.Ltext0
 3540 014a C6000000 		.4byte	.LVL15-.Ltext0
 3541 014e 0500     		.2byte	0x5
 3542 0150 30       		.byte	0x30
 3543 0151 79       		.byte	0x79
 3544 0152 00       		.sleb128 0
 3545 0153 29       		.byte	0x29
 3546 0154 9F       		.byte	0x9f
 3547 0155 18010000 		.4byte	.LVL18-.Ltext0
 3548 0159 2C010000 		.4byte	.LVL20-.Ltext0
 3549 015d 0600     		.2byte	0x6
 3550 015f 7C       		.byte	0x7c
 3551 0160 00       		.sleb128 0
 3552 0161 79       		.byte	0x79
 3553 0162 00       		.sleb128 0
 3554 0163 29       		.byte	0x29
 3555 0164 9F       		.byte	0x9f
 3556 0165 30020000 		.4byte	.LVL27-.Ltext0
 3557 0169 48020000 		.4byte	.LFE474-.Ltext0
 3558 016d 0600     		.2byte	0x6
 3559 016f 7C       		.byte	0x7c
 3560 0170 00       		.sleb128 0
 3561 0171 79       		.byte	0x79
 3562 0172 00       		.sleb128 0
 3563 0173 29       		.byte	0x29
 3564 0174 9F       		.byte	0x9f
 3565 0175 00000000 		.4byte	0
 3566 0179 00000000 		.4byte	0
 3567              	.LLST10:
 3568 017d C4000000 		.4byte	.LVL14-.Ltext0
 3569 0181 C6000000 		.4byte	.LVL15-.Ltext0
 3570 0185 0200     		.2byte	0x2
 3571 0187 30       		.byte	0x30
 3572 0188 9F       		.byte	0x9f
 3573 0189 28010000 		.4byte	.LVL19-.Ltext0
 3574 018d 44010000 		.4byte	.LVL21-.Ltext0
 3575 0191 0200     		.2byte	0x2
 3576 0193 30       		.byte	0x30
 3577 0194 9F       		.byte	0x9f
 3578 0195 00000000 		.4byte	0
 3579 0199 00000000 		.4byte	0
 3580              	.LLST11:
 3581 019d 44010000 		.4byte	.LVL21-.Ltext0
 3582 01a1 D6010000 		.4byte	.LVL23-.Ltext0
 3583 01a5 0100     		.2byte	0x1
 3584 01a7 58       		.byte	0x58
 3585 01a8 D6010000 		.4byte	.LVL23-.Ltext0
 3586 01ac F8010000 		.4byte	.LVL25-.Ltext0
 3587 01b0 0100     		.2byte	0x1
 3588 01b2 56       		.byte	0x56
 3589 01b3 00000000 		.4byte	0
 3590 01b7 00000000 		.4byte	0
 3591              	.LLST12:
ARM GAS  /tmp/ccuLV1lx.s 			page 64


 3592 01bb F0010000 		.4byte	.LVL24-.Ltext0
 3593 01bf F8010000 		.4byte	.LVL25-.Ltext0
 3594 01c3 2600     		.2byte	0x26
 3595 01c5 0A       		.byte	0xa
 3596 01c6 FF7F     		.2byte	0x7fff
 3597 01c8 0A       		.byte	0xa
 3598 01c9 FF7F     		.2byte	0x7fff
 3599 01cb 7A       		.byte	0x7a
 3600 01cc 00       		.sleb128 0
 3601 01cd 1C       		.byte	0x1c
 3602 01ce 0A       		.byte	0xa
 3603 01cf FF7F     		.2byte	0x7fff
 3604 01d1 7A       		.byte	0x7a
 3605 01d2 00       		.sleb128 0
 3606 01d3 1C       		.byte	0x1c
 3607 01d4 1E       		.byte	0x1e
 3608 01d5 3F       		.byte	0x3f
 3609 01d6 26       		.byte	0x26
 3610 01d7 0A       		.byte	0xa
 3611 01d8 FF7F     		.2byte	0x7fff
 3612 01da 7A       		.byte	0x7a
 3613 01db 00       		.sleb128 0
 3614 01dc 1C       		.byte	0x1c
 3615 01dd 0A       		.byte	0xa
 3616 01de FF7F     		.2byte	0x7fff
 3617 01e0 7A       		.byte	0x7a
 3618 01e1 00       		.sleb128 0
 3619 01e2 1C       		.byte	0x1c
 3620 01e3 1E       		.byte	0x1e
 3621 01e4 3F       		.byte	0x3f
 3622 01e5 26       		.byte	0x26
 3623 01e6 1E       		.byte	0x1e
 3624 01e7 3F       		.byte	0x3f
 3625 01e8 26       		.byte	0x26
 3626 01e9 1C       		.byte	0x1c
 3627 01ea 9F       		.byte	0x9f
 3628 01eb 00000000 		.4byte	0
 3629 01ef 00000000 		.4byte	0
 3630              	.LLST13:
 3631 01f3 A2000000 		.4byte	.LVL12-.Ltext0
 3632 01f7 C6000000 		.4byte	.LVL15-.Ltext0
 3633 01fb 0100     		.2byte	0x1
 3634 01fd 50       		.byte	0x50
 3635 01fe 2C020000 		.4byte	.LVL26-.Ltext0
 3636 0202 30020000 		.4byte	.LVL27-.Ltext0
 3637 0206 0100     		.2byte	0x1
 3638 0208 50       		.byte	0x50
 3639 0209 00000000 		.4byte	0
 3640 020d 00000000 		.4byte	0
 3641              	.LLST14:
 3642 0211 A2000000 		.4byte	.LVL12-.Ltext0
 3643 0215 C6000000 		.4byte	.LVL15-.Ltext0
 3644 0219 0200     		.2byte	0x2
 3645 021b 30       		.byte	0x30
 3646 021c 9F       		.byte	0x9f
 3647 021d 2C020000 		.4byte	.LVL26-.Ltext0
 3648 0221 30020000 		.4byte	.LVL27-.Ltext0
ARM GAS  /tmp/ccuLV1lx.s 			page 65


 3649 0225 0200     		.2byte	0x2
 3650 0227 30       		.byte	0x30
 3651 0228 9F       		.byte	0x9f
 3652 0229 00000000 		.4byte	0
 3653 022d 00000000 		.4byte	0
 3654              		.section	.debug_aranges,"",%progbits
 3655 0000 1C000000 		.4byte	0x1c
 3656 0004 0200     		.2byte	0x2
 3657 0006 00000000 		.4byte	.Ldebug_info0
 3658 000a 04       		.byte	0x4
 3659 000b 00       		.byte	0
 3660 000c 0000     		.2byte	0
 3661 000e 0000     		.2byte	0
 3662 0010 00000000 		.4byte	.Ltext0
 3663 0014 48020000 		.4byte	.Letext0-.Ltext0
 3664 0018 00000000 		.4byte	0
 3665 001c 00000000 		.4byte	0
 3666              		.section	.debug_ranges,"",%progbits
 3667              	.Ldebug_ranges0:
 3668 0000 18000000 		.4byte	.LBB25-.Ltext0
 3669 0004 34000000 		.4byte	.LBE25-.Ltext0
 3670 0008 4E000000 		.4byte	.LBB29-.Ltext0
 3671 000c 50000000 		.4byte	.LBE29-.Ltext0
 3672 0010 52000000 		.4byte	.LBB30-.Ltext0
 3673 0014 56000000 		.4byte	.LBE30-.Ltext0
 3674 0018 00000000 		.4byte	0
 3675 001c 00000000 		.4byte	0
 3676 0020 64000000 		.4byte	.LBB31-.Ltext0
 3677 0024 6E000000 		.4byte	.LBE31-.Ltext0
 3678 0028 70000000 		.4byte	.LBB40-.Ltext0
 3679 002c 7E000000 		.4byte	.LBE40-.Ltext0
 3680 0030 80000000 		.4byte	.LBB41-.Ltext0
 3681 0034 F2010000 		.4byte	.LBE41-.Ltext0
 3682 0038 F8010000 		.4byte	.LBB42-.Ltext0
 3683 003c 48020000 		.4byte	.LBE42-.Ltext0
 3684 0040 00000000 		.4byte	0
 3685 0044 00000000 		.4byte	0
 3686 0048 52010000 		.4byte	.LBB34-.Ltext0
 3687 004c 5A010000 		.4byte	.LBE34-.Ltext0
 3688 0050 60010000 		.4byte	.LBB38-.Ltext0
 3689 0054 64010000 		.4byte	.LBE38-.Ltext0
 3690 0058 68010000 		.4byte	.LBB39-.Ltext0
 3691 005c 70010000 		.4byte	.LBE39-.Ltext0
 3692 0060 00000000 		.4byte	0
 3693 0064 00000000 		.4byte	0
 3694              		.section	.debug_line,"",%progbits
 3695              	.Ldebug_line0:
 3696 0000 96070000 		.section	.debug_str,"MS",%progbits,1
 3696      0200BA05 
 3696      00000201 
 3696      FB0E0D00 
 3696      01010101 
 3697              	.LASF155:
 3698 0000 67657465 		.ascii	"getenv\000"
 3698      6E7600
 3699              	.LASF65:
 3700 0007 7365745F 		.ascii	"set_ar\000"
ARM GAS  /tmp/ccuLV1lx.s 			page 66


 3700      617200
 3701              	.LASF119:
 3702 000e 5F5F6465 		.ascii	"__debug\000"
 3702      62756700 
 3703              	.LASF41:
 3704 0016 616C7465 		.ascii	"alternate_\000"
 3704      726E6174 
 3704      655F00
 3705              	.LASF68:
 3706 0021 5F5A4E37 		.ascii	"_ZN7streams8Envelope9set_adsarEtttt\000"
 3706      73747265 
 3706      616D7338 
 3706      456E7665 
 3706      6C6F7065 
 3707              	.LASF200:
 3708 0045 72616E64 		.ascii	"rand\000"
 3708      00
 3709              	.LASF55:
 3710 004a 7365745F 		.ascii	"set_level\000"
 3710      6C657665 
 3710      6C00
 3711              	.LASF103:
 3712 0054 4C55545F 		.ascii	"LUT_LP_COEFFICIENTS\000"
 3712      4C505F43 
 3712      4F454646 
 3712      49434945 
 3712      4E545300 
 3713              	.LASF166:
 3714 0068 73797374 		.ascii	"system\000"
 3714      656D00
 3715              	.LASF20:
 3716 006f 73747265 		.ascii	"streams\000"
 3716      616D7300 
 3717              	.LASF66:
 3718 0077 5F5A4E37 		.ascii	"_ZN7streams8Envelope6set_arEtt\000"
 3718      73747265 
 3718      616D7338 
 3718      456E7665 
 3718      6C6F7065 
 3719              	.LASF75:
 3720 0096 5F5A4E37 		.ascii	"_ZN7streams18lookup_table_tableE\000"
 3720      73747265 
 3720      616D7331 
 3720      386C6F6F 
 3720      6B75705F 
 3721              	.LASF187:
 3722 00b7 696E6372 		.ascii	"increment\000"
 3722      656D656E 
 3722      7400
 3723              	.LASF95:
 3724 00c1 4C55545F 		.ascii	"LUT_2164_GAIN\000"
 3724      32313634 
 3724      5F474149 
 3724      4E00
 3725              	.LASF157:
 3726 00cf 6D626C65 		.ascii	"mblen\000"
 3726      6E00
ARM GAS  /tmp/ccuLV1lx.s 			page 67


 3727              	.LASF12:
 3728 00d5 756E7369 		.ascii	"unsigned int\000"
 3728      676E6564 
 3728      20696E74 
 3728      00
 3729              	.LASF132:
 3730 00e2 5F5F676E 		.ascii	"__gnu_cxx\000"
 3730      755F6378 
 3730      7800
 3731              	.LASF148:
 3732 00ec 6C646976 		.ascii	"ldiv_t\000"
 3732      5F7400
 3733              	.LASF94:
 3734 00f3 4C55545F 		.ascii	"LUT_SVF_DAMP_SIZE\000"
 3734      5356465F 
 3734      44414D50 
 3734      5F53495A 
 3734      4500
 3735              	.LASF6:
 3736 0105 5F5F696E 		.ascii	"__int32_t\000"
 3736      7433325F 
 3736      7400
 3737              	.LASF159:
 3738 010f 77636861 		.ascii	"wchar_t\000"
 3738      725F7400 
 3739              	.LASF106:
 3740 0117 4C55545F 		.ascii	"LUT_EXP2_SIZE\000"
 3740      45585032 
 3740      5F53495A 
 3740      4500
 3741              	.LASF194:
 3742 0125 5F5A4E37 		.ascii	"_ZN7streams8EnvelopeaSERKS0_\000"
 3742      73747265 
 3742      616D7338 
 3742      456E7665 
 3742      6C6F7065 
 3743              	.LASF178:
 3744 0142 64656361 		.ascii	"decay\000"
 3744      7900
 3745              	.LASF107:
 3746 0148 4C55545F 		.ascii	"LUT_LOG2\000"
 3746      4C4F4732 
 3746      00
 3747              	.LASF92:
 3748 0151 4C55545F 		.ascii	"LUT_SVF_CUTOFF_SIZE\000"
 3748      5356465F 
 3748      4355544F 
 3748      46465F53 
 3748      495A4500 
 3749              	.LASF52:
 3750 0165 5F5A4E37 		.ascii	"_ZN7streams8Envelope9ConfigureEbPlS1_\000"
 3750      73747265 
 3750      616D7338 
 3750      456E7665 
 3750      6C6F7065 
 3751              	.LASF80:
 3752 018b 5741565F 		.ascii	"WAV_GOMPERTZ_SIZE\000"
ARM GAS  /tmp/ccuLV1lx.s 			page 68


 3752      474F4D50 
 3752      4552545A 
 3752      5F53495A 
 3752      4500
 3753              	.LASF189:
 3754 019d 7363616C 		.ascii	"scaled\000"
 3754      656400
 3755              	.LASF188:
 3756 01a4 636F6D70 		.ascii	"compressed\000"
 3756      72657373 
 3756      656400
 3757              	.LASF130:
 3758 01af 6E6F7468 		.ascii	"nothrow\000"
 3758      726F7700 
 3759              	.LASF33:
 3760 01b7 6E756D5F 		.ascii	"num_segments_\000"
 3760      7365676D 
 3760      656E7473 
 3760      5F00
 3761              	.LASF60:
 3762 01c5 5F5A4E37 		.ascii	"_ZN7streams8Envelope17set_sustain_pointEt\000"
 3762      73747265 
 3762      616D7338 
 3762      456E7665 
 3762      6C6F7065 
 3763              	.LASF64:
 3764 01ef 5F5A4E37 		.ascii	"_ZN7streams8Envelope7set_adrEtttt\000"
 3764      73747265 
 3764      616D7338 
 3764      456E7665 
 3764      6C6F7065 
 3765              	.LASF49:
 3766 0211 5F5A4E37 		.ascii	"_ZN7streams8Envelope4InitEv\000"
 3766      73747265 
 3766      616D7338 
 3766      456E7665 
 3766      6C6F7065 
 3767              	.LASF142:
 3768 022d 5F5F676E 		.ascii	"__gnu_debug\000"
 3768      755F6465 
 3768      62756700 
 3769              	.LASF87:
 3770 0239 4C55545F 		.ascii	"LUT_ENV_QUARTIC\000"
 3770      454E565F 
 3770      51554152 
 3770      54494300 
 3771              	.LASF16:
 3772 0249 75696E74 		.ascii	"uint32_t\000"
 3772      33325F74 
 3772      00
 3773              	.LASF98:
 3774 0252 4C55545F 		.ascii	"LUT_COMPRESSOR_RATIO_SIZE\000"
 3774      434F4D50 
 3774      52455353 
 3774      4F525F52 
 3774      4154494F 
 3775              	.LASF160:
ARM GAS  /tmp/ccuLV1lx.s 			page 69


 3776 026c 6D62746F 		.ascii	"mbtowc\000"
 3776      776300
 3777              	.LASF91:
 3778 0273 4C55545F 		.ascii	"LUT_SVF_CUTOFF\000"
 3778      5356465F 
 3778      4355544F 
 3778      464600
 3779              	.LASF141:
 3780 0282 666C6F61 		.ascii	"float\000"
 3780      7400
 3781              	.LASF50:
 3782 0288 5F5A4E37 		.ascii	"_ZN7streams8Envelope7ProcessEssPtS1_\000"
 3782      73747265 
 3782      616D7338 
 3782      456E7665 
 3782      6C6F7065 
 3783              	.LASF48:
 3784 02ad 50726F63 		.ascii	"Process\000"
 3784      65737300 
 3785              	.LASF59:
 3786 02b5 7365745F 		.ascii	"set_sustain_point\000"
 3786      73757374 
 3786      61696E5F 
 3786      706F696E 
 3786      7400
 3787              	.LASF115:
 3788 02c7 6B4D6178 		.ascii	"kMaxExponentialGain\000"
 3788      4578706F 
 3788      6E656E74 
 3788      69616C47 
 3788      61696E00 
 3789              	.LASF13:
 3790 02db 696E7431 		.ascii	"int16_t\000"
 3790      365F7400 
 3791              	.LASF72:
 3792 02e3 5F5A4E37 		.ascii	"_ZN7streams8Envelope14set_hard_resetEb\000"
 3792      73747265 
 3792      616D7338 
 3792      456E7665 
 3792      6C6F7065 
 3793              	.LASF11:
 3794 030a 6C6F6E67 		.ascii	"long long unsigned int\000"
 3794      206C6F6E 
 3794      6720756E 
 3794      7369676E 
 3794      65642069 
 3795              	.LASF105:
 3796 0321 4C55545F 		.ascii	"LUT_EXP2\000"
 3796      45585032 
 3796      00
 3797              	.LASF190:
 3798 032a 474E5520 		.ascii	"GNU C++ 4.9.3 20150529 (release) [ARM/embedded-4_9-"
 3798      432B2B20 
 3798      342E392E 
 3798      33203230 
 3798      31353035 
 3799 035d 6272616E 		.ascii	"branch revision 224288] -mcpu=cortex-m4 -mfloat-abi"
ARM GAS  /tmp/ccuLV1lx.s 			page 70


 3799      63682072 
 3799      65766973 
 3799      696F6E20 
 3799      32323432 
 3800 0390 3D686172 		.ascii	"=hard -mfpu=fpv4-sp-d16 -mno-thumb-interwork -mthum"
 3800      64202D6D 
 3800      6670753D 
 3800      66707634 
 3800      2D73702D 
 3801 03c3 62202D67 		.ascii	"b -ggdb -O2 -fomit-frame-pointer -falign-functions="
 3801      67646220 
 3801      2D4F3220 
 3801      2D666F6D 
 3801      69742D66 
 3802 03f6 3136202D 		.ascii	"16 -fno-math-errno -fsingle-precision-constant -fno"
 3802      666E6F2D 
 3802      6D617468 
 3802      2D657272 
 3802      6E6F202D 
 3803 0429 2D727474 		.ascii	"-rtti\000"
 3803      6900
 3804              	.LASF180:
 3805 042f 65786369 		.ascii	"excite\000"
 3805      746500
 3806              	.LASF63:
 3807 0436 7365745F 		.ascii	"set_adr\000"
 3807      61647200 
 3808              	.LASF4:
 3809 043e 5F5F7569 		.ascii	"__uint16_t\000"
 3809      6E743136 
 3809      5F7400
 3810              	.LASF158:
 3811 0449 6D627374 		.ascii	"mbstowcs\000"
 3811      6F776373 
 3811      00
 3812              	.LASF126:
 3813 0452 496E7465 		.ascii	"Interpolate824\000"
 3813      72706F6C 
 3813      61746538 
 3813      323400
 3814              	.LASF169:
 3815 0461 68617264 		.ascii	"hard_reset\000"
 3815      5F726573 
 3815      657400
 3816              	.LASF83:
 3817 046c 4C55545F 		.ascii	"LUT_ENV_LINEAR\000"
 3817      454E565F 
 3817      4C494E45 
 3817      415200
 3818              	.LASF74:
 3819 047b 6C75745F 		.ascii	"lut_env_increments\000"
 3819      656E765F 
 3819      696E6372 
 3819      656D656E 
 3819      747300
 3820              	.LASF125:
 3821 048e 5F497465 		.ascii	"_Iterator\000"
ARM GAS  /tmp/ccuLV1lx.s 			page 71


 3821      7261746F 
 3821      7200
 3822              	.LASF179:
 3823 0498 61756469 		.ascii	"audio\000"
 3823      6F00
 3824              	.LASF29:
 3825 049e 73746172 		.ascii	"start_value_\000"
 3825      745F7661 
 3825      6C75655F 
 3825      00
 3826              	.LASF47:
 3827 04ab 496E6974 		.ascii	"Init\000"
 3827      00
 3828              	.LASF174:
 3829 04b0 5F5F6C61 		.ascii	"__last\000"
 3829      737400
 3830              	.LASF17:
 3831 04b7 73697A65 		.ascii	"size_t\000"
 3831      5F7400
 3832              	.LASF162:
 3833 04be 7372616E 		.ascii	"srand\000"
 3833      6400
 3834              	.LASF86:
 3835 04c4 4C55545F 		.ascii	"LUT_ENV_EXPO_SIZE\000"
 3835      454E565F 
 3835      4558504F 
 3835      5F53495A 
 3835      4500
 3836              	.LASF88:
 3837 04d6 4C55545F 		.ascii	"LUT_ENV_QUARTIC_SIZE\000"
 3837      454E565F 
 3837      51554152 
 3837      5449435F 
 3837      53495A45 
 3838              	.LASF122:
 3839 04eb 5F535F62 		.ascii	"_S_base\000"
 3839      61736500 
 3840              	.LASF154:
 3841 04f3 62736561 		.ascii	"bsearch\000"
 3841      72636800 
 3842              	.LASF54:
 3843 04fb 5F5A4E37 		.ascii	"_ZN7streams8Envelope8set_timeEtt\000"
 3843      73747265 
 3843      616D7338 
 3843      456E7665 
 3843      6C6F7065 
 3844              	.LASF195:
 3845 051c 6E6F7468 		.ascii	"nothrow_t\000"
 3845      726F775F 
 3845      7400
 3846              	.LASF31:
 3847 0526 70686173 		.ascii	"phase_\000"
 3847      655F00
 3848              	.LASF135:
 3849 052d 5F5F6D61 		.ascii	"__max\000"
 3849      7800
 3850              	.LASF81:
ARM GAS  /tmp/ccuLV1lx.s 			page 72


 3851 0533 5741565F 		.ascii	"WAV_DB\000"
 3851      444200
 3852              	.LASF171:
 3853 053a 70686173 		.ascii	"phase\000"
 3853      6500
 3854              	.LASF128:
 3855 0540 5F466F72 		.ascii	"_ForwardIterator\000"
 3855      77617264 
 3855      49746572 
 3855      61746F72 
 3855      00
 3856              	.LASF44:
 3857 0551 67617465 		.ascii	"gate_level_\000"
 3857      5F6C6576 
 3857      656C5F00 
 3858              	.LASF175:
 3859 055d 5F5F7661 		.ascii	"__value\000"
 3859      6C756500 
 3860              	.LASF127:
 3861 0565 5F5F6669 		.ascii	"__fill_a<streams::EnvelopeShape*, streams::Envelope"
 3861      6C6C5F61 
 3861      3C737472 
 3861      65616D73 
 3861      3A3A456E 
 3862 0598 53686170 		.ascii	"Shape>\000"
 3862      653E00
 3863              	.LASF34:
 3864 059f 73757374 		.ascii	"sustain_point_\000"
 3864      61696E5F 
 3864      706F696E 
 3864      745F00
 3865              	.LASF177:
 3866 05ae 61747461 		.ascii	"attack\000"
 3866      636B00
 3867              	.LASF19:
 3868 05b5 73746D6C 		.ascii	"stmlib\000"
 3868      696200
 3869              	.LASF143:
 3870 05bc 63686172 		.ascii	"char\000"
 3870      00
 3871              	.LASF51:
 3872 05c1 436F6E66 		.ascii	"Configure\000"
 3872      69677572 
 3872      6500
 3873              	.LASF146:
 3874 05cb 35646976 		.ascii	"5div_t\000"
 3874      5F7400
 3875              	.LASF104:
 3876 05d2 4C55545F 		.ascii	"LUT_LP_COEFFICIENTS_SIZE\000"
 3876      4C505F43 
 3876      4F454646 
 3876      49434945 
 3876      4E54535F 
 3877              	.LASF120:
 3878 05eb 70747264 		.ascii	"ptrdiff_t\000"
 3878      6966665F 
 3878      7400
ARM GAS  /tmp/ccuLV1lx.s 			page 73


 3879              	.LASF170:
 3880 05f5 7461626C 		.ascii	"table\000"
 3880      6500
 3881              	.LASF76:
 3882 05fb 5F5A4E37 		.ascii	"_ZN7streams18lut_env_incrementsE\000"
 3882      73747265 
 3882      616D7331 
 3882      386C7574 
 3882      5F656E76 
 3883              	.LASF32:
 3884 061c 70686173 		.ascii	"phase_increment_\000"
 3884      655F696E 
 3884      6372656D 
 3884      656E745F 
 3884      00
 3885              	.LASF53:
 3886 062d 7365745F 		.ascii	"set_time\000"
 3886      74696D65 
 3886      00
 3887              	.LASF144:
 3888 0636 71756F74 		.ascii	"quot\000"
 3888      00
 3889              	.LASF181:
 3890 063b 6761696E 		.ascii	"gain\000"
 3890      00
 3891              	.LASF28:
 3892 0640 7365676D 		.ascii	"segment_\000"
 3892      656E745F 
 3892      00
 3893              	.LASF109:
 3894 0649 4C55545F 		.ascii	"LUT_LORENZ_RATE\000"
 3894      4C4F5245 
 3894      4E5A5F52 
 3894      41544500 
 3895              	.LASF10:
 3896 0659 6C6F6E67 		.ascii	"long long int\000"
 3896      206C6F6E 
 3896      6720696E 
 3896      7400
 3897              	.LASF40:
 3898 0667 64656361 		.ascii	"decay_\000"
 3898      795F00
 3899              	.LASF193:
 3900 066e 456E7665 		.ascii	"EnvelopeShape\000"
 3900      6C6F7065 
 3900      53686170 
 3900      6500
 3901              	.LASF21:
 3902 067c 454E565F 		.ascii	"ENV_SHAPE_LINEAR\000"
 3902      53484150 
 3902      455F4C49 
 3902      4E454152 
 3902      00
 3903              	.LASF23:
 3904 068d 454E565F 		.ascii	"ENV_SHAPE_QUARTIC\000"
 3904      53484150 
 3904      455F5155 
ARM GAS  /tmp/ccuLV1lx.s 			page 74


 3904      41525449 
 3904      4300
 3905              	.LASF22:
 3906 069f 454E565F 		.ascii	"ENV_SHAPE_EXPONENTIAL\000"
 3906      53484150 
 3906      455F4558 
 3906      504F4E45 
 3906      4E544941 
 3907              	.LASF3:
 3908 06b5 5F5F696E 		.ascii	"__int16_t\000"
 3908      7431365F 
 3908      7400
 3909              	.LASF71:
 3910 06bf 7365745F 		.ascii	"set_hard_reset\000"
 3910      68617264 
 3910      5F726573 
 3910      657400
 3911              	.LASF156:
 3912 06ce 6C646976 		.ascii	"ldiv\000"
 3912      00
 3913              	.LASF38:
 3914 06d3 66726571 		.ascii	"frequency_offset_\000"
 3914      75656E63 
 3914      795F6F66 
 3914      66736574 
 3914      5F00
 3915              	.LASF116:
 3916 06e5 6B536368 		.ascii	"kSchmittTriggerThreshold\000"
 3916      6D697474 
 3916      54726967 
 3916      67657254 
 3916      68726573 
 3917              	.LASF121:
 3918 06fe 69746572 		.ascii	"iterator_type\000"
 3918      61746F72 
 3918      5F747970 
 3918      6500
 3919              	.LASF123:
 3920 070c 6F706572 		.ascii	"operator=\000"
 3920      61746F72 
 3920      3D00
 3921              	.LASF30:
 3922 0716 76616C75 		.ascii	"value_\000"
 3922      655F00
 3923              	.LASF36:
 3924 071d 74617267 		.ascii	"target_frequency_offset_\000"
 3924      65745F66 
 3924      72657175 
 3924      656E6379 
 3924      5F6F6666 
 3925              	.LASF46:
 3926 0736 7E456E76 		.ascii	"~Envelope\000"
 3926      656C6F70 
 3926      6500
 3927              	.LASF136:
 3928 0740 5F5F6973 		.ascii	"__is_signed\000"
 3928      5F736967 
ARM GAS  /tmp/ccuLV1lx.s 			page 75


 3928      6E656400 
 3929              	.LASF138:
 3930 074c 5F56616C 		.ascii	"_Value\000"
 3930      756500
 3931              	.LASF183:
 3932 0753 74726967 		.ascii	"trigger\000"
 3932      67657200 
 3933              	.LASF37:
 3934 075b 66726571 		.ascii	"frequency_amount_\000"
 3934      75656E63 
 3934      795F616D 
 3934      6F756E74 
 3934      5F00
 3935              	.LASF185:
 3936 076d 646F6E65 		.ascii	"done\000"
 3936      00
 3937              	.LASF84:
 3938 0772 4C55545F 		.ascii	"LUT_ENV_LINEAR_SIZE\000"
 3938      454E565F 
 3938      4C494E45 
 3938      41525F53 
 3938      495A4500 
 3939              	.LASF201:
 3940 0786 5F5A4E39 		.ascii	"_ZN9__gnu_cxx24__numeric_traits_integerIiE5__maxE\000"
 3940      5F5F676E 
 3940      755F6378 
 3940      7832345F 
 3940      5F6E756D 
 3941              	.LASF131:
 3942 07b8 5F5A5374 		.ascii	"_ZSt7nothrow\000"
 3942      376E6F74 
 3942      68726F77 
 3942      00
 3943              	.LASF35:
 3944 07c5 74617267 		.ascii	"target_frequency_amount_\000"
 3944      65745F66 
 3944      72657175 
 3944      656E6379 
 3944      5F616D6F 
 3945              	.LASF139:
 3946 07de 6C6F6E67 		.ascii	"long double\000"
 3946      20646F75 
 3946      626C6500 
 3947              	.LASF14:
 3948 07ea 75696E74 		.ascii	"uint16_t\000"
 3948      31365F74 
 3948      00
 3949              	.LASF101:
 3950 07f3 4C55545F 		.ascii	"LUT_ENV_INCREMENTS\000"
 3950      454E565F 
 3950      494E4352 
 3950      454D454E 
 3950      545300
 3951              	.LASF176:
 3952 0806 74686973 		.ascii	"this\000"
 3952      00
 3953              	.LASF79:
ARM GAS  /tmp/ccuLV1lx.s 			page 76


 3954 080b 5741565F 		.ascii	"WAV_GOMPERTZ\000"
 3954      474F4D50 
 3954      4552545A 
 3954      00
 3955              	.LASF56:
 3956 0818 5F5A4E37 		.ascii	"_ZN7streams8Envelope9set_levelEts\000"
 3956      73747265 
 3956      616D7338 
 3956      456E7665 
 3956      6C6F7065 
 3957              	.LASF113:
 3958 083a 6B41626F 		.ascii	"kAboveUnityGain\000"
 3958      7665556E 
 3958      69747947 
 3958      61696E00 
 3959              	.LASF102:
 3960 084a 4C55545F 		.ascii	"LUT_ENV_INCREMENTS_SIZE\000"
 3960      454E565F 
 3960      494E4352 
 3960      454D454E 
 3960      54535F53 
 3961              	.LASF78:
 3962 0862 5354525F 		.ascii	"STR_DUMMY\000"
 3962      44554D4D 
 3962      5900
 3963              	.LASF2:
 3964 086c 73686F72 		.ascii	"short int\000"
 3964      7420696E 
 3964      7400
 3965              	.LASF67:
 3966 0876 7365745F 		.ascii	"set_adsar\000"
 3966      61647361 
 3966      7200
 3967              	.LASF7:
 3968 0880 6C6F6E67 		.ascii	"long int\000"
 3968      20696E74 
 3968      00
 3969              	.LASF114:
 3970 0889 6B4D6178 		.ascii	"kMaxLinearGain\000"
 3970      4C696E65 
 3970      61724761 
 3970      696E00
 3971              	.LASF129:
 3972 0898 66696C6C 		.ascii	"fill<streams::EnvelopeShape*, streams::EnvelopeShap"
 3972      3C737472 
 3972      65616D73 
 3972      3A3A456E 
 3972      76656C6F 
 3973 08cb 653E00   		.ascii	"e>\000"
 3974              	.LASF150:
 3975 08ce 61746578 		.ascii	"atexit\000"
 3975      697400
 3976              	.LASF42:
 3977 08d5 68617264 		.ascii	"hard_reset_\000"
 3977      5F726573 
 3977      65745F00 
 3978              	.LASF199:
ARM GAS  /tmp/ccuLV1lx.s 			page 77


 3979 08e1 5F5F6E75 		.ascii	"__numeric_traits_integer<int>\000"
 3979      6D657269 
 3979      635F7472 
 3979      61697473 
 3979      5F696E74 
 3980              	.LASF57:
 3981 08ff 7365745F 		.ascii	"set_num_segments\000"
 3981      6E756D5F 
 3981      7365676D 
 3981      656E7473 
 3981      00
 3982              	.LASF43:
 3983 0910 72617465 		.ascii	"rate_modulation_\000"
 3983      5F6D6F64 
 3983      756C6174 
 3983      696F6E5F 
 3983      00
 3984              	.LASF69:
 3985 0921 7365745F 		.ascii	"set_adar\000"
 3985      61646172 
 3985      00
 3986              	.LASF117:
 3987 092a 626F6F6C 		.ascii	"bool\000"
 3987      00
 3988              	.LASF124:
 3989 092f 5F5F6E69 		.ascii	"__niter_base<streams::EnvelopeShape*>\000"
 3989      7465725F 
 3989      62617365 
 3989      3C737472 
 3989      65616D73 
 3990              	.LASF24:
 3991 0955 67617465 		.ascii	"gate_\000"
 3991      5F00
 3992              	.LASF39:
 3993 095b 61747461 		.ascii	"attack_\000"
 3993      636B5F00 
 3994              	.LASF18:
 3995 0963 73697A65 		.ascii	"sizetype\000"
 3995      74797065 
 3995      00
 3996              	.LASF165:
 3997 096c 73747274 		.ascii	"strtoul\000"
 3997      6F756C00 
 3998              	.LASF9:
 3999 0974 6C6F6E67 		.ascii	"long unsigned int\000"
 3999      20756E73 
 3999      69676E65 
 3999      6420696E 
 3999      7400
 4000              	.LASF196:
 4001 0986 5F497465 		.ascii	"_Iter_base<streams::EnvelopeShape*, false>\000"
 4001      725F6261 
 4001      73653C73 
 4001      74726561 
 4001      6D733A3A 
 4002              	.LASF97:
 4003 09b1 4C55545F 		.ascii	"LUT_COMPRESSOR_RATIO\000"
ARM GAS  /tmp/ccuLV1lx.s 			page 78


 4003      434F4D50 
 4003      52455353 
 4003      4F525F52 
 4003      4154494F 
 4004              	.LASF15:
 4005 09c6 696E7433 		.ascii	"int32_t\000"
 4005      325F7400 
 4006              	.LASF100:
 4007 09ce 4C55545F 		.ascii	"LUT_SOFT_KNEE_SIZE\000"
 4007      534F4654 
 4007      5F4B4E45 
 4007      455F5349 
 4007      5A4500
 4008              	.LASF111:
 4009 09e1 6B446566 		.ascii	"kDefaultOffset\000"
 4009      61756C74 
 4009      4F666673 
 4009      657400
 4010              	.LASF145:
 4011 09f0 6469765F 		.ascii	"div_t\000"
 4011      7400
 4012              	.LASF1:
 4013 09f6 756E7369 		.ascii	"unsigned char\000"
 4013      676E6564 
 4013      20636861 
 4013      7200
 4014              	.LASF118:
 4015 0a04 696D706C 		.ascii	"impl\000"
 4015      00
 4016              	.LASF8:
 4017 0a09 5F5F7569 		.ascii	"__uint32_t\000"
 4017      6E743332 
 4017      5F7400
 4018              	.LASF173:
 4019 0a14 5F5F6669 		.ascii	"__first\000"
 4019      72737400 
 4020              	.LASF45:
 4021 0a1c 456E7665 		.ascii	"Envelope\000"
 4021      6C6F7065 
 4021      00
 4022              	.LASF110:
 4023 0a25 4C55545F 		.ascii	"LUT_LORENZ_RATE_SIZE\000"
 4023      4C4F5245 
 4023      4E5A5F52 
 4023      4154455F 
 4023      53495A45 
 4024              	.LASF77:
 4025 0a3a 6B4D6178 		.ascii	"kMaxNumSegments\000"
 4025      4E756D53 
 4025      65676D65 
 4025      6E747300 
 4026              	.LASF163:
 4027 0a4a 73747274 		.ascii	"strtod\000"
 4027      6F6400
 4028              	.LASF93:
 4029 0a51 4C55545F 		.ascii	"LUT_SVF_DAMP\000"
 4029      5356465F 
ARM GAS  /tmp/ccuLV1lx.s 			page 79


 4029      44414D50 
 4029      00
 4030              	.LASF99:
 4031 0a5e 4C55545F 		.ascii	"LUT_SOFT_KNEE\000"
 4031      534F4654 
 4031      5F4B4E45 
 4031      4500
 4032              	.LASF167:
 4033 0a6c 77637374 		.ascii	"wcstombs\000"
 4033      6F6D6273 
 4033      00
 4034              	.LASF164:
 4035 0a75 73747274 		.ascii	"strtol\000"
 4035      6F6C00
 4036              	.LASF197:
 4037 0a7c 5F5A4E53 		.ascii	"_ZNSt10_Iter_baseIPN7streams13EnvelopeShapeELb0EE7_"
 4037      7431305F 
 4037      49746572 
 4037      5F626173 
 4037      6549504E 
 4038 0aaf 535F6261 		.ascii	"S_baseES2_\000"
 4038      73654553 
 4038      325F00
 4039              	.LASF182:
 4040 0aba 66726571 		.ascii	"frequency\000"
 4040      75656E63 
 4040      7900
 4041              	.LASF149:
 4042 0ac4 5F5F636F 		.ascii	"__compar_fn_t\000"
 4042      6D706172 
 4042      5F666E5F 
 4042      7400
 4043              	.LASF108:
 4044 0ad2 4C55545F 		.ascii	"LUT_LOG2_SIZE\000"
 4044      4C4F4732 
 4044      5F53495A 
 4044      4500
 4045              	.LASF147:
 4046 0ae0 366C6469 		.ascii	"6ldiv_t\000"
 4046      765F7400 
 4047              	.LASF134:
 4048 0ae8 5F5F6D69 		.ascii	"__min\000"
 4048      6E00
 4049              	.LASF85:
 4050 0aee 4C55545F 		.ascii	"LUT_ENV_EXPO\000"
 4050      454E565F 
 4050      4558504F 
 4050      00
 4051              	.LASF191:
 4052 0afb 2E2F6D75 		.ascii	"./mutable_instruments/streams/envelope.cpp\000"
 4052      7461626C 
 4052      655F696E 
 4052      73747275 
 4052      6D656E74 
 4053              	.LASF0:
 4054 0b26 7369676E 		.ascii	"signed char\000"
 4054      65642063 
ARM GAS  /tmp/ccuLV1lx.s 			page 80


 4054      68617200 
 4055              	.LASF192:
 4056 0b32 2F686F6D 		.ascii	"/home/sbcu/Dropbox/pcb-layouts/axo-on-discovery-boa"
 4056      652F7362 
 4056      63752F44 
 4056      726F7062 
 4056      6F782F70 
 4057 0b65 72642F61 		.ascii	"rd/axoloti/firmware\000"
 4057      786F6C6F 
 4057      74692F66 
 4057      69726D77 
 4057      61726500 
 4058              	.LASF5:
 4059 0b79 73686F72 		.ascii	"short unsigned int\000"
 4059      7420756E 
 4059      7369676E 
 4059      65642069 
 4059      6E7400
 4060              	.LASF137:
 4061 0b8c 5F5F6469 		.ascii	"__digits\000"
 4061      67697473 
 4061      00
 4062              	.LASF90:
 4063 0b95 4C55545F 		.ascii	"LUT_SQUARE_ROOT_SIZE\000"
 4063      53515541 
 4063      52455F52 
 4063      4F4F545F 
 4063      53495A45 
 4064              	.LASF198:
 4065 0baa 5F486173 		.ascii	"_HasBase\000"
 4065      42617365 
 4065      00
 4066              	.LASF151:
 4067 0bb3 61746F66 		.ascii	"atof\000"
 4067      00
 4068              	.LASF152:
 4069 0bb8 61746F69 		.ascii	"atoi\000"
 4069      00
 4070              	.LASF153:
 4071 0bbd 61746F6C 		.ascii	"atol\000"
 4071      00
 4072              	.LASF168:
 4073 0bc2 7763746F 		.ascii	"wctomb\000"
 4073      6D6200
 4074              	.LASF172:
 4075 0bc9 5F5F6974 		.ascii	"__it\000"
 4075      00
 4076              	.LASF140:
 4077 0bce 646F7562 		.ascii	"double\000"
 4077      6C6500
 4078              	.LASF26:
 4079 0bd5 74696D65 		.ascii	"time_\000"
 4079      5F00
 4080              	.LASF82:
 4081 0bdb 5741565F 		.ascii	"WAV_DB_SIZE\000"
 4081      44425F53 
 4081      495A4500 
ARM GAS  /tmp/ccuLV1lx.s 			page 81


 4082              	.LASF73:
 4083 0be7 6C6F6F6B 		.ascii	"lookup_table_table\000"
 4083      75705F74 
 4083      61626C65 
 4083      5F746162 
 4083      6C6500
 4084              	.LASF58:
 4085 0bfa 5F5A4E37 		.ascii	"_ZN7streams8Envelope16set_num_segmentsEt\000"
 4085      73747265 
 4085      616D7338 
 4085      456E7665 
 4085      6C6F7065 
 4086              	.LASF89:
 4087 0c23 4C55545F 		.ascii	"LUT_SQUARE_ROOT\000"
 4087      53515541 
 4087      52455F52 
 4087      4F4F5400 
 4088              	.LASF133:
 4089 0c33 5F5F6F70 		.ascii	"__ops\000"
 4089      7300
 4090              	.LASF25:
 4091 0c39 6C657665 		.ascii	"level_\000"
 4091      6C5F00
 4092              	.LASF27:
 4093 0c40 73686170 		.ascii	"shape_\000"
 4093      655F00
 4094              	.LASF62:
 4095 0c47 5F5A4E37 		.ascii	"_ZN7streams8Envelope6set_adEtt\000"
 4095      73747265 
 4095      616D7338 
 4095      456E7665 
 4095      6C6F7065 
 4096              	.LASF112:
 4097 0c66 6B556E69 		.ascii	"kUnityGain\000"
 4097      74794761 
 4097      696E00
 4098              	.LASF186:
 4099 0c71 73757374 		.ascii	"sustained\000"
 4099      61696E65 
 4099      6400
 4100              	.LASF61:
 4101 0c7b 7365745F 		.ascii	"set_ad\000"
 4101      616400
 4102              	.LASF96:
 4103 0c82 4C55545F 		.ascii	"LUT_2164_GAIN_SIZE\000"
 4103      32313634 
 4103      5F474149 
 4103      4E5F5349 
 4103      5A4500
 4104              	.LASF161:
 4105 0c95 71736F72 		.ascii	"qsort\000"
 4105      7400
 4106              	.LASF70:
 4107 0c9b 5F5A4E37 		.ascii	"_ZN7streams8Envelope8set_adarEtttt\000"
 4107      73747265 
 4107      616D7338 
 4107      456E7665 
ARM GAS  /tmp/ccuLV1lx.s 			page 82


 4107      6C6F7065 
 4108              	.LASF184:
 4109 0cbe 72656C65 		.ascii	"release\000"
 4109      61736500 
 4110              		.ident	"GCC: (GNU Tools for ARM Embedded Processors) 4.9.3 20150529 (release) [ARM/embedded-4_9-br
ARM GAS  /tmp/ccuLV1lx.s 			page 83


DEFINED SYMBOLS
                            *ABS*:00000000 envelope.cpp
     /tmp/ccuLV1lx.s:20     .text:00000000 $t
     /tmp/ccuLV1lx.s:26     .text:00000000 _ZN7streams8Envelope4InitEv
                       .ARM.exidx:00000000 $d
     /tmp/ccuLV1lx.s:144    .text:00000060 _ZN7streams8Envelope7ProcessEssPtS1_
     /tmp/ccuLV1lx.s:480    .text:00000240 $d
                     .debug_frame:00000010 $d

UNDEFINED SYMBOLS
_ZN7streams18lut_env_incrementsE
_ZN7streams18lookup_table_tableE
