ARM GAS  /tmp/ccXd7oms.s 			page 1


   1              		.syntax unified
   2              		.cpu cortex-m4
   3              		.eabi_attribute 27, 1
   4              		.eabi_attribute 28, 1
   5              		.fpu fpv4-sp-d16
   6              		.eabi_attribute 20, 1
   7              		.eabi_attribute 21, 1
   8              		.eabi_attribute 23, 3
   9              		.eabi_attribute 24, 1
  10              		.eabi_attribute 25, 1
  11              		.eabi_attribute 26, 1
  12              		.eabi_attribute 30, 2
  13              		.eabi_attribute 34, 1
  14              		.eabi_attribute 18, 4
  15              		.thumb
  16              		.file	"exceptions.c"
  17              		.text
  18              	.Ltext0:
  19              		.cfi_sections	.debug_frame
  20              		.align	2
  21              		.p2align 4,,15
  22              		.thumb
  23              		.thumb_func
  24              		.type	NVIC_SystemReset, %function
  25              	NVIC_SystemReset:
  26              	.LFB124:
  27              		.file 1 "/home/sbcu/Dropbox/pcb-layouts/axo-on-discovery-board/axoloti/platform_linux/../CMSIS//In
  28              		.loc 1 1911 0
  29              		.cfi_startproc
  30              		@ Volatile: function does not return.
  31              		@ args = 0, pretend = 0, frame = 0
  32              		@ frame_needed = 0, uses_anonymous_args = 0
  33              		@ link register save eliminated.
  34              	.LBB19:
  35              	.LBB20:
  36              		.file 2 "/home/sbcu/Dropbox/pcb-layouts/axo-on-discovery-board/axoloti/platform_linux/../CMSIS//In
  37              		.loc 2 750 0
  38              	@ 750 "/home/sbcu/Dropbox/pcb-layouts/axo-on-discovery-board/axoloti/platform_linux/../CMSIS//Inclu
  39 0000 BFF34F8F 		dsb 0xF
  40              	@ 0 "" 2
  41              		.thumb
  42              	.LBE20:
  43              	.LBE19:
  44              		.loc 1 1915 0
  45 0004 0549     		ldr	r1, .L4
  46              		.loc 1 1914 0
  47 0006 064B     		ldr	r3, .L4+4
  48              		.loc 1 1915 0
  49 0008 CA68     		ldr	r2, [r1, #12]
  50 000a 02F4E062 		and	r2, r2, #1792
  51              		.loc 1 1914 0
  52 000e 1343     		orrs	r3, r3, r2
  53 0010 CB60     		str	r3, [r1, #12]
  54              	.LBB21:
  55              	.LBB22:
  56              		.loc 2 750 0
  57              	@ 750 "/home/sbcu/Dropbox/pcb-layouts/axo-on-discovery-board/axoloti/platform_linux/../CMSIS//Inclu
ARM GAS  /tmp/ccXd7oms.s 			page 2


  58 0012 BFF34F8F 		dsb 0xF
  59              	@ 0 "" 2
  60              		.thumb
  61              	.L2:
  62              	.LBE22:
  63              	.LBE21:
  64              		.loc 1 1921 0 discriminator 1
  65              	@ 1921 "/home/sbcu/Dropbox/pcb-layouts/axo-on-discovery-board/axoloti/platform_linux/../CMSIS//Incl
  66 0016 00BF     		nop
  67              	@ 0 "" 2
  68              		.loc 1 1922 0 discriminator 1
  69              		.thumb
  70 0018 FDE7     		b	.L2
  71              	.L5:
  72 001a 00BF     		.align	2
  73              	.L4:
  74 001c 00ED00E0 		.word	-536810240
  75 0020 0400FA05 		.word	100270084
  76              		.cfi_endproc
  77              	.LFE124:
  78              		.size	NVIC_SystemReset, .-NVIC_SystemReset
  79              		.align	2
  80 0024 AFF30080 		.p2align 4,,15
  80      AFF30080 
  80      AFF30080 
  81              		.global	report_exception
  82              		.thumb
  83              		.thumb_func
  84              		.type	report_exception, %function
  85              	report_exception:
  86              	.LFB131:
  87              		.file 3 "exceptions.c"
  88              		.loc 3 29 0
  89              		.cfi_startproc
  90              		@ Naked Function: prologue and epilogue provided by programmer.
  91              		@ args = 0, pretend = 0, frame = 0
  92              		@ frame_needed = 0, uses_anonymous_args = 0
  93              		.loc 3 31 0
  94              	@ 31 "exceptions.c" 1
  95 0030 1EF0040F 		 tst lr, #4                                                
  96 0034 0CBF     	 ite eq                                                    
  97 0036 EFF30880 	 mrseq r0, msp                                             
  98 003a EFF30980 	 mrsne r0, psp                                             
  99 003e 8169     	 ldr r1, [r0, #24]                                         
 100 0040 004A     	 ldr r2, handler2_address_const                            
 101 0042 1047     	 bx r2                                                     
 102 0044 00000000 	 handler2_address_const: .word prvGetRegistersFromStack    
 103              	
 104              	@ 0 "" 2
 105              		.loc 3 42 0
 106              		.thumb
 107              		.cfi_endproc
 108              	.LFE131:
 109              		.size	report_exception, .-report_exception
 110              		.global	HardFaultVector
 111              		.thumb_set HardFaultVector,report_exception
 112              		.global	MemManageVector
ARM GAS  /tmp/ccXd7oms.s 			page 3


 113              		.thumb_set MemManageVector,report_exception
 114              		.global	BusFaultVector
 115              		.thumb_set BusFaultVector,report_exception
 116              		.global	UsageFaultVector
 117              		.thumb_set UsageFaultVector,report_exception
 118              		.align	2
 119 0048 AFF30080 		.p2align 4,,15
 119      AFF30080 
 120              		.global	BootLoaderInit
 121              		.thumb
 122              		.thumb_func
 123              		.type	BootLoaderInit, %function
 124              	BootLoaderInit:
 125              	.LFB132:
 126              		.loc 3 83 0
 127              		.cfi_startproc
 128              		@ args = 0, pretend = 0, frame = 0
 129              		@ frame_needed = 0, uses_anonymous_args = 0
 130              		@ link register save eliminated.
 131              	.LVL0:
 132              		.loc 3 86 0
 133 0050 0023     		movs	r3, #0
 134              	@ 86 "exceptions.c" 1
 135 0052 83F31488 		msr     CONTROL, r3
 136              	@ 0 "" 2
 137              		.loc 3 87 0
 138              	@ 87 "exceptions.c" 1
 139 0056 BFF36F8F 		isb
 140              	@ 0 "" 2
 141              	.LVL1:
 142              		.loc 3 89 0
 143              	@ 89 "exceptions.c" 1
 144 005a 62B6     		cpsie   i
 145              	@ 0 "" 2
 146              		.loc 3 90 0
 147              	@ 90 "exceptions.c" 1
 148 005c 83F30988 		msr     PSP, r3
 149              	@ 0 "" 2
 150              		.loc 3 91 0
 151              		.thumb
 152 0060 0C4A     		ldr	r2, .L8
 153 0062 5360     		str	r3, [r2, #4]
 154              		.loc 3 92 0
 155              	@ 92 "exceptions.c" 1
 156 0064 DFF81006 		LDR     R0, =0x40023844 ;
 157              	@ 0 "" 2
 158              		.loc 3 94 0
 159              	@ 94 "exceptions.c" 1
 160 0068 DFF81016 		LDR     R1, =0x4000 ;
 161              	@ 0 "" 2
 162              		.loc 3 96 0
 163              	@ 96 "exceptions.c" 1
 164 006c 0160     		STR     R1, [R0, #0]    ;
 165              	@ 0 "" 2
 166              		.loc 3 97 0
 167              	@ 97 "exceptions.c" 1
 168 006e 00BF     		NOP
ARM GAS  /tmp/ccXd7oms.s 			page 4


 169              	@ 0 "" 2
 170              		.loc 3 98 0
 171              	@ 98 "exceptions.c" 1
 172 0070 00BF     		NOP
 173              	@ 0 "" 2
 174              		.loc 3 99 0
 175              	@ 99 "exceptions.c" 1
 176 0072 00BF     		NOP
 177              	@ 0 "" 2
 178              		.loc 3 100 0
 179              	@ 100 "exceptions.c" 1
 180 0074 DFF80806 		LDR     R0, =0x40013800 ;
 181              	@ 0 "" 2
 182              		.loc 3 102 0
 183              	@ 102 "exceptions.c" 1
 184 0078 DFF80816 		LDR     R1, =0x1 ;
 185              	@ 0 "" 2
 186              		.loc 3 104 0
 187              	@ 104 "exceptions.c" 1
 188 007c 0160     		STR     R1, [R0, #0]    ;
 189              	@ 0 "" 2
 190              		.loc 3 106 0
 191              	@ 106 "exceptions.c" 1
 192 007e 00BF     		NOP
 193              	@ 0 "" 2
 194              		.loc 3 107 0
 195              	@ 107 "exceptions.c" 1
 196 0080 00BF     		NOP
 197              	@ 0 "" 2
 198              		.loc 3 108 0
 199              	@ 108 "exceptions.c" 1
 200 0082 00BF     		NOP
 201              	@ 0 "" 2
 202              		.loc 3 109 0
 203              	@ 109 "exceptions.c" 1
 204 0084 0021     		MOVS    R1, #0          ;
 205              	@ 0 "" 2
 206              		.loc 3 111 0
 207              	@ 111 "exceptions.c" 1
 208 0086 0868     		LDR     R0, [R1, #0]    ;
 209              	@ 0 "" 2
 210              		.loc 3 113 0
 211              	@ 113 "exceptions.c" 1
 212 0088 8546     		MOV     SP, R0
 213              	@ 0 "" 2
 214              		.loc 3 114 0
 215              	@ 114 "exceptions.c" 1
 216 008a 4868     		LDR     R0, [R1, #4]    ;
 217              	@ 0 "" 2
 218              		.loc 3 116 0
 219              	@ 116 "exceptions.c" 1
 220 008c 00BF     		NOP
 221              	@ 0 "" 2
 222              		.loc 3 117 0
 223              	@ 117 "exceptions.c" 1
 224 008e 0047     		BX      R0
 225              	@ 0 "" 2
ARM GAS  /tmp/ccXd7oms.s 			page 5


 226              		.thumb
 227 0090 7047     		bx	lr
 228              	.L9:
 229 0092 00BF     		.align	2
 230              	.L8:
 231 0094 30EF00E0 		.word	-536809680
 232              		.cfi_endproc
 233              	.LFE132:
 234              		.size	BootLoaderInit, .-BootLoaderInit
 235              		.align	2
 236 0098 AFF30080 		.p2align 4,,15
 236      AFF30080 
 237              		.global	exception_check_DFU
 238              		.thumb
 239              		.thumb_func
 240              		.type	exception_check_DFU, %function
 241              	exception_check_DFU:
 242              	.LFB133:
 243              		.loc 3 124 0
 244              		.cfi_startproc
 245              		@ args = 0, pretend = 0, frame = 0
 246              		@ frame_needed = 0, uses_anonymous_args = 0
 247              		@ link register save eliminated.
 248              		.loc 3 125 0
 249 00a0 0F4B     		ldr	r3, .L16
 250              		.loc 3 126 0
 251 00a2 1049     		ldr	r1, .L16+4
 252              		.loc 3 125 0
 253 00a4 1A6C     		ldr	r2, [r3, #64]
 254 00a6 42F08052 		orr	r2, r2, #268435456
 255 00aa 1A64     		str	r2, [r3, #64]
 256              		.loc 3 126 0
 257 00ac 0A68     		ldr	r2, [r1]
 258 00ae 42F48072 		orr	r2, r2, #256
 259 00b2 0A60     		str	r2, [r1]
 260              		.loc 3 127 0
 261 00b4 1A6B     		ldr	r2, [r3, #48]
 262 00b6 42F48022 		orr	r2, r2, #262144
 263 00ba 1A63     		str	r2, [r3, #48]
 264              		.loc 3 128 0
 265              	@ 128 "exceptions.c" 1
 266 00bc 00BF     		NOP
 267              	@ 0 "" 2
 268              		.loc 3 129 0
 269              	@ 129 "exceptions.c" 1
 270 00be 00BF     		NOP
 271              	@ 0 "" 2
 272              		.loc 3 130 0
 273              	@ 130 "exceptions.c" 1
 274 00c0 00BF     		NOP
 275              	@ 0 "" 2
 276              		.thumb
 277              	.LBB23:
 278              	.LBB24:
 279              		.loc 3 170 0
 280 00c2 03F50063 		add	r3, r3, #2048
 281 00c6 084A     		ldr	r2, .L16+8
ARM GAS  /tmp/ccXd7oms.s 			page 6


 282 00c8 1968     		ldr	r1, [r3]
 283 00ca 9142     		cmp	r1, r2
 284 00cc 00D0     		beq	.L15
 285              	.L10:
 286 00ce 7047     		bx	lr
 287              	.L15:
 288              	.LBE24:
 289              	.LBE23:
 290              		.loc 3 131 0
 291 00d0 1A79     		ldrb	r2, [r3, #4]	@ zero_extendqisi2
 292 00d2 042A     		cmp	r2, #4
 293 00d4 FBD1     		bne	.L10
 294              	.LBB25:
 295              	.LBB26:
 296              		.loc 3 177 0
 297 00d6 0022     		movs	r2, #0
 298 00d8 1A60     		str	r2, [r3]
 299              	.LBE26:
 300              	.LBE25:
 301              		.loc 3 133 0
 302 00da FFF7FEBF 		b	BootLoaderInit
 303              	.LVL2:
 304              	.L17:
 305 00de 00BF     		.align	2
 306              	.L16:
 307 00e0 00380240 		.word	1073887232
 308 00e4 00700040 		.word	1073770496
 309 00e8 122021E1 		.word	-517922798
 310              		.cfi_endproc
 311              	.LFE133:
 312              		.size	exception_check_DFU, .-exception_check_DFU
 313              		.align	2
 314 00ec AFF30080 		.p2align 4,,15
 315              		.global	exception_init
 316              		.thumb
 317              		.thumb_func
 318              		.type	exception_init, %function
 319              	exception_init:
 320              	.LFB134:
 321              		.loc 3 137 0
 322              		.cfi_startproc
 323              		@ args = 0, pretend = 0, frame = 0
 324              		@ frame_needed = 0, uses_anonymous_args = 0
 325 00f0 10B5     		push	{r4, lr}
 326              		.cfi_def_cfa_offset 8
 327              		.cfi_offset 4, -8
 328              		.cfi_offset 14, -4
 329              		.loc 3 138 0
 330 00f2 184C     		ldr	r4, .L34
 331 00f4 236B     		ldr	r3, [r4, #48]
 332 00f6 43F48023 		orr	r3, r3, #262144
 333 00fa 2363     		str	r3, [r4, #48]
 334              		.loc 3 139 0
 335 00fc 236C     		ldr	r3, [r4, #64]
 336 00fe 43F40063 		orr	r3, r3, #2048
 337 0102 2364     		str	r3, [r4, #64]
 338              		.loc 3 140 0
ARM GAS  /tmp/ccXd7oms.s 			page 7


 339 0104 0120     		movs	r0, #1
 340 0106 FFF7FEFF 		bl	chThdSleep
 341              	.LVL3:
 342              	.LBB27:
 343              	.LBB28:
 344              		.loc 3 170 0
 345 010a 134B     		ldr	r3, .L34+4
 346 010c 134A     		ldr	r2, .L34+8
 347 010e 1968     		ldr	r1, [r3]
 348 0110 9142     		cmp	r1, r2
 349 0112 1ED0     		beq	.L32
 350              	.LBE28:
 351              	.LBE27:
 352              		.loc 3 143 0
 353 0114 616F     		ldr	r1, [r4, #116]
 354 0116 4900     		lsls	r1, r1, #1
 355 0118 08D5     		bpl	.L33
 356              		.loc 3 146 0
 357 011a 0221     		movs	r1, #2
 358              		.loc 3 145 0
 359 011c 1A60     		str	r2, [r3]
 360              		.loc 3 146 0
 361 011e 1971     		strb	r1, [r3, #4]
 362              	.L21:
 363              		.loc 3 160 0
 364 0120 0C4A     		ldr	r2, .L34
 365 0122 536F     		ldr	r3, [r2, #116]
 366 0124 43F08073 		orr	r3, r3, #16777216
 367 0128 5367     		str	r3, [r2, #116]
 368 012a 10BD     		pop	{r4, pc}
 369              	.L33:
 370              		.loc 3 148 0
 371 012c 616F     		ldr	r1, [r4, #116]
 372 012e 8901     		lsls	r1, r1, #6
 373 0130 06D5     		bpl	.L22
 374              		.loc 3 148 0 is_stmt 0 discriminator 1
 375 0132 616F     		ldr	r1, [r4, #116]
 376 0134 0801     		lsls	r0, r1, #4
 377 0136 03D4     		bmi	.L22
 378              		.loc 3 150 0 is_stmt 1
 379 0138 0321     		movs	r1, #3
 380              		.loc 3 149 0
 381 013a 1A60     		str	r2, [r3]
 382              		.loc 3 150 0
 383 013c 1971     		strb	r1, [r3, #4]
 384 013e EFE7     		b	.L21
 385              	.L22:
 386              		.loc 3 153 0
 387 0140 054B     		ldr	r3, .L34+4
 388              		.loc 3 154 0
 389 0142 0022     		movs	r2, #0
 390              		.loc 3 153 0
 391 0144 FF21     		movs	r1, #255
 392 0146 1971     		strb	r1, [r3, #4]
 393              		.loc 3 154 0
 394 0148 DA61     		str	r2, [r3, #28]
 395              		.loc 3 155 0
ARM GAS  /tmp/ccXd7oms.s 			page 8


 396 014a 1A62     		str	r2, [r3, #32]
 397              		.loc 3 156 0
 398 014c 5A62     		str	r2, [r3, #36]
 399              		.loc 3 157 0
 400 014e 9A62     		str	r2, [r3, #40]
 401 0150 E6E7     		b	.L21
 402              	.L32:
 403 0152 10BD     		pop	{r4, pc}
 404              	.L35:
 405              		.align	2
 406              	.L34:
 407 0154 00380240 		.word	1073887232
 408 0158 00400240 		.word	1073889280
 409 015c 122021E1 		.word	-517922798
 410              		.cfi_endproc
 411              	.LFE134:
 412              		.size	exception_init, .-exception_init
 413              		.align	2
 414              		.p2align 4,,15
 415              		.global	exception_check
 416              		.thumb
 417              		.thumb_func
 418              		.type	exception_check, %function
 419              	exception_check:
 420              	.LFB135:
 421              		.loc 3 169 0
 422              		.cfi_startproc
 423              		@ args = 0, pretend = 0, frame = 0
 424              		@ frame_needed = 0, uses_anonymous_args = 0
 425              		@ link register save eliminated.
 426              		.loc 3 170 0
 427 0160 034A     		ldr	r2, .L37
 428 0162 044B     		ldr	r3, .L37+4
 429 0164 1068     		ldr	r0, [r2]
 430              		.loc 3 174 0
 431 0166 C01A     		subs	r0, r0, r3
 432 0168 B0FA80F0 		clz	r0, r0
 433 016c 4009     		lsrs	r0, r0, #5
 434 016e 7047     		bx	lr
 435              	.L38:
 436              		.align	2
 437              	.L37:
 438 0170 00400240 		.word	1073889280
 439 0174 122021E1 		.word	-517922798
 440              		.cfi_endproc
 441              	.LFE135:
 442              		.size	exception_check, .-exception_check
 443              		.align	2
 444 0178 AFF30080 		.p2align 4,,15
 444      AFF30080 
 445              		.global	exception_clear
 446              		.thumb
 447              		.thumb_func
 448              		.type	exception_clear, %function
 449              	exception_clear:
 450              	.LFB136:
 451              		.loc 3 176 0
ARM GAS  /tmp/ccXd7oms.s 			page 9


 452              		.cfi_startproc
 453              		@ args = 0, pretend = 0, frame = 0
 454              		@ frame_needed = 0, uses_anonymous_args = 0
 455              		@ link register save eliminated.
 456              		.loc 3 177 0
 457 0180 014B     		ldr	r3, .L40
 458 0182 0022     		movs	r2, #0
 459 0184 1A60     		str	r2, [r3]
 460 0186 7047     		bx	lr
 461              	.L41:
 462              		.align	2
 463              	.L40:
 464 0188 00400240 		.word	1073889280
 465              		.cfi_endproc
 466              	.LFE136:
 467              		.size	exception_clear, .-exception_clear
 468              		.align	2
 469 018c AFF30080 		.p2align 4,,15
 470              		.global	exception_initiate_dfu
 471              		.thumb
 472              		.thumb_func
 473              		.type	exception_initiate_dfu, %function
 474              	exception_initiate_dfu:
 475              	.LFB137:
 476              		.loc 3 184 0
 477              		.cfi_startproc
 478              		@ args = 0, pretend = 0, frame = 16
 479              		@ frame_needed = 0, uses_anonymous_args = 0
 480 0190 70B5     		push	{r4, r5, r6, lr}
 481              		.cfi_def_cfa_offset 16
 482              		.cfi_offset 4, -16
 483              		.cfi_offset 5, -12
 484              		.cfi_offset 6, -8
 485              		.cfi_offset 14, -4
 486              		.loc 3 185 0
 487 0192 224B     		ldr	r3, .L53
 488              		.loc 3 189 0
 489 0194 2248     		ldr	r0, .L53+4
 490              	.LBB29:
 491              		.loc 3 194 0
 492 0196 234D     		ldr	r5, .L53+8
 493              	.LBE29:
 494              		.loc 3 185 0
 495 0198 0121     		movs	r1, #1
 496              		.loc 3 186 0
 497 019a 0222     		movs	r2, #2
 498              		.loc 3 188 0
 499 019c 0424     		movs	r4, #4
 500              		.loc 3 187 0
 501 019e 0326     		movs	r6, #3
 502              		.loc 3 185 0
 503 01a0 9960     		str	r1, [r3, #8]
 504              		.loc 3 184 0
 505 01a2 84B0     		sub	sp, sp, #16
 506              		.cfi_def_cfa_offset 32
 507              		.loc 3 186 0
 508 01a4 DA60     		str	r2, [r3, #12]
ARM GAS  /tmp/ccXd7oms.s 			page 10


 509              		.loc 3 189 0
 510 01a6 4FF40061 		mov	r1, #2048
 511              		.loc 3 187 0
 512 01aa 1E61     		str	r6, [r3, #16]
 513              		.loc 3 189 0
 514 01ac 0022     		movs	r2, #0
 515              		.loc 3 188 0
 516 01ae 5C61     		str	r4, [r3, #20]
 517              		.loc 3 189 0
 518 01b0 FFF7FEFF 		bl	_pal_lld_setgroupmode
 519              	.LVL4:
 520              		.loc 3 190 0
 521 01b4 1A48     		ldr	r0, .L53+4
 522 01b6 4FF48051 		mov	r1, #4096
 523 01ba 0022     		movs	r2, #0
 524 01bc FFF7FEFF 		bl	_pal_lld_setgroupmode
 525              	.LVL5:
 526              		.loc 3 191 0
 527 01c0 1423     		movs	r3, #20
 528 01c2 0193     		str	r3, [sp, #4]
 529              	.LBB32:
 530              	.LBB30:
 531              		.loc 3 196 0
 532 01c4 4FF48074 		mov	r4, #256
 533              	.L43:
 534              	.LBE30:
 535              	.LBE32:
 536              		.loc 3 192 0
 537 01c8 019B     		ldr	r3, [sp, #4]
 538 01ca 5A1E     		subs	r2, r3, #1
 539 01cc 0192     		str	r2, [sp, #4]
 540 01ce EBB1     		cbz	r3, .L52
 541              	.L47:
 542              	.LBB33:
 543              		.loc 3 193 0
 544 01d0 4FF48053 		mov	r3, #4096
 545 01d4 0293     		str	r3, [sp, #8]
 546              		.loc 3 194 0
 547 01d6 6B69     		ldr	r3, [r5, #20]
 548 01d8 83F48053 		eor	r3, r3, #4096
 549 01dc 6B61     		str	r3, [r5, #20]
 550              		.loc 3 195 0
 551 01de 029B     		ldr	r3, [sp, #8]
 552 01e0 5A1E     		subs	r2, r3, #1
 553 01e2 0292     		str	r2, [sp, #8]
 554 01e4 002B     		cmp	r3, #0
 555 01e6 EFD0     		beq	.L43
 556              	.L48:
 557              	.LBB31:
 558              		.loc 3 196 0
 559 01e8 0394     		str	r4, [sp, #12]
 560              	.L45:
 561              		.loc 3 197 0 discriminator 1
 562 01ea 039B     		ldr	r3, [sp, #12]
 563 01ec 5A1E     		subs	r2, r3, #1
 564 01ee 0392     		str	r2, [sp, #12]
 565 01f0 002B     		cmp	r3, #0
ARM GAS  /tmp/ccXd7oms.s 			page 11


 566 01f2 FAD1     		bne	.L45
 567              		.loc 3 199 0
 568 01f4 FFF7FEFF 		bl	watchdog_feed
 569              	.LVL6:
 570              	.LBE31:
 571              		.loc 3 195 0
 572 01f8 029B     		ldr	r3, [sp, #8]
 573 01fa 5A1E     		subs	r2, r3, #1
 574 01fc 0292     		str	r2, [sp, #8]
 575 01fe 002B     		cmp	r3, #0
 576 0200 F2D1     		bne	.L48
 577              	.LBE33:
 578              		.loc 3 192 0
 579 0202 019B     		ldr	r3, [sp, #4]
 580 0204 5A1E     		subs	r2, r3, #1
 581 0206 0192     		str	r2, [sp, #4]
 582 0208 002B     		cmp	r3, #0
 583 020a E1D1     		bne	.L47
 584              	.L52:
 585              		.loc 3 202 0
 586 020c 034B     		ldr	r3, .L53
 587 020e 064A     		ldr	r2, .L53+12
 588 0210 1A60     		str	r2, [r3]
 589              		.loc 3 203 0
 590 0212 0422     		movs	r2, #4
 591 0214 1A71     		strb	r2, [r3, #4]
 592              		.loc 3 204 0
 593 0216 FFF7F3FE 		bl	NVIC_SystemReset
 594              	.LVL7:
 595              	.L54:
 596 021a 00BF     		.align	2
 597              	.L53:
 598 021c 00400240 		.word	1073889280
 599 0220 00000240 		.word	1073872896
 600 0224 000C0240 		.word	1073875968
 601 0228 122021E1 		.word	-517922798
 602              		.cfi_endproc
 603              	.LFE137:
 604              		.size	exception_initiate_dfu, .-exception_initiate_dfu
 605              		.align	2
 606 022c AFF30080 		.p2align 4,,15
 607              		.global	exception_checkandreport
 608              		.thumb
 609              		.thumb_func
 610              		.type	exception_checkandreport, %function
 611              	exception_checkandreport:
 612              	.LFB138:
 613              		.loc 3 230 0
 614              		.cfi_startproc
 615              		@ args = 0, pretend = 0, frame = 0
 616              		@ frame_needed = 0, uses_anonymous_args = 0
 617              	.LBB34:
 618              	.LBB35:
 619              		.loc 3 170 0
 620 0230 374B     		ldr	r3, .L88
 621 0232 384A     		ldr	r2, .L88+4
 622 0234 1968     		ldr	r1, [r3]
ARM GAS  /tmp/ccXd7oms.s 			page 12


 623 0236 9142     		cmp	r1, r2
 624 0238 00D0     		beq	.L79
 625 023a 7047     		bx	lr
 626              	.L79:
 627              	.LVL8:
 628              	.LBE35:
 629              	.LBE34:
 630              	.LBB36:
 631              		.loc 3 233 0
 632 023c 1A79     		ldrb	r2, [r3, #4]	@ zero_extendqisi2
 633              	.LBE36:
 634              		.loc 3 230 0
 635 023e 10B5     		push	{r4, lr}
 636              		.cfi_def_cfa_offset 8
 637              		.cfi_offset 4, -8
 638              		.cfi_offset 14, -4
 639              	.LBB39:
 640              		.loc 3 233 0
 641 0240 E2B1     		cbz	r2, .L80
 642              		.loc 3 237 0
 643 0242 1A79     		ldrb	r2, [r3, #4]	@ zero_extendqisi2
 644 0244 012A     		cmp	r2, #1
 645 0246 3DD0     		beq	.L81
 646              		.loc 3 241 0
 647 0248 1A79     		ldrb	r2, [r3, #4]	@ zero_extendqisi2
 648 024a 022A     		cmp	r2, #2
 649 024c 43D0     		beq	.L82
 650              		.loc 3 244 0
 651 024e 1A79     		ldrb	r2, [r3, #4]	@ zero_extendqisi2
 652 0250 032A     		cmp	r2, #3
 653 0252 4AD0     		beq	.L83
 654              		.loc 3 247 0
 655 0254 1A79     		ldrb	r2, [r3, #4]	@ zero_extendqisi2
 656 0256 052A     		cmp	r2, #5
 657 0258 4BD0     		beq	.L84
 658              		.loc 3 250 0
 659 025a 1A79     		ldrb	r2, [r3, #4]	@ zero_extendqisi2
 660 025c 062A     		cmp	r2, #6
 661 025e 51D0     		beq	.L85
 662              		.loc 3 253 0
 663 0260 1A79     		ldrb	r2, [r3, #4]	@ zero_extendqisi2
 664 0262 072A     		cmp	r2, #7
 665 0264 3CD0     		beq	.L86
 666              		.loc 3 256 0
 667 0266 1B79     		ldrb	r3, [r3, #4]	@ zero_extendqisi2
 668 0268 082B     		cmp	r3, #8
 669              		.loc 3 257 0
 670 026a 0CBF     		ite	eq
 671 026c 2A48     		ldreq	r0, .L88+8
 672              		.loc 3 261 0
 673 026e 2B48     		ldrne	r0, .L88+12
 674 0270 FFF7FEFF 		bl	LogTextMessage
 675              	.LVL9:
 676              	.L67:
 677              	.LBB37:
 678              	.LBB38:
 679              		.loc 3 177 0
ARM GAS  /tmp/ccXd7oms.s 			page 13


 680 0274 264B     		ldr	r3, .L88
 681 0276 0022     		movs	r2, #0
 682 0278 1A60     		str	r2, [r3]
 683 027a 10BD     		pop	{r4, pc}
 684              	.LVL10:
 685              	.L80:
 686              	.LBE38:
 687              	.LBE37:
 688              		.loc 3 234 0
 689 027c 2848     		ldr	r0, .L88+16
 690 027e FFF7FEFF 		bl	LogTextMessage
 691              	.LVL11:
 692              	.L58:
 693              		.loc 3 265 0
 694 0282 234C     		ldr	r4, .L88
 695 0284 2748     		ldr	r0, .L88+20
 696 0286 216A     		ldr	r1, [r4, #32]
 697 0288 FFF7FEFF 		bl	LogTextMessage
 698              	.LVL12:
 699              		.loc 3 266 0
 700 028c 616A     		ldr	r1, [r4, #36]
 701 028e 2648     		ldr	r0, .L88+24
 702 0290 FFF7FEFF 		bl	LogTextMessage
 703              	.LVL13:
 704              		.loc 3 267 0
 705 0294 E169     		ldr	r1, [r4, #28]
 706 0296 2548     		ldr	r0, .L88+28
 707 0298 FFF7FEFF 		bl	LogTextMessage
 708              	.LVL14:
 709              		.loc 3 268 0
 710 029c A169     		ldr	r1, [r4, #24]
 711 029e 2448     		ldr	r0, .L88+32
 712 02a0 FFF7FEFF 		bl	LogTextMessage
 713              	.LVL15:
 714              		.loc 3 269 0
 715 02a4 E16A     		ldr	r1, [r4, #44]
 716 02a6 2348     		ldr	r0, .L88+36
 717 02a8 FFF7FEFF 		bl	LogTextMessage
 718              	.LVL16:
 719              		.loc 3 271 0
 720 02ac E36A     		ldr	r3, [r4, #44]
 721 02ae 1B04     		lsls	r3, r3, #16
 722 02b0 0CD4     		bmi	.L87
 723              	.L71:
 724              		.loc 3 276 0
 725 02b2 174B     		ldr	r3, .L88
 726 02b4 DA6A     		ldr	r2, [r3, #44]
 727 02b6 1206     		lsls	r2, r2, #24
 728 02b8 DCD5     		bpl	.L67
 729              		.loc 3 278 0
 730 02ba 596B     		ldr	r1, [r3, #52]
 731 02bc 1E48     		ldr	r0, .L88+40
 732 02be FFF7FEFF 		bl	LogTextMessage
 733              	.LVL17:
 734 02c2 D7E7     		b	.L67
 735              	.LVL18:
 736              	.L81:
ARM GAS  /tmp/ccXd7oms.s 			page 14


 737              		.loc 3 238 0
 738 02c4 1D48     		ldr	r0, .L88+44
 739 02c6 FFF7FEFF 		bl	LogTextMessage
 740              	.LVL19:
 741 02ca DAE7     		b	.L58
 742              	.L87:
 743              		.loc 3 273 0
 744 02cc A16B     		ldr	r1, [r4, #56]
 745 02ce 1C48     		ldr	r0, .L88+48
 746 02d0 FFF7FEFF 		bl	LogTextMessage
 747              	.LVL20:
 748 02d4 EDE7     		b	.L71
 749              	.LVL21:
 750              	.L82:
 751              		.loc 3 242 0
 752 02d6 D96B     		ldr	r1, [r3, #60]
 753 02d8 1A48     		ldr	r0, .L88+52
 754 02da FFF7FEFF 		bl	LogTextMessage
 755              	.LVL22:
 756 02de C9E7     		b	.L67
 757              	.L86:
 758              		.loc 3 254 0
 759 02e0 9968     		ldr	r1, [r3, #8]
 760 02e2 1948     		ldr	r0, .L88+56
 761 02e4 FFF7FEFF 		bl	LogTextMessage
 762              	.LVL23:
 763 02e8 C4E7     		b	.L67
 764              	.L83:
 765              		.loc 3 245 0
 766 02ea 1848     		ldr	r0, .L88+60
 767 02ec FFF7FEFF 		bl	LogTextMessage
 768              	.LVL24:
 769 02f0 C0E7     		b	.L67
 770              	.L84:
 771              		.loc 3 248 0
 772 02f2 9A68     		ldr	r2, [r3, #8]
 773 02f4 164B     		ldr	r3, .L88+64
 774 02f6 1748     		ldr	r0, .L88+68
 775 02f8 53F82210 		ldr	r1, [r3, r2, lsl #2]
 776 02fc 164A     		ldr	r2, .L88+72
 777 02fe FFF7FEFF 		bl	LogTextMessage
 778              	.LVL25:
 779 0302 B7E7     		b	.L67
 780              	.L85:
 781              		.loc 3 251 0
 782 0304 1548     		ldr	r0, .L88+76
 783 0306 1449     		ldr	r1, .L88+72
 784 0308 FFF7FEFF 		bl	LogTextMessage
 785              	.LVL26:
 786 030c B2E7     		b	.L67
 787              	.L89:
 788 030e 00BF     		.align	2
 789              	.L88:
 790 0310 00400240 		.word	1073889280
 791 0314 122021E1 		.word	-517922798
 792 0318 E0000000 		.word	.LC7
 793 031c 0C010000 		.word	.LC8
ARM GAS  /tmp/ccXd7oms.s 			page 15


 794 0320 00000000 		.word	.LC0
 795 0324 38010000 		.word	.LC11
 796 0328 40010000 		.word	.LC12
 797 032c 4C010000 		.word	.LC13
 798 0330 54010000 		.word	.LC14
 799 0334 60010000 		.word	.LC15
 800 0338 2C010000 		.word	.LC10
 801 033c 14000000 		.word	.LC1
 802 0340 20010000 		.word	.LC9
 803 0344 30000000 		.word	.LC2
 804 0348 C4000000 		.word	.LC6
 805 034c 50000000 		.word	.LC3
 806 0350 00000000 		.word	.LANCHOR0
 807 0354 64000000 		.word	.LC4
 808 0358 0C400240 		.word	1073889292
 809 035c 84000000 		.word	.LC5
 810              	.LBE39:
 811              		.cfi_endproc
 812              	.LFE138:
 813              		.size	exception_checkandreport, .-exception_checkandreport
 814              		.align	2
 815              		.p2align 4,,15
 816              		.global	report_fatfs_error
 817              		.thumb
 818              		.thumb_func
 819              		.type	report_fatfs_error, %function
 820              	report_fatfs_error:
 821              	.LFB139:
 822              		.loc 3 285 0
 823              		.cfi_startproc
 824              		@ args = 0, pretend = 0, frame = 0
 825              		@ frame_needed = 0, uses_anonymous_args = 0
 826              	.LVL27:
 827              		.loc 3 286 0
 828 0360 1F4A     		ldr	r2, .L108
 829              		.loc 3 285 0
 830 0362 F8B5     		push	{r3, r4, r5, r6, r7, lr}
 831              		.cfi_def_cfa_offset 24
 832              		.cfi_offset 3, -24
 833              		.cfi_offset 4, -20
 834              		.cfi_offset 5, -16
 835              		.cfi_offset 6, -12
 836              		.cfi_offset 7, -8
 837              		.cfi_offset 14, -4
 838              		.loc 3 286 0
 839 0364 1268     		ldr	r2, [r2]
 840 0366 1F4B     		ldr	r3, .L108+4
 841 0368 9A42     		cmp	r2, r3
 842 036a 21D0     		beq	.L90
 843              	.LVL28:
 844 036c 0C46     		mov	r4, r1
 845 036e 0746     		mov	r7, r0
 846              		.loc 3 292 0
 847 0370 A9B1     		cbz	r1, .L98
 848              	.LBB40:
 849              		.loc 3 293 0
 850 0372 0A78     		ldrb	r2, [r1]	@ zero_extendqisi2
ARM GAS  /tmp/ccXd7oms.s 			page 16


 851 0374 2F2A     		cmp	r2, #47
 852 0376 1CD0     		beq	.L99
 853              		.loc 3 295 0
 854 0378 1B4E     		ldr	r6, .L108+8
 855 037a 2821     		movs	r1, #40
 856              	.LVL29:
 857 037c 3046     		mov	r0, r6
 858              	.LVL30:
 859 037e FFF7FEFF 		bl	f_getcwd
 860              	.LVL31:
 861              		.loc 3 296 0
 862 0382 3378     		ldrb	r3, [r6]	@ zero_extendqisi2
 863 0384 43B3     		cbz	r3, .L100
 864 0386 3346     		mov	r3, r6
 865              	.LVL32:
 866              	.L95:
 867              		.loc 3 296 0 is_stmt 0 discriminator 2
 868 0388 13F8012F 		ldrb	r2, [r3, #1]!	@ zero_extendqisi2
 869              	.LVL33:
 870 038c 002A     		cmp	r2, #0
 871 038e FBD1     		bne	.L95
 872 0390 5D1C     		adds	r5, r3, #1
 873              	.LVL34:
 874              	.L94:
 875              		.loc 3 297 0 is_stmt 1
 876 0392 2F22     		movs	r2, #47
 877 0394 1A70     		strb	r2, [r3]
 878              	.LVL35:
 879              		.loc 3 300 0
 880 0396 2278     		ldrb	r2, [r4]	@ zero_extendqisi2
 881 0398 12B1     		cbz	r2, .L92
 882 039a 6B1C     		adds	r3, r5, #1
 883 039c 0BE0     		b	.L93
 884              	.LVL36:
 885              	.L98:
 886              	.LBE40:
 887              		.loc 3 290 0
 888 039e 124D     		ldr	r5, .L108+8
 889              	.LVL37:
 890              	.L92:
 891              		.loc 3 305 0
 892 03a0 0F4B     		ldr	r3, .L108
 893 03a2 1049     		ldr	r1, .L108+4
 894              		.loc 3 304 0
 895 03a4 0020     		movs	r0, #0
 896              		.loc 3 306 0
 897 03a6 0522     		movs	r2, #5
 898              		.loc 3 304 0
 899 03a8 2870     		strb	r0, [r5]
 900              		.loc 3 305 0
 901 03aa 1960     		str	r1, [r3]
 902              		.loc 3 306 0
 903 03ac 1A71     		strb	r2, [r3, #4]
 904              		.loc 3 307 0
 905 03ae 9F60     		str	r7, [r3, #8]
 906              	.LVL38:
 907              	.L90:
ARM GAS  /tmp/ccXd7oms.s 			page 17


 908 03b0 F8BD     		pop	{r3, r4, r5, r6, r7, pc}
 909              	.LVL39:
 910              	.L99:
 911              	.LBB41:
 912 03b2 0E4B     		ldr	r3, .L108+12
 913              	.LBE41:
 914              		.loc 3 290 0
 915 03b4 0C4D     		ldr	r5, .L108+8
 916              	.LVL40:
 917              	.L93:
 918              	.LBB42:
 919              		.loc 3 301 0
 920 03b6 2A70     		strb	r2, [r5]
 921              	.LVL41:
 922 03b8 2146     		mov	r1, r4
 923 03ba 03F11305 		add	r5, r3, #19
 924              		.loc 3 300 0
 925 03be 11F8012F 		ldrb	r2, [r1, #1]!	@ zero_extendqisi2
 926 03c2 3AB1     		cbz	r2, .L107
 927              	.LVL42:
 928              	.L97:
 929              		.loc 3 301 0
 930 03c4 03F8012B 		strb	r2, [r3], #1
 931              	.LVL43:
 932              		.loc 3 300 0
 933 03c8 AB42     		cmp	r3, r5
 934 03ca E9D0     		beq	.L92
 935              	.LVL44:
 936 03cc 11F8012F 		ldrb	r2, [r1, #1]!	@ zero_extendqisi2
 937 03d0 002A     		cmp	r2, #0
 938 03d2 F7D1     		bne	.L97
 939              	.LVL45:
 940              	.L107:
 941 03d4 1D46     		mov	r5, r3
 942 03d6 E3E7     		b	.L92
 943              	.LVL46:
 944              	.L100:
 945              		.loc 3 296 0
 946 03d8 044D     		ldr	r5, .L108+12
 947              	.LBE42:
 948              		.loc 3 290 0
 949 03da 3346     		mov	r3, r6
 950 03dc D9E7     		b	.L94
 951              	.L109:
 952 03de 00BF     		.align	2
 953              	.L108:
 954 03e0 00400240 		.word	1073889280
 955 03e4 122021E1 		.word	-517922798
 956 03e8 0C400240 		.word	1073889292
 957 03ec 0D400240 		.word	1073889293
 958              		.cfi_endproc
 959              	.LFE139:
 960              		.size	report_fatfs_error, .-report_fatfs_error
 961              		.align	2
 962              		.p2align 4,,15
 963              		.global	report_patchLoadFail
 964              		.thumb
ARM GAS  /tmp/ccXd7oms.s 			page 18


 965              		.thumb_func
 966              		.type	report_patchLoadFail, %function
 967              	report_patchLoadFail:
 968              	.LFB140:
 969              		.loc 3 310 0
 970              		.cfi_startproc
 971              		@ args = 0, pretend = 0, frame = 0
 972              		@ frame_needed = 0, uses_anonymous_args = 0
 973              	.LVL47:
 974 03f0 38B5     		push	{r3, r4, r5, lr}
 975              		.cfi_def_cfa_offset 16
 976              		.cfi_offset 3, -16
 977              		.cfi_offset 4, -12
 978              		.cfi_offset 5, -8
 979              		.cfi_offset 14, -4
 980              		.loc 3 311 0
 981 03f2 1E4B     		ldr	r3, .L128
 982 03f4 1E4A     		ldr	r2, .L128+4
 983 03f6 1968     		ldr	r1, [r3]
 984 03f8 9142     		cmp	r1, r2
 985 03fa 1DD0     		beq	.L110
 986              		.loc 3 314 0
 987 03fc 0621     		movs	r1, #6
 988              		.loc 3 313 0
 989 03fe 1A60     		str	r2, [r3]
 990              		.loc 3 314 0
 991 0400 1971     		strb	r1, [r3, #4]
 992              	.LVL48:
 993              		.loc 3 317 0
 994 0402 B0B1     		cbz	r0, .L118
 995              	.LBB43:
 996              		.loc 3 318 0
 997 0404 0278     		ldrb	r2, [r0]	@ zero_extendqisi2
 998 0406 2F2A     		cmp	r2, #47
 999 0408 0446     		mov	r4, r0
 1000 040a 16D0     		beq	.L119
 1001              		.loc 3 320 0
 1002 040c 194D     		ldr	r5, .L128+8
 1003 040e 2821     		movs	r1, #40
 1004 0410 2846     		mov	r0, r5
 1005              	.LVL49:
 1006 0412 FFF7FEFF 		bl	f_getcwd
 1007              	.LVL50:
 1008              		.loc 3 321 0
 1009 0416 2B78     		ldrb	r3, [r5]	@ zero_extendqisi2
 1010 0418 23B3     		cbz	r3, .L120
 1011 041a 2846     		mov	r0, r5
 1012              	.LVL51:
 1013              	.L115:
 1014              		.loc 3 321 0 is_stmt 0 discriminator 2
 1015 041c 10F8013F 		ldrb	r3, [r0, #1]!	@ zero_extendqisi2
 1016              	.LVL52:
 1017 0420 002B     		cmp	r3, #0
 1018 0422 FBD1     		bne	.L115
 1019 0424 411C     		adds	r1, r0, #1
 1020              	.LVL53:
 1021              	.L114:
ARM GAS  /tmp/ccXd7oms.s 			page 19


 1022              		.loc 3 322 0 is_stmt 1
 1023 0426 2F23     		movs	r3, #47
 1024 0428 0370     		strb	r3, [r0]
 1025              	.LVL54:
 1026              		.loc 3 325 0
 1027 042a 2278     		ldrb	r2, [r4]	@ zero_extendqisi2
 1028 042c 12B1     		cbz	r2, .L112
 1029 042e 4B1C     		adds	r3, r1, #1
 1030 0430 05E0     		b	.L113
 1031              	.LVL55:
 1032              	.L118:
 1033              	.LBE43:
 1034              		.loc 3 316 0
 1035 0432 1049     		ldr	r1, .L128+8
 1036              	.LVL56:
 1037              	.L112:
 1038              		.loc 3 329 0
 1039 0434 0023     		movs	r3, #0
 1040 0436 0B70     		strb	r3, [r1]
 1041              	.LVL57:
 1042              	.L110:
 1043 0438 38BD     		pop	{r3, r4, r5, pc}
 1044              	.LVL58:
 1045              	.L119:
 1046              	.LBB44:
 1047 043a 0F4B     		ldr	r3, .L128+12
 1048              	.LBE44:
 1049              		.loc 3 316 0
 1050 043c 0D49     		ldr	r1, .L128+8
 1051              	.LVL59:
 1052              	.L113:
 1053              	.LBB45:
 1054              		.loc 3 326 0
 1055 043e 0A70     		strb	r2, [r1]
 1056              	.LVL60:
 1057 0440 2046     		mov	r0, r4
 1058 0442 03F11301 		add	r1, r3, #19
 1059              		.loc 3 325 0
 1060 0446 10F8012F 		ldrb	r2, [r0, #1]!	@ zero_extendqisi2
 1061 044a 3AB1     		cbz	r2, .L127
 1062              	.LVL61:
 1063              	.L117:
 1064              		.loc 3 326 0
 1065 044c 03F8012B 		strb	r2, [r3], #1
 1066              	.LVL62:
 1067              		.loc 3 325 0
 1068 0450 8B42     		cmp	r3, r1
 1069 0452 EFD0     		beq	.L112
 1070              	.LVL63:
 1071 0454 10F8012F 		ldrb	r2, [r0, #1]!	@ zero_extendqisi2
 1072 0458 002A     		cmp	r2, #0
 1073 045a F7D1     		bne	.L117
 1074              	.LVL64:
 1075              	.L127:
 1076 045c 1946     		mov	r1, r3
 1077              	.LVL65:
 1078              	.LBE45:
ARM GAS  /tmp/ccXd7oms.s 			page 20


 1079              		.loc 3 329 0
 1080 045e 0023     		movs	r3, #0
 1081 0460 0B70     		strb	r3, [r1]
 1082 0462 E9E7     		b	.L110
 1083              	.LVL66:
 1084              	.L120:
 1085              	.LBB46:
 1086              		.loc 3 321 0
 1087 0464 0449     		ldr	r1, .L128+12
 1088              	.LBE46:
 1089              		.loc 3 316 0
 1090 0466 2846     		mov	r0, r5
 1091 0468 DDE7     		b	.L114
 1092              	.L129:
 1093 046a 00BF     		.align	2
 1094              	.L128:
 1095 046c 00400240 		.word	1073889280
 1096 0470 122021E1 		.word	-517922798
 1097 0474 0C400240 		.word	1073889292
 1098 0478 0D400240 		.word	1073889293
 1099              		.cfi_endproc
 1100              	.LFE140:
 1101              		.size	report_patchLoadFail, .-report_patchLoadFail
 1102              		.align	2
 1103 047c AFF30080 		.p2align 4,,15
 1104              		.global	report_patchLoadSDRamOverflow
 1105              		.thumb
 1106              		.thumb_func
 1107              		.type	report_patchLoadSDRamOverflow, %function
 1108              	report_patchLoadSDRamOverflow:
 1109              	.LFB141:
 1110              		.loc 3 332 0
 1111              		.cfi_startproc
 1112              		@ args = 0, pretend = 0, frame = 0
 1113              		@ frame_needed = 0, uses_anonymous_args = 0
 1114              	.LVL67:
 1115 0480 38B5     		push	{r3, r4, r5, lr}
 1116              		.cfi_def_cfa_offset 16
 1117              		.cfi_offset 3, -16
 1118              		.cfi_offset 4, -12
 1119              		.cfi_offset 5, -8
 1120              		.cfi_offset 14, -4
 1121              		.loc 3 333 0
 1122 0482 1E4B     		ldr	r3, .L148
 1123 0484 1E4A     		ldr	r2, .L148+4
 1124 0486 1C68     		ldr	r4, [r3]
 1125 0488 9442     		cmp	r4, r2
 1126 048a 1ED0     		beq	.L130
 1127              		.loc 3 337 0
 1128 048c 0724     		movs	r4, #7
 1129              		.loc 3 335 0
 1130 048e 1A60     		str	r2, [r3]
 1131              		.loc 3 336 0
 1132 0490 9960     		str	r1, [r3, #8]
 1133              		.loc 3 337 0
 1134 0492 1C71     		strb	r4, [r3, #4]
 1135              	.LVL68:
ARM GAS  /tmp/ccXd7oms.s 			page 21


 1136              		.loc 3 340 0
 1137 0494 B0B1     		cbz	r0, .L138
 1138              	.LBB47:
 1139              		.loc 3 341 0
 1140 0496 0278     		ldrb	r2, [r0]	@ zero_extendqisi2
 1141 0498 2F2A     		cmp	r2, #47
 1142 049a 0446     		mov	r4, r0
 1143 049c 16D0     		beq	.L139
 1144              		.loc 3 343 0
 1145 049e 194D     		ldr	r5, .L148+8
 1146 04a0 2821     		movs	r1, #40
 1147              	.LVL69:
 1148 04a2 2846     		mov	r0, r5
 1149              	.LVL70:
 1150 04a4 FFF7FEFF 		bl	f_getcwd
 1151              	.LVL71:
 1152              		.loc 3 344 0
 1153 04a8 2B78     		ldrb	r3, [r5]	@ zero_extendqisi2
 1154 04aa 23B3     		cbz	r3, .L140
 1155 04ac 2846     		mov	r0, r5
 1156              	.LVL72:
 1157              	.L135:
 1158              		.loc 3 344 0 is_stmt 0 discriminator 2
 1159 04ae 10F8013F 		ldrb	r3, [r0, #1]!	@ zero_extendqisi2
 1160              	.LVL73:
 1161 04b2 002B     		cmp	r3, #0
 1162 04b4 FBD1     		bne	.L135
 1163 04b6 411C     		adds	r1, r0, #1
 1164              	.LVL74:
 1165              	.L134:
 1166              		.loc 3 345 0 is_stmt 1
 1167 04b8 2F23     		movs	r3, #47
 1168 04ba 0370     		strb	r3, [r0]
 1169              	.LVL75:
 1170              		.loc 3 348 0
 1171 04bc 2278     		ldrb	r2, [r4]	@ zero_extendqisi2
 1172 04be 12B1     		cbz	r2, .L132
 1173 04c0 4B1C     		adds	r3, r1, #1
 1174 04c2 05E0     		b	.L133
 1175              	.LVL76:
 1176              	.L138:
 1177              	.LBE47:
 1178              		.loc 3 339 0
 1179 04c4 0F49     		ldr	r1, .L148+8
 1180              	.LVL77:
 1181              	.L132:
 1182              		.loc 3 352 0
 1183 04c6 0023     		movs	r3, #0
 1184 04c8 0B70     		strb	r3, [r1]
 1185              	.LVL78:
 1186              	.L130:
 1187 04ca 38BD     		pop	{r3, r4, r5, pc}
 1188              	.LVL79:
 1189              	.L139:
 1190              	.LBB48:
 1191 04cc 0E4B     		ldr	r3, .L148+12
 1192              	.LBE48:
ARM GAS  /tmp/ccXd7oms.s 			page 22


 1193              		.loc 3 339 0
 1194 04ce 0D49     		ldr	r1, .L148+8
 1195              	.LVL80:
 1196              	.L133:
 1197              	.LBB49:
 1198              		.loc 3 349 0
 1199 04d0 0A70     		strb	r2, [r1]
 1200              	.LVL81:
 1201 04d2 2046     		mov	r0, r4
 1202 04d4 03F11301 		add	r1, r3, #19
 1203              		.loc 3 348 0
 1204 04d8 10F8012F 		ldrb	r2, [r0, #1]!	@ zero_extendqisi2
 1205 04dc 3AB1     		cbz	r2, .L147
 1206              	.LVL82:
 1207              	.L137:
 1208              		.loc 3 349 0
 1209 04de 03F8012B 		strb	r2, [r3], #1
 1210              	.LVL83:
 1211              		.loc 3 348 0
 1212 04e2 8B42     		cmp	r3, r1
 1213 04e4 EFD0     		beq	.L132
 1214              	.LVL84:
 1215 04e6 10F8012F 		ldrb	r2, [r0, #1]!	@ zero_extendqisi2
 1216 04ea 002A     		cmp	r2, #0
 1217 04ec F7D1     		bne	.L137
 1218              	.LVL85:
 1219              	.L147:
 1220 04ee 1946     		mov	r1, r3
 1221              	.LVL86:
 1222              	.LBE49:
 1223              		.loc 3 352 0
 1224 04f0 0023     		movs	r3, #0
 1225 04f2 0B70     		strb	r3, [r1]
 1226 04f4 E9E7     		b	.L130
 1227              	.LVL87:
 1228              	.L140:
 1229              	.LBB50:
 1230              		.loc 3 344 0
 1231 04f6 0449     		ldr	r1, .L148+12
 1232              	.LBE50:
 1233              		.loc 3 339 0
 1234 04f8 2846     		mov	r0, r5
 1235 04fa DDE7     		b	.L134
 1236              	.L149:
 1237              		.align	2
 1238              	.L148:
 1239 04fc 00400240 		.word	1073889280
 1240 0500 122021E1 		.word	-517922798
 1241 0504 0C400240 		.word	1073889292
 1242 0508 0D400240 		.word	1073889293
 1243              		.cfi_endproc
 1244              	.LFE141:
 1245              		.size	report_patchLoadSDRamOverflow, .-report_patchLoadSDRamOverflow
 1246              		.align	2
 1247 050c AFF30080 		.p2align 4,,15
 1248              		.global	report_usbh_midi_ringbuffer_overflow
 1249              		.thumb
ARM GAS  /tmp/ccXd7oms.s 			page 23


 1250              		.thumb_func
 1251              		.type	report_usbh_midi_ringbuffer_overflow, %function
 1252              	report_usbh_midi_ringbuffer_overflow:
 1253              	.LFB142:
 1254              		.loc 3 355 0
 1255              		.cfi_startproc
 1256              		@ args = 0, pretend = 0, frame = 0
 1257              		@ frame_needed = 0, uses_anonymous_args = 0
 1258              		@ link register save eliminated.
 1259              		.loc 3 356 0
 1260 0510 044B     		ldr	r3, .L152
 1261 0512 054A     		ldr	r2, .L152+4
 1262 0514 1968     		ldr	r1, [r3]
 1263 0516 9142     		cmp	r1, r2
 1264 0518 02D0     		beq	.L150
 1265              		.loc 3 359 0
 1266 051a 0821     		movs	r1, #8
 1267              		.loc 3 358 0
 1268 051c 1A60     		str	r2, [r3]
 1269              		.loc 3 359 0
 1270 051e 1971     		strb	r1, [r3, #4]
 1271              	.L150:
 1272 0520 7047     		bx	lr
 1273              	.L153:
 1274 0522 00BF     		.align	2
 1275              	.L152:
 1276 0524 00400240 		.word	1073889280
 1277 0528 122021E1 		.word	-517922798
 1278              		.cfi_endproc
 1279              	.LFE142:
 1280              		.size	report_usbh_midi_ringbuffer_overflow, .-report_usbh_midi_ringbuffer_overflow
 1281              		.align	2
 1282 052c AFF30080 		.p2align 4,,15
 1283              		.global	dbg_set_i
 1284              		.thumb
 1285              		.thumb_func
 1286              		.type	dbg_set_i, %function
 1287              	dbg_set_i:
 1288              	.LFB143:
 1289              		.loc 3 362 0
 1290              		.cfi_startproc
 1291              		@ args = 0, pretend = 0, frame = 0
 1292              		@ frame_needed = 0, uses_anonymous_args = 0
 1293              		@ link register save eliminated.
 1294              	.LVL88:
 1295              		.loc 3 363 0
 1296 0530 014B     		ldr	r3, .L155
 1297 0532 D863     		str	r0, [r3, #60]
 1298 0534 7047     		bx	lr
 1299              	.L156:
 1300 0536 00BF     		.align	2
 1301              	.L155:
 1302 0538 00400240 		.word	1073889280
 1303              		.cfi_endproc
 1304              	.LFE143:
 1305              		.size	dbg_set_i, .-dbg_set_i
 1306              		.align	2
ARM GAS  /tmp/ccXd7oms.s 			page 24


 1307 053c AFF30080 		.p2align 4,,15
 1308              		.global	terminator
 1309              		.thumb
 1310              		.thumb_func
 1311              		.type	terminator, %function
 1312              	terminator:
 1313              	.LFB144:
 1314              		.loc 3 366 0
 1315              		.cfi_startproc
 1316              		@ args = 0, pretend = 0, frame = 16
 1317              		@ frame_needed = 0, uses_anonymous_args = 0
 1318 0540 30B5     		push	{r4, r5, lr}
 1319              		.cfi_def_cfa_offset 12
 1320              		.cfi_offset 4, -12
 1321              		.cfi_offset 5, -8
 1322              		.cfi_offset 14, -4
 1323              		.loc 3 372 0
 1324 0542 1B48     		ldr	r0, .L168
 1325              	.LBB51:
 1326              		.loc 3 377 0
 1327 0544 1B4D     		ldr	r5, .L168+4
 1328              	.LBE51:
 1329              		.loc 3 366 0
 1330 0546 85B0     		sub	sp, sp, #20
 1331              		.cfi_def_cfa_offset 32
 1332              		.loc 3 372 0
 1333 0548 4FF40061 		mov	r1, #2048
 1334 054c 0022     		movs	r2, #0
 1335 054e FFF7FEFF 		bl	_pal_lld_setgroupmode
 1336              	.LVL89:
 1337              		.loc 3 373 0
 1338 0552 1748     		ldr	r0, .L168
 1339 0554 4FF48051 		mov	r1, #4096
 1340 0558 0022     		movs	r2, #0
 1341 055a FFF7FEFF 		bl	_pal_lld_setgroupmode
 1342              	.LVL90:
 1343              		.loc 3 374 0
 1344 055e 1423     		movs	r3, #20
 1345 0560 0193     		str	r3, [sp, #4]
 1346              	.LBB54:
 1347              	.LBB52:
 1348              		.loc 3 379 0
 1349 0562 4FF48074 		mov	r4, #256
 1350              	.L158:
 1351              	.LBE52:
 1352              	.LBE54:
 1353              		.loc 3 375 0
 1354 0566 019B     		ldr	r3, [sp, #4]
 1355 0568 5A1E     		subs	r2, r3, #1
 1356 056a 0192     		str	r2, [sp, #4]
 1357 056c EBB1     		cbz	r3, .L167
 1358              	.L162:
 1359              	.LBB55:
 1360              		.loc 3 376 0
 1361 056e 4FF48053 		mov	r3, #4096
 1362 0572 0293     		str	r3, [sp, #8]
 1363              		.loc 3 377 0
ARM GAS  /tmp/ccXd7oms.s 			page 25


 1364 0574 6B69     		ldr	r3, [r5, #20]
 1365 0576 83F48053 		eor	r3, r3, #4096
 1366 057a 6B61     		str	r3, [r5, #20]
 1367              		.loc 3 378 0
 1368 057c 029B     		ldr	r3, [sp, #8]
 1369 057e 5A1E     		subs	r2, r3, #1
 1370 0580 0292     		str	r2, [sp, #8]
 1371 0582 002B     		cmp	r3, #0
 1372 0584 EFD0     		beq	.L158
 1373              	.L163:
 1374              	.LBB53:
 1375              		.loc 3 379 0
 1376 0586 0394     		str	r4, [sp, #12]
 1377              	.L160:
 1378              		.loc 3 380 0 discriminator 1
 1379 0588 039B     		ldr	r3, [sp, #12]
 1380 058a 5A1E     		subs	r2, r3, #1
 1381 058c 0392     		str	r2, [sp, #12]
 1382 058e 002B     		cmp	r3, #0
 1383 0590 FAD1     		bne	.L160
 1384              		.loc 3 382 0
 1385 0592 FFF7FEFF 		bl	watchdog_feed
 1386              	.LVL91:
 1387              	.LBE53:
 1388              		.loc 3 378 0
 1389 0596 029B     		ldr	r3, [sp, #8]
 1390 0598 5A1E     		subs	r2, r3, #1
 1391 059a 0292     		str	r2, [sp, #8]
 1392 059c 002B     		cmp	r3, #0
 1393 059e F2D1     		bne	.L163
 1394              	.LBE55:
 1395              		.loc 3 375 0
 1396 05a0 019B     		ldr	r3, [sp, #4]
 1397 05a2 5A1E     		subs	r2, r3, #1
 1398 05a4 0192     		str	r2, [sp, #4]
 1399 05a6 002B     		cmp	r3, #0
 1400 05a8 E1D1     		bne	.L162
 1401              	.L167:
 1402              		.loc 3 386 0
 1403 05aa FFF729FD 		bl	NVIC_SystemReset
 1404              	.LVL92:
 1405              	.L169:
 1406 05ae 00BF     		.align	2
 1407              	.L168:
 1408 05b0 00000240 		.word	1073872896
 1409 05b4 000C0240 		.word	1073875968
 1410              		.cfi_endproc
 1411              	.LFE144:
 1412              		.size	terminator, .-terminator
 1413              		.align	2
 1414 05b8 AFF30080 		.p2align 4,,15
 1414      AFF30080 
 1415              		.global	prvGetRegistersFromStack
 1416              		.thumb
 1417              		.thumb_func
 1418              		.type	prvGetRegistersFromStack, %function
 1419              	prvGetRegistersFromStack:
ARM GAS  /tmp/ccXd7oms.s 			page 26


 1420              	.LFB145:
 1421              		.loc 3 390 0
 1422              		.cfi_startproc
 1423              		@ args = 0, pretend = 0, frame = 32
 1424              		@ frame_needed = 0, uses_anonymous_args = 0
 1425              	.LVL93:
 1426 05c0 2DE9F041 		push	{r4, r5, r6, r7, r8, lr}
 1427              		.cfi_def_cfa_offset 24
 1428              		.cfi_offset 4, -24
 1429              		.cfi_offset 5, -20
 1430              		.cfi_offset 6, -16
 1431              		.cfi_offset 7, -12
 1432              		.cfi_offset 8, -8
 1433              		.cfi_offset 14, -4
 1434              		.loc 3 402 0
 1435 05c4 90E80051 		ldmia	r0, {r8, ip, lr}
 1436              		.loc 3 390 0
 1437 05c8 88B0     		sub	sp, sp, #32
 1438              		.cfi_def_cfa_offset 56
 1439              		.loc 3 410 0
 1440 05ca 1F4A     		ldr	r2, .L174
 1441              		.loc 3 403 0
 1442 05cc C768     		ldr	r7, [r0, #12]
 1443              		.loc 3 405 0
 1444 05ce 0669     		ldr	r6, [r0, #16]
 1445              		.loc 3 406 0
 1446 05d0 4569     		ldr	r5, [r0, #20]
 1447              		.loc 3 407 0
 1448 05d2 8469     		ldr	r4, [r0, #24]
 1449              		.loc 3 410 0
 1450 05d4 1D49     		ldr	r1, .L174+4
 1451              		.loc 3 408 0
 1452 05d6 C069     		ldr	r0, [r0, #28]
 1453              	.LVL94:
 1454              		.loc 3 411 0
 1455 05d8 1D4B     		ldr	r3, .L174+8
 1456              		.loc 3 400 0
 1457 05da CDF80080 		str	r8, [sp]
 1458              		.loc 3 401 0
 1459 05de CDF804C0 		str	ip, [sp, #4]
 1460              		.loc 3 402 0
 1461 05e2 CDF808E0 		str	lr, [sp, #8]
 1462              		.loc 3 403 0
 1463 05e6 0397     		str	r7, [sp, #12]
 1464              		.loc 3 405 0
 1465 05e8 0496     		str	r6, [sp, #16]
 1466              		.loc 3 406 0
 1467 05ea 0595     		str	r5, [sp, #20]
 1468              		.loc 3 407 0
 1469 05ec 0694     		str	r4, [sp, #24]
 1470              		.loc 3 408 0
 1471 05ee 0790     		str	r0, [sp, #28]
 1472              		.loc 3 410 0
 1473 05f0 1160     		str	r1, [r2]
 1474              		.loc 3 411 0
 1475 05f2 9B68     		ldr	r3, [r3, #8]
 1476 05f4 13F00103 		ands	r3, r3, #1
ARM GAS  /tmp/ccXd7oms.s 			page 27


 1477              		.loc 3 412 0
 1478 05f8 18BF     		it	ne
 1479 05fa 0123     		movne	r3, #1
 1480              		.loc 3 414 0
 1481 05fc 1371     		strb	r3, [r2, #4]
 1482              		.loc 3 415 0
 1483 05fe 124B     		ldr	r3, .L174
 1484 0600 009A     		ldr	r2, [sp]
 1485 0602 9A60     		str	r2, [r3, #8]
 1486              		.loc 3 416 0
 1487 0604 019A     		ldr	r2, [sp, #4]
 1488 0606 DA60     		str	r2, [r3, #12]
 1489              		.loc 3 417 0
 1490 0608 029A     		ldr	r2, [sp, #8]
 1491 060a 1A61     		str	r2, [r3, #16]
 1492              		.loc 3 418 0
 1493 060c 039A     		ldr	r2, [sp, #12]
 1494 060e 5A61     		str	r2, [r3, #20]
 1495              		.loc 3 419 0
 1496 0610 049A     		ldr	r2, [sp, #16]
 1497 0612 9A61     		str	r2, [r3, #24]
 1498              		.loc 3 420 0
 1499 0614 059A     		ldr	r2, [sp, #20]
 1500 0616 DA61     		str	r2, [r3, #28]
 1501              		.loc 3 421 0
 1502 0618 069A     		ldr	r2, [sp, #24]
 1503 061a 1A62     		str	r2, [r3, #32]
 1504              		.loc 3 422 0
 1505 061c 079A     		ldr	r2, [sp, #28]
 1506 061e 5A62     		str	r2, [r3, #36]
 1507              	.LBB56:
 1508              	.LBB57:
 1509              		.loc 2 160 0
 1510              	@ 160 "/home/sbcu/Dropbox/pcb-layouts/axo-on-discovery-board/axoloti/platform_linux/../CMSIS//Inclu
 1511 0620 EFF30581 		MRS r1, ipsr
 1512              	@ 0 "" 2
 1513              		.thumb
 1514              	.LBE57:
 1515              	.LBE56:
 1516              		.loc 3 424 0
 1517 0624 0B4A     		ldr	r2, .L174+12
 1518              		.loc 3 423 0
 1519 0626 9962     		str	r1, [r3, #40]
 1520              		.loc 3 424 0
 1521 0628 916A     		ldr	r1, [r2, #40]
 1522 062a D962     		str	r1, [r3, #44]
 1523              		.loc 3 425 0
 1524 062c D16A     		ldr	r1, [r2, #44]
 1525 062e 1963     		str	r1, [r3, #48]
 1526              		.loc 3 426 0
 1527 0630 516B     		ldr	r1, [r2, #52]
 1528 0632 5963     		str	r1, [r3, #52]
 1529              		.loc 3 427 0
 1530 0634 926B     		ldr	r2, [r2, #56]
 1531              		.loc 3 433 0
 1532 0636 0849     		ldr	r1, .L174+16
 1533              		.loc 3 427 0
ARM GAS  /tmp/ccXd7oms.s 			page 28


 1534 0638 9A63     		str	r2, [r3, #56]
 1535              		.loc 3 433 0
 1536 063a 4FF48053 		mov	r3, #4096
 1537 063e 4B83     		strh	r3, [r1, #26]	@ movhi
 1538              		.loc 3 435 0
 1539 0640 FFF7FEFF 		bl	codec_clearbuffer
 1540              	.LVL95:
 1541              		.loc 3 437 0
 1542 0644 FFF7FEFF 		bl	terminator
 1543              	.LVL96:
 1544              	.L175:
 1545              		.align	2
 1546              	.L174:
 1547 0648 00400240 		.word	1073889280
 1548 064c 122021E1 		.word	-517922798
 1549 0650 002C0040 		.word	1073753088
 1550 0654 00ED00E0 		.word	-536810240
 1551 0658 000C0240 		.word	1073875968
 1552              		.cfi_endproc
 1553              	.LFE145:
 1554              		.size	prvGetRegistersFromStack, .-prvGetRegistersFromStack
 1555              		.align	2
 1556 065c AFF30080 		.p2align 4,,15
 1557              		.global	Vector40
 1558              		.thumb
 1559              		.thumb_func
 1560              		.type	Vector40, %function
 1561              	Vector40:
 1562              	.LFB146:
 1563              		.loc 3 446 0
 1564              		.cfi_startproc
 1565              		@ Naked Function: prologue and epilogue provided by programmer.
 1566              		@ args = 0, pretend = 0, frame = 0
 1567              		@ frame_needed = 0, uses_anonymous_args = 0
 1568              		.loc 3 447 0
 1569              	@ 447 "exceptions.c" 1
 1570 0660 1EF0040F 		 tst lr, #4                                                
 1571 0664 0CBF     	 ite eq                                                    
 1572 0666 EFF30880 	 mrseq r0, msp                                             
 1573 066a EFF30980 	 mrsne r0, psp                                             
 1574 066e 8169     	 ldr r1, [r0, #24]                                         
 1575 0670 5FF83026 	 ldr r2, handler2_address_const                            
 1576 0674 1047     	 bx r2                                                     
 1577              	
 1578              	@ 0 "" 2
 1579              		.loc 3 457 0
 1580              		.thumb
 1581              		.cfi_endproc
 1582              	.LFE146:
 1583              		.size	Vector40, .-Vector40
 1584              		.global	fs_err_name
 1585              		.section	.rodata
 1586              		.align	2
 1587              		.set	.LANCHOR0,. + 0
 1588              		.type	fs_err_name, %object
 1589              		.size	fs_err_name, 80
 1590              	fs_err_name:
ARM GAS  /tmp/ccXd7oms.s 			page 29


 1591 0000 6C010000 		.word	.LC16
 1592 0004 74010000 		.word	.LC17
 1593 0008 80010000 		.word	.LC18
 1594 000c 8C010000 		.word	.LC19
 1595 0010 9C010000 		.word	.LC20
 1596 0014 A8010000 		.word	.LC21
 1597 0018 B4010000 		.word	.LC22
 1598 001c C4010000 		.word	.LC23
 1599 0020 D0010000 		.word	.LC24
 1600 0024 DC010000 		.word	.LC25
 1601 0028 F0010000 		.word	.LC26
 1602 002c 04020000 		.word	.LC27
 1603 0030 18020000 		.word	.LC28
 1604 0034 28020000 		.word	.LC29
 1605 0038 3C020000 		.word	.LC30
 1606 003c 4C020000 		.word	.LC31
 1607 0040 58020000 		.word	.LC32
 1608 0044 64020000 		.word	.LC33
 1609 0048 78020000 		.word	.LC34
 1610 004c 90020000 		.word	.LC35
 1611              		.section	.rodata.str1.4,"aMS",%progbits,1
 1612              		.align	2
 1613              	.LC0:
 1614 0000 65786365 		.ascii	"exception report:\000"
 1614      7074696F 
 1614      6E207265 
 1614      706F7274 
 1614      3A00
 1615 0012 0000     		.space	2
 1616              	.LC1:
 1617 0014 65786365 		.ascii	"exception: soft watchdog\000"
 1617      7074696F 
 1617      6E3A2073 
 1617      6F667420 
 1617      77617463 
 1618 002d 000000   		.space	3
 1619              	.LC2:
 1620 0030 65786365 		.ascii	"exception: hard watchdog i=0x%x\000"
 1620      7074696F 
 1620      6E3A2068 
 1620      61726420 
 1620      77617463 
 1621              	.LC3:
 1622 0050 65786365 		.ascii	"exception: brownout\000"
 1622      7074696F 
 1622      6E3A2062 
 1622      726F776E 
 1622      6F757400 
 1623              	.LC4:
 1624 0064 66696C65 		.ascii	"file error: %s, filename:\"%s\"\000"
 1624      20657272 
 1624      6F723A20 
 1624      25732C20 
 1624      66696C65 
 1625 0082 0000     		.space	2
 1626              	.LC5:
 1627 0084 6661696C 		.ascii	"failed to load patch, firmware version mismatch? fi"
ARM GAS  /tmp/ccXd7oms.s 			page 30


 1627      65642074 
 1627      6F206C6F 
 1627      61642070 
 1627      61746368 
 1628 00b7 6C656E61 		.ascii	"lename:\"%s\"\000"
 1628      6D653A22 
 1628      25732200 
 1629 00c3 00       		.space	1
 1630              	.LC6:
 1631 00c4 73647261 		.ascii	"sdram overflow by %d bytes\000"
 1631      6D206F76 
 1631      6572666C 
 1631      6F772062 
 1631      79202564 
 1632 00df 00       		.space	1
 1633              	.LC7:
 1634 00e0 75736220 		.ascii	"usb host midi output ringbuffer overflow\000"
 1634      686F7374 
 1634      206D6964 
 1634      69206F75 
 1634      74707574 
 1635 0109 000000   		.space	3
 1636              	.LC8:
 1637 010c 756E6B6E 		.ascii	"unknown exception?\000"
 1637      6F776E20 
 1637      65786365 
 1637      7074696F 
 1637      6E3F00
 1638 011f 00       		.space	1
 1639              	.LC9:
 1640 0120 62666172 		.ascii	"bfar=0x%x\000"
 1640      3D307825 
 1640      7800
 1641 012a 0000     		.space	2
 1642              	.LC10:
 1643 012c 6D6D6661 		.ascii	"mmfar=0x%x\000"
 1643      723D3078 
 1643      257800
 1644 0137 00       		.space	1
 1645              	.LC11:
 1646 0138 70633D30 		.ascii	"pc=0x%x\000"
 1646      78257800 
 1647              	.LC12:
 1648 0140 7073723D 		.ascii	"psr=0x%x\000"
 1648      30782578 
 1648      00
 1649 0149 000000   		.space	3
 1650              	.LC13:
 1651 014c 6C723D30 		.ascii	"lr=0x%x\000"
 1651      78257800 
 1652              	.LC14:
 1653 0154 7231323D 		.ascii	"r12=0x%x\000"
 1653      30782578 
 1653      00
 1654 015d 000000   		.space	3
 1655              	.LC15:
 1656 0160 63667372 		.ascii	"cfsr=0x%x\000"
ARM GAS  /tmp/ccXd7oms.s 			page 31


 1656      3D307825 
 1656      7800
 1657 016a 0000     		.space	2
 1658              	.LC16:
 1659 016c 46525F4F 		.ascii	"FR_OK\000"
 1659      4B00
 1660 0172 0000     		.space	2
 1661              	.LC17:
 1662 0174 46525F44 		.ascii	"FR_DISK_ERR\000"
 1662      49534B5F 
 1662      45525200 
 1663              	.LC18:
 1664 0180 46525F49 		.ascii	"FR_INT_ERR\000"
 1664      4E545F45 
 1664      525200
 1665 018b 00       		.space	1
 1666              	.LC19:
 1667 018c 46525F4E 		.ascii	"FR_NOT_READY\000"
 1667      4F545F52 
 1667      45414459 
 1667      00
 1668 0199 000000   		.space	3
 1669              	.LC20:
 1670 019c 46525F4E 		.ascii	"FR_NO_FILE\000"
 1670      4F5F4649 
 1670      4C4500
 1671 01a7 00       		.space	1
 1672              	.LC21:
 1673 01a8 46525F4E 		.ascii	"FR_NO_PATH\000"
 1673      4F5F5041 
 1673      544800
 1674 01b3 00       		.space	1
 1675              	.LC22:
 1676 01b4 46525F49 		.ascii	"FR_INVALID_NAME\000"
 1676      4E56414C 
 1676      49445F4E 
 1676      414D4500 
 1677              	.LC23:
 1678 01c4 46525F44 		.ascii	"FR_DENIED\000"
 1678      454E4945 
 1678      4400
 1679 01ce 0000     		.space	2
 1680              	.LC24:
 1681 01d0 46525F45 		.ascii	"FR_EXIST\000"
 1681      58495354 
 1681      00
 1682 01d9 000000   		.space	3
 1683              	.LC25:
 1684 01dc 46525F49 		.ascii	"FR_INVALID_OBJECT\000"
 1684      4E56414C 
 1684      49445F4F 
 1684      424A4543 
 1684      5400
 1685 01ee 0000     		.space	2
 1686              	.LC26:
 1687 01f0 46525F57 		.ascii	"FR_WRITE_PROTECTED\000"
 1687      52495445 
ARM GAS  /tmp/ccXd7oms.s 			page 32


 1687      5F50524F 
 1687      54454354 
 1687      454400
 1688 0203 00       		.space	1
 1689              	.LC27:
 1690 0204 46525F49 		.ascii	"FR_INVALID_DRIVE\000"
 1690      4E56414C 
 1690      49445F44 
 1690      52495645 
 1690      00
 1691 0215 000000   		.space	3
 1692              	.LC28:
 1693 0218 46525F4E 		.ascii	"FR_NOT_ENABLED\000"
 1693      4F545F45 
 1693      4E41424C 
 1693      454400
 1694 0227 00       		.space	1
 1695              	.LC29:
 1696 0228 46525F4E 		.ascii	"FR_NO_FILESYSTEM\000"
 1696      4F5F4649 
 1696      4C455359 
 1696      5354454D 
 1696      00
 1697 0239 000000   		.space	3
 1698              	.LC30:
 1699 023c 46525F4D 		.ascii	"FR_MKFS_ABORTED\000"
 1699      4B46535F 
 1699      41424F52 
 1699      54454400 
 1700              	.LC31:
 1701 024c 46525F54 		.ascii	"FR_TIMEOUT\000"
 1701      494D454F 
 1701      555400
 1702 0257 00       		.space	1
 1703              	.LC32:
 1704 0258 46525F4C 		.ascii	"FR_LOCKED\000"
 1704      4F434B45 
 1704      4400
 1705 0262 0000     		.space	2
 1706              	.LC33:
 1707 0264 46525F4E 		.ascii	"FR_NOT_ENOUGH_CORE\000"
 1707      4F545F45 
 1707      4E4F5547 
 1707      485F434F 
 1707      524500
 1708 0277 00       		.space	1
 1709              	.LC34:
 1710 0278 46525F54 		.ascii	"FR_TOO_MANY_OPEN_FILES\000"
 1710      4F4F5F4D 
 1710      414E595F 
 1710      4F50454E 
 1710      5F46494C 
 1711 028f 00       		.space	1
 1712              	.LC35:
 1713 0290 46525F49 		.ascii	"FR_INVALID_PARAMETER\000"
 1713      4E56414C 
 1713      49445F50 
ARM GAS  /tmp/ccXd7oms.s 			page 33


 1713      4152414D 
 1713      45544552 
 1714              		.text
 1715              	.Letext0:
 1716              		.file 4 "/home/sbcu/Dropbox/pcb-layouts/axo-on-discovery-board/axoloti/platform_linux/arm-none-eab
 1717              		.file 5 "/home/sbcu/Dropbox/pcb-layouts/axo-on-discovery-board/axoloti/platform_linux/arm-none-eab
 1718              		.file 6 "/home/sbcu/Dropbox/pcb-layouts/axo-on-discovery-board/axoloti/platform_linux/../chibios/o
 1719              		.file 7 "/home/sbcu/Dropbox/pcb-layouts/axo-on-discovery-board/axoloti/platform_linux/../chibios/o
 1720              		.file 8 "/home/sbcu/Dropbox/pcb-layouts/axo-on-discovery-board/axoloti/platform_linux/../chibios/o
 1721              		.file 9 "/home/sbcu/Dropbox/pcb-layouts/axo-on-discovery-board/axoloti/platform_linux/../chibios/o
 1722              		.file 10 "/home/sbcu/Dropbox/pcb-layouts/axo-on-discovery-board/axoloti/platform_linux/../chibios/
 1723              		.file 11 "/home/sbcu/Dropbox/pcb-layouts/axo-on-discovery-board/axoloti/platform_linux/../chibios/
 1724              		.file 12 "exceptions.h"
 1725              		.file 13 "/home/sbcu/Dropbox/pcb-layouts/axo-on-discovery-board/axoloti/platform_linux/../chibios/
 1726              		.file 14 "pconnection.h"
 1727              		.file 15 "codec.h"