ARM GAS  /tmp/cc0VH8yu.s 			page 1


   1              		.syntax unified
   2              		.cpu cortex-m4
   3              		.eabi_attribute 27, 1
   4              		.eabi_attribute 28, 1
   5              		.fpu fpv4-sp-d16
   6              		.eabi_attribute 20, 1
   7              		.eabi_attribute 21, 1
   8              		.eabi_attribute 23, 3
   9              		.eabi_attribute 24, 1
  10              		.eabi_attribute 25, 1
  11              		.eabi_attribute 26, 1
  12              		.eabi_attribute 30, 2
  13              		.eabi_attribute 34, 1
  14              		.eabi_attribute 18, 4
  15              		.thumb
  16              		.file	"exciter.cpp"
  17              		.text
  18              	.Ltext0:
  19              		.cfi_sections	.debug_frame
  20              		.align	2
  21              		.p2align 4,,15
  22              		.global	_ZN8elements7Exciter27ProcessGranularSamplePlayerEhPfj
  23              		.thumb
  24              		.thumb_func
  25              		.type	_ZN8elements7Exciter27ProcessGranularSamplePlayerEhPfj, %function
  26              	_ZN8elements7Exciter27ProcessGranularSamplePlayerEhPfj:
  27              		.fnstart
  28              	.LFB635:
  29              		.file 1 "./mutable_instruments/elements/dsp/exciter.cpp"
  30              		.loc 1 86 0
  31              		.cfi_startproc
  32              		@ args = 0, pretend = 0, frame = 0
  33              		@ frame_needed = 0, uses_anonymous_args = 0
  34              	.LVL0:
  35              	.LBB135:
  36              		.loc 1 90 0
  37 0000 D0ED022A 		flds	s5, [r0, #8]
  38 0004 9FED423A 		flds	s6, .L8
  39 0008 DFED427A 		flds	s15, .L8+4
  40              	.LBB136:
  41              	.LBB137:
  42              		.file 2 "./mutable_instruments/stmlib/dsp/units.h"
  43              		.loc 2 41 0
  44 000c 9FED424A 		flds	s8, .L8+8
  45              	.LBE137:
  46              	.LBE136:
  47              		.loc 1 88 0
  48 0010 90ED015A 		flds	s10, [r0, #4]
  49 0014 DFED413A 		flds	s7, .L8+12
  50              		.loc 1 95 0
  51 0018 90ED0C7A 		flds	s14, [r0, #48]
  52 001c DFED406A 		flds	s13, .L8+16
  53              		.loc 1 90 0
  54 0020 DFED404A 		flds	s9, .L8+20
  55              		.loc 1 92 0
  56 0024 4049     		ldr	r1, .L8+24
  57              	.LVL1:
ARM GAS  /tmp/cc0VH8yu.s 			page 2


  58              	.LBB142:
  59              		.loc 1 100 0
  60 0026 DFED415A 		flds	s11, .L8+28
  61              		.loc 1 103 0
  62 002a 9FED416A 		flds	s12, .L8+32
  63              		.loc 1 105 0
  64 002e DFF810C1 		ldr	ip, .L8+48
  65              	.LBE142:
  66              		.loc 1 90 0
  67 0032 E2EE837A 		vfma.f32	s15, s5, s6
  68              	.LBE135:
  69              		.loc 1 86 0
  70 0036 2DE9F04F 		push	{r4, r5, r6, r7, r8, r9, r10, fp, lr}
  71              		.cfi_def_cfa_offset 36
  72              		.cfi_offset 4, -36
  73              		.cfi_offset 5, -32
  74              		.cfi_offset 6, -28
  75              		.cfi_offset 7, -24
  76              		.cfi_offset 8, -20
  77              		.cfi_offset 9, -16
  78              		.cfi_offset 10, -12
  79              		.cfi_offset 11, -8
  80              		.cfi_offset 14, -4
  81              	.LBB158:
  82              	.LBB151:
  83              	.LBB138:
  84              		.loc 2 41 0
  85 003a 77EE847A 		fadds	s15, s15, s8
  86              	.LBE138:
  87              	.LBE151:
  88              		.loc 1 88 0
  89 003e 25EE235A 		fmuls	s10, s10, s7
  90              		.loc 1 95 0
  91 0042 67EE266A 		fmuls	s13, s14, s13
  92              		.loc 1 88 0
  93 0046 BCEEC55A 		ftouizs	s10, s10
  94              	.LBB152:
  95              	.LBB139:
  96              		.loc 2 42 0
  97 004a BDEEE77A 		ftosizs	s14, s15
  98              	.LBE139:
  99              	.LBE152:
 100              		.loc 1 88 0
 101 004e 15EE10AA 		fmrs	r10, s10	@ int
 102              	.LBB153:
 103              	.LBB140:
 104              		.loc 2 42 0
 105 0052 B8EEC75A 		fsitos	s10, s14
 106              		.loc 2 44 0
 107 0056 17EE109A 		fmrs	r9, s14	@ int
 108              		.loc 2 42 0
 109 005a 77EEC57A 		fsubs	s15, s15, s10
 110              		.loc 2 44 0
 111 005e 354F     		ldr	r7, .L8+36
 112              		.loc 2 45 0
 113 0060 354E     		ldr	r6, .L8+40
 114              	.LBE140:
ARM GAS  /tmp/cc0VH8yu.s 			page 3


 115              	.LBE153:
 116              		.loc 1 95 0
 117 0062 4D68     		ldr	r5, [r1, #4]
 118 0064 DFF8DC80 		ldr	r8, .L8+52
 119              		.loc 1 97 0
 120 0068 446B     		ldr	r4, [r0, #52]
 121 006a D8F80010 		ldr	r1, [r8]
 122              	.LBB154:
 123              	.LBB143:
 124              	.LBB144:
 125              		.file 3 "./mutable_instruments/stmlib/utils/random.h"
 126              		.loc 3 45 0
 127 006e DFF8D8E0 		ldr	lr, .L8+56
 128              	.LBE144:
 129              	.LBE143:
 130              	.LBE154:
 131              	.LBB155:
 132              	.LBB141:
 133              		.loc 2 44 0
 134 0072 FEEECC7A 		vcvt.s32.f32	s15, s15, #8
 135 0076 07EB8907 		add	r7, r7, r9, lsl #2
 136              		.loc 2 45 0
 137 007a 97ED007A 		flds	s14, [r7]
 138 007e 17EE907A 		fmrs	r7, s15	@ int
 139 0082 06EB8706 		add	r6, r6, r7, lsl #2
 140 0086 D6ED007A 		flds	s15, [r6]
 141 008a 67EE277A 		fmuls	s15, s14, s15
 142              	.LBE141:
 143              	.LBE155:
 144              		.loc 1 95 0
 145 008e FCEEE66A 		ftouizs	s13, s13
 146              		.loc 1 90 0
 147 0092 67EEA47A 		fmuls	s15, s15, s9
 148              		.loc 1 95 0
 149 0096 16EE906A 		fmrs	r6, s13	@ int
 150              		.loc 1 90 0
 151 009a FCEEE77A 		ftouizs	s15, s15
 152              		.loc 1 88 0
 153 009e 4FEA4A4A 		lsl	r10, r10, #17
 154              	.LVL2:
 155              		.loc 1 95 0
 156 00a2 05EB4605 		add	r5, r5, r6, lsl #1
 157              		.loc 1 90 0
 158 00a6 17EE909A 		fmrs	r9, s15	@ int
 159              	.LVL3:
 160              		.loc 1 98 0
 161 00aa 1DE0     		b	.L2
 162              	.LVL4:
 163              	.L4:
 164              	.LBB156:
 165              		.loc 1 101 0
 166 00ac 35F91610 		ldrsh	r1, [r5, r6, lsl #1]
 167 00b0 07EE901A 		fmsr	s15, r1	@ int
 168              		.loc 1 102 0
 169 00b4 BBF90210 		ldrsh	r1, [fp, #2]
 170 00b8 06EE901A 		fmsr	s13, r1	@ int
 171              		.loc 1 101 0
ARM GAS  /tmp/cc0VH8yu.s 			page 4


 172 00bc F8EEE77A 		fsitos	s15, s15
 173              	.LVL5:
 174              		.loc 1 102 0
 175 00c0 F8EEE66A 		fsitos	s13, s13
 176              		.loc 1 100 0
 177 00c4 B8EEC77A 		fsitos	s14, s14
 178              		.loc 1 103 0
 179 00c8 76EEE76A 		fsubs	s13, s13, s15
 180              		.loc 1 100 0
 181 00cc 27EE257A 		fmuls	s14, s14, s11
 182              	.LBB148:
 183              	.LBB145:
 184              		.loc 3 45 0
 185 00d0 1A49     		ldr	r1, .L8+44
 186              	.LBE145:
 187              	.LBE148:
 188              		.loc 1 103 0
 189 00d2 E6EE877A 		vfma.f32	s15, s13, s14
 190              	.LVL6:
 191              	.LBB149:
 192              	.LBB146:
 193              		.loc 3 45 0
 194 00d6 3944     		add	r1, r1, r7
 195              	.LBE146:
 196              	.LBE149:
 197              		.loc 1 105 0
 198 00d8 6145     		cmp	r1, ip
 199              		.loc 1 104 0
 200 00da 4C44     		add	r4, r4, r9
 201              	.LVL7:
 202              		.loc 1 103 0
 203 00dc 67EE867A 		fmuls	s15, s15, s12
 204              		.loc 1 106 0
 205 00e0 98BF     		it	ls
 206 00e2 5446     		movls	r4, r10
 207              		.loc 1 103 0
 208 00e4 E2EC017A 		fstmias	r2!, {s15}
 209              	.LVL8:
 210              	.L2:
 211              		.loc 1 100 0
 212 00e8 C4F31007 		ubfx	r7, r4, #0, #17
 213              		.loc 1 99 0
 214 00ec 660C     		lsrs	r6, r4, #17
 215              	.LVL9:
 216              	.LBE156:
 217              		.loc 1 98 0
 218 00ee 13F1FF33 		adds	r3, r3, #-1
 219              	.LVL10:
 220              	.LBB157:
 221              		.loc 1 100 0
 222 00f2 07EE107A 		fmsr	s14, r7	@ int
 223              		.loc 1 102 0
 224 00f6 05EB460B 		add	fp, r5, r6, lsl #1
 225              	.LBB150:
 226              	.LBB147:
 227              		.loc 3 45 0
 228 00fa 0EFB01F7 		mul	r7, lr, r1
ARM GAS  /tmp/cc0VH8yu.s 			page 5


 229              	.LBE147:
 230              	.LBE150:
 231              	.LBE157:
 232              		.loc 1 98 0
 233 00fe D5D2     		bcs	.L4
 234              		.loc 1 110 0
 235 0100 0023     		movs	r3, #0
 236              	.LVL11:
 237 0102 C8F80010 		str	r1, [r8]
 238              		.loc 1 109 0
 239 0106 4463     		str	r4, [r0, #52]
 240              		.loc 1 110 0
 241 0108 C362     		str	r3, [r0, #44]	@ float
 242 010a BDE8F08F 		pop	{r4, r5, r6, r7, r8, r9, r10, fp, pc}
 243              	.LVL12:
 244              	.L9:
 245 010e 00BF     		.align	2
 246              	.L8:
 247 0110 00009042 		.word	1116733440
 248 0114 000070C2 		.word	-1032847360
 249 0118 00000043 		.word	1124073472
 250 011c 00FEFF46 		.word	1191181824
 251 0120 00000046 		.word	1174405120
 252 0124 00000048 		.word	1207959552
 253 0128 00000000 		.word	_ZN8elements12sample_tableE
 254 012c 00000037 		.word	922746880
 255 0130 00000038 		.word	939524096
 256 0134 00000000 		.word	_ZN6stmlib20lut_pitch_ratio_highE
 257 0138 00000000 		.word	_ZN6stmlib19lut_pitch_ratio_lowE
 258 013c 5FF36E3C 		.word	1013904223
 259 0140 275C8F02 		.word	42949671
 260 0144 00000000 		.word	_ZN6stmlib6Random10rng_state_E
 261 0148 0D661900 		.word	1664525
 262              	.LBE158:
 263              		.cfi_endproc
 264              	.LFE635:
 265              		.cantunwind
 266              		.fnend
 267              		.size	_ZN8elements7Exciter27ProcessGranularSamplePlayerEhPfj, .-_ZN8elements7Exciter27ProcessGranu
 268              		.align	2
 269 014c AFF30080 		.p2align 4,,15
 270              		.global	_ZN8elements7Exciter19ProcessSamplePlayerEhPfj
 271              		.thumb
 272              		.thumb_func
 273              		.type	_ZN8elements7Exciter19ProcessSamplePlayerEhPfj, %function
 274              	_ZN8elements7Exciter19ProcessSamplePlayerEhPfj:
 275              		.fnstart
 276              	.LFB636:
 277              		.loc 1 114 0
 278              		.cfi_startproc
 279              		@ args = 0, pretend = 0, frame = 0
 280              		@ frame_needed = 0, uses_anonymous_args = 0
 281              	.LVL13:
 282              	.LBB159:
 283              		.loc 1 115 0
 284 0150 D0ED016A 		flds	s13, [r0, #4]
 285 0154 B7EE005A 		fconsts	s10, #112
ARM GAS  /tmp/cc0VH8yu.s 			page 6


 286 0158 75EE667A 		fsubs	s15, s10, s13
 287 015c B2EE007A 		fconsts	s14, #32
 288 0160 67EE877A 		fmuls	s15, s15, s14
 289              	.LVL14:
 290              	.LBE159:
 291              		.loc 1 114 0
 292 0164 2DE9F047 		push	{r4, r5, r6, r7, r8, r9, r10, lr}
 293              		.cfi_def_cfa_offset 32
 294              		.cfi_offset 4, -32
 295              		.cfi_offset 5, -28
 296              		.cfi_offset 6, -24
 297              		.cfi_offset 7, -20
 298              		.cfi_offset 8, -16
 299              		.cfi_offset 9, -12
 300              		.cfi_offset 10, -8
 301              		.cfi_offset 14, -4
 302              	.LBB190:
 303              		.loc 1 116 0
 304 0168 BDEEE77A 		ftosizs	s14, s15
 305 016c 17EE104A 		fmrs	r4, s14	@ int
 306              	.LVL15:
 307              		.loc 1 117 0
 308 0170 082C     		cmp	r4, #8
 309 0172 00F0D080 		beq	.L22
 310              		.loc 1 116 0
 311 0176 B8EEC75A 		fsitos	s10, s14
 312              	.LVL16:
 313 017a 04F1010C 		add	ip, r4, #1
 314 017e 37EEC55A 		fsubs	s10, s15, s10
 315              	.LVL17:
 316 0182 A61C     		adds	r6, r4, #2
 317              	.LVL18:
 318              	.L11:
 319              		.loc 1 127 0
 320 0184 9FED667A 		flds	s14, .L36
 321 0188 D0ED023A 		flds	s7, [r0, #8]
 322 018c DFED657A 		flds	s15, .L36+4
 323              	.LVL19:
 324              	.LBB160:
 325              	.LBB161:
 326              		.loc 2 41 0
 327 0190 9FED654A 		flds	s8, .L36+8
 328              	.LBE161:
 329              	.LBE160:
 330              		.loc 1 122 0
 331 0194 DFF8B4E1 		ldr	lr, .L36+44
 332              	.LBB167:
 333              	.LBB162:
 334              		.loc 2 44 0
 335 0198 644F     		ldr	r7, .L36+12
 336              	.LBE162:
 337              	.LBE167:
 338              		.loc 1 123 0
 339 019a 5EF82C80 		ldr	r8, [lr, ip, lsl #2]
 340              	.LBB168:
 341              	.LBB163:
 342              		.loc 2 45 0
ARM GAS  /tmp/cc0VH8yu.s 			page 7


 343 019e 644D     		ldr	r5, .L36+16
 344              	.LBE163:
 345              	.LBE168:
 346              		.loc 1 127 0
 347 01a0 9FED646A 		flds	s12, .L36+20
 348 01a4 5EF82660 		ldr	r6, [lr, r6, lsl #2]
 349              		.loc 1 129 0
 350 01a8 D0ED084A 		flds	s9, [r0, #32]
 351              		.loc 1 134 0
 352 01ac DFED625A 		flds	s11, .L36+24
 353              		.loc 1 122 0
 354 01b0 5EF824E0 		ldr	lr, [lr, r4, lsl #2]
 355              	.LVL20:
 356              		.loc 1 130 0
 357 01b4 446B     		ldr	r4, [r0, #52]
 358              	.LVL21:
 359              		.loc 1 127 0
 360 01b6 E3EE877A 		vfma.f32	s15, s7, s14
 361              		.loc 1 132 0
 362 01ba 01F0010C 		and	ip, r1, #1
 363              		.loc 1 134 0
 364 01be BCF1000F 		cmp	ip, #0
 365 01c2 06F1FF36 		add	r6, r6, #-1
 366              		.loc 1 127 0
 367 01c6 B0EE677A 		fcpys	s14, s15
 368 01ca F1EE0C7A 		fconsts	s15, #28
 369 01ce 77EE277A 		fadds	s15, s14, s15
 370 01d2 08F1FF39 		add	r9, r8, #-1
 371              	.LBB169:
 372              	.LBB164:
 373              		.loc 2 41 0
 374 01d6 77EE847A 		fadds	s15, s15, s8
 375              	.LBE164:
 376              	.LBE169:
 377              		.loc 1 134 0
 378 01da 18BF     		it	ne
 379 01dc F0EE654A 		fcpysne	s9, s11
 380              	.LBB170:
 381              	.LBB165:
 382              		.loc 2 42 0
 383 01e0 BDEEE77A 		ftosizs	s14, s15
 384              	.LBE165:
 385              	.LBE170:
 386              		.loc 1 134 0
 387 01e4 18BF     		it	ne
 388 01e6 0024     		movne	r4, #0
 389              	.LBB171:
 390              	.LBB166:
 391              		.loc 2 42 0
 392 01e8 B8EEC74A 		fsitos	s8, s14
 393              		.loc 2 44 0
 394 01ec 17EE10CA 		fmrs	ip, s14	@ int
 395              		.loc 2 42 0
 396 01f0 77EEC47A 		fsubs	s15, s15, s8
 397              		.loc 2 44 0
 398 01f4 07EB8C0C 		add	ip, r7, ip, lsl #2
 399 01f8 FEEECC7A 		vcvt.s32.f32	s15, s15, #8
ARM GAS  /tmp/cc0VH8yu.s 			page 8


 400              		.loc 2 45 0
 401 01fc 9CED007A 		flds	s14, [ip]
 402 0200 17EE90CA 		fmrs	ip, s15	@ int
 403 0204 05EB8C05 		add	r5, r5, ip, lsl #2
 404 0208 D5ED007A 		flds	s15, [r5]
 405 020c 67EE277A 		fmuls	s15, s14, s15
 406              	.LBE166:
 407              	.LBE171:
 408              		.loc 1 136 0
 409 0210 4907     		lsls	r1, r1, #29
 410              	.LVL22:
 411              		.loc 1 127 0
 412 0212 67EE867A 		fmuls	s15, s15, s12
 413              		.loc 1 125 0
 414 0216 C8EB0606 		rsb	r6, r8, r6
 415              		.loc 1 127 0
 416 021a FCEEE77A 		ftouizs	s15, s15
 417              		.loc 1 124 0
 418 021e CEEB0907 		rsb	r7, lr, r9
 419              	.LVL23:
 420              		.loc 1 127 0
 421 0222 17EE90CA 		fmrs	ip, s15	@ int
 422              	.LVL24:
 423              		.loc 1 136 0
 424 0226 09D4     		bmi	.L13
 425              		.loc 1 137 0
 426 0228 F7EE007A 		fconsts	s15, #112
 427              	.LVL25:
 428 022c 77EEE44A 		fsubs	s9, s15, s9
 429              	.LVL26:
 430 0230 9FED427A 		flds	s14, .L36+28
 431 0234 E4EEC77A 		vfms.f32	s15, s9, s14
 432              	.LVL27:
 433 0238 F0EE674A 		fcpys	s9, s15
 434              	.LVL28:
 435              	.L13:
 436              		.loc 1 140 0
 437 023c 404D     		ldr	r5, .L36+32
 438              		.loc 1 142 0
 439 023e 591E     		subs	r1, r3, #1
 440              		.loc 1 140 0
 441 0240 2D68     		ldr	r5, [r5]
 442              	.LVL29:
 443              		.loc 1 142 0
 444 0242 002B     		cmp	r3, #0
 445 0244 44D0     		beq	.L14
 446              	.LBB172:
 447              		.loc 1 144 0
 448 0246 DFED3F5A 		flds	s11, .L36+36
 449              	.LVL30:
 450              	.L17:
 451 024a A3B2     		uxth	r3, r4
 452 024c 06EE903A 		fmsr	s13, r3	@ int
 453              		.loc 1 143 0
 454 0250 230C     		lsrs	r3, r4, #16
 455              	.LVL31:
 456              		.loc 1 144 0
ARM GAS  /tmp/cc0VH8yu.s 			page 9


 457 0252 F8EEE66A 		fsitos	s13, s13
 458              	.LBB173:
 459              	.LBB174:
 460              		.loc 1 149 0
 461 0256 03EB0E09 		add	r9, r3, lr
 462              	.LBE174:
 463              		.loc 1 148 0
 464 025a 9F42     		cmp	r7, r3
 465              	.LBB175:
 466              		.loc 1 149 0
 467 025c 05EB490A 		add	r10, r5, r9, lsl #1
 468              	.LVL32:
 469              	.LBE175:
 470              	.LBE173:
 471              		.loc 1 144 0
 472 0260 66EEA56A 		fmuls	s13, s13, s11
 473              	.LVL33:
 474              	.LBB179:
 475              		.loc 1 148 0
 476 0264 4DD9     		bls	.L15
 477              	.LBB176:
 478              		.loc 1 150 0
 479 0266 35F91990 		ldrsh	r9, [r5, r9, lsl #1]
 480              	.LBE176:
 481              	.LBE179:
 482              		.loc 1 146 0
 483 026a 9FED337A 		flds	s14, .L36+24
 484              	.LBB180:
 485              	.LBB177:
 486              		.loc 1 150 0
 487 026e 07EE909A 		fmsr	s15, r9	@ int
 488              		.loc 1 151 0
 489 0272 BAF90290 		ldrsh	r9, [r10, #2]
 490 0276 06EE109A 		fmsr	s12, r9	@ int
 491              		.loc 1 150 0
 492 027a F8EEE77A 		fsitos	s15, s15
 493              	.LVL34:
 494              		.loc 1 151 0
 495 027e B8EEC66A 		fsitos	s12, s12
 496              	.LBE177:
 497              	.LBE180:
 498              	.LBB181:
 499              		.loc 1 155 0
 500 0282 9E42     		cmp	r6, r3
 501              	.LBE181:
 502              	.LBB183:
 503              	.LBB178:
 504              		.loc 1 152 0
 505 0284 36EE676A 		fsubs	s12, s12, s15
 506 0288 E6EE267A 		vfma.f32	s15, s12, s13
 507              	.LVL35:
 508              	.LBE178:
 509              	.LBE183:
 510              	.LBB184:
 511              		.loc 1 155 0
 512 028c 12D9     		bls	.L16
 513              	.LVL36:
ARM GAS  /tmp/cc0VH8yu.s 			page 10


 514              	.L20:
 515              	.LBB182:
 516              		.loc 1 156 0
 517 028e 4344     		add	r3, r3, r8
 518              	.LVL37:
 519 0290 05EB4309 		add	r9, r5, r3, lsl #1
 520              	.LVL38:
 521              		.loc 1 157 0
 522 0294 35F91330 		ldrsh	r3, [r5, r3, lsl #1]
 523 0298 07EE103A 		fmsr	s14, r3	@ int
 524              		.loc 1 158 0
 525 029c B9F90230 		ldrsh	r3, [r9, #2]
 526 02a0 06EE103A 		fmsr	s12, r3	@ int
 527              		.loc 1 157 0
 528 02a4 B8EEC77A 		fsitos	s14, s14
 529              	.LVL39:
 530              		.loc 1 158 0
 531 02a8 B8EEC66A 		fsitos	s12, s12
 532              		.loc 1 159 0
 533 02ac 36EE476A 		fsubs	s12, s12, s14
 534 02b0 A6EE267A 		vfma.f32	s14, s12, s13
 535              	.LVL40:
 536              	.L16:
 537              	.LBE182:
 538              	.LBE184:
 539              		.loc 1 163 0
 540 02b4 6444     		add	r4, r4, ip
 541              	.LVL41:
 542              	.L21:
 543              	.LBE172:
 544              		.loc 1 142 0
 545 02b6 0139     		subs	r1, r1, #1
 546              	.LVL42:
 547              	.LBB187:
 548              		.loc 1 166 0
 549 02b8 37EE677A 		fsubs	s14, s14, s15
 550              	.LBE187:
 551              		.loc 1 142 0
 552 02bc 4B1C     		adds	r3, r1, #1
 553              	.LBB188:
 554              		.loc 1 166 0
 555 02be E7EE057A 		vfma.f32	s15, s14, s10
 556 02c2 67EEA57A 		fmuls	s15, s15, s11
 557 02c6 E2EC017A 		fstmias	r2!, {s15}
 558              	.LVL43:
 559              	.LBE188:
 560              		.loc 1 142 0
 561 02ca BED1     		bne	.L17
 562 02cc D0ED016A 		flds	s13, [r0, #4]
 563              	.LVL44:
 564              	.L14:
 565              		.loc 1 169 0
 566 02d0 DFED1D7A 		flds	s15, .L36+40
 567              		.loc 1 170 0
 568 02d4 C0ED084A 		fsts	s9, [r0, #32]
 569              		.loc 1 169 0
 570 02d8 F4EEE76A 		fcmpes	s13, s15
ARM GAS  /tmp/cc0VH8yu.s 			page 11


 571 02dc F1EE10FA 		fmstat
 572 02e0 A2BF     		ittt	ge
 573 02e2 F9EE007A 		fconstsge	s15, #144
 574 02e6 B1EE047A 		fconstsge	s14, #20
 575 02ea E6EE877A 		vfmage.f32	s15, s13, s14
 576              		.loc 1 168 0
 577 02ee 4463     		str	r4, [r0, #52]
 578              		.loc 1 169 0
 579 02f0 B8BF     		it	lt
 580 02f2 DFED117A 		fldslt	s15, .L36+24
 581 02f6 67EEA44A 		fmuls	s9, s15, s9
 582              	.LVL45:
 583 02fa C0ED0B4A 		fsts	s9, [r0, #44]
 584 02fe BDE8F087 		pop	{r4, r5, r6, r7, r8, r9, r10, pc}
 585              	.LVL46:
 586              	.L15:
 587              	.LBB189:
 588              	.LBB185:
 589              		.loc 1 155 0
 590 0302 9E42     		cmp	r6, r3
 591              	.LBE185:
 592              		.loc 1 145 0
 593 0304 DFED0C7A 		flds	s15, .L36+24
 594              	.LBB186:
 595              		.loc 1 155 0
 596 0308 02D8     		bhi	.L25
 597              	.LBE186:
 598              		.loc 1 146 0
 599 030a B0EE677A 		fcpys	s14, s15
 600 030e D2E7     		b	.L21
 601              	.L25:
 602              		.loc 1 145 0
 603 0310 DFED097A 		flds	s15, .L36+24
 604 0314 BBE7     		b	.L20
 605              	.LVL47:
 606              	.L22:
 607              	.LBE189:
 608 0316 17EE10CA 		fmrs	ip, s14	@ int
 609 031a 0926     		movs	r6, #9
 610              		.loc 1 118 0
 611 031c 0724     		movs	r4, #7
 612              	.LVL48:
 613 031e 31E7     		b	.L11
 614              	.L37:
 615              		.align	2
 616              	.L36:
 617 0320 00009042 		.word	1116733440
 618 0324 000010C2 		.word	-1039138816
 619 0328 00000043 		.word	1124073472
 620 032c 00000000 		.word	_ZN6stmlib20lut_pitch_ratio_highE
 621 0330 00000000 		.word	_ZN6stmlib19lut_pitch_ratio_lowE
 622 0334 00008047 		.word	1199570944
 623 0338 00000000 		.word	0
 624 033c 3333733F 		.word	1064514355
 625 0340 00000000 		.word	_ZN8elements12sample_tableE
 626 0344 00008037 		.word	931135488
 627 0348 CDCC4C3F 		.word	1061997773
ARM GAS  /tmp/cc0VH8yu.s 			page 12


 628 034c 00000000 		.word	_ZN8elements14smp_boundariesE
 629              	.LBE190:
 630              		.cfi_endproc
 631              	.LFE636:
 632              		.cantunwind
 633              		.fnend
 634              		.size	_ZN8elements7Exciter19ProcessSamplePlayerEhPfj, .-_ZN8elements7Exciter19ProcessSamplePlayerE
 635              		.align	2
 636              		.p2align 4,,15
 637              		.global	_ZN8elements7Exciter13ProcessMalletEhPfj
 638              		.thumb
 639              		.thumb_func
 640              		.type	_ZN8elements7Exciter13ProcessMalletEhPfj, %function
 641              	_ZN8elements7Exciter13ProcessMalletEhPfj:
 642              		.fnstart
 643              	.LFB637:
 644              		.loc 1 173 0
 645              		.cfi_startproc
 646              		@ args = 0, pretend = 0, frame = 0
 647              		@ frame_needed = 0, uses_anonymous_args = 0
 648              		@ link register save eliminated.
 649              	.LVL49:
 650              		.loc 1 174 0
 651 0350 02EB8303 		add	r3, r2, r3, lsl #2
 652              	.LVL50:
 653              	.LBB191:
 654              	.LBB192:
 655              	.LBB193:
 656              		.file 4 "/home/sbcu/Dropbox/pcb-layouts/axo-on-discovery-board/axoloti/platform_linux/arm-none-eab
 657              		.loc 4 703 0
 658 0354 9A42     		cmp	r2, r3
 659              	.LBE193:
 660              	.LBE192:
 661              	.LBE191:
 662              		.loc 1 173 0
 663 0356 30B4     		push	{r4, r5}
 664              		.cfi_def_cfa_offset 8
 665              		.cfi_offset 4, -8
 666              		.cfi_offset 5, -4
 667              	.LBB196:
 668              	.LBB195:
 669              	.LBB194:
 670              		.loc 4 703 0
 671 0358 05D0     		beq	.L43
 672              		.loc 4 704 0
 673 035a 0025     		movs	r5, #0
 674              		.loc 4 703 0
 675 035c 1446     		mov	r4, r2
 676              	.LVL51:
 677              	.L42:
 678              		.loc 4 704 0
 679 035e 44F8045B 		str	r5, [r4], #4	@ float
 680              	.LVL52:
 681              		.loc 4 703 0
 682 0362 A342     		cmp	r3, r4
 683 0364 FBD1     		bne	.L42
 684              	.LVL53:
ARM GAS  /tmp/cc0VH8yu.s 			page 13


 685              	.L43:
 686              	.LBE194:
 687              	.LBE195:
 688              	.LBE196:
 689              		.loc 1 175 0
 690 0366 CC07     		lsls	r4, r1, #31
 691 0368 10D5     		bpl	.L41
 692              	.LBB197:
 693              	.LBB198:
 694              		.loc 1 59 0
 695 036a D0ED027A 		flds	s15, [r0, #8]
 696 036e 9FED177A 		flds	s14, .L49
 697              		.loc 1 60 0
 698 0372 174B     		ldr	r3, .L49+4
 699              	.LVL54:
 700              		.loc 1 59 0
 701 0374 67EE877A 		fmuls	s15, s15, s14
 702              	.LBE198:
 703              	.LBE197:
 704              		.loc 1 176 0
 705 0378 0024     		movs	r4, #0
 706              	.LBB201:
 707              	.LBB199:
 708              		.loc 1 59 0
 709 037a FCEEE77A 		ftouizs	s15, s15
 710              	.LBE199:
 711              	.LBE201:
 712              		.loc 1 176 0
 713 037e 0462     		str	r4, [r0, #32]	@ float
 714              	.LVL55:
 715              	.LBB202:
 716              	.LBB200:
 717              		.loc 1 60 0
 718 0380 17EE904A 		fmrs	r4, s15	@ int
 719 0384 03EB8403 		add	r3, r3, r4, lsl #2
 720 0388 1B68     		ldr	r3, [r3]	@ float
 721              	.LBE200:
 722              	.LBE202:
 723              		.loc 1 177 0
 724 038a 1360     		str	r3, [r2]	@ float
 725              	.LVL56:
 726              	.L41:
 727              		.loc 1 179 0
 728 038c 4B07     		lsls	r3, r1, #29
 729 038e 19D4     		bmi	.L48
 730              		.loc 1 180 0
 731 0390 90ED087A 		flds	s14, [r0, #32]
 732 0394 DFED0F6A 		flds	s13, .L49+8
 733 0398 F7EE007A 		fconsts	s15, #112
 734 039c 37EEC77A 		fsubs	s14, s15, s14
 735 03a0 E7EE667A 		vfms.f32	s15, s14, s13
 736 03a4 F0EE676A 		fcpys	s13, s15
 737 03a8 C0ED087A 		fsts	s15, [r0, #32]
 738              	.L45:
 739              		.loc 1 182 0
 740 03ac D0ED017A 		flds	s15, [r0, #4]
 741 03b0 B7EE007A 		fconsts	s14, #112
ARM GAS  /tmp/cc0VH8yu.s 			page 14


 742 03b4 37EE677A 		fsubs	s14, s14, s15
 743              		.loc 1 183 0
 744 03b8 30BC     		pop	{r4, r5}
 745              		.cfi_remember_state
 746              		.cfi_restore 5
 747              		.cfi_restore 4
 748              		.cfi_def_cfa_offset 0
 749              		.loc 1 182 0
 750 03ba 67EE267A 		fmuls	s15, s14, s13
 751 03be C0ED0B7A 		fsts	s15, [r0, #44]
 752              		.loc 1 183 0
 753 03c2 7047     		bx	lr
 754              	.L48:
 755              		.cfi_restore_state
 756 03c4 D0ED086A 		flds	s13, [r0, #32]
 757 03c8 F0E7     		b	.L45
 758              	.L50:
 759 03ca 00BF     		.align	2
 760              	.L49:
 761 03cc 00008043 		.word	1132462080
 762 03d0 00000000 		.word	_ZN8elements19lut_approx_svf_gainE
 763 03d4 3333733F 		.word	1064514355
 764              		.cfi_endproc
 765              	.LFE637:
 766              		.cantunwind
 767              		.fnend
 768              		.size	_ZN8elements7Exciter13ProcessMalletEhPfj, .-_ZN8elements7Exciter13ProcessMalletEhPfj
 769              		.align	2
 770 03d8 AFF30080 		.p2align 4,,15
 770      AFF30080 
 771              		.global	_ZN8elements7Exciter15ProcessPlectrumEhPfj
 772              		.thumb
 773              		.thumb_func
 774              		.type	_ZN8elements7Exciter15ProcessPlectrumEhPfj, %function
 775              	_ZN8elements7Exciter15ProcessPlectrumEhPfj:
 776              		.fnstart
 777              	.LFB638:
 778              		.loc 1 188 0
 779              		.cfi_startproc
 780              		@ args = 0, pretend = 0, frame = 0
 781              		@ frame_needed = 0, uses_anonymous_args = 0
 782              	.LVL57:
 783              	.LBB203:
 784              	.LBB204:
 785              	.LBB205:
 786              		.loc 1 59 0
 787 03e0 90ED027A 		flds	s14, [r0, #8]
 788 03e4 DFED2C6A 		flds	s13, .L65
 789              	.LBE205:
 790              	.LBE204:
 791              		.loc 1 190 0
 792 03e8 D0ED087A 		flds	s15, [r0, #32]
 793              	.LBB209:
 794              	.LBB206:
 795              		.loc 1 59 0
 796 03ec 27EE267A 		fmuls	s14, s14, s13
 797              	.LBE206:
ARM GAS  /tmp/cc0VH8yu.s 			page 15


 798              	.LBE209:
 799              	.LBE203:
 800              		.loc 1 188 0
 801 03f0 10B5     		push	{r4, lr}
 802              		.cfi_def_cfa_offset 8
 803              		.cfi_offset 4, -8
 804              		.cfi_offset 14, -4
 805              	.LBB212:
 806              	.LBB210:
 807              	.LBB207:
 808              		.loc 1 59 0
 809 03f2 BCEEC77A 		ftouizs	s14, s14
 810              		.loc 1 60 0
 811 03f6 294C     		ldr	r4, .L65+4
 812 03f8 17EE10EA 		fmrs	lr, s14	@ int
 813              	.LBE207:
 814              	.LBE210:
 815              		.loc 1 192 0
 816 03fc C907     		lsls	r1, r1, #31
 817              	.LVL58:
 818              	.LBB211:
 819              	.LBB208:
 820              		.loc 1 60 0
 821 03fe 04EB8E04 		add	r4, r4, lr, lsl #2
 822 0402 94ED006A 		flds	s12, [r4]
 823              	.LVL59:
 824              	.LBE208:
 825              	.LBE211:
 826              		.loc 1 192 0
 827 0406 44D5     		bpl	.L58
 828              		.loc 1 195 0
 829 0408 D0ED016A 		flds	s13, [r0, #4]
 830 040c DFED245A 		flds	s11, .L65+8
 831              		.loc 1 193 0
 832 0410 D0ED0C4A 		flds	s9, [r0, #48]
 833 0414 9FED235A 		flds	s10, .L65+12
 834 0418 9FED237A 		flds	s14, .L65+16
 835              		.loc 1 195 0
 836 041c 66EEA55A 		fmuls	s11, s13, s11
 837              		.loc 1 193 0
 838 0420 A4EE857A 		vfma.f32	s14, s9, s10
 839              		.loc 1 195 0
 840 0424 66EEA56A 		fmuls	s13, s13, s11
 841              		.loc 1 193 0
 842 0428 26EE477A 		fnmuls	s14, s12, s14
 843              	.LVL60:
 844              		.loc 1 195 0
 845 042c FCEEE66A 		ftouizs	s13, s13
 846 0430 16EE901A 		fmrs	r1, s13	@ int
 847 0434 4031     		adds	r1, r1, #64
 848 0436 C163     		str	r1, [r0, #60]
 849              	.LVL61:
 850              	.L52:
 851              		.loc 1 197 0
 852 0438 591E     		subs	r1, r3, #1
 853              	.LVL62:
 854 043a 0BB3     		cbz	r3, .L53
ARM GAS  /tmp/cc0VH8yu.s 			page 16


 855              		.loc 1 205 0
 856 043c 9FED1B5A 		flds	s10, .L65+20
 857              		.loc 1 203 0
 858 0440 DFED1B5A 		flds	s11, .L65+24
 859 0444 F7EE006A 		fconsts	s13, #112
 860 0448 13E0     		b	.L57
 861              	.LVL63:
 862              	.L64:
 863 044a 76EEE77A 		fsubs	s15, s13, s15
 864              	.LVL64:
 865 044e F0EE664A 		fcpys	s9, s13
 866 0452 E7EEE54A 		vfms.f32	s9, s15, s11
 867              		.loc 1 201 0
 868 0456 002C     		cmp	r4, #0
 869              		.loc 1 199 0
 870 0458 C463     		str	r4, [r0, #60]
 871              		.loc 1 201 0
 872 045a 08BF     		it	eq
 873 045c B0EE467A 		fcpyseq	s14, s12
 874              	.LVL65:
 875              		.loc 1 203 0
 876 0460 F0EE647A 		fcpys	s15, s9
 877              	.LVL66:
 878              	.L56:
 879              		.loc 1 197 0
 880 0464 0139     		subs	r1, r1, #1
 881              	.LVL67:
 882 0466 4B1C     		adds	r3, r1, #1
 883              		.loc 1 207 0
 884 0468 A2EC017A 		fstmias	r2!, {s14}
 885              	.LVL68:
 886              		.loc 1 208 0
 887 046c 9FED117A 		flds	s14, .L65+28
 888              		.loc 1 197 0
 889 0470 06D0     		beq	.L53
 890              	.LVL69:
 891              	.L57:
 892              		.loc 1 198 0
 893 0472 C36B     		ldr	r3, [r0, #60]
 894              		.loc 1 199 0
 895 0474 5C1E     		subs	r4, r3, #1
 896              		.loc 1 198 0
 897 0476 002B     		cmp	r3, #0
 898 0478 E7D1     		bne	.L64
 899              		.loc 1 205 0
 900 047a 67EE857A 		fmuls	s15, s15, s10
 901              	.LVL70:
 902 047e F1E7     		b	.L56
 903              	.LVL71:
 904              	.L53:
 905              		.loc 1 210 0
 906 0480 B6EE007A 		fconsts	s14, #96
 907 0484 27EE877A 		fmuls	s14, s15, s14
 908              		.loc 1 211 0
 909 0488 C0ED087A 		fsts	s15, [r0, #32]
 910              		.loc 1 210 0
 911 048c 80ED0B7A 		fsts	s14, [r0, #44]
ARM GAS  /tmp/cc0VH8yu.s 			page 17


 912 0490 10BD     		pop	{r4, pc}
 913              	.LVL72:
 914              	.L58:
 915              		.loc 1 191 0
 916 0492 9FED087A 		flds	s14, .L65+28
 917 0496 CFE7     		b	.L52
 918              	.L66:
 919              		.align	2
 920              	.L65:
 921 0498 00008043 		.word	1132462080
 922 049c 00000000 		.word	_ZN8elements19lut_approx_svf_gainE
 923 04a0 00008045 		.word	1166016512
 924 04a4 CDCC4C3E 		.word	1045220557
 925 04a8 CDCC4C3D 		.word	1028443341
 926 04ac 6666663F 		.word	1063675494
 927 04b0 643B7F3F 		.word	1065302884
 928 04b4 00000000 		.word	0
 929              	.LBE212:
 930              		.cfi_endproc
 931              	.LFE638:
 932              		.cantunwind
 933              		.fnend
 934              		.size	_ZN8elements7Exciter15ProcessPlectrumEhPfj, .-_ZN8elements7Exciter15ProcessPlectrumEhPfj
 935              		.align	2
 936 04b8 AFF30080 		.p2align 4,,15
 936      AFF30080 
 937              		.global	_ZN8elements7Exciter11ProcessFlowEhPfj
 938              		.thumb
 939              		.thumb_func
 940              		.type	_ZN8elements7Exciter11ProcessFlowEhPfj, %function
 941              	_ZN8elements7Exciter11ProcessFlowEhPfj:
 942              		.fnstart
 943              	.LFB640:
 944              		.loc 1 262 0
 945              		.cfi_startproc
 946              		@ args = 0, pretend = 0, frame = 0
 947              		@ frame_needed = 0, uses_anonymous_args = 0
 948              		@ link register save eliminated.
 949              	.LVL73:
 950              	.LBB213:
 951              		.loc 1 263 0
 952 04c0 D0ED017A 		flds	s15, [r0, #4]
 953              		.loc 1 264 0
 954 04c4 9FED1F6A 		flds	s12, .L81
 955              		.loc 1 263 0
 956 04c8 67EEA76A 		fmuls	s13, s15, s15
 957              		.loc 1 265 0
 958 04cc C907     		lsls	r1, r1, #31
 959              	.LVL74:
 960              		.loc 1 263 0
 961 04ce 67EEA66A 		fmuls	s13, s15, s13
 962              		.loc 1 266 0
 963 04d2 48BF     		it	mi
 964 04d4 4FF07C51 		movmi	r1, #1056964608
 965              		.loc 1 263 0
 966 04d8 67EEA66A 		fmuls	s13, s15, s13
 967              	.LVL75:
ARM GAS  /tmp/cc0VH8yu.s 			page 18


 968              		.loc 1 264 0
 969 04dc B4EE007A 		fconsts	s14, #64
 970              		.loc 1 266 0
 971 04e0 48BF     		it	mi
 972 04e2 4162     		strmi	r1, [r0, #36]	@ float
 973              		.loc 1 264 0
 974 04e4 A6EE876A 		vfma.f32	s12, s13, s14
 975              	.LVL76:
 976              		.loc 1 268 0
 977 04e8 591E     		subs	r1, r3, #1
 978              	.LVL77:
 979 04ea 53B3     		cbz	r3, .L80
 980              	.LBE213:
 981              		.loc 1 262 0
 982 04ec 70B4     		push	{r4, r5, r6}
 983              		.cfi_def_cfa_offset 12
 984              		.cfi_offset 4, -12
 985              		.cfi_offset 5, -8
 986              		.cfi_offset 6, -4
 987 04ee 164E     		ldr	r6, .L81+4
 988              	.LBB231:
 989              	.LBB214:
 990              	.LBB215:
 991              	.LBB216:
 992              	.LBB217:
 993              	.LBB218:
 994              		.loc 3 45 0
 995 04f0 164D     		ldr	r5, .L81+8
 996 04f2 3368     		ldr	r3, [r6]
 997              	.LBE218:
 998              	.LBE217:
 999              		.file 5 "./mutable_instruments/elements/dsp/exciter.h"
 1000              		.loc 5 109 0
 1001 04f4 9FED165A 		flds	s10, .L81+12
 1002              	.LBE216:
 1003              	.LBE215:
 1004              		.loc 1 273 0
 1005 04f8 F6EE005A 		fconsts	s11, #96
 1006              	.L72:
 1007              	.LVL78:
 1008              	.LBB226:
 1009              	.LBB223:
 1010              	.LBB221:
 1011              	.LBB219:
 1012              		.loc 3 45 0
 1013 04fc 05FB03F4 		mul	r4, r5, r3
 1014 0500 144B     		ldr	r3, .L81+16
 1015              	.LBE219:
 1016              	.LBE221:
 1017              	.LBE223:
 1018              	.LBE226:
 1019              		.loc 1 271 0
 1020 0502 90ED097A 		flds	s14, [r0, #36]
 1021              	.LBB227:
 1022              	.LBB224:
 1023              	.LBB222:
 1024              	.LBB220:
ARM GAS  /tmp/cc0VH8yu.s 			page 19


 1025              		.loc 3 45 0
 1026 0506 2344     		add	r3, r3, r4
 1027              	.LBE220:
 1028              	.LBE222:
 1029              		.loc 5 109 0
 1030 0508 07EE903A 		fmsr	s15, r3	@ int
 1031 050c F8EE677A 		fuitos	s15, s15
 1032              	.LBE224:
 1033              	.LBE227:
 1034              	.LBE214:
 1035              		.loc 1 268 0
 1036 0510 0139     		subs	r1, r1, #1
 1037              	.LVL79:
 1038              	.LBB229:
 1039              	.LBB228:
 1040              	.LBB225:
 1041              		.loc 5 109 0
 1042 0512 67EE857A 		fmuls	s15, s15, s10
 1043              	.LBE225:
 1044              	.LBE228:
 1045              		.loc 1 270 0
 1046 0516 B4EEE76A 		fcmpes	s12, s15
 1047 051a F1EE10FA 		fmstat
 1048              		.loc 1 273 0
 1049 051e 77EEE57A 		fsubs	s15, s15, s11
 1050              		.loc 1 271 0
 1051 0522 C8BF     		it	gt
 1052 0524 B1EE477A 		fnegsgt	s14, s14
 1053              		.loc 1 273 0
 1054 0528 77EEC77A 		fsubs	s15, s15, s14
 1055              		.loc 1 271 0
 1056 052c C8BF     		it	gt
 1057 052e 80ED097A 		fstsgt	s14, [r0, #36]
 1058              		.loc 1 273 0
 1059 0532 A7EEA67A 		vfma.f32	s14, s15, s13
 1060              	.LBE229:
 1061              		.loc 1 268 0
 1062 0536 4C1C     		adds	r4, r1, #1
 1063              	.LBB230:
 1064              		.loc 1 273 0
 1065 0538 A2EC017A 		fstmias	r2!, {s14}
 1066              	.LVL80:
 1067              	.LBE230:
 1068              		.loc 1 268 0
 1069 053c DED1     		bne	.L72
 1070 053e 3360     		str	r3, [r6]
 1071              	.LBE231:
 1072              		.loc 1 275 0
 1073 0540 70BC     		pop	{r4, r5, r6}
 1074              		.cfi_restore 6
 1075              		.cfi_restore 5
 1076              		.cfi_restore 4
 1077              		.cfi_def_cfa_offset 0
 1078              	.LVL81:
 1079              	.L80:
 1080 0542 7047     		bx	lr
 1081              	.L82:
ARM GAS  /tmp/cc0VH8yu.s 			page 20


 1082              		.align	2
 1083              	.L81:
 1084 0544 17B7D138 		.word	953267991
 1085 0548 00000000 		.word	_ZN6stmlib6Random10rng_state_E
 1086 054c 0D661900 		.word	1664525
 1087 0550 0000802F 		.word	796917760
 1088 0554 5FF36E3C 		.word	1013904223
 1089              		.cfi_endproc
 1090              	.LFE640:
 1091              		.cantunwind
 1092              		.fnend
 1093              		.size	_ZN8elements7Exciter11ProcessFlowEhPfj, .-_ZN8elements7Exciter11ProcessFlowEhPfj
 1094              		.align	2
 1095 0558 AFF30080 		.p2align 4,,15
 1095      AFF30080 
 1096              		.global	_ZN8elements7Exciter12ProcessNoiseEhPfj
 1097              		.thumb
 1098              		.thumb_func
 1099              		.type	_ZN8elements7Exciter12ProcessNoiseEhPfj, %function
 1100              	_ZN8elements7Exciter12ProcessNoiseEhPfj:
 1101              		.fnstart
 1102              	.LFB641:
 1103              		.loc 1 277 0
 1104              		.cfi_startproc
 1105              		@ args = 0, pretend = 0, frame = 0
 1106              		@ frame_needed = 0, uses_anonymous_args = 0
 1107              		@ link register save eliminated.
 1108              	.LVL82:
 1109              		.loc 1 278 0
 1110 0560 591E     		subs	r1, r3, #1
 1111              	.LVL83:
 1112 0562 D3B1     		cbz	r3, .L90
 1113              		.loc 1 277 0
 1114 0564 30B4     		push	{r4, r5}
 1115              		.cfi_def_cfa_offset 8
 1116              		.cfi_offset 4, -8
 1117              		.cfi_offset 5, -4
 1118 0566 0D4D     		ldr	r5, .L91
 1119              	.LBB232:
 1120              	.LBB233:
 1121              	.LBB234:
 1122              	.LBB235:
 1123              		.loc 3 45 0
 1124 0568 0D4C     		ldr	r4, .L91+4
 1125 056a 2B68     		ldr	r3, [r5]
 1126              	.LBE235:
 1127              	.LBE234:
 1128              	.LBE233:
 1129              	.LBE232:
 1130              		.loc 1 279 0
 1131 056c DFED0D6A 		flds	s13, .L91+8
 1132 0570 BEEE007A 		fconsts	s14, #224
 1133              	.LVL84:
 1134              	.L85:
 1135              	.LBB239:
 1136              	.LBB238:
 1137              	.LBB237:
ARM GAS  /tmp/cc0VH8yu.s 			page 21


 1138              	.LBB236:
 1139              		.loc 3 45 0
 1140 0574 04FB03F0 		mul	r0, r4, r3
 1141 0578 0B4B     		ldr	r3, .L91+12
 1142 057a 0344     		add	r3, r3, r0
 1143              	.LBE236:
 1144              	.LBE237:
 1145              		.loc 5 109 0
 1146 057c 07EE903A 		fmsr	s15, r3	@ int
 1147 0580 F8EE677A 		fuitos	s15, s15
 1148              	.LBE238:
 1149              	.LBE239:
 1150              		.loc 1 279 0
 1151 0584 B0EE476A 		fcpys	s12, s14
 1152 0588 A7EEA66A 		vfma.f32	s12, s15, s13
 1153              		.loc 1 278 0
 1154 058c 0139     		subs	r1, r1, #1
 1155              	.LVL85:
 1156 058e 481C     		adds	r0, r1, #1
 1157              		.loc 1 279 0
 1158 0590 A2EC016A 		fstmias	r2!, {s12}
 1159              	.LVL86:
 1160              		.loc 1 278 0
 1161 0594 EED1     		bne	.L85
 1162 0596 2B60     		str	r3, [r5]
 1163              		.loc 1 281 0
 1164 0598 30BC     		pop	{r4, r5}
 1165              		.cfi_restore 5
 1166              		.cfi_restore 4
 1167              		.cfi_def_cfa_offset 0
 1168              	.LVL87:
 1169              	.L90:
 1170 059a 7047     		bx	lr
 1171              	.L92:
 1172              		.align	2
 1173              	.L91:
 1174 059c 00000000 		.word	_ZN6stmlib6Random10rng_state_E
 1175 05a0 0D661900 		.word	1664525
 1176 05a4 0000802F 		.word	796917760
 1177 05a8 5FF36E3C 		.word	1013904223
 1178              		.cfi_endproc
 1179              	.LFE641:
 1180              		.cantunwind
 1181              		.fnend
 1182              		.size	_ZN8elements7Exciter12ProcessNoiseEhPfj, .-_ZN8elements7Exciter12ProcessNoiseEhPfj
 1183              		.align	2
 1184 05ac AFF30080 		.p2align 4,,15
 1185              		.global	_ZN8elements7Exciter16ProcessParticlesEhPfj
 1186              		.thumb
 1187              		.thumb_func
 1188              		.type	_ZN8elements7Exciter16ProcessParticlesEhPfj, %function
 1189              	_ZN8elements7Exciter16ProcessParticlesEhPfj:
 1190              		.fnstart
 1191              	.LFB639:
 1192              		.loc 1 217 0
 1193              		.cfi_startproc
 1194              		@ args = 0, pretend = 0, frame = 0
ARM GAS  /tmp/cc0VH8yu.s 			page 22


 1195              		@ frame_needed = 0, uses_anonymous_args = 0
 1196              	.LVL88:
 1197 05b0 F0B5     		push	{r4, r5, r6, r7, lr}
 1198              		.cfi_def_cfa_offset 20
 1199              		.cfi_offset 4, -20
 1200              		.cfi_offset 5, -16
 1201              		.cfi_offset 6, -12
 1202              		.cfi_offset 7, -8
 1203              		.cfi_offset 14, -4
 1204              	.LBB274:
 1205              		.loc 1 218 0
 1206 05b2 CD07     		lsls	r5, r1, #31
 1207 05b4 1FD5     		bpl	.L94
 1208              	.LVL89:
 1209              	.LBB275:
 1210              	.LBB276:
 1211              	.LBB277:
 1212              	.LBB278:
 1213              		.loc 3 45 0
 1214 05b6 744E     		ldr	r6, .L122
 1215 05b8 744D     		ldr	r5, .L122+4
 1216 05ba 3768     		ldr	r7, [r6]
 1217 05bc 744C     		ldr	r4, .L122+8
 1218              	.LBE278:
 1219              	.LBE277:
 1220              		.loc 5 109 0
 1221 05be 9FED756A 		flds	s12, .L122+12
 1222              	.LBE276:
 1223              	.LBE275:
 1224              		.loc 1 220 0
 1225 05c2 9FED757A 		flds	s14, .L122+16
 1226              	.LBB286:
 1227              	.LBB283:
 1228              	.LBB281:
 1229              	.LBB279:
 1230              		.loc 3 45 0
 1231 05c6 05FB07F5 		mul	r5, r5, r7
 1232 05ca 2C44     		add	r4, r4, r5
 1233              	.LBE279:
 1234              	.LBE281:
 1235              		.loc 5 109 0
 1236 05cc 07EE904A 		fmsr	s15, r4	@ int
 1237 05d0 F8EE677A 		fuitos	s15, s15
 1238              	.LBE283:
 1239              	.LBE286:
 1240              		.loc 1 220 0
 1241 05d4 F7EE006A 		fconsts	s13, #112
 1242              	.LBB287:
 1243              	.LBB284:
 1244              		.loc 5 109 0
 1245 05d8 67EE867A 		fmuls	s15, s15, s12
 1246              	.LBE284:
 1247              	.LBE287:
 1248              		.loc 1 220 0
 1249 05dc B0EE666A 		fcpys	s12, s13
 1250 05e0 27EE677A 		fnmuls	s14, s14, s15
 1251              		.loc 1 221 0
ARM GAS  /tmp/cc0VH8yu.s 			page 23


 1252 05e4 0025     		movs	r5, #0
 1253              		.loc 1 220 0
 1254 05e6 A7EE276A 		vfma.f32	s12, s14, s15
 1255              	.LBB288:
 1256              	.LBB285:
 1257              	.LBB282:
 1258              	.LBB280:
 1259              		.loc 3 45 0
 1260 05ea 3460     		str	r4, [r6]
 1261              	.LBE280:
 1262              	.LBE282:
 1263              	.LBE285:
 1264              	.LBE288:
 1265              		.loc 1 221 0
 1266 05ec 8563     		str	r5, [r0, #56]
 1267              		.loc 1 222 0
 1268 05ee C0ED0A6A 		fsts	s13, [r0, #40]
 1269              		.loc 1 220 0
 1270 05f2 80ED096A 		fsts	s12, [r0, #36]
 1271              	.LVL90:
 1272              	.L94:
 1273              		.loc 1 224 0
 1274 05f6 02EB8305 		add	r5, r2, r3, lsl #2
 1275              	.LVL91:
 1276              	.LBB289:
 1277              	.LBB290:
 1278              	.LBB291:
 1279              		.loc 4 703 0
 1280 05fa AA42     		cmp	r2, r5
 1281 05fc 05D0     		beq	.L99
 1282              		.loc 4 704 0
 1283 05fe 0026     		movs	r6, #0
 1284              		.loc 4 703 0
 1285 0600 1446     		mov	r4, r2
 1286              	.LVL92:
 1287              	.L98:
 1288              		.loc 4 704 0
 1289 0602 44F8046B 		str	r6, [r4], #4	@ float
 1290              	.LVL93:
 1291              		.loc 4 703 0
 1292 0606 A542     		cmp	r5, r4
 1293 0608 FBD1     		bne	.L98
 1294              	.LVL94:
 1295              	.L99:
 1296              	.LBE291:
 1297              	.LBE290:
 1298              	.LBE289:
 1299              	.LBB292:
 1300              		.loc 1 225 0
 1301 060a 4C07     		lsls	r4, r1, #29
 1302 060c 40F1BB80 		bpl	.L118
 1303              	.LVL95:
 1304              	.LBE292:
 1305              	.LBE274:
 1306              	.LBB294:
 1307              	.LBB295:
 1308              	.LBB296:
ARM GAS  /tmp/cc0VH8yu.s 			page 24


 1309              	.LBB297:
 1310              		.loc 1 59 0
 1311 0610 D0ED027A 		flds	s15, [r0, #8]
 1312 0614 9FED617A 		flds	s14, .L122+20
 1313              		.loc 1 60 0
 1314 0618 6149     		ldr	r1, .L122+24
 1315              	.LVL96:
 1316              		.loc 1 59 0
 1317 061a 67EE877A 		fmuls	s15, s15, s14
 1318              	.LBE297:
 1319              	.LBE296:
 1320              		.loc 1 229 0
 1321 061e 5C1E     		subs	r4, r3, #1
 1322              	.LBB299:
 1323              	.LBB298:
 1324              		.loc 1 59 0
 1325 0620 FCEEE77A 		ftouizs	s15, s15
 1326              		.loc 1 60 0
 1327 0624 17EE905A 		fmrs	r5, s15	@ int
 1328              	.LVL97:
 1329 0628 01EB8501 		add	r1, r1, r5, lsl #2
 1330 062c 91ED005A 		flds	s10, [r1]
 1331              	.LVL98:
 1332              	.LBE298:
 1333              	.LBE299:
 1334              		.loc 1 229 0
 1335 0630 002B     		cmp	r3, #0
 1336 0632 76D0     		beq	.L93
 1337 0634 DFF850E1 		ldr	lr, .L122
 1338              	.LBB300:
 1339              	.LBB301:
 1340              	.LBB302:
 1341              	.LBB303:
 1342              	.LBB304:
 1343              	.LBB305:
 1344              	.LBB306:
 1345              		.loc 3 45 0
 1346 0638 544D     		ldr	r5, .L122+4
 1347 063a DEF80030 		ldr	r3, [lr]
 1348              	.LVL99:
 1349              	.LBE306:
 1350              	.LBE305:
 1351              		.loc 5 109 0
 1352 063e 9FED554A 		flds	s8, .L122+12
 1353              	.LBE304:
 1354              	.LBE303:
 1355              		.loc 1 232 0
 1356 0642 DFED584A 		flds	s9, .L122+28
 1357              		.loc 1 233 0
 1358 0646 584E     		ldr	r6, .L122+32
 1359              		.loc 1 238 0
 1360 0648 584F     		ldr	r7, .L122+36
 1361              		.loc 1 240 0
 1362 064a DFED592A 		flds	s5, .L122+40
 1363 064e 9FED593A 		flds	s6, .L122+44
 1364 0652 DFED593A 		flds	s7, .L122+48
 1365              		.loc 1 232 0
ARM GAS  /tmp/cc0VH8yu.s 			page 25


 1366 0656 F6EE005A 		fconsts	s11, #96
 1367 065a 56E0     		b	.L107
 1368              	.LVL100:
 1369              	.L120:
 1370              	.LBB311:
 1371              	.LBB309:
 1372              	.LBB308:
 1373              	.LBB307:
 1374              		.loc 3 45 0
 1375 065c 4C49     		ldr	r1, .L122+8
 1376 065e 05FB03F3 		mul	r3, r5, r3
 1377 0662 1944     		add	r1, r1, r3
 1378              	.LBE307:
 1379              	.LBE308:
 1380              		.loc 5 109 0
 1381 0664 07EE901A 		fmsr	s15, r1	@ int
 1382 0668 F8EE677A 		fuitos	s15, s15
 1383              	.LBE309:
 1384              	.LBE311:
 1385              		.loc 1 232 0
 1386 066c F0EE646A 		fcpys	s13, s9
 1387              	.LBB312:
 1388              	.LBB310:
 1389              		.loc 5 109 0
 1390 0670 67EE847A 		fmuls	s15, s15, s8
 1391              	.LBE310:
 1392              	.LBE312:
 1393              	.LBB313:
 1394              	.LBB314:
 1395              		.loc 3 45 0
 1396 0674 464B     		ldr	r3, .L122+8
 1397              	.LBE314:
 1398              	.LBE313:
 1399              		.loc 1 232 0
 1400 0676 27EEA57A 		fmuls	s14, s15, s11
 1401              	.LBB317:
 1402              	.LBB315:
 1403              		.loc 3 45 0
 1404 067a 05FB01F1 		mul	r1, r5, r1
 1405              	.LBE315:
 1406              	.LBE317:
 1407              		.loc 1 232 0
 1408 067e E7EE876A 		vfma.f32	s13, s15, s14
 1409              	.LBB318:
 1410              	.LBB316:
 1411              		.loc 3 45 0
 1412 0682 0B44     		add	r3, r3, r1
 1413              	.LBE316:
 1414              	.LBE318:
 1415              		.loc 1 233 0
 1416 0684 B342     		cmp	r3, r6
 1417              		.loc 1 232 0
 1418 0686 F0EE667A 		fcpys	s15, s13
 1419              	.LVL101:
 1420              		.loc 1 233 0
 1421 068a 4BD9     		bls	.L101
 1422              		.loc 1 234 0
ARM GAS  /tmp/cc0VH8yu.s 			page 26


 1423 068c 90ED097A 		flds	s14, [r0, #36]
 1424              		.loc 1 235 0
 1425 0690 D0ED0A6A 		flds	s13, [r0, #40]
 1426              	.LVL102:
 1427 0694 B5EE006A 		fconsts	s12, #80
 1428              		.loc 1 234 0
 1429 0698 67EE877A 		fmuls	s15, s15, s14
 1430              	.LVL103:
 1431              		.loc 1 235 0
 1432 069c 36EE866A 		fadds	s12, s13, s12
 1433              		.loc 1 234 0
 1434 06a0 C0ED097A 		fsts	s15, [r0, #36]
 1435              		.loc 1 235 0
 1436 06a4 F4EEC67A 		fcmpes	s15, s12
 1437 06a8 F1EE10FA 		fmstat
 1438 06ac 44DB     		blt	.L117
 1439 06ae 26EE037A 		fmuls	s14, s12, s6
 1440              		.loc 1 236 0
 1441 06b2 80ED096A 		fsts	s12, [r0, #36]
 1442 06b6 27EE237A 		fmuls	s14, s14, s7
 1443 06ba F0EE467A 		fcpys	s15, s12
 1444 06be BCEEC77A 		ftouizs	s14, s14
 1445 06c2 17EE101A 		fmrs	r1, s14	@ int
 1446              	.L103:
 1447              		.loc 1 245 0
 1448 06c6 B7EE007A 		fconsts	s14, #112
 1449 06ca 77EE666A 		fsubs	s13, s14, s13
 1450              	.LVL104:
 1451              		.loc 1 247 0
 1452 06ce B0EE476A 		fcpys	s12, s14
 1453 06d2 A6EEE66A 		vfms.f32	s12, s13, s13
 1454              		.loc 1 244 0
 1455 06d6 8163     		str	r1, [r0, #56]
 1456              	.LBE302:
 1457              	.LBE301:
 1458              	.LBE300:
 1459              		.loc 1 229 0
 1460 06d8 013C     		subs	r4, r4, #1
 1461              	.LVL105:
 1462              	.LBB331:
 1463              	.LBB325:
 1464              	.LBB321:
 1465              		.loc 1 247 0
 1466 06da 65EE277A 		fmuls	s15, s10, s15
 1467              	.LBE321:
 1468              	.LBE325:
 1469              	.LBE331:
 1470              		.loc 1 229 0
 1471 06de 611C     		adds	r1, r4, #1
 1472              	.LBB332:
 1473              	.LBB326:
 1474              	.LBB322:
 1475              		.loc 1 247 0
 1476 06e0 67EE867A 		fmuls	s15, s15, s12
 1477              	.LBE322:
 1478              	.LBE326:
 1479              		.loc 1 254 0
ARM GAS  /tmp/cc0VH8yu.s 			page 27


 1480 06e4 02F10402 		add	r2, r2, #4
 1481              	.LVL106:
 1482              	.LBB327:
 1483              	.LBB323:
 1484              		.loc 1 247 0
 1485 06e8 42ED017A 		fsts	s15, [r2, #-4]
 1486              		.loc 1 249 0
 1487 06ec D0ED017A 		flds	s15, [r0, #4]
 1488              		.loc 1 250 0
 1489 06f0 D0ED0A6A 		flds	s13, [r0, #40]
 1490              	.LVL107:
 1491              		.loc 1 249 0
 1492 06f4 77EE677A 		fsubs	s15, s14, s15
 1493              	.LVL108:
 1494 06f8 67EEE77A 		fnmuls	s15, s15, s15
 1495              	.LVL109:
 1496              		.loc 1 250 0
 1497 06fc A7EEA57A 		vfma.f32	s14, s15, s11
 1498              	.LVL110:
 1499 0700 26EE877A 		fmuls	s14, s13, s14
 1500 0704 80ED0A7A 		fsts	s14, [r0, #40]
 1501              	.LBE323:
 1502              	.LBE327:
 1503              	.LBE332:
 1504              		.loc 1 229 0
 1505 0708 09D0     		beq	.L119
 1506              	.LVL111:
 1507              	.L107:
 1508              	.LBB333:
 1509              	.LBB328:
 1510              		.loc 1 230 0
 1511 070a 816B     		ldr	r1, [r0, #56]
 1512 070c 0029     		cmp	r1, #0
 1513 070e A5D0     		beq	.L120
 1514              		.loc 1 252 0
 1515 0710 0139     		subs	r1, r1, #1
 1516              	.LBE328:
 1517              	.LBE333:
 1518              		.loc 1 229 0
 1519 0712 013C     		subs	r4, r4, #1
 1520              	.LVL112:
 1521              	.LBB334:
 1522              	.LBB329:
 1523              		.loc 1 252 0
 1524 0714 8163     		str	r1, [r0, #56]
 1525              	.LBE329:
 1526              	.LBE334:
 1527              		.loc 1 229 0
 1528 0716 611C     		adds	r1, r4, #1
 1529              	.LBB335:
 1530              		.loc 1 254 0
 1531 0718 02F10402 		add	r2, r2, #4
 1532              	.LVL113:
 1533              	.LBE335:
 1534              		.loc 1 229 0
 1535 071c F5D1     		bne	.L107
 1536              	.L119:
ARM GAS  /tmp/cc0VH8yu.s 			page 28


 1537 071e CEF80030 		str	r3, [lr]
 1538              	.L93:
 1539 0722 F0BD     		pop	{r4, r5, r6, r7, pc}
 1540              	.LVL114:
 1541              	.L101:
 1542              	.LBB336:
 1543              	.LBB330:
 1544              	.LBB324:
 1545              	.LBB319:
 1546              	.LBB320:
 1547              		.loc 3 45 0
 1548 0724 05FB03F1 		mul	r1, r5, r3
 1549 0728 194B     		ldr	r3, .L122+8
 1550 072a 0B44     		add	r3, r3, r1
 1551              	.LBE320:
 1552              	.LBE319:
 1553              		.loc 1 238 0
 1554 072c BB42     		cmp	r3, r7
 1555 072e 0CD9     		bls	.L104
 1556 0730 D0ED097A 		flds	s15, [r0, #36]
 1557 0734 D0ED0A6A 		flds	s13, [r0, #40]
 1558              	.LVL115:
 1559              	.L117:
 1560 0738 27EE837A 		fmuls	s14, s15, s6
 1561 073c 27EE237A 		fmuls	s14, s14, s7
 1562 0740 BCEEC77A 		ftouizs	s14, s14
 1563 0744 17EE101A 		fmrs	r1, s14	@ int
 1564 0748 BDE7     		b	.L103
 1565              	.LVL116:
 1566              	.L104:
 1567              		.loc 1 239 0
 1568 074a 90ED097A 		flds	s14, [r0, #36]
 1569 074e C7EE267A 		fdivs	s15, s14, s13
 1570              		.loc 1 240 0
 1571 0752 F4EEE27A 		fcmpes	s15, s5
 1572 0756 F1EE10FA 		fmstat
 1573              		.loc 1 239 0
 1574 075a C0ED097A 		fsts	s15, [r0, #36]
 1575              		.loc 1 240 0
 1576 075e 07D8     		bhi	.L121
 1577 0760 D0ED0A6A 		flds	s13, [r0, #40]
 1578              	.LVL117:
 1579              		.loc 1 241 0
 1580 0764 DFED127A 		flds	s15, .L122+40
 1581 0768 C0ED092A 		fsts	s5, [r0, #36]
 1582 076c 6021     		movs	r1, #96
 1583 076e AAE7     		b	.L103
 1584              	.LVL118:
 1585              	.L121:
 1586 0770 27EE837A 		fmuls	s14, s15, s6
 1587 0774 D0ED0A6A 		flds	s13, [r0, #40]
 1588              	.LVL119:
 1589 0778 27EE237A 		fmuls	s14, s14, s7
 1590 077c BCEEC77A 		ftouizs	s14, s14
 1591 0780 17EE101A 		fmrs	r1, s14	@ int
 1592 0784 9FE7     		b	.L103
 1593              	.LVL120:
ARM GAS  /tmp/cc0VH8yu.s 			page 29


 1594              	.L118:
 1595              	.LBE324:
 1596              	.LBE330:
 1597              	.LBE336:
 1598              	.LBE295:
 1599              	.LBE294:
 1600              	.LBB337:
 1601              	.LBB293:
 1602 0786 F0BD     		pop	{r4, r5, r6, r7, pc}
 1603              	.LVL121:
 1604              	.L123:
 1605              		.align	2
 1606              	.L122:
 1607 0788 00000000 		.word	_ZN6stmlib6Random10rng_state_E
 1608 078c 0D661900 		.word	1664525
 1609 0790 5FF36E3C 		.word	1013904223
 1610 0794 0000802F 		.word	796917760
 1611 0798 9A99193F 		.word	1058642330
 1612 079c 00008043 		.word	1132462080
 1613 07a0 00000000 		.word	_ZN8elements19lut_approx_svf_gainE
 1614 07a4 6666863F 		.word	1065772646
 1615 07a8 003333B3 		.word	-1288490240
 1616 07ac FFCCCC4C 		.word	1288490239
 1617 07b0 0AD7A33C 		.word	1017370378
 1618 07b4 9A99193E 		.word	1041865114
 1619 07b8 0000FA46 		.word	1190789120
 1620              	.LBE293:
 1621              	.LBE337:
 1622              		.cfi_endproc
 1623              	.LFE639:
 1624              		.cantunwind
 1625              		.fnend
 1626              		.size	_ZN8elements7Exciter16ProcessParticlesEhPfj, .-_ZN8elements7Exciter16ProcessParticlesEhPfj
 1627              		.align	2
 1628 07bc AFF30080 		.p2align 4,,15
 1629              		.global	_ZN8elements7Exciter4InitEv
 1630              		.thumb
 1631              		.thumb_func
 1632              		.type	_ZN8elements7Exciter4InitEv, %function
 1633              	_ZN8elements7Exciter4InitEv:
 1634              		.fnstart
 1635              	.LFB632:
 1636              		.loc 1 44 0
 1637              		.cfi_startproc
 1638              		@ args = 0, pretend = 0, frame = 0
 1639              		@ frame_needed = 0, uses_anonymous_args = 0
 1640              		@ link register save eliminated.
 1641              	.LVL122:
 1642 07c0 F0B4     		push	{r4, r5, r6, r7}
 1643              		.cfi_def_cfa_offset 16
 1644              		.cfi_offset 4, -16
 1645              		.cfi_offset 5, -12
 1646              		.cfi_offset 6, -8
 1647              		.cfi_offset 7, -4
 1648              	.LBB338:
 1649              	.LBB339:
 1650              		.loc 5 77 0
ARM GAS  /tmp/cc0VH8yu.s 			page 30


 1651 07c2 0C4A     		ldr	r2, .L126
 1652              	.LBE339:
 1653              	.LBE338:
 1654              	.LBB341:
 1655              	.LBB342:
 1656              	.LBB343:
 1657              		.file 6 "./mutable_instruments/stmlib/dsp/filter.h"
 1658              		.loc 6 220 0
 1659 07c4 0C4E     		ldr	r6, .L126+4
 1660              		.loc 6 221 0
 1661 07c6 0D4D     		ldr	r5, .L126+8
 1662              		.loc 6 222 0
 1663 07c8 0D4C     		ldr	r4, .L126+12
 1664              	.LBE343:
 1665              	.LBE342:
 1666              	.LBE341:
 1667              	.LBB348:
 1668              	.LBB340:
 1669              		.loc 5 77 0
 1670 07ca 8260     		str	r2, [r0, #8]	@ float
 1671              	.LBE340:
 1672              	.LBE348:
 1673              	.LBB349:
 1674              	.LBB350:
 1675              		.loc 5 73 0
 1676 07cc 0023     		movs	r3, #0
 1677              	.LBE350:
 1678              	.LBE349:
 1679              	.LBB352:
 1680              	.LBB353:
 1681              		.loc 5 69 0
 1682 07ce 0227     		movs	r7, #2
 1683              	.LBE353:
 1684              	.LBE352:
 1685              		.loc 1 51 0
 1686 07d0 0022     		movs	r2, #0
 1687              		.loc 1 53 0
 1688 07d2 4FF07C51 		mov	r1, #1056964608
 1689              	.LBB355:
 1690              	.LBB354:
 1691              		.loc 5 69 0
 1692 07d6 0770     		strb	r7, [r0]
 1693              	.LVL123:
 1694              	.LBE354:
 1695              	.LBE355:
 1696              	.LBB356:
 1697              	.LBB345:
 1698              	.LBB344:
 1699              		.loc 6 220 0
 1700 07d8 C660     		str	r6, [r0, #12]	@ float
 1701              		.loc 6 221 0
 1702 07da 0561     		str	r5, [r0, #16]	@ float
 1703              		.loc 6 222 0
 1704 07dc 4461     		str	r4, [r0, #20]	@ float
 1705              	.LBE344:
 1706              	.LBE345:
 1707              	.LBE356:
ARM GAS  /tmp/cc0VH8yu.s 			page 31


 1708              		.loc 1 53 0
 1709 07de 4162     		str	r1, [r0, #36]	@ float
 1710              	.LBB357:
 1711              	.LBB351:
 1712              		.loc 5 73 0
 1713 07e0 4360     		str	r3, [r0, #4]	@ float
 1714              	.LVL124:
 1715              	.LBE351:
 1716              	.LBE357:
 1717              	.LBB358:
 1718              	.LBB346:
 1719              	.LBB347:
 1720              		.loc 6 184 0
 1721 07e2 C361     		str	r3, [r0, #28]	@ float
 1722 07e4 8361     		str	r3, [r0, #24]	@ float
 1723              	.LBE347:
 1724              	.LBE346:
 1725              	.LBE358:
 1726              		.loc 1 50 0
 1727 07e6 0362     		str	r3, [r0, #32]	@ float
 1728              		.loc 1 54 0
 1729 07e8 C362     		str	r3, [r0, #44]	@ float
 1730              		.loc 1 55 0
 1731 07ea 0363     		str	r3, [r0, #48]	@ float
 1732              		.loc 1 51 0
 1733 07ec 8263     		str	r2, [r0, #56]
 1734              		.loc 1 52 0
 1735 07ee C263     		str	r2, [r0, #60]
 1736              		.loc 1 56 0
 1737 07f0 F0BC     		pop	{r4, r5, r6, r7}
 1738              		.cfi_restore 7
 1739              		.cfi_restore 6
 1740              		.cfi_restore 5
 1741              		.cfi_restore 4
 1742              		.cfi_def_cfa_offset 0
 1743 07f2 7047     		bx	lr
 1744              	.L127:
 1745              		.align	2
 1746              	.L126:
 1747 07f4 A4707D3F 		.word	1065185444
 1748 07f8 22BA003D 		.word	1023457826
 1749 07fc 0AD7233C 		.word	1008981770
 1750 0800 CAAA7F3F 		.word	1065331402
 1751              		.cfi_endproc
 1752              	.LFE632:
 1753              		.cantunwind
 1754              		.fnend
 1755              		.size	_ZN8elements7Exciter4InitEv, .-_ZN8elements7Exciter4InitEv
 1756              		.align	2
 1757 0804 AFF30080 		.p2align 4,,15
 1757      AFF30080 
 1757      AFF30080 
 1758              		.global	_ZN8elements7Exciter17GetPulseAmplitudeEf
 1759              		.thumb
 1760              		.thumb_func
 1761              		.type	_ZN8elements7Exciter17GetPulseAmplitudeEf, %function
 1762              	_ZN8elements7Exciter17GetPulseAmplitudeEf:
ARM GAS  /tmp/cc0VH8yu.s 			page 32


 1763              		.fnstart
 1764              	.LFB633:
 1765              		.loc 1 58 0
 1766              		.cfi_startproc
 1767              		@ args = 0, pretend = 0, frame = 0
 1768              		@ frame_needed = 0, uses_anonymous_args = 0
 1769              		@ link register save eliminated.
 1770              	.LVL125:
 1771              	.LBB359:
 1772              		.loc 1 59 0
 1773 0810 DFED067A 		flds	s15, .L129
 1774              		.loc 1 60 0
 1775 0814 064B     		ldr	r3, .L129+4
 1776              		.loc 1 59 0
 1777 0816 20EE270A 		fmuls	s0, s0, s15
 1778              	.LVL126:
 1779 081a BCEEC00A 		ftouizs	s0, s0
 1780              		.loc 1 60 0
 1781 081e 10EE102A 		fmrs	r2, s0	@ int
 1782 0822 03EB8203 		add	r3, r3, r2, lsl #2
 1783              	.LBE359:
 1784              		.loc 1 61 0
 1785 0826 93ED000A 		flds	s0, [r3]
 1786 082a 7047     		bx	lr
 1787              	.L130:
 1788              		.align	2
 1789              	.L129:
 1790 082c 00008043 		.word	1132462080
 1791 0830 00000000 		.word	_ZN8elements19lut_approx_svf_gainE
 1792              		.cfi_endproc
 1793              	.LFE633:
 1794              		.cantunwind
 1795              		.fnend
 1796              		.size	_ZN8elements7Exciter17GetPulseAmplitudeEf, .-_ZN8elements7Exciter17GetPulseAmplitudeEf
 1797              		.align	2
 1798 0834 AFF30080 		.p2align 4,,15
 1798      AFF30080 
 1798      AFF30080 
 1799              		.global	_ZN8elements7Exciter7ProcessEhPfj
 1800              		.thumb
 1801              		.thumb_func
 1802              		.type	_ZN8elements7Exciter7ProcessEhPfj, %function
 1803              	_ZN8elements7Exciter7ProcessEhPfj:
 1804              		.fnstart
 1805              	.LFB634:
 1806              		.loc 1 63 0
 1807              		.cfi_startproc
 1808              		@ args = 0, pretend = 0, frame = 0
 1809              		@ frame_needed = 0, uses_anonymous_args = 0
 1810              	.LVL127:
 1811 0840 F8B5     		push	{r3, r4, r5, r6, r7, lr}
 1812              		.save {r3, r4, r5, r6, r7, lr}
 1813              		.cfi_def_cfa_offset 24
 1814              		.cfi_offset 3, -24
 1815              		.cfi_offset 4, -20
 1816              		.cfi_offset 5, -16
 1817              		.cfi_offset 6, -12
ARM GAS  /tmp/cc0VH8yu.s 			page 33


 1818              		.cfi_offset 7, -8
 1819              		.cfi_offset 14, -4
 1820              	.LBB373:
 1821              		.loc 1 65 0
 1822 0842 90F800E0 		ldrb	lr, [r0]	@ zero_extendqisi2
 1823 0846 414F     		ldr	r7, .L145
 1824              	.LBE373:
 1825              		.loc 1 63 0
 1826 0848 0446     		mov	r4, r0
 1827              	.LBB390:
 1828              		.loc 1 64 0
 1829 084a 0025     		movs	r5, #0
 1830              		.loc 1 65 0
 1831 084c 07EBCE00 		add	r0, r7, lr, lsl #3
 1832              	.LVL128:
 1833              		.loc 1 64 0
 1834 0850 E562     		str	r5, [r4, #44]	@ float
 1835              		.loc 1 65 0
 1836 0852 4068     		ldr	r0, [r0, #4]
 1837              	.LBE390:
 1838              		.loc 1 63 0
 1839 0854 1E46     		mov	r6, r3
 1840              	.LBB391:
 1841              		.loc 1 65 0
 1842 0856 C307     		lsls	r3, r0, #31
 1843              	.LVL129:
 1844              	.LBE391:
 1845              		.loc 1 63 0
 1846 0858 1546     		mov	r5, r2
 1847              	.LBB392:
 1848              		.loc 1 65 0
 1849 085a 4BD4     		bmi	.L132
 1850              		.loc 1 65 0 is_stmt 0 discriminator 1
 1851 085c 57F83E70 		ldr	r7, [r7, lr, lsl #3]
 1852 0860 04EB6000 		add	r0, r4, r0, asr #1
 1853              	.LVL130:
 1854              	.L133:
 1855              		.loc 1 65 0 discriminator 4
 1856 0864 3346     		mov	r3, r6
 1857 0866 2A46     		mov	r2, r5
 1858 0868 B847     		blx	r7
 1859              	.LVL131:
 1860              	.LBB374:
 1861              		.loc 1 67 0 is_stmt 1 discriminator 4
 1862 086a 2378     		ldrb	r3, [r4]	@ zero_extendqisi2
 1863 086c 012B     		cmp	r3, #1
 1864 086e 40D9     		bls	.L131
 1865              	.LBB375:
 1866              		.loc 1 69 0
 1867 0870 D4ED027A 		flds	s15, [r4, #8]
 1868 0874 9FED367A 		flds	s14, .L145+4
 1869 0878 67EE877A 		fmuls	s15, s15, s14
 1870              	.LBB376:
 1871              		.loc 1 70 0
 1872 087c 062B     		cmp	r3, #6
 1873              	.LBE376:
 1874              		.loc 1 69 0
ARM GAS  /tmp/cc0VH8yu.s 			page 34


 1875 087e FCEEE77A 		ftouizs	s15, s15
 1876              	.LVL132:
 1877              	.LBB382:
 1878              		.loc 1 70 0
 1879 0882 3ED0     		beq	.L144
 1880              		.loc 1 77 0
 1881 0884 17EE903A 		fmrs	r3, s15	@ int
 1882              		.loc 1 79 0
 1883 0888 3249     		ldr	r1, .L145+8
 1884              		.loc 1 77 0
 1885 088a 334A     		ldr	r2, .L145+12
 1886 088c 9B00     		lsls	r3, r3, #2
 1887 088e 1A44     		add	r2, r2, r3
 1888              		.loc 1 79 0
 1889 0890 0B44     		add	r3, r3, r1
 1890              		.loc 1 77 0
 1891 0892 1168     		ldr	r1, [r2]	@ float
 1892              		.loc 1 79 0
 1893 0894 1A68     		ldr	r2, [r3]	@ float
 1894              	.LVL133:
 1895              	.LBB377:
 1896              	.LBB378:
 1897              		.loc 6 198 0
 1898 0896 6261     		str	r2, [r4, #20]	@ float
 1899              		.loc 6 197 0
 1900 0898 4FF08043 		mov	r3, #1073741824
 1901              		.loc 6 196 0
 1902 089c E160     		str	r1, [r4, #12]	@ float
 1903              		.loc 6 197 0
 1904 089e 2361     		str	r3, [r4, #16]	@ float
 1905              	.LVL134:
 1906              	.L136:
 1907              	.LBE378:
 1908              	.LBE377:
 1909              	.LBE382:
 1910              	.LBB383:
 1911              	.LBB384:
 1912              		.loc 6 278 0
 1913 08a0 94ED066A 		flds	s12, [r4, #24]
 1914              	.LVL135:
 1915              		.loc 6 279 0
 1916 08a4 94ED077A 		flds	s14, [r4, #28]
 1917              	.LVL136:
 1918              		.loc 6 281 0
 1919 08a8 731E     		subs	r3, r6, #1
 1920              	.LVL137:
 1921 08aa F6B1     		cbz	r6, .L137
 1922              	.LVL138:
 1923              	.L138:
 1924 08ac 94ED045A 		flds	s10, [r4, #16]
 1925              	.LBB385:
 1926              		.loc 6 282 0
 1927 08b0 D5ED007A 		flds	s15, [r5]
 1928 08b4 D4ED036A 		flds	s13, [r4, #12]
 1929 08b8 D4ED055A 		flds	s11, [r4, #20]
 1930 08bc E5EE467A 		vfms.f32	s15, s10, s12
 1931              	.LBE385:
ARM GAS  /tmp/cc0VH8yu.s 			page 35


 1932              		.loc 6 281 0
 1933 08c0 013B     		subs	r3, r3, #1
 1934              	.LVL139:
 1935 08c2 5A1C     		adds	r2, r3, #1
 1936              	.LBB386:
 1937              		.loc 6 282 0
 1938 08c4 E6EE667A 		vfms.f32	s15, s12, s13
 1939 08c8 77EEC77A 		fsubs	s15, s15, s14
 1940 08cc 67EEA57A 		fmuls	s15, s15, s11
 1941              	.LVL140:
 1942              		.loc 6 283 0
 1943 08d0 A6EEA76A 		vfma.f32	s12, s13, s15
 1944              	.LVL141:
 1945              		.loc 6 285 0
 1946 08d4 A6EE867A 		vfma.f32	s14, s13, s12
 1947              	.LVL142:
 1948              		.loc 6 283 0
 1949 08d8 F0EE465A 		fcpys	s11, s12
 1950              	.LVL143:
 1951              		.loc 6 299 0
 1952 08dc A5EC017A 		fstmias	r5!, {s14}
 1953              	.LVL144:
 1954              		.loc 6 284 0
 1955 08e0 A6EEA76A 		vfma.f32	s12, s13, s15
 1956              	.LVL145:
 1957              		.loc 6 286 0
 1958 08e4 A6EEA57A 		vfma.f32	s14, s13, s11
 1959              	.LVL146:
 1960              	.LBE386:
 1961              		.loc 6 281 0
 1962 08e8 E0D1     		bne	.L138
 1963              	.LVL147:
 1964              	.L137:
 1965              		.loc 6 303 0
 1966 08ea 84ED066A 		fsts	s12, [r4, #24]
 1967              		.loc 6 304 0
 1968 08ee 84ED077A 		fsts	s14, [r4, #28]
 1969              	.LVL148:
 1970              	.L131:
 1971 08f2 F8BD     		pop	{r3, r4, r5, r6, r7, pc}
 1972              	.LVL149:
 1973              	.L132:
 1974              	.LBE384:
 1975              	.LBE383:
 1976              	.LBE375:
 1977              	.LBE374:
 1978              		.loc 1 65 0 discriminator 2
 1979 08f4 4010     		asrs	r0, r0, #1
 1980 08f6 57F83E30 		ldr	r3, [r7, lr, lsl #3]
 1981 08fa 2258     		ldr	r2, [r4, r0]
 1982              	.LVL150:
 1983 08fc 2044     		add	r0, r0, r4
 1984 08fe D758     		ldr	r7, [r2, r3]
 1985 0900 B0E7     		b	.L133
 1986              	.LVL151:
 1987              	.L144:
 1988              	.LBB389:
ARM GAS  /tmp/cc0VH8yu.s 			page 36


 1989              	.LBB388:
 1990              	.LBB387:
 1991              	.LBB379:
 1992              		.loc 1 71 0
 1993 0902 D4ED016A 		flds	s13, [r4, #4]
 1994              		.loc 1 73 0
 1995 0906 144A     		ldr	r2, .L145+12
 1996              		.loc 1 74 0
 1997 0908 144B     		ldr	r3, .L145+16
 1998              		.loc 1 71 0
 1999 090a 26EE877A 		fmuls	s14, s13, s14
 2000              		.loc 1 73 0
 2001 090e 17EE901A 		fmrs	r1, s15	@ int
 2002              		.loc 1 71 0
 2003 0912 BCEEC77A 		ftouizs	s14, s14
 2004              		.loc 1 73 0
 2005 0916 02EB8102 		add	r2, r2, r1, lsl #2
 2006 091a D2ED006A 		flds	s13, [r2]
 2007              		.loc 1 74 0
 2008 091e 17EE102A 		fmrs	r2, s14	@ int
 2009 0922 03EB8203 		add	r3, r3, r2, lsl #2
 2010 0926 93ED006A 		flds	s12, [r3]
 2011              	.LVL152:
 2012              	.LBB380:
 2013              	.LBB381:
 2014              		.loc 6 204 0
 2015 092a C4ED036A 		fsts	s13, [r4, #12]
 2016              		.loc 6 206 0
 2017 092e F7EE007A 		fconsts	s15, #112
 2018              	.LVL153:
 2019 0932 B0EE677A 		fcpys	s14, s15
 2020 0936 A6EE867A 		vfma.f32	s14, s13, s12
 2021              		.loc 6 205 0
 2022 093a 84ED046A 		fsts	s12, [r4, #16]
 2023              		.loc 6 206 0
 2024 093e A6EEA67A 		vfma.f32	s14, s13, s13
 2025 0942 C7EE877A 		fdivs	s15, s15, s14
 2026 0946 C4ED057A 		fsts	s15, [r4, #20]
 2027 094a A9E7     		b	.L136
 2028              	.L146:
 2029              		.align	2
 2030              	.L145:
 2031 094c 00000000 		.word	.LANCHOR0
 2032 0950 00008043 		.word	1132462080
 2033 0954 00000000 		.word	_ZN8elements16lut_approx_svf_hE
 2034 0958 00000000 		.word	_ZN8elements16lut_approx_svf_gE
 2035 095c 00000000 		.word	_ZN8elements16lut_approx_svf_rE
 2036              	.LBE381:
 2037              	.LBE380:
 2038              	.LBE379:
 2039              	.LBE387:
 2040              	.LBE388:
 2041              	.LBE389:
 2042              	.LBE392:
 2043              		.cfi_endproc
 2044              	.LFE634:
 2045              		.fnend
ARM GAS  /tmp/cc0VH8yu.s 			page 37


 2046              		.size	_ZN8elements7Exciter7ProcessEhPfj, .-_ZN8elements7Exciter7ProcessEhPfj
 2047              		.global	_ZN8elements7Exciter9fn_table_E
 2048              		.data
 2049              		.align	2
 2050              		.set	.LANCHOR0,. + 0
 2051              		.type	_ZN8elements7Exciter9fn_table_E, %object
 2052              		.size	_ZN8elements7Exciter9fn_table_E, 56
 2053              	_ZN8elements7Exciter9fn_table_E:
 2054 0000 00000000 		.word	_ZN8elements7Exciter27ProcessGranularSamplePlayerEhPfj
 2055 0004 00000000 		.word	0
 2056 0008 00000000 		.word	_ZN8elements7Exciter19ProcessSamplePlayerEhPfj
 2057 000c 00000000 		.word	0
 2058 0010 00000000 		.word	_ZN8elements7Exciter13ProcessMalletEhPfj
 2059 0014 00000000 		.word	0
 2060 0018 00000000 		.word	_ZN8elements7Exciter15ProcessPlectrumEhPfj
 2061 001c 00000000 		.word	0
 2062 0020 00000000 		.word	_ZN8elements7Exciter16ProcessParticlesEhPfj
 2063 0024 00000000 		.word	0
 2064 0028 00000000 		.word	_ZN8elements7Exciter11ProcessFlowEhPfj
 2065 002c 00000000 		.word	0
 2066 0030 00000000 		.word	_ZN8elements7Exciter12ProcessNoiseEhPfj
 2067 0034 00000000 		.word	0
 2068              		.text
 2069              	.Letext0:
 2070              		.file 7 "/home/sbcu/Dropbox/pcb-layouts/axo-on-discovery-board/axoloti/platform_linux/arm-none-eab
 2071              		.file 8 "/home/sbcu/Dropbox/pcb-layouts/axo-on-discovery-board/axoloti/platform_linux/arm-none-eab
 2072              		.file 9 "/home/sbcu/Dropbox/pcb-layouts/axo-on-discovery-board/axoloti/platform_linux/lib/gcc/arm-
 2073              		.file 10 "/home/sbcu/Dropbox/pcb-layouts/axo-on-discovery-board/axoloti/platform_linux/arm-none-ea
 2074              		.file 11 "./mutable_instruments/stmlib/stmlib.h"
 2075              		.file 12 "/home/sbcu/Dropbox/pcb-layouts/axo-on-discovery-board/axoloti/platform_linux/arm-none-ea
 2076              		.file 13 "/home/sbcu/Dropbox/pcb-layouts/axo-on-discovery-board/axoloti/platform_linux/arm-none-ea
 2077              		.file 14 "/home/sbcu/Dropbox/pcb-layouts/axo-on-discovery-board/axoloti/platform_linux/arm-none-ea
 2078              		.file 15 "/home/sbcu/Dropbox/pcb-layouts/axo-on-discovery-board/axoloti/platform_linux/arm-none-ea
 2079              		.file 16 "/home/sbcu/Dropbox/pcb-layouts/axo-on-discovery-board/axoloti/platform_linux/arm-none-ea
 2080              		.file 17 "/home/sbcu/Dropbox/pcb-layouts/axo-on-discovery-board/axoloti/platform_linux/arm-none-ea
 2081              		.file 18 "/home/sbcu/Dropbox/pcb-layouts/axo-on-discovery-board/axoloti/platform_linux/arm-none-ea
 2082              		.file 19 "/home/sbcu/Dropbox/pcb-layouts/axo-on-discovery-board/axoloti/platform_linux/arm-none-ea
 2083              		.file 20 "/home/sbcu/Dropbox/pcb-layouts/axo-on-discovery-board/axoloti/platform_linux/arm-none-ea
 2084              		.file 21 "/home/sbcu/Dropbox/pcb-layouts/axo-on-discovery-board/axoloti/platform_linux/arm-none-ea
 2085              		.file 22 "/home/sbcu/Dropbox/pcb-layouts/axo-on-discovery-board/axoloti/platform_linux/arm-none-ea
 2086              		.file 23 "/home/sbcu/Dropbox/pcb-layouts/axo-on-discovery-board/axoloti/platform_linux/arm-none-ea
 2087              		.file 24 "/home/sbcu/Dropbox/pcb-layouts/axo-on-discovery-board/axoloti/platform_linux/arm-none-ea
 2088              		.file 25 "./mutable_instruments/elements/dsp/dsp.h"
 2089              		.file 26 "./mutable_instruments/elements/resources.h"
 2090              		.file 27 "<built-in>"
 2091              		.file 28 "/home/sbcu/Dropbox/pcb-layouts/axo-on-discovery-board/axoloti/platform_linux/arm-none-ea
 2092              		.file 29 "./mutable_instruments/elements/../mutable_resources.h"