ARM GAS  /tmp/cc1g2ZPd.s 			page 1


   1              		.syntax unified
   2              		.cpu cortex-m4
   3              		.eabi_attribute 27, 1
   4              		.eabi_attribute 28, 1
   5              		.fpu fpv4-sp-d16
   6              		.eabi_attribute 20, 1
   7              		.eabi_attribute 21, 1
   8              		.eabi_attribute 23, 3
   9              		.eabi_attribute 24, 1
  10              		.eabi_attribute 25, 1
  11              		.eabi_attribute 26, 1
  12              		.eabi_attribute 30, 2
  13              		.eabi_attribute 34, 1
  14              		.eabi_attribute 18, 4
  15              		.thumb
  16              		.file	"fatfs_diskio.c"
  17              		.text
  18              	.Ltext0:
  19              		.cfi_sections	.debug_frame
  20              		.align	2
  21              		.p2align 4,,15
  22              		.global	disk_initialize
  23              		.thumb
  24              		.thumb_func
  25              		.type	disk_initialize, %function
  26              	disk_initialize:
  27              	.LFB130:
  28              		.file 1 "/home/sbcu/Dropbox/pcb-layouts/axo-on-discovery-board/axoloti/platform_linux/../chibios/o
  29              		.loc 1 44 0
  30              		.cfi_startproc
  31              		@ args = 0, pretend = 0, frame = 0
  32              		@ frame_needed = 0, uses_anonymous_args = 0
  33              	.LVL0:
  34 0000 10B5     		push	{r4, lr}
  35              		.cfi_def_cfa_offset 8
  36              		.cfi_offset 4, -8
  37              		.cfi_offset 14, -4
  38              		.loc 1 47 0
  39 0002 10B1     		cbz	r0, .L11
  40              		.loc 1 68 0
  41 0004 0224     		movs	r4, #2
  42              	.LVL1:
  43              	.L2:
  44              		.loc 1 69 0
  45 0006 2046     		mov	r0, r4
  46 0008 10BD     		pop	{r4, pc}
  47              	.LVL2:
  48              	.L11:
  49              		.loc 1 61 0
  50 000a 0748     		ldr	r0, .L12
  51              	.LVL3:
  52 000c 0479     		ldrb	r4, [r0, #4]	@ zero_extendqisi2
  53              		.loc 1 59 0
  54 000e 053C     		subs	r4, r4, #5
  55 0010 18BF     		it	ne
  56 0012 0124     		movne	r4, #1
  57              	.LVL4:
ARM GAS  /tmp/cc1g2ZPd.s 			page 2


  58              		.loc 1 63 0
  59 0014 FFF7FEFF 		bl	sdc_lld_is_write_protected
  60              	.LVL5:
  61 0018 0028     		cmp	r0, #0
  62 001a F4D0     		beq	.L2
  63              		.loc 1 64 0
  64 001c 44F00404 		orr	r4, r4, #4
  65              	.LVL6:
  66 0020 E4B2     		uxtb	r4, r4
  67              		.loc 1 69 0
  68 0022 2046     		mov	r0, r4
  69 0024 10BD     		pop	{r4, pc}
  70              	.L13:
  71 0026 00BF     		.align	2
  72              	.L12:
  73 0028 00000000 		.word	SDCD1
  74              		.cfi_endproc
  75              	.LFE130:
  76              		.size	disk_initialize, .-disk_initialize
  77              		.align	2
  78 002c AFF30080 		.p2align 4,,15
  79              		.global	disk_status
  80              		.thumb
  81              		.thumb_func
  82              		.type	disk_status, %function
  83              	disk_status:
  84              	.LFB131:
  85              		.loc 1 79 0
  86              		.cfi_startproc
  87              		@ args = 0, pretend = 0, frame = 0
  88              		@ frame_needed = 0, uses_anonymous_args = 0
  89              	.LVL7:
  90 0030 10B5     		push	{r4, lr}
  91              		.cfi_def_cfa_offset 8
  92              		.cfi_offset 4, -8
  93              		.cfi_offset 14, -4
  94              		.loc 1 82 0
  95 0032 10B1     		cbz	r0, .L23
  96              		.loc 1 103 0
  97 0034 0224     		movs	r4, #2
  98              	.LVL8:
  99              	.L15:
 100              		.loc 1 104 0
 101 0036 2046     		mov	r0, r4
 102 0038 10BD     		pop	{r4, pc}
 103              	.LVL9:
 104              	.L23:
 105              		.loc 1 96 0
 106 003a 0748     		ldr	r0, .L24
 107              	.LVL10:
 108 003c 0479     		ldrb	r4, [r0, #4]	@ zero_extendqisi2
 109              		.loc 1 94 0
 110 003e 053C     		subs	r4, r4, #5
 111 0040 18BF     		it	ne
 112 0042 0124     		movne	r4, #1
 113              	.LVL11:
 114              		.loc 1 98 0
ARM GAS  /tmp/cc1g2ZPd.s 			page 3


 115 0044 FFF7FEFF 		bl	sdc_lld_is_write_protected
 116              	.LVL12:
 117 0048 0028     		cmp	r0, #0
 118 004a F4D0     		beq	.L15
 119              		.loc 1 99 0
 120 004c 44F00404 		orr	r4, r4, #4
 121              	.LVL13:
 122 0050 E4B2     		uxtb	r4, r4
 123              		.loc 1 104 0
 124 0052 2046     		mov	r0, r4
 125 0054 10BD     		pop	{r4, pc}
 126              	.L25:
 127 0056 00BF     		.align	2
 128              	.L24:
 129 0058 00000000 		.word	SDCD1
 130              		.cfi_endproc
 131              	.LFE131:
 132              		.size	disk_status, .-disk_status
 133              		.align	2
 134 005c AFF30080 		.p2align 4,,15
 135              		.global	disk_read
 136              		.thumb
 137              		.thumb_func
 138              		.type	disk_read, %function
 139              	disk_read:
 140              	.LFB132:
 141              		.loc 1 117 0
 142              		.cfi_startproc
 143              		@ args = 0, pretend = 0, frame = 0
 144              		@ frame_needed = 0, uses_anonymous_args = 0
 145              		@ link register save eliminated.
 146              	.LVL14:
 147              		.loc 1 118 0
 148 0060 08B1     		cbz	r0, .L33
 149              		.loc 1 143 0
 150 0062 0420     		movs	r0, #4
 151              	.LVL15:
 152              		.loc 1 144 0
 153 0064 7047     		bx	lr
 154              	.LVL16:
 155              	.L33:
 156              		.loc 1 136 0
 157 0066 0848     		ldr	r0, .L35
 158              	.LVL17:
 159              		.loc 1 117 0
 160 0068 10B4     		push	{r4}
 161              		.cfi_def_cfa_offset 4
 162              		.cfi_offset 4, -4
 163 006a 0C46     		mov	r4, r1
 164              		.loc 1 136 0
 165 006c 0179     		ldrb	r1, [r0, #4]	@ zero_extendqisi2
 166              	.LVL18:
 167 006e 0529     		cmp	r1, #5
 168 0070 03D0     		beq	.L34
 169              		.loc 1 137 0
 170 0072 0320     		movs	r0, #3
 171              		.loc 1 144 0
ARM GAS  /tmp/cc1g2ZPd.s 			page 4


 172 0074 5DF8044B 		ldr	r4, [sp], #4
 173              		.cfi_remember_state
 174              		.cfi_restore 4
 175              		.cfi_def_cfa_offset 0
 176              	.LVL19:
 177 0078 7047     		bx	lr
 178              	.LVL20:
 179              	.L34:
 180              		.cfi_restore_state
 181              		.loc 1 138 0
 182 007a 1146     		mov	r1, r2
 183 007c 2246     		mov	r2, r4
 184              	.LVL21:
 185              		.loc 1 144 0
 186 007e 5DF8044B 		ldr	r4, [sp], #4
 187              		.cfi_restore 4
 188              		.cfi_def_cfa_offset 0
 189              	.LVL22:
 190              		.loc 1 138 0
 191 0082 FFF7FEBF 		b	sdcRead
 192              	.LVL23:
 193              	.L36:
 194 0086 00BF     		.align	2
 195              	.L35:
 196 0088 00000000 		.word	SDCD1
 197              		.cfi_endproc
 198              	.LFE132:
 199              		.size	disk_read, .-disk_read
 200              		.align	2
 201 008c AFF30080 		.p2align 4,,15
 202              		.global	disk_write
 203              		.thumb
 204              		.thumb_func
 205              		.type	disk_write, %function
 206              	disk_write:
 207              	.LFB133:
 208              		.loc 1 158 0
 209              		.cfi_startproc
 210              		@ args = 0, pretend = 0, frame = 0
 211              		@ frame_needed = 0, uses_anonymous_args = 0
 212              		@ link register save eliminated.
 213              	.LVL24:
 214              		.loc 1 159 0
 215 0090 08B1     		cbz	r0, .L44
 216              		.loc 1 186 0
 217 0092 0420     		movs	r0, #4
 218              	.LVL25:
 219              		.loc 1 187 0
 220 0094 7047     		bx	lr
 221              	.LVL26:
 222              	.L44:
 223              		.loc 1 179 0
 224 0096 0848     		ldr	r0, .L46
 225              	.LVL27:
 226              		.loc 1 158 0
 227 0098 10B4     		push	{r4}
 228              		.cfi_def_cfa_offset 4
ARM GAS  /tmp/cc1g2ZPd.s 			page 5


 229              		.cfi_offset 4, -4
 230 009a 0C46     		mov	r4, r1
 231              		.loc 1 179 0
 232 009c 0179     		ldrb	r1, [r0, #4]	@ zero_extendqisi2
 233              	.LVL28:
 234 009e 0529     		cmp	r1, #5
 235 00a0 03D0     		beq	.L45
 236              		.loc 1 180 0
 237 00a2 0320     		movs	r0, #3
 238              		.loc 1 187 0
 239 00a4 5DF8044B 		ldr	r4, [sp], #4
 240              		.cfi_remember_state
 241              		.cfi_restore 4
 242              		.cfi_def_cfa_offset 0
 243              	.LVL29:
 244 00a8 7047     		bx	lr
 245              	.LVL30:
 246              	.L45:
 247              		.cfi_restore_state
 248              		.loc 1 181 0
 249 00aa 1146     		mov	r1, r2
 250 00ac 2246     		mov	r2, r4
 251              	.LVL31:
 252              		.loc 1 187 0
 253 00ae 5DF8044B 		ldr	r4, [sp], #4
 254              		.cfi_restore 4
 255              		.cfi_def_cfa_offset 0
 256              	.LVL32:
 257              		.loc 1 181 0
 258 00b2 FFF7FEBF 		b	sdcWrite
 259              	.LVL33:
 260              	.L47:
 261 00b6 00BF     		.align	2
 262              	.L46:
 263 00b8 00000000 		.word	SDCD1
 264              		.cfi_endproc
 265              	.LFE133:
 266              		.size	disk_write, .-disk_write
 267              		.align	2
 268 00bc AFF30080 		.p2align 4,,15
 269              		.global	disk_ioctl
 270              		.thumb
 271              		.thumb_func
 272              		.type	disk_ioctl, %function
 273              	disk_ioctl:
 274              	.LFB134:
 275              		.loc 1 200 0
 276              		.cfi_startproc
 277              		@ args = 0, pretend = 0, frame = 0
 278              		@ frame_needed = 0, uses_anonymous_args = 0
 279              		@ link register save eliminated.
 280              	.LVL34:
 281              		.loc 1 201 0
 282 00c0 08B1     		cbz	r0, .L59
 283              	.L58:
 284              		.loc 1 242 0
 285 00c2 0420     		movs	r0, #4
ARM GAS  /tmp/cc1g2ZPd.s 			page 6


 286              	.LVL35:
 287 00c4 7047     		bx	lr
 288              	.LVL36:
 289              	.L59:
 290              		.loc 1 220 0
 291 00c6 0329     		cmp	r1, #3
 292 00c8 FBD8     		bhi	.L58
 293 00ca DFE801F0 		tbb	[pc, r1]
 294              	.L52:
 295 00ce 02       		.byte	(.L57-.L52)/2
 296 00cf 0E       		.byte	(.L53-.L52)/2
 297 00d0 09       		.byte	(.L54-.L52)/2
 298 00d1 04       		.byte	(.L55-.L52)/2
 299              		.p2align 1
 300              	.L57:
 301              		.loc 1 222 0
 302 00d2 0020     		movs	r0, #0
 303              	.LVL37:
 304              		.loc 1 243 0
 305 00d4 7047     		bx	lr
 306              	.LVL38:
 307              	.L55:
 308              		.loc 1 230 0
 309 00d6 4FF48073 		mov	r3, #256
 310 00da 1360     		str	r3, [r2]
 311              		.loc 1 231 0
 312 00dc 0020     		movs	r0, #0
 313              	.LVL39:
 314 00de 7047     		bx	lr
 315              	.LVL40:
 316              	.L54:
 317              		.loc 1 227 0
 318 00e0 4FF40073 		mov	r3, #512
 319 00e4 1380     		strh	r3, [r2]	@ movhi
 320              		.loc 1 228 0
 321 00e6 0020     		movs	r0, #0
 322              	.LVL41:
 323 00e8 7047     		bx	lr
 324              	.LVL42:
 325              	.L53:
 326              		.loc 1 224 0
 327 00ea 024B     		ldr	r3, .L60
 328 00ec 9B6A     		ldr	r3, [r3, #40]
 329 00ee 1360     		str	r3, [r2]
 330              		.loc 1 225 0
 331 00f0 0020     		movs	r0, #0
 332              	.LVL43:
 333 00f2 7047     		bx	lr
 334              	.L61:
 335              		.align	2
 336              	.L60:
 337 00f4 00000000 		.word	SDCD1
 338              		.cfi_endproc
 339              	.LFE134:
 340              		.size	disk_ioctl, .-disk_ioctl
 341              		.align	2
 342 00f8 AFF30080 		.p2align 4,,15
ARM GAS  /tmp/cc1g2ZPd.s 			page 7


 342      AFF30080 
 343              		.global	get_fattime
 344              		.thumb
 345              		.thumb_func
 346              		.type	get_fattime, %function
 347              	get_fattime:
 348              	.LFB135:
 349              		.loc 1 245 0
 350              		.cfi_startproc
 351              		@ args = 0, pretend = 0, frame = 0
 352              		@ frame_needed = 0, uses_anonymous_args = 0
 353              		@ link register save eliminated.
 354              		.loc 1 251 0
 355 0100 4FF40410 		mov	r0, #2162688
 356 0104 7047     		bx	lr
 357              		.cfi_endproc
 358              	.LFE135:
 359              		.size	get_fattime, .-get_fattime
 360              	.Letext0:
 361              		.file 2 "/home/sbcu/Dropbox/pcb-layouts/axo-on-discovery-board/axoloti/platform_linux/arm-none-eab
 362              		.file 3 "/home/sbcu/Dropbox/pcb-layouts/axo-on-discovery-board/axoloti/platform_linux/arm-none-eab
 363              		.file 4 "/home/sbcu/Dropbox/pcb-layouts/axo-on-discovery-board/axoloti/platform_linux/../chibios/o
 364              		.file 5 "/home/sbcu/Dropbox/pcb-layouts/axo-on-discovery-board/axoloti/platform_linux/../chibios/o
 365              		.file 6 "/home/sbcu/Dropbox/pcb-layouts/axo-on-discovery-board/axoloti/platform_linux/../chibios/o
 366              		.file 7 "/home/sbcu/Dropbox/pcb-layouts/axo-on-discovery-board/axoloti/platform_linux/../chibios/o
 367              		.file 8 "/home/sbcu/Dropbox/pcb-layouts/axo-on-discovery-board/axoloti/platform_linux/../chibios/o
 368              		.file 9 "/home/sbcu/Dropbox/pcb-layouts/axo-on-discovery-board/axoloti/platform_linux/../chibios/o
 369              		.file 10 "/home/sbcu/Dropbox/pcb-layouts/axo-on-discovery-board/axoloti/platform_linux/../chibios/
 370              		.file 11 "/home/sbcu/Dropbox/pcb-layouts/axo-on-discovery-board/axoloti/platform_linux/../chibios/
 371              		.file 12 "/home/sbcu/Dropbox/pcb-layouts/axo-on-discovery-board/axoloti/platform_linux/../chibios/
 372              		.file 13 "/home/sbcu/Dropbox/pcb-layouts/axo-on-discovery-board/axoloti/platform_linux/../chibios/
 373              		.file 14 "/home/sbcu/Dropbox/pcb-layouts/axo-on-discovery-board/axoloti/platform_linux/../chibios/
 374              		.file 15 "/home/sbcu/Dropbox/pcb-layouts/axo-on-discovery-board/axoloti/platform_linux/../CMSIS//I
 375              		.file 16 "/home/sbcu/Dropbox/pcb-layouts/axo-on-discovery-board/axoloti/platform_linux/../chibios/