ARM GAS  /tmp/cc1g2ZPd.s 			page 1


   1              		.syntax unified
   2              		.cpu cortex-m4
   3              		.eabi_attribute 27, 1
   4              		.eabi_attribute 28, 1
   5              		.fpu fpv4-sp-d16
   6              		.eabi_attribute 20, 1
   7              		.eabi_attribute 21, 1
   8              		.eabi_attribute 23, 3
   9              		.eabi_attribute 24, 1
  10              		.eabi_attribute 25, 1
  11              		.eabi_attribute 26, 1
  12              		.eabi_attribute 30, 2
  13              		.eabi_attribute 34, 1
  14              		.eabi_attribute 18, 4
  15              		.thumb
  16              		.file	"fatfs_diskio.c"
  17              		.text
  18              	.Ltext0:
  19              		.cfi_sections	.debug_frame
  20              		.align	2
  21              		.p2align 4,,15
  22              		.global	disk_initialize
  23              		.thumb
  24              		.thumb_func
  25              		.type	disk_initialize, %function
  26              	disk_initialize:
  27              	.LFB130:
  28              		.file 1 "/home/sbcu/Dropbox/pcb-layouts/axo-on-discovery-board/axoloti/platform_linux/../chibios/o
  29              		.loc 1 44 0
  30              		.cfi_startproc
  31              		@ args = 0, pretend = 0, frame = 0
  32              		@ frame_needed = 0, uses_anonymous_args = 0
  33              	.LVL0:
  34 0000 10B5     		push	{r4, lr}
  35              		.cfi_def_cfa_offset 8
  36              		.cfi_offset 4, -8
  37              		.cfi_offset 14, -4
  38              		.loc 1 47 0
  39 0002 10B1     		cbz	r0, .L11
  40              		.loc 1 68 0
  41 0004 0224     		movs	r4, #2
  42              	.LVL1:
  43              	.L2:
  44              		.loc 1 69 0
  45 0006 2046     		mov	r0, r4
  46 0008 10BD     		pop	{r4, pc}
  47              	.LVL2:
  48              	.L11:
  49              		.loc 1 61 0
  50 000a 0748     		ldr	r0, .L12
  51              	.LVL3:
  52 000c 0479     		ldrb	r4, [r0, #4]	@ zero_extendqisi2
  53              		.loc 1 59 0
  54 000e 053C     		subs	r4, r4, #5
  55 0010 18BF     		it	ne
  56 0012 0124     		movne	r4, #1
  57              	.LVL4:
ARM GAS  /tmp/cc1g2ZPd.s 			page 2


  58              		.loc 1 63 0
  59 0014 FFF7FEFF 		bl	sdc_lld_is_write_protected
  60              	.LVL5:
  61 0018 0028     		cmp	r0, #0
  62 001a F4D0     		beq	.L2
  63              		.loc 1 64 0
  64 001c 44F00404 		orr	r4, r4, #4
  65              	.LVL6:
  66 0020 E4B2     		uxtb	r4, r4
  67              		.loc 1 69 0
  68 0022 2046     		mov	r0, r4
  69 0024 10BD     		pop	{r4, pc}
  70              	.L13:
  71 0026 00BF     		.align	2
  72              	.L12:
  73 0028 00000000 		.word	SDCD1
  74              		.cfi_endproc
  75              	.LFE130:
  76              		.size	disk_initialize, .-disk_initialize
  77              		.align	2
  78 002c AFF30080 		.p2align 4,,15
  79              		.global	disk_status
  80              		.thumb
  81              		.thumb_func
  82              		.type	disk_status, %function
  83              	disk_status:
  84              	.LFB131:
  85              		.loc 1 79 0
  86              		.cfi_startproc
  87              		@ args = 0, pretend = 0, frame = 0
  88              		@ frame_needed = 0, uses_anonymous_args = 0
  89              	.LVL7:
  90 0030 10B5     		push	{r4, lr}
  91              		.cfi_def_cfa_offset 8
  92              		.cfi_offset 4, -8
  93              		.cfi_offset 14, -4
  94              		.loc 1 82 0
  95 0032 10B1     		cbz	r0, .L23
  96              		.loc 1 103 0
  97 0034 0224     		movs	r4, #2
  98              	.LVL8:
  99              	.L15:
 100              		.loc 1 104 0
 101 0036 2046     		mov	r0, r4
 102 0038 10BD     		pop	{r4, pc}
 103              	.LVL9:
 104              	.L23:
 105              		.loc 1 96 0
 106 003a 0748     		ldr	r0, .L24
 107              	.LVL10:
 108 003c 0479     		ldrb	r4, [r0, #4]	@ zero_extendqisi2
 109              		.loc 1 94 0
 110 003e 053C     		subs	r4, r4, #5
 111 0040 18BF     		it	ne
 112 0042 0124     		movne	r4, #1
 113              	.LVL11:
 114              		.loc 1 98 0
ARM GAS  /tmp/cc1g2ZPd.s 			page 3


 115 0044 FFF7FEFF 		bl	sdc_lld_is_write_protected
 116              	.LVL12:
 117 0048 0028     		cmp	r0, #0
 118 004a F4D0     		beq	.L15
 119              		.loc 1 99 0
 120 004c 44F00404 		orr	r4, r4, #4
 121              	.LVL13:
 122 0050 E4B2     		uxtb	r4, r4
 123              		.loc 1 104 0
 124 0052 2046     		mov	r0, r4
 125 0054 10BD     		pop	{r4, pc}
 126              	.L25:
 127 0056 00BF     		.align	2
 128              	.L24:
 129 0058 00000000 		.word	SDCD1
 130              		.cfi_endproc
 131              	.LFE131:
 132              		.size	disk_status, .-disk_status
 133              		.align	2
 134 005c AFF30080 		.p2align 4,,15
 135              		.global	disk_read
 136              		.thumb
 137              		.thumb_func
 138              		.type	disk_read, %function
 139              	disk_read:
 140              	.LFB132:
 141              		.loc 1 117 0
 142              		.cfi_startproc
 143              		@ args = 0, pretend = 0, frame = 0
 144              		@ frame_needed = 0, uses_anonymous_args = 0
 145              		@ link register save eliminated.
 146              	.LVL14:
 147              		.loc 1 118 0
 148 0060 08B1     		cbz	r0, .L33
 149              		.loc 1 143 0
 150 0062 0420     		movs	r0, #4
 151              	.LVL15:
 152              		.loc 1 144 0
 153 0064 7047     		bx	lr
 154              	.LVL16:
 155              	.L33:
 156              		.loc 1 136 0
 157 0066 0848     		ldr	r0, .L35
 158              	.LVL17:
 159              		.loc 1 117 0
 160 0068 10B4     		push	{r4}
 161              		.cfi_def_cfa_offset 4
 162              		.cfi_offset 4, -4
 163 006a 0C46     		mov	r4, r1
 164              		.loc 1 136 0
 165 006c 0179     		ldrb	r1, [r0, #4]	@ zero_extendqisi2
 166              	.LVL18:
 167 006e 0529     		cmp	r1, #5
 168 0070 03D0     		beq	.L34
 169              		.loc 1 137 0
 170 0072 0320     		movs	r0, #3
 171              		.loc 1 144 0
ARM GAS  /tmp/cc1g2ZPd.s 			page 4


 172 0074 5DF8044B 		ldr	r4, [sp], #4
 173              		.cfi_remember_state
 174              		.cfi_restore 4
 175              		.cfi_def_cfa_offset 0
 176              	.LVL19:
 177 0078 7047     		bx	lr
 178              	.LVL20:
 179              	.L34:
 180              		.cfi_restore_state
 181              		.loc 1 138 0
 182 007a 1146     		mov	r1, r2
 183 007c 2246     		mov	r2, r4
 184              	.LVL21:
 185              		.loc 1 144 0
 186 007e 5DF8044B 		ldr	r4, [sp], #4
 187              		.cfi_restore 4
 188              		.cfi_def_cfa_offset 0
 189              	.LVL22:
 190              		.loc 1 138 0
 191 0082 FFF7FEBF 		b	sdcRead
 192              	.LVL23:
 193              	.L36:
 194 0086 00BF     		.align	2
 195              	.L35:
 196 0088 00000000 		.word	SDCD1
 197              		.cfi_endproc
 198              	.LFE132:
 199              		.size	disk_read, .-disk_read
 200              		.align	2
 201 008c AFF30080 		.p2align 4,,15
 202              		.global	disk_write
 203              		.thumb
 204              		.thumb_func
 205              		.type	disk_write, %function
 206              	disk_write:
 207              	.LFB133:
 208              		.loc 1 158 0
 209              		.cfi_startproc
 210              		@ args = 0, pretend = 0, frame = 0
 211              		@ frame_needed = 0, uses_anonymous_args = 0
 212              		@ link register save eliminated.
 213              	.LVL24:
 214              		.loc 1 159 0
 215 0090 08B1     		cbz	r0, .L44
 216              		.loc 1 186 0
 217 0092 0420     		movs	r0, #4
 218              	.LVL25:
 219              		.loc 1 187 0
 220 0094 7047     		bx	lr
 221              	.LVL26:
 222              	.L44:
 223              		.loc 1 179 0
 224 0096 0848     		ldr	r0, .L46
 225              	.LVL27:
 226              		.loc 1 158 0
 227 0098 10B4     		push	{r4}
 228              		.cfi_def_cfa_offset 4
ARM GAS  /tmp/cc1g2ZPd.s 			page 5


 229              		.cfi_offset 4, -4
 230 009a 0C46     		mov	r4, r1
 231              		.loc 1 179 0
 232 009c 0179     		ldrb	r1, [r0, #4]	@ zero_extendqisi2
 233              	.LVL28:
 234 009e 0529     		cmp	r1, #5
 235 00a0 03D0     		beq	.L45
 236              		.loc 1 180 0
 237 00a2 0320     		movs	r0, #3
 238              		.loc 1 187 0
 239 00a4 5DF8044B 		ldr	r4, [sp], #4
 240              		.cfi_remember_state
 241              		.cfi_restore 4
 242              		.cfi_def_cfa_offset 0
 243              	.LVL29:
 244 00a8 7047     		bx	lr
 245              	.LVL30:
 246              	.L45:
 247              		.cfi_restore_state
 248              		.loc 1 181 0
 249 00aa 1146     		mov	r1, r2
 250 00ac 2246     		mov	r2, r4
 251              	.LVL31:
 252              		.loc 1 187 0
 253 00ae 5DF8044B 		ldr	r4, [sp], #4
 254              		.cfi_restore 4
 255              		.cfi_def_cfa_offset 0
 256              	.LVL32:
 257              		.loc 1 181 0
 258 00b2 FFF7FEBF 		b	sdcWrite
 259              	.LVL33:
 260              	.L47:
 261 00b6 00BF     		.align	2
 262              	.L46:
 263 00b8 00000000 		.word	SDCD1
 264              		.cfi_endproc
 265              	.LFE133:
 266              		.size	disk_write, .-disk_write
 267              		.align	2
 268 00bc AFF30080 		.p2align 4,,15
 269              		.global	disk_ioctl
 270              		.thumb
 271              		.thumb_func
 272              		.type	disk_ioctl, %function
 273              	disk_ioctl:
 274              	.LFB134:
 275              		.loc 1 200 0
 276              		.cfi_startproc
 277              		@ args = 0, pretend = 0, frame = 0
 278              		@ frame_needed = 0, uses_anonymous_args = 0
 279              		@ link register save eliminated.
 280              	.LVL34:
 281              		.loc 1 201 0
 282 00c0 08B1     		cbz	r0, .L59
 283              	.L58:
 284              		.loc 1 242 0
 285 00c2 0420     		movs	r0, #4
ARM GAS  /tmp/cc1g2ZPd.s 			page 6


 286              	.LVL35:
 287 00c4 7047     		bx	lr
 288              	.LVL36:
 289              	.L59:
 290              		.loc 1 220 0
 291 00c6 0329     		cmp	r1, #3
 292 00c8 FBD8     		bhi	.L58
 293 00ca DFE801F0 		tbb	[pc, r1]
 294              	.L52:
 295 00ce 02       		.byte	(.L57-.L52)/2
 296 00cf 0E       		.byte	(.L53-.L52)/2
 297 00d0 09       		.byte	(.L54-.L52)/2
 298 00d1 04       		.byte	(.L55-.L52)/2
 299              		.p2align 1
 300              	.L57:
 301              		.loc 1 222 0
 302 00d2 0020     		movs	r0, #0
 303              	.LVL37:
 304              		.loc 1 243 0
 305 00d4 7047     		bx	lr
 306              	.LVL38:
 307              	.L55:
 308              		.loc 1 230 0
 309 00d6 4FF48073 		mov	r3, #256
 310 00da 1360     		str	r3, [r2]
 311              		.loc 1 231 0
 312 00dc 0020     		movs	r0, #0
 313              	.LVL39:
 314 00de 7047     		bx	lr
 315              	.LVL40:
 316              	.L54:
 317              		.loc 1 227 0
 318 00e0 4FF40073 		mov	r3, #512
 319 00e4 1380     		strh	r3, [r2]	@ movhi
 320              		.loc 1 228 0
 321 00e6 0020     		movs	r0, #0
 322              	.LVL41:
 323 00e8 7047     		bx	lr
 324              	.LVL42:
 325              	.L53:
 326              		.loc 1 224 0
 327 00ea 024B     		ldr	r3, .L60
 328 00ec 9B6A     		ldr	r3, [r3, #40]
 329 00ee 1360     		str	r3, [r2]
 330              		.loc 1 225 0
 331 00f0 0020     		movs	r0, #0
 332              	.LVL43:
 333 00f2 7047     		bx	lr
 334              	.L61:
 335              		.align	2
 336              	.L60:
 337 00f4 00000000 		.word	SDCD1
 338              		.cfi_endproc
 339              	.LFE134:
 340              		.size	disk_ioctl, .-disk_ioctl
 341              		.align	2
 342 00f8 AFF30080 		.p2align 4,,15
ARM GAS  /tmp/cc1g2ZPd.s 			page 7


 342      AFF30080 
 343              		.global	get_fattime
 344              		.thumb
 345              		.thumb_func
 346              		.type	get_fattime, %function
 347              	get_fattime:
 348              	.LFB135:
 349              		.loc 1 245 0
 350              		.cfi_startproc
 351              		@ args = 0, pretend = 0, frame = 0
 352              		@ frame_needed = 0, uses_anonymous_args = 0
 353              		@ link register save eliminated.
 354              		.loc 1 251 0
 355 0100 4FF40410 		mov	r0, #2162688
 356 0104 7047     		bx	lr
 357              		.cfi_endproc
 358              	.LFE135:
 359              		.size	get_fattime, .-get_fattime
 360              	.Letext0:
 361              		.file 2 "/home/sbcu/Dropbox/pcb-layouts/axo-on-discovery-board/axoloti/platform_linux/arm-none-eab
 362              		.file 3 "/home/sbcu/Dropbox/pcb-layouts/axo-on-discovery-board/axoloti/platform_linux/arm-none-eab
 363              		.file 4 "/home/sbcu/Dropbox/pcb-layouts/axo-on-discovery-board/axoloti/platform_linux/../chibios/o
 364              		.file 5 "/home/sbcu/Dropbox/pcb-layouts/axo-on-discovery-board/axoloti/platform_linux/../chibios/o
 365              		.file 6 "/home/sbcu/Dropbox/pcb-layouts/axo-on-discovery-board/axoloti/platform_linux/../chibios/o
 366              		.file 7 "/home/sbcu/Dropbox/pcb-layouts/axo-on-discovery-board/axoloti/platform_linux/../chibios/o
 367              		.file 8 "/home/sbcu/Dropbox/pcb-layouts/axo-on-discovery-board/axoloti/platform_linux/../chibios/o
 368              		.file 9 "/home/sbcu/Dropbox/pcb-layouts/axo-on-discovery-board/axoloti/platform_linux/../chibios/o
 369              		.file 10 "/home/sbcu/Dropbox/pcb-layouts/axo-on-discovery-board/axoloti/platform_linux/../chibios/
 370              		.file 11 "/home/sbcu/Dropbox/pcb-layouts/axo-on-discovery-board/axoloti/platform_linux/../chibios/
 371              		.file 12 "/home/sbcu/Dropbox/pcb-layouts/axo-on-discovery-board/axoloti/platform_linux/../chibios/
 372              		.file 13 "/home/sbcu/Dropbox/pcb-layouts/axo-on-discovery-board/axoloti/platform_linux/../chibios/
 373              		.file 14 "/home/sbcu/Dropbox/pcb-layouts/axo-on-discovery-board/axoloti/platform_linux/../chibios/
 374              		.file 15 "/home/sbcu/Dropbox/pcb-layouts/axo-on-discovery-board/axoloti/platform_linux/../CMSIS//I
 375              		.file 16 "/home/sbcu/Dropbox/pcb-layouts/axo-on-discovery-board/axoloti/platform_linux/../chibios/
 376 0106 00BF     		.section	.debug_info,"",%progbits
 377              	.Ldebug_info0:
 378 0000 2B0A0000 		.4byte	0xa2b
 379 0004 0400     		.2byte	0x4
 380 0006 00000000 		.4byte	.Ldebug_abbrev0
 381 000a 04       		.byte	0x4
 382 000b 01       		.uleb128 0x1
 383 000c 30040000 		.4byte	.LASF123
 384 0010 01       		.byte	0x1
 385 0011 CE010000 		.4byte	.LASF124
 386 0015 40030000 		.4byte	.LASF125
 387 0019 00000000 		.4byte	.Ltext0
 388 001d 06010000 		.4byte	.Letext0-.Ltext0
 389 0021 00000000 		.4byte	.Ldebug_line0
 390 0025 02       		.uleb128 0x2
 391 0026 04       		.byte	0x4
 392 0027 05       		.byte	0x5
 393 0028 696E7400 		.ascii	"int\000"
 394 002c 03       		.uleb128 0x3
 395 002d 04       		.byte	0x4
 396 002e 07       		.byte	0x7
 397 002f 91010000 		.4byte	.LASF0
 398 0033 03       		.uleb128 0x3
ARM GAS  /tmp/cc1g2ZPd.s 			page 8


 399 0034 01       		.byte	0x1
 400 0035 06       		.byte	0x6
 401 0036 C1000000 		.4byte	.LASF1
 402 003a 04       		.uleb128 0x4
 403 003b 4A000000 		.4byte	.LASF5
 404 003f 02       		.byte	0x2
 405 0040 1D       		.byte	0x1d
 406 0041 45000000 		.4byte	0x45
 407 0045 03       		.uleb128 0x3
 408 0046 01       		.byte	0x1
 409 0047 08       		.byte	0x8
 410 0048 BE030000 		.4byte	.LASF2
 411 004c 03       		.uleb128 0x3
 412 004d 02       		.byte	0x2
 413 004e 05       		.byte	0x5
 414 004f E6030000 		.4byte	.LASF3
 415 0053 03       		.uleb128 0x3
 416 0054 02       		.byte	0x2
 417 0055 07       		.byte	0x7
 418 0056 4F020000 		.4byte	.LASF4
 419 005a 04       		.uleb128 0x4
 420 005b C4020000 		.4byte	.LASF6
 421 005f 02       		.byte	0x2
 422 0060 3F       		.byte	0x3f
 423 0061 65000000 		.4byte	0x65
 424 0065 03       		.uleb128 0x3
 425 0066 04       		.byte	0x4
 426 0067 05       		.byte	0x5
 427 0068 13010000 		.4byte	.LASF7
 428 006c 04       		.uleb128 0x4
 429 006d 50010000 		.4byte	.LASF8
 430 0071 02       		.byte	0x2
 431 0072 41       		.byte	0x41
 432 0073 77000000 		.4byte	0x77
 433 0077 03       		.uleb128 0x3
 434 0078 04       		.byte	0x4
 435 0079 07       		.byte	0x7
 436 007a 52050000 		.4byte	.LASF9
 437 007e 03       		.uleb128 0x3
 438 007f 08       		.byte	0x8
 439 0080 05       		.byte	0x5
 440 0081 B3000000 		.4byte	.LASF10
 441 0085 03       		.uleb128 0x3
 442 0086 08       		.byte	0x8
 443 0087 07       		.byte	0x7
 444 0088 66000000 		.4byte	.LASF11
 445 008c 04       		.uleb128 0x4
 446 008d 0F060000 		.4byte	.LASF12
 447 0091 03       		.byte	0x3
 448 0092 14       		.byte	0x14
 449 0093 3A000000 		.4byte	0x3a
 450 0097 04       		.uleb128 0x4
 451 0098 B6030000 		.4byte	.LASF13
 452 009c 03       		.byte	0x3
 453 009d 1F       		.byte	0x1f
 454 009e 5A000000 		.4byte	0x5a
 455 00a2 04       		.uleb128 0x4
ARM GAS  /tmp/cc1g2ZPd.s 			page 9


 456 00a3 41050000 		.4byte	.LASF14
 457 00a7 03       		.byte	0x3
 458 00a8 20       		.byte	0x20
 459 00a9 6C000000 		.4byte	0x6c
 460 00ad 04       		.uleb128 0x4
 461 00ae D2000000 		.4byte	.LASF15
 462 00b2 04       		.byte	0x4
 463 00b3 2B       		.byte	0x2b
 464 00b4 B8000000 		.4byte	0xb8
 465 00b8 03       		.uleb128 0x3
 466 00b9 01       		.byte	0x1
 467 00ba 02       		.byte	0x2
 468 00bb B0030000 		.4byte	.LASF16
 469 00bf 04       		.uleb128 0x4
 470 00c0 9D020000 		.4byte	.LASF17
 471 00c4 04       		.byte	0x4
 472 00c5 2C       		.byte	0x2c
 473 00c6 8C000000 		.4byte	0x8c
 474 00ca 04       		.uleb128 0x4
 475 00cb 1C010000 		.4byte	.LASF18
 476 00cf 04       		.byte	0x4
 477 00d0 2D       		.byte	0x2d
 478 00d1 8C000000 		.4byte	0x8c
 479 00d5 04       		.uleb128 0x4
 480 00d6 EC000000 		.4byte	.LASF19
 481 00da 04       		.byte	0x4
 482 00db 2F       		.byte	0x2f
 483 00dc 8C000000 		.4byte	0x8c
 484 00e0 04       		.uleb128 0x4
 485 00e1 A1030000 		.4byte	.LASF20
 486 00e5 04       		.byte	0x4
 487 00e6 30       		.byte	0x30
 488 00e7 A2000000 		.4byte	0xa2
 489 00eb 04       		.uleb128 0x4
 490 00ec 88020000 		.4byte	.LASF21
 491 00f0 04       		.byte	0x4
 492 00f1 31       		.byte	0x31
 493 00f2 97000000 		.4byte	0x97
 494 00f6 04       		.uleb128 0x4
 495 00f7 B8020000 		.4byte	.LASF22
 496 00fb 04       		.byte	0x4
 497 00fc 33       		.byte	0x33
 498 00fd A2000000 		.4byte	0xa2
 499 0101 04       		.uleb128 0x4
 500 0102 29040000 		.4byte	.LASF23
 501 0106 05       		.byte	0x5
 502 0107 2A       		.byte	0x2a
 503 0108 0C010000 		.4byte	0x10c
 504 010c 05       		.uleb128 0x5
 505 010d 29040000 		.4byte	.LASF23
 506 0111 40       		.byte	0x40
 507 0112 06       		.byte	0x6
 508 0113 5E       		.byte	0x5e
 509 0114 E5010000 		.4byte	0x1e5
 510 0118 06       		.uleb128 0x6
 511 0119 15040000 		.4byte	.LASF24
 512 011d 06       		.byte	0x6
ARM GAS  /tmp/cc1g2ZPd.s 			page 10


 513 011e 5F       		.byte	0x5f
 514 011f 06020000 		.4byte	0x206
 515 0123 00       		.byte	0
 516 0124 06       		.uleb128 0x6
 517 0125 87030000 		.4byte	.LASF25
 518 0129 06       		.byte	0x6
 519 012a 61       		.byte	0x61
 520 012b 06020000 		.4byte	0x206
 521 012f 04       		.byte	0x4
 522 0130 06       		.uleb128 0x6
 523 0131 A7000000 		.4byte	.LASF26
 524 0135 06       		.byte	0x6
 525 0136 63       		.byte	0x63
 526 0137 E0000000 		.4byte	0xe0
 527 013b 08       		.byte	0x8
 528 013c 06       		.uleb128 0x6
 529 013d 54060000 		.4byte	.LASF27
 530 0141 06       		.byte	0x6
 531 0142 64       		.byte	0x64
 532 0143 90030000 		.4byte	0x390
 533 0147 0C       		.byte	0xc
 534 0148 06       		.uleb128 0x6
 535 0149 36010000 		.4byte	.LASF28
 536 014d 06       		.byte	0x6
 537 014e 66       		.byte	0x66
 538 014f 06020000 		.4byte	0x206
 539 0153 10       		.byte	0x10
 540 0154 06       		.uleb128 0x6
 541 0155 10030000 		.4byte	.LASF29
 542 0159 06       		.byte	0x6
 543 015a 67       		.byte	0x67
 544 015b 06020000 		.4byte	0x206
 545 015f 14       		.byte	0x14
 546 0160 06       		.uleb128 0x6
 547 0161 F2050000 		.4byte	.LASF30
 548 0165 06       		.byte	0x6
 549 0166 6E       		.byte	0x6e
 550 0167 34040000 		.4byte	0x434
 551 016b 18       		.byte	0x18
 552 016c 06       		.uleb128 0x6
 553 016d F0030000 		.4byte	.LASF31
 554 0171 06       		.byte	0x6
 555 0172 79       		.byte	0x79
 556 0173 CA000000 		.4byte	0xca
 557 0177 1C       		.byte	0x1c
 558 0178 06       		.uleb128 0x6
 559 0179 89010000 		.4byte	.LASF32
 560 017d 06       		.byte	0x6
 561 017e 7D       		.byte	0x7d
 562 017f BF000000 		.4byte	0xbf
 563 0183 1D       		.byte	0x1d
 564 0184 06       		.uleb128 0x6
 565 0185 04040000 		.4byte	.LASF33
 566 0189 06       		.byte	0x6
 567 018a 88       		.byte	0x88
 568 018b D5000000 		.4byte	0xd5
 569 018f 1E       		.byte	0x1e
ARM GAS  /tmp/cc1g2ZPd.s 			page 11


 570 0190 07       		.uleb128 0x7
 571 0191 705F7500 		.ascii	"p_u\000"
 572 0195 06       		.byte	0x6
 573 0196 B4       		.byte	0xb4
 574 0197 FF030000 		.4byte	0x3ff
 575 019b 20       		.byte	0x20
 576 019c 06       		.uleb128 0x6
 577 019d 5A060000 		.4byte	.LASF34
 578 01a1 06       		.byte	0x6
 579 01a2 B9       		.byte	0xb9
 580 01a3 2C020000 		.4byte	0x22c
 581 01a7 24       		.byte	0x24
 582 01a8 06       		.uleb128 0x6
 583 01a9 B0010000 		.4byte	.LASF35
 584 01ad 06       		.byte	0x6
 585 01ae BF       		.byte	0xbf
 586 01af 0C020000 		.4byte	0x20c
 587 01b3 28       		.byte	0x28
 588 01b4 06       		.uleb128 0x6
 589 01b5 35060000 		.4byte	.LASF36
 590 01b9 06       		.byte	0x6
 591 01ba C3       		.byte	0xc3
 592 01bb EB000000 		.4byte	0xeb
 593 01bf 30       		.byte	0x30
 594 01c0 06       		.uleb128 0x6
 595 01c1 31050000 		.4byte	.LASF37
 596 01c5 06       		.byte	0x6
 597 01c6 C9       		.byte	0xc9
 598 01c7 F6000000 		.4byte	0xf6
 599 01cb 34       		.byte	0x34
 600 01cc 06       		.uleb128 0x6
 601 01cd DC030000 		.4byte	.LASF38
 602 01d1 06       		.byte	0x6
 603 01d2 D0       		.byte	0xd0
 604 01d3 46040000 		.4byte	0x446
 605 01d7 38       		.byte	0x38
 606 01d8 06       		.uleb128 0x6
 607 01d9 97050000 		.4byte	.LASF39
 608 01dd 06       		.byte	0x6
 609 01de D4       		.byte	0xd4
 610 01df E0000000 		.4byte	0xe0
 611 01e3 3C       		.byte	0x3c
 612 01e4 00       		.byte	0
 613 01e5 08       		.uleb128 0x8
 614 01e6 08       		.byte	0x8
 615 01e7 05       		.byte	0x5
 616 01e8 61       		.byte	0x61
 617 01e9 06020000 		.4byte	0x206
 618 01ed 06       		.uleb128 0x6
 619 01ee 15040000 		.4byte	.LASF24
 620 01f2 05       		.byte	0x5
 621 01f3 62       		.byte	0x62
 622 01f4 06020000 		.4byte	0x206
 623 01f8 00       		.byte	0
 624 01f9 06       		.uleb128 0x6
 625 01fa 87030000 		.4byte	.LASF25
 626 01fe 05       		.byte	0x5
ARM GAS  /tmp/cc1g2ZPd.s 			page 12


 627 01ff 64       		.byte	0x64
 628 0200 06020000 		.4byte	0x206
 629 0204 04       		.byte	0x4
 630 0205 00       		.byte	0
 631 0206 09       		.uleb128 0x9
 632 0207 04       		.byte	0x4
 633 0208 01010000 		.4byte	0x101
 634 020c 04       		.uleb128 0x4
 635 020d 2B030000 		.4byte	.LASF40
 636 0211 05       		.byte	0x5
 637 0212 66       		.byte	0x66
 638 0213 E5010000 		.4byte	0x1e5
 639 0217 08       		.uleb128 0x8
 640 0218 04       		.byte	0x4
 641 0219 05       		.byte	0x5
 642 021a 6B       		.byte	0x6b
 643 021b 2C020000 		.4byte	0x22c
 644 021f 06       		.uleb128 0x6
 645 0220 15040000 		.4byte	.LASF24
 646 0224 05       		.byte	0x5
 647 0225 6D       		.byte	0x6d
 648 0226 06020000 		.4byte	0x206
 649 022a 00       		.byte	0
 650 022b 00       		.byte	0
 651 022c 04       		.uleb128 0x4
 652 022d AC020000 		.4byte	.LASF41
 653 0231 05       		.byte	0x5
 654 0232 70       		.byte	0x70
 655 0233 17020000 		.4byte	0x217
 656 0237 04       		.uleb128 0x4
 657 0238 5B010000 		.4byte	.LASF42
 658 023c 07       		.byte	0x7
 659 023d E5       		.byte	0xe5
 660 023e 42020000 		.4byte	0x242
 661 0242 0A       		.uleb128 0xa
 662 0243 04       		.byte	0x4
 663 0244 0B       		.uleb128 0xb
 664 0245 DA050000 		.4byte	.LASF43
 665 0249 64       		.byte	0x64
 666 024a 07       		.byte	0x7
 667 024b 0C01     		.2byte	0x10c
 668 024d 90030000 		.4byte	0x390
 669 0251 0C       		.uleb128 0xc
 670 0252 73313600 		.ascii	"s16\000"
 671 0256 07       		.byte	0x7
 672 0257 0E01     		.2byte	0x10e
 673 0259 37020000 		.4byte	0x237
 674 025d 00       		.byte	0
 675 025e 0C       		.uleb128 0xc
 676 025f 73313700 		.ascii	"s17\000"
 677 0263 07       		.byte	0x7
 678 0264 0F01     		.2byte	0x10f
 679 0266 37020000 		.4byte	0x237
 680 026a 04       		.byte	0x4
 681 026b 0C       		.uleb128 0xc
 682 026c 73313800 		.ascii	"s18\000"
 683 0270 07       		.byte	0x7
ARM GAS  /tmp/cc1g2ZPd.s 			page 13


 684 0271 1001     		.2byte	0x110
 685 0273 37020000 		.4byte	0x237
 686 0277 08       		.byte	0x8
 687 0278 0C       		.uleb128 0xc
 688 0279 73313900 		.ascii	"s19\000"
 689 027d 07       		.byte	0x7
 690 027e 1101     		.2byte	0x111
 691 0280 37020000 		.4byte	0x237
 692 0284 0C       		.byte	0xc
 693 0285 0C       		.uleb128 0xc
 694 0286 73323000 		.ascii	"s20\000"
 695 028a 07       		.byte	0x7
 696 028b 1201     		.2byte	0x112
 697 028d 37020000 		.4byte	0x237
 698 0291 10       		.byte	0x10
 699 0292 0C       		.uleb128 0xc
 700 0293 73323100 		.ascii	"s21\000"
 701 0297 07       		.byte	0x7
 702 0298 1301     		.2byte	0x113
 703 029a 37020000 		.4byte	0x237
 704 029e 14       		.byte	0x14
 705 029f 0C       		.uleb128 0xc
 706 02a0 73323200 		.ascii	"s22\000"
 707 02a4 07       		.byte	0x7
 708 02a5 1401     		.2byte	0x114
 709 02a7 37020000 		.4byte	0x237
 710 02ab 18       		.byte	0x18
 711 02ac 0C       		.uleb128 0xc
 712 02ad 73323300 		.ascii	"s23\000"
 713 02b1 07       		.byte	0x7
 714 02b2 1501     		.2byte	0x115
 715 02b4 37020000 		.4byte	0x237
 716 02b8 1C       		.byte	0x1c
 717 02b9 0C       		.uleb128 0xc
 718 02ba 73323400 		.ascii	"s24\000"
 719 02be 07       		.byte	0x7
 720 02bf 1601     		.2byte	0x116
 721 02c1 37020000 		.4byte	0x237
 722 02c5 20       		.byte	0x20
 723 02c6 0C       		.uleb128 0xc
 724 02c7 73323500 		.ascii	"s25\000"
 725 02cb 07       		.byte	0x7
 726 02cc 1701     		.2byte	0x117
 727 02ce 37020000 		.4byte	0x237
 728 02d2 24       		.byte	0x24
 729 02d3 0C       		.uleb128 0xc
 730 02d4 73323600 		.ascii	"s26\000"
 731 02d8 07       		.byte	0x7
 732 02d9 1801     		.2byte	0x118
 733 02db 37020000 		.4byte	0x237
 734 02df 28       		.byte	0x28
 735 02e0 0C       		.uleb128 0xc
 736 02e1 73323700 		.ascii	"s27\000"
 737 02e5 07       		.byte	0x7
 738 02e6 1901     		.2byte	0x119
 739 02e8 37020000 		.4byte	0x237
 740 02ec 2C       		.byte	0x2c
ARM GAS  /tmp/cc1g2ZPd.s 			page 14


 741 02ed 0C       		.uleb128 0xc
 742 02ee 73323800 		.ascii	"s28\000"
 743 02f2 07       		.byte	0x7
 744 02f3 1A01     		.2byte	0x11a
 745 02f5 37020000 		.4byte	0x237
 746 02f9 30       		.byte	0x30
 747 02fa 0C       		.uleb128 0xc
 748 02fb 73323900 		.ascii	"s29\000"
 749 02ff 07       		.byte	0x7
 750 0300 1B01     		.2byte	0x11b
 751 0302 37020000 		.4byte	0x237
 752 0306 34       		.byte	0x34
 753 0307 0C       		.uleb128 0xc
 754 0308 73333000 		.ascii	"s30\000"
 755 030c 07       		.byte	0x7
 756 030d 1C01     		.2byte	0x11c
 757 030f 37020000 		.4byte	0x237
 758 0313 38       		.byte	0x38
 759 0314 0C       		.uleb128 0xc
 760 0315 73333100 		.ascii	"s31\000"
 761 0319 07       		.byte	0x7
 762 031a 1D01     		.2byte	0x11d
 763 031c 37020000 		.4byte	0x237
 764 0320 3C       		.byte	0x3c
 765 0321 0C       		.uleb128 0xc
 766 0322 723400   		.ascii	"r4\000"
 767 0325 07       		.byte	0x7
 768 0326 1F01     		.2byte	0x11f
 769 0328 37020000 		.4byte	0x237
 770 032c 40       		.byte	0x40
 771 032d 0C       		.uleb128 0xc
 772 032e 723500   		.ascii	"r5\000"
 773 0331 07       		.byte	0x7
 774 0332 2001     		.2byte	0x120
 775 0334 37020000 		.4byte	0x237
 776 0338 44       		.byte	0x44
 777 0339 0C       		.uleb128 0xc
 778 033a 723600   		.ascii	"r6\000"
 779 033d 07       		.byte	0x7
 780 033e 2101     		.2byte	0x121
 781 0340 37020000 		.4byte	0x237
 782 0344 48       		.byte	0x48
 783 0345 0C       		.uleb128 0xc
 784 0346 723700   		.ascii	"r7\000"
 785 0349 07       		.byte	0x7
 786 034a 2201     		.2byte	0x122
 787 034c 37020000 		.4byte	0x237
 788 0350 4C       		.byte	0x4c
 789 0351 0C       		.uleb128 0xc
 790 0352 723800   		.ascii	"r8\000"
 791 0355 07       		.byte	0x7
 792 0356 2301     		.2byte	0x123
 793 0358 37020000 		.4byte	0x237
 794 035c 50       		.byte	0x50
 795 035d 0C       		.uleb128 0xc
 796 035e 723900   		.ascii	"r9\000"
 797 0361 07       		.byte	0x7
ARM GAS  /tmp/cc1g2ZPd.s 			page 15


 798 0362 2401     		.2byte	0x124
 799 0364 37020000 		.4byte	0x237
 800 0368 54       		.byte	0x54
 801 0369 0C       		.uleb128 0xc
 802 036a 72313000 		.ascii	"r10\000"
 803 036e 07       		.byte	0x7
 804 036f 2501     		.2byte	0x125
 805 0371 37020000 		.4byte	0x237
 806 0375 58       		.byte	0x58
 807 0376 0C       		.uleb128 0xc
 808 0377 72313100 		.ascii	"r11\000"
 809 037b 07       		.byte	0x7
 810 037c 2601     		.2byte	0x126
 811 037e 37020000 		.4byte	0x237
 812 0382 5C       		.byte	0x5c
 813 0383 0C       		.uleb128 0xc
 814 0384 6C7200   		.ascii	"lr\000"
 815 0387 07       		.byte	0x7
 816 0388 2701     		.2byte	0x127
 817 038a 37020000 		.4byte	0x237
 818 038e 60       		.byte	0x60
 819 038f 00       		.byte	0
 820 0390 0B       		.uleb128 0xb
 821 0391 C7050000 		.4byte	.LASF44
 822 0395 04       		.byte	0x4
 823 0396 07       		.byte	0x7
 824 0397 3101     		.2byte	0x131
 825 0399 AB030000 		.4byte	0x3ab
 826 039d 0C       		.uleb128 0xc
 827 039e 72313300 		.ascii	"r13\000"
 828 03a2 07       		.byte	0x7
 829 03a3 3201     		.2byte	0x132
 830 03a5 AB030000 		.4byte	0x3ab
 831 03a9 00       		.byte	0
 832 03aa 00       		.byte	0
 833 03ab 09       		.uleb128 0x9
 834 03ac 04       		.byte	0x4
 835 03ad 44020000 		.4byte	0x244
 836 03b1 0D       		.uleb128 0xd
 837 03b2 A2000000 		.4byte	0xa2
 838 03b6 03       		.uleb128 0x3
 839 03b7 04       		.byte	0x4
 840 03b8 07       		.byte	0x7
 841 03b9 F5020000 		.4byte	.LASF45
 842 03bd 05       		.uleb128 0x5
 843 03be FE020000 		.4byte	.LASF46
 844 03c2 10       		.byte	0x10
 845 03c3 08       		.byte	0x8
 846 03c4 2C       		.byte	0x2c
 847 03c5 EE030000 		.4byte	0x3ee
 848 03c9 06       		.uleb128 0x6
 849 03ca D9000000 		.4byte	.LASF47
 850 03ce 08       		.byte	0x8
 851 03cf 2D       		.byte	0x2d
 852 03d0 0C020000 		.4byte	0x20c
 853 03d4 00       		.byte	0
 854 03d5 06       		.uleb128 0x6
ARM GAS  /tmp/cc1g2ZPd.s 			page 16


 855 03d6 3B060000 		.4byte	.LASF48
 856 03da 08       		.byte	0x8
 857 03db 2F       		.byte	0x2f
 858 03dc 06020000 		.4byte	0x206
 859 03e0 08       		.byte	0x8
 860 03e1 06       		.uleb128 0x6
 861 03e2 87050000 		.4byte	.LASF49
 862 03e6 08       		.byte	0x8
 863 03e7 31       		.byte	0x31
 864 03e8 EE030000 		.4byte	0x3ee
 865 03ec 0C       		.byte	0xc
 866 03ed 00       		.byte	0
 867 03ee 09       		.uleb128 0x9
 868 03ef 04       		.byte	0x4
 869 03f0 BD030000 		.4byte	0x3bd
 870 03f4 04       		.uleb128 0x4
 871 03f5 FE020000 		.4byte	.LASF46
 872 03f9 08       		.byte	0x8
 873 03fa 33       		.byte	0x33
 874 03fb BD030000 		.4byte	0x3bd
 875 03ff 0E       		.uleb128 0xe
 876 0400 04       		.byte	0x4
 877 0401 06       		.byte	0x6
 878 0402 96       		.byte	0x96
 879 0403 34040000 		.4byte	0x434
 880 0407 0F       		.uleb128 0xf
 881 0408 36000000 		.4byte	.LASF50
 882 040c 06       		.byte	0x6
 883 040d 9D       		.byte	0x9d
 884 040e EB000000 		.4byte	0xeb
 885 0412 0F       		.uleb128 0xf
 886 0413 7D000000 		.4byte	.LASF51
 887 0417 06       		.byte	0x6
 888 0418 A4       		.byte	0xa4
 889 0419 EB000000 		.4byte	0xeb
 890 041d 0F       		.uleb128 0xf
 891 041e 24060000 		.4byte	.LASF52
 892 0422 06       		.byte	0x6
 893 0423 AB       		.byte	0xab
 894 0424 42020000 		.4byte	0x242
 895 0428 0F       		.uleb128 0xf
 896 0429 0E040000 		.4byte	.LASF53
 897 042d 06       		.byte	0x6
 898 042e B2       		.byte	0xb2
 899 042f F6000000 		.4byte	0xf6
 900 0433 00       		.byte	0
 901 0434 09       		.uleb128 0x9
 902 0435 04       		.byte	0x4
 903 0436 3A040000 		.4byte	0x43a
 904 043a 10       		.uleb128 0x10
 905 043b 3F040000 		.4byte	0x43f
 906 043f 03       		.uleb128 0x3
 907 0440 01       		.byte	0x1
 908 0441 08       		.byte	0x8
 909 0442 69050000 		.4byte	.LASF54
 910 0446 09       		.uleb128 0x9
 911 0447 04       		.byte	0x4
ARM GAS  /tmp/cc1g2ZPd.s 			page 17


 912 0448 F4030000 		.4byte	0x3f4
 913 044c 09       		.uleb128 0x9
 914 044d 04       		.byte	0x4
 915 044e 8C000000 		.4byte	0x8c
 916 0452 09       		.uleb128 0x9
 917 0453 04       		.byte	0x4
 918 0454 58040000 		.4byte	0x458
 919 0458 10       		.uleb128 0x10
 920 0459 8C000000 		.4byte	0x8c
 921 045d 11       		.uleb128 0x11
 922 045e A2000000 		.4byte	0xa2
 923 0462 6D040000 		.4byte	0x46d
 924 0466 12       		.uleb128 0x12
 925 0467 B6030000 		.4byte	0x3b6
 926 046b 03       		.byte	0x3
 927 046c 00       		.byte	0
 928 046d 0D       		.uleb128 0xd
 929 046e 97000000 		.4byte	0x97
 930 0472 13       		.uleb128 0x13
 931 0473 18       		.byte	0x18
 932 0474 09       		.byte	0x9
 933 0475 B102     		.2byte	0x2b1
 934 0477 C9040000 		.4byte	0x4c9
 935 047b 0C       		.uleb128 0xc
 936 047c 435200   		.ascii	"CR\000"
 937 047f 09       		.byte	0x9
 938 0480 B302     		.2byte	0x2b3
 939 0482 B1030000 		.4byte	0x3b1
 940 0486 00       		.byte	0
 941 0487 14       		.uleb128 0x14
 942 0488 AA050000 		.4byte	.LASF55
 943 048c 09       		.byte	0x9
 944 048d B402     		.2byte	0x2b4
 945 048f B1030000 		.4byte	0x3b1
 946 0493 04       		.byte	0x4
 947 0494 0C       		.uleb128 0xc
 948 0495 50415200 		.ascii	"PAR\000"
 949 0499 09       		.byte	0x9
 950 049a B502     		.2byte	0x2b5
 951 049c B1030000 		.4byte	0x3b1
 952 04a0 08       		.byte	0x8
 953 04a1 14       		.uleb128 0x14
 954 04a2 29000000 		.4byte	.LASF56
 955 04a6 09       		.byte	0x9
 956 04a7 B602     		.2byte	0x2b6
 957 04a9 B1030000 		.4byte	0x3b1
 958 04ad 0C       		.byte	0xc
 959 04ae 14       		.uleb128 0x14
 960 04af ED050000 		.4byte	.LASF57
 961 04b3 09       		.byte	0x9
 962 04b4 B702     		.2byte	0x2b7
 963 04b6 B1030000 		.4byte	0x3b1
 964 04ba 10       		.byte	0x10
 965 04bb 0C       		.uleb128 0xc
 966 04bc 46435200 		.ascii	"FCR\000"
 967 04c0 09       		.byte	0x9
 968 04c1 B802     		.2byte	0x2b8
ARM GAS  /tmp/cc1g2ZPd.s 			page 18


 969 04c3 B1030000 		.4byte	0x3b1
 970 04c7 14       		.byte	0x14
 971 04c8 00       		.byte	0
 972 04c9 15       		.uleb128 0x15
 973 04ca AF050000 		.4byte	.LASF58
 974 04ce 09       		.byte	0x9
 975 04cf B902     		.2byte	0x2b9
 976 04d1 72040000 		.4byte	0x472
 977 04d5 08       		.uleb128 0x8
 978 04d6 0C       		.byte	0xc
 979 04d7 0A       		.byte	0xa
 980 04d8 DA       		.byte	0xda
 981 04d9 1A050000 		.4byte	0x51a
 982 04dd 06       		.uleb128 0x6
 983 04de 5F000000 		.4byte	.LASF59
 984 04e2 0A       		.byte	0xa
 985 04e3 DB       		.byte	0xdb
 986 04e4 1A050000 		.4byte	0x51a
 987 04e8 00       		.byte	0
 988 04e9 06       		.uleb128 0x6
 989 04ea 3C050000 		.4byte	.LASF60
 990 04ee 0A       		.byte	0xa
 991 04ef DC       		.byte	0xdc
 992 04f0 20050000 		.4byte	0x520
 993 04f4 04       		.byte	0x4
 994 04f5 06       		.uleb128 0x6
 995 04f6 C7010000 		.4byte	.LASF61
 996 04fa 0A       		.byte	0xa
 997 04fb DD       		.byte	0xdd
 998 04fc 8C000000 		.4byte	0x8c
 999 0500 08       		.byte	0x8
 1000 0501 06       		.uleb128 0x6
 1001 0502 64010000 		.4byte	.LASF62
 1002 0506 0A       		.byte	0xa
 1003 0507 DF       		.byte	0xdf
 1004 0508 8C000000 		.4byte	0x8c
 1005 050c 09       		.byte	0x9
 1006 050d 06       		.uleb128 0x6
 1007 050e 4D060000 		.4byte	.LASF63
 1008 0512 0A       		.byte	0xa
 1009 0513 E0       		.byte	0xe0
 1010 0514 8C000000 		.4byte	0x8c
 1011 0518 0A       		.byte	0xa
 1012 0519 00       		.byte	0
 1013 051a 09       		.uleb128 0x9
 1014 051b 04       		.byte	0x4
 1015 051c C9040000 		.4byte	0x4c9
 1016 0520 09       		.uleb128 0x9
 1017 0521 04       		.byte	0x4
 1018 0522 B1030000 		.4byte	0x3b1
 1019 0526 04       		.uleb128 0x4
 1020 0527 8E030000 		.4byte	.LASF64
 1021 052b 0A       		.byte	0xa
 1022 052c E1       		.byte	0xe1
 1023 052d D5040000 		.4byte	0x4d5
 1024 0531 16       		.uleb128 0x16
 1025 0532 01       		.byte	0x1
ARM GAS  /tmp/cc1g2ZPd.s 			page 19


 1026 0533 0B       		.byte	0xb
 1027 0534 33       		.byte	0x33
 1028 0535 70050000 		.4byte	0x570
 1029 0539 17       		.uleb128 0x17
 1030 053a 02010000 		.4byte	.LASF65
 1031 053e 00       		.sleb128 0
 1032 053f 17       		.uleb128 0x17
 1033 0540 47010000 		.4byte	.LASF66
 1034 0544 01       		.sleb128 1
 1035 0545 17       		.uleb128 0x17
 1036 0546 62020000 		.4byte	.LASF67
 1037 054a 02       		.sleb128 2
 1038 054b 17       		.uleb128 0x17
 1039 054c 8E020000 		.4byte	.LASF68
 1040 0550 03       		.sleb128 3
 1041 0551 17       		.uleb128 0x17
 1042 0552 6E050000 		.4byte	.LASF69
 1043 0556 04       		.sleb128 4
 1044 0557 17       		.uleb128 0x17
 1045 0558 21030000 		.4byte	.LASF70
 1046 055c 05       		.sleb128 5
 1047 055d 17       		.uleb128 0x17
 1048 055e E9020000 		.4byte	.LASF71
 1049 0562 06       		.sleb128 6
 1050 0563 17       		.uleb128 0x17
 1051 0564 F8030000 		.4byte	.LASF72
 1052 0568 07       		.sleb128 7
 1053 0569 17       		.uleb128 0x17
 1054 056a F9050000 		.4byte	.LASF73
 1055 056e 08       		.sleb128 8
 1056 056f 00       		.byte	0
 1057 0570 04       		.uleb128 0x4
 1058 0571 9C000000 		.4byte	.LASF74
 1059 0575 0B       		.byte	0xb
 1060 0576 3D       		.byte	0x3d
 1061 0577 31050000 		.4byte	0x531
 1062 057b 08       		.uleb128 0x8
 1063 057c 08       		.byte	0x8
 1064 057d 0B       		.byte	0xb
 1065 057e 42       		.byte	0x42
 1066 057f 9C050000 		.4byte	0x59c
 1067 0583 06       		.uleb128 0x6
 1068 0584 8E050000 		.4byte	.LASF75
 1069 0588 0B       		.byte	0xb
 1070 0589 43       		.byte	0x43
 1071 058a A2000000 		.4byte	0xa2
 1072 058e 00       		.byte	0
 1073 058f 06       		.uleb128 0x6
 1074 0590 2E000000 		.4byte	.LASF76
 1075 0594 0B       		.byte	0xb
 1076 0595 44       		.byte	0x44
 1077 0596 A2000000 		.4byte	0xa2
 1078 059a 04       		.byte	0x4
 1079 059b 00       		.byte	0
 1080 059c 04       		.uleb128 0x4
 1081 059d 00000000 		.4byte	.LASF77
 1082 05a1 0B       		.byte	0xb
ARM GAS  /tmp/cc1g2ZPd.s 			page 20


 1083 05a2 45       		.byte	0x45
 1084 05a3 7B050000 		.4byte	0x57b
 1085 05a7 18       		.uleb128 0x18
 1086 05a8 AD000000 		.4byte	0xad
 1087 05ac B6050000 		.4byte	0x5b6
 1088 05b0 19       		.uleb128 0x19
 1089 05b1 42020000 		.4byte	0x242
 1090 05b5 00       		.byte	0
 1091 05b6 09       		.uleb128 0x9
 1092 05b7 04       		.byte	0x4
 1093 05b8 A7050000 		.4byte	0x5a7
 1094 05bc 18       		.uleb128 0x18
 1095 05bd AD000000 		.4byte	0xad
 1096 05c1 DA050000 		.4byte	0x5da
 1097 05c5 19       		.uleb128 0x19
 1098 05c6 42020000 		.4byte	0x242
 1099 05ca 19       		.uleb128 0x19
 1100 05cb A2000000 		.4byte	0xa2
 1101 05cf 19       		.uleb128 0x19
 1102 05d0 4C040000 		.4byte	0x44c
 1103 05d4 19       		.uleb128 0x19
 1104 05d5 A2000000 		.4byte	0xa2
 1105 05d9 00       		.byte	0
 1106 05da 09       		.uleb128 0x9
 1107 05db 04       		.byte	0x4
 1108 05dc BC050000 		.4byte	0x5bc
 1109 05e0 18       		.uleb128 0x18
 1110 05e1 AD000000 		.4byte	0xad
 1111 05e5 FE050000 		.4byte	0x5fe
 1112 05e9 19       		.uleb128 0x19
 1113 05ea 42020000 		.4byte	0x242
 1114 05ee 19       		.uleb128 0x19
 1115 05ef A2000000 		.4byte	0xa2
 1116 05f3 19       		.uleb128 0x19
 1117 05f4 52040000 		.4byte	0x452
 1118 05f8 19       		.uleb128 0x19
 1119 05f9 A2000000 		.4byte	0xa2
 1120 05fd 00       		.byte	0
 1121 05fe 09       		.uleb128 0x9
 1122 05ff 04       		.byte	0x4
 1123 0600 E0050000 		.4byte	0x5e0
 1124 0604 18       		.uleb128 0x18
 1125 0605 AD000000 		.4byte	0xad
 1126 0609 18060000 		.4byte	0x618
 1127 060d 19       		.uleb128 0x19
 1128 060e 42020000 		.4byte	0x242
 1129 0612 19       		.uleb128 0x19
 1130 0613 18060000 		.4byte	0x618
 1131 0617 00       		.byte	0
 1132 0618 09       		.uleb128 0x9
 1133 0619 04       		.byte	0x4
 1134 061a 9C050000 		.4byte	0x59c
 1135 061e 09       		.uleb128 0x9
 1136 061f 04       		.byte	0x4
 1137 0620 04060000 		.4byte	0x604
 1138 0624 09       		.uleb128 0x9
 1139 0625 04       		.byte	0x4
ARM GAS  /tmp/cc1g2ZPd.s 			page 21


 1140 0626 2A060000 		.4byte	0x62a
 1141 062a 10       		.uleb128 0x10
 1142 062b 26050000 		.4byte	0x526
 1143 062f 04       		.uleb128 0x4
 1144 0630 79010000 		.4byte	.LASF78
 1145 0634 0C       		.byte	0xc
 1146 0635 BF       		.byte	0xbf
 1147 0636 A2000000 		.4byte	0xa2
 1148 063a 04       		.uleb128 0x4
 1149 063b A5010000 		.4byte	.LASF79
 1150 063f 0C       		.byte	0xc
 1151 0640 C4       		.byte	0xc4
 1152 0641 A2000000 		.4byte	0xa2
 1153 0645 04       		.uleb128 0x4
 1154 0646 43060000 		.4byte	.LASF80
 1155 064a 0C       		.byte	0xc
 1156 064b C9       		.byte	0xc9
 1157 064c 50060000 		.4byte	0x650
 1158 0650 05       		.uleb128 0x5
 1159 0651 43060000 		.4byte	.LASF80
 1160 0655 48       		.byte	0x48
 1161 0656 0C       		.byte	0xc
 1162 0657 E5       		.byte	0xe5
 1163 0658 EF060000 		.4byte	0x6ef
 1164 065c 07       		.uleb128 0x7
 1165 065d 766D7400 		.ascii	"vmt\000"
 1166 0661 0C       		.byte	0xc
 1167 0662 E9       		.byte	0xe9
 1168 0663 7C070000 		.4byte	0x77c
 1169 0667 00       		.byte	0
 1170 0668 06       		.uleb128 0x6
 1171 0669 0D010000 		.4byte	.LASF81
 1172 066d 0C       		.byte	0xc
 1173 066e EA       		.byte	0xea
 1174 066f 70050000 		.4byte	0x570
 1175 0673 04       		.byte	0x4
 1176 0674 07       		.uleb128 0x7
 1177 0675 63696400 		.ascii	"cid\000"
 1178 0679 0C       		.byte	0xc
 1179 067a EA       		.byte	0xea
 1180 067b 5D040000 		.4byte	0x45d
 1181 067f 08       		.byte	0x8
 1182 0680 07       		.uleb128 0x7
 1183 0681 63736400 		.ascii	"csd\000"
 1184 0685 0C       		.byte	0xc
 1185 0686 EA       		.byte	0xea
 1186 0687 5D040000 		.4byte	0x45d
 1187 068b 18       		.byte	0x18
 1188 068c 06       		.uleb128 0x6
 1189 068d 16000000 		.4byte	.LASF82
 1190 0691 0C       		.byte	0xc
 1191 0692 EA       		.byte	0xea
 1192 0693 A2000000 		.4byte	0xa2
 1193 0697 28       		.byte	0x28
 1194 0698 06       		.uleb128 0x6
 1195 0699 80050000 		.4byte	.LASF83
 1196 069d 0C       		.byte	0xc
ARM GAS  /tmp/cc1g2ZPd.s 			page 22


 1197 069e EE       		.byte	0xee
 1198 069f 87070000 		.4byte	0x787
 1199 06a3 2C       		.byte	0x2c
 1200 06a4 06       		.uleb128 0x6
 1201 06a5 86000000 		.4byte	.LASF84
 1202 06a9 0C       		.byte	0xc
 1203 06aa F2       		.byte	0xf2
 1204 06ab 2F060000 		.4byte	0x62f
 1205 06af 30       		.byte	0x30
 1206 06b0 06       		.uleb128 0x6
 1207 06b1 9E010000 		.4byte	.LASF85
 1208 06b5 0C       		.byte	0xc
 1209 06b6 F6       		.byte	0xf6
 1210 06b7 3A060000 		.4byte	0x63a
 1211 06bb 34       		.byte	0x34
 1212 06bc 07       		.uleb128 0x7
 1213 06bd 72636100 		.ascii	"rca\000"
 1214 06c1 0C       		.byte	0xc
 1215 06c2 FA       		.byte	0xfa
 1216 06c3 A2000000 		.4byte	0xa2
 1217 06c7 38       		.byte	0x38
 1218 06c8 06       		.uleb128 0x6
 1219 06c9 A9030000 		.4byte	.LASF86
 1220 06cd 0C       		.byte	0xc
 1221 06ce FF       		.byte	0xff
 1222 06cf 06020000 		.4byte	0x206
 1223 06d3 3C       		.byte	0x3c
 1224 06d4 14       		.uleb128 0x14
 1225 06d5 1C060000 		.4byte	.LASF87
 1226 06d9 0C       		.byte	0xc
 1227 06da 0301     		.2byte	0x103
 1228 06dc A2000000 		.4byte	0xa2
 1229 06e0 40       		.byte	0x40
 1230 06e1 0C       		.uleb128 0xc
 1231 06e2 646D6100 		.ascii	"dma\000"
 1232 06e6 0C       		.byte	0xc
 1233 06e7 0701     		.2byte	0x107
 1234 06e9 24060000 		.4byte	0x624
 1235 06ed 44       		.byte	0x44
 1236 06ee 00       		.byte	0
 1237 06ef 08       		.uleb128 0x8
 1238 06f0 04       		.byte	0x4
 1239 06f1 0C       		.byte	0xc
 1240 06f2 CF       		.byte	0xcf
 1241 06f3 04070000 		.4byte	0x704
 1242 06f7 06       		.uleb128 0x6
 1243 06f8 6E010000 		.4byte	.LASF88
 1244 06fc 0C       		.byte	0xc
 1245 06fd D0       		.byte	0xd0
 1246 06fe A2000000 		.4byte	0xa2
 1247 0702 00       		.byte	0
 1248 0703 00       		.byte	0
 1249 0704 04       		.uleb128 0x4
 1250 0705 05060000 		.4byte	.LASF89
 1251 0709 0C       		.byte	0xc
 1252 070a D1       		.byte	0xd1
 1253 070b EF060000 		.4byte	0x6ef
ARM GAS  /tmp/cc1g2ZPd.s 			page 23


 1254 070f 05       		.uleb128 0x5
 1255 0710 1C040000 		.4byte	.LASF90
 1256 0714 20       		.byte	0x20
 1257 0715 0C       		.byte	0xc
 1258 0716 DE       		.byte	0xde
 1259 0717 7C070000 		.4byte	0x77c
 1260 071b 06       		.uleb128 0x6
 1261 071c E1050000 		.4byte	.LASF91
 1262 0720 0C       		.byte	0xc
 1263 0721 DF       		.byte	0xdf
 1264 0722 B6050000 		.4byte	0x5b6
 1265 0726 00       		.byte	0
 1266 0727 06       		.uleb128 0x6
 1267 0728 3D000000 		.4byte	.LASF92
 1268 072c 0C       		.byte	0xc
 1269 072d DF       		.byte	0xdf
 1270 072e B6050000 		.4byte	0x5b6
 1271 0732 04       		.byte	0x4
 1272 0733 06       		.uleb128 0x6
 1273 0734 29050000 		.4byte	.LASF93
 1274 0738 0C       		.byte	0xc
 1275 0739 DF       		.byte	0xdf
 1276 073a B6050000 		.4byte	0x5b6
 1277 073e 08       		.byte	0x8
 1278 073f 06       		.uleb128 0x6
 1279 0740 E1000000 		.4byte	.LASF94
 1280 0744 0C       		.byte	0xc
 1281 0745 DF       		.byte	0xdf
 1282 0746 B6050000 		.4byte	0x5b6
 1283 074a 0C       		.byte	0xc
 1284 074b 06       		.uleb128 0x6
 1285 074c 64050000 		.4byte	.LASF95
 1286 0750 0C       		.byte	0xc
 1287 0751 DF       		.byte	0xdf
 1288 0752 DA050000 		.4byte	0x5da
 1289 0756 10       		.byte	0x10
 1290 0757 06       		.uleb128 0x6
 1291 0758 D9020000 		.4byte	.LASF96
 1292 075c 0C       		.byte	0xc
 1293 075d DF       		.byte	0xdf
 1294 075e FE050000 		.4byte	0x5fe
 1295 0762 14       		.byte	0x14
 1296 0763 06       		.uleb128 0x6
 1297 0764 17060000 		.4byte	.LASF97
 1298 0768 0C       		.byte	0xc
 1299 0769 DF       		.byte	0xdf
 1300 076a B6050000 		.4byte	0x5b6
 1301 076e 18       		.byte	0x18
 1302 076f 06       		.uleb128 0x6
 1303 0770 3E010000 		.4byte	.LASF98
 1304 0774 0C       		.byte	0xc
 1305 0775 DF       		.byte	0xdf
 1306 0776 1E060000 		.4byte	0x61e
 1307 077a 1C       		.byte	0x1c
 1308 077b 00       		.byte	0
 1309 077c 09       		.uleb128 0x9
 1310 077d 04       		.byte	0x4
ARM GAS  /tmp/cc1g2ZPd.s 			page 24


 1311 077e 82070000 		.4byte	0x782
 1312 0782 10       		.uleb128 0x10
 1313 0783 0F070000 		.4byte	0x70f
 1314 0787 09       		.uleb128 0x9
 1315 0788 04       		.byte	0x4
 1316 0789 8D070000 		.4byte	0x78d
 1317 078d 10       		.uleb128 0x10
 1318 078e 04070000 		.4byte	0x704
 1319 0792 04       		.uleb128 0x4
 1320 0793 74010000 		.4byte	.LASF99
 1321 0797 0D       		.byte	0xd
 1322 0798 16       		.byte	0x16
 1323 0799 45000000 		.4byte	0x45
 1324 079d 04       		.uleb128 0x4
 1325 079e 04030000 		.4byte	.LASF100
 1326 07a2 0D       		.byte	0xd
 1327 07a3 1B       		.byte	0x1b
 1328 07a4 53000000 		.4byte	0x53
 1329 07a8 04       		.uleb128 0x4
 1330 07a9 30010000 		.4byte	.LASF101
 1331 07ad 0D       		.byte	0xd
 1332 07ae 21       		.byte	0x21
 1333 07af 77000000 		.4byte	0x77
 1334 07b3 04       		.uleb128 0x4
 1335 07b4 A2050000 		.4byte	.LASF102
 1336 07b8 0E       		.byte	0xe
 1337 07b9 0E       		.byte	0xe
 1338 07ba 92070000 		.4byte	0x792
 1339 07be 16       		.uleb128 0x16
 1340 07bf 01       		.byte	0x1
 1341 07c0 0E       		.byte	0xe
 1342 07c1 11       		.byte	0x11
 1343 07c2 E5070000 		.4byte	0x7e5
 1344 07c6 17       		.uleb128 0x17
 1345 07c7 09030000 		.4byte	.LASF103
 1346 07cb 00       		.sleb128 0
 1347 07cc 17       		.uleb128 0x17
 1348 07cd 2B060000 		.4byte	.LASF104
 1349 07d1 01       		.sleb128 1
 1350 07d2 17       		.uleb128 0x17
 1351 07d3 1F000000 		.4byte	.LASF105
 1352 07d7 02       		.sleb128 2
 1353 07d8 17       		.uleb128 0x17
 1354 07d9 54000000 		.4byte	.LASF106
 1355 07dd 03       		.sleb128 3
 1356 07de 17       		.uleb128 0x17
 1357 07df 25010000 		.4byte	.LASF107
 1358 07e3 04       		.sleb128 4
 1359 07e4 00       		.byte	0
 1360 07e5 04       		.uleb128 0x4
 1361 07e6 4A050000 		.4byte	.LASF108
 1362 07ea 0E       		.byte	0xe
 1363 07eb 17       		.byte	0x17
 1364 07ec BE070000 		.4byte	0x7be
 1365 07f0 1A       		.uleb128 0x1a
 1366 07f1 CC030000 		.4byte	.LASF109
 1367 07f5 01       		.byte	0x1
ARM GAS  /tmp/cc1g2ZPd.s 			page 25


 1368 07f6 29       		.byte	0x29
 1369 07f7 B3070000 		.4byte	0x7b3
 1370 07fb 00000000 		.4byte	.LFB130
 1371 07ff 2C000000 		.4byte	.LFE130-.LFB130
 1372 0803 01       		.uleb128 0x1
 1373 0804 9C       		.byte	0x9c
 1374 0805 31080000 		.4byte	0x831
 1375 0809 1B       		.uleb128 0x1b
 1376 080a 64727600 		.ascii	"drv\000"
 1377 080e 01       		.byte	0x1
 1378 080f 2A       		.byte	0x2a
 1379 0810 92070000 		.4byte	0x792
 1380 0814 00000000 		.4byte	.LLST0
 1381 0818 1C       		.uleb128 0x1c
 1382 0819 AE000000 		.4byte	.LASF111
 1383 081d 01       		.byte	0x1
 1384 081e 2D       		.byte	0x2d
 1385 081f B3070000 		.4byte	0x7b3
 1386 0823 3A000000 		.4byte	.LLST1
 1387 0827 1D       		.uleb128 0x1d
 1388 0828 18000000 		.4byte	.LVL5
 1389 082c CE090000 		.4byte	0x9ce
 1390 0830 00       		.byte	0
 1391 0831 1A       		.uleb128 0x1a
 1392 0832 BB010000 		.4byte	.LASF110
 1393 0836 01       		.byte	0x1
 1394 0837 4C       		.byte	0x4c
 1395 0838 B3070000 		.4byte	0x7b3
 1396 083c 30000000 		.4byte	.LFB131
 1397 0840 2C000000 		.4byte	.LFE131-.LFB131
 1398 0844 01       		.uleb128 0x1
 1399 0845 9C       		.byte	0x9c
 1400 0846 72080000 		.4byte	0x872
 1401 084a 1B       		.uleb128 0x1b
 1402 084b 64727600 		.ascii	"drv\000"
 1403 084f 01       		.byte	0x1
 1404 0850 4D       		.byte	0x4d
 1405 0851 92070000 		.4byte	0x792
 1406 0855 59000000 		.4byte	.LLST2
 1407 0859 1C       		.uleb128 0x1c
 1408 085a AE000000 		.4byte	.LASF111
 1409 085e 01       		.byte	0x1
 1410 085f 50       		.byte	0x50
 1411 0860 B3070000 		.4byte	0x7b3
 1412 0864 93000000 		.4byte	.LLST3
 1413 0868 1D       		.uleb128 0x1d
 1414 0869 48000000 		.4byte	.LVL12
 1415 086d CE090000 		.4byte	0x9ce
 1416 0871 00       		.byte	0
 1417 0872 1A       		.uleb128 0x1a
 1418 0873 DF020000 		.4byte	.LASF112
 1419 0877 01       		.byte	0x1
 1420 0878 6F       		.byte	0x6f
 1421 0879 E5070000 		.4byte	0x7e5
 1422 087d 60000000 		.4byte	.LFB132
 1423 0881 2C000000 		.4byte	.LFE132-.LFB132
 1424 0885 01       		.uleb128 0x1
ARM GAS  /tmp/cc1g2ZPd.s 			page 26


 1425 0886 9C       		.byte	0x9c
 1426 0887 E0080000 		.4byte	0x8e0
 1427 088b 1B       		.uleb128 0x1b
 1428 088c 64727600 		.ascii	"drv\000"
 1429 0890 01       		.byte	0x1
 1430 0891 70       		.byte	0x70
 1431 0892 92070000 		.4byte	0x792
 1432 0896 B2000000 		.4byte	.LLST4
 1433 089a 1E       		.uleb128 0x1e
 1434 089b CD000000 		.4byte	.LASF113
 1435 089f 01       		.byte	0x1
 1436 08a0 71       		.byte	0x71
 1437 08a1 E0080000 		.4byte	0x8e0
 1438 08a5 EC000000 		.4byte	.LLST5
 1439 08a9 1E       		.uleb128 0x1e
 1440 08aa A5020000 		.4byte	.LASF114
 1441 08ae 01       		.byte	0x1
 1442 08af 72       		.byte	0x72
 1443 08b0 A8070000 		.4byte	0x7a8
 1444 08b4 3C010000 		.4byte	.LLST6
 1445 08b8 1E       		.uleb128 0x1e
 1446 08b9 10000000 		.4byte	.LASF115
 1447 08bd 01       		.byte	0x1
 1448 08be 73       		.byte	0x73
 1449 08bf 92070000 		.4byte	0x792
 1450 08c3 68010000 		.4byte	.LLST7
 1451 08c7 1F       		.uleb128 0x1f
 1452 08c8 86000000 		.4byte	.LVL23
 1453 08cc EA090000 		.4byte	0x9ea
 1454 08d0 20       		.uleb128 0x20
 1455 08d1 01       		.uleb128 0x1
 1456 08d2 52       		.byte	0x52
 1457 08d3 03       		.uleb128 0x3
 1458 08d4 F3       		.byte	0xf3
 1459 08d5 01       		.uleb128 0x1
 1460 08d6 51       		.byte	0x51
 1461 08d7 20       		.uleb128 0x20
 1462 08d8 01       		.uleb128 0x1
 1463 08d9 51       		.byte	0x51
 1464 08da 03       		.uleb128 0x3
 1465 08db F3       		.byte	0xf3
 1466 08dc 01       		.uleb128 0x1
 1467 08dd 52       		.byte	0x52
 1468 08de 00       		.byte	0
 1469 08df 00       		.byte	0
 1470 08e0 09       		.uleb128 0x9
 1471 08e1 04       		.byte	0x4
 1472 08e2 92070000 		.4byte	0x792
 1473 08e6 1A       		.uleb128 0x1a
 1474 08e7 CF050000 		.4byte	.LASF116
 1475 08eb 01       		.byte	0x1
 1476 08ec 98       		.byte	0x98
 1477 08ed E5070000 		.4byte	0x7e5
 1478 08f1 90000000 		.4byte	.LFB133
 1479 08f5 2C000000 		.4byte	.LFE133-.LFB133
 1480 08f9 01       		.uleb128 0x1
 1481 08fa 9C       		.byte	0x9c
ARM GAS  /tmp/cc1g2ZPd.s 			page 27


 1482 08fb 54090000 		.4byte	0x954
 1483 08ff 1B       		.uleb128 0x1b
 1484 0900 64727600 		.ascii	"drv\000"
 1485 0904 01       		.byte	0x1
 1486 0905 99       		.byte	0x99
 1487 0906 92070000 		.4byte	0x792
 1488 090a 89010000 		.4byte	.LLST8
 1489 090e 1E       		.uleb128 0x1e
 1490 090f CD000000 		.4byte	.LASF113
 1491 0913 01       		.byte	0x1
 1492 0914 9A       		.byte	0x9a
 1493 0915 54090000 		.4byte	0x954
 1494 0919 C3010000 		.4byte	.LLST9
 1495 091d 1E       		.uleb128 0x1e
 1496 091e A5020000 		.4byte	.LASF114
 1497 0922 01       		.byte	0x1
 1498 0923 9B       		.byte	0x9b
 1499 0924 A8070000 		.4byte	0x7a8
 1500 0928 13020000 		.4byte	.LLST10
 1501 092c 1E       		.uleb128 0x1e
 1502 092d 10000000 		.4byte	.LASF115
 1503 0931 01       		.byte	0x1
 1504 0932 9C       		.byte	0x9c
 1505 0933 92070000 		.4byte	0x792
 1506 0937 3F020000 		.4byte	.LLST11
 1507 093b 1F       		.uleb128 0x1f
 1508 093c B6000000 		.4byte	.LVL33
 1509 0940 0E0A0000 		.4byte	0xa0e
 1510 0944 20       		.uleb128 0x20
 1511 0945 01       		.uleb128 0x1
 1512 0946 52       		.byte	0x52
 1513 0947 03       		.uleb128 0x3
 1514 0948 F3       		.byte	0xf3
 1515 0949 01       		.uleb128 0x1
 1516 094a 51       		.byte	0x51
 1517 094b 20       		.uleb128 0x20
 1518 094c 01       		.uleb128 0x1
 1519 094d 51       		.byte	0x51
 1520 094e 03       		.uleb128 0x3
 1521 094f F3       		.byte	0xf3
 1522 0950 01       		.uleb128 0x1
 1523 0951 52       		.byte	0x52
 1524 0952 00       		.byte	0
 1525 0953 00       		.byte	0
 1526 0954 09       		.uleb128 0x9
 1527 0955 04       		.byte	0x4
 1528 0956 5A090000 		.4byte	0x95a
 1529 095a 10       		.uleb128 0x10
 1530 095b 92070000 		.4byte	0x792
 1531 095f 1A       		.uleb128 0x1a
 1532 0960 CE020000 		.4byte	.LASF117
 1533 0964 01       		.byte	0x1
 1534 0965 C3       		.byte	0xc3
 1535 0966 E5070000 		.4byte	0x7e5
 1536 096a C0000000 		.4byte	.LFB134
 1537 096e 38000000 		.4byte	.LFE134-.LFB134
 1538 0972 01       		.uleb128 0x1
ARM GAS  /tmp/cc1g2ZPd.s 			page 28


 1539 0973 9C       		.byte	0x9c
 1540 0974 A2090000 		.4byte	0x9a2
 1541 0978 1B       		.uleb128 0x1b
 1542 0979 64727600 		.ascii	"drv\000"
 1543 097d 01       		.byte	0x1
 1544 097e C4       		.byte	0xc4
 1545 097f 92070000 		.4byte	0x792
 1546 0983 60020000 		.4byte	.LLST12
 1547 0987 21       		.uleb128 0x21
 1548 0988 C2050000 		.4byte	.LASF118
 1549 098c 01       		.byte	0x1
 1550 098d C5       		.byte	0xc5
 1551 098e 92070000 		.4byte	0x792
 1552 0992 01       		.uleb128 0x1
 1553 0993 51       		.byte	0x51
 1554 0994 21       		.uleb128 0x21
 1555 0995 CD000000 		.4byte	.LASF113
 1556 0999 01       		.byte	0x1
 1557 099a C6       		.byte	0xc6
 1558 099b 42020000 		.4byte	0x242
 1559 099f 01       		.uleb128 0x1
 1560 09a0 52       		.byte	0x52
 1561 09a1 00       		.byte	0
 1562 09a2 22       		.uleb128 0x22
 1563 09a3 F6000000 		.4byte	.LASF126
 1564 09a7 01       		.byte	0x1
 1565 09a8 F5       		.byte	0xf5
 1566 09a9 A8070000 		.4byte	0x7a8
 1567 09ad 00010000 		.4byte	.LFB135
 1568 09b1 06000000 		.4byte	.LFE135-.LFB135
 1569 09b5 01       		.uleb128 0x1
 1570 09b6 9C       		.byte	0x9c
 1571 09b7 23       		.uleb128 0x23
 1572 09b8 8F000000 		.4byte	.LASF119
 1573 09bc 0F       		.byte	0xf
 1574 09bd DF07     		.2byte	0x7df
 1575 09bf 6D040000 		.4byte	0x46d
 1576 09c3 24       		.uleb128 0x24
 1577 09c4 83010000 		.4byte	.LASF120
 1578 09c8 01       		.byte	0x1
 1579 09c9 14       		.byte	0x14
 1580 09ca 45060000 		.4byte	0x645
 1581 09ce 25       		.uleb128 0x25
 1582 09cf 6D020000 		.4byte	.LASF121
 1583 09d3 0C       		.byte	0xc
 1584 09d4 3401     		.2byte	0x134
 1585 09d6 AD000000 		.4byte	0xad
 1586 09da E4090000 		.4byte	0x9e4
 1587 09de 19       		.uleb128 0x19
 1588 09df E4090000 		.4byte	0x9e4
 1589 09e3 00       		.byte	0
 1590 09e4 09       		.uleb128 0x9
 1591 09e5 04       		.byte	0x4
 1592 09e6 45060000 		.4byte	0x645
 1593 09ea 26       		.uleb128 0x26
 1594 09eb 38030000 		.4byte	.LASF122
 1595 09ef 10       		.byte	0x10
ARM GAS  /tmp/cc1g2ZPd.s 			page 29


 1596 09f0 AC       		.byte	0xac
 1597 09f1 AD000000 		.4byte	0xad
 1598 09f5 0E0A0000 		.4byte	0xa0e
 1599 09f9 19       		.uleb128 0x19
 1600 09fa E4090000 		.4byte	0x9e4
 1601 09fe 19       		.uleb128 0x19
 1602 09ff A2000000 		.4byte	0xa2
 1603 0a03 19       		.uleb128 0x19
 1604 0a04 4C040000 		.4byte	0x44c
 1605 0a08 19       		.uleb128 0x19
 1606 0a09 A2000000 		.4byte	0xa2
 1607 0a0d 00       		.byte	0
 1608 0a0e 27       		.uleb128 0x27
 1609 0a0f 18030000 		.4byte	.LASF127
 1610 0a13 10       		.byte	0x10
 1611 0a14 AE       		.byte	0xae
 1612 0a15 AD000000 		.4byte	0xad
 1613 0a19 19       		.uleb128 0x19
 1614 0a1a E4090000 		.4byte	0x9e4
 1615 0a1e 19       		.uleb128 0x19
 1616 0a1f A2000000 		.4byte	0xa2
 1617 0a23 19       		.uleb128 0x19
 1618 0a24 52040000 		.4byte	0x452
 1619 0a28 19       		.uleb128 0x19
 1620 0a29 A2000000 		.4byte	0xa2
 1621 0a2d 00       		.byte	0
 1622 0a2e 00       		.byte	0
 1623              		.section	.debug_abbrev,"",%progbits
 1624              	.Ldebug_abbrev0:
 1625 0000 01       		.uleb128 0x1
 1626 0001 11       		.uleb128 0x11
 1627 0002 01       		.byte	0x1
 1628 0003 25       		.uleb128 0x25
 1629 0004 0E       		.uleb128 0xe
 1630 0005 13       		.uleb128 0x13
 1631 0006 0B       		.uleb128 0xb
 1632 0007 03       		.uleb128 0x3
 1633 0008 0E       		.uleb128 0xe
 1634 0009 1B       		.uleb128 0x1b
 1635 000a 0E       		.uleb128 0xe
 1636 000b 11       		.uleb128 0x11
 1637 000c 01       		.uleb128 0x1
 1638 000d 12       		.uleb128 0x12
 1639 000e 06       		.uleb128 0x6
 1640 000f 10       		.uleb128 0x10
 1641 0010 17       		.uleb128 0x17
 1642 0011 00       		.byte	0
 1643 0012 00       		.byte	0
 1644 0013 02       		.uleb128 0x2
 1645 0014 24       		.uleb128 0x24
 1646 0015 00       		.byte	0
 1647 0016 0B       		.uleb128 0xb
 1648 0017 0B       		.uleb128 0xb
 1649 0018 3E       		.uleb128 0x3e
 1650 0019 0B       		.uleb128 0xb
 1651 001a 03       		.uleb128 0x3
 1652 001b 08       		.uleb128 0x8
ARM GAS  /tmp/cc1g2ZPd.s 			page 30


 1653 001c 00       		.byte	0
 1654 001d 00       		.byte	0
 1655 001e 03       		.uleb128 0x3
 1656 001f 24       		.uleb128 0x24
 1657 0020 00       		.byte	0
 1658 0021 0B       		.uleb128 0xb
 1659 0022 0B       		.uleb128 0xb
 1660 0023 3E       		.uleb128 0x3e
 1661 0024 0B       		.uleb128 0xb
 1662 0025 03       		.uleb128 0x3
 1663 0026 0E       		.uleb128 0xe
 1664 0027 00       		.byte	0
 1665 0028 00       		.byte	0
 1666 0029 04       		.uleb128 0x4
 1667 002a 16       		.uleb128 0x16
 1668 002b 00       		.byte	0
 1669 002c 03       		.uleb128 0x3
 1670 002d 0E       		.uleb128 0xe
 1671 002e 3A       		.uleb128 0x3a
 1672 002f 0B       		.uleb128 0xb
 1673 0030 3B       		.uleb128 0x3b
 1674 0031 0B       		.uleb128 0xb
 1675 0032 49       		.uleb128 0x49
 1676 0033 13       		.uleb128 0x13
 1677 0034 00       		.byte	0
 1678 0035 00       		.byte	0
 1679 0036 05       		.uleb128 0x5
 1680 0037 13       		.uleb128 0x13
 1681 0038 01       		.byte	0x1
 1682 0039 03       		.uleb128 0x3
 1683 003a 0E       		.uleb128 0xe
 1684 003b 0B       		.uleb128 0xb
 1685 003c 0B       		.uleb128 0xb
 1686 003d 3A       		.uleb128 0x3a
 1687 003e 0B       		.uleb128 0xb
 1688 003f 3B       		.uleb128 0x3b
 1689 0040 0B       		.uleb128 0xb
 1690 0041 01       		.uleb128 0x1
 1691 0042 13       		.uleb128 0x13
 1692 0043 00       		.byte	0
 1693 0044 00       		.byte	0
 1694 0045 06       		.uleb128 0x6
 1695 0046 0D       		.uleb128 0xd
 1696 0047 00       		.byte	0
 1697 0048 03       		.uleb128 0x3
 1698 0049 0E       		.uleb128 0xe
 1699 004a 3A       		.uleb128 0x3a
 1700 004b 0B       		.uleb128 0xb
 1701 004c 3B       		.uleb128 0x3b
 1702 004d 0B       		.uleb128 0xb
 1703 004e 49       		.uleb128 0x49
 1704 004f 13       		.uleb128 0x13
 1705 0050 38       		.uleb128 0x38
 1706 0051 0B       		.uleb128 0xb
 1707 0052 00       		.byte	0
 1708 0053 00       		.byte	0
 1709 0054 07       		.uleb128 0x7
ARM GAS  /tmp/cc1g2ZPd.s 			page 31


 1710 0055 0D       		.uleb128 0xd
 1711 0056 00       		.byte	0
 1712 0057 03       		.uleb128 0x3
 1713 0058 08       		.uleb128 0x8
 1714 0059 3A       		.uleb128 0x3a
 1715 005a 0B       		.uleb128 0xb
 1716 005b 3B       		.uleb128 0x3b
 1717 005c 0B       		.uleb128 0xb
 1718 005d 49       		.uleb128 0x49
 1719 005e 13       		.uleb128 0x13
 1720 005f 38       		.uleb128 0x38
 1721 0060 0B       		.uleb128 0xb
 1722 0061 00       		.byte	0
 1723 0062 00       		.byte	0
 1724 0063 08       		.uleb128 0x8
 1725 0064 13       		.uleb128 0x13
 1726 0065 01       		.byte	0x1
 1727 0066 0B       		.uleb128 0xb
 1728 0067 0B       		.uleb128 0xb
 1729 0068 3A       		.uleb128 0x3a
 1730 0069 0B       		.uleb128 0xb
 1731 006a 3B       		.uleb128 0x3b
 1732 006b 0B       		.uleb128 0xb
 1733 006c 01       		.uleb128 0x1
 1734 006d 13       		.uleb128 0x13
 1735 006e 00       		.byte	0
 1736 006f 00       		.byte	0
 1737 0070 09       		.uleb128 0x9
 1738 0071 0F       		.uleb128 0xf
 1739 0072 00       		.byte	0
 1740 0073 0B       		.uleb128 0xb
 1741 0074 0B       		.uleb128 0xb
 1742 0075 49       		.uleb128 0x49
 1743 0076 13       		.uleb128 0x13
 1744 0077 00       		.byte	0
 1745 0078 00       		.byte	0
 1746 0079 0A       		.uleb128 0xa
 1747 007a 0F       		.uleb128 0xf
 1748 007b 00       		.byte	0
 1749 007c 0B       		.uleb128 0xb
 1750 007d 0B       		.uleb128 0xb
 1751 007e 00       		.byte	0
 1752 007f 00       		.byte	0
 1753 0080 0B       		.uleb128 0xb
 1754 0081 13       		.uleb128 0x13
 1755 0082 01       		.byte	0x1
 1756 0083 03       		.uleb128 0x3
 1757 0084 0E       		.uleb128 0xe
 1758 0085 0B       		.uleb128 0xb
 1759 0086 0B       		.uleb128 0xb
 1760 0087 3A       		.uleb128 0x3a
 1761 0088 0B       		.uleb128 0xb
 1762 0089 3B       		.uleb128 0x3b
 1763 008a 05       		.uleb128 0x5
 1764 008b 01       		.uleb128 0x1
 1765 008c 13       		.uleb128 0x13
 1766 008d 00       		.byte	0
ARM GAS  /tmp/cc1g2ZPd.s 			page 32


 1767 008e 00       		.byte	0
 1768 008f 0C       		.uleb128 0xc
 1769 0090 0D       		.uleb128 0xd
 1770 0091 00       		.byte	0
 1771 0092 03       		.uleb128 0x3
 1772 0093 08       		.uleb128 0x8
 1773 0094 3A       		.uleb128 0x3a
 1774 0095 0B       		.uleb128 0xb
 1775 0096 3B       		.uleb128 0x3b
 1776 0097 05       		.uleb128 0x5
 1777 0098 49       		.uleb128 0x49
 1778 0099 13       		.uleb128 0x13
 1779 009a 38       		.uleb128 0x38
 1780 009b 0B       		.uleb128 0xb
 1781 009c 00       		.byte	0
 1782 009d 00       		.byte	0
 1783 009e 0D       		.uleb128 0xd
 1784 009f 35       		.uleb128 0x35
 1785 00a0 00       		.byte	0
 1786 00a1 49       		.uleb128 0x49
 1787 00a2 13       		.uleb128 0x13
 1788 00a3 00       		.byte	0
 1789 00a4 00       		.byte	0
 1790 00a5 0E       		.uleb128 0xe
 1791 00a6 17       		.uleb128 0x17
 1792 00a7 01       		.byte	0x1
 1793 00a8 0B       		.uleb128 0xb
 1794 00a9 0B       		.uleb128 0xb
 1795 00aa 3A       		.uleb128 0x3a
 1796 00ab 0B       		.uleb128 0xb
 1797 00ac 3B       		.uleb128 0x3b
 1798 00ad 0B       		.uleb128 0xb
 1799 00ae 01       		.uleb128 0x1
 1800 00af 13       		.uleb128 0x13
 1801 00b0 00       		.byte	0
 1802 00b1 00       		.byte	0
 1803 00b2 0F       		.uleb128 0xf
 1804 00b3 0D       		.uleb128 0xd
 1805 00b4 00       		.byte	0
 1806 00b5 03       		.uleb128 0x3
 1807 00b6 0E       		.uleb128 0xe
 1808 00b7 3A       		.uleb128 0x3a
 1809 00b8 0B       		.uleb128 0xb
 1810 00b9 3B       		.uleb128 0x3b
 1811 00ba 0B       		.uleb128 0xb
 1812 00bb 49       		.uleb128 0x49
 1813 00bc 13       		.uleb128 0x13
 1814 00bd 00       		.byte	0
 1815 00be 00       		.byte	0
 1816 00bf 10       		.uleb128 0x10
 1817 00c0 26       		.uleb128 0x26
 1818 00c1 00       		.byte	0
 1819 00c2 49       		.uleb128 0x49
 1820 00c3 13       		.uleb128 0x13
 1821 00c4 00       		.byte	0
 1822 00c5 00       		.byte	0
 1823 00c6 11       		.uleb128 0x11
ARM GAS  /tmp/cc1g2ZPd.s 			page 33


 1824 00c7 01       		.uleb128 0x1
 1825 00c8 01       		.byte	0x1
 1826 00c9 49       		.uleb128 0x49
 1827 00ca 13       		.uleb128 0x13
 1828 00cb 01       		.uleb128 0x1
 1829 00cc 13       		.uleb128 0x13
 1830 00cd 00       		.byte	0
 1831 00ce 00       		.byte	0
 1832 00cf 12       		.uleb128 0x12
 1833 00d0 21       		.uleb128 0x21
 1834 00d1 00       		.byte	0
 1835 00d2 49       		.uleb128 0x49
 1836 00d3 13       		.uleb128 0x13
 1837 00d4 2F       		.uleb128 0x2f
 1838 00d5 0B       		.uleb128 0xb
 1839 00d6 00       		.byte	0
 1840 00d7 00       		.byte	0
 1841 00d8 13       		.uleb128 0x13
 1842 00d9 13       		.uleb128 0x13
 1843 00da 01       		.byte	0x1
 1844 00db 0B       		.uleb128 0xb
 1845 00dc 0B       		.uleb128 0xb
 1846 00dd 3A       		.uleb128 0x3a
 1847 00de 0B       		.uleb128 0xb
 1848 00df 3B       		.uleb128 0x3b
 1849 00e0 05       		.uleb128 0x5
 1850 00e1 01       		.uleb128 0x1
 1851 00e2 13       		.uleb128 0x13
 1852 00e3 00       		.byte	0
 1853 00e4 00       		.byte	0
 1854 00e5 14       		.uleb128 0x14
 1855 00e6 0D       		.uleb128 0xd
 1856 00e7 00       		.byte	0
 1857 00e8 03       		.uleb128 0x3
 1858 00e9 0E       		.uleb128 0xe
 1859 00ea 3A       		.uleb128 0x3a
 1860 00eb 0B       		.uleb128 0xb
 1861 00ec 3B       		.uleb128 0x3b
 1862 00ed 05       		.uleb128 0x5
 1863 00ee 49       		.uleb128 0x49
 1864 00ef 13       		.uleb128 0x13
 1865 00f0 38       		.uleb128 0x38
 1866 00f1 0B       		.uleb128 0xb
 1867 00f2 00       		.byte	0
 1868 00f3 00       		.byte	0
 1869 00f4 15       		.uleb128 0x15
 1870 00f5 16       		.uleb128 0x16
 1871 00f6 00       		.byte	0
 1872 00f7 03       		.uleb128 0x3
 1873 00f8 0E       		.uleb128 0xe
 1874 00f9 3A       		.uleb128 0x3a
 1875 00fa 0B       		.uleb128 0xb
 1876 00fb 3B       		.uleb128 0x3b
 1877 00fc 05       		.uleb128 0x5
 1878 00fd 49       		.uleb128 0x49
 1879 00fe 13       		.uleb128 0x13
 1880 00ff 00       		.byte	0
ARM GAS  /tmp/cc1g2ZPd.s 			page 34


 1881 0100 00       		.byte	0
 1882 0101 16       		.uleb128 0x16
 1883 0102 04       		.uleb128 0x4
 1884 0103 01       		.byte	0x1
 1885 0104 0B       		.uleb128 0xb
 1886 0105 0B       		.uleb128 0xb
 1887 0106 3A       		.uleb128 0x3a
 1888 0107 0B       		.uleb128 0xb
 1889 0108 3B       		.uleb128 0x3b
 1890 0109 0B       		.uleb128 0xb
 1891 010a 01       		.uleb128 0x1
 1892 010b 13       		.uleb128 0x13
 1893 010c 00       		.byte	0
 1894 010d 00       		.byte	0
 1895 010e 17       		.uleb128 0x17
 1896 010f 28       		.uleb128 0x28
 1897 0110 00       		.byte	0
 1898 0111 03       		.uleb128 0x3
 1899 0112 0E       		.uleb128 0xe
 1900 0113 1C       		.uleb128 0x1c
 1901 0114 0D       		.uleb128 0xd
 1902 0115 00       		.byte	0
 1903 0116 00       		.byte	0
 1904 0117 18       		.uleb128 0x18
 1905 0118 15       		.uleb128 0x15
 1906 0119 01       		.byte	0x1
 1907 011a 27       		.uleb128 0x27
 1908 011b 19       		.uleb128 0x19
 1909 011c 49       		.uleb128 0x49
 1910 011d 13       		.uleb128 0x13
 1911 011e 01       		.uleb128 0x1
 1912 011f 13       		.uleb128 0x13
 1913 0120 00       		.byte	0
 1914 0121 00       		.byte	0
 1915 0122 19       		.uleb128 0x19
 1916 0123 05       		.uleb128 0x5
 1917 0124 00       		.byte	0
 1918 0125 49       		.uleb128 0x49
 1919 0126 13       		.uleb128 0x13
 1920 0127 00       		.byte	0
 1921 0128 00       		.byte	0
 1922 0129 1A       		.uleb128 0x1a
 1923 012a 2E       		.uleb128 0x2e
 1924 012b 01       		.byte	0x1
 1925 012c 3F       		.uleb128 0x3f
 1926 012d 19       		.uleb128 0x19
 1927 012e 03       		.uleb128 0x3
 1928 012f 0E       		.uleb128 0xe
 1929 0130 3A       		.uleb128 0x3a
 1930 0131 0B       		.uleb128 0xb
 1931 0132 3B       		.uleb128 0x3b
 1932 0133 0B       		.uleb128 0xb
 1933 0134 27       		.uleb128 0x27
 1934 0135 19       		.uleb128 0x19
 1935 0136 49       		.uleb128 0x49
 1936 0137 13       		.uleb128 0x13
 1937 0138 11       		.uleb128 0x11
ARM GAS  /tmp/cc1g2ZPd.s 			page 35


 1938 0139 01       		.uleb128 0x1
 1939 013a 12       		.uleb128 0x12
 1940 013b 06       		.uleb128 0x6
 1941 013c 40       		.uleb128 0x40
 1942 013d 18       		.uleb128 0x18
 1943 013e 9742     		.uleb128 0x2117
 1944 0140 19       		.uleb128 0x19
 1945 0141 01       		.uleb128 0x1
 1946 0142 13       		.uleb128 0x13
 1947 0143 00       		.byte	0
 1948 0144 00       		.byte	0
 1949 0145 1B       		.uleb128 0x1b
 1950 0146 05       		.uleb128 0x5
 1951 0147 00       		.byte	0
 1952 0148 03       		.uleb128 0x3
 1953 0149 08       		.uleb128 0x8
 1954 014a 3A       		.uleb128 0x3a
 1955 014b 0B       		.uleb128 0xb
 1956 014c 3B       		.uleb128 0x3b
 1957 014d 0B       		.uleb128 0xb
 1958 014e 49       		.uleb128 0x49
 1959 014f 13       		.uleb128 0x13
 1960 0150 02       		.uleb128 0x2
 1961 0151 17       		.uleb128 0x17
 1962 0152 00       		.byte	0
 1963 0153 00       		.byte	0
 1964 0154 1C       		.uleb128 0x1c
 1965 0155 34       		.uleb128 0x34
 1966 0156 00       		.byte	0
 1967 0157 03       		.uleb128 0x3
 1968 0158 0E       		.uleb128 0xe
 1969 0159 3A       		.uleb128 0x3a
 1970 015a 0B       		.uleb128 0xb
 1971 015b 3B       		.uleb128 0x3b
 1972 015c 0B       		.uleb128 0xb
 1973 015d 49       		.uleb128 0x49
 1974 015e 13       		.uleb128 0x13
 1975 015f 02       		.uleb128 0x2
 1976 0160 17       		.uleb128 0x17
 1977 0161 00       		.byte	0
 1978 0162 00       		.byte	0
 1979 0163 1D       		.uleb128 0x1d
 1980 0164 898201   		.uleb128 0x4109
 1981 0167 00       		.byte	0
 1982 0168 11       		.uleb128 0x11
 1983 0169 01       		.uleb128 0x1
 1984 016a 31       		.uleb128 0x31
 1985 016b 13       		.uleb128 0x13
 1986 016c 00       		.byte	0
 1987 016d 00       		.byte	0
 1988 016e 1E       		.uleb128 0x1e
 1989 016f 05       		.uleb128 0x5
 1990 0170 00       		.byte	0
 1991 0171 03       		.uleb128 0x3
 1992 0172 0E       		.uleb128 0xe
 1993 0173 3A       		.uleb128 0x3a
 1994 0174 0B       		.uleb128 0xb
ARM GAS  /tmp/cc1g2ZPd.s 			page 36


 1995 0175 3B       		.uleb128 0x3b
 1996 0176 0B       		.uleb128 0xb
 1997 0177 49       		.uleb128 0x49
 1998 0178 13       		.uleb128 0x13
 1999 0179 02       		.uleb128 0x2
 2000 017a 17       		.uleb128 0x17
 2001 017b 00       		.byte	0
 2002 017c 00       		.byte	0
 2003 017d 1F       		.uleb128 0x1f
 2004 017e 898201   		.uleb128 0x4109
 2005 0181 01       		.byte	0x1
 2006 0182 11       		.uleb128 0x11
 2007 0183 01       		.uleb128 0x1
 2008 0184 9542     		.uleb128 0x2115
 2009 0186 19       		.uleb128 0x19
 2010 0187 31       		.uleb128 0x31
 2011 0188 13       		.uleb128 0x13
 2012 0189 00       		.byte	0
 2013 018a 00       		.byte	0
 2014 018b 20       		.uleb128 0x20
 2015 018c 8A8201   		.uleb128 0x410a
 2016 018f 00       		.byte	0
 2017 0190 02       		.uleb128 0x2
 2018 0191 18       		.uleb128 0x18
 2019 0192 9142     		.uleb128 0x2111
 2020 0194 18       		.uleb128 0x18
 2021 0195 00       		.byte	0
 2022 0196 00       		.byte	0
 2023 0197 21       		.uleb128 0x21
 2024 0198 05       		.uleb128 0x5
 2025 0199 00       		.byte	0
 2026 019a 03       		.uleb128 0x3
 2027 019b 0E       		.uleb128 0xe
 2028 019c 3A       		.uleb128 0x3a
 2029 019d 0B       		.uleb128 0xb
 2030 019e 3B       		.uleb128 0x3b
 2031 019f 0B       		.uleb128 0xb
 2032 01a0 49       		.uleb128 0x49
 2033 01a1 13       		.uleb128 0x13
 2034 01a2 02       		.uleb128 0x2
 2035 01a3 18       		.uleb128 0x18
 2036 01a4 00       		.byte	0
 2037 01a5 00       		.byte	0
 2038 01a6 22       		.uleb128 0x22
 2039 01a7 2E       		.uleb128 0x2e
 2040 01a8 00       		.byte	0
 2041 01a9 3F       		.uleb128 0x3f
 2042 01aa 19       		.uleb128 0x19
 2043 01ab 03       		.uleb128 0x3
 2044 01ac 0E       		.uleb128 0xe
 2045 01ad 3A       		.uleb128 0x3a
 2046 01ae 0B       		.uleb128 0xb
 2047 01af 3B       		.uleb128 0x3b
 2048 01b0 0B       		.uleb128 0xb
 2049 01b1 27       		.uleb128 0x27
 2050 01b2 19       		.uleb128 0x19
 2051 01b3 49       		.uleb128 0x49
ARM GAS  /tmp/cc1g2ZPd.s 			page 37


 2052 01b4 13       		.uleb128 0x13
 2053 01b5 11       		.uleb128 0x11
 2054 01b6 01       		.uleb128 0x1
 2055 01b7 12       		.uleb128 0x12
 2056 01b8 06       		.uleb128 0x6
 2057 01b9 40       		.uleb128 0x40
 2058 01ba 18       		.uleb128 0x18
 2059 01bb 9742     		.uleb128 0x2117
 2060 01bd 19       		.uleb128 0x19
 2061 01be 00       		.byte	0
 2062 01bf 00       		.byte	0
 2063 01c0 23       		.uleb128 0x23
 2064 01c1 34       		.uleb128 0x34
 2065 01c2 00       		.byte	0
 2066 01c3 03       		.uleb128 0x3
 2067 01c4 0E       		.uleb128 0xe
 2068 01c5 3A       		.uleb128 0x3a
 2069 01c6 0B       		.uleb128 0xb
 2070 01c7 3B       		.uleb128 0x3b
 2071 01c8 05       		.uleb128 0x5
 2072 01c9 49       		.uleb128 0x49
 2073 01ca 13       		.uleb128 0x13
 2074 01cb 3F       		.uleb128 0x3f
 2075 01cc 19       		.uleb128 0x19
 2076 01cd 3C       		.uleb128 0x3c
 2077 01ce 19       		.uleb128 0x19
 2078 01cf 00       		.byte	0
 2079 01d0 00       		.byte	0
 2080 01d1 24       		.uleb128 0x24
 2081 01d2 34       		.uleb128 0x34
 2082 01d3 00       		.byte	0
 2083 01d4 03       		.uleb128 0x3
 2084 01d5 0E       		.uleb128 0xe
 2085 01d6 3A       		.uleb128 0x3a
 2086 01d7 0B       		.uleb128 0xb
 2087 01d8 3B       		.uleb128 0x3b
 2088 01d9 0B       		.uleb128 0xb
 2089 01da 49       		.uleb128 0x49
 2090 01db 13       		.uleb128 0x13
 2091 01dc 3F       		.uleb128 0x3f
 2092 01dd 19       		.uleb128 0x19
 2093 01de 3C       		.uleb128 0x3c
 2094 01df 19       		.uleb128 0x19
 2095 01e0 00       		.byte	0
 2096 01e1 00       		.byte	0
 2097 01e2 25       		.uleb128 0x25
 2098 01e3 2E       		.uleb128 0x2e
 2099 01e4 01       		.byte	0x1
 2100 01e5 3F       		.uleb128 0x3f
 2101 01e6 19       		.uleb128 0x19
 2102 01e7 03       		.uleb128 0x3
 2103 01e8 0E       		.uleb128 0xe
 2104 01e9 3A       		.uleb128 0x3a
 2105 01ea 0B       		.uleb128 0xb
 2106 01eb 3B       		.uleb128 0x3b
 2107 01ec 05       		.uleb128 0x5
 2108 01ed 27       		.uleb128 0x27
ARM GAS  /tmp/cc1g2ZPd.s 			page 38


 2109 01ee 19       		.uleb128 0x19
 2110 01ef 49       		.uleb128 0x49
 2111 01f0 13       		.uleb128 0x13
 2112 01f1 3C       		.uleb128 0x3c
 2113 01f2 19       		.uleb128 0x19
 2114 01f3 01       		.uleb128 0x1
 2115 01f4 13       		.uleb128 0x13
 2116 01f5 00       		.byte	0
 2117 01f6 00       		.byte	0
 2118 01f7 26       		.uleb128 0x26
 2119 01f8 2E       		.uleb128 0x2e
 2120 01f9 01       		.byte	0x1
 2121 01fa 3F       		.uleb128 0x3f
 2122 01fb 19       		.uleb128 0x19
 2123 01fc 03       		.uleb128 0x3
 2124 01fd 0E       		.uleb128 0xe
 2125 01fe 3A       		.uleb128 0x3a
 2126 01ff 0B       		.uleb128 0xb
 2127 0200 3B       		.uleb128 0x3b
 2128 0201 0B       		.uleb128 0xb
 2129 0202 27       		.uleb128 0x27
 2130 0203 19       		.uleb128 0x19
 2131 0204 49       		.uleb128 0x49
 2132 0205 13       		.uleb128 0x13
 2133 0206 3C       		.uleb128 0x3c
 2134 0207 19       		.uleb128 0x19
 2135 0208 01       		.uleb128 0x1
 2136 0209 13       		.uleb128 0x13
 2137 020a 00       		.byte	0
 2138 020b 00       		.byte	0
 2139 020c 27       		.uleb128 0x27
 2140 020d 2E       		.uleb128 0x2e
 2141 020e 01       		.byte	0x1
 2142 020f 3F       		.uleb128 0x3f
 2143 0210 19       		.uleb128 0x19
 2144 0211 03       		.uleb128 0x3
 2145 0212 0E       		.uleb128 0xe
 2146 0213 3A       		.uleb128 0x3a
 2147 0214 0B       		.uleb128 0xb
 2148 0215 3B       		.uleb128 0x3b
 2149 0216 0B       		.uleb128 0xb
 2150 0217 27       		.uleb128 0x27
 2151 0218 19       		.uleb128 0x19
 2152 0219 49       		.uleb128 0x49
 2153 021a 13       		.uleb128 0x13
 2154 021b 3C       		.uleb128 0x3c
 2155 021c 19       		.uleb128 0x19
 2156 021d 00       		.byte	0
 2157 021e 00       		.byte	0
 2158 021f 00       		.byte	0
 2159              		.section	.debug_loc,"",%progbits
 2160              	.Ldebug_loc0:
 2161              	.LLST0:
 2162 0000 00000000 		.4byte	.LVL0-.Ltext0
 2163 0004 06000000 		.4byte	.LVL1-.Ltext0
 2164 0008 0100     		.2byte	0x1
 2165 000a 50       		.byte	0x50
ARM GAS  /tmp/cc1g2ZPd.s 			page 39


 2166 000b 06000000 		.4byte	.LVL1-.Ltext0
 2167 000f 0A000000 		.4byte	.LVL2-.Ltext0
 2168 0013 0400     		.2byte	0x4
 2169 0015 F3       		.byte	0xf3
 2170 0016 01       		.uleb128 0x1
 2171 0017 50       		.byte	0x50
 2172 0018 9F       		.byte	0x9f
 2173 0019 0A000000 		.4byte	.LVL2-.Ltext0
 2174 001d 0C000000 		.4byte	.LVL3-.Ltext0
 2175 0021 0100     		.2byte	0x1
 2176 0023 50       		.byte	0x50
 2177 0024 0C000000 		.4byte	.LVL3-.Ltext0
 2178 0028 2C000000 		.4byte	.LFE130-.Ltext0
 2179 002c 0400     		.2byte	0x4
 2180 002e F3       		.byte	0xf3
 2181 002f 01       		.uleb128 0x1
 2182 0030 50       		.byte	0x50
 2183 0031 9F       		.byte	0x9f
 2184 0032 00000000 		.4byte	0
 2185 0036 00000000 		.4byte	0
 2186              	.LLST1:
 2187 003a 0A000000 		.4byte	.LVL2-.Ltext0
 2188 003e 14000000 		.4byte	.LVL4-.Ltext0
 2189 0042 0200     		.2byte	0x2
 2190 0044 30       		.byte	0x30
 2191 0045 9F       		.byte	0x9f
 2192 0046 14000000 		.4byte	.LVL4-.Ltext0
 2193 004a 20000000 		.4byte	.LVL6-.Ltext0
 2194 004e 0100     		.2byte	0x1
 2195 0050 54       		.byte	0x54
 2196 0051 00000000 		.4byte	0
 2197 0055 00000000 		.4byte	0
 2198              	.LLST2:
 2199 0059 30000000 		.4byte	.LVL7-.Ltext0
 2200 005d 36000000 		.4byte	.LVL8-.Ltext0
 2201 0061 0100     		.2byte	0x1
 2202 0063 50       		.byte	0x50
 2203 0064 36000000 		.4byte	.LVL8-.Ltext0
 2204 0068 3A000000 		.4byte	.LVL9-.Ltext0
 2205 006c 0400     		.2byte	0x4
 2206 006e F3       		.byte	0xf3
 2207 006f 01       		.uleb128 0x1
 2208 0070 50       		.byte	0x50
 2209 0071 9F       		.byte	0x9f
 2210 0072 3A000000 		.4byte	.LVL9-.Ltext0
 2211 0076 3C000000 		.4byte	.LVL10-.Ltext0
 2212 007a 0100     		.2byte	0x1
 2213 007c 50       		.byte	0x50
 2214 007d 3C000000 		.4byte	.LVL10-.Ltext0
 2215 0081 5C000000 		.4byte	.LFE131-.Ltext0
 2216 0085 0400     		.2byte	0x4
 2217 0087 F3       		.byte	0xf3
 2218 0088 01       		.uleb128 0x1
 2219 0089 50       		.byte	0x50
 2220 008a 9F       		.byte	0x9f
 2221 008b 00000000 		.4byte	0
 2222 008f 00000000 		.4byte	0
ARM GAS  /tmp/cc1g2ZPd.s 			page 40


 2223              	.LLST3:
 2224 0093 3A000000 		.4byte	.LVL9-.Ltext0
 2225 0097 44000000 		.4byte	.LVL11-.Ltext0
 2226 009b 0200     		.2byte	0x2
 2227 009d 30       		.byte	0x30
 2228 009e 9F       		.byte	0x9f
 2229 009f 44000000 		.4byte	.LVL11-.Ltext0
 2230 00a3 50000000 		.4byte	.LVL13-.Ltext0
 2231 00a7 0100     		.2byte	0x1
 2232 00a9 54       		.byte	0x54
 2233 00aa 00000000 		.4byte	0
 2234 00ae 00000000 		.4byte	0
 2235              	.LLST4:
 2236 00b2 60000000 		.4byte	.LVL14-.Ltext0
 2237 00b6 64000000 		.4byte	.LVL15-.Ltext0
 2238 00ba 0100     		.2byte	0x1
 2239 00bc 50       		.byte	0x50
 2240 00bd 64000000 		.4byte	.LVL15-.Ltext0
 2241 00c1 66000000 		.4byte	.LVL16-.Ltext0
 2242 00c5 0400     		.2byte	0x4
 2243 00c7 F3       		.byte	0xf3
 2244 00c8 01       		.uleb128 0x1
 2245 00c9 50       		.byte	0x50
 2246 00ca 9F       		.byte	0x9f
 2247 00cb 66000000 		.4byte	.LVL16-.Ltext0
 2248 00cf 68000000 		.4byte	.LVL17-.Ltext0
 2249 00d3 0100     		.2byte	0x1
 2250 00d5 50       		.byte	0x50
 2251 00d6 68000000 		.4byte	.LVL17-.Ltext0
 2252 00da 8C000000 		.4byte	.LFE132-.Ltext0
 2253 00de 0400     		.2byte	0x4
 2254 00e0 F3       		.byte	0xf3
 2255 00e1 01       		.uleb128 0x1
 2256 00e2 50       		.byte	0x50
 2257 00e3 9F       		.byte	0x9f
 2258 00e4 00000000 		.4byte	0
 2259 00e8 00000000 		.4byte	0
 2260              	.LLST5:
 2261 00ec 60000000 		.4byte	.LVL14-.Ltext0
 2262 00f0 6E000000 		.4byte	.LVL18-.Ltext0
 2263 00f4 0100     		.2byte	0x1
 2264 00f6 51       		.byte	0x51
 2265 00f7 6E000000 		.4byte	.LVL18-.Ltext0
 2266 00fb 78000000 		.4byte	.LVL19-.Ltext0
 2267 00ff 0100     		.2byte	0x1
 2268 0101 54       		.byte	0x54
 2269 0102 78000000 		.4byte	.LVL19-.Ltext0
 2270 0106 7A000000 		.4byte	.LVL20-.Ltext0
 2271 010a 0400     		.2byte	0x4
 2272 010c F3       		.byte	0xf3
 2273 010d 01       		.uleb128 0x1
 2274 010e 51       		.byte	0x51
 2275 010f 9F       		.byte	0x9f
 2276 0110 7A000000 		.4byte	.LVL20-.Ltext0
 2277 0114 82000000 		.4byte	.LVL22-.Ltext0
 2278 0118 0100     		.2byte	0x1
 2279 011a 54       		.byte	0x54
ARM GAS  /tmp/cc1g2ZPd.s 			page 41


 2280 011b 82000000 		.4byte	.LVL22-.Ltext0
 2281 011f 85000000 		.4byte	.LVL23-1-.Ltext0
 2282 0123 0100     		.2byte	0x1
 2283 0125 52       		.byte	0x52
 2284 0126 85000000 		.4byte	.LVL23-1-.Ltext0
 2285 012a 8C000000 		.4byte	.LFE132-.Ltext0
 2286 012e 0400     		.2byte	0x4
 2287 0130 F3       		.byte	0xf3
 2288 0131 01       		.uleb128 0x1
 2289 0132 51       		.byte	0x51
 2290 0133 9F       		.byte	0x9f
 2291 0134 00000000 		.4byte	0
 2292 0138 00000000 		.4byte	0
 2293              	.LLST6:
 2294 013c 60000000 		.4byte	.LVL14-.Ltext0
 2295 0140 7E000000 		.4byte	.LVL21-.Ltext0
 2296 0144 0100     		.2byte	0x1
 2297 0146 52       		.byte	0x52
 2298 0147 7E000000 		.4byte	.LVL21-.Ltext0
 2299 014b 85000000 		.4byte	.LVL23-1-.Ltext0
 2300 014f 0100     		.2byte	0x1
 2301 0151 51       		.byte	0x51
 2302 0152 85000000 		.4byte	.LVL23-1-.Ltext0
 2303 0156 8C000000 		.4byte	.LFE132-.Ltext0
 2304 015a 0400     		.2byte	0x4
 2305 015c F3       		.byte	0xf3
 2306 015d 01       		.uleb128 0x1
 2307 015e 52       		.byte	0x52
 2308 015f 9F       		.byte	0x9f
 2309 0160 00000000 		.4byte	0
 2310 0164 00000000 		.4byte	0
 2311              	.LLST7:
 2312 0168 60000000 		.4byte	.LVL14-.Ltext0
 2313 016c 85000000 		.4byte	.LVL23-1-.Ltext0
 2314 0170 0100     		.2byte	0x1
 2315 0172 53       		.byte	0x53
 2316 0173 85000000 		.4byte	.LVL23-1-.Ltext0
 2317 0177 8C000000 		.4byte	.LFE132-.Ltext0
 2318 017b 0400     		.2byte	0x4
 2319 017d F3       		.byte	0xf3
 2320 017e 01       		.uleb128 0x1
 2321 017f 53       		.byte	0x53
 2322 0180 9F       		.byte	0x9f
 2323 0181 00000000 		.4byte	0
 2324 0185 00000000 		.4byte	0
 2325              	.LLST8:
 2326 0189 90000000 		.4byte	.LVL24-.Ltext0
 2327 018d 94000000 		.4byte	.LVL25-.Ltext0
 2328 0191 0100     		.2byte	0x1
 2329 0193 50       		.byte	0x50
 2330 0194 94000000 		.4byte	.LVL25-.Ltext0
 2331 0198 96000000 		.4byte	.LVL26-.Ltext0
 2332 019c 0400     		.2byte	0x4
 2333 019e F3       		.byte	0xf3
 2334 019f 01       		.uleb128 0x1
 2335 01a0 50       		.byte	0x50
 2336 01a1 9F       		.byte	0x9f
ARM GAS  /tmp/cc1g2ZPd.s 			page 42


 2337 01a2 96000000 		.4byte	.LVL26-.Ltext0
 2338 01a6 98000000 		.4byte	.LVL27-.Ltext0
 2339 01aa 0100     		.2byte	0x1
 2340 01ac 50       		.byte	0x50
 2341 01ad 98000000 		.4byte	.LVL27-.Ltext0
 2342 01b1 BC000000 		.4byte	.LFE133-.Ltext0
 2343 01b5 0400     		.2byte	0x4
 2344 01b7 F3       		.byte	0xf3
 2345 01b8 01       		.uleb128 0x1
 2346 01b9 50       		.byte	0x50
 2347 01ba 9F       		.byte	0x9f
 2348 01bb 00000000 		.4byte	0
 2349 01bf 00000000 		.4byte	0
 2350              	.LLST9:
 2351 01c3 90000000 		.4byte	.LVL24-.Ltext0
 2352 01c7 9E000000 		.4byte	.LVL28-.Ltext0
 2353 01cb 0100     		.2byte	0x1
 2354 01cd 51       		.byte	0x51
 2355 01ce 9E000000 		.4byte	.LVL28-.Ltext0
 2356 01d2 A8000000 		.4byte	.LVL29-.Ltext0
 2357 01d6 0100     		.2byte	0x1
 2358 01d8 54       		.byte	0x54
 2359 01d9 A8000000 		.4byte	.LVL29-.Ltext0
 2360 01dd AA000000 		.4byte	.LVL30-.Ltext0
 2361 01e1 0400     		.2byte	0x4
 2362 01e3 F3       		.byte	0xf3
 2363 01e4 01       		.uleb128 0x1
 2364 01e5 51       		.byte	0x51
 2365 01e6 9F       		.byte	0x9f
 2366 01e7 AA000000 		.4byte	.LVL30-.Ltext0
 2367 01eb B2000000 		.4byte	.LVL32-.Ltext0
 2368 01ef 0100     		.2byte	0x1
 2369 01f1 54       		.byte	0x54
 2370 01f2 B2000000 		.4byte	.LVL32-.Ltext0
 2371 01f6 B5000000 		.4byte	.LVL33-1-.Ltext0
 2372 01fa 0100     		.2byte	0x1
 2373 01fc 52       		.byte	0x52
 2374 01fd B5000000 		.4byte	.LVL33-1-.Ltext0
 2375 0201 BC000000 		.4byte	.LFE133-.Ltext0
 2376 0205 0400     		.2byte	0x4
 2377 0207 F3       		.byte	0xf3
 2378 0208 01       		.uleb128 0x1
 2379 0209 51       		.byte	0x51
 2380 020a 9F       		.byte	0x9f
 2381 020b 00000000 		.4byte	0
 2382 020f 00000000 		.4byte	0
 2383              	.LLST10:
 2384 0213 90000000 		.4byte	.LVL24-.Ltext0
 2385 0217 AE000000 		.4byte	.LVL31-.Ltext0
 2386 021b 0100     		.2byte	0x1
 2387 021d 52       		.byte	0x52
 2388 021e AE000000 		.4byte	.LVL31-.Ltext0
 2389 0222 B5000000 		.4byte	.LVL33-1-.Ltext0
 2390 0226 0100     		.2byte	0x1
 2391 0228 51       		.byte	0x51
 2392 0229 B5000000 		.4byte	.LVL33-1-.Ltext0
 2393 022d BC000000 		.4byte	.LFE133-.Ltext0
ARM GAS  /tmp/cc1g2ZPd.s 			page 43


 2394 0231 0400     		.2byte	0x4
 2395 0233 F3       		.byte	0xf3
 2396 0234 01       		.uleb128 0x1
 2397 0235 52       		.byte	0x52
 2398 0236 9F       		.byte	0x9f
 2399 0237 00000000 		.4byte	0
 2400 023b 00000000 		.4byte	0
 2401              	.LLST11:
 2402 023f 90000000 		.4byte	.LVL24-.Ltext0
 2403 0243 B5000000 		.4byte	.LVL33-1-.Ltext0
 2404 0247 0100     		.2byte	0x1
 2405 0249 53       		.byte	0x53
 2406 024a B5000000 		.4byte	.LVL33-1-.Ltext0
 2407 024e BC000000 		.4byte	.LFE133-.Ltext0
 2408 0252 0400     		.2byte	0x4
 2409 0254 F3       		.byte	0xf3
 2410 0255 01       		.uleb128 0x1
 2411 0256 53       		.byte	0x53
 2412 0257 9F       		.byte	0x9f
 2413 0258 00000000 		.4byte	0
 2414 025c 00000000 		.4byte	0
 2415              	.LLST12:
 2416 0260 C0000000 		.4byte	.LVL34-.Ltext0
 2417 0264 C4000000 		.4byte	.LVL35-.Ltext0
 2418 0268 0100     		.2byte	0x1
 2419 026a 50       		.byte	0x50
 2420 026b C4000000 		.4byte	.LVL35-.Ltext0
 2421 026f C6000000 		.4byte	.LVL36-.Ltext0
 2422 0273 0400     		.2byte	0x4
 2423 0275 F3       		.byte	0xf3
 2424 0276 01       		.uleb128 0x1
 2425 0277 50       		.byte	0x50
 2426 0278 9F       		.byte	0x9f
 2427 0279 C6000000 		.4byte	.LVL36-.Ltext0
 2428 027d D4000000 		.4byte	.LVL37-.Ltext0
 2429 0281 0100     		.2byte	0x1
 2430 0283 50       		.byte	0x50
 2431 0284 D4000000 		.4byte	.LVL37-.Ltext0
 2432 0288 D6000000 		.4byte	.LVL38-.Ltext0
 2433 028c 0400     		.2byte	0x4
 2434 028e F3       		.byte	0xf3
 2435 028f 01       		.uleb128 0x1
 2436 0290 50       		.byte	0x50
 2437 0291 9F       		.byte	0x9f
 2438 0292 D6000000 		.4byte	.LVL38-.Ltext0
 2439 0296 DE000000 		.4byte	.LVL39-.Ltext0
 2440 029a 0100     		.2byte	0x1
 2441 029c 50       		.byte	0x50
 2442 029d DE000000 		.4byte	.LVL39-.Ltext0
 2443 02a1 E0000000 		.4byte	.LVL40-.Ltext0
 2444 02a5 0400     		.2byte	0x4
 2445 02a7 F3       		.byte	0xf3
 2446 02a8 01       		.uleb128 0x1
 2447 02a9 50       		.byte	0x50
 2448 02aa 9F       		.byte	0x9f
 2449 02ab E0000000 		.4byte	.LVL40-.Ltext0
 2450 02af E8000000 		.4byte	.LVL41-.Ltext0
ARM GAS  /tmp/cc1g2ZPd.s 			page 44


 2451 02b3 0100     		.2byte	0x1
 2452 02b5 50       		.byte	0x50
 2453 02b6 E8000000 		.4byte	.LVL41-.Ltext0
 2454 02ba EA000000 		.4byte	.LVL42-.Ltext0
 2455 02be 0400     		.2byte	0x4
 2456 02c0 F3       		.byte	0xf3
 2457 02c1 01       		.uleb128 0x1
 2458 02c2 50       		.byte	0x50
 2459 02c3 9F       		.byte	0x9f
 2460 02c4 EA000000 		.4byte	.LVL42-.Ltext0
 2461 02c8 F2000000 		.4byte	.LVL43-.Ltext0
 2462 02cc 0100     		.2byte	0x1
 2463 02ce 50       		.byte	0x50
 2464 02cf F2000000 		.4byte	.LVL43-.Ltext0
 2465 02d3 F8000000 		.4byte	.LFE134-.Ltext0
 2466 02d7 0400     		.2byte	0x4
 2467 02d9 F3       		.byte	0xf3
 2468 02da 01       		.uleb128 0x1
 2469 02db 50       		.byte	0x50
 2470 02dc 9F       		.byte	0x9f
 2471 02dd 00000000 		.4byte	0
 2472 02e1 00000000 		.4byte	0
 2473              		.section	.debug_aranges,"",%progbits
 2474 0000 1C000000 		.4byte	0x1c
 2475 0004 0200     		.2byte	0x2
 2476 0006 00000000 		.4byte	.Ldebug_info0
 2477 000a 04       		.byte	0x4
 2478 000b 00       		.byte	0
 2479 000c 0000     		.2byte	0
 2480 000e 0000     		.2byte	0
 2481 0010 00000000 		.4byte	.Ltext0
 2482 0014 06010000 		.4byte	.Letext0-.Ltext0
 2483 0018 00000000 		.4byte	0
 2484 001c 00000000 		.4byte	0
 2485              		.section	.debug_line,"",%progbits
 2486              	.Ldebug_line0:
 2487 0000 99050000 		.section	.debug_str,"MS",%progbits,1
 2487      02001B05 
 2487      00000201 
 2487      FB0E0D00 
 2487      01010101 
 2488              	.LASF77:
 2489 0000 426C6F63 		.ascii	"BlockDeviceInfo\000"
 2489      6B446576 
 2489      69636549 
 2489      6E666F00 
 2490              	.LASF115:
 2491 0010 636F756E 		.ascii	"count\000"
 2491      7400
 2492              	.LASF82:
 2493 0016 63617061 		.ascii	"capacity\000"
 2493      63697479 
 2493      00
 2494              	.LASF105:
 2495 001f 5245535F 		.ascii	"RES_WRPRT\000"
 2495      57525052 
 2495      5400
ARM GAS  /tmp/cc1g2ZPd.s 			page 45


 2496              	.LASF56:
 2497 0029 4D304152 		.ascii	"M0AR\000"
 2497      00
 2498              	.LASF76:
 2499 002e 626C6B5F 		.ascii	"blk_num\000"
 2499      6E756D00 
 2500              	.LASF50:
 2501 0036 7264796D 		.ascii	"rdymsg\000"
 2501      736700
 2502              	.LASF92:
 2503 003d 69735F70 		.ascii	"is_protected\000"
 2503      726F7465 
 2503      63746564 
 2503      00
 2504              	.LASF5:
 2505 004a 5F5F7569 		.ascii	"__uint8_t\000"
 2505      6E74385F 
 2505      7400
 2506              	.LASF106:
 2507 0054 5245535F 		.ascii	"RES_NOTRDY\000"
 2507      4E4F5452 
 2507      445900
 2508              	.LASF59:
 2509 005f 73747265 		.ascii	"stream\000"
 2509      616D00
 2510              	.LASF11:
 2511 0066 6C6F6E67 		.ascii	"long long unsigned int\000"
 2511      206C6F6E 
 2511      6720756E 
 2511      7369676E 
 2511      65642069 
 2512              	.LASF51:
 2513 007d 65786974 		.ascii	"exitcode\000"
 2513      636F6465 
 2513      00
 2514              	.LASF84:
 2515 0086 63617264 		.ascii	"cardmode\000"
 2515      6D6F6465 
 2515      00
 2516              	.LASF119:
 2517 008f 49544D5F 		.ascii	"ITM_RxBuffer\000"
 2517      52784275 
 2517      66666572 
 2517      00
 2518              	.LASF74:
 2519 009c 626C6B73 		.ascii	"blkstate_t\000"
 2519      74617465 
 2519      5F7400
 2520              	.LASF26:
 2521 00a7 705F7072 		.ascii	"p_prio\000"
 2521      696F00
 2522              	.LASF111:
 2523 00ae 73746174 		.ascii	"stat\000"
 2523      00
 2524              	.LASF10:
 2525 00b3 6C6F6E67 		.ascii	"long long int\000"
 2525      206C6F6E 
ARM GAS  /tmp/cc1g2ZPd.s 			page 46


 2525      6720696E 
 2525      7400
 2526              	.LASF1:
 2527 00c1 7369676E 		.ascii	"signed char\000"
 2527      65642063 
 2527      68617200 
 2528              	.LASF113:
 2529 00cd 62756666 		.ascii	"buff\000"
 2529      00
 2530              	.LASF15:
 2531 00d2 626F6F6C 		.ascii	"bool_t\000"
 2531      5F7400
 2532              	.LASF47:
 2533 00d9 6D5F7175 		.ascii	"m_queue\000"
 2533      65756500 
 2534              	.LASF94:
 2535 00e1 64697363 		.ascii	"disconnect\000"
 2535      6F6E6E65 
 2535      637400
 2536              	.LASF19:
 2537 00ec 74736C69 		.ascii	"tslices_t\000"
 2537      6365735F 
 2537      7400
 2538              	.LASF126:
 2539 00f6 6765745F 		.ascii	"get_fattime\000"
 2539      66617474 
 2539      696D6500 
 2540              	.LASF65:
 2541 0102 424C4B5F 		.ascii	"BLK_UNINIT\000"
 2541      554E494E 
 2541      495400
 2542              	.LASF81:
 2543 010d 73746174 		.ascii	"state\000"
 2543      6500
 2544              	.LASF7:
 2545 0113 6C6F6E67 		.ascii	"long int\000"
 2545      20696E74 
 2545      00
 2546              	.LASF18:
 2547 011c 74737461 		.ascii	"tstate_t\000"
 2547      74655F74 
 2547      00
 2548              	.LASF107:
 2549 0125 5245535F 		.ascii	"RES_PARERR\000"
 2549      50415245 
 2549      525200
 2550              	.LASF101:
 2551 0130 44574F52 		.ascii	"DWORD\000"
 2551      4400
 2552              	.LASF28:
 2553 0136 705F6E65 		.ascii	"p_newer\000"
 2553      77657200 
 2554              	.LASF98:
 2555 013e 6765745F 		.ascii	"get_info\000"
 2555      696E666F 
 2555      00
 2556              	.LASF66:
ARM GAS  /tmp/cc1g2ZPd.s 			page 47


 2557 0147 424C4B5F 		.ascii	"BLK_STOP\000"
 2557      53544F50 
 2557      00
 2558              	.LASF8:
 2559 0150 5F5F7569 		.ascii	"__uint32_t\000"
 2559      6E743332 
 2559      5F7400
 2560              	.LASF42:
 2561 015b 72656761 		.ascii	"regarm_t\000"
 2561      726D5F74 
 2561      00
 2562              	.LASF62:
 2563 0164 73656C66 		.ascii	"selfindex\000"
 2563      696E6465 
 2563      7800
 2564              	.LASF88:
 2565 016e 64756D6D 		.ascii	"dummy\000"
 2565      7900
 2566              	.LASF99:
 2567 0174 42595445 		.ascii	"BYTE\000"
 2567      00
 2568              	.LASF78:
 2569 0179 7364636D 		.ascii	"sdcmode_t\000"
 2569      6F64655F 
 2569      7400
 2570              	.LASF120:
 2571 0183 53444344 		.ascii	"SDCD1\000"
 2571      3100
 2572              	.LASF32:
 2573 0189 705F666C 		.ascii	"p_flags\000"
 2573      61677300 
 2574              	.LASF0:
 2575 0191 756E7369 		.ascii	"unsigned int\000"
 2575      676E6564 
 2575      20696E74 
 2575      00
 2576              	.LASF85:
 2577 019e 6572726F 		.ascii	"errors\000"
 2577      727300
 2578              	.LASF79:
 2579 01a5 73646366 		.ascii	"sdcflags_t\000"
 2579      6C616773 
 2579      5F7400
 2580              	.LASF35:
 2581 01b0 705F6D73 		.ascii	"p_msgqueue\000"
 2581      67717565 
 2581      756500
 2582              	.LASF110:
 2583 01bb 6469736B 		.ascii	"disk_status\000"
 2583      5F737461 
 2583      74757300 
 2584              	.LASF61:
 2585 01c7 69736869 		.ascii	"ishift\000"
 2585      667400
 2586              	.LASF124:
 2587 01ce 2F686F6D 		.ascii	"/home/sbcu/Dropbox/pcb-layouts/axo-on-discovery-boa"
 2587      652F7362 
ARM GAS  /tmp/cc1g2ZPd.s 			page 48


 2587      63752F44 
 2587      726F7062 
 2587      6F782F70 
 2588 0201 72642F61 		.ascii	"rd/axoloti/platform_linux/../chibios/os/various/fat"
 2588      786F6C6F 
 2588      74692F70 
 2588      6C617466 
 2588      6F726D5F 
 2589 0234 66735F62 		.ascii	"fs_bindings/fatfs_diskio.c\000"
 2589      696E6469 
 2589      6E67732F 
 2589      66617466 
 2589      735F6469 
 2590              	.LASF4:
 2591 024f 73686F72 		.ascii	"short unsigned int\000"
 2591      7420756E 
 2591      7369676E 
 2591      65642069 
 2591      6E7400
 2592              	.LASF67:
 2593 0262 424C4B5F 		.ascii	"BLK_ACTIVE\000"
 2593      41435449 
 2593      564500
 2594              	.LASF121:
 2595 026d 7364635F 		.ascii	"sdc_lld_is_write_protected\000"
 2595      6C6C645F 
 2595      69735F77 
 2595      72697465 
 2595      5F70726F 
 2596              	.LASF21:
 2597 0288 6D73675F 		.ascii	"msg_t\000"
 2597      7400
 2598              	.LASF68:
 2599 028e 424C4B5F 		.ascii	"BLK_CONNECTING\000"
 2599      434F4E4E 
 2599      45435449 
 2599      4E4700
 2600              	.LASF17:
 2601 029d 746D6F64 		.ascii	"tmode_t\000"
 2601      655F7400 
 2602              	.LASF114:
 2603 02a5 73656374 		.ascii	"sector\000"
 2603      6F7200
 2604              	.LASF41:
 2605 02ac 54687265 		.ascii	"ThreadsList\000"
 2605      6164734C 
 2605      69737400 
 2606              	.LASF22:
 2607 02b8 6576656E 		.ascii	"eventmask_t\000"
 2607      746D6173 
 2607      6B5F7400 
 2608              	.LASF6:
 2609 02c4 5F5F696E 		.ascii	"__int32_t\000"
 2609      7433325F 
 2609      7400
 2610              	.LASF117:
 2611 02ce 6469736B 		.ascii	"disk_ioctl\000"
ARM GAS  /tmp/cc1g2ZPd.s 			page 49


 2611      5F696F63 
 2611      746C00
 2612              	.LASF96:
 2613 02d9 77726974 		.ascii	"write\000"
 2613      6500
 2614              	.LASF112:
 2615 02df 6469736B 		.ascii	"disk_read\000"
 2615      5F726561 
 2615      6400
 2616              	.LASF71:
 2617 02e9 424C4B5F 		.ascii	"BLK_READING\000"
 2617      52454144 
 2617      494E4700 
 2618              	.LASF45:
 2619 02f5 73697A65 		.ascii	"sizetype\000"
 2619      74797065 
 2619      00
 2620              	.LASF46:
 2621 02fe 4D757465 		.ascii	"Mutex\000"
 2621      7800
 2622              	.LASF100:
 2623 0304 574F5244 		.ascii	"WORD\000"
 2623      00
 2624              	.LASF103:
 2625 0309 5245535F 		.ascii	"RES_OK\000"
 2625      4F4B00
 2626              	.LASF29:
 2627 0310 705F6F6C 		.ascii	"p_older\000"
 2627      64657200 
 2628              	.LASF127:
 2629 0318 73646357 		.ascii	"sdcWrite\000"
 2629      72697465 
 2629      00
 2630              	.LASF70:
 2631 0321 424C4B5F 		.ascii	"BLK_READY\000"
 2631      52454144 
 2631      5900
 2632              	.LASF40:
 2633 032b 54687265 		.ascii	"ThreadsQueue\000"
 2633      61647351 
 2633      75657565 
 2633      00
 2634              	.LASF122:
 2635 0338 73646352 		.ascii	"sdcRead\000"
 2635      65616400 
 2636              	.LASF125:
 2637 0340 2F686F6D 		.ascii	"/home/sbcu/Dropbox/pcb-layouts/axo-on-discovery-boa"
 2637      652F7362 
 2637      63752F44 
 2637      726F7062 
 2637      6F782F70 
 2638 0373 72642F61 		.ascii	"rd/axoloti/firmware\000"
 2638      786F6C6F 
 2638      74692F66 
 2638      69726D77 
 2638      61726500 
 2639              	.LASF25:
ARM GAS  /tmp/cc1g2ZPd.s 			page 50


 2640 0387 705F7072 		.ascii	"p_prev\000"
 2640      657600
 2641              	.LASF64:
 2642 038e 73746D33 		.ascii	"stm32_dma_stream_t\000"
 2642      325F646D 
 2642      615F7374 
 2642      7265616D 
 2642      5F7400
 2643              	.LASF20:
 2644 03a1 74707269 		.ascii	"tprio_t\000"
 2644      6F5F7400 
 2645              	.LASF86:
 2646 03a9 74687265 		.ascii	"thread\000"
 2646      616400
 2647              	.LASF16:
 2648 03b0 5F426F6F 		.ascii	"_Bool\000"
 2648      6C00
 2649              	.LASF13:
 2650 03b6 696E7433 		.ascii	"int32_t\000"
 2650      325F7400 
 2651              	.LASF2:
 2652 03be 756E7369 		.ascii	"unsigned char\000"
 2652      676E6564 
 2652      20636861 
 2652      7200
 2653              	.LASF109:
 2654 03cc 6469736B 		.ascii	"disk_initialize\000"
 2654      5F696E69 
 2654      7469616C 
 2654      697A6500 
 2655              	.LASF38:
 2656 03dc 705F6D74 		.ascii	"p_mtxlist\000"
 2656      786C6973 
 2656      7400
 2657              	.LASF3:
 2658 03e6 73686F72 		.ascii	"short int\000"
 2658      7420696E 
 2658      7400
 2659              	.LASF31:
 2660 03f0 705F7374 		.ascii	"p_state\000"
 2660      61746500 
 2661              	.LASF72:
 2662 03f8 424C4B5F 		.ascii	"BLK_WRITING\000"
 2662      57524954 
 2662      494E4700 
 2663              	.LASF33:
 2664 0404 705F7072 		.ascii	"p_preempt\000"
 2664      65656D70 
 2664      7400
 2665              	.LASF53:
 2666 040e 65776D61 		.ascii	"ewmask\000"
 2666      736B00
 2667              	.LASF24:
 2668 0415 705F6E65 		.ascii	"p_next\000"
 2668      787400
 2669              	.LASF90:
 2670 041c 53444344 		.ascii	"SDCDriverVMT\000"
ARM GAS  /tmp/cc1g2ZPd.s 			page 51


 2670      72697665 
 2670      72564D54 
 2670      00
 2671              	.LASF23:
 2672 0429 54687265 		.ascii	"Thread\000"
 2672      616400
 2673              	.LASF123:
 2674 0430 474E5520 		.ascii	"GNU C 4.9.3 20150529 (release) [ARM/embedded-4_9-br"
 2674      4320342E 
 2674      392E3320 
 2674      32303135 
 2674      30353239 
 2675 0463 616E6368 		.ascii	"anch revision 224288] -mcpu=cortex-m4 -mfloat-abi=h"
 2675      20726576 
 2675      6973696F 
 2675      6E203232 
 2675      34323838 
 2676 0496 61726420 		.ascii	"ard -mfpu=fpv4-sp-d16 -mno-thumb-interwork -mthumb "
 2676      2D6D6670 
 2676      753D6670 
 2676      76342D73 
 2676      702D6431 
 2677 04c9 2D676764 		.ascii	"-ggdb -O2 -fomit-frame-pointer -falign-functions=16"
 2677      62202D4F 
 2677      32202D66 
 2677      6F6D6974 
 2677      2D667261 
 2678 04fc 202D666E 		.ascii	" -fno-math-errno -fsingle-precision-constant\000"
 2678      6F2D6D61 
 2678      74682D65 
 2678      72726E6F 
 2678      202D6673 
 2679              	.LASF93:
 2680 0529 636F6E6E 		.ascii	"connect\000"
 2680      65637400 
 2681              	.LASF37:
 2682 0531 705F6570 		.ascii	"p_epending\000"
 2682      656E6469 
 2682      6E6700
 2683              	.LASF60:
 2684 053c 69666372 		.ascii	"ifcr\000"
 2684      00
 2685              	.LASF14:
 2686 0541 75696E74 		.ascii	"uint32_t\000"
 2686      33325F74 
 2686      00
 2687              	.LASF108:
 2688 054a 44524553 		.ascii	"DRESULT\000"
 2688      554C5400 
 2689              	.LASF9:
 2690 0552 6C6F6E67 		.ascii	"long unsigned int\000"
 2690      20756E73 
 2690      69676E65 
 2690      6420696E 
 2690      7400
 2691              	.LASF95:
 2692 0564 72656164 		.ascii	"read\000"
ARM GAS  /tmp/cc1g2ZPd.s 			page 52


 2692      00
 2693              	.LASF54:
 2694 0569 63686172 		.ascii	"char\000"
 2694      00
 2695              	.LASF69:
 2696 056e 424C4B5F 		.ascii	"BLK_DISCONNECTING\000"
 2696      44495343 
 2696      4F4E4E45 
 2696      4354494E 
 2696      4700
 2697              	.LASF83:
 2698 0580 636F6E66 		.ascii	"config\000"
 2698      696700
 2699              	.LASF49:
 2700 0587 6D5F6E65 		.ascii	"m_next\000"
 2700      787400
 2701              	.LASF75:
 2702 058e 626C6B5F 		.ascii	"blk_size\000"
 2702      73697A65 
 2702      00
 2703              	.LASF39:
 2704 0597 705F7265 		.ascii	"p_realprio\000"
 2704      616C7072 
 2704      696F00
 2705              	.LASF102:
 2706 05a2 44535441 		.ascii	"DSTATUS\000"
 2706      54555300 
 2707              	.LASF55:
 2708 05aa 4E445452 		.ascii	"NDTR\000"
 2708      00
 2709              	.LASF58:
 2710 05af 444D415F 		.ascii	"DMA_Stream_TypeDef\000"
 2710      53747265 
 2710      616D5F54 
 2710      79706544 
 2710      656600
 2711              	.LASF118:
 2712 05c2 6374726C 		.ascii	"ctrl\000"
 2712      00
 2713              	.LASF44:
 2714 05c7 636F6E74 		.ascii	"context\000"
 2714      65787400 
 2715              	.LASF116:
 2716 05cf 6469736B 		.ascii	"disk_write\000"
 2716      5F777269 
 2716      746500
 2717              	.LASF43:
 2718 05da 696E7463 		.ascii	"intctx\000"
 2718      747800
 2719              	.LASF91:
 2720 05e1 69735F69 		.ascii	"is_inserted\000"
 2720      6E736572 
 2720      74656400 
 2721              	.LASF57:
 2722 05ed 4D314152 		.ascii	"M1AR\000"
 2722      00
 2723              	.LASF30:
ARM GAS  /tmp/cc1g2ZPd.s 			page 53


 2724 05f2 705F6E61 		.ascii	"p_name\000"
 2724      6D6500
 2725              	.LASF73:
 2726 05f9 424C4B5F 		.ascii	"BLK_SYNCING\000"
 2726      53594E43 
 2726      494E4700 
 2727              	.LASF89:
 2728 0605 53444343 		.ascii	"SDCConfig\000"
 2728      6F6E6669 
 2728      6700
 2729              	.LASF12:
 2730 060f 75696E74 		.ascii	"uint8_t\000"
 2730      385F7400 
 2731              	.LASF97:
 2732 0617 73796E63 		.ascii	"sync\000"
 2732      00
 2733              	.LASF87:
 2734 061c 646D616D 		.ascii	"dmamode\000"
 2734      6F646500 
 2735              	.LASF52:
 2736 0624 77746F62 		.ascii	"wtobjp\000"
 2736      6A7000
 2737              	.LASF104:
 2738 062b 5245535F 		.ascii	"RES_ERROR\000"
 2738      4552524F 
 2738      5200
 2739              	.LASF36:
 2740 0635 705F6D73 		.ascii	"p_msg\000"
 2740      6700
 2741              	.LASF48:
 2742 063b 6D5F6F77 		.ascii	"m_owner\000"
 2742      6E657200 
 2743              	.LASF80:
 2744 0643 53444344 		.ascii	"SDCDriver\000"
 2744      72697665 
 2744      7200
 2745              	.LASF63:
 2746 064d 76656374 		.ascii	"vector\000"
 2746      6F7200
 2747              	.LASF27:
 2748 0654 705F6374 		.ascii	"p_ctx\000"
 2748      7800
 2749              	.LASF34:
 2750 065a 705F7761 		.ascii	"p_waiting\000"
 2750      6974696E 
 2750      6700
 2751              		.ident	"GCC: (GNU Tools for ARM Embedded Processors) 4.9.3 20150529 (release) [ARM/embedded-4_9-br
ARM GAS  /tmp/cc1g2ZPd.s 			page 54


DEFINED SYMBOLS
                            *ABS*:00000000 fatfs_diskio.c
     /tmp/cc1g2ZPd.s:20     .text:00000000 $t
     /tmp/cc1g2ZPd.s:26     .text:00000000 disk_initialize
     /tmp/cc1g2ZPd.s:73     .text:00000028 $d
     /tmp/cc1g2ZPd.s:77     .text:0000002c $t
     /tmp/cc1g2ZPd.s:83     .text:00000030 disk_status
     /tmp/cc1g2ZPd.s:129    .text:00000058 $d
     /tmp/cc1g2ZPd.s:133    .text:0000005c $t
     /tmp/cc1g2ZPd.s:139    .text:00000060 disk_read
     /tmp/cc1g2ZPd.s:196    .text:00000088 $d
     /tmp/cc1g2ZPd.s:200    .text:0000008c $t
     /tmp/cc1g2ZPd.s:206    .text:00000090 disk_write
     /tmp/cc1g2ZPd.s:263    .text:000000b8 $d
     /tmp/cc1g2ZPd.s:267    .text:000000bc $t
     /tmp/cc1g2ZPd.s:273    .text:000000c0 disk_ioctl
     /tmp/cc1g2ZPd.s:295    .text:000000ce $d
     /tmp/cc1g2ZPd.s:299    .text:000000d2 $t
     /tmp/cc1g2ZPd.s:337    .text:000000f4 $d
     /tmp/cc1g2ZPd.s:341    .text:000000f8 $t
     /tmp/cc1g2ZPd.s:347    .text:00000100 get_fattime
                     .debug_frame:00000010 $d

UNDEFINED SYMBOLS
sdc_lld_is_write_protected
SDCD1
sdcRead
sdcWrite
