ARM GAS  /tmp/ccJyHyK3.s 			page 1


   1              		.syntax unified
   2              		.cpu cortex-m4
   3              		.eabi_attribute 27, 1
   4              		.eabi_attribute 28, 1
   5              		.fpu fpv4-sp-d16
   6              		.eabi_attribute 20, 1
   7              		.eabi_attribute 21, 1
   8              		.eabi_attribute 23, 3
   9              		.eabi_attribute 24, 1
  10              		.eabi_attribute 25, 1
  11              		.eabi_attribute 26, 1
  12              		.eabi_attribute 30, 2
  13              		.eabi_attribute 34, 1
  14              		.eabi_attribute 18, 4
  15              		.thumb
  16              		.file	"ff.c"
  17              		.text
  18              	.Ltext0:
  19              		.cfi_sections	.debug_frame
  20              		.align	2
  21              		.p2align 4,,15
  22              		.thumb
  23              		.thumb_func
  24              		.type	move_window, %function
  25              	move_window:
  26              	.LFB13:
  27              		.file 1 "/home/sbcu/Dropbox/pcb-layouts/axo-on-discovery-board/axoloti/platform_linux/../chibios/e
  28              		.loc 1 723 0
  29              		.cfi_startproc
  30              		@ args = 0, pretend = 0, frame = 0
  31              		@ frame_needed = 0, uses_anonymous_args = 0
  32              	.LVL0:
  33 0000 2DE9F041 		push	{r4, r5, r6, r7, r8, lr}
  34              		.cfi_def_cfa_offset 24
  35              		.cfi_offset 4, -24
  36              		.cfi_offset 5, -20
  37              		.cfi_offset 6, -16
  38              		.cfi_offset 7, -12
  39              		.cfi_offset 8, -8
  40              		.cfi_offset 14, -4
  41              		.loc 1 727 0
  42 0004 466B     		ldr	r6, [r0, #52]
  43              	.LVL1:
  44              		.loc 1 728 0
  45 0006 8E42     		cmp	r6, r1
  46 0008 04D0     		beq	.L6
  47              		.loc 1 730 0
  48 000a 0379     		ldrb	r3, [r0, #4]	@ zero_extendqisi2
  49 000c 0F46     		mov	r7, r1
  50 000e 0446     		mov	r4, r0
  51 0010 73B9     		cbnz	r3, .L4
  52              	.LVL2:
  53              	.L8:
  54              		.loc 1 743 0
  55 0012 17B9     		cbnz	r7, .L18
  56              	.LVL3:
  57              	.L6:
ARM GAS  /tmp/ccJyHyK3.s 			page 2


  58              		.loc 1 750 0
  59 0014 0020     		movs	r0, #0
  60 0016 BDE8F081 		pop	{r4, r5, r6, r7, r8, pc}
  61              	.LVL4:
  62              	.L18:
  63              		.loc 1 744 0
  64 001a 6078     		ldrb	r0, [r4, #1]	@ zero_extendqisi2
  65 001c 04F13801 		add	r1, r4, #56
  66 0020 3A46     		mov	r2, r7
  67 0022 0123     		movs	r3, #1
  68 0024 FFF7FEFF 		bl	disk_read
  69              	.LVL5:
  70 0028 20BB     		cbnz	r0, .L10
  71              		.loc 1 746 0
  72 002a 6763     		str	r7, [r4, #52]
  73              		.loc 1 751 0
  74 002c BDE8F081 		pop	{r4, r5, r6, r7, r8, pc}
  75              	.LVL6:
  76              	.L4:
  77              		.loc 1 731 0
  78 0030 00F13808 		add	r8, r0, #56
  79 0034 4146     		mov	r1, r8
  80              	.LVL7:
  81 0036 4078     		ldrb	r0, [r0, #1]	@ zero_extendqisi2
  82              	.LVL8:
  83 0038 3246     		mov	r2, r6
  84 003a 0123     		movs	r3, #1
  85 003c FFF7FEFF 		bl	disk_write
  86              	.LVL9:
  87 0040 C0B9     		cbnz	r0, .L10
  88              		.loc 1 734 0
  89 0042 636A     		ldr	r3, [r4, #36]
  90 0044 A26A     		ldr	r2, [r4, #40]
  91              		.loc 1 733 0
  92 0046 2071     		strb	r0, [r4, #4]
  93              		.loc 1 734 0
  94 0048 1A44     		add	r2, r2, r3
  95 004a 9642     		cmp	r6, r2
  96 004c E1D2     		bcs	.L8
  97              	.LBB240:
  98              		.loc 1 736 0
  99 004e E578     		ldrb	r5, [r4, #3]	@ zero_extendqisi2
 100              	.LVL10:
 101 0050 012D     		cmp	r5, #1
 102 0052 01D8     		bhi	.L9
 103 0054 DDE7     		b	.L8
 104              	.L19:
 105 0056 636A     		ldr	r3, [r4, #36]
 106              	.L9:
 107              		.loc 1 738 0 discriminator 3
 108 0058 6078     		ldrb	r0, [r4, #1]	@ zero_extendqisi2
 109              		.loc 1 737 0 discriminator 3
 110 005a 1E44     		add	r6, r6, r3
 111              	.LVL11:
 112              		.loc 1 736 0 discriminator 3
 113 005c 013D     		subs	r5, r5, #1
 114              	.LVL12:
ARM GAS  /tmp/ccJyHyK3.s 			page 3


 115              		.loc 1 738 0 discriminator 3
 116 005e 3246     		mov	r2, r6
 117 0060 4146     		mov	r1, r8
 118 0062 0123     		movs	r3, #1
 119              		.loc 1 736 0 discriminator 3
 120 0064 EDB2     		uxtb	r5, r5
 121              		.loc 1 738 0 discriminator 3
 122 0066 FFF7FEFF 		bl	disk_write
 123              	.LVL13:
 124              		.loc 1 736 0 discriminator 3
 125 006a 012D     		cmp	r5, #1
 126 006c F3D1     		bne	.L19
 127              	.LBE240:
 128              		.loc 1 743 0
 129 006e 002F     		cmp	r7, #0
 130 0070 D0D0     		beq	.L6
 131 0072 D2E7     		b	.L18
 132              	.LVL14:
 133              	.L10:
 134              		.loc 1 732 0
 135 0074 0120     		movs	r0, #1
 136 0076 BDE8F081 		pop	{r4, r5, r6, r7, r8, pc}
 137              		.cfi_endproc
 138              	.LFE13:
 139              		.size	move_window, .-move_window
 140 007a 00BF     		.align	2
 141 007c AFF30080 		.p2align 4,,15
 142              		.thumb
 143              		.thumb_func
 144              		.type	get_fileinfo, %function
 145              	get_fileinfo:
 146              	.LFB33:
 147              		.loc 1 1841 0
 148              		.cfi_startproc
 149              		@ args = 0, pretend = 0, frame = 0
 150              		@ frame_needed = 0, uses_anonymous_args = 0
 151              	.LVL15:
 152              		.loc 1 1848 0
 153 0080 0369     		ldr	r3, [r0, #16]
 154              		.loc 1 1841 0
 155 0082 2DE9F041 		push	{r4, r5, r6, r7, r8, lr}
 156              		.cfi_def_cfa_offset 24
 157              		.cfi_offset 4, -24
 158              		.cfi_offset 5, -20
 159              		.cfi_offset 6, -16
 160              		.cfi_offset 7, -12
 161              		.cfi_offset 8, -8
 162              		.cfi_offset 14, -4
 163              		.loc 1 1847 0
 164 0086 01F10902 		add	r2, r1, #9
 165              	.LVL16:
 166              		.loc 1 1848 0
 167 008a 002B     		cmp	r3, #0
 168 008c 47D0     		beq	.L21
 169              		.loc 1 1849 0
 170 008e 4669     		ldr	r6, [r0, #20]
 171              	.LVL17:
ARM GAS  /tmp/ccJyHyK3.s 			page 4


 172              		.loc 1 1850 0
 173 0090 96F80CC0 		ldrb	ip, [r6, #12]	@ zero_extendqisi2
 174              	.LVL18:
 175              		.loc 1 1855 0
 176 0094 0CF00807 		and	r7, ip, #8
 177 0098 FFB2     		uxtb	r7, r7
 178 009a 751E     		subs	r5, r6, #1
 179 009c 01F11104 		add	r4, r1, #17
 180 00a0 0DE0     		b	.L24
 181              	.LVL19:
 182              	.L62:
 183 00a2 A3F1410E 		sub	lr, r3, #65
 184 00a6 37B1     		cbz	r7, .L23
 185              		.loc 1 1855 0 is_stmt 0 discriminator 1
 186 00a8 BEF1190F 		cmp	lr, #25
 187 00ac 03F1200E 		add	lr, r3, #32
 188 00b0 01D8     		bhi	.L23
 189              		.loc 1 1855 0 discriminator 2
 190 00b2 5FFA8EF3 		uxtb	r3, lr
 191              	.LVL20:
 192              	.L23:
 193              		.loc 1 1862 0 is_stmt 1 discriminator 2
 194 00b6 02F8013B 		strb	r3, [r2], #1
 195              	.LVL21:
 196              		.loc 1 1851 0 discriminator 2
 197 00ba A242     		cmp	r2, r4
 198 00bc 0AD0     		beq	.L22
 199              	.LVL22:
 200              	.L24:
 201              		.loc 1 1852 0
 202 00be 15F8013F 		ldrb	r3, [r5, #1]!	@ zero_extendqisi2
 203              	.LVL23:
 204              		.loc 1 1853 0
 205 00c2 202B     		cmp	r3, #32
 206 00c4 57D0     		beq	.L33
 207              		.loc 1 1854 0
 208 00c6 052B     		cmp	r3, #5
 209 00c8 EBD1     		bne	.L62
 210 00ca E523     		movs	r3, #229
 211              	.LVL24:
 212              		.loc 1 1862 0
 213 00cc 02F8013B 		strb	r3, [r2], #1
 214              	.LVL25:
 215              		.loc 1 1851 0
 216 00d0 A242     		cmp	r2, r4
 217 00d2 F4D1     		bne	.L24
 218              	.L22:
 219              		.loc 1 1864 0
 220 00d4 337A     		ldrb	r3, [r6, #8]	@ zero_extendqisi2
 221              	.LVL26:
 222 00d6 202B     		cmp	r3, #32
 223              		.loc 1 1865 0
 224 00d8 2246     		mov	r2, r4
 225              	.LVL27:
 226              		.loc 1 1864 0
 227 00da 18D0     		beq	.L25
 228              	.LVL28:
ARM GAS  /tmp/ccJyHyK3.s 			page 5


 229              	.L64:
 230              		.loc 1 1865 0
 231 00dc 2E23     		movs	r3, #46
 232              		.loc 1 1869 0
 233 00de 0CF0100C 		and	ip, ip, #16
 234              	.LVL29:
 235              		.loc 1 1865 0
 236 00e2 02F8043B 		strb	r3, [r2], #4
 237              		.loc 1 1869 0
 238 00e6 5FFA8CF5 		uxtb	r5, ip
 239              		.loc 1 1865 0
 240 00ea 0134     		adds	r4, r4, #1
 241              	.LVL30:
 242 00ec F71D     		adds	r7, r6, #7
 243              	.LVL31:
 244              	.L27:
 245              		.loc 1 1867 0
 246 00ee 17F8013F 		ldrb	r3, [r7, #1]!	@ zero_extendqisi2
 247              	.LVL32:
 248              		.loc 1 1868 0
 249 00f2 202B     		cmp	r3, #32
 250              		.loc 1 1869 0
 251 00f4 A3F1410E 		sub	lr, r3, #65
 252              		.loc 1 1868 0
 253 00f8 43D0     		beq	.L36
 254              		.loc 1 1869 0
 255 00fa 25B1     		cbz	r5, .L26
 256              		.loc 1 1869 0 is_stmt 0 discriminator 1
 257 00fc BEF1190F 		cmp	lr, #25
 258 0100 9CBF     		itt	ls
 259 0102 2033     		addls	r3, r3, #32
 260              	.LVL33:
 261 0104 DBB2     		uxtbls	r3, r3
 262              	.LVL34:
 263              	.L26:
 264              		.loc 1 1876 0 is_stmt 1 discriminator 2
 265 0106 04F8013B 		strb	r3, [r4], #1
 266              	.LVL35:
 267              		.loc 1 1866 0 discriminator 2
 268 010a 9442     		cmp	r4, r2
 269 010c EFD1     		bne	.L27
 270              	.LVL36:
 271              	.L25:
 272              		.loc 1 1879 0
 273 010e F37A     		ldrb	r3, [r6, #11]	@ zero_extendqisi2
 274 0110 0B72     		strb	r3, [r1, #8]
 275              		.loc 1 1881 0
 276 0112 348B     		ldrh	r4, [r6, #24]
 277              		.loc 1 1880 0
 278 0114 F369     		ldr	r3, [r6, #28]
 279              		.loc 1 1881 0
 280 0116 8C80     		strh	r4, [r1, #4]	@ movhi
 281              		.loc 1 1882 0
 282 0118 F48A     		ldrh	r4, [r6, #22]
 283 011a CC80     		strh	r4, [r1, #6]	@ movhi
 284              		.loc 1 1880 0
 285 011c 0B60     		str	r3, [r1]
ARM GAS  /tmp/ccJyHyK3.s 			page 6


 286              	.LVL37:
 287              	.L21:
 288              		.loc 1 1884 0
 289 011e 0024     		movs	r4, #0
 290 0120 1470     		strb	r4, [r2]
 291              		.loc 1 1887 0
 292 0122 8E69     		ldr	r6, [r1, #24]
 293 0124 36B1     		cbz	r6, .L20
 294              		.loc 1 1887 0 is_stmt 0 discriminator 1
 295 0126 CB69     		ldr	r3, [r1, #28]
 296 0128 23B1     		cbz	r3, .L20
 297              	.LVL38:
 298              	.LBB241:
 299              		.loc 1 1892 0 is_stmt 1
 300 012a 0369     		ldr	r3, [r0, #16]
 301 012c 23B9     		cbnz	r3, .L29
 302              	.LVL39:
 303              	.L31:
 304              		.loc 1 1891 0
 305 012e 0024     		movs	r4, #0
 306              	.L30:
 307              	.LVL40:
 308              		.loc 1 1905 0
 309 0130 0023     		movs	r3, #0
 310 0132 3355     		strb	r3, [r6, r4]
 311              	.LVL41:
 312              	.L20:
 313 0134 BDE8F081 		pop	{r4, r5, r6, r7, r8, pc}
 314              	.LVL42:
 315              	.L29:
 316              		.loc 1 1892 0 discriminator 1
 317 0138 028C     		ldrh	r2, [r0, #32]
 318              	.LVL43:
 319 013a 4FF6FF73 		movw	r3, #65535
 320 013e 9A42     		cmp	r2, r3
 321 0140 F5D0     		beq	.L31
 322              		.loc 1 1893 0
 323 0142 C769     		ldr	r7, [r0, #28]
 324              	.LVL44:
 325              		.loc 1 1894 0
 326 0144 3888     		ldrh	r0, [r7]
 327              	.LVL45:
 328 0146 0028     		cmp	r0, #0
 329 0148 F1D0     		beq	.L31
 330 014a 0D46     		mov	r5, r1
 331 014c 06F1FF38 		add	r8, r6, #-1
 332 0150 0BE0     		b	.L32
 333              	.LVL46:
 334              	.L63:
 335              		.loc 1 1901 0
 336 0152 EB69     		ldr	r3, [r5, #28]
 337 0154 013B     		subs	r3, r3, #1
 338 0156 A342     		cmp	r3, r4
 339              		.loc 1 1902 0
 340 0158 04F10104 		add	r4, r4, #1
 341              	.LVL47:
 342              		.loc 1 1901 0
ARM GAS  /tmp/ccJyHyK3.s 			page 7


 343 015c E7D9     		bls	.L31
 344              		.loc 1 1902 0
 345 015e 08F8010F 		strb	r0, [r8, #1]!
 346              	.LVL48:
 347              		.loc 1 1894 0
 348 0162 37F81400 		ldrh	r0, [r7, r4, lsl #1]
 349              	.LVL49:
 350 0166 0028     		cmp	r0, #0
 351 0168 E2D0     		beq	.L30
 352              	.LVL50:
 353              	.L32:
 354              		.loc 1 1896 0
 355 016a 0021     		movs	r1, #0
 356 016c FFF7FEFF 		bl	ff_convert
 357              	.LVL51:
 358              		.loc 1 1897 0
 359 0170 0028     		cmp	r0, #0
 360 0172 EED1     		bne	.L63
 361 0174 DBE7     		b	.L31
 362              	.LVL52:
 363              	.L33:
 364              	.LBE241:
 365              		.loc 1 1864 0
 366 0176 337A     		ldrb	r3, [r6, #8]	@ zero_extendqisi2
 367              	.LVL53:
 368 0178 1446     		mov	r4, r2
 369 017a 202B     		cmp	r3, #32
 370              		.loc 1 1865 0
 371 017c 2246     		mov	r2, r4
 372              		.loc 1 1864 0
 373 017e ADD1     		bne	.L64
 374 0180 C5E7     		b	.L25
 375              	.LVL54:
 376              	.L36:
 377 0182 2246     		mov	r2, r4
 378              	.LVL55:
 379 0184 C3E7     		b	.L25
 380              		.cfi_endproc
 381              	.LFE33:
 382              		.size	get_fileinfo, .-get_fileinfo
 383 0186 00BF     		.align	2
 384 0188 AFF30080 		.p2align 4,,15
 384      AFF30080 
 385              		.thumb
 386              		.thumb_func
 387              		.type	sync, %function
 388              	sync:
 389              	.LFB14:
 390              		.loc 1 764 0
 391              		.cfi_startproc
 392              		@ args = 0, pretend = 0, frame = 0
 393              		@ frame_needed = 0, uses_anonymous_args = 0
 394              	.LVL56:
 395 0190 F8B5     		push	{r3, r4, r5, r6, r7, lr}
 396              		.cfi_def_cfa_offset 24
 397              		.cfi_offset 3, -24
 398              		.cfi_offset 4, -20
ARM GAS  /tmp/ccJyHyK3.s 			page 8


 399              		.cfi_offset 5, -16
 400              		.cfi_offset 6, -12
 401              		.cfi_offset 7, -8
 402              		.cfi_offset 14, -4
 403              		.loc 1 768 0
 404 0192 0021     		movs	r1, #0
 405              		.loc 1 764 0
 406 0194 0546     		mov	r5, r0
 407              		.loc 1 768 0
 408 0196 FFF733FF 		bl	move_window
 409              	.LVL57:
 410 019a 0346     		mov	r3, r0
 411              	.LVL58:
 412              		.loc 1 769 0
 413 019c 50B9     		cbnz	r0, .L66
 414              		.loc 1 771 0
 415 019e 2B78     		ldrb	r3, [r5]	@ zero_extendqisi2
 416 01a0 032B     		cmp	r3, #3
 417 01a2 09D0     		beq	.L74
 418              	.LVL59:
 419              	.L67:
 420              		.loc 1 785 0
 421 01a4 0021     		movs	r1, #0
 422 01a6 6878     		ldrb	r0, [r5, #1]	@ zero_extendqisi2
 423 01a8 0A46     		mov	r2, r1
 424 01aa FFF7FEFF 		bl	disk_ioctl
 425              	.LVL60:
 426 01ae 031C     		adds	r3, r0, #0
 427 01b0 18BF     		it	ne
 428 01b2 0123     		movne	r3, #1
 429              	.L66:
 430              	.LVL61:
 431              		.loc 1 790 0
 432 01b4 1846     		mov	r0, r3
 433 01b6 F8BD     		pop	{r3, r4, r5, r6, r7, pc}
 434              	.LVL62:
 435              	.L74:
 436              		.loc 1 771 0 discriminator 1
 437 01b8 6B79     		ldrb	r3, [r5, #5]	@ zero_extendqisi2
 438 01ba 002B     		cmp	r3, #0
 439 01bc F2D0     		beq	.L67
 440              		.loc 1 774 0
 441 01be 05F13801 		add	r1, r5, #56
 442              	.LVL63:
 443              		.loc 1 772 0
 444 01c2 6863     		str	r0, [r5, #52]
 445              	.LBB242:
 446              	.LBB243:
 447              		.loc 1 547 0
 448 01c4 0B46     		mov	r3, r1
 449 01c6 05F50E72 		add	r2, r5, #568
 450              	.LVL64:
 451              	.L68:
 452              		.loc 1 550 0
 453 01ca 03F8010B 		strb	r0, [r3], #1
 454              	.LVL65:
 455              		.loc 1 549 0
ARM GAS  /tmp/ccJyHyK3.s 			page 9


 456 01ce 9342     		cmp	r3, r2
 457              		.loc 1 550 0
 458 01d0 4FF00004 		mov	r4, #0
 459              		.loc 1 549 0
 460 01d4 F9D1     		bne	.L68
 461              	.LBE243:
 462              	.LBE242:
 463              		.loc 1 778 0
 464 01d6 6A69     		ldr	r2, [r5, #20]
 465              		.loc 1 779 0
 466 01d8 2B69     		ldr	r3, [r5, #16]
 467              	.LVL66:
 468              		.loc 1 777 0
 469 01da 0A48     		ldr	r0, .L75
 470              	.LVL67:
 471              		.loc 1 776 0
 472 01dc 0A4E     		ldr	r6, .L75+4
 473              		.loc 1 777 0
 474 01de C5F81C02 		str	r0, [r5, #540]
 475              		.loc 1 775 0
 476 01e2 4AF65527 		movw	r7, #43605
 477              		.loc 1 778 0
 478 01e6 C5F82022 		str	r2, [r5, #544]
 479              		.loc 1 779 0
 480 01ea C5F82432 		str	r3, [r5, #548]
 481              		.loc 1 775 0
 482 01ee A5F83672 		strh	r7, [r5, #566]	@ movhi
 483              		.loc 1 776 0
 484 01f2 AE63     		str	r6, [r5, #56]
 485              		.loc 1 781 0
 486 01f4 6878     		ldrb	r0, [r5, #1]	@ zero_extendqisi2
 487 01f6 AA69     		ldr	r2, [r5, #24]
 488 01f8 0123     		movs	r3, #1
 489 01fa FFF7FEFF 		bl	disk_write
 490              	.LVL68:
 491              		.loc 1 782 0
 492 01fe 6C71     		strb	r4, [r5, #5]
 493 0200 D0E7     		b	.L67
 494              	.L76:
 495 0202 00BF     		.align	2
 496              	.L75:
 497 0204 72724161 		.word	1631679090
 498 0208 52526141 		.word	1096897106
 499              		.cfi_endproc
 500              	.LFE14:
 501              		.size	sync, .-sync
 502              		.align	2
 503 020c AFF30080 		.p2align 4,,15
 504              		.thumb
 505              		.thumb_func
 506              		.type	check_fs, %function
 507              	check_fs:
 508              	.LFB35:
 509              		.loc 1 1986 0
 510              		.cfi_startproc
 511              		@ args = 0, pretend = 0, frame = 0
 512              		@ frame_needed = 0, uses_anonymous_args = 0
ARM GAS  /tmp/ccJyHyK3.s 			page 10


 513              	.LVL69:
 514 0210 10B5     		push	{r4, lr}
 515              		.cfi_def_cfa_offset 8
 516              		.cfi_offset 4, -8
 517              		.cfi_offset 14, -4
 518              		.loc 1 1986 0
 519 0212 0446     		mov	r4, r0
 520 0214 0A46     		mov	r2, r1
 521              		.loc 1 1987 0
 522 0216 4078     		ldrb	r0, [r0, #1]	@ zero_extendqisi2
 523              	.LVL70:
 524 0218 04F13801 		add	r1, r4, #56
 525              	.LVL71:
 526 021c 0123     		movs	r3, #1
 527 021e FFF7FEFF 		bl	disk_read
 528              	.LVL72:
 529 0222 08B1     		cbz	r0, .L83
 530              		.loc 1 1988 0
 531 0224 0320     		movs	r0, #3
 532 0226 10BD     		pop	{r4, pc}
 533              	.LVL73:
 534              	.L83:
 535              		.loc 1 1989 0
 536 0228 B4F83622 		ldrh	r2, [r4, #566]
 537 022c 4AF65523 		movw	r3, #43605
 538 0230 9A42     		cmp	r2, r3
 539 0232 01D0     		beq	.L84
 540              		.loc 1 1990 0
 541 0234 0220     		movs	r0, #2
 542              	.L78:
 543              		.loc 1 1998 0
 544 0236 10BD     		pop	{r4, pc}
 545              	.LVL74:
 546              	.L84:
 547              		.loc 1 1992 0
 548 0238 D4F86E30 		ldr	r3, [r4, #110]
 549 023c 064A     		ldr	r2, .L85
 550 023e 23F07F43 		bic	r3, r3, #-16777216
 551 0242 9342     		cmp	r3, r2
 552 0244 F7D0     		beq	.L78
 553              	.LVL75:
 554              	.LBB246:
 555              	.LBB247:
 556              		.loc 1 1994 0
 557 0246 D4F88A30 		ldr	r3, [r4, #138]
 558 024a 23F07F43 		bic	r3, r3, #-16777216
 559              	.LBE247:
 560              	.LBE246:
 561              		.loc 1 1988 0
 562 024e 981A     		subs	r0, r3, r2
 563 0250 18BF     		it	ne
 564 0252 0120     		movne	r0, #1
 565 0254 10BD     		pop	{r4, pc}
 566              	.LVL76:
 567              	.L86:
 568 0256 00BF     		.align	2
 569              	.L85:
ARM GAS  /tmp/ccJyHyK3.s 			page 11


 570 0258 46415400 		.word	5521734
 571              		.cfi_endproc
 572              	.LFE35:
 573              		.size	check_fs, .-check_fs
 574              		.align	2
 575 025c AFF30080 		.p2align 4,,15
 576              		.thumb
 577              		.thumb_func
 578              		.type	chk_mounted, %function
 579              	chk_mounted:
 580              	.LFB36:
 581              		.loc 1 2013 0
 582              		.cfi_startproc
 583              		@ args = 0, pretend = 0, frame = 0
 584              		@ frame_needed = 0, uses_anonymous_args = 0
 585              	.LVL77:
 586 0260 F8B5     		push	{r3, r4, r5, r6, r7, lr}
 587              		.cfi_def_cfa_offset 24
 588              		.cfi_offset 3, -24
 589              		.cfi_offset 4, -20
 590              		.cfi_offset 5, -16
 591              		.cfi_offset 6, -12
 592              		.cfi_offset 7, -8
 593              		.cfi_offset 14, -4
 594              		.loc 1 2019 0
 595 0262 0368     		ldr	r3, [r0]
 596              	.LVL78:
 597              		.loc 1 2023 0
 598 0264 1C78     		ldrb	r4, [r3]	@ zero_extendqisi2
 599 0266 303C     		subs	r4, r4, #48
 600              	.LVL79:
 601              		.loc 1 2024 0
 602 0268 092C     		cmp	r4, #9
 603 026a 02D8     		bhi	.L88
 604              		.loc 1 2024 0 is_stmt 0 discriminator 1
 605 026c 5D78     		ldrb	r5, [r3, #1]	@ zero_extendqisi2
 606 026e 3A2D     		cmp	r5, #58
 607 0270 11D0     		beq	.L158
 608              	.L88:
 609              		.loc 1 2028 0 is_stmt 1
 610 0272 844B     		ldr	r3, .L166
 611              	.LVL80:
 612 0274 1C78     		ldrb	r4, [r3]	@ zero_extendqisi2
 613              	.LVL81:
 614              	.L89:
 615              		.loc 1 2035 0
 616 0276 0CB1     		cbz	r4, .L159
 617              		.loc 1 2036 0
 618 0278 0B20     		movs	r0, #11
 619              	.LVL82:
 620 027a F8BD     		pop	{r3, r4, r5, r6, r7, pc}
 621              	.LVL83:
 622              	.L159:
 623              		.loc 1 2037 0
 624 027c 814F     		ldr	r7, .L166
 625 027e 7E68     		ldr	r6, [r7, #4]
 626              	.LVL84:
ARM GAS  /tmp/ccJyHyK3.s 			page 12


 627 0280 0E60     		str	r6, [r1]
 628              		.loc 1 2038 0
 629 0282 36B1     		cbz	r6, .L111
 630              	.LVL85:
 631              	.LBB248:
 632              	.LBB249:
 633              		.loc 1 582 0
 634 0284 F068     		ldr	r0, [r6, #12]
 635              	.LVL86:
 636 0286 1546     		mov	r5, r2
 637 0288 FFF7FEFF 		bl	ff_req_grant
 638              	.LVL87:
 639              	.LBE249:
 640              	.LBE248:
 641              		.loc 1 2040 0
 642 028c 30B9     		cbnz	r0, .L160
 643 028e 0F20     		movs	r0, #15
 644 0290 F8BD     		pop	{r3, r4, r5, r6, r7, pc}
 645              	.LVL88:
 646              	.L111:
 647              		.loc 1 2038 0
 648 0292 0C20     		movs	r0, #12
 649              	.LVL89:
 650 0294 F8BD     		pop	{r3, r4, r5, r6, r7, pc}
 651              	.LVL90:
 652              	.L158:
 653              		.loc 1 2025 0
 654 0296 0233     		adds	r3, r3, #2
 655              	.LVL91:
 656 0298 0360     		str	r3, [r0]
 657 029a ECE7     		b	.L89
 658              	.LVL92:
 659              	.L160:
 660              		.loc 1 2042 0
 661 029c 3378     		ldrb	r3, [r6]	@ zero_extendqisi2
 662 029e 4BB1     		cbz	r3, .L91
 663              		.loc 1 2043 0
 664 02a0 7078     		ldrb	r0, [r6, #1]	@ zero_extendqisi2
 665 02a2 FFF7FEFF 		bl	disk_status
 666              	.LVL93:
 667              		.loc 1 2044 0
 668 02a6 C307     		lsls	r3, r0, #31
 669 02a8 04D4     		bmi	.L91
 670              		.loc 1 2045 0
 671 02aa E5B1     		cbz	r5, .L113
 672              		.loc 1 2045 0 is_stmt 0 discriminator 1
 673 02ac 4507     		lsls	r5, r0, #29
 674 02ae 1CD5     		bpl	.L114
 675              	.LVL94:
 676              	.L93:
 677              		.loc 1 2046 0 is_stmt 1
 678 02b0 0A20     		movs	r0, #10
 679              	.LVL95:
 680 02b2 F8BD     		pop	{r3, r4, r5, r6, r7, pc}
 681              	.LVL96:
 682              	.L91:
 683              		.loc 1 2054 0
ARM GAS  /tmp/ccJyHyK3.s 			page 13


 684 02b4 0020     		movs	r0, #0
 685 02b6 3070     		strb	r0, [r6]
 686              		.loc 1 2055 0
 687 02b8 7070     		strb	r0, [r6, #1]
 688              		.loc 1 2056 0
 689 02ba FFF7FEFF 		bl	disk_initialize
 690              	.LVL97:
 691              		.loc 1 2057 0
 692 02be C407     		lsls	r4, r0, #31
 693              	.LVL98:
 694 02c0 01D5     		bpl	.L161
 695              		.loc 1 2058 0
 696 02c2 0320     		movs	r0, #3
 697              	.LVL99:
 698 02c4 F8BD     		pop	{r3, r4, r5, r6, r7, pc}
 699              	.LVL100:
 700              	.L161:
 701              		.loc 1 2059 0
 702 02c6 0DB1     		cbz	r5, .L92
 703              		.loc 1 2059 0 is_stmt 0 discriminator 1
 704 02c8 4107     		lsls	r1, r0, #29
 705 02ca F1D4     		bmi	.L93
 706              	.L92:
 707              	.LVL101:
 708              		.loc 1 2066 0 is_stmt 1
 709 02cc 3046     		mov	r0, r6
 710              	.LVL102:
 711 02ce 0021     		movs	r1, #0
 712 02d0 FFF79EFF 		bl	check_fs
 713              	.LVL103:
 714              		.loc 1 2068 0
 715 02d4 0128     		cmp	r0, #1
 716 02d6 0AD0     		beq	.L162
 717              		.loc 1 2066 0
 718 02d8 0024     		movs	r4, #0
 719              	.LVL104:
 720              	.L94:
 721              		.loc 1 2078 0
 722 02da 0328     		cmp	r0, #3
 723 02dc 00F08180 		beq	.L117
 724              		.loc 1 2079 0
 725 02e0 80B1     		cbz	r0, .L163
 726              	.LVL105:
 727              	.L96:
 728 02e2 0D20     		movs	r0, #13
 729 02e4 F8BD     		pop	{r3, r4, r5, r6, r7, pc}
 730              	.LVL106:
 731              	.L113:
 732              		.loc 1 2047 0
 733 02e6 2846     		mov	r0, r5
 734              	.LVL107:
 735 02e8 F8BD     		pop	{r3, r4, r5, r6, r7, pc}
 736              	.LVL108:
 737              	.L114:
 738 02ea 2046     		mov	r0, r4
 739              	.LVL109:
 740 02ec F8BD     		pop	{r3, r4, r5, r6, r7, pc}
ARM GAS  /tmp/ccJyHyK3.s 			page 14


 741              	.LVL110:
 742              	.L162:
 743              		.loc 1 2073 0
 744 02ee 96F8FA31 		ldrb	r3, [r6, #506]	@ zero_extendqisi2
 745 02f2 002B     		cmp	r3, #0
 746 02f4 F5D0     		beq	.L96
 747              		.loc 1 2074 0
 748 02f6 D6F8FE41 		ldr	r4, [r6, #510]
 749              	.LVL111:
 750              		.loc 1 2075 0
 751 02fa 3046     		mov	r0, r6
 752              	.LVL112:
 753 02fc 2146     		mov	r1, r4
 754 02fe FFF787FF 		bl	check_fs
 755              	.LVL113:
 756 0302 EAE7     		b	.L94
 757              	.LVL114:
 758              	.L163:
 759              		.loc 1 2083 0
 760 0304 B6F84330 		ldrh	r3, [r6, #67]
 761 0308 B3F5007F 		cmp	r3, #512
 762 030c E9D1     		bne	.L96
 763              		.loc 1 2086 0
 764 030e B6F84E10 		ldrh	r1, [r6, #78]
 765              	.LVL115:
 766              		.loc 1 2087 0
 767 0312 01B9     		cbnz	r1, .L97
 768              		.loc 1 2087 0 is_stmt 0 discriminator 1
 769 0314 F16D     		ldr	r1, [r6, #92]
 770              	.LVL116:
 771              	.L97:
 772              		.loc 1 2090 0 is_stmt 1
 773 0316 96F84850 		ldrb	r5, [r6, #72]	@ zero_extendqisi2
 774              	.LVL117:
 775              		.loc 1 2088 0
 776 031a 7162     		str	r1, [r6, #36]
 777              		.loc 1 2091 0
 778 031c 6B1E     		subs	r3, r5, #1
 779 031e 012B     		cmp	r3, #1
 780              		.loc 1 2090 0
 781 0320 F570     		strb	r5, [r6, #3]
 782              		.loc 1 2091 0
 783 0322 DED8     		bhi	.L96
 784              		.loc 1 2094 0
 785 0324 96F84530 		ldrb	r3, [r6, #69]	@ zero_extendqisi2
 786 0328 B370     		strb	r3, [r6, #2]
 787              		.loc 1 2092 0
 788 032a 05FB01F5 		mul	r5, r5, r1
 789              	.LVL118:
 790              		.loc 1 2095 0
 791 032e 002B     		cmp	r3, #0
 792 0330 D7D0     		beq	.L96
 793              		.loc 1 2095 0 is_stmt 0 discriminator 2
 794 0332 5A1E     		subs	r2, r3, #1
 795 0334 1A42     		tst	r2, r3
 796 0336 D4D1     		bne	.L96
 797              		.loc 1 2097 0 is_stmt 1
ARM GAS  /tmp/ccJyHyK3.s 			page 15


 798 0338 B6F84900 		ldrh	r0, [r6, #73]
 799              	.LVL119:
 800 033c 3081     		strh	r0, [r6, #8]	@ movhi
 801              		.loc 1 2098 0
 802 033e 0207     		lsls	r2, r0, #28
 803 0340 CFD1     		bne	.L96
 804              		.loc 1 2100 0
 805 0342 B6F84B20 		ldrh	r2, [r6, #75]
 806              	.LVL120:
 807              		.loc 1 2101 0
 808 0346 02B9     		cbnz	r2, .L98
 809              		.loc 1 2101 0 is_stmt 0 discriminator 1
 810 0348 B26D     		ldr	r2, [r6, #88]
 811              	.LVL121:
 812              	.L98:
 813              		.loc 1 2103 0 is_stmt 1
 814 034a B6F846E0 		ldrh	lr, [r6, #70]
 815              	.LVL122:
 816              		.loc 1 2104 0
 817 034e BEF1000F 		cmp	lr, #0
 818 0352 C6D0     		beq	.L96
 819 0354 0EEB101C 		add	ip, lr, r0, lsr #4
 820              		.loc 1 2107 0
 821 0358 AC44     		add	ip, ip, r5
 822              	.LVL123:
 823              		.loc 1 2108 0
 824 035a 6245     		cmp	r2, ip
 825 035c C1D3     		bcc	.L96
 826              		.loc 1 2109 0
 827 035e CCEB0202 		rsb	r2, ip, r2
 828              	.LVL124:
 829 0362 B2FBF3F3 		udiv	r3, r2, r3
 830              	.LVL125:
 831              		.loc 1 2110 0
 832 0366 002B     		cmp	r3, #0
 833 0368 BBD0     		beq	.L96
 834              	.LVL126:
 835              		.loc 1 2112 0
 836 036a 40F6F572 		movw	r2, #4085
 837 036e 9342     		cmp	r3, r2
 838 0370 68D9     		bls	.L99
 839              	.LVL127:
 840              		.loc 1 2113 0
 841 0372 4FF6F572 		movw	r2, #65525
 842 0376 9342     		cmp	r3, r2
 843 0378 4AD9     		bls	.L164
 844              	.LVL128:
 845              		.loc 1 2116 0
 846 037a 0233     		adds	r3, r3, #2
 847              	.LVL129:
 848              		.loc 1 2117 0
 849 037c 0CEB0405 		add	r5, ip, r4
 850              	.LVL130:
 851              		.loc 1 2118 0
 852 0380 04EB0E02 		add	r2, r4, lr
 853              		.loc 1 2116 0
 854 0384 3362     		str	r3, [r6, #32]
ARM GAS  /tmp/ccJyHyK3.s 			page 16


 855              		.loc 1 2117 0
 856 0386 3563     		str	r5, [r6, #48]
 857              		.loc 1 2118 0
 858 0388 B262     		str	r2, [r6, #40]
 859              		.loc 1 2120 0
 860 038a 0028     		cmp	r0, #0
 861 038c A9D1     		bne	.L96
 862              		.loc 1 2122 0
 863 038e 9B00     		lsls	r3, r3, #2
 864              	.LVL131:
 865              		.loc 1 2129 0
 866 0390 03F2FF13 		addw	r3, r3, #511
 867              		.loc 1 2121 0
 868 0394 726E     		ldr	r2, [r6, #100]
 869 0396 F262     		str	r2, [r6, #44]
 870              	.LVL132:
 871              		.loc 1 2129 0
 872 0398 B1EB532F 		cmp	r1, r3, lsr #9
 873 039c A1D3     		bcc	.L96
 874              		.loc 1 2140 0
 875 039e B6F86820 		ldrh	r2, [r6, #104]
 876              		.loc 1 2135 0
 877 03a2 3061     		str	r0, [r6, #16]
 878              		.loc 1 2134 0
 879 03a4 4FF0FF33 		mov	r3, #-1
 880              		.loc 1 2140 0
 881 03a8 2244     		add	r2, r2, r4
 882              		.loc 1 2139 0
 883 03aa 7071     		strb	r0, [r6, #5]
 884              		.loc 1 2134 0
 885 03ac 7361     		str	r3, [r6, #20]
 886              		.loc 1 2140 0
 887 03ae B261     		str	r2, [r6, #24]
 888              		.loc 1 2141 0
 889 03b0 7078     		ldrb	r0, [r6, #1]	@ zero_extendqisi2
 890 03b2 06F13801 		add	r1, r6, #56
 891              	.LVL133:
 892 03b6 0123     		movs	r3, #1
 893 03b8 FFF7FEFF 		bl	disk_read
 894              	.LVL134:
 895 03bc 28B9     		cbnz	r0, .L120
 896              		.loc 1 2141 0 is_stmt 0 discriminator 1
 897 03be B6F83622 		ldrh	r2, [r6, #566]
 898 03c2 4AF65523 		movw	r3, #43605
 899 03c6 9A42     		cmp	r2, r3
 900 03c8 0DD0     		beq	.L165
 901              	.L120:
 902 03ca 0323     		movs	r3, #3
 903              	.LVL135:
 904              	.L103:
 905              		.loc 1 2151 0 is_stmt 1
 906 03cc 3A89     		ldrh	r2, [r7, #8]
 907              		.loc 1 2150 0
 908 03ce 3370     		strb	r3, [r6]
 909              		.loc 1 2152 0
 910 03d0 0020     		movs	r0, #0
 911              		.loc 1 2151 0
ARM GAS  /tmp/ccJyHyK3.s 			page 17


 912 03d2 531C     		adds	r3, r2, #1
 913 03d4 9BB2     		uxth	r3, r3
 914              		.loc 1 2153 0
 915 03d6 3071     		strb	r0, [r6, #4]
 916              		.loc 1 2151 0
 917 03d8 3B81     		strh	r3, [r7, #8]	@ movhi
 918 03da F380     		strh	r3, [r6, #6]	@ movhi
 919              		.loc 1 2152 0
 920 03dc 7063     		str	r0, [r6, #52]
 921              		.loc 1 2155 0
 922 03de F061     		str	r0, [r6, #28]
 923              		.loc 1 2161 0
 924 03e0 F8BD     		pop	{r3, r4, r5, r6, r7, pc}
 925              	.LVL136:
 926              	.L117:
 927              		.loc 1 2078 0
 928 03e2 0120     		movs	r0, #1
 929              	.LVL137:
 930 03e4 F8BD     		pop	{r3, r4, r5, r6, r7, pc}
 931              	.LVL138:
 932              	.L165:
 933              		.loc 1 2142 0
 934 03e6 284B     		ldr	r3, .L166+4
 935 03e8 B26B     		ldr	r2, [r6, #56]
 936 03ea 9A42     		cmp	r2, r3
 937 03ec EDD1     		bne	.L120
 938              		.loc 1 2143 0
 939 03ee 03F1FF53 		add	r3, r3, #534773760
 940 03f2 03F50053 		add	r3, r3, #8192
 941 03f6 D6F81C22 		ldr	r2, [r6, #540]
 942 03fa 2033     		adds	r3, r3, #32
 943 03fc 9A42     		cmp	r2, r3
 944 03fe E4D1     		bne	.L120
 945              		.loc 1 2146 0
 946 0400 D6F82032 		ldr	r3, [r6, #544]
 947              		.loc 1 2145 0
 948 0404 D6F82422 		ldr	r2, [r6, #548]
 949              		.loc 1 2146 0
 950 0408 7361     		str	r3, [r6, #20]
 951              		.loc 1 2145 0
 952 040a 3261     		str	r2, [r6, #16]
 953              		.loc 1 2146 0
 954 040c 0323     		movs	r3, #3
 955 040e DDE7     		b	.L103
 956              	.LVL139:
 957              	.L164:
 958              		.loc 1 2117 0
 959 0410 0CEB0402 		add	r2, ip, r4
 960              		.loc 1 2116 0
 961 0414 0233     		adds	r3, r3, #2
 962              	.LVL140:
 963              		.loc 1 2118 0
 964 0416 7444     		add	r4, r4, lr
 965              	.LVL141:
 966              		.loc 1 2116 0
 967 0418 3362     		str	r3, [r6, #32]
 968              		.loc 1 2117 0
ARM GAS  /tmp/ccJyHyK3.s 			page 18


 969 041a 3263     		str	r2, [r6, #48]
 970              		.loc 1 2118 0
 971 041c B462     		str	r4, [r6, #40]
 972              		.loc 1 2124 0
 973 041e 0028     		cmp	r0, #0
 974 0420 3FF45FAF 		beq	.L96
 975              		.loc 1 2127 0
 976 0424 5B00     		lsls	r3, r3, #1
 977              	.LVL142:
 978              		.loc 1 2129 0
 979 0426 03F2FF13 		addw	r3, r3, #511
 980              		.loc 1 2125 0
 981 042a 2C44     		add	r4, r4, r5
 982              		.loc 1 2129 0
 983 042c B1EB532F 		cmp	r1, r3, lsr #9
 984              		.loc 1 2125 0
 985 0430 F462     		str	r4, [r6, #44]
 986              	.LVL143:
 987              		.loc 1 2129 0
 988 0432 FFF456AF 		bcc	.L96
 989              		.loc 1 2135 0
 990 0436 0023     		movs	r3, #0
 991              		.loc 1 2134 0
 992 0438 4FF0FF32 		mov	r2, #-1
 993              		.loc 1 2135 0
 994 043c 3361     		str	r3, [r6, #16]
 995              		.loc 1 2134 0
 996 043e 7261     		str	r2, [r6, #20]
 997              		.loc 1 2135 0
 998 0440 0223     		movs	r3, #2
 999 0442 C3E7     		b	.L103
 1000              	.LVL144:
 1001              	.L99:
 1002              		.loc 1 2117 0
 1003 0444 0CEB0402 		add	r2, ip, r4
 1004              		.loc 1 2116 0
 1005 0448 0233     		adds	r3, r3, #2
 1006              	.LVL145:
 1007              		.loc 1 2118 0
 1008 044a 7444     		add	r4, r4, lr
 1009              	.LVL146:
 1010              		.loc 1 2116 0
 1011 044c 3362     		str	r3, [r6, #32]
 1012              		.loc 1 2117 0
 1013 044e 3263     		str	r2, [r6, #48]
 1014              		.loc 1 2118 0
 1015 0450 B462     		str	r4, [r6, #40]
 1016              		.loc 1 2124 0
 1017 0452 0028     		cmp	r0, #0
 1018 0454 3FF445AF 		beq	.L96
 1019              		.loc 1 2127 0
 1020 0458 03F00102 		and	r2, r3, #1
 1021 045c 02F2FF12 		addw	r2, r2, #511
 1022 0460 03EB4303 		add	r3, r3, r3, lsl #1
 1023              	.LVL147:
 1024              		.loc 1 2129 0
 1025 0464 02EB5303 		add	r3, r2, r3, lsr #1
ARM GAS  /tmp/ccJyHyK3.s 			page 19


 1026              		.loc 1 2125 0
 1027 0468 2C44     		add	r4, r4, r5
 1028              		.loc 1 2129 0
 1029 046a B1EB532F 		cmp	r1, r3, lsr #9
 1030              		.loc 1 2125 0
 1031 046e F462     		str	r4, [r6, #44]
 1032              	.LVL148:
 1033              		.loc 1 2129 0
 1034 0470 FFF437AF 		bcc	.L96
 1035              		.loc 1 2135 0
 1036 0474 0023     		movs	r3, #0
 1037              		.loc 1 2134 0
 1038 0476 4FF0FF32 		mov	r2, #-1
 1039              		.loc 1 2135 0
 1040 047a 3361     		str	r3, [r6, #16]
 1041              		.loc 1 2134 0
 1042 047c 7261     		str	r2, [r6, #20]
 1043              		.loc 1 2111 0
 1044 047e 0123     		movs	r3, #1
 1045 0480 A4E7     		b	.L103
 1046              	.L167:
 1047 0482 00BF     		.align	2
 1048              	.L166:
 1049 0484 00000000 		.word	.LANCHOR0
 1050 0488 52526141 		.word	1096897106
 1051              		.cfi_endproc
 1052              	.LFE36:
 1053              		.size	chk_mounted, .-chk_mounted
 1054              		.align	2
 1055 048c AFF30080 		.p2align 4,,15
 1056              		.thumb
 1057              		.thumb_func
 1058              		.type	validate, %function
 1059              	validate:
 1060              	.LFB37:
 1061              		.loc 1 2176 0
 1062              		.cfi_startproc
 1063              		@ args = 0, pretend = 0, frame = 0
 1064              		@ frame_needed = 0, uses_anonymous_args = 0
 1065              	.LVL149:
 1066              		.loc 1 2177 0
 1067 0490 08B1     		cbz	r0, .L172
 1068              		.loc 1 2177 0 is_stmt 0 discriminator 1
 1069 0492 0378     		ldrb	r3, [r0]	@ zero_extendqisi2
 1070 0494 0BB9     		cbnz	r3, .L177
 1071              	.L172:
 1072              		.loc 1 2178 0 is_stmt 1
 1073 0496 0920     		movs	r0, #9
 1074              	.LVL150:
 1075 0498 7047     		bx	lr
 1076              	.LVL151:
 1077              	.L177:
 1078              		.loc 1 2177 0 discriminator 2
 1079 049a C388     		ldrh	r3, [r0, #6]
 1080 049c 8B42     		cmp	r3, r1
 1081 049e FAD1     		bne	.L172
 1082              	.LVL152:
ARM GAS  /tmp/ccJyHyK3.s 			page 20


 1083              		.loc 1 2176 0
 1084 04a0 10B5     		push	{r4, lr}
 1085              		.cfi_def_cfa_offset 8
 1086              		.cfi_offset 4, -8
 1087              		.cfi_offset 14, -4
 1088 04a2 0446     		mov	r4, r0
 1089              	.LBB256:
 1090              	.LBB257:
 1091              		.loc 1 582 0
 1092 04a4 C068     		ldr	r0, [r0, #12]
 1093              	.LVL153:
 1094 04a6 FFF7FEFF 		bl	ff_req_grant
 1095              	.LVL154:
 1096              	.LBE257:
 1097              	.LBE256:
 1098              		.loc 1 2180 0
 1099 04aa 08B9     		cbnz	r0, .L178
 1100 04ac 0F20     		movs	r0, #15
 1101              		.loc 1 2186 0
 1102 04ae 10BD     		pop	{r4, pc}
 1103              	.LVL155:
 1104              	.L178:
 1105              	.LBB258:
 1106              	.LBB259:
 1107              		.loc 1 2182 0
 1108 04b0 6078     		ldrb	r0, [r4, #1]	@ zero_extendqisi2
 1109 04b2 FFF7FEFF 		bl	disk_status
 1110              	.LVL156:
 1111 04b6 10F0010F 		tst	r0, #1
 1112              		.loc 1 2185 0
 1113 04ba 14BF     		ite	ne
 1114 04bc 0320     		movne	r0, #3
 1115 04be 0020     		moveq	r0, #0
 1116 04c0 10BD     		pop	{r4, pc}
 1117              	.LBE259:
 1118              	.LBE258:
 1119              		.cfi_endproc
 1120              	.LFE37:
 1121              		.size	validate, .-validate
 1122 04c2 00BF     		.align	2
 1123 04c4 AFF30080 		.p2align 4,,15
 1123      AFF30080 
 1123      AFF30080 
 1124              		.thumb
 1125              		.thumb_func
 1126              		.type	unlock_fs.isra.5.part.6, %function
 1127              	unlock_fs.isra.5.part.6:
 1128              	.LFB65:
 1129              		.loc 1 587 0
 1130              		.cfi_startproc
 1131              		@ args = 0, pretend = 0, frame = 0
 1132              		@ frame_needed = 0, uses_anonymous_args = 0
 1133              		@ link register save eliminated.
 1134              	.LVL157:
 1135              		.loc 1 594 0
 1136 04d0 0F29     		cmp	r1, #15
 1137 04d2 02D0     		beq	.L179
ARM GAS  /tmp/ccJyHyK3.s 			page 21


 1138              		.loc 1 596 0
 1139 04d4 0068     		ldr	r0, [r0]
 1140 04d6 FFF7FEBF 		b	ff_rel_grant
 1141              	.LVL158:
 1142              	.L179:
 1143 04da 7047     		bx	lr
 1144              		.cfi_endproc
 1145              	.LFE65:
 1146              		.size	unlock_fs.isra.5.part.6, .-unlock_fs.isra.5.part.6
 1147              		.align	2
 1148 04dc AFF30080 		.p2align 4,,15
 1149              		.thumb
 1150              		.thumb_func
 1151              		.type	get_fat.part.7, %function
 1152              	get_fat.part.7:
 1153              	.LFB66:
 1154              		.loc 1 819 0
 1155              		.cfi_startproc
 1156              		@ args = 0, pretend = 0, frame = 0
 1157              		@ frame_needed = 0, uses_anonymous_args = 0
 1158              	.LVL159:
 1159 04e0 F8B5     		push	{r3, r4, r5, r6, r7, lr}
 1160              		.cfi_def_cfa_offset 24
 1161              		.cfi_offset 3, -24
 1162              		.cfi_offset 4, -20
 1163              		.cfi_offset 5, -16
 1164              		.cfi_offset 6, -12
 1165              		.cfi_offset 7, -8
 1166              		.cfi_offset 14, -4
 1167              		.loc 1 831 0
 1168 04e2 0378     		ldrb	r3, [r0]	@ zero_extendqisi2
 1169 04e4 022B     		cmp	r3, #2
 1170              		.loc 1 819 0
 1171 04e6 0546     		mov	r5, r0
 1172 04e8 0C46     		mov	r4, r1
 1173              		.loc 1 831 0
 1174 04ea 39D0     		beq	.L183
 1175 04ec 032B     		cmp	r3, #3
 1176 04ee 28D0     		beq	.L184
 1177 04f0 012B     		cmp	r3, #1
 1178 04f2 02D0     		beq	.L192
 1179              	.LVL160:
 1180              	.L190:
 1181              		.loc 1 851 0
 1182 04f4 4FF0FF30 		mov	r0, #-1
 1183              		.loc 1 852 0
 1184 04f8 F8BD     		pop	{r3, r4, r5, r6, r7, pc}
 1185              	.LVL161:
 1186              	.L192:
 1187              		.loc 1 834 0
 1188 04fa 816A     		ldr	r1, [r0, #40]
 1189              	.LVL162:
 1190              		.loc 1 833 0
 1191 04fc 04EB5406 		add	r6, r4, r4, lsr #1
 1192              	.LVL163:
 1193              		.loc 1 834 0
 1194 0500 01EB5621 		add	r1, r1, r6, lsr #9
ARM GAS  /tmp/ccJyHyK3.s 			page 22


 1195 0504 FFF77CFD 		bl	move_window
 1196              	.LVL164:
 1197 0508 0028     		cmp	r0, #0
 1198 050a F3D1     		bne	.L190
 1199              		.loc 1 835 0
 1200 050c C6F30803 		ubfx	r3, r6, #0, #9
 1201              		.loc 1 836 0
 1202 0510 A96A     		ldr	r1, [r5, #40]
 1203              		.loc 1 835 0
 1204 0512 771C     		adds	r7, r6, #1
 1205 0514 2B44     		add	r3, r3, r5
 1206              		.loc 1 836 0
 1207 0516 01EB5721 		add	r1, r1, r7, lsr #9
 1208 051a 2846     		mov	r0, r5
 1209              		.loc 1 835 0
 1210 051c 93F83860 		ldrb	r6, [r3, #56]	@ zero_extendqisi2
 1211              	.LVL165:
 1212              		.loc 1 836 0
 1213 0520 FFF76EFD 		bl	move_window
 1214              	.LVL166:
 1215 0524 0028     		cmp	r0, #0
 1216 0526 E5D1     		bne	.L190
 1217              		.loc 1 837 0
 1218 0528 C7F30807 		ubfx	r7, r7, #0, #9
 1219              	.LVL167:
 1220 052c 3D44     		add	r5, r5, r7
 1221              	.LVL168:
 1222              		.loc 1 838 0
 1223 052e E307     		lsls	r3, r4, #31
 1224              		.loc 1 837 0
 1225 0530 95F83800 		ldrb	r0, [r5, #56]	@ zero_extendqisi2
 1226 0534 46EA0020 		orr	r0, r6, r0, lsl #8
 1227              	.LVL169:
 1228              		.loc 1 838 0
 1229 0538 4CBF     		ite	mi
 1230 053a 0009     		lsrmi	r0, r0, #4
 1231              	.LVL170:
 1232 053c C0F30B00 		ubfxpl	r0, r0, #0, #12
 1233 0540 F8BD     		pop	{r3, r4, r5, r6, r7, pc}
 1234              	.LVL171:
 1235              	.L184:
 1236              		.loc 1 846 0
 1237 0542 816A     		ldr	r1, [r0, #40]
 1238              	.LVL172:
 1239 0544 01EBD411 		add	r1, r1, r4, lsr #7
 1240 0548 FFF75AFD 		bl	move_window
 1241              	.LVL173:
 1242 054c 0028     		cmp	r0, #0
 1243 054e D1D1     		bne	.L190
 1244              	.LVL174:
 1245              		.loc 1 847 0
 1246 0550 A400     		lsls	r4, r4, #2
 1247              	.LVL175:
 1248 0552 04F4FE74 		and	r4, r4, #508
 1249 0556 3834     		adds	r4, r4, #56
 1250              		.loc 1 848 0
 1251 0558 2859     		ldr	r0, [r5, r4]
ARM GAS  /tmp/ccJyHyK3.s 			page 23


 1252 055a 20F07040 		bic	r0, r0, #-268435456
 1253 055e F8BD     		pop	{r3, r4, r5, r6, r7, pc}
 1254              	.LVL176:
 1255              	.L183:
 1256              		.loc 1 841 0
 1257 0560 816A     		ldr	r1, [r0, #40]
 1258              	.LVL177:
 1259 0562 01EB1421 		add	r1, r1, r4, lsr #8
 1260 0566 FFF74BFD 		bl	move_window
 1261              	.LVL178:
 1262 056a 0028     		cmp	r0, #0
 1263 056c C2D1     		bne	.L190
 1264              	.LVL179:
 1265              		.loc 1 842 0
 1266 056e 6400     		lsls	r4, r4, #1
 1267              	.LVL180:
 1268 0570 04F4FF74 		and	r4, r4, #510
 1269 0574 3834     		adds	r4, r4, #56
 1270              		.loc 1 843 0
 1271 0576 285B     		ldrh	r0, [r5, r4]
 1272 0578 F8BD     		pop	{r3, r4, r5, r6, r7, pc}
 1273              		.cfi_endproc
 1274              	.LFE66:
 1275              		.size	get_fat.part.7, .-get_fat.part.7
 1276 057a 00BF     		.align	2
 1277 057c AFF30080 		.p2align 4,,15
 1278              		.thumb
 1279              		.thumb_func
 1280              		.type	dir_sdi, %function
 1281              	dir_sdi:
 1282              	.LFB21:
 1283              		.loc 1 1069 0
 1284              		.cfi_startproc
 1285              		@ args = 0, pretend = 0, frame = 0
 1286              		@ frame_needed = 0, uses_anonymous_args = 0
 1287              	.LVL181:
 1288 0580 70B5     		push	{r4, r5, r6, lr}
 1289              		.cfi_def_cfa_offset 16
 1290              		.cfi_offset 4, -16
 1291              		.cfi_offset 5, -12
 1292              		.cfi_offset 6, -8
 1293              		.cfi_offset 14, -4
 1294              		.loc 1 1069 0
 1295 0582 0D46     		mov	r5, r1
 1296              		.loc 1 1075 0
 1297 0584 8168     		ldr	r1, [r0, #8]
 1298              	.LVL182:
 1299              		.loc 1 1074 0
 1300 0586 C580     		strh	r5, [r0, #6]	@ movhi
 1301              		.loc 1 1076 0
 1302 0588 0129     		cmp	r1, #1
 1303              		.loc 1 1069 0
 1304 058a 0446     		mov	r4, r0
 1305              		.loc 1 1076 0
 1306 058c 03D0     		beq	.L196
 1307              		.loc 1 1076 0 is_stmt 0 discriminator 1
 1308 058e 0068     		ldr	r0, [r0]
ARM GAS  /tmp/ccJyHyK3.s 			page 24


 1309              	.LVL183:
 1310 0590 036A     		ldr	r3, [r0, #32]
 1311 0592 9942     		cmp	r1, r3
 1312 0594 01D3     		bcc	.L208
 1313              	.LVL184:
 1314              	.L196:
 1315              		.loc 1 1077 0 is_stmt 1
 1316 0596 0220     		movs	r0, #2
 1317 0598 70BD     		pop	{r4, r5, r6, pc}
 1318              	.LVL185:
 1319              	.L208:
 1320              		.loc 1 1078 0
 1321 059a B1B9     		cbnz	r1, .L197
 1322              		.loc 1 1078 0 is_stmt 0 discriminator 1
 1323 059c 0278     		ldrb	r2, [r0]	@ zero_extendqisi2
 1324 059e 032A     		cmp	r2, #3
 1325 05a0 10D0     		beq	.L209
 1326              	.L198:
 1327              	.LVL186:
 1328              		.loc 1 1083 0 is_stmt 1
 1329 05a2 0389     		ldrh	r3, [r0, #8]
 1330              		.loc 1 1082 0
 1331 05a4 0022     		movs	r2, #0
 1332              		.loc 1 1083 0
 1333 05a6 AB42     		cmp	r3, r5
 1334              		.loc 1 1082 0
 1335 05a8 E260     		str	r2, [r4, #12]
 1336              		.loc 1 1083 0
 1337 05aa F4D9     		bls	.L196
 1338              		.loc 1 1085 0
 1339 05ac C36A     		ldr	r3, [r0, #44]
 1340 05ae 03EB1513 		add	r3, r3, r5, lsr #4
 1341 05b2 2361     		str	r3, [r4, #16]
 1342              	.LVL187:
 1343              	.L199:
 1344              		.loc 1 1100 0
 1345 05b4 05F00F05 		and	r5, r5, #15
 1346              	.LVL188:
 1347 05b8 00EB4510 		add	r0, r0, r5, lsl #5
 1348 05bc 3830     		adds	r0, r0, #56
 1349 05be 6061     		str	r0, [r4, #20]
 1350              		.loc 1 1102 0
 1351 05c0 0020     		movs	r0, #0
 1352 05c2 70BD     		pop	{r4, r5, r6, pc}
 1353              	.LVL189:
 1354              	.L209:
 1355              		.loc 1 1079 0
 1356 05c4 C16A     		ldr	r1, [r0, #44]
 1357              	.LVL190:
 1358              		.loc 1 1081 0
 1359 05c6 0029     		cmp	r1, #0
 1360 05c8 EBD0     		beq	.L198
 1361              	.L197:
 1362              		.loc 1 1088 0
 1363 05ca 8678     		ldrb	r6, [r0, #2]	@ zero_extendqisi2
 1364 05cc 3601     		lsls	r6, r6, #4
 1365              	.LVL191:
ARM GAS  /tmp/ccJyHyK3.s 			page 25


 1366              		.loc 1 1089 0
 1367 05ce B542     		cmp	r5, r6
 1368 05d0 0FD2     		bcs	.L201
 1369 05d2 15E0     		b	.L200
 1370              	.LVL192:
 1371              	.L210:
 1372              	.LBB260:
 1373              	.LBB261:
 1374 05d4 FFF784FF 		bl	get_fat.part.7
 1375              	.LVL193:
 1376              	.LBE261:
 1377              	.LBE260:
 1378              		.loc 1 1094 0
 1379 05d8 AD1B     		subs	r5, r5, r6
 1380              	.LVL194:
 1381              		.loc 1 1091 0
 1382 05da 431C     		adds	r3, r0, #1
 1383              	.LBB264:
 1384              	.LBB262:
 1385 05dc 0146     		mov	r1, r0
 1386              	.LBE262:
 1387              	.LBE264:
 1388              		.loc 1 1094 0
 1389 05de ADB2     		uxth	r5, r5
 1390              	.LVL195:
 1391              		.loc 1 1091 0
 1392 05e0 1CD0     		beq	.L203
 1393              		.loc 1 1092 0
 1394 05e2 0128     		cmp	r0, #1
 1395 05e4 D7D9     		bls	.L196
 1396              		.loc 1 1092 0 is_stmt 0 discriminator 1
 1397 05e6 2068     		ldr	r0, [r4]
 1398              	.LVL196:
 1399 05e8 036A     		ldr	r3, [r0, #32]
 1400 05ea 8B42     		cmp	r3, r1
 1401 05ec D3D9     		bls	.L196
 1402              		.loc 1 1089 0 is_stmt 1
 1403 05ee AE42     		cmp	r6, r5
 1404 05f0 06D8     		bhi	.L200
 1405              	.L201:
 1406              	.LVL197:
 1407              	.LBB265:
 1408              	.LBB263:
 1409              		.loc 1 828 0
 1410 05f2 0129     		cmp	r1, #1
 1411 05f4 CFD9     		bls	.L196
 1412 05f6 036A     		ldr	r3, [r0, #32]
 1413 05f8 8B42     		cmp	r3, r1
 1414 05fa EBD8     		bhi	.L210
 1415              	.LBE263:
 1416              	.LBE265:
 1417              		.loc 1 1077 0
 1418 05fc 0220     		movs	r0, #2
 1419              	.LVL198:
 1420 05fe 70BD     		pop	{r4, r5, r6, pc}
 1421              	.LVL199:
 1422              	.L200:
ARM GAS  /tmp/ccJyHyK3.s 			page 26


 1423              	.LBB266:
 1424              	.LBB267:
 1425              		.loc 1 806 0
 1426 0600 8A1E     		subs	r2, r1, #2
 1427              		.loc 1 807 0
 1428 0602 023B     		subs	r3, r3, #2
 1429 0604 9A42     		cmp	r2, r3
 1430              	.LBE267:
 1431              	.LBE266:
 1432              		.loc 1 1096 0
 1433 0606 E160     		str	r1, [r4, #12]
 1434              	.LVL200:
 1435              	.LBB269:
 1436              	.LBB268:
 1437              		.loc 1 808 0
 1438 0608 3BBF     		ittet	cc
 1439 060a 8178     		ldrbcc	r1, [r0, #2]	@ zero_extendqisi2
 1440              	.LVL201:
 1441 060c 036B     		ldrcc	r3, [r0, #48]
 1442              		.loc 1 807 0
 1443 060e 0022     		movcs	r2, #0
 1444              	.LVL202:
 1445              		.loc 1 808 0
 1446 0610 01FB0232 		mlacc	r2, r1, r2, r3
 1447              	.LBE268:
 1448              	.LBE269:
 1449              		.loc 1 1097 0
 1450 0614 02EB1512 		add	r2, r2, r5, lsr #4
 1451 0618 2261     		str	r2, [r4, #16]
 1452 061a CBE7     		b	.L199
 1453              	.LVL203:
 1454              	.L203:
 1455              		.loc 1 1091 0
 1456 061c 0120     		movs	r0, #1
 1457              	.LVL204:
 1458              		.loc 1 1103 0
 1459 061e 70BD     		pop	{r4, r5, r6, pc}
 1460              		.cfi_endproc
 1461              	.LFE21:
 1462              		.size	dir_sdi, .-dir_sdi
 1463              		.align	2
 1464              		.p2align 4,,15
 1465              		.thumb
 1466              		.thumb_func
 1467              		.type	put_fat.part.8, %function
 1468              	put_fat.part.8:
 1469              	.LFB67:
 1470              		.loc 1 862 0
 1471              		.cfi_startproc
 1472              		@ args = 0, pretend = 0, frame = 0
 1473              		@ frame_needed = 0, uses_anonymous_args = 0
 1474              	.LVL205:
 1475 0620 2DE9F843 		push	{r3, r4, r5, r6, r7, r8, r9, lr}
 1476              		.cfi_def_cfa_offset 32
 1477              		.cfi_offset 3, -32
 1478              		.cfi_offset 4, -28
 1479              		.cfi_offset 5, -24
ARM GAS  /tmp/ccJyHyK3.s 			page 27


 1480              		.cfi_offset 6, -20
 1481              		.cfi_offset 7, -16
 1482              		.cfi_offset 8, -12
 1483              		.cfi_offset 9, -8
 1484              		.cfi_offset 14, -4
 1485              		.loc 1 877 0
 1486 0624 0778     		ldrb	r7, [r0]	@ zero_extendqisi2
 1487 0626 022F     		cmp	r7, #2
 1488              		.loc 1 862 0
 1489 0628 0446     		mov	r4, r0
 1490 062a 0D46     		mov	r5, r1
 1491 062c 1646     		mov	r6, r2
 1492              		.loc 1 877 0
 1493 062e 45D0     		beq	.L213
 1494 0630 032F     		cmp	r7, #3
 1495 0632 2DD0     		beq	.L214
 1496 0634 012F     		cmp	r7, #1
 1497 0636 06D0     		beq	.L230
 1498              		.loc 1 908 0
 1499 0638 4FF00208 		mov	r8, #2
 1500              	.LVL206:
 1501              	.L212:
 1502              		.loc 1 910 0
 1503 063c 0123     		movs	r3, #1
 1504 063e 2371     		strb	r3, [r4, #4]
 1505              		.loc 1 914 0
 1506 0640 4046     		mov	r0, r8
 1507 0642 BDE8F883 		pop	{r3, r4, r5, r6, r7, r8, r9, pc}
 1508              	.LVL207:
 1509              	.L230:
 1510              		.loc 1 880 0
 1511 0646 816A     		ldr	r1, [r0, #40]
 1512              	.LVL208:
 1513              		.loc 1 879 0
 1514 0648 05EB5509 		add	r9, r5, r5, lsr #1
 1515              	.LVL209:
 1516              		.loc 1 880 0
 1517 064c 01EB5921 		add	r1, r1, r9, lsr #9
 1518 0650 FFF7D6FC 		bl	move_window
 1519              	.LVL210:
 1520              		.loc 1 881 0
 1521 0654 8046     		mov	r8, r0
 1522 0656 0028     		cmp	r0, #0
 1523 0658 F0D1     		bne	.L212
 1524              		.loc 1 882 0
 1525 065a C9F30803 		ubfx	r3, r9, #0, #9
 1526              	.LVL211:
 1527              		.loc 1 883 0
 1528 065e EA07     		lsls	r2, r5, #31
 1529 0660 2344     		add	r3, r3, r4
 1530              	.LVL212:
 1531 0662 3DD5     		bpl	.L216
 1532 0664 93F83800 		ldrb	r0, [r3, #56]	@ zero_extendqisi2
 1533              	.LVL213:
 1534              		.loc 1 886 0
 1535 0668 A16A     		ldr	r1, [r4, #40]
 1536              		.loc 1 883 0
ARM GAS  /tmp/ccJyHyK3.s 			page 28


 1537 066a 00F00F00 		and	r0, r0, #15
 1538 066e F2B2     		uxtb	r2, r6
 1539 0670 40EA0212 		orr	r2, r0, r2, lsl #4
 1540              		.loc 1 884 0
 1541 0674 09F10109 		add	r9, r9, #1
 1542              	.LVL214:
 1543              		.loc 1 883 0
 1544 0678 83F83820 		strb	r2, [r3, #56]
 1545              		.loc 1 886 0
 1546 067c 01EB5921 		add	r1, r1, r9, lsr #9
 1547              		.loc 1 885 0
 1548 0680 2771     		strb	r7, [r4, #4]
 1549              		.loc 1 886 0
 1550 0682 2046     		mov	r0, r4
 1551 0684 FFF7BCFC 		bl	move_window
 1552              	.LVL215:
 1553              		.loc 1 887 0
 1554 0688 0028     		cmp	r0, #0
 1555 068a 43D0     		beq	.L231
 1556              	.LVL216:
 1557              	.L222:
 1558 068c 8046     		mov	r8, r0
 1559 068e D5E7     		b	.L212
 1560              	.LVL217:
 1561              	.L214:
 1562              		.loc 1 900 0
 1563 0690 816A     		ldr	r1, [r0, #40]
 1564              	.LVL218:
 1565 0692 01EBD511 		add	r1, r1, r5, lsr #7
 1566 0696 FFF7B3FC 		bl	move_window
 1567              	.LVL219:
 1568              		.loc 1 901 0
 1569 069a 8046     		mov	r8, r0
 1570 069c 0028     		cmp	r0, #0
 1571 069e CDD1     		bne	.L212
 1572              		.loc 1 902 0
 1573 06a0 AD00     		lsls	r5, r5, #2
 1574              	.LVL220:
 1575 06a2 05F4FE75 		and	r5, r5, #508
 1576 06a6 3835     		adds	r5, r5, #56
 1577              	.LVL221:
 1578              		.loc 1 914 0
 1579 06a8 4046     		mov	r0, r8
 1580              	.LVL222:
 1581              		.loc 1 903 0
 1582 06aa 6359     		ldr	r3, [r4, r5]
 1583 06ac 03F07043 		and	r3, r3, #-268435456
 1584 06b0 1E43     		orrs	r6, r6, r3
 1585              	.LVL223:
 1586              		.loc 1 910 0
 1587 06b2 0123     		movs	r3, #1
 1588              		.loc 1 904 0
 1589 06b4 6651     		str	r6, [r4, r5]
 1590              	.LVL224:
 1591              		.loc 1 910 0
 1592 06b6 2371     		strb	r3, [r4, #4]
 1593              		.loc 1 914 0
ARM GAS  /tmp/ccJyHyK3.s 			page 29


 1594 06b8 BDE8F883 		pop	{r3, r4, r5, r6, r7, r8, r9, pc}
 1595              	.LVL225:
 1596              	.L213:
 1597              		.loc 1 893 0
 1598 06bc 816A     		ldr	r1, [r0, #40]
 1599              	.LVL226:
 1600 06be 01EB1521 		add	r1, r1, r5, lsr #8
 1601 06c2 FFF79DFC 		bl	move_window
 1602              	.LVL227:
 1603              		.loc 1 894 0
 1604 06c6 8046     		mov	r8, r0
 1605 06c8 0028     		cmp	r0, #0
 1606 06ca B7D1     		bne	.L212
 1607              	.LVL228:
 1608              		.loc 1 895 0
 1609 06cc 6D00     		lsls	r5, r5, #1
 1610              	.LVL229:
 1611 06ce 05F4FF75 		and	r5, r5, #510
 1612 06d2 3835     		adds	r5, r5, #56
 1613              		.loc 1 910 0
 1614 06d4 0123     		movs	r3, #1
 1615              		.loc 1 896 0
 1616 06d6 6653     		strh	r6, [r4, r5]	@ movhi
 1617              	.LVL230:
 1618              		.loc 1 910 0
 1619 06d8 2371     		strb	r3, [r4, #4]
 1620              		.loc 1 914 0
 1621 06da 4046     		mov	r0, r8
 1622 06dc BDE8F883 		pop	{r3, r4, r5, r6, r7, r8, r9, pc}
 1623              	.LVL231:
 1624              	.L216:
 1625              		.loc 1 886 0
 1626 06e0 A16A     		ldr	r1, [r4, #40]
 1627              		.loc 1 883 0
 1628 06e2 83F83860 		strb	r6, [r3, #56]
 1629              		.loc 1 884 0
 1630 06e6 09F10109 		add	r9, r9, #1
 1631              	.LVL232:
 1632              		.loc 1 885 0
 1633 06ea 2771     		strb	r7, [r4, #4]
 1634              		.loc 1 886 0
 1635 06ec 01EB5921 		add	r1, r1, r9, lsr #9
 1636 06f0 2046     		mov	r0, r4
 1637              	.LVL233:
 1638 06f2 FFF785FC 		bl	move_window
 1639              	.LVL234:
 1640              		.loc 1 887 0
 1641 06f6 0028     		cmp	r0, #0
 1642 06f8 C8D1     		bne	.L222
 1643              		.loc 1 888 0
 1644 06fa C9F30809 		ubfx	r9, r9, #0, #9
 1645              	.LVL235:
 1646              		.loc 1 889 0
 1647 06fe A144     		add	r9, r9, r4
 1648              	.LVL236:
 1649 0700 C6F30326 		ubfx	r6, r6, #8, #4
 1650              	.LVL237:
ARM GAS  /tmp/ccJyHyK3.s 			page 30


 1651 0704 99F83830 		ldrb	r3, [r9, #56]	@ zero_extendqisi2
 1652 0708 23F00F03 		bic	r3, r3, #15
 1653 070c 1E43     		orrs	r6, r6, r3
 1654              	.LVL238:
 1655              	.L219:
 1656 070e 89F83860 		strb	r6, [r9, #56]
 1657 0712 93E7     		b	.L212
 1658              	.LVL239:
 1659              	.L231:
 1660              		.loc 1 888 0
 1661 0714 C9F30809 		ubfx	r9, r9, #0, #9
 1662              	.LVL240:
 1663 0718 A144     		add	r9, r9, r4
 1664              	.LVL241:
 1665              		.loc 1 889 0
 1666 071a C6F30716 		ubfx	r6, r6, #4, #8
 1667              	.LVL242:
 1668 071e F6E7     		b	.L219
 1669              		.cfi_endproc
 1670              	.LFE67:
 1671              		.size	put_fat.part.8, .-put_fat.part.8
 1672              		.align	2
 1673              		.p2align 4,,15
 1674              		.thumb
 1675              		.thumb_func
 1676              		.type	create_chain, %function
 1677              	create_chain:
 1678              	.LFB19:
 1679              		.loc 1 982 0
 1680              		.cfi_startproc
 1681              		@ args = 0, pretend = 0, frame = 0
 1682              		@ frame_needed = 0, uses_anonymous_args = 0
 1683              	.LVL243:
 1684 0720 F8B5     		push	{r3, r4, r5, r6, r7, lr}
 1685              		.cfi_def_cfa_offset 24
 1686              		.cfi_offset 3, -24
 1687              		.cfi_offset 4, -20
 1688              		.cfi_offset 5, -16
 1689              		.cfi_offset 6, -12
 1690              		.cfi_offset 7, -8
 1691              		.cfi_offset 14, -4
 1692              		.loc 1 982 0
 1693 0722 0546     		mov	r5, r0
 1694              		.loc 1 987 0
 1695 0724 0F46     		mov	r7, r1
 1696 0726 E9B9     		cbnz	r1, .L233
 1697              		.loc 1 988 0
 1698 0728 0669     		ldr	r6, [r0, #16]
 1699              	.LVL244:
 1700 072a 036A     		ldr	r3, [r0, #32]
 1701              		.loc 1 989 0
 1702 072c 46BB     		cbnz	r6, .L234
 1703 072e 0126     		movs	r6, #1
 1704              	.LVL245:
 1705              	.L235:
 1706 0730 3446     		mov	r4, r6
 1707 0732 0FE0     		b	.L247
ARM GAS  /tmp/ccJyHyK3.s 			page 31


 1708              	.LVL246:
 1709              	.L268:
 1710              		.loc 1 1003 0
 1711 0734 012E     		cmp	r6, #1
 1712 0736 2CD9     		bls	.L246
 1713              	.LBB270:
 1714              	.LBB271:
 1715              		.loc 1 828 0
 1716 0738 022B     		cmp	r3, #2
 1717 073a 11D9     		bls	.L262
 1718              	.LBE271:
 1719              	.LBE270:
 1720              		.loc 1 1002 0
 1721 073c 0224     		movs	r4, #2
 1722              	.LVL247:
 1723              	.L241:
 1724              	.LBB275:
 1725              	.LBB272:
 1726 073e 2146     		mov	r1, r4
 1727 0740 FFF7CEFE 		bl	get_fat.part.7
 1728              	.LVL248:
 1729              	.LBE272:
 1730              	.LBE275:
 1731              		.loc 1 1006 0
 1732 0744 38B3     		cbz	r0, .L244
 1733              		.loc 1 1007 0
 1734 0746 411C     		adds	r1, r0, #1
 1735 0748 22D0     		beq	.L258
 1736              		.loc 1 1007 0 is_stmt 0 discriminator 1
 1737 074a 0128     		cmp	r0, #1
 1738 074c 08D0     		beq	.L262
 1739              		.loc 1 1009 0 is_stmt 1
 1740 074e A642     		cmp	r6, r4
 1741 0750 1FD0     		beq	.L246
 1742 0752 2B6A     		ldr	r3, [r5, #32]
 1743              	.LVL249:
 1744              	.L247:
 1745              		.loc 1 1000 0
 1746 0754 0134     		adds	r4, r4, #1
 1747              	.LVL250:
 1748              		.loc 1 1001 0
 1749 0756 9C42     		cmp	r4, r3
 1750              	.LBB276:
 1751              	.LBB273:
 1752 0758 2846     		mov	r0, r5
 1753              	.LBE273:
 1754              	.LBE276:
 1755 075a EBD2     		bcs	.L268
 1756              	.LVL251:
 1757              	.LBB277:
 1758              	.LBB274:
 1759              		.loc 1 828 0
 1760 075c 012C     		cmp	r4, #1
 1761 075e EED8     		bhi	.L241
 1762              	.LVL252:
 1763              	.L262:
 1764              	.LBE274:
ARM GAS  /tmp/ccJyHyK3.s 			page 32


 1765              	.LBE277:
 1766              		.loc 1 1023 0
 1767 0760 0120     		movs	r0, #1
 1768 0762 F8BD     		pop	{r3, r4, r5, r6, r7, pc}
 1769              	.LVL253:
 1770              	.L233:
 1771              	.LBB278:
 1772              	.LBB279:
 1773              		.loc 1 828 0
 1774 0764 0129     		cmp	r1, #1
 1775 0766 FBD9     		bls	.L262
 1776 0768 036A     		ldr	r3, [r0, #32]
 1777 076a 9942     		cmp	r1, r3
 1778 076c F8D2     		bcs	.L262
 1779 076e FFF7B7FE 		bl	get_fat.part.7
 1780              	.LVL254:
 1781              	.LBE279:
 1782              	.LBE278:
 1783              		.loc 1 993 0
 1784 0772 0128     		cmp	r0, #1
 1785 0774 F4D9     		bls	.L262
 1786              		.loc 1 994 0
 1787 0776 2B6A     		ldr	r3, [r5, #32]
 1788 0778 8342     		cmp	r3, r0
 1789 077a 09D8     		bhi	.L258
 1790 077c 3E46     		mov	r6, r7
 1791 077e D7E7     		b	.L235
 1792              	.LVL255:
 1793              	.L234:
 1794              		.loc 1 989 0 discriminator 2
 1795 0780 9E42     		cmp	r6, r3
 1796 0782 28BF     		it	cs
 1797 0784 0126     		movcs	r6, #1
 1798              	.LVL256:
 1799 0786 D3E7     		b	.L235
 1800              	.LVL257:
 1801              	.L253:
 1802              		.loc 1 1023 0
 1803 0788 0128     		cmp	r0, #1
 1804 078a E9D1     		bne	.L262
 1805 078c 4FF0FF30 		mov	r0, #-1
 1806              	.LVL258:
 1807              	.L258:
 1808              		.loc 1 1027 0
 1809 0790 F8BD     		pop	{r3, r4, r5, r6, r7, pc}
 1810              	.LVL259:
 1811              	.L246:
 1812              		.loc 1 1003 0
 1813 0792 0020     		movs	r0, #0
 1814 0794 F8BD     		pop	{r3, r4, r5, r6, r7, pc}
 1815              	.LVL260:
 1816              	.L244:
 1817              	.LBB280:
 1818              	.LBB281:
 1819              		.loc 1 873 0
 1820 0796 2B6A     		ldr	r3, [r5, #32]
 1821 0798 A342     		cmp	r3, r4
ARM GAS  /tmp/ccJyHyK3.s 			page 33


 1822 079a E1D9     		bls	.L262
 1823 079c 2846     		mov	r0, r5
 1824 079e 2146     		mov	r1, r4
 1825 07a0 6FF07042 		mvn	r2, #-268435456
 1826 07a4 FFF73CFF 		bl	put_fat.part.8
 1827              	.LVL261:
 1828              	.LBE281:
 1829              	.LBE280:
 1830              		.loc 1 1013 0
 1831 07a8 0028     		cmp	r0, #0
 1832 07aa EDD1     		bne	.L253
 1833              		.loc 1 1013 0 is_stmt 0 discriminator 1
 1834 07ac 5FB1     		cbz	r7, .L252
 1835              	.LVL262:
 1836              	.LBB282:
 1837              	.LBB283:
 1838              		.loc 1 873 0 is_stmt 1
 1839 07ae 012F     		cmp	r7, #1
 1840 07b0 D6D9     		bls	.L262
 1841 07b2 2B6A     		ldr	r3, [r5, #32]
 1842 07b4 9F42     		cmp	r7, r3
 1843 07b6 D3D2     		bcs	.L262
 1844 07b8 3946     		mov	r1, r7
 1845 07ba 2846     		mov	r0, r5
 1846              	.LVL263:
 1847 07bc 2246     		mov	r2, r4
 1848 07be FFF72FFF 		bl	put_fat.part.8
 1849              	.LVL264:
 1850              	.LBE283:
 1851              	.LBE282:
 1852              		.loc 1 1016 0
 1853 07c2 0028     		cmp	r0, #0
 1854 07c4 E0D1     		bne	.L253
 1855              	.LVL265:
 1856              	.L252:
 1857              		.loc 1 1018 0
 1858 07c6 6B69     		ldr	r3, [r5, #20]
 1859              		.loc 1 1017 0
 1860 07c8 2C61     		str	r4, [r5, #16]
 1861              		.loc 1 1018 0
 1862 07ca 5A1C     		adds	r2, r3, #1
 1863 07cc 05D0     		beq	.L269
 1864              		.loc 1 1020 0
 1865 07ce 0122     		movs	r2, #1
 1866              		.loc 1 1019 0
 1867 07d0 013B     		subs	r3, r3, #1
 1868              		.loc 1 1020 0
 1869 07d2 6A71     		strb	r2, [r5, #5]
 1870              		.loc 1 1019 0
 1871 07d4 6B61     		str	r3, [r5, #20]
 1872              		.loc 1 1020 0
 1873 07d6 2046     		mov	r0, r4
 1874 07d8 F8BD     		pop	{r3, r4, r5, r6, r7, pc}
 1875              	.LVL266:
 1876              	.L269:
 1877 07da 2046     		mov	r0, r4
 1878 07dc F8BD     		pop	{r3, r4, r5, r6, r7, pc}
ARM GAS  /tmp/ccJyHyK3.s 			page 34


 1879              		.cfi_endproc
 1880              	.LFE19:
 1881              		.size	create_chain, .-create_chain
 1882 07de 00BF     		.align	2
 1883              		.p2align 4,,15
 1884              		.thumb
 1885              		.thumb_func
 1886              		.type	dir_next, %function
 1887              	dir_next:
 1888              	.LFB22:
 1889              		.loc 1 1117 0
 1890              		.cfi_startproc
 1891              		@ args = 0, pretend = 0, frame = 0
 1892              		@ frame_needed = 0, uses_anonymous_args = 0
 1893              	.LVL267:
 1894 07e0 2DE9F047 		push	{r4, r5, r6, r7, r8, r9, r10, lr}
 1895              		.cfi_def_cfa_offset 32
 1896              		.cfi_offset 4, -32
 1897              		.cfi_offset 5, -28
 1898              		.cfi_offset 6, -24
 1899              		.cfi_offset 7, -20
 1900              		.cfi_offset 8, -16
 1901              		.cfi_offset 9, -12
 1902              		.cfi_offset 10, -8
 1903              		.cfi_offset 14, -4
 1904              		.loc 1 1123 0
 1905 07e4 C488     		ldrh	r4, [r0, #6]
 1906 07e6 0134     		adds	r4, r4, #1
 1907 07e8 A4B2     		uxth	r4, r4
 1908              	.LVL268:
 1909              		.loc 1 1124 0
 1910 07ea 14B9     		cbnz	r4, .L271
 1911              	.LVL269:
 1912              	.L273:
 1913              		.loc 1 1125 0
 1914 07ec 0420     		movs	r0, #4
 1915 07ee BDE8F087 		pop	{r4, r5, r6, r7, r8, r9, r10, pc}
 1916              	.LVL270:
 1917              	.L271:
 1918              		.loc 1 1124 0 discriminator 1
 1919 07f2 0369     		ldr	r3, [r0, #16]
 1920 07f4 002B     		cmp	r3, #0
 1921 07f6 F9D0     		beq	.L273
 1922              		.loc 1 1127 0
 1923 07f8 14F00F07 		ands	r7, r4, #15
 1924 07fc 0E46     		mov	r6, r1
 1925 07fe 0546     		mov	r5, r0
 1926 0800 08D0     		beq	.L274
 1927 0802 0068     		ldr	r0, [r0]
 1928              	.LVL271:
 1929              	.L275:
 1930              		.loc 1 1167 0
 1931 0804 EC80     		strh	r4, [r5, #6]	@ movhi
 1932              		.loc 1 1168 0
 1933 0806 00EB4710 		add	r0, r0, r7, lsl #5
 1934 080a 3830     		adds	r0, r0, #56
 1935 080c 6861     		str	r0, [r5, #20]
ARM GAS  /tmp/ccJyHyK3.s 			page 35


 1936              		.loc 1 1170 0
 1937 080e 0020     		movs	r0, #0
 1938 0810 BDE8F087 		pop	{r4, r5, r6, r7, r8, r9, r10, pc}
 1939              	.LVL272:
 1940              	.L274:
 1941              		.loc 1 1130 0
 1942 0814 C168     		ldr	r1, [r0, #12]
 1943              	.LVL273:
 1944              		.loc 1 1128 0
 1945 0816 0133     		adds	r3, r3, #1
 1946 0818 0361     		str	r3, [r0, #16]
 1947              		.loc 1 1131 0
 1948 081a 0068     		ldr	r0, [r0]
 1949              	.LVL274:
 1950              		.loc 1 1130 0
 1951 081c 61B1     		cbz	r1, .L306
 1952              		.loc 1 1135 0
 1953 081e 8378     		ldrb	r3, [r0, #2]	@ zero_extendqisi2
 1954 0820 013B     		subs	r3, r3, #1
 1955 0822 13EA1413 		ands	r3, r3, r4, lsr #4
 1956 0826 EDD1     		bne	.L275
 1957              	.LVL275:
 1958              	.LBB284:
 1959              	.LBB285:
 1960              		.loc 1 828 0
 1961 0828 0129     		cmp	r1, #1
 1962 082a 02D9     		bls	.L278
 1963 082c 036A     		ldr	r3, [r0, #32]
 1964 082e 9942     		cmp	r1, r3
 1965 0830 06D3     		bcc	.L307
 1966              	.LVL276:
 1967              	.L278:
 1968              	.LBE285:
 1969              	.LBE284:
 1970              		.loc 1 1137 0
 1971 0832 0220     		movs	r0, #2
 1972 0834 BDE8F087 		pop	{r4, r5, r6, r7, r8, r9, r10, pc}
 1973              	.LVL277:
 1974              	.L306:
 1975              		.loc 1 1131 0
 1976 0838 0389     		ldrh	r3, [r0, #8]
 1977 083a A342     		cmp	r3, r4
 1978 083c D6D9     		bls	.L273
 1979 083e E1E7     		b	.L275
 1980              	.LVL278:
 1981              	.L307:
 1982              	.LBB288:
 1983              	.LBB286:
 1984 0840 FFF74EFE 		bl	get_fat.part.7
 1985              	.LVL279:
 1986              	.LBE286:
 1987              	.LBE288:
 1988              		.loc 1 1137 0
 1989 0844 0128     		cmp	r0, #1
 1990              	.LBB289:
 1991              	.LBB287:
 1992 0846 8046     		mov	r8, r0
ARM GAS  /tmp/ccJyHyK3.s 			page 36


 1993              	.LBE287:
 1994              	.LBE289:
 1995 0848 F3D9     		bls	.L278
 1996              		.loc 1 1138 0
 1997 084a B0F1FF3F 		cmp	r0, #-1
 1998 084e 1BD0     		beq	.L281
 1999              		.loc 1 1139 0
 2000 0850 2868     		ldr	r0, [r5]
 2001 0852 036A     		ldr	r3, [r0, #32]
 2002 0854 4345     		cmp	r3, r8
 2003 0856 0DD9     		bls	.L304
 2004 0858 A8F10206 		sub	r6, r8, #2
 2005              	.LVL280:
 2006              	.L280:
 2007              	.LBB290:
 2008              	.LBB291:
 2009              		.loc 1 807 0
 2010 085c 023B     		subs	r3, r3, #2
 2011 085e 9E42     		cmp	r6, r3
 2012              	.LBE291:
 2013              	.LBE290:
 2014              		.loc 1 1161 0
 2015 0860 C5F80C80 		str	r8, [r5, #12]
 2016              	.LVL281:
 2017              	.LBB293:
 2018              	.LBB292:
 2019              		.loc 1 808 0
 2020 0864 3BBF     		ittet	cc
 2021 0866 8278     		ldrbcc	r2, [r0, #2]	@ zero_extendqisi2
 2022 0868 036B     		ldrcc	r3, [r0, #48]
 2023              		.loc 1 807 0
 2024 086a 0026     		movcs	r6, #0
 2025              	.LVL282:
 2026              		.loc 1 808 0
 2027 086c 02FB0636 		mlacc	r6, r2, r6, r3
 2028              	.LBE292:
 2029              	.LBE293:
 2030              		.loc 1 1162 0
 2031 0870 2E61     		str	r6, [r5, #16]
 2032 0872 C7E7     		b	.L275
 2033              	.LVL283:
 2034              	.L304:
 2035              	.LBB294:
 2036              		.loc 1 1142 0
 2037 0874 002E     		cmp	r6, #0
 2038 0876 B9D0     		beq	.L273
 2039              		.loc 1 1143 0
 2040 0878 E968     		ldr	r1, [r5, #12]
 2041 087a FFF751FF 		bl	create_chain
 2042              	.LVL284:
 2043              		.loc 1 1144 0
 2044 087e 8046     		mov	r8, r0
 2045 0880 28B9     		cbnz	r0, .L308
 2046 0882 0720     		movs	r0, #7
 2047              	.LVL285:
 2048              	.LBE294:
 2049              		.loc 1 1171 0
ARM GAS  /tmp/ccJyHyK3.s 			page 37


 2050 0884 BDE8F087 		pop	{r4, r5, r6, r7, r8, r9, r10, pc}
 2051              	.LVL286:
 2052              	.L281:
 2053              		.loc 1 1138 0
 2054 0888 0120     		movs	r0, #1
 2055 088a BDE8F087 		pop	{r4, r5, r6, r7, r8, r9, r10, pc}
 2056              	.LVL287:
 2057              	.L308:
 2058              	.LBB301:
 2059              		.loc 1 1145 0
 2060 088e 0128     		cmp	r0, #1
 2061 0890 CFD0     		beq	.L278
 2062              		.loc 1 1146 0
 2063 0892 B0F1FF3F 		cmp	r0, #-1
 2064 0896 F7D0     		beq	.L281
 2065              		.loc 1 1148 0
 2066 0898 2868     		ldr	r0, [r5]
 2067              	.LVL288:
 2068 089a 0021     		movs	r1, #0
 2069 089c FFF7B0FB 		bl	move_window
 2070              	.LVL289:
 2071 08a0 0028     		cmp	r0, #0
 2072 08a2 F1D1     		bne	.L281
 2073              		.loc 1 1149 0
 2074 08a4 2A68     		ldr	r2, [r5]
 2075              	.LBB295:
 2076              	.LBB296:
 2077              		.loc 1 550 0
 2078 08a6 0146     		mov	r1, r0
 2079              	.LBE296:
 2080              	.LBE295:
 2081              		.loc 1 1149 0
 2082 08a8 02F13803 		add	r3, r2, #56
 2083              	.LVL290:
 2084 08ac 02F50E72 		add	r2, r2, #568
 2085              	.LVL291:
 2086              	.L282:
 2087              	.LBB298:
 2088              	.LBB297:
 2089              		.loc 1 550 0
 2090 08b0 03F8011B 		strb	r1, [r3], #1
 2091              	.LVL292:
 2092              		.loc 1 549 0
 2093 08b4 9342     		cmp	r3, r2
 2094 08b6 FBD1     		bne	.L282
 2095              	.LBE297:
 2096              	.LBE298:
 2097              		.loc 1 1150 0
 2098 08b8 2868     		ldr	r0, [r5]
 2099              	.LVL293:
 2100              	.LBB299:
 2101              	.LBB300:
 2102              		.loc 1 807 0
 2103 08ba 036A     		ldr	r3, [r0, #32]
 2104              	.LVL294:
 2105              		.loc 1 806 0
 2106 08bc A8F10206 		sub	r6, r8, #2
ARM GAS  /tmp/ccJyHyK3.s 			page 38


 2107              	.LVL295:
 2108              		.loc 1 807 0
 2109 08c0 023B     		subs	r3, r3, #2
 2110 08c2 9E42     		cmp	r6, r3
 2111              		.loc 1 808 0
 2112 08c4 3BBF     		ittet	cc
 2113 08c6 8378     		ldrbcc	r3, [r0, #2]	@ zero_extendqisi2
 2114 08c8 026B     		ldrcc	r2, [r0, #48]
 2115              	.LVL296:
 2116              		.loc 1 807 0
 2117 08ca 0023     		movcs	r3, #0
 2118              		.loc 1 808 0
 2119 08cc 03FB0623 		mlacc	r3, r3, r6, r2
 2120              	.LBE300:
 2121              	.LBE299:
 2122              		.loc 1 1150 0
 2123 08d0 4363     		str	r3, [r0, #52]
 2124              	.LVL297:
 2125              		.loc 1 1151 0
 2126 08d2 4FF00009 		mov	r9, #0
 2127              		.loc 1 1152 0
 2128 08d6 4FF0010A 		mov	r10, #1
 2129              		.loc 1 1151 0
 2130 08da 0CE0     		b	.L284
 2131              	.LVL298:
 2132              	.L285:
 2133              		.loc 1 1152 0
 2134 08dc 80F804A0 		strb	r10, [r0, #4]
 2135              		.loc 1 1153 0
 2136 08e0 2868     		ldr	r0, [r5]
 2137 08e2 FFF78DFB 		bl	move_window
 2138              	.LVL299:
 2139 08e6 09F10109 		add	r9, r9, #1
 2140              	.LVL300:
 2141 08ea 0028     		cmp	r0, #0
 2142 08ec CCD1     		bne	.L281
 2143              		.loc 1 1154 0 discriminator 2
 2144 08ee 2868     		ldr	r0, [r5]
 2145 08f0 436B     		ldr	r3, [r0, #52]
 2146 08f2 0133     		adds	r3, r3, #1
 2147 08f4 4363     		str	r3, [r0, #52]
 2148              	.LVL301:
 2149              	.L284:
 2150              		.loc 1 1151 0 discriminator 1
 2151 08f6 8378     		ldrb	r3, [r0, #2]	@ zero_extendqisi2
 2152 08f8 5FFA89FE 		uxtb	lr, r9
 2153              	.LVL302:
 2154 08fc 7345     		cmp	r3, lr
 2155              		.loc 1 1153 0 discriminator 1
 2156 08fe 4FF00001 		mov	r1, #0
 2157              		.loc 1 1151 0 discriminator 1
 2158 0902 EBD8     		bhi	.L285
 2159              		.loc 1 1156 0
 2160 0904 426B     		ldr	r2, [r0, #52]
 2161 0906 036A     		ldr	r3, [r0, #32]
 2162 0908 CEEB0202 		rsb	r2, lr, r2
 2163 090c 4263     		str	r2, [r0, #52]
ARM GAS  /tmp/ccJyHyK3.s 			page 39


 2164 090e A5E7     		b	.L280
 2165              	.LBE301:
 2166              		.cfi_endproc
 2167              	.LFE22:
 2168              		.size	dir_next, .-dir_next
 2169              		.align	2
 2170              		.p2align 4,,15
 2171              		.thumb
 2172              		.thumb_func
 2173              		.type	dir_read, %function
 2174              	dir_read:
 2175              	.LFB29:
 2176              		.loc 1 1417 0
 2177              		.cfi_startproc
 2178              		@ args = 0, pretend = 0, frame = 0
 2179              		@ frame_needed = 0, uses_anonymous_args = 0
 2180              	.LVL303:
 2181 0910 2DE9F041 		push	{r4, r5, r6, r7, r8, lr}
 2182              		.cfi_def_cfa_offset 24
 2183              		.cfi_offset 4, -24
 2184              		.cfi_offset 5, -20
 2185              		.cfi_offset 6, -16
 2186              		.cfi_offset 7, -12
 2187              		.cfi_offset 8, -8
 2188              		.cfi_offset 14, -4
 2189              		.loc 1 1421 0
 2190 0914 FF25     		movs	r5, #255
 2191              		.loc 1 1417 0
 2192 0916 0446     		mov	r4, r0
 2193              		.loc 1 1421 0
 2194 0918 2E46     		mov	r6, r5
 2195              		.loc 1 1424 0
 2196 091a 0420     		movs	r0, #4
 2197              	.LVL304:
 2198 091c 424F     		ldr	r7, .L350
 2199              		.loc 1 1425 0
 2200 091e 09E0     		b	.L310
 2201              	.LVL305:
 2202              	.L346:
 2203              		.loc 1 1433 0 discriminator 2
 2204 0920 BEF10F0F 		cmp	lr, #15
 2205 0924 1CD0     		beq	.L314
 2206              	.LVL306:
 2207              	.L334:
 2208              		.loc 1 1443 0
 2209 0926 FF26     		movs	r6, #255
 2210              	.LVL307:
 2211              	.L312:
 2212              		.loc 1 1454 0
 2213 0928 2046     		mov	r0, r4
 2214 092a 0021     		movs	r1, #0
 2215 092c FFF758FF 		bl	dir_next
 2216              	.LVL308:
 2217              		.loc 1 1455 0
 2218 0930 0028     		cmp	r0, #0
 2219 0932 46D1     		bne	.L329
 2220              	.LVL309:
ARM GAS  /tmp/ccJyHyK3.s 			page 40


 2221              	.L310:
 2222              		.loc 1 1425 0
 2223 0934 2169     		ldr	r1, [r4, #16]
 2224 0936 0029     		cmp	r1, #0
 2225 0938 4AD0     		beq	.L345
 2226              		.loc 1 1426 0
 2227 093a 2068     		ldr	r0, [r4]
 2228 093c FFF760FB 		bl	move_window
 2229              	.LVL310:
 2230              		.loc 1 1427 0
 2231 0940 0028     		cmp	r0, #0
 2232 0942 3ED1     		bne	.L329
 2233              		.loc 1 1428 0
 2234 0944 6269     		ldr	r2, [r4, #20]
 2235              	.LVL311:
 2236              		.loc 1 1429 0
 2237 0946 1378     		ldrb	r3, [r2]	@ zero_extendqisi2
 2238              	.LVL312:
 2239              		.loc 1 1430 0
 2240 0948 002B     		cmp	r3, #0
 2241 094a 45D0     		beq	.L330
 2242              		.loc 1 1432 0
 2243 094c D17A     		ldrb	r1, [r2, #11]	@ zero_extendqisi2
 2244              		.loc 1 1433 0
 2245 094e E52B     		cmp	r3, #229
 2246              		.loc 1 1432 0
 2247 0950 01F03F0E 		and	lr, r1, #63
 2248              	.LVL313:
 2249              		.loc 1 1433 0
 2250 0954 E7D0     		beq	.L334
 2251              		.loc 1 1433 0 is_stmt 0 discriminator 1
 2252 0956 0907     		lsls	r1, r1, #28
 2253 0958 E2D4     		bmi	.L346
 2254              		.loc 1 1436 0 is_stmt 1
 2255 095a BEF10F0F 		cmp	lr, #15
 2256 095e 4CD1     		bne	.L315
 2257              	.L314:
 2258              		.loc 1 1437 0
 2259 0960 5906     		lsls	r1, r3, #25
 2260 0962 32D5     		bpl	.L316
 2261              		.loc 1 1440 0
 2262 0964 E188     		ldrh	r1, [r4, #6]
 2263              		.loc 1 1438 0
 2264 0966 557B     		ldrb	r5, [r2, #13]	@ zero_extendqisi2
 2265              	.LVL314:
 2266              		.loc 1 1440 0
 2267 0968 2184     		strh	r1, [r4, #32]	@ movhi
 2268              		.loc 1 1439 0
 2269 096a 03F0BF03 		and	r3, r3, #191
 2270              	.LVL315:
 2271              	.L317:
 2272              		.loc 1 1443 0 discriminator 1
 2273 096e 92F80DE0 		ldrb	lr, [r2, #13]	@ zero_extendqisi2
 2274              	.LVL316:
 2275 0972 AE45     		cmp	lr, r5
 2276 0974 D7D1     		bne	.L334
 2277              	.LBB306:
ARM GAS  /tmp/ccJyHyK3.s 			page 41


 2278              	.LBB307:
 2279              		.loc 1 1225 0 discriminator 3
 2280 0976 1078     		ldrb	r0, [r2]	@ zero_extendqisi2
 2281              	.LVL317:
 2282              	.LBE307:
 2283              	.LBE306:
 2284              		.loc 1 1443 0 discriminator 3
 2285 0978 D4F81CC0 		ldr	ip, [r4, #28]
 2286              	.LVL318:
 2287 097c 2B49     		ldr	r1, .L350+4
 2288              	.LBB310:
 2289              	.LBB308:
 2290              		.loc 1 1225 0 discriminator 3
 2291 097e 00F03F00 		and	r0, r0, #63
 2292 0982 0138     		subs	r0, r0, #1
 2293 0984 00EB4005 		add	r5, r0, r0, lsl #1
 2294              	.LVL319:
 2295 0988 00EB8500 		add	r0, r0, r5, lsl #2
 2296              	.LVL320:
 2297              		.loc 1 1227 0 discriminator 3
 2298 098c 0126     		movs	r6, #1
 2299              		.loc 1 1234 0 discriminator 3
 2300 098e 4FF6FF78 		movw	r8, #65535
 2301 0992 07E0     		b	.L321
 2302              	.LVL321:
 2303              	.L348:
 2304              		.loc 1 1231 0
 2305 0994 FE28     		cmp	r0, #254
 2306 0996 0CD8     		bhi	.L319
 2307              		.loc 1 1232 0
 2308 0998 2CF81050 		strh	r5, [ip, r0, lsl #1]	@ movhi
 2309              		.loc 1 1229 0
 2310 099c 2E46     		mov	r6, r5
 2311              		.loc 1 1232 0
 2312 099e 0130     		adds	r0, r0, #1
 2313              	.LVL322:
 2314              	.L320:
 2315              		.loc 1 1236 0
 2316 09a0 B942     		cmp	r1, r7
 2317 09a2 1ED0     		beq	.L347
 2318              	.LVL323:
 2319              	.L321:
 2320              		.loc 1 1229 0
 2321 09a4 11F8015B 		ldrb	r5, [r1], #1	@ zero_extendqisi2
 2322              	.LVL324:
 2323 09a8 555B     		ldrh	r5, [r2, r5]
 2324              	.LVL325:
 2325              		.loc 1 1230 0
 2326 09aa 002E     		cmp	r6, #0
 2327 09ac F2D1     		bne	.L348
 2328              		.loc 1 1234 0
 2329 09ae 4545     		cmp	r5, r8
 2330 09b0 F6D0     		beq	.L320
 2331              	.LVL326:
 2332              	.L319:
 2333              	.LBE308:
 2334              	.LBE310:
ARM GAS  /tmp/ccJyHyK3.s 			page 42


 2335              		.loc 1 1454 0
 2336 09b2 2046     		mov	r0, r4
 2337              	.LVL327:
 2338 09b4 0021     		movs	r1, #0
 2339              		.loc 1 1443 0
 2340 09b6 7546     		mov	r5, lr
 2341              	.LVL328:
 2342 09b8 FF26     		movs	r6, #255
 2343              	.LVL329:
 2344              		.loc 1 1454 0
 2345 09ba FFF711FF 		bl	dir_next
 2346              	.LVL330:
 2347              		.loc 1 1455 0
 2348 09be 0028     		cmp	r0, #0
 2349 09c0 B8D0     		beq	.L310
 2350              	.L329:
 2351              		.loc 1 1458 0 discriminator 1
 2352 09c2 0023     		movs	r3, #0
 2353 09c4 2361     		str	r3, [r4, #16]
 2354 09c6 BDE8F081 		pop	{r4, r5, r6, r7, r8, pc}
 2355              	.LVL331:
 2356              	.L316:
 2357              		.loc 1 1443 0
 2358 09ca 9E42     		cmp	r6, r3
 2359 09cc ABD1     		bne	.L334
 2360 09ce CEE7     		b	.L317
 2361              	.LVL332:
 2362              	.L345:
 2363              		.loc 1 1458 0
 2364 09d0 0028     		cmp	r0, #0
 2365 09d2 F6D1     		bne	.L329
 2366              	.LVL333:
 2367              	.L337:
 2368              		.loc 1 1461 0
 2369 09d4 BDE8F081 		pop	{r4, r5, r6, r7, r8, pc}
 2370              	.LVL334:
 2371              	.L330:
 2372              		.loc 1 1458 0
 2373 09d8 0023     		movs	r3, #0
 2374              	.LVL335:
 2375              		.loc 1 1430 0
 2376 09da 0420     		movs	r0, #4
 2377              	.LVL336:
 2378              		.loc 1 1458 0
 2379 09dc 2361     		str	r3, [r4, #16]
 2380              	.LVL337:
 2381 09de BDE8F081 		pop	{r4, r5, r6, r7, r8, pc}
 2382              	.LVL338:
 2383              	.L347:
 2384              	.LBB311:
 2385              	.LBB309:
 2386              		.loc 1 1238 0
 2387 09e2 1278     		ldrb	r2, [r2]	@ zero_extendqisi2
 2388              	.LVL339:
 2389 09e4 5206     		lsls	r2, r2, #25
 2390 09e6 04D5     		bpl	.L322
 2391              		.loc 1 1239 0
ARM GAS  /tmp/ccJyHyK3.s 			page 43


 2392 09e8 FE28     		cmp	r0, #254
 2393 09ea E2D8     		bhi	.L319
 2394              		.loc 1 1240 0
 2395 09ec 0022     		movs	r2, #0
 2396 09ee 2CF81020 		strh	r2, [ip, r0, lsl #1]	@ movhi
 2397              	.L322:
 2398              	.LBE309:
 2399              	.LBE311:
 2400              		.loc 1 1443 0
 2401 09f2 013B     		subs	r3, r3, #1
 2402              	.LVL340:
 2403 09f4 DEB2     		uxtb	r6, r3
 2404 09f6 7546     		mov	r5, lr
 2405              	.LVL341:
 2406 09f8 96E7     		b	.L312
 2407              	.LVL342:
 2408              	.L315:
 2409              		.loc 1 1445 0
 2410 09fa 7EB9     		cbnz	r6, .L323
 2411 09fc 02F10A07 		add	r7, r2, #10
 2412 0a00 0646     		mov	r6, r0
 2413              	.LVL343:
 2414 0a02 01E0     		b	.L325
 2415              	.LVL344:
 2416              	.L349:
 2417 0a04 12F8013F 		ldrb	r3, [r2, #1]!	@ zero_extendqisi2
 2418              	.LVL345:
 2419              	.L325:
 2420              	.LBB312:
 2421              	.LBB313:
 2422              		.loc 1 1340 0
 2423 0a08 F101     		lsls	r1, r6, #7
 2424 0a0a 41EA5601 		orr	r1, r1, r6, lsr #1
 2425 0a0e 53FA81F3 		uxtab	r3, r3, r1
 2426 0a12 BA42     		cmp	r2, r7
 2427 0a14 DEB2     		uxtb	r6, r3
 2428              	.LVL346:
 2429 0a16 F5D1     		bne	.L349
 2430              	.LBE313:
 2431              	.LBE312:
 2432              		.loc 1 1445 0
 2433 0a18 AE42     		cmp	r6, r5
 2434 0a1a DBD0     		beq	.L337
 2435              	.LVL347:
 2436              	.L323:
 2437              		.loc 1 1446 0
 2438 0a1c 4FF6FF73 		movw	r3, #65535
 2439 0a20 2384     		strh	r3, [r4, #32]	@ movhi
 2440              	.LVL348:
 2441 0a22 BDE8F081 		pop	{r4, r5, r6, r7, r8, pc}
 2442              	.LVL349:
 2443              	.L351:
 2444 0a26 00BF     		.align	2
 2445              	.L350:
 2446 0a28 0D000000 		.word	.LANCHOR1+13
 2447 0a2c 00000000 		.word	.LANCHOR1
 2448              		.cfi_endproc
ARM GAS  /tmp/ccJyHyK3.s 			page 44


 2449              	.LFE29:
 2450              		.size	dir_read, .-dir_read
 2451              		.align	2
 2452              		.p2align 4,,15
 2453              		.thumb
 2454              		.thumb_func
 2455              		.type	dir_remove, %function
 2456              	dir_remove:
 2457              	.LFB31:
 2458              		.loc 1 1581 0
 2459              		.cfi_startproc
 2460              		@ args = 0, pretend = 0, frame = 0
 2461              		@ frame_needed = 0, uses_anonymous_args = 0
 2462              	.LVL350:
 2463 0a30 F8B5     		push	{r3, r4, r5, r6, r7, lr}
 2464              		.cfi_def_cfa_offset 24
 2465              		.cfi_offset 3, -24
 2466              		.cfi_offset 4, -20
 2467              		.cfi_offset 5, -16
 2468              		.cfi_offset 6, -12
 2469              		.cfi_offset 7, -8
 2470              		.cfi_offset 14, -4
 2471              		.loc 1 1587 0
 2472 0a32 018C     		ldrh	r1, [r0, #32]
 2473              		.loc 1 1586 0
 2474 0a34 C588     		ldrh	r5, [r0, #6]
 2475              	.LVL351:
 2476              		.loc 1 1587 0
 2477 0a36 4FF6FF73 		movw	r3, #65535
 2478 0a3a 9942     		cmp	r1, r3
 2479 0a3c 08BF     		it	eq
 2480 0a3e 2946     		moveq	r1, r5
 2481              		.loc 1 1581 0
 2482 0a40 0446     		mov	r4, r0
 2483              		.loc 1 1587 0
 2484 0a42 FFF79DFD 		bl	dir_sdi
 2485              	.LVL352:
 2486              		.loc 1 1588 0
 2487 0a46 0346     		mov	r3, r0
 2488 0a48 C8B9     		cbnz	r0, .L354
 2489              		.loc 1 1592 0
 2490 0a4a E527     		movs	r7, #229
 2491              		.loc 1 1593 0
 2492 0a4c 0126     		movs	r6, #1
 2493 0a4e 0BE0     		b	.L357
 2494              	.L362:
 2495              		.loc 1 1592 0
 2496 0a50 6269     		ldr	r2, [r4, #20]
 2497 0a52 1770     		strb	r7, [r2]
 2498              		.loc 1 1593 0
 2499 0a54 2268     		ldr	r2, [r4]
 2500 0a56 1671     		strb	r6, [r2, #4]
 2501              		.loc 1 1594 0
 2502 0a58 E288     		ldrh	r2, [r4, #6]
 2503 0a5a AA42     		cmp	r2, r5
 2504              		.loc 1 1595 0
 2505 0a5c 2046     		mov	r0, r4
ARM GAS  /tmp/ccJyHyK3.s 			page 45


 2506              	.LVL353:
 2507              		.loc 1 1594 0
 2508 0a5e 0ED2     		bcs	.L354
 2509              	.LVL354:
 2510              		.loc 1 1595 0
 2511 0a60 FFF7BEFE 		bl	dir_next
 2512              	.LVL355:
 2513              		.loc 1 1596 0
 2514 0a64 0346     		mov	r3, r0
 2515 0a66 38B9     		cbnz	r0, .L355
 2516              	.L357:
 2517              		.loc 1 1590 0
 2518 0a68 2169     		ldr	r1, [r4, #16]
 2519 0a6a 2068     		ldr	r0, [r4]
 2520              	.LVL356:
 2521 0a6c FFF7C8FA 		bl	move_window
 2522              	.LVL357:
 2523              		.loc 1 1591 0
 2524 0a70 0346     		mov	r3, r0
 2525              		.loc 1 1595 0
 2526 0a72 0146     		mov	r1, r0
 2527              		.loc 1 1591 0
 2528 0a74 0028     		cmp	r0, #0
 2529 0a76 EBD0     		beq	.L362
 2530              	.L355:
 2531              	.LVL358:
 2532              		.loc 1 1597 0
 2533 0a78 042B     		cmp	r3, #4
 2534 0a7a 08BF     		it	eq
 2535 0a7c 0223     		moveq	r3, #2
 2536              	.LVL359:
 2537              	.L354:
 2538              		.loc 1 1612 0
 2539 0a7e 1846     		mov	r0, r3
 2540 0a80 F8BD     		pop	{r3, r4, r5, r6, r7, pc}
 2541              		.cfi_endproc
 2542              	.LFE31:
 2543              		.size	dir_remove, .-dir_remove
 2544 0a82 00BF     		.align	2
 2545 0a84 AFF30080 		.p2align 4,,15
 2545      AFF30080 
 2545      AFF30080 
 2546              		.thumb
 2547              		.thumb_func
 2548              		.type	dir_find.part.9, %function
 2549              	dir_find.part.9:
 2550              	.LFB68:
 2551              		.loc 1 1353 0
 2552              		.cfi_startproc
 2553              		@ args = 0, pretend = 0, frame = 16
 2554              		@ frame_needed = 0, uses_anonymous_args = 0
 2555              	.LVL360:
 2556 0a90 2DE9F04F 		push	{r4, r5, r6, r7, r8, r9, r10, fp, lr}
 2557              		.cfi_def_cfa_offset 36
 2558              		.cfi_offset 4, -36
 2559              		.cfi_offset 5, -32
 2560              		.cfi_offset 6, -28
ARM GAS  /tmp/ccJyHyK3.s 			page 46


 2561              		.cfi_offset 7, -24
 2562              		.cfi_offset 8, -20
 2563              		.cfi_offset 9, -16
 2564              		.cfi_offset 10, -12
 2565              		.cfi_offset 11, -8
 2566              		.cfi_offset 14, -4
 2567 0a94 FF25     		movs	r5, #255
 2568 0a96 85B0     		sub	sp, sp, #20
 2569              		.cfi_def_cfa_offset 56
 2570 0a98 4F4E     		ldr	r6, .L408
 2571              		.loc 1 1353 0
 2572 0a9a 8046     		mov	r8, r0
 2573 0a9c 2F46     		mov	r7, r5
 2574 0a9e 08E0     		b	.L382
 2575              	.LVL361:
 2576              	.L405:
 2577              		.loc 1 1377 0
 2578 0aa0 0F29     		cmp	r1, #15
 2579 0aa2 44D0     		beq	.L367
 2580              	.LVL362:
 2581              	.L388:
 2582              		.loc 1 1392 0
 2583 0aa4 FF27     		movs	r7, #255
 2584              	.LVL363:
 2585              	.L365:
 2586              		.loc 1 1400 0
 2587 0aa6 4046     		mov	r0, r8
 2588 0aa8 0021     		movs	r1, #0
 2589 0aaa FFF799FE 		bl	dir_next
 2590              	.LVL364:
 2591              		.loc 1 1401 0
 2592 0aae 0028     		cmp	r0, #0
 2593 0ab0 3AD1     		bne	.L393
 2594              	.LVL365:
 2595              	.L382:
 2596              		.loc 1 1370 0
 2597 0ab2 D8F80000 		ldr	r0, [r8]
 2598 0ab6 D8F81010 		ldr	r1, [r8, #16]
 2599 0aba FFF7A1FA 		bl	move_window
 2600              	.LVL366:
 2601              		.loc 1 1371 0
 2602 0abe 98BB     		cbnz	r0, .L393
 2603              		.loc 1 1372 0
 2604 0ac0 D8F81440 		ldr	r4, [r8, #20]
 2605              	.LVL367:
 2606              		.loc 1 1373 0
 2607 0ac4 2378     		ldrb	r3, [r4]	@ zero_extendqisi2
 2608              	.LVL368:
 2609              		.loc 1 1374 0
 2610 0ac6 002B     		cmp	r3, #0
 2611 0ac8 73D0     		beq	.L383
 2612              		.loc 1 1376 0
 2613 0aca E27A     		ldrb	r2, [r4, #11]	@ zero_extendqisi2
 2614              		.loc 1 1377 0
 2615 0acc E52B     		cmp	r3, #229
 2616              		.loc 1 1376 0
 2617 0ace 02F03F01 		and	r1, r2, #63
ARM GAS  /tmp/ccJyHyK3.s 			page 47


 2618              	.LVL369:
 2619              		.loc 1 1377 0
 2620 0ad2 E7D0     		beq	.L388
 2621 0ad4 1207     		lsls	r2, r2, #28
 2622 0ad6 E3D4     		bmi	.L405
 2623              		.loc 1 1380 0
 2624 0ad8 0F29     		cmp	r1, #15
 2625 0ada 28D0     		beq	.L367
 2626              		.loc 1 1391 0
 2627 0adc 8FB9     		cbnz	r7, .L376
 2628 0ade 1946     		mov	r1, r3
 2629              	.LVL370:
 2630 0ae0 2746     		mov	r7, r4
 2631              	.LVL371:
 2632 0ae2 04F10A0E 		add	lr, r4, #10
 2633 0ae6 0346     		mov	r3, r0
 2634              	.LVL372:
 2635 0ae8 01E0     		b	.L378
 2636              	.LVL373:
 2637              	.L406:
 2638 0aea 17F8011F 		ldrb	r1, [r7, #1]!	@ zero_extendqisi2
 2639              	.LVL374:
 2640              	.L378:
 2641              	.LBB320:
 2642              	.LBB321:
 2643              		.loc 1 1340 0
 2644 0aee DA01     		lsls	r2, r3, #7
 2645 0af0 42EA5303 		orr	r3, r2, r3, lsr #1
 2646              	.LVL375:
 2647 0af4 51FA83F3 		uxtab	r3, r1, r3
 2648 0af8 7745     		cmp	r7, lr
 2649 0afa DBB2     		uxtb	r3, r3
 2650              	.LVL376:
 2651 0afc F5D1     		bne	.L406
 2652              	.LBE321:
 2653              	.LBE320:
 2654              		.loc 1 1391 0
 2655 0afe 9D42     		cmp	r5, r3
 2656 0b00 12D0     		beq	.L393
 2657              	.LVL377:
 2658              	.L376:
 2659              		.loc 1 1392 0
 2660 0b02 4FF6FF72 		movw	r2, #65535
 2661              		.loc 1 1393 0
 2662 0b06 D8F81830 		ldr	r3, [r8, #24]
 2663              		.loc 1 1392 0
 2664 0b0a A8F82020 		strh	r2, [r8, #32]	@ movhi
 2665              	.LVL378:
 2666              		.loc 1 1393 0
 2667 0b0e DA7A     		ldrb	r2, [r3, #11]	@ zero_extendqisi2
 2668 0b10 D207     		lsls	r2, r2, #31
 2669 0b12 C7D4     		bmi	.L388
 2670 0b14 04F10B07 		add	r7, r4, #11
 2671              	.LVL379:
 2672              	.L379:
 2673              	.LBB322:
 2674              	.LBB323:
ARM GAS  /tmp/ccJyHyK3.s 			page 48


 2675              		.loc 1 559 0
 2676 0b18 14F8011B 		ldrb	r1, [r4], #1	@ zero_extendqisi2
 2677              	.LVL380:
 2678 0b1c 13F8012B 		ldrb	r2, [r3], #1	@ zero_extendqisi2
 2679              	.LVL381:
 2680 0b20 9142     		cmp	r1, r2
 2681 0b22 BFD1     		bne	.L388
 2682 0b24 BC42     		cmp	r4, r7
 2683 0b26 F7D1     		bne	.L379
 2684              	.LVL382:
 2685              	.L393:
 2686              	.LBE323:
 2687              	.LBE322:
 2688              		.loc 1 1404 0
 2689 0b28 05B0     		add	sp, sp, #20
 2690              		.cfi_remember_state
 2691              		.cfi_def_cfa_offset 36
 2692              		@ sp needed
 2693 0b2a BDE8F08F 		pop	{r4, r5, r6, r7, r8, r9, r10, fp, pc}
 2694              	.LVL383:
 2695              	.L367:
 2696              		.cfi_restore_state
 2697              		.loc 1 1381 0
 2698 0b2e D8F81C20 		ldr	r2, [r8, #28]
 2699 0b32 002A     		cmp	r2, #0
 2700 0b34 B7D0     		beq	.L365
 2701              		.loc 1 1382 0
 2702 0b36 5806     		lsls	r0, r3, #25
 2703              	.LVL384:
 2704 0b38 37D5     		bpl	.L369
 2705              		.loc 1 1385 0
 2706 0b3a B8F80610 		ldrh	r1, [r8, #6]
 2707              	.LVL385:
 2708              		.loc 1 1383 0
 2709 0b3e 657B     		ldrb	r5, [r4, #13]	@ zero_extendqisi2
 2710              	.LVL386:
 2711              		.loc 1 1385 0
 2712 0b40 A8F82010 		strh	r1, [r8, #32]	@ movhi
 2713              	.LVL387:
 2714              		.loc 1 1384 0
 2715 0b44 03F0BF07 		and	r7, r3, #191
 2716              	.LVL388:
 2717              	.L370:
 2718              		.loc 1 1388 0
 2719 0b48 94F80DB0 		ldrb	fp, [r4, #13]	@ zero_extendqisi2
 2720 0b4c AB45     		cmp	fp, r5
 2721 0b4e A9D1     		bne	.L388
 2722              	.LVL389:
 2723              	.LBB324:
 2724              	.LBB325:
 2725              		.loc 1 1194 0
 2726 0b50 2378     		ldrb	r3, [r4]	@ zero_extendqisi2
 2727 0b52 224D     		ldr	r5, .L408+4
 2728              	.LVL390:
 2729 0b54 23F04003 		bic	r3, r3, #64
 2730 0b58 013B     		subs	r3, r3, #1
 2731 0b5a 03EB430A 		add	r10, r3, r3, lsl #1
ARM GAS  /tmp/ccJyHyK3.s 			page 49


 2732 0b5e 03EB8A0A 		add	r10, r3, r10, lsl #2
 2733              	.LVL391:
 2734              		.loc 1 1195 0
 2735 0b62 0120     		movs	r0, #1
 2736              		.loc 1 1203 0
 2737 0b64 4FF6FF79 		movw	r9, #65535
 2738 0b68 03E0     		b	.L374
 2739              	.LVL392:
 2740              	.L371:
 2741 0b6a 4B45     		cmp	r3, r9
 2742 0b6c 2CD1     		bne	.L372
 2743              	.LVL393:
 2744              	.L373:
 2745              		.loc 1 1205 0
 2746 0b6e B542     		cmp	r5, r6
 2747 0b70 23D0     		beq	.L407
 2748              	.LVL394:
 2749              	.L374:
 2750              		.loc 1 1197 0
 2751 0b72 15F8013B 		ldrb	r3, [r5], #1	@ zero_extendqisi2
 2752              	.LVL395:
 2753 0b76 E35A     		ldrh	r3, [r4, r3]
 2754              	.LVL396:
 2755              		.loc 1 1198 0
 2756 0b78 0028     		cmp	r0, #0
 2757 0b7a F6D0     		beq	.L371
 2758              		.loc 1 1199 0
 2759 0b7c 1846     		mov	r0, r3
 2760 0b7e 0192     		str	r2, [sp, #4]
 2761              	.LVL397:
 2762 0b80 FFF7FEFF 		bl	ff_wtoupper
 2763              	.LVL398:
 2764              		.loc 1 1200 0
 2765 0b84 0AF10103 		add	r3, r10, #1
 2766 0b88 BAF1FE0F 		cmp	r10, #254
 2767              		.loc 1 1199 0
 2768 0b8c 0390     		str	r0, [sp, #12]
 2769              	.LVL399:
 2770              		.loc 1 1200 0
 2771 0b8e 0293     		str	r3, [sp, #8]
 2772              	.LVL400:
 2773 0b90 1AD8     		bhi	.L372
 2774 0b92 019A     		ldr	r2, [sp, #4]
 2775 0b94 32F81A00 		ldrh	r0, [r2, r10, lsl #1]
 2776 0b98 FFF7FEFF 		bl	ff_wtoupper
 2777              	.LVL401:
 2778 0b9c 0399     		ldr	r1, [sp, #12]
 2779 0b9e 8142     		cmp	r1, r0
 2780 0ba0 12D1     		bne	.L372
 2781 0ba2 029B     		ldr	r3, [sp, #8]
 2782 0ba4 019A     		ldr	r2, [sp, #4]
 2783 0ba6 9A46     		mov	r10, r3
 2784 0ba8 E1E7     		b	.L373
 2785              	.LVL402:
 2786              	.L369:
 2787              	.LBE325:
 2788              	.LBE324:
ARM GAS  /tmp/ccJyHyK3.s 			page 50


 2789              		.loc 1 1388 0
 2790 0baa BB42     		cmp	r3, r7
 2791 0bac 7FF47AAF 		bne	.L388
 2792 0bb0 CAE7     		b	.L370
 2793              	.LVL403:
 2794              	.L383:
 2795              		.loc 1 1374 0
 2796 0bb2 0420     		movs	r0, #4
 2797              	.LVL404:
 2798              		.loc 1 1404 0
 2799 0bb4 05B0     		add	sp, sp, #20
 2800              		.cfi_remember_state
 2801              		.cfi_def_cfa_offset 36
 2802              		@ sp needed
 2803 0bb6 BDE8F08F 		pop	{r4, r5, r6, r7, r8, r9, r10, fp, pc}
 2804              	.LVL405:
 2805              	.L407:
 2806              		.cfi_restore_state
 2807              	.LBB327:
 2808              	.LBB326:
 2809              		.loc 1 1207 0
 2810 0bba 2378     		ldrb	r3, [r4]	@ zero_extendqisi2
 2811 0bbc 5906     		lsls	r1, r3, #25
 2812 0bbe 06D5     		bpl	.L375
 2813 0bc0 28B1     		cbz	r0, .L375
 2814 0bc2 32F81A30 		ldrh	r3, [r2, r10, lsl #1]
 2815 0bc6 13B1     		cbz	r3, .L375
 2816              	.LVL406:
 2817              	.L372:
 2818              	.LBE326:
 2819              	.LBE327:
 2820              		.loc 1 1388 0
 2821 0bc8 5D46     		mov	r5, fp
 2822 0bca FF27     		movs	r7, #255
 2823              	.LVL407:
 2824 0bcc 6BE7     		b	.L365
 2825              	.LVL408:
 2826              	.L375:
 2827 0bce 013F     		subs	r7, r7, #1
 2828              	.LVL409:
 2829 0bd0 FFB2     		uxtb	r7, r7
 2830 0bd2 5D46     		mov	r5, fp
 2831              	.LVL410:
 2832 0bd4 67E7     		b	.L365
 2833              	.L409:
 2834 0bd6 00BF     		.align	2
 2835              	.L408:
 2836 0bd8 0D000000 		.word	.LANCHOR1+13
 2837 0bdc 00000000 		.word	.LANCHOR1
 2838              		.cfi_endproc
 2839              	.LFE68:
 2840              		.size	dir_find.part.9, .-dir_find.part.9
 2841              		.align	2
 2842              		.p2align 4,,15
 2843              		.thumb
 2844              		.thumb_func
 2845              		.type	remove_chain.part.10, %function
ARM GAS  /tmp/ccJyHyK3.s 			page 51


 2846              	remove_chain.part.10:
 2847              	.LFB69:
 2848              		.loc 1 925 0
 2849              		.cfi_startproc
 2850              		@ args = 0, pretend = 0, frame = 0
 2851              		@ frame_needed = 0, uses_anonymous_args = 0
 2852              	.LVL411:
 2853 0be0 F8B5     		push	{r3, r4, r5, r6, r7, lr}
 2854              		.cfi_def_cfa_offset 24
 2855              		.cfi_offset 3, -24
 2856              		.cfi_offset 4, -20
 2857              		.cfi_offset 5, -16
 2858              		.cfi_offset 6, -12
 2859              		.cfi_offset 7, -8
 2860              		.cfi_offset 14, -4
 2861              		.loc 1 925 0
 2862 0be2 0446     		mov	r4, r0
 2863 0be4 0D46     		mov	r5, r1
 2864              		.loc 1 941 0
 2865 0be6 236A     		ldr	r3, [r4, #32]
 2866 0be8 9D42     		cmp	r5, r3
 2867              		.loc 1 950 0
 2868 0bea 4FF00107 		mov	r7, #1
 2869              	.LVL412:
 2870              	.LBB328:
 2871              	.LBB329:
 2872 0bee 2946     		mov	r1, r5
 2873 0bf0 2046     		mov	r0, r4
 2874              	.LBE329:
 2875              	.LBE328:
 2876              		.loc 1 941 0
 2877 0bf2 20D2     		bcs	.L418
 2878              	.L417:
 2879              	.LBB332:
 2880              	.LBB330:
 2881              		.loc 1 828 0
 2882 0bf4 012D     		cmp	r5, #1
 2883 0bf6 0AD9     		bls	.L415
 2884 0bf8 FFF772FC 		bl	get_fat.part.7
 2885              	.LVL413:
 2886              	.LBE330:
 2887              	.LBE332:
 2888              		.loc 1 943 0
 2889 0bfc 0646     		mov	r6, r0
 2890 0bfe D0B1     		cbz	r0, .L418
 2891              		.loc 1 944 0
 2892 0c00 0128     		cmp	r0, #1
 2893 0c02 04D0     		beq	.L415
 2894              		.loc 1 945 0
 2895 0c04 411C     		adds	r1, r0, #1
 2896 0c06 18D0     		beq	.L419
 2897              	.LBB333:
 2898              	.LBB334:
 2899              		.loc 1 873 0
 2900 0c08 236A     		ldr	r3, [r4, #32]
 2901 0c0a 9D42     		cmp	r5, r3
 2902 0c0c 01D3     		bcc	.L427
ARM GAS  /tmp/ccJyHyK3.s 			page 52


 2903              	.LVL414:
 2904              	.L415:
 2905              	.LBE334:
 2906              	.LBE333:
 2907              		.loc 1 944 0
 2908 0c0e 0220     		movs	r0, #2
 2909 0c10 F8BD     		pop	{r3, r4, r5, r6, r7, pc}
 2910              	.LVL415:
 2911              	.L427:
 2912              	.LBB336:
 2913              	.LBB335:
 2914 0c12 2946     		mov	r1, r5
 2915 0c14 2046     		mov	r0, r4
 2916 0c16 0022     		movs	r2, #0
 2917 0c18 FFF702FD 		bl	put_fat.part.8
 2918              	.LVL416:
 2919              	.LBE335:
 2920              	.LBE336:
 2921              		.loc 1 947 0
 2922 0c1c 70B9     		cbnz	r0, .L413
 2923              		.loc 1 948 0
 2924 0c1e 6369     		ldr	r3, [r4, #20]
 2925 0c20 5A1C     		adds	r2, r3, #1
 2926 0c22 02D0     		beq	.L416
 2927              		.loc 1 949 0
 2928 0c24 0133     		adds	r3, r3, #1
 2929 0c26 6361     		str	r3, [r4, #20]
 2930              		.loc 1 950 0
 2931 0c28 6771     		strb	r7, [r4, #5]
 2932              	.L416:
 2933              		.loc 1 941 0
 2934 0c2a 236A     		ldr	r3, [r4, #32]
 2935              		.loc 1 925 0
 2936 0c2c 3546     		mov	r5, r6
 2937              	.LVL417:
 2938              		.loc 1 941 0
 2939 0c2e 9D42     		cmp	r5, r3
 2940              	.LBB337:
 2941              	.LBB331:
 2942 0c30 2946     		mov	r1, r5
 2943 0c32 2046     		mov	r0, r4
 2944              	.LVL418:
 2945              	.LBE331:
 2946              	.LBE337:
 2947 0c34 DED3     		bcc	.L417
 2948              	.LVL419:
 2949              	.L418:
 2950              		.loc 1 925 0
 2951 0c36 0020     		movs	r0, #0
 2952 0c38 F8BD     		pop	{r3, r4, r5, r6, r7, pc}
 2953              	.LVL420:
 2954              	.L419:
 2955              		.loc 1 945 0
 2956 0c3a 0120     		movs	r0, #1
 2957              	.LVL421:
 2958              	.L413:
 2959              		.loc 1 967 0
ARM GAS  /tmp/ccJyHyK3.s 			page 53


 2960 0c3c F8BD     		pop	{r3, r4, r5, r6, r7, pc}
 2961              		.cfi_endproc
 2962              	.LFE69:
 2963              		.size	remove_chain.part.10, .-remove_chain.part.10
 2964 0c3e 00BF     		.align	2
 2965              		.p2align 4,,15
 2966              		.thumb
 2967              		.thumb_func
 2968              		.type	follow_path, %function
 2969              	follow_path:
 2970              	.LFB34:
 2971              		.loc 1 1923 0
 2972              		.cfi_startproc
 2973              		@ args = 0, pretend = 0, frame = 8
 2974              		@ frame_needed = 0, uses_anonymous_args = 0
 2975              	.LVL422:
 2976 0c40 2DE9F04F 		push	{r4, r5, r6, r7, r8, r9, r10, fp, lr}
 2977              		.cfi_def_cfa_offset 36
 2978              		.cfi_offset 4, -36
 2979              		.cfi_offset 5, -32
 2980              		.cfi_offset 6, -28
 2981              		.cfi_offset 7, -24
 2982              		.cfi_offset 8, -20
 2983              		.cfi_offset 9, -16
 2984              		.cfi_offset 10, -12
 2985              		.cfi_offset 11, -8
 2986              		.cfi_offset 14, -4
 2987              		.loc 1 1929 0
 2988 0c44 0B78     		ldrb	r3, [r1]	@ zero_extendqisi2
 2989 0c46 2F2B     		cmp	r3, #47
 2990              		.loc 1 1923 0
 2991 0c48 83B0     		sub	sp, sp, #12
 2992              		.cfi_def_cfa_offset 48
 2993              		.loc 1 1923 0
 2994 0c4a 8846     		mov	r8, r1
 2995 0c4c 0546     		mov	r5, r0
 2996              		.loc 1 1929 0
 2997 0c4e 00F04781 		beq	.L429
 2998              		.loc 1 1929 0 is_stmt 0 discriminator 1
 2999 0c52 5C2B     		cmp	r3, #92
 3000 0c54 00F04481 		beq	.L429
 3001              		.loc 1 1932 0 is_stmt 1
 3002 0c58 0368     		ldr	r3, [r0]
 3003 0c5a DB69     		ldr	r3, [r3, #28]
 3004 0c5c 8360     		str	r3, [r0, #8]
 3005              		.loc 1 1940 0
 3006 0c5e 98F80000 		ldrb	r0, [r8]	@ zero_extendqisi2
 3007              	.LVL423:
 3008 0c62 1F28     		cmp	r0, #31
 3009 0c64 40F24581 		bls	.L432
 3010              	.LVL424:
 3011              	.L593:
 3012              	.LBB348:
 3013              	.LBB349:
 3014              		.loc 1 1710 0
 3015 0c68 BE4E     		ldr	r6, .L594
 3016 0c6a 01E0     		b	.L435
ARM GAS  /tmp/ccJyHyK3.s 			page 54


 3017              	.LVL425:
 3018              	.L436:
 3019 0c6c 18F8010F 		ldrb	r0, [r8, #1]!	@ zero_extendqisi2
 3020              	.LVL426:
 3021              	.L435:
 3022              		.loc 1 1639 0
 3023 0c70 2F28     		cmp	r0, #47
 3024 0c72 FBD0     		beq	.L436
 3025 0c74 5C28     		cmp	r0, #92
 3026 0c76 F9D0     		beq	.L436
 3027              		.loc 1 1643 0
 3028 0c78 80B2     		uxth	r0, r0
 3029              		.loc 1 1644 0
 3030 0c7a 1F28     		cmp	r0, #31
 3031              		.loc 1 1640 0
 3032 0c7c EF69     		ldr	r7, [r5, #28]
 3033              	.LVL427:
 3034              		.loc 1 1644 0
 3035 0c7e 40F21C81 		bls	.L498
 3036 0c82 2F28     		cmp	r0, #47
 3037 0c84 2FD0     		beq	.L500
 3038 0c86 5C28     		cmp	r0, #92
 3039 0c88 2DD0     		beq	.L500
 3040              		.loc 1 1655 0
 3041 0c8a 0121     		movs	r1, #1
 3042 0c8c A7F1020A 		sub	r10, r7, #2
 3043 0c90 C146     		mov	r9, r8
 3044              		.loc 1 1644 0
 3045 0c92 0124     		movs	r4, #1
 3046              		.loc 1 1655 0
 3047 0c94 FFF7FEFF 		bl	ff_convert
 3048              	.LVL428:
 3049              		.loc 1 1656 0
 3050 0c98 08B3     		cbz	r0, .L440
 3051              	.LVL429:
 3052              	.L584:
 3053              		.loc 1 1658 0
 3054 0c9a 7F28     		cmp	r0, #127
 3055 0c9c 09D8     		bhi	.L441
 3056              	.LVL430:
 3057              	.LBB350:
 3058              	.LBB351:
 3059              		.loc 1 566 0
 3060 0c9e 2228     		cmp	r0, #34
 3061 0ca0 1DD0     		beq	.L440
 3062 0ca2 B14A     		ldr	r2, .L594+4
 3063 0ca4 01E0     		b	.L442
 3064              	.LVL431:
 3065              	.L583:
 3066 0ca6 9842     		cmp	r0, r3
 3067 0ca8 19D0     		beq	.L440
 3068              	.LVL432:
 3069              	.L442:
 3070 0caa 12F8013F 		ldrb	r3, [r2, #1]!	@ zero_extendqisi2
 3071              	.LVL433:
 3072 0cae 002B     		cmp	r3, #0
 3073 0cb0 F9D1     		bne	.L583
ARM GAS  /tmp/ccJyHyK3.s 			page 55


 3074              	.LVL434:
 3075              	.L441:
 3076              	.LBE351:
 3077              	.LBE350:
 3078              		.loc 1 1660 0
 3079 0cb2 2AF8020F 		strh	r0, [r10, #2]!	@ movhi
 3080              		.loc 1 1643 0
 3081 0cb6 19F8010F 		ldrb	r0, [r9, #1]!	@ zero_extendqisi2
 3082              	.LVL435:
 3083              		.loc 1 1644 0
 3084 0cba 1F28     		cmp	r0, #31
 3085              		.loc 1 1643 0
 3086 0cbc 04F10103 		add	r3, r4, #1
 3087              	.LVL436:
 3088              		.loc 1 1644 0
 3089 0cc0 40F2FD80 		bls	.L437
 3090 0cc4 2F28     		cmp	r0, #47
 3091 0cc6 10D0     		beq	.L438
 3092 0cc8 5C28     		cmp	r0, #92
 3093 0cca 0ED0     		beq	.L438
 3094              		.loc 1 1645 0
 3095 0ccc B3F5807F 		cmp	r3, #256
 3096 0cd0 05D0     		beq	.L440
 3097              	.LVL437:
 3098              		.loc 1 1655 0
 3099 0cd2 0121     		movs	r1, #1
 3100              		.loc 1 1645 0
 3101 0cd4 1C46     		mov	r4, r3
 3102              	.LVL438:
 3103              		.loc 1 1655 0
 3104 0cd6 FFF7FEFF 		bl	ff_convert
 3105              	.LVL439:
 3106              		.loc 1 1656 0
 3107 0cda 0028     		cmp	r0, #0
 3108 0cdc DDD1     		bne	.L584
 3109              	.LVL440:
 3110              	.L440:
 3111              		.loc 1 1738 0
 3112 0cde 0620     		movs	r0, #6
 3113              	.LVL441:
 3114              	.L527:
 3115              	.LBE349:
 3116              	.LBE348:
 3117              		.loc 1 1972 0
 3118 0ce0 03B0     		add	sp, sp, #12
 3119              		.cfi_remember_state
 3120              		.cfi_def_cfa_offset 36
 3121              		@ sp needed
 3122 0ce2 BDE8F08F 		pop	{r4, r5, r6, r7, r8, r9, r10, fp, pc}
 3123              	.LVL442:
 3124              	.L500:
 3125              		.cfi_restore_state
 3126              	.LBB360:
 3127              	.LBB356:
 3128              		.loc 1 1641 0
 3129 0ce6 0024     		movs	r4, #0
 3130              		.loc 1 1643 0
ARM GAS  /tmp/ccJyHyK3.s 			page 56


 3131 0ce8 0123     		movs	r3, #1
 3132              	.LVL443:
 3133              	.L438:
 3134              		.loc 1 1662 0
 3135 0cea 9844     		add	r8, r8, r3
 3136              	.LVL444:
 3137              		.loc 1 1663 0
 3138 0cec 4FF00009 		mov	r9, #0
 3139              	.L492:
 3140              	.LVL445:
 3141              		.loc 1 1665 0
 3142 0cf0 012C     		cmp	r4, #1
 3143 0cf2 00F0B780 		beq	.L448
 3144 0cf6 022C     		cmp	r4, #2
 3145 0cf8 00F0B080 		beq	.L585
 3146              		.loc 1 1674 0
 3147 0cfc 002C     		cmp	r4, #0
 3148 0cfe EED0     		beq	.L440
 3149              	.L449:
 3150 0d00 07EB4402 		add	r2, r7, r4, lsl #1
 3151              	.LVL446:
 3152              	.L455:
 3153              		.loc 1 1675 0
 3154 0d04 32F8023D 		ldrh	r3, [r2, #-2]!
 3155              	.LVL447:
 3156              		.loc 1 1676 0
 3157 0d08 202B     		cmp	r3, #32
 3158 0d0a 01D0     		beq	.L453
 3159 0d0c 2E2B     		cmp	r3, #46
 3160 0d0e 02D1     		bne	.L454
 3161              	.L453:
 3162              		.loc 1 1674 0
 3163 0d10 013C     		subs	r4, r4, #1
 3164              	.LVL448:
 3165 0d12 F7D1     		bne	.L455
 3166 0d14 E3E7     		b	.L440
 3167              	.LVL449:
 3168              	.L454:
 3169              		.loc 1 1684 0
 3170 0d16 AB69     		ldr	r3, [r5, #24]
 3171              	.LVL450:
 3172              		.loc 1 1681 0
 3173 0d18 0022     		movs	r2, #0
 3174              	.LVL451:
 3175 0d1a 27F81420 		strh	r2, [r7, r4, lsl #1]	@ movhi
 3176 0d1e 03F10B01 		add	r1, r3, #11
 3177 0d22 07EB440E 		add	lr, r7, r4, lsl #1
 3178              	.LBB352:
 3179              	.LBB353:
 3180              		.loc 1 550 0
 3181 0d26 2022     		movs	r2, #32
 3182              	.LVL452:
 3183              	.L456:
 3184 0d28 03F8012B 		strb	r2, [r3], #1
 3185              	.LVL453:
 3186              		.loc 1 549 0
 3187 0d2c 8B42     		cmp	r3, r1
ARM GAS  /tmp/ccJyHyK3.s 			page 57


 3188 0d2e FBD1     		bne	.L456
 3189 0d30 BB1E     		subs	r3, r7, #2
 3190              	.LVL454:
 3191 0d32 0022     		movs	r2, #0
 3192 0d34 00E0     		b	.L457
 3193              	.LVL455:
 3194              	.L458:
 3195              	.LBE353:
 3196              	.LBE352:
 3197              		.loc 1 1685 0
 3198 0d36 0132     		adds	r2, r2, #1
 3199              	.LVL456:
 3200              	.L457:
 3201 0d38 33F8020F 		ldrh	r0, [r3, #2]!
 3202 0d3c 2028     		cmp	r0, #32
 3203 0d3e FAD0     		beq	.L458
 3204 0d40 2E28     		cmp	r0, #46
 3205 0d42 F8D0     		beq	.L458
 3206              		.loc 1 1686 0
 3207 0d44 9246     		mov	r10, r2
 3208 0d46 002A     		cmp	r2, #0
 3209 0d48 40F0BD80 		bne	.L586
 3210              	.L459:
 3211 0d4c 7346     		mov	r3, lr
 3212              	.LVL457:
 3213              	.L460:
 3214              		.loc 1 1687 0
 3215 0d4e 33F8022D 		ldrh	r2, [r3, #-2]!
 3216 0d52 2E2A     		cmp	r2, #46
 3217 0d54 01D0     		beq	.L463
 3218 0d56 013C     		subs	r4, r4, #1
 3219              	.LVL458:
 3220 0d58 F9D1     		bne	.L460
 3221              	.LVL459:
 3222              	.L463:
 3223              		.loc 1 1685 0
 3224 0d5a 4FF0000B 		mov	fp, #0
 3225 0d5e 5A46     		mov	r2, fp
 3226 0d60 0823     		movs	r3, #8
 3227              	.LVL460:
 3228              		.loc 1 1691 0
 3229 0d62 0AF1010A 		add	r10, r10, #1
 3230              	.LVL461:
 3231              		.loc 1 1692 0
 3232 0d66 60B3     		cbz	r0, .L464
 3233              	.LVL462:
 3234              	.L591:
 3235              		.loc 1 1693 0
 3236 0d68 2028     		cmp	r0, #32
 3237 0d6a 22D0     		beq	.L465
 3238 0d6c 2E28     		cmp	r0, #46
 3239 0d6e 1DD0     		beq	.L587
 3240              		.loc 1 1697 0
 3241 0d70 9B45     		cmp	fp, r3
 3242 0d72 65D2     		bcs	.L469
 3243 0d74 5445     		cmp	r4, r10
 3244 0d76 00F0A980 		beq	.L467
ARM GAS  /tmp/ccJyHyK3.s 			page 58


 3245              		.loc 1 1707 0
 3246 0d7a 7F28     		cmp	r0, #127
 3247 0d7c 00F2C280 		bhi	.L588
 3248              	.LVL463:
 3249              	.L476:
 3250              	.LBB354:
 3251              	.LBB355:
 3252              		.loc 1 566 0
 3253 0d80 2B28     		cmp	r0, #43
 3254 0d82 00F0CF80 		beq	.L478
 3255 0d86 DFF8E4E1 		ldr	lr, .L594+8
 3256 0d8a 02E0     		b	.L480
 3257              	.LVL464:
 3258              	.L589:
 3259 0d8c 8842     		cmp	r0, r1
 3260 0d8e 00F0C980 		beq	.L478
 3261              	.LVL465:
 3262              	.L480:
 3263 0d92 1EF8011F 		ldrb	r1, [lr, #1]!	@ zero_extendqisi2
 3264              	.LVL466:
 3265 0d96 0029     		cmp	r1, #0
 3266 0d98 F8D1     		bne	.L589
 3267              	.LBE355:
 3268              	.LBE354:
 3269              		.loc 1 1726 0
 3270 0d9a A0F14101 		sub	r1, r0, #65
 3271 0d9e 1929     		cmp	r1, #25
 3272 0da0 00F2D580 		bhi	.L590
 3273              		.loc 1 1727 0
 3274 0da4 42F00202 		orr	r2, r2, #2
 3275              	.LVL467:
 3276 0da8 C0B2     		uxtb	r0, r0
 3277              	.LVL468:
 3278 0daa BEE0     		b	.L481
 3279              	.LVL469:
 3280              	.L587:
 3281              		.loc 1 1693 0
 3282 0dac 5445     		cmp	r4, r10
 3283 0dae 00F08D80 		beq	.L467
 3284              	.L465:
 3285              		.loc 1 1694 0
 3286 0db2 49F00309 		orr	r9, r9, #3
 3287              	.LVL470:
 3288              	.L468:
 3289 0db6 37F81A00 		ldrh	r0, [r7, r10, lsl #1]
 3290              	.LVL471:
 3291              		.loc 1 1691 0
 3292 0dba 0AF1010A 		add	r10, r10, #1
 3293              	.LVL472:
 3294              		.loc 1 1692 0
 3295 0dbe 0028     		cmp	r0, #0
 3296 0dc0 D2D1     		bne	.L591
 3297              	.L464:
 3298              		.loc 1 1738 0
 3299 0dc2 A869     		ldr	r0, [r5, #24]
 3300              	.LVL473:
 3301 0dc4 0178     		ldrb	r1, [r0]	@ zero_extendqisi2
ARM GAS  /tmp/ccJyHyK3.s 			page 59


 3302 0dc6 E529     		cmp	r1, #229
 3303 0dc8 00F0B980 		beq	.L473
 3304 0dcc 1146     		mov	r1, r2
 3305              	.LVL474:
 3306              	.L483:
 3307              		.loc 1 1740 0
 3308 0dce 082B     		cmp	r3, #8
 3309 0dd0 04BF     		itt	eq
 3310 0dd2 9200     		lsleq	r2, r2, #2
 3311              	.LVL475:
 3312 0dd4 D1B2     		uxtbeq	r1, r2
 3313              	.LVL476:
 3314              	.L474:
 3315              		.loc 1 1741 0
 3316 0dd6 01F00C03 		and	r3, r1, #12
 3317 0dda 0C2B     		cmp	r3, #12
 3318 0ddc 00F0AB80 		beq	.L484
 3319 0de0 01F00302 		and	r2, r1, #3
 3320 0de4 032A     		cmp	r2, #3
 3321 0de6 00F0A680 		beq	.L484
 3322              	.L485:
 3323              		.loc 1 1743 0
 3324 0dea 19F0020F 		tst	r9, #2
 3325 0dee 09D1     		bne	.L486
 3326              		.loc 1 1744 0
 3327 0df0 01F00301 		and	r1, r1, #3
 3328              	.LVL477:
 3329 0df4 0129     		cmp	r1, #1
 3330 0df6 08BF     		it	eq
 3331 0df8 49F01009 		orreq	r9, r9, #16
 3332              	.LVL478:
 3333              		.loc 1 1745 0
 3334 0dfc 042B     		cmp	r3, #4
 3335 0dfe 08BF     		it	eq
 3336 0e00 49F00809 		orreq	r9, r9, #8
 3337              	.LVL479:
 3338              	.L486:
 3339              		.loc 1 1748 0
 3340 0e04 80F80B90 		strb	r9, [r0, #11]
 3341              	.LBE356:
 3342              	.LBE360:
 3343              	.LBB361:
 3344              	.LBB362:
 3345              		.loc 1 1363 0
 3346 0e08 0021     		movs	r1, #0
 3347 0e0a 2846     		mov	r0, r5
 3348 0e0c FFF7B8FB 		bl	dir_sdi
 3349              	.LVL480:
 3350              		.loc 1 1364 0
 3351 0e10 0028     		cmp	r0, #0
 3352 0e12 42D1     		bne	.L592
 3353              	.LVL481:
 3354              	.L495:
 3355 0e14 2846     		mov	r0, r5
 3356              	.LVL482:
 3357 0e16 FFF73BFE 		bl	dir_find.part.9
 3358              	.LVL483:
ARM GAS  /tmp/ccJyHyK3.s 			page 60


 3359              	.LBE362:
 3360              	.LBE361:
 3361              		.loc 1 1949 0
 3362 0e1a AB69     		ldr	r3, [r5, #24]
 3363 0e1c DB7A     		ldrb	r3, [r3, #11]	@ zero_extendqisi2
 3364              	.LVL484:
 3365              		.loc 1 1950 0
 3366 0e1e 0028     		cmp	r0, #0
 3367 0e20 3DD1     		bne	.L496
 3368              		.loc 1 1962 0
 3369 0e22 5A07     		lsls	r2, r3, #29
 3370 0e24 45D4     		bmi	.L491
 3371              		.loc 1 1963 0
 3372 0e26 6A69     		ldr	r2, [r5, #20]
 3373              	.LVL485:
 3374              		.loc 1 1964 0
 3375 0e28 D37A     		ldrb	r3, [r2, #11]	@ zero_extendqisi2
 3376              	.LVL486:
 3377 0e2a DB06     		lsls	r3, r3, #27
 3378 0e2c 40F1A680 		bpl	.L504
 3379              		.loc 1 1967 0
 3380 0e30 918A     		ldrh	r1, [r2, #20]
 3381 0e32 538B     		ldrh	r3, [r2, #26]
 3382 0e34 43EA0143 		orr	r3, r3, r1, lsl #16
 3383 0e38 AB60     		str	r3, [r5, #8]
 3384              	.LVL487:
 3385              	.L490:
 3386 0e3a 98F80000 		ldrb	r0, [r8]	@ zero_extendqisi2
 3387              	.LVL488:
 3388 0e3e 17E7     		b	.L435
 3389              	.LVL489:
 3390              	.L469:
 3391              	.LBB364:
 3392              	.LBB357:
 3393              		.loc 1 1698 0
 3394 0e40 0B2B     		cmp	r3, #11
 3395 0e42 45D0     		beq	.L497
 3396              		.loc 1 1701 0
 3397 0e44 5445     		cmp	r4, r10
 3398 0e46 02D0     		beq	.L475
 3399 0e48 49F00309 		orr	r9, r9, #3
 3400              	.LVL490:
 3401              		.loc 1 1702 0
 3402 0e4c B9D3     		bcc	.L464
 3403              	.L475:
 3404              	.LVL491:
 3405              		.loc 1 1704 0
 3406 0e4e 9200     		lsls	r2, r2, #2
 3407              	.LVL492:
 3408 0e50 D2B2     		uxtb	r2, r2
 3409              	.LVL493:
 3410 0e52 A246     		mov	r10, r4
 3411              		.loc 1 1703 0
 3412 0e54 0B23     		movs	r3, #11
 3413 0e56 4FF0080B 		mov	fp, #8
 3414 0e5a ACE7     		b	.L468
 3415              	.LVL494:
ARM GAS  /tmp/ccJyHyK3.s 			page 61


 3416              	.L585:
 3417              		.loc 1 1666 0
 3418 0e5c 7B88     		ldrh	r3, [r7, #2]
 3419 0e5e 2E2B     		cmp	r3, #46
 3420 0e60 7FF44EAF 		bne	.L449
 3421              	.L448:
 3422 0e64 3B88     		ldrh	r3, [r7]
 3423 0e66 2E2B     		cmp	r3, #46
 3424 0e68 7FF44AAF 		bne	.L449
 3425              		.loc 1 1667 0
 3426 0e6c 0023     		movs	r3, #0
 3427 0e6e 27F81430 		strh	r3, [r7, r4, lsl #1]	@ movhi
 3428              	.LVL495:
 3429              	.L451:
 3430              		.loc 1 1669 0
 3431 0e72 AA69     		ldr	r2, [r5, #24]
 3432 0e74 A342     		cmp	r3, r4
 3433 0e76 34BF     		ite	cc
 3434 0e78 2E21     		movcc	r1, #46
 3435 0e7a 2021     		movcs	r1, #32
 3436 0e7c D154     		strb	r1, [r2, r3]
 3437              		.loc 1 1668 0
 3438 0e7e 0133     		adds	r3, r3, #1
 3439              	.LVL496:
 3440 0e80 0B2B     		cmp	r3, #11
 3441 0e82 F6D1     		bne	.L451
 3442              		.loc 1 1670 0
 3443 0e84 AB69     		ldr	r3, [r5, #24]
 3444              	.LVL497:
 3445 0e86 49F02009 		orr	r9, r9, #32
 3446              	.LVL498:
 3447 0e8a 83F80B90 		strb	r9, [r3, #11]
 3448              	.LVL499:
 3449              	.LBE357:
 3450              	.LBE364:
 3451              	.LBB365:
 3452              	.LBB363:
 3453              		.loc 1 1363 0
 3454 0e8e 2846     		mov	r0, r5
 3455              	.LVL500:
 3456 0e90 0021     		movs	r1, #0
 3457 0e92 FFF775FB 		bl	dir_sdi
 3458              	.LVL501:
 3459              		.loc 1 1364 0
 3460 0e96 0028     		cmp	r0, #0
 3461 0e98 BCD0     		beq	.L495
 3462              	.L592:
 3463              	.LBE363:
 3464              	.LBE365:
 3465              		.loc 1 1949 0
 3466 0e9a AB69     		ldr	r3, [r5, #24]
 3467 0e9c DB7A     		ldrb	r3, [r3, #11]	@ zero_extendqisi2
 3468              	.LVL502:
 3469              	.L496:
 3470              		.loc 1 1951 0
 3471 0e9e 0428     		cmp	r0, #4
 3472 0ea0 7FF41EAF 		bne	.L527
ARM GAS  /tmp/ccJyHyK3.s 			page 62


 3473              		.loc 1 1953 0
 3474 0ea4 9C06     		lsls	r4, r3, #26
 3475 0ea6 63D5     		bpl	.L489
 3476              		.loc 1 1954 0
 3477 0ea8 0022     		movs	r2, #0
 3478              		.loc 1 1956 0
 3479 0eaa 5907     		lsls	r1, r3, #29
 3480              		.loc 1 1954 0
 3481 0eac AA60     		str	r2, [r5, #8]
 3482 0eae 6A61     		str	r2, [r5, #20]
 3483              	.LVL503:
 3484              		.loc 1 1956 0
 3485 0eb0 C3D5     		bpl	.L490
 3486              	.LVL504:
 3487              	.L491:
 3488              		.loc 1 1955 0
 3489 0eb2 0020     		movs	r0, #0
 3490              		.loc 1 1972 0
 3491 0eb4 03B0     		add	sp, sp, #12
 3492              		.cfi_remember_state
 3493              		.cfi_def_cfa_offset 36
 3494              		@ sp needed
 3495 0eb6 BDE8F08F 		pop	{r4, r5, r6, r7, r8, r9, r10, fp, pc}
 3496              	.LVL505:
 3497              	.L498:
 3498              		.cfi_restore_state
 3499              	.LBB366:
 3500              	.LBB358:
 3501              		.loc 1 1641 0
 3502 0eba 0024     		movs	r4, #0
 3503              		.loc 1 1643 0
 3504 0ebc 0123     		movs	r3, #1
 3505              	.LVL506:
 3506              	.L437:
 3507              		.loc 1 1662 0
 3508 0ebe 9844     		add	r8, r8, r3
 3509              	.LVL507:
 3510              		.loc 1 1663 0
 3511 0ec0 4FF00409 		mov	r9, #4
 3512 0ec4 14E7     		b	.L492
 3513              	.LVL508:
 3514              	.L586:
 3515              		.loc 1 1686 0
 3516 0ec6 49F00309 		orr	r9, r9, #3
 3517              	.LVL509:
 3518 0eca 3FE7     		b	.L459
 3519              	.LVL510:
 3520              	.L467:
 3521              		.loc 1 1698 0
 3522 0ecc 0B2B     		cmp	r3, #11
 3523 0ece BED1     		bne	.L475
 3524              	.L497:
 3525              		.loc 1 1738 0
 3526 0ed0 A869     		ldr	r0, [r5, #24]
 3527              	.LVL511:
 3528 0ed2 0378     		ldrb	r3, [r0]	@ zero_extendqisi2
 3529              	.LVL512:
ARM GAS  /tmp/ccJyHyK3.s 			page 63


 3530 0ed4 E52B     		cmp	r3, #229
 3531              		.loc 1 1699 0
 3532 0ed6 49F00309 		orr	r9, r9, #3
 3533              	.LVL513:
 3534              		.loc 1 1738 0
 3535 0eda 2FD0     		beq	.L502
 3536 0edc 1146     		mov	r1, r2
 3537 0ede 7AE7     		b	.L474
 3538              	.LVL514:
 3539              	.L429:
 3540              	.LBE358:
 3541              	.LBE366:
 3542              		.loc 1 1930 0
 3543 0ee0 0023     		movs	r3, #0
 3544 0ee2 08F10108 		add	r8, r8, #1
 3545              	.LVL515:
 3546 0ee6 AB60     		str	r3, [r5, #8]
 3547              		.loc 1 1940 0
 3548 0ee8 98F80000 		ldrb	r0, [r8]	@ zero_extendqisi2
 3549              	.LVL516:
 3550 0eec 1F28     		cmp	r0, #31
 3551 0eee 3FF6BBAE 		bhi	.L593
 3552              	.LVL517:
 3553              	.L432:
 3554              		.loc 1 1941 0
 3555 0ef2 2846     		mov	r0, r5
 3556 0ef4 0021     		movs	r1, #0
 3557 0ef6 FFF743FB 		bl	dir_sdi
 3558              	.LVL518:
 3559              		.loc 1 1942 0
 3560 0efa 0023     		movs	r3, #0
 3561 0efc 6B61     		str	r3, [r5, #20]
 3562              		.loc 1 1972 0
 3563 0efe 03B0     		add	sp, sp, #12
 3564              		.cfi_remember_state
 3565              		.cfi_def_cfa_offset 36
 3566              		@ sp needed
 3567 0f00 BDE8F08F 		pop	{r4, r5, r6, r7, r8, r9, r10, fp, pc}
 3568              	.LVL519:
 3569              	.L588:
 3570              		.cfi_restore_state
 3571              	.LBB367:
 3572              	.LBB359:
 3573              		.loc 1 1709 0
 3574 0f04 0021     		movs	r1, #0
 3575 0f06 0192     		str	r2, [sp, #4]
 3576 0f08 0093     		str	r3, [sp]
 3577 0f0a FFF7FEFF 		bl	ff_convert
 3578              	.LVL520:
 3579              		.loc 1 1710 0
 3580 0f0e 009B     		ldr	r3, [sp]
 3581 0f10 019A     		ldr	r2, [sp, #4]
 3582 0f12 C8B1     		cbz	r0, .L477
 3583 0f14 3044     		add	r0, r0, r6
 3584              	.LVL521:
 3585              		.loc 1 1714 0
 3586 0f16 49F00209 		orr	r9, r9, #2
ARM GAS  /tmp/ccJyHyK3.s 			page 64


 3587              	.LVL522:
 3588              		.loc 1 1710 0
 3589 0f1a 10F8700C 		ldrb	r0, [r0, #-112]	@ zero_extendqisi2
 3590              	.LVL523:
 3591              		.loc 1 1723 0
 3592 0f1e 0028     		cmp	r0, #0
 3593 0f20 7FF42EAF 		bne	.L476
 3594              	.LVL524:
 3595              	.L478:
 3596              		.loc 1 1724 0
 3597 0f24 49F00309 		orr	r9, r9, #3
 3598              	.LVL525:
 3599 0f28 5F20     		movs	r0, #95
 3600              	.LVL526:
 3601              	.L481:
 3602              		.loc 1 1735 0
 3603 0f2a A969     		ldr	r1, [r5, #24]
 3604 0f2c 01F80B00 		strb	r0, [r1, fp]
 3605 0f30 0BF1010B 		add	fp, fp, #1
 3606              	.LVL527:
 3607 0f34 3FE7     		b	.L468
 3608              	.LVL528:
 3609              	.L484:
 3610              		.loc 1 1742 0
 3611 0f36 49F00209 		orr	r9, r9, #2
 3612              	.LVL529:
 3613 0f3a 56E7     		b	.L485
 3614              	.LVL530:
 3615              	.L502:
 3616              		.loc 1 1738 0
 3617 0f3c 0B23     		movs	r3, #11
 3618              	.L473:
 3619 0f3e 0521     		movs	r1, #5
 3620 0f40 0170     		strb	r1, [r0]
 3621 0f42 A869     		ldr	r0, [r5, #24]
 3622 0f44 1146     		mov	r1, r2
 3623 0f46 42E7     		b	.L483
 3624              	.LVL531:
 3625              	.L477:
 3626              		.loc 1 1714 0
 3627 0f48 49F00209 		orr	r9, r9, #2
 3628              	.LVL532:
 3629 0f4c EAE7     		b	.L478
 3630              	.LVL533:
 3631              	.L590:
 3632              		.loc 1 1729 0
 3633 0f4e A0F16101 		sub	r1, r0, #97
 3634 0f52 1929     		cmp	r1, #25
 3635              		.loc 1 1730 0
 3636 0f54 97BF     		itett	ls
 3637 0f56 2038     		subls	r0, r0, #32
 3638              	.LVL534:
 3639 0f58 C0B2     		uxtbhi	r0, r0
 3640 0f5a C0B2     		uxtbls	r0, r0
 3641 0f5c 42F00102 		orrls	r2, r2, #1
 3642              	.LVL535:
 3643 0f60 E3E7     		b	.L481
ARM GAS  /tmp/ccJyHyK3.s 			page 65


 3644              	.L595:
 3645 0f62 00BF     		.align	2
 3646              	.L594:
 3647 0f64 00000000 		.word	.LANCHOR1
 3648 0f68 00000000 		.word	.LC0
 3649 0f6c 0C000000 		.word	.LC1
 3650              	.LVL536:
 3651              	.L489:
 3652              	.LBE359:
 3653              	.LBE367:
 3654              		.loc 1 1958 0
 3655 0f70 13F0040F 		tst	r3, #4
 3656 0f74 14BF     		ite	ne
 3657 0f76 0420     		movne	r0, #4
 3658 0f78 0520     		moveq	r0, #5
 3659 0f7a B1E6     		b	.L527
 3660              	.LVL537:
 3661              	.L504:
 3662              		.loc 1 1965 0
 3663 0f7c 0520     		movs	r0, #5
 3664 0f7e AFE6     		b	.L527
 3665              		.cfi_endproc
 3666              	.LFE34:
 3667              		.size	follow_path, .-follow_path
 3668              		.align	2
 3669              		.p2align 4,,15
 3670              		.global	clust2sect
 3671              		.thumb
 3672              		.thumb_func
 3673              		.type	clust2sect, %function
 3674              	clust2sect:
 3675              	.LFB15:
 3676              		.loc 1 805 0
 3677              		.cfi_startproc
 3678              		@ args = 0, pretend = 0, frame = 0
 3679              		@ frame_needed = 0, uses_anonymous_args = 0
 3680              		@ link register save eliminated.
 3681              	.LVL538:
 3682              		.loc 1 807 0
 3683 0f80 036A     		ldr	r3, [r0, #32]
 3684              		.loc 1 806 0
 3685 0f82 0239     		subs	r1, r1, #2
 3686              	.LVL539:
 3687              		.loc 1 807 0
 3688 0f84 023B     		subs	r3, r3, #2
 3689 0f86 9942     		cmp	r1, r3
 3690              		.loc 1 808 0
 3691 0f88 3DBF     		ittte	cc
 3692 0f8a 8278     		ldrbcc	r2, [r0, #2]	@ zero_extendqisi2
 3693 0f8c 036B     		ldrcc	r3, [r0, #48]
 3694 0f8e 02FB0130 		mlacc	r0, r2, r1, r3
 3695              	.LVL540:
 3696              		.loc 1 807 0
 3697 0f92 0020     		movcs	r0, #0
 3698              		.loc 1 809 0
 3699 0f94 7047     		bx	lr
 3700              		.cfi_endproc
ARM GAS  /tmp/ccJyHyK3.s 			page 66


 3701              	.LFE15:
 3702              		.size	clust2sect, .-clust2sect
 3703 0f96 00BF     		.align	2
 3704 0f98 AFF30080 		.p2align 4,,15
 3704      AFF30080 
 3705              		.global	get_fat
 3706              		.thumb
 3707              		.thumb_func
 3708              		.type	get_fat, %function
 3709              	get_fat:
 3710              	.LFB16:
 3711              		.loc 1 823 0
 3712              		.cfi_startproc
 3713              		@ args = 0, pretend = 0, frame = 0
 3714              		@ frame_needed = 0, uses_anonymous_args = 0
 3715              		@ link register save eliminated.
 3716              	.LVL541:
 3717              		.loc 1 828 0
 3718 0fa0 0129     		cmp	r1, #1
 3719 0fa2 04D9     		bls	.L600
 3720              		.loc 1 828 0 is_stmt 0 discriminator 1
 3721 0fa4 026A     		ldr	r2, [r0, #32]
 3722 0fa6 9142     		cmp	r1, r2
 3723 0fa8 01D2     		bcs	.L600
 3724 0faa FFF799BA 		b	get_fat.part.7
 3725              	.LVL542:
 3726              	.L600:
 3727              		.loc 1 852 0 is_stmt 1
 3728 0fae 0120     		movs	r0, #1
 3729              	.LVL543:
 3730 0fb0 7047     		bx	lr
 3731              		.cfi_endproc
 3732              	.LFE16:
 3733              		.size	get_fat, .-get_fat
 3734 0fb2 00BF     		.align	2
 3735 0fb4 AFF30080 		.p2align 4,,15
 3735      AFF30080 
 3735      AFF30080 
 3736              		.global	put_fat
 3737              		.thumb
 3738              		.thumb_func
 3739              		.type	put_fat, %function
 3740              	put_fat:
 3741              	.LFB17:
 3742              		.loc 1 867 0
 3743              		.cfi_startproc
 3744              		@ args = 0, pretend = 0, frame = 0
 3745              		@ frame_needed = 0, uses_anonymous_args = 0
 3746              		@ link register save eliminated.
 3747              	.LVL544:
 3748              		.loc 1 873 0
 3749 0fc0 0129     		cmp	r1, #1
 3750 0fc2 07D9     		bls	.L608
 3751              		.loc 1 867 0 discriminator 1
 3752 0fc4 10B4     		push	{r4}
 3753              		.cfi_def_cfa_offset 4
 3754              		.cfi_offset 4, -4
ARM GAS  /tmp/ccJyHyK3.s 			page 67


 3755              		.loc 1 873 0 discriminator 1
 3756 0fc6 046A     		ldr	r4, [r0, #32]
 3757 0fc8 A142     		cmp	r1, r4
 3758 0fca 05D3     		bcc	.L609
 3759              		.loc 1 914 0
 3760 0fcc 0220     		movs	r0, #2
 3761              	.LVL545:
 3762 0fce 5DF8044B 		ldr	r4, [sp], #4
 3763              		.cfi_restore 4
 3764              		.cfi_def_cfa_offset 0
 3765 0fd2 7047     		bx	lr
 3766              	.LVL546:
 3767              	.L608:
 3768 0fd4 0220     		movs	r0, #2
 3769              	.LVL547:
 3770 0fd6 7047     		bx	lr
 3771              	.LVL548:
 3772              	.L609:
 3773              		.cfi_def_cfa_offset 4
 3774              		.cfi_offset 4, -4
 3775 0fd8 5DF8044B 		ldr	r4, [sp], #4
 3776              		.cfi_restore 4
 3777              		.cfi_def_cfa_offset 0
 3778 0fdc FFF720BB 		b	put_fat.part.8
 3779              	.LVL549:
 3780              		.cfi_endproc
 3781              	.LFE17:
 3782              		.size	put_fat, .-put_fat
 3783              		.align	2
 3784              		.p2align 4,,15
 3785              		.global	gen_numname
 3786              		.thumb
 3787              		.thumb_func
 3788              		.type	gen_numname, %function
 3789              	gen_numname:
 3790              	.LFB26:
 3791              		.loc 1 1291 0
 3792              		.cfi_startproc
 3793              		@ args = 0, pretend = 0, frame = 8
 3794              		@ frame_needed = 0, uses_anonymous_args = 0
 3795              		@ link register save eliminated.
 3796              	.LVL550:
 3797 0fe0 70B4     		push	{r4, r5, r6}
 3798              		.cfi_def_cfa_offset 12
 3799              		.cfi_offset 4, -12
 3800              		.cfi_offset 5, -8
 3801              		.cfi_offset 6, -4
 3802              	.LBB368:
 3803              	.LBB369:
 3804              		.loc 1 535 0
 3805 0fe2 0C68     		ldr	r4, [r1]
 3806 0fe4 0460     		str	r4, [r0]
 3807              	.LVL551:
 3808 0fe6 4C68     		ldr	r4, [r1, #4]
 3809 0fe8 4460     		str	r4, [r0, #4]
 3810              	.LVL552:
 3811              	.LBE369:
ARM GAS  /tmp/ccJyHyK3.s 			page 68


 3812              	.LBE368:
 3813              		.loc 1 1291 0
 3814 0fea 83B0     		sub	sp, sp, #12
 3815              		.cfi_def_cfa_offset 24
 3816              	.LBB371:
 3817              	.LBB370:
 3818              		.loc 1 536 0
 3819 0fec 01F10804 		add	r4, r1, #8
 3820              	.LVL553:
 3821 0ff0 C51D     		adds	r5, r0, #7
 3822 0ff2 0B31     		adds	r1, r1, #11
 3823              	.LVL554:
 3824              	.L611:
 3825              		.loc 1 541 0
 3826 0ff4 14F8016B 		ldrb	r6, [r4], #1	@ zero_extendqisi2
 3827              	.LVL555:
 3828 0ff8 05F8016F 		strb	r6, [r5, #1]!
 3829              	.LVL556:
 3830              		.loc 1 540 0
 3831 0ffc 8C42     		cmp	r4, r1
 3832 0ffe F9D1     		bne	.L611
 3833              	.LBE370:
 3834              	.LBE371:
 3835              		.loc 1 1298 0
 3836 1000 052B     		cmp	r3, #5
 3837 1002 0CD9     		bls	.L612
 3838 1004 1488     		ldrh	r4, [r2]
 3839              	.LVL557:
 3840 1006 00E0     		b	.L613
 3841              	.LVL558:
 3842              	.L620:
 3843 1008 0C46     		mov	r4, r1
 3844              	.LVL559:
 3845              	.L613:
 3846              		.loc 1 1299 0 discriminator 1
 3847 100a D903     		lsls	r1, r3, #15
 3848 100c 41EA5303 		orr	r3, r1, r3, lsr #1
 3849              	.LVL560:
 3850 1010 32F8021F 		ldrh	r1, [r2, #2]!
 3851              	.LVL561:
 3852 1014 14FA83F3 		uxtah	r3, r4, r3
 3853 1018 9BB2     		uxth	r3, r3
 3854              	.LVL562:
 3855 101a 0029     		cmp	r1, #0
 3856 101c F4D1     		bne	.L620
 3857              	.LVL563:
 3858              	.L612:
 3859 101e 02AD     		add	r5, sp, #8
 3860 1020 0721     		movs	r1, #7
 3861              	.LVL564:
 3862              	.L615:
 3863              		.loc 1 1305 0
 3864 1022 03F00F04 		and	r4, r3, #15
 3865 1026 04F13002 		add	r2, r4, #48
 3866              	.LVL565:
 3867              		.loc 1 1306 0
 3868 102a 392A     		cmp	r2, #57
ARM GAS  /tmp/ccJyHyK3.s 			page 69


 3869 102c 88BF     		it	hi
 3870 102e 04F13702 		addhi	r2, r4, #55
 3871              	.LVL566:
 3872              		.loc 1 1309 0
 3873 1032 1B09     		lsrs	r3, r3, #4
 3874              	.LVL567:
 3875              		.loc 1 1307 0
 3876 1034 01F1FF31 		add	r1, r1, #-1
 3877              	.LVL568:
 3878 1038 05F8012D 		strb	r2, [r5, #-1]!
 3879              		.loc 1 1309 0
 3880 103c F1D1     		bne	.L615
 3881              		.loc 1 1310 0
 3882 103e 02AA     		add	r2, sp, #8
 3883              	.LVL569:
 3884 1040 0A44     		add	r2, r2, r1
 3885 1042 7E24     		movs	r4, #126
 3886 1044 02F8084C 		strb	r4, [r2, #-8]
 3887              	.LVL570:
 3888              		.loc 1 1307 0
 3889 1048 0A46     		mov	r2, r1
 3890              		.loc 1 1313 0
 3891 104a E9B1     		cbz	r1, .L621
 3892 104c 0478     		ldrb	r4, [r0]	@ zero_extendqisi2
 3893 104e 202C     		cmp	r4, #32
 3894 1050 08D0     		beq	.L616
 3895 1052 0446     		mov	r4, r0
 3896 1054 03E0     		b	.L617
 3897              	.LVL571:
 3898              	.L631:
 3899              		.loc 1 1313 0 is_stmt 0 discriminator 3
 3900 1056 14F8015F 		ldrb	r5, [r4, #1]!	@ zero_extendqisi2
 3901 105a 202D     		cmp	r5, #32
 3902 105c 02D0     		beq	.L616
 3903              	.LVL572:
 3904              	.L617:
 3905              		.loc 1 1313 0 discriminator 2
 3906 105e 0133     		adds	r3, r3, #1
 3907              	.LVL573:
 3908 1060 8B42     		cmp	r3, r1
 3909 1062 F8D1     		bne	.L631
 3910              	.LVL574:
 3911              	.L616:
 3912 1064 1844     		add	r0, r0, r3
 3913              	.LVL575:
 3914              	.L619:
 3915              		.loc 1 1320 0 is_stmt 1
 3916 1066 02A9     		add	r1, sp, #8
 3917 1068 1144     		add	r1, r1, r2
 3918 106a 072A     		cmp	r2, #7
 3919 106c 03F10103 		add	r3, r3, #1
 3920              	.LVL576:
 3921 1070 96BF     		itet	ls
 3922 1072 11F8081C 		ldrbls	r1, [r1, #-8]	@ zero_extendqisi2
 3923 1076 2021     		movhi	r1, #32
 3924 1078 0132     		addls	r2, r2, #1
 3925              	.LVL577:
ARM GAS  /tmp/ccJyHyK3.s 			page 70


 3926              		.loc 1 1321 0
 3927 107a 072B     		cmp	r3, #7
 3928              		.loc 1 1320 0
 3929 107c 00F8011B 		strb	r1, [r0], #1
 3930              		.loc 1 1321 0
 3931 1080 F1D9     		bls	.L619
 3932              		.loc 1 1322 0
 3933 1082 03B0     		add	sp, sp, #12
 3934              		.cfi_remember_state
 3935              		.cfi_def_cfa_offset 12
 3936              		@ sp needed
 3937 1084 70BC     		pop	{r4, r5, r6}
 3938              		.cfi_restore 6
 3939              		.cfi_restore 5
 3940              		.cfi_restore 4
 3941              		.cfi_def_cfa_offset 0
 3942 1086 7047     		bx	lr
 3943              	.LVL578:
 3944              	.L621:
 3945              		.cfi_restore_state
 3946              		.loc 1 1313 0
 3947 1088 1A46     		mov	r2, r3
 3948 108a EBE7     		b	.L616
 3949              		.cfi_endproc
 3950              	.LFE26:
 3951              		.size	gen_numname, .-gen_numname
 3952              		.align	2
 3953 108c AFF30080 		.p2align 4,,15
 3954              		.thumb
 3955              		.thumb_func
 3956              		.type	dir_register, %function
 3957              	dir_register:
 3958              	.LFB30:
 3959              		.loc 1 1474 0
 3960              		.cfi_startproc
 3961              		@ args = 0, pretend = 0, frame = 16
 3962              		@ frame_needed = 0, uses_anonymous_args = 0
 3963              	.LVL579:
 3964 1090 2DE9F047 		push	{r4, r5, r6, r7, r8, r9, r10, lr}
 3965              		.cfi_def_cfa_offset 32
 3966              		.cfi_offset 4, -32
 3967              		.cfi_offset 5, -28
 3968              		.cfi_offset 6, -24
 3969              		.cfi_offset 7, -20
 3970              		.cfi_offset 8, -16
 3971              		.cfi_offset 9, -12
 3972              		.cfi_offset 10, -8
 3973              		.cfi_offset 14, -4
 3974              		.loc 1 1483 0
 3975 1094 8669     		ldr	r6, [r0, #24]
 3976              	.LVL580:
 3977 1096 C769     		ldr	r7, [r0, #28]
 3978              	.LVL581:
 3979              		.loc 1 1474 0
 3980 1098 84B0     		sub	sp, sp, #16
 3981              		.cfi_def_cfa_offset 48
 3982              	.LVL582:
ARM GAS  /tmp/ccJyHyK3.s 			page 71


 3983 109a 321F     		subs	r2, r6, #4
 3984              	.LBB384:
 3985              	.LBB385:
 3986              		.loc 1 530 0
 3987 109c 01AB     		add	r3, sp, #4
 3988              	.LVL583:
 3989              	.L633:
 3990              		.loc 1 535 0
 3991 109e 52F8041F 		ldr	r1, [r2, #4]!
 3992              	.LVL584:
 3993 10a2 43F8041B 		str	r1, [r3], #4
 3994              	.LVL585:
 3995              		.loc 1 534 0
 3996 10a6 04A9     		add	r1, sp, #16
 3997 10a8 8B42     		cmp	r3, r1
 3998 10aa F8D1     		bne	.L633
 3999              	.LVL586:
 4000              	.LBE385:
 4001              	.LBE384:
 4002              		.loc 1 1486 0
 4003 10ac 9DF80F20 		ldrb	r2, [sp, #15]	@ zero_extendqisi2
 4004 10b0 02F02003 		and	r3, r2, #32
 4005 10b4 03F0FF01 		and	r1, r3, #255
 4006              	.LVL587:
 4007 10b8 1BB1     		cbz	r3, .L690
 4008              		.loc 1 1487 0
 4009 10ba 0620     		movs	r0, #6
 4010              	.LVL588:
 4011              	.L685:
 4012              		.loc 1 1567 0
 4013 10bc 04B0     		add	sp, sp, #16
 4014              		.cfi_remember_state
 4015              		.cfi_def_cfa_offset 32
 4016              	.LVL589:
 4017              		@ sp needed
 4018 10be BDE8F087 		pop	{r4, r5, r6, r7, r8, r9, r10, pc}
 4019              	.LVL590:
 4020              	.L690:
 4021              		.cfi_restore_state
 4022 10c2 0446     		mov	r4, r0
 4023              		.loc 1 1489 0
 4024 10c4 D007     		lsls	r0, r2, #31
 4025              	.LVL591:
 4026 10c6 20D5     		bpl	.L635
 4027              		.loc 1 1490 0
 4028 10c8 F172     		strb	r1, [r6, #11]
 4029              		.loc 1 1491 0
 4030 10ca 0125     		movs	r5, #1
 4031              		.loc 1 1490 0
 4032 10cc E161     		str	r1, [r4, #28]
 4033              	.LVL592:
 4034 10ce 08E0     		b	.L637
 4035              	.LVL593:
 4036              	.L692:
 4037              	.LBB386:
 4038              	.LBB387:
 4039 10d0 2046     		mov	r0, r4
ARM GAS  /tmp/ccJyHyK3.s 			page 72


 4040              	.LVL594:
 4041 10d2 FFF7DDFC 		bl	dir_find.part.9
 4042              	.LVL595:
 4043              	.LBE387:
 4044              	.LBE386:
 4045              		.loc 1 1491 0
 4046 10d6 0135     		adds	r5, r5, #1
 4047              	.LVL596:
 4048 10d8 ADB2     		uxth	r5, r5
 4049              	.LVL597:
 4050              		.loc 1 1494 0
 4051 10da 70B9     		cbnz	r0, .L636
 4052              		.loc 1 1491 0 discriminator 2
 4053 10dc 642D     		cmp	r5, #100
 4054 10de 00F0DF80 		beq	.L691
 4055              	.LVL598:
 4056              	.L637:
 4057              		.loc 1 1492 0
 4058 10e2 3046     		mov	r0, r6
 4059 10e4 01A9     		add	r1, sp, #4
 4060              	.LVL599:
 4061 10e6 3A46     		mov	r2, r7
 4062 10e8 2B46     		mov	r3, r5
 4063 10ea FFF7FEFF 		bl	gen_numname
 4064              	.LVL600:
 4065              	.LBB389:
 4066              	.LBB388:
 4067              		.loc 1 1363 0
 4068 10ee 2046     		mov	r0, r4
 4069 10f0 0021     		movs	r1, #0
 4070 10f2 FFF745FA 		bl	dir_sdi
 4071              	.LVL601:
 4072              		.loc 1 1364 0
 4073 10f6 0028     		cmp	r0, #0
 4074 10f8 EAD0     		beq	.L692
 4075              	.LVL602:
 4076              	.L636:
 4077              	.LBE388:
 4078              	.LBE389:
 4079              		.loc 1 1497 0
 4080 10fa 0428     		cmp	r0, #4
 4081 10fc DED1     		bne	.L685
 4082              		.loc 1 1498 0
 4083 10fe 9DF80F30 		ldrb	r3, [sp, #15]	@ zero_extendqisi2
 4084 1102 F372     		strb	r3, [r6, #11]
 4085 1104 9DF80F20 		ldrb	r2, [sp, #15]	@ zero_extendqisi2
 4086 1108 E761     		str	r7, [r4, #28]
 4087              	.LVL603:
 4088              	.L635:
 4089              		.loc 1 1501 0
 4090 110a 9307     		lsls	r3, r2, #30
 4091 110c 4FD4     		bmi	.L693
 4092              	.L663:
 4093              		.loc 1 1505 0
 4094 110e 0127     		movs	r7, #1
 4095              	.LVL604:
 4096              	.L638:
ARM GAS  /tmp/ccJyHyK3.s 			page 73


 4097              		.loc 1 1509 0
 4098 1110 2046     		mov	r0, r4
 4099 1112 0021     		movs	r1, #0
 4100 1114 FFF734FA 		bl	dir_sdi
 4101              	.LVL605:
 4102              		.loc 1 1510 0
 4103 1118 0028     		cmp	r0, #0
 4104 111a CFD1     		bne	.L685
 4105 111c 8046     		mov	r8, r0
 4106 111e 0546     		mov	r5, r0
 4107 1120 05E0     		b	.L646
 4108              	.LVL606:
 4109              	.L666:
 4110              		.loc 1 1520 0
 4111 1122 1D46     		mov	r5, r3
 4112              	.LVL607:
 4113              	.L643:
 4114              		.loc 1 1522 0
 4115 1124 FFF75CFB 		bl	dir_next
 4116              	.LVL608:
 4117              		.loc 1 1523 0
 4118 1128 0346     		mov	r3, r0
 4119 112a 0028     		cmp	r0, #0
 4120 112c 52D1     		bne	.L647
 4121              	.LVL609:
 4122              	.L646:
 4123              		.loc 1 1513 0
 4124 112e 2169     		ldr	r1, [r4, #16]
 4125 1130 2068     		ldr	r0, [r4]
 4126              	.LVL610:
 4127 1132 FEF765FF 		bl	move_window
 4128              	.LVL611:
 4129              		.loc 1 1522 0
 4130 1136 0121     		movs	r1, #1
 4131              		.loc 1 1514 0
 4132 1138 0346     		mov	r3, r0
 4133              		.loc 1 1518 0
 4134 113a 6E18     		adds	r6, r5, r1
 4135              		.loc 1 1514 0
 4136 113c 0028     		cmp	r0, #0
 4137 113e 49D1     		bne	.L647
 4138              		.loc 1 1515 0
 4139 1140 6269     		ldr	r2, [r4, #20]
 4140 1142 1278     		ldrb	r2, [r2]	@ zero_extendqisi2
 4141              	.LVL612:
 4142              		.loc 1 1516 0
 4143 1144 E52A     		cmp	r2, #229
 4144              		.loc 1 1522 0
 4145 1146 2046     		mov	r0, r4
 4146              	.LVL613:
 4147              		.loc 1 1516 0
 4148 1148 01D0     		beq	.L642
 4149              	.LVL614:
 4150              		.loc 1 1516 0 is_stmt 0 discriminator 1
 4151 114a 002A     		cmp	r2, #0
 4152 114c E9D1     		bne	.L666
 4153              	.L642:
ARM GAS  /tmp/ccJyHyK3.s 			page 74


 4154              		.loc 1 1517 0 is_stmt 1
 4155 114e 0DB9     		cbnz	r5, .L644
 4156              		.loc 1 1517 0 is_stmt 0 discriminator 1
 4157 1150 B4F80680 		ldrh	r8, [r4, #6]
 4158              	.LVL615:
 4159              	.L644:
 4160              		.loc 1 1518 0 is_stmt 1
 4161 1154 B5B2     		uxth	r5, r6
 4162              	.LVL616:
 4163 1156 BD42     		cmp	r5, r7
 4164 1158 E4D1     		bne	.L643
 4165              	.LVL617:
 4166              		.loc 1 1525 0
 4167 115a 012F     		cmp	r7, #1
 4168 115c 3CD1     		bne	.L659
 4169              	.LVL618:
 4170              	.L655:
 4171              		.loc 1 1554 0
 4172 115e 2068     		ldr	r0, [r4]
 4173 1160 2169     		ldr	r1, [r4, #16]
 4174 1162 FEF74DFF 		bl	move_window
 4175              	.LVL619:
 4176              		.loc 1 1555 0
 4177 1166 0028     		cmp	r0, #0
 4178 1168 A8D1     		bne	.L685
 4179              		.loc 1 1556 0
 4180 116a 6569     		ldr	r5, [r4, #20]
 4181              	.LVL620:
 4182              	.LBB390:
 4183              	.LBB391:
 4184              		.loc 1 550 0
 4185 116c 0346     		mov	r3, r0
 4186 116e 05F12001 		add	r1, r5, #32
 4187              	.LBE391:
 4188              	.LBE390:
 4189              		.loc 1 1556 0
 4190 1172 2A46     		mov	r2, r5
 4191              	.LVL621:
 4192              	.L656:
 4193              	.LBB393:
 4194              	.LBB392:
 4195              		.loc 1 550 0
 4196 1174 02F8013B 		strb	r3, [r2], #1
 4197              	.LVL622:
 4198              		.loc 1 549 0
 4199 1178 8A42     		cmp	r2, r1
 4200 117a FBD1     		bne	.L656
 4201              	.LBE392:
 4202              	.LBE393:
 4203              		.loc 1 1558 0
 4204 117c A069     		ldr	r0, [r4, #24]
 4205              	.LVL623:
 4206              	.LBB394:
 4207              	.LBB395:
 4208              		.loc 1 535 0
 4209 117e 0368     		ldr	r3, [r0]
 4210 1180 2B60     		str	r3, [r5]
ARM GAS  /tmp/ccJyHyK3.s 			page 75


 4211              	.LVL624:
 4212 1182 4368     		ldr	r3, [r0, #4]
 4213 1184 6B60     		str	r3, [r5, #4]
 4214              	.LVL625:
 4215 1186 EA1D     		adds	r2, r5, #7
 4216              	.LVL626:
 4217              		.loc 1 536 0
 4218 1188 00F10803 		add	r3, r0, #8
 4219              	.LVL627:
 4220 118c 0B30     		adds	r0, r0, #11
 4221              	.LVL628:
 4222              	.L657:
 4223              		.loc 1 541 0
 4224 118e 13F8011B 		ldrb	r1, [r3], #1	@ zero_extendqisi2
 4225              	.LVL629:
 4226 1192 02F8011F 		strb	r1, [r2, #1]!
 4227              	.LVL630:
 4228              		.loc 1 540 0
 4229 1196 8342     		cmp	r3, r0
 4230 1198 F9D1     		bne	.L657
 4231              	.LBE395:
 4232              	.LBE394:
 4233              		.loc 1 1560 0
 4234 119a A369     		ldr	r3, [r4, #24]
 4235              	.LVL631:
 4236 119c DB7A     		ldrb	r3, [r3, #11]	@ zero_extendqisi2
 4237 119e 03F01803 		and	r3, r3, #24
 4238 11a2 2B73     		strb	r3, [r5, #12]
 4239              		.loc 1 1562 0
 4240 11a4 2368     		ldr	r3, [r4]
 4241 11a6 0122     		movs	r2, #1
 4242 11a8 1A71     		strb	r2, [r3, #4]
 4243 11aa 0020     		movs	r0, #0
 4244              	.LVL632:
 4245 11ac 86E7     		b	.L685
 4246              	.LVL633:
 4247              	.L693:
 4248              		.loc 1 1502 0 discriminator 1
 4249 11ae 3B88     		ldrh	r3, [r7]
 4250 11b0 002B     		cmp	r3, #0
 4251 11b2 ACD0     		beq	.L663
 4252              		.loc 1 1502 0 is_stmt 0
 4253 11b4 0023     		movs	r3, #0
 4254              	.LVL634:
 4255              	.L640:
 4256              		.loc 1 1502 0 discriminator 3
 4257 11b6 0133     		adds	r3, r3, #1
 4258              	.LVL635:
 4259 11b8 9BB2     		uxth	r3, r3
 4260              	.LVL636:
 4261 11ba 37F81320 		ldrh	r2, [r7, r3, lsl #1]
 4262 11be 002A     		cmp	r2, #0
 4263 11c0 F9D1     		bne	.L640
 4264 11c2 384A     		ldr	r2, .L696
 4265 11c4 1933     		adds	r3, r3, #25
 4266              	.LVL637:
 4267 11c6 82FB0312 		smull	r1, r2, r2, r3
ARM GAS  /tmp/ccJyHyK3.s 			page 76


 4268 11ca DB17     		asrs	r3, r3, #31
 4269              	.LVL638:
 4270 11cc C3EBA203 		rsb	r3, r3, r2, asr #2
 4271 11d0 9FB2     		uxth	r7, r3
 4272              	.LVL639:
 4273 11d2 9DE7     		b	.L638
 4274              	.LVL640:
 4275              	.L647:
 4276 11d4 1846     		mov	r0, r3
 4277 11d6 71E7     		b	.L685
 4278              	.LVL641:
 4279              	.L659:
 4280              		.loc 1 1526 0 is_stmt 1
 4281 11d8 4146     		mov	r1, r8
 4282 11da 2046     		mov	r0, r4
 4283              	.LVL642:
 4284 11dc FFF7D0F9 		bl	dir_sdi
 4285              	.LVL643:
 4286              		.loc 1 1527 0
 4287 11e0 0346     		mov	r3, r0
 4288 11e2 0028     		cmp	r0, #0
 4289 11e4 F6D1     		bne	.L647
 4290              		.loc 1 1528 0
 4291 11e6 A269     		ldr	r2, [r4, #24]
 4292              	.LVL644:
 4293              	.LBB396:
 4294              	.LBB397:
 4295              		.loc 1 1337 0
 4296 11e8 0646     		mov	r6, r0
 4297 11ea 02F10B00 		add	r0, r2, #11
 4298              	.LVL645:
 4299              	.L648:
 4300              		.loc 1 1340 0
 4301 11ee 12F8011B 		ldrb	r1, [r2], #1	@ zero_extendqisi2
 4302              	.LVL646:
 4303 11f2 F301     		lsls	r3, r6, #7
 4304 11f4 43EA5606 		orr	r6, r3, r6, lsr #1
 4305              	.LVL647:
 4306 11f8 51FA86F6 		uxtab	r6, r1, r6
 4307 11fc 8242     		cmp	r2, r0
 4308 11fe F6B2     		uxtb	r6, r6
 4309              	.LVL648:
 4310 1200 F5D1     		bne	.L648
 4311              	.LBE397:
 4312              	.LBE396:
 4313              		.loc 1 1529 0
 4314 1202 7B1E     		subs	r3, r7, #1
 4315 1204 DFF8A480 		ldr	r8, .L696+8
 4316              	.LVL649:
 4317 1208 9DB2     		uxth	r5, r3
 4318              	.LVL650:
 4319              	.LBB398:
 4320              	.LBB399:
 4321              		.loc 1 1261 0
 4322 120a 0F27     		movs	r7, #15
 4323              	.LVL651:
 4324              	.L654:
ARM GAS  /tmp/ccJyHyK3.s 			page 77


 4325              	.LBE399:
 4326              	.LBE398:
 4327              		.loc 1 1531 0
 4328 120c 2068     		ldr	r0, [r4]
 4329 120e 2169     		ldr	r1, [r4, #16]
 4330 1210 FEF7F6FE 		bl	move_window
 4331              	.LVL652:
 4332 1214 0346     		mov	r3, r0
 4333              	.LVL653:
 4334              		.loc 1 1532 0
 4335 1216 0028     		cmp	r0, #0
 4336 1218 DCD1     		bne	.L647
 4337              		.loc 1 1533 0
 4338 121a 5FFA85FA 		uxtb	r10, r5
 4339 121e 6169     		ldr	r1, [r4, #20]
 4340 1220 D4F81C90 		ldr	r9, [r4, #28]
 4341              	.LVL654:
 4342 1224 204B     		ldr	r3, .L696+4
 4343              	.LBB401:
 4344              	.LBB400:
 4345              		.loc 1 1260 0
 4346 1226 4E73     		strb	r6, [r1, #13]
 4347              		.loc 1 1265 0
 4348 1228 0AF1FF32 		add	r2, r10, #-1
 4349 122c 02EB420E 		add	lr, r2, r2, lsl #1
 4350 1230 02EB8E02 		add	r2, r2, lr, lsl #2
 4351              	.LVL655:
 4352              		.loc 1 1261 0
 4353 1234 CF72     		strb	r7, [r1, #11]
 4354              		.loc 1 1262 0
 4355 1236 0873     		strb	r0, [r1, #12]
 4356              		.loc 1 1263 0
 4357 1238 4883     		strh	r0, [r1, #26]	@ movhi
 4358              		.loc 1 1268 0
 4359 123a 4FF6FF7C 		movw	ip, #65535
 4360 123e 0CE0     		b	.L651
 4361              	.LVL656:
 4362              	.L695:
 4363 1240 39F81200 		ldrh	r0, [r9, r2, lsl #1]
 4364              		.loc 1 1269 0
 4365 1244 93F800E0 		ldrb	lr, [r3]	@ zero_extendqisi2
 4366              		.loc 1 1268 0
 4367 1248 0132     		adds	r2, r2, #1
 4368              	.LVL657:
 4369              		.loc 1 1269 0
 4370 124a 21F80E00 		strh	r0, [r1, lr]	@ movhi
 4371              	.LVL658:
 4372              		.loc 1 1270 0
 4373 124e 08B9     		cbnz	r0, .L650
 4374              	.LVL659:
 4375 1250 4FF6FF70 		movw	r0, #65535
 4376              	.LVL660:
 4377              	.L650:
 4378 1254 0133     		adds	r3, r3, #1
 4379              	.LVL661:
 4380              		.loc 1 1271 0
 4381 1256 4345     		cmp	r3, r8
ARM GAS  /tmp/ccJyHyK3.s 			page 78


 4382 1258 08D0     		beq	.L694
 4383              	.LVL662:
 4384              	.L651:
 4385              		.loc 1 1268 0
 4386 125a 6045     		cmp	r0, ip
 4387 125c F0D1     		bne	.L695
 4388              	.LVL663:
 4389              		.loc 1 1269 0
 4390 125e 93F800E0 		ldrb	lr, [r3]	@ zero_extendqisi2
 4391 1262 0133     		adds	r3, r3, #1
 4392              	.LVL664:
 4393              		.loc 1 1271 0
 4394 1264 4345     		cmp	r3, r8
 4395              		.loc 1 1269 0
 4396 1266 21F80E00 		strh	r0, [r1, lr]	@ movhi
 4397              	.LVL665:
 4398              		.loc 1 1271 0
 4399 126a F6D1     		bne	.L651
 4400              	.LVL666:
 4401              	.L694:
 4402              		.loc 1 1272 0
 4403 126c 4FF6FF73 		movw	r3, #65535
 4404 1270 9842     		cmp	r0, r3
 4405 1272 02D0     		beq	.L652
 4406 1274 39F81230 		ldrh	r3, [r9, r2, lsl #1]
 4407 1278 0BB9     		cbnz	r3, .L653
 4408              	.L652:
 4409 127a 4AF0400A 		orr	r10, r10, #64
 4410              	.LVL667:
 4411              	.L653:
 4412              		.loc 1 1273 0
 4413 127e 81F800A0 		strb	r10, [r1]
 4414              	.LBE400:
 4415              	.LBE401:
 4416              		.loc 1 1534 0
 4417 1282 2368     		ldr	r3, [r4]
 4418 1284 0122     		movs	r2, #1
 4419 1286 1A71     		strb	r2, [r3, #4]
 4420              		.loc 1 1535 0
 4421 1288 2046     		mov	r0, r4
 4422 128a 0021     		movs	r1, #0
 4423              	.LVL668:
 4424 128c FFF7A8FA 		bl	dir_next
 4425              	.LVL669:
 4426              		.loc 1 1536 0
 4427 1290 0346     		mov	r3, r0
 4428 1292 0028     		cmp	r0, #0
 4429 1294 9ED1     		bne	.L647
 4430              		.loc 1 1536 0 is_stmt 0 discriminator 1
 4431 1296 013D     		subs	r5, r5, #1
 4432              	.LVL670:
 4433 1298 ADB2     		uxth	r5, r5
 4434              	.LVL671:
 4435 129a 002D     		cmp	r5, #0
 4436 129c B6D1     		bne	.L654
 4437 129e 5EE7     		b	.L655
 4438              	.LVL672:
ARM GAS  /tmp/ccJyHyK3.s 			page 79


 4439              	.L691:
 4440              		.loc 1 1496 0 is_stmt 1
 4441 12a0 0720     		movs	r0, #7
 4442 12a2 0BE7     		b	.L685
 4443              	.L697:
 4444              		.align	2
 4445              	.L696:
 4446 12a4 4FECC44E 		.word	1321528399
 4447 12a8 00000000 		.word	.LANCHOR1
 4448 12ac 0D000000 		.word	.LANCHOR1+13
 4449              		.cfi_endproc
 4450              	.LFE30:
 4451              		.size	dir_register, .-dir_register
 4452              		.align	2
 4453              		.p2align 4,,15
 4454              		.global	f_mount
 4455              		.thumb
 4456              		.thumb_func
 4457              		.type	f_mount, %function
 4458              	f_mount:
 4459              	.LFB38:
 4460              		.loc 1 2207 0
 4461              		.cfi_startproc
 4462              		@ args = 0, pretend = 0, frame = 0
 4463              		@ frame_needed = 0, uses_anonymous_args = 0
 4464              	.LVL673:
 4465 12b0 F8B5     		push	{r3, r4, r5, r6, r7, lr}
 4466              		.cfi_def_cfa_offset 24
 4467              		.cfi_offset 3, -24
 4468              		.cfi_offset 4, -20
 4469              		.cfi_offset 5, -16
 4470              		.cfi_offset 6, -12
 4471              		.cfi_offset 7, -8
 4472              		.cfi_offset 14, -4
 4473              		.loc 1 2211 0
 4474 12b2 0446     		mov	r4, r0
 4475 12b4 08B1     		cbz	r0, .L713
 4476              		.loc 1 2212 0
 4477 12b6 0B20     		movs	r0, #11
 4478              	.LVL674:
 4479              		.loc 1 2234 0
 4480 12b8 F8BD     		pop	{r3, r4, r5, r6, r7, pc}
 4481              	.LVL675:
 4482              	.L713:
 4483              		.loc 1 2213 0
 4484 12ba 0B4F     		ldr	r7, .L714
 4485 12bc 7E68     		ldr	r6, [r7, #4]
 4486              	.LVL676:
 4487 12be 0D46     		mov	r5, r1
 4488              		.loc 1 2215 0
 4489 12c0 36B1     		cbz	r6, .L700
 4490              		.loc 1 2220 0
 4491 12c2 F068     		ldr	r0, [r6, #12]
 4492              	.LVL677:
 4493 12c4 FFF7FEFF 		bl	ff_del_syncobj
 4494              	.LVL678:
 4495 12c8 08B9     		cbnz	r0, .L701
ARM GAS  /tmp/ccJyHyK3.s 			page 80


 4496              	.L703:
 4497 12ca 0220     		movs	r0, #2
 4498 12cc F8BD     		pop	{r3, r4, r5, r6, r7, pc}
 4499              	.LVL679:
 4500              	.L701:
 4501              		.loc 1 2222 0
 4502 12ce 3470     		strb	r4, [r6]
 4503              	.L700:
 4504              		.loc 1 2225 0
 4505 12d0 3DB1     		cbz	r5, .L704
 4506              		.loc 1 2226 0
 4507 12d2 2946     		mov	r1, r5
 4508 12d4 0020     		movs	r0, #0
 4509 12d6 01F80C0B 		strb	r0, [r1], #12
 4510              		.loc 1 2228 0
 4511 12da FFF7FEFF 		bl	ff_cre_syncobj
 4512              	.LVL680:
 4513 12de 0028     		cmp	r0, #0
 4514 12e0 F3D0     		beq	.L703
 4515              	.L704:
 4516              		.loc 1 2231 0
 4517 12e2 7D60     		str	r5, [r7, #4]
 4518              		.loc 1 2233 0
 4519 12e4 0020     		movs	r0, #0
 4520 12e6 F8BD     		pop	{r3, r4, r5, r6, r7, pc}
 4521              	.LVL681:
 4522              	.L715:
 4523              		.align	2
 4524              	.L714:
 4525 12e8 00000000 		.word	.LANCHOR0
 4526              		.cfi_endproc
 4527              	.LFE38:
 4528              		.size	f_mount, .-f_mount
 4529              		.align	2
 4530 12ec AFF30080 		.p2align 4,,15
 4531              		.global	f_open
 4532              		.thumb
 4533              		.thumb_func
 4534              		.type	f_open, %function
 4535              	f_open:
 4536              	.LFB39:
 4537              		.loc 1 2248 0
 4538              		.cfi_startproc
 4539              		@ args = 0, pretend = 0, frame = 568
 4540              		@ frame_needed = 0, uses_anonymous_args = 0
 4541              	.LVL682:
 4542 12f0 2DE9F043 		push	{r4, r5, r6, r7, r8, r9, lr}
 4543              		.cfi_def_cfa_offset 28
 4544              		.cfi_offset 4, -28
 4545              		.cfi_offset 5, -24
 4546              		.cfi_offset 6, -20
 4547              		.cfi_offset 7, -16
 4548              		.cfi_offset 8, -12
 4549              		.cfi_offset 9, -8
 4550              		.cfi_offset 14, -4
 4551 12f4 ADF50F7D 		sub	sp, sp, #572
 4552              		.cfi_def_cfa_offset 600
ARM GAS  /tmp/ccJyHyK3.s 			page 81


 4553              		.loc 1 2255 0
 4554 12f8 0023     		movs	r3, #0
 4555 12fa 0360     		str	r3, [r0]
 4556              		.loc 1 2248 0
 4557 12fc 1646     		mov	r6, r2
 4558 12fe 0191     		str	r1, [sp, #4]
 4559              		.loc 1 2259 0
 4560 1300 02F01E02 		and	r2, r2, #30
 4561              	.LVL683:
 4562              		.loc 1 2248 0
 4563 1304 0546     		mov	r5, r0
 4564              		.loc 1 2259 0
 4565 1306 05A9     		add	r1, sp, #20
 4566              	.LVL684:
 4567 1308 01A8     		add	r0, sp, #4
 4568              	.LVL685:
 4569 130a FEF7A9FF 		bl	chk_mounted
 4570              	.LVL686:
 4571              		.loc 1 2264 0
 4572 130e 02AA     		add	r2, sp, #8
 4573 1310 0EAB     		add	r3, sp, #56
 4574 1312 0B92     		str	r2, [sp, #44]
 4575 1314 0C93     		str	r3, [sp, #48]
 4576              		.loc 1 2265 0
 4577 1316 0446     		mov	r4, r0
 4578              		.loc 1 2258 0
 4579 1318 06F01F08 		and	r8, r6, #31
 4580              	.LVL687:
 4581              		.loc 1 2265 0
 4582 131c 20B3     		cbz	r0, .L764
 4583              	.LVL688:
 4584              	.L717:
 4585              		.loc 1 2279 0
 4586 131e 16F01C0F 		tst	r6, #28
 4587 1322 11D1     		bne	.L740
 4588              	.LVL689:
 4589              	.L761:
 4590 1324 A4F10B02 		sub	r2, r4, #11
 4591 1328 059B     		ldr	r3, [sp, #20]
 4592 132a D2B2     		uxtb	r2, r2
 4593              	.L729:
 4594              	.LVL690:
 4595              	.LBB402:
 4596              	.LBB403:
 4597              		.loc 1 592 0
 4598 132c 012A     		cmp	r2, #1
 4599 132e 03F10C00 		add	r0, r3, #12
 4600              	.LVL691:
 4601 1332 04D9     		bls	.L749
 4602              		.loc 1 593 0
 4603 1334 092C     		cmp	r4, #9
 4604 1336 02D0     		beq	.L749
 4605              	.LVL692:
 4606              	.L734:
 4607 1338 2146     		mov	r1, r4
 4608 133a FFF7C9F8 		bl	unlock_fs.isra.5.part.6
 4609              	.LVL693:
ARM GAS  /tmp/ccJyHyK3.s 			page 82


 4610              	.L749:
 4611              	.LBE403:
 4612              	.LBE402:
 4613              		.loc 1 2364 0
 4614 133e 2046     		mov	r0, r4
 4615 1340 0DF50F7D 		add	sp, sp, #572
 4616              		.cfi_remember_state
 4617              		.cfi_def_cfa_offset 28
 4618              		@ sp needed
 4619 1344 BDE8F083 		pop	{r4, r5, r6, r7, r8, r9, pc}
 4620              	.LVL694:
 4621              	.L740:
 4622              		.cfi_restore_state
 4623              	.LBB404:
 4624              		.loc 1 2283 0
 4625 1348 042C     		cmp	r4, #4
 4626 134a EBD1     		bne	.L761
 4627              		.loc 1 2287 0
 4628 134c 05A8     		add	r0, sp, #20
 4629 134e FFF79FFE 		bl	dir_register
 4630              	.LVL695:
 4631              		.loc 1 2289 0
 4632 1352 48F00808 		orr	r8, r8, #8
 4633              	.LVL696:
 4634              		.loc 1 2300 0
 4635 1356 0446     		mov	r4, r0
 4636 1358 0A9F     		ldr	r7, [sp, #40]
 4637              	.LVL697:
 4638 135a 0028     		cmp	r0, #0
 4639 135c E2D1     		bne	.L761
 4640              	.LVL698:
 4641              	.L721:
 4642              		.loc 1 2300 0 is_stmt 0 discriminator 1
 4643 135e 18F0080F 		tst	r8, #8
 4644 1362 46D1     		bne	.L765
 4645 1364 059B     		ldr	r3, [sp, #20]
 4646              	.LVL699:
 4647 1366 29E0     		b	.L738
 4648              	.LVL700:
 4649              	.L764:
 4650              	.LBE404:
 4651              		.loc 1 2266 0 is_stmt 1
 4652 1368 0199     		ldr	r1, [sp, #4]
 4653 136a 05A8     		add	r0, sp, #20
 4654              	.LVL701:
 4655 136c FFF768FC 		bl	follow_path
 4656              	.LVL702:
 4657              		.loc 1 2267 0
 4658 1370 0A9F     		ldr	r7, [sp, #40]
 4659              	.LVL703:
 4660              		.loc 1 2270 0
 4661 1372 0446     		mov	r4, r0
 4662 1374 0028     		cmp	r0, #0
 4663 1376 D2D1     		bne	.L717
 4664              		.loc 1 2271 0
 4665 1378 002F     		cmp	r7, #0
 4666 137a 35D0     		beq	.L766
ARM GAS  /tmp/ccJyHyK3.s 			page 83


 4667              	.LVL704:
 4668              		.loc 1 2279 0
 4669 137c 16F01C0F 		tst	r6, #28
 4670 1380 09D0     		beq	.L767
 4671              	.LBB411:
 4672              		.loc 1 2293 0
 4673 1382 FB7A     		ldrb	r3, [r7, #11]	@ zero_extendqisi2
 4674 1384 13F0110F 		tst	r3, #17
 4675 1388 0CD1     		bne	.L741
 4676              		.loc 1 2296 0
 4677 138a 7007     		lsls	r0, r6, #29
 4678 138c E7D5     		bpl	.L721
 4679 138e FD22     		movs	r2, #253
 4680              		.loc 1 2297 0
 4681 1390 0824     		movs	r4, #8
 4682              	.L723:
 4683              	.LVL705:
 4684 1392 059B     		ldr	r3, [sp, #20]
 4685 1394 CAE7     		b	.L729
 4686              	.LVL706:
 4687              	.L767:
 4688              	.LBE411:
 4689              		.loc 1 2320 0
 4690 1396 FB7A     		ldrb	r3, [r7, #11]	@ zero_extendqisi2
 4691 1398 D906     		lsls	r1, r3, #27
 4692 139a 06D5     		bpl	.L730
 4693 139c 059B     		ldr	r3, [sp, #20]
 4694 139e F922     		movs	r2, #249
 4695              		.loc 1 2321 0
 4696 13a0 0424     		movs	r4, #4
 4697 13a2 C3E7     		b	.L729
 4698              	.L741:
 4699              	.LBB412:
 4700 13a4 FC22     		movs	r2, #252
 4701              		.loc 1 2294 0
 4702 13a6 0724     		movs	r4, #7
 4703 13a8 F3E7     		b	.L723
 4704              	.L730:
 4705              	.LBE412:
 4706              		.loc 1 2323 0
 4707 13aa B207     		lsls	r2, r6, #30
 4708 13ac 3CD4     		bmi	.L768
 4709              	.L759:
 4710 13ae 06F00806 		and	r6, r6, #8
 4711 13b2 F6B2     		uxtb	r6, r6
 4712 13b4 059B     		ldr	r3, [sp, #20]
 4713              		.loc 1 2329 0
 4714 13b6 0EB1     		cbz	r6, .L738
 4715              	.LVL707:
 4716              	.L725:
 4717              		.loc 1 2330 0
 4718 13b8 48F02008 		orr	r8, r8, #32
 4719              	.LVL708:
 4720              	.L738:
 4721              		.loc 1 2331 0
 4722 13bc 586B     		ldr	r0, [r3, #52]
 4723              		.loc 1 2352 0
ARM GAS  /tmp/ccJyHyK3.s 			page 84


 4724 13be 85F80680 		strb	r8, [r5, #6]
 4725              		.loc 1 2353 0
 4726 13c2 B98A     		ldrh	r1, [r7, #20]
 4727 13c4 7A8B     		ldrh	r2, [r7, #26]
 4728              		.loc 1 2331 0
 4729 13c6 E861     		str	r0, [r5, #28]
 4730              		.loc 1 2353 0
 4731 13c8 42EA0142 		orr	r2, r2, r1, lsl #16
 4732 13cc 2A61     		str	r2, [r5, #16]
 4733              		.loc 1 2354 0
 4734 13ce F969     		ldr	r1, [r7, #28]
 4735              		.loc 1 2360 0
 4736 13d0 DA88     		ldrh	r2, [r3, #6]
 4737 13d2 AA80     		strh	r2, [r5, #4]	@ movhi
 4738              		.loc 1 2355 0
 4739 13d4 0024     		movs	r4, #0
 4740              		.loc 1 2332 0
 4741 13d6 2F62     		str	r7, [r5, #32]
 4742              		.loc 1 2354 0
 4743 13d8 E960     		str	r1, [r5, #12]
 4744              		.loc 1 2360 0
 4745 13da 2B60     		str	r3, [r5]
 4746 13dc 03F10C00 		add	r0, r3, #12
 4747              	.LVL709:
 4748              		.loc 1 2355 0
 4749 13e0 AC60     		str	r4, [r5, #8]
 4750              		.loc 1 2356 0
 4751 13e2 AC61     		str	r4, [r5, #24]
 4752              		.loc 1 2358 0
 4753 13e4 6C62     		str	r4, [r5, #36]
 4754 13e6 A7E7     		b	.L734
 4755              	.LVL710:
 4756              	.L766:
 4757              		.loc 1 2279 0
 4758 13e8 16F01C0F 		tst	r6, #28
 4759 13ec 22D0     		beq	.L769
 4760              		.loc 1 2272 0
 4761 13ee 0624     		movs	r4, #6
 4762              	.LVL711:
 4763 13f0 98E7     		b	.L761
 4764              	.LVL712:
 4765              	.L765:
 4766              	.LBB413:
 4767              		.loc 1 2301 0
 4768 13f2 FFF7FEFF 		bl	get_fattime
 4769              	.LVL713:
 4770              		.loc 1 2305 0
 4771 13f6 BE8A     		ldrh	r6, [r7, #20]
 4772 13f8 7A8B     		ldrh	r2, [r7, #26]
 4773              	.LVL714:
 4774              		.loc 1 2307 0
 4775 13fa 059B     		ldr	r3, [sp, #20]
 4776              		.loc 1 2302 0
 4777 13fc C7F80E00 		str	r0, [r7, #14]
 4778              		.loc 1 2303 0
 4779 1400 0021     		movs	r1, #0
 4780              		.loc 1 2307 0
ARM GAS  /tmp/ccJyHyK3.s 			page 85


 4781 1402 0120     		movs	r0, #1
 4782              	.LVL715:
 4783              		.loc 1 2308 0
 4784 1404 52EA0646 		orrs	r6, r2, r6, lsl #16
 4785              	.LVL716:
 4786              		.loc 1 2303 0
 4787 1408 F972     		strb	r1, [r7, #11]
 4788              		.loc 1 2304 0
 4789 140a F961     		str	r1, [r7, #28]
 4790              		.loc 1 2306 0
 4791 140c 7983     		strh	r1, [r7, #26]	@ movhi
 4792 140e B982     		strh	r1, [r7, #20]	@ movhi
 4793              		.loc 1 2307 0
 4794 1410 1871     		strb	r0, [r3, #4]
 4795              	.LVL717:
 4796              		.loc 1 2308 0
 4797 1412 D1D0     		beq	.L725
 4798              	.LBB405:
 4799              	.LBB406:
 4800              		.loc 1 936 0
 4801 1414 8642     		cmp	r6, r0
 4802              	.LBE406:
 4803              	.LBE405:
 4804              		.loc 1 2309 0
 4805 1416 D3F83490 		ldr	r9, [r3, #52]
 4806              	.LVL718:
 4807              	.LBB409:
 4808              	.LBB407:
 4809              		.loc 1 936 0
 4810 141a 02D0     		beq	.L744
 4811 141c 1A6A     		ldr	r2, [r3, #32]
 4812 141e 9642     		cmp	r6, r2
 4813 1420 0CD3     		bcc	.L770
 4814              	.L744:
 4815 1422 F722     		movs	r2, #247
 4816 1424 0224     		movs	r4, #2
 4817              	.LVL719:
 4818 1426 81E7     		b	.L729
 4819              	.LVL720:
 4820              	.L768:
 4821              	.LBE407:
 4822              	.LBE409:
 4823              	.LBE413:
 4824              		.loc 1 2323 0 discriminator 1
 4825 1428 DB07     		lsls	r3, r3, #31
 4826 142a C0D5     		bpl	.L759
 4827 142c 059B     		ldr	r3, [sp, #20]
 4828              		.loc 1 2323 0 is_stmt 0
 4829 142e FC22     		movs	r2, #252
 4830              		.loc 1 2324 0 is_stmt 1
 4831 1430 0724     		movs	r4, #7
 4832 1432 7BE7     		b	.L729
 4833              	.LVL721:
 4834              	.L769:
 4835 1434 059B     		ldr	r3, [sp, #20]
 4836              		.loc 1 2279 0
 4837 1436 FB22     		movs	r2, #251
ARM GAS  /tmp/ccJyHyK3.s 			page 86


 4838              		.loc 1 2272 0
 4839 1438 0624     		movs	r4, #6
 4840 143a 77E7     		b	.L729
 4841              	.LVL722:
 4842              	.L770:
 4843              	.LBB414:
 4844              	.LBB410:
 4845              	.LBB408:
 4846 143c 1846     		mov	r0, r3
 4847 143e 3146     		mov	r1, r6
 4848 1440 FFF7CEFB 		bl	remove_chain.part.10
 4849              	.LVL723:
 4850              	.LBE408:
 4851              	.LBE410:
 4852              		.loc 1 2311 0
 4853 1444 0446     		mov	r4, r0
 4854 1446 0028     		cmp	r0, #0
 4855 1448 7FF46CAF 		bne	.L761
 4856              		.loc 1 2312 0
 4857 144c 0598     		ldr	r0, [sp, #20]
 4858              	.LVL724:
 4859 144e 721E     		subs	r2, r6, #1
 4860              		.loc 1 2313 0
 4861 1450 4946     		mov	r1, r9
 4862              		.loc 1 2312 0
 4863 1452 0261     		str	r2, [r0, #16]
 4864              		.loc 1 2313 0
 4865 1454 FEF7D4FD 		bl	move_window
 4866              	.LVL725:
 4867              	.LBE414:
 4868              		.loc 1 2328 0
 4869 1458 0446     		mov	r4, r0
 4870 145a 0028     		cmp	r0, #0
 4871 145c 7FF462AF 		bne	.L761
 4872              	.LVL726:
 4873 1460 059B     		ldr	r3, [sp, #20]
 4874 1462 A9E7     		b	.L725
 4875              		.cfi_endproc
 4876              	.LFE39:
 4877              		.size	f_open, .-f_open
 4878              		.align	2
 4879 1464 AFF30080 		.p2align 4,,15
 4879      AFF30080 
 4879      AFF30080 
 4880              		.global	f_read
 4881              		.thumb
 4882              		.thumb_func
 4883              		.type	f_read, %function
 4884              	f_read:
 4885              	.LFB40:
 4886              		.loc 1 2379 0
 4887              		.cfi_startproc
 4888              		@ args = 0, pretend = 0, frame = 0
 4889              		@ frame_needed = 0, uses_anonymous_args = 0
 4890              	.LVL727:
 4891 1470 2DE9F047 		push	{r4, r5, r6, r7, r8, r9, r10, lr}
 4892              		.cfi_def_cfa_offset 32
ARM GAS  /tmp/ccJyHyK3.s 			page 87


 4893              		.cfi_offset 4, -32
 4894              		.cfi_offset 5, -28
 4895              		.cfi_offset 6, -24
 4896              		.cfi_offset 7, -20
 4897              		.cfi_offset 8, -16
 4898              		.cfi_offset 9, -12
 4899              		.cfi_offset 10, -8
 4900              		.cfi_offset 14, -4
 4901              		.loc 1 2379 0
 4902 1474 0446     		mov	r4, r0
 4903 1476 1F46     		mov	r7, r3
 4904              		.loc 1 2386 0
 4905 1478 0023     		movs	r3, #0
 4906              	.LVL728:
 4907              		.loc 1 2379 0
 4908 147a 0E46     		mov	r6, r1
 4909              	.LVL729:
 4910              		.loc 1 2386 0
 4911 147c 3B60     		str	r3, [r7]
 4912              		.loc 1 2388 0
 4913 147e 0068     		ldr	r0, [r0]
 4914              	.LVL730:
 4915 1480 A188     		ldrh	r1, [r4, #4]
 4916              	.LVL731:
 4917              		.loc 1 2379 0
 4918 1482 1546     		mov	r5, r2
 4919              		.loc 1 2388 0
 4920 1484 FFF704F8 		bl	validate
 4921              	.LVL732:
 4922              		.loc 1 2389 0
 4923 1488 8046     		mov	r8, r0
 4924 148a 78B1     		cbz	r0, .L772
 4925              	.LBB459:
 4926              	.LBB460:
 4927              		.loc 1 592 0 discriminator 1
 4928 148c A0F10B03 		sub	r3, r0, #11
 4929 1490 DBB2     		uxtb	r3, r3
 4930 1492 012B     		cmp	r3, #1
 4931              	.LBE460:
 4932              	.LBE459:
 4933              		.loc 1 2389 0 discriminator 1
 4934 1494 2068     		ldr	r0, [r4]
 4935              	.LVL733:
 4936              	.LBB463:
 4937              	.LBB461:
 4938              		.loc 1 592 0 discriminator 1
 4939 1496 65D9     		bls	.L807
 4940              		.loc 1 593 0
 4941 1498 B8F1090F 		cmp	r8, #9
 4942 149c 62D0     		beq	.L807
 4943 149e 0C30     		adds	r0, r0, #12
 4944              	.LVL734:
 4945 14a0 4146     		mov	r1, r8
 4946 14a2 FFF715F8 		bl	unlock_fs.isra.5.part.6
 4947              	.LVL735:
 4948 14a6 4046     		mov	r0, r8
 4949 14a8 BDE8F087 		pop	{r4, r5, r6, r7, r8, r9, r10, pc}
ARM GAS  /tmp/ccJyHyK3.s 			page 88


 4950              	.LVL736:
 4951              	.L772:
 4952              	.LBE461:
 4953              	.LBE463:
 4954              		.loc 1 2390 0
 4955 14ac A379     		ldrb	r3, [r4, #6]	@ zero_extendqisi2
 4956 14ae 1906     		lsls	r1, r3, #24
 4957 14b0 00F1D380 		bmi	.L831
 4958              		.loc 1 2392 0
 4959 14b4 DA07     		lsls	r2, r3, #31
 4960 14b6 40F1D780 		bpl	.L832
 4961              		.loc 1 2394 0
 4962 14ba A068     		ldr	r0, [r4, #8]
 4963              	.LVL737:
 4964 14bc E368     		ldr	r3, [r4, #12]
 4965 14be D4F800E0 		ldr	lr, [r4]
 4966 14c2 1B1A     		subs	r3, r3, r0
 4967              	.LVL738:
 4968 14c4 9D42     		cmp	r5, r3
 4969 14c6 28BF     		it	cs
 4970 14c8 1D46     		movcs	r5, r3
 4971              	.LVL739:
 4972              		.loc 1 2397 0
 4973 14ca 002D     		cmp	r5, #0
 4974 14cc 43D0     		beq	.L777
 4975              	.LVL740:
 4976              	.L804:
 4977              		.loc 1 2399 0
 4978 14ce C0F30802 		ubfx	r2, r0, #0, #9
 4979 14d2 002A     		cmp	r2, #0
 4980 14d4 49D0     		beq	.L778
 4981 14d6 A169     		ldr	r1, [r4, #24]
 4982              	.L779:
 4983              		.loc 1 2452 0
 4984 14d8 C2F50078 		rsb	r8, r2, #512
 4985              	.LVL741:
 4986 14dc A845     		cmp	r8, r5
 4987              		.loc 1 2455 0
 4988 14de 7046     		mov	r0, lr
 4989 14e0 28BF     		it	cs
 4990 14e2 A846     		movcs	r8, r5
 4991              	.LVL742:
 4992 14e4 FEF78CFD 		bl	move_window
 4993              	.LVL743:
 4994 14e8 0028     		cmp	r0, #0
 4995 14ea 40F0C780 		bne	.L830
 4996              		.loc 1 2457 0
 4997 14ee A068     		ldr	r0, [r4, #8]
 4998 14f0 D4F800E0 		ldr	lr, [r4]
 4999 14f4 C0F30803 		ubfx	r3, r0, #0, #9
 5000 14f8 3833     		adds	r3, r3, #56
 5001              	.LBB464:
 5002              	.LBB465:
 5003              		.loc 1 534 0
 5004 14fa B8F1030F 		cmp	r8, #3
 5005              	.LBE465:
 5006              	.LBE464:
ARM GAS  /tmp/ccJyHyK3.s 			page 89


 5007              		.loc 1 2457 0
 5008 14fe 7344     		add	r3, r3, lr
 5009              	.LVL744:
 5010              	.LBB468:
 5011              	.LBB466:
 5012              		.loc 1 534 0
 5013 1500 40F2B980 		bls	.L801
 5014 1504 A3F1040C 		sub	ip, r3, #4
 5015 1508 4146     		mov	r1, r8
 5016 150a 3246     		mov	r2, r6
 5017              	.LVL745:
 5018              	.L802:
 5019              		.loc 1 537 0
 5020 150c 0439     		subs	r1, r1, #4
 5021              	.LVL746:
 5022              		.loc 1 535 0
 5023 150e 5CF8049F 		ldr	r9, [ip, #4]!
 5024              	.LVL747:
 5025 1512 42F8049B 		str	r9, [r2], #4
 5026              	.LVL748:
 5027              		.loc 1 534 0
 5028 1516 0329     		cmp	r1, #3
 5029 1518 F8D8     		bhi	.L802
 5030 151a A8F10401 		sub	r1, r8, #4
 5031              	.LVL749:
 5032 151e 21F00301 		bic	r1, r1, #3
 5033 1522 0431     		adds	r1, r1, #4
 5034              		.loc 1 540 0
 5035 1524 18F00302 		ands	r2, r8, #3
 5036              	.LVL750:
 5037 1528 0B44     		add	r3, r3, r1
 5038              	.LVL751:
 5039 152a 3144     		add	r1, r1, r6
 5040              	.LVL752:
 5041 152c 0AD0     		beq	.L799
 5042              	.LVL753:
 5043              	.L805:
 5044 152e 0139     		subs	r1, r1, #1
 5045              	.LVL754:
 5046 1530 9818     		adds	r0, r3, r2
 5047              	.LVL755:
 5048              	.L803:
 5049              		.loc 1 541 0
 5050 1532 13F8012B 		ldrb	r2, [r3], #1	@ zero_extendqisi2
 5051              	.LVL756:
 5052 1536 01F8012F 		strb	r2, [r1, #1]!
 5053              	.LVL757:
 5054              		.loc 1 540 0
 5055 153a 8342     		cmp	r3, r0
 5056 153c F9D1     		bne	.L803
 5057 153e A068     		ldr	r0, [r4, #8]
 5058 1540 D4F800E0 		ldr	lr, [r4]
 5059              	.LVL758:
 5060              	.L799:
 5061              	.LBE466:
 5062              	.LBE468:
 5063              		.loc 1 2398 0
ARM GAS  /tmp/ccJyHyK3.s 			page 90


 5064 1544 3B68     		ldr	r3, [r7]
 5065 1546 4044     		add	r0, r0, r8
 5066 1548 4344     		add	r3, r3, r8
 5067              		.loc 1 2397 0
 5068 154a B5EB0805 		subs	r5, r5, r8
 5069              	.LVL759:
 5070              		.loc 1 2398 0
 5071 154e A060     		str	r0, [r4, #8]
 5072 1550 4644     		add	r6, r6, r8
 5073              	.LVL760:
 5074 1552 3B60     		str	r3, [r7]
 5075              		.loc 1 2397 0
 5076 1554 BBD1     		bne	.L804
 5077              	.LVL761:
 5078              	.L777:
 5079              	.LBB469:
 5080              	.LBB470:
 5081              	.LBB471:
 5082              		.loc 1 596 0
 5083 1556 DEF80C00 		ldr	r0, [lr, #12]
 5084 155a FFF7FEFF 		bl	ff_rel_grant
 5085              	.LVL762:
 5086              	.LBE471:
 5087              	.LBE470:
 5088              	.LBE469:
 5089              		.loc 1 2463 0
 5090 155e 0020     		movs	r0, #0
 5091 1560 BDE8F087 		pop	{r4, r5, r6, r7, r8, r9, r10, pc}
 5092              	.LVL763:
 5093              	.L807:
 5094              	.LBB472:
 5095              	.LBB462:
 5096              		.loc 1 593 0
 5097 1564 4046     		mov	r0, r8
 5098              	.LVL764:
 5099 1566 BDE8F087 		pop	{r4, r5, r6, r7, r8, r9, r10, pc}
 5100              	.LVL765:
 5101              	.L778:
 5102              	.LBE462:
 5103              	.LBE472:
 5104              		.loc 1 2400 0
 5105 156a 9EF80210 		ldrb	r1, [lr, #2]	@ zero_extendqisi2
 5106 156e 430A     		lsrs	r3, r0, #9
 5107 1570 01F1FF3A 		add	r10, r1, #-1
 5108 1574 03EA0A0A 		and	r10, r3, r10
 5109              	.LVL766:
 5110              		.loc 1 2401 0
 5111 1578 1AF0FF0A 		ands	r10, r10, #255
 5112              	.LVL767:
 5113 157c 3ED0     		beq	.L780
 5114 157e 6369     		ldr	r3, [r4, #20]
 5115              	.LVL768:
 5116              	.L781:
 5117              	.LBB473:
 5118              	.LBB474:
 5119              		.loc 1 807 0
 5120 1580 DEF82020 		ldr	r2, [lr, #32]
ARM GAS  /tmp/ccJyHyK3.s 			page 91


 5121              		.loc 1 806 0
 5122 1584 023B     		subs	r3, r3, #2
 5123              	.LVL769:
 5124              		.loc 1 807 0
 5125 1586 023A     		subs	r2, r2, #2
 5126 1588 9342     		cmp	r3, r2
 5127 158a 5BD2     		bcs	.L793
 5128              		.loc 1 808 0
 5129 158c 9EF80210 		ldrb	r1, [lr, #2]	@ zero_extendqisi2
 5130 1590 DEF83020 		ldr	r2, [lr, #48]
 5131 1594 01FB0323 		mla	r3, r1, r3, r2
 5132              	.LVL770:
 5133              	.LBE474:
 5134              	.LBE473:
 5135              		.loc 1 2417 0
 5136 1598 002B     		cmp	r3, #0
 5137 159a 53D0     		beq	.L793
 5138              		.loc 1 2420 0
 5139 159c 5FEA5528 		lsrs	r8, r5, #9
 5140              		.loc 1 2418 0
 5141 15a0 03EB0A09 		add	r9, r3, r10
 5142              	.LVL771:
 5143              		.loc 1 2420 0
 5144 15a4 33D0     		beq	.L794
 5145              		.loc 1 2421 0
 5146 15a6 0AEB0803 		add	r3, r10, r8
 5147 15aa 8B42     		cmp	r3, r1
 5148              		.loc 1 2422 0
 5149 15ac 88BF     		it	hi
 5150 15ae CAEB0108 		rsbhi	r8, r10, r1
 5151              	.LVL772:
 5152              		.loc 1 2423 0
 5153 15b2 9EF80100 		ldrb	r0, [lr, #1]	@ zero_extendqisi2
 5154 15b6 3146     		mov	r1, r6
 5155 15b8 4A46     		mov	r2, r9
 5156 15ba 5FFA88F3 		uxtb	r3, r8
 5157 15be FFF7FEFF 		bl	disk_read
 5158              	.LVL773:
 5159 15c2 0028     		cmp	r0, #0
 5160 15c4 5AD1     		bne	.L830
 5161              		.loc 1 2427 0
 5162 15c6 D4F800E0 		ldr	lr, [r4]
 5163 15ca 9EF80430 		ldrb	r3, [lr, #4]	@ zero_extendqisi2
 5164 15ce 8BB1     		cbz	r3, .L797
 5165              		.loc 1 2427 0 is_stmt 0 discriminator 1
 5166 15d0 DEF83430 		ldr	r3, [lr, #52]
 5167 15d4 C9EB0303 		rsb	r3, r9, r3
 5168 15d8 9845     		cmp	r8, r3
 5169 15da 0BD9     		bls	.L797
 5170              		.loc 1 2428 0 is_stmt 1
 5171 15dc 06EB4323 		add	r3, r6, r3, lsl #9
 5172              	.LVL774:
 5173 15e0 03F50070 		add	r0, r3, #512
 5174 15e4 0EF13402 		add	r2, lr, #52
 5175              	.LVL775:
 5176              	.L798:
 5177              	.LBB475:
ARM GAS  /tmp/ccJyHyK3.s 			page 92


 5178              	.LBB476:
 5179              		.loc 1 535 0
 5180 15e8 52F8041F 		ldr	r1, [r2, #4]!
 5181              	.LVL776:
 5182 15ec 43F8041B 		str	r1, [r3], #4
 5183              	.LVL777:
 5184              		.loc 1 534 0
 5185 15f0 8342     		cmp	r3, r0
 5186 15f2 F9D1     		bne	.L798
 5187              	.LVL778:
 5188              	.L797:
 5189              	.LBE476:
 5190              	.LBE475:
 5191              		.loc 1 2434 0
 5192 15f4 4FEA4828 		lsl	r8, r8, #9
 5193              	.LVL779:
 5194 15f8 A068     		ldr	r0, [r4, #8]
 5195              		.loc 1 2435 0
 5196 15fa A3E7     		b	.L799
 5197              	.LVL780:
 5198              	.L780:
 5199              		.loc 1 2402 0
 5200 15fc 70B9     		cbnz	r0, .L782
 5201              		.loc 1 2403 0
 5202 15fe 2069     		ldr	r0, [r4, #16]
 5203              	.LVL781:
 5204              	.L783:
 5205              		.loc 1 2412 0
 5206 1600 0128     		cmp	r0, #1
 5207 1602 1FD9     		bls	.L793
 5208              		.loc 1 2413 0
 5209 1604 431C     		adds	r3, r0, #1
 5210 1606 51D0     		beq	.L833
 5211              		.loc 1 2414 0
 5212 1608 6061     		str	r0, [r4, #20]
 5213 160a 0346     		mov	r3, r0
 5214 160c B8E7     		b	.L781
 5215              	.LVL782:
 5216              	.L794:
 5217 160e A268     		ldr	r2, [r4, #8]
 5218              		.loc 1 2450 0
 5219 1610 C4F81890 		str	r9, [r4, #24]
 5220 1614 4946     		mov	r1, r9
 5221 1616 C2F30802 		ubfx	r2, r2, #0, #9
 5222 161a 5DE7     		b	.L779
 5223              	.LVL783:
 5224              	.L782:
 5225              		.loc 1 2406 0
 5226 161c 606A     		ldr	r0, [r4, #36]
 5227 161e 0028     		cmp	r0, #0
 5228 1620 37D0     		beq	.L784
 5229              	.LVL784:
 5230              	.LBB477:
 5231              	.LBB478:
 5232              		.loc 1 1047 0
 5233 1622 B3FBF1F1 		udiv	r1, r3, r1
 5234              	.LVL785:
ARM GAS  /tmp/ccJyHyK3.s 			page 93


 5235              		.loc 1 1049 0
 5236 1626 4268     		ldr	r2, [r0, #4]
 5237              		.loc 1 1046 0
 5238 1628 031D     		adds	r3, r0, #4
 5239              	.LVL786:
 5240              		.loc 1 1050 0
 5241 162a 5AB1     		cbz	r2, .L793
 5242              		.loc 1 1051 0
 5243 162c 9142     		cmp	r1, r2
 5244 162e 04D2     		bcs	.L788
 5245              	.LVL787:
 5246              	.L786:
 5247              		.loc 1 1054 0
 5248 1630 5B68     		ldr	r3, [r3, #4]
 5249 1632 C818     		adds	r0, r1, r3
 5250 1634 E4E7     		b	.L783
 5251              	.LVL788:
 5252              	.L828:
 5253              		.loc 1 1051 0
 5254 1636 8A42     		cmp	r2, r1
 5255 1638 FAD8     		bhi	.L786
 5256              	.LVL789:
 5257              	.L788:
 5258              		.loc 1 1052 0
 5259 163a 891A     		subs	r1, r1, r2
 5260              	.LVL790:
 5261              		.loc 1 1049 0
 5262 163c 53F8082F 		ldr	r2, [r3, #8]!
 5263              	.LVL791:
 5264              		.loc 1 1050 0
 5265 1640 002A     		cmp	r2, #0
 5266 1642 F8D1     		bne	.L828
 5267              	.LVL792:
 5268              	.L793:
 5269              	.LBE478:
 5270              	.LBE477:
 5271              		.loc 1 2417 0
 5272 1644 A379     		ldrb	r3, [r4, #6]	@ zero_extendqisi2
 5273 1646 63F07F03 		orn	r3, r3, #127
 5274 164a A371     		strb	r3, [r4, #6]
 5275              	.LVL793:
 5276              	.LBB479:
 5277              	.LBB480:
 5278              	.LBB481:
 5279              		.loc 1 596 0
 5280 164c DEF80C00 		ldr	r0, [lr, #12]
 5281 1650 FFF7FEFF 		bl	ff_rel_grant
 5282              	.LVL794:
 5283              	.LBE481:
 5284              	.LBE480:
 5285              	.LBE479:
 5286              		.loc 1 2417 0
 5287 1654 0220     		movs	r0, #2
 5288 1656 BDE8F087 		pop	{r4, r5, r6, r7, r8, r9, r10, pc}
 5289              	.LVL795:
 5290              	.L831:
 5291              	.LBB482:
ARM GAS  /tmp/ccJyHyK3.s 			page 94


 5292              	.LBB483:
 5293              	.LBB484:
 5294              		.loc 1 596 0
 5295 165a 2368     		ldr	r3, [r4]
 5296 165c D868     		ldr	r0, [r3, #12]
 5297              	.LVL796:
 5298 165e FFF7FEFF 		bl	ff_rel_grant
 5299              	.LVL797:
 5300              	.LBE484:
 5301              	.LBE483:
 5302              	.LBE482:
 5303              		.loc 1 2391 0
 5304 1662 0220     		movs	r0, #2
 5305 1664 BDE8F087 		pop	{r4, r5, r6, r7, r8, r9, r10, pc}
 5306              	.LVL798:
 5307              	.L832:
 5308              	.LBB485:
 5309              	.LBB486:
 5310              	.LBB487:
 5311              		.loc 1 596 0
 5312 1668 2368     		ldr	r3, [r4]
 5313 166a D868     		ldr	r0, [r3, #12]
 5314              	.LVL799:
 5315 166c FFF7FEFF 		bl	ff_rel_grant
 5316              	.LVL800:
 5317              	.LBE487:
 5318              	.LBE486:
 5319              	.LBE485:
 5320              		.loc 1 2393 0
 5321 1670 0720     		movs	r0, #7
 5322 1672 BDE8F087 		pop	{r4, r5, r6, r7, r8, r9, r10, pc}
 5323              	.LVL801:
 5324              	.L801:
 5325              	.LBB488:
 5326              	.LBB467:
 5327              		.loc 1 534 0
 5328 1676 3146     		mov	r1, r6
 5329 1678 4246     		mov	r2, r8
 5330              	.LVL802:
 5331 167a 58E7     		b	.L805
 5332              	.LVL803:
 5333              	.L830:
 5334              	.LBE467:
 5335              	.LBE488:
 5336              		.loc 1 2456 0
 5337 167c A379     		ldrb	r3, [r4, #6]	@ zero_extendqisi2
 5338              	.LBB489:
 5339              	.LBB490:
 5340              	.LBB491:
 5341              		.loc 1 596 0
 5342 167e 2268     		ldr	r2, [r4]
 5343              	.LBE491:
 5344              	.LBE490:
 5345              	.LBE489:
 5346              		.loc 1 2456 0
 5347 1680 63F07F03 		orn	r3, r3, #127
 5348 1684 A371     		strb	r3, [r4, #6]
ARM GAS  /tmp/ccJyHyK3.s 			page 95


 5349              	.LVL804:
 5350              	.LBB494:
 5351              	.LBB493:
 5352              	.LBB492:
 5353              		.loc 1 596 0
 5354 1686 D068     		ldr	r0, [r2, #12]
 5355 1688 FFF7FEFF 		bl	ff_rel_grant
 5356              	.LVL805:
 5357              	.LBE492:
 5358              	.LBE493:
 5359              	.LBE494:
 5360              		.loc 1 2456 0
 5361 168c 0120     		movs	r0, #1
 5362 168e BDE8F087 		pop	{r4, r5, r6, r7, r8, r9, r10, pc}
 5363              	.LVL806:
 5364              	.L784:
 5365              		.loc 1 2410 0
 5366 1692 6169     		ldr	r1, [r4, #20]
 5367              	.LVL807:
 5368              	.LBB495:
 5369              	.LBB496:
 5370              		.loc 1 828 0
 5371 1694 0129     		cmp	r1, #1
 5372 1696 D5D9     		bls	.L793
 5373 1698 DEF82030 		ldr	r3, [lr, #32]
 5374              	.LVL808:
 5375 169c 9942     		cmp	r1, r3
 5376 169e D1D2     		bcs	.L793
 5377 16a0 7046     		mov	r0, lr
 5378 16a2 FEF71DFF 		bl	get_fat.part.7
 5379              	.LVL809:
 5380 16a6 D4F800E0 		ldr	lr, [r4]
 5381 16aa A9E7     		b	.L783
 5382              	.LVL810:
 5383              	.L833:
 5384              	.LBE496:
 5385              	.LBE495:
 5386              		.loc 1 2413 0 discriminator 1
 5387 16ac A379     		ldrb	r3, [r4, #6]	@ zero_extendqisi2
 5388 16ae 63F07F03 		orn	r3, r3, #127
 5389 16b2 A371     		strb	r3, [r4, #6]
 5390              	.LVL811:
 5391              	.LBB497:
 5392              	.LBB498:
 5393              	.LBB499:
 5394              		.loc 1 596 0 discriminator 1
 5395 16b4 DEF80C00 		ldr	r0, [lr, #12]
 5396              	.LVL812:
 5397 16b8 FFF7FEFF 		bl	ff_rel_grant
 5398              	.LVL813:
 5399              	.LBE499:
 5400              	.LBE498:
 5401              	.LBE497:
 5402              		.loc 1 2413 0 discriminator 1
 5403 16bc 0120     		movs	r0, #1
 5404 16be BDE8F087 		pop	{r4, r5, r6, r7, r8, r9, r10, pc}
 5405              		.cfi_endproc
ARM GAS  /tmp/ccJyHyK3.s 			page 96


 5406              	.LFE40:
 5407              		.size	f_read, .-f_read
 5408 16c2 00BF     		.align	2
 5409 16c4 AFF30080 		.p2align 4,,15
 5409      AFF30080 
 5409      AFF30080 
 5410              		.global	f_write
 5411              		.thumb
 5412              		.thumb_func
 5413              		.type	f_write, %function
 5414              	f_write:
 5415              	.LFB41:
 5416              		.loc 1 2480 0
 5417              		.cfi_startproc
 5418              		@ args = 0, pretend = 0, frame = 8
 5419              		@ frame_needed = 0, uses_anonymous_args = 0
 5420              	.LVL814:
 5421 16d0 2DE9F04F 		push	{r4, r5, r6, r7, r8, r9, r10, fp, lr}
 5422              		.cfi_def_cfa_offset 36
 5423              		.cfi_offset 4, -36
 5424              		.cfi_offset 5, -32
 5425              		.cfi_offset 6, -28
 5426              		.cfi_offset 7, -24
 5427              		.cfi_offset 8, -20
 5428              		.cfi_offset 9, -16
 5429              		.cfi_offset 10, -12
 5430              		.cfi_offset 11, -8
 5431              		.cfi_offset 14, -4
 5432 16d4 0446     		mov	r4, r0
 5433 16d6 9946     		mov	r9, r3
 5434              		.loc 1 2488 0
 5435 16d8 0023     		movs	r3, #0
 5436              	.LVL815:
 5437              		.loc 1 2480 0
 5438 16da 83B0     		sub	sp, sp, #12
 5439              		.cfi_def_cfa_offset 48
 5440              		.loc 1 2480 0
 5441 16dc 0E46     		mov	r6, r1
 5442              	.LVL816:
 5443              		.loc 1 2488 0
 5444 16de C9F80030 		str	r3, [r9]
 5445              		.loc 1 2490 0
 5446 16e2 0068     		ldr	r0, [r0]
 5447              	.LVL817:
 5448 16e4 A188     		ldrh	r1, [r4, #4]
 5449              	.LVL818:
 5450              		.loc 1 2480 0
 5451 16e6 1546     		mov	r5, r2
 5452              		.loc 1 2490 0
 5453 16e8 FEF7D2FE 		bl	validate
 5454              	.LVL819:
 5455              		.loc 1 2491 0
 5456 16ec 0746     		mov	r7, r0
 5457 16ee 78B1     		cbz	r0, .L835
 5458              	.LBB550:
 5459              	.LBB551:
 5460              		.loc 1 592 0 discriminator 1
ARM GAS  /tmp/ccJyHyK3.s 			page 97


 5461 16f0 A0F10B03 		sub	r3, r0, #11
 5462 16f4 DBB2     		uxtb	r3, r3
 5463 16f6 012B     		cmp	r3, #1
 5464              	.LBE551:
 5465              	.LBE550:
 5466              		.loc 1 2491 0 discriminator 1
 5467 16f8 2068     		ldr	r0, [r4]
 5468              	.LVL820:
 5469              	.LBB554:
 5470              	.LBB552:
 5471              		.loc 1 592 0 discriminator 1
 5472 16fa 6CD9     		bls	.L877
 5473              		.loc 1 593 0
 5474 16fc 092F     		cmp	r7, #9
 5475 16fe 6AD0     		beq	.L877
 5476 1700 0C30     		adds	r0, r0, #12
 5477              	.LVL821:
 5478 1702 3946     		mov	r1, r7
 5479 1704 FEF7E4FE 		bl	unlock_fs.isra.5.part.6
 5480              	.LVL822:
 5481 1708 3846     		mov	r0, r7
 5482              	.LVL823:
 5483              	.L888:
 5484              	.LBE552:
 5485              	.LBE554:
 5486              		.loc 1 2584 0
 5487 170a 03B0     		add	sp, sp, #12
 5488              		.cfi_remember_state
 5489              		.cfi_def_cfa_offset 36
 5490              		@ sp needed
 5491 170c BDE8F08F 		pop	{r4, r5, r6, r7, r8, r9, r10, fp, pc}
 5492              	.LVL824:
 5493              	.L835:
 5494              		.cfi_restore_state
 5495              		.loc 1 2492 0
 5496 1710 A279     		ldrb	r2, [r4, #6]	@ zero_extendqisi2
 5497 1712 1006     		lsls	r0, r2, #24
 5498              	.LVL825:
 5499 1714 63D4     		bmi	.L892
 5500              		.loc 1 2494 0
 5501 1716 9107     		lsls	r1, r2, #30
 5502 1718 40F1E080 		bpl	.L893
 5503              		.loc 1 2496 0
 5504 171c E168     		ldr	r1, [r4, #12]
 5505 171e A368     		ldr	r3, [r4, #8]
 5506 1720 2068     		ldr	r0, [r4]
 5507 1722 CD42     		cmn	r5, r1
 5508 1724 4CD2     		bcs	.L840
 5509              		.loc 1 2498 0
 5510 1726 002D     		cmp	r5, #0
 5511 1728 4AD0     		beq	.L840
 5512              		.loc 1 2555 0
 5513 172a 0197     		str	r7, [sp, #4]
 5514              		.loc 1 2573 0
 5515 172c 4FF00108 		mov	r8, #1
 5516              	.LVL826:
 5517              	.L873:
ARM GAS  /tmp/ccJyHyK3.s 			page 98


 5518              		.loc 1 2500 0
 5519 1730 C3F30802 		ubfx	r2, r3, #0, #9
 5520 1734 002A     		cmp	r2, #0
 5521 1736 5AD0     		beq	.L842
 5522 1738 A169     		ldr	r1, [r4, #24]
 5523              	.L843:
 5524              		.loc 1 2567 0
 5525 173a C2F5007A 		rsb	r10, r2, #512
 5526              	.LVL827:
 5527 173e AA45     		cmp	r10, r5
 5528 1740 28BF     		it	cs
 5529 1742 AA46     		movcs	r10, r5
 5530              	.LVL828:
 5531              		.loc 1 2570 0
 5532 1744 FEF75CFC 		bl	move_window
 5533              	.LVL829:
 5534 1748 0028     		cmp	r0, #0
 5535 174a 40F0DE80 		bne	.L891
 5536              		.loc 1 2572 0
 5537 174e A268     		ldr	r2, [r4, #8]
 5538 1750 2168     		ldr	r1, [r4]
 5539 1752 C2F30802 		ubfx	r2, r2, #0, #9
 5540 1756 3832     		adds	r2, r2, #56
 5541              	.LBB555:
 5542              	.LBB556:
 5543              		.loc 1 534 0
 5544 1758 BAF1030F 		cmp	r10, #3
 5545              	.LBE556:
 5546              	.LBE555:
 5547              		.loc 1 2572 0
 5548 175c 0A44     		add	r2, r2, r1
 5549              	.LVL830:
 5550              	.LBB559:
 5551              	.LBB557:
 5552              		.loc 1 534 0
 5553 175e 40F2E080 		bls	.L869
 5554 1762 A6F1040E 		sub	lr, r6, #4
 5555 1766 5346     		mov	r3, r10
 5556 1768 1046     		mov	r0, r2
 5557              	.LVL831:
 5558              	.L870:
 5559              		.loc 1 537 0
 5560 176a 043B     		subs	r3, r3, #4
 5561              	.LVL832:
 5562              		.loc 1 535 0
 5563 176c 5EF8047F 		ldr	r7, [lr, #4]!
 5564              	.LVL833:
 5565 1770 40F8047B 		str	r7, [r0], #4
 5566              	.LVL834:
 5567              		.loc 1 534 0
 5568 1774 032B     		cmp	r3, #3
 5569 1776 F8D8     		bhi	.L870
 5570 1778 AAF10403 		sub	r3, r10, #4
 5571              	.LVL835:
 5572 177c 23F00303 		bic	r3, r3, #3
 5573 1780 0433     		adds	r3, r3, #4
 5574              	.LVL836:
ARM GAS  /tmp/ccJyHyK3.s 			page 99


 5575              		.loc 1 540 0
 5576 1782 1AF00300 		ands	r0, r10, #3
 5577              	.LVL837:
 5578 1786 1A44     		add	r2, r2, r3
 5579              	.LVL838:
 5580 1788 3344     		add	r3, r3, r6
 5581              	.LVL839:
 5582 178a 08D0     		beq	.L871
 5583              	.LVL840:
 5584              	.L875:
 5585 178c 013A     		subs	r2, r2, #1
 5586              	.LVL841:
 5587 178e 1844     		add	r0, r0, r3
 5588              	.LVL842:
 5589              	.L872:
 5590              		.loc 1 541 0
 5591 1790 13F8011B 		ldrb	r1, [r3], #1	@ zero_extendqisi2
 5592              	.LVL843:
 5593 1794 02F8011F 		strb	r1, [r2, #1]!
 5594              	.LVL844:
 5595              		.loc 1 540 0
 5596 1798 8342     		cmp	r3, r0
 5597 179a F9D1     		bne	.L872
 5598 179c 2168     		ldr	r1, [r4]
 5599              	.L871:
 5600              	.LBE557:
 5601              	.LBE559:
 5602              		.loc 1 2573 0
 5603 179e 81F80480 		strb	r8, [r1, #4]
 5604 17a2 2068     		ldr	r0, [r4]
 5605              	.LVL845:
 5606              	.L865:
 5607              		.loc 1 2499 0
 5608 17a4 A368     		ldr	r3, [r4, #8]
 5609 17a6 D9F80020 		ldr	r2, [r9]
 5610 17aa 5344     		add	r3, r3, r10
 5611 17ac 5244     		add	r2, r2, r10
 5612              		.loc 1 2498 0
 5613 17ae B5EB0A05 		subs	r5, r5, r10
 5614              	.LVL846:
 5615              		.loc 1 2499 0
 5616 17b2 A360     		str	r3, [r4, #8]
 5617 17b4 5644     		add	r6, r6, r10
 5618              	.LVL847:
 5619 17b6 C9F80020 		str	r2, [r9]
 5620              		.loc 1 2498 0
 5621 17ba B9D1     		bne	.L873
 5622              	.LVL848:
 5623              	.L890:
 5624 17bc E168     		ldr	r1, [r4, #12]
 5625 17be A279     		ldrb	r2, [r4, #6]	@ zero_extendqisi2
 5626              	.L840:
 5627              		.loc 1 2581 0
 5628 17c0 42F02002 		orr	r2, r2, #32
 5629              		.loc 1 2580 0
 5630 17c4 8B42     		cmp	r3, r1
 5631              		.loc 1 2581 0
ARM GAS  /tmp/ccJyHyK3.s 			page 100


 5632 17c6 A271     		strb	r2, [r4, #6]
 5633              	.LVL849:
 5634              	.LBB560:
 5635              	.LBB561:
 5636              	.LBB562:
 5637              		.loc 1 596 0
 5638 17c8 C068     		ldr	r0, [r0, #12]
 5639              	.LVL850:
 5640              	.LBE562:
 5641              	.LBE561:
 5642              	.LBE560:
 5643              		.loc 1 2580 0
 5644 17ca 88BF     		it	hi
 5645 17cc E360     		strhi	r3, [r4, #12]
 5646              	.LBB565:
 5647              	.LBB564:
 5648              	.LBB563:
 5649              		.loc 1 596 0
 5650 17ce FFF7FEFF 		bl	ff_rel_grant
 5651              	.LVL851:
 5652              	.LBE563:
 5653              	.LBE564:
 5654              	.LBE565:
 5655              		.loc 1 2583 0
 5656 17d2 0020     		movs	r0, #0
 5657 17d4 99E7     		b	.L888
 5658              	.LVL852:
 5659              	.L877:
 5660              	.LBB566:
 5661              	.LBB553:
 5662              		.loc 1 593 0
 5663 17d6 3846     		mov	r0, r7
 5664              	.LVL853:
 5665              	.LBE553:
 5666              	.LBE566:
 5667              		.loc 1 2584 0
 5668 17d8 03B0     		add	sp, sp, #12
 5669              		.cfi_remember_state
 5670              		.cfi_def_cfa_offset 36
 5671              		@ sp needed
 5672 17da BDE8F08F 		pop	{r4, r5, r6, r7, r8, r9, r10, fp, pc}
 5673              	.LVL854:
 5674              	.L892:
 5675              		.cfi_restore_state
 5676              	.LBB567:
 5677              	.LBB568:
 5678              	.LBB569:
 5679              		.loc 1 596 0
 5680 17de 2368     		ldr	r3, [r4]
 5681 17e0 D868     		ldr	r0, [r3, #12]
 5682 17e2 FFF7FEFF 		bl	ff_rel_grant
 5683              	.LVL855:
 5684              	.LBE569:
 5685              	.LBE568:
 5686              	.LBE567:
 5687              		.loc 1 2493 0
 5688 17e6 0220     		movs	r0, #2
ARM GAS  /tmp/ccJyHyK3.s 			page 101


 5689              		.loc 1 2584 0
 5690 17e8 03B0     		add	sp, sp, #12
 5691              		.cfi_remember_state
 5692              		.cfi_def_cfa_offset 36
 5693              		@ sp needed
 5694 17ea BDE8F08F 		pop	{r4, r5, r6, r7, r8, r9, r10, fp, pc}
 5695              	.LVL856:
 5696              	.L842:
 5697              		.cfi_restore_state
 5698              		.loc 1 2501 0
 5699 17ee 90F802E0 		ldrb	lr, [r0, #2]	@ zero_extendqisi2
 5700 17f2 590A     		lsrs	r1, r3, #9
 5701 17f4 0EF1FF32 		add	r2, lr, #-1
 5702 17f8 0A40     		ands	r2, r2, r1
 5703              	.LVL857:
 5704              		.loc 1 2502 0
 5705 17fa 12F0FF07 		ands	r7, r2, #255
 5706 17fe 0CD1     		bne	.L844
 5707              		.loc 1 2503 0
 5708 1800 002B     		cmp	r3, #0
 5709 1802 54D1     		bne	.L845
 5710              		.loc 1 2504 0
 5711 1804 2369     		ldr	r3, [r4, #16]
 5712              	.LVL858:
 5713              		.loc 1 2505 0
 5714 1806 002B     		cmp	r3, #0
 5715 1808 00F0A180 		beq	.L894
 5716              	.LVL859:
 5717              	.L846:
 5718              		.loc 1 2516 0
 5719 180c 012B     		cmp	r3, #1
 5720 180e 00F09580 		beq	.L859
 5721              		.loc 1 2517 0
 5722 1812 5A1C     		adds	r2, r3, #1
 5723 1814 00F0AE80 		beq	.L895
 5724              		.loc 1 2518 0
 5725 1818 6361     		str	r3, [r4, #20]
 5726              	.LVL860:
 5727              	.L844:
 5728              		.loc 1 2521 0
 5729 181a 416B     		ldr	r1, [r0, #52]
 5730 181c A369     		ldr	r3, [r4, #24]
 5731 181e 9942     		cmp	r1, r3
 5732 1820 6DD0     		beq	.L896
 5733              	.L856:
 5734              	.LVL861:
 5735              	.LBB570:
 5736              	.LBB571:
 5737              		.loc 1 806 0
 5738 1822 6169     		ldr	r1, [r4, #20]
 5739              		.loc 1 807 0
 5740 1824 036A     		ldr	r3, [r0, #32]
 5741              		.loc 1 806 0
 5742 1826 A1F1020B 		sub	fp, r1, #2
 5743              	.LVL862:
 5744              		.loc 1 807 0
 5745 182a 023B     		subs	r3, r3, #2
ARM GAS  /tmp/ccJyHyK3.s 			page 102


 5746 182c 9B45     		cmp	fp, r3
 5747 182e 80F08580 		bcs	.L859
 5748              		.loc 1 808 0
 5749 1832 8178     		ldrb	r1, [r0, #2]	@ zero_extendqisi2
 5750 1834 036B     		ldr	r3, [r0, #48]
 5751 1836 0BFB0133 		mla	r3, fp, r1, r3
 5752              	.LBE571:
 5753              	.LBE570:
 5754              		.loc 1 2531 0
 5755 183a 002B     		cmp	r3, #0
 5756 183c 7ED0     		beq	.L859
 5757              		.loc 1 2534 0
 5758 183e 5FEA552A 		lsrs	r10, r5, #9
 5759              		.loc 1 2532 0
 5760 1842 07EB030B 		add	fp, r7, r3
 5761              	.LVL863:
 5762              		.loc 1 2534 0
 5763 1846 28D0     		beq	.L860
 5764              		.loc 1 2535 0
 5765 1848 07EB0A03 		add	r3, r7, r10
 5766 184c 8B42     		cmp	r3, r1
 5767              		.loc 1 2536 0
 5768 184e 88BF     		it	hi
 5769 1850 C7EB010A 		rsbhi	r10, r7, r1
 5770              	.LVL864:
 5771              		.loc 1 2537 0
 5772 1854 4078     		ldrb	r0, [r0, #1]	@ zero_extendqisi2
 5773              	.LVL865:
 5774 1856 3146     		mov	r1, r6
 5775 1858 5A46     		mov	r2, fp
 5776 185a 5FFA8AF3 		uxtb	r3, r10
 5777 185e FFF7FEFF 		bl	disk_write
 5778              	.LVL866:
 5779 1862 0028     		cmp	r0, #0
 5780 1864 51D1     		bne	.L891
 5781              		.loc 1 2540 0
 5782 1866 2068     		ldr	r0, [r4]
 5783 1868 436B     		ldr	r3, [r0, #52]
 5784 186a CBEB0303 		rsb	r3, fp, r3
 5785 186e 9A45     		cmp	r10, r3
 5786 1870 10D9     		bls	.L863
 5787 1872 06EB4323 		add	r3, r6, r3, lsl #9
 5788 1876 1A1F     		subs	r2, r3, #4
 5789 1878 00F50E7E 		add	lr, r0, #568
 5790              		.loc 1 2541 0
 5791 187c 00F13803 		add	r3, r0, #56
 5792              	.LVL867:
 5793              	.L864:
 5794              	.LBB572:
 5795              	.LBB573:
 5796              		.loc 1 535 0
 5797 1880 52F8041F 		ldr	r1, [r2, #4]!
 5798              	.LVL868:
 5799 1884 43F8041B 		str	r1, [r3], #4
 5800              	.LVL869:
 5801              		.loc 1 534 0
 5802 1888 7345     		cmp	r3, lr
ARM GAS  /tmp/ccJyHyK3.s 			page 103


 5803 188a F9D1     		bne	.L864
 5804              	.LVL870:
 5805              	.LBE573:
 5806              	.LBE572:
 5807              		.loc 1 2542 0
 5808 188c 9DF80430 		ldrb	r3, [sp, #4]	@ zero_extendqisi2
 5809 1890 0371     		strb	r3, [r0, #4]
 5810 1892 2068     		ldr	r0, [r4]
 5811              	.LVL871:
 5812              	.L863:
 5813              		.loc 1 2550 0
 5814 1894 4FEA4A2A 		lsl	r10, r10, #9
 5815              	.LVL872:
 5816              		.loc 1 2551 0
 5817 1898 84E7     		b	.L865
 5818              	.LVL873:
 5819              	.L860:
 5820              		.loc 1 2554 0
 5821 189a A268     		ldr	r2, [r4, #8]
 5822 189c E368     		ldr	r3, [r4, #12]
 5823 189e 9A42     		cmp	r2, r3
 5824 18a0 24D2     		bcs	.L897
 5825              	.LVL874:
 5826              	.L866:
 5827              		.loc 1 2565 0
 5828 18a2 C4F818B0 		str	fp, [r4, #24]
 5829 18a6 C2F30802 		ubfx	r2, r2, #0, #9
 5830 18aa 5946     		mov	r1, fp
 5831 18ac 45E7     		b	.L843
 5832              	.LVL875:
 5833              	.L845:
 5834              		.loc 1 2509 0
 5835 18ae 626A     		ldr	r2, [r4, #36]
 5836              	.LVL876:
 5837 18b0 002A     		cmp	r2, #0
 5838 18b2 56D0     		beq	.L848
 5839              	.LVL877:
 5840              	.LBB574:
 5841              	.LBB575:
 5842              		.loc 1 1047 0
 5843 18b4 B1FBFEFE 		udiv	lr, r1, lr
 5844              	.LVL878:
 5845              		.loc 1 1049 0
 5846 18b8 5168     		ldr	r1, [r2, #4]
 5847              	.LVL879:
 5848              		.loc 1 1046 0
 5849 18ba 02F1040C 		add	ip, r2, #4
 5850              	.LVL880:
 5851              		.loc 1 1050 0
 5852 18be 0029     		cmp	r1, #0
 5853 18c0 3FF47CAF 		beq	.L890
 5854              		.loc 1 1051 0
 5855 18c4 8E45     		cmp	lr, r1
 5856 18c6 02D2     		bcs	.L852
 5857 18c8 2EE0     		b	.L850
 5858              	.LVL881:
 5859              	.L853:
ARM GAS  /tmp/ccJyHyK3.s 			page 104


 5860 18ca 7145     		cmp	r1, lr
 5861 18cc 2CD8     		bhi	.L850
 5862              	.LVL882:
 5863              	.L852:
 5864              		.loc 1 1052 0
 5865 18ce C1EB0E0E 		rsb	lr, r1, lr
 5866              	.LVL883:
 5867              		.loc 1 1049 0
 5868 18d2 5CF8081F 		ldr	r1, [ip, #8]!
 5869              	.LVL884:
 5870              		.loc 1 1050 0
 5871 18d6 0029     		cmp	r1, #0
 5872 18d8 F7D1     		bne	.L853
 5873 18da 6FE7     		b	.L890
 5874              	.LVL885:
 5875              	.L893:
 5876              	.LBE575:
 5877              	.LBE574:
 5878              	.LBB577:
 5879              	.LBB578:
 5880              	.LBB579:
 5881              		.loc 1 596 0
 5882 18dc 2368     		ldr	r3, [r4]
 5883 18de D868     		ldr	r0, [r3, #12]
 5884 18e0 FFF7FEFF 		bl	ff_rel_grant
 5885              	.LVL886:
 5886              	.LBE579:
 5887              	.LBE578:
 5888              	.LBE577:
 5889              		.loc 1 2495 0
 5890 18e4 0720     		movs	r0, #7
 5891              		.loc 1 2584 0
 5892 18e6 03B0     		add	sp, sp, #12
 5893              		.cfi_remember_state
 5894              		.cfi_def_cfa_offset 36
 5895              		@ sp needed
 5896 18e8 BDE8F08F 		pop	{r4, r5, r6, r7, r8, r9, r10, fp, pc}
 5897              	.LVL887:
 5898              	.L897:
 5899              		.cfi_restore_state
 5900              		.loc 1 2555 0
 5901 18ec 5146     		mov	r1, r10
 5902 18ee FEF787FB 		bl	move_window
 5903              	.LVL888:
 5904 18f2 50B9     		cbnz	r0, .L891
 5905              		.loc 1 2556 0
 5906 18f4 2068     		ldr	r0, [r4]
 5907 18f6 A268     		ldr	r2, [r4, #8]
 5908 18f8 C0F834B0 		str	fp, [r0, #52]
 5909 18fc D1E7     		b	.L866
 5910              	.LVL889:
 5911              	.L896:
 5912              		.loc 1 2521 0 discriminator 1
 5913 18fe 0021     		movs	r1, #0
 5914 1900 FEF77EFB 		bl	move_window
 5915              	.LVL890:
 5916 1904 08B9     		cbnz	r0, .L891
ARM GAS  /tmp/ccJyHyK3.s 			page 105


 5917 1906 2068     		ldr	r0, [r4]
 5918 1908 8BE7     		b	.L856
 5919              	.L891:
 5920              		.loc 1 2571 0
 5921 190a A379     		ldrb	r3, [r4, #6]	@ zero_extendqisi2
 5922              	.LBB580:
 5923              	.LBB581:
 5924              	.LBB582:
 5925              		.loc 1 596 0
 5926 190c 2268     		ldr	r2, [r4]
 5927              	.LBE582:
 5928              	.LBE581:
 5929              	.LBE580:
 5930              		.loc 1 2571 0
 5931 190e 63F07F03 		orn	r3, r3, #127
 5932 1912 A371     		strb	r3, [r4, #6]
 5933              	.LVL891:
 5934              	.LBB585:
 5935              	.LBB584:
 5936              	.LBB583:
 5937              		.loc 1 596 0
 5938 1914 D068     		ldr	r0, [r2, #12]
 5939 1916 FFF7FEFF 		bl	ff_rel_grant
 5940              	.LVL892:
 5941              	.LBE583:
 5942              	.LBE584:
 5943              	.LBE585:
 5944              		.loc 1 2571 0
 5945 191a 0120     		movs	r0, #1
 5946              		.loc 1 2584 0
 5947 191c 03B0     		add	sp, sp, #12
 5948              		.cfi_remember_state
 5949              		.cfi_def_cfa_offset 36
 5950              		@ sp needed
 5951 191e BDE8F08F 		pop	{r4, r5, r6, r7, r8, r9, r10, fp, pc}
 5952              	.LVL893:
 5953              	.L869:
 5954              		.cfi_restore_state
 5955              	.LBB586:
 5956              	.LBB558:
 5957              		.loc 1 534 0
 5958 1922 3346     		mov	r3, r6
 5959 1924 5046     		mov	r0, r10
 5960              	.LVL894:
 5961 1926 31E7     		b	.L875
 5962              	.LVL895:
 5963              	.L850:
 5964              	.LBE558:
 5965              	.LBE586:
 5966              	.LBB587:
 5967              	.LBB576:
 5968              		.loc 1 1054 0
 5969 1928 DCF80430 		ldr	r3, [ip, #4]
 5970              	.LVL896:
 5971 192c 7344     		add	r3, r3, lr
 5972              	.LVL897:
 5973              	.LBE576:
ARM GAS  /tmp/ccJyHyK3.s 			page 106


 5974              	.LBE587:
 5975              		.loc 1 2515 0
 5976 192e 002B     		cmp	r3, #0
 5977 1930 7FF46CAF 		bne	.L846
 5978              	.LVL898:
 5979              	.L898:
 5980 1934 A368     		ldr	r3, [r4, #8]
 5981              	.LVL899:
 5982 1936 E168     		ldr	r1, [r4, #12]
 5983 1938 A279     		ldrb	r2, [r4, #6]	@ zero_extendqisi2
 5984 193a 41E7     		b	.L840
 5985              	.L859:
 5986              		.loc 1 2531 0
 5987 193c A379     		ldrb	r3, [r4, #6]	@ zero_extendqisi2
 5988 193e 63F07F03 		orn	r3, r3, #127
 5989 1942 A371     		strb	r3, [r4, #6]
 5990              	.LVL900:
 5991              	.LBB588:
 5992              	.LBB589:
 5993              	.LBB590:
 5994              		.loc 1 596 0
 5995 1944 C068     		ldr	r0, [r0, #12]
 5996              	.LVL901:
 5997 1946 FFF7FEFF 		bl	ff_rel_grant
 5998              	.LVL902:
 5999              	.LBE590:
 6000              	.LBE589:
 6001              	.LBE588:
 6002              		.loc 1 2531 0
 6003 194a 0220     		movs	r0, #2
 6004 194c DDE6     		b	.L888
 6005              	.LVL903:
 6006              	.L894:
 6007              		.loc 1 2506 0
 6008 194e 3946     		mov	r1, r7
 6009 1950 FEF7E6FE 		bl	create_chain
 6010              	.LVL904:
 6011 1954 0346     		mov	r3, r0
 6012              	.LVL905:
 6013 1956 2061     		str	r0, [r4, #16]
 6014 1958 2068     		ldr	r0, [r4]
 6015              	.LVL906:
 6016              		.loc 1 2515 0
 6017 195a 002B     		cmp	r3, #0
 6018 195c 7FF456AF 		bne	.L846
 6019 1960 E8E7     		b	.L898
 6020              	.LVL907:
 6021              	.L848:
 6022              		.loc 1 2513 0
 6023 1962 6169     		ldr	r1, [r4, #20]
 6024              	.LVL908:
 6025 1964 FEF7DCFE 		bl	create_chain
 6026              	.LVL909:
 6027 1968 0346     		mov	r3, r0
 6028              	.LVL910:
 6029 196a 2068     		ldr	r0, [r4]
 6030              	.LVL911:
ARM GAS  /tmp/ccJyHyK3.s 			page 107


 6031              		.loc 1 2515 0
 6032 196c 002B     		cmp	r3, #0
 6033 196e 7FF44DAF 		bne	.L846
 6034 1972 DFE7     		b	.L898
 6035              	.L895:
 6036              		.loc 1 2517 0 discriminator 1
 6037 1974 A379     		ldrb	r3, [r4, #6]	@ zero_extendqisi2
 6038              	.LVL912:
 6039 1976 63F07F03 		orn	r3, r3, #127
 6040 197a A371     		strb	r3, [r4, #6]
 6041              	.LVL913:
 6042              	.LBB591:
 6043              	.LBB592:
 6044              	.LBB593:
 6045              		.loc 1 596 0 discriminator 1
 6046 197c C068     		ldr	r0, [r0, #12]
 6047              	.LVL914:
 6048 197e FFF7FEFF 		bl	ff_rel_grant
 6049              	.LVL915:
 6050              	.LBE593:
 6051              	.LBE592:
 6052              	.LBE591:
 6053              		.loc 1 2517 0 discriminator 1
 6054 1982 0120     		movs	r0, #1
 6055 1984 C1E6     		b	.L888
 6056              		.cfi_endproc
 6057              	.LFE41:
 6058              		.size	f_write, .-f_write
 6059 1986 00BF     		.align	2
 6060 1988 AFF30080 		.p2align 4,,15
 6060      AFF30080 
 6061              		.global	f_sync
 6062              		.thumb
 6063              		.thumb_func
 6064              		.type	f_sync, %function
 6065              	f_sync:
 6066              	.LFB42:
 6067              		.loc 1 2596 0
 6068              		.cfi_startproc
 6069              		@ args = 0, pretend = 0, frame = 0
 6070              		@ frame_needed = 0, uses_anonymous_args = 0
 6071              	.LVL916:
 6072 1990 38B5     		push	{r3, r4, r5, lr}
 6073              		.cfi_def_cfa_offset 16
 6074              		.cfi_offset 3, -16
 6075              		.cfi_offset 4, -12
 6076              		.cfi_offset 5, -8
 6077              		.cfi_offset 14, -4
 6078              		.loc 1 2596 0
 6079 1992 0446     		mov	r4, r0
 6080              		.loc 1 2602 0
 6081 1994 0068     		ldr	r0, [r0]
 6082              	.LVL917:
 6083 1996 A188     		ldrh	r1, [r4, #4]
 6084 1998 FEF77AFD 		bl	validate
 6085              	.LVL918:
 6086              		.loc 1 2603 0
ARM GAS  /tmp/ccJyHyK3.s 			page 108


 6087 199c 0546     		mov	r5, r0
 6088 199e 40BB     		cbnz	r0, .L900
 6089              		.loc 1 2604 0
 6090 19a0 A379     		ldrb	r3, [r4, #6]	@ zero_extendqisi2
 6091              		.loc 1 2613 0
 6092 19a2 2068     		ldr	r0, [r4]
 6093              	.LVL919:
 6094              		.loc 1 2604 0
 6095 19a4 9B06     		lsls	r3, r3, #26
 6096 19a6 05D4     		bmi	.L911
 6097              	.L909:
 6098 19a8 0C30     		adds	r0, r0, #12
 6099              	.LVL920:
 6100              	.LBB594:
 6101              	.LBB595:
 6102 19aa 2946     		mov	r1, r5
 6103 19ac FEF790FD 		bl	unlock_fs.isra.5.part.6
 6104              	.LVL921:
 6105              	.L905:
 6106              	.LBE595:
 6107              	.LBE594:
 6108              		.loc 1 2629 0
 6109 19b0 2846     		mov	r0, r5
 6110 19b2 38BD     		pop	{r3, r4, r5, pc}
 6111              	.LVL922:
 6112              	.L911:
 6113              		.loc 1 2613 0
 6114 19b4 E169     		ldr	r1, [r4, #28]
 6115 19b6 FEF723FB 		bl	move_window
 6116              	.LVL923:
 6117              		.loc 1 2614 0
 6118 19ba 0546     		mov	r5, r0
 6119 19bc C8B9     		cbnz	r0, .L900
 6120              		.loc 1 2615 0
 6121 19be 256A     		ldr	r5, [r4, #32]
 6122              	.LVL924:
 6123              		.loc 1 2616 0
 6124 19c0 EB7A     		ldrb	r3, [r5, #11]	@ zero_extendqisi2
 6125 19c2 43F02003 		orr	r3, r3, #32
 6126 19c6 EB72     		strb	r3, [r5, #11]
 6127              		.loc 1 2617 0
 6128 19c8 E368     		ldr	r3, [r4, #12]
 6129 19ca EB61     		str	r3, [r5, #28]
 6130              		.loc 1 2618 0
 6131 19cc 2369     		ldr	r3, [r4, #16]
 6132 19ce 6B83     		strh	r3, [r5, #26]	@ movhi
 6133 19d0 1B0C     		lsrs	r3, r3, #16
 6134 19d2 AB82     		strh	r3, [r5, #20]	@ movhi
 6135              		.loc 1 2619 0
 6136 19d4 FFF7FEFF 		bl	get_fattime
 6137              	.LVL925:
 6138              		.loc 1 2620 0
 6139 19d8 C5F81600 		str	r0, [r5, #22]
 6140              		.loc 1 2621 0
 6141 19dc A379     		ldrb	r3, [r4, #6]	@ zero_extendqisi2
 6142              		.loc 1 2622 0
 6143 19de 2268     		ldr	r2, [r4]
ARM GAS  /tmp/ccJyHyK3.s 			page 109


 6144              		.loc 1 2621 0
 6145 19e0 23F02003 		bic	r3, r3, #32
 6146              		.loc 1 2622 0
 6147 19e4 0121     		movs	r1, #1
 6148              		.loc 1 2621 0
 6149 19e6 A371     		strb	r3, [r4, #6]
 6150              		.loc 1 2622 0
 6151 19e8 1171     		strb	r1, [r2, #4]
 6152              		.loc 1 2623 0
 6153 19ea 2068     		ldr	r0, [r4]
 6154              	.LVL926:
 6155 19ec FEF7D0FB 		bl	sync
 6156              	.LVL927:
 6157 19f0 0546     		mov	r5, r0
 6158              	.LVL928:
 6159              	.L900:
 6160              	.LBB598:
 6161              	.LBB596:
 6162              		.loc 1 592 0
 6163 19f2 A5F10B03 		sub	r3, r5, #11
 6164 19f6 DBB2     		uxtb	r3, r3
 6165 19f8 012B     		cmp	r3, #1
 6166              	.LBE596:
 6167              	.LBE598:
 6168              		.loc 1 2628 0
 6169 19fa 2068     		ldr	r0, [r4]
 6170              	.LVL929:
 6171              	.LBB599:
 6172              	.LBB597:
 6173              		.loc 1 592 0
 6174 19fc D8D9     		bls	.L905
 6175              		.loc 1 593 0
 6176 19fe 092D     		cmp	r5, #9
 6177 1a00 D2D1     		bne	.L909
 6178              	.LBE597:
 6179              	.LBE599:
 6180              		.loc 1 2629 0
 6181 1a02 2846     		mov	r0, r5
 6182              	.LVL930:
 6183 1a04 38BD     		pop	{r3, r4, r5, pc}
 6184              		.cfi_endproc
 6185              	.LFE42:
 6186              		.size	f_sync, .-f_sync
 6187 1a06 00BF     		.align	2
 6188 1a08 AFF30080 		.p2align 4,,15
 6188      AFF30080 
 6189              		.global	f_close
 6190              		.thumb
 6191              		.thumb_func
 6192              		.type	f_close, %function
 6193              	f_close:
 6194              	.LFB43:
 6195              		.loc 1 2643 0
 6196              		.cfi_startproc
 6197              		@ args = 0, pretend = 0, frame = 0
 6198              		@ frame_needed = 0, uses_anonymous_args = 0
 6199              	.LVL931:
ARM GAS  /tmp/ccJyHyK3.s 			page 110


 6200 1a10 10B5     		push	{r4, lr}
 6201              		.cfi_def_cfa_offset 8
 6202              		.cfi_offset 4, -8
 6203              		.cfi_offset 14, -4
 6204              		.loc 1 2643 0
 6205 1a12 0446     		mov	r4, r0
 6206              		.loc 1 2653 0
 6207 1a14 FFF7FEFF 		bl	f_sync
 6208              	.LVL932:
 6209              		.loc 1 2667 0
 6210 1a18 00B9     		cbnz	r0, .L913
 6211              		.loc 1 2667 0 is_stmt 0 discriminator 1
 6212 1a1a 2060     		str	r0, [r4]
 6213              	.L913:
 6214              		.loc 1 2670 0 is_stmt 1
 6215 1a1c 10BD     		pop	{r4, pc}
 6216              		.cfi_endproc
 6217              	.LFE43:
 6218              		.size	f_close, .-f_close
 6219 1a1e 00BF     		.align	2
 6220              		.p2align 4,,15
 6221              		.global	f_chdrive
 6222              		.thumb
 6223              		.thumb_func
 6224              		.type	f_chdrive, %function
 6225              	f_chdrive:
 6226              	.LFB44:
 6227              		.loc 1 2684 0
 6228              		.cfi_startproc
 6229              		@ args = 0, pretend = 0, frame = 0
 6230              		@ frame_needed = 0, uses_anonymous_args = 0
 6231              		@ link register save eliminated.
 6232              	.LVL933:
 6233              		.loc 1 2685 0
 6234 1a20 0346     		mov	r3, r0
 6235 1a22 08B1     		cbz	r0, .L918
 6236 1a24 0B20     		movs	r0, #11
 6237              	.LVL934:
 6238              		.loc 1 2690 0
 6239 1a26 7047     		bx	lr
 6240              	.LVL935:
 6241              	.L918:
 6242              		.loc 1 2687 0
 6243 1a28 014A     		ldr	r2, .L919
 6244 1a2a 1370     		strb	r3, [r2]
 6245              		.loc 1 2689 0
 6246 1a2c 7047     		bx	lr
 6247              	.L920:
 6248 1a2e 00BF     		.align	2
 6249              	.L919:
 6250 1a30 00000000 		.word	.LANCHOR0
 6251              		.cfi_endproc
 6252              	.LFE44:
 6253              		.size	f_chdrive, .-f_chdrive
 6254              		.align	2
 6255 1a34 AFF30080 		.p2align 4,,15
 6255      AFF30080 
ARM GAS  /tmp/ccJyHyK3.s 			page 111


 6255      AFF30080 
 6256              		.global	f_chdir
 6257              		.thumb
 6258              		.thumb_func
 6259              		.type	f_chdir, %function
 6260              	f_chdir:
 6261              	.LFB45:
 6262              		.loc 1 2697 0
 6263              		.cfi_startproc
 6264              		@ args = 0, pretend = 0, frame = 568
 6265              		@ frame_needed = 0, uses_anonymous_args = 0
 6266              	.LVL936:
 6267 1a40 10B5     		push	{r4, lr}
 6268              		.cfi_def_cfa_offset 8
 6269              		.cfi_offset 4, -8
 6270              		.cfi_offset 14, -4
 6271 1a42 ADF50E7D 		sub	sp, sp, #568
 6272              		.cfi_def_cfa_offset 576
 6273              		.loc 1 2703 0
 6274 1a46 05A9     		add	r1, sp, #20
 6275              		.loc 1 2697 0
 6276 1a48 0190     		str	r0, [sp, #4]
 6277              		.loc 1 2703 0
 6278 1a4a 0022     		movs	r2, #0
 6279 1a4c 01A8     		add	r0, sp, #4
 6280              	.LVL937:
 6281 1a4e FEF707FC 		bl	chk_mounted
 6282              	.LVL938:
 6283              		.loc 1 2704 0
 6284 1a52 0446     		mov	r4, r0
 6285 1a54 78B1     		cbz	r0, .L922
 6286 1a56 A0F10B03 		sub	r3, r0, #11
 6287 1a5a 0598     		ldr	r0, [sp, #20]
 6288              	.LVL939:
 6289 1a5c DBB2     		uxtb	r3, r3
 6290              	.L923:
 6291              	.LVL940:
 6292              	.LBB600:
 6293              	.LBB601:
 6294              		.loc 1 592 0
 6295 1a5e 012B     		cmp	r3, #1
 6296 1a60 05D9     		bls	.L933
 6297              		.loc 1 593 0
 6298 1a62 092C     		cmp	r4, #9
 6299 1a64 03D0     		beq	.L933
 6300              	.LVL941:
 6301              	.L930:
 6302 1a66 0C30     		adds	r0, r0, #12
 6303              	.LVL942:
 6304              	.L931:
 6305 1a68 2146     		mov	r1, r4
 6306 1a6a FEF731FD 		bl	unlock_fs.isra.5.part.6
 6307              	.LVL943:
 6308              	.L933:
 6309              	.LBE601:
 6310              	.LBE600:
 6311              		.loc 1 2722 0
ARM GAS  /tmp/ccJyHyK3.s 			page 112


 6312 1a6e 2046     		mov	r0, r4
 6313 1a70 0DF50E7D 		add	sp, sp, #568
 6314              		.cfi_remember_state
 6315              		.cfi_def_cfa_offset 8
 6316              		@ sp needed
 6317 1a74 10BD     		pop	{r4, pc}
 6318              	.LVL944:
 6319              	.L922:
 6320              		.cfi_restore_state
 6321              		.loc 1 2705 0
 6322 1a76 02AA     		add	r2, sp, #8
 6323 1a78 0EAB     		add	r3, sp, #56
 6324              		.loc 1 2706 0
 6325 1a7a 0199     		ldr	r1, [sp, #4]
 6326              		.loc 1 2705 0
 6327 1a7c 0B92     		str	r2, [sp, #44]
 6328              		.loc 1 2706 0
 6329 1a7e 05A8     		add	r0, sp, #20
 6330              	.LVL945:
 6331              		.loc 1 2705 0
 6332 1a80 0C93     		str	r3, [sp, #48]
 6333              		.loc 1 2706 0
 6334 1a82 FFF7DDF8 		bl	follow_path
 6335              	.LVL946:
 6336              		.loc 1 2708 0
 6337 1a86 0446     		mov	r4, r0
 6338 1a88 58B9     		cbnz	r0, .L924
 6339              		.loc 1 2709 0
 6340 1a8a 0A9B     		ldr	r3, [sp, #40]
 6341 1a8c 93B1     		cbz	r3, .L937
 6342              		.loc 1 2712 0
 6343 1a8e DA7A     		ldrb	r2, [r3, #11]	@ zero_extendqisi2
 6344 1a90 D206     		lsls	r2, r2, #27
 6345 1a92 0CD5     		bpl	.L927
 6346              		.loc 1 2713 0
 6347 1a94 9A8A     		ldrh	r2, [r3, #20]
 6348 1a96 5B8B     		ldrh	r3, [r3, #26]
 6349 1a98 0598     		ldr	r0, [sp, #20]
 6350              	.LVL947:
 6351 1a9a 43EA0243 		orr	r3, r3, r2, lsl #16
 6352 1a9e C361     		str	r3, [r0, #28]
 6353 1aa0 E1E7     		b	.L930
 6354              	.LVL948:
 6355              	.L924:
 6356              		.loc 1 2718 0
 6357 1aa2 042C     		cmp	r4, #4
 6358 1aa4 0598     		ldr	r0, [sp, #20]
 6359 1aa6 09D1     		bne	.L938
 6360              	.LVL949:
 6361 1aa8 0524     		movs	r4, #5
 6362 1aaa 0C30     		adds	r0, r0, #12
 6363              	.LVL950:
 6364 1aac DCE7     		b	.L931
 6365              	.LVL951:
 6366              	.L927:
 6367 1aae 0598     		ldr	r0, [sp, #20]
 6368              	.LVL952:
ARM GAS  /tmp/ccJyHyK3.s 			page 113


 6369              		.loc 1 2715 0
 6370 1ab0 0524     		movs	r4, #5
 6371              	.LVL953:
 6372 1ab2 D8E7     		b	.L930
 6373              	.LVL954:
 6374              	.L937:
 6375              		.loc 1 2710 0
 6376 1ab4 0598     		ldr	r0, [sp, #20]
 6377              	.LVL955:
 6378 1ab6 079B     		ldr	r3, [sp, #28]
 6379 1ab8 C361     		str	r3, [r0, #28]
 6380 1aba D4E7     		b	.L930
 6381              	.LVL956:
 6382              	.L938:
 6383 1abc A4F10B03 		sub	r3, r4, #11
 6384 1ac0 DBB2     		uxtb	r3, r3
 6385 1ac2 CCE7     		b	.L923
 6386              		.cfi_endproc
 6387              	.LFE45:
 6388              		.size	f_chdir, .-f_chdir
 6389              		.align	2
 6390 1ac4 AFF30080 		.p2align 4,,15
 6390      AFF30080 
 6390      AFF30080 
 6391              		.global	f_getcwd
 6392              		.thumb
 6393              		.thumb_func
 6394              		.type	f_getcwd, %function
 6395              	f_getcwd:
 6396              	.LFB46:
 6397              		.loc 1 2730 0
 6398              		.cfi_startproc
 6399              		@ args = 0, pretend = 0, frame = 600
 6400              		@ frame_needed = 0, uses_anonymous_args = 0
 6401              	.LVL957:
 6402 1ad0 F0B5     		push	{r4, r5, r6, r7, lr}
 6403              		.cfi_def_cfa_offset 20
 6404              		.cfi_offset 4, -20
 6405              		.cfi_offset 5, -16
 6406              		.cfi_offset 6, -12
 6407              		.cfi_offset 7, -8
 6408              		.cfi_offset 14, -4
 6409 1ad2 ADF5177D 		sub	sp, sp, #604
 6410              		.cfi_def_cfa_offset 624
 6411              		.loc 1 2740 0
 6412 1ad6 0023     		movs	r3, #0
 6413              		.loc 1 2730 0
 6414 1ad8 0190     		str	r0, [sp, #4]
 6415 1ada 0E46     		mov	r6, r1
 6416              		.loc 1 2740 0
 6417 1adc 0370     		strb	r3, [r0]
 6418              		.loc 1 2741 0
 6419 1ade 1A46     		mov	r2, r3
 6420 1ae0 01A8     		add	r0, sp, #4
 6421              	.LVL958:
 6422 1ae2 0DA9     		add	r1, sp, #52
 6423              	.LVL959:
ARM GAS  /tmp/ccJyHyK3.s 			page 114


 6424 1ae4 FEF7BCFB 		bl	chk_mounted
 6425              	.LVL960:
 6426              		.loc 1 2742 0
 6427 1ae8 0546     		mov	r5, r0
 6428 1aea 78B1     		cbz	r0, .L940
 6429 1aec A0F10B03 		sub	r3, r0, #11
 6430 1af0 DBB2     		uxtb	r3, r3
 6431              	.LVL961:
 6432              	.L941:
 6433              	.LBB602:
 6434              	.LBB603:
 6435              		.loc 1 592 0
 6436 1af2 012B     		cmp	r3, #1
 6437              	.LBE603:
 6438              	.LBE602:
 6439              		.loc 1 2792 0
 6440 1af4 0D98     		ldr	r0, [sp, #52]
 6441              	.LVL962:
 6442              	.LBB605:
 6443              	.LBB604:
 6444              		.loc 1 592 0
 6445 1af6 05D9     		bls	.L970
 6446              		.loc 1 593 0
 6447 1af8 092D     		cmp	r5, #9
 6448 1afa 03D0     		beq	.L970
 6449 1afc 0C30     		adds	r0, r0, #12
 6450              	.LVL963:
 6451 1afe 2946     		mov	r1, r5
 6452 1b00 FEF7E6FC 		bl	unlock_fs.isra.5.part.6
 6453              	.LVL964:
 6454              	.L970:
 6455              	.LBE604:
 6456              	.LBE605:
 6457              		.loc 1 2793 0
 6458 1b04 2846     		mov	r0, r5
 6459 1b06 0DF5177D 		add	sp, sp, #604
 6460              		.cfi_remember_state
 6461              		.cfi_def_cfa_offset 20
 6462              		@ sp needed
 6463 1b0a F0BD     		pop	{r4, r5, r6, r7, pc}
 6464              	.LVL965:
 6465              	.L940:
 6466              		.cfi_restore_state
 6467              		.loc 1 2745 0
 6468 1b0c 0D9B     		ldr	r3, [sp, #52]
 6469 1b0e DF69     		ldr	r7, [r3, #28]
 6470 1b10 0F97     		str	r7, [sp, #60]
 6471              		.loc 1 2743 0
 6472 1b12 02AA     		add	r2, sp, #8
 6473 1b14 16AB     		add	r3, sp, #88
 6474 1b16 1392     		str	r2, [sp, #76]
 6475 1b18 1493     		str	r3, [sp, #80]
 6476              	.LVL966:
 6477              		.loc 1 2746 0
 6478 1b1a 002F     		cmp	r7, #0
 6479 1b1c 00F08680 		beq	.L942
 6480 1b20 3446     		mov	r4, r6
ARM GAS  /tmp/ccJyHyK3.s 			page 115


 6481              	.LVL967:
 6482              	.L953:
 6483              		.loc 1 2747 0
 6484 1b22 0DA8     		add	r0, sp, #52
 6485 1b24 0121     		movs	r1, #1
 6486 1b26 FEF72BFD 		bl	dir_sdi
 6487              	.LVL968:
 6488              		.loc 1 2748 0
 6489 1b2a 20BB     		cbnz	r0, .L960
 6490              		.loc 1 2749 0
 6491 1b2c 0DA8     		add	r0, sp, #52
 6492              	.LVL969:
 6493 1b2e FEF7EFFE 		bl	dir_read
 6494              	.LVL970:
 6495              		.loc 1 2750 0
 6496 1b32 00BB     		cbnz	r0, .L960
 6497              		.loc 1 2751 0
 6498 1b34 129A     		ldr	r2, [sp, #72]
 6499 1b36 B2F814E0 		ldrh	lr, [r2, #20]
 6500 1b3a 538B     		ldrh	r3, [r2, #26]
 6501              		.loc 1 2752 0
 6502 1b3c 0146     		mov	r1, r0
 6503              		.loc 1 2751 0
 6504 1b3e 43EA0E43 		orr	r3, r3, lr, lsl #16
 6505              		.loc 1 2752 0
 6506 1b42 0DA8     		add	r0, sp, #52
 6507              	.LVL971:
 6508              		.loc 1 2751 0
 6509 1b44 0F93     		str	r3, [sp, #60]
 6510              		.loc 1 2752 0
 6511 1b46 FEF71BFD 		bl	dir_sdi
 6512              	.LVL972:
 6513              		.loc 1 2753 0
 6514 1b4a 60B1     		cbz	r0, .L946
 6515 1b4c 13E0     		b	.L960
 6516              	.L981:
 6517              		.loc 1 2757 0
 6518 1b4e 129A     		ldr	r2, [sp, #72]
 6519 1b50 B2F814E0 		ldrh	lr, [r2, #20]
 6520 1b54 538B     		ldrh	r3, [r2, #26]
 6521 1b56 43EA0E43 		orr	r3, r3, lr, lsl #16
 6522 1b5a BB42     		cmp	r3, r7
 6523              		.loc 1 2758 0
 6524 1b5c 0DA8     		add	r0, sp, #52
 6525              	.LVL973:
 6526              		.loc 1 2757 0
 6527 1b5e 12D0     		beq	.L948
 6528              		.loc 1 2758 0
 6529 1b60 FEF73EFE 		bl	dir_next
 6530              	.LVL974:
 6531              		.loc 1 2759 0
 6532 1b64 28B9     		cbnz	r0, .L947
 6533              	.L946:
 6534              		.loc 1 2755 0
 6535 1b66 0DA8     		add	r0, sp, #52
 6536              	.LVL975:
 6537 1b68 FEF7D2FE 		bl	dir_read
ARM GAS  /tmp/ccJyHyK3.s 			page 116


 6538              	.LVL976:
 6539              		.loc 1 2758 0
 6540 1b6c 0146     		mov	r1, r0
 6541              		.loc 1 2756 0
 6542 1b6e 0028     		cmp	r0, #0
 6543 1b70 EDD0     		beq	.L981
 6544              	.L947:
 6545              		.loc 1 2760 0
 6546 1b72 0428     		cmp	r0, #4
 6547 1b74 47D0     		beq	.L982
 6548              	.L960:
 6549 1b76 A0F10B03 		sub	r3, r0, #11
 6550 1b7a 019F     		ldr	r7, [sp, #4]
 6551              	.LVL977:
 6552 1b7c DBB2     		uxtb	r3, r3
 6553 1b7e 0546     		mov	r5, r0
 6554              	.LVL978:
 6555              	.L955:
 6556              		.loc 1 2788 0
 6557 1b80 0022     		movs	r2, #0
 6558 1b82 3A70     		strb	r2, [r7]
 6559 1b84 B5E7     		b	.L941
 6560              	.LVL979:
 6561              	.L948:
 6562              		.loc 1 2763 0
 6563 1b86 019B     		ldr	r3, [sp, #4]
 6564 1b88 0B93     		str	r3, [sp, #44]
 6565              		.loc 1 2766 0
 6566 1b8a 0DA8     		add	r0, sp, #52
 6567 1b8c 05A9     		add	r1, sp, #20
 6568              		.loc 1 2764 0
 6569 1b8e 0C94     		str	r4, [sp, #48]
 6570              		.loc 1 2766 0
 6571 1b90 FEF776FA 		bl	get_fileinfo
 6572              	.LVL980:
 6573              		.loc 1 2768 0
 6574 1b94 019F     		ldr	r7, [sp, #4]
 6575              	.LVL981:
 6576 1b96 3B78     		ldrb	r3, [r7]	@ zero_extendqisi2
 6577 1b98 7BB3     		cbz	r3, .L983
 6578 1b9a 3A46     		mov	r2, r7
 6579              	.L961:
 6580              	.LVL982:
 6581 1b9c 1146     		mov	r1, r2
 6582 1b9e 0023     		movs	r3, #0
 6583              	.LVL983:
 6584              	.L950:
 6585              		.loc 1 2769 0 discriminator 3
 6586 1ba0 11F8010F 		ldrb	r0, [r1, #1]!	@ zero_extendqisi2
 6587 1ba4 0133     		adds	r3, r3, #1
 6588              	.LVL984:
 6589 1ba6 0028     		cmp	r0, #0
 6590 1ba8 FAD1     		bne	.L950
 6591              		.loc 1 2770 0
 6592 1baa D91C     		adds	r1, r3, #3
 6593 1bac A142     		cmp	r1, r4
 6594 1bae 3AD8     		bhi	.L966
ARM GAS  /tmp/ccJyHyK3.s 			page 117


 6595 1bb0 1A44     		add	r2, r2, r3
 6596              	.LVL985:
 6597 1bb2 3846     		mov	r0, r7
 6598 1bb4 E31A     		subs	r3, r4, r3
 6599              	.LVL986:
 6600              	.L952:
 6601              		.loc 1 2773 0 discriminator 2
 6602 1bb6 013C     		subs	r4, r4, #1
 6603              	.LVL987:
 6604 1bb8 12F8011D 		ldrb	r1, [r2, #-1]!	@ zero_extendqisi2
 6605 1bbc 0155     		strb	r1, [r0, r4]
 6606 1bbe 9C42     		cmp	r4, r3
 6607 1bc0 0198     		ldr	r0, [sp, #4]
 6608 1bc2 F8D1     		bne	.L952
 6609              		.loc 1 2774 0
 6610 1bc4 5C1E     		subs	r4, r3, #1
 6611              	.LVL988:
 6612 1bc6 2F23     		movs	r3, #47
 6613 1bc8 0355     		strb	r3, [r0, r4]
 6614              		.loc 1 2746 0
 6615 1bca 0F9F     		ldr	r7, [sp, #60]
 6616              	.LVL989:
 6617 1bcc 002F     		cmp	r7, #0
 6618 1bce A8D1     		bne	.L953
 6619              	.L984:
 6620              		.loc 1 2778 0
 6621 1bd0 1C4A     		ldr	r2, .L985
 6622              		.loc 1 2776 0
 6623 1bd2 019B     		ldr	r3, [sp, #4]
 6624              	.LVL990:
 6625              		.loc 1 2778 0
 6626 1bd4 1278     		ldrb	r2, [r2]	@ zero_extendqisi2
 6627 1bd6 1F46     		mov	r7, r3
 6628              	.LVL991:
 6629 1bd8 3032     		adds	r2, r2, #48
 6630              		.loc 1 2779 0
 6631 1bda 3A21     		movs	r1, #58
 6632              		.loc 1 2780 0
 6633 1bdc A642     		cmp	r6, r4
 6634              		.loc 1 2778 0
 6635 1bde 07F8022B 		strb	r2, [r7], #2
 6636              	.LVL992:
 6637              		.loc 1 2779 0
 6638 1be2 5970     		strb	r1, [r3, #1]
 6639              		.loc 1 2780 0
 6640 1be4 29D0     		beq	.L958
 6641              	.LVL993:
 6642              	.L956:
 6643              		.loc 1 2784 0 discriminator 1
 6644 1be6 019B     		ldr	r3, [sp, #4]
 6645 1be8 1B5D     		ldrb	r3, [r3, r4]	@ zero_extendqisi2
 6646 1bea 07F8013B 		strb	r3, [r7], #1
 6647              	.LVL994:
 6648 1bee 0134     		adds	r4, r4, #1
 6649              	.LVL995:
 6650              		.loc 1 2785 0 discriminator 1
 6651 1bf0 A642     		cmp	r6, r4
ARM GAS  /tmp/ccJyHyK3.s 			page 118


 6652 1bf2 F8D8     		bhi	.L956
 6653 1bf4 0025     		movs	r5, #0
 6654 1bf6 F523     		movs	r3, #245
 6655 1bf8 C2E7     		b	.L955
 6656              	.LVL996:
 6657              	.L983:
 6658              		.loc 1 2769 0
 6659 1bfa 9DF81D30 		ldrb	r3, [sp, #29]	@ zero_extendqisi2
 6660 1bfe 33B1     		cbz	r3, .L949
 6661              		.loc 1 2767 0
 6662 1c00 0DF11D02 		add	r2, sp, #29
 6663              	.LVL997:
 6664 1c04 CAE7     		b	.L961
 6665              	.LVL998:
 6666              	.L982:
 6667 1c06 019F     		ldr	r7, [sp, #4]
 6668              	.LVL999:
 6669              		.loc 1 2760 0
 6670 1c08 F723     		movs	r3, #247
 6671 1c0a 0225     		movs	r5, #2
 6672 1c0c B8E7     		b	.L955
 6673              	.LVL1000:
 6674              	.L949:
 6675              		.loc 1 2770 0
 6676 1c0e 022C     		cmp	r4, #2
 6677 1c10 09D9     		bls	.L966
 6678 1c12 2346     		mov	r3, r4
 6679 1c14 3846     		mov	r0, r7
 6680              		.loc 1 2774 0
 6681 1c16 5C1E     		subs	r4, r3, #1
 6682              	.LVL1001:
 6683 1c18 2F23     		movs	r3, #47
 6684 1c1a 0355     		strb	r3, [r0, r4]
 6685              		.loc 1 2746 0
 6686 1c1c 0F9F     		ldr	r7, [sp, #60]
 6687              	.LVL1002:
 6688 1c1e 002F     		cmp	r7, #0
 6689 1c20 7FF47FAF 		bne	.L953
 6690 1c24 D4E7     		b	.L984
 6691              	.LVL1003:
 6692              	.L966:
 6693              		.loc 1 2770 0
 6694 1c26 0623     		movs	r3, #6
 6695              		.loc 1 2771 0
 6696 1c28 1125     		movs	r5, #17
 6697              	.LVL1004:
 6698 1c2a A9E7     		b	.L955
 6699              	.LVL1005:
 6700              	.L942:
 6701              		.loc 1 2778 0
 6702 1c2c 054A     		ldr	r2, .L985
 6703              		.loc 1 2776 0
 6704 1c2e 019B     		ldr	r3, [sp, #4]
 6705              	.LVL1006:
 6706              		.loc 1 2778 0
 6707 1c30 1278     		ldrb	r2, [r2]	@ zero_extendqisi2
 6708              		.loc 1 2779 0
ARM GAS  /tmp/ccJyHyK3.s 			page 119


 6709 1c32 3A21     		movs	r1, #58
 6710              		.loc 1 2778 0
 6711 1c34 3032     		adds	r2, r2, #48
 6712 1c36 1A70     		strb	r2, [r3]
 6713              	.LVL1007:
 6714              		.loc 1 2779 0
 6715 1c38 5970     		strb	r1, [r3, #1]
 6716              	.LVL1008:
 6717              	.L958:
 6718              		.loc 1 2781 0
 6719 1c3a 2F22     		movs	r2, #47
 6720 1c3c 9A70     		strb	r2, [r3, #2]
 6721 1c3e DF1C     		adds	r7, r3, #3
 6722              	.LVL1009:
 6723 1c40 F523     		movs	r3, #245
 6724 1c42 9DE7     		b	.L955
 6725              	.L986:
 6726              		.align	2
 6727              	.L985:
 6728 1c44 00000000 		.word	.LANCHOR0
 6729              		.cfi_endproc
 6730              	.LFE46:
 6731              		.size	f_getcwd, .-f_getcwd
 6732              		.align	2
 6733 1c48 AFF30080 		.p2align 4,,15
 6733      AFF30080 
 6734              		.global	f_lseek
 6735              		.thumb
 6736              		.thumb_func
 6737              		.type	f_lseek, %function
 6738              	f_lseek:
 6739              	.LFB47:
 6740              		.loc 1 2808 0
 6741              		.cfi_startproc
 6742              		@ args = 0, pretend = 0, frame = 0
 6743              		@ frame_needed = 0, uses_anonymous_args = 0
 6744              	.LVL1010:
 6745 1c50 2DE9F84F 		push	{r3, r4, r5, r6, r7, r8, r9, r10, fp, lr}
 6746              		.cfi_def_cfa_offset 40
 6747              		.cfi_offset 3, -40
 6748              		.cfi_offset 4, -36
 6749              		.cfi_offset 5, -32
 6750              		.cfi_offset 6, -28
 6751              		.cfi_offset 7, -24
 6752              		.cfi_offset 8, -20
 6753              		.cfi_offset 9, -16
 6754              		.cfi_offset 10, -12
 6755              		.cfi_offset 11, -8
 6756              		.cfi_offset 14, -4
 6757              		.loc 1 2808 0
 6758 1c54 0446     		mov	r4, r0
 6759 1c56 0F46     		mov	r7, r1
 6760              		.loc 1 2812 0
 6761 1c58 0068     		ldr	r0, [r0]
 6762              	.LVL1011:
 6763 1c5a A188     		ldrh	r1, [r4, #4]
 6764              	.LVL1012:
ARM GAS  /tmp/ccJyHyK3.s 			page 120


 6765 1c5c FEF718FC 		bl	validate
 6766              	.LVL1013:
 6767              		.loc 1 2813 0
 6768 1c60 0546     		mov	r5, r0
 6769 1c62 70B1     		cbz	r0, .L988
 6770              	.LBB658:
 6771              	.LBB659:
 6772              		.loc 1 592 0 discriminator 1
 6773 1c64 A0F10B03 		sub	r3, r0, #11
 6774 1c68 DBB2     		uxtb	r3, r3
 6775 1c6a 012B     		cmp	r3, #1
 6776              	.LBE659:
 6777              	.LBE658:
 6778              		.loc 1 2813 0 discriminator 1
 6779 1c6c 2068     		ldr	r0, [r4]
 6780              	.LVL1014:
 6781              	.LBB661:
 6782              	.LBB660:
 6783              		.loc 1 592 0 discriminator 1
 6784 1c6e 05D9     		bls	.L1055
 6785              		.loc 1 593 0
 6786 1c70 092D     		cmp	r5, #9
 6787 1c72 03D0     		beq	.L1055
 6788              	.LVL1015:
 6789              	.L1002:
 6790              	.LBE660:
 6791              	.LBE661:
 6792              	.LBB662:
 6793              	.LBB663:
 6794 1c74 0C30     		adds	r0, r0, #12
 6795              	.LVL1016:
 6796 1c76 2946     		mov	r1, r5
 6797 1c78 FEF72AFC 		bl	unlock_fs.isra.5.part.6
 6798              	.LVL1017:
 6799              	.L1055:
 6800 1c7c 2846     		mov	r0, r5
 6801              	.LBE663:
 6802              	.LBE662:
 6803              		.loc 1 2953 0
 6804 1c7e BDE8F88F 		pop	{r3, r4, r5, r6, r7, r8, r9, r10, fp, pc}
 6805              	.LVL1018:
 6806              	.L988:
 6807              		.loc 1 2814 0
 6808 1c82 A179     		ldrb	r1, [r4, #6]	@ zero_extendqisi2
 6809 1c84 0E06     		lsls	r6, r1, #24
 6810 1c86 2FD4     		bmi	.L1060
 6811              		.loc 1 2818 0
 6812 1c88 666A     		ldr	r6, [r4, #36]
 6813 1c8a 002E     		cmp	r6, #0
 6814 1c8c 64D0     		beq	.L991
 6815              	.LBB664:
 6816              		.loc 1 2821 0
 6817 1c8e 781C     		adds	r0, r7, #1
 6818              	.LVL1019:
 6819 1c90 31D0     		beq	.L1061
 6820              		.loc 1 2847 0
 6821 1c92 E368     		ldr	r3, [r4, #12]
ARM GAS  /tmp/ccJyHyK3.s 			page 121


 6822 1c94 2068     		ldr	r0, [r4]
 6823 1c96 9F42     		cmp	r7, r3
 6824 1c98 28BF     		it	cs
 6825 1c9a 1F46     		movcs	r7, r3
 6826              	.LVL1020:
 6827              		.loc 1 2849 0
 6828 1c9c A760     		str	r7, [r4, #8]
 6829              		.loc 1 2850 0
 6830 1c9e 002F     		cmp	r7, #0
 6831 1ca0 E8D0     		beq	.L1002
 6832              	.LVL1021:
 6833              	.LBB665:
 6834              	.LBB666:
 6835              		.loc 1 1049 0
 6836 1ca2 7368     		ldr	r3, [r6, #4]
 6837              		.loc 1 1047 0
 6838 1ca4 8278     		ldrb	r2, [r0, #2]	@ zero_extendqisi2
 6839              	.LBE666:
 6840              	.LBE665:
 6841              		.loc 1 2851 0
 6842 1ca6 07F1FF3E 		add	lr, r7, #-1
 6843              	.LVL1022:
 6844              	.LBB670:
 6845              	.LBB667:
 6846              		.loc 1 1047 0
 6847 1caa 4FEA5E2E 		lsr	lr, lr, #9
 6848              	.LVL1023:
 6849              		.loc 1 1046 0
 6850 1cae 0436     		adds	r6, r6, #4
 6851              	.LVL1024:
 6852              		.loc 1 1047 0
 6853 1cb0 BEFBF2F2 		udiv	r2, lr, r2
 6854              	.LVL1025:
 6855              		.loc 1 1050 0
 6856 1cb4 2BB9     		cbnz	r3, .L1052
 6857 1cb6 1BE1     		b	.L1039
 6858              	.LVL1026:
 6859              	.L1063:
 6860              		.loc 1 1052 0
 6861 1cb8 D21A     		subs	r2, r2, r3
 6862              	.LVL1027:
 6863              		.loc 1 1049 0
 6864 1cba 56F8083F 		ldr	r3, [r6, #8]!
 6865              	.LVL1028:
 6866              		.loc 1 1050 0
 6867 1cbe 002B     		cmp	r3, #0
 6868 1cc0 7ED0     		beq	.L1062
 6869              	.LVL1029:
 6870              	.L1052:
 6871              		.loc 1 1051 0
 6872 1cc2 9342     		cmp	r3, r2
 6873 1cc4 F8D9     		bls	.L1063
 6874              		.loc 1 1054 0
 6875 1cc6 7368     		ldr	r3, [r6, #4]
 6876              	.LVL1030:
 6877 1cc8 1344     		add	r3, r3, r2
 6878 1cca 9E1E     		subs	r6, r3, #2
ARM GAS  /tmp/ccJyHyK3.s 			page 122


 6879              	.L1004:
 6880              	.LBE667:
 6881              	.LBE670:
 6882              	.LBB671:
 6883              	.LBB672:
 6884              		.loc 1 807 0
 6885 1ccc 026A     		ldr	r2, [r0, #32]
 6886              	.LVL1031:
 6887              	.LBE672:
 6888              	.LBE671:
 6889              		.loc 1 2851 0
 6890 1cce 6361     		str	r3, [r4, #20]
 6891              	.LVL1032:
 6892              	.LBB675:
 6893              	.LBB673:
 6894              		.loc 1 807 0
 6895 1cd0 931E     		subs	r3, r2, #2
 6896 1cd2 B342     		cmp	r3, r6
 6897 1cd4 2DD8     		bhi	.L1064
 6898              	.LVL1033:
 6899              	.L1009:
 6900              	.LBE673:
 6901              	.LBE675:
 6902              		.loc 1 2853 0 discriminator 1
 6903 1cd6 61F07F01 		orn	r1, r1, #127
 6904 1cda A171     		strb	r1, [r4, #6]
 6905              	.LVL1034:
 6906              	.LBB676:
 6907              	.LBB677:
 6908              	.LBB678:
 6909              		.loc 1 596 0 discriminator 1
 6910 1cdc C068     		ldr	r0, [r0, #12]
 6911              	.LVL1035:
 6912 1cde FFF7FEFF 		bl	ff_rel_grant
 6913              	.LVL1036:
 6914              	.LBE678:
 6915              	.LBE677:
 6916              	.LBE676:
 6917              		.loc 1 2853 0 discriminator 1
 6918 1ce2 0220     		movs	r0, #2
 6919 1ce4 BDE8F88F 		pop	{r3, r4, r5, r6, r7, r8, r9, r10, fp, pc}
 6920              	.LVL1037:
 6921              	.L1060:
 6922              	.LBE664:
 6923              	.LBB697:
 6924              	.LBB698:
 6925              	.LBB699:
 6926              		.loc 1 596 0
 6927 1ce8 2368     		ldr	r3, [r4]
 6928 1cea D868     		ldr	r0, [r3, #12]
 6929              	.LVL1038:
 6930 1cec FFF7FEFF 		bl	ff_rel_grant
 6931              	.LVL1039:
 6932              	.LBE699:
 6933              	.LBE698:
 6934              	.LBE697:
 6935              		.loc 1 2815 0
ARM GAS  /tmp/ccJyHyK3.s 			page 123


 6936 1cf0 0220     		movs	r0, #2
 6937 1cf2 BDE8F88F 		pop	{r3, r4, r5, r6, r7, r8, r9, r10, fp, pc}
 6938              	.LVL1040:
 6939              	.L1061:
 6940              	.LBB700:
 6941              		.loc 1 2824 0
 6942 1cf6 2769     		ldr	r7, [r4, #16]
 6943              	.LVL1041:
 6944              		.loc 1 2823 0
 6945 1cf8 D6F80090 		ldr	r9, [r6]
 6946 1cfc 06F1040A 		add	r10, r6, #4
 6947              	.LVL1042:
 6948              		.loc 1 2825 0
 6949 1d00 002F     		cmp	r7, #0
 6950 1d02 60D0     		beq	.L1037
 6951 1d04 2068     		ldr	r0, [r4]
 6952              	.LVL1043:
 6953 1d06 4FF00208 		mov	r8, #2
 6954              	.LVL1044:
 6955              	.L1000:
 6956              	.LBB679:
 6957              	.LBB680:
 6958 1d0a 3E46     		mov	r6, r7
 6959              	.LBE680:
 6960              	.LBE679:
 6961              		.loc 1 2828 0
 6962 1d0c 4FF0000B 		mov	fp, #0
 6963              	.LVL1045:
 6964              	.L998:
 6965              	.LBB686:
 6966              	.LBB681:
 6967              		.loc 1 828 0
 6968 1d10 012E     		cmp	r6, #1
 6969              	.LBE681:
 6970              	.LBE686:
 6971              		.loc 1 2830 0
 6972 1d12 0BF1010B 		add	fp, fp, #1
 6973              	.LVL1046:
 6974              	.LBB687:
 6975              	.LBB682:
 6976              		.loc 1 828 0
 6977 1d16 02D9     		bls	.L994
 6978 1d18 036A     		ldr	r3, [r0, #32]
 6979 1d1a 9E42     		cmp	r6, r3
 6980 1d1c 61D3     		bcc	.L1065
 6981              	.LVL1047:
 6982              	.L994:
 6983              	.LBE682:
 6984              	.LBE687:
 6985              		.loc 1 2832 0 discriminator 1
 6986 1d1e A379     		ldrb	r3, [r4, #6]	@ zero_extendqisi2
 6987 1d20 63F07F03 		orn	r3, r3, #127
 6988 1d24 A371     		strb	r3, [r4, #6]
 6989              	.LVL1048:
 6990              	.LBB688:
 6991              	.LBB689:
 6992              	.LBB690:
ARM GAS  /tmp/ccJyHyK3.s 			page 124


 6993              		.loc 1 596 0 discriminator 1
 6994 1d26 C068     		ldr	r0, [r0, #12]
 6995              	.LVL1049:
 6996 1d28 FFF7FEFF 		bl	ff_rel_grant
 6997              	.LVL1050:
 6998              	.LBE690:
 6999              	.LBE689:
 7000              	.LBE688:
 7001              		.loc 1 2832 0 discriminator 1
 7002 1d2c 0220     		movs	r0, #2
 7003 1d2e BDE8F88F 		pop	{r3, r4, r5, r6, r7, r8, r9, r10, fp, pc}
 7004              	.LVL1051:
 7005              	.L1064:
 7006              	.LBB691:
 7007              	.LBB674:
 7008              		.loc 1 808 0
 7009 1d32 8278     		ldrb	r2, [r0, #2]	@ zero_extendqisi2
 7010 1d34 036B     		ldr	r3, [r0, #48]
 7011 1d36 02FB0636 		mla	r6, r2, r6, r3
 7012              	.LVL1052:
 7013              	.LBE674:
 7014              	.LBE691:
 7015              		.loc 1 2853 0
 7016 1d3a 002E     		cmp	r6, #0
 7017 1d3c CBD0     		beq	.L1009
 7018              	.LVL1053:
 7019              		.loc 1 2855 0
 7020 1d3e C7F30807 		ubfx	r7, r7, #0, #9
 7021              	.LVL1054:
 7022 1d42 002F     		cmp	r7, #0
 7023 1d44 96D0     		beq	.L1002
 7024              		.loc 1 2854 0 discriminator 1
 7025 1d46 013A     		subs	r2, r2, #1
 7026              	.LVL1055:
 7027 1d48 0EEA020E 		and	lr, lr, r2
 7028              	.LVL1056:
 7029              		.loc 1 2855 0 discriminator 1
 7030 1d4c A369     		ldr	r3, [r4, #24]
 7031              		.loc 1 2854 0 discriminator 1
 7032 1d4e 7644     		add	r6, r6, lr
 7033              	.LVL1057:
 7034              		.loc 1 2855 0 discriminator 1
 7035 1d50 B342     		cmp	r3, r6
 7036 1d52 8FD0     		beq	.L1002
 7037              		.loc 1 2867 0
 7038 1d54 A661     		str	r6, [r4, #24]
 7039 1d56 8DE7     		b	.L1002
 7040              	.LVL1058:
 7041              	.L991:
 7042              	.LBE700:
 7043              	.LBB701:
 7044              		.loc 1 2878 0
 7045 1d58 E368     		ldr	r3, [r4, #12]
 7046 1d5a 9F42     		cmp	r7, r3
 7047 1d5c 03D9     		bls	.L1011
 7048              		.loc 1 2880 0
