ARM GAS  /tmp/ccEUSraM.s 			page 1


   1              		.syntax unified
   2              		.cpu cortex-m4
   3              		.eabi_attribute 27, 1
   4              		.eabi_attribute 28, 1
   5              		.fpu fpv4-sp-d16
   6              		.eabi_attribute 20, 1
   7              		.eabi_attribute 21, 1
   8              		.eabi_attribute 23, 3
   9              		.eabi_attribute 24, 1
  10              		.eabi_attribute 25, 1
  11              		.eabi_attribute 26, 1
  12              		.eabi_attribute 30, 2
  13              		.eabi_attribute 34, 1
  14              		.eabi_attribute 18, 4
  15              		.thumb
  16              		.file	"flash.c"
  17              		.text
  18              	.Ltext0:
  19              		.cfi_sections	.debug_frame
  20              		.section	.data,"ax",%progbits
  21              		.align	2
  22              		.p2align 4,,15
  23              		.global	flash_WaitForLastOperation
  24              		.thumb
  25              		.thumb_func
  26              		.type	flash_WaitForLastOperation, %function
  27              	flash_WaitForLastOperation:
  28              	.LFB130:
  29              		.file 1 "flash.c"
  30              		.loc 1 23 0
  31              		.cfi_startproc
  32              		@ args = 0, pretend = 0, frame = 0
  33              		@ frame_needed = 0, uses_anonymous_args = 0
  34              		@ link register save eliminated.
  35              		.loc 1 24 0
  36 0000 074A     		ldr	r2, .L9
  37 0002 D368     		ldr	r3, [r2, #12]
  38 0004 B3F5803F 		cmp	r3, #65536
  39 0008 06D1     		bne	.L3
  40              		.loc 1 25 0
  41 000a 0648     		ldr	r0, .L9+4
  42 000c 7F21     		movs	r1, #127
  43              	.L2:
  44 000e 0160     		str	r1, [r0]
  45              		.loc 1 24 0
  46 0010 D368     		ldr	r3, [r2, #12]
  47 0012 B3F5803F 		cmp	r3, #65536
  48 0016 FAD0     		beq	.L2
  49              	.L3:
  50              		.loc 1 27 0
  51 0018 014B     		ldr	r3, .L9
  52 001a D868     		ldr	r0, [r3, #12]
  53              		.loc 1 28 0
  54 001c 7047     		bx	lr
  55              	.L10:
  56 001e 0000     		.align	2
  57              	.L9:
ARM GAS  /tmp/ccEUSraM.s 			page 2


  58 0020 003C0240 		.word	1073888256
  59 0024 002C0040 		.word	1073753088
  60              		.cfi_endproc
  61              	.LFE130:
  62              		.size	flash_WaitForLastOperation, .-flash_WaitForLastOperation
  63              		.align	2
  64 0028 00000000 		.p2align 4,,15
  64      00000000 
  65              		.global	flash_Erase_sector1
  66              		.thumb
  67              		.thumb_func
  68              		.type	flash_Erase_sector1, %function
  69              	flash_Erase_sector1:
  70              	.LFB131:
  71              		.loc 1 30 0
  72              		.cfi_startproc
  73              		@ args = 0, pretend = 0, frame = 0
  74              		@ frame_needed = 0, uses_anonymous_args = 0
  75              		@ link register save eliminated.
  76              	.LVL0:
  77              		.loc 1 32 0
  78 0030 1C4B     		ldr	r3, .L23
  79 0032 1A69     		ldr	r2, [r3, #16]
  80 0034 22F44072 		bic	r2, r2, #768
  81 0038 1A61     		str	r2, [r3, #16]
  82              		.loc 1 33 0
  83 003a 1A69     		ldr	r2, [r3, #16]
  84 003c 42F40072 		orr	r2, r2, #512
  85 0040 1A61     		str	r2, [r3, #16]
  86              		.loc 1 34 0
  87 0042 1A69     		ldr	r2, [r3, #16]
  88 0044 22F0F802 		bic	r2, r2, #248
  89 0048 1A61     		str	r2, [r3, #16]
  90              		.loc 1 35 0
  91 004a 1A69     		ldr	r2, [r3, #16]
  92 004c 42F00202 		orr	r2, r2, #2
  93 0050 42EAC000 		orr	r0, r2, r0, lsl #3
  94              	.LVL1:
  95 0054 1861     		str	r0, [r3, #16]
  96              		.loc 1 36 0
  97 0056 1A69     		ldr	r2, [r3, #16]
  98 0058 42F48032 		orr	r2, r2, #65536
  99 005c 1A61     		str	r2, [r3, #16]
 100              	.LBB10:
 101              	.LBB11:
 102              		.loc 1 24 0
 103 005e DA68     		ldr	r2, [r3, #12]
 104 0060 B2F5803F 		cmp	r2, #65536
 105 0064 06D1     		bne	.L15
 106              		.loc 1 25 0
 107 0066 1048     		ldr	r0, .L23+4
 108 0068 7F21     		movs	r1, #127
 109              	.L12:
 110 006a 0160     		str	r1, [r0]
 111              		.loc 1 24 0
 112 006c DA68     		ldr	r2, [r3, #12]
 113 006e B2F5803F 		cmp	r2, #65536
ARM GAS  /tmp/ccEUSraM.s 			page 3


 114 0072 FAD0     		beq	.L12
 115              	.L15:
 116              		.loc 1 27 0
 117 0074 0B4A     		ldr	r2, .L23
 118 0076 D368     		ldr	r3, [r2, #12]
 119              	.LBE11:
 120              	.LBE10:
 121              		.loc 1 39 0
 122 0078 1369     		ldr	r3, [r2, #16]
 123 007a 23F00203 		bic	r3, r3, #2
 124 007e 1361     		str	r3, [r2, #16]
 125              		.loc 1 40 0
 126 0080 1369     		ldr	r3, [r2, #16]
 127 0082 23F00203 		bic	r3, r3, #2
 128 0086 1361     		str	r3, [r2, #16]
 129              	.LBB12:
 130              	.LBB13:
 131              		.loc 1 24 0
 132 0088 D368     		ldr	r3, [r2, #12]
 133 008a B3F5803F 		cmp	r3, #65536
 134 008e 06D1     		bne	.L14
 135              		.loc 1 25 0
 136 0090 0548     		ldr	r0, .L23+4
 137 0092 7F21     		movs	r1, #127
 138              	.L13:
 139 0094 0160     		str	r1, [r0]
 140              		.loc 1 24 0
 141 0096 D368     		ldr	r3, [r2, #12]
 142 0098 B3F5803F 		cmp	r3, #65536
 143 009c FAD0     		beq	.L13
 144              	.L14:
 145              		.loc 1 27 0
 146 009e 014B     		ldr	r3, .L23
 147 00a0 DB68     		ldr	r3, [r3, #12]
 148 00a2 7047     		bx	lr
 149              	.L24:
 150              		.align	2
 151              	.L23:
 152 00a4 003C0240 		.word	1073888256
 153 00a8 002C0040 		.word	1073753088
 154              	.LBE13:
 155              	.LBE12:
 156              		.cfi_endproc
 157              	.LFE131:
 158              		.size	flash_Erase_sector1, .-flash_Erase_sector1
 159              		.text
 160              		.align	2
 161              		.p2align 4,,15
 162              		.global	flash_Erase_sector
 163              		.thumb
 164              		.thumb_func
 165              		.type	flash_Erase_sector, %function
 166              	flash_Erase_sector:
 167              	.LFB132:
 168              		.loc 1 44 0
 169              		.cfi_startproc
 170              		@ args = 0, pretend = 0, frame = 0
ARM GAS  /tmp/ccEUSraM.s 			page 4


 171              		@ frame_needed = 0, uses_anonymous_args = 0
 172              	.LVL2:
 173 0000 08B5     		push	{r3, lr}
 174              		.cfi_def_cfa_offset 8
 175              		.cfi_offset 3, -8
 176              		.cfi_offset 14, -4
 177              	.LBB14:
 178              		.loc 1 47 0
 179 0002 2023     		movs	r3, #32
 180              	@ 47 "flash.c" 1
 181 0004 83F31188 		msr     BASEPRI, r3
 182              	@ 0 "" 2
 183              		.thumb
 184              	.LBE14:
 185              		.loc 1 48 0
 186 0008 FFF7FEFF 		bl	flash_Erase_sector1
 187              	.LVL3:
 188              	.LBB15:
 189              		.loc 1 49 0
 190 000c 0023     		movs	r3, #0
 191              	@ 49 "flash.c" 1
 192 000e 83F31188 		msr     BASEPRI, r3
 193              	@ 0 "" 2
 194              		.thumb
 195              	.LBE15:
 196              		.loc 1 51 0
 197 0012 1846     		mov	r0, r3
 198 0014 08BD     		pop	{r3, pc}
 199              		.cfi_endproc
 200              	.LFE132:
 201              		.size	flash_Erase_sector, .-flash_Erase_sector
 202 0016 00BF     		.align	2
 203 0018 AFF30080 		.p2align 4,,15
 203      AFF30080 
 204              		.global	flash_ProgramWord
 205              		.thumb
 206              		.thumb_func
 207              		.type	flash_ProgramWord, %function
 208              	flash_ProgramWord:
 209              	.LFB133:
 210              		.loc 1 53 0
 211              		.cfi_startproc
 212              		@ args = 0, pretend = 0, frame = 0
 213              		@ frame_needed = 0, uses_anonymous_args = 0
 214              	.LVL4:
 215              	.LBB16:
 216              	.LBB17:
 217              		.loc 1 24 0
 218 0020 184A     		ldr	r2, .L40
 219              	.LBE17:
 220              	.LBE16:
 221              		.loc 1 53 0
 222 0022 38B5     		push	{r3, r4, r5, lr}
 223              		.cfi_def_cfa_offset 16
 224              		.cfi_offset 3, -16
 225              		.cfi_offset 4, -12
 226              		.cfi_offset 5, -8
ARM GAS  /tmp/ccEUSraM.s 			page 5


 227              		.cfi_offset 14, -4
 228              	.LBB19:
 229              	.LBB18:
 230              		.loc 1 24 0
 231 0024 D368     		ldr	r3, [r2, #12]
 232 0026 B3F5803F 		cmp	r3, #65536
 233 002a 06D1     		bne	.L31
 234              		.loc 1 25 0
 235 002c 164D     		ldr	r5, .L40+4
 236 002e 7F24     		movs	r4, #127
 237              	.L28:
 238 0030 2C60     		str	r4, [r5]
 239              		.loc 1 24 0
 240 0032 D368     		ldr	r3, [r2, #12]
 241 0034 B3F5803F 		cmp	r3, #65536
 242 0038 FAD0     		beq	.L28
 243              	.L31:
 244              		.loc 1 27 0
 245 003a 124B     		ldr	r3, .L40
 246 003c DA68     		ldr	r2, [r3, #12]
 247              	.LBE18:
 248              	.LBE19:
 249              		.loc 1 59 0
 250 003e 1A69     		ldr	r2, [r3, #16]
 251 0040 22F44072 		bic	r2, r2, #768
 252 0044 1A61     		str	r2, [r3, #16]
 253              		.loc 1 60 0
 254 0046 1A69     		ldr	r2, [r3, #16]
 255 0048 42F40072 		orr	r2, r2, #512
 256 004c 1A61     		str	r2, [r3, #16]
 257              		.loc 1 61 0
 258 004e 1A69     		ldr	r2, [r3, #16]
 259 0050 42F00102 		orr	r2, r2, #1
 260 0054 1A61     		str	r2, [r3, #16]
 261              		.loc 1 63 0
 262 0056 0160     		str	r1, [r0]
 263              	.LBB20:
 264              	.LBB21:
 265              		.loc 1 24 0
 266 0058 DA68     		ldr	r2, [r3, #12]
 267 005a B2F5803F 		cmp	r2, #65536
 268 005e 06D1     		bne	.L30
 269              		.loc 1 25 0
 270 0060 0948     		ldr	r0, .L40+4
 271              	.LVL5:
 272 0062 7F21     		movs	r1, #127
 273              	.LVL6:
 274              	.L29:
 275 0064 0160     		str	r1, [r0]
 276              		.loc 1 24 0
 277 0066 DA68     		ldr	r2, [r3, #12]
 278 0068 B2F5803F 		cmp	r2, #65536
 279 006c FAD0     		beq	.L29
 280              	.L30:
 281              		.loc 1 27 0
 282 006e 054B     		ldr	r3, .L40
 283 0070 DC68     		ldr	r4, [r3, #12]
ARM GAS  /tmp/ccEUSraM.s 			page 6


 284              	.LBE21:
 285              	.LBE20:
 286              		.loc 1 69 0
 287 0072 1A69     		ldr	r2, [r3, #16]
 288 0074 22F00102 		bic	r2, r2, #1
 289 0078 1A61     		str	r2, [r3, #16]
 290              		.loc 1 71 0
 291 007a FFF7FEFF 		bl	watchdog_feed
 292              	.LVL7:
 293              		.loc 1 75 0
 294 007e 2046     		mov	r0, r4
 295 0080 38BD     		pop	{r3, r4, r5, pc}
 296              	.L41:
 297 0082 00BF     		.align	2
 298              	.L40:
 299 0084 003C0240 		.word	1073888256
 300 0088 002C0040 		.word	1073753088
 301              		.cfi_endproc
 302              	.LFE133:
 303              		.size	flash_ProgramWord, .-flash_ProgramWord
 304              		.align	2
 305 008c AFF30080 		.p2align 4,,15
 306              		.global	flash_unlock
 307              		.thumb
 308              		.thumb_func
 309              		.type	flash_unlock, %function
 310              	flash_unlock:
 311              	.LFB134:
 312              		.loc 1 77 0
 313              		.cfi_startproc
 314              		@ args = 0, pretend = 0, frame = 0
 315              		@ frame_needed = 0, uses_anonymous_args = 0
 316              		@ link register save eliminated.
 317              		.loc 1 79 0
 318 0090 024B     		ldr	r3, .L43
 319 0092 0349     		ldr	r1, .L43+4
 320              		.loc 1 80 0
 321 0094 034A     		ldr	r2, .L43+8
 322              		.loc 1 79 0
 323 0096 5960     		str	r1, [r3, #4]
 324              		.loc 1 80 0
 325 0098 5A60     		str	r2, [r3, #4]
 326 009a 7047     		bx	lr
 327              	.L44:
 328              		.align	2
 329              	.L43:
 330 009c 003C0240 		.word	1073888256
 331 00a0 23016745 		.word	1164378403
 332 00a4 AB89EFCD 		.word	-839939669
 333              		.cfi_endproc
 334              	.LFE134:
 335              		.size	flash_unlock, .-flash_unlock
 336              	.Letext0:
 337              		.file 2 "/home/sbcu/Dropbox/pcb-layouts/axo-on-discovery-board/axoloti/platform_linux/arm-none-eab
 338              		.file 3 "/home/sbcu/Dropbox/pcb-layouts/axo-on-discovery-board/axoloti/platform_linux/arm-none-eab
 339              		.file 4 "/home/sbcu/Dropbox/pcb-layouts/axo-on-discovery-board/axoloti/platform_linux/../chibios/o
 340              		.file 5 "/home/sbcu/Dropbox/pcb-layouts/axo-on-discovery-board/axoloti/platform_linux/../CMSIS//In
ARM GAS  /tmp/ccEUSraM.s 			page 7


 341              		.file 6 "watchdog.h"
 342              		.section	.debug_info,"",%progbits
 343              	.Ldebug_info0:
 344 0000 CF020000 		.4byte	0x2cf
 345 0004 0400     		.2byte	0x4
 346 0006 00000000 		.4byte	.Ldebug_abbrev0
 347 000a 04       		.byte	0x4
 348 000b 01       		.uleb128 0x1
 349 000c 00000000 		.4byte	.LASF29
 350 0010 01       		.byte	0x1
 351 0011 3C020000 		.4byte	.LASF30
 352 0015 3C010000 		.4byte	.LASF31
 353 0019 18000000 		.4byte	.Ldebug_ranges0+0x18
 354 001d 00000000 		.4byte	0
 355 0021 00000000 		.4byte	.Ldebug_line0
 356 0025 02       		.uleb128 0x2
 357 0026 04       		.byte	0x4
 358 0027 05       		.byte	0x5
 359 0028 696E7400 		.ascii	"int\000"
 360 002c 03       		.uleb128 0x3
 361 002d 04       		.byte	0x4
 362 002e 07       		.byte	0x7
 363 002f 44020000 		.4byte	.LASF0
 364 0033 03       		.uleb128 0x3
 365 0034 01       		.byte	0x1
 366 0035 06       		.byte	0x6
 367 0036 C0020000 		.4byte	.LASF1
 368 003a 04       		.uleb128 0x4
 369 003b F9000000 		.4byte	.LASF5
 370 003f 02       		.byte	0x2
 371 0040 1D       		.byte	0x1d
 372 0041 45000000 		.4byte	0x45
 373 0045 03       		.uleb128 0x3
 374 0046 01       		.byte	0x1
 375 0047 08       		.byte	0x8
 376 0048 A0010000 		.4byte	.LASF2
 377 004c 03       		.uleb128 0x3
 378 004d 02       		.byte	0x2
 379 004e 05       		.byte	0x5
 380 004f 97020000 		.4byte	.LASF3
 381 0053 03       		.uleb128 0x3
 382 0054 02       		.byte	0x2
 383 0055 07       		.byte	0x7
 384 0056 DB010000 		.4byte	.LASF4
 385 005a 04       		.uleb128 0x4
 386 005b 11010000 		.4byte	.LASF6
 387 005f 02       		.byte	0x2
 388 0060 3F       		.byte	0x3f
 389 0061 65000000 		.4byte	0x65
 390 0065 03       		.uleb128 0x3
 391 0066 04       		.byte	0x4
 392 0067 05       		.byte	0x5
 393 0068 B2020000 		.4byte	.LASF7
 394 006c 04       		.uleb128 0x4
 395 006d 31020000 		.4byte	.LASF8
 396 0071 02       		.byte	0x2
 397 0072 41       		.byte	0x41
ARM GAS  /tmp/ccEUSraM.s 			page 8


 398 0073 77000000 		.4byte	0x77
 399 0077 03       		.uleb128 0x3
 400 0078 04       		.byte	0x4
 401 0079 07       		.byte	0x7
 402 007a C9010000 		.4byte	.LASF9
 403 007e 03       		.uleb128 0x3
 404 007f 08       		.byte	0x8
 405 0080 05       		.byte	0x5
 406 0081 82020000 		.4byte	.LASF10
 407 0085 03       		.uleb128 0x3
 408 0086 08       		.byte	0x8
 409 0087 07       		.byte	0x7
 410 0088 89010000 		.4byte	.LASF11
 411 008c 04       		.uleb128 0x4
 412 008d 56020000 		.4byte	.LASF12
 413 0091 03       		.byte	0x3
 414 0092 14       		.byte	0x14
 415 0093 3A000000 		.4byte	0x3a
 416 0097 04       		.uleb128 0x4
 417 0098 71020000 		.4byte	.LASF13
 418 009c 03       		.byte	0x3
 419 009d 1F       		.byte	0x1f
 420 009e 5A000000 		.4byte	0x5a
 421 00a2 04       		.uleb128 0x4
 422 00a3 A9020000 		.4byte	.LASF14
 423 00a7 03       		.byte	0x3
 424 00a8 20       		.byte	0x20
 425 00a9 6C000000 		.4byte	0x6c
 426 00ad 03       		.uleb128 0x3
 427 00ae 01       		.byte	0x1
 428 00af 02       		.byte	0x2
 429 00b0 CC020000 		.4byte	.LASF15
 430 00b4 05       		.uleb128 0x5
 431 00b5 A2000000 		.4byte	0xa2
 432 00b9 03       		.uleb128 0x3
 433 00ba 04       		.byte	0x4
 434 00bb 07       		.byte	0x7
 435 00bc 79020000 		.4byte	.LASF16
 436 00c0 03       		.uleb128 0x3
 437 00c1 01       		.byte	0x1
 438 00c2 08       		.byte	0x8
 439 00c3 51020000 		.4byte	.LASF17
 440 00c7 05       		.uleb128 0x5
 441 00c8 97000000 		.4byte	0x97
 442 00cc 06       		.uleb128 0x6
 443 00cd 1C       		.byte	0x1c
 444 00ce 04       		.byte	0x4
 445 00cf 3E03     		.2byte	0x33e
 446 00d1 2F010000 		.4byte	0x12f
 447 00d5 07       		.uleb128 0x7
 448 00d6 41435200 		.ascii	"ACR\000"
 449 00da 04       		.byte	0x4
 450 00db 4003     		.2byte	0x340
 451 00dd B4000000 		.4byte	0xb4
 452 00e1 00       		.byte	0
 453 00e2 08       		.uleb128 0x8
 454 00e3 BB020000 		.4byte	.LASF18
ARM GAS  /tmp/ccEUSraM.s 			page 9


 455 00e7 04       		.byte	0x4
 456 00e8 4103     		.2byte	0x341
 457 00ea B4000000 		.4byte	0xb4
 458 00ee 04       		.byte	0x4
 459 00ef 08       		.uleb128 0x8
 460 00f0 FB010000 		.4byte	.LASF19
 461 00f4 04       		.byte	0x4
 462 00f5 4203     		.2byte	0x342
 463 00f7 B4000000 		.4byte	0xb4
 464 00fb 08       		.byte	0x8
 465 00fc 07       		.uleb128 0x7
 466 00fd 535200   		.ascii	"SR\000"
 467 0100 04       		.byte	0x4
 468 0101 4303     		.2byte	0x343
 469 0103 B4000000 		.4byte	0xb4
 470 0107 0C       		.byte	0xc
 471 0108 07       		.uleb128 0x7
 472 0109 435200   		.ascii	"CR\000"
 473 010c 04       		.byte	0x4
 474 010d 4403     		.2byte	0x344
 475 010f B4000000 		.4byte	0xb4
 476 0113 10       		.byte	0x10
 477 0114 08       		.uleb128 0x8
 478 0115 83010000 		.4byte	.LASF20
 479 0119 04       		.byte	0x4
 480 011a 4503     		.2byte	0x345
 481 011c B4000000 		.4byte	0xb4
 482 0120 14       		.byte	0x14
 483 0121 08       		.uleb128 0x8
 484 0122 AE010000 		.4byte	.LASF21
 485 0126 04       		.byte	0x4
 486 0127 4603     		.2byte	0x346
 487 0129 B4000000 		.4byte	0xb4
 488 012d 18       		.byte	0x18
 489 012e 00       		.byte	0
 490 012f 09       		.uleb128 0x9
 491 0130 03010000 		.4byte	.LASF22
 492 0134 04       		.byte	0x4
 493 0135 4703     		.2byte	0x347
 494 0137 CC000000 		.4byte	0xcc
 495 013b 06       		.uleb128 0x6
 496 013c 0C       		.byte	0xc
 497 013d 04       		.byte	0x4
 498 013e 3F05     		.2byte	0x53f
 499 0140 6A010000 		.4byte	0x16a
 500 0144 07       		.uleb128 0x7
 501 0145 435200   		.ascii	"CR\000"
 502 0148 04       		.byte	0x4
 503 0149 4105     		.2byte	0x541
 504 014b B4000000 		.4byte	0xb4
 505 014f 00       		.byte	0
 506 0150 07       		.uleb128 0x7
 507 0151 43465200 		.ascii	"CFR\000"
 508 0155 04       		.byte	0x4
 509 0156 4205     		.2byte	0x542
 510 0158 B4000000 		.4byte	0xb4
 511 015c 04       		.byte	0x4
ARM GAS  /tmp/ccEUSraM.s 			page 10


 512 015d 07       		.uleb128 0x7
 513 015e 535200   		.ascii	"SR\000"
 514 0161 04       		.byte	0x4
 515 0162 4305     		.2byte	0x543
 516 0164 B4000000 		.4byte	0xb4
 517 0168 08       		.byte	0x8
 518 0169 00       		.byte	0
 519 016a 09       		.uleb128 0x9
 520 016b 28010000 		.4byte	.LASF23
 521 016f 04       		.byte	0x4
 522 0170 4405     		.2byte	0x544
 523 0172 3B010000 		.4byte	0x13b
 524 0176 0A       		.uleb128 0xa
 525 0177 11020000 		.4byte	.LASF32
 526 017b 01       		.byte	0x1
 527 017c 17       		.byte	0x17
 528 017d 25000000 		.4byte	0x25
 529 0181 01       		.byte	0x1
 530 0182 0B       		.uleb128 0xb
 531 0183 76010000 		.4byte	0x176
 532 0187 00000000 		.4byte	.LFB130
 533 018b 28000000 		.4byte	.LFE130-.LFB130
 534 018f 01       		.uleb128 0x1
 535 0190 9C       		.byte	0x9c
 536 0191 0C       		.uleb128 0xc
 537 0192 B5010000 		.4byte	.LASF33
 538 0196 01       		.byte	0x1
 539 0197 1E       		.byte	0x1e
 540 0198 30000000 		.4byte	.LFB131
 541 019c 7C000000 		.4byte	.LFE131-.LFB131
 542 01a0 01       		.uleb128 0x1
 543 01a1 9C       		.byte	0x9c
 544 01a2 D4010000 		.4byte	0x1d4
 545 01a6 0D       		.uleb128 0xd
 546 01a7 90020000 		.4byte	.LASF24
 547 01ab 01       		.byte	0x1
 548 01ac 1E       		.byte	0x1e
 549 01ad 25000000 		.4byte	0x25
 550 01b1 00000000 		.4byte	.LLST0
 551 01b5 0E       		.uleb128 0xe
 552 01b6 76010000 		.4byte	0x176
 553 01ba 5E000000 		.4byte	.LBB10
 554 01be 1A000000 		.4byte	.LBE10-.LBB10
 555 01c2 01       		.byte	0x1
 556 01c3 25       		.byte	0x25
 557 01c4 0E       		.uleb128 0xe
 558 01c5 76010000 		.4byte	0x176
 559 01c9 88000000 		.4byte	.LBB12
 560 01cd 24000000 		.4byte	.LBE12-.LBB12
 561 01d1 01       		.byte	0x1
 562 01d2 29       		.byte	0x29
 563 01d3 00       		.byte	0
 564 01d4 0F       		.uleb128 0xf
 565 01d5 5E020000 		.4byte	.LASF25
 566 01d9 01       		.byte	0x1
 567 01da 2C       		.byte	0x2c
 568 01db 25000000 		.4byte	0x25
ARM GAS  /tmp/ccEUSraM.s 			page 11


 569 01df 00000000 		.4byte	.LFB132
 570 01e3 16000000 		.4byte	.LFE132-.LFB132
 571 01e7 01       		.uleb128 0x1
 572 01e8 9C       		.byte	0x9c
 573 01e9 44020000 		.4byte	0x244
 574 01ed 0D       		.uleb128 0xd
 575 01ee 90020000 		.4byte	.LASF24
 576 01f2 01       		.byte	0x1
 577 01f3 2C       		.byte	0x2c
 578 01f4 25000000 		.4byte	0x25
 579 01f8 21000000 		.4byte	.LLST1
 580 01fc 10       		.uleb128 0x10
 581 01fd 02000000 		.4byte	.LBB14
 582 0201 06000000 		.4byte	.LBE14-.LBB14
 583 0205 17020000 		.4byte	0x217
 584 0209 11       		.uleb128 0x11
 585 020a 746D7000 		.ascii	"tmp\000"
 586 020e 01       		.byte	0x1
 587 020f 2F       		.byte	0x2f
 588 0210 A2000000 		.4byte	0xa2
 589 0214 01       		.uleb128 0x1
 590 0215 53       		.byte	0x53
 591 0216 00       		.byte	0
 592 0217 10       		.uleb128 0x10
 593 0218 0C000000 		.4byte	.LBB15
 594 021c 06000000 		.4byte	.LBE15-.LBB15
 595 0220 32020000 		.4byte	0x232
 596 0224 11       		.uleb128 0x11
 597 0225 746D7000 		.ascii	"tmp\000"
 598 0229 01       		.byte	0x1
 599 022a 31       		.byte	0x31
 600 022b A2000000 		.4byte	0xa2
 601 022f 01       		.uleb128 0x1
 602 0230 53       		.byte	0x53
 603 0231 00       		.byte	0
 604 0232 12       		.uleb128 0x12
 605 0233 0C000000 		.4byte	.LVL3
 606 0237 91010000 		.4byte	0x191
 607 023b 13       		.uleb128 0x13
 608 023c 01       		.uleb128 0x1
 609 023d 50       		.byte	0x50
 610 023e 03       		.uleb128 0x3
 611 023f F3       		.byte	0xf3
 612 0240 01       		.uleb128 0x1
 613 0241 50       		.byte	0x50
 614 0242 00       		.byte	0
 615 0243 00       		.byte	0
 616 0244 0F       		.uleb128 0xf
 617 0245 D2020000 		.4byte	.LASF26
 618 0249 01       		.byte	0x1
 619 024a 35       		.byte	0x35
 620 024b 25000000 		.4byte	0x25
 621 024f 20000000 		.4byte	.LFB133
 622 0253 6C000000 		.4byte	.LFE133-.LFB133
 623 0257 01       		.uleb128 0x1
 624 0258 9C       		.byte	0x9c
 625 0259 AE020000 		.4byte	0x2ae
ARM GAS  /tmp/ccEUSraM.s 			page 12


 626 025d 0D       		.uleb128 0xd
 627 025e A1020000 		.4byte	.LASF27
 628 0262 01       		.byte	0x1
 629 0263 35       		.byte	0x35
 630 0264 A2000000 		.4byte	0xa2
 631 0268 42000000 		.4byte	.LLST2
 632 026c 0D       		.uleb128 0xd
 633 026d 2C020000 		.4byte	.LASF28
 634 0271 01       		.byte	0x1
 635 0272 35       		.byte	0x35
 636 0273 A2000000 		.4byte	0xa2
 637 0277 63000000 		.4byte	.LLST3
 638 027b 14       		.uleb128 0x14
 639 027c 35010000 		.4byte	.LASF34
 640 0280 01       		.byte	0x1
 641 0281 36       		.byte	0x36
 642 0282 25000000 		.4byte	0x25
 643 0286 15       		.uleb128 0x15
 644 0287 76010000 		.4byte	0x176
 645 028b 20000000 		.4byte	.LBB16
 646 028f 00000000 		.4byte	.Ldebug_ranges0+0
 647 0293 01       		.byte	0x1
 648 0294 38       		.byte	0x38
 649 0295 0E       		.uleb128 0xe
 650 0296 76010000 		.4byte	0x176
 651 029a 58000000 		.4byte	.LBB20
 652 029e 1A000000 		.4byte	.LBE20-.LBB20
 653 02a2 01       		.byte	0x1
 654 02a3 42       		.byte	0x42
 655 02a4 16       		.uleb128 0x16
 656 02a5 7E000000 		.4byte	.LVL7
 657 02a9 CB020000 		.4byte	0x2cb
 658 02ad 00       		.byte	0
 659 02ae 17       		.uleb128 0x17
 660 02af 1B010000 		.4byte	.LASF35
 661 02b3 01       		.byte	0x1
 662 02b4 4D       		.byte	0x4d
 663 02b5 90000000 		.4byte	.LFB134
 664 02b9 18000000 		.4byte	.LFE134-.LFB134
 665 02bd 01       		.uleb128 0x1
 666 02be 9C       		.byte	0x9c
 667 02bf 18       		.uleb128 0x18
 668 02c0 EE010000 		.4byte	.LASF36
 669 02c4 05       		.byte	0x5
 670 02c5 DF07     		.2byte	0x7df
 671 02c7 C7000000 		.4byte	0xc7
 672 02cb 19       		.uleb128 0x19
 673 02cc 03020000 		.4byte	.LASF37
 674 02d0 06       		.byte	0x6
 675 02d1 17       		.byte	0x17
 676 02d2 00       		.byte	0
 677              		.section	.debug_abbrev,"",%progbits
 678              	.Ldebug_abbrev0:
 679 0000 01       		.uleb128 0x1
 680 0001 11       		.uleb128 0x11
 681 0002 01       		.byte	0x1
 682 0003 25       		.uleb128 0x25
ARM GAS  /tmp/ccEUSraM.s 			page 13


 683 0004 0E       		.uleb128 0xe
 684 0005 13       		.uleb128 0x13
 685 0006 0B       		.uleb128 0xb
 686 0007 03       		.uleb128 0x3
 687 0008 0E       		.uleb128 0xe
 688 0009 1B       		.uleb128 0x1b
 689 000a 0E       		.uleb128 0xe
 690 000b 55       		.uleb128 0x55
 691 000c 17       		.uleb128 0x17
 692 000d 11       		.uleb128 0x11
 693 000e 01       		.uleb128 0x1
 694 000f 10       		.uleb128 0x10
 695 0010 17       		.uleb128 0x17
 696 0011 00       		.byte	0
 697 0012 00       		.byte	0
 698 0013 02       		.uleb128 0x2
 699 0014 24       		.uleb128 0x24
 700 0015 00       		.byte	0
 701 0016 0B       		.uleb128 0xb
 702 0017 0B       		.uleb128 0xb
 703 0018 3E       		.uleb128 0x3e
 704 0019 0B       		.uleb128 0xb
 705 001a 03       		.uleb128 0x3
 706 001b 08       		.uleb128 0x8
 707 001c 00       		.byte	0
 708 001d 00       		.byte	0
 709 001e 03       		.uleb128 0x3
 710 001f 24       		.uleb128 0x24
 711 0020 00       		.byte	0
 712 0021 0B       		.uleb128 0xb
 713 0022 0B       		.uleb128 0xb
 714 0023 3E       		.uleb128 0x3e
 715 0024 0B       		.uleb128 0xb
 716 0025 03       		.uleb128 0x3
 717 0026 0E       		.uleb128 0xe
 718 0027 00       		.byte	0
 719 0028 00       		.byte	0
 720 0029 04       		.uleb128 0x4
 721 002a 16       		.uleb128 0x16
 722 002b 00       		.byte	0
 723 002c 03       		.uleb128 0x3
 724 002d 0E       		.uleb128 0xe
 725 002e 3A       		.uleb128 0x3a
 726 002f 0B       		.uleb128 0xb
 727 0030 3B       		.uleb128 0x3b
 728 0031 0B       		.uleb128 0xb
 729 0032 49       		.uleb128 0x49
 730 0033 13       		.uleb128 0x13
 731 0034 00       		.byte	0
 732 0035 00       		.byte	0
 733 0036 05       		.uleb128 0x5
 734 0037 35       		.uleb128 0x35
 735 0038 00       		.byte	0
 736 0039 49       		.uleb128 0x49
 737 003a 13       		.uleb128 0x13
 738 003b 00       		.byte	0
 739 003c 00       		.byte	0
ARM GAS  /tmp/ccEUSraM.s 			page 14


 740 003d 06       		.uleb128 0x6
 741 003e 13       		.uleb128 0x13
 742 003f 01       		.byte	0x1
 743 0040 0B       		.uleb128 0xb
 744 0041 0B       		.uleb128 0xb
 745 0042 3A       		.uleb128 0x3a
 746 0043 0B       		.uleb128 0xb
 747 0044 3B       		.uleb128 0x3b
 748 0045 05       		.uleb128 0x5
 749 0046 01       		.uleb128 0x1
 750 0047 13       		.uleb128 0x13
 751 0048 00       		.byte	0
 752 0049 00       		.byte	0
 753 004a 07       		.uleb128 0x7
 754 004b 0D       		.uleb128 0xd
 755 004c 00       		.byte	0
 756 004d 03       		.uleb128 0x3
 757 004e 08       		.uleb128 0x8
 758 004f 3A       		.uleb128 0x3a
 759 0050 0B       		.uleb128 0xb
 760 0051 3B       		.uleb128 0x3b
 761 0052 05       		.uleb128 0x5
 762 0053 49       		.uleb128 0x49
 763 0054 13       		.uleb128 0x13
 764 0055 38       		.uleb128 0x38
 765 0056 0B       		.uleb128 0xb
 766 0057 00       		.byte	0
 767 0058 00       		.byte	0
 768 0059 08       		.uleb128 0x8
 769 005a 0D       		.uleb128 0xd
 770 005b 00       		.byte	0
 771 005c 03       		.uleb128 0x3
 772 005d 0E       		.uleb128 0xe
 773 005e 3A       		.uleb128 0x3a
 774 005f 0B       		.uleb128 0xb
 775 0060 3B       		.uleb128 0x3b
 776 0061 05       		.uleb128 0x5
 777 0062 49       		.uleb128 0x49
 778 0063 13       		.uleb128 0x13
 779 0064 38       		.uleb128 0x38
 780 0065 0B       		.uleb128 0xb
 781 0066 00       		.byte	0
 782 0067 00       		.byte	0
 783 0068 09       		.uleb128 0x9
 784 0069 16       		.uleb128 0x16
 785 006a 00       		.byte	0
 786 006b 03       		.uleb128 0x3
 787 006c 0E       		.uleb128 0xe
 788 006d 3A       		.uleb128 0x3a
 789 006e 0B       		.uleb128 0xb
 790 006f 3B       		.uleb128 0x3b
 791 0070 05       		.uleb128 0x5
 792 0071 49       		.uleb128 0x49
 793 0072 13       		.uleb128 0x13
 794 0073 00       		.byte	0
 795 0074 00       		.byte	0
 796 0075 0A       		.uleb128 0xa
ARM GAS  /tmp/ccEUSraM.s 			page 15


 797 0076 2E       		.uleb128 0x2e
 798 0077 00       		.byte	0
 799 0078 3F       		.uleb128 0x3f
 800 0079 19       		.uleb128 0x19
 801 007a 03       		.uleb128 0x3
 802 007b 0E       		.uleb128 0xe
 803 007c 3A       		.uleb128 0x3a
 804 007d 0B       		.uleb128 0xb
 805 007e 3B       		.uleb128 0x3b
 806 007f 0B       		.uleb128 0xb
 807 0080 27       		.uleb128 0x27
 808 0081 19       		.uleb128 0x19
 809 0082 49       		.uleb128 0x49
 810 0083 13       		.uleb128 0x13
 811 0084 20       		.uleb128 0x20
 812 0085 0B       		.uleb128 0xb
 813 0086 00       		.byte	0
 814 0087 00       		.byte	0
 815 0088 0B       		.uleb128 0xb
 816 0089 2E       		.uleb128 0x2e
 817 008a 00       		.byte	0
 818 008b 31       		.uleb128 0x31
 819 008c 13       		.uleb128 0x13
 820 008d 11       		.uleb128 0x11
 821 008e 01       		.uleb128 0x1
 822 008f 12       		.uleb128 0x12
 823 0090 06       		.uleb128 0x6
 824 0091 40       		.uleb128 0x40
 825 0092 18       		.uleb128 0x18
 826 0093 9742     		.uleb128 0x2117
 827 0095 19       		.uleb128 0x19
 828 0096 00       		.byte	0
 829 0097 00       		.byte	0
 830 0098 0C       		.uleb128 0xc
 831 0099 2E       		.uleb128 0x2e
 832 009a 01       		.byte	0x1
 833 009b 3F       		.uleb128 0x3f
 834 009c 19       		.uleb128 0x19
 835 009d 03       		.uleb128 0x3
 836 009e 0E       		.uleb128 0xe
 837 009f 3A       		.uleb128 0x3a
 838 00a0 0B       		.uleb128 0xb
 839 00a1 3B       		.uleb128 0x3b
 840 00a2 0B       		.uleb128 0xb
 841 00a3 27       		.uleb128 0x27
 842 00a4 19       		.uleb128 0x19
 843 00a5 11       		.uleb128 0x11
 844 00a6 01       		.uleb128 0x1
 845 00a7 12       		.uleb128 0x12
 846 00a8 06       		.uleb128 0x6
 847 00a9 40       		.uleb128 0x40
 848 00aa 18       		.uleb128 0x18
 849 00ab 9742     		.uleb128 0x2117
 850 00ad 19       		.uleb128 0x19
 851 00ae 01       		.uleb128 0x1
 852 00af 13       		.uleb128 0x13
 853 00b0 00       		.byte	0
ARM GAS  /tmp/ccEUSraM.s 			page 16


 854 00b1 00       		.byte	0
 855 00b2 0D       		.uleb128 0xd
 856 00b3 05       		.uleb128 0x5
 857 00b4 00       		.byte	0
 858 00b5 03       		.uleb128 0x3
 859 00b6 0E       		.uleb128 0xe
 860 00b7 3A       		.uleb128 0x3a
 861 00b8 0B       		.uleb128 0xb
 862 00b9 3B       		.uleb128 0x3b
 863 00ba 0B       		.uleb128 0xb
 864 00bb 49       		.uleb128 0x49
 865 00bc 13       		.uleb128 0x13
 866 00bd 02       		.uleb128 0x2
 867 00be 17       		.uleb128 0x17
 868 00bf 00       		.byte	0
 869 00c0 00       		.byte	0
 870 00c1 0E       		.uleb128 0xe
 871 00c2 1D       		.uleb128 0x1d
 872 00c3 00       		.byte	0
 873 00c4 31       		.uleb128 0x31
 874 00c5 13       		.uleb128 0x13
 875 00c6 11       		.uleb128 0x11
 876 00c7 01       		.uleb128 0x1
 877 00c8 12       		.uleb128 0x12
 878 00c9 06       		.uleb128 0x6
 879 00ca 58       		.uleb128 0x58
 880 00cb 0B       		.uleb128 0xb
 881 00cc 59       		.uleb128 0x59
 882 00cd 0B       		.uleb128 0xb
 883 00ce 00       		.byte	0
 884 00cf 00       		.byte	0
 885 00d0 0F       		.uleb128 0xf
 886 00d1 2E       		.uleb128 0x2e
 887 00d2 01       		.byte	0x1
 888 00d3 3F       		.uleb128 0x3f
 889 00d4 19       		.uleb128 0x19
 890 00d5 03       		.uleb128 0x3
 891 00d6 0E       		.uleb128 0xe
 892 00d7 3A       		.uleb128 0x3a
 893 00d8 0B       		.uleb128 0xb
 894 00d9 3B       		.uleb128 0x3b
 895 00da 0B       		.uleb128 0xb
 896 00db 27       		.uleb128 0x27
 897 00dc 19       		.uleb128 0x19
 898 00dd 49       		.uleb128 0x49
 899 00de 13       		.uleb128 0x13
 900 00df 11       		.uleb128 0x11
 901 00e0 01       		.uleb128 0x1
 902 00e1 12       		.uleb128 0x12
 903 00e2 06       		.uleb128 0x6
 904 00e3 40       		.uleb128 0x40
 905 00e4 18       		.uleb128 0x18
 906 00e5 9742     		.uleb128 0x2117
 907 00e7 19       		.uleb128 0x19
 908 00e8 01       		.uleb128 0x1
 909 00e9 13       		.uleb128 0x13
 910 00ea 00       		.byte	0
ARM GAS  /tmp/ccEUSraM.s 			page 17


 911 00eb 00       		.byte	0
 912 00ec 10       		.uleb128 0x10
 913 00ed 0B       		.uleb128 0xb
 914 00ee 01       		.byte	0x1
 915 00ef 11       		.uleb128 0x11
 916 00f0 01       		.uleb128 0x1
 917 00f1 12       		.uleb128 0x12
 918 00f2 06       		.uleb128 0x6
 919 00f3 01       		.uleb128 0x1
 920 00f4 13       		.uleb128 0x13
 921 00f5 00       		.byte	0
 922 00f6 00       		.byte	0
 923 00f7 11       		.uleb128 0x11
 924 00f8 34       		.uleb128 0x34
 925 00f9 00       		.byte	0
 926 00fa 03       		.uleb128 0x3
 927 00fb 08       		.uleb128 0x8
 928 00fc 3A       		.uleb128 0x3a
 929 00fd 0B       		.uleb128 0xb
 930 00fe 3B       		.uleb128 0x3b
 931 00ff 0B       		.uleb128 0xb
 932 0100 49       		.uleb128 0x49
 933 0101 13       		.uleb128 0x13
 934 0102 02       		.uleb128 0x2
 935 0103 18       		.uleb128 0x18
 936 0104 00       		.byte	0
 937 0105 00       		.byte	0
 938 0106 12       		.uleb128 0x12
 939 0107 898201   		.uleb128 0x4109
 940 010a 01       		.byte	0x1
 941 010b 11       		.uleb128 0x11
 942 010c 01       		.uleb128 0x1
 943 010d 31       		.uleb128 0x31
 944 010e 13       		.uleb128 0x13
 945 010f 00       		.byte	0
 946 0110 00       		.byte	0
 947 0111 13       		.uleb128 0x13
 948 0112 8A8201   		.uleb128 0x410a
 949 0115 00       		.byte	0
 950 0116 02       		.uleb128 0x2
 951 0117 18       		.uleb128 0x18
 952 0118 9142     		.uleb128 0x2111
 953 011a 18       		.uleb128 0x18
 954 011b 00       		.byte	0
 955 011c 00       		.byte	0
 956 011d 14       		.uleb128 0x14
 957 011e 34       		.uleb128 0x34
 958 011f 00       		.byte	0
 959 0120 03       		.uleb128 0x3
 960 0121 0E       		.uleb128 0xe
 961 0122 3A       		.uleb128 0x3a
 962 0123 0B       		.uleb128 0xb
 963 0124 3B       		.uleb128 0x3b
 964 0125 0B       		.uleb128 0xb
 965 0126 49       		.uleb128 0x49
 966 0127 13       		.uleb128 0x13
 967 0128 00       		.byte	0
ARM GAS  /tmp/ccEUSraM.s 			page 18


 968 0129 00       		.byte	0
 969 012a 15       		.uleb128 0x15
 970 012b 1D       		.uleb128 0x1d
 971 012c 00       		.byte	0
 972 012d 31       		.uleb128 0x31
 973 012e 13       		.uleb128 0x13
 974 012f 52       		.uleb128 0x52
 975 0130 01       		.uleb128 0x1
 976 0131 55       		.uleb128 0x55
 977 0132 17       		.uleb128 0x17
 978 0133 58       		.uleb128 0x58
 979 0134 0B       		.uleb128 0xb
 980 0135 59       		.uleb128 0x59
 981 0136 0B       		.uleb128 0xb
 982 0137 00       		.byte	0
 983 0138 00       		.byte	0
 984 0139 16       		.uleb128 0x16
 985 013a 898201   		.uleb128 0x4109
 986 013d 00       		.byte	0
 987 013e 11       		.uleb128 0x11
 988 013f 01       		.uleb128 0x1
 989 0140 31       		.uleb128 0x31
 990 0141 13       		.uleb128 0x13
 991 0142 00       		.byte	0
 992 0143 00       		.byte	0
 993 0144 17       		.uleb128 0x17
 994 0145 2E       		.uleb128 0x2e
 995 0146 00       		.byte	0
 996 0147 3F       		.uleb128 0x3f
 997 0148 19       		.uleb128 0x19
 998 0149 03       		.uleb128 0x3
 999 014a 0E       		.uleb128 0xe
 1000 014b 3A       		.uleb128 0x3a
 1001 014c 0B       		.uleb128 0xb
 1002 014d 3B       		.uleb128 0x3b
 1003 014e 0B       		.uleb128 0xb
 1004 014f 27       		.uleb128 0x27
 1005 0150 19       		.uleb128 0x19
 1006 0151 11       		.uleb128 0x11
 1007 0152 01       		.uleb128 0x1
 1008 0153 12       		.uleb128 0x12
 1009 0154 06       		.uleb128 0x6
 1010 0155 40       		.uleb128 0x40
 1011 0156 18       		.uleb128 0x18
 1012 0157 9742     		.uleb128 0x2117
 1013 0159 19       		.uleb128 0x19
 1014 015a 00       		.byte	0
 1015 015b 00       		.byte	0
 1016 015c 18       		.uleb128 0x18
 1017 015d 34       		.uleb128 0x34
 1018 015e 00       		.byte	0
 1019 015f 03       		.uleb128 0x3
 1020 0160 0E       		.uleb128 0xe
 1021 0161 3A       		.uleb128 0x3a
 1022 0162 0B       		.uleb128 0xb
 1023 0163 3B       		.uleb128 0x3b
 1024 0164 05       		.uleb128 0x5
ARM GAS  /tmp/ccEUSraM.s 			page 19


 1025 0165 49       		.uleb128 0x49
 1026 0166 13       		.uleb128 0x13
 1027 0167 3F       		.uleb128 0x3f
 1028 0168 19       		.uleb128 0x19
 1029 0169 3C       		.uleb128 0x3c
 1030 016a 19       		.uleb128 0x19
 1031 016b 00       		.byte	0
 1032 016c 00       		.byte	0
 1033 016d 19       		.uleb128 0x19
 1034 016e 2E       		.uleb128 0x2e
 1035 016f 00       		.byte	0
 1036 0170 3F       		.uleb128 0x3f
 1037 0171 19       		.uleb128 0x19
 1038 0172 03       		.uleb128 0x3
 1039 0173 0E       		.uleb128 0xe
 1040 0174 3A       		.uleb128 0x3a
 1041 0175 0B       		.uleb128 0xb
 1042 0176 3B       		.uleb128 0x3b
 1043 0177 0B       		.uleb128 0xb
 1044 0178 27       		.uleb128 0x27
 1045 0179 19       		.uleb128 0x19
 1046 017a 3C       		.uleb128 0x3c
 1047 017b 19       		.uleb128 0x19
 1048 017c 00       		.byte	0
 1049 017d 00       		.byte	0
 1050 017e 00       		.byte	0
 1051              		.section	.debug_loc,"",%progbits
 1052              	.Ldebug_loc0:
 1053              	.LLST0:
 1054 0000 30000000 		.4byte	.LVL0
 1055 0004 54000000 		.4byte	.LVL1
 1056 0008 0100     		.2byte	0x1
 1057 000a 50       		.byte	0x50
 1058 000b 54000000 		.4byte	.LVL1
 1059 000f AC000000 		.4byte	.LFE131
 1060 0013 0400     		.2byte	0x4
 1061 0015 F3       		.byte	0xf3
 1062 0016 01       		.uleb128 0x1
 1063 0017 50       		.byte	0x50
 1064 0018 9F       		.byte	0x9f
 1065 0019 00000000 		.4byte	0
 1066 001d 00000000 		.4byte	0
 1067              	.LLST1:
 1068 0021 00000000 		.4byte	.LVL2
 1069 0025 0B000000 		.4byte	.LVL3-1
 1070 0029 0100     		.2byte	0x1
 1071 002b 50       		.byte	0x50
 1072 002c 0B000000 		.4byte	.LVL3-1
 1073 0030 16000000 		.4byte	.LFE132
 1074 0034 0400     		.2byte	0x4
 1075 0036 F3       		.byte	0xf3
 1076 0037 01       		.uleb128 0x1
 1077 0038 50       		.byte	0x50
 1078 0039 9F       		.byte	0x9f
 1079 003a 00000000 		.4byte	0
 1080 003e 00000000 		.4byte	0
 1081              	.LLST2:
ARM GAS  /tmp/ccEUSraM.s 			page 20


 1082 0042 20000000 		.4byte	.LVL4
 1083 0046 62000000 		.4byte	.LVL5
 1084 004a 0100     		.2byte	0x1
 1085 004c 50       		.byte	0x50
 1086 004d 62000000 		.4byte	.LVL5
 1087 0051 8C000000 		.4byte	.LFE133
 1088 0055 0400     		.2byte	0x4
 1089 0057 F3       		.byte	0xf3
 1090 0058 01       		.uleb128 0x1
 1091 0059 50       		.byte	0x50
 1092 005a 9F       		.byte	0x9f
 1093 005b 00000000 		.4byte	0
 1094 005f 00000000 		.4byte	0
 1095              	.LLST3:
 1096 0063 20000000 		.4byte	.LVL4
 1097 0067 64000000 		.4byte	.LVL6
 1098 006b 0100     		.2byte	0x1
 1099 006d 51       		.byte	0x51
 1100 006e 64000000 		.4byte	.LVL6
 1101 0072 8C000000 		.4byte	.LFE133
 1102 0076 0400     		.2byte	0x4
 1103 0078 F3       		.byte	0xf3
 1104 0079 01       		.uleb128 0x1
 1105 007a 51       		.byte	0x51
 1106 007b 9F       		.byte	0x9f
 1107 007c 00000000 		.4byte	0
 1108 0080 00000000 		.4byte	0
 1109              		.section	.debug_aranges,"",%progbits
 1110 0000 2C000000 		.4byte	0x2c
 1111 0004 0200     		.2byte	0x2
 1112 0006 00000000 		.4byte	.Ldebug_info0
 1113 000a 04       		.byte	0x4
 1114 000b 00       		.byte	0
 1115 000c 0000     		.2byte	0
 1116 000e 0000     		.2byte	0
 1117 0010 00000000 		.4byte	.Ltext0
 1118 0014 A8000000 		.4byte	.Letext0-.Ltext0
 1119 0018 00000000 		.4byte	.LFB130
 1120 001c 28000000 		.4byte	.LFE130-.LFB130
 1121 0020 30000000 		.4byte	.LFB131
 1122 0024 7C000000 		.4byte	.LFE131-.LFB131
 1123 0028 00000000 		.4byte	0
 1124 002c 00000000 		.4byte	0
 1125              		.section	.debug_ranges,"",%progbits
 1126              	.Ldebug_ranges0:
 1127 0000 20000000 		.4byte	.LBB16
 1128 0004 22000000 		.4byte	.LBE16
 1129 0008 24000000 		.4byte	.LBB19
 1130 000c 3E000000 		.4byte	.LBE19
 1131 0010 00000000 		.4byte	0
 1132 0014 00000000 		.4byte	0
 1133 0018 00000000 		.4byte	.Ltext0
 1134 001c A8000000 		.4byte	.Letext0
 1135 0020 00000000 		.4byte	.LFB130
 1136 0024 28000000 		.4byte	.LFE130
 1137 0028 30000000 		.4byte	.LFB131
 1138 002c AC000000 		.4byte	.LFE131
ARM GAS  /tmp/ccEUSraM.s 			page 21


 1139 0030 00000000 		.4byte	0
 1140 0034 00000000 		.4byte	0
 1141              		.section	.debug_line,"",%progbits
 1142              	.Ldebug_line0:
 1143 0000 74020000 		.section	.debug_str,"MS",%progbits,1
 1143      02000E02 
 1143      00000201 
 1143      FB0E0D00 
 1143      01010101 
 1144              	.LASF29:
 1145 0000 474E5520 		.ascii	"GNU C 4.9.3 20150529 (release) [ARM/embedded-4_9-br"
 1145      4320342E 
 1145      392E3320 
 1145      32303135 
 1145      30353239 
 1146 0033 616E6368 		.ascii	"anch revision 224288] -mcpu=cortex-m4 -mfloat-abi=h"
 1146      20726576 
 1146      6973696F 
 1146      6E203232 
 1146      34323838 
 1147 0066 61726420 		.ascii	"ard -mfpu=fpv4-sp-d16 -mno-thumb-interwork -mthumb "
 1147      2D6D6670 
 1147      753D6670 
 1147      76342D73 
 1147      702D6431 
 1148 0099 2D676764 		.ascii	"-ggdb -O2 -fomit-frame-pointer -falign-functions=16"
 1148      62202D4F 
 1148      32202D66 
 1148      6F6D6974 
 1148      2D667261 
 1149 00cc 202D666E 		.ascii	" -fno-math-errno -fsingle-precision-constant\000"
 1149      6F2D6D61 
 1149      74682D65 
 1149      72726E6F 
 1149      202D6673 
 1150              	.LASF5:
 1151 00f9 5F5F7569 		.ascii	"__uint8_t\000"
 1151      6E74385F 
 1151      7400
 1152              	.LASF22:
 1153 0103 464C4153 		.ascii	"FLASH_TypeDef\000"
 1153      485F5479 
 1153      70654465 
 1153      6600
 1154              	.LASF6:
 1155 0111 5F5F696E 		.ascii	"__int32_t\000"
 1155      7433325F 
 1155      7400
 1156              	.LASF35:
 1157 011b 666C6173 		.ascii	"flash_unlock\000"
 1157      685F756E 
 1157      6C6F636B 
 1157      00
 1158              	.LASF23:
 1159 0128 57574447 		.ascii	"WWDG_TypeDef\000"
 1159      5F547970 
 1159      65446566 
ARM GAS  /tmp/ccEUSraM.s 			page 22


 1159      00
 1160              	.LASF34:
 1161 0135 73746174 		.ascii	"status\000"
 1161      757300
 1162              	.LASF31:
 1163 013c 2F686F6D 		.ascii	"/home/sbcu/Dropbox/pcb-layouts/axo-on-discovery-boa"
 1163      652F7362 
 1163      63752F44 
 1163      726F7062 
 1163      6F782F70 
 1164 016f 72642F61 		.ascii	"rd/axoloti/firmware\000"
 1164      786F6C6F 
 1164      74692F66 
 1164      69726D77 
 1164      61726500 
 1165              	.LASF20:
 1166 0183 4F505443 		.ascii	"OPTCR\000"
 1166      5200
 1167              	.LASF11:
 1168 0189 6C6F6E67 		.ascii	"long long unsigned int\000"
 1168      206C6F6E 
 1168      6720756E 
 1168      7369676E 
 1168      65642069 
 1169              	.LASF2:
 1170 01a0 756E7369 		.ascii	"unsigned char\000"
 1170      676E6564 
 1170      20636861 
 1170      7200
 1171              	.LASF21:
 1172 01ae 4F505443 		.ascii	"OPTCR1\000"
 1172      523100
 1173              	.LASF33:
 1174 01b5 666C6173 		.ascii	"flash_Erase_sector1\000"
 1174      685F4572 
 1174      6173655F 
 1174      73656374 
 1174      6F723100 
 1175              	.LASF9:
 1176 01c9 6C6F6E67 		.ascii	"long unsigned int\000"
 1176      20756E73 
 1176      69676E65 
 1176      6420696E 
 1176      7400
 1177              	.LASF4:
 1178 01db 73686F72 		.ascii	"short unsigned int\000"
 1178      7420756E 
 1178      7369676E 
 1178      65642069 
 1178      6E7400
 1179              	.LASF36:
 1180 01ee 49544D5F 		.ascii	"ITM_RxBuffer\000"
 1180      52784275 
 1180      66666572 
 1180      00
 1181              	.LASF19:
 1182 01fb 4F50544B 		.ascii	"OPTKEYR\000"
ARM GAS  /tmp/ccEUSraM.s 			page 23


 1182      45595200 
 1183              	.LASF37:
 1184 0203 77617463 		.ascii	"watchdog_feed\000"
 1184      68646F67 
 1184      5F666565 
 1184      6400
 1185              	.LASF32:
 1186 0211 666C6173 		.ascii	"flash_WaitForLastOperation\000"
 1186      685F5761 
 1186      6974466F 
 1186      724C6173 
 1186      744F7065 
 1187              	.LASF28:
 1188 022c 44617461 		.ascii	"Data\000"
 1188      00
 1189              	.LASF8:
 1190 0231 5F5F7569 		.ascii	"__uint32_t\000"
 1190      6E743332 
 1190      5F7400
 1191              	.LASF30:
 1192 023c 666C6173 		.ascii	"flash.c\000"
 1192      682E6300 
 1193              	.LASF0:
 1194 0244 756E7369 		.ascii	"unsigned int\000"
 1194      676E6564 
 1194      20696E74 
 1194      00
 1195              	.LASF17:
 1196 0251 63686172 		.ascii	"char\000"
 1196      00
 1197              	.LASF12:
 1198 0256 75696E74 		.ascii	"uint8_t\000"
 1198      385F7400 
 1199              	.LASF25:
 1200 025e 666C6173 		.ascii	"flash_Erase_sector\000"
 1200      685F4572 
 1200      6173655F 
 1200      73656374 
 1200      6F7200
 1201              	.LASF13:
 1202 0271 696E7433 		.ascii	"int32_t\000"
 1202      325F7400 
 1203              	.LASF16:
 1204 0279 73697A65 		.ascii	"sizetype\000"
 1204      74797065 
 1204      00
 1205              	.LASF10:
 1206 0282 6C6F6E67 		.ascii	"long long int\000"
 1206      206C6F6E 
 1206      6720696E 
 1206      7400
 1207              	.LASF24:
 1208 0290 73656374 		.ascii	"sector\000"
 1208      6F7200
 1209              	.LASF3:
 1210 0297 73686F72 		.ascii	"short int\000"
 1210      7420696E 
ARM GAS  /tmp/ccEUSraM.s 			page 24


 1210      7400
 1211              	.LASF27:
 1212 02a1 41646472 		.ascii	"Address\000"
 1212      65737300 
 1213              	.LASF14:
 1214 02a9 75696E74 		.ascii	"uint32_t\000"
 1214      33325F74 
 1214      00
 1215              	.LASF7:
 1216 02b2 6C6F6E67 		.ascii	"long int\000"
 1216      20696E74 
 1216      00
 1217              	.LASF18:
 1218 02bb 4B455952 		.ascii	"KEYR\000"
 1218      00
 1219              	.LASF1:
 1220 02c0 7369676E 		.ascii	"signed char\000"
 1220      65642063 
 1220      68617200 
 1221              	.LASF15:
 1222 02cc 5F426F6F 		.ascii	"_Bool\000"
 1222      6C00
 1223              	.LASF26:
 1224 02d2 666C6173 		.ascii	"flash_ProgramWord\000"
 1224      685F5072 
 1224      6F677261 
 1224      6D576F72 
 1224      6400
 1225              		.ident	"GCC: (GNU Tools for ARM Embedded Processors) 4.9.3 20150529 (release) [ARM/embedded-4_9-br
ARM GAS  /tmp/ccEUSraM.s 			page 25


DEFINED SYMBOLS
                            *ABS*:00000000 flash.c
     /tmp/ccEUSraM.s:27     .data:00000000 flash_WaitForLastOperation
     /tmp/ccEUSraM.s:36     .data:00000000 $t
     /tmp/ccEUSraM.s:56     .data:0000001e $d
     /tmp/ccEUSraM.s:69     .data:00000030 flash_Erase_sector1
     /tmp/ccEUSraM.s:78     .data:00000030 $t
     /tmp/ccEUSraM.s:150    .data:000000a4 $d
     /tmp/ccEUSraM.s:160    .text:00000000 $t
     /tmp/ccEUSraM.s:166    .text:00000000 flash_Erase_sector
     /tmp/ccEUSraM.s:208    .text:00000020 flash_ProgramWord
     /tmp/ccEUSraM.s:299    .text:00000084 $d
     /tmp/ccEUSraM.s:304    .text:0000008c $t
     /tmp/ccEUSraM.s:310    .text:00000090 flash_unlock
     /tmp/ccEUSraM.s:330    .text:0000009c $d
                     .debug_frame:00000010 $d

UNDEFINED SYMBOLS
watchdog_feed
