ARM GAS  /tmp/ccEUSraM.s 			page 1


   1              		.syntax unified
   2              		.cpu cortex-m4
   3              		.eabi_attribute 27, 1
   4              		.eabi_attribute 28, 1
   5              		.fpu fpv4-sp-d16
   6              		.eabi_attribute 20, 1
   7              		.eabi_attribute 21, 1
   8              		.eabi_attribute 23, 3
   9              		.eabi_attribute 24, 1
  10              		.eabi_attribute 25, 1
  11              		.eabi_attribute 26, 1
  12              		.eabi_attribute 30, 2
  13              		.eabi_attribute 34, 1
  14              		.eabi_attribute 18, 4
  15              		.thumb
  16              		.file	"flash.c"
  17              		.text
  18              	.Ltext0:
  19              		.cfi_sections	.debug_frame
  20              		.section	.data,"ax",%progbits
  21              		.align	2
  22              		.p2align 4,,15
  23              		.global	flash_WaitForLastOperation
  24              		.thumb
  25              		.thumb_func
  26              		.type	flash_WaitForLastOperation, %function
  27              	flash_WaitForLastOperation:
  28              	.LFB130:
  29              		.file 1 "flash.c"
  30              		.loc 1 23 0
  31              		.cfi_startproc
  32              		@ args = 0, pretend = 0, frame = 0
  33              		@ frame_needed = 0, uses_anonymous_args = 0
  34              		@ link register save eliminated.
  35              		.loc 1 24 0
  36 0000 074A     		ldr	r2, .L9
  37 0002 D368     		ldr	r3, [r2, #12]
  38 0004 B3F5803F 		cmp	r3, #65536
  39 0008 06D1     		bne	.L3
  40              		.loc 1 25 0
  41 000a 0648     		ldr	r0, .L9+4
  42 000c 7F21     		movs	r1, #127
  43              	.L2:
  44 000e 0160     		str	r1, [r0]
  45              		.loc 1 24 0
  46 0010 D368     		ldr	r3, [r2, #12]
  47 0012 B3F5803F 		cmp	r3, #65536
  48 0016 FAD0     		beq	.L2
  49              	.L3:
  50              		.loc 1 27 0
  51 0018 014B     		ldr	r3, .L9
  52 001a D868     		ldr	r0, [r3, #12]
  53              		.loc 1 28 0
  54 001c 7047     		bx	lr
  55              	.L10:
  56 001e 0000     		.align	2
  57              	.L9:
ARM GAS  /tmp/ccEUSraM.s 			page 2


  58 0020 003C0240 		.word	1073888256
  59 0024 002C0040 		.word	1073753088
  60              		.cfi_endproc
  61              	.LFE130:
  62              		.size	flash_WaitForLastOperation, .-flash_WaitForLastOperation
  63              		.align	2
  64 0028 00000000 		.p2align 4,,15
  64      00000000 
  65              		.global	flash_Erase_sector1
  66              		.thumb
  67              		.thumb_func
  68              		.type	flash_Erase_sector1, %function
  69              	flash_Erase_sector1:
  70              	.LFB131:
  71              		.loc 1 30 0
  72              		.cfi_startproc
  73              		@ args = 0, pretend = 0, frame = 0
  74              		@ frame_needed = 0, uses_anonymous_args = 0
  75              		@ link register save eliminated.
  76              	.LVL0:
  77              		.loc 1 32 0
  78 0030 1C4B     		ldr	r3, .L23
  79 0032 1A69     		ldr	r2, [r3, #16]
  80 0034 22F44072 		bic	r2, r2, #768
  81 0038 1A61     		str	r2, [r3, #16]
  82              		.loc 1 33 0
  83 003a 1A69     		ldr	r2, [r3, #16]
  84 003c 42F40072 		orr	r2, r2, #512
  85 0040 1A61     		str	r2, [r3, #16]
  86              		.loc 1 34 0
  87 0042 1A69     		ldr	r2, [r3, #16]
  88 0044 22F0F802 		bic	r2, r2, #248
  89 0048 1A61     		str	r2, [r3, #16]
  90              		.loc 1 35 0
  91 004a 1A69     		ldr	r2, [r3, #16]
  92 004c 42F00202 		orr	r2, r2, #2
  93 0050 42EAC000 		orr	r0, r2, r0, lsl #3
  94              	.LVL1:
  95 0054 1861     		str	r0, [r3, #16]
  96              		.loc 1 36 0
  97 0056 1A69     		ldr	r2, [r3, #16]
  98 0058 42F48032 		orr	r2, r2, #65536
  99 005c 1A61     		str	r2, [r3, #16]
 100              	.LBB10:
 101              	.LBB11:
 102              		.loc 1 24 0
 103 005e DA68     		ldr	r2, [r3, #12]
 104 0060 B2F5803F 		cmp	r2, #65536
 105 0064 06D1     		bne	.L15
 106              		.loc 1 25 0
 107 0066 1048     		ldr	r0, .L23+4
 108 0068 7F21     		movs	r1, #127
 109              	.L12:
 110 006a 0160     		str	r1, [r0]
 111              		.loc 1 24 0
 112 006c DA68     		ldr	r2, [r3, #12]
 113 006e B2F5803F 		cmp	r2, #65536
ARM GAS  /tmp/ccEUSraM.s 			page 3


 114 0072 FAD0     		beq	.L12
 115              	.L15:
 116              		.loc 1 27 0
 117 0074 0B4A     		ldr	r2, .L23
 118 0076 D368     		ldr	r3, [r2, #12]
 119              	.LBE11:
 120              	.LBE10:
 121              		.loc 1 39 0
 122 0078 1369     		ldr	r3, [r2, #16]
 123 007a 23F00203 		bic	r3, r3, #2
 124 007e 1361     		str	r3, [r2, #16]
 125              		.loc 1 40 0
 126 0080 1369     		ldr	r3, [r2, #16]
 127 0082 23F00203 		bic	r3, r3, #2
 128 0086 1361     		str	r3, [r2, #16]
 129              	.LBB12:
 130              	.LBB13:
 131              		.loc 1 24 0
 132 0088 D368     		ldr	r3, [r2, #12]
 133 008a B3F5803F 		cmp	r3, #65536
 134 008e 06D1     		bne	.L14
 135              		.loc 1 25 0
 136 0090 0548     		ldr	r0, .L23+4
 137 0092 7F21     		movs	r1, #127
 138              	.L13:
 139 0094 0160     		str	r1, [r0]
 140              		.loc 1 24 0
 141 0096 D368     		ldr	r3, [r2, #12]
 142 0098 B3F5803F 		cmp	r3, #65536
 143 009c FAD0     		beq	.L13
 144              	.L14:
 145              		.loc 1 27 0
 146 009e 014B     		ldr	r3, .L23
 147 00a0 DB68     		ldr	r3, [r3, #12]
 148 00a2 7047     		bx	lr
 149              	.L24:
 150              		.align	2
 151              	.L23:
 152 00a4 003C0240 		.word	1073888256
 153 00a8 002C0040 		.word	1073753088
 154              	.LBE13:
 155              	.LBE12:
 156              		.cfi_endproc
 157              	.LFE131:
 158              		.size	flash_Erase_sector1, .-flash_Erase_sector1
 159              		.text
 160              		.align	2
 161              		.p2align 4,,15
 162              		.global	flash_Erase_sector
 163              		.thumb
 164              		.thumb_func
 165              		.type	flash_Erase_sector, %function
 166              	flash_Erase_sector:
 167              	.LFB132:
 168              		.loc 1 44 0
 169              		.cfi_startproc
 170              		@ args = 0, pretend = 0, frame = 0
ARM GAS  /tmp/ccEUSraM.s 			page 4


 171              		@ frame_needed = 0, uses_anonymous_args = 0
 172              	.LVL2:
 173 0000 08B5     		push	{r3, lr}
 174              		.cfi_def_cfa_offset 8
 175              		.cfi_offset 3, -8
 176              		.cfi_offset 14, -4
 177              	.LBB14:
 178              		.loc 1 47 0
 179 0002 2023     		movs	r3, #32
 180              	@ 47 "flash.c" 1
 181 0004 83F31188 		msr     BASEPRI, r3
 182              	@ 0 "" 2
 183              		.thumb
 184              	.LBE14:
 185              		.loc 1 48 0
 186 0008 FFF7FEFF 		bl	flash_Erase_sector1
 187              	.LVL3:
 188              	.LBB15:
 189              		.loc 1 49 0
 190 000c 0023     		movs	r3, #0
 191              	@ 49 "flash.c" 1
 192 000e 83F31188 		msr     BASEPRI, r3
 193              	@ 0 "" 2
 194              		.thumb
 195              	.LBE15:
 196              		.loc 1 51 0
 197 0012 1846     		mov	r0, r3
 198 0014 08BD     		pop	{r3, pc}
 199              		.cfi_endproc
 200              	.LFE132:
 201              		.size	flash_Erase_sector, .-flash_Erase_sector
 202 0016 00BF     		.align	2
 203 0018 AFF30080 		.p2align 4,,15
 203      AFF30080 
 204              		.global	flash_ProgramWord
 205              		.thumb
 206              		.thumb_func
 207              		.type	flash_ProgramWord, %function
 208              	flash_ProgramWord:
 209              	.LFB133:
 210              		.loc 1 53 0
 211              		.cfi_startproc
 212              		@ args = 0, pretend = 0, frame = 0
 213              		@ frame_needed = 0, uses_anonymous_args = 0
 214              	.LVL4:
 215              	.LBB16:
 216              	.LBB17:
 217              		.loc 1 24 0
 218 0020 184A     		ldr	r2, .L40
 219              	.LBE17:
 220              	.LBE16:
 221              		.loc 1 53 0
 222 0022 38B5     		push	{r3, r4, r5, lr}
 223              		.cfi_def_cfa_offset 16
 224              		.cfi_offset 3, -16
 225              		.cfi_offset 4, -12
 226              		.cfi_offset 5, -8
ARM GAS  /tmp/ccEUSraM.s 			page 5


 227              		.cfi_offset 14, -4
 228              	.LBB19:
 229              	.LBB18:
 230              		.loc 1 24 0
 231 0024 D368     		ldr	r3, [r2, #12]
 232 0026 B3F5803F 		cmp	r3, #65536
 233 002a 06D1     		bne	.L31
 234              		.loc 1 25 0
 235 002c 164D     		ldr	r5, .L40+4
 236 002e 7F24     		movs	r4, #127
 237              	.L28:
 238 0030 2C60     		str	r4, [r5]
 239              		.loc 1 24 0
 240 0032 D368     		ldr	r3, [r2, #12]
 241 0034 B3F5803F 		cmp	r3, #65536
 242 0038 FAD0     		beq	.L28
 243              	.L31:
 244              		.loc 1 27 0
 245 003a 124B     		ldr	r3, .L40
 246 003c DA68     		ldr	r2, [r3, #12]
 247              	.LBE18:
 248              	.LBE19:
 249              		.loc 1 59 0
 250 003e 1A69     		ldr	r2, [r3, #16]
 251 0040 22F44072 		bic	r2, r2, #768
 252 0044 1A61     		str	r2, [r3, #16]
 253              		.loc 1 60 0
 254 0046 1A69     		ldr	r2, [r3, #16]
 255 0048 42F40072 		orr	r2, r2, #512
 256 004c 1A61     		str	r2, [r3, #16]
 257              		.loc 1 61 0
 258 004e 1A69     		ldr	r2, [r3, #16]
 259 0050 42F00102 		orr	r2, r2, #1
 260 0054 1A61     		str	r2, [r3, #16]
 261              		.loc 1 63 0
 262 0056 0160     		str	r1, [r0]
 263              	.LBB20:
 264              	.LBB21:
 265              		.loc 1 24 0
 266 0058 DA68     		ldr	r2, [r3, #12]
 267 005a B2F5803F 		cmp	r2, #65536
 268 005e 06D1     		bne	.L30
 269              		.loc 1 25 0
 270 0060 0948     		ldr	r0, .L40+4
 271              	.LVL5:
 272 0062 7F21     		movs	r1, #127
 273              	.LVL6:
 274              	.L29:
 275 0064 0160     		str	r1, [r0]
 276              		.loc 1 24 0
 277 0066 DA68     		ldr	r2, [r3, #12]
 278 0068 B2F5803F 		cmp	r2, #65536
 279 006c FAD0     		beq	.L29
 280              	.L30:
 281              		.loc 1 27 0
 282 006e 054B     		ldr	r3, .L40
 283 0070 DC68     		ldr	r4, [r3, #12]
ARM GAS  /tmp/ccEUSraM.s 			page 6


 284              	.LBE21:
 285              	.LBE20:
 286              		.loc 1 69 0
 287 0072 1A69     		ldr	r2, [r3, #16]
 288 0074 22F00102 		bic	r2, r2, #1
 289 0078 1A61     		str	r2, [r3, #16]
 290              		.loc 1 71 0
 291 007a FFF7FEFF 		bl	watchdog_feed
 292              	.LVL7:
 293              		.loc 1 75 0
 294 007e 2046     		mov	r0, r4
 295 0080 38BD     		pop	{r3, r4, r5, pc}
 296              	.L41:
 297 0082 00BF     		.align	2
 298              	.L40:
 299 0084 003C0240 		.word	1073888256
 300 0088 002C0040 		.word	1073753088
 301              		.cfi_endproc
 302              	.LFE133:
 303              		.size	flash_ProgramWord, .-flash_ProgramWord
 304              		.align	2
 305 008c AFF30080 		.p2align 4,,15
 306              		.global	flash_unlock
 307              		.thumb
 308              		.thumb_func
 309              		.type	flash_unlock, %function
 310              	flash_unlock:
 311              	.LFB134:
 312              		.loc 1 77 0
 313              		.cfi_startproc
 314              		@ args = 0, pretend = 0, frame = 0
 315              		@ frame_needed = 0, uses_anonymous_args = 0
 316              		@ link register save eliminated.
 317              		.loc 1 79 0
 318 0090 024B     		ldr	r3, .L43
 319 0092 0349     		ldr	r1, .L43+4
 320              		.loc 1 80 0
 321 0094 034A     		ldr	r2, .L43+8
 322              		.loc 1 79 0
 323 0096 5960     		str	r1, [r3, #4]
 324              		.loc 1 80 0
 325 0098 5A60     		str	r2, [r3, #4]
 326 009a 7047     		bx	lr
 327              	.L44:
 328              		.align	2
 329              	.L43:
 330 009c 003C0240 		.word	1073888256
 331 00a0 23016745 		.word	1164378403
 332 00a4 AB89EFCD 		.word	-839939669
 333              		.cfi_endproc
 334              	.LFE134:
 335              		.size	flash_unlock, .-flash_unlock
 336              	.Letext0:
 337              		.file 2 "/home/sbcu/Dropbox/pcb-layouts/axo-on-discovery-board/axoloti/platform_linux/arm-none-eab
 338              		.file 3 "/home/sbcu/Dropbox/pcb-layouts/axo-on-discovery-board/axoloti/platform_linux/arm-none-eab
 339              		.file 4 "/home/sbcu/Dropbox/pcb-layouts/axo-on-discovery-board/axoloti/platform_linux/../chibios/o
 340              		.file 5 "/home/sbcu/Dropbox/pcb-layouts/axo-on-discovery-board/axoloti/platform_linux/../CMSIS//In
ARM GAS  /tmp/ccEUSraM.s 			page 7


 341              		.file 6 "watchdog.h"