ARM GAS  /tmp/ccN8ISTd.s 			page 1


   1              		.syntax unified
   2              		.cpu cortex-m4
   3              		.eabi_attribute 27, 1
   4              		.eabi_attribute 28, 1
   5              		.fpu fpv4-sp-d16
   6              		.eabi_attribute 20, 1
   7              		.eabi_attribute 21, 1
   8              		.eabi_attribute 23, 3
   9              		.eabi_attribute 24, 1
  10              		.eabi_attribute 25, 1
  11              		.eabi_attribute 26, 1
  12              		.eabi_attribute 30, 2
  13              		.eabi_attribute 34, 1
  14              		.eabi_attribute 18, 4
  15              		.thumb
  16              		.file	"follower.cpp"
  17              		.text
  18              	.Ltext0:
  19              		.cfi_sections	.debug_frame
  20              		.align	2
  21              		.p2align 4,,15
  22              		.global	_ZN7streams8Follower4InitEv
  23              		.thumb
  24              		.thumb_func
  25              		.type	_ZN7streams8Follower4InitEv, %function
  26              	_ZN7streams8Follower4InitEv:
  27              		.fnstart
  28              	.LFB34:
  29              		.file 1 "./mutable_instruments/streams/follower.cpp"
  30              		.loc 1 40 0
  31              		.cfi_startproc
  32              		@ args = 0, pretend = 0, frame = 0
  33              		@ frame_needed = 0, uses_anonymous_args = 0
  34              	.LVL0:
  35 0000 F8B5     		push	{r3, r4, r5, r6, r7, lr}
  36              		.save {r3, r4, r5, r6, r7, lr}
  37              		.cfi_def_cfa_offset 24
  38              		.cfi_offset 3, -24
  39              		.cfi_offset 4, -20
  40              		.cfi_offset 5, -16
  41              		.cfi_offset 6, -12
  42              		.cfi_offset 7, -8
  43              		.cfi_offset 14, -4
  44              		.loc 1 40 0
  45 0002 0446     		mov	r4, r0
  46              	.LBB26:
  47              		.loc 1 41 0
  48 0004 FFF7FEFF 		bl	_ZN7streams3Svf4InitEv
  49              	.LVL1:
  50              	.LBB27:
  51              	.LBB28:
  52              		.file 2 "./mutable_instruments/streams/svf.h"
  53              		.loc 2 50 0
  54 0008 2046     		mov	r0, r4
  55              		.loc 2 49 0
  56 000a 0025     		movs	r5, #0
  57              	.LBE28:
ARM GAS  /tmp/ccN8ISTd.s 			page 2


  58              	.LBE27:
  59              	.LBB31:
  60              	.LBB32:
  61              		.loc 2 45 0
  62 000c 4FF4B453 		mov	r3, #5760
  63              	.LBE32:
  64              	.LBE31:
  65              	.LBB34:
  66              	.LBB29:
  67              		.loc 2 50 0
  68 0010 0126     		movs	r6, #1
  69              	.LBE29:
  70              	.LBE34:
  71              	.LBB35:
  72              	.LBB33:
  73              		.loc 2 45 0
  74 0012 6380     		strh	r3, [r4, #2]	@ movhi
  75              	.LVL2:
  76              	.LBE33:
  77              	.LBE35:
  78              	.LBB36:
  79              	.LBB30:
  80              		.loc 2 49 0
  81 0014 A580     		strh	r5, [r4, #4]	@ movhi
  82              		.loc 2 50 0
  83 0016 00F81C6B 		strb	r6, [r0], #28
  84              	.LBE30:
  85              	.LBE36:
  86              		.loc 1 44 0
  87 001a FFF7FEFF 		bl	_ZN7streams3Svf4InitEv
  88              	.LVL3:
  89              	.LBB37:
  90              	.LBB38:
  91              		.loc 2 45 0
  92 001e 4FF42C53 		mov	r3, #11008
  93              	.LBE38:
  94              	.LBE37:
  95              	.LBB40:
  96              	.LBB41:
  97              		.loc 2 50 0
  98 0022 2677     		strb	r6, [r4, #28]
  99              	.LBE41:
 100              	.LBE40:
 101              	.LBB43:
 102              	.LBB39:
 103              		.loc 2 45 0
 104 0024 E383     		strh	r3, [r4, #30]	@ movhi
 105              	.LVL4:
 106              	.LBE39:
 107              	.LBE43:
 108              	.LBB44:
 109              	.LBB42:
 110              		.loc 2 50 0
 111 0026 2A46     		mov	r2, r5
 112              		.loc 2 49 0
 113 0028 2584     		strh	r5, [r4, #32]	@ movhi
 114              	.LBE42:
ARM GAS  /tmp/ccN8ISTd.s 			page 3


 115              	.LBE44:
 116              	.LBB45:
 117              		.loc 1 49 0
 118 002a 2946     		mov	r1, r5
 119 002c 2346     		mov	r3, r4
 120 002e 04F1AC00 		add	r0, r4, #172
 121              		.loc 1 50 0
 122 0032 0026     		movs	r6, #0
 123 0034 0027     		movs	r7, #0
 124              	.LVL5:
 125              	.L2:
 126 0036 0432     		adds	r2, r2, #4
 127              		.loc 1 48 0 discriminator 3
 128 0038 0C2A     		cmp	r2, #12
 129              		.loc 1 49 0 discriminator 3
 130 003a D963     		str	r1, [r3, #60]
 131 003c 9963     		str	r1, [r3, #56]
 132              		.loc 1 50 0 discriminator 3
 133 003e C3E91467 		strd	r6, [r3, #80]
 134              		.loc 1 51 0 discriminator 3
 135 0042 C3E92667 		strd	r6, [r3, #152]
 136              		.loc 1 49 0 discriminator 3
 137 0046 4FF00005 		mov	r5, #0
 138              		.loc 1 52 0 discriminator 3
 139 004a 40F8041F 		str	r1, [r0, #4]!
 140 004e 03F10803 		add	r3, r3, #8
 141              		.loc 1 48 0 discriminator 3
 142 0052 F0D1     		bne	.L2
 143              	.LBE45:
 144              		.loc 1 54 0
 145 0054 C4F8BC50 		str	r5, [r4, #188]
 146 0058 F8BD     		pop	{r3, r4, r5, r6, r7, pc}
 147              	.LBE26:
 148              		.cfi_endproc
 149              	.LFE34:
 150              		.fnend
 151              		.size	_ZN7streams8Follower4InitEv, .-_ZN7streams8Follower4InitEv
 152 005a 00BF     		.align	2
 153 005c AFF30080 		.p2align 4,,15
 154              		.global	_ZN7streams8Follower7ProcessEssPtS1_
 155              		.thumb
 156              		.thumb_func
 157              		.type	_ZN7streams8Follower7ProcessEssPtS1_, %function
 158              	_ZN7streams8Follower7ProcessEssPtS1_:
 159              		.fnstart
 160              	.LFB35:
 161              		.loc 1 61 0
 162              		.cfi_startproc
 163              		@ args = 4, pretend = 0, frame = 64
 164              		@ frame_needed = 0, uses_anonymous_args = 0
 165              	.LVL6:
 166 0060 2DE9F04F 		push	{r4, r5, r6, r7, r8, r9, r10, fp, lr}
 167              		.save {r4, r5, r6, r7, r8, r9, r10, fp, lr}
 168              		.cfi_def_cfa_offset 36
 169              		.cfi_offset 4, -36
 170              		.cfi_offset 5, -32
 171              		.cfi_offset 6, -28
ARM GAS  /tmp/ccN8ISTd.s 			page 4


 172              		.cfi_offset 7, -24
 173              		.cfi_offset 8, -20
 174              		.cfi_offset 9, -16
 175              		.cfi_offset 10, -12
 176              		.cfi_offset 11, -8
 177              		.cfi_offset 14, -4
 178              	.LBB46:
 179              		.loc 1 66 0
 180 0064 1146     		mov	r1, r2
 181              	.LVL7:
 182              		.loc 1 63 0
 183 0066 D0F8C470 		ldr	r7, [r0, #196]
 184              		.loc 1 64 0
 185 006a D0F8C060 		ldr	r6, [r0, #192]
 186              		.loc 1 63 0
 187 006e D0F8CC50 		ldr	r5, [r0, #204]
 188              		.loc 1 64 0
 189 0072 D0F8C820 		ldr	r2, [r0, #200]
 190              	.LVL8:
 191              		.loc 1 63 0
 192 0076 ED1B     		subs	r5, r5, r7
 193              		.loc 1 64 0
 194 0078 921B     		subs	r2, r2, r6
 195              	.LBE46:
 196              		.loc 1 61 0
 197 007a 0446     		mov	r4, r0
 198              		.pad #68
 199 007c 91B0     		sub	sp, sp, #68
 200              		.cfi_def_cfa_offset 104
 201              	.LBB62:
 202              		.loc 1 64 0
 203 007e 06EB2226 		add	r6, r6, r2, asr #8
 204              		.loc 1 63 0
 205 0082 07EB2527 		add	r7, r7, r5, asr #8
 206              		.loc 1 64 0
 207 0086 C0F8C060 		str	r6, [r0, #192]
 208              		.loc 1 63 0
 209 008a C0F8C470 		str	r7, [r0, #196]
 210              	.LBE62:
 211              		.loc 1 61 0
 212 008e 0B93     		str	r3, [sp, #44]
 213              	.LBB63:
 214              		.loc 1 66 0
 215 0090 FFF7FEFF 		bl	_ZN7streams3Svf7ProcessEl
 216              	.LVL9:
 217              		.loc 1 67 0
 218 0094 A169     		ldr	r1, [r4, #24]
 219 0096 04F11C00 		add	r0, r4, #28
 220 009a FFF7FEFF 		bl	_ZN7streams3Svf7ProcessEl
 221              	.LVL10:
 222 009e A646     		mov	lr, r4
 223              		.loc 1 71 0
 224 00a0 E36A     		ldr	r3, [r4, #44]
 225 00a2 0E93     		str	r3, [sp, #56]
 226              	.LBB47:
 227              	.LBB48:
 228              		.loc 1 82 0
ARM GAS  /tmp/ccN8ISTd.s 			page 5


 229 00a4 DEF83C60 		ldr	r6, [lr, #60]
 230 00a8 DEF83830 		ldr	r3, [lr, #56]
 231 00ac 2569     		ldr	r5, [r4, #16]
 232              	.LVL11:
 233              	.LBE48:
 234              	.LBE47:
 235              		.loc 1 72 0
 236 00ae 626B     		ldr	r2, [r4, #52]
 237 00b0 94F8D410 		ldrb	r1, [r4, #212]	@ zero_extendqisi2
 238              		.loc 1 70 0
 239 00b4 0D95     		str	r5, [sp, #52]
 240              	.LVL12:
 241              	.LBB55:
 242              		.loc 1 77 0
 243 00b6 4FF0000C 		mov	ip, #0
 244              	.LBB49:
 245              		.loc 1 82 0
 246 00ba B342     		cmp	r3, r6
 247 00bc 0A91     		str	r1, [sp, #40]
 248              	.LBE49:
 249              	.LBE55:
 250              		.loc 1 72 0
 251 00be 0F92     		str	r2, [sp, #60]
 252              	.LVL13:
 253 00c0 04F1B008 		add	r8, r4, #176
 254 00c4 04F1500A 		add	r10, r4, #80
 255              		.loc 1 75 0
 256 00c8 E146     		mov	r9, ip
 257              		.loc 1 74 0
 258 00ca E346     		mov	fp, ip
 259 00cc CDF80CC0 		str	ip, [sp, #12]
 260              	.LVL14:
 261              	.LBB56:
 262              	.LBB50:
 263              		.loc 1 79 0
 264 00d0 05FB05F5 		mul	r5, r5, r5
 265              	.LVL15:
 266              		.loc 1 82 0
 267 00d4 6CDA     		bge	.L7
 268              	.LVL16:
 269              	.L29:
 270              		.loc 1 82 0 is_stmt 0 discriminator 1
 271 00d6 B542     		cmp	r5, r6
 272 00d8 40F3DE80 		ble	.L11
 273              		.loc 1 82 0 discriminator 2
 274 00dc DAE90023 		ldrd	r2, [r10]
 275              		.loc 1 83 0 is_stmt 1 discriminator 2
 276 00e0 E917     		asrs	r1, r5, #31
 277              		.loc 1 82 0 discriminator 2
 278 00e2 AA42     		cmp	r2, r5
 279 00e4 8B41     		sbcs	r3, r3, r1
 280              		.loc 1 83 0 discriminator 2
 281 00e6 2846     		mov	r0, r5
 282              		.loc 1 82 0 discriminator 2
 283 00e8 C0F2DD80 		blt	.L28
 284              	.L9:
 285              		.loc 1 87 0 discriminator 1
ARM GAS  /tmp/ccN8ISTd.s 			page 6


 286 00ec B542     		cmp	r5, r6
 287 00ee 40F3D380 		ble	.L11
 288              	.L26:
 289 00f2 DAE90023 		ldrd	r2, [r10]
 290 00f6 CDE90423 		strd	r2, [sp, #16]
 291              	.L10:
 292              		.loc 1 94 0
 293 00fa DEE92623 		ldrd	r2, [lr, #152]
 294              		.loc 1 90 0
 295 00fe CEF83860 		str	r6, [lr, #56]
 296              		.loc 1 94 0
 297 0102 DDE90467 		ldrd	r6, [sp, #16]
 298 0106 B61A     		subs	r6, r6, r2
 299 0108 67EB0307 		sbc	r7, r7, r3
 300              		.loc 1 95 0
 301 010c 012E     		cmp	r6, #1
 302 010e 77F10001 		sbcs	r1, r7, #0
 303              		.loc 1 94 0
 304 0112 CDE90623 		strd	r2, [sp, #24]
 305              		.loc 1 91 0
 306 0116 CEF83C50 		str	r5, [lr, #60]
 307              		.loc 1 95 0
 308 011a C0F2A380 		blt	.L12
 309              		.loc 1 96 0
 310 011e DEF86C10 		ldr	r1, [lr, #108]
 311 0122 DEF86800 		ldr	r0, [lr, #104]
 312 0126 06FB01F1 		mul	r1, r6, r1
 313 012a A0FB0623 		umull	r2, r3, r0, r6
 314 012e 00FB0711 		mla	r1, r0, r7, r1
 315 0132 0B44     		add	r3, r3, r1
 316 0134 D10F     		lsrs	r1, r2, #31
 317 0136 41EA4301 		orr	r1, r1, r3, lsl #1
 318 013a DB17     		asrs	r3, r3, #31
 319 013c 0193     		str	r3, [sp, #4]
 320 013e 0091     		str	r1, [sp]
 321 0140 DDE90623 		ldrd	r2, [sp, #24]
 322 0144 DDE90001 		ldrd	r0, [sp]
 323 0148 1218     		adds	r2, r2, r0
 324 014a 4B41     		adcs	r3, r3, r1
 325 014c CEE92623 		strd	r2, [lr, #152]
 326              	.L13:
 327              		.loc 1 100 0
 328 0150 510B     		lsrs	r1, r2, #13
 329 0152 41EAC341 		orr	r1, r1, r3, lsl #19
 330 0156 8B44     		add	fp, fp, r1
 331              	.LVL17:
 332              		.loc 1 103 0
 333 0158 0A99     		ldr	r1, [sp, #40]
 334 015a 59B3     		cbz	r1, .L14
 335              		.loc 1 104 0
 336 015c D8F80010 		ldr	r1, [r8]
 337              	.LVL18:
 338 0160 521A     		subs	r2, r2, r1
 339              	.LVL19:
 340 0162 63EBE173 		sbc	r3, r3, r1, asr #31
 341              		.loc 1 105 0
 342 0166 9209     		lsrs	r2, r2, #6
ARM GAS  /tmp/ccN8ISTd.s 			page 7


 343 0168 42EA8362 		orr	r2, r2, r3, lsl #26
 344 016c 1144     		add	r1, r1, r2
 345 016e C8F80010 		str	r1, [r8]
 346              	.L15:
 347              		.loc 1 111 0 discriminator 2
 348 0172 039A     		ldr	r2, [sp, #12]
 349              		.loc 1 110 0 discriminator 2
 350 0174 4B10     		asrs	r3, r1, #1
 351 0176 0CFB03F3 		mul	r3, ip, r3
 352              	.LBE50:
 353              		.loc 1 77 0 discriminator 2
 354 017a 0CF1010C 		add	ip, ip, #1
 355              	.LVL20:
 356              	.LBB51:
 357              		.loc 1 111 0 discriminator 2
 358 017e 02EB2142 		add	r2, r2, r1, asr #16
 359              	.LBE51:
 360              		.loc 1 77 0 discriminator 2
 361 0182 BCF1030F 		cmp	ip, #3
 362              	.LBB52:
 363              		.loc 1 111 0 discriminator 2
 364 0186 0392     		str	r2, [sp, #12]
 365              		.loc 1 110 0 discriminator 2
 366 0188 09EB2349 		add	r9, r9, r3, asr #16
 367              	.LVL21:
 368 018c 0EF1080E 		add	lr, lr, #8
 369 0190 08F10408 		add	r8, r8, #4
 370 0194 0AF1080A 		add	r10, r10, #8
 371              	.LBE52:
 372              		.loc 1 77 0 discriminator 2
 373 0198 1AD0     		beq	.L16
 374 019a 0DAB     		add	r3, sp, #52
 375              	.LBB53:
 376              		.loc 1 82 0
 377 019c DEF83C60 		ldr	r6, [lr, #60]
 378 01a0 53F82C50 		ldr	r5, [r3, ip, lsl #2]
 379              	.LVL22:
 380 01a4 DEF83830 		ldr	r3, [lr, #56]
 381 01a8 B342     		cmp	r3, r6
 382              		.loc 1 79 0
 383 01aa 05FB05F5 		mul	r5, r5, r5
 384              	.LVL23:
 385              		.loc 1 82 0
 386 01ae 92DB     		blt	.L29
 387              	.LVL24:
 388              	.L7:
 389              		.loc 1 87 0
 390 01b0 9FDC     		bgt	.L26
 391 01b2 9BE7     		b	.L9
 392              	.L14:
 393              		.loc 1 107 0
 394 01b4 DDE90423 		ldrd	r2, [sp, #16]
 395 01b8 D8F80010 		ldr	r1, [r8]
 396              	.LVL25:
 397 01bc 521A     		subs	r2, r2, r1
 398              	.LVL26:
 399 01be 63EBE173 		sbc	r3, r3, r1, asr #31
ARM GAS  /tmp/ccN8ISTd.s 			page 8


 400              		.loc 1 108 0
 401 01c2 920A     		lsrs	r2, r2, #10
 402 01c4 42EA8352 		orr	r2, r2, r3, lsl #22
 403 01c8 1144     		add	r1, r1, r2
 404              	.LVL27:
 405 01ca C8F80010 		str	r1, [r8]
 406              	.LVL28:
 407 01ce D0E7     		b	.L15
 408              	.LVL29:
 409              	.L16:
 410              	.LBE53:
 411              	.LBE56:
 412              	.LBB57:
 413              	.LBB58:
 414              		.file 3 "./mutable_instruments/stmlib/utils/dsp.h"
 415              		.loc 3 101 0
 416 01d0 384A     		ldr	r2, .L31
 417              	.LVL30:
 418 01d2 039F     		ldr	r7, [sp, #12]
 419 01d4 8BF3100B 		usat	fp, #16, fp
 420              	.LVL31:
 421              	.LBE58:
 422              	.LBE57:
 423              		.loc 1 120 0
 424 01d8 4FEA0B4B 		lsl	fp, fp, #16
 425              	.LVL32:
 426              	.LBB60:
 427              	.LBB59:
 428              		.loc 3 101 0
 429 01dc 4FEA1B63 		lsr	r3, fp, #24
 430              		.loc 3 102 0
 431 01e0 911C     		adds	r1, r2, #2
 432              		.loc 3 101 0
 433 01e2 32F81320 		ldrh	r2, [r2, r3, lsl #1]
 434              	.LVL33:
 435              		.loc 3 102 0
 436 01e6 31F81310 		ldrh	r1, [r1, r3, lsl #1]
 437              		.loc 3 103 0
 438 01ea 4FEA1B2B 		lsr	fp, fp, #8
 439              	.LVL34:
 440 01ee 1FFA8BF3 		uxth	r3, fp
 441              	.LVL35:
 442 01f2 C2EB010B 		rsb	fp, r2, r1
 443 01f6 03FB0BFB 		mul	fp, r3, fp
 444 01fa 02EB1B4B 		add	fp, r2, fp, lsr #16
 445              	.LBE59:
 446              	.LBE60:
 447              		.loc 1 120 0
 448 01fe CBF34E0B 		ubfx	fp, fp, #1, #15
 449              	.LVL36:
 450              		.loc 1 121 0
 451 0202 4B46     		mov	r3, r9
 452 0204 3A46     		mov	r2, r7
 453              	.LVL37:
 454              		.loc 1 122 0
 455 0206 BBF5805F 		cmp	fp, #4096
 456              		.loc 1 121 0
ARM GAS  /tmp/ccN8ISTd.s 			page 9


 457 020a 4FEAC333 		lsl	r3, r3, #15
 458 020e 02F10102 		add	r2, r2, #1
 459 0212 93FBF2F3 		sdiv	r3, r3, r2
 460              	.LVL38:
 461              		.loc 1 122 0
 462 0216 07DC     		bgt	.L27
 463              		.loc 1 124 0
 464 0218 BBF5006F 		cmp	fp, #2048
 465 021c 46DD     		ble	.L30
 466              		.loc 1 125 0
 467 021e D4F8BC20 		ldr	r2, [r4, #188]
 468 0222 9B1A     		subs	r3, r3, r2
 469              	.LVL39:
 470 0224 02EB2323 		add	r3, r2, r3, asr #8
 471              	.L27:
 472 0228 C4F8BC30 		str	r3, [r4, #188]
 473              	.L19:
 474              		.loc 1 129 0
 475 022c D4F8C410 		ldr	r1, [r4, #196]
 476 0230 D4F8C020 		ldr	r2, [r4, #192]
 477 0234 01FB03F3 		mul	r3, r1, r3
 478 0238 02EBE333 		add	r3, r2, r3, asr #15
 479              		.loc 1 128 0
 480 023c CBEBCB3B 		rsb	fp, fp, fp, lsl #15
 481              	.LVL40:
 482              		.loc 1 129 0
 483 0240 1A9A     		ldr	r2, [sp, #104]
 484              		.loc 1 128 0
 485 0242 0B99     		ldr	r1, [sp, #44]
 486 0244 4FEAEB3B 		asr	fp, fp, #15
 487              		.loc 1 129 0
 488 0248 9BB2     		uxth	r3, r3
 489              		.loc 1 128 0
 490 024a A1F800B0 		strh	fp, [r1]	@ movhi
 491              		.loc 1 129 0
 492 024e 1380     		strh	r3, [r2]	@ movhi
 493              		.loc 1 131 0
 494 0250 0A9A     		ldr	r2, [sp, #40]
 495 0252 22B1     		cbz	r2, .L6
 496              		.loc 1 132 0
 497 0254 0B80     		strh	r3, [r1]	@ movhi
 498              		.loc 1 133 0
 499 0256 1A9B     		ldr	r3, [sp, #104]
 500 0258 4FF6FF72 		movw	r2, #65535
 501 025c 1A80     		strh	r2, [r3]	@ movhi
 502              	.L6:
 503              	.LBE63:
 504              		.loc 1 135 0
 505 025e 11B0     		add	sp, sp, #68
 506              		.cfi_remember_state
 507              		.cfi_def_cfa_offset 36
 508              		@ sp needed
 509 0260 BDE8F08F 		pop	{r4, r5, r6, r7, r8, r9, r10, fp, pc}
 510              	.LVL41:
 511              	.L12:
 512              		.cfi_restore_state
 513              	.LBB64:
ARM GAS  /tmp/ccN8ISTd.s 			page 10


 514              	.LBB61:
 515              	.LBB54:
 516              		.loc 1 98 0
 517 0264 DEF88410 		ldr	r1, [lr, #132]
 518 0268 DEF88000 		ldr	r0, [lr, #128]
 519 026c 06FB01F1 		mul	r1, r6, r1
 520 0270 A0FB0623 		umull	r2, r3, r0, r6
 521 0274 00FB0711 		mla	r1, r0, r7, r1
 522 0278 0B44     		add	r3, r3, r1
 523 027a D10F     		lsrs	r1, r2, #31
 524 027c 41EA4301 		orr	r1, r1, r3, lsl #1
 525 0280 DB17     		asrs	r3, r3, #31
 526 0282 0993     		str	r3, [sp, #36]
 527 0284 0891     		str	r1, [sp, #32]
 528 0286 DDE90623 		ldrd	r2, [sp, #24]
 529 028a DDE90801 		ldrd	r0, [sp, #32]
 530 028e 1218     		adds	r2, r2, r0
 531 0290 4B41     		adcs	r3, r3, r1
 532 0292 CEE92623 		strd	r2, [lr, #152]
 533 0296 5BE7     		b	.L13
 534              	.L11:
 535              		.loc 1 88 0
 536 0298 3246     		mov	r2, r6
 537 029a F317     		asrs	r3, r6, #31
 538 029c CDE90423 		strd	r2, [sp, #16]
 539 02a0 CAE90023 		strd	r2, [r10]
 540 02a4 29E7     		b	.L10
 541              	.LVL42:
 542              	.L28:
 543              		.loc 1 84 0
 544 02a6 CAE90001 		strd	r0, [r10]
 545 02aa 1FE7     		b	.L9
 546              	.LVL43:
 547              	.L30:
 548 02ac D4F8BC30 		ldr	r3, [r4, #188]
 549              	.LVL44:
 550 02b0 BCE7     		b	.L19
 551              	.L32:
 552 02b2 00BF     		.align	2
 553              	.L31:
 554 02b4 00000000 		.word	_ZN7streams15lut_square_rootE
 555              	.LBE54:
 556              	.LBE61:
 557              	.LBE64:
 558              		.cfi_endproc
 559              	.LFE35:
 560              		.fnend
 561              		.size	_ZN7streams8Follower7ProcessEssPtS1_, .-_ZN7streams8Follower7ProcessEssPtS1_
 562              	.Letext0:
 563              		.file 4 "/home/sbcu/Dropbox/pcb-layouts/axo-on-discovery-board/axoloti/platform_linux/arm-none-eab
 564              		.file 5 "/home/sbcu/Dropbox/pcb-layouts/axo-on-discovery-board/axoloti/platform_linux/arm-none-eab
 565              		.file 6 "./mutable_instruments/stmlib/stmlib.h"
 566              		.file 7 "./mutable_instruments/streams/meta_parameters.h"
 567              		.file 8 "./mutable_instruments/streams/follower.h"
 568              		.file 9 "./mutable_instruments/streams/resources.h"
 569              		.file 10 "./mutable_instruments/streams/gain.h"
 570              		.section	.debug_info,"",%progbits
ARM GAS  /tmp/ccN8ISTd.s 			page 11


 571              	.Ldebug_info0:
 572 0000 660B0000 		.4byte	0xb66
 573 0004 0400     		.2byte	0x4
 574 0006 00000000 		.4byte	.Ldebug_abbrev0
 575 000a 04       		.byte	0x4
 576 000b 01       		.uleb128 0x1
 577 000c 7D030000 		.4byte	.LASF125
 578 0010 04       		.byte	0x4
 579 0011 90080000 		.4byte	.LASF126
 580 0015 09050000 		.4byte	.LASF127
 581 0019 00000000 		.4byte	.Ltext0
 582 001d B8020000 		.4byte	.Letext0-.Ltext0
 583 0021 00000000 		.4byte	.Ldebug_line0
 584 0025 02       		.uleb128 0x2
 585 0026 08       		.byte	0x8
 586 0027 07       		.byte	0x7
 587 0028 89000000 		.4byte	.LASF0
 588 002c 03       		.uleb128 0x3
 589 002d 04       		.byte	0x4
 590 002e 05       		.byte	0x5
 591 002f 696E7400 		.ascii	"int\000"
 592 0033 02       		.uleb128 0x2
 593 0034 01       		.byte	0x1
 594 0035 06       		.byte	0x6
 595 0036 19010000 		.4byte	.LASF1
 596 003a 04       		.uleb128 0x4
 597 003b 54000000 		.4byte	.LASF3
 598 003f 04       		.byte	0x4
 599 0040 1D       		.byte	0x1d
 600 0041 45000000 		.4byte	0x45
 601 0045 02       		.uleb128 0x2
 602 0046 01       		.byte	0x1
 603 0047 08       		.byte	0x8
 604 0048 7E050000 		.4byte	.LASF2
 605 004c 04       		.uleb128 0x4
 606 004d 32020000 		.4byte	.LASF4
 607 0051 04       		.byte	0x4
 608 0052 29       		.byte	0x29
 609 0053 57000000 		.4byte	0x57
 610 0057 02       		.uleb128 0x2
 611 0058 02       		.byte	0x2
 612 0059 05       		.byte	0x5
 613 005a AA050000 		.4byte	.LASF5
 614 005e 04       		.uleb128 0x4
 615 005f AE060000 		.4byte	.LASF6
 616 0063 04       		.byte	0x4
 617 0064 2B       		.byte	0x2b
 618 0065 69000000 		.4byte	0x69
 619 0069 02       		.uleb128 0x2
 620 006a 02       		.byte	0x2
 621 006b 07       		.byte	0x7
 622 006c B7020000 		.4byte	.LASF7
 623 0070 04       		.uleb128 0x4
 624 0071 DE060000 		.4byte	.LASF8
 625 0075 04       		.byte	0x4
 626 0076 3F       		.byte	0x3f
 627 0077 7B000000 		.4byte	0x7b
ARM GAS  /tmp/ccN8ISTd.s 			page 12


 628 007b 02       		.uleb128 0x2
 629 007c 04       		.byte	0x4
 630 007d 05       		.byte	0x5
 631 007e 45010000 		.4byte	.LASF9
 632 0082 04       		.uleb128 0x4
 633 0083 13020000 		.4byte	.LASF10
 634 0087 04       		.byte	0x4
 635 0088 41       		.byte	0x41
 636 0089 8D000000 		.4byte	0x8d
 637 008d 02       		.uleb128 0x2
 638 008e 04       		.byte	0x4
 639 008f 07       		.byte	0x7
 640 0090 85020000 		.4byte	.LASF11
 641 0094 04       		.uleb128 0x4
 642 0095 C5000000 		.4byte	.LASF12
 643 0099 04       		.byte	0x4
 644 009a 59       		.byte	0x59
 645 009b 9F000000 		.4byte	0x9f
 646 009f 02       		.uleb128 0x2
 647 00a0 08       		.byte	0x8
 648 00a1 05       		.byte	0x5
 649 00a2 0B010000 		.4byte	.LASF13
 650 00a6 02       		.uleb128 0x2
 651 00a7 04       		.byte	0x4
 652 00a8 07       		.byte	0x7
 653 00a9 71020000 		.4byte	.LASF14
 654 00ad 04       		.uleb128 0x4
 655 00ae B6070000 		.4byte	.LASF15
 656 00b2 05       		.byte	0x5
 657 00b3 14       		.byte	0x14
 658 00b4 3A000000 		.4byte	0x3a
 659 00b8 04       		.uleb128 0x4
 660 00b9 FC000000 		.4byte	.LASF16
 661 00bd 05       		.byte	0x5
 662 00be 19       		.byte	0x19
 663 00bf 4C000000 		.4byte	0x4c
 664 00c3 04       		.uleb128 0x4
 665 00c4 B2010000 		.4byte	.LASF17
 666 00c8 05       		.byte	0x5
 667 00c9 1A       		.byte	0x1a
 668 00ca 5E000000 		.4byte	0x5e
 669 00ce 04       		.uleb128 0x4
 670 00cf 76050000 		.4byte	.LASF18
 671 00d3 05       		.byte	0x5
 672 00d4 1F       		.byte	0x1f
 673 00d5 70000000 		.4byte	0x70
 674 00d9 04       		.uleb128 0x4
 675 00da 46060000 		.4byte	.LASF19
 676 00de 05       		.byte	0x5
 677 00df 20       		.byte	0x20
 678 00e0 82000000 		.4byte	0x82
 679 00e4 04       		.uleb128 0x4
 680 00e5 62080000 		.4byte	.LASF20
 681 00e9 05       		.byte	0x5
 682 00ea 25       		.byte	0x25
 683 00eb 94000000 		.4byte	0x94
 684 00ef 05       		.uleb128 0x5
ARM GAS  /tmp/ccN8ISTd.s 			page 13


 685 00f0 25010000 		.4byte	.LASF128
 686 00f4 06       		.byte	0x6
 687 00f5 3C       		.byte	0x3c
 688 00f6 06       		.uleb128 0x6
 689 00f7 CA020000 		.4byte	.LASF22
 690 00fb 06       		.byte	0x6
 691 00fc 5D       		.byte	0x5d
 692 00fd 18010000 		.4byte	0x118
 693 0101 07       		.uleb128 0x7
 694 0102 BB010000 		.4byte	.LASF129
 695 0106 03       		.byte	0x3
 696 0107 64       		.byte	0x64
 697 0108 C3000000 		.4byte	0xc3
 698 010c 08       		.uleb128 0x8
 699 010d 8B070000 		.4byte	0x78b
 700 0111 08       		.uleb128 0x8
 701 0112 D9000000 		.4byte	0xd9
 702 0116 00       		.byte	0
 703 0117 00       		.byte	0
 704 0118 02       		.uleb128 0x2
 705 0119 04       		.byte	0x4
 706 011a 07       		.byte	0x7
 707 011b 74030000 		.4byte	.LASF21
 708 011f 06       		.uleb128 0x6
 709 0120 00000000 		.4byte	.LASF23
 710 0124 07       		.byte	0x7
 711 0125 22       		.byte	0x22
 712 0126 A2060000 		.4byte	0x6a2
 713 012a 09       		.uleb128 0x9
 714 012b 53766600 		.ascii	"Svf\000"
 715 012f 1C       		.byte	0x1c
 716 0130 02       		.byte	0x2
 717 0131 24       		.byte	0x24
 718 0132 D5020000 		.4byte	0x2d5
 719 0136 0A       		.uleb128 0xa
 720 0137 D7010000 		.4byte	.LASF24
 721 013b 02       		.byte	0x2
 722 013c 3B       		.byte	0x3b
 723 013d A2060000 		.4byte	0x6a2
 724 0141 00       		.byte	0
 725 0142 0A       		.uleb128 0xa
 726 0143 D6040000 		.4byte	.LASF25
 727 0147 02       		.byte	0x2
 728 0148 3D       		.byte	0x3d
 729 0149 B8000000 		.4byte	0xb8
 730 014d 02       		.byte	0x2
 731 014e 0A       		.uleb128 0xa
 732 014f B0000000 		.4byte	.LASF26
 733 0153 02       		.byte	0x2
 734 0154 3E       		.byte	0x3e
 735 0155 B8000000 		.4byte	0xb8
 736 0159 04       		.byte	0x4
 737 015a 0B       		.uleb128 0xb
 738 015b 665F00   		.ascii	"f_\000"
 739 015e 02       		.byte	0x2
 740 015f 40       		.byte	0x40
 741 0160 CE000000 		.4byte	0xce
ARM GAS  /tmp/ccN8ISTd.s 			page 14


 742 0164 08       		.byte	0x8
 743 0165 0A       		.uleb128 0xa
 744 0166 28070000 		.4byte	.LASF27
 745 016a 02       		.byte	0x2
 746 016b 41       		.byte	0x41
 747 016c CE000000 		.4byte	0xce
 748 0170 0C       		.byte	0xc
 749 0171 0B       		.uleb128 0xb
 750 0172 6C705F00 		.ascii	"lp_\000"
 751 0176 02       		.byte	0x2
 752 0177 43       		.byte	0x43
 753 0178 CE000000 		.4byte	0xce
 754 017c 10       		.byte	0x10
 755 017d 0B       		.uleb128 0xb
 756 017e 62705F00 		.ascii	"bp_\000"
 757 0182 02       		.byte	0x2
 758 0183 44       		.byte	0x44
 759 0184 CE000000 		.4byte	0xce
 760 0188 14       		.byte	0x14
 761 0189 0B       		.uleb128 0xb
 762 018a 68705F00 		.ascii	"hp_\000"
 763 018e 02       		.byte	0x2
 764 018f 45       		.byte	0x45
 765 0190 CE000000 		.4byte	0xce
 766 0194 18       		.byte	0x18
 767 0195 0C       		.uleb128 0xc
 768 0196 53766600 		.ascii	"Svf\000"
 769 019a 02       		.byte	0x2
 770 019b 26       		.byte	0x26
 771 019c A9060000 		.4byte	0x6a9
 772 01a0 01       		.byte	0x1
 773 01a1 A9010000 		.4byte	0x1a9
 774 01a5 AF010000 		.4byte	0x1af
 775 01a9 0D       		.uleb128 0xd
 776 01aa A9060000 		.4byte	0x6a9
 777 01ae 00       		.byte	0
 778 01af 0E       		.uleb128 0xe
 779 01b0 5E050000 		.4byte	.LASF28
 780 01b4 02       		.byte	0x2
 781 01b5 27       		.byte	0x27
 782 01b6 AF060000 		.4byte	0x6af
 783 01ba 01       		.byte	0x1
 784 01bb C3010000 		.4byte	0x1c3
 785 01bf CE010000 		.4byte	0x1ce
 786 01c3 0D       		.uleb128 0xd
 787 01c4 A9060000 		.4byte	0x6a9
 788 01c8 0D       		.uleb128 0xd
 789 01c9 2C000000 		.4byte	0x2c
 790 01cd 00       		.byte	0
 791 01ce 0F       		.uleb128 0xf
 792 01cf E1040000 		.4byte	.LASF29
 793 01d3 02       		.byte	0x2
 794 01d4 29       		.byte	0x29
 795 01d5 82040000 		.4byte	.LASF31
 796 01d9 01       		.byte	0x1
 797 01da E2010000 		.4byte	0x1e2
 798 01de E8010000 		.4byte	0x1e8
ARM GAS  /tmp/ccN8ISTd.s 			page 15


 799 01e2 0D       		.uleb128 0xd
 800 01e3 A9060000 		.4byte	0x6a9
 801 01e7 00       		.byte	0
 802 01e8 0F       		.uleb128 0xf
 803 01e9 63020000 		.4byte	.LASF30
 804 01ed 02       		.byte	0x2
 805 01ee 2B       		.byte	0x2b
 806 01ef 4E010000 		.4byte	.LASF32
 807 01f3 01       		.byte	0x1
 808 01f4 FC010000 		.4byte	0x1fc
 809 01f8 07020000 		.4byte	0x207
 810 01fc 0D       		.uleb128 0xd
 811 01fd A9060000 		.4byte	0x6a9
 812 0201 08       		.uleb128 0x8
 813 0202 B8000000 		.4byte	0xb8
 814 0206 00       		.byte	0
 815 0207 0F       		.uleb128 0xf
 816 0208 EA020000 		.4byte	.LASF33
 817 020c 02       		.byte	0x2
 818 020d 30       		.byte	0x30
 819 020e BD050000 		.4byte	.LASF34
 820 0212 01       		.byte	0x1
 821 0213 1B020000 		.4byte	0x21b
 822 0217 26020000 		.4byte	0x226
 823 021b 0D       		.uleb128 0xd
 824 021c A9060000 		.4byte	0x6a9
 825 0220 08       		.uleb128 0x8
 826 0221 B8000000 		.4byte	0xb8
 827 0225 00       		.byte	0
 828 0226 0F       		.uleb128 0xf
 829 0227 F7010000 		.4byte	.LASF35
 830 022b 02       		.byte	0x2
 831 022c 35       		.byte	0x35
 832 022d 48080000 		.4byte	.LASF36
 833 0231 01       		.byte	0x1
 834 0232 3A020000 		.4byte	0x23a
 835 0236 45020000 		.4byte	0x245
 836 023a 0D       		.uleb128 0xd
 837 023b A9060000 		.4byte	0x6a9
 838 023f 08       		.uleb128 0x8
 839 0240 CE000000 		.4byte	0xce
 840 0244 00       		.byte	0
 841 0245 10       		.uleb128 0x10
 842 0246 6C7000   		.ascii	"lp\000"
 843 0249 02       		.byte	0x2
 844 024a 36       		.byte	0x36
 845 024b CF000000 		.4byte	.LASF37
 846 024f CE000000 		.4byte	0xce
 847 0253 01       		.byte	0x1
 848 0254 5C020000 		.4byte	0x25c
 849 0258 62020000 		.4byte	0x262
 850 025c 0D       		.uleb128 0xd
 851 025d B1060000 		.4byte	0x6b1
 852 0261 00       		.byte	0
 853 0262 10       		.uleb128 0x10
 854 0263 627000   		.ascii	"bp\000"
 855 0266 02       		.byte	0x2
ARM GAS  /tmp/ccN8ISTd.s 			page 16


 856 0267 37       		.byte	0x37
 857 0268 6F010000 		.4byte	.LASF38
 858 026c CE000000 		.4byte	0xce
 859 0270 01       		.byte	0x1
 860 0271 79020000 		.4byte	0x279
 861 0275 7F020000 		.4byte	0x27f
 862 0279 0D       		.uleb128 0xd
 863 027a B1060000 		.4byte	0x6b1
 864 027e 00       		.byte	0
 865 027f 10       		.uleb128 0x10
 866 0280 687000   		.ascii	"hp\000"
 867 0283 02       		.byte	0x2
 868 0284 38       		.byte	0x38
 869 0285 AE040000 		.4byte	.LASF39
 870 0289 CE000000 		.4byte	0xce
 871 028d 01       		.byte	0x1
 872 028e 96020000 		.4byte	0x296
 873 0292 9C020000 		.4byte	0x29c
 874 0296 0D       		.uleb128 0xd
 875 0297 B1060000 		.4byte	0x6b1
 876 029b 00       		.byte	0
 877 029c 11       		.uleb128 0x11
 878 029d 53766600 		.ascii	"Svf\000"
 879 02a1 02       		.byte	0x2
 880 02a2 47       		.byte	0x47
 881 02a3 A9060000 		.4byte	0x6a9
 882 02a7 AF020000 		.4byte	0x2af
 883 02ab BA020000 		.4byte	0x2ba
 884 02af 0D       		.uleb128 0xd
 885 02b0 A9060000 		.4byte	0x6a9
 886 02b4 08       		.uleb128 0x8
 887 02b5 B7060000 		.4byte	0x6b7
 888 02b9 00       		.byte	0
 889 02ba 12       		.uleb128 0x12
 890 02bb 8C050000 		.4byte	.LASF61
 891 02bf 02       		.byte	0x2
 892 02c0 47       		.byte	0x47
 893 02c1 6C060000 		.4byte	.LASF62
 894 02c5 C9020000 		.4byte	0x2c9
 895 02c9 0D       		.uleb128 0xd
 896 02ca A9060000 		.4byte	0x6a9
 897 02ce 08       		.uleb128 0x8
 898 02cf B7060000 		.4byte	0x6b7
 899 02d3 00       		.byte	0
 900 02d4 00       		.byte	0
 901 02d5 13       		.uleb128 0x13
 902 02d6 2A010000 		.4byte	0x12a
 903 02da 14       		.uleb128 0x14
 904 02db B4050000 		.4byte	.LASF40
 905 02df D8       		.byte	0xd8
 906 02e0 08       		.byte	0x8
 907 02e1 2A       		.byte	0x2a
 908 02e2 7D040000 		.4byte	0x47d
 909 02e6 0A       		.uleb128 0xa
 910 02e7 68050000 		.4byte	.LASF41
 911 02eb 08       		.byte	0x8
 912 02ec 68       		.byte	0x68
ARM GAS  /tmp/ccN8ISTd.s 			page 17


 913 02ed 2A010000 		.4byte	0x12a
 914 02f1 00       		.byte	0
 915 02f2 0A       		.uleb128 0xa
 916 02f3 A6020000 		.4byte	.LASF42
 917 02f7 08       		.byte	0x8
 918 02f8 69       		.byte	0x69
 919 02f9 2A010000 		.4byte	0x12a
 920 02fd 1C       		.byte	0x1c
 921 02fe 0A       		.uleb128 0xa
 922 02ff 2D000000 		.4byte	.LASF43
 923 0303 08       		.byte	0x8
 924 0304 6A       		.byte	0x6a
 925 0305 BD060000 		.4byte	0x6bd
 926 0309 38       		.byte	0x38
 927 030a 0A       		.uleb128 0xa
 928 030b 85010000 		.4byte	.LASF44
 929 030f 08       		.byte	0x8
 930 0310 6B       		.byte	0x6b
 931 0311 D3060000 		.4byte	0x6d3
 932 0315 50       		.byte	0x50
 933 0316 0A       		.uleb128 0xa
 934 0317 FF010000 		.4byte	.LASF45
 935 031b 08       		.byte	0x8
 936 031c 6D       		.byte	0x6d
 937 031d D3060000 		.4byte	0x6d3
 938 0321 68       		.byte	0x68
 939 0322 0A       		.uleb128 0xa
 940 0323 88070000 		.4byte	.LASF46
 941 0327 08       		.byte	0x8
 942 0328 6E       		.byte	0x6e
 943 0329 D3060000 		.4byte	0x6d3
 944 032d 80       		.byte	0x80
 945 032e 0A       		.uleb128 0xa
 946 032f 25020000 		.4byte	.LASF47
 947 0333 08       		.byte	0x8
 948 0334 6F       		.byte	0x6f
 949 0335 D3060000 		.4byte	0x6d3
 950 0339 98       		.byte	0x98
 951 033a 0A       		.uleb128 0xa
 952 033b D1020000 		.4byte	.LASF48
 953 033f 08       		.byte	0x8
 954 0340 71       		.byte	0x71
 955 0341 E3060000 		.4byte	0x6e3
 956 0345 B0       		.byte	0xb0
 957 0346 0A       		.uleb128 0xa
 958 0347 F5040000 		.4byte	.LASF49
 959 034b 08       		.byte	0x8
 960 034c 73       		.byte	0x73
 961 034d CE000000 		.4byte	0xce
 962 0351 BC       		.byte	0xbc
 963 0352 0A       		.uleb128 0xa
 964 0353 1B000000 		.4byte	.LASF50
 965 0357 08       		.byte	0x8
 966 0358 75       		.byte	0x75
 967 0359 CE000000 		.4byte	0xce
 968 035d C0       		.byte	0xc0
 969 035e 0A       		.uleb128 0xa
ARM GAS  /tmp/ccN8ISTd.s 			page 18


 970 035f 76070000 		.4byte	.LASF51
 971 0363 08       		.byte	0x8
 972 0364 76       		.byte	0x76
 973 0365 CE000000 		.4byte	0xce
 974 0369 C4       		.byte	0xc4
 975 036a 0A       		.uleb128 0xa
 976 036b 2D060000 		.4byte	.LASF52
 977 036f 08       		.byte	0x8
 978 0370 77       		.byte	0x77
 979 0371 CE000000 		.4byte	0xce
 980 0375 C8       		.byte	0xc8
 981 0376 0A       		.uleb128 0xa
 982 0377 4B030000 		.4byte	.LASF53
 983 037b 08       		.byte	0x8
 984 037c 78       		.byte	0x78
 985 037d CE000000 		.4byte	0xce
 986 0381 CC       		.byte	0xcc
 987 0382 0A       		.uleb128 0xa
 988 0383 7E020000 		.4byte	.LASF54
 989 0387 08       		.byte	0x8
 990 0388 7A       		.byte	0x7a
 991 0389 CE000000 		.4byte	0xce
 992 038d D0       		.byte	0xd0
 993 038e 0A       		.uleb128 0xa
 994 038f A9070000 		.4byte	.LASF55
 995 0393 08       		.byte	0x8
 996 0394 7C       		.byte	0x7c
 997 0395 A2060000 		.4byte	0x6a2
 998 0399 D4       		.byte	0xd4
 999 039a 0E       		.uleb128 0xe
 1000 039b B4050000 		.4byte	.LASF40
 1001 039f 08       		.byte	0x8
 1002 03a0 2C       		.byte	0x2c
 1003 03a1 F3060000 		.4byte	0x6f3
 1004 03a5 01       		.byte	0x1
 1005 03a6 AE030000 		.4byte	0x3ae
 1006 03aa B4030000 		.4byte	0x3b4
 1007 03ae 0D       		.uleb128 0xd
 1008 03af F3060000 		.4byte	0x6f3
 1009 03b3 00       		.byte	0
 1010 03b4 0E       		.uleb128 0xe
 1011 03b5 FF040000 		.4byte	.LASF56
 1012 03b9 08       		.byte	0x8
 1013 03ba 2D       		.byte	0x2d
 1014 03bb AF060000 		.4byte	0x6af
 1015 03bf 01       		.byte	0x1
 1016 03c0 C8030000 		.4byte	0x3c8
 1017 03c4 D3030000 		.4byte	0x3d3
 1018 03c8 0D       		.uleb128 0xd
 1019 03c9 F3060000 		.4byte	0x6f3
 1020 03cd 0D       		.uleb128 0xd
 1021 03ce 2C000000 		.4byte	0x2c
 1022 03d2 00       		.byte	0
 1023 03d3 0F       		.uleb128 0xf
 1024 03d4 E1040000 		.4byte	.LASF29
 1025 03d8 08       		.byte	0x8
 1026 03d9 2F       		.byte	0x2f
ARM GAS  /tmp/ccN8ISTd.s 			page 19


 1027 03da 74080000 		.4byte	.LASF57
 1028 03de 01       		.byte	0x1
 1029 03df E7030000 		.4byte	0x3e7
 1030 03e3 ED030000 		.4byte	0x3ed
 1031 03e7 0D       		.uleb128 0xd
 1032 03e8 F3060000 		.4byte	0x6f3
 1033 03ec 00       		.byte	0
 1034 03ed 0F       		.uleb128 0xf
 1035 03ee F7010000 		.4byte	.LASF35
 1036 03f2 08       		.byte	0x8
 1037 03f3 30       		.byte	0x30
 1038 03f4 B9060000 		.4byte	.LASF58
 1039 03f8 01       		.byte	0x1
 1040 03f9 01040000 		.4byte	0x401
 1041 03fd 1B040000 		.4byte	0x41b
 1042 0401 0D       		.uleb128 0xd
 1043 0402 F3060000 		.4byte	0x6f3
 1044 0406 08       		.uleb128 0x8
 1045 0407 B8000000 		.4byte	0xb8
 1046 040b 08       		.uleb128 0x8
 1047 040c B8000000 		.4byte	0xb8
 1048 0410 08       		.uleb128 0x8
 1049 0411 F9060000 		.4byte	0x6f9
 1050 0415 08       		.uleb128 0x8
 1051 0416 F9060000 		.4byte	0x6f9
 1052 041a 00       		.byte	0
 1053 041b 0F       		.uleb128 0xf
 1054 041c BB000000 		.4byte	.LASF59
 1055 0420 08       		.byte	0x8
 1056 0421 36       		.byte	0x36
 1057 0422 D1070000 		.4byte	.LASF60
 1058 0426 01       		.byte	0x1
 1059 0427 2F040000 		.4byte	0x42f
 1060 042b 44040000 		.4byte	0x444
 1061 042f 0D       		.uleb128 0xd
 1062 0430 F3060000 		.4byte	0x6f3
 1063 0434 08       		.uleb128 0x8
 1064 0435 A2060000 		.4byte	0x6a2
 1065 0439 08       		.uleb128 0x8
 1066 043a FF060000 		.4byte	0x6ff
 1067 043e 08       		.uleb128 0x8
 1068 043f FF060000 		.4byte	0x6ff
 1069 0443 00       		.byte	0
 1070 0444 15       		.uleb128 0x15
 1071 0445 B4050000 		.4byte	.LASF40
 1072 0449 08       		.byte	0x8
 1073 044a 7E       		.byte	0x7e
 1074 044b F3060000 		.4byte	0x6f3
 1075 044f 57040000 		.4byte	0x457
 1076 0453 62040000 		.4byte	0x462
 1077 0457 0D       		.uleb128 0xd
 1078 0458 F3060000 		.4byte	0x6f3
 1079 045c 08       		.uleb128 0x8
 1080 045d 05070000 		.4byte	0x705
 1081 0461 00       		.byte	0
 1082 0462 12       		.uleb128 0x12
 1083 0463 8C050000 		.4byte	.LASF61
ARM GAS  /tmp/ccN8ISTd.s 			page 20


 1084 0467 08       		.byte	0x8
 1085 0468 7E       		.byte	0x7e
 1086 0469 4F060000 		.4byte	.LASF63
 1087 046d 71040000 		.4byte	0x471
 1088 0471 0D       		.uleb128 0xd
 1089 0472 F3060000 		.4byte	0x6f3
 1090 0476 08       		.uleb128 0x8
 1091 0477 05070000 		.4byte	0x705
 1092 047b 00       		.byte	0
 1093 047c 00       		.byte	0
 1094 047d 13       		.uleb128 0x13
 1095 047e DA020000 		.4byte	0x2da
 1096 0482 16       		.uleb128 0x16
 1097 0483 01       		.byte	0x1
 1098 0484 26       		.byte	0x26
 1099 0485 F6000000 		.4byte	0xf6
 1100 0489 17       		.uleb128 0x17
 1101 048a F7070000 		.4byte	.LASF64
 1102 048e 09       		.byte	0x9
 1103 048f 3A       		.byte	0x3a
 1104 0490 43070000 		.4byte	.LASF66
 1105 0494 3F0A0000 		.4byte	0xa3f
 1106 0498 17       		.uleb128 0x17
 1107 0499 3C020000 		.4byte	.LASF65
 1108 049d 09       		.byte	0x9
 1109 049e 41       		.byte	0x41
 1110 049f E4050000 		.4byte	.LASF67
 1111 04a3 4A0A0000 		.4byte	0xa4a
 1112 04a7 18       		.uleb128 0x18
 1113 04a8 35000000 		.4byte	.LASF68
 1114 04ac 09       		.byte	0x9
 1115 04ad 45       		.byte	0x45
 1116 04ae 550A0000 		.4byte	0xa55
 1117 04b2 00       		.byte	0
 1118 04b3 18       		.uleb128 0x18
 1119 04b4 C4080000 		.4byte	.LASF69
 1120 04b8 09       		.byte	0x9
 1121 04b9 46       		.byte	0x46
 1122 04ba 550A0000 		.4byte	0xa55
 1123 04be 00       		.byte	0
 1124 04bf 19       		.uleb128 0x19
 1125 04c0 84060000 		.4byte	.LASF70
 1126 04c4 09       		.byte	0x9
 1127 04c5 47       		.byte	0x47
 1128 04c6 550A0000 		.4byte	0xa55
 1129 04ca 0104     		.2byte	0x401
 1130 04cc 18       		.uleb128 0x18
 1131 04cd 04010000 		.4byte	.LASF71
 1132 04d1 09       		.byte	0x9
 1133 04d2 48       		.byte	0x48
 1134 04d3 550A0000 		.4byte	0xa55
 1135 04d7 01       		.byte	0x1
 1136 04d8 19       		.uleb128 0x19
 1137 04d9 99040000 		.4byte	.LASF72
 1138 04dd 09       		.byte	0x9
 1139 04de 49       		.byte	0x49
 1140 04df 550A0000 		.4byte	0xa55
ARM GAS  /tmp/ccN8ISTd.s 			page 21


 1141 04e3 0101     		.2byte	0x101
 1142 04e5 18       		.uleb128 0x18
 1143 04e6 E8060000 		.4byte	.LASF73
 1144 04ea 09       		.byte	0x9
 1145 04eb 4A       		.byte	0x4a
 1146 04ec 550A0000 		.4byte	0xa55
 1147 04f0 00       		.byte	0
 1148 04f1 19       		.uleb128 0x19
 1149 04f2 6E000000 		.4byte	.LASF74
 1150 04f6 09       		.byte	0x9
 1151 04f7 4B       		.byte	0x4b
 1152 04f8 550A0000 		.4byte	0xa55
 1153 04fc 0101     		.2byte	0x101
 1154 04fe 18       		.uleb128 0x18
 1155 04ff CA010000 		.4byte	.LASF75
 1156 0503 09       		.byte	0x9
 1157 0504 4C       		.byte	0x4c
 1158 0505 550A0000 		.4byte	0xa55
 1159 0509 01       		.byte	0x1
 1160 050a 19       		.uleb128 0x19
 1161 050b C4040000 		.4byte	.LASF76
 1162 050f 09       		.byte	0x9
 1163 0510 4D       		.byte	0x4d
 1164 0511 550A0000 		.4byte	0xa55
 1165 0515 0101     		.2byte	0x101
 1166 0517 18       		.uleb128 0x18
 1167 0518 2A010000 		.4byte	.LASF77
 1168 051c 09       		.byte	0x9
 1169 051d 4E       		.byte	0x4e
 1170 051e 550A0000 		.4byte	0xa55
 1171 0522 02       		.byte	0x2
 1172 0523 19       		.uleb128 0x19
 1173 0524 61070000 		.4byte	.LASF78
 1174 0528 09       		.byte	0x9
 1175 0529 4F       		.byte	0x4f
 1176 052a 550A0000 		.4byte	0xa55
 1177 052e 0101     		.2byte	0x101
 1178 0530 18       		.uleb128 0x18
 1179 0531 06060000 		.4byte	.LASF79
 1180 0535 09       		.byte	0x9
 1181 0536 50       		.byte	0x50
 1182 0537 550A0000 		.4byte	0xa55
 1183 053b 03       		.byte	0x3
 1184 053c 19       		.uleb128 0x19
 1185 053d 2E070000 		.4byte	.LASF80
 1186 0541 09       		.byte	0x9
 1187 0542 51       		.byte	0x51
 1188 0543 550A0000 		.4byte	0xa55
 1189 0547 0101     		.2byte	0x101
 1190 0549 18       		.uleb128 0x18
 1191 054a 16060000 		.4byte	.LASF81
 1192 054e 09       		.byte	0x9
 1193 054f 52       		.byte	0x52
 1194 0550 550A0000 		.4byte	0xa55
 1195 0554 04       		.byte	0x4
 1196 0555 19       		.uleb128 0x19
 1197 0556 19030000 		.4byte	.LASF82
ARM GAS  /tmp/ccN8ISTd.s 			page 22


 1198 055a 09       		.byte	0x9
 1199 055b 53       		.byte	0x53
 1200 055c 550A0000 		.4byte	0xa55
 1201 0560 0101     		.2byte	0x101
 1202 0562 18       		.uleb128 0x18
 1203 0563 EF000000 		.4byte	.LASF83
 1204 0567 09       		.byte	0x9
 1205 0568 54       		.byte	0x54
 1206 0569 550A0000 		.4byte	0xa55
 1207 056d 05       		.byte	0x5
 1208 056e 19       		.uleb128 0x19
 1209 056f 07080000 		.4byte	.LASF84
 1210 0573 09       		.byte	0x9
 1211 0574 55       		.byte	0x55
 1212 0575 550A0000 		.4byte	0xa55
 1213 0579 0101     		.2byte	0x101
 1214 057b 18       		.uleb128 0x18
 1215 057c A4010000 		.4byte	.LASF85
 1216 0580 09       		.byte	0x9
 1217 0581 56       		.byte	0x56
 1218 0582 550A0000 		.4byte	0xa55
 1219 0586 06       		.byte	0x6
 1220 0587 19       		.uleb128 0x19
 1221 0588 50020000 		.4byte	.LASF86
 1222 058c 09       		.byte	0x9
 1223 058d 57       		.byte	0x57
 1224 058e 550A0000 		.4byte	0xa55
 1225 0592 0101     		.2byte	0x101
 1226 0594 18       		.uleb128 0x18
 1227 0595 3F000000 		.4byte	.LASF87
 1228 0599 09       		.byte	0x9
 1229 059a 58       		.byte	0x58
 1230 059b 550A0000 		.4byte	0xa55
 1231 059f 07       		.byte	0x7
 1232 05a0 19       		.uleb128 0x19
 1233 05a1 2E080000 		.4byte	.LASF88
 1234 05a5 09       		.byte	0x9
 1235 05a6 59       		.byte	0x59
 1236 05a7 550A0000 		.4byte	0xa55
 1237 05ab 0101     		.2byte	0x101
 1238 05ad 18       		.uleb128 0x18
 1239 05ae 50050000 		.4byte	.LASF89
 1240 05b2 09       		.byte	0x9
 1241 05b3 5A       		.byte	0x5a
 1242 05b4 550A0000 		.4byte	0xa55
 1243 05b8 08       		.byte	0x8
 1244 05b9 19       		.uleb128 0x19
 1245 05ba 08000000 		.4byte	.LASF90
 1246 05be 09       		.byte	0x9
 1247 05bf 5B       		.byte	0x5b
 1248 05c0 550A0000 		.4byte	0xa55
 1249 05c4 0101     		.2byte	0x101
 1250 05c6 18       		.uleb128 0x18
 1251 05c7 BE070000 		.4byte	.LASF91
 1252 05cb 09       		.byte	0x9
 1253 05cc 5C       		.byte	0x5c
 1254 05cd 550A0000 		.4byte	0xa55
ARM GAS  /tmp/ccN8ISTd.s 			page 23


 1255 05d1 00       		.byte	0
 1256 05d2 19       		.uleb128 0x19
 1257 05d3 96060000 		.4byte	.LASF92
 1258 05d7 09       		.byte	0x9
 1259 05d8 5D       		.byte	0x5d
 1260 05d9 550A0000 		.4byte	0xa55
 1261 05dd 0101     		.2byte	0x101
 1262 05df 18       		.uleb128 0x18
 1263 05e0 14070000 		.4byte	.LASF93
 1264 05e4 09       		.byte	0x9
 1265 05e5 5E       		.byte	0x5e
 1266 05e6 550A0000 		.4byte	0xa55
 1267 05ea 01       		.byte	0x1
 1268 05eb 19       		.uleb128 0x19
 1269 05ec DE010000 		.4byte	.LASF94
 1270 05f0 09       		.byte	0x9
 1271 05f1 5F       		.byte	0x5f
 1272 05f2 550A0000 		.4byte	0xa55
 1273 05f6 8002     		.2byte	0x280
 1274 05f8 18       		.uleb128 0x18
 1275 05f9 BB080000 		.4byte	.LASF95
 1276 05fd 09       		.byte	0x9
 1277 05fe 60       		.byte	0x60
 1278 05ff 550A0000 		.4byte	0xa55
 1279 0603 02       		.byte	0x2
 1280 0604 19       		.uleb128 0x19
 1281 0605 9B070000 		.4byte	.LASF96
 1282 0609 09       		.byte	0x9
 1283 060a 61       		.byte	0x61
 1284 060b 550A0000 		.4byte	0xa55
 1285 060f 0101     		.2byte	0x101
 1286 0611 18       		.uleb128 0x18
 1287 0612 A1050000 		.4byte	.LASF97
 1288 0616 09       		.byte	0x9
 1289 0617 62       		.byte	0x62
 1290 0618 550A0000 		.4byte	0xa55
 1291 061c 03       		.byte	0x3
 1292 061d 19       		.uleb128 0x19
 1293 061e F8020000 		.4byte	.LASF98
 1294 0622 09       		.byte	0x9
 1295 0623 63       		.byte	0x63
 1296 0624 550A0000 		.4byte	0xa55
 1297 0628 0101     		.2byte	0x101
 1298 062a 18       		.uleb128 0x18
 1299 062b 5E000000 		.4byte	.LASF99
 1300 062f 09       		.byte	0x9
 1301 0630 64       		.byte	0x64
 1302 0631 550A0000 		.4byte	0xa55
 1303 0635 04       		.byte	0x4
 1304 0636 19       		.uleb128 0x19
 1305 0637 19080000 		.4byte	.LASF100
 1306 063b 09       		.byte	0x9
 1307 063c 65       		.byte	0x65
 1308 063d 550A0000 		.4byte	0xa55
 1309 0641 0101     		.2byte	0x101
 1310 0643 18       		.uleb128 0x18
 1311 0644 6A030000 		.4byte	.LASF101
ARM GAS  /tmp/ccN8ISTd.s 			page 24


 1312 0648 08       		.byte	0x8
 1313 0649 28       		.byte	0x28
 1314 064a 91070000 		.4byte	0x791
 1315 064e 03       		.byte	0x3
 1316 064f 19       		.uleb128 0x19
 1317 0650 97020000 		.4byte	.LASF102
 1318 0654 0A       		.byte	0xa
 1319 0655 27       		.byte	0x27
 1320 0656 360B0000 		.4byte	0xb36
 1321 065a 8F02     		.2byte	0x28f
 1322 065c 19       		.uleb128 0x19
 1323 065d 96050000 		.4byte	.LASF103
 1324 0661 0A       		.byte	0xa
 1325 0662 2A       		.byte	0x2a
 1326 0663 360B0000 		.4byte	0xb36
 1327 0667 FF7F     		.2byte	0x7fff
 1328 0669 19       		.uleb128 0x19
 1329 066a A0000000 		.4byte	.LASF104
 1330 066e 0A       		.byte	0xa
 1331 066f 2D       		.byte	0x2d
 1332 0670 360B0000 		.4byte	0xb36
 1333 0674 8080     		.2byte	0x8080
 1334 0676 1A       		.uleb128 0x1a
 1335 0677 DB020000 		.4byte	.LASF105
 1336 067b 0A       		.byte	0xa
 1337 067c 30       		.byte	0x30
 1338 067d 360B0000 		.4byte	0xb36
 1339 0681 00000100 		.4byte	0x10000
 1340 0685 1A       		.uleb128 0x1a
 1341 0686 F7060000 		.4byte	.LASF106
 1342 068a 0A       		.byte	0xa
 1343 068b 32       		.byte	0x32
 1344 068c 360B0000 		.4byte	0xb36
 1345 0690 55550300 		.4byte	0x35555
 1346 0694 19       		.uleb128 0x19
 1347 0695 32030000 		.4byte	.LASF107
 1348 0699 0A       		.byte	0xa
 1349 069a 34       		.byte	0x34
 1350 069b 91070000 		.4byte	0x791
 1351 069f 5535     		.2byte	0x3555
 1352 06a1 00       		.byte	0
 1353 06a2 02       		.uleb128 0x2
 1354 06a3 01       		.byte	0x1
 1355 06a4 02       		.byte	0x2
 1356 06a5 2D030000 		.4byte	.LASF108
 1357 06a9 1B       		.uleb128 0x1b
 1358 06aa 04       		.byte	0x4
 1359 06ab 2A010000 		.4byte	0x12a
 1360 06af 1C       		.uleb128 0x1c
 1361 06b0 04       		.byte	0x4
 1362 06b1 1B       		.uleb128 0x1b
 1363 06b2 04       		.byte	0x4
 1364 06b3 D5020000 		.4byte	0x2d5
 1365 06b7 1D       		.uleb128 0x1d
 1366 06b8 04       		.byte	0x4
 1367 06b9 D5020000 		.4byte	0x2d5
 1368 06bd 1E       		.uleb128 0x1e
ARM GAS  /tmp/ccN8ISTd.s 			page 25


 1369 06be 7B000000 		.4byte	0x7b
 1370 06c2 D3060000 		.4byte	0x6d3
 1371 06c6 1F       		.uleb128 0x1f
 1372 06c7 18010000 		.4byte	0x118
 1373 06cb 02       		.byte	0x2
 1374 06cc 1F       		.uleb128 0x1f
 1375 06cd 18010000 		.4byte	0x118
 1376 06d1 01       		.byte	0x1
 1377 06d2 00       		.byte	0
 1378 06d3 1E       		.uleb128 0x1e
 1379 06d4 9F000000 		.4byte	0x9f
 1380 06d8 E3060000 		.4byte	0x6e3
 1381 06dc 1F       		.uleb128 0x1f
 1382 06dd 18010000 		.4byte	0x118
 1383 06e1 02       		.byte	0x2
 1384 06e2 00       		.byte	0
 1385 06e3 1E       		.uleb128 0x1e
 1386 06e4 7B000000 		.4byte	0x7b
 1387 06e8 F3060000 		.4byte	0x6f3
 1388 06ec 1F       		.uleb128 0x1f
 1389 06ed 18010000 		.4byte	0x118
 1390 06f1 02       		.byte	0x2
 1391 06f2 00       		.byte	0
 1392 06f3 1B       		.uleb128 0x1b
 1393 06f4 04       		.byte	0x4
 1394 06f5 DA020000 		.4byte	0x2da
 1395 06f9 1B       		.uleb128 0x1b
 1396 06fa 04       		.byte	0x4
 1397 06fb C3000000 		.4byte	0xc3
 1398 06ff 1B       		.uleb128 0x1b
 1399 0700 04       		.byte	0x4
 1400 0701 CE000000 		.4byte	0xce
 1401 0705 1D       		.uleb128 0x1d
 1402 0706 04       		.byte	0x4
 1403 0707 7D040000 		.4byte	0x47d
 1404 070b 20       		.uleb128 0x20
 1405 070c E8010000 		.4byte	0x1e8
 1406 0710 03       		.byte	0x3
 1407 0711 19070000 		.4byte	0x719
 1408 0715 2E070000 		.4byte	0x72e
 1409 0719 21       		.uleb128 0x21
 1410 071a 3A010000 		.4byte	.LASF109
 1411 071e 2E070000 		.4byte	0x72e
 1412 0722 22       		.uleb128 0x22
 1413 0723 E5000000 		.4byte	.LASF110
 1414 0727 02       		.byte	0x2
 1415 0728 2B       		.byte	0x2b
 1416 0729 B8000000 		.4byte	0xb8
 1417 072d 00       		.byte	0
 1418 072e 13       		.uleb128 0x13
 1419 072f A9060000 		.4byte	0x6a9
 1420 0733 20       		.uleb128 0x20
 1421 0734 07020000 		.4byte	0x207
 1422 0738 03       		.byte	0x3
 1423 0739 41070000 		.4byte	0x741
 1424 073d 56070000 		.4byte	0x756
 1425 0741 21       		.uleb128 0x21
ARM GAS  /tmp/ccN8ISTd.s 			page 26


 1426 0742 3A010000 		.4byte	.LASF109
 1427 0746 2E070000 		.4byte	0x72e
 1428 074a 22       		.uleb128 0x22
 1429 074b 6A080000 		.4byte	.LASF111
 1430 074f 02       		.byte	0x2
 1431 0750 30       		.byte	0x30
 1432 0751 B8000000 		.4byte	0xb8
 1433 0755 00       		.byte	0
 1434 0756 20       		.uleb128 0x20
 1435 0757 45020000 		.4byte	0x245
 1436 075b 03       		.byte	0x3
 1437 075c 64070000 		.4byte	0x764
 1438 0760 6E070000 		.4byte	0x76e
 1439 0764 21       		.uleb128 0x21
 1440 0765 3A010000 		.4byte	.LASF109
 1441 0769 6E070000 		.4byte	0x76e
 1442 076d 00       		.byte	0
 1443 076e 13       		.uleb128 0x13
 1444 076f B1060000 		.4byte	0x6b1
 1445 0773 20       		.uleb128 0x20
 1446 0774 7F020000 		.4byte	0x27f
 1447 0778 03       		.byte	0x3
 1448 0779 81070000 		.4byte	0x781
 1449 077d 8B070000 		.4byte	0x78b
 1450 0781 21       		.uleb128 0x21
 1451 0782 3A010000 		.4byte	.LASF109
 1452 0786 6E070000 		.4byte	0x76e
 1453 078a 00       		.byte	0
 1454 078b 1B       		.uleb128 0x1b
 1455 078c 04       		.byte	0x4
 1456 078d 91070000 		.4byte	0x791
 1457 0791 13       		.uleb128 0x13
 1458 0792 C3000000 		.4byte	0xc3
 1459 0796 23       		.uleb128 0x23
 1460 0797 01010000 		.4byte	0x101
 1461 079b 03       		.byte	0x3
 1462 079c CB070000 		.4byte	0x7cb
 1463 07a0 22       		.uleb128 0x22
 1464 07a1 DE050000 		.4byte	.LASF112
 1465 07a5 03       		.byte	0x3
 1466 07a6 64       		.byte	0x64
 1467 07a7 8B070000 		.4byte	0x78b
 1468 07ab 22       		.uleb128 0x22
 1469 07ac 3F010000 		.4byte	.LASF113
 1470 07b0 03       		.byte	0x3
 1471 07b1 64       		.byte	0x64
 1472 07b2 D9000000 		.4byte	0xd9
 1473 07b6 24       		.uleb128 0x24
 1474 07b7 25       		.uleb128 0x25
 1475 07b8 6100     		.ascii	"a\000"
 1476 07ba 03       		.byte	0x3
 1477 07bb 65       		.byte	0x65
 1478 07bc D9000000 		.4byte	0xd9
 1479 07c0 25       		.uleb128 0x25
 1480 07c1 6200     		.ascii	"b\000"
 1481 07c3 03       		.byte	0x3
 1482 07c4 66       		.byte	0x66
ARM GAS  /tmp/ccN8ISTd.s 			page 27


 1483 07c5 D9000000 		.4byte	0xd9
 1484 07c9 00       		.byte	0
 1485 07ca 00       		.byte	0
 1486 07cb 26       		.uleb128 0x26
 1487 07cc D3030000 		.4byte	0x3d3
 1488 07d0 01       		.byte	0x1
 1489 07d1 28       		.byte	0x28
 1490 07d2 00000000 		.4byte	.LFB34
 1491 07d6 5A000000 		.4byte	.LFE34-.LFB34
 1492 07da 01       		.uleb128 0x1
 1493 07db 9C       		.byte	0x9c
 1494 07dc E4070000 		.4byte	0x7e4
 1495 07e0 E3080000 		.4byte	0x8e3
 1496 07e4 27       		.uleb128 0x27
 1497 07e5 3A010000 		.4byte	.LASF109
 1498 07e9 E3080000 		.4byte	0x8e3
 1499 07ed 00000000 		.4byte	.LLST0
 1500 07f1 28       		.uleb128 0x28
 1501 07f2 33070000 		.4byte	0x733
 1502 07f6 08000000 		.4byte	.LBB27
 1503 07fa 00000000 		.4byte	.Ldebug_ranges0+0
 1504 07fe 01       		.byte	0x1
 1505 07ff 2B       		.byte	0x2b
 1506 0800 1D080000 		.4byte	0x81d
 1507 0804 29       		.uleb128 0x29
 1508 0805 41070000 		.4byte	0x741
 1509 0809 1E000000 		.4byte	.LLST1
 1510 080d 29       		.uleb128 0x29
 1511 080e 41070000 		.4byte	0x741
 1512 0812 1E000000 		.4byte	.LLST1
 1513 0816 2A       		.uleb128 0x2a
 1514 0817 4A070000 		.4byte	0x74a
 1515 081b 00       		.byte	0
 1516 081c 00       		.byte	0
 1517 081d 28       		.uleb128 0x28
 1518 081e 0B070000 		.4byte	0x70b
 1519 0822 0C000000 		.4byte	.LBB31
 1520 0826 20000000 		.4byte	.Ldebug_ranges0+0x20
 1521 082a 01       		.byte	0x1
 1522 082b 2A       		.byte	0x2a
 1523 082c 4A080000 		.4byte	0x84a
 1524 0830 29       		.uleb128 0x29
 1525 0831 19070000 		.4byte	0x719
 1526 0835 3E000000 		.4byte	.LLST3
 1527 0839 29       		.uleb128 0x29
 1528 083a 19070000 		.4byte	0x719
 1529 083e 3E000000 		.4byte	.LLST3
 1530 0842 2B       		.uleb128 0x2b
 1531 0843 22070000 		.4byte	0x722
 1532 0847 8016     		.2byte	0x1680
 1533 0849 00       		.byte	0
 1534 084a 28       		.uleb128 0x28
 1535 084b 0B070000 		.4byte	0x70b
 1536 084f 1E000000 		.4byte	.LBB37
 1537 0853 38000000 		.4byte	.Ldebug_ranges0+0x38
 1538 0857 01       		.byte	0x1
 1539 0858 2D       		.byte	0x2d
ARM GAS  /tmp/ccN8ISTd.s 			page 28


 1540 0859 77080000 		.4byte	0x877
 1541 085d 2C       		.uleb128 0x2c
 1542 085e 19070000 		.4byte	0x719
 1543 0862 03       		.uleb128 0x3
 1544 0863 74       		.byte	0x74
 1545 0864 1C       		.sleb128 28
 1546 0865 9F       		.byte	0x9f
 1547 0866 2C       		.uleb128 0x2c
 1548 0867 19070000 		.4byte	0x719
 1549 086b 03       		.uleb128 0x3
 1550 086c 74       		.byte	0x74
 1551 086d 1C       		.sleb128 28
 1552 086e 9F       		.byte	0x9f
 1553 086f 2B       		.uleb128 0x2b
 1554 0870 22070000 		.4byte	0x722
 1555 0874 002B     		.2byte	0x2b00
 1556 0876 00       		.byte	0
 1557 0877 28       		.uleb128 0x28
 1558 0878 33070000 		.4byte	0x733
 1559 087c 22000000 		.4byte	.LBB40
 1560 0880 50000000 		.4byte	.Ldebug_ranges0+0x50
 1561 0884 01       		.byte	0x1
 1562 0885 2E       		.byte	0x2e
 1563 0886 A3080000 		.4byte	0x8a3
 1564 088a 2C       		.uleb128 0x2c
 1565 088b 41070000 		.4byte	0x741
 1566 088f 03       		.uleb128 0x3
 1567 0890 74       		.byte	0x74
 1568 0891 1C       		.sleb128 28
 1569 0892 9F       		.byte	0x9f
 1570 0893 2C       		.uleb128 0x2c
 1571 0894 41070000 		.4byte	0x741
 1572 0898 03       		.uleb128 0x3
 1573 0899 74       		.byte	0x74
 1574 089a 1C       		.sleb128 28
 1575 089b 9F       		.byte	0x9f
 1576 089c 2A       		.uleb128 0x2a
 1577 089d 4A070000 		.4byte	0x74a
 1578 08a1 00       		.byte	0
 1579 08a2 00       		.byte	0
 1580 08a3 2D       		.uleb128 0x2d
 1581 08a4 2A000000 		.4byte	.LBB45
 1582 08a8 2A000000 		.4byte	.LBE45-.LBB45
 1583 08ac BE080000 		.4byte	0x8be
 1584 08b0 2E       		.uleb128 0x2e
 1585 08b1 6900     		.ascii	"i\000"
 1586 08b3 01       		.byte	0x1
 1587 08b4 30       		.byte	0x30
 1588 08b5 AD000000 		.4byte	0xad
 1589 08b9 5E000000 		.4byte	.LLST5
 1590 08bd 00       		.byte	0
 1591 08be 2F       		.uleb128 0x2f
 1592 08bf 08000000 		.4byte	.LVL1
 1593 08c3 CE010000 		.4byte	0x1ce
 1594 08c7 D2080000 		.4byte	0x8d2
 1595 08cb 30       		.uleb128 0x30
 1596 08cc 01       		.uleb128 0x1
ARM GAS  /tmp/ccN8ISTd.s 			page 29


 1597 08cd 50       		.byte	0x50
 1598 08ce 02       		.uleb128 0x2
 1599 08cf 74       		.byte	0x74
 1600 08d0 00       		.sleb128 0
 1601 08d1 00       		.byte	0
 1602 08d2 31       		.uleb128 0x31
 1603 08d3 1E000000 		.4byte	.LVL3
 1604 08d7 CE010000 		.4byte	0x1ce
 1605 08db 30       		.uleb128 0x30
 1606 08dc 01       		.uleb128 0x1
 1607 08dd 50       		.byte	0x50
 1608 08de 02       		.uleb128 0x2
 1609 08df 74       		.byte	0x74
 1610 08e0 1C       		.sleb128 28
 1611 08e1 00       		.byte	0
 1612 08e2 00       		.byte	0
 1613 08e3 13       		.uleb128 0x13
 1614 08e4 F3060000 		.4byte	0x6f3
 1615 08e8 26       		.uleb128 0x26
 1616 08e9 ED030000 		.4byte	0x3ed
 1617 08ed 01       		.byte	0x1
 1618 08ee 39       		.byte	0x39
 1619 08ef 60000000 		.4byte	.LFB35
 1620 08f3 58020000 		.4byte	.LFE35-.LFB35
 1621 08f7 01       		.uleb128 0x1
 1622 08f8 9C       		.byte	0x9c
 1623 08f9 01090000 		.4byte	0x901
 1624 08fd 3F0A0000 		.4byte	0xa3f
 1625 0901 27       		.uleb128 0x27
 1626 0902 3A010000 		.4byte	.LASF109
 1627 0906 E3080000 		.4byte	0x8e3
 1628 090a 72000000 		.4byte	.LLST6
 1629 090e 32       		.uleb128 0x32
 1630 090f 64030000 		.4byte	.LASF114
 1631 0913 01       		.byte	0x1
 1632 0914 3A       		.byte	0x3a
 1633 0915 B8000000 		.4byte	0xb8
 1634 0919 90000000 		.4byte	.LLST7
 1635 091d 32       		.uleb128 0x32
 1636 091e 82000000 		.4byte	.LASF115
 1637 0922 01       		.byte	0x1
 1638 0923 3B       		.byte	0x3b
 1639 0924 B8000000 		.4byte	0xb8
 1640 0928 B1000000 		.4byte	.LLST8
 1641 092c 32       		.uleb128 0x32
 1642 092d 63050000 		.4byte	.LASF116
 1643 0931 01       		.byte	0x1
 1644 0932 3C       		.byte	0x3c
 1645 0933 F9060000 		.4byte	0x6f9
 1646 0937 D2000000 		.4byte	.LLST9
 1647 093b 32       		.uleb128 0x32
 1648 093c E5000000 		.4byte	.LASF110
 1649 0940 01       		.byte	0x1
 1650 0941 3D       		.byte	0x3d
 1651 0942 F9060000 		.4byte	0x6f9
 1652 0946 F1000000 		.4byte	.LLST10
 1653 094a 33       		.uleb128 0x33
ARM GAS  /tmp/ccN8ISTd.s 			page 30


 1654 094b 68000000 		.4byte	.Ldebug_ranges0+0x68
 1655 094f 34       		.uleb128 0x34
 1656 0950 25060000 		.4byte	.LASF117
 1657 0954 01       		.byte	0x1
 1658 0955 45       		.byte	0x45
 1659 0956 E3060000 		.4byte	0x6e3
 1660 095a 02       		.uleb128 0x2
 1661 095b 91       		.byte	0x91
 1662 095c 4C       		.sleb128 -52
 1663 095d 35       		.uleb128 0x35
 1664 095e EC040000 		.4byte	.LASF118
 1665 0962 01       		.byte	0x1
 1666 0963 4A       		.byte	0x4a
 1667 0964 CE000000 		.4byte	0xce
 1668 0968 11010000 		.4byte	.LLST11
 1669 096c 35       		.uleb128 0x35
 1670 096d 06030000 		.4byte	.LASF119
 1671 0971 01       		.byte	0x1
 1672 0972 4B       		.byte	0x4b
 1673 0973 CE000000 		.4byte	0xce
 1674 0977 74010000 		.4byte	.LLST12
 1675 097b 35       		.uleb128 0x35
 1676 097c 8F010000 		.4byte	.LASF120
 1677 0980 01       		.byte	0x1
 1678 0981 4C       		.byte	0x4c
 1679 0982 CE000000 		.4byte	0xce
 1680 0986 93010000 		.4byte	.LLST13
 1681 098a 35       		.uleb128 0x35
 1682 098b 0B070000 		.4byte	.LASF121
 1683 098f 01       		.byte	0x1
 1684 0990 78       		.byte	0x78
 1685 0991 C3000000 		.4byte	0xc3
 1686 0995 EF010000 		.4byte	.LLST14
 1687 0999 35       		.uleb128 0x35
 1688 099a A5040000 		.4byte	.LASF122
 1689 099e 01       		.byte	0x1
 1690 099f 79       		.byte	0x79
 1691 09a0 CE000000 		.4byte	0xce
 1692 09a4 0D020000 		.4byte	.LLST15
 1693 09a8 36       		.uleb128 0x36
 1694 09a9 90000000 		.4byte	.Ldebug_ranges0+0x90
 1695 09ad E3090000 		.4byte	0x9e3
 1696 09b1 2E       		.uleb128 0x2e
 1697 09b2 6900     		.ascii	"i\000"
 1698 09b4 01       		.byte	0x1
 1699 09b5 4D       		.byte	0x4d
 1700 09b6 CE000000 		.4byte	0xce
 1701 09ba 4F020000 		.4byte	.LLST16
 1702 09be 33       		.uleb128 0x33
 1703 09bf B8000000 		.4byte	.Ldebug_ranges0+0xb8
 1704 09c3 35       		.uleb128 0x35
 1705 09c4 1E020000 		.4byte	.LASF123
 1706 09c8 01       		.byte	0x1
 1707 09c9 4E       		.byte	0x4e
 1708 09ca CE000000 		.4byte	0xce
 1709 09ce 91020000 		.4byte	.LLST17
 1710 09d2 35       		.uleb128 0x35
ARM GAS  /tmp/ccN8ISTd.s 			page 31


 1711 09d3 E6040000 		.4byte	.LASF124
 1712 09d7 01       		.byte	0x1
 1713 09d8 5E       		.byte	0x5e
 1714 09d9 E4000000 		.4byte	0xe4
 1715 09dd BA020000 		.4byte	.LLST18
 1716 09e1 00       		.byte	0
 1717 09e2 00       		.byte	0
 1718 09e3 28       		.uleb128 0x28
 1719 09e4 96070000 		.4byte	0x796
 1720 09e8 D0010000 		.4byte	.LBB57
 1721 09ec F8000000 		.4byte	.Ldebug_ranges0+0xf8
 1722 09f0 01       		.byte	0x1
 1723 09f1 78       		.byte	0x78
 1724 09f2 190A0000 		.4byte	0xa19
 1725 09f6 29       		.uleb128 0x29
 1726 09f7 AB070000 		.4byte	0x7ab
 1727 09fb 1D030000 		.4byte	.LLST19
 1728 09ff 37       		.uleb128 0x37
 1729 0a00 A0070000 		.4byte	0x7a0
 1730 0a04 33       		.uleb128 0x33
 1731 0a05 F8000000 		.4byte	.Ldebug_ranges0+0xf8
 1732 0a09 38       		.uleb128 0x38
 1733 0a0a B7070000 		.4byte	0x7b7
 1734 0a0e 30030000 		.4byte	.LLST20
 1735 0a12 39       		.uleb128 0x39
 1736 0a13 C0070000 		.4byte	0x7c0
 1737 0a17 00       		.byte	0
 1738 0a18 00       		.byte	0
 1739 0a19 2F       		.uleb128 0x2f
 1740 0a1a 94000000 		.4byte	.LVL9
 1741 0a1e 26020000 		.4byte	0x226
 1742 0a22 2D0A0000 		.4byte	0xa2d
 1743 0a26 30       		.uleb128 0x30
 1744 0a27 01       		.uleb128 0x1
 1745 0a28 50       		.byte	0x50
 1746 0a29 02       		.uleb128 0x2
 1747 0a2a 74       		.byte	0x74
 1748 0a2b 00       		.sleb128 0
 1749 0a2c 00       		.byte	0
 1750 0a2d 31       		.uleb128 0x31
 1751 0a2e 9E000000 		.4byte	.LVL10
 1752 0a32 26020000 		.4byte	0x226
 1753 0a36 30       		.uleb128 0x30
 1754 0a37 01       		.uleb128 0x1
 1755 0a38 50       		.byte	0x50
 1756 0a39 02       		.uleb128 0x2
 1757 0a3a 74       		.byte	0x74
 1758 0a3b 1C       		.sleb128 28
 1759 0a3c 00       		.byte	0
 1760 0a3d 00       		.byte	0
 1761 0a3e 00       		.byte	0
 1762 0a3f 1E       		.uleb128 0x1e
 1763 0a40 69000000 		.4byte	0x69
 1764 0a44 4A0A0000 		.4byte	0xa4a
 1765 0a48 3A       		.uleb128 0x3a
 1766 0a49 00       		.byte	0
 1767 0a4a 1E       		.uleb128 0x1e
ARM GAS  /tmp/ccN8ISTd.s 			page 32


 1768 0a4b 8D000000 		.4byte	0x8d
 1769 0a4f 550A0000 		.4byte	0xa55
 1770 0a53 3A       		.uleb128 0x3a
 1771 0a54 00       		.byte	0
 1772 0a55 13       		.uleb128 0x13
 1773 0a56 2C000000 		.4byte	0x2c
 1774 0a5a 3B       		.uleb128 0x3b
 1775 0a5b A7040000 		.4byte	0x4a7
 1776 0a5f 00       		.byte	0
 1777 0a60 3B       		.uleb128 0x3b
 1778 0a61 B3040000 		.4byte	0x4b3
 1779 0a65 00       		.byte	0
 1780 0a66 3C       		.uleb128 0x3c
 1781 0a67 BF040000 		.4byte	0x4bf
 1782 0a6b 0104     		.2byte	0x401
 1783 0a6d 3B       		.uleb128 0x3b
 1784 0a6e CC040000 		.4byte	0x4cc
 1785 0a72 01       		.byte	0x1
 1786 0a73 3C       		.uleb128 0x3c
 1787 0a74 D8040000 		.4byte	0x4d8
 1788 0a78 0101     		.2byte	0x101
 1789 0a7a 3B       		.uleb128 0x3b
 1790 0a7b E5040000 		.4byte	0x4e5
 1791 0a7f 00       		.byte	0
 1792 0a80 3C       		.uleb128 0x3c
 1793 0a81 F1040000 		.4byte	0x4f1
 1794 0a85 0101     		.2byte	0x101
 1795 0a87 3B       		.uleb128 0x3b
 1796 0a88 FE040000 		.4byte	0x4fe
 1797 0a8c 01       		.byte	0x1
 1798 0a8d 3C       		.uleb128 0x3c
 1799 0a8e 0A050000 		.4byte	0x50a
 1800 0a92 0101     		.2byte	0x101
 1801 0a94 3B       		.uleb128 0x3b
 1802 0a95 17050000 		.4byte	0x517
 1803 0a99 02       		.byte	0x2
 1804 0a9a 3C       		.uleb128 0x3c
 1805 0a9b 23050000 		.4byte	0x523
 1806 0a9f 0101     		.2byte	0x101
 1807 0aa1 3B       		.uleb128 0x3b
 1808 0aa2 30050000 		.4byte	0x530
 1809 0aa6 03       		.byte	0x3
 1810 0aa7 3C       		.uleb128 0x3c
 1811 0aa8 3C050000 		.4byte	0x53c
 1812 0aac 0101     		.2byte	0x101
 1813 0aae 3B       		.uleb128 0x3b
 1814 0aaf 49050000 		.4byte	0x549
 1815 0ab3 04       		.byte	0x4
 1816 0ab4 3C       		.uleb128 0x3c
 1817 0ab5 55050000 		.4byte	0x555
 1818 0ab9 0101     		.2byte	0x101
 1819 0abb 3B       		.uleb128 0x3b
 1820 0abc 62050000 		.4byte	0x562
 1821 0ac0 05       		.byte	0x5
 1822 0ac1 3C       		.uleb128 0x3c
 1823 0ac2 6E050000 		.4byte	0x56e
 1824 0ac6 0101     		.2byte	0x101
ARM GAS  /tmp/ccN8ISTd.s 			page 33


 1825 0ac8 3B       		.uleb128 0x3b
 1826 0ac9 7B050000 		.4byte	0x57b
 1827 0acd 06       		.byte	0x6
 1828 0ace 3C       		.uleb128 0x3c
 1829 0acf 87050000 		.4byte	0x587
 1830 0ad3 0101     		.2byte	0x101
 1831 0ad5 3B       		.uleb128 0x3b
 1832 0ad6 94050000 		.4byte	0x594
 1833 0ada 07       		.byte	0x7
 1834 0adb 3C       		.uleb128 0x3c
 1835 0adc A0050000 		.4byte	0x5a0
 1836 0ae0 0101     		.2byte	0x101
 1837 0ae2 3B       		.uleb128 0x3b
 1838 0ae3 AD050000 		.4byte	0x5ad
 1839 0ae7 08       		.byte	0x8
 1840 0ae8 3C       		.uleb128 0x3c
 1841 0ae9 B9050000 		.4byte	0x5b9
 1842 0aed 0101     		.2byte	0x101
 1843 0aef 3B       		.uleb128 0x3b
 1844 0af0 C6050000 		.4byte	0x5c6
 1845 0af4 00       		.byte	0
 1846 0af5 3C       		.uleb128 0x3c
 1847 0af6 D2050000 		.4byte	0x5d2
 1848 0afa 0101     		.2byte	0x101
 1849 0afc 3B       		.uleb128 0x3b
 1850 0afd DF050000 		.4byte	0x5df
 1851 0b01 01       		.byte	0x1
 1852 0b02 3C       		.uleb128 0x3c
 1853 0b03 EB050000 		.4byte	0x5eb
 1854 0b07 8002     		.2byte	0x280
 1855 0b09 3B       		.uleb128 0x3b
 1856 0b0a F8050000 		.4byte	0x5f8
 1857 0b0e 02       		.byte	0x2
 1858 0b0f 3C       		.uleb128 0x3c
 1859 0b10 04060000 		.4byte	0x604
 1860 0b14 0101     		.2byte	0x101
 1861 0b16 3B       		.uleb128 0x3b
 1862 0b17 11060000 		.4byte	0x611
 1863 0b1b 03       		.byte	0x3
 1864 0b1c 3C       		.uleb128 0x3c
 1865 0b1d 1D060000 		.4byte	0x61d
 1866 0b21 0101     		.2byte	0x101
 1867 0b23 3B       		.uleb128 0x3b
 1868 0b24 2A060000 		.4byte	0x62a
 1869 0b28 04       		.byte	0x4
 1870 0b29 3C       		.uleb128 0x3c
 1871 0b2a 36060000 		.4byte	0x636
 1872 0b2e 0101     		.2byte	0x101
 1873 0b30 3B       		.uleb128 0x3b
 1874 0b31 43060000 		.4byte	0x643
 1875 0b35 03       		.byte	0x3
 1876 0b36 13       		.uleb128 0x13
 1877 0b37 CE000000 		.4byte	0xce
 1878 0b3b 3C       		.uleb128 0x3c
 1879 0b3c 4F060000 		.4byte	0x64f
 1880 0b40 8F02     		.2byte	0x28f
 1881 0b42 3C       		.uleb128 0x3c
ARM GAS  /tmp/ccN8ISTd.s 			page 34


 1882 0b43 5C060000 		.4byte	0x65c
 1883 0b47 FF7F     		.2byte	0x7fff
 1884 0b49 3C       		.uleb128 0x3c
 1885 0b4a 69060000 		.4byte	0x669
 1886 0b4e 8080     		.2byte	0x8080
 1887 0b50 3D       		.uleb128 0x3d
 1888 0b51 76060000 		.4byte	0x676
 1889 0b55 00000100 		.4byte	0x10000
 1890 0b59 3D       		.uleb128 0x3d
 1891 0b5a 85060000 		.4byte	0x685
 1892 0b5e 55550300 		.4byte	0x35555
 1893 0b62 3C       		.uleb128 0x3c
 1894 0b63 94060000 		.4byte	0x694
 1895 0b67 5535     		.2byte	0x3555
 1896 0b69 00       		.byte	0
 1897              		.section	.debug_abbrev,"",%progbits
 1898              	.Ldebug_abbrev0:
 1899 0000 01       		.uleb128 0x1
 1900 0001 11       		.uleb128 0x11
 1901 0002 01       		.byte	0x1
 1902 0003 25       		.uleb128 0x25
 1903 0004 0E       		.uleb128 0xe
 1904 0005 13       		.uleb128 0x13
 1905 0006 0B       		.uleb128 0xb
 1906 0007 03       		.uleb128 0x3
 1907 0008 0E       		.uleb128 0xe
 1908 0009 1B       		.uleb128 0x1b
 1909 000a 0E       		.uleb128 0xe
 1910 000b 11       		.uleb128 0x11
 1911 000c 01       		.uleb128 0x1
 1912 000d 12       		.uleb128 0x12
 1913 000e 06       		.uleb128 0x6
 1914 000f 10       		.uleb128 0x10
 1915 0010 17       		.uleb128 0x17
 1916 0011 00       		.byte	0
 1917 0012 00       		.byte	0
 1918 0013 02       		.uleb128 0x2
 1919 0014 24       		.uleb128 0x24
 1920 0015 00       		.byte	0
 1921 0016 0B       		.uleb128 0xb
 1922 0017 0B       		.uleb128 0xb
 1923 0018 3E       		.uleb128 0x3e
 1924 0019 0B       		.uleb128 0xb
 1925 001a 03       		.uleb128 0x3
 1926 001b 0E       		.uleb128 0xe
 1927 001c 00       		.byte	0
 1928 001d 00       		.byte	0
 1929 001e 03       		.uleb128 0x3
 1930 001f 24       		.uleb128 0x24
 1931 0020 00       		.byte	0
 1932 0021 0B       		.uleb128 0xb
 1933 0022 0B       		.uleb128 0xb
 1934 0023 3E       		.uleb128 0x3e
 1935 0024 0B       		.uleb128 0xb
 1936 0025 03       		.uleb128 0x3
 1937 0026 08       		.uleb128 0x8
 1938 0027 00       		.byte	0
ARM GAS  /tmp/ccN8ISTd.s 			page 35


 1939 0028 00       		.byte	0
 1940 0029 04       		.uleb128 0x4
 1941 002a 16       		.uleb128 0x16
 1942 002b 00       		.byte	0
 1943 002c 03       		.uleb128 0x3
 1944 002d 0E       		.uleb128 0xe
 1945 002e 3A       		.uleb128 0x3a
 1946 002f 0B       		.uleb128 0xb
 1947 0030 3B       		.uleb128 0x3b
 1948 0031 0B       		.uleb128 0xb
 1949 0032 49       		.uleb128 0x49
 1950 0033 13       		.uleb128 0x13
 1951 0034 00       		.byte	0
 1952 0035 00       		.byte	0
 1953 0036 05       		.uleb128 0x5
 1954 0037 39       		.uleb128 0x39
 1955 0038 00       		.byte	0
 1956 0039 03       		.uleb128 0x3
 1957 003a 0E       		.uleb128 0xe
 1958 003b 3A       		.uleb128 0x3a
 1959 003c 0B       		.uleb128 0xb
 1960 003d 3B       		.uleb128 0x3b
 1961 003e 0B       		.uleb128 0xb
 1962 003f 00       		.byte	0
 1963 0040 00       		.byte	0
 1964 0041 06       		.uleb128 0x6
 1965 0042 39       		.uleb128 0x39
 1966 0043 01       		.byte	0x1
 1967 0044 03       		.uleb128 0x3
 1968 0045 0E       		.uleb128 0xe
 1969 0046 3A       		.uleb128 0x3a
 1970 0047 0B       		.uleb128 0xb
 1971 0048 3B       		.uleb128 0x3b
 1972 0049 0B       		.uleb128 0xb
 1973 004a 01       		.uleb128 0x1
 1974 004b 13       		.uleb128 0x13
 1975 004c 00       		.byte	0
 1976 004d 00       		.byte	0
 1977 004e 07       		.uleb128 0x7
 1978 004f 2E       		.uleb128 0x2e
 1979 0050 01       		.byte	0x1
 1980 0051 3F       		.uleb128 0x3f
 1981 0052 19       		.uleb128 0x19
 1982 0053 03       		.uleb128 0x3
 1983 0054 0E       		.uleb128 0xe
 1984 0055 3A       		.uleb128 0x3a
 1985 0056 0B       		.uleb128 0xb
 1986 0057 3B       		.uleb128 0x3b
 1987 0058 0B       		.uleb128 0xb
 1988 0059 49       		.uleb128 0x49
 1989 005a 13       		.uleb128 0x13
 1990 005b 3C       		.uleb128 0x3c
 1991 005c 19       		.uleb128 0x19
 1992 005d 00       		.byte	0
 1993 005e 00       		.byte	0
 1994 005f 08       		.uleb128 0x8
 1995 0060 05       		.uleb128 0x5
ARM GAS  /tmp/ccN8ISTd.s 			page 36


 1996 0061 00       		.byte	0
 1997 0062 49       		.uleb128 0x49
 1998 0063 13       		.uleb128 0x13
 1999 0064 00       		.byte	0
 2000 0065 00       		.byte	0
 2001 0066 09       		.uleb128 0x9
 2002 0067 02       		.uleb128 0x2
 2003 0068 01       		.byte	0x1
 2004 0069 03       		.uleb128 0x3
 2005 006a 08       		.uleb128 0x8
 2006 006b 0B       		.uleb128 0xb
 2007 006c 0B       		.uleb128 0xb
 2008 006d 3A       		.uleb128 0x3a
 2009 006e 0B       		.uleb128 0xb
 2010 006f 3B       		.uleb128 0x3b
 2011 0070 0B       		.uleb128 0xb
 2012 0071 01       		.uleb128 0x1
 2013 0072 13       		.uleb128 0x13
 2014 0073 00       		.byte	0
 2015 0074 00       		.byte	0
 2016 0075 0A       		.uleb128 0xa
 2017 0076 0D       		.uleb128 0xd
 2018 0077 00       		.byte	0
 2019 0078 03       		.uleb128 0x3
 2020 0079 0E       		.uleb128 0xe
 2021 007a 3A       		.uleb128 0x3a
 2022 007b 0B       		.uleb128 0xb
 2023 007c 3B       		.uleb128 0x3b
 2024 007d 0B       		.uleb128 0xb
 2025 007e 49       		.uleb128 0x49
 2026 007f 13       		.uleb128 0x13
 2027 0080 38       		.uleb128 0x38
 2028 0081 0B       		.uleb128 0xb
 2029 0082 00       		.byte	0
 2030 0083 00       		.byte	0
 2031 0084 0B       		.uleb128 0xb
 2032 0085 0D       		.uleb128 0xd
 2033 0086 00       		.byte	0
 2034 0087 03       		.uleb128 0x3
 2035 0088 08       		.uleb128 0x8
 2036 0089 3A       		.uleb128 0x3a
 2037 008a 0B       		.uleb128 0xb
 2038 008b 3B       		.uleb128 0x3b
 2039 008c 0B       		.uleb128 0xb
 2040 008d 49       		.uleb128 0x49
 2041 008e 13       		.uleb128 0x13
 2042 008f 38       		.uleb128 0x38
 2043 0090 0B       		.uleb128 0xb
 2044 0091 00       		.byte	0
 2045 0092 00       		.byte	0
 2046 0093 0C       		.uleb128 0xc
 2047 0094 2E       		.uleb128 0x2e
 2048 0095 01       		.byte	0x1
 2049 0096 3F       		.uleb128 0x3f
 2050 0097 19       		.uleb128 0x19
 2051 0098 03       		.uleb128 0x3
 2052 0099 08       		.uleb128 0x8
ARM GAS  /tmp/ccN8ISTd.s 			page 37


 2053 009a 3A       		.uleb128 0x3a
 2054 009b 0B       		.uleb128 0xb
 2055 009c 3B       		.uleb128 0x3b
 2056 009d 0B       		.uleb128 0xb
 2057 009e 49       		.uleb128 0x49
 2058 009f 13       		.uleb128 0x13
 2059 00a0 32       		.uleb128 0x32
 2060 00a1 0B       		.uleb128 0xb
 2061 00a2 3C       		.uleb128 0x3c
 2062 00a3 19       		.uleb128 0x19
 2063 00a4 64       		.uleb128 0x64
 2064 00a5 13       		.uleb128 0x13
 2065 00a6 01       		.uleb128 0x1
 2066 00a7 13       		.uleb128 0x13
 2067 00a8 00       		.byte	0
 2068 00a9 00       		.byte	0
 2069 00aa 0D       		.uleb128 0xd
 2070 00ab 05       		.uleb128 0x5
 2071 00ac 00       		.byte	0
 2072 00ad 49       		.uleb128 0x49
 2073 00ae 13       		.uleb128 0x13
 2074 00af 34       		.uleb128 0x34
 2075 00b0 19       		.uleb128 0x19
 2076 00b1 00       		.byte	0
 2077 00b2 00       		.byte	0
 2078 00b3 0E       		.uleb128 0xe
 2079 00b4 2E       		.uleb128 0x2e
 2080 00b5 01       		.byte	0x1
 2081 00b6 3F       		.uleb128 0x3f
 2082 00b7 19       		.uleb128 0x19
 2083 00b8 03       		.uleb128 0x3
 2084 00b9 0E       		.uleb128 0xe
 2085 00ba 3A       		.uleb128 0x3a
 2086 00bb 0B       		.uleb128 0xb
 2087 00bc 3B       		.uleb128 0x3b
 2088 00bd 0B       		.uleb128 0xb
 2089 00be 49       		.uleb128 0x49
 2090 00bf 13       		.uleb128 0x13
 2091 00c0 32       		.uleb128 0x32
 2092 00c1 0B       		.uleb128 0xb
 2093 00c2 3C       		.uleb128 0x3c
 2094 00c3 19       		.uleb128 0x19
 2095 00c4 64       		.uleb128 0x64
 2096 00c5 13       		.uleb128 0x13
 2097 00c6 01       		.uleb128 0x1
 2098 00c7 13       		.uleb128 0x13
 2099 00c8 00       		.byte	0
 2100 00c9 00       		.byte	0
 2101 00ca 0F       		.uleb128 0xf
 2102 00cb 2E       		.uleb128 0x2e
 2103 00cc 01       		.byte	0x1
 2104 00cd 3F       		.uleb128 0x3f
 2105 00ce 19       		.uleb128 0x19
 2106 00cf 03       		.uleb128 0x3
 2107 00d0 0E       		.uleb128 0xe
 2108 00d1 3A       		.uleb128 0x3a
 2109 00d2 0B       		.uleb128 0xb
ARM GAS  /tmp/ccN8ISTd.s 			page 38


 2110 00d3 3B       		.uleb128 0x3b
 2111 00d4 0B       		.uleb128 0xb
 2112 00d5 6E       		.uleb128 0x6e
 2113 00d6 0E       		.uleb128 0xe
 2114 00d7 32       		.uleb128 0x32
 2115 00d8 0B       		.uleb128 0xb
 2116 00d9 3C       		.uleb128 0x3c
 2117 00da 19       		.uleb128 0x19
 2118 00db 64       		.uleb128 0x64
 2119 00dc 13       		.uleb128 0x13
 2120 00dd 01       		.uleb128 0x1
 2121 00de 13       		.uleb128 0x13
 2122 00df 00       		.byte	0
 2123 00e0 00       		.byte	0
 2124 00e1 10       		.uleb128 0x10
 2125 00e2 2E       		.uleb128 0x2e
 2126 00e3 01       		.byte	0x1
 2127 00e4 3F       		.uleb128 0x3f
 2128 00e5 19       		.uleb128 0x19
 2129 00e6 03       		.uleb128 0x3
 2130 00e7 08       		.uleb128 0x8
 2131 00e8 3A       		.uleb128 0x3a
 2132 00e9 0B       		.uleb128 0xb
 2133 00ea 3B       		.uleb128 0x3b
 2134 00eb 0B       		.uleb128 0xb
 2135 00ec 6E       		.uleb128 0x6e
 2136 00ed 0E       		.uleb128 0xe
 2137 00ee 49       		.uleb128 0x49
 2138 00ef 13       		.uleb128 0x13
 2139 00f0 32       		.uleb128 0x32
 2140 00f1 0B       		.uleb128 0xb
 2141 00f2 3C       		.uleb128 0x3c
 2142 00f3 19       		.uleb128 0x19
 2143 00f4 64       		.uleb128 0x64
 2144 00f5 13       		.uleb128 0x13
 2145 00f6 01       		.uleb128 0x1
 2146 00f7 13       		.uleb128 0x13
 2147 00f8 00       		.byte	0
 2148 00f9 00       		.byte	0
 2149 00fa 11       		.uleb128 0x11
 2150 00fb 2E       		.uleb128 0x2e
 2151 00fc 01       		.byte	0x1
 2152 00fd 3F       		.uleb128 0x3f
 2153 00fe 19       		.uleb128 0x19
 2154 00ff 03       		.uleb128 0x3
 2155 0100 08       		.uleb128 0x8
 2156 0101 3A       		.uleb128 0x3a
 2157 0102 0B       		.uleb128 0xb
 2158 0103 3B       		.uleb128 0x3b
 2159 0104 0B       		.uleb128 0xb
 2160 0105 49       		.uleb128 0x49
 2161 0106 13       		.uleb128 0x13
 2162 0107 3C       		.uleb128 0x3c
 2163 0108 19       		.uleb128 0x19
 2164 0109 64       		.uleb128 0x64
 2165 010a 13       		.uleb128 0x13
 2166 010b 01       		.uleb128 0x1
ARM GAS  /tmp/ccN8ISTd.s 			page 39


 2167 010c 13       		.uleb128 0x13
 2168 010d 00       		.byte	0
 2169 010e 00       		.byte	0
 2170 010f 12       		.uleb128 0x12
 2171 0110 2E       		.uleb128 0x2e
 2172 0111 01       		.byte	0x1
 2173 0112 3F       		.uleb128 0x3f
 2174 0113 19       		.uleb128 0x19
 2175 0114 03       		.uleb128 0x3
 2176 0115 0E       		.uleb128 0xe
 2177 0116 3A       		.uleb128 0x3a
 2178 0117 0B       		.uleb128 0xb
 2179 0118 3B       		.uleb128 0x3b
 2180 0119 0B       		.uleb128 0xb
 2181 011a 6E       		.uleb128 0x6e
 2182 011b 0E       		.uleb128 0xe
 2183 011c 3C       		.uleb128 0x3c
 2184 011d 19       		.uleb128 0x19
 2185 011e 64       		.uleb128 0x64
 2186 011f 13       		.uleb128 0x13
 2187 0120 00       		.byte	0
 2188 0121 00       		.byte	0
 2189 0122 13       		.uleb128 0x13
 2190 0123 26       		.uleb128 0x26
 2191 0124 00       		.byte	0
 2192 0125 49       		.uleb128 0x49
 2193 0126 13       		.uleb128 0x13
 2194 0127 00       		.byte	0
 2195 0128 00       		.byte	0
 2196 0129 14       		.uleb128 0x14
 2197 012a 02       		.uleb128 0x2
 2198 012b 01       		.byte	0x1
 2199 012c 03       		.uleb128 0x3
 2200 012d 0E       		.uleb128 0xe
 2201 012e 0B       		.uleb128 0xb
 2202 012f 0B       		.uleb128 0xb
 2203 0130 3A       		.uleb128 0x3a
 2204 0131 0B       		.uleb128 0xb
 2205 0132 3B       		.uleb128 0x3b
 2206 0133 0B       		.uleb128 0xb
 2207 0134 01       		.uleb128 0x1
 2208 0135 13       		.uleb128 0x13
 2209 0136 00       		.byte	0
 2210 0137 00       		.byte	0
 2211 0138 15       		.uleb128 0x15
 2212 0139 2E       		.uleb128 0x2e
 2213 013a 01       		.byte	0x1
 2214 013b 3F       		.uleb128 0x3f
 2215 013c 19       		.uleb128 0x19
 2216 013d 03       		.uleb128 0x3
 2217 013e 0E       		.uleb128 0xe
 2218 013f 3A       		.uleb128 0x3a
 2219 0140 0B       		.uleb128 0xb
 2220 0141 3B       		.uleb128 0x3b
 2221 0142 0B       		.uleb128 0xb
 2222 0143 49       		.uleb128 0x49
 2223 0144 13       		.uleb128 0x13
ARM GAS  /tmp/ccN8ISTd.s 			page 40


 2224 0145 3C       		.uleb128 0x3c
 2225 0146 19       		.uleb128 0x19
 2226 0147 64       		.uleb128 0x64
 2227 0148 13       		.uleb128 0x13
 2228 0149 01       		.uleb128 0x1
 2229 014a 13       		.uleb128 0x13
 2230 014b 00       		.byte	0
 2231 014c 00       		.byte	0
 2232 014d 16       		.uleb128 0x16
 2233 014e 3A       		.uleb128 0x3a
 2234 014f 00       		.byte	0
 2235 0150 3A       		.uleb128 0x3a
 2236 0151 0B       		.uleb128 0xb
 2237 0152 3B       		.uleb128 0x3b
 2238 0153 0B       		.uleb128 0xb
 2239 0154 18       		.uleb128 0x18
 2240 0155 13       		.uleb128 0x13
 2241 0156 00       		.byte	0
 2242 0157 00       		.byte	0
 2243 0158 17       		.uleb128 0x17
 2244 0159 34       		.uleb128 0x34
 2245 015a 00       		.byte	0
 2246 015b 03       		.uleb128 0x3
 2247 015c 0E       		.uleb128 0xe
 2248 015d 3A       		.uleb128 0x3a
 2249 015e 0B       		.uleb128 0xb
 2250 015f 3B       		.uleb128 0x3b
 2251 0160 0B       		.uleb128 0xb
 2252 0161 6E       		.uleb128 0x6e
 2253 0162 0E       		.uleb128 0xe
 2254 0163 49       		.uleb128 0x49
 2255 0164 13       		.uleb128 0x13
 2256 0165 3F       		.uleb128 0x3f
 2257 0166 19       		.uleb128 0x19
 2258 0167 3C       		.uleb128 0x3c
 2259 0168 19       		.uleb128 0x19
 2260 0169 00       		.byte	0
 2261 016a 00       		.byte	0
 2262 016b 18       		.uleb128 0x18
 2263 016c 34       		.uleb128 0x34
 2264 016d 00       		.byte	0
 2265 016e 03       		.uleb128 0x3
 2266 016f 0E       		.uleb128 0xe
 2267 0170 3A       		.uleb128 0x3a
 2268 0171 0B       		.uleb128 0xb
 2269 0172 3B       		.uleb128 0x3b
 2270 0173 0B       		.uleb128 0xb
 2271 0174 49       		.uleb128 0x49
 2272 0175 13       		.uleb128 0x13
 2273 0176 3C       		.uleb128 0x3c
 2274 0177 19       		.uleb128 0x19
 2275 0178 1C       		.uleb128 0x1c
 2276 0179 0B       		.uleb128 0xb
 2277 017a 00       		.byte	0
 2278 017b 00       		.byte	0
 2279 017c 19       		.uleb128 0x19
 2280 017d 34       		.uleb128 0x34
ARM GAS  /tmp/ccN8ISTd.s 			page 41


 2281 017e 00       		.byte	0
 2282 017f 03       		.uleb128 0x3
 2283 0180 0E       		.uleb128 0xe
 2284 0181 3A       		.uleb128 0x3a
 2285 0182 0B       		.uleb128 0xb
 2286 0183 3B       		.uleb128 0x3b
 2287 0184 0B       		.uleb128 0xb
 2288 0185 49       		.uleb128 0x49
 2289 0186 13       		.uleb128 0x13
 2290 0187 3C       		.uleb128 0x3c
 2291 0188 19       		.uleb128 0x19
 2292 0189 1C       		.uleb128 0x1c
 2293 018a 05       		.uleb128 0x5
 2294 018b 00       		.byte	0
 2295 018c 00       		.byte	0
 2296 018d 1A       		.uleb128 0x1a
 2297 018e 34       		.uleb128 0x34
 2298 018f 00       		.byte	0
 2299 0190 03       		.uleb128 0x3
 2300 0191 0E       		.uleb128 0xe
 2301 0192 3A       		.uleb128 0x3a
 2302 0193 0B       		.uleb128 0xb
 2303 0194 3B       		.uleb128 0x3b
 2304 0195 0B       		.uleb128 0xb
 2305 0196 49       		.uleb128 0x49
 2306 0197 13       		.uleb128 0x13
 2307 0198 3C       		.uleb128 0x3c
 2308 0199 19       		.uleb128 0x19
 2309 019a 1C       		.uleb128 0x1c
 2310 019b 06       		.uleb128 0x6
 2311 019c 00       		.byte	0
 2312 019d 00       		.byte	0
 2313 019e 1B       		.uleb128 0x1b
 2314 019f 0F       		.uleb128 0xf
 2315 01a0 00       		.byte	0
 2316 01a1 0B       		.uleb128 0xb
 2317 01a2 0B       		.uleb128 0xb
 2318 01a3 49       		.uleb128 0x49
 2319 01a4 13       		.uleb128 0x13
 2320 01a5 00       		.byte	0
 2321 01a6 00       		.byte	0
 2322 01a7 1C       		.uleb128 0x1c
 2323 01a8 0F       		.uleb128 0xf
 2324 01a9 00       		.byte	0
 2325 01aa 0B       		.uleb128 0xb
 2326 01ab 0B       		.uleb128 0xb
 2327 01ac 00       		.byte	0
 2328 01ad 00       		.byte	0
 2329 01ae 1D       		.uleb128 0x1d
 2330 01af 10       		.uleb128 0x10
 2331 01b0 00       		.byte	0
 2332 01b1 0B       		.uleb128 0xb
 2333 01b2 0B       		.uleb128 0xb
 2334 01b3 49       		.uleb128 0x49
 2335 01b4 13       		.uleb128 0x13
 2336 01b5 00       		.byte	0
 2337 01b6 00       		.byte	0
ARM GAS  /tmp/ccN8ISTd.s 			page 42


 2338 01b7 1E       		.uleb128 0x1e
 2339 01b8 01       		.uleb128 0x1
 2340 01b9 01       		.byte	0x1
 2341 01ba 49       		.uleb128 0x49
 2342 01bb 13       		.uleb128 0x13
 2343 01bc 01       		.uleb128 0x1
 2344 01bd 13       		.uleb128 0x13
 2345 01be 00       		.byte	0
 2346 01bf 00       		.byte	0
 2347 01c0 1F       		.uleb128 0x1f
 2348 01c1 21       		.uleb128 0x21
 2349 01c2 00       		.byte	0
 2350 01c3 49       		.uleb128 0x49
 2351 01c4 13       		.uleb128 0x13
 2352 01c5 2F       		.uleb128 0x2f
 2353 01c6 0B       		.uleb128 0xb
 2354 01c7 00       		.byte	0
 2355 01c8 00       		.byte	0
 2356 01c9 20       		.uleb128 0x20
 2357 01ca 2E       		.uleb128 0x2e
 2358 01cb 01       		.byte	0x1
 2359 01cc 47       		.uleb128 0x47
 2360 01cd 13       		.uleb128 0x13
 2361 01ce 20       		.uleb128 0x20
 2362 01cf 0B       		.uleb128 0xb
 2363 01d0 64       		.uleb128 0x64
 2364 01d1 13       		.uleb128 0x13
 2365 01d2 01       		.uleb128 0x1
 2366 01d3 13       		.uleb128 0x13
 2367 01d4 00       		.byte	0
 2368 01d5 00       		.byte	0
 2369 01d6 21       		.uleb128 0x21
 2370 01d7 05       		.uleb128 0x5
 2371 01d8 00       		.byte	0
 2372 01d9 03       		.uleb128 0x3
 2373 01da 0E       		.uleb128 0xe
 2374 01db 49       		.uleb128 0x49
 2375 01dc 13       		.uleb128 0x13
 2376 01dd 34       		.uleb128 0x34
 2377 01de 19       		.uleb128 0x19
 2378 01df 00       		.byte	0
 2379 01e0 00       		.byte	0
 2380 01e1 22       		.uleb128 0x22
 2381 01e2 05       		.uleb128 0x5
 2382 01e3 00       		.byte	0
 2383 01e4 03       		.uleb128 0x3
 2384 01e5 0E       		.uleb128 0xe
 2385 01e6 3A       		.uleb128 0x3a
 2386 01e7 0B       		.uleb128 0xb
 2387 01e8 3B       		.uleb128 0x3b
 2388 01e9 0B       		.uleb128 0xb
 2389 01ea 49       		.uleb128 0x49
 2390 01eb 13       		.uleb128 0x13
 2391 01ec 00       		.byte	0
 2392 01ed 00       		.byte	0
 2393 01ee 23       		.uleb128 0x23
 2394 01ef 2E       		.uleb128 0x2e
ARM GAS  /tmp/ccN8ISTd.s 			page 43


 2395 01f0 01       		.byte	0x1
 2396 01f1 47       		.uleb128 0x47
 2397 01f2 13       		.uleb128 0x13
 2398 01f3 20       		.uleb128 0x20
 2399 01f4 0B       		.uleb128 0xb
 2400 01f5 01       		.uleb128 0x1
 2401 01f6 13       		.uleb128 0x13
 2402 01f7 00       		.byte	0
 2403 01f8 00       		.byte	0
 2404 01f9 24       		.uleb128 0x24
 2405 01fa 0B       		.uleb128 0xb
 2406 01fb 01       		.byte	0x1
 2407 01fc 00       		.byte	0
 2408 01fd 00       		.byte	0
 2409 01fe 25       		.uleb128 0x25
 2410 01ff 34       		.uleb128 0x34
 2411 0200 00       		.byte	0
 2412 0201 03       		.uleb128 0x3
 2413 0202 08       		.uleb128 0x8
 2414 0203 3A       		.uleb128 0x3a
 2415 0204 0B       		.uleb128 0xb
 2416 0205 3B       		.uleb128 0x3b
 2417 0206 0B       		.uleb128 0xb
 2418 0207 49       		.uleb128 0x49
 2419 0208 13       		.uleb128 0x13
 2420 0209 00       		.byte	0
 2421 020a 00       		.byte	0
 2422 020b 26       		.uleb128 0x26
 2423 020c 2E       		.uleb128 0x2e
 2424 020d 01       		.byte	0x1
 2425 020e 47       		.uleb128 0x47
 2426 020f 13       		.uleb128 0x13
 2427 0210 3A       		.uleb128 0x3a
 2428 0211 0B       		.uleb128 0xb
 2429 0212 3B       		.uleb128 0x3b
 2430 0213 0B       		.uleb128 0xb
 2431 0214 11       		.uleb128 0x11
 2432 0215 01       		.uleb128 0x1
 2433 0216 12       		.uleb128 0x12
 2434 0217 06       		.uleb128 0x6
 2435 0218 40       		.uleb128 0x40
 2436 0219 18       		.uleb128 0x18
 2437 021a 64       		.uleb128 0x64
 2438 021b 13       		.uleb128 0x13
 2439 021c 9742     		.uleb128 0x2117
 2440 021e 19       		.uleb128 0x19
 2441 021f 01       		.uleb128 0x1
 2442 0220 13       		.uleb128 0x13
 2443 0221 00       		.byte	0
 2444 0222 00       		.byte	0
 2445 0223 27       		.uleb128 0x27
 2446 0224 05       		.uleb128 0x5
 2447 0225 00       		.byte	0
 2448 0226 03       		.uleb128 0x3
 2449 0227 0E       		.uleb128 0xe
 2450 0228 49       		.uleb128 0x49
 2451 0229 13       		.uleb128 0x13
ARM GAS  /tmp/ccN8ISTd.s 			page 44


 2452 022a 34       		.uleb128 0x34
 2453 022b 19       		.uleb128 0x19
 2454 022c 02       		.uleb128 0x2
 2455 022d 17       		.uleb128 0x17
 2456 022e 00       		.byte	0
 2457 022f 00       		.byte	0
 2458 0230 28       		.uleb128 0x28
 2459 0231 1D       		.uleb128 0x1d
 2460 0232 01       		.byte	0x1
 2461 0233 31       		.uleb128 0x31
 2462 0234 13       		.uleb128 0x13
 2463 0235 52       		.uleb128 0x52
 2464 0236 01       		.uleb128 0x1
 2465 0237 55       		.uleb128 0x55
 2466 0238 17       		.uleb128 0x17
 2467 0239 58       		.uleb128 0x58
 2468 023a 0B       		.uleb128 0xb
 2469 023b 59       		.uleb128 0x59
 2470 023c 0B       		.uleb128 0xb
 2471 023d 01       		.uleb128 0x1
 2472 023e 13       		.uleb128 0x13
 2473 023f 00       		.byte	0
 2474 0240 00       		.byte	0
 2475 0241 29       		.uleb128 0x29
 2476 0242 05       		.uleb128 0x5
 2477 0243 00       		.byte	0
 2478 0244 31       		.uleb128 0x31
 2479 0245 13       		.uleb128 0x13
 2480 0246 02       		.uleb128 0x2
 2481 0247 17       		.uleb128 0x17
 2482 0248 00       		.byte	0
 2483 0249 00       		.byte	0
 2484 024a 2A       		.uleb128 0x2a
 2485 024b 05       		.uleb128 0x5
 2486 024c 00       		.byte	0
 2487 024d 31       		.uleb128 0x31
 2488 024e 13       		.uleb128 0x13
 2489 024f 1C       		.uleb128 0x1c
 2490 0250 0B       		.uleb128 0xb
 2491 0251 00       		.byte	0
 2492 0252 00       		.byte	0
 2493 0253 2B       		.uleb128 0x2b
 2494 0254 05       		.uleb128 0x5
 2495 0255 00       		.byte	0
 2496 0256 31       		.uleb128 0x31
 2497 0257 13       		.uleb128 0x13
 2498 0258 1C       		.uleb128 0x1c
 2499 0259 05       		.uleb128 0x5
 2500 025a 00       		.byte	0
 2501 025b 00       		.byte	0
 2502 025c 2C       		.uleb128 0x2c
 2503 025d 05       		.uleb128 0x5
 2504 025e 00       		.byte	0
 2505 025f 31       		.uleb128 0x31
 2506 0260 13       		.uleb128 0x13
 2507 0261 02       		.uleb128 0x2
 2508 0262 18       		.uleb128 0x18
ARM GAS  /tmp/ccN8ISTd.s 			page 45


 2509 0263 00       		.byte	0
 2510 0264 00       		.byte	0
 2511 0265 2D       		.uleb128 0x2d
 2512 0266 0B       		.uleb128 0xb
 2513 0267 01       		.byte	0x1
 2514 0268 11       		.uleb128 0x11
 2515 0269 01       		.uleb128 0x1
 2516 026a 12       		.uleb128 0x12
 2517 026b 06       		.uleb128 0x6
 2518 026c 01       		.uleb128 0x1
 2519 026d 13       		.uleb128 0x13
 2520 026e 00       		.byte	0
 2521 026f 00       		.byte	0
 2522 0270 2E       		.uleb128 0x2e
 2523 0271 34       		.uleb128 0x34
 2524 0272 00       		.byte	0
 2525 0273 03       		.uleb128 0x3
 2526 0274 08       		.uleb128 0x8
 2527 0275 3A       		.uleb128 0x3a
 2528 0276 0B       		.uleb128 0xb
 2529 0277 3B       		.uleb128 0x3b
 2530 0278 0B       		.uleb128 0xb
 2531 0279 49       		.uleb128 0x49
 2532 027a 13       		.uleb128 0x13
 2533 027b 02       		.uleb128 0x2
 2534 027c 17       		.uleb128 0x17
 2535 027d 00       		.byte	0
 2536 027e 00       		.byte	0
 2537 027f 2F       		.uleb128 0x2f
 2538 0280 898201   		.uleb128 0x4109
 2539 0283 01       		.byte	0x1
 2540 0284 11       		.uleb128 0x11
 2541 0285 01       		.uleb128 0x1
 2542 0286 31       		.uleb128 0x31
 2543 0287 13       		.uleb128 0x13
 2544 0288 01       		.uleb128 0x1
 2545 0289 13       		.uleb128 0x13
 2546 028a 00       		.byte	0
 2547 028b 00       		.byte	0
 2548 028c 30       		.uleb128 0x30
 2549 028d 8A8201   		.uleb128 0x410a
 2550 0290 00       		.byte	0
 2551 0291 02       		.uleb128 0x2
 2552 0292 18       		.uleb128 0x18
 2553 0293 9142     		.uleb128 0x2111
 2554 0295 18       		.uleb128 0x18
 2555 0296 00       		.byte	0
 2556 0297 00       		.byte	0
 2557 0298 31       		.uleb128 0x31
 2558 0299 898201   		.uleb128 0x4109
 2559 029c 01       		.byte	0x1
 2560 029d 11       		.uleb128 0x11
 2561 029e 01       		.uleb128 0x1
 2562 029f 31       		.uleb128 0x31
 2563 02a0 13       		.uleb128 0x13
 2564 02a1 00       		.byte	0
 2565 02a2 00       		.byte	0
ARM GAS  /tmp/ccN8ISTd.s 			page 46


 2566 02a3 32       		.uleb128 0x32
 2567 02a4 05       		.uleb128 0x5
 2568 02a5 00       		.byte	0
 2569 02a6 03       		.uleb128 0x3
 2570 02a7 0E       		.uleb128 0xe
 2571 02a8 3A       		.uleb128 0x3a
 2572 02a9 0B       		.uleb128 0xb
 2573 02aa 3B       		.uleb128 0x3b
 2574 02ab 0B       		.uleb128 0xb
 2575 02ac 49       		.uleb128 0x49
 2576 02ad 13       		.uleb128 0x13
 2577 02ae 02       		.uleb128 0x2
 2578 02af 17       		.uleb128 0x17
 2579 02b0 00       		.byte	0
 2580 02b1 00       		.byte	0
 2581 02b2 33       		.uleb128 0x33
 2582 02b3 0B       		.uleb128 0xb
 2583 02b4 01       		.byte	0x1
 2584 02b5 55       		.uleb128 0x55
 2585 02b6 17       		.uleb128 0x17
 2586 02b7 00       		.byte	0
 2587 02b8 00       		.byte	0
 2588 02b9 34       		.uleb128 0x34
 2589 02ba 34       		.uleb128 0x34
 2590 02bb 00       		.byte	0
 2591 02bc 03       		.uleb128 0x3
 2592 02bd 0E       		.uleb128 0xe
 2593 02be 3A       		.uleb128 0x3a
 2594 02bf 0B       		.uleb128 0xb
 2595 02c0 3B       		.uleb128 0x3b
 2596 02c1 0B       		.uleb128 0xb
 2597 02c2 49       		.uleb128 0x49
 2598 02c3 13       		.uleb128 0x13
 2599 02c4 02       		.uleb128 0x2
 2600 02c5 18       		.uleb128 0x18
 2601 02c6 00       		.byte	0
 2602 02c7 00       		.byte	0
 2603 02c8 35       		.uleb128 0x35
 2604 02c9 34       		.uleb128 0x34
 2605 02ca 00       		.byte	0
 2606 02cb 03       		.uleb128 0x3
 2607 02cc 0E       		.uleb128 0xe
 2608 02cd 3A       		.uleb128 0x3a
 2609 02ce 0B       		.uleb128 0xb
 2610 02cf 3B       		.uleb128 0x3b
 2611 02d0 0B       		.uleb128 0xb
 2612 02d1 49       		.uleb128 0x49
 2613 02d2 13       		.uleb128 0x13
 2614 02d3 02       		.uleb128 0x2
 2615 02d4 17       		.uleb128 0x17
 2616 02d5 00       		.byte	0
 2617 02d6 00       		.byte	0
 2618 02d7 36       		.uleb128 0x36
 2619 02d8 0B       		.uleb128 0xb
 2620 02d9 01       		.byte	0x1
 2621 02da 55       		.uleb128 0x55
 2622 02db 17       		.uleb128 0x17
ARM GAS  /tmp/ccN8ISTd.s 			page 47


 2623 02dc 01       		.uleb128 0x1
 2624 02dd 13       		.uleb128 0x13
 2625 02de 00       		.byte	0
 2626 02df 00       		.byte	0
 2627 02e0 37       		.uleb128 0x37
 2628 02e1 05       		.uleb128 0x5
 2629 02e2 00       		.byte	0
 2630 02e3 31       		.uleb128 0x31
 2631 02e4 13       		.uleb128 0x13
 2632 02e5 00       		.byte	0
 2633 02e6 00       		.byte	0
 2634 02e7 38       		.uleb128 0x38
 2635 02e8 34       		.uleb128 0x34
 2636 02e9 00       		.byte	0
 2637 02ea 31       		.uleb128 0x31
 2638 02eb 13       		.uleb128 0x13
 2639 02ec 02       		.uleb128 0x2
 2640 02ed 17       		.uleb128 0x17
 2641 02ee 00       		.byte	0
 2642 02ef 00       		.byte	0
 2643 02f0 39       		.uleb128 0x39
 2644 02f1 34       		.uleb128 0x34
 2645 02f2 00       		.byte	0
 2646 02f3 31       		.uleb128 0x31
 2647 02f4 13       		.uleb128 0x13
 2648 02f5 00       		.byte	0
 2649 02f6 00       		.byte	0
 2650 02f7 3A       		.uleb128 0x3a
 2651 02f8 21       		.uleb128 0x21
 2652 02f9 00       		.byte	0
 2653 02fa 00       		.byte	0
 2654 02fb 00       		.byte	0
 2655 02fc 3B       		.uleb128 0x3b
 2656 02fd 34       		.uleb128 0x34
 2657 02fe 00       		.byte	0
 2658 02ff 47       		.uleb128 0x47
 2659 0300 13       		.uleb128 0x13
 2660 0301 1C       		.uleb128 0x1c
 2661 0302 0B       		.uleb128 0xb
 2662 0303 00       		.byte	0
 2663 0304 00       		.byte	0
 2664 0305 3C       		.uleb128 0x3c
 2665 0306 34       		.uleb128 0x34
 2666 0307 00       		.byte	0
 2667 0308 47       		.uleb128 0x47
 2668 0309 13       		.uleb128 0x13
 2669 030a 1C       		.uleb128 0x1c
 2670 030b 05       		.uleb128 0x5
 2671 030c 00       		.byte	0
 2672 030d 00       		.byte	0
 2673 030e 3D       		.uleb128 0x3d
 2674 030f 34       		.uleb128 0x34
 2675 0310 00       		.byte	0
 2676 0311 47       		.uleb128 0x47
 2677 0312 13       		.uleb128 0x13
 2678 0313 1C       		.uleb128 0x1c
 2679 0314 06       		.uleb128 0x6
ARM GAS  /tmp/ccN8ISTd.s 			page 48


 2680 0315 00       		.byte	0
 2681 0316 00       		.byte	0
 2682 0317 00       		.byte	0
 2683              		.section	.debug_loc,"",%progbits
 2684              	.Ldebug_loc0:
 2685              	.LLST0:
 2686 0000 00000000 		.4byte	.LVL0-.Ltext0
 2687 0004 07000000 		.4byte	.LVL1-1-.Ltext0
 2688 0008 0100     		.2byte	0x1
 2689 000a 50       		.byte	0x50
 2690 000b 07000000 		.4byte	.LVL1-1-.Ltext0
 2691 000f 5A000000 		.4byte	.LFE34-.Ltext0
 2692 0013 0100     		.2byte	0x1
 2693 0015 54       		.byte	0x54
 2694 0016 00000000 		.4byte	0
 2695 001a 00000000 		.4byte	0
 2696              	.LLST1:
 2697 001e 14000000 		.4byte	.LVL2-.Ltext0
 2698 0022 26000000 		.4byte	.LVL4-.Ltext0
 2699 0026 0100     		.2byte	0x1
 2700 0028 54       		.byte	0x54
 2701 0029 26000000 		.4byte	.LVL4-.Ltext0
 2702 002d 5A000000 		.4byte	.LFE34-.Ltext0
 2703 0031 0300     		.2byte	0x3
 2704 0033 74       		.byte	0x74
 2705 0034 1C       		.sleb128 28
 2706 0035 9F       		.byte	0x9f
 2707 0036 00000000 		.4byte	0
 2708 003a 00000000 		.4byte	0
 2709              	.LLST3:
 2710 003e 08000000 		.4byte	.LVL1-.Ltext0
 2711 0042 1E000000 		.4byte	.LVL3-.Ltext0
 2712 0046 0100     		.2byte	0x1
 2713 0048 54       		.byte	0x54
 2714 0049 1E000000 		.4byte	.LVL3-.Ltext0
 2715 004d 5A000000 		.4byte	.LFE34-.Ltext0
 2716 0051 0300     		.2byte	0x3
 2717 0053 74       		.byte	0x74
 2718 0054 1C       		.sleb128 28
 2719 0055 9F       		.byte	0x9f
 2720 0056 00000000 		.4byte	0
 2721 005a 00000000 		.4byte	0
 2722              	.LLST5:
 2723 005e 26000000 		.4byte	.LVL4-.Ltext0
 2724 0062 36000000 		.4byte	.LVL5-.Ltext0
 2725 0066 0200     		.2byte	0x2
 2726 0068 30       		.byte	0x30
 2727 0069 9F       		.byte	0x9f
 2728 006a 00000000 		.4byte	0
 2729 006e 00000000 		.4byte	0
 2730              	.LLST6:
 2731 0072 60000000 		.4byte	.LVL6-.Ltext0
 2732 0076 93000000 		.4byte	.LVL9-1-.Ltext0
 2733 007a 0100     		.2byte	0x1
 2734 007c 50       		.byte	0x50
 2735 007d 93000000 		.4byte	.LVL9-1-.Ltext0
 2736 0081 B8020000 		.4byte	.LFE35-.Ltext0
ARM GAS  /tmp/ccN8ISTd.s 			page 49


 2737 0085 0100     		.2byte	0x1
 2738 0087 54       		.byte	0x54
 2739 0088 00000000 		.4byte	0
 2740 008c 00000000 		.4byte	0
 2741              	.LLST7:
 2742 0090 60000000 		.4byte	.LVL6-.Ltext0
 2743 0094 66000000 		.4byte	.LVL7-.Ltext0
 2744 0098 0100     		.2byte	0x1
 2745 009a 51       		.byte	0x51
 2746 009b 66000000 		.4byte	.LVL7-.Ltext0
 2747 009f B8020000 		.4byte	.LFE35-.Ltext0
 2748 00a3 0400     		.2byte	0x4
 2749 00a5 F3       		.byte	0xf3
 2750 00a6 01       		.uleb128 0x1
 2751 00a7 51       		.byte	0x51
 2752 00a8 9F       		.byte	0x9f
 2753 00a9 00000000 		.4byte	0
 2754 00ad 00000000 		.4byte	0
 2755              	.LLST8:
 2756 00b1 60000000 		.4byte	.LVL6-.Ltext0
 2757 00b5 76000000 		.4byte	.LVL8-.Ltext0
 2758 00b9 0100     		.2byte	0x1
 2759 00bb 52       		.byte	0x52
 2760 00bc 76000000 		.4byte	.LVL8-.Ltext0
 2761 00c0 B8020000 		.4byte	.LFE35-.Ltext0
 2762 00c4 0400     		.2byte	0x4
 2763 00c6 F3       		.byte	0xf3
 2764 00c7 01       		.uleb128 0x1
 2765 00c8 52       		.byte	0x52
 2766 00c9 9F       		.byte	0x9f
 2767 00ca 00000000 		.4byte	0
 2768 00ce 00000000 		.4byte	0
 2769              	.LLST9:
 2770 00d2 60000000 		.4byte	.LVL6-.Ltext0
 2771 00d6 93000000 		.4byte	.LVL9-1-.Ltext0
 2772 00da 0100     		.2byte	0x1
 2773 00dc 53       		.byte	0x53
 2774 00dd 93000000 		.4byte	.LVL9-1-.Ltext0
 2775 00e1 B8020000 		.4byte	.LFE35-.Ltext0
 2776 00e5 0200     		.2byte	0x2
 2777 00e7 91       		.byte	0x91
 2778 00e8 44       		.sleb128 -60
 2779 00e9 00000000 		.4byte	0
 2780 00ed 00000000 		.4byte	0
 2781              	.LLST10:
 2782 00f1 60000000 		.4byte	.LVL6-.Ltext0
 2783 00f5 64020000 		.4byte	.LVL41-.Ltext0
 2784 00f9 0200     		.2byte	0x2
 2785 00fb 91       		.byte	0x91
 2786 00fc 00       		.sleb128 0
 2787 00fd 64020000 		.4byte	.LVL41-.Ltext0
 2788 0101 B8020000 		.4byte	.LFE35-.Ltext0
 2789 0105 0200     		.2byte	0x2
 2790 0107 91       		.byte	0x91
 2791 0108 00       		.sleb128 0
 2792 0109 00000000 		.4byte	0
 2793 010d 00000000 		.4byte	0
ARM GAS  /tmp/ccN8ISTd.s 			page 50


 2794              	.LLST11:
 2795 0111 C0000000 		.4byte	.LVL13-.Ltext0
 2796 0115 D0000000 		.4byte	.LVL14-.Ltext0
 2797 0119 0200     		.2byte	0x2
 2798 011b 30       		.byte	0x30
 2799 011c 9F       		.byte	0x9f
 2800 011d D0000000 		.4byte	.LVL14-.Ltext0
 2801 0121 D6000000 		.4byte	.LVL16-.Ltext0
 2802 0125 0100     		.2byte	0x1
 2803 0127 59       		.byte	0x59
 2804 0128 D6000000 		.4byte	.LVL16-.Ltext0
 2805 012c D0010000 		.4byte	.LVL29-.Ltext0
 2806 0130 0100     		.2byte	0x1
 2807 0132 5B       		.byte	0x5b
 2808 0133 D0010000 		.4byte	.LVL29-.Ltext0
 2809 0137 D8010000 		.4byte	.LVL31-.Ltext0
 2810 013b 1900     		.2byte	0x19
 2811 013d 7B       		.byte	0x7b
 2812 013e 00       		.sleb128 0
 2813 013f 12       		.byte	0x12
 2814 0140 30       		.byte	0x30
 2815 0141 16       		.byte	0x16
 2816 0142 14       		.byte	0x14
 2817 0143 2B       		.byte	0x2b
 2818 0144 28       		.byte	0x28
 2819 0145 0100     		.2byte	0x1
 2820 0147 16       		.byte	0x16
 2821 0148 13       		.byte	0x13
 2822 0149 12       		.byte	0x12
 2823 014a 0A       		.byte	0xa
 2824 014b FFFF     		.2byte	0xffff
 2825 014d 16       		.byte	0x16
 2826 014e 14       		.byte	0x14
 2827 014f 2D       		.byte	0x2d
 2828 0150 28       		.byte	0x28
 2829 0151 0100     		.2byte	0x1
 2830 0153 16       		.byte	0x16
 2831 0154 13       		.byte	0x13
 2832 0155 9F       		.byte	0x9f
 2833 0156 D8010000 		.4byte	.LVL31-.Ltext0
 2834 015a DC010000 		.4byte	.LVL32-.Ltext0
 2835 015e 0100     		.2byte	0x1
 2836 0160 5B       		.byte	0x5b
 2837 0161 64020000 		.4byte	.LVL41-.Ltext0
 2838 0165 AC020000 		.4byte	.LVL43-.Ltext0
 2839 0169 0100     		.2byte	0x1
 2840 016b 5B       		.byte	0x5b
 2841 016c 00000000 		.4byte	0
 2842 0170 00000000 		.4byte	0
 2843              	.LLST12:
 2844 0174 C0000000 		.4byte	.LVL13-.Ltext0
 2845 0178 D0000000 		.4byte	.LVL14-.Ltext0
 2846 017c 0200     		.2byte	0x2
 2847 017e 30       		.byte	0x30
 2848 017f 9F       		.byte	0x9f
 2849 0180 D0000000 		.4byte	.LVL14-.Ltext0
 2850 0184 B8020000 		.4byte	.LFE35-.Ltext0
ARM GAS  /tmp/ccN8ISTd.s 			page 51


 2851 0188 0100     		.2byte	0x1
 2852 018a 59       		.byte	0x59
 2853 018b 00000000 		.4byte	0
 2854 018f 00000000 		.4byte	0
 2855              	.LLST13:
 2856 0193 C0000000 		.4byte	.LVL13-.Ltext0
 2857 0197 D0000000 		.4byte	.LVL14-.Ltext0
 2858 019b 0200     		.2byte	0x2
 2859 019d 30       		.byte	0x30
 2860 019e 9F       		.byte	0x9f
 2861 019f D0000000 		.4byte	.LVL14-.Ltext0
 2862 01a3 D6000000 		.4byte	.LVL16-.Ltext0
 2863 01a7 0100     		.2byte	0x1
 2864 01a9 59       		.byte	0x59
 2865 01aa D6000000 		.4byte	.LVL16-.Ltext0
 2866 01ae 8C010000 		.4byte	.LVL21-.Ltext0
 2867 01b2 0300     		.2byte	0x3
 2868 01b4 91       		.byte	0x91
 2869 01b5 A47F     		.sleb128 -92
 2870 01b7 8C010000 		.4byte	.LVL21-.Ltext0
 2871 01bb B0010000 		.4byte	.LVL24-.Ltext0
 2872 01bf 0100     		.2byte	0x1
 2873 01c1 52       		.byte	0x52
 2874 01c2 B0010000 		.4byte	.LVL24-.Ltext0
 2875 01c6 D0010000 		.4byte	.LVL29-.Ltext0
 2876 01ca 0300     		.2byte	0x3
 2877 01cc 91       		.byte	0x91
 2878 01cd A47F     		.sleb128 -92
 2879 01cf D0010000 		.4byte	.LVL29-.Ltext0
 2880 01d3 D2010000 		.4byte	.LVL30-.Ltext0
 2881 01d7 0100     		.2byte	0x1
 2882 01d9 52       		.byte	0x52
 2883 01da D2010000 		.4byte	.LVL30-.Ltext0
 2884 01de B8020000 		.4byte	.LFE35-.Ltext0
 2885 01e2 0300     		.2byte	0x3
 2886 01e4 91       		.byte	0x91
 2887 01e5 A47F     		.sleb128 -92
 2888 01e7 00000000 		.4byte	0
 2889 01eb 00000000 		.4byte	0
 2890              	.LLST14:
 2891 01ef 02020000 		.4byte	.LVL36-.Ltext0
 2892 01f3 40020000 		.4byte	.LVL40-.Ltext0
 2893 01f7 0100     		.2byte	0x1
 2894 01f9 5B       		.byte	0x5b
 2895 01fa AC020000 		.4byte	.LVL43-.Ltext0
 2896 01fe B8020000 		.4byte	.LFE35-.Ltext0
 2897 0202 0100     		.2byte	0x1
 2898 0204 5B       		.byte	0x5b
 2899 0205 00000000 		.4byte	0
 2900 0209 00000000 		.4byte	0
 2901              	.LLST15:
 2902 020d 16020000 		.4byte	.LVL38-.Ltext0
 2903 0211 24020000 		.4byte	.LVL39-.Ltext0
 2904 0215 0100     		.2byte	0x1
 2905 0217 53       		.byte	0x53
 2906 0218 24020000 		.4byte	.LVL39-.Ltext0
 2907 021c 64020000 		.4byte	.LVL41-.Ltext0
ARM GAS  /tmp/ccN8ISTd.s 			page 52


 2908 0220 0800     		.2byte	0x8
 2909 0222 79       		.byte	0x79
 2910 0223 00       		.sleb128 0
 2911 0224 3F       		.byte	0x3f
 2912 0225 24       		.byte	0x24
 2913 0226 77       		.byte	0x77
 2914 0227 01       		.sleb128 1
 2915 0228 1B       		.byte	0x1b
 2916 0229 9F       		.byte	0x9f
 2917 022a AC020000 		.4byte	.LVL43-.Ltext0
 2918 022e B0020000 		.4byte	.LVL44-.Ltext0
 2919 0232 0100     		.2byte	0x1
 2920 0234 53       		.byte	0x53
 2921 0235 B0020000 		.4byte	.LVL44-.Ltext0
 2922 0239 B8020000 		.4byte	.LFE35-.Ltext0
 2923 023d 0800     		.2byte	0x8
 2924 023f 79       		.byte	0x79
 2925 0240 00       		.sleb128 0
 2926 0241 3F       		.byte	0x3f
 2927 0242 24       		.byte	0x24
 2928 0243 72       		.byte	0x72
 2929 0244 00       		.sleb128 0
 2930 0245 1B       		.byte	0x1b
 2931 0246 9F       		.byte	0x9f
 2932 0247 00000000 		.4byte	0
 2933 024b 00000000 		.4byte	0
 2934              	.LLST16:
 2935 024f C0000000 		.4byte	.LVL13-.Ltext0
 2936 0253 D0000000 		.4byte	.LVL14-.Ltext0
 2937 0257 0200     		.2byte	0x2
 2938 0259 30       		.byte	0x30
 2939 025a 9F       		.byte	0x9f
 2940 025b D0000000 		.4byte	.LVL14-.Ltext0
 2941 025f D6000000 		.4byte	.LVL16-.Ltext0
 2942 0263 0100     		.2byte	0x1
 2943 0265 59       		.byte	0x59
 2944 0266 D6000000 		.4byte	.LVL16-.Ltext0
 2945 026a 7E010000 		.4byte	.LVL20-.Ltext0
 2946 026e 0100     		.2byte	0x1
 2947 0270 5C       		.byte	0x5c
 2948 0271 7E010000 		.4byte	.LVL20-.Ltext0
 2949 0275 8C010000 		.4byte	.LVL21-.Ltext0
 2950 0279 0300     		.2byte	0x3
 2951 027b 7C       		.byte	0x7c
 2952 027c 7F       		.sleb128 -1
 2953 027d 9F       		.byte	0x9f
 2954 027e 8C010000 		.4byte	.LVL21-.Ltext0
 2955 0282 B8020000 		.4byte	.LFE35-.Ltext0
 2956 0286 0100     		.2byte	0x1
 2957 0288 5C       		.byte	0x5c
 2958 0289 00000000 		.4byte	0
 2959 028d 00000000 		.4byte	0
 2960              	.LLST17:
 2961 0291 D0000000 		.4byte	.LVL14-.Ltext0
 2962 0295 A6020000 		.4byte	.LVL42-.Ltext0
 2963 0299 0100     		.2byte	0x1
 2964 029b 55       		.byte	0x55
ARM GAS  /tmp/ccN8ISTd.s 			page 53


 2965 029c A6020000 		.4byte	.LVL42-.Ltext0
 2966 02a0 AC020000 		.4byte	.LVL43-.Ltext0
 2967 02a4 0100     		.2byte	0x1
 2968 02a6 50       		.byte	0x50
 2969 02a7 AC020000 		.4byte	.LVL43-.Ltext0
 2970 02ab B8020000 		.4byte	.LFE35-.Ltext0
 2971 02af 0100     		.2byte	0x1
 2972 02b1 55       		.byte	0x55
 2973 02b2 00000000 		.4byte	0
 2974 02b6 00000000 		.4byte	0
 2975              	.LLST18:
 2976 02ba 60010000 		.4byte	.LVL18-.Ltext0
 2977 02be 62010000 		.4byte	.LVL19-.Ltext0
 2978 02c2 0B00     		.2byte	0xb
 2979 02c4 F5       		.byte	0xf5
 2980 02c5 02       		.uleb128 0x2
 2981 02c6 25       		.uleb128 0x25
 2982 02c7 71       		.byte	0x71
 2983 02c8 00       		.sleb128 0
 2984 02c9 F7       		.byte	0xf7
 2985 02ca 2C       		.uleb128 0x2c
 2986 02cb F7       		.byte	0xf7
 2987 02cc 25       		.uleb128 0x25
 2988 02cd 1C       		.byte	0x1c
 2989 02ce 9F       		.byte	0x9f
 2990 02cf BC010000 		.4byte	.LVL25-.Ltext0
 2991 02d3 BE010000 		.4byte	.LVL26-.Ltext0
 2992 02d7 0B00     		.2byte	0xb
 2993 02d9 F5       		.byte	0xf5
 2994 02da 02       		.uleb128 0x2
 2995 02db 25       		.uleb128 0x25
 2996 02dc 71       		.byte	0x71
 2997 02dd 00       		.sleb128 0
 2998 02de F7       		.byte	0xf7
 2999 02df 2C       		.uleb128 0x2c
 3000 02e0 F7       		.byte	0xf7
 3001 02e1 25       		.uleb128 0x25
 3002 02e2 1C       		.byte	0x1c
 3003 02e3 9F       		.byte	0x9f
 3004 02e4 BE010000 		.4byte	.LVL26-.Ltext0
 3005 02e8 CA010000 		.4byte	.LVL27-.Ltext0
 3006 02ec 0E00     		.2byte	0xe
 3007 02ee 91       		.byte	0x91
 3008 02ef A87F     		.sleb128 -88
 3009 02f1 F6       		.byte	0xf6
 3010 02f2 08       		.byte	0x8
 3011 02f3 25       		.uleb128 0x25
 3012 02f4 71       		.byte	0x71
 3013 02f5 00       		.sleb128 0
 3014 02f6 F7       		.byte	0xf7
 3015 02f7 2C       		.uleb128 0x2c
 3016 02f8 F7       		.byte	0xf7
 3017 02f9 25       		.uleb128 0x25
 3018 02fa 1C       		.byte	0x1c
 3019 02fb 9F       		.byte	0x9f
 3020 02fc CA010000 		.4byte	.LVL27-.Ltext0
 3021 0300 CE010000 		.4byte	.LVL28-.Ltext0
ARM GAS  /tmp/ccN8ISTd.s 			page 54


 3022 0304 0F00     		.2byte	0xf
 3023 0306 91       		.byte	0x91
 3024 0307 A87F     		.sleb128 -88
 3025 0309 F6       		.byte	0xf6
 3026 030a 08       		.byte	0x8
 3027 030b 25       		.uleb128 0x25
 3028 030c 78       		.byte	0x78
 3029 030d 00       		.sleb128 0
 3030 030e 06       		.byte	0x6
 3031 030f F7       		.byte	0xf7
 3032 0310 2C       		.uleb128 0x2c
 3033 0311 F7       		.byte	0xf7
 3034 0312 25       		.uleb128 0x25
 3035 0313 1C       		.byte	0x1c
 3036 0314 9F       		.byte	0x9f
 3037 0315 00000000 		.4byte	0
 3038 0319 00000000 		.4byte	0
 3039              	.LLST19:
 3040 031d DC010000 		.4byte	.LVL32-.Ltext0
 3041 0321 EE010000 		.4byte	.LVL34-.Ltext0
 3042 0325 0100     		.2byte	0x1
 3043 0327 5B       		.byte	0x5b
 3044 0328 00000000 		.4byte	0
 3045 032c 00000000 		.4byte	0
 3046              	.LLST20:
 3047 0330 E6010000 		.4byte	.LVL33-.Ltext0
 3048 0334 06020000 		.4byte	.LVL37-.Ltext0
 3049 0338 0700     		.2byte	0x7
 3050 033a 72       		.byte	0x72
 3051 033b 00       		.sleb128 0
 3052 033c 0A       		.byte	0xa
 3053 033d FFFF     		.2byte	0xffff
 3054 033f 1A       		.byte	0x1a
 3055 0340 9F       		.byte	0x9f
 3056 0341 00000000 		.4byte	0
 3057 0345 00000000 		.4byte	0
 3058              		.section	.debug_aranges,"",%progbits
 3059 0000 1C000000 		.4byte	0x1c
 3060 0004 0200     		.2byte	0x2
 3061 0006 00000000 		.4byte	.Ldebug_info0
 3062 000a 04       		.byte	0x4
 3063 000b 00       		.byte	0
 3064 000c 0000     		.2byte	0
 3065 000e 0000     		.2byte	0
 3066 0010 00000000 		.4byte	.Ltext0
 3067 0014 B8020000 		.4byte	.Letext0-.Ltext0
 3068 0018 00000000 		.4byte	0
 3069 001c 00000000 		.4byte	0
 3070              		.section	.debug_ranges,"",%progbits
 3071              	.Ldebug_ranges0:
 3072 0000 08000000 		.4byte	.LBB27-.Ltext0
 3073 0004 0C000000 		.4byte	.LBE27-.Ltext0
 3074 0008 10000000 		.4byte	.LBB34-.Ltext0
 3075 000c 12000000 		.4byte	.LBE34-.Ltext0
 3076 0010 14000000 		.4byte	.LBB36-.Ltext0
 3077 0014 1A000000 		.4byte	.LBE36-.Ltext0
 3078 0018 00000000 		.4byte	0
ARM GAS  /tmp/ccN8ISTd.s 			page 55


 3079 001c 00000000 		.4byte	0
 3080 0020 0C000000 		.4byte	.LBB31-.Ltext0
 3081 0024 10000000 		.4byte	.LBE31-.Ltext0
 3082 0028 12000000 		.4byte	.LBB35-.Ltext0
 3083 002c 14000000 		.4byte	.LBE35-.Ltext0
 3084 0030 00000000 		.4byte	0
 3085 0034 00000000 		.4byte	0
 3086 0038 1E000000 		.4byte	.LBB37-.Ltext0
 3087 003c 22000000 		.4byte	.LBE37-.Ltext0
 3088 0040 24000000 		.4byte	.LBB43-.Ltext0
 3089 0044 26000000 		.4byte	.LBE43-.Ltext0
 3090 0048 00000000 		.4byte	0
 3091 004c 00000000 		.4byte	0
 3092 0050 22000000 		.4byte	.LBB40-.Ltext0
 3093 0054 24000000 		.4byte	.LBE40-.Ltext0
 3094 0058 26000000 		.4byte	.LBB44-.Ltext0
 3095 005c 2A000000 		.4byte	.LBE44-.Ltext0
 3096 0060 00000000 		.4byte	0
 3097 0064 00000000 		.4byte	0
 3098 0068 64000000 		.4byte	.LBB46-.Ltext0
 3099 006c 7A000000 		.4byte	.LBE46-.Ltext0
 3100 0070 7E000000 		.4byte	.LBB62-.Ltext0
 3101 0074 8E000000 		.4byte	.LBE62-.Ltext0
 3102 0078 90000000 		.4byte	.LBB63-.Ltext0
 3103 007c 5E020000 		.4byte	.LBE63-.Ltext0
 3104 0080 64020000 		.4byte	.LBB64-.Ltext0
 3105 0084 B8020000 		.4byte	.LBE64-.Ltext0
 3106 0088 00000000 		.4byte	0
 3107 008c 00000000 		.4byte	0
 3108 0090 A4000000 		.4byte	.LBB47-.Ltext0
 3109 0094 AE000000 		.4byte	.LBE47-.Ltext0
 3110 0098 B6000000 		.4byte	.LBB55-.Ltext0
 3111 009c BE000000 		.4byte	.LBE55-.Ltext0
 3112 00a0 D0000000 		.4byte	.LBB56-.Ltext0
 3113 00a4 D0010000 		.4byte	.LBE56-.Ltext0
 3114 00a8 64020000 		.4byte	.LBB61-.Ltext0
 3115 00ac B8020000 		.4byte	.LBE61-.Ltext0
 3116 00b0 00000000 		.4byte	0
 3117 00b4 00000000 		.4byte	0
 3118 00b8 A4000000 		.4byte	.LBB48-.Ltext0
 3119 00bc AE000000 		.4byte	.LBE48-.Ltext0
 3120 00c0 BA000000 		.4byte	.LBB49-.Ltext0
 3121 00c4 BE000000 		.4byte	.LBE49-.Ltext0
 3122 00c8 D0000000 		.4byte	.LBB50-.Ltext0
 3123 00cc 7A010000 		.4byte	.LBE50-.Ltext0
 3124 00d0 7E010000 		.4byte	.LBB51-.Ltext0
 3125 00d4 82010000 		.4byte	.LBE51-.Ltext0
 3126 00d8 86010000 		.4byte	.LBB52-.Ltext0
 3127 00dc 98010000 		.4byte	.LBE52-.Ltext0
 3128 00e0 9C010000 		.4byte	.LBB53-.Ltext0
 3129 00e4 D0010000 		.4byte	.LBE53-.Ltext0
 3130 00e8 64020000 		.4byte	.LBB54-.Ltext0
 3131 00ec B8020000 		.4byte	.LBE54-.Ltext0
 3132 00f0 00000000 		.4byte	0
 3133 00f4 00000000 		.4byte	0
 3134 00f8 D0010000 		.4byte	.LBB57-.Ltext0
 3135 00fc D8010000 		.4byte	.LBE57-.Ltext0
ARM GAS  /tmp/ccN8ISTd.s 			page 56


 3136 0100 DC010000 		.4byte	.LBB60-.Ltext0
 3137 0104 FE010000 		.4byte	.LBE60-.Ltext0
 3138 0108 00000000 		.4byte	0
 3139 010c 00000000 		.4byte	0
 3140              		.section	.debug_line,"",%progbits
 3141              	.Ldebug_line0:
 3142 0000 E2020000 		.section	.debug_str,"MS",%progbits,1
 3142      0200CE01 
 3142      00000201 
 3142      FB0E0D00 
 3142      01010101 
 3143              	.LASF23:
 3144 0000 73747265 		.ascii	"streams\000"
 3144      616D7300 
 3145              	.LASF90:
 3146 0008 4C55545F 		.ascii	"LUT_SOFT_KNEE_SIZE\000"
 3146      534F4654 
 3146      5F4B4E45 
 3146      455F5349 
 3146      5A4500
 3147              	.LASF50:
 3148 001b 66726571 		.ascii	"frequency_offset_\000"
 3148      75656E63 
 3148      795F6F66 
 3148      66736574 
 3148      5F00
 3149              	.LASF43:
 3150 002d 656E6572 		.ascii	"energy_\000"
 3150      67795F00 
 3151              	.LASF68:
 3152 0035 5354525F 		.ascii	"STR_DUMMY\000"
 3152      44554D4D 
 3152      5900
 3153              	.LASF87:
 3154 003f 4C55545F 		.ascii	"LUT_COMPRESSOR_RATIO\000"
 3154      434F4D50 
 3154      52455353 
 3154      4F525F52 
 3154      4154494F 
 3155              	.LASF3:
 3156 0054 5F5F7569 		.ascii	"__uint8_t\000"
 3156      6E74385F 
 3156      7400
 3157              	.LASF99:
 3158 005e 4C55545F 		.ascii	"LUT_LORENZ_RATE\000"
 3158      4C4F5245 
 3158      4E5A5F52 
 3158      41544500 
 3159              	.LASF74:
 3160 006e 4C55545F 		.ascii	"LUT_ENV_LINEAR_SIZE\000"
 3160      454E565F 
 3160      4C494E45 
 3160      41525F53 
 3160      495A4500 
 3161              	.LASF115:
 3162 0082 65786369 		.ascii	"excite\000"
 3162      746500
ARM GAS  /tmp/ccN8ISTd.s 			page 57


 3163              	.LASF0:
 3164 0089 6C6F6E67 		.ascii	"long long unsigned int\000"
 3164      206C6F6E 
 3164      6720756E 
 3164      7369676E 
 3164      65642069 
 3165              	.LASF104:
 3166 00a0 6B41626F 		.ascii	"kAboveUnityGain\000"
 3166      7665556E 
 3166      69747947 
 3166      61696E00 
 3167              	.LASF26:
 3168 00b0 7265736F 		.ascii	"resonance_\000"
 3168      6E616E63 
 3168      655F00
 3169              	.LASF59:
 3170 00bb 436F6E66 		.ascii	"Configure\000"
 3170      69677572 
 3170      6500
 3171              	.LASF12:
 3172 00c5 5F5F696E 		.ascii	"__int64_t\000"
 3172      7436345F 
 3172      7400
 3173              	.LASF37:
 3174 00cf 5F5A4E4B 		.ascii	"_ZNK7streams3Svf2lpEv\000"
 3174      37737472 
 3174      65616D73 
 3174      33537666 
 3174      326C7045 
 3175              	.LASF110:
 3176 00e5 66726571 		.ascii	"frequency\000"
 3176      75656E63 
 3176      7900
 3177              	.LASF83:
 3178 00ef 4C55545F 		.ascii	"LUT_SVF_DAMP\000"
 3178      5356465F 
 3178      44414D50 
 3178      00
 3179              	.LASF16:
 3180 00fc 696E7431 		.ascii	"int16_t\000"
 3180      365F7400 
 3181              	.LASF71:
 3182 0104 5741565F 		.ascii	"WAV_DB\000"
 3182      444200
 3183              	.LASF13:
 3184 010b 6C6F6E67 		.ascii	"long long int\000"
 3184      206C6F6E 
 3184      6720696E 
 3184      7400
 3185              	.LASF1:
 3186 0119 7369676E 		.ascii	"signed char\000"
 3186      65642063 
 3186      68617200 
 3187              	.LASF128:
 3188 0125 696D706C 		.ascii	"impl\000"
 3188      00
 3189              	.LASF77:
ARM GAS  /tmp/ccN8ISTd.s 			page 58


 3190 012a 4C55545F 		.ascii	"LUT_ENV_QUARTIC\000"
 3190      454E565F 
 3190      51554152 
 3190      54494300 
 3191              	.LASF109:
 3192 013a 74686973 		.ascii	"this\000"
 3192      00
 3193              	.LASF113:
 3194 013f 70686173 		.ascii	"phase\000"
 3194      6500
 3195              	.LASF9:
 3196 0145 6C6F6E67 		.ascii	"long int\000"
 3196      20696E74 
 3196      00
 3197              	.LASF32:
 3198 014e 5F5A4E37 		.ascii	"_ZN7streams3Svf13set_frequencyEs\000"
 3198      73747265 
 3198      616D7333 
 3198      53766631 
 3198      33736574 
 3199              	.LASF38:
 3200 016f 5F5A4E4B 		.ascii	"_ZNK7streams3Svf2bpEv\000"
 3200      37737472 
 3200      65616D73 
 3200      33537666 
 3200      32627045 
 3201              	.LASF44:
 3202 0185 666F6C6C 		.ascii	"follower_\000"
 3202      6F776572 
 3202      5F00
 3203              	.LASF120:
 3204 018f 63656E74 		.ascii	"centroid_denominator\000"
 3204      726F6964 
 3204      5F64656E 
 3204      6F6D696E 
 3204      61746F72 
 3205              	.LASF85:
 3206 01a4 4C55545F 		.ascii	"LUT_2164_GAIN\000"
 3206      32313634 
 3206      5F474149 
 3206      4E00
 3207              	.LASF17:
 3208 01b2 75696E74 		.ascii	"uint16_t\000"
 3208      31365F74 
 3208      00
 3209              	.LASF129:
 3210 01bb 496E7465 		.ascii	"Interpolate824\000"
 3210      72706F6C 
 3210      61746538 
 3210      323400
 3211              	.LASF75:
 3212 01ca 4C55545F 		.ascii	"LUT_ENV_EXPO\000"
 3212      454E565F 
 3212      4558504F 
 3212      00
 3213              	.LASF24:
 3214 01d7 64697274 		.ascii	"dirty_\000"
ARM GAS  /tmp/ccN8ISTd.s 			page 59


 3214      795F00
 3215              	.LASF94:
 3216 01de 4C55545F 		.ascii	"LUT_LP_COEFFICIENTS_SIZE\000"
 3216      4C505F43 
 3216      4F454646 
 3216      49434945 
 3216      4E54535F 
 3217              	.LASF35:
 3218 01f7 50726F63 		.ascii	"Process\000"
 3218      65737300 
 3219              	.LASF45:
 3220 01ff 61747461 		.ascii	"attack_coefficient_\000"
 3220      636B5F63 
 3220      6F656666 
 3220      69636965 
 3220      6E745F00 
 3221              	.LASF10:
 3222 0213 5F5F7569 		.ascii	"__uint32_t\000"
 3222      6E743332 
 3222      5F7400
 3223              	.LASF123:
 3224 021e 656E6572 		.ascii	"energy\000"
 3224      677900
 3225              	.LASF47:
 3226 0225 666F6C6C 		.ascii	"follower_lp_\000"
 3226      6F776572 
 3226      5F6C705F 
 3226      00
 3227              	.LASF4:
 3228 0232 5F5F696E 		.ascii	"__int16_t\000"
 3228      7431365F 
 3228      7400
 3229              	.LASF65:
 3230 023c 6C75745F 		.ascii	"lut_lp_coefficients\000"
 3230      6C705F63 
 3230      6F656666 
 3230      69636965 
 3230      6E747300 
 3231              	.LASF86:
 3232 0250 4C55545F 		.ascii	"LUT_2164_GAIN_SIZE\000"
 3232      32313634 
 3232      5F474149 
 3232      4E5F5349 
 3232      5A4500
 3233              	.LASF30:
 3234 0263 7365745F 		.ascii	"set_frequency\000"
 3234      66726571 
 3234      75656E63 
 3234      7900
 3235              	.LASF14:
 3236 0271 756E7369 		.ascii	"unsigned int\000"
 3236      676E6564 
 3236      20696E74 
 3236      00
 3237              	.LASF54:
 3238 027e 6E616976 		.ascii	"naive_\000"
 3238      655F00
ARM GAS  /tmp/ccN8ISTd.s 			page 60


 3239              	.LASF11:
 3240 0285 6C6F6E67 		.ascii	"long unsigned int\000"
 3240      20756E73 
 3240      69676E65 
 3240      6420696E 
 3240      7400
 3241              	.LASF102:
 3242 0297 6B446566 		.ascii	"kDefaultOffset\000"
 3242      61756C74 
 3242      4F666673 
 3242      657400
 3243              	.LASF42:
 3244 02a6 616E616C 		.ascii	"analysis_medium_\000"
 3244      79736973 
 3244      5F6D6564 
 3244      69756D5F 
 3244      00
 3245              	.LASF7:
 3246 02b7 73686F72 		.ascii	"short unsigned int\000"
 3246      7420756E 
 3246      7369676E 
 3246      65642069 
 3246      6E7400
 3247              	.LASF22:
 3248 02ca 73746D6C 		.ascii	"stmlib\000"
 3248      696200
 3249              	.LASF48:
 3250 02d1 73706563 		.ascii	"spectrum_\000"
 3250      7472756D 
 3250      5F00
 3251              	.LASF105:
 3252 02db 6B4D6178 		.ascii	"kMaxLinearGain\000"
 3252      4C696E65 
 3252      61724761 
 3252      696E00
 3253              	.LASF33:
 3254 02ea 7365745F 		.ascii	"set_resonance\000"
 3254      7265736F 
 3254      6E616E63 
 3254      6500
 3255              	.LASF98:
 3256 02f8 4C55545F 		.ascii	"LUT_LOG2_SIZE\000"
 3256      4C4F4732 
 3256      5F53495A 
 3256      4500
 3257              	.LASF119:
 3258 0306 63656E74 		.ascii	"centroid_numerator\000"
 3258      726F6964 
 3258      5F6E756D 
 3258      65726174 
 3258      6F7200
 3259              	.LASF82:
 3260 0319 4C55545F 		.ascii	"LUT_SVF_CUTOFF_SIZE\000"
 3260      5356465F 
 3260      4355544F 
 3260      46465F53 
 3260      495A4500 
ARM GAS  /tmp/ccN8ISTd.s 			page 61


 3261              	.LASF108:
 3262 032d 626F6F6C 		.ascii	"bool\000"
 3262      00
 3263              	.LASF107:
 3264 0332 6B536368 		.ascii	"kSchmittTriggerThreshold\000"
 3264      6D697474 
 3264      54726967 
 3264      67657254 
 3264      68726573 
 3265              	.LASF53:
 3266 034b 74617267 		.ascii	"target_frequency_amount_\000"
 3266      65745F66 
 3266      72657175 
 3266      656E6379 
 3266      5F616D6F 
 3267              	.LASF114:
 3268 0364 61756469 		.ascii	"audio\000"
 3268      6F00
 3269              	.LASF101:
 3270 036a 6B4E756D 		.ascii	"kNumBands\000"
 3270      42616E64 
 3270      7300
 3271              	.LASF21:
 3272 0374 73697A65 		.ascii	"sizetype\000"
 3272      74797065 
 3272      00
 3273              	.LASF125:
 3274 037d 474E5520 		.ascii	"GNU C++ 4.9.3 20150529 (release) [ARM/embedded-4_9-"
 3274      432B2B20 
 3274      342E392E 
 3274      33203230 
 3274      31353035 
 3275 03b0 6272616E 		.ascii	"branch revision 224288] -mcpu=cortex-m4 -mfloat-abi"
 3275      63682072 
 3275      65766973 
 3275      696F6E20 
 3275      32323432 
 3276 03e3 3D686172 		.ascii	"=hard -mfpu=fpv4-sp-d16 -mno-thumb-interwork -mthum"
 3276      64202D6D 
 3276      6670753D 
 3276      66707634 
 3276      2D73702D 
 3277 0416 62202D67 		.ascii	"b -ggdb -O2 -fomit-frame-pointer -falign-functions="
 3277      67646220 
 3277      2D4F3220 
 3277      2D666F6D 
 3277      69742D66 
 3278 0449 3136202D 		.ascii	"16 -fno-math-errno -fsingle-precision-constant -fno"
 3278      666E6F2D 
 3278      6D617468 
 3278      2D657272 
 3278      6E6F202D 
 3279 047c 2D727474 		.ascii	"-rtti\000"
 3279      6900
 3280              	.LASF31:
 3281 0482 5F5A4E37 		.ascii	"_ZN7streams3Svf4InitEv\000"
 3281      73747265 
ARM GAS  /tmp/ccN8ISTd.s 			page 62


 3281      616D7333 
 3281      53766634 
 3281      496E6974 
 3282              	.LASF72:
 3283 0499 5741565F 		.ascii	"WAV_DB_SIZE\000"
 3283      44425F53 
 3283      495A4500 
 3284              	.LASF122:
 3285 04a5 63656E74 		.ascii	"centroid\000"
 3285      726F6964 
 3285      00
 3286              	.LASF39:
 3287 04ae 5F5A4E4B 		.ascii	"_ZNK7streams3Svf2hpEv\000"
 3287      37737472 
 3287      65616D73 
 3287      33537666 
 3287      32687045 
 3288              	.LASF76:
 3289 04c4 4C55545F 		.ascii	"LUT_ENV_EXPO_SIZE\000"
 3289      454E565F 
 3289      4558504F 
 3289      5F53495A 
 3289      4500
 3290              	.LASF25:
 3291 04d6 66726571 		.ascii	"frequency_\000"
 3291      75656E63 
 3291      795F00
 3292              	.LASF29:
 3293 04e1 496E6974 		.ascii	"Init\000"
 3293      00
 3294              	.LASF124:
 3295 04e6 6572726F 		.ascii	"error\000"
 3295      7200
 3296              	.LASF118:
 3297 04ec 656E7665 		.ascii	"envelope\000"
 3297      6C6F7065 
 3297      00
 3298              	.LASF49:
 3299 04f5 63656E74 		.ascii	"centroid_\000"
 3299      726F6964 
 3299      5F00
 3300              	.LASF56:
 3301 04ff 7E466F6C 		.ascii	"~Follower\000"
 3301      6C6F7765 
 3301      7200
 3302              	.LASF127:
 3303 0509 2F686F6D 		.ascii	"/home/sbcu/Dropbox/pcb-layouts/axo-on-discovery-boa"
 3303      652F7362 
 3303      63752F44 
 3303      726F7062 
 3303      6F782F70 
 3304 053c 72642F61 		.ascii	"rd/axoloti/firmware\000"
 3304      786F6C6F 
 3304      74692F66 
 3304      69726D77 
 3304      61726500 
 3305              	.LASF89:
ARM GAS  /tmp/ccN8ISTd.s 			page 63


 3306 0550 4C55545F 		.ascii	"LUT_SOFT_KNEE\000"
 3306      534F4654 
 3306      5F4B4E45 
 3306      4500
 3307              	.LASF28:
 3308 055e 7E537666 		.ascii	"~Svf\000"
 3308      00
 3309              	.LASF116:
 3310 0563 6761696E 		.ascii	"gain\000"
 3310      00
 3311              	.LASF41:
 3312 0568 616E616C 		.ascii	"analysis_low_\000"
 3312      79736973 
 3312      5F6C6F77 
 3312      5F00
 3313              	.LASF18:
 3314 0576 696E7433 		.ascii	"int32_t\000"
 3314      325F7400 
 3315              	.LASF2:
 3316 057e 756E7369 		.ascii	"unsigned char\000"
 3316      676E6564 
 3316      20636861 
 3316      7200
 3317              	.LASF61:
 3318 058c 6F706572 		.ascii	"operator=\000"
 3318      61746F72 
 3318      3D00
 3319              	.LASF103:
 3320 0596 6B556E69 		.ascii	"kUnityGain\000"
 3320      74794761 
 3320      696E00
 3321              	.LASF97:
 3322 05a1 4C55545F 		.ascii	"LUT_LOG2\000"
 3322      4C4F4732 
 3322      00
 3323              	.LASF5:
 3324 05aa 73686F72 		.ascii	"short int\000"
 3324      7420696E 
 3324      7400
 3325              	.LASF40:
 3326 05b4 466F6C6C 		.ascii	"Follower\000"
 3326      6F776572 
 3326      00
 3327              	.LASF34:
 3328 05bd 5F5A4E37 		.ascii	"_ZN7streams3Svf13set_resonanceEs\000"
 3328      73747265 
 3328      616D7333 
 3328      53766631 
 3328      33736574 
 3329              	.LASF112:
 3330 05de 7461626C 		.ascii	"table\000"
 3330      6500
 3331              	.LASF67:
 3332 05e4 5F5A4E37 		.ascii	"_ZN7streams19lut_lp_coefficientsE\000"
 3332      73747265 
 3332      616D7331 
 3332      396C7574 
ARM GAS  /tmp/ccN8ISTd.s 			page 64


 3332      5F6C705F 
 3333              	.LASF79:
 3334 0606 4C55545F 		.ascii	"LUT_SQUARE_ROOT\000"
 3334      53515541 
 3334      52455F52 
 3334      4F4F5400 
 3335              	.LASF81:
 3336 0616 4C55545F 		.ascii	"LUT_SVF_CUTOFF\000"
 3336      5356465F 
 3336      4355544F 
 3336      464600
 3337              	.LASF117:
 3338 0625 6368616E 		.ascii	"channel\000"
 3338      6E656C00 
 3339              	.LASF52:
 3340 062d 74617267 		.ascii	"target_frequency_offset_\000"
 3340      65745F66 
 3340      72657175 
 3340      656E6379 
 3340      5F6F6666 
 3341              	.LASF19:
 3342 0646 75696E74 		.ascii	"uint32_t\000"
 3342      33325F74 
 3342      00
 3343              	.LASF63:
 3344 064f 5F5A4E37 		.ascii	"_ZN7streams8FolloweraSERKS0_\000"
 3344      73747265 
 3344      616D7338 
 3344      466F6C6C 
 3344      6F776572 
 3345              	.LASF62:
 3346 066c 5F5A4E37 		.ascii	"_ZN7streams3SvfaSERKS0_\000"
 3346      73747265 
 3346      616D7333 
 3346      53766661 
 3346      5345524B 
 3347              	.LASF70:
 3348 0684 5741565F 		.ascii	"WAV_GOMPERTZ_SIZE\000"
 3348      474F4D50 
 3348      4552545A 
 3348      5F53495A 
 3348      4500
 3349              	.LASF92:
 3350 0696 4C55545F 		.ascii	"LUT_ENV_INCREMENTS_SIZE\000"
 3350      454E565F 
 3350      494E4352 
 3350      454D454E 
 3350      54535F53 
 3351              	.LASF6:
 3352 06ae 5F5F7569 		.ascii	"__uint16_t\000"
 3352      6E743136 
 3352      5F7400
 3353              	.LASF58:
 3354 06b9 5F5A4E37 		.ascii	"_ZN7streams8Follower7ProcessEssPtS1_\000"
 3354      73747265 
 3354      616D7338 
 3354      466F6C6C 
ARM GAS  /tmp/ccN8ISTd.s 			page 65


 3354      6F776572 
 3355              	.LASF8:
 3356 06de 5F5F696E 		.ascii	"__int32_t\000"
 3356      7433325F 
 3356      7400
 3357              	.LASF73:
 3358 06e8 4C55545F 		.ascii	"LUT_ENV_LINEAR\000"
 3358      454E565F 
 3358      4C494E45 
 3358      415200
 3359              	.LASF106:
 3360 06f7 6B4D6178 		.ascii	"kMaxExponentialGain\000"
 3360      4578706F 
 3360      6E656E74 
 3360      69616C47 
 3360      61696E00 
 3361              	.LASF121:
 3362 070b 6761696E 		.ascii	"gain_mod\000"
 3362      5F6D6F64 
 3362      00
 3363              	.LASF93:
 3364 0714 4C55545F 		.ascii	"LUT_LP_COEFFICIENTS\000"
 3364      4C505F43 
 3364      4F454646 
 3364      49434945 
 3364      4E545300 
 3365              	.LASF27:
 3366 0728 64616D70 		.ascii	"damp_\000"
 3366      5F00
 3367              	.LASF80:
 3368 072e 4C55545F 		.ascii	"LUT_SQUARE_ROOT_SIZE\000"
 3368      53515541 
 3368      52455F52 
 3368      4F4F545F 
 3368      53495A45 
 3369              	.LASF66:
 3370 0743 5F5A4E37 		.ascii	"_ZN7streams15lut_square_rootE\000"
 3370      73747265 
 3370      616D7331 
 3370      356C7574 
 3370      5F737175 
 3371              	.LASF78:
 3372 0761 4C55545F 		.ascii	"LUT_ENV_QUARTIC_SIZE\000"
 3372      454E565F 
 3372      51554152 
 3372      5449435F 
 3372      53495A45 
 3373              	.LASF51:
 3374 0776 66726571 		.ascii	"frequency_amount_\000"
 3374      75656E63 
 3374      795F616D 
 3374      6F756E74 
 3374      5F00
 3375              	.LASF46:
 3376 0788 64656361 		.ascii	"decay_coefficient_\000"
 3376      795F636F 
 3376      65666669 
ARM GAS  /tmp/ccN8ISTd.s 			page 66


 3376      6369656E 
 3376      745F00
 3377              	.LASF96:
 3378 079b 4C55545F 		.ascii	"LUT_EXP2_SIZE\000"
 3378      45585032 
 3378      5F53495A 
 3378      4500
 3379              	.LASF55:
 3380 07a9 6F6E6C79 		.ascii	"only_filter_\000"
 3380      5F66696C 
 3380      7465725F 
 3380      00
 3381              	.LASF15:
 3382 07b6 75696E74 		.ascii	"uint8_t\000"
 3382      385F7400 
 3383              	.LASF91:
 3384 07be 4C55545F 		.ascii	"LUT_ENV_INCREMENTS\000"
 3384      454E565F 
 3384      494E4352 
 3384      454D454E 
 3384      545300
 3385              	.LASF60:
 3386 07d1 5F5A4E37 		.ascii	"_ZN7streams8Follower9ConfigureEbPlS1_\000"
 3386      73747265 
 3386      616D7338 
 3386      466F6C6C 
 3386      6F776572 
 3387              	.LASF64:
 3388 07f7 6C75745F 		.ascii	"lut_square_root\000"
 3388      73717561 
 3388      72655F72 
 3388      6F6F7400 
 3389              	.LASF84:
 3390 0807 4C55545F 		.ascii	"LUT_SVF_DAMP_SIZE\000"
 3390      5356465F 
 3390      44414D50 
 3390      5F53495A 
 3390      4500
 3391              	.LASF100:
 3392 0819 4C55545F 		.ascii	"LUT_LORENZ_RATE_SIZE\000"
 3392      4C4F5245 
 3392      4E5A5F52 
 3392      4154455F 
 3392      53495A45 
 3393              	.LASF88:
 3394 082e 4C55545F 		.ascii	"LUT_COMPRESSOR_RATIO_SIZE\000"
 3394      434F4D50 
 3394      52455353 
 3394      4F525F52 
 3394      4154494F 
 3395              	.LASF36:
 3396 0848 5F5A4E37 		.ascii	"_ZN7streams3Svf7ProcessEl\000"
 3396      73747265 
 3396      616D7333 
 3396      53766637 
 3396      50726F63 
 3397              	.LASF20:
ARM GAS  /tmp/ccN8ISTd.s 			page 67


 3398 0862 696E7436 		.ascii	"int64_t\000"
 3398      345F7400 
 3399              	.LASF111:
 3400 086a 7265736F 		.ascii	"resonance\000"
 3400      6E616E63 
 3400      6500
 3401              	.LASF57:
 3402 0874 5F5A4E37 		.ascii	"_ZN7streams8Follower4InitEv\000"
 3402      73747265 
 3402      616D7338 
 3402      466F6C6C 
 3402      6F776572 
 3403              	.LASF126:
 3404 0890 2E2F6D75 		.ascii	"./mutable_instruments/streams/follower.cpp\000"
 3404      7461626C 
 3404      655F696E 
 3404      73747275 
 3404      6D656E74 
 3405              	.LASF95:
 3406 08bb 4C55545F 		.ascii	"LUT_EXP2\000"
 3406      45585032 
 3406      00
 3407              	.LASF69:
 3408 08c4 5741565F 		.ascii	"WAV_GOMPERTZ\000"
 3408      474F4D50 
 3408      4552545A 
 3408      00
 3409              		.ident	"GCC: (GNU Tools for ARM Embedded Processors) 4.9.3 20150529 (release) [ARM/embedded-4_9-br
ARM GAS  /tmp/ccN8ISTd.s 			page 68


DEFINED SYMBOLS
                            *ABS*:00000000 follower.cpp
     /tmp/ccN8ISTd.s:20     .text:00000000 $t
     /tmp/ccN8ISTd.s:26     .text:00000000 _ZN7streams8Follower4InitEv
                       .ARM.exidx:00000000 $d
     /tmp/ccN8ISTd.s:158    .text:00000060 _ZN7streams8Follower7ProcessEssPtS1_
     /tmp/ccN8ISTd.s:554    .text:000002b4 $d
                     .debug_frame:00000010 $d

UNDEFINED SYMBOLS
_ZN7streams3Svf4InitEv
__aeabi_unwind_cpp_pr0
_ZN7streams3Svf7ProcessEl
_ZN7streams15lut_square_rootE
