ARM GAS  /tmp/ccN8ISTd.s 			page 1


   1              		.syntax unified
   2              		.cpu cortex-m4
   3              		.eabi_attribute 27, 1
   4              		.eabi_attribute 28, 1
   5              		.fpu fpv4-sp-d16
   6              		.eabi_attribute 20, 1
   7              		.eabi_attribute 21, 1
   8              		.eabi_attribute 23, 3
   9              		.eabi_attribute 24, 1
  10              		.eabi_attribute 25, 1
  11              		.eabi_attribute 26, 1
  12              		.eabi_attribute 30, 2
  13              		.eabi_attribute 34, 1
  14              		.eabi_attribute 18, 4
  15              		.thumb
  16              		.file	"follower.cpp"
  17              		.text
  18              	.Ltext0:
  19              		.cfi_sections	.debug_frame
  20              		.align	2
  21              		.p2align 4,,15
  22              		.global	_ZN7streams8Follower4InitEv
  23              		.thumb
  24              		.thumb_func
  25              		.type	_ZN7streams8Follower4InitEv, %function
  26              	_ZN7streams8Follower4InitEv:
  27              		.fnstart
  28              	.LFB34:
  29              		.file 1 "./mutable_instruments/streams/follower.cpp"
  30              		.loc 1 40 0
  31              		.cfi_startproc
  32              		@ args = 0, pretend = 0, frame = 0
  33              		@ frame_needed = 0, uses_anonymous_args = 0
  34              	.LVL0:
  35 0000 F8B5     		push	{r3, r4, r5, r6, r7, lr}
  36              		.save {r3, r4, r5, r6, r7, lr}
  37              		.cfi_def_cfa_offset 24
  38              		.cfi_offset 3, -24
  39              		.cfi_offset 4, -20
  40              		.cfi_offset 5, -16
  41              		.cfi_offset 6, -12
  42              		.cfi_offset 7, -8
  43              		.cfi_offset 14, -4
  44              		.loc 1 40 0
  45 0002 0446     		mov	r4, r0
  46              	.LBB26:
  47              		.loc 1 41 0
  48 0004 FFF7FEFF 		bl	_ZN7streams3Svf4InitEv
  49              	.LVL1:
  50              	.LBB27:
  51              	.LBB28:
  52              		.file 2 "./mutable_instruments/streams/svf.h"
  53              		.loc 2 50 0
  54 0008 2046     		mov	r0, r4
  55              		.loc 2 49 0
  56 000a 0025     		movs	r5, #0
  57              	.LBE28:
ARM GAS  /tmp/ccN8ISTd.s 			page 2


  58              	.LBE27:
  59              	.LBB31:
  60              	.LBB32:
  61              		.loc 2 45 0
  62 000c 4FF4B453 		mov	r3, #5760
  63              	.LBE32:
  64              	.LBE31:
  65              	.LBB34:
  66              	.LBB29:
  67              		.loc 2 50 0
  68 0010 0126     		movs	r6, #1
  69              	.LBE29:
  70              	.LBE34:
  71              	.LBB35:
  72              	.LBB33:
  73              		.loc 2 45 0
  74 0012 6380     		strh	r3, [r4, #2]	@ movhi
  75              	.LVL2:
  76              	.LBE33:
  77              	.LBE35:
  78              	.LBB36:
  79              	.LBB30:
  80              		.loc 2 49 0
  81 0014 A580     		strh	r5, [r4, #4]	@ movhi
  82              		.loc 2 50 0
  83 0016 00F81C6B 		strb	r6, [r0], #28
  84              	.LBE30:
  85              	.LBE36:
  86              		.loc 1 44 0
  87 001a FFF7FEFF 		bl	_ZN7streams3Svf4InitEv
  88              	.LVL3:
  89              	.LBB37:
  90              	.LBB38:
  91              		.loc 2 45 0
  92 001e 4FF42C53 		mov	r3, #11008
  93              	.LBE38:
  94              	.LBE37:
  95              	.LBB40:
  96              	.LBB41:
  97              		.loc 2 50 0
  98 0022 2677     		strb	r6, [r4, #28]
  99              	.LBE41:
 100              	.LBE40:
 101              	.LBB43:
 102              	.LBB39:
 103              		.loc 2 45 0
 104 0024 E383     		strh	r3, [r4, #30]	@ movhi
 105              	.LVL4:
 106              	.LBE39:
 107              	.LBE43:
 108              	.LBB44:
 109              	.LBB42:
 110              		.loc 2 50 0
 111 0026 2A46     		mov	r2, r5
 112              		.loc 2 49 0
 113 0028 2584     		strh	r5, [r4, #32]	@ movhi
 114              	.LBE42:
ARM GAS  /tmp/ccN8ISTd.s 			page 3


 115              	.LBE44:
 116              	.LBB45:
 117              		.loc 1 49 0
 118 002a 2946     		mov	r1, r5
 119 002c 2346     		mov	r3, r4
 120 002e 04F1AC00 		add	r0, r4, #172
 121              		.loc 1 50 0
 122 0032 0026     		movs	r6, #0
 123 0034 0027     		movs	r7, #0
 124              	.LVL5:
 125              	.L2:
 126 0036 0432     		adds	r2, r2, #4
 127              		.loc 1 48 0 discriminator 3
 128 0038 0C2A     		cmp	r2, #12
 129              		.loc 1 49 0 discriminator 3
 130 003a D963     		str	r1, [r3, #60]
 131 003c 9963     		str	r1, [r3, #56]
 132              		.loc 1 50 0 discriminator 3
 133 003e C3E91467 		strd	r6, [r3, #80]
 134              		.loc 1 51 0 discriminator 3
 135 0042 C3E92667 		strd	r6, [r3, #152]
 136              		.loc 1 49 0 discriminator 3
 137 0046 4FF00005 		mov	r5, #0
 138              		.loc 1 52 0 discriminator 3
 139 004a 40F8041F 		str	r1, [r0, #4]!
 140 004e 03F10803 		add	r3, r3, #8
 141              		.loc 1 48 0 discriminator 3
 142 0052 F0D1     		bne	.L2
 143              	.LBE45:
 144              		.loc 1 54 0
 145 0054 C4F8BC50 		str	r5, [r4, #188]
 146 0058 F8BD     		pop	{r3, r4, r5, r6, r7, pc}
 147              	.LBE26:
 148              		.cfi_endproc
 149              	.LFE34:
 150              		.fnend
 151              		.size	_ZN7streams8Follower4InitEv, .-_ZN7streams8Follower4InitEv
 152 005a 00BF     		.align	2
 153 005c AFF30080 		.p2align 4,,15
 154              		.global	_ZN7streams8Follower7ProcessEssPtS1_
 155              		.thumb
 156              		.thumb_func
 157              		.type	_ZN7streams8Follower7ProcessEssPtS1_, %function
 158              	_ZN7streams8Follower7ProcessEssPtS1_:
 159              		.fnstart
 160              	.LFB35:
 161              		.loc 1 61 0
 162              		.cfi_startproc
 163              		@ args = 4, pretend = 0, frame = 64
 164              		@ frame_needed = 0, uses_anonymous_args = 0
 165              	.LVL6:
 166 0060 2DE9F04F 		push	{r4, r5, r6, r7, r8, r9, r10, fp, lr}
 167              		.save {r4, r5, r6, r7, r8, r9, r10, fp, lr}
 168              		.cfi_def_cfa_offset 36
 169              		.cfi_offset 4, -36
 170              		.cfi_offset 5, -32
 171              		.cfi_offset 6, -28
ARM GAS  /tmp/ccN8ISTd.s 			page 4


 172              		.cfi_offset 7, -24
 173              		.cfi_offset 8, -20
 174              		.cfi_offset 9, -16
 175              		.cfi_offset 10, -12
 176              		.cfi_offset 11, -8
 177              		.cfi_offset 14, -4
 178              	.LBB46:
 179              		.loc 1 66 0
 180 0064 1146     		mov	r1, r2
 181              	.LVL7:
 182              		.loc 1 63 0
 183 0066 D0F8C470 		ldr	r7, [r0, #196]
 184              		.loc 1 64 0
 185 006a D0F8C060 		ldr	r6, [r0, #192]
 186              		.loc 1 63 0
 187 006e D0F8CC50 		ldr	r5, [r0, #204]
 188              		.loc 1 64 0
 189 0072 D0F8C820 		ldr	r2, [r0, #200]
 190              	.LVL8:
 191              		.loc 1 63 0
 192 0076 ED1B     		subs	r5, r5, r7
 193              		.loc 1 64 0
 194 0078 921B     		subs	r2, r2, r6
 195              	.LBE46:
 196              		.loc 1 61 0
 197 007a 0446     		mov	r4, r0
 198              		.pad #68
 199 007c 91B0     		sub	sp, sp, #68
 200              		.cfi_def_cfa_offset 104
 201              	.LBB62:
 202              		.loc 1 64 0
 203 007e 06EB2226 		add	r6, r6, r2, asr #8
 204              		.loc 1 63 0
 205 0082 07EB2527 		add	r7, r7, r5, asr #8
 206              		.loc 1 64 0
 207 0086 C0F8C060 		str	r6, [r0, #192]
 208              		.loc 1 63 0
 209 008a C0F8C470 		str	r7, [r0, #196]
 210              	.LBE62:
 211              		.loc 1 61 0
 212 008e 0B93     		str	r3, [sp, #44]
 213              	.LBB63:
 214              		.loc 1 66 0
 215 0090 FFF7FEFF 		bl	_ZN7streams3Svf7ProcessEl
 216              	.LVL9:
 217              		.loc 1 67 0
 218 0094 A169     		ldr	r1, [r4, #24]
 219 0096 04F11C00 		add	r0, r4, #28
 220 009a FFF7FEFF 		bl	_ZN7streams3Svf7ProcessEl
 221              	.LVL10:
 222 009e A646     		mov	lr, r4
 223              		.loc 1 71 0
 224 00a0 E36A     		ldr	r3, [r4, #44]
 225 00a2 0E93     		str	r3, [sp, #56]
 226              	.LBB47:
 227              	.LBB48:
 228              		.loc 1 82 0
ARM GAS  /tmp/ccN8ISTd.s 			page 5


 229 00a4 DEF83C60 		ldr	r6, [lr, #60]
 230 00a8 DEF83830 		ldr	r3, [lr, #56]
 231 00ac 2569     		ldr	r5, [r4, #16]
 232              	.LVL11:
 233              	.LBE48:
 234              	.LBE47:
 235              		.loc 1 72 0
 236 00ae 626B     		ldr	r2, [r4, #52]
 237 00b0 94F8D410 		ldrb	r1, [r4, #212]	@ zero_extendqisi2
 238              		.loc 1 70 0
 239 00b4 0D95     		str	r5, [sp, #52]
 240              	.LVL12:
 241              	.LBB55:
 242              		.loc 1 77 0
 243 00b6 4FF0000C 		mov	ip, #0
 244              	.LBB49:
 245              		.loc 1 82 0
 246 00ba B342     		cmp	r3, r6
 247 00bc 0A91     		str	r1, [sp, #40]
 248              	.LBE49:
 249              	.LBE55:
 250              		.loc 1 72 0
 251 00be 0F92     		str	r2, [sp, #60]
 252              	.LVL13:
 253 00c0 04F1B008 		add	r8, r4, #176
 254 00c4 04F1500A 		add	r10, r4, #80
 255              		.loc 1 75 0
 256 00c8 E146     		mov	r9, ip
 257              		.loc 1 74 0
 258 00ca E346     		mov	fp, ip
 259 00cc CDF80CC0 		str	ip, [sp, #12]
 260              	.LVL14:
 261              	.LBB56:
 262              	.LBB50:
 263              		.loc 1 79 0
 264 00d0 05FB05F5 		mul	r5, r5, r5
 265              	.LVL15:
 266              		.loc 1 82 0
 267 00d4 6CDA     		bge	.L7
 268              	.LVL16:
 269              	.L29:
 270              		.loc 1 82 0 is_stmt 0 discriminator 1
 271 00d6 B542     		cmp	r5, r6
 272 00d8 40F3DE80 		ble	.L11
 273              		.loc 1 82 0 discriminator 2
 274 00dc DAE90023 		ldrd	r2, [r10]
 275              		.loc 1 83 0 is_stmt 1 discriminator 2
 276 00e0 E917     		asrs	r1, r5, #31
 277              		.loc 1 82 0 discriminator 2
 278 00e2 AA42     		cmp	r2, r5
 279 00e4 8B41     		sbcs	r3, r3, r1
 280              		.loc 1 83 0 discriminator 2
 281 00e6 2846     		mov	r0, r5
 282              		.loc 1 82 0 discriminator 2
 283 00e8 C0F2DD80 		blt	.L28
 284              	.L9:
 285              		.loc 1 87 0 discriminator 1
ARM GAS  /tmp/ccN8ISTd.s 			page 6


 286 00ec B542     		cmp	r5, r6
 287 00ee 40F3D380 		ble	.L11
 288              	.L26:
 289 00f2 DAE90023 		ldrd	r2, [r10]
 290 00f6 CDE90423 		strd	r2, [sp, #16]
 291              	.L10:
 292              		.loc 1 94 0
 293 00fa DEE92623 		ldrd	r2, [lr, #152]
 294              		.loc 1 90 0
 295 00fe CEF83860 		str	r6, [lr, #56]
 296              		.loc 1 94 0
 297 0102 DDE90467 		ldrd	r6, [sp, #16]
 298 0106 B61A     		subs	r6, r6, r2
 299 0108 67EB0307 		sbc	r7, r7, r3
 300              		.loc 1 95 0
 301 010c 012E     		cmp	r6, #1
 302 010e 77F10001 		sbcs	r1, r7, #0
 303              		.loc 1 94 0
 304 0112 CDE90623 		strd	r2, [sp, #24]
 305              		.loc 1 91 0
 306 0116 CEF83C50 		str	r5, [lr, #60]
 307              		.loc 1 95 0
 308 011a C0F2A380 		blt	.L12
 309              		.loc 1 96 0
 310 011e DEF86C10 		ldr	r1, [lr, #108]
 311 0122 DEF86800 		ldr	r0, [lr, #104]
 312 0126 06FB01F1 		mul	r1, r6, r1
 313 012a A0FB0623 		umull	r2, r3, r0, r6
 314 012e 00FB0711 		mla	r1, r0, r7, r1
 315 0132 0B44     		add	r3, r3, r1
 316 0134 D10F     		lsrs	r1, r2, #31
 317 0136 41EA4301 		orr	r1, r1, r3, lsl #1
 318 013a DB17     		asrs	r3, r3, #31
 319 013c 0193     		str	r3, [sp, #4]
 320 013e 0091     		str	r1, [sp]
 321 0140 DDE90623 		ldrd	r2, [sp, #24]
 322 0144 DDE90001 		ldrd	r0, [sp]
 323 0148 1218     		adds	r2, r2, r0
 324 014a 4B41     		adcs	r3, r3, r1
 325 014c CEE92623 		strd	r2, [lr, #152]
 326              	.L13:
 327              		.loc 1 100 0
 328 0150 510B     		lsrs	r1, r2, #13
 329 0152 41EAC341 		orr	r1, r1, r3, lsl #19
 330 0156 8B44     		add	fp, fp, r1
 331              	.LVL17:
 332              		.loc 1 103 0
 333 0158 0A99     		ldr	r1, [sp, #40]
 334 015a 59B3     		cbz	r1, .L14
 335              		.loc 1 104 0
 336 015c D8F80010 		ldr	r1, [r8]
 337              	.LVL18:
 338 0160 521A     		subs	r2, r2, r1
 339              	.LVL19:
 340 0162 63EBE173 		sbc	r3, r3, r1, asr #31
 341              		.loc 1 105 0
 342 0166 9209     		lsrs	r2, r2, #6
ARM GAS  /tmp/ccN8ISTd.s 			page 7


 343 0168 42EA8362 		orr	r2, r2, r3, lsl #26
 344 016c 1144     		add	r1, r1, r2
 345 016e C8F80010 		str	r1, [r8]
 346              	.L15:
 347              		.loc 1 111 0 discriminator 2
 348 0172 039A     		ldr	r2, [sp, #12]
 349              		.loc 1 110 0 discriminator 2
 350 0174 4B10     		asrs	r3, r1, #1
 351 0176 0CFB03F3 		mul	r3, ip, r3
 352              	.LBE50:
 353              		.loc 1 77 0 discriminator 2
 354 017a 0CF1010C 		add	ip, ip, #1
 355              	.LVL20:
 356              	.LBB51:
 357              		.loc 1 111 0 discriminator 2
 358 017e 02EB2142 		add	r2, r2, r1, asr #16
 359              	.LBE51:
 360              		.loc 1 77 0 discriminator 2
 361 0182 BCF1030F 		cmp	ip, #3
 362              	.LBB52:
 363              		.loc 1 111 0 discriminator 2
 364 0186 0392     		str	r2, [sp, #12]
 365              		.loc 1 110 0 discriminator 2
 366 0188 09EB2349 		add	r9, r9, r3, asr #16
 367              	.LVL21:
 368 018c 0EF1080E 		add	lr, lr, #8
 369 0190 08F10408 		add	r8, r8, #4
 370 0194 0AF1080A 		add	r10, r10, #8
 371              	.LBE52:
 372              		.loc 1 77 0 discriminator 2
 373 0198 1AD0     		beq	.L16
 374 019a 0DAB     		add	r3, sp, #52
 375              	.LBB53:
 376              		.loc 1 82 0
 377 019c DEF83C60 		ldr	r6, [lr, #60]
 378 01a0 53F82C50 		ldr	r5, [r3, ip, lsl #2]
 379              	.LVL22:
 380 01a4 DEF83830 		ldr	r3, [lr, #56]
 381 01a8 B342     		cmp	r3, r6
 382              		.loc 1 79 0
 383 01aa 05FB05F5 		mul	r5, r5, r5
 384              	.LVL23:
 385              		.loc 1 82 0
 386 01ae 92DB     		blt	.L29
 387              	.LVL24:
 388              	.L7:
 389              		.loc 1 87 0
 390 01b0 9FDC     		bgt	.L26
 391 01b2 9BE7     		b	.L9
 392              	.L14:
 393              		.loc 1 107 0
 394 01b4 DDE90423 		ldrd	r2, [sp, #16]
 395 01b8 D8F80010 		ldr	r1, [r8]
 396              	.LVL25:
 397 01bc 521A     		subs	r2, r2, r1
 398              	.LVL26:
 399 01be 63EBE173 		sbc	r3, r3, r1, asr #31
ARM GAS  /tmp/ccN8ISTd.s 			page 8


 400              		.loc 1 108 0
 401 01c2 920A     		lsrs	r2, r2, #10
 402 01c4 42EA8352 		orr	r2, r2, r3, lsl #22
 403 01c8 1144     		add	r1, r1, r2
 404              	.LVL27:
 405 01ca C8F80010 		str	r1, [r8]
 406              	.LVL28:
 407 01ce D0E7     		b	.L15
 408              	.LVL29:
 409              	.L16:
 410              	.LBE53:
 411              	.LBE56:
 412              	.LBB57:
 413              	.LBB58:
 414              		.file 3 "./mutable_instruments/stmlib/utils/dsp.h"
 415              		.loc 3 101 0
 416 01d0 384A     		ldr	r2, .L31
 417              	.LVL30:
 418 01d2 039F     		ldr	r7, [sp, #12]
 419 01d4 8BF3100B 		usat	fp, #16, fp
 420              	.LVL31:
 421              	.LBE58:
 422              	.LBE57:
 423              		.loc 1 120 0
 424 01d8 4FEA0B4B 		lsl	fp, fp, #16
 425              	.LVL32:
 426              	.LBB60:
 427              	.LBB59:
 428              		.loc 3 101 0
 429 01dc 4FEA1B63 		lsr	r3, fp, #24
 430              		.loc 3 102 0
 431 01e0 911C     		adds	r1, r2, #2
 432              		.loc 3 101 0
 433 01e2 32F81320 		ldrh	r2, [r2, r3, lsl #1]
 434              	.LVL33:
 435              		.loc 3 102 0
 436 01e6 31F81310 		ldrh	r1, [r1, r3, lsl #1]
 437              		.loc 3 103 0
 438 01ea 4FEA1B2B 		lsr	fp, fp, #8
 439              	.LVL34:
 440 01ee 1FFA8BF3 		uxth	r3, fp
 441              	.LVL35:
 442 01f2 C2EB010B 		rsb	fp, r2, r1
 443 01f6 03FB0BFB 		mul	fp, r3, fp
 444 01fa 02EB1B4B 		add	fp, r2, fp, lsr #16
 445              	.LBE59:
 446              	.LBE60:
 447              		.loc 1 120 0
 448 01fe CBF34E0B 		ubfx	fp, fp, #1, #15
 449              	.LVL36:
 450              		.loc 1 121 0
 451 0202 4B46     		mov	r3, r9
 452 0204 3A46     		mov	r2, r7
 453              	.LVL37:
 454              		.loc 1 122 0
 455 0206 BBF5805F 		cmp	fp, #4096
 456              		.loc 1 121 0
ARM GAS  /tmp/ccN8ISTd.s 			page 9


 457 020a 4FEAC333 		lsl	r3, r3, #15
 458 020e 02F10102 		add	r2, r2, #1
 459 0212 93FBF2F3 		sdiv	r3, r3, r2
 460              	.LVL38:
 461              		.loc 1 122 0
 462 0216 07DC     		bgt	.L27
 463              		.loc 1 124 0
 464 0218 BBF5006F 		cmp	fp, #2048
 465 021c 46DD     		ble	.L30
 466              		.loc 1 125 0
 467 021e D4F8BC20 		ldr	r2, [r4, #188]
 468 0222 9B1A     		subs	r3, r3, r2
 469              	.LVL39:
 470 0224 02EB2323 		add	r3, r2, r3, asr #8
 471              	.L27:
 472 0228 C4F8BC30 		str	r3, [r4, #188]
 473              	.L19:
 474              		.loc 1 129 0
 475 022c D4F8C410 		ldr	r1, [r4, #196]
 476 0230 D4F8C020 		ldr	r2, [r4, #192]
 477 0234 01FB03F3 		mul	r3, r1, r3
 478 0238 02EBE333 		add	r3, r2, r3, asr #15
 479              		.loc 1 128 0
 480 023c CBEBCB3B 		rsb	fp, fp, fp, lsl #15
 481              	.LVL40:
 482              		.loc 1 129 0
 483 0240 1A9A     		ldr	r2, [sp, #104]
 484              		.loc 1 128 0
 485 0242 0B99     		ldr	r1, [sp, #44]
 486 0244 4FEAEB3B 		asr	fp, fp, #15
 487              		.loc 1 129 0
 488 0248 9BB2     		uxth	r3, r3
 489              		.loc 1 128 0
 490 024a A1F800B0 		strh	fp, [r1]	@ movhi
 491              		.loc 1 129 0
 492 024e 1380     		strh	r3, [r2]	@ movhi
 493              		.loc 1 131 0
 494 0250 0A9A     		ldr	r2, [sp, #40]
 495 0252 22B1     		cbz	r2, .L6
 496              		.loc 1 132 0
 497 0254 0B80     		strh	r3, [r1]	@ movhi
 498              		.loc 1 133 0
 499 0256 1A9B     		ldr	r3, [sp, #104]
 500 0258 4FF6FF72 		movw	r2, #65535
 501 025c 1A80     		strh	r2, [r3]	@ movhi
 502              	.L6:
 503              	.LBE63:
 504              		.loc 1 135 0
 505 025e 11B0     		add	sp, sp, #68
 506              		.cfi_remember_state
 507              		.cfi_def_cfa_offset 36
 508              		@ sp needed
 509 0260 BDE8F08F 		pop	{r4, r5, r6, r7, r8, r9, r10, fp, pc}
 510              	.LVL41:
 511              	.L12:
 512              		.cfi_restore_state
 513              	.LBB64:
ARM GAS  /tmp/ccN8ISTd.s 			page 10


 514              	.LBB61:
 515              	.LBB54:
 516              		.loc 1 98 0
 517 0264 DEF88410 		ldr	r1, [lr, #132]
 518 0268 DEF88000 		ldr	r0, [lr, #128]
 519 026c 06FB01F1 		mul	r1, r6, r1
 520 0270 A0FB0623 		umull	r2, r3, r0, r6
 521 0274 00FB0711 		mla	r1, r0, r7, r1
 522 0278 0B44     		add	r3, r3, r1
 523 027a D10F     		lsrs	r1, r2, #31
 524 027c 41EA4301 		orr	r1, r1, r3, lsl #1
 525 0280 DB17     		asrs	r3, r3, #31
 526 0282 0993     		str	r3, [sp, #36]
 527 0284 0891     		str	r1, [sp, #32]
 528 0286 DDE90623 		ldrd	r2, [sp, #24]
 529 028a DDE90801 		ldrd	r0, [sp, #32]
 530 028e 1218     		adds	r2, r2, r0
 531 0290 4B41     		adcs	r3, r3, r1
 532 0292 CEE92623 		strd	r2, [lr, #152]
 533 0296 5BE7     		b	.L13
 534              	.L11:
 535              		.loc 1 88 0
 536 0298 3246     		mov	r2, r6
 537 029a F317     		asrs	r3, r6, #31
 538 029c CDE90423 		strd	r2, [sp, #16]
 539 02a0 CAE90023 		strd	r2, [r10]
 540 02a4 29E7     		b	.L10
 541              	.LVL42:
 542              	.L28:
 543              		.loc 1 84 0
 544 02a6 CAE90001 		strd	r0, [r10]
 545 02aa 1FE7     		b	.L9
 546              	.LVL43:
 547              	.L30:
 548 02ac D4F8BC30 		ldr	r3, [r4, #188]
 549              	.LVL44:
 550 02b0 BCE7     		b	.L19
 551              	.L32:
 552 02b2 00BF     		.align	2
 553              	.L31:
 554 02b4 00000000 		.word	_ZN7streams15lut_square_rootE
 555              	.LBE54:
 556              	.LBE61:
 557              	.LBE64:
 558              		.cfi_endproc
 559              	.LFE35:
 560              		.fnend
 561              		.size	_ZN7streams8Follower7ProcessEssPtS1_, .-_ZN7streams8Follower7ProcessEssPtS1_
 562              	.Letext0:
 563              		.file 4 "/home/sbcu/Dropbox/pcb-layouts/axo-on-discovery-board/axoloti/platform_linux/arm-none-eab
 564              		.file 5 "/home/sbcu/Dropbox/pcb-layouts/axo-on-discovery-board/axoloti/platform_linux/arm-none-eab
 565              		.file 6 "./mutable_instruments/stmlib/stmlib.h"
 566              		.file 7 "./mutable_instruments/streams/meta_parameters.h"
 567              		.file 8 "./mutable_instruments/streams/follower.h"
 568              		.file 9 "./mutable_instruments/streams/resources.h"
 569              		.file 10 "./mutable_instruments/streams/gain.h"