ARM GAS  /tmp/ccHjaXes.s 			page 1


   1              		.syntax unified
   2              		.cpu cortex-m4
   3              		.eabi_attribute 27, 1
   4              		.eabi_attribute 28, 1
   5              		.fpu fpv4-sp-d16
   6              		.eabi_attribute 20, 1
   7              		.eabi_attribute 21, 1
   8              		.eabi_attribute 23, 3
   9              		.eabi_attribute 24, 1
  10              		.eabi_attribute 25, 1
  11              		.eabi_attribute 26, 1
  12              		.eabi_attribute 30, 2
  13              		.eabi_attribute 34, 1
  14              		.eabi_attribute 18, 4
  15              		.thumb
  16              		.file	"frame_transformation.cpp"
  17              		.text
  18              	.Ltext0:
  19              		.cfi_sections	.debug_frame
  20              		.align	2
  21              		.p2align 4,,15
  22              		.global	_ZN6clouds19FrameTransformation4InitEPfll
  23              		.thumb
  24              		.thumb_func
  25              		.type	_ZN6clouds19FrameTransformation4InitEPfll, %function
  26              	_ZN6clouds19FrameTransformation4InitEPfll:
  27              		.fnstart
  28              	.LFB614:
  29              		.file 1 "./mutable_instruments/clouds/dsp/pvoc/frame_transformation.cpp"
  30              		.loc 1 48 0
  31              		.cfi_startproc
  32              		@ args = 0, pretend = 0, frame = 0
  33              		@ frame_needed = 0, uses_anonymous_args = 0
  34              		@ link register save eliminated.
  35              	.LVL0:
  36 0000 70B4     		push	{r4, r5, r6}
  37              		.cfi_def_cfa_offset 12
  38              		.cfi_offset 4, -12
  39              		.cfi_offset 5, -8
  40              		.cfi_offset 6, -4
  41              	.LBB232:
  42              		.loc 1 50 0
  43 0002 5410     		asrs	r4, r2, #1
  44 0004 103C     		subs	r4, r4, #16
  45              	.LBB233:
  46              		.loc 1 52 0
  47 0006 002B     		cmp	r3, #0
  48              	.LBE233:
  49              		.loc 1 49 0
  50 0008 0260     		str	r2, [r0]
  51              		.loc 1 50 0
  52 000a 8460     		str	r4, [r0, #8]
  53              	.LVL1:
  54              	.LBB234:
  55              		.loc 1 52 0
  56 000c 0ADD     		ble	.L6
  57 000e 9D1C     		adds	r5, r3, #2
ARM GAS  /tmp/ccHjaXes.s 			page 2


  58 0010 00EB8505 		add	r5, r0, r5, lsl #2
  59 0014 A600     		lsls	r6, r4, #2
  60 0016 00F10802 		add	r2, r0, #8
  61              	.LVL2:
  62              	.L5:
  63              		.loc 1 53 0 discriminator 3
  64 001a 42F8041F 		str	r1, [r2, #4]!
  65              		.loc 1 52 0 discriminator 3
  66 001e AA42     		cmp	r2, r5
  67 0020 3144     		add	r1, r1, r6
  68 0022 FAD1     		bne	.L5
  69              	.L6:
  70              	.LBE234:
  71              		.loc 1 55 0
  72 0024 5D1C     		adds	r5, r3, #1
  73 0026 00EB8505 		add	r5, r0, r5, lsl #2
  74 002a 013B     		subs	r3, r3, #1
  75              	.LVL3:
  76 002c 6A68     		ldr	r2, [r5, #4]
  77 002e 8262     		str	r2, [r0, #40]
  78              		.loc 1 59 0
  79 0030 0021     		movs	r1, #0
  80              		.loc 1 57 0
  81 0032 02EB4402 		add	r2, r2, r4, lsl #1
  82              	.LBB235:
  83              	.LBB236:
  84              		.loc 1 64 0
  85 0036 8B42     		cmp	r3, r1
  86              	.LBE236:
  87              	.LBE235:
  88              		.loc 1 57 0
  89 0038 C262     		str	r2, [r0, #44]
  90              		.loc 1 56 0
  91 003a 4360     		str	r3, [r0, #4]
  92              		.loc 1 59 0
  93 003c 80F83010 		strb	r1, [r0, #48]
  94              	.LVL4:
  95              	.LBB244:
  96              	.LBB243:
  97              		.loc 1 64 0
  98 0040 0DDD     		ble	.L1
  99              	.LBB237:
 100              	.LBB238:
 101              	.LBB239:
 102              		.file 2 "/home/sbcu/Dropbox/pcb-layouts/axo-on-discovery-board/axoloti/platform_linux/arm-none-eab
 103              		.loc 2 704 0
 104 0042 0021     		movs	r1, #0
 105 0044 A400     		lsls	r4, r4, #2
 106 0046 0830     		adds	r0, r0, #8
 107              	.LVL5:
 108              	.L8:
 109              	.LBE239:
 110              	.LBE238:
 111              	.LBE237:
 112              		.loc 1 65 0
 113 0048 50F8043F 		ldr	r3, [r0, #4]!
 114 004c 1A19     		adds	r2, r3, r4
ARM GAS  /tmp/ccHjaXes.s 			page 3


 115              	.LVL6:
 116              	.LBB242:
 117              	.LBB241:
 118              	.LBB240:
 119              		.loc 2 703 0
 120 004e 9342     		cmp	r3, r2
 121 0050 03D0     		beq	.L10
 122              	.LVL7:
 123              	.L9:
 124              		.loc 2 704 0
 125 0052 43F8041B 		str	r1, [r3], #4	@ float
 126              	.LVL8:
 127              		.loc 2 703 0
 128 0056 9A42     		cmp	r2, r3
 129 0058 FBD1     		bne	.L9
 130              	.L10:
 131              	.LBE240:
 132              	.LBE241:
 133              	.LBE242:
 134              		.loc 1 64 0
 135 005a A842     		cmp	r0, r5
 136 005c F4D1     		bne	.L8
 137              	.LVL9:
 138              	.L1:
 139              	.LBE243:
 140              	.LBE244:
 141              	.LBE232:
 142              		.loc 1 61 0
 143 005e 70BC     		pop	{r4, r5, r6}
 144              		.cfi_restore 6
 145              		.cfi_restore 5
 146              		.cfi_restore 4
 147              		.cfi_def_cfa_offset 0
 148 0060 7047     		bx	lr
 149              		.cfi_endproc
 150              	.LFE614:
 151              		.cantunwind
 152              		.fnend
 153              		.size	_ZN6clouds19FrameTransformation4InitEPfll, .-_ZN6clouds19FrameTransformation4InitEPfll
 154 0062 00BF     		.align	2
 155 0064 AFF30080 		.p2align 4,,15
 155      AFF30080 
 155      AFF30080 
 156              		.global	_ZN6clouds19FrameTransformation5ResetEv
 157              		.thumb
 158              		.thumb_func
 159              		.type	_ZN6clouds19FrameTransformation5ResetEv, %function
 160              	_ZN6clouds19FrameTransformation5ResetEv:
 161              		.fnstart
 162              	.LFB615:
 163              		.loc 1 63 0
 164              		.cfi_startproc
 165              		@ args = 0, pretend = 0, frame = 0
 166              		@ frame_needed = 0, uses_anonymous_args = 0
 167              		@ link register save eliminated.
 168              	.LVL10:
 169              	.LBB245:
ARM GAS  /tmp/ccHjaXes.s 			page 4


 170              		.loc 1 64 0
 171 0070 4368     		ldr	r3, [r0, #4]
 172 0072 002B     		cmp	r3, #0
 173 0074 14DD     		ble	.L27
 174              	.LBE245:
 175              		.loc 1 63 0
 176 0076 30B4     		push	{r4, r5}
 177              		.cfi_def_cfa_offset 8
 178              		.cfi_offset 4, -8
 179              		.cfi_offset 5, -4
 180 0078 0446     		mov	r4, r0
 181 007a 0233     		adds	r3, r3, #2
 182 007c 54F8085F 		ldr	r5, [r4, #8]!
 183              	.LBB252:
 184              	.LBB246:
 185              	.LBB247:
 186              	.LBB248:
 187              		.loc 2 704 0
 188 0080 0021     		movs	r1, #0
 189 0082 00EB8300 		add	r0, r0, r3, lsl #2
 190              	.LVL11:
 191 0086 AD00     		lsls	r5, r5, #2
 192              	.LVL12:
 193              	.L19:
 194              	.LBE248:
 195              	.LBE247:
 196              	.LBE246:
 197              		.loc 1 65 0
 198 0088 54F8043F 		ldr	r3, [r4, #4]!
 199 008c 5A19     		adds	r2, r3, r5
 200              	.LVL13:
 201              	.LBB251:
 202              	.LBB250:
 203              	.LBB249:
 204              		.loc 2 703 0
 205 008e 9342     		cmp	r3, r2
 206 0090 03D0     		beq	.L22
 207              	.LVL14:
 208              	.L21:
 209              		.loc 2 704 0
 210 0092 43F8041B 		str	r1, [r3], #4	@ float
 211              	.LVL15:
 212              		.loc 2 703 0
 213 0096 9A42     		cmp	r2, r3
 214 0098 FBD1     		bne	.L21
 215              	.L22:
 216              	.LBE249:
 217              	.LBE250:
 218              	.LBE251:
 219              		.loc 1 64 0
 220 009a 8442     		cmp	r4, r0
 221 009c F4D1     		bne	.L19
 222              	.LBE252:
 223              		.loc 1 67 0
 224 009e 30BC     		pop	{r4, r5}
 225              		.cfi_restore 5
 226              		.cfi_restore 4
ARM GAS  /tmp/ccHjaXes.s 			page 5


 227              		.cfi_def_cfa_offset 0
 228              	.LVL16:
 229              	.L27:
 230 00a0 7047     		bx	lr
 231              		.cfi_endproc
 232              	.LFE615:
 233              		.cantunwind
 234              		.fnend
 235              		.size	_ZN6clouds19FrameTransformation5ResetEv, .-_ZN6clouds19FrameTransformation5ResetEv
 236 00a2 00BF     		.align	2
 237 00a4 AFF30080 		.p2align 4,,15
 237      AFF30080 
 237      AFF30080 
 238              		.global	_ZN6clouds19FrameTransformation18RectangularToPolarEPf
 239              		.thumb
 240              		.thumb_func
 241              		.type	_ZN6clouds19FrameTransformation18RectangularToPolarEPf, %function
 242              	_ZN6clouds19FrameTransformation18RectangularToPolarEPf:
 243              		.fnstart
 244              	.LFB617:
 245              		.loc 1 108 0
 246              		.cfi_startproc
 247              		@ args = 0, pretend = 0, frame = 0
 248              		@ frame_needed = 0, uses_anonymous_args = 0
 249              	.LVL17:
 250 00b0 2DE9F047 		push	{r4, r5, r6, r7, r8, r9, r10, lr}
 251              		.cfi_def_cfa_offset 32
 252              		.cfi_offset 4, -32
 253              		.cfi_offset 5, -28
 254              		.cfi_offset 6, -24
 255              		.cfi_offset 7, -20
 256              		.cfi_offset 8, -16
 257              		.cfi_offset 9, -12
 258              		.cfi_offset 10, -8
 259              		.cfi_offset 14, -4
 260              	.LBB269:
 261              		.loc 1 110 0
 262 00b4 0568     		ldr	r5, [r0]
 263              	.LBB270:
 264              		.loc 1 112 0
 265 00b6 8768     		ldr	r7, [r0, #8]
 266              	.LBE270:
 267              		.loc 1 110 0
 268 00b8 6D10     		asrs	r5, r5, #1
 269              	.LBB298:
 270              		.loc 1 112 0
 271 00ba 012F     		cmp	r7, #1
 272              	.LBE298:
 273              		.loc 1 110 0
 274 00bc 4FEA8505 		lsl	r5, r5, #2
 275              	.LVL18:
 276              	.LBB299:
 277              		.loc 1 112 0
 278 00c0 40F38C80 		ble	.L29
 279 00c4 836A     		ldr	r3, [r0, #40]
 280 00c6 C66A     		ldr	r6, [r0, #44]
 281              	.LBB271:
ARM GAS  /tmp/ccHjaXes.s 			page 6


 282              	.LBB272:
 283              	.LBB273:
 284              		.file 3 "./mutable_instruments/stmlib/dsp/atan.h"
 285              		.loc 3 74 0
 286 00c8 DFF818E1 		ldr	lr, .L42+4
 287 00cc DFED444A 		flds	s9, .L42
 288 00d0 0D44     		add	r5, r5, r1
 289              	.LVL19:
 290              		.loc 3 57 0
 291 00d2 4FF0000A 		mov	r10, #0
 292 00d6 0431     		adds	r1, r1, #4
 293              	.LVL20:
 294 00d8 981C     		adds	r0, r3, #2
 295              	.LVL21:
 296              	.LBE273:
 297              	.LBE272:
 298              	.LBE271:
 299              		.loc 1 112 0
 300 00da 0124     		movs	r4, #1
 301              	.LBB294:
 302              	.LBB292:
 303              	.LBB290:
 304              	.LBB274:
 305              	.LBB275:
 306              		.file 4 "./mutable_instruments/stmlib/dsp/rsqrt.h"
 307              		.loc 4 60 0
 308 00dc F6EE005A 		fconsts	s11, #96
 309              		.loc 4 61 0
 310 00e0 B7EE085A 		fconsts	s10, #120
 311 00e4 3EE0     		b	.L36
 312              	.LVL22:
 313              	.L31:
 314              		.loc 4 60 0
 315 00e6 67EE257A 		fmuls	s15, s14, s11
 316              	.LVL23:
 317              		.loc 4 61 0
 318 00ea 04EE103A 		fmsr	s8, r3
 319 00ee 03EE903A 		fmsr	s7, r3
 320 00f2 64EE277A 		fmuls	s15, s8, s15
 321 00f6 B0EE454A 		fcpys	s8, s10
 322 00fa A3EEE74A 		vfms.f32	s8, s7, s15
 323              	.LBE275:
 324              	.LBE274:
 325              		.loc 3 71 0
 326 00fe B4EEE66A 		fcmpes	s12, s13
 327              	.LBB286:
 328              	.LBB282:
 329              		.loc 4 61 0
 330 0102 F0EE447A 		fcpys	s15, s8
 331 0106 63EEA77A 		fmuls	s15, s7, s15
 332              	.LVL24:
 333              	.LBE282:
 334              	.LBE286:
 335              		.loc 3 71 0
 336 010a F1EE10FA 		fmstat
 337              		.loc 3 62 0
 338 010e 27EE277A 		fmuls	s14, s14, s15
ARM GAS  /tmp/ccHjaXes.s 			page 7


 339              	.LVL25:
 340 0112 81ED007A 		fsts	s14, [r1]
 341              	.LVL26:
 342              		.loc 3 71 0
 343 0116 54D5     		bpl	.L40
 344              		.loc 3 72 0
 345 0118 67EE867A 		fmuls	s15, s15, s12
 346              	.LVL27:
 347 011c B0EE657A 		fcpys	s14, s11
 348 0120 A7EEA47A 		vfma.f32	s14, s15, s9
 349 0124 FCEEC77A 		ftouizs	s15, s14
 350 0128 17EE903A 		fmrs	r3, s15	@ int
 351              	.LVL28:
 352 012c 3EF81330 		ldrh	r3, [lr, r3, lsl #1]
 353 0130 C3F58043 		rsb	r3, r3, #16384
 354 0134 1FFA83FC 		uxth	ip, r3
 355              	.LVL29:
 356              	.L35:
 357 0138 B2EB0902 		subs	r2, r2, r9
 358              	.LVL30:
 359 013c 18BF     		it	ne
 360 013e 0122     		movne	r2, #1
 361              	.LVL31:
 362 0140 5342     		negs	r3, r2
 363 0142 8CEA0303 		eor	r3, ip, r3
 364 0146 02EB8832 		add	r2, r2, r8, lsl #14
 365              	.LVL32:
 366              		.loc 3 79 0
 367 014a 1A44     		add	r2, r2, r3
 368 014c 92B2     		uxth	r2, r2
 369              	.LVL33:
 370              	.L32:
 371              	.LBE290:
 372              	.LBE292:
 373              		.loc 1 114 0
 374 014e 0388     		ldrh	r3, [r0]
 375              	.LBE294:
 376              		.loc 1 112 0
 377 0150 0134     		adds	r4, r4, #1
 378              	.LVL34:
 379              	.LBB295:
 380              		.loc 1 114 0
 381 0152 D31A     		subs	r3, r2, r3
 382              	.LBE295:
 383              		.loc 1 112 0
 384 0154 BC42     		cmp	r4, r7
 385              	.LBB296:
 386              		.loc 1 114 0
 387 0156 26F8023F 		strh	r3, [r6, #2]!	@ movhi
 388 015a 01F10401 		add	r1, r1, #4
 389              		.loc 1 115 0
 390 015e 20F8022B 		strh	r2, [r0], #2	@ movhi
 391              	.LBE296:
 392              		.loc 1 112 0
 393 0162 3BD0     		beq	.L29
 394              	.LVL35:
 395              	.L36:
ARM GAS  /tmp/ccHjaXes.s 			page 8


 396              	.LBB297:
 397              		.loc 1 113 0 discriminator 3
 398 0164 0435     		adds	r5, r5, #4
 399 0166 D5ED006A 		flds	s13, [r5]
 400 016a D1ED007A 		flds	s15, [r1]
 401              	.LVL36:
 402              	.LBB293:
 403              	.LBB291:
 404              		.loc 3 56 0 discriminator 3
 405 016e 26EEA67A 		fmuls	s14, s13, s13
 406              		.loc 3 65 0 discriminator 3
 407 0172 17EE903A 		fmrs	r3, s15	@ int
 408              		.loc 3 56 0 discriminator 3
 409 0176 A7EEA77A 		vfma.f32	s14, s15, s15
 410              	.LVL37:
 411              		.loc 3 65 0 discriminator 3
 412 017a 03F00042 		and	r2, r3, #-2147483648
 413              		.loc 3 67 0 discriminator 3
 414 017e 4FEA927C 		lsr	ip, r2, #30
 415              		.loc 3 66 0 discriminator 3
 416 0182 16EE903A 		fmrs	r3, s13	@ int
 417 0186 03F00049 		and	r9, r3, #-2147483648
 418              	.LBB287:
 419              	.LBB283:
 420              		.loc 4 58 0 discriminator 3
 421 018a 17EE103A 		fmrs	r3, s14	@ int
 422 018e 5B08     		lsrs	r3, r3, #1
 423              	.LBB276:
 424              	.LBB277:
 425              		.loc 4 48 0 discriminator 3
 426 0190 C3F1BE43 		rsb	r3, r3, #1593835520
 427 0194 03F55D13 		add	r3, r3, #3620864
 428              	.LBE277:
 429              	.LBE276:
 430              	.LBE283:
 431              	.LBE287:
 432              		.loc 3 57 0 discriminator 3
 433 0198 B5EE407A 		fcmpzs	s14
 434              		.loc 3 67 0 discriminator 3
 435 019c 29EA0208 		bic	r8, r9, r2
 436              	.LBB288:
 437              	.LBB284:
 438              	.LBB280:
 439              	.LBB278:
 440              		.loc 4 48 0 discriminator 3
 441 01a0 03F5CE53 		add	r3, r3, #6592
 442              	.LBE278:
 443              	.LBE280:
 444              	.LBE284:
 445              	.LBE288:
 446              		.loc 3 57 0 discriminator 3
 447 01a4 F1EE10FA 		fmstat
 448              	.LBB289:
 449              	.LBB285:
 450              	.LBB281:
 451              	.LBB279:
 452              		.loc 4 48 0 discriminator 3
ARM GAS  /tmp/ccHjaXes.s 			page 9


 453 01a8 03F11F03 		add	r3, r3, #31
 454              	.LVL38:
 455              	.LBE279:
 456              	.LBE281:
 457              	.LBE285:
 458              	.LBE289:
 459              		.loc 3 69 0 discriminator 3
 460 01ac B0EEE76A 		fabss	s12, s15
 461              		.loc 3 70 0 discriminator 3
 462 01b0 F0EEE66A 		fabss	s13, s13
 463              	.LVL39:
 464              		.loc 3 67 0 discriminator 3
 465 01b4 4CEA5878 		orr	r8, ip, r8, lsr #29
 466              		.loc 3 57 0 discriminator 3
 467 01b8 95D1     		bne	.L31
 468              		.loc 3 58 0
 469 01ba C1F800A0 		str	r10, [r1]	@ float
 470              	.LVL40:
 471              		.loc 3 59 0
 472 01be 0022     		movs	r2, #0
 473 01c0 C5E7     		b	.L32
 474              	.LVL41:
 475              	.L40:
 476              		.loc 3 74 0
 477 01c2 67EEA67A 		fmuls	s15, s15, s13
 478              	.LVL42:
 479 01c6 B0EE657A 		fcpys	s14, s11
 480 01ca A7EEA47A 		vfma.f32	s14, s15, s9
 481 01ce FCEEC77A 		ftouizs	s15, s14
 482 01d2 17EE903A 		fmrs	r3, s15	@ int
 483              	.LVL43:
 484 01d6 3EF813C0 		ldrh	ip, [lr, r3, lsl #1]
 485              	.LVL44:
 486 01da ADE7     		b	.L35
 487              	.LVL45:
 488              	.L29:
 489 01dc BDE8F087 		pop	{r4, r5, r6, r7, r8, r9, r10, pc}
 490              	.L43:
 491              		.align	2
 492              	.L42:
 493 01e0 00000044 		.word	1140850688
 494 01e4 00000000 		.word	_ZN6stmlib8atan_lutE
 495              	.LBE291:
 496              	.LBE293:
 497              	.LBE297:
 498              	.LBE299:
 499              	.LBE269:
 500              		.cfi_endproc
 501              	.LFE617:
 502              		.cantunwind
 503              		.fnend
 504              		.size	_ZN6clouds19FrameTransformation18RectangularToPolarEPf, .-_ZN6clouds19FrameTransformation18R
 505              		.align	2
 506 01e8 AFF30080 		.p2align 4,,15
 506      AFF30080 
 507              		.global	_ZN6clouds19FrameTransformation9SetPhasesEPfff
 508              		.thumb
ARM GAS  /tmp/ccHjaXes.s 			page 10


 509              		.thumb_func
 510              		.type	_ZN6clouds19FrameTransformation9SetPhasesEPfff, %function
 511              	_ZN6clouds19FrameTransformation9SetPhasesEPfff:
 512              		.fnstart
 513              	.LFB618:
 514              		.loc 1 122 0
 515              		.cfi_startproc
 516              		@ args = 0, pretend = 0, frame = 0
 517              		@ frame_needed = 0, uses_anonymous_args = 0
 518              	.LVL46:
 519 01f0 F0B5     		push	{r4, r5, r6, r7, lr}
 520              		.cfi_def_cfa_offset 20
 521              		.cfi_offset 4, -20
 522              		.cfi_offset 5, -16
 523              		.cfi_offset 6, -12
 524              		.cfi_offset 7, -8
 525              		.cfi_offset 14, -4
 526              	.LBB300:
 527              		.loc 1 123 0
 528 01f2 0368     		ldr	r3, [r0]
 529              	.LBB301:
 530              		.loc 1 124 0
 531 01f4 8568     		ldr	r5, [r0, #8]
 532              	.LBE301:
 533              		.loc 1 123 0
 534 01f6 5B10     		asrs	r3, r3, #1
 535              	.LBB302:
 536              		.loc 1 124 0
 537 01f8 002D     		cmp	r5, #0
 538              	.LBE302:
 539              		.loc 1 123 0
 540 01fa 01EB8301 		add	r1, r1, r3, lsl #2
 541              	.LVL47:
 542              	.LBB303:
 543              		.loc 1 124 0
 544 01fe 4ADD     		ble	.L45
 545 0200 826A     		ldr	r2, [r0, #40]
 546 0202 C66A     		ldr	r6, [r0, #44]
 547 0204 023A     		subs	r2, r2, #2
 548 0206 023E     		subs	r6, r6, #2
 549 0208 0F1F     		subs	r7, r1, #4
 550 020a 0024     		movs	r4, #0
 551              	.LVL48:
 552              	.L46:
 553              		.loc 1 127 0 discriminator 3
 554 020c 36F8023F 		ldrh	r3, [r6, #2]!
 555 0210 07EE903A 		fmsr	s15, r3	@ int
 556 0214 F8EE677A 		fuitos	s15, s15
 557              		.loc 1 125 0 discriminator 3
 558 0218 32F8023F 		ldrh	r3, [r2, #2]!
 559 021c 47F8043F 		str	r3, [r7, #4]!
 560              		.loc 1 127 0 discriminator 3
 561 0220 67EEA07A 		fmuls	s15, s15, s1
 562              		.loc 1 124 0 discriminator 3
 563 0224 8568     		ldr	r5, [r0, #8]
 564              		.loc 1 127 0 discriminator 3
 565 0226 FCEEE77A 		ftouizs	s15, s15
ARM GAS  /tmp/ccHjaXes.s 			page 11


 566              		.loc 1 124 0 discriminator 3
 567 022a 0134     		adds	r4, r4, #1
 568              	.LVL49:
 569              		.loc 1 127 0 discriminator 3
 570 022c 17EE90EA 		fmrs	lr, s15	@ int
 571              		.loc 1 124 0 discriminator 3
 572 0230 A542     		cmp	r5, r4
 573              		.loc 1 127 0 discriminator 3
 574 0232 7344     		add	r3, r3, lr
 575 0234 1380     		strh	r3, [r2]	@ movhi
 576              		.loc 1 124 0 discriminator 3
 577 0236 E9DC     		bgt	.L46
 578              	.LVL50:
 579              	.LBE303:
 580              		.loc 1 130 0
 581 0238 9FED277A 		flds	s14, .L57
 582 023c DFED277A 		flds	s15, .L57+4
 583 0240 30EE470A 		fsubs	s0, s0, s14
 584              	.LVL51:
 585 0244 20EE270A 		fmuls	s0, s0, s15
 586              	.LVL52:
 587              		.loc 1 131 0
 588 0248 B5EEC00A 		fcmpezs	s0
 589 024c F1EE10FA 		fmstat
 590 0250 36D4     		bmi	.L52
 591              		.loc 1 131 0 is_stmt 0 discriminator 2
 592 0252 F7EE007A 		fconsts	s15, #112
 593 0256 B4EEE70A 		fcmpes	s0, s15
 594 025a F1EE10FA 		fmstat
 595 025e 31DD     		ble	.L51
 596 0260 4FF40046 		mov	r6, #32768
 597              	.LVL53:
 598              	.L47:
 599              	.LBB304:
 600              		.loc 1 134 0 is_stmt 1
 601 0264 002D     		cmp	r5, #0
 602 0266 2ADD     		ble	.L44
 603 0268 1D4D     		ldr	r5, .L57+8
 604              	.LBB305:
 605              	.LBB306:
 606              	.LBB307:
 607              	.LBB308:
 608              		.file 5 "./mutable_instruments/stmlib/utils/random.h"
 609              		.loc 5 45 0
 610 026a 1E4F     		ldr	r7, .L57+12
 611 026c 0439     		subs	r1, r1, #4
 612              	.LVL54:
 613              	.LBE308:
 614              	.LBE307:
 615              	.LBE306:
 616              	.LBE305:
 617              		.loc 1 134 0
 618 026e 0024     		movs	r4, #0
 619              	.LVL55:
 620              	.L49:
 621              	.LBB312:
 622              	.LBB311:
ARM GAS  /tmp/ccHjaXes.s 			page 12


 623              	.LBB310:
 624              	.LBB309:
 625              		.loc 5 45 0
 626 0270 2A68     		ldr	r2, [r5]
 627 0272 1D4B     		ldr	r3, .L57+16
 628 0274 07FB02F2 		mul	r2, r7, r2
 629 0278 1344     		add	r3, r3, r2
 630 027a 2B60     		str	r3, [r5]
 631              	.LBE309:
 632              	.LBE310:
 633              	.LBE311:
 634              	.LBE312:
 635              		.loc 1 136 0
 636 027c 51F8042F 		ldr	r2, [r1, #4]!
 637 0280 1B14     		asrs	r3, r3, #16
 638 0282 06FB03F3 		mul	r3, r6, r3
 639 0286 02EBA333 		add	r3, r2, r3, asr #14
 640 028a 0B60     		str	r3, [r1]
 641              		.loc 1 134 0
 642 028c 8368     		ldr	r3, [r0, #8]
 643 028e 0134     		adds	r4, r4, #1
 644              	.LVL56:
 645 0290 A342     		cmp	r3, r4
 646 0292 EDDC     		bgt	.L49
 647 0294 F0BD     		pop	{r4, r5, r6, r7, pc}
 648              	.LVL57:
 649              	.L45:
 650              	.LBE304:
 651              		.loc 1 130 0
 652 0296 9FED107A 		flds	s14, .L57
 653 029a DFED107A 		flds	s15, .L57+4
 654 029e 30EE470A 		fsubs	s0, s0, s14
 655              	.LVL58:
 656 02a2 20EE270A 		fmuls	s0, s0, s15
 657              	.LVL59:
 658              		.loc 1 131 0
 659 02a6 B5EEC00A 		fcmpezs	s0
 660 02aa F1EE10FA 		fmstat
 661 02ae 06D4     		bmi	.L44
 662 02b0 F7EE007A 		fconsts	s15, #112
 663 02b4 B4EEE70A 		fcmpes	s0, s15
 664 02b8 F1EE10FA 		fmstat
 665 02bc 02DD     		ble	.L51
 666              	.LVL60:
 667              	.L44:
 668 02be F0BD     		pop	{r4, r5, r6, r7, pc}
 669              	.LVL61:
 670              	.L52:
 671 02c0 0026     		movs	r6, #0
 672 02c2 CFE7     		b	.L47
 673              	.LVL62:
 674              	.L51:
 675 02c4 20EE000A 		fmuls	s0, s0, s0
 676              	.LVL63:
 677 02c8 F0EE407A 		fcpys	s15, s0
 678 02cc FEEEE87A 		vcvt.s32.f32	s15, s15, #15
 679 02d0 17EE906A 		fmrs	r6, s15	@ int
ARM GAS  /tmp/ccHjaXes.s 			page 13


 680 02d4 C6E7     		b	.L47
 681              	.L58:
 682 02d6 00BF     		.align	2
 683              	.L57:
 684 02d8 CDCC4C3D 		.word	1028443341
 685 02dc 14AE873F 		.word	1065856532
 686 02e0 00000000 		.word	_ZN6stmlib6Random10rng_state_E
 687 02e4 0D661900 		.word	1664525
 688 02e8 5FF36E3C 		.word	1013904223
 689              	.LBE300:
 690              		.cfi_endproc
 691              	.LFE618:
 692              		.cantunwind
 693              		.fnend
 694              		.size	_ZN6clouds19FrameTransformation9SetPhasesEPfff, .-_ZN6clouds19FrameTransformation9SetPhasesE
 695              		.align	2
 696 02ec AFF30080 		.p2align 4,,15
 697              		.global	_ZN6clouds19FrameTransformation18PolarToRectangularEPf
 698              		.thumb
 699              		.thumb_func
 700              		.type	_ZN6clouds19FrameTransformation18PolarToRectangularEPf, %function
 701              	_ZN6clouds19FrameTransformation18PolarToRectangularEPf:
 702              		.fnstart
 703              	.LFB619:
 704              		.loc 1 140 0
 705              		.cfi_startproc
 706              		@ args = 0, pretend = 0, frame = 0
 707              		@ frame_needed = 0, uses_anonymous_args = 0
 708              	.LVL64:
 709              	.LBB313:
 710              		.loc 1 142 0
 711 02f0 0368     		ldr	r3, [r0]
 712              	.LBE313:
 713              		.loc 1 140 0
 714 02f2 2DE9F043 		push	{r4, r5, r6, r7, r8, r9, lr}
 715              		.cfi_def_cfa_offset 28
 716              		.cfi_offset 4, -28
 717              		.cfi_offset 5, -24
 718              		.cfi_offset 6, -20
 719              		.cfi_offset 7, -16
 720              		.cfi_offset 8, -12
 721              		.cfi_offset 9, -8
 722              		.cfi_offset 14, -4
 723              	.LBB322:
 724              	.LBB314:
 725              		.loc 1 145 0
 726 02f6 8468     		ldr	r4, [r0, #8]
 727              	.LBE314:
 728              		.loc 1 142 0
 729 02f8 4FEA6308 		asr	r8, r3, #1
 730 02fc 4FEA880E 		lsl	lr, r8, #2
 731              	.LBB319:
 732              		.loc 1 145 0
 733 0300 012C     		cmp	r4, #1
 734              	.LBE319:
 735              		.loc 1 142 0
 736 0302 01EB0E09 		add	r9, r1, lr
ARM GAS  /tmp/ccHjaXes.s 			page 14


 737              	.LVL65:
 738              	.LBB320:
 739              		.loc 1 145 0
 740 0306 20DD     		ble	.L64
 741 0308 184F     		ldr	r7, .L70
 742 030a 4E46     		mov	r6, r9
 743 030c 0A1D     		adds	r2, r1, #4
 744 030e 09F10405 		add	r5, r9, #4
 745 0312 01EB840C 		add	ip, r1, r4, lsl #2
 746              	.LVL66:
 747              	.L63:
 748 0316 56F8043F 		ldr	r3, [r6, #4]!
 749              		.loc 1 146 0 discriminator 3
 750 031a D2ED007A 		flds	s15, [r2]
 751              	.LVL67:
 752              	.LBB315:
 753              	.LBB316:
 754              		.file 6 "./mutable_instruments/clouds/dsp/pvoc/frame_transformation.h"
 755              		.loc 6 77 0 discriminator 3
 756 031e C3F38913 		ubfx	r3, r3, #6, #10
 757              	.LVL68:
 758              		.loc 6 78 0 discriminator 3
 759 0322 03F58070 		add	r0, r3, #256
 760 0326 07EB8000 		add	r0, r7, r0, lsl #2
 761 032a 90ED007A 		flds	s14, [r0]
 762 032e 27EE877A 		fmuls	s14, s15, s14
 763              		.loc 6 79 0 discriminator 3
 764 0332 07EB8303 		add	r3, r7, r3, lsl #2
 765              	.LVL69:
 766              		.loc 6 78 0 discriminator 3
 767 0336 A2EC017A 		fstmias	r2!, {s14}
 768              	.LVL70:
 769              		.loc 6 79 0 discriminator 3
 770 033a 93ED007A 		flds	s14, [r3]
 771 033e 67EE877A 		fmuls	s15, s15, s14
 772              	.LVL71:
 773              	.LBE316:
 774              	.LBE315:
 775              		.loc 1 145 0 discriminator 3
 776 0342 6245     		cmp	r2, ip
 777              	.LBB318:
 778              	.LBB317:
 779              		.loc 6 79 0 discriminator 3
 780 0344 E5EC017A 		fstmias	r5!, {s15}
 781              	.LBE317:
 782              	.LBE318:
 783              		.loc 1 145 0 discriminator 3
 784 0348 E5D1     		bne	.L63
 785              	.LVL72:
 786              	.L64:
 787              	.LBE320:
 788              	.LBB321:
 789              		.loc 1 148 0
 790 034a A045     		cmp	r8, r4
 791 034c 0CDD     		ble	.L69
 792 034e A400     		lsls	r4, r4, #2
 793              	.LVL73:
ARM GAS  /tmp/ccHjaXes.s 			page 15


 794 0350 2144     		add	r1, r1, r4
 795              	.LVL74:
 796              		.loc 1 149 0
 797 0352 0023     		movs	r3, #0
 798 0354 4C44     		add	r4, r4, r9
 799 0356 CE44     		add	lr, lr, r9
 800              	.LVL75:
 801              	.L65:
 802              		.loc 1 149 0 is_stmt 0 discriminator 3
 803 0358 44F8043B 		str	r3, [r4], #4	@ float
 804              		.loc 1 148 0 is_stmt 1 discriminator 3
 805 035c 7445     		cmp	r4, lr
 806              		.loc 1 149 0 discriminator 3
 807 035e 41F8043B 		str	r3, [r1], #4	@ float
 808              		.loc 1 148 0 discriminator 3
 809 0362 F9D1     		bne	.L65
 810 0364 BDE8F083 		pop	{r4, r5, r6, r7, r8, r9, pc}
 811              	.LVL76:
 812              	.L69:
 813 0368 BDE8F083 		pop	{r4, r5, r6, r7, r8, r9, pc}
 814              	.LVL77:
 815              	.L71:
 816              		.align	2
 817              	.L70:
 818 036c 00000000 		.word	_ZN6clouds7lut_sinE
 819              	.LBE321:
 820              	.LBE322:
 821              		.cfi_endproc
 822              	.LFE619:
 823              		.cantunwind
 824              		.fnend
 825              		.size	_ZN6clouds19FrameTransformation18PolarToRectangularEPf, .-_ZN6clouds19FrameTransformation18P
 826              		.align	2
 827              		.p2align 4,,15
 828              		.global	_ZN6clouds19FrameTransformation9AddGlitchEPf
 829              		.thumb
 830              		.thumb_func
 831              		.type	_ZN6clouds19FrameTransformation9AddGlitchEPf, %function
 832              	_ZN6clouds19FrameTransformation9AddGlitchEPf:
 833              		.fnstart
 834              	.LFB620:
 835              		.loc 1 153 0
 836              		.cfi_startproc
 837              		@ args = 0, pretend = 0, frame = 0
 838              		@ frame_needed = 0, uses_anonymous_args = 0
 839              		@ link register save eliminated.
 840              	.LVL78:
 841 0370 70B4     		push	{r4, r5, r6}
 842              		.cfi_def_cfa_offset 12
 843              		.cfi_offset 4, -12
 844              		.cfi_offset 5, -8
 845              		.cfi_offset 6, -4
 846              	.LBB323:
 847              	.LBB324:
 848              		.loc 1 155 0
 849 0372 90F93030 		ldrsb	r3, [r0, #48]
 850 0376 032B     		cmp	r3, #3
ARM GAS  /tmp/ccHjaXes.s 			page 16


 851 0378 13D8     		bhi	.L72
 852 037a DFE803F0 		tbb	[pc, r3]
 853              	.L75:
 854 037e 6F       		.byte	(.L74-.L75)/2
 855 037f 38       		.byte	(.L76-.L75)/2
 856 0380 02       		.byte	(.L77-.L75)/2
 857 0381 14       		.byte	(.L78-.L75)/2
 858              		.p2align 1
 859              	.L77:
 860              	.LBB325:
 861              		.loc 1 188 0
 862 0382 8568     		ldr	r5, [r0, #8]
 863 0384 01EB8505 		add	r5, r1, r5, lsl #2
 864              	.LVL79:
 865              	.LBB326:
 866              	.LBB327:
 867              	.LBB328:
 868              		.file 7 "/home/sbcu/Dropbox/pcb-layouts/axo-on-discovery-board/axoloti/platform_linux/arm-none-eab
 869              		.loc 7 5471 0
 870 0388 A942     		cmp	r1, r5
 871 038a 40F08480 		bne	.L106
 872              	.LBE328:
 873              	.LBE327:
 874              	.LBE326:
 875              		.loc 1 188 0
 876 038e 9FED587A 		flds	s14, .L108
 877              		.loc 1 189 0
 878 0392 F2EE007A 		fconsts	s15, #32
 879              		.loc 1 188 0
 880 0396 81ED007A 		fsts	s14, [r1]
 881              	.LVL80:
 882              		.loc 1 189 0
 883 039a 27EE277A 		fmuls	s14, s14, s15
 884 039e 81ED007A 		fsts	s14, [r1]
 885              	.LVL81:
 886              	.L72:
 887              	.LBE325:
 888              	.LBE324:
 889              	.LBE323:
 890              		.loc 1 207 0
 891 03a2 70BC     		pop	{r4, r5, r6}
 892              		.cfi_remember_state
 893              		.cfi_restore 6
 894              		.cfi_restore 5
 895              		.cfi_restore 4
 896              		.cfi_def_cfa_offset 0
 897 03a4 7047     		bx	lr
 898              	.LVL82:
 899              	.L78:
 900              		.cfi_restore_state
 901              	.LBB378:
 902              	.LBB375:
 903              	.LBB372:
 904              	.LBB331:
 905              		.loc 1 195 0 discriminator 1
 906 03a6 8468     		ldr	r4, [r0, #8]
 907 03a8 002C     		cmp	r4, #0
ARM GAS  /tmp/ccHjaXes.s 			page 17


 908 03aa FADD     		ble	.L72
 909 03ac 514E     		ldr	r6, .L108+4
 910              	.LBB332:
 911              	.LBB333:
 912              	.LBB334:
 913              	.LBB335:
 914              	.LBB336:
 915              		.loc 5 45 0
 916 03ae 524D     		ldr	r5, .L108+8
 917 03b0 3368     		ldr	r3, [r6]
 918              	.LBE336:
 919              	.LBE335:
 920              	.LBE334:
 921              	.LBE333:
 922              		.loc 1 198 0
 923 03b2 DFED526A 		flds	s13, .L108+12
 924              	.LBE332:
 925              		.loc 1 195 0
 926 03b6 0022     		movs	r2, #0
 927              	.LVL83:
 928              	.L96:
 929              	.LBB341:
 930              	.LBB340:
 931              	.LBB339:
 932              	.LBB338:
 933              	.LBB337:
 934              		.loc 5 45 0
 935 03b8 05FB03F0 		mul	r0, r5, r3
 936 03bc 504B     		ldr	r3, .L108+16
 937 03be 0344     		add	r3, r3, r0
 938              	.LVL84:
 939              	.LBE337:
 940              	.LBE338:
 941              	.LBE339:
 942              	.LBE340:
 943              		.loc 1 197 0
 944 03c0 13F4702F 		tst	r3, #983040
 945 03c4 0BD1     		bne	.L95
 946              		.loc 1 198 0
 947 03c6 07EE902A 		fmsr	s15, r2	@ int
 948 03ca F8EEE77A 		fsitos	s15, s15
 949 03ce 91ED007A 		flds	s14, [r1]
 950 03d2 67EEA67A 		fmuls	s15, s15, s13
 951 03d6 67EE277A 		fmuls	s15, s14, s15
 952 03da C1ED007A 		fsts	s15, [r1]
 953              	.L95:
 954              	.LBE341:
 955              		.loc 1 195 0 discriminator 2
 956 03de 0132     		adds	r2, r2, #1
 957              	.LVL85:
 958 03e0 A242     		cmp	r2, r4
 959 03e2 01F10401 		add	r1, r1, #4
 960 03e6 E7D1     		bne	.L96
 961 03e8 3360     		str	r3, [r6]
 962              	.LVL86:
 963              	.L107:
 964              	.LBE331:
ARM GAS  /tmp/ccHjaXes.s 			page 18


 965              	.LBE372:
 966              	.LBE375:
 967              	.LBE378:
 968              		.loc 1 207 0
 969 03ea 70BC     		pop	{r4, r5, r6}
 970              		.cfi_remember_state
 971              		.cfi_restore 4
 972              		.cfi_restore 5
 973              		.cfi_restore 6
 974              		.cfi_def_cfa_offset 0
 975 03ec 7047     		bx	lr
 976              	.LVL87:
 977              	.L76:
 978              		.cfi_restore_state
 979              	.LBB379:
 980              	.LBB376:
 981              	.LBB373:
 982              	.LBB342:
 983              	.LBB343:
 984              	.LBB344:
 985              	.LBB345:
 986              	.LBB346:
 987              		.loc 5 45 0
 988 03ee 414C     		ldr	r4, .L108+4
 989 03f0 414A     		ldr	r2, .L108+8
 990 03f2 2568     		ldr	r5, [r4]
 991 03f4 424B     		ldr	r3, .L108+16
 992              	.LBE346:
 993              	.LBE345:
 994              	.LBE344:
 995              	.LBE343:
 996              	.LBB353:
 997              		.loc 1 176 0
 998 03f6 8068     		ldr	r0, [r0, #8]
 999              	.LVL88:
 1000              	.LBE353:
 1001              	.LBB354:
 1002              	.LBB351:
 1003              	.LBB349:
 1004              	.LBB347:
 1005              		.loc 5 45 0
 1006 03f8 02FB05F2 		mul	r2, r2, r5
 1007 03fc 1344     		add	r3, r3, r2
 1008              	.LBE347:
 1009              	.LBE349:
 1010              	.LBE351:
 1011              	.LBE354:
 1012              		.loc 1 174 0
 1013 03fe C3F30242 		ubfx	r2, r3, #16, #3
 1014 0402 07EE902A 		fmsr	s15, r2	@ int
 1015 0406 F8EEE77A 		fsitos	s15, s15
 1016 040a F5EE006A 		fconsts	s13, #80
 1017 040e B7EE007A 		fconsts	s14, #112
 1018              	.LBB355:
 1019              		.loc 1 176 0
 1020 0412 0028     		cmp	r0, #0
 1021              	.LBE355:
ARM GAS  /tmp/ccHjaXes.s 			page 19


 1022              	.LBB356:
 1023              	.LBB352:
 1024              	.LBB350:
 1025              	.LBB348:
 1026              		.loc 5 45 0
 1027 0414 2360     		str	r3, [r4]
 1028              	.LBE348:
 1029              	.LBE350:
 1030              	.LBE352:
 1031              	.LBE356:
 1032              		.loc 1 174 0
 1033 0416 A7EEA67A 		vfma.f32	s14, s15, s13
 1034              	.LVL89:
 1035              	.LBB357:
 1036              		.loc 1 176 0
 1037 041a C2DD     		ble	.L72
 1038 041c 07EE900A 		fmsr	s15, r0	@ int
 1039 0420 F8EEE76A 		fsitos	s13, s15
 1040 0424 DFED327A 		flds	s15, .L108
 1041 0428 01EB8000 		add	r0, r1, r0, lsl #2
 1042 042c 0A46     		mov	r2, r1
 1043              	.LVL90:
 1044              	.L85:
 1045              		.loc 1 177 0
 1046 042e 77EE877A 		fadds	s15, s15, s14
 1047              	.LVL91:
 1048 0432 0023     		movs	r3, #0
 1049              		.loc 1 178 0
 1050 0434 F4EEE67A 		fcmpes	s15, s13
 1051 0438 F1EE10FA 		fmstat
 1052 043c B7BF     		itett	lt
 1053 043e BDEEE76A 		ftosizslt	s12, s15
 1054              		.loc 1 179 0
 1055 0442 DFED2B7A 		fldsge	s15, .L108
 1056              	.LVL92:
 1057 0446 16EE103A 		fmrslt	r3, s12	@ int
 1058 044a 9B00     		lsllt	r3, r3, #2
 1059              		.loc 1 181 0
 1060 044c 0B44     		add	r3, r3, r1
 1061 044e 1B68     		ldr	r3, [r3]	@ float
 1062 0450 42F8043B 		str	r3, [r2], #4	@ float
 1063              		.loc 1 176 0
 1064 0454 8242     		cmp	r2, r0
 1065 0456 EAD1     		bne	.L85
 1066              	.LBE357:
 1067              	.LBE342:
 1068              	.LBE373:
 1069              	.LBE376:
 1070              	.LBE379:
 1071              		.loc 1 207 0
 1072 0458 70BC     		pop	{r4, r5, r6}
 1073              		.cfi_remember_state
 1074              		.cfi_restore 4
 1075              		.cfi_restore 5
 1076              		.cfi_restore 6
 1077              		.cfi_def_cfa_offset 0
 1078 045a 7047     		bx	lr
ARM GAS  /tmp/ccHjaXes.s 			page 20


 1079              	.LVL93:
 1080              	.L74:
 1081              		.cfi_restore_state
 1082              	.LBB380:
 1083              	.LBB377:
 1084              	.LBB374:
 1085              	.LBB358:
 1086              	.LBB359:
 1087              		.loc 1 161 0 discriminator 1
 1088 045c 8068     		ldr	r0, [r0, #8]
 1089              	.LVL94:
 1090 045e 0028     		cmp	r0, #0
 1091 0460 9FDD     		ble	.L72
 1092 0462 244E     		ldr	r6, .L108+4
 1093              		.loc 1 161 0 is_stmt 0
 1094 0464 DFED227A 		flds	s15, .L108
 1095 0468 3368     		ldr	r3, [r6]
 1096              	.LBB360:
 1097              	.LBB361:
 1098              	.LBB362:
 1099              	.LBB363:
 1100              		.loc 5 45 0 is_stmt 1
 1101 046a 234C     		ldr	r4, .L108+8
 1102              	.LBE363:
 1103              	.LBE362:
 1104              	.LBE361:
 1105              	.LBE360:
 1106              		.loc 1 166 0
 1107 046c 9FED257A 		flds	s14, .L108+20
 1108 0470 01EB8000 		add	r0, r1, r0, lsl #2
 1109              	.LVL95:
 1110              	.L83:
 1111              	.LBB367:
 1112              	.LBB366:
 1113              	.LBB365:
 1114              	.LBB364:
 1115              		.loc 5 45 0
 1116 0474 04FB03F2 		mul	r2, r4, r3
 1117 0478 214B     		ldr	r3, .L108+16
 1118 047a 1344     		add	r3, r3, r2
 1119              	.LBE364:
 1120              	.LBE365:
 1121              	.LBE366:
 1122              	.LBE367:
 1123              		.loc 1 162 0
 1124 047c 13F4702F 		tst	r3, #983040
 1125              		.loc 1 163 0
 1126 0480 08BF     		it	eq
 1127 0482 D1ED007A 		fldseq	s15, [r1]
 1128              	.LVL96:
 1129              		.loc 1 165 0
 1130 0486 E1EC017A 		fstmias	r1!, {s15}
 1131              		.loc 1 161 0
 1132 048a 8142     		cmp	r1, r0
 1133              		.loc 1 166 0
 1134 048c 67EE877A 		fmuls	s15, s15, s14
 1135              	.LVL97:
ARM GAS  /tmp/ccHjaXes.s 			page 21


 1136              		.loc 1 161 0
 1137 0490 F0D1     		bne	.L83
 1138 0492 3360     		str	r3, [r6]
 1139 0494 A9E7     		b	.L107
 1140              	.LVL98:
 1141              	.L106:
 1142 0496 0B1D     		adds	r3, r1, #4
 1143              	.LBE359:
 1144              	.LBE358:
 1145              	.LBB368:
 1146              	.LBB330:
 1147              	.LBB329:
 1148              		.loc 7 5471 0
 1149 0498 1A46     		mov	r2, r3
 1150 049a 0846     		mov	r0, r1
 1151              	.LVL99:
 1152 049c 0BE0     		b	.L87
 1153              	.LVL100:
 1154              	.L90:
 1155              		.loc 7 5474 0
 1156 049e 90ED007A 		flds	s14, [r0]
 1157 04a2 D4ED007A 		flds	s15, [r4]
 1158 04a6 B4EE677A 		fcmps	s14, s15
 1159 04aa F1EE10FA 		fmstat
 1160 04ae 02F10402 		add	r2, r2, #4
 1161              	.LVL101:
 1162 04b2 48BF     		it	mi
 1163 04b4 2046     		movmi	r0, r4
 1164              	.LVL102:
 1165              	.L87:
 1166              		.loc 7 5473 0
 1167 04b6 9542     		cmp	r5, r2
 1168 04b8 1446     		mov	r4, r2
 1169              	.LVL103:
 1170 04ba F0D1     		bne	.L90
 1171              	.LBE329:
 1172              	.LBE330:
 1173              	.LBE368:
 1174              		.loc 1 188 0
 1175 04bc 0022     		movs	r2, #0
 1176              	.LVL104:
 1177 04be 0260     		str	r2, [r0]	@ float
 1178              	.LVL105:
 1179 04c0 91ED007A 		flds	s14, [r1]
 1180 04c4 09E0     		b	.L91
 1181              	.LVL106:
 1182              	.L94:
 1183 04c6 F3EC017A 		fldmias	r3!, {s15}
 1184              	.LVL107:
 1185              	.LBB369:
 1186              	.LBB370:
 1187              	.LBB371:
 1188              		.loc 7 5474 0
 1189 04ca F4EEC77A 		fcmpes	s15, s14
 1190 04ce F1EE10FA 		fmstat
 1191 04d2 C4BF     		itt	gt
 1192 04d4 B0EE677A 		fcpysgt	s14, s15
ARM GAS  /tmp/ccHjaXes.s 			page 22


 1193 04d8 1146     		movgt	r1, r2
 1194              	.LVL108:
 1195              	.L91:
 1196              		.loc 7 5473 0
 1197 04da 9D42     		cmp	r5, r3
 1198 04dc 1A46     		mov	r2, r3
 1199              	.LVL109:
 1200 04de F2D1     		bne	.L94
 1201              	.LBE371:
 1202              	.LBE370:
 1203              	.LBE369:
 1204              		.loc 1 189 0
 1205 04e0 F2EE007A 		fconsts	s15, #32
 1206 04e4 27EE277A 		fmuls	s14, s14, s15
 1207 04e8 81ED007A 		fsts	s14, [r1]
 1208 04ec 59E7     		b	.L72
 1209              	.L109:
 1210 04ee 00BF     		.align	2
 1211              	.L108:
 1212 04f0 00000000 		.word	0
 1213 04f4 00000000 		.word	_ZN6stmlib6Random10rng_state_E
 1214 04f8 0D661900 		.word	1664525
 1215 04fc 0000803D 		.word	1031798784
 1216 0500 5FF36E3C 		.word	1013904223
 1217 0504 AE47813F 		.word	1065437102
 1218              	.LBE374:
 1219              	.LBE377:
 1220              	.LBE380:
 1221              		.cfi_endproc
 1222              	.LFE620:
 1223              		.cantunwind
 1224              		.fnend
 1225              		.size	_ZN6clouds19FrameTransformation9AddGlitchEPf, .-_ZN6clouds19FrameTransformation9AddGlitchEPf
 1226              		.align	2
 1227 0508 AFF30080 		.p2align 4,,15
 1227      AFF30080 
 1228              		.global	_ZN6clouds19FrameTransformation18QuantizeMagnitudesEPff
 1229              		.thumb
 1230              		.thumb_func
 1231              		.type	_ZN6clouds19FrameTransformation18QuantizeMagnitudesEPff, %function
 1232              	_ZN6clouds19FrameTransformation18QuantizeMagnitudesEPff:
 1233              		.fnstart
 1234              	.LFB621:
 1235              		.loc 1 209 0
 1236              		.cfi_startproc
 1237              		@ args = 0, pretend = 0, frame = 0
 1238              		@ frame_needed = 0, uses_anonymous_args = 0
 1239              		@ link register save eliminated.
 1240              	.LBB400:
 1241              		.loc 1 210 0
 1242 0510 DFED4B7A 		flds	s15, .L133
 1243 0514 B4EEE70A 		fcmpes	s0, s15
 1244 0518 F1EE10FA 		fmstat
 1245 051c 48D8     		bhi	.L129
 1246              	.LBB401:
 1247              		.loc 1 213 0
 1248 051e B7EE006A 		fconsts	s12, #112
ARM GAS  /tmp/ccHjaXes.s 			page 23


 1249              		.loc 1 211 0
 1250 0522 30EE000A 		fadds	s0, s0, s0
 1251              		.loc 1 213 0
 1252 0526 F0EE465A 		fcpys	s11, s12
 1253 052a E0EE405A 		vfms.f32	s11, s0, s0
 1254              	.LBB402:
 1255              		.loc 1 215 0
 1256 052e 8368     		ldr	r3, [r0, #8]
 1257              	.LBE402:
 1258              	.LBB403:
 1259              	.LBB404:
 1260              		.file 8 "./mutable_instruments/stmlib/dsp/units.h"
 1261              		.loc 8 45 0
 1262 0530 444A     		ldr	r2, .L133+4
 1263              		.loc 8 41 0
 1264 0532 DFED457A 		flds	s15, .L133+8
 1265 0536 DFED456A 		flds	s13, .L133+12
 1266              	.LBE404:
 1267              	.LBE403:
 1268              		.loc 1 213 0
 1269 053a 90ED007A 		flds	s14, [r0]	@ int
 1270              	.LBB407:
 1271              	.LBB405:
 1272              		.loc 8 41 0
 1273 053e E5EEA76A 		vfma.f32	s13, s11, s15
 1274              	.LBE405:
 1275              	.LBE407:
 1276              	.LBE401:
 1277              	.LBE400:
 1278              		.loc 1 209 0
 1279 0542 10B4     		push	{r4}
 1280              		.cfi_def_cfa_offset 4
 1281              		.cfi_offset 4, -4
 1282              	.LBB412:
 1283              	.LBB411:
 1284              	.LBB408:
 1285              	.LBB406:
 1286              		.loc 8 42 0
 1287 0544 FDEEE64A 		ftosizs	s9, s13
 1288              		.loc 8 44 0
 1289 0548 414C     		ldr	r4, .L133+16
 1290              		.loc 8 42 0
 1291 054a F8EEE45A 		fsitos	s11, s9
 1292              		.loc 8 44 0
 1293 054e 14EE900A 		fmrs	r0, s9	@ int
 1294              		.loc 8 42 0
 1295 0552 76EEE55A 		fsubs	s11, s13, s11
 1296              		.loc 8 44 0
 1297 0556 04EB8000 		add	r0, r4, r0, lsl #2
 1298 055a FEEECC5A 		vcvt.s32.f32	s11, s11, #8
 1299              		.loc 8 45 0
 1300 055e D0ED006A 		flds	s13, [r0]
 1301 0562 15EE900A 		fmrs	r0, s11	@ int
 1302 0566 02EB8002 		add	r2, r2, r0, lsl #2
 1303 056a D2ED007A 		flds	s15, [r2]
 1304 056e 66EEA77A 		fmuls	s15, s13, s15
 1305              	.LBE406:
ARM GAS  /tmp/ccHjaXes.s 			page 24


 1306              	.LBE408:
 1307              		.loc 1 212 0
 1308 0572 B6EE004A 		fconsts	s8, #96
 1309              		.loc 1 213 0
 1310 0576 B8EEC75A 		fsitos	s10, s14
 1311              		.loc 1 212 0
 1312 057a 67EE847A 		fmuls	s15, s15, s8
 1313              	.LBB409:
 1314              		.loc 1 215 0
 1315 057e 002B     		cmp	r3, #0
 1316              	.LBE409:
 1317              		.loc 1 213 0
 1318 0580 87EE857A 		fdivs	s14, s15, s10
 1319              		.loc 1 214 0
 1320 0584 C6EE076A 		fdivs	s13, s12, s14
 1321              	.LBB410:
 1322              		.loc 1 215 0
 1323 0588 0FDD     		ble	.L110
 1324 058a 01EB8303 		add	r3, r1, r3, lsl #2
 1325              	.L114:
 1326              		.loc 1 217 0 discriminator 3
 1327 058e D1ED007A 		flds	s15, [r1]
 1328 0592 67EE277A 		fmuls	s15, s14, s15
 1329              		.loc 1 216 0 discriminator 3
 1330 0596 FDEEE77A 		ftosizs	s15, s15
 1331 059a F8EEE77A 		fsitos	s15, s15
 1332 059e 67EEA67A 		fmuls	s15, s15, s13
 1333              		.loc 1 217 0 discriminator 3
 1334 05a2 E1EC017A 		fstmias	r1!, {s15}
 1335              		.loc 1 215 0 discriminator 3
 1336 05a6 9942     		cmp	r1, r3
 1337 05a8 F1D1     		bne	.L114
 1338              	.L110:
 1339              	.LBE410:
 1340              	.LBE411:
 1341              	.LBE412:
 1342              		.loc 1 229 0
 1343 05aa 5DF8044B 		ldr	r4, [sp], #4
 1344              		.cfi_restore 4
 1345              		.cfi_def_cfa_offset 0
 1346              	.L132:
 1347 05ae 7047     		bx	lr
 1348              	.L129:
 1349              	.LBB413:
 1350              	.LBB414:
 1351              		.loc 1 219 0
 1352 05b0 DFED287A 		flds	s15, .L133+20
 1353 05b4 B4EEE70A 		fcmpes	s0, s15
 1354 05b8 F1EE10FA 		fmstat
 1355 05bc F7DB     		blt	.L132
 1356              	.LBB415:
 1357              		.loc 1 221 0
 1358 05be 8068     		ldr	r0, [r0, #8]
 1359              		.loc 1 220 0
 1360 05c0 30EE670A 		fsubs	s0, s0, s15
 1361              		.loc 1 221 0
 1362 05c4 01EB8002 		add	r2, r1, r0, lsl #2
ARM GAS  /tmp/ccHjaXes.s 			page 25


 1363              	.LBB416:
 1364              	.LBB417:
 1365              	.LBB418:
 1366              		.loc 7 5471 0
 1367 05c8 9142     		cmp	r1, r2
 1368              	.LBE418:
 1369              	.LBE417:
 1370              	.LBE416:
 1371              		.loc 1 220 0
 1372 05ca 30EE000A 		fadds	s0, s0, s0
 1373              	.LBB421:
 1374              	.LBB420:
 1375              	.LBB419:
 1376              		.loc 7 5471 0
 1377 05ce 34D0     		beq	.L117
 1378 05d0 0B46     		mov	r3, r1
 1379 05d2 B3EC016A 		fldmias	r3!, {s12}
 1380 05d6 08E0     		b	.L118
 1381              	.L122:
 1382 05d8 F3EC017A 		fldmias	r3!, {s15}
 1383              		.loc 7 5474 0
 1384 05dc F4EE467A 		fcmps	s15, s12
 1385 05e0 F1EE10FA 		fmstat
 1386 05e4 C8BF     		it	gt
 1387 05e6 B0EE676A 		fcpysgt	s12, s15
 1388              	.L118:
 1389              		.loc 7 5473 0
 1390 05ea 9A42     		cmp	r2, r3
 1391 05ec F4D1     		bne	.L122
 1392              	.L119:
 1393              	.LBE419:
 1394              	.LBE420:
 1395              	.LBE421:
 1396              		.loc 1 222 0
 1397 05ee DFED1A5A 		flds	s11, .L133+24
 1398 05f2 76EE255A 		fadds	s11, s12, s11
 1399 05f6 B7EE005A 		fconsts	s10, #112
 1400              	.LBB422:
 1401              		.loc 1 223 0
 1402 05fa 0128     		cmp	r0, #1
 1403              	.LBE422:
 1404              		.loc 1 222 0
 1405 05fc C5EE255A 		fdivs	s11, s10, s11
 1406              	.LBB424:
 1407              		.loc 1 223 0
 1408 0600 D5DD     		ble	.L132
 1409 0602 0431     		adds	r1, r1, #4
 1410              	.LBB423:
 1411              		.loc 1 225 0
 1412 0604 F1EE004A 		fconsts	s9, #16
 1413              	.L123:
 1414              		.loc 1 224 0
 1415 0608 D1ED007A 		flds	s15, [r1]
 1416 060c 65EEA77A 		fmuls	s15, s11, s15
 1417              		.loc 1 225 0
 1418 0610 75EE676A 		fsubs	s13, s10, s15
 1419 0614 27EEA47A 		fmuls	s14, s15, s9
ARM GAS  /tmp/ccHjaXes.s 			page 26


 1420              		.loc 1 226 0
 1421 0618 B0EE674A 		fcpys	s8, s15
 1422              		.loc 1 225 0
 1423 061c 27EE267A 		fmuls	s14, s14, s13
 1424 0620 26EE877A 		fmuls	s14, s13, s14
 1425              		.loc 1 226 0
 1426 0624 96EE874A 		vfnms.f32	s8, s13, s14
 1427 0628 E0EE047A 		vfma.f32	s15, s0, s8
 1428 062c 67EE867A 		fmuls	s15, s15, s12
 1429 0630 E1EC017A 		fstmias	r1!, {s15}
 1430              	.LBE423:
 1431              		.loc 1 223 0
 1432 0634 9142     		cmp	r1, r2
 1433 0636 E7D1     		bne	.L123
 1434 0638 7047     		bx	lr
 1435              	.L117:
 1436 063a 91ED006A 		flds	s12, [r1]
 1437 063e D6E7     		b	.L119
 1438              	.L134:
 1439              		.align	2
 1440              	.L133:
 1441 0640 8FC2F53E 		.word	1056293519
 1442 0644 00000000 		.word	_ZN6stmlib19lut_pitch_ratio_lowE
 1443 0648 0000D8C2 		.word	-1026031616
 1444 064c 00000043 		.word	1124073472
 1445 0650 00000000 		.word	_ZN6stmlib20lut_pitch_ratio_highE
 1446 0654 B81E053F 		.word	1057300152
 1447 0658 17B7D138 		.word	953267991
 1448              	.LBE424:
 1449              	.LBE415:
 1450              	.LBE414:
 1451              	.LBE413:
 1452              		.cfi_endproc
 1453              	.LFE621:
 1454              		.cantunwind
 1455              		.fnend
 1456              		.size	_ZN6clouds19FrameTransformation18QuantizeMagnitudesEPff, .-_ZN6clouds19FrameTransformation18
 1457              		.align	2
 1458 065c AFF30080 		.p2align 4,,15
 1459              		.global	_ZN6clouds19FrameTransformation14WarpMagnitudesEPfS1_f
 1460              		.thumb
 1461              		.thumb_func
 1462              		.type	_ZN6clouds19FrameTransformation14WarpMagnitudesEPfS1_f, %function
 1463              	_ZN6clouds19FrameTransformation14WarpMagnitudesEPfS1_f:
 1464              		.fnstart
 1465              	.LFB622:
 1466              		.loc 1 243 0
 1467              		.cfi_startproc
 1468              		@ args = 0, pretend = 0, frame = 16
 1469              		@ frame_needed = 0, uses_anonymous_args = 0
 1470              		@ link register save eliminated.
 1471              	.LVL110:
 1472              	.LBB425:
 1473              		.loc 1 244 0
 1474 0660 8068     		ldr	r0, [r0, #8]
 1475              	.LVL111:
 1476 0662 07EE900A 		fmsr	s15, r0	@ int
ARM GAS  /tmp/ccHjaXes.s 			page 27


 1477 0666 F8EEE74A 		fsitos	s9, s15
 1478 066a B7EE005A 		fconsts	s10, #112
 1479 066e 85EE245A 		fdivs	s10, s10, s9
 1480              	.LVL112:
 1481              	.LBE425:
 1482              		.loc 1 243 0
 1483 0672 70B4     		push	{r4, r5, r6}
 1484              		.cfi_def_cfa_offset 12
 1485              		.cfi_offset 4, -12
 1486              		.cfi_offset 5, -8
 1487              		.cfi_offset 6, -4
 1488 0674 2D4C     		ldr	r4, .L143
 1489 0676 85B0     		sub	sp, sp, #20
 1490              		.cfi_def_cfa_offset 32
 1491 0678 6D46     		mov	r5, sp
 1492              	.LBB436:
 1493              		.loc 1 248 0
 1494 067a F1EE007A 		fconsts	s15, #16
 1495 067e 20EE270A 		fmuls	s0, s0, s15
 1496              	.LVL113:
 1497              		.loc 1 249 0
 1498 0682 FDEEC07A 		ftosizs	s15, s0
 1499              	.LVL114:
 1500 0686 17EE903A 		fmrs	r3, s15	@ int
 1501 068a B8EEE77A 		fsitos	s14, s15
 1502 068e 1B01     		lsls	r3, r3, #4
 1503 0690 03F11006 		add	r6, r3, #16
 1504 0694 2644     		add	r6, r6, r4
 1505 0696 30EE470A 		fsubs	s0, s0, s14
 1506              	.LVL115:
 1507 069a 2344     		add	r3, r3, r4
 1508 069c 3446     		mov	r4, r6
 1509              	.LVL116:
 1510              	.L136:
 1511              	.LBB426:
 1512              		.loc 1 252 0 discriminator 3
 1513 069e F3EC017A 		fldmias	r3!, {s15}
 1514              		.loc 1 253 0 discriminator 3
 1515 06a2 B4EC017A 		fldmias	r4!, {s14}
 1516              	.LVL117:
 1517              	.LBB427:
 1518              	.LBB428:
 1519              		.file 9 "./mutable_instruments/stmlib/dsp/dsp.h"
 1520              		.loc 9 94 0 discriminator 3
 1521 06a6 37EE677A 		fsubs	s14, s14, s15
 1522              	.LVL118:
 1523              	.LBE428:
 1524              	.LBE427:
 1525              		.loc 1 250 0 discriminator 3
 1526 06aa B342     		cmp	r3, r6
 1527              	.LBB430:
 1528              	.LBB429:
 1529              		.loc 9 94 0 discriminator 3
 1530 06ac E0EE077A 		vfma.f32	s15, s0, s14
 1531              	.LVL119:
 1532              	.LBE429:
 1533              	.LBE430:
ARM GAS  /tmp/ccHjaXes.s 			page 28


 1534              		.loc 1 254 0 discriminator 3
 1535 06b0 E5EC017A 		fstmias	r5!, {s15}
 1536              		.loc 1 250 0 discriminator 3
 1537 06b4 F3D1     		bne	.L136
 1538              	.LBE426:
 1539              	.LBB431:
 1540              		.loc 1 262 0
 1541 06b6 0128     		cmp	r0, #1
 1542              	.LBE431:
 1543              		.loc 1 257 0
 1544 06b8 9DED004A 		flds	s8, [sp]
 1545              	.LVL120:
 1546              		.loc 1 258 0
 1547 06bc DDED013A 		flds	s7, [sp, #4]
 1548              	.LVL121:
 1549              		.loc 1 259 0
 1550 06c0 9DED023A 		flds	s6, [sp, #8]
 1551              	.LVL122:
 1552              		.loc 1 260 0
 1553 06c4 DDED032A 		flds	s5, [sp, #12]
 1554              	.LVL123:
 1555              	.LBB435:
 1556              		.loc 1 262 0
 1557 06c8 2CDD     		ble	.L135
 1558 06ca 9FED197A 		flds	s14, .L143+4
 1559 06ce 02EB8000 		add	r0, r2, r0, lsl #2
 1560 06d2 0432     		adds	r2, r2, #4
 1561              	.LVL124:
 1562              	.L138:
 1563              	.LBB432:
 1564              		.loc 1 263 0 discriminator 3
 1565 06d4 37EE057A 		fadds	s14, s14, s10
 1566              	.LVL125:
 1567              		.loc 1 264 0 discriminator 3
 1568 06d8 F0EE637A 		fcpys	s15, s7
 1569 06dc E4EE077A 		vfma.f32	s15, s8, s14
 1570 06e0 F0EE436A 		fcpys	s13, s6
 1571 06e4 E7EE876A 		vfma.f32	s13, s15, s14
 1572 06e8 F0EE667A 		fcpys	s15, s13
 1573 06ec F0EE626A 		fcpys	s13, s5
 1574 06f0 E7EE876A 		vfma.f32	s13, s15, s14
 1575 06f4 64EEA67A 		fmuls	s15, s9, s13
 1576              	.LVL126:
 1577              	.LBB433:
 1578              	.LBB434:
 1579              		.loc 9 45 0 discriminator 3
 1580 06f8 FDEEE76A 		ftosizs	s13, s15
 1581              	.LVL127:
 1582              		.loc 9 46 0 discriminator 3
 1583 06fc 16EE903A 		fmrs	r3, s13	@ int
 1584 0700 01EB8303 		add	r3, r1, r3, lsl #2
 1585              		.loc 9 45 0 discriminator 3
 1586 0704 B8EEE66A 		fsitos	s12, s13
 1587              		.loc 9 48 0 discriminator 3
 1588 0708 D3ED015A 		flds	s11, [r3, #4]
 1589              		.loc 9 46 0 discriminator 3
 1590 070c D3ED006A 		flds	s13, [r3]
ARM GAS  /tmp/ccHjaXes.s 			page 29


 1591              	.LVL128:
 1592              		.loc 9 45 0 discriminator 3
 1593 0710 77EEC67A 		fsubs	s15, s15, s12
 1594              	.LVL129:
 1595              		.loc 9 48 0 discriminator 3
 1596 0714 35EEE66A 		fsubs	s12, s11, s13
 1597 0718 E7EE866A 		vfma.f32	s13, s15, s12
 1598              	.LVL130:
 1599              	.LBE434:
 1600              	.LBE433:
 1601              		.loc 1 265 0 discriminator 3
 1602 071c E2EC016A 		fstmias	r2!, {s13}
 1603              	.LVL131:
 1604              	.LBE432:
 1605              		.loc 1 262 0 discriminator 3
 1606 0720 8242     		cmp	r2, r0
 1607 0722 D7D1     		bne	.L138
 1608              	.LVL132:
 1609              	.L135:
 1610              	.LBE435:
 1611              	.LBE436:
 1612              		.loc 1 267 0
 1613 0724 05B0     		add	sp, sp, #20
 1614              		.cfi_def_cfa_offset 12
 1615              		@ sp needed
 1616 0726 70BC     		pop	{r4, r5, r6}
 1617              		.cfi_restore 6
 1618              		.cfi_restore 5
 1619              		.cfi_restore 4
 1620              		.cfi_def_cfa_offset 0
 1621 0728 7047     		bx	lr
 1622              	.L144:
 1623 072a 00BF     		.align	2
 1624              	.L143:
 1625 072c 00000000 		.word	.LANCHOR0
 1626 0730 00000000 		.word	0
 1627              		.cfi_endproc
 1628              	.LFE622:
 1629              		.cantunwind
 1630              		.fnend
 1631              		.size	_ZN6clouds19FrameTransformation14WarpMagnitudesEPfS1_f, .-_ZN6clouds19FrameTransformation14W
 1632              		.align	2
 1633 0734 AFF30080 		.p2align 4,,15
 1633      AFF30080 
 1633      AFF30080 
 1634              		.global	_ZN6clouds19FrameTransformation15ShiftMagnitudesEPfS1_f
 1635              		.thumb
 1636              		.thumb_func
 1637              		.type	_ZN6clouds19FrameTransformation15ShiftMagnitudesEPfS1_f, %function
 1638              	_ZN6clouds19FrameTransformation15ShiftMagnitudesEPfS1_f:
 1639              		.fnstart
 1640              	.LFB623:
 1641              		.loc 1 272 0
 1642              		.cfi_startproc
 1643              		@ args = 0, pretend = 0, frame = 0
 1644              		@ frame_needed = 0, uses_anonymous_args = 0
 1645              	.LVL133:
ARM GAS  /tmp/ccHjaXes.s 			page 30


 1646 0740 F8B5     		push	{r3, r4, r5, r6, r7, lr}
 1647              		.cfi_def_cfa_offset 24
 1648              		.cfi_offset 3, -24
 1649              		.cfi_offset 4, -20
 1650              		.cfi_offset 5, -16
 1651              		.cfi_offset 6, -12
 1652              		.cfi_offset 7, -8
 1653              		.cfi_offset 14, -4
 1654              	.LBB437:
 1655              	.LBB438:
 1656              		.loc 1 275 0
 1657 0742 F7EE006A 		fconsts	s13, #112
 1658              	.LBE438:
 1659              		.loc 1 274 0
 1660 0746 8668     		ldr	r6, [r0, #8]
 1661              	.LBB467:
 1662              		.loc 1 275 0
 1663 0748 B4EE660A 		fcmps	s0, s13
 1664              	.LBE467:
 1665              	.LBE437:
 1666              		.loc 1 272 0
 1667 074c 1546     		mov	r5, r2
 1668              	.LVL134:
 1669              	.LBB483:
 1670              	.LBB468:
 1671              		.loc 1 275 0
 1672 074e F1EE10FA 		fmstat
 1673              	.LBE468:
 1674              		.loc 1 274 0
 1675 0752 4FEA8602 		lsl	r2, r6, #2
 1676              	.LVL135:
 1677              	.LBE483:
 1678              		.loc 1 272 0
 1679 0756 0746     		mov	r7, r0
 1680              	.LBB484:
 1681              		.loc 1 274 0
 1682 0758 05EB0204 		add	r4, r5, r2
 1683              	.LVL136:
 1684              	.LBB469:
 1685              		.loc 1 275 0
 1686 075c 01D1     		bne	.L146
 1687              	.LVL137:
 1688              	.LBB439:
 1689              	.LBB440:
 1690              	.LBB441:
 1691              	.LBB442:
 1692              	.LBB443:
 1693              	.LBB444:
 1694              		.loc 2 377 0
 1695 075e 62BB     		cbnz	r2, .L168
 1696              	.LVL138:
 1697              	.L145:
 1698 0760 F8BD     		pop	{r3, r4, r5, r6, r7, pc}
 1699              	.LVL139:
 1700              	.L146:
 1701              	.LBE444:
 1702              	.LBE443:
ARM GAS  /tmp/ccHjaXes.s 			page 31


 1703              	.LBE442:
 1704              	.LBE441:
 1705              	.LBE440:
 1706              	.LBE439:
 1707              	.LBB450:
 1708              		.loc 1 277 0
 1709 0762 B4EEE60A 		fcmpes	s0, s13
 1710 0766 F1EE10FA 		fmstat
 1711 076a 0846     		mov	r0, r1
 1712              	.LVL140:
 1713 076c 2BDD     		ble	.L166
 1714              	.LVL141:
 1715              	.LBB451:
 1716              	.LBB452:
 1717              		.loc 1 280 0
 1718 076e 012E     		cmp	r6, #1
 1719              	.LBE452:
 1720              		.loc 1 279 0
 1721 0770 86EE800A 		fdivs	s0, s13, s0
 1722              	.LVL142:
 1723              	.LBB457:
 1724              		.loc 1 280 0
 1725 0774 19DD     		ble	.L149
 1726 0776 231D     		adds	r3, r4, #4
 1727 0778 A618     		adds	r6, r4, r2
 1728              	.LVL143:
 1729              	.L152:
 1730              	.LBB453:
 1731              	.LBB454:
 1732              		.loc 9 45 0 discriminator 3
 1733 077a FDEEE67A 		ftosizs	s15, s13
 1734              	.LVL144:
 1735              		.loc 9 46 0 discriminator 3
 1736 077e 17EE901A 		fmrs	r1, s15	@ int
 1737 0782 00EB8101 		add	r1, r0, r1, lsl #2
 1738 0786 91ED007A 		flds	s14, [r1]
 1739              	.LVL145:
 1740              		.loc 9 48 0 discriminator 3
 1741 078a 91ED016A 		flds	s12, [r1, #4]
 1742              		.loc 9 45 0 discriminator 3
 1743 078e F8EEE77A 		fsitos	s15, s15
 1744              	.LVL146:
 1745              		.loc 9 48 0 discriminator 3
 1746 0792 36EE476A 		fsubs	s12, s12, s14
 1747              		.loc 9 45 0 discriminator 3
 1748 0796 76EEE77A 		fsubs	s15, s13, s15
 1749              	.LVL147:
 1750              	.LBE454:
 1751              	.LBE453:
 1752              		.loc 1 282 0 discriminator 3
 1753 079a 76EE806A 		fadds	s13, s13, s0
 1754              	.LVL148:
 1755              	.LBB456:
 1756              	.LBB455:
 1757              		.loc 9 48 0 discriminator 3
 1758 079e A7EE867A 		vfma.f32	s14, s15, s12
 1759              	.LVL149:
ARM GAS  /tmp/ccHjaXes.s 			page 32


 1760              	.LBE455:
 1761              	.LBE456:
 1762              		.loc 1 281 0 discriminator 3
 1763 07a2 A3EC017A 		fstmias	r3!, {s14}
 1764              	.LVL150:
 1765              		.loc 1 280 0 discriminator 3
 1766 07a6 B342     		cmp	r3, r6
 1767 07a8 E7D1     		bne	.L152
 1768              	.LVL151:
 1769              	.L149:
 1770              	.LBE457:
 1771              	.LBE451:
 1772              	.LBE450:
 1773              	.LBE469:
 1774              	.LBB470:
 1775              	.LBB471:
 1776              	.LBB472:
 1777              	.LBB473:
 1778              	.LBB474:
 1779              	.LBB475:
 1780              		.loc 2 377 0
 1781 07aa 002A     		cmp	r2, #0
 1782 07ac D8D0     		beq	.L145
 1783              		.loc 2 378 0
 1784 07ae 2846     		mov	r0, r5
 1785 07b0 2146     		mov	r1, r4
 1786              	.LBE475:
 1787              	.LBE474:
 1788              	.LBE473:
 1789              	.LBE472:
 1790              	.LBE471:
 1791              	.LBE470:
 1792              	.LBE484:
 1793              		.loc 1 296 0
 1794 07b2 BDE8F840 		pop	{r3, r4, r5, r6, r7, lr}
 1795              		.cfi_remember_state
 1796              		.cfi_restore 14
 1797              		.cfi_restore 7
 1798              		.cfi_restore 6
 1799              		.cfi_restore 5
 1800              		.cfi_restore 4
 1801              		.cfi_restore 3
 1802              		.cfi_def_cfa_offset 0
 1803              	.LVL152:
 1804              	.LBB485:
 1805              	.LBB481:
 1806              	.LBB480:
 1807              	.LBB479:
 1808              	.LBB478:
 1809              	.LBB477:
 1810              	.LBB476:
 1811              		.loc 2 378 0
 1812 07b6 FFF7FEBF 		b	memmove
 1813              	.LVL153:
 1814              	.L168:
 1815              		.cfi_restore_state
 1816              	.LBE476:
ARM GAS  /tmp/ccHjaXes.s 			page 33


 1817              	.LBE477:
 1818              	.LBE478:
 1819              	.LBE479:
 1820              	.LBE480:
 1821              	.LBE481:
 1822              	.LBB482:
 1823              	.LBB465:
 1824              	.LBB449:
 1825              	.LBB448:
 1826              	.LBB447:
 1827              	.LBB446:
 1828              	.LBB445:
 1829 07ba 2046     		mov	r0, r4
 1830              	.LVL154:
 1831 07bc FFF7FEFF 		bl	memmove
 1832              	.LVL155:
 1833 07c0 BA68     		ldr	r2, [r7, #8]
 1834 07c2 9200     		lsls	r2, r2, #2
 1835 07c4 F1E7     		b	.L149
 1836              	.LVL156:
 1837              	.L166:
 1838              	.LBE445:
 1839              	.LBE446:
 1840              	.LBE447:
 1841              	.LBE448:
 1842              	.LBE449:
 1843              	.LBE465:
 1844              	.LBB466:
 1845              	.LBB458:
 1846              		.loc 1 285 0
 1847 07c6 A118     		adds	r1, r4, r2
 1848              	.LVL157:
 1849              	.LBB459:
 1850              	.LBB460:
 1851              	.LBB461:
 1852              		.loc 2 703 0
 1853 07c8 8C42     		cmp	r4, r1
 1854 07ca 05D0     		beq	.L156
 1855              		.loc 2 704 0
 1856 07cc 0027     		movs	r7, #0
 1857              	.LVL158:
 1858              		.loc 2 703 0
 1859 07ce 2346     		mov	r3, r4
 1860              	.LVL159:
 1861              	.L155:
 1862              		.loc 2 704 0
 1863 07d0 43F8047B 		str	r7, [r3], #4	@ float
 1864              	.LVL160:
 1865              		.loc 2 703 0
 1866 07d4 9942     		cmp	r1, r3
 1867 07d6 FBD1     		bne	.L155
 1868              	.LVL161:
 1869              	.L156:
 1870              	.LBE461:
 1871              	.LBE460:
 1872              	.LBE459:
 1873              	.LBB462:
ARM GAS  /tmp/ccHjaXes.s 			page 34


 1874              		.loc 1 288 0
 1875 07d8 012E     		cmp	r6, #1
 1876 07da E6DD     		ble	.L149
 1877 07dc F7EE006A 		fconsts	s13, #112
 1878 07e0 011D     		adds	r1, r0, #4
 1879              	.LVL162:
 1880              	.LBB463:
 1881              		.loc 1 290 0
 1882 07e2 B0EE665A 		fcpys	s10, s13
 1883 07e6 1044     		add	r0, r0, r2
 1884              	.LVL163:
 1885              	.L157:
 1886              		.loc 1 289 0 discriminator 3
 1887 07e8 FDEEE67A 		ftosizs	s15, s13
 1888              	.LVL164:
 1889 07ec 0F46     		mov	r7, r1
 1890 07ee B8EEE77A 		fsitos	s14, s15
 1891              		.loc 1 290 0 discriminator 3
 1892 07f2 17EE903A 		fmrs	r3, s15	@ int
 1893              		.loc 1 289 0 discriminator 3
 1894 07f6 76EEC77A 		fsubs	s15, s13, s14
 1895              	.LVL165:
 1896              		.loc 1 290 0 discriminator 3
 1897 07fa 9B00     		lsls	r3, r3, #2
 1898              	.LVL166:
 1899 07fc E618     		adds	r6, r4, r3
 1900 07fe B1EC016A 		fldmias	r1!, {s12}
 1901 0802 96ED007A 		flds	s14, [r6]
 1902 0806 75EE675A 		fsubs	s11, s10, s15
 1903              		.loc 1 291 0 discriminator 3
 1904 080a 0433     		adds	r3, r3, #4
 1905              		.loc 1 290 0 discriminator 3
 1906 080c A5EE867A 		vfma.f32	s14, s11, s12
 1907              		.loc 1 291 0 discriminator 3
 1908 0810 2344     		add	r3, r3, r4
 1909              	.LBE463:
 1910              		.loc 1 288 0 discriminator 3
 1911 0812 8142     		cmp	r1, r0
 1912              	.LBB464:
 1913              		.loc 1 292 0 discriminator 3
 1914 0814 76EE806A 		fadds	s13, s13, s0
 1915              	.LVL167:
 1916              		.loc 1 290 0 discriminator 3
 1917 0818 86ED007A 		fsts	s14, [r6]
 1918              		.loc 1 291 0 discriminator 3
 1919 081c 97ED006A 		flds	s12, [r7]
 1920 0820 93ED007A 		flds	s14, [r3]
 1921 0824 A6EE277A 		vfma.f32	s14, s12, s15
 1922 0828 83ED007A 		fsts	s14, [r3]
 1923              	.LBE464:
 1924              		.loc 1 288 0 discriminator 3
 1925 082c DCD1     		bne	.L157
 1926 082e BCE7     		b	.L149
 1927              	.LBE462:
 1928              	.LBE458:
 1929              	.LBE466:
 1930              	.LBE482:
ARM GAS  /tmp/ccHjaXes.s 			page 35


 1931              	.LBE485:
 1932              		.cfi_endproc
 1933              	.LFE623:
 1934              		.cantunwind
 1935              		.fnend
 1936              		.size	_ZN6clouds19FrameTransformation15ShiftMagnitudesEPfS1_f, .-_ZN6clouds19FrameTransformation15
 1937              		.align	2
 1938              		.p2align 4,,15
 1939              		.global	_ZN6clouds19FrameTransformation15StoreMagnitudesEPfff
 1940              		.thumb
 1941              		.thumb_func
 1942              		.type	_ZN6clouds19FrameTransformation15StoreMagnitudesEPfff, %function
 1943              	_ZN6clouds19FrameTransformation15StoreMagnitudesEPfff:
 1944              		.fnstart
 1945              	.LFB624:
 1946              		.loc 1 301 0
 1947              		.cfi_startproc
 1948              		@ args = 0, pretend = 0, frame = 8
 1949              		@ frame_needed = 0, uses_anonymous_args = 0
 1950              	.LVL168:
 1951              	.LBB486:
 1952              		.loc 1 303 0
 1953 0830 4368     		ldr	r3, [r0, #4]
 1954 0832 013B     		subs	r3, r3, #1
 1955 0834 07EE103A 		fmsr	s14, r3	@ int
 1956 0838 B8EEC77A 		fsitos	s14, s14
 1957              		.loc 1 306 0
 1958 083c F7EE007A 		fconsts	s15, #112
 1959              		.loc 1 303 0
 1960 0840 27EE007A 		fmuls	s14, s14, s0
 1961              	.LVL169:
 1962              		.loc 1 310 0
 1963 0844 B4EE670A 		fcmps	s0, s15
 1964              		.loc 1 304 0
 1965 0848 FDEEC76A 		ftosizs	s13, s14
 1966              		.loc 1 310 0
 1967 084c F1EE10FA 		fmstat
 1968              	.LBE486:
 1969              		.loc 1 301 0
 1970 0850 F0B5     		push	{r4, r5, r6, r7, lr}
 1971              		.cfi_def_cfa_offset 20
 1972              		.cfi_offset 4, -20
 1973              		.cfi_offset 5, -16
 1974              		.cfi_offset 6, -12
 1975              		.cfi_offset 7, -8
 1976              		.cfi_offset 14, -4
 1977              	.LBB538:
 1978              		.loc 1 304 0
 1979 0852 16EE903A 		fmrs	r3, s13	@ int
 1980              	.LVL170:
 1981              		.loc 1 305 0
 1982 0856 B8EEE64A 		fsitos	s8, s13
 1983              		.loc 1 310 0
 1984 085a 14BF     		ite	ne
 1985 085c 0122     		movne	r2, #1
 1986 085e 0022     		moveq	r2, #0
 1987 0860 1A44     		add	r2, r2, r3
ARM GAS  /tmp/ccHjaXes.s 			page 36


 1988              		.loc 1 305 0
 1989 0862 37EE444A 		fsubs	s8, s14, s8
 1990              	.LVL171:
 1991              	.LBB487:
 1992              		.loc 1 312 0
 1993 0866 B6EE007A 		fconsts	s14, #96
 1994              	.LVL172:
 1995              	.LBE487:
 1996              		.loc 1 310 0
 1997 086a 00EB8202 		add	r2, r0, r2, lsl #2
 1998              		.loc 1 309 0
 1999 086e 00EB8303 		add	r3, r0, r3, lsl #2
 2000              	.LVL173:
 2001              	.LBB534:
 2002              		.loc 1 312 0
 2003 0872 F4EEC70A 		fcmpes	s1, s14
 2004 0876 F1EE10FA 		fmstat
 2005              	.LBE534:
 2006              	.LBE538:
 2007              		.loc 1 301 0
 2008 087a 83B0     		sub	sp, sp, #12
 2009              		.cfi_def_cfa_offset 32
 2010              	.LBB539:
 2011              		.loc 1 306 0
 2012 087c 77EEC45A 		fsubs	s11, s15, s8
 2013              	.LVL174:
 2014              		.loc 1 310 0
 2015 0880 D568     		ldr	r5, [r2, #12]
 2016              		.loc 1 309 0
 2017 0882 DB68     		ldr	r3, [r3, #12]
 2018              	.LVL175:
 2019              	.LBB535:
 2020              		.loc 1 312 0
 2021 0884 2ADB     		blt	.L186
 2022              	.LBB488:
 2023              		.loc 1 313 0
 2024 0886 70EEC70A 		fsubs	s1, s1, s14
 2025              	.LVL176:
 2026 088a 70EEA00A 		fadds	s1, s1, s1
 2027              	.LVL177:
 2028              	.LBB489:
 2029              		.loc 1 314 0
 2030 088e F4EEC70A 		fcmpes	s1, s14
 2031 0892 F1EE10FA 		fmstat
 2032 0896 65D5     		bpl	.L187
 2033              	.LBB490:
 2034              	.LBB491:
 2035              		.loc 1 317 0
 2036 0898 8268     		ldr	r2, [r0, #8]
 2037              	.LBE491:
 2038              		.loc 1 315 0
 2039 089a 77EEE00A 		fsubs	s1, s15, s1
 2040              	.LVL178:
 2041              	.LBB500:
 2042              		.loc 1 317 0
 2043 089e 002A     		cmp	r2, #0
 2044              	.LBE500:
ARM GAS  /tmp/ccHjaXes.s 			page 37


 2045              		.loc 1 315 0
 2046 08a0 60EEA55A 		fmuls	s11, s1, s11
 2047              	.LVL179:
 2048              		.loc 1 316 0
 2049 08a4 64EE200A 		fmuls	s1, s8, s1
 2050              	.LVL180:
 2051              	.LBB501:
 2052              		.loc 1 317 0
 2053 08a8 16DD     		ble	.L169
 2054 08aa 2846     		mov	r0, r5
 2055              	.LVL181:
 2056 08ac 01EB8202 		add	r2, r1, r2, lsl #2
 2057              	.LVL182:
 2058              	.L175:
 2059              	.LBB492:
 2060              		.loc 1 318 0 discriminator 3
 2061 08b0 B1EC017A 		fldmias	r1!, {s14}
 2062              	.LVL183:
 2063              		.loc 1 319 0 discriminator 3
 2064 08b4 D3ED007A 		flds	s15, [r3]
 2065              	.LVL184:
 2066              	.LBB493:
 2067              	.LBB494:
 2068              		.loc 9 94 0 discriminator 3
 2069 08b8 77EE676A 		fsubs	s13, s14, s15
 2070              	.LBE494:
 2071              	.LBE493:
 2072              	.LBE492:
 2073              		.loc 1 317 0 discriminator 3
 2074 08bc 9142     		cmp	r1, r2
 2075              	.LBB499:
 2076              	.LBB496:
 2077              	.LBB495:
 2078              		.loc 9 94 0 discriminator 3
 2079 08be E5EEA67A 		vfma.f32	s15, s11, s13
 2080              	.LVL185:
 2081              	.LBE495:
 2082              	.LBE496:
 2083              		.loc 1 319 0 discriminator 3
 2084 08c2 E3EC017A 		fstmias	r3!, {s15}
 2085              	.LVL186:
 2086              		.loc 1 320 0 discriminator 3
 2087 08c6 D0ED007A 		flds	s15, [r0]
 2088              	.LVL187:
 2089              	.LBB497:
 2090              	.LBB498:
 2091              		.loc 9 94 0 discriminator 3
 2092 08ca 37EE677A 		fsubs	s14, s14, s15
 2093              	.LVL188:
 2094 08ce E0EE877A 		vfma.f32	s15, s1, s14
 2095              	.LVL189:
 2096              	.LBE498:
 2097              	.LBE497:
 2098              		.loc 1 320 0 discriminator 3
 2099 08d2 E0EC017A 		fstmias	r0!, {s15}
 2100              	.LVL190:
 2101              	.LBE499:
ARM GAS  /tmp/ccHjaXes.s 			page 38


 2102              		.loc 1 317 0 discriminator 3
 2103 08d6 EBD1     		bne	.L175
 2104              	.LVL191:
 2105              	.L169:
 2106              	.LBE501:
 2107              	.LBE490:
 2108              	.LBE489:
 2109              	.LBE488:
 2110              	.LBE535:
 2111              	.LBE539:
 2112              		.loc 1 348 0
 2113 08d8 03B0     		add	sp, sp, #12
 2114              		.cfi_remember_state
 2115              		.cfi_def_cfa_offset 20
 2116              		@ sp needed
 2117 08da F0BD     		pop	{r4, r5, r6, r7, pc}
 2118              	.LVL192:
 2119              	.L186:
 2120              		.cfi_restore_state
 2121              	.LBB540:
 2122              	.LBB536:
 2123              	.LBB509:
 2124              		.loc 1 337 0
 2125 08dc 70EEA00A 		fadds	s1, s1, s1
 2126              	.LVL193:
 2127              		.loc 1 339 0
 2128 08e0 9FED3E7A 		flds	s14, .L189
 2129              	.LBB510:
 2130              		.loc 1 340 0
 2131 08e4 8668     		ldr	r6, [r0, #8]
 2132              	.LBE510:
 2133              		.loc 1 338 0
 2134 08e6 60EEA00A 		fmuls	s1, s1, s1
 2135              	.LVL194:
 2136              	.LBB531:
 2137              		.loc 1 340 0
 2138 08ea 002E     		cmp	r6, #0
 2139              	.LBE531:
 2140              		.loc 1 339 0
 2141 08ec 60EE870A 		fmuls	s1, s1, s14
 2142              	.LVL195:
 2143 08f0 FCEEE00A 		ftouizs	s1, s1
 2144 08f4 CDED010A 		fsts	s1, [sp, #4]	@ int
 2145 08f8 BDF80440 		ldrh	r4, [sp, #4]
 2146              	.LVL196:
 2147              	.LBB532:
 2148              		.loc 1 340 0
 2149 08fc ECDD     		ble	.L169
 2150 08fe DFF8F0E0 		ldr	lr, .L189+20
 2151              	.LBB511:
 2152              	.LBB512:
 2153              	.LBB513:
 2154              	.LBB514:
 2155              	.LBB515:
 2156              		.loc 5 45 0
 2157 0902 374F     		ldr	r7, .L189+4
 2158 0904 DEF80020 		ldr	r2, [lr]
ARM GAS  /tmp/ccHjaXes.s 			page 39


 2159              	.LBE515:
 2160              	.LBE514:
 2161              	.LBE513:
 2162              	.LBE512:
 2163              		.loc 1 343 0
 2164 0908 DFED363A 		flds	s7, .L189+8
 2165 090c F0EE670A 		fcpys	s1, s15
 2166 0910 2846     		mov	r0, r5
 2167              	.LVL197:
 2168 0912 01EB8606 		add	r6, r1, r6, lsl #2
 2169              	.LVL198:
 2170              	.L179:
 2171              	.LBB522:
 2172              	.LBB520:
 2173              	.LBB518:
 2174              	.LBB516:
 2175              		.loc 5 45 0
 2176 0916 07FB02F5 		mul	r5, r7, r2
 2177 091a 334A     		ldr	r2, .L189+12
 2178              	.LBE516:
 2179              	.LBE518:
 2180              	.LBE520:
 2181              	.LBE522:
 2182              		.loc 1 341 0
 2183 091c B1EC017A 		fldmias	r1!, {s14}
 2184              	.LVL199:
 2185              		.loc 1 344 0
 2186 0920 93ED006A 		flds	s12, [r3]
 2187              	.LBB523:
 2188              	.LBB521:
 2189              	.LBB519:
 2190              	.LBB517:
 2191              		.loc 5 45 0
 2192 0924 2A44     		add	r2, r2, r5
 2193              	.LBE517:
 2194              	.LBE519:
 2195              	.LBE521:
 2196              	.LBE523:
 2197              		.loc 1 343 0
 2198 0926 B4EB124F 		cmp	r4, r2, lsr #16
 2199 092a 34BF     		ite	cc
 2200 092c F0EE637A 		fcpyscc	s15, s7
 2201 0930 F0EE607A 		fcpyscs	s15, s1
 2202              	.LVL200:
 2203              		.loc 1 344 0
 2204 0934 27EEA55A 		fmuls	s10, s15, s11
 2205              	.LVL201:
 2206              	.LBB524:
 2207              	.LBB525:
 2208              		.loc 9 94 0
 2209 0938 77EE464A 		fsubs	s9, s14, s12
 2210              	.LBE525:
 2211              	.LBE524:
 2212              		.loc 1 345 0
 2213 093c 67EE846A 		fmuls	s13, s15, s8
 2214              	.LBB527:
 2215              	.LBB526:
ARM GAS  /tmp/ccHjaXes.s 			page 40


 2216              		.loc 9 94 0
 2217 0940 A4EE856A 		vfma.f32	s12, s9, s10
 2218              	.LVL202:
 2219              	.LBE526:
 2220              	.LBE527:
 2221              	.LBE511:
 2222              		.loc 1 340 0
 2223 0944 B142     		cmp	r1, r6
 2224              	.LBB530:
 2225              		.loc 1 344 0
 2226 0946 A3EC016A 		fstmias	r3!, {s12}
 2227              	.LVL203:
 2228              		.loc 1 345 0
 2229 094a D0ED007A 		flds	s15, [r0]
 2230              	.LVL204:
 2231              	.LBB528:
 2232              	.LBB529:
 2233              		.loc 9 94 0
 2234 094e 37EE677A 		fsubs	s14, s14, s15
 2235              	.LVL205:
 2236 0952 E6EE877A 		vfma.f32	s15, s13, s14
 2237              	.LVL206:
 2238              	.LBE529:
 2239              	.LBE528:
 2240              		.loc 1 345 0
 2241 0956 E0EC017A 		fstmias	r0!, {s15}
 2242              	.LVL207:
 2243              	.LBE530:
 2244              		.loc 1 340 0
 2245 095a DCD1     		bne	.L179
 2246 095c CEF80020 		str	r2, [lr]
 2247              	.LBE532:
 2248              	.LBE509:
 2249              	.LBE536:
 2250              	.LBE540:
 2251              		.loc 1 348 0
 2252 0960 03B0     		add	sp, sp, #12
 2253              		.cfi_remember_state
 2254              		.cfi_def_cfa_offset 20
 2255              		@ sp needed
 2256 0962 F0BD     		pop	{r4, r5, r6, r7, pc}
 2257              	.LVL208:
 2258              	.L187:
 2259              		.cfi_restore_state
 2260              	.LBB541:
 2261              	.LBB537:
 2262              	.LBB533:
 2263              	.LBB508:
 2264              	.LBB502:
 2265              		.loc 1 323 0
 2266 0964 70EEC70A 		fsubs	s1, s1, s14
 2267              	.LVL209:
 2268 0968 DFED206A 		flds	s13, .L189+16
 2269              	.LVL210:
 2270              	.LBB503:
 2271              		.loc 1 330 0
 2272 096c 8268     		ldr	r2, [r0, #8]
ARM GAS  /tmp/ccHjaXes.s 			page 41


 2273              	.LBE503:
 2274              		.loc 1 323 0
 2275 096e B0EE476A 		fcpys	s12, s14
 2276 0972 A0EEA66A 		vfma.f32	s12, s1, s13
 2277              	.LBB506:
 2278              		.loc 1 330 0
 2279 0976 002A     		cmp	r2, #0
 2280              	.LBE506:
 2281              		.loc 1 325 0
 2282 0978 F0EE004A 		fconsts	s9, #0
 2283              		.loc 1 323 0
 2284 097c F0EE466A 		fcpys	s13, s12
 2285              	.LVL211:
 2286              		.loc 1 324 0
 2287 0980 36EE476A 		fsubs	s12, s12, s14
 2288              	.LVL212:
 2289              		.loc 1 328 0
 2290 0984 77EEE66A 		fsubs	s13, s15, s13
 2291              	.LVL213:
 2292              		.loc 1 325 0
 2293 0988 26EE065A 		fmuls	s10, s12, s12
 2294              		.loc 1 328 0
 2295 098c B0EE676A 		fcpys	s12, s15
 2296              	.LVL214:
 2297              		.loc 1 325 0
 2298 0990 A5EE247A 		vfma.f32	s14, s10, s9
 2299              	.LVL215:
 2300              		.loc 1 329 0
 2301 0994 E4EE667A 		vfms.f32	s15, s8, s13
 2302              		.loc 1 328 0
 2303 0998 A6EEE56A 		vfms.f32	s12, s13, s11
 2304              		.loc 1 329 0
 2305 099c F0EE670A 		fcpys	s1, s15
 2306              	.LVL216:
 2307              		.loc 1 326 0
 2308 09a0 65EE875A 		fmuls	s11, s11, s14
 2309              	.LVL217:
 2310              		.loc 1 327 0
 2311 09a4 24EE074A 		fmuls	s8, s8, s14
 2312              	.LVL218:
 2313              	.LBB507:
 2314              		.loc 1 330 0
 2315 09a8 96DD     		ble	.L169
 2316 09aa 2846     		mov	r0, r5
 2317              	.LVL219:
 2318 09ac 01EB8202 		add	r2, r1, r2, lsl #2
 2319              	.LVL220:
 2320              	.L177:
 2321              	.LBB504:
 2322              		.loc 1 331 0 discriminator 3
 2323 09b0 F1EC017A 		fldmias	r1!, {s15}
 2324              	.LVL221:
 2325              		.loc 1 332 0 discriminator 3
 2326 09b4 D3ED006A 		flds	s13, [r3]
 2327 09b8 27EEA57A 		fmuls	s14, s15, s11
 2328              		.loc 1 333 0 discriminator 3
 2329 09bc 67EE847A 		fmuls	s15, s15, s8
ARM GAS  /tmp/ccHjaXes.s 			page 42


 2330              	.LVL222:
 2331              		.loc 1 332 0 discriminator 3
 2332 09c0 A6EE867A 		vfma.f32	s14, s13, s12
 2333              	.LBE504:
 2334              		.loc 1 330 0 discriminator 3
 2335 09c4 9142     		cmp	r1, r2
 2336              	.LBB505:
 2337              		.loc 1 332 0 discriminator 3
 2338 09c6 A3EC017A 		fstmias	r3!, {s14}
 2339              	.LVL223:
 2340              		.loc 1 333 0 discriminator 3
 2341 09ca 90ED007A 		flds	s14, [r0]
 2342 09ce E7EE207A 		vfma.f32	s15, s14, s1
 2343 09d2 E0EC017A 		fstmias	r0!, {s15}
 2344              	.LVL224:
 2345              	.LBE505:
 2346              		.loc 1 330 0 discriminator 3
 2347 09d6 EBD1     		bne	.L177
 2348              	.LBE507:
 2349              	.LBE502:
 2350              	.LBE508:
 2351              	.LBE533:
 2352              	.LBE537:
 2353              	.LBE541:
 2354              		.loc 1 348 0
 2355 09d8 03B0     		add	sp, sp, #12
 2356              		.cfi_def_cfa_offset 20
 2357              		@ sp needed
 2358 09da F0BD     		pop	{r4, r5, r6, r7, pc}
 2359              	.LVL225:
 2360              	.L190:
 2361              		.align	2
 2362              	.L189:
 2363 09dc 00FF7F47 		.word	1199570688
 2364 09e0 0D661900 		.word	1664525
 2365 09e4 00000000 		.word	0
 2366 09e8 5FF36E3C 		.word	1013904223
 2367 09ec 3333333F 		.word	1060320051
 2368 09f0 00000000 		.word	_ZN6stmlib6Random10rng_state_E
 2369              		.cfi_endproc
 2370              	.LFE624:
 2371              		.cantunwind
 2372              		.fnend
 2373              		.size	_ZN6clouds19FrameTransformation15StoreMagnitudesEPfff, .-_ZN6clouds19FrameTransformation15St
 2374              		.align	2
 2375 09f4 AFF30080 		.p2align 4,,15
 2375      AFF30080 
 2375      AFF30080 
 2376              		.global	_ZN6clouds19FrameTransformation16ReplayMagnitudesEPff
 2377              		.thumb
 2378              		.thumb_func
 2379              		.type	_ZN6clouds19FrameTransformation16ReplayMagnitudesEPff, %function
 2380              	_ZN6clouds19FrameTransformation16ReplayMagnitudesEPff:
 2381              		.fnstart
 2382              	.LFB625:
 2383              		.loc 1 350 0
 2384              		.cfi_startproc
ARM GAS  /tmp/ccHjaXes.s 			page 43


 2385              		@ args = 0, pretend = 0, frame = 0
 2386              		@ frame_needed = 0, uses_anonymous_args = 0
 2387              		@ link register save eliminated.
 2388              	.LVL226:
 2389              	.LBB542:
 2390              		.loc 1 351 0
 2391 0a00 4368     		ldr	r3, [r0, #4]
 2392 0a02 013B     		subs	r3, r3, #1
 2393 0a04 06EE903A 		fmsr	s13, r3	@ int
 2394 0a08 F8EEE66A 		fsitos	s13, s13
 2395              		.loc 1 355 0
 2396 0a0c B7EE007A 		fconsts	s14, #112
 2397              		.loc 1 351 0
 2398 0a10 66EE807A 		fmuls	s15, s13, s0
 2399              	.LVL227:
 2400              		.loc 1 355 0
 2401 0a14 B4EE470A 		fcmps	s0, s14
 2402              		.loc 1 352 0
 2403 0a18 BDEEE77A 		ftosizs	s14, s15
 2404              		.loc 1 355 0
 2405 0a1c F1EE10FA 		fmstat
 2406              		.loc 1 352 0
 2407 0a20 17EE102A 		fmrs	r2, s14	@ int
 2408              	.LVL228:
 2409              		.loc 1 355 0
 2410 0a24 14BF     		ite	ne
 2411 0a26 0123     		movne	r3, #1
 2412 0a28 0023     		moveq	r3, #0
 2413 0a2a 1344     		add	r3, r3, r2
 2414              	.LBE542:
 2415              		.loc 1 350 0
 2416 0a2c 10B4     		push	{r4}
 2417              		.cfi_def_cfa_offset 4
 2418              		.cfi_offset 4, -4
 2419              	.LBB550:
 2420              	.LBB543:
 2421              		.loc 1 356 0
 2422 0a2e 8468     		ldr	r4, [r0, #8]
 2423              	.LBE543:
 2424              		.loc 1 355 0
 2425 0a30 00EB8303 		add	r3, r0, r3, lsl #2
 2426              		.loc 1 353 0
 2427 0a34 F8EEC76A 		fsitos	s13, s14
 2428              		.loc 1 354 0
 2429 0a38 00EB8200 		add	r0, r0, r2, lsl #2
 2430              	.LVL229:
 2431              	.LBB548:
 2432              		.loc 1 356 0
 2433 0a3c 002C     		cmp	r4, #0
 2434              	.LBE548:
 2435              		.loc 1 355 0
 2436 0a3e DA68     		ldr	r2, [r3, #12]
 2437              	.LVL230:
 2438              		.loc 1 354 0
 2439 0a40 C368     		ldr	r3, [r0, #12]
 2440              		.loc 1 353 0
 2441 0a42 77EEE66A 		fsubs	s13, s15, s13
ARM GAS  /tmp/ccHjaXes.s 			page 44


 2442              	.LVL231:
 2443              	.LBB549:
 2444              		.loc 1 356 0
 2445 0a46 0DDD     		ble	.L191
 2446 0a48 03EB8400 		add	r0, r3, r4, lsl #2
 2447              	.LVL232:
 2448              	.L193:
 2449              		.loc 1 357 0 discriminator 3
 2450 0a4c F3EC017A 		fldmias	r3!, {s15}
 2451 0a50 B2EC017A 		fldmias	r2!, {s14}
 2452              	.LVL233:
 2453              	.LBB544:
 2454              	.LBB545:
 2455              		.loc 9 94 0 discriminator 3
 2456 0a54 37EE677A 		fsubs	s14, s14, s15
 2457              	.LVL234:
 2458              	.LBE545:
 2459              	.LBE544:
 2460              		.loc 1 356 0 discriminator 3
 2461 0a58 8342     		cmp	r3, r0
 2462              	.LBB547:
 2463              	.LBB546:
 2464              		.loc 9 94 0 discriminator 3
 2465 0a5a E6EE877A 		vfma.f32	s15, s13, s14
 2466              	.LVL235:
 2467              	.LBE546:
 2468              	.LBE547:
 2469              		.loc 1 357 0 discriminator 3
 2470 0a5e E1EC017A 		fstmias	r1!, {s15}
 2471              	.LVL236:
 2472              		.loc 1 356 0 discriminator 3
 2473 0a62 F3D1     		bne	.L193
 2474              	.LVL237:
 2475              	.L191:
 2476              	.LBE549:
 2477              	.LBE550:
 2478              		.loc 1 359 0
 2479 0a64 5DF8044B 		ldr	r4, [sp], #4
 2480              		.cfi_restore 4
 2481              		.cfi_def_cfa_offset 0
 2482 0a68 7047     		bx	lr
 2483              		.cfi_endproc
 2484              	.LFE625:
 2485              		.cantunwind
 2486              		.fnend
 2487              		.size	_ZN6clouds19FrameTransformation16ReplayMagnitudesEPff, .-_ZN6clouds19FrameTransformation16Re
 2488 0a6a 00BF     		.align	2
 2489 0a6c AFF30080 		.p2align 4,,15
 2490              		.global	_ZN6clouds19FrameTransformation7ProcessERKNS_10ParametersEPfS4_
 2491              		.thumb
 2492              		.thumb_func
 2493              		.type	_ZN6clouds19FrameTransformation7ProcessERKNS_10ParametersEPfS4_, %function
 2494              	_ZN6clouds19FrameTransformation7ProcessERKNS_10ParametersEPfS4_:
 2495              		.fnstart
 2496              	.LFB616:
 2497              		.loc 1 72 0
 2498              		.cfi_startproc
ARM GAS  /tmp/ccHjaXes.s 			page 45


 2499              		@ args = 0, pretend = 0, frame = 0
 2500              		@ frame_needed = 0, uses_anonymous_args = 0
 2501              	.LVL238:
 2502 0a70 2DE9F041 		push	{r4, r5, r6, r7, r8, lr}
 2503              		.cfi_def_cfa_offset 24
 2504              		.cfi_offset 4, -24
 2505              		.cfi_offset 5, -20
 2506              		.cfi_offset 6, -16
 2507              		.cfi_offset 7, -12
 2508              		.cfi_offset 8, -8
 2509              		.cfi_offset 14, -4
 2510 0a74 1746     		mov	r7, r2
 2511              	.LBB551:
 2512              		.loc 1 74 0
 2513 0a76 0268     		ldr	r2, [r0]
 2514              	.LVL239:
 2515              	.LBB552:
 2516              	.LBB553:
 2517              		.loc 8 41 0
 2518 0a78 9FED487A 		flds	s14, .L205
 2519              	.LBE553:
 2520              	.LBE552:
 2521              		.loc 1 74 0
 2522 0a7c 5210     		asrs	r2, r2, #1
 2523 0a7e 07EB8202 		add	r2, r7, r2, lsl #2
 2524              		.loc 1 73 0
 2525 0a82 0025     		movs	r5, #0
 2526              	.LBE551:
 2527              		.loc 1 72 0
 2528 0a84 2DED028B 		fstmfdd	sp!, {d8}
 2529              		.cfi_def_cfa_offset 32
 2530              		.cfi_offset 80, -32
 2531              		.cfi_offset 81, -28
 2532              	.LBB572:
 2533              		.loc 1 73 0
 2534 0a88 3D60     		str	r5, [r7]	@ float
 2535              		.loc 1 74 0
 2536 0a8a 1560     		str	r5, [r2]	@ float
 2537              	.LVL240:
 2538              	.LBB559:
 2539              	.LBB554:
 2540              		.loc 8 41 0
 2541 0a8c D1ED027A 		flds	s15, [r1, #8]
 2542              		.loc 8 45 0
 2543 0a90 434A     		ldr	r2, .L205+4
 2544              		.loc 8 41 0
 2545 0a92 77EE877A 		fadds	s15, s15, s14
 2546              	.LBE554:
 2547              	.LBE559:
 2548              	.LBE572:
 2549              		.loc 1 72 0
 2550 0a96 0E46     		mov	r6, r1
 2551              	.LBB573:
 2552              	.LBB560:
 2553              	.LBB555:
 2554              		.loc 8 42 0
 2555 0a98 BDEEE77A 		ftosizs	s14, s15
ARM GAS  /tmp/ccHjaXes.s 			page 46


 2556              		.loc 8 44 0
 2557 0a9c 4149     		ldr	r1, .L205+8
 2558              	.LVL241:
 2559              	.LBE555:
 2560              	.LBE560:
 2561              		.loc 1 80 0
 2562 0a9e 96F824E0 		ldrb	lr, [r6, #36]	@ zero_extendqisi2
 2563              		.loc 1 77 0
 2564 0aa2 96F82680 		ldrb	r8, [r6, #38]	@ zero_extendqisi2
 2565              	.LVL242:
 2566              	.LBB561:
 2567              	.LBB556:
 2568              		.loc 8 42 0
 2569 0aa6 F8EEC76A 		fsitos	s13, s14
 2570              	.LBE556:
 2571              	.LBE561:
 2572              	.LBE573:
 2573              		.loc 1 72 0
 2574 0aaa 1D46     		mov	r5, r3
 2575              	.LBB574:
 2576              	.LBB562:
 2577              	.LBB557:
 2578              		.loc 8 42 0
 2579 0aac 77EEE67A 		fsubs	s15, s15, s13
 2580              	.LVL243:
 2581              		.loc 8 44 0
 2582 0ab0 17EE103A 		fmrs	r3, s14	@ int
 2583              	.LVL244:
 2584 0ab4 FEEECC7A 		vcvt.s32.f32	s15, s15, #8
 2585              	.LVL245:
 2586 0ab8 01EB8301 		add	r1, r1, r3, lsl #2
 2587              		.loc 8 45 0
 2588 0abc 17EE903A 		fmrs	r3, s15	@ int
 2589 0ac0 02EB8302 		add	r2, r2, r3, lsl #2
 2590 0ac4 91ED007A 		flds	s14, [r1]
 2591              	.LVL246:
 2592 0ac8 92ED008A 		flds	s16, [r2]
 2593              	.LBE557:
 2594              	.LBE562:
 2595              	.LBE574:
 2596              		.loc 1 72 0
 2597 0acc 0446     		mov	r4, r0
 2598              	.LBB575:
 2599              	.LBB563:
 2600              	.LBB558:
 2601              		.loc 8 45 0
 2602 0ace 27EE088A 		fmuls	s16, s14, s16
 2603              	.LBE558:
 2604              	.LBE563:
 2605              		.loc 1 80 0
 2606 0ad2 BEF1000F 		cmp	lr, #0
 2607 0ad6 3FD0     		beq	.L203
 2608              	.LVL247:
 2609              	.L198:
 2610              		.loc 1 88 0
 2611 0ad8 2046     		mov	r0, r4
 2612 0ada 2946     		mov	r1, r5
ARM GAS  /tmp/ccHjaXes.s 			page 47


 2613 0adc 96ED000A 		flds	s0, [r6]
 2614 0ae0 FFF7FEFF 		bl	_ZN6clouds19FrameTransformation16ReplayMagnitudesEPff
 2615              	.LVL248:
 2616              		.loc 1 89 0
 2617 0ae4 2046     		mov	r0, r4
 2618 0ae6 2946     		mov	r1, r5
 2619 0ae8 3A46     		mov	r2, r7
 2620 0aea 96ED110A 		flds	s0, [r6, #68]
 2621 0aee FFF7FEFF 		bl	_ZN6clouds19FrameTransformation14WarpMagnitudesEPfS1_f
 2622              	.LVL249:
 2623              		.loc 1 90 0
 2624 0af2 2046     		mov	r0, r4
 2625 0af4 3946     		mov	r1, r7
 2626 0af6 2A46     		mov	r2, r5
 2627 0af8 B0EE480A 		fcpys	s0, s16
 2628 0afc FFF7FEFF 		bl	_ZN6clouds19FrameTransformation15ShiftMagnitudesEPfS1_f
 2629              	.LVL250:
 2630              		.loc 1 92 0
 2631 0b00 2046     		mov	r0, r4
 2632 0b02 2946     		mov	r1, r5
 2633              		.loc 1 91 0
 2634 0b04 B8F1000F 		cmp	r8, #0
 2635 0b08 32D1     		bne	.L204
 2636              	.LVL251:
 2637              		.loc 1 94 0
 2638 0b0a 96ED0E0A 		flds	s0, [r6, #56]
 2639 0b0e FFF7FEFF 		bl	_ZN6clouds19FrameTransformation18QuantizeMagnitudesEPff
 2640              	.LVL252:
 2641              		.loc 1 95 0
 2642 0b12 2046     		mov	r0, r4
 2643 0b14 2946     		mov	r1, r5
 2644 0b16 F0EE480A 		fcpys	s1, s16
 2645 0b1a 96ED100A 		flds	s0, [r6, #64]
 2646 0b1e FFF7FEFF 		bl	_ZN6clouds19FrameTransformation9SetPhasesEPfff
 2647              	.LVL253:
 2648              		.loc 1 96 0
 2649 0b22 2046     		mov	r0, r4
 2650 0b24 2946     		mov	r1, r5
 2651 0b26 FFF7FEFF 		bl	_ZN6clouds19FrameTransformation18PolarToRectangularEPf
 2652              	.LVL254:
 2653              	.LBB564:
 2654              	.LBB565:
 2655              	.LBB566:
 2656              	.LBB567:
 2657              		.loc 5 45 0
 2658 0b2a 1F49     		ldr	r1, .L205+12
 2659 0b2c 1F4A     		ldr	r2, .L205+16
 2660 0b2e 0868     		ldr	r0, [r1]
 2661 0b30 1F4B     		ldr	r3, .L205+20
 2662 0b32 02FB00F2 		mul	r2, r2, r0
 2663 0b36 1344     		add	r3, r3, r2
 2664              	.LBE567:
 2665              	.LBE566:
 2666              	.LBE565:
 2667              	.LBE564:
 2668              		.loc 1 101 0
 2669 0b38 C3F30142 		ubfx	r2, r3, #16, #2
ARM GAS  /tmp/ccHjaXes.s 			page 48


 2670              	.LBB571:
 2671              	.LBB570:
 2672              	.LBB569:
 2673              	.LBB568:
 2674              		.loc 5 45 0
 2675 0b3c 0B60     		str	r3, [r1]
 2676              	.LBE568:
 2677              	.LBE569:
 2678              	.LBE570:
 2679              	.LBE571:
 2680              		.loc 1 101 0
 2681 0b3e 84F83020 		strb	r2, [r4, #48]
 2682              	.L200:
 2683              		.loc 1 105 0
 2684 0b42 2368     		ldr	r3, [r4]
 2685              	.LBE575:
 2686              		.loc 1 106 0
 2687 0b44 BDEC028B 		fldmfdd	sp!, {d8}
 2688              		.cfi_remember_state
 2689              		.cfi_restore 80
 2690              		.cfi_restore 81
 2691              		.cfi_def_cfa_offset 24
 2692              	.LBB576:
 2693              		.loc 1 105 0
 2694 0b48 5B10     		asrs	r3, r3, #1
 2695 0b4a 05EB8303 		add	r3, r5, r3, lsl #2
 2696              		.loc 1 104 0
 2697 0b4e 0022     		movs	r2, #0
 2698 0b50 2A60     		str	r2, [r5]	@ float
 2699              		.loc 1 105 0
 2700 0b52 1A60     		str	r2, [r3]	@ float
 2701              	.LBE576:
 2702              		.loc 1 106 0
 2703 0b54 BDE8F081 		pop	{r4, r5, r6, r7, r8, pc}
 2704              	.LVL255:
 2705              	.L203:
 2706              		.cfi_restore_state
 2707              	.LBB577:
 2708              		.loc 1 81 0
 2709 0b58 3946     		mov	r1, r7
 2710 0b5a FFF7FEFF 		bl	_ZN6clouds19FrameTransformation18RectangularToPolarEPf
 2711              	.LVL256:
 2712              		.loc 1 85 0
 2713 0b5e 2046     		mov	r0, r4
 2714 0b60 3946     		mov	r1, r7
 2715 0b62 96ED000A 		flds	s0, [r6]
 2716 0b66 D6ED0F0A 		flds	s1, [r6, #60]
 2717 0b6a FFF7FEFF 		bl	_ZN6clouds19FrameTransformation15StoreMagnitudesEPfff
 2718              	.LVL257:
 2719 0b6e B3E7     		b	.L198
 2720              	.LVL258:
 2721              	.L204:
 2722              		.loc 1 92 0
 2723 0b70 FFF7FEFF 		bl	_ZN6clouds19FrameTransformation9AddGlitchEPf
 2724              	.LVL259:
 2725              		.loc 1 94 0
 2726 0b74 2046     		mov	r0, r4
ARM GAS  /tmp/ccHjaXes.s 			page 49


 2727 0b76 2946     		mov	r1, r5
 2728 0b78 96ED0E0A 		flds	s0, [r6, #56]
 2729 0b7c FFF7FEFF 		bl	_ZN6clouds19FrameTransformation18QuantizeMagnitudesEPff
 2730              	.LVL260:
 2731              		.loc 1 95 0
 2732 0b80 2046     		mov	r0, r4
 2733 0b82 2946     		mov	r1, r5
 2734 0b84 F0EE480A 		fcpys	s1, s16
 2735 0b88 96ED100A 		flds	s0, [r6, #64]
 2736 0b8c FFF7FEFF 		bl	_ZN6clouds19FrameTransformation9SetPhasesEPfff
 2737              	.LVL261:
 2738              		.loc 1 96 0
 2739 0b90 2046     		mov	r0, r4
 2740 0b92 2946     		mov	r1, r5
 2741 0b94 FFF7FEFF 		bl	_ZN6clouds19FrameTransformation18PolarToRectangularEPf
 2742              	.LVL262:
 2743 0b98 D3E7     		b	.L200
 2744              	.L206:
 2745 0b9a 00BF     		.align	2
 2746              	.L205:
 2747 0b9c 00000043 		.word	1124073472
 2748 0ba0 00000000 		.word	_ZN6stmlib19lut_pitch_ratio_lowE
 2749 0ba4 00000000 		.word	_ZN6stmlib20lut_pitch_ratio_highE
 2750 0ba8 00000000 		.word	_ZN6stmlib6Random10rng_state_E
 2751 0bac 0D661900 		.word	1664525
 2752 0bb0 5FF36E3C 		.word	1013904223
 2753              	.LBE577:
 2754              		.cfi_endproc
 2755              	.LFE616:
 2756              		.cantunwind
 2757              		.fnend
 2758              		.size	_ZN6clouds19FrameTransformation7ProcessERKNS_10ParametersEPfS4_, .-_ZN6clouds19FrameTransfor
 2759              		.section	.rodata
 2760              		.align	2
 2761              		.set	.LANCHOR0,. + 0
 2762              		.type	_ZN6cloudsL16kWarpPolynomialsE, %object
 2763              		.size	_ZN6cloudsL16kWarpPolynomialsE, 96
 2764              	_ZN6cloudsL16kWarpPolynomialsE:
 2765 0000 44692941 		.word	1093232964
 2766 0004 4F1E6EC1 		.word	-1049747889
 2767 0008 6E69A940 		.word	1084844398
 2768 000c 00000000 		.word	0
 2769 0010 65AAEAC0 		.word	-1058362779
 2770 0014 00001041 		.word	1091567616
 2771 0018 7155E5BF 		.word	-1075489423
 2772 001c 0000003E 		.word	1040187392
 2773 0020 00000000 		.word	0
 2774 0024 00000000 		.word	0
 2775 0028 0000803F 		.word	1065353216
 2776 002c 00000000 		.word	0
 2777 0030 00000000 		.word	0
 2778 0034 0000003F 		.word	1056964608
 2779 0038 0000003F 		.word	1056964608
 2780 003c 00000000 		.word	0
 2781 0040 65AAEAC0 		.word	-1058362779
 2782 0044 00001841 		.word	1092091904
 2783 0048 ACAA1AC0 		.word	-1071994196
ARM GAS  /tmp/ccHjaXes.s 			page 50


 2784 004c 0000803E 		.word	1048576000
 2785 0050 65AAEAC0 		.word	-1058362779
 2786 0054 00001841 		.word	1092091904
 2787 0058 ACAA1AC0 		.word	-1071994196
 2788 005c 0000803E 		.word	1048576000
 2789              		.text
 2790              	.Letext0:
 2791              		.file 10 "/home/sbcu/Dropbox/pcb-layouts/axo-on-discovery-board/axoloti/platform_linux/arm-none-ea
 2792              		.file 11 "/home/sbcu/Dropbox/pcb-layouts/axo-on-discovery-board/axoloti/platform_linux/arm-none-ea
 2793              		.file 12 "/home/sbcu/Dropbox/pcb-layouts/axo-on-discovery-board/axoloti/platform_linux/lib/gcc/arm
 2794              		.file 13 "./mutable_instruments/stmlib/stmlib.h"
 2795              		.file 14 "/home/sbcu/Dropbox/pcb-layouts/axo-on-discovery-board/axoloti/platform_linux/arm-none-ea
 2796              		.file 15 "/home/sbcu/Dropbox/pcb-layouts/axo-on-discovery-board/axoloti/platform_linux/arm-none-ea
 2797              		.file 16 "/home/sbcu/Dropbox/pcb-layouts/axo-on-discovery-board/axoloti/platform_linux/arm-none-ea
 2798              		.file 17 "/home/sbcu/Dropbox/pcb-layouts/axo-on-discovery-board/axoloti/platform_linux/arm-none-ea
 2799              		.file 18 "/home/sbcu/Dropbox/pcb-layouts/axo-on-discovery-board/axoloti/platform_linux/arm-none-ea
 2800              		.file 19 "/home/sbcu/Dropbox/pcb-layouts/axo-on-discovery-board/axoloti/platform_linux/arm-none-ea
 2801              		.file 20 "/home/sbcu/Dropbox/pcb-layouts/axo-on-discovery-board/axoloti/platform_linux/arm-none-ea
 2802              		.file 21 "/home/sbcu/Dropbox/pcb-layouts/axo-on-discovery-board/axoloti/platform_linux/arm-none-ea
 2803              		.file 22 "/home/sbcu/Dropbox/pcb-layouts/axo-on-discovery-board/axoloti/platform_linux/arm-none-ea
 2804              		.file 23 "/home/sbcu/Dropbox/pcb-layouts/axo-on-discovery-board/axoloti/platform_linux/arm-none-ea
 2805              		.file 24 "./mutable_instruments/clouds/dsp/pvoc/stft.h"
 2806              		.file 25 "./mutable_instruments/clouds/dsp/parameters.h"
 2807              		.file 26 "./mutable_instruments/clouds/resources.h"
 2808              		.file 27 "./mutable_instruments/clouds/dsp/frame.h"
 2809              		.file 28 "<built-in>"