ARM GAS  /tmp/ccWZNjA8.s 			page 1


   1              		.syntax unified
   2              		.cpu cortex-m4
   3              		.eabi_attribute 27, 1
   4              		.eabi_attribute 28, 1
   5              		.fpu fpv4-sp-d16
   6              		.eabi_attribute 20, 1
   7              		.eabi_attribute 21, 1
   8              		.eabi_attribute 23, 3
   9              		.eabi_attribute 24, 1
  10              		.eabi_attribute 25, 1
  11              		.eabi_attribute 26, 1
  12              		.eabi_attribute 30, 2
  13              		.eabi_attribute 34, 1
  14              		.eabi_attribute 18, 4
  15              		.thumb
  16              		.file	"hal.c"
  17              		.text
  18              	.Ltext0:
  19              		.cfi_sections	.debug_frame
  20              		.align	2
  21              		.p2align 4,,15
  22              		.global	halInit
  23              		.thumb
  24              		.thumb_func
  25              		.type	halInit, %function
  26              	halInit:
  27              	.LFB130:
  28              		.file 1 "/home/sbcu/Dropbox/pcb-layouts/axo-on-discovery-board/axoloti/platform_linux/../chibios/o
  29              		.loc 1 68 0
  30              		.cfi_startproc
  31              		@ args = 0, pretend = 0, frame = 0
  32              		@ frame_needed = 0, uses_anonymous_args = 0
  33 0000 08B5     		push	{r3, lr}
  34              		.cfi_def_cfa_offset 8
  35              		.cfi_offset 3, -8
  36              		.cfi_offset 14, -4
  37              		.loc 1 70 0
  38 0002 FFF7FEFF 		bl	hal_lld_init
  39              	.LVL0:
  40              		.loc 1 76 0
  41 0006 0A48     		ldr	r0, .L3
  42 0008 FFF7FEFF 		bl	_pal_lld_init
  43              	.LVL1:
  44              		.loc 1 79 0
  45 000c FFF7FEFF 		bl	adcInit
  46              	.LVL2:
  47              		.loc 1 91 0
  48 0010 FFF7FEFF 		bl	i2cInit
  49              	.LVL3:
  50              		.loc 1 100 0
  51 0014 FFF7FEFF 		bl	pwmInit
  52              	.LVL4:
  53              		.loc 1 103 0
  54 0018 FFF7FEFF 		bl	sdInit
  55              	.LVL5:
  56              		.loc 1 106 0
  57 001c FFF7FEFF 		bl	sdcInit
ARM GAS  /tmp/ccWZNjA8.s 			page 2


  58              	.LVL6:
  59              		.loc 1 109 0
  60 0020 FFF7FEFF 		bl	spiInit
  61              	.LVL7:
  62              		.loc 1 115 0
  63 0024 FFF7FEFF 		bl	usbInit
  64              	.LVL8:
  65              		.loc 1 128 0
  66 0028 BDE80840 		pop	{r3, lr}
  67              		.cfi_restore 14
  68              		.cfi_restore 3
  69              		.cfi_def_cfa_offset 0
  70              		.loc 1 127 0
  71 002c FFF7FEBF 		b	boardInit
  72              	.LVL9:
  73              	.L4:
  74              		.align	2
  75              	.L3:
  76 0030 00000000 		.word	pal_default_config
  77              		.cfi_endproc
  78              	.LFE130:
  79              		.size	halInit, .-halInit
  80              		.align	2
  81 0034 AFF30080 		.p2align 4,,15
  81      AFF30080 
  81      AFF30080 
  82              		.global	halIsCounterWithin
  83              		.thumb
  84              		.thumb_func
  85              		.type	halIsCounterWithin, %function
  86              	halIsCounterWithin:
  87              	.LFB131:
  88              		.loc 1 174 0
  89              		.cfi_startproc
  90              		@ args = 0, pretend = 0, frame = 0
  91              		@ frame_needed = 0, uses_anonymous_args = 0
  92              		@ link register save eliminated.
  93              	.LVL10:
  94              		.loc 1 175 0
  95 0040 084B     		ldr	r3, .L15
  96              		.loc 1 177 0
  97 0042 8142     		cmp	r1, r0
  98              		.loc 1 175 0
  99 0044 5B68     		ldr	r3, [r3, #4]
 100              	.LVL11:
 101              		.loc 1 177 0
 102 0046 06D9     		bls	.L6
 103              		.loc 1 177 0 is_stmt 0 discriminator 1
 104 0048 8342     		cmp	r3, r0
 105 004a 08D3     		bcc	.L14
 106              	.L12:
 107 004c 8B42     		cmp	r3, r1
 108 004e 2CBF     		ite	cs
 109 0050 0020     		movcs	r0, #0
 110              	.LVL12:
 111 0052 0120     		movcc	r0, #1
 112 0054 7047     		bx	lr
ARM GAS  /tmp/ccWZNjA8.s 			page 3


 113              	.LVL13:
 114              	.L6:
 115              		.loc 1 178 0 is_stmt 1
 116 0056 8342     		cmp	r3, r0
 117 0058 F8D3     		bcc	.L12
 118 005a 0120     		movs	r0, #1
 119              	.LVL14:
 120              		.loc 1 179 0
 121 005c 7047     		bx	lr
 122              	.LVL15:
 123              	.L14:
 124 005e 0020     		movs	r0, #0
 125              	.LVL16:
 126 0060 7047     		bx	lr
 127              	.L16:
 128 0062 00BF     		.align	2
 129              	.L15:
 130 0064 001000E0 		.word	-536866816
 131              		.cfi_endproc
 132              	.LFE131:
 133              		.size	halIsCounterWithin, .-halIsCounterWithin
 134              		.align	2
 135 0068 AFF30080 		.p2align 4,,15
 135      AFF30080 
 136              		.global	halPolledDelay
 137              		.thumb
 138              		.thumb_func
 139              		.type	halPolledDelay, %function
 140              	halPolledDelay:
 141              	.LFB132:
 142              		.loc 1 193 0
 143              		.cfi_startproc
 144              		@ args = 0, pretend = 0, frame = 0
 145              		@ frame_needed = 0, uses_anonymous_args = 0
 146              		@ link register save eliminated.
 147              	.LVL17:
 148              		.loc 1 194 0
 149 0070 0849     		ldr	r1, .L28
 150 0072 4A68     		ldr	r2, [r1, #4]
 151              	.LVL18:
 152              		.loc 1 195 0
 153 0074 1044     		add	r0, r0, r2
 154              	.LVL19:
 155              	.L26:
 156              	.LBB4:
 157              	.LBB5:
 158              		.loc 1 177 0 discriminator 1
 159 0076 8242     		cmp	r2, r0
 160              		.loc 1 175 0 discriminator 1
 161 0078 4B68     		ldr	r3, [r1, #4]
 162              	.LVL20:
 163              		.loc 1 177 0 discriminator 1
 164 007a 02D2     		bcs	.L18
 165              		.loc 1 177 0 is_stmt 0
 166 007c 9A42     		cmp	r2, r3
 167 007e 02D9     		bls	.L27
 168 0080 7047     		bx	lr
ARM GAS  /tmp/ccWZNjA8.s 			page 4


 169              	.L18:
 170              		.loc 1 178 0 is_stmt 1
 171 0082 9A42     		cmp	r2, r3
 172 0084 F7D9     		bls	.L26
 173              	.L27:
 174 0086 9842     		cmp	r0, r3
 175 0088 94BF     		ite	ls
 176 008a 0023     		movls	r3, #0
 177              	.LVL21:
 178 008c 0123     		movhi	r3, #1
 179              	.LBE5:
 180              	.LBE4:
 181              		.loc 1 196 0
 182 008e 002B     		cmp	r3, #0
 183 0090 F1D1     		bne	.L26
 184 0092 7047     		bx	lr
 185              	.L29:
 186              		.align	2
 187              	.L28:
 188 0094 001000E0 		.word	-536866816
 189              		.cfi_endproc
 190              	.LFE132:
 191              		.size	halPolledDelay, .-halPolledDelay
 192              	.Letext0:
 193              		.file 2 "/home/sbcu/Dropbox/pcb-layouts/axo-on-discovery-board/axoloti/platform_linux/arm-none-eab
 194              		.file 3 "/home/sbcu/Dropbox/pcb-layouts/axo-on-discovery-board/axoloti/platform_linux/arm-none-eab
 195              		.file 4 "/home/sbcu/Dropbox/pcb-layouts/axo-on-discovery-board/axoloti/platform_linux/../chibios/o
 196              		.file 5 "/home/sbcu/Dropbox/pcb-layouts/axo-on-discovery-board/axoloti/platform_linux/../chibios/o
 197              		.file 6 "/home/sbcu/Dropbox/pcb-layouts/axo-on-discovery-board/axoloti/platform_linux/../chibios/o
 198              		.file 7 "/home/sbcu/Dropbox/pcb-layouts/axo-on-discovery-board/axoloti/platform_linux/../chibios/o
 199              		.file 8 "/home/sbcu/Dropbox/pcb-layouts/axo-on-discovery-board/axoloti/platform_linux/../CMSIS//In
 200              		.file 9 "/home/sbcu/Dropbox/pcb-layouts/axo-on-discovery-board/axoloti/platform_linux/../chibios/o
 201              		.file 10 "/home/sbcu/Dropbox/pcb-layouts/axo-on-discovery-board/axoloti/platform_linux/../chibios/
 202              		.file 11 "/home/sbcu/Dropbox/pcb-layouts/axo-on-discovery-board/axoloti/platform_linux/../chibios/
 203              		.file 12 "/home/sbcu/Dropbox/pcb-layouts/axo-on-discovery-board/axoloti/platform_linux/../chibios/
 204              		.file 13 "/home/sbcu/Dropbox/pcb-layouts/axo-on-discovery-board/axoloti/platform_linux/../chibios/
 205              		.file 14 "/home/sbcu/Dropbox/pcb-layouts/axo-on-discovery-board/axoloti/platform_linux/../chibios/
 206              		.file 15 "/home/sbcu/Dropbox/pcb-layouts/axo-on-discovery-board/axoloti/platform_linux/../chibios/
 207              		.file 16 "./board.h"