ARM GAS  /tmp/ccLmIIGa.s 			page 1


   1              		.syntax unified
   2              		.cpu cortex-m4
   3              		.eabi_attribute 27, 1
   4              		.eabi_attribute 28, 1
   5              		.fpu fpv4-sp-d16
   6              		.eabi_attribute 20, 1
   7              		.eabi_attribute 21, 1
   8              		.eabi_attribute 23, 3
   9              		.eabi_attribute 24, 1
  10              		.eabi_attribute 25, 1
  11              		.eabi_attribute 26, 1
  12              		.eabi_attribute 30, 2
  13              		.eabi_attribute 34, 1
  14              		.eabi_attribute 18, 4
  15              		.thumb
  16              		.file	"i2c.c"
  17              		.text
  18              	.Ltext0:
  19              		.cfi_sections	.debug_frame
  20              		.align	2
  21              		.p2align 4,,15
  22              		.global	i2cInit
  23              		.thumb
  24              		.thumb_func
  25              		.type	i2cInit, %function
  26              	i2cInit:
  27              	.LFB130:
  28              		.file 1 "/home/sbcu/Dropbox/pcb-layouts/axo-on-discovery-board/axoloti/platform_linux/../chibios/o
  29              		.loc 1 71 0
  30              		.cfi_startproc
  31              		@ args = 0, pretend = 0, frame = 0
  32              		@ frame_needed = 0, uses_anonymous_args = 0
  33              		@ link register save eliminated.
  34              		.loc 1 72 0
  35 0000 FFF7FEBF 		b	i2c_lld_init
  36              	.LVL0:
  37              		.cfi_endproc
  38              	.LFE130:
  39              		.size	i2cInit, .-i2cInit
  40              		.align	2
  41 0004 AFF30080 		.p2align 4,,15
  41      AFF30080 
  41      AFF30080 
  42              		.global	i2cObjectInit
  43              		.thumb
  44              		.thumb_func
  45              		.type	i2cObjectInit, %function
  46              	i2cObjectInit:
  47              	.LFB131:
  48              		.loc 1 82 0
  49              		.cfi_startproc
  50              		@ args = 0, pretend = 0, frame = 0
  51              		@ frame_needed = 0, uses_anonymous_args = 0
  52              		@ link register save eliminated.
  53              	.LVL1:
  54              		.loc 1 84 0
  55 0010 0122     		movs	r2, #1
ARM GAS  /tmp/ccLmIIGa.s 			page 2


  56              		.loc 1 85 0
  57 0012 0023     		movs	r3, #0
  58              		.loc 1 84 0
  59 0014 0270     		strb	r2, [r0]
  60              		.loc 1 85 0
  61 0016 4360     		str	r3, [r0, #4]
  62              		.loc 1 89 0
  63 0018 0C30     		adds	r0, r0, #12
  64              	.LVL2:
  65 001a FFF7FEBF 		b	chMtxInit
  66              	.LVL3:
  67              		.cfi_endproc
  68              	.LFE131:
  69              		.size	i2cObjectInit, .-i2cObjectInit
  70 001e 00BF     		.align	2
  71              		.p2align 4,,15
  72              		.global	i2cStart
  73              		.thumb
  74              		.thumb_func
  75              		.type	i2cStart, %function
  76              	i2cStart:
  77              	.LFB132:
  78              		.loc 1 108 0
  79              		.cfi_startproc
  80              		@ args = 0, pretend = 0, frame = 0
  81              		@ frame_needed = 0, uses_anonymous_args = 0
  82              	.LVL4:
  83 0020 10B5     		push	{r4, lr}
  84              		.cfi_def_cfa_offset 8
  85              		.cfi_offset 4, -8
  86              		.cfi_offset 14, -4
  87              	.LBB2:
  88              		.loc 1 116 0
  89 0022 2023     		movs	r3, #32
  90              	.LBE2:
  91              		.loc 1 108 0
  92 0024 0446     		mov	r4, r0
  93              	.LBB3:
  94              		.loc 1 116 0
  95              	@ 116 "/home/sbcu/Dropbox/pcb-layouts/axo-on-discovery-board/axoloti/platform_linux/../chibios/os/h
  96 0026 83F31188 		msr     BASEPRI, r3
  97              	@ 0 "" 2
  98              		.thumb
  99              	.LBE3:
 100              		.loc 1 117 0
 101 002a 4160     		str	r1, [r0, #4]
 102              		.loc 1 118 0
 103 002c FFF7FEFF 		bl	i2c_lld_start
 104              	.LVL5:
 105              		.loc 1 119 0
 106 0030 0223     		movs	r3, #2
 107 0032 2370     		strb	r3, [r4]
 108              	.LBB4:
 109              		.loc 1 120 0
 110 0034 0023     		movs	r3, #0
 111              	@ 120 "/home/sbcu/Dropbox/pcb-layouts/axo-on-discovery-board/axoloti/platform_linux/../chibios/os/h
 112 0036 83F31188 		msr     BASEPRI, r3
ARM GAS  /tmp/ccLmIIGa.s 			page 3


 113              	@ 0 "" 2
 114              		.thumb
 115 003a 10BD     		pop	{r4, pc}
 116              	.LBE4:
 117              		.cfi_endproc
 118              	.LFE132:
 119              		.size	i2cStart, .-i2cStart
 120              		.align	2
 121 003c AFF30080 		.p2align 4,,15
 122              		.global	i2cStop
 123              		.thumb
 124              		.thumb_func
 125              		.type	i2cStop, %function
 126              	i2cStop:
 127              	.LFB133:
 128              		.loc 1 130 0
 129              		.cfi_startproc
 130              		@ args = 0, pretend = 0, frame = 0
 131              		@ frame_needed = 0, uses_anonymous_args = 0
 132              	.LVL6:
 133 0040 10B5     		push	{r4, lr}
 134              		.cfi_def_cfa_offset 8
 135              		.cfi_offset 4, -8
 136              		.cfi_offset 14, -4
 137              	.LBB5:
 138              		.loc 1 138 0
 139 0042 2023     		movs	r3, #32
 140              	.LBE5:
 141              		.loc 1 130 0
 142 0044 0446     		mov	r4, r0
 143              	.LBB6:
 144              		.loc 1 138 0
 145              	@ 138 "/home/sbcu/Dropbox/pcb-layouts/axo-on-discovery-board/axoloti/platform_linux/../chibios/os/h
 146 0046 83F31188 		msr     BASEPRI, r3
 147              	@ 0 "" 2
 148              		.thumb
 149              	.LBE6:
 150              		.loc 1 139 0
 151 004a FFF7FEFF 		bl	i2c_lld_stop
 152              	.LVL7:
 153              		.loc 1 140 0
 154 004e 0123     		movs	r3, #1
 155 0050 2370     		strb	r3, [r4]
 156              	.LBB7:
 157              		.loc 1 141 0
 158 0052 0023     		movs	r3, #0
 159              	@ 141 "/home/sbcu/Dropbox/pcb-layouts/axo-on-discovery-board/axoloti/platform_linux/../chibios/os/h
 160 0054 83F31188 		msr     BASEPRI, r3
 161              	@ 0 "" 2
 162              		.thumb
 163 0058 10BD     		pop	{r4, pc}
 164              	.LBE7:
 165              		.cfi_endproc
 166              	.LFE133:
 167              		.size	i2cStop, .-i2cStop
 168 005a 00BF     		.align	2
 169 005c AFF30080 		.p2align 4,,15
ARM GAS  /tmp/ccLmIIGa.s 			page 4


 170              		.global	i2cGetErrors
 171              		.thumb
 172              		.thumb_func
 173              		.type	i2cGetErrors, %function
 174              	i2cGetErrors:
 175              	.LFB134:
 176              		.loc 1 152 0
 177              		.cfi_startproc
 178              		@ args = 0, pretend = 0, frame = 0
 179              		@ frame_needed = 0, uses_anonymous_args = 0
 180              		@ link register save eliminated.
 181              	.LVL8:
 182              		.loc 1 157 0
 183 0060 8068     		ldr	r0, [r0, #8]
 184              	.LVL9:
 185 0062 7047     		bx	lr
 186              		.cfi_endproc
 187              	.LFE134:
 188              		.size	i2cGetErrors, .-i2cGetErrors
 189              		.align	2
 190 0064 AFF30080 		.p2align 4,,15
 190      AFF30080 
 190      AFF30080 
 191              		.global	i2cMasterTransmitTimeout
 192              		.thumb
 193              		.thumb_func
 194              		.type	i2cMasterTransmitTimeout, %function
 195              	i2cMasterTransmitTimeout:
 196              	.LFB135:
 197              		.loc 1 191 0
 198              		.cfi_startproc
 199              		@ args = 12, pretend = 0, frame = 0
 200              		@ frame_needed = 0, uses_anonymous_args = 0
 201              	.LVL10:
 202 0070 2DE9F041 		push	{r4, r5, r6, r7, r8, lr}
 203              		.cfi_def_cfa_offset 24
 204              		.cfi_offset 4, -24
 205              		.cfi_offset 5, -20
 206              		.cfi_offset 6, -16
 207              		.cfi_offset 7, -12
 208              		.cfi_offset 8, -8
 209              		.cfi_offset 14, -4
 210 0074 84B0     		sub	sp, sp, #16
 211              		.cfi_def_cfa_offset 40
 212              		.loc 1 191 0
 213 0076 9846     		mov	r8, r3
 214 0078 0446     		mov	r4, r0
 215 007a 0A9F     		ldr	r7, [sp, #40]
 216 007c 0B9E     		ldr	r6, [sp, #44]
 217              	.LBB8:
 218              		.loc 1 203 0
 219 007e 2023     		movs	r3, #32
 220              	.LVL11:
 221              	@ 203 "/home/sbcu/Dropbox/pcb-layouts/axo-on-discovery-board/axoloti/platform_linux/../chibios/os/h
 222 0080 83F31188 		msr     BASEPRI, r3
 223              	@ 0 "" 2
 224              		.thumb
ARM GAS  /tmp/ccLmIIGa.s 			page 5


 225              	.LBE8:
 226              		.loc 1 205 0
 227 0084 4FF0030E 		mov	lr, #3
 228              		.loc 1 206 0
 229 0088 0C9B     		ldr	r3, [sp, #48]
 230 008a 0293     		str	r3, [sp, #8]
 231              		.loc 1 204 0
 232 008c 0025     		movs	r5, #0
 233              		.loc 1 206 0
 234 008e 0097     		str	r7, [sp]
 235 0090 0196     		str	r6, [sp, #4]
 236 0092 4346     		mov	r3, r8
 237              		.loc 1 204 0
 238 0094 8560     		str	r5, [r0, #8]
 239              		.loc 1 205 0
 240 0096 80F800E0 		strb	lr, [r0]
 241              		.loc 1 206 0
 242 009a FFF7FEFF 		bl	i2c_lld_master_transmit_timeout
 243              	.LVL12:
 244              		.loc 1 208 0
 245 009e 431C     		adds	r3, r0, #1
 246              		.loc 1 209 0
 247 00a0 0CBF     		ite	eq
 248 00a2 0523     		moveq	r3, #5
 249              		.loc 1 211 0
 250 00a4 0223     		movne	r3, #2
 251 00a6 2370     		strb	r3, [r4]
 252              	.LBB9:
 253              		.loc 1 212 0
 254 00a8 0023     		movs	r3, #0
 255              	@ 212 "/home/sbcu/Dropbox/pcb-layouts/axo-on-discovery-board/axoloti/platform_linux/../chibios/os/h
 256 00aa 83F31188 		msr     BASEPRI, r3
 257              	@ 0 "" 2
 258              		.thumb
 259              	.LBE9:
 260              		.loc 1 214 0
 261 00ae 04B0     		add	sp, sp, #16
 262              		.cfi_def_cfa_offset 24
 263              		@ sp needed
 264 00b0 BDE8F081 		pop	{r4, r5, r6, r7, r8, pc}
 265              		.cfi_endproc
 266              	.LFE135:
 267              		.size	i2cMasterTransmitTimeout, .-i2cMasterTransmitTimeout
 268              		.align	2
 269 00b4 AFF30080 		.p2align 4,,15
 269      AFF30080 
 269      AFF30080 
 270              		.global	i2cMasterReceiveTimeout
 271              		.thumb
 272              		.thumb_func
 273              		.type	i2cMasterReceiveTimeout, %function
 274              	i2cMasterReceiveTimeout:
 275              	.LFB136:
 276              		.loc 1 240 0
 277              		.cfi_startproc
 278              		@ args = 4, pretend = 0, frame = 0
 279              		@ frame_needed = 0, uses_anonymous_args = 0
ARM GAS  /tmp/ccLmIIGa.s 			page 6


 280              	.LVL13:
 281 00c0 F0B5     		push	{r4, r5, r6, r7, lr}
 282              		.cfi_def_cfa_offset 20
 283              		.cfi_offset 4, -20
 284              		.cfi_offset 5, -16
 285              		.cfi_offset 6, -12
 286              		.cfi_offset 7, -8
 287              		.cfi_offset 14, -4
 288 00c2 83B0     		sub	sp, sp, #12
 289              		.cfi_def_cfa_offset 32
 290              		.loc 1 240 0
 291 00c4 9E46     		mov	lr, r3
 292 00c6 0446     		mov	r4, r0
 293 00c8 089F     		ldr	r7, [sp, #32]
 294              	.LBB10:
 295              		.loc 1 252 0
 296 00ca 2023     		movs	r3, #32
 297              	.LVL14:
 298              	@ 252 "/home/sbcu/Dropbox/pcb-layouts/axo-on-discovery-board/axoloti/platform_linux/../chibios/os/h
 299 00cc 83F31188 		msr     BASEPRI, r3
 300              	@ 0 "" 2
 301              		.thumb
 302              	.LBE10:
 303              		.loc 1 253 0
 304 00d0 0026     		movs	r6, #0
 305              		.loc 1 254 0
 306 00d2 0425     		movs	r5, #4
 307              		.loc 1 255 0
 308 00d4 0097     		str	r7, [sp]
 309 00d6 7346     		mov	r3, lr
 310              		.loc 1 253 0
 311 00d8 8660     		str	r6, [r0, #8]
 312              		.loc 1 254 0
 313 00da 0570     		strb	r5, [r0]
 314              		.loc 1 255 0
 315 00dc FFF7FEFF 		bl	i2c_lld_master_receive_timeout
 316              	.LVL15:
 317              		.loc 1 256 0
 318 00e0 431C     		adds	r3, r0, #1
 319              		.loc 1 257 0
 320 00e2 0CBF     		ite	eq
 321 00e4 0523     		moveq	r3, #5
 322              		.loc 1 259 0
 323 00e6 0223     		movne	r3, #2
 324 00e8 2370     		strb	r3, [r4]
 325              	.LBB11:
 326              		.loc 1 260 0
 327 00ea 0023     		movs	r3, #0
 328              	@ 260 "/home/sbcu/Dropbox/pcb-layouts/axo-on-discovery-board/axoloti/platform_linux/../chibios/os/h
 329 00ec 83F31188 		msr     BASEPRI, r3
 330              	@ 0 "" 2
 331              		.thumb
 332              	.LBE11:
 333              		.loc 1 262 0
 334 00f0 03B0     		add	sp, sp, #12
 335              		.cfi_def_cfa_offset 20
 336              		@ sp needed
ARM GAS  /tmp/ccLmIIGa.s 			page 7


 337 00f2 F0BD     		pop	{r4, r5, r6, r7, pc}
 338              		.cfi_endproc
 339              	.LFE136:
 340              		.size	i2cMasterReceiveTimeout, .-i2cMasterReceiveTimeout
 341              		.align	2
 342 00f4 AFF30080 		.p2align 4,,15
 342      AFF30080 
 342      AFF30080 
 343              		.global	i2cAcquireBus
 344              		.thumb
 345              		.thumb_func
 346              		.type	i2cAcquireBus, %function
 347              	i2cAcquireBus:
 348              	.LFB137:
 349              		.loc 1 276 0
 350              		.cfi_startproc
 351              		@ args = 0, pretend = 0, frame = 0
 352              		@ frame_needed = 0, uses_anonymous_args = 0
 353              		@ link register save eliminated.
 354              	.LVL16:
 355              		.loc 1 281 0
 356 0100 0C30     		adds	r0, r0, #12
 357              	.LVL17:
 358 0102 FFF7FEBF 		b	chMtxLock
 359              	.LVL18:
 360              		.cfi_endproc
 361              	.LFE137:
 362              		.size	i2cAcquireBus, .-i2cAcquireBus
 363 0106 00BF     		.align	2
 364 0108 AFF30080 		.p2align 4,,15
 364      AFF30080 
 365              		.global	i2cReleaseBus
 366              		.thumb
 367              		.thumb_func
 368              		.type	i2cReleaseBus, %function
 369              	i2cReleaseBus:
 370              	.LFB138:
 371              		.loc 1 296 0
 372              		.cfi_startproc
 373              		@ args = 0, pretend = 0, frame = 0
 374              		@ frame_needed = 0, uses_anonymous_args = 0
 375              		@ link register save eliminated.
 376              	.LVL19:
 377              		.loc 1 301 0
 378 0110 FFF7FEBF 		b	chMtxUnlock
 379              	.LVL20:
 380              		.cfi_endproc
 381              	.LFE138:
 382              		.size	i2cReleaseBus, .-i2cReleaseBus
 383              	.Letext0:
 384              		.file 2 "/home/sbcu/Dropbox/pcb-layouts/axo-on-discovery-board/axoloti/platform_linux/lib/gcc/arm-
 385              		.file 3 "/home/sbcu/Dropbox/pcb-layouts/axo-on-discovery-board/axoloti/platform_linux/arm-none-eab
 386              		.file 4 "/home/sbcu/Dropbox/pcb-layouts/axo-on-discovery-board/axoloti/platform_linux/arm-none-eab
 387              		.file 5 "/home/sbcu/Dropbox/pcb-layouts/axo-on-discovery-board/axoloti/platform_linux/../chibios/o
 388              		.file 6 "/home/sbcu/Dropbox/pcb-layouts/axo-on-discovery-board/axoloti/platform_linux/../chibios/o
 389              		.file 7 "/home/sbcu/Dropbox/pcb-layouts/axo-on-discovery-board/axoloti/platform_linux/../chibios/o
 390              		.file 8 "/home/sbcu/Dropbox/pcb-layouts/axo-on-discovery-board/axoloti/platform_linux/../chibios/o
ARM GAS  /tmp/ccLmIIGa.s 			page 8


 391              		.file 9 "/home/sbcu/Dropbox/pcb-layouts/axo-on-discovery-board/axoloti/platform_linux/../chibios/o
 392              		.file 10 "/home/sbcu/Dropbox/pcb-layouts/axo-on-discovery-board/axoloti/platform_linux/../chibios/
 393              		.file 11 "/home/sbcu/Dropbox/pcb-layouts/axo-on-discovery-board/axoloti/platform_linux/../chibios/
 394              		.file 12 "/home/sbcu/Dropbox/pcb-layouts/axo-on-discovery-board/axoloti/platform_linux/../chibios/
 395              		.file 13 "/home/sbcu/Dropbox/pcb-layouts/axo-on-discovery-board/axoloti/platform_linux/../chibios/
 396              		.file 14 "/home/sbcu/Dropbox/pcb-layouts/axo-on-discovery-board/axoloti/platform_linux/../CMSIS//I