ARM GAS  /tmp/ccLmIIGa.s 			page 1


   1              		.syntax unified
   2              		.cpu cortex-m4
   3              		.eabi_attribute 27, 1
   4              		.eabi_attribute 28, 1
   5              		.fpu fpv4-sp-d16
   6              		.eabi_attribute 20, 1
   7              		.eabi_attribute 21, 1
   8              		.eabi_attribute 23, 3
   9              		.eabi_attribute 24, 1
  10              		.eabi_attribute 25, 1
  11              		.eabi_attribute 26, 1
  12              		.eabi_attribute 30, 2
  13              		.eabi_attribute 34, 1
  14              		.eabi_attribute 18, 4
  15              		.thumb
  16              		.file	"i2c.c"
  17              		.text
  18              	.Ltext0:
  19              		.cfi_sections	.debug_frame
  20              		.align	2
  21              		.p2align 4,,15
  22              		.global	i2cInit
  23              		.thumb
  24              		.thumb_func
  25              		.type	i2cInit, %function
  26              	i2cInit:
  27              	.LFB130:
  28              		.file 1 "/home/sbcu/Dropbox/pcb-layouts/axo-on-discovery-board/axoloti/platform_linux/../chibios/o
  29              		.loc 1 71 0
  30              		.cfi_startproc
  31              		@ args = 0, pretend = 0, frame = 0
  32              		@ frame_needed = 0, uses_anonymous_args = 0
  33              		@ link register save eliminated.
  34              		.loc 1 72 0
  35 0000 FFF7FEBF 		b	i2c_lld_init
  36              	.LVL0:
  37              		.cfi_endproc
  38              	.LFE130:
  39              		.size	i2cInit, .-i2cInit
  40              		.align	2
  41 0004 AFF30080 		.p2align 4,,15
  41      AFF30080 
  41      AFF30080 
  42              		.global	i2cObjectInit
  43              		.thumb
  44              		.thumb_func
  45              		.type	i2cObjectInit, %function
  46              	i2cObjectInit:
  47              	.LFB131:
  48              		.loc 1 82 0
  49              		.cfi_startproc
  50              		@ args = 0, pretend = 0, frame = 0
  51              		@ frame_needed = 0, uses_anonymous_args = 0
  52              		@ link register save eliminated.
  53              	.LVL1:
  54              		.loc 1 84 0
  55 0010 0122     		movs	r2, #1
ARM GAS  /tmp/ccLmIIGa.s 			page 2


  56              		.loc 1 85 0
  57 0012 0023     		movs	r3, #0
  58              		.loc 1 84 0
  59 0014 0270     		strb	r2, [r0]
  60              		.loc 1 85 0
  61 0016 4360     		str	r3, [r0, #4]
  62              		.loc 1 89 0
  63 0018 0C30     		adds	r0, r0, #12
  64              	.LVL2:
  65 001a FFF7FEBF 		b	chMtxInit
  66              	.LVL3:
  67              		.cfi_endproc
  68              	.LFE131:
  69              		.size	i2cObjectInit, .-i2cObjectInit
  70 001e 00BF     		.align	2
  71              		.p2align 4,,15
  72              		.global	i2cStart
  73              		.thumb
  74              		.thumb_func
  75              		.type	i2cStart, %function
  76              	i2cStart:
  77              	.LFB132:
  78              		.loc 1 108 0
  79              		.cfi_startproc
  80              		@ args = 0, pretend = 0, frame = 0
  81              		@ frame_needed = 0, uses_anonymous_args = 0
  82              	.LVL4:
  83 0020 10B5     		push	{r4, lr}
  84              		.cfi_def_cfa_offset 8
  85              		.cfi_offset 4, -8
  86              		.cfi_offset 14, -4
  87              	.LBB2:
  88              		.loc 1 116 0
  89 0022 2023     		movs	r3, #32
  90              	.LBE2:
  91              		.loc 1 108 0
  92 0024 0446     		mov	r4, r0
  93              	.LBB3:
  94              		.loc 1 116 0
  95              	@ 116 "/home/sbcu/Dropbox/pcb-layouts/axo-on-discovery-board/axoloti/platform_linux/../chibios/os/h
  96 0026 83F31188 		msr     BASEPRI, r3
  97              	@ 0 "" 2
  98              		.thumb
  99              	.LBE3:
 100              		.loc 1 117 0
 101 002a 4160     		str	r1, [r0, #4]
 102              		.loc 1 118 0
 103 002c FFF7FEFF 		bl	i2c_lld_start
 104              	.LVL5:
 105              		.loc 1 119 0
 106 0030 0223     		movs	r3, #2
 107 0032 2370     		strb	r3, [r4]
 108              	.LBB4:
 109              		.loc 1 120 0
 110 0034 0023     		movs	r3, #0
 111              	@ 120 "/home/sbcu/Dropbox/pcb-layouts/axo-on-discovery-board/axoloti/platform_linux/../chibios/os/h
 112 0036 83F31188 		msr     BASEPRI, r3
ARM GAS  /tmp/ccLmIIGa.s 			page 3


 113              	@ 0 "" 2
 114              		.thumb
 115 003a 10BD     		pop	{r4, pc}
 116              	.LBE4:
 117              		.cfi_endproc
 118              	.LFE132:
 119              		.size	i2cStart, .-i2cStart
 120              		.align	2
 121 003c AFF30080 		.p2align 4,,15
 122              		.global	i2cStop
 123              		.thumb
 124              		.thumb_func
 125              		.type	i2cStop, %function
 126              	i2cStop:
 127              	.LFB133:
 128              		.loc 1 130 0
 129              		.cfi_startproc
 130              		@ args = 0, pretend = 0, frame = 0
 131              		@ frame_needed = 0, uses_anonymous_args = 0
 132              	.LVL6:
 133 0040 10B5     		push	{r4, lr}
 134              		.cfi_def_cfa_offset 8
 135              		.cfi_offset 4, -8
 136              		.cfi_offset 14, -4
 137              	.LBB5:
 138              		.loc 1 138 0
 139 0042 2023     		movs	r3, #32
 140              	.LBE5:
 141              		.loc 1 130 0
 142 0044 0446     		mov	r4, r0
 143              	.LBB6:
 144              		.loc 1 138 0
 145              	@ 138 "/home/sbcu/Dropbox/pcb-layouts/axo-on-discovery-board/axoloti/platform_linux/../chibios/os/h
 146 0046 83F31188 		msr     BASEPRI, r3
 147              	@ 0 "" 2
 148              		.thumb
 149              	.LBE6:
 150              		.loc 1 139 0
 151 004a FFF7FEFF 		bl	i2c_lld_stop
 152              	.LVL7:
 153              		.loc 1 140 0
 154 004e 0123     		movs	r3, #1
 155 0050 2370     		strb	r3, [r4]
 156              	.LBB7:
 157              		.loc 1 141 0
 158 0052 0023     		movs	r3, #0
 159              	@ 141 "/home/sbcu/Dropbox/pcb-layouts/axo-on-discovery-board/axoloti/platform_linux/../chibios/os/h
 160 0054 83F31188 		msr     BASEPRI, r3
 161              	@ 0 "" 2
 162              		.thumb
 163 0058 10BD     		pop	{r4, pc}
 164              	.LBE7:
 165              		.cfi_endproc
 166              	.LFE133:
 167              		.size	i2cStop, .-i2cStop
 168 005a 00BF     		.align	2
 169 005c AFF30080 		.p2align 4,,15
ARM GAS  /tmp/ccLmIIGa.s 			page 4


 170              		.global	i2cGetErrors
 171              		.thumb
 172              		.thumb_func
 173              		.type	i2cGetErrors, %function
 174              	i2cGetErrors:
 175              	.LFB134:
 176              		.loc 1 152 0
 177              		.cfi_startproc
 178              		@ args = 0, pretend = 0, frame = 0
 179              		@ frame_needed = 0, uses_anonymous_args = 0
 180              		@ link register save eliminated.
 181              	.LVL8:
 182              		.loc 1 157 0
 183 0060 8068     		ldr	r0, [r0, #8]
 184              	.LVL9:
 185 0062 7047     		bx	lr
 186              		.cfi_endproc
 187              	.LFE134:
 188              		.size	i2cGetErrors, .-i2cGetErrors
 189              		.align	2
 190 0064 AFF30080 		.p2align 4,,15
 190      AFF30080 
 190      AFF30080 
 191              		.global	i2cMasterTransmitTimeout
 192              		.thumb
 193              		.thumb_func
 194              		.type	i2cMasterTransmitTimeout, %function
 195              	i2cMasterTransmitTimeout:
 196              	.LFB135:
 197              		.loc 1 191 0
 198              		.cfi_startproc
 199              		@ args = 12, pretend = 0, frame = 0
 200              		@ frame_needed = 0, uses_anonymous_args = 0
 201              	.LVL10:
 202 0070 2DE9F041 		push	{r4, r5, r6, r7, r8, lr}
 203              		.cfi_def_cfa_offset 24
 204              		.cfi_offset 4, -24
 205              		.cfi_offset 5, -20
 206              		.cfi_offset 6, -16
 207              		.cfi_offset 7, -12
 208              		.cfi_offset 8, -8
 209              		.cfi_offset 14, -4
 210 0074 84B0     		sub	sp, sp, #16
 211              		.cfi_def_cfa_offset 40
 212              		.loc 1 191 0
 213 0076 9846     		mov	r8, r3
 214 0078 0446     		mov	r4, r0
 215 007a 0A9F     		ldr	r7, [sp, #40]
 216 007c 0B9E     		ldr	r6, [sp, #44]
 217              	.LBB8:
 218              		.loc 1 203 0
 219 007e 2023     		movs	r3, #32
 220              	.LVL11:
 221              	@ 203 "/home/sbcu/Dropbox/pcb-layouts/axo-on-discovery-board/axoloti/platform_linux/../chibios/os/h
 222 0080 83F31188 		msr     BASEPRI, r3
 223              	@ 0 "" 2
 224              		.thumb
ARM GAS  /tmp/ccLmIIGa.s 			page 5


 225              	.LBE8:
 226              		.loc 1 205 0
 227 0084 4FF0030E 		mov	lr, #3
 228              		.loc 1 206 0
 229 0088 0C9B     		ldr	r3, [sp, #48]
 230 008a 0293     		str	r3, [sp, #8]
 231              		.loc 1 204 0
 232 008c 0025     		movs	r5, #0
 233              		.loc 1 206 0
 234 008e 0097     		str	r7, [sp]
 235 0090 0196     		str	r6, [sp, #4]
 236 0092 4346     		mov	r3, r8
 237              		.loc 1 204 0
 238 0094 8560     		str	r5, [r0, #8]
 239              		.loc 1 205 0
 240 0096 80F800E0 		strb	lr, [r0]
 241              		.loc 1 206 0
 242 009a FFF7FEFF 		bl	i2c_lld_master_transmit_timeout
 243              	.LVL12:
 244              		.loc 1 208 0
 245 009e 431C     		adds	r3, r0, #1
 246              		.loc 1 209 0
 247 00a0 0CBF     		ite	eq
 248 00a2 0523     		moveq	r3, #5
 249              		.loc 1 211 0
 250 00a4 0223     		movne	r3, #2
 251 00a6 2370     		strb	r3, [r4]
 252              	.LBB9:
 253              		.loc 1 212 0
 254 00a8 0023     		movs	r3, #0
 255              	@ 212 "/home/sbcu/Dropbox/pcb-layouts/axo-on-discovery-board/axoloti/platform_linux/../chibios/os/h
 256 00aa 83F31188 		msr     BASEPRI, r3
 257              	@ 0 "" 2
 258              		.thumb
 259              	.LBE9:
 260              		.loc 1 214 0
 261 00ae 04B0     		add	sp, sp, #16
 262              		.cfi_def_cfa_offset 24
 263              		@ sp needed
 264 00b0 BDE8F081 		pop	{r4, r5, r6, r7, r8, pc}
 265              		.cfi_endproc
 266              	.LFE135:
 267              		.size	i2cMasterTransmitTimeout, .-i2cMasterTransmitTimeout
 268              		.align	2
 269 00b4 AFF30080 		.p2align 4,,15
 269      AFF30080 
 269      AFF30080 
 270              		.global	i2cMasterReceiveTimeout
 271              		.thumb
 272              		.thumb_func
 273              		.type	i2cMasterReceiveTimeout, %function
 274              	i2cMasterReceiveTimeout:
 275              	.LFB136:
 276              		.loc 1 240 0
 277              		.cfi_startproc
 278              		@ args = 4, pretend = 0, frame = 0
 279              		@ frame_needed = 0, uses_anonymous_args = 0
ARM GAS  /tmp/ccLmIIGa.s 			page 6


 280              	.LVL13:
 281 00c0 F0B5     		push	{r4, r5, r6, r7, lr}
 282              		.cfi_def_cfa_offset 20
 283              		.cfi_offset 4, -20
 284              		.cfi_offset 5, -16
 285              		.cfi_offset 6, -12
 286              		.cfi_offset 7, -8
 287              		.cfi_offset 14, -4
 288 00c2 83B0     		sub	sp, sp, #12
 289              		.cfi_def_cfa_offset 32
 290              		.loc 1 240 0
 291 00c4 9E46     		mov	lr, r3
 292 00c6 0446     		mov	r4, r0
 293 00c8 089F     		ldr	r7, [sp, #32]
 294              	.LBB10:
 295              		.loc 1 252 0
 296 00ca 2023     		movs	r3, #32
 297              	.LVL14:
 298              	@ 252 "/home/sbcu/Dropbox/pcb-layouts/axo-on-discovery-board/axoloti/platform_linux/../chibios/os/h
 299 00cc 83F31188 		msr     BASEPRI, r3
 300              	@ 0 "" 2
 301              		.thumb
 302              	.LBE10:
 303              		.loc 1 253 0
 304 00d0 0026     		movs	r6, #0
 305              		.loc 1 254 0
 306 00d2 0425     		movs	r5, #4
 307              		.loc 1 255 0
 308 00d4 0097     		str	r7, [sp]
 309 00d6 7346     		mov	r3, lr
 310              		.loc 1 253 0
 311 00d8 8660     		str	r6, [r0, #8]
 312              		.loc 1 254 0
 313 00da 0570     		strb	r5, [r0]
 314              		.loc 1 255 0
 315 00dc FFF7FEFF 		bl	i2c_lld_master_receive_timeout
 316              	.LVL15:
 317              		.loc 1 256 0
 318 00e0 431C     		adds	r3, r0, #1
 319              		.loc 1 257 0
 320 00e2 0CBF     		ite	eq
 321 00e4 0523     		moveq	r3, #5
 322              		.loc 1 259 0
 323 00e6 0223     		movne	r3, #2
 324 00e8 2370     		strb	r3, [r4]
 325              	.LBB11:
 326              		.loc 1 260 0
 327 00ea 0023     		movs	r3, #0
 328              	@ 260 "/home/sbcu/Dropbox/pcb-layouts/axo-on-discovery-board/axoloti/platform_linux/../chibios/os/h
 329 00ec 83F31188 		msr     BASEPRI, r3
 330              	@ 0 "" 2
 331              		.thumb
 332              	.LBE11:
 333              		.loc 1 262 0
 334 00f0 03B0     		add	sp, sp, #12
 335              		.cfi_def_cfa_offset 20
 336              		@ sp needed
ARM GAS  /tmp/ccLmIIGa.s 			page 7


 337 00f2 F0BD     		pop	{r4, r5, r6, r7, pc}
 338              		.cfi_endproc
 339              	.LFE136:
 340              		.size	i2cMasterReceiveTimeout, .-i2cMasterReceiveTimeout
 341              		.align	2
 342 00f4 AFF30080 		.p2align 4,,15
 342      AFF30080 
 342      AFF30080 
 343              		.global	i2cAcquireBus
 344              		.thumb
 345              		.thumb_func
 346              		.type	i2cAcquireBus, %function
 347              	i2cAcquireBus:
 348              	.LFB137:
 349              		.loc 1 276 0
 350              		.cfi_startproc
 351              		@ args = 0, pretend = 0, frame = 0
 352              		@ frame_needed = 0, uses_anonymous_args = 0
 353              		@ link register save eliminated.
 354              	.LVL16:
 355              		.loc 1 281 0
 356 0100 0C30     		adds	r0, r0, #12
 357              	.LVL17:
 358 0102 FFF7FEBF 		b	chMtxLock
 359              	.LVL18:
 360              		.cfi_endproc
 361              	.LFE137:
 362              		.size	i2cAcquireBus, .-i2cAcquireBus
 363 0106 00BF     		.align	2
 364 0108 AFF30080 		.p2align 4,,15
 364      AFF30080 
 365              		.global	i2cReleaseBus
 366              		.thumb
 367              		.thumb_func
 368              		.type	i2cReleaseBus, %function
 369              	i2cReleaseBus:
 370              	.LFB138:
 371              		.loc 1 296 0
 372              		.cfi_startproc
 373              		@ args = 0, pretend = 0, frame = 0
 374              		@ frame_needed = 0, uses_anonymous_args = 0
 375              		@ link register save eliminated.
 376              	.LVL19:
 377              		.loc 1 301 0
 378 0110 FFF7FEBF 		b	chMtxUnlock
 379              	.LVL20:
 380              		.cfi_endproc
 381              	.LFE138:
 382              		.size	i2cReleaseBus, .-i2cReleaseBus
 383              	.Letext0:
 384              		.file 2 "/home/sbcu/Dropbox/pcb-layouts/axo-on-discovery-board/axoloti/platform_linux/lib/gcc/arm-
 385              		.file 3 "/home/sbcu/Dropbox/pcb-layouts/axo-on-discovery-board/axoloti/platform_linux/arm-none-eab
 386              		.file 4 "/home/sbcu/Dropbox/pcb-layouts/axo-on-discovery-board/axoloti/platform_linux/arm-none-eab
 387              		.file 5 "/home/sbcu/Dropbox/pcb-layouts/axo-on-discovery-board/axoloti/platform_linux/../chibios/o
 388              		.file 6 "/home/sbcu/Dropbox/pcb-layouts/axo-on-discovery-board/axoloti/platform_linux/../chibios/o
 389              		.file 7 "/home/sbcu/Dropbox/pcb-layouts/axo-on-discovery-board/axoloti/platform_linux/../chibios/o
 390              		.file 8 "/home/sbcu/Dropbox/pcb-layouts/axo-on-discovery-board/axoloti/platform_linux/../chibios/o
ARM GAS  /tmp/ccLmIIGa.s 			page 8


 391              		.file 9 "/home/sbcu/Dropbox/pcb-layouts/axo-on-discovery-board/axoloti/platform_linux/../chibios/o
 392              		.file 10 "/home/sbcu/Dropbox/pcb-layouts/axo-on-discovery-board/axoloti/platform_linux/../chibios/
 393              		.file 11 "/home/sbcu/Dropbox/pcb-layouts/axo-on-discovery-board/axoloti/platform_linux/../chibios/
 394              		.file 12 "/home/sbcu/Dropbox/pcb-layouts/axo-on-discovery-board/axoloti/platform_linux/../chibios/
 395              		.file 13 "/home/sbcu/Dropbox/pcb-layouts/axo-on-discovery-board/axoloti/platform_linux/../chibios/
 396              		.file 14 "/home/sbcu/Dropbox/pcb-layouts/axo-on-discovery-board/axoloti/platform_linux/../CMSIS//I
 397              		.section	.debug_info,"",%progbits
 398              	.Ldebug_info0:
 399 0000 350C0000 		.4byte	0xc35
 400 0004 0400     		.2byte	0x4
 401 0006 00000000 		.4byte	.Ldebug_abbrev0
 402 000a 04       		.byte	0x4
 403 000b 01       		.uleb128 0x1
 404 000c FC050000 		.4byte	.LASF136
 405 0010 01       		.byte	0x1
 406 0011 88040000 		.4byte	.LASF137
 407 0015 C8000000 		.4byte	.LASF138
 408 0019 00000000 		.4byte	.Ltext0
 409 001d 14010000 		.4byte	.Letext0-.Ltext0
 410 0021 00000000 		.4byte	.Ldebug_line0
 411 0025 02       		.uleb128 0x2
 412 0026 04       		.byte	0x4
 413 0027 05       		.byte	0x5
 414 0028 696E7400 		.ascii	"int\000"
 415 002c 03       		.uleb128 0x3
 416 002d 34000000 		.4byte	.LASF2
 417 0031 02       		.byte	0x2
 418 0032 D4       		.byte	0xd4
 419 0033 37000000 		.4byte	0x37
 420 0037 04       		.uleb128 0x4
 421 0038 04       		.byte	0x4
 422 0039 07       		.byte	0x7
 423 003a 15020000 		.4byte	.LASF0
 424 003e 04       		.uleb128 0x4
 425 003f 01       		.byte	0x1
 426 0040 06       		.byte	0x6
 427 0041 43010000 		.4byte	.LASF1
 428 0045 03       		.uleb128 0x3
 429 0046 49000000 		.4byte	.LASF3
 430 004a 03       		.byte	0x3
 431 004b 1D       		.byte	0x1d
 432 004c 50000000 		.4byte	0x50
 433 0050 04       		.uleb128 0x4
 434 0051 01       		.byte	0x1
 435 0052 08       		.byte	0x8
 436 0053 D6030000 		.4byte	.LASF4
 437 0057 04       		.uleb128 0x4
 438 0058 02       		.byte	0x2
 439 0059 05       		.byte	0x5
 440 005a A9020000 		.4byte	.LASF5
 441 005e 03       		.uleb128 0x3
 442 005f 1D050000 		.4byte	.LASF6
 443 0063 03       		.byte	0x3
 444 0064 2B       		.byte	0x2b
 445 0065 69000000 		.4byte	0x69
 446 0069 04       		.uleb128 0x4
 447 006a 02       		.byte	0x2
ARM GAS  /tmp/ccLmIIGa.s 			page 9


 448 006b 07       		.byte	0x7
 449 006c 5D020000 		.4byte	.LASF7
 450 0070 03       		.uleb128 0x3
 451 0071 44050000 		.4byte	.LASF8
 452 0075 03       		.byte	0x3
 453 0076 3F       		.byte	0x3f
 454 0077 7B000000 		.4byte	0x7b
 455 007b 04       		.uleb128 0x4
 456 007c 04       		.byte	0x4
 457 007d 05       		.byte	0x5
 458 007e A0010000 		.4byte	.LASF9
 459 0082 03       		.uleb128 0x3
 460 0083 E1010000 		.4byte	.LASF10
 461 0087 03       		.byte	0x3
 462 0088 41       		.byte	0x41
 463 0089 8D000000 		.4byte	0x8d
 464 008d 04       		.uleb128 0x4
 465 008e 04       		.byte	0x4
 466 008f 07       		.byte	0x7
 467 0090 FF040000 		.4byte	.LASF11
 468 0094 04       		.uleb128 0x4
 469 0095 08       		.byte	0x8
 470 0096 05       		.byte	0x5
 471 0097 07020000 		.4byte	.LASF12
 472 009b 04       		.uleb128 0x4
 473 009c 08       		.byte	0x8
 474 009d 07       		.byte	0x7
 475 009e 88000000 		.4byte	.LASF13
 476 00a2 03       		.uleb128 0x3
 477 00a3 CB050000 		.4byte	.LASF14
 478 00a7 04       		.byte	0x4
 479 00a8 14       		.byte	0x14
 480 00a9 45000000 		.4byte	0x45
 481 00ad 03       		.uleb128 0x3
 482 00ae 88020000 		.4byte	.LASF15
 483 00b2 04       		.byte	0x4
 484 00b3 1A       		.byte	0x1a
 485 00b4 5E000000 		.4byte	0x5e
 486 00b8 03       		.uleb128 0x3
 487 00b9 CE030000 		.4byte	.LASF16
 488 00bd 04       		.byte	0x4
 489 00be 1F       		.byte	0x1f
 490 00bf 70000000 		.4byte	0x70
 491 00c3 03       		.uleb128 0x3
 492 00c4 7F040000 		.4byte	.LASF17
 493 00c8 04       		.byte	0x4
 494 00c9 20       		.byte	0x20
 495 00ca 82000000 		.4byte	0x82
 496 00ce 04       		.uleb128 0x4
 497 00cf 01       		.byte	0x1
 498 00d0 02       		.byte	0x2
 499 00d1 C8030000 		.4byte	.LASF18
 500 00d5 03       		.uleb128 0x3
 501 00d6 80020000 		.4byte	.LASF19
 502 00da 05       		.byte	0x5
 503 00db 2C       		.byte	0x2c
 504 00dc A2000000 		.4byte	0xa2
ARM GAS  /tmp/ccLmIIGa.s 			page 10


 505 00e0 03       		.uleb128 0x3
 506 00e1 A9010000 		.4byte	.LASF20
 507 00e5 05       		.byte	0x5
 508 00e6 2D       		.byte	0x2d
 509 00e7 A2000000 		.4byte	0xa2
 510 00eb 03       		.uleb128 0x3
 511 00ec 86010000 		.4byte	.LASF21
 512 00f0 05       		.byte	0x5
 513 00f1 2F       		.byte	0x2f
 514 00f2 A2000000 		.4byte	0xa2
 515 00f6 03       		.uleb128 0x3
 516 00f7 A1030000 		.4byte	.LASF22
 517 00fb 05       		.byte	0x5
 518 00fc 30       		.byte	0x30
 519 00fd C3000000 		.4byte	0xc3
 520 0101 03       		.uleb128 0x3
 521 0102 7A020000 		.4byte	.LASF23
 522 0106 05       		.byte	0x5
 523 0107 31       		.byte	0x31
 524 0108 B8000000 		.4byte	0xb8
 525 010c 03       		.uleb128 0x3
 526 010d 9D020000 		.4byte	.LASF24
 527 0111 05       		.byte	0x5
 528 0112 33       		.byte	0x33
 529 0113 C3000000 		.4byte	0xc3
 530 0117 03       		.uleb128 0x3
 531 0118 2F050000 		.4byte	.LASF25
 532 011c 05       		.byte	0x5
 533 011d 35       		.byte	0x35
 534 011e C3000000 		.4byte	0xc3
 535 0122 03       		.uleb128 0x3
 536 0123 53040000 		.4byte	.LASF26
 537 0127 06       		.byte	0x6
 538 0128 2A       		.byte	0x2a
 539 0129 2D010000 		.4byte	0x12d
 540 012d 05       		.uleb128 0x5
 541 012e 53040000 		.4byte	.LASF26
 542 0132 40       		.byte	0x40
 543 0133 07       		.byte	0x7
 544 0134 5E       		.byte	0x5e
 545 0135 06020000 		.4byte	0x206
 546 0139 06       		.uleb128 0x6
 547 013a 32040000 		.4byte	.LASF27
 548 013e 07       		.byte	0x7
 549 013f 5F       		.byte	0x5f
 550 0140 27020000 		.4byte	0x227
 551 0144 00       		.byte	0
 552 0145 06       		.uleb128 0x6
 553 0146 7C030000 		.4byte	.LASF28
 554 014a 07       		.byte	0x7
 555 014b 61       		.byte	0x61
 556 014c 27020000 		.4byte	0x227
 557 0150 04       		.byte	0x4
 558 0151 06       		.uleb128 0x6
 559 0152 17010000 		.4byte	.LASF29
 560 0156 07       		.byte	0x7
 561 0157 63       		.byte	0x63
ARM GAS  /tmp/ccLmIIGa.s 			page 11


 562 0158 F6000000 		.4byte	0xf6
 563 015c 08       		.byte	0x8
 564 015d 06       		.uleb128 0x6
 565 015e 31070000 		.4byte	.LASF30
 566 0162 07       		.byte	0x7
 567 0163 64       		.byte	0x64
 568 0164 B1030000 		.4byte	0x3b1
 569 0168 0C       		.byte	0xc
 570 0169 06       		.uleb128 0x6
 571 016a B7010000 		.4byte	.LASF31
 572 016e 07       		.byte	0x7
 573 016f 66       		.byte	0x66
 574 0170 27020000 		.4byte	0x227
 575 0174 10       		.byte	0x10
 576 0175 06       		.uleb128 0x6
 577 0176 FB020000 		.4byte	.LASF32
 578 017a 07       		.byte	0x7
 579 017b 67       		.byte	0x67
 580 017c 27020000 		.4byte	0x227
 581 0180 14       		.byte	0x14
 582 0181 06       		.uleb128 0x6
 583 0182 64050000 		.4byte	.LASF33
 584 0186 07       		.byte	0x7
 585 0187 6E       		.byte	0x6e
 586 0188 55040000 		.4byte	0x455
 587 018c 18       		.byte	0x18
 588 018d 06       		.uleb128 0x6
 589 018e 0C040000 		.4byte	.LASF34
 590 0192 07       		.byte	0x7
 591 0193 79       		.byte	0x79
 592 0194 E0000000 		.4byte	0xe0
 593 0198 1C       		.byte	0x1c
 594 0199 06       		.uleb128 0x6
 595 019a 39040000 		.4byte	.LASF35
 596 019e 07       		.byte	0x7
 597 019f 7D       		.byte	0x7d
 598 01a0 D5000000 		.4byte	0xd5
 599 01a4 1D       		.byte	0x1d
 600 01a5 06       		.uleb128 0x6
 601 01a6 14040000 		.4byte	.LASF36
 602 01aa 07       		.byte	0x7
 603 01ab 88       		.byte	0x88
 604 01ac EB000000 		.4byte	0xeb
 605 01b0 1E       		.byte	0x1e
 606 01b1 07       		.uleb128 0x7
 607 01b2 705F7500 		.ascii	"p_u\000"
 608 01b6 07       		.byte	0x7
 609 01b7 B4       		.byte	0xb4
 610 01b8 20040000 		.4byte	0x420
 611 01bc 20       		.byte	0x20
 612 01bd 06       		.uleb128 0x6
 613 01be 37070000 		.4byte	.LASF37
 614 01c2 07       		.byte	0x7
 615 01c3 B9       		.byte	0xb9
 616 01c4 4D020000 		.4byte	0x24d
 617 01c8 24       		.byte	0x24
 618 01c9 06       		.uleb128 0x6
ARM GAS  /tmp/ccLmIIGa.s 			page 12


 619 01ca 2F020000 		.4byte	.LASF38
 620 01ce 07       		.byte	0x7
 621 01cf BF       		.byte	0xbf
 622 01d0 2D020000 		.4byte	0x22d
 623 01d4 28       		.byte	0x28
 624 01d5 06       		.uleb128 0x6
 625 01d6 FD060000 		.4byte	.LASF39
 626 01da 07       		.byte	0x7
 627 01db C3       		.byte	0xc3
 628 01dc 01010000 		.4byte	0x101
 629 01e0 30       		.byte	0x30
 630 01e1 06       		.uleb128 0x6
 631 01e2 65040000 		.4byte	.LASF40
 632 01e6 07       		.byte	0x7
 633 01e7 C9       		.byte	0xc9
 634 01e8 0C010000 		.4byte	0x10c
 635 01ec 34       		.byte	0x34
 636 01ed 06       		.uleb128 0x6
 637 01ee F7030000 		.4byte	.LASF41
 638 01f2 07       		.byte	0x7
 639 01f3 D0       		.byte	0xd0
 640 01f4 67040000 		.4byte	0x467
 641 01f8 38       		.byte	0x38
 642 01f9 06       		.uleb128 0x6
 643 01fa 39050000 		.4byte	.LASF42
 644 01fe 07       		.byte	0x7
 645 01ff D4       		.byte	0xd4
 646 0200 F6000000 		.4byte	0xf6
 647 0204 3C       		.byte	0x3c
 648 0205 00       		.byte	0
 649 0206 08       		.uleb128 0x8
 650 0207 08       		.byte	0x8
 651 0208 06       		.byte	0x6
 652 0209 61       		.byte	0x61
 653 020a 27020000 		.4byte	0x227
 654 020e 06       		.uleb128 0x6
 655 020f 32040000 		.4byte	.LASF27
 656 0213 06       		.byte	0x6
 657 0214 62       		.byte	0x62
 658 0215 27020000 		.4byte	0x227
 659 0219 00       		.byte	0
 660 021a 06       		.uleb128 0x6
 661 021b 7C030000 		.4byte	.LASF28
 662 021f 06       		.byte	0x6
 663 0220 64       		.byte	0x64
 664 0221 27020000 		.4byte	0x227
 665 0225 04       		.byte	0x4
 666 0226 00       		.byte	0
 667 0227 09       		.uleb128 0x9
 668 0228 04       		.byte	0x4
 669 0229 22010000 		.4byte	0x122
 670 022d 03       		.uleb128 0x3
 671 022e 13030000 		.4byte	.LASF43
 672 0232 06       		.byte	0x6
 673 0233 66       		.byte	0x66
 674 0234 06020000 		.4byte	0x206
 675 0238 08       		.uleb128 0x8
ARM GAS  /tmp/ccLmIIGa.s 			page 13


 676 0239 04       		.byte	0x4
 677 023a 06       		.byte	0x6
 678 023b 6B       		.byte	0x6b
 679 023c 4D020000 		.4byte	0x24d
 680 0240 06       		.uleb128 0x6
 681 0241 32040000 		.4byte	.LASF27
 682 0245 06       		.byte	0x6
 683 0246 6D       		.byte	0x6d
 684 0247 27020000 		.4byte	0x227
 685 024b 00       		.byte	0
 686 024c 00       		.byte	0
 687 024d 03       		.uleb128 0x3
 688 024e 91020000 		.4byte	.LASF44
 689 0252 06       		.byte	0x6
 690 0253 70       		.byte	0x70
 691 0254 38020000 		.4byte	0x238
 692 0258 03       		.uleb128 0x3
 693 0259 EC010000 		.4byte	.LASF45
 694 025d 08       		.byte	0x8
 695 025e E5       		.byte	0xe5
 696 025f 63020000 		.4byte	0x263
 697 0263 0A       		.uleb128 0xa
 698 0264 04       		.byte	0x4
 699 0265 0B       		.uleb128 0xb
 700 0266 86050000 		.4byte	.LASF46
 701 026a 64       		.byte	0x64
 702 026b 08       		.byte	0x8
 703 026c 0C01     		.2byte	0x10c
 704 026e B1030000 		.4byte	0x3b1
 705 0272 0C       		.uleb128 0xc
 706 0273 73313600 		.ascii	"s16\000"
 707 0277 08       		.byte	0x8
 708 0278 0E01     		.2byte	0x10e
 709 027a 58020000 		.4byte	0x258
 710 027e 00       		.byte	0
 711 027f 0C       		.uleb128 0xc
 712 0280 73313700 		.ascii	"s17\000"
 713 0284 08       		.byte	0x8
 714 0285 0F01     		.2byte	0x10f
 715 0287 58020000 		.4byte	0x258
 716 028b 04       		.byte	0x4
 717 028c 0C       		.uleb128 0xc
 718 028d 73313800 		.ascii	"s18\000"
 719 0291 08       		.byte	0x8
 720 0292 1001     		.2byte	0x110
 721 0294 58020000 		.4byte	0x258
 722 0298 08       		.byte	0x8
 723 0299 0C       		.uleb128 0xc
 724 029a 73313900 		.ascii	"s19\000"
 725 029e 08       		.byte	0x8
 726 029f 1101     		.2byte	0x111
 727 02a1 58020000 		.4byte	0x258
 728 02a5 0C       		.byte	0xc
 729 02a6 0C       		.uleb128 0xc
 730 02a7 73323000 		.ascii	"s20\000"
 731 02ab 08       		.byte	0x8
 732 02ac 1201     		.2byte	0x112
ARM GAS  /tmp/ccLmIIGa.s 			page 14


 733 02ae 58020000 		.4byte	0x258
 734 02b2 10       		.byte	0x10
 735 02b3 0C       		.uleb128 0xc
 736 02b4 73323100 		.ascii	"s21\000"
 737 02b8 08       		.byte	0x8
 738 02b9 1301     		.2byte	0x113
 739 02bb 58020000 		.4byte	0x258
 740 02bf 14       		.byte	0x14
 741 02c0 0C       		.uleb128 0xc
 742 02c1 73323200 		.ascii	"s22\000"
 743 02c5 08       		.byte	0x8
 744 02c6 1401     		.2byte	0x114
 745 02c8 58020000 		.4byte	0x258
 746 02cc 18       		.byte	0x18
 747 02cd 0C       		.uleb128 0xc
 748 02ce 73323300 		.ascii	"s23\000"
 749 02d2 08       		.byte	0x8
 750 02d3 1501     		.2byte	0x115
 751 02d5 58020000 		.4byte	0x258
 752 02d9 1C       		.byte	0x1c
 753 02da 0C       		.uleb128 0xc
 754 02db 73323400 		.ascii	"s24\000"
 755 02df 08       		.byte	0x8
 756 02e0 1601     		.2byte	0x116
 757 02e2 58020000 		.4byte	0x258
 758 02e6 20       		.byte	0x20
 759 02e7 0C       		.uleb128 0xc
 760 02e8 73323500 		.ascii	"s25\000"
 761 02ec 08       		.byte	0x8
 762 02ed 1701     		.2byte	0x117
 763 02ef 58020000 		.4byte	0x258
 764 02f3 24       		.byte	0x24
 765 02f4 0C       		.uleb128 0xc
 766 02f5 73323600 		.ascii	"s26\000"
 767 02f9 08       		.byte	0x8
 768 02fa 1801     		.2byte	0x118
 769 02fc 58020000 		.4byte	0x258
 770 0300 28       		.byte	0x28
 771 0301 0C       		.uleb128 0xc
 772 0302 73323700 		.ascii	"s27\000"
 773 0306 08       		.byte	0x8
 774 0307 1901     		.2byte	0x119
 775 0309 58020000 		.4byte	0x258
 776 030d 2C       		.byte	0x2c
 777 030e 0C       		.uleb128 0xc
 778 030f 73323800 		.ascii	"s28\000"
 779 0313 08       		.byte	0x8
 780 0314 1A01     		.2byte	0x11a
 781 0316 58020000 		.4byte	0x258
 782 031a 30       		.byte	0x30
 783 031b 0C       		.uleb128 0xc
 784 031c 73323900 		.ascii	"s29\000"
 785 0320 08       		.byte	0x8
 786 0321 1B01     		.2byte	0x11b
 787 0323 58020000 		.4byte	0x258
 788 0327 34       		.byte	0x34
 789 0328 0C       		.uleb128 0xc
ARM GAS  /tmp/ccLmIIGa.s 			page 15


 790 0329 73333000 		.ascii	"s30\000"
 791 032d 08       		.byte	0x8
 792 032e 1C01     		.2byte	0x11c
 793 0330 58020000 		.4byte	0x258
 794 0334 38       		.byte	0x38
 795 0335 0C       		.uleb128 0xc
 796 0336 73333100 		.ascii	"s31\000"
 797 033a 08       		.byte	0x8
 798 033b 1D01     		.2byte	0x11d
 799 033d 58020000 		.4byte	0x258
 800 0341 3C       		.byte	0x3c
 801 0342 0C       		.uleb128 0xc
 802 0343 723400   		.ascii	"r4\000"
 803 0346 08       		.byte	0x8
 804 0347 1F01     		.2byte	0x11f
 805 0349 58020000 		.4byte	0x258
 806 034d 40       		.byte	0x40
 807 034e 0C       		.uleb128 0xc
 808 034f 723500   		.ascii	"r5\000"
 809 0352 08       		.byte	0x8
 810 0353 2001     		.2byte	0x120
 811 0355 58020000 		.4byte	0x258
 812 0359 44       		.byte	0x44
 813 035a 0C       		.uleb128 0xc
 814 035b 723600   		.ascii	"r6\000"
 815 035e 08       		.byte	0x8
 816 035f 2101     		.2byte	0x121
 817 0361 58020000 		.4byte	0x258
 818 0365 48       		.byte	0x48
 819 0366 0C       		.uleb128 0xc
 820 0367 723700   		.ascii	"r7\000"
 821 036a 08       		.byte	0x8
 822 036b 2201     		.2byte	0x122
 823 036d 58020000 		.4byte	0x258
 824 0371 4C       		.byte	0x4c
 825 0372 0C       		.uleb128 0xc
 826 0373 723800   		.ascii	"r8\000"
 827 0376 08       		.byte	0x8
 828 0377 2301     		.2byte	0x123
 829 0379 58020000 		.4byte	0x258
 830 037d 50       		.byte	0x50
 831 037e 0C       		.uleb128 0xc
 832 037f 723900   		.ascii	"r9\000"
 833 0382 08       		.byte	0x8
 834 0383 2401     		.2byte	0x124
 835 0385 58020000 		.4byte	0x258
 836 0389 54       		.byte	0x54
 837 038a 0C       		.uleb128 0xc
 838 038b 72313000 		.ascii	"r10\000"
 839 038f 08       		.byte	0x8
 840 0390 2501     		.2byte	0x125
 841 0392 58020000 		.4byte	0x258
 842 0396 58       		.byte	0x58
 843 0397 0C       		.uleb128 0xc
 844 0398 72313100 		.ascii	"r11\000"
 845 039c 08       		.byte	0x8
 846 039d 2601     		.2byte	0x126
ARM GAS  /tmp/ccLmIIGa.s 			page 16


 847 039f 58020000 		.4byte	0x258
 848 03a3 5C       		.byte	0x5c
 849 03a4 0C       		.uleb128 0xc
 850 03a5 6C7200   		.ascii	"lr\000"
 851 03a8 08       		.byte	0x8
 852 03a9 2701     		.2byte	0x127
 853 03ab 58020000 		.4byte	0x258
 854 03af 60       		.byte	0x60
 855 03b0 00       		.byte	0
 856 03b1 0B       		.uleb128 0xb
 857 03b2 7E050000 		.4byte	.LASF47
 858 03b6 04       		.byte	0x4
 859 03b7 08       		.byte	0x8
 860 03b8 3101     		.2byte	0x131
 861 03ba CC030000 		.4byte	0x3cc
 862 03be 0C       		.uleb128 0xc
 863 03bf 72313300 		.ascii	"r13\000"
 864 03c3 08       		.byte	0x8
 865 03c4 3201     		.2byte	0x132
 866 03c6 CC030000 		.4byte	0x3cc
 867 03ca 00       		.byte	0
 868 03cb 00       		.byte	0
 869 03cc 09       		.uleb128 0x9
 870 03cd 04       		.byte	0x4
 871 03ce 65020000 		.4byte	0x265
 872 03d2 0D       		.uleb128 0xd
 873 03d3 C3000000 		.4byte	0xc3
 874 03d7 04       		.uleb128 0x4
 875 03d8 04       		.byte	0x4
 876 03d9 07       		.byte	0x7
 877 03da CE020000 		.4byte	.LASF48
 878 03de 05       		.uleb128 0x5
 879 03df E0020000 		.4byte	.LASF49
 880 03e3 10       		.byte	0x10
 881 03e4 09       		.byte	0x9
 882 03e5 2C       		.byte	0x2c
 883 03e6 0F040000 		.4byte	0x40f
 884 03ea 06       		.uleb128 0x6
 885 03eb 0F010000 		.4byte	.LASF50
 886 03ef 09       		.byte	0x9
 887 03f0 2D       		.byte	0x2d
 888 03f1 2D020000 		.4byte	0x22d
 889 03f5 00       		.byte	0
 890 03f6 06       		.uleb128 0x6
 891 03f7 29070000 		.4byte	.LASF51
 892 03fb 09       		.byte	0x9
 893 03fc 2F       		.byte	0x2f
 894 03fd 27020000 		.4byte	0x227
 895 0401 08       		.byte	0x8
 896 0402 06       		.uleb128 0x6
 897 0403 28050000 		.4byte	.LASF52
 898 0407 09       		.byte	0x9
 899 0408 31       		.byte	0x31
 900 0409 0F040000 		.4byte	0x40f
 901 040d 0C       		.byte	0xc
 902 040e 00       		.byte	0
 903 040f 09       		.uleb128 0x9
ARM GAS  /tmp/ccLmIIGa.s 			page 17


 904 0410 04       		.byte	0x4
 905 0411 DE030000 		.4byte	0x3de
 906 0415 03       		.uleb128 0x3
 907 0416 E0020000 		.4byte	.LASF49
 908 041a 09       		.byte	0x9
 909 041b 33       		.byte	0x33
 910 041c DE030000 		.4byte	0x3de
 911 0420 0E       		.uleb128 0xe
 912 0421 04       		.byte	0x4
 913 0422 07       		.byte	0x7
 914 0423 96       		.byte	0x96
 915 0424 55040000 		.4byte	0x455
 916 0428 0F       		.uleb128 0xf
 917 0429 3B000000 		.4byte	.LASF53
 918 042d 07       		.byte	0x7
 919 042e 9D       		.byte	0x9d
 920 042f 01010000 		.4byte	0x101
 921 0433 0F       		.uleb128 0xf
 922 0434 9F000000 		.4byte	.LASF54
 923 0438 07       		.byte	0x7
 924 0439 A4       		.byte	0xa4
 925 043a 01010000 		.4byte	0x101
 926 043e 0F       		.uleb128 0xf
 927 043f F5050000 		.4byte	.LASF55
 928 0443 07       		.byte	0x7
 929 0444 AB       		.byte	0xab
 930 0445 63020000 		.4byte	0x263
 931 0449 0F       		.uleb128 0xf
 932 044a 2B040000 		.4byte	.LASF56
 933 044e 07       		.byte	0x7
 934 044f B2       		.byte	0xb2
 935 0450 0C010000 		.4byte	0x10c
 936 0454 00       		.byte	0
 937 0455 09       		.uleb128 0x9
 938 0456 04       		.byte	0x4
 939 0457 5B040000 		.4byte	0x45b
 940 045b 10       		.uleb128 0x10
 941 045c 60040000 		.4byte	0x460
 942 0460 04       		.uleb128 0x4
 943 0461 01       		.byte	0x1
 944 0462 08       		.byte	0x8
 945 0463 11050000 		.4byte	.LASF57
 946 0467 09       		.uleb128 0x9
 947 0468 04       		.byte	0x4
 948 0469 15040000 		.4byte	0x415
 949 046d 09       		.uleb128 0x9
 950 046e 04       		.byte	0x4
 951 046f A2000000 		.4byte	0xa2
 952 0473 09       		.uleb128 0x9
 953 0474 04       		.byte	0x4
 954 0475 79040000 		.4byte	0x479
 955 0479 10       		.uleb128 0x10
 956 047a A2000000 		.4byte	0xa2
 957 047e 0D       		.uleb128 0xd
 958 047f AD000000 		.4byte	0xad
 959 0483 0D       		.uleb128 0xd
 960 0484 B8000000 		.4byte	0xb8
ARM GAS  /tmp/ccLmIIGa.s 			page 18


 961 0488 11       		.uleb128 0x11
 962 0489 18       		.byte	0x18
 963 048a 0A       		.byte	0xa
 964 048b B102     		.2byte	0x2b1
 965 048d DF040000 		.4byte	0x4df
 966 0491 0C       		.uleb128 0xc
 967 0492 435200   		.ascii	"CR\000"
 968 0495 0A       		.byte	0xa
 969 0496 B302     		.2byte	0x2b3
 970 0498 D2030000 		.4byte	0x3d2
 971 049c 00       		.byte	0
 972 049d 12       		.uleb128 0x12
 973 049e 55050000 		.4byte	.LASF58
 974 04a2 0A       		.byte	0xa
 975 04a3 B402     		.2byte	0x2b4
 976 04a5 D2030000 		.4byte	0x3d2
 977 04a9 04       		.byte	0x4
 978 04aa 0C       		.uleb128 0xc
 979 04ab 50415200 		.ascii	"PAR\000"
 980 04af 0A       		.byte	0xa
 981 04b0 B502     		.2byte	0x2b5
 982 04b2 D2030000 		.4byte	0x3d2
 983 04b6 08       		.byte	0x8
 984 04b7 12       		.uleb128 0x12
 985 04b8 2F000000 		.4byte	.LASF59
 986 04bc 0A       		.byte	0xa
 987 04bd B602     		.2byte	0x2b6
 988 04bf D2030000 		.4byte	0x3d2
 989 04c3 0C       		.byte	0xc
 990 04c4 12       		.uleb128 0x12
 991 04c5 8D050000 		.4byte	.LASF60
 992 04c9 0A       		.byte	0xa
 993 04ca B702     		.2byte	0x2b7
 994 04cc D2030000 		.4byte	0x3d2
 995 04d0 10       		.byte	0x10
 996 04d1 0C       		.uleb128 0xc
 997 04d2 46435200 		.ascii	"FCR\000"
 998 04d6 0A       		.byte	0xa
 999 04d7 B802     		.2byte	0x2b8
 1000 04d9 D2030000 		.4byte	0x3d2
 1001 04dd 14       		.byte	0x14
 1002 04de 00       		.byte	0
 1003 04df 13       		.uleb128 0x13
 1004 04e0 6B050000 		.4byte	.LASF61
 1005 04e4 0A       		.byte	0xa
 1006 04e5 B902     		.2byte	0x2b9
 1007 04e7 88040000 		.4byte	0x488
 1008 04eb 11       		.uleb128 0x11
 1009 04ec 28       		.byte	0x28
 1010 04ed 0A       		.byte	0xa
 1011 04ee F603     		.2byte	0x3f6
 1012 04f0 F8050000 		.4byte	0x5f8
 1013 04f4 0C       		.uleb128 0xc
 1014 04f5 43523100 		.ascii	"CR1\000"
 1015 04f9 0A       		.byte	0xa
 1016 04fa F803     		.2byte	0x3f8
 1017 04fc 7E040000 		.4byte	0x47e
ARM GAS  /tmp/ccLmIIGa.s 			page 19


 1018 0500 00       		.byte	0
 1019 0501 12       		.uleb128 0x12
 1020 0502 4A030000 		.4byte	.LASF62
 1021 0506 0A       		.byte	0xa
 1022 0507 F903     		.2byte	0x3f9
 1023 0509 AD000000 		.4byte	0xad
 1024 050d 02       		.byte	0x2
 1025 050e 0C       		.uleb128 0xc
 1026 050f 43523200 		.ascii	"CR2\000"
 1027 0513 0A       		.byte	0xa
 1028 0514 FA03     		.2byte	0x3fa
 1029 0516 7E040000 		.4byte	0x47e
 1030 051a 04       		.byte	0x4
 1031 051b 12       		.uleb128 0x12
 1032 051c 54030000 		.4byte	.LASF63
 1033 0520 0A       		.byte	0xa
 1034 0521 FB03     		.2byte	0x3fb
 1035 0523 AD000000 		.4byte	0xad
 1036 0527 06       		.byte	0x6
 1037 0528 12       		.uleb128 0x12
 1038 0529 D3050000 		.4byte	.LASF64
 1039 052d 0A       		.byte	0xa
 1040 052e FC03     		.2byte	0x3fc
 1041 0530 7E040000 		.4byte	0x47e
 1042 0534 08       		.byte	0x8
 1043 0535 12       		.uleb128 0x12
 1044 0536 5E030000 		.4byte	.LASF65
 1045 053a 0A       		.byte	0xa
 1046 053b FD03     		.2byte	0x3fd
 1047 053d AD000000 		.4byte	0xad
 1048 0541 0A       		.byte	0xa
 1049 0542 12       		.uleb128 0x12
 1050 0543 D8050000 		.4byte	.LASF66
 1051 0547 0A       		.byte	0xa
 1052 0548 FE03     		.2byte	0x3fe
 1053 054a 7E040000 		.4byte	0x47e
 1054 054e 0C       		.byte	0xc
 1055 054f 12       		.uleb128 0x12
 1056 0550 68030000 		.4byte	.LASF67
 1057 0554 0A       		.byte	0xa
 1058 0555 FF03     		.2byte	0x3ff
 1059 0557 AD000000 		.4byte	0xad
 1060 055b 0E       		.byte	0xe
 1061 055c 0C       		.uleb128 0xc
 1062 055d 445200   		.ascii	"DR\000"
 1063 0560 0A       		.byte	0xa
 1064 0561 0004     		.2byte	0x400
 1065 0563 7E040000 		.4byte	0x47e
 1066 0567 10       		.byte	0x10
 1067 0568 12       		.uleb128 0x12
 1068 0569 72030000 		.4byte	.LASF68
 1069 056d 0A       		.byte	0xa
 1070 056e 0104     		.2byte	0x401
 1071 0570 AD000000 		.4byte	0xad
 1072 0574 12       		.byte	0x12
 1073 0575 0C       		.uleb128 0xc
 1074 0576 53523100 		.ascii	"SR1\000"
ARM GAS  /tmp/ccLmIIGa.s 			page 20


 1075 057a 0A       		.byte	0xa
 1076 057b 0204     		.2byte	0x402
 1077 057d 7E040000 		.4byte	0x47e
 1078 0581 14       		.byte	0x14
 1079 0582 12       		.uleb128 0x12
 1080 0583 75040000 		.4byte	.LASF69
 1081 0587 0A       		.byte	0xa
 1082 0588 0304     		.2byte	0x403
 1083 058a AD000000 		.4byte	0xad
 1084 058e 16       		.byte	0x16
 1085 058f 0C       		.uleb128 0xc
 1086 0590 53523200 		.ascii	"SR2\000"
 1087 0594 0A       		.byte	0xa
 1088 0595 0404     		.2byte	0x404
 1089 0597 7E040000 		.4byte	0x47e
 1090 059b 18       		.byte	0x18
 1091 059c 12       		.uleb128 0x12
 1092 059d 83030000 		.4byte	.LASF70
 1093 05a1 0A       		.byte	0xa
 1094 05a2 0504     		.2byte	0x405
 1095 05a4 AD000000 		.4byte	0xad
 1096 05a8 1A       		.byte	0x1a
 1097 05a9 0C       		.uleb128 0xc
 1098 05aa 43435200 		.ascii	"CCR\000"
 1099 05ae 0A       		.byte	0xa
 1100 05af 0604     		.2byte	0x406
 1101 05b1 7E040000 		.4byte	0x47e
 1102 05b5 1C       		.byte	0x1c
 1103 05b6 12       		.uleb128 0x12
 1104 05b7 8D030000 		.4byte	.LASF71
 1105 05bb 0A       		.byte	0xa
 1106 05bc 0704     		.2byte	0x407
 1107 05be AD000000 		.4byte	0xad
 1108 05c2 1E       		.byte	0x1e
 1109 05c3 12       		.uleb128 0x12
 1110 05c4 7B000000 		.4byte	.LASF72
 1111 05c8 0A       		.byte	0xa
 1112 05c9 0804     		.2byte	0x408
 1113 05cb 7E040000 		.4byte	0x47e
 1114 05cf 20       		.byte	0x20
 1115 05d0 12       		.uleb128 0x12
 1116 05d1 97030000 		.4byte	.LASF73
 1117 05d5 0A       		.byte	0xa
 1118 05d6 0904     		.2byte	0x409
 1119 05d8 AD000000 		.4byte	0xad
 1120 05dc 22       		.byte	0x22
 1121 05dd 12       		.uleb128 0x12
 1122 05de B2010000 		.4byte	.LASF74
 1123 05e2 0A       		.byte	0xa
 1124 05e3 0A04     		.2byte	0x40a
 1125 05e5 7E040000 		.4byte	0x47e
 1126 05e9 24       		.byte	0x24
 1127 05ea 12       		.uleb128 0x12
 1128 05eb A6050000 		.4byte	.LASF75
 1129 05ef 0A       		.byte	0xa
 1130 05f0 0B04     		.2byte	0x40b
 1131 05f2 AD000000 		.4byte	0xad
ARM GAS  /tmp/ccLmIIGa.s 			page 21


 1132 05f6 26       		.byte	0x26
 1133 05f7 00       		.byte	0
 1134 05f8 13       		.uleb128 0x13
 1135 05f9 03070000 		.4byte	.LASF76
 1136 05fd 0A       		.byte	0xa
 1137 05fe 0C04     		.2byte	0x40c
 1138 0600 EB040000 		.4byte	0x4eb
 1139 0604 08       		.uleb128 0x8
 1140 0605 0C       		.byte	0xc
 1141 0606 0B       		.byte	0xb
 1142 0607 DA       		.byte	0xda
 1143 0608 49060000 		.4byte	0x649
 1144 060c 06       		.uleb128 0x6
 1145 060d 81000000 		.4byte	.LASF77
 1146 0611 0B       		.byte	0xb
 1147 0612 DB       		.byte	0xdb
 1148 0613 49060000 		.4byte	0x649
 1149 0617 00       		.byte	0
 1150 0618 06       		.uleb128 0x6
 1151 0619 70040000 		.4byte	.LASF78
 1152 061d 0B       		.byte	0xb
 1153 061e DC       		.byte	0xdc
 1154 061f 4F060000 		.4byte	0x64f
 1155 0623 04       		.byte	0x4
 1156 0624 06       		.uleb128 0x6
 1157 0625 42020000 		.4byte	.LASF79
 1158 0629 0B       		.byte	0xb
 1159 062a DD       		.byte	0xdd
 1160 062b A2000000 		.4byte	0xa2
 1161 062f 08       		.byte	0x8
 1162 0630 06       		.uleb128 0x6
 1163 0631 F5010000 		.4byte	.LASF80
 1164 0635 0B       		.byte	0xb
 1165 0636 DF       		.byte	0xdf
 1166 0637 A2000000 		.4byte	0xa2
 1167 063b 09       		.byte	0x9
 1168 063c 06       		.uleb128 0x6
 1169 063d 42000000 		.4byte	.LASF81
 1170 0641 0B       		.byte	0xb
 1171 0642 E0       		.byte	0xe0
 1172 0643 A2000000 		.4byte	0xa2
 1173 0647 0A       		.byte	0xa
 1174 0648 00       		.byte	0
 1175 0649 09       		.uleb128 0x9
 1176 064a 04       		.byte	0x4
 1177 064b DF040000 		.4byte	0x4df
 1178 064f 09       		.uleb128 0x9
 1179 0650 04       		.byte	0x4
 1180 0651 D2030000 		.4byte	0x3d2
 1181 0655 03       		.uleb128 0x3
 1182 0656 E4030000 		.4byte	.LASF82
 1183 065a 0B       		.byte	0xb
 1184 065b E1       		.byte	0xe1
 1185 065c 04060000 		.4byte	0x604
 1186 0660 09       		.uleb128 0x9
 1187 0661 04       		.byte	0x4
 1188 0662 66060000 		.4byte	0x666
ARM GAS  /tmp/ccLmIIGa.s 			page 22


 1189 0666 10       		.uleb128 0x10
 1190 0667 55060000 		.4byte	0x655
 1191 066b 14       		.uleb128 0x14
 1192 066c 01       		.byte	0x1
 1193 066d 0C       		.byte	0xc
 1194 066e 5A       		.byte	0x5a
 1195 066f 98060000 		.4byte	0x698
 1196 0673 15       		.uleb128 0x15
 1197 0674 01040000 		.4byte	.LASF83
 1198 0678 00       		.sleb128 0
 1199 0679 15       		.uleb128 0x15
 1200 067a 53000000 		.4byte	.LASF84
 1201 067e 01       		.sleb128 1
 1202 067f 15       		.uleb128 0x15
 1203 0680 5A050000 		.4byte	.LASF85
 1204 0684 02       		.sleb128 2
 1205 0685 15       		.uleb128 0x15
 1206 0686 A9030000 		.4byte	.LASF86
 1207 068a 03       		.sleb128 3
 1208 068b 15       		.uleb128 0x15
 1209 068c F1040000 		.4byte	.LASF87
 1210 0690 04       		.sleb128 4
 1211 0691 15       		.uleb128 0x15
 1212 0692 5A040000 		.4byte	.LASF88
 1213 0696 05       		.sleb128 5
 1214 0697 00       		.byte	0
 1215 0698 03       		.uleb128 0x3
 1216 0699 24000000 		.4byte	.LASF89
 1217 069d 0C       		.byte	0xc
 1218 069e 61       		.byte	0x61
 1219 069f 6B060000 		.4byte	0x66b
 1220 06a3 13       		.uleb128 0x13
 1221 06a4 90010000 		.4byte	.LASF90
 1222 06a8 0D       		.byte	0xd
 1223 06a9 3501     		.2byte	0x135
 1224 06ab AD000000 		.4byte	0xad
 1225 06af 13       		.uleb128 0x13
 1226 06b0 B7030000 		.4byte	.LASF91
 1227 06b4 0D       		.byte	0xd
 1228 06b5 3A01     		.2byte	0x13a
 1229 06b7 C3000000 		.4byte	0xc3
 1230 06bb 16       		.uleb128 0x16
 1231 06bc 01       		.byte	0x1
 1232 06bd 0D       		.byte	0xd
 1233 06be 3F01     		.2byte	0x13f
 1234 06c0 D7060000 		.4byte	0x6d7
 1235 06c4 15       		.uleb128 0x15
 1236 06c5 2A030000 		.4byte	.LASF92
 1237 06c9 01       		.sleb128 1
 1238 06ca 15       		.uleb128 0x15
 1239 06cb 49020000 		.4byte	.LASF93
 1240 06cf 02       		.sleb128 2
 1241 06d0 15       		.uleb128 0x15
 1242 06d1 CF010000 		.4byte	.LASF94
 1243 06d5 03       		.sleb128 3
 1244 06d6 00       		.byte	0
 1245 06d7 13       		.uleb128 0x13
ARM GAS  /tmp/ccLmIIGa.s 			page 23


 1246 06d8 0F070000 		.4byte	.LASF95
 1247 06dc 0D       		.byte	0xd
 1248 06dd 4301     		.2byte	0x143
 1249 06df BB060000 		.4byte	0x6bb
 1250 06e3 16       		.uleb128 0x16
 1251 06e4 01       		.byte	0x1
 1252 06e5 0D       		.byte	0xd
 1253 06e6 4801     		.2byte	0x148
 1254 06e8 FF060000 		.4byte	0x6ff
 1255 06ec 15       		.uleb128 0x15
 1256 06ed 00000000 		.4byte	.LASF96
 1257 06f1 01       		.sleb128 1
 1258 06f2 15       		.uleb128 0x15
 1259 06f3 41040000 		.4byte	.LASF97
 1260 06f7 02       		.sleb128 2
 1261 06f8 15       		.uleb128 0x15
 1262 06f9 35030000 		.4byte	.LASF98
 1263 06fd 03       		.sleb128 3
 1264 06fe 00       		.byte	0
 1265 06ff 13       		.uleb128 0x13
 1266 0700 15000000 		.4byte	.LASF99
 1267 0704 0D       		.byte	0xd
 1268 0705 4C01     		.2byte	0x14c
 1269 0707 E3060000 		.4byte	0x6e3
 1270 070b 11       		.uleb128 0x11
 1271 070c 0C       		.byte	0xc
 1272 070d 0D       		.byte	0xd
 1273 070e 5101     		.2byte	0x151
 1274 0710 3C070000 		.4byte	0x73c
 1275 0714 12       		.uleb128 0x12
 1276 0715 FF010000 		.4byte	.LASF100
 1277 0719 0D       		.byte	0xd
 1278 071a 5201     		.2byte	0x152
 1279 071c D7060000 		.4byte	0x6d7
 1280 0720 00       		.byte	0
 1281 0721 12       		.uleb128 0x12
 1282 0722 4F010000 		.4byte	.LASF101
 1283 0726 0D       		.byte	0xd
 1284 0727 5301     		.2byte	0x153
 1285 0729 C3000000 		.4byte	0xc3
 1286 072d 04       		.byte	0x4
 1287 072e 12       		.uleb128 0x12
 1288 072f E6020000 		.4byte	.LASF102
 1289 0733 0D       		.byte	0xd
 1290 0734 5601     		.2byte	0x156
 1291 0736 FF060000 		.4byte	0x6ff
 1292 073a 08       		.byte	0x8
 1293 073b 00       		.byte	0
 1294 073c 13       		.uleb128 0x13
 1295 073d 9C050000 		.4byte	.LASF103
 1296 0741 0D       		.byte	0xd
 1297 0742 5801     		.2byte	0x158
 1298 0744 0B070000 		.4byte	0x70b
 1299 0748 13       		.uleb128 0x13
 1300 0749 70020000 		.4byte	.LASF104
 1301 074d 0D       		.byte	0xd
 1302 074e 5D01     		.2byte	0x15d
ARM GAS  /tmp/ccLmIIGa.s 			page 24


 1303 0750 54070000 		.4byte	0x754
 1304 0754 0B       		.uleb128 0xb
 1305 0755 70020000 		.4byte	.LASF104
 1306 0759 38       		.byte	0x38
 1307 075a 0D       		.byte	0xd
 1308 075b 6201     		.2byte	0x162
 1309 075d F1070000 		.4byte	0x7f1
 1310 0761 12       		.uleb128 0x12
 1311 0762 9A010000 		.4byte	.LASF105
 1312 0766 0D       		.byte	0xd
 1313 0767 6601     		.2byte	0x166
 1314 0769 98060000 		.4byte	0x698
 1315 076d 00       		.byte	0
 1316 076e 12       		.uleb128 0x12
 1317 076f 16050000 		.4byte	.LASF106
 1318 0773 0D       		.byte	0xd
 1319 0774 6A01     		.2byte	0x16a
 1320 0776 F1070000 		.4byte	0x7f1
 1321 077a 04       		.byte	0x4
 1322 077b 12       		.uleb128 0x12
 1323 077c 28020000 		.4byte	.LASF107
 1324 0780 0D       		.byte	0xd
 1325 0781 6E01     		.2byte	0x16e
 1326 0783 AF060000 		.4byte	0x6af
 1327 0787 08       		.byte	0x8
 1328 0788 12       		.uleb128 0x12
 1329 0789 C2030000 		.4byte	.LASF108
 1330 078d 0D       		.byte	0xd
 1331 078e 7401     		.2byte	0x174
 1332 0790 15040000 		.4byte	0x415
 1333 0794 0C       		.byte	0xc
 1334 0795 12       		.uleb128 0x12
 1335 0796 4E050000 		.4byte	.LASF109
 1336 079a 0D       		.byte	0xd
 1337 079b 8001     		.2byte	0x180
 1338 079d 27020000 		.4byte	0x227
 1339 07a1 1C       		.byte	0x1c
 1340 07a2 12       		.uleb128 0x12
 1341 07a3 61010000 		.4byte	.LASF110
 1342 07a7 0D       		.byte	0xd
 1343 07a8 8401     		.2byte	0x184
 1344 07aa A3060000 		.4byte	0x6a3
 1345 07ae 20       		.byte	0x20
 1346 07af 12       		.uleb128 0x12
 1347 07b0 BF010000 		.4byte	.LASF111
 1348 07b4 0D       		.byte	0xd
 1349 07b5 8801     		.2byte	0x188
 1350 07b7 C3000000 		.4byte	0xc3
 1351 07bb 24       		.byte	0x24
 1352 07bc 12       		.uleb128 0x12
 1353 07bd 20030000 		.4byte	.LASF112
 1354 07c1 0D       		.byte	0xd
 1355 07c2 8C01     		.2byte	0x18c
 1356 07c4 C3000000 		.4byte	0xc3
 1357 07c8 28       		.byte	0x28
 1358 07c9 12       		.uleb128 0x12
 1359 07ca 0F000000 		.4byte	.LASF113
ARM GAS  /tmp/ccLmIIGa.s 			page 25


 1360 07ce 0D       		.byte	0xd
 1361 07cf 9001     		.2byte	0x190
 1362 07d1 60060000 		.4byte	0x660
 1363 07d5 2C       		.byte	0x2c
 1364 07d6 12       		.uleb128 0x12
 1365 07d7 C9010000 		.4byte	.LASF114
 1366 07db 0D       		.byte	0xd
 1367 07dc 9401     		.2byte	0x194
 1368 07de 60060000 		.4byte	0x660
 1369 07e2 30       		.byte	0x30
 1370 07e3 0C       		.uleb128 0xc
 1371 07e4 69326300 		.ascii	"i2c\000"
 1372 07e8 0D       		.byte	0xd
 1373 07e9 9801     		.2byte	0x198
 1374 07eb FC070000 		.4byte	0x7fc
 1375 07ef 34       		.byte	0x34
 1376 07f0 00       		.byte	0
 1377 07f1 09       		.uleb128 0x9
 1378 07f2 04       		.byte	0x4
 1379 07f3 F7070000 		.4byte	0x7f7
 1380 07f7 10       		.uleb128 0x10
 1381 07f8 3C070000 		.4byte	0x73c
 1382 07fc 09       		.uleb128 0x9
 1383 07fd 04       		.byte	0x4
 1384 07fe F8050000 		.4byte	0x5f8
 1385 0802 17       		.uleb128 0x17
 1386 0803 F5060000 		.4byte	.LASF115
 1387 0807 01       		.byte	0x1
 1388 0808 47       		.byte	0x47
 1389 0809 00000000 		.4byte	.LFB130
 1390 080d 04000000 		.4byte	.LFE130-.LFB130
 1391 0811 01       		.uleb128 0x1
 1392 0812 9C       		.byte	0x9c
 1393 0813 21080000 		.4byte	0x821
 1394 0817 18       		.uleb128 0x18
 1395 0818 04000000 		.4byte	.LVL0
 1396 081c 810B0000 		.4byte	0xb81
 1397 0820 00       		.byte	0
 1398 0821 17       		.uleb128 0x17
 1399 0822 1B070000 		.4byte	.LASF116
 1400 0826 01       		.byte	0x1
 1401 0827 52       		.byte	0x52
 1402 0828 10000000 		.4byte	.LFB131
 1403 082c 0E000000 		.4byte	.LFE131-.LFB131
 1404 0830 01       		.uleb128 0x1
 1405 0831 9C       		.byte	0x9c
 1406 0832 59080000 		.4byte	0x859
 1407 0836 19       		.uleb128 0x19
 1408 0837 C3000000 		.4byte	.LASF118
 1409 083b 01       		.byte	0x1
 1410 083c 52       		.byte	0x52
 1411 083d 59080000 		.4byte	0x859
 1412 0841 00000000 		.4byte	.LLST0
 1413 0845 1A       		.uleb128 0x1a
 1414 0846 1E000000 		.4byte	.LVL3
 1415 084a 890B0000 		.4byte	0xb89
 1416 084e 1B       		.uleb128 0x1b
ARM GAS  /tmp/ccLmIIGa.s 			page 26


 1417 084f 01       		.uleb128 0x1
 1418 0850 50       		.byte	0x50
 1419 0851 05       		.uleb128 0x5
 1420 0852 F3       		.byte	0xf3
 1421 0853 01       		.uleb128 0x1
 1422 0854 50       		.byte	0x50
 1423 0855 23       		.byte	0x23
 1424 0856 0C       		.uleb128 0xc
 1425 0857 00       		.byte	0
 1426 0858 00       		.byte	0
 1427 0859 09       		.uleb128 0x9
 1428 085a 04       		.byte	0x4
 1429 085b 48070000 		.4byte	0x748
 1430 085f 17       		.uleb128 0x17
 1431 0860 D7020000 		.4byte	.LASF117
 1432 0864 01       		.byte	0x1
 1433 0865 6C       		.byte	0x6c
 1434 0866 20000000 		.4byte	.LFB132
 1435 086a 1C000000 		.4byte	.LFE132-.LFB132
 1436 086e 01       		.uleb128 0x1
 1437 086f 9C       		.byte	0x9c
 1438 0870 D5080000 		.4byte	0x8d5
 1439 0874 19       		.uleb128 0x19
 1440 0875 C3000000 		.4byte	.LASF118
 1441 0879 01       		.byte	0x1
 1442 087a 6C       		.byte	0x6c
 1443 087b 59080000 		.4byte	0x859
 1444 087f 2E000000 		.4byte	.LLST1
 1445 0883 19       		.uleb128 0x19
 1446 0884 16050000 		.4byte	.LASF106
 1447 0888 01       		.byte	0x1
 1448 0889 6C       		.byte	0x6c
 1449 088a F1070000 		.4byte	0x7f1
 1450 088e 4C000000 		.4byte	.LLST2
 1451 0892 1C       		.uleb128 0x1c
 1452 0893 00000000 		.4byte	.Ldebug_ranges0+0
 1453 0897 A9080000 		.4byte	0x8a9
 1454 089b 1D       		.uleb128 0x1d
 1455 089c 746D7000 		.ascii	"tmp\000"
 1456 08a0 01       		.byte	0x1
 1457 08a1 74       		.byte	0x74
 1458 08a2 C3000000 		.4byte	0xc3
 1459 08a6 01       		.uleb128 0x1
 1460 08a7 53       		.byte	0x53
 1461 08a8 00       		.byte	0
 1462 08a9 1E       		.uleb128 0x1e
 1463 08aa 34000000 		.4byte	.LBB4
 1464 08ae 08000000 		.4byte	.LBE4-.LBB4
 1465 08b2 C4080000 		.4byte	0x8c4
 1466 08b6 1D       		.uleb128 0x1d
 1467 08b7 746D7000 		.ascii	"tmp\000"
 1468 08bb 01       		.byte	0x1
 1469 08bc 78       		.byte	0x78
 1470 08bd C3000000 		.4byte	0xc3
 1471 08c1 01       		.uleb128 0x1
 1472 08c2 53       		.byte	0x53
 1473 08c3 00       		.byte	0
ARM GAS  /tmp/ccLmIIGa.s 			page 27


 1474 08c4 1F       		.uleb128 0x1f
 1475 08c5 30000000 		.4byte	.LVL5
 1476 08c9 9A0B0000 		.4byte	0xb9a
 1477 08cd 1B       		.uleb128 0x1b
 1478 08ce 01       		.uleb128 0x1
 1479 08cf 50       		.byte	0x50
 1480 08d0 02       		.uleb128 0x2
 1481 08d1 74       		.byte	0x74
 1482 08d2 00       		.sleb128 0
 1483 08d3 00       		.byte	0
 1484 08d4 00       		.byte	0
 1485 08d5 17       		.uleb128 0x17
 1486 08d6 0B030000 		.4byte	.LASF119
 1487 08da 01       		.byte	0x1
 1488 08db 82       		.byte	0x82
 1489 08dc 40000000 		.4byte	.LFB133
 1490 08e0 1A000000 		.4byte	.LFE133-.LFB133
 1491 08e4 01       		.uleb128 0x1
 1492 08e5 9C       		.byte	0x9c
 1493 08e6 3C090000 		.4byte	0x93c
 1494 08ea 19       		.uleb128 0x19
 1495 08eb C3000000 		.4byte	.LASF118
 1496 08ef 01       		.byte	0x1
 1497 08f0 82       		.byte	0x82
 1498 08f1 59080000 		.4byte	0x859
 1499 08f5 6D000000 		.4byte	.LLST3
 1500 08f9 1C       		.uleb128 0x1c
 1501 08fa 18000000 		.4byte	.Ldebug_ranges0+0x18
 1502 08fe 10090000 		.4byte	0x910
 1503 0902 1D       		.uleb128 0x1d
 1504 0903 746D7000 		.ascii	"tmp\000"
 1505 0907 01       		.byte	0x1
 1506 0908 8A       		.byte	0x8a
 1507 0909 C3000000 		.4byte	0xc3
 1508 090d 01       		.uleb128 0x1
 1509 090e 53       		.byte	0x53
 1510 090f 00       		.byte	0
 1511 0910 1E       		.uleb128 0x1e
 1512 0911 52000000 		.4byte	.LBB7
 1513 0915 08000000 		.4byte	.LBE7-.LBB7
 1514 0919 2B090000 		.4byte	0x92b
 1515 091d 1D       		.uleb128 0x1d
 1516 091e 746D7000 		.ascii	"tmp\000"
 1517 0922 01       		.byte	0x1
 1518 0923 8D       		.byte	0x8d
 1519 0924 C3000000 		.4byte	0xc3
 1520 0928 01       		.uleb128 0x1
 1521 0929 53       		.byte	0x53
 1522 092a 00       		.byte	0
 1523 092b 1F       		.uleb128 0x1f
 1524 092c 4E000000 		.4byte	.LVL7
 1525 0930 AC0B0000 		.4byte	0xbac
 1526 0934 1B       		.uleb128 0x1b
 1527 0935 01       		.uleb128 0x1
 1528 0936 50       		.byte	0x50
 1529 0937 02       		.uleb128 0x2
 1530 0938 74       		.byte	0x74
ARM GAS  /tmp/ccLmIIGa.s 			page 28


 1531 0939 00       		.sleb128 0
 1532 093a 00       		.byte	0
 1533 093b 00       		.byte	0
 1534 093c 20       		.uleb128 0x20
 1535 093d 1E040000 		.4byte	.LASF120
 1536 0941 01       		.byte	0x1
 1537 0942 98       		.byte	0x98
 1538 0943 AF060000 		.4byte	0x6af
 1539 0947 60000000 		.4byte	.LFB134
 1540 094b 04000000 		.4byte	.LFE134-.LFB134
 1541 094f 01       		.uleb128 0x1
 1542 0950 9C       		.byte	0x9c
 1543 0951 65090000 		.4byte	0x965
 1544 0955 19       		.uleb128 0x19
 1545 0956 C3000000 		.4byte	.LASF118
 1546 095a 01       		.byte	0x1
 1547 095b 98       		.byte	0x98
 1548 095c 59080000 		.4byte	0x859
 1549 0960 8B000000 		.4byte	.LLST4
 1550 0964 00       		.byte	0
 1551 0965 20       		.uleb128 0x20
 1552 0966 1E010000 		.4byte	.LASF121
 1553 096a 01       		.byte	0x1
 1554 096b B9       		.byte	0xb9
 1555 096c 01010000 		.4byte	0x101
 1556 0970 70000000 		.4byte	.LFB135
 1557 0974 44000000 		.4byte	.LFE135-.LFB135
 1558 0978 01       		.uleb128 0x1
 1559 0979 9C       		.byte	0x9c
 1560 097a 450A0000 		.4byte	0xa45
 1561 097e 19       		.uleb128 0x19
 1562 097f C3000000 		.4byte	.LASF118
 1563 0983 01       		.byte	0x1
 1564 0984 B9       		.byte	0xb9
 1565 0985 59080000 		.4byte	0x859
 1566 0989 AC000000 		.4byte	.LLST5
 1567 098d 19       		.uleb128 0x19
 1568 098e 61010000 		.4byte	.LASF110
 1569 0992 01       		.byte	0x1
 1570 0993 BA       		.byte	0xba
 1571 0994 A3060000 		.4byte	0x6a3
 1572 0998 CA000000 		.4byte	.LLST6
 1573 099c 19       		.uleb128 0x19
 1574 099d 22020000 		.4byte	.LASF122
 1575 09a1 01       		.byte	0x1
 1576 09a2 BB       		.byte	0xbb
 1577 09a3 73040000 		.4byte	0x473
 1578 09a7 EB000000 		.4byte	.LLST7
 1579 09ab 19       		.uleb128 0x19
 1580 09ac 41070000 		.4byte	.LASF123
 1581 09b0 01       		.byte	0x1
 1582 09b1 BC       		.byte	0xbc
 1583 09b2 2C000000 		.4byte	0x2c
 1584 09b6 0C010000 		.4byte	.LLST8
 1585 09ba 21       		.uleb128 0x21
 1586 09bb 5B010000 		.4byte	.LASF124
 1587 09bf 01       		.byte	0x1
ARM GAS  /tmp/ccLmIIGa.s 			page 29


 1588 09c0 BD       		.byte	0xbd
 1589 09c1 6D040000 		.4byte	0x46d
 1590 09c5 02       		.uleb128 0x2
 1591 09c6 91       		.byte	0x91
 1592 09c7 00       		.sleb128 0
 1593 09c8 21       		.uleb128 0x21
 1594 09c9 03030000 		.4byte	.LASF125
 1595 09cd 01       		.byte	0x1
 1596 09ce BE       		.byte	0xbe
 1597 09cf 2C000000 		.4byte	0x2c
 1598 09d3 02       		.uleb128 0x2
 1599 09d4 91       		.byte	0x91
 1600 09d5 04       		.sleb128 4
 1601 09d6 21       		.uleb128 0x21
 1602 09d7 3A020000 		.4byte	.LASF126
 1603 09db 01       		.byte	0x1
 1604 09dc BF       		.byte	0xbf
 1605 09dd 17010000 		.4byte	0x117
 1606 09e1 02       		.uleb128 0x2
 1607 09e2 91       		.byte	0x91
 1608 09e3 08       		.sleb128 8
 1609 09e4 22       		.uleb128 0x22
 1610 09e5 3B000000 		.4byte	.LASF53
 1611 09e9 01       		.byte	0x1
 1612 09ea C0       		.byte	0xc0
 1613 09eb 01010000 		.4byte	0x101
 1614 09ef 01       		.uleb128 0x1
 1615 09f0 50       		.byte	0x50
 1616 09f1 1E       		.uleb128 0x1e
 1617 09f2 7E000000 		.4byte	.LBB8
 1618 09f6 06000000 		.4byte	.LBE8-.LBB8
 1619 09fa 0C0A0000 		.4byte	0xa0c
 1620 09fe 1D       		.uleb128 0x1d
 1621 09ff 746D7000 		.ascii	"tmp\000"
 1622 0a03 01       		.byte	0x1
 1623 0a04 CB       		.byte	0xcb
 1624 0a05 C3000000 		.4byte	0xc3
 1625 0a09 01       		.uleb128 0x1
 1626 0a0a 53       		.byte	0x53
 1627 0a0b 00       		.byte	0
 1628 0a0c 1E       		.uleb128 0x1e
 1629 0a0d A8000000 		.4byte	.LBB9
 1630 0a11 06000000 		.4byte	.LBE9-.LBB9
 1631 0a15 270A0000 		.4byte	0xa27
 1632 0a19 1D       		.uleb128 0x1d
 1633 0a1a 746D7000 		.ascii	"tmp\000"
 1634 0a1e 01       		.byte	0x1
 1635 0a1f D4       		.byte	0xd4
 1636 0a20 C3000000 		.4byte	0xc3
 1637 0a24 01       		.uleb128 0x1
 1638 0a25 53       		.byte	0x53
 1639 0a26 00       		.byte	0
 1640 0a27 1F       		.uleb128 0x1f
 1641 0a28 9E000000 		.4byte	.LVL12
 1642 0a2c BE0B0000 		.4byte	0xbbe
 1643 0a30 1B       		.uleb128 0x1b
 1644 0a31 01       		.uleb128 0x1
ARM GAS  /tmp/ccLmIIGa.s 			page 30


 1645 0a32 53       		.byte	0x53
 1646 0a33 02       		.uleb128 0x2
 1647 0a34 78       		.byte	0x78
 1648 0a35 00       		.sleb128 0
 1649 0a36 1B       		.uleb128 0x1b
 1650 0a37 01       		.uleb128 0x1
 1651 0a38 52       		.byte	0x52
 1652 0a39 03       		.uleb128 0x3
 1653 0a3a F3       		.byte	0xf3
 1654 0a3b 01       		.uleb128 0x1
 1655 0a3c 52       		.byte	0x52
 1656 0a3d 1B       		.uleb128 0x1b
 1657 0a3e 01       		.uleb128 0x1
 1658 0a3f 50       		.byte	0x50
 1659 0a40 02       		.uleb128 0x2
 1660 0a41 74       		.byte	0x74
 1661 0a42 00       		.sleb128 0
 1662 0a43 00       		.byte	0
 1663 0a44 00       		.byte	0
 1664 0a45 20       		.uleb128 0x20
 1665 0a46 DD050000 		.4byte	.LASF127
 1666 0a4a 01       		.byte	0x1
 1667 0a4b EC       		.byte	0xec
 1668 0a4c 01010000 		.4byte	0x101
 1669 0a50 C0000000 		.4byte	.LFB136
 1670 0a54 34000000 		.4byte	.LFE136-.LFB136
 1671 0a58 01       		.uleb128 0x1
 1672 0a59 9C       		.byte	0x9c
 1673 0a5a 0B0B0000 		.4byte	0xb0b
 1674 0a5e 19       		.uleb128 0x19
 1675 0a5f C3000000 		.4byte	.LASF118
 1676 0a63 01       		.byte	0x1
 1677 0a64 EC       		.byte	0xec
 1678 0a65 59080000 		.4byte	0x859
 1679 0a69 2A010000 		.4byte	.LLST9
 1680 0a6d 19       		.uleb128 0x19
 1681 0a6e 61010000 		.4byte	.LASF110
 1682 0a72 01       		.byte	0x1
 1683 0a73 ED       		.byte	0xed
 1684 0a74 A3060000 		.4byte	0x6a3
 1685 0a78 48010000 		.4byte	.LLST10
 1686 0a7c 19       		.uleb128 0x19
 1687 0a7d 5B010000 		.4byte	.LASF124
 1688 0a81 01       		.byte	0x1
 1689 0a82 EE       		.byte	0xee
 1690 0a83 6D040000 		.4byte	0x46d
 1691 0a87 69010000 		.4byte	.LLST11
 1692 0a8b 19       		.uleb128 0x19
 1693 0a8c 03030000 		.4byte	.LASF125
 1694 0a90 01       		.byte	0x1
 1695 0a91 EF       		.byte	0xef
 1696 0a92 2C000000 		.4byte	0x2c
 1697 0a96 8A010000 		.4byte	.LLST12
 1698 0a9a 21       		.uleb128 0x21
 1699 0a9b 3A020000 		.4byte	.LASF126
 1700 0a9f 01       		.byte	0x1
 1701 0aa0 F0       		.byte	0xf0
ARM GAS  /tmp/ccLmIIGa.s 			page 31


 1702 0aa1 17010000 		.4byte	0x117
 1703 0aa5 02       		.uleb128 0x2
 1704 0aa6 91       		.byte	0x91
 1705 0aa7 00       		.sleb128 0
 1706 0aa8 22       		.uleb128 0x22
 1707 0aa9 3B000000 		.4byte	.LASF53
 1708 0aad 01       		.byte	0x1
 1709 0aae F2       		.byte	0xf2
 1710 0aaf 01010000 		.4byte	0x101
 1711 0ab3 01       		.uleb128 0x1
 1712 0ab4 50       		.byte	0x50
 1713 0ab5 1E       		.uleb128 0x1e
 1714 0ab6 CA000000 		.4byte	.LBB10
 1715 0aba 06000000 		.4byte	.LBE10-.LBB10
 1716 0abe D00A0000 		.4byte	0xad0
 1717 0ac2 1D       		.uleb128 0x1d
 1718 0ac3 746D7000 		.ascii	"tmp\000"
 1719 0ac7 01       		.byte	0x1
 1720 0ac8 FC       		.byte	0xfc
 1721 0ac9 C3000000 		.4byte	0xc3
 1722 0acd 01       		.uleb128 0x1
 1723 0ace 53       		.byte	0x53
 1724 0acf 00       		.byte	0
 1725 0ad0 1E       		.uleb128 0x1e
 1726 0ad1 EA000000 		.4byte	.LBB11
 1727 0ad5 06000000 		.4byte	.LBE11-.LBB11
 1728 0ad9 EC0A0000 		.4byte	0xaec
 1729 0add 23       		.uleb128 0x23
 1730 0ade 746D7000 		.ascii	"tmp\000"
 1731 0ae2 01       		.byte	0x1
 1732 0ae3 0401     		.2byte	0x104
 1733 0ae5 C3000000 		.4byte	0xc3
 1734 0ae9 01       		.uleb128 0x1
 1735 0aea 53       		.byte	0x53
 1736 0aeb 00       		.byte	0
 1737 0aec 1F       		.uleb128 0x1f
 1738 0aed E0000000 		.4byte	.LVL15
 1739 0af1 F20B0000 		.4byte	0xbf2
 1740 0af5 1B       		.uleb128 0x1b
 1741 0af6 01       		.uleb128 0x1
 1742 0af7 53       		.byte	0x53
 1743 0af8 03       		.uleb128 0x3
 1744 0af9 F3       		.byte	0xf3
 1745 0afa 01       		.uleb128 0x1
 1746 0afb 53       		.byte	0x53
 1747 0afc 1B       		.uleb128 0x1b
 1748 0afd 01       		.uleb128 0x1
 1749 0afe 52       		.byte	0x52
 1750 0aff 03       		.uleb128 0x3
 1751 0b00 F3       		.byte	0xf3
 1752 0b01 01       		.uleb128 0x1
 1753 0b02 52       		.byte	0x52
 1754 0b03 1B       		.uleb128 0x1b
 1755 0b04 01       		.uleb128 0x1
 1756 0b05 50       		.byte	0x50
 1757 0b06 02       		.uleb128 0x2
 1758 0b07 74       		.byte	0x74
ARM GAS  /tmp/ccLmIIGa.s 			page 32


 1759 0b08 00       		.sleb128 0
 1760 0b09 00       		.byte	0
 1761 0b0a 00       		.byte	0
 1762 0b0b 24       		.uleb128 0x24
 1763 0b0c BD050000 		.4byte	.LASF128
 1764 0b10 01       		.byte	0x1
 1765 0b11 1401     		.2byte	0x114
 1766 0b13 00010000 		.4byte	.LFB137
 1767 0b17 06000000 		.4byte	.LFE137-.LFB137
 1768 0b1b 01       		.uleb128 0x1
 1769 0b1c 9C       		.byte	0x9c
 1770 0b1d 450B0000 		.4byte	0xb45
 1771 0b21 25       		.uleb128 0x25
 1772 0b22 C3000000 		.4byte	.LASF118
 1773 0b26 01       		.byte	0x1
 1774 0b27 1401     		.2byte	0x114
 1775 0b29 59080000 		.4byte	0x859
 1776 0b2d B6010000 		.4byte	.LLST13
 1777 0b31 1A       		.uleb128 0x1a
 1778 0b32 06010000 		.4byte	.LVL18
 1779 0b36 1C0C0000 		.4byte	0xc1c
 1780 0b3a 1B       		.uleb128 0x1b
 1781 0b3b 01       		.uleb128 0x1
 1782 0b3c 50       		.byte	0x50
 1783 0b3d 05       		.uleb128 0x5
 1784 0b3e F3       		.byte	0xf3
 1785 0b3f 01       		.uleb128 0x1
 1786 0b40 50       		.byte	0x50
 1787 0b41 23       		.byte	0x23
 1788 0b42 0C       		.uleb128 0xc
 1789 0b43 00       		.byte	0
 1790 0b44 00       		.byte	0
 1791 0b45 24       		.uleb128 0x24
 1792 0b46 A8000000 		.4byte	.LASF129
 1793 0b4a 01       		.byte	0x1
 1794 0b4b 2801     		.2byte	0x128
 1795 0b4d 10010000 		.4byte	.LFB138
 1796 0b51 04000000 		.4byte	.LFE138-.LFB138
 1797 0b55 01       		.uleb128 0x1
 1798 0b56 9C       		.byte	0x9c
 1799 0b57 750B0000 		.4byte	0xb75
 1800 0b5b 25       		.uleb128 0x25
 1801 0b5c C3000000 		.4byte	.LASF118
 1802 0b60 01       		.byte	0x1
 1803 0b61 2801     		.2byte	0x128
 1804 0b63 59080000 		.4byte	0x859
 1805 0b67 E4010000 		.4byte	.LLST14
 1806 0b6b 18       		.uleb128 0x18
 1807 0b6c 14010000 		.4byte	.LVL20
 1808 0b70 2D0C0000 		.4byte	0xc2d
 1809 0b74 00       		.byte	0
 1810 0b75 26       		.uleb128 0x26
 1811 0b76 B6000000 		.4byte	.LASF139
 1812 0b7a 0E       		.byte	0xe
 1813 0b7b DF07     		.2byte	0x7df
 1814 0b7d 83040000 		.4byte	0x483
 1815 0b81 27       		.uleb128 0x27
ARM GAS  /tmp/ccLmIIGa.s 			page 33


 1816 0b82 B0050000 		.4byte	.LASF140
 1817 0b86 0D       		.byte	0xd
 1818 0b87 BD01     		.2byte	0x1bd
 1819 0b89 28       		.uleb128 0x28
 1820 0b8a 92050000 		.4byte	.LASF130
 1821 0b8e 09       		.byte	0x9
 1822 0b8f 38       		.byte	0x38
 1823 0b90 9A0B0000 		.4byte	0xb9a
 1824 0b94 29       		.uleb128 0x29
 1825 0b95 67040000 		.4byte	0x467
 1826 0b99 00       		.byte	0
 1827 0b9a 2A       		.uleb128 0x2a
 1828 0b9b C0020000 		.4byte	.LASF131
 1829 0b9f 0D       		.byte	0xd
 1830 0ba0 BE01     		.2byte	0x1be
 1831 0ba2 AC0B0000 		.4byte	0xbac
 1832 0ba6 29       		.uleb128 0x29
 1833 0ba7 59080000 		.4byte	0x859
 1834 0bab 00       		.byte	0
 1835 0bac 2A       		.uleb128 0x2a
 1836 0bad B3020000 		.4byte	.LASF132
 1837 0bb1 0D       		.byte	0xd
 1838 0bb2 BF01     		.2byte	0x1bf
 1839 0bb4 BE0B0000 		.4byte	0xbbe
 1840 0bb8 29       		.uleb128 0x29
 1841 0bb9 59080000 		.4byte	0x859
 1842 0bbd 00       		.byte	0
 1843 0bbe 2B       		.uleb128 0x2b
 1844 0bbf 66010000 		.4byte	.LASF133
 1845 0bc3 0D       		.byte	0xd
 1846 0bc4 C001     		.2byte	0x1c0
 1847 0bc6 01010000 		.4byte	0x101
 1848 0bca F20B0000 		.4byte	0xbf2
 1849 0bce 29       		.uleb128 0x29
 1850 0bcf 59080000 		.4byte	0x859
 1851 0bd3 29       		.uleb128 0x29
 1852 0bd4 A3060000 		.4byte	0x6a3
 1853 0bd8 29       		.uleb128 0x29
 1854 0bd9 73040000 		.4byte	0x473
 1855 0bdd 29       		.uleb128 0x29
 1856 0bde 2C000000 		.4byte	0x2c
 1857 0be2 29       		.uleb128 0x29
 1858 0be3 6D040000 		.4byte	0x46d
 1859 0be7 29       		.uleb128 0x29
 1860 0be8 2C000000 		.4byte	0x2c
 1861 0bec 29       		.uleb128 0x29
 1862 0bed 17010000 		.4byte	0x117
 1863 0bf1 00       		.byte	0
 1864 0bf2 2B       		.uleb128 0x2b
 1865 0bf3 5C000000 		.4byte	.LASF134
 1866 0bf7 0D       		.byte	0xd
 1867 0bf8 C401     		.2byte	0x1c4
 1868 0bfa 01010000 		.4byte	0x101
 1869 0bfe 1C0C0000 		.4byte	0xc1c
 1870 0c02 29       		.uleb128 0x29
 1871 0c03 59080000 		.4byte	0x859
 1872 0c07 29       		.uleb128 0x29
ARM GAS  /tmp/ccLmIIGa.s 			page 34


 1873 0c08 A3060000 		.4byte	0x6a3
 1874 0c0c 29       		.uleb128 0x29
 1875 0c0d 6D040000 		.4byte	0x46d
 1876 0c11 29       		.uleb128 0x29
 1877 0c12 2C000000 		.4byte	0x2c
 1878 0c16 29       		.uleb128 0x29
 1879 0c17 17010000 		.4byte	0x117
 1880 0c1b 00       		.byte	0
 1881 0c1c 28       		.uleb128 0x28
 1882 0c1d F1020000 		.4byte	.LASF135
 1883 0c21 09       		.byte	0x9
 1884 0c22 39       		.byte	0x39
 1885 0c23 2D0C0000 		.4byte	0xc2d
 1886 0c27 29       		.uleb128 0x29
 1887 0c28 67040000 		.4byte	0x467
 1888 0c2c 00       		.byte	0
 1889 0c2d 2C       		.uleb128 0x2c
 1890 0c2e 37010000 		.4byte	.LASF141
 1891 0c32 09       		.byte	0x9
 1892 0c33 3D       		.byte	0x3d
 1893 0c34 67040000 		.4byte	0x467
 1894 0c38 00       		.byte	0
 1895              		.section	.debug_abbrev,"",%progbits
 1896              	.Ldebug_abbrev0:
 1897 0000 01       		.uleb128 0x1
 1898 0001 11       		.uleb128 0x11
 1899 0002 01       		.byte	0x1
 1900 0003 25       		.uleb128 0x25
 1901 0004 0E       		.uleb128 0xe
 1902 0005 13       		.uleb128 0x13
 1903 0006 0B       		.uleb128 0xb
 1904 0007 03       		.uleb128 0x3
 1905 0008 0E       		.uleb128 0xe
 1906 0009 1B       		.uleb128 0x1b
 1907 000a 0E       		.uleb128 0xe
 1908 000b 11       		.uleb128 0x11
 1909 000c 01       		.uleb128 0x1
 1910 000d 12       		.uleb128 0x12
 1911 000e 06       		.uleb128 0x6
 1912 000f 10       		.uleb128 0x10
 1913 0010 17       		.uleb128 0x17
 1914 0011 00       		.byte	0
 1915 0012 00       		.byte	0
 1916 0013 02       		.uleb128 0x2
 1917 0014 24       		.uleb128 0x24
 1918 0015 00       		.byte	0
 1919 0016 0B       		.uleb128 0xb
 1920 0017 0B       		.uleb128 0xb
 1921 0018 3E       		.uleb128 0x3e
 1922 0019 0B       		.uleb128 0xb
 1923 001a 03       		.uleb128 0x3
 1924 001b 08       		.uleb128 0x8
 1925 001c 00       		.byte	0
 1926 001d 00       		.byte	0
 1927 001e 03       		.uleb128 0x3
 1928 001f 16       		.uleb128 0x16
 1929 0020 00       		.byte	0
ARM GAS  /tmp/ccLmIIGa.s 			page 35


 1930 0021 03       		.uleb128 0x3
 1931 0022 0E       		.uleb128 0xe
 1932 0023 3A       		.uleb128 0x3a
 1933 0024 0B       		.uleb128 0xb
 1934 0025 3B       		.uleb128 0x3b
 1935 0026 0B       		.uleb128 0xb
 1936 0027 49       		.uleb128 0x49
 1937 0028 13       		.uleb128 0x13
 1938 0029 00       		.byte	0
 1939 002a 00       		.byte	0
 1940 002b 04       		.uleb128 0x4
 1941 002c 24       		.uleb128 0x24
 1942 002d 00       		.byte	0
 1943 002e 0B       		.uleb128 0xb
 1944 002f 0B       		.uleb128 0xb
 1945 0030 3E       		.uleb128 0x3e
 1946 0031 0B       		.uleb128 0xb
 1947 0032 03       		.uleb128 0x3
 1948 0033 0E       		.uleb128 0xe
 1949 0034 00       		.byte	0
 1950 0035 00       		.byte	0
 1951 0036 05       		.uleb128 0x5
 1952 0037 13       		.uleb128 0x13
 1953 0038 01       		.byte	0x1
 1954 0039 03       		.uleb128 0x3
 1955 003a 0E       		.uleb128 0xe
 1956 003b 0B       		.uleb128 0xb
 1957 003c 0B       		.uleb128 0xb
 1958 003d 3A       		.uleb128 0x3a
 1959 003e 0B       		.uleb128 0xb
 1960 003f 3B       		.uleb128 0x3b
 1961 0040 0B       		.uleb128 0xb
 1962 0041 01       		.uleb128 0x1
 1963 0042 13       		.uleb128 0x13
 1964 0043 00       		.byte	0
 1965 0044 00       		.byte	0
 1966 0045 06       		.uleb128 0x6
 1967 0046 0D       		.uleb128 0xd
 1968 0047 00       		.byte	0
 1969 0048 03       		.uleb128 0x3
 1970 0049 0E       		.uleb128 0xe
 1971 004a 3A       		.uleb128 0x3a
 1972 004b 0B       		.uleb128 0xb
 1973 004c 3B       		.uleb128 0x3b
 1974 004d 0B       		.uleb128 0xb
 1975 004e 49       		.uleb128 0x49
 1976 004f 13       		.uleb128 0x13
 1977 0050 38       		.uleb128 0x38
 1978 0051 0B       		.uleb128 0xb
 1979 0052 00       		.byte	0
 1980 0053 00       		.byte	0
 1981 0054 07       		.uleb128 0x7
 1982 0055 0D       		.uleb128 0xd
 1983 0056 00       		.byte	0
 1984 0057 03       		.uleb128 0x3
 1985 0058 08       		.uleb128 0x8
 1986 0059 3A       		.uleb128 0x3a
ARM GAS  /tmp/ccLmIIGa.s 			page 36


 1987 005a 0B       		.uleb128 0xb
 1988 005b 3B       		.uleb128 0x3b
 1989 005c 0B       		.uleb128 0xb
 1990 005d 49       		.uleb128 0x49
 1991 005e 13       		.uleb128 0x13
 1992 005f 38       		.uleb128 0x38
 1993 0060 0B       		.uleb128 0xb
 1994 0061 00       		.byte	0
 1995 0062 00       		.byte	0
 1996 0063 08       		.uleb128 0x8
 1997 0064 13       		.uleb128 0x13
 1998 0065 01       		.byte	0x1
 1999 0066 0B       		.uleb128 0xb
 2000 0067 0B       		.uleb128 0xb
 2001 0068 3A       		.uleb128 0x3a
 2002 0069 0B       		.uleb128 0xb
 2003 006a 3B       		.uleb128 0x3b
 2004 006b 0B       		.uleb128 0xb
 2005 006c 01       		.uleb128 0x1
 2006 006d 13       		.uleb128 0x13
 2007 006e 00       		.byte	0
 2008 006f 00       		.byte	0
 2009 0070 09       		.uleb128 0x9
 2010 0071 0F       		.uleb128 0xf
 2011 0072 00       		.byte	0
 2012 0073 0B       		.uleb128 0xb
 2013 0074 0B       		.uleb128 0xb
 2014 0075 49       		.uleb128 0x49
 2015 0076 13       		.uleb128 0x13
 2016 0077 00       		.byte	0
 2017 0078 00       		.byte	0
 2018 0079 0A       		.uleb128 0xa
 2019 007a 0F       		.uleb128 0xf
 2020 007b 00       		.byte	0
 2021 007c 0B       		.uleb128 0xb
 2022 007d 0B       		.uleb128 0xb
 2023 007e 00       		.byte	0
 2024 007f 00       		.byte	0
 2025 0080 0B       		.uleb128 0xb
 2026 0081 13       		.uleb128 0x13
 2027 0082 01       		.byte	0x1
 2028 0083 03       		.uleb128 0x3
 2029 0084 0E       		.uleb128 0xe
 2030 0085 0B       		.uleb128 0xb
 2031 0086 0B       		.uleb128 0xb
 2032 0087 3A       		.uleb128 0x3a
 2033 0088 0B       		.uleb128 0xb
 2034 0089 3B       		.uleb128 0x3b
 2035 008a 05       		.uleb128 0x5
 2036 008b 01       		.uleb128 0x1
 2037 008c 13       		.uleb128 0x13
 2038 008d 00       		.byte	0
 2039 008e 00       		.byte	0
 2040 008f 0C       		.uleb128 0xc
 2041 0090 0D       		.uleb128 0xd
 2042 0091 00       		.byte	0
 2043 0092 03       		.uleb128 0x3
ARM GAS  /tmp/ccLmIIGa.s 			page 37


 2044 0093 08       		.uleb128 0x8
 2045 0094 3A       		.uleb128 0x3a
 2046 0095 0B       		.uleb128 0xb
 2047 0096 3B       		.uleb128 0x3b
 2048 0097 05       		.uleb128 0x5
 2049 0098 49       		.uleb128 0x49
 2050 0099 13       		.uleb128 0x13
 2051 009a 38       		.uleb128 0x38
 2052 009b 0B       		.uleb128 0xb
 2053 009c 00       		.byte	0
 2054 009d 00       		.byte	0
 2055 009e 0D       		.uleb128 0xd
 2056 009f 35       		.uleb128 0x35
 2057 00a0 00       		.byte	0
 2058 00a1 49       		.uleb128 0x49
 2059 00a2 13       		.uleb128 0x13
 2060 00a3 00       		.byte	0
 2061 00a4 00       		.byte	0
 2062 00a5 0E       		.uleb128 0xe
 2063 00a6 17       		.uleb128 0x17
 2064 00a7 01       		.byte	0x1
 2065 00a8 0B       		.uleb128 0xb
 2066 00a9 0B       		.uleb128 0xb
 2067 00aa 3A       		.uleb128 0x3a
 2068 00ab 0B       		.uleb128 0xb
 2069 00ac 3B       		.uleb128 0x3b
 2070 00ad 0B       		.uleb128 0xb
 2071 00ae 01       		.uleb128 0x1
 2072 00af 13       		.uleb128 0x13
 2073 00b0 00       		.byte	0
 2074 00b1 00       		.byte	0
 2075 00b2 0F       		.uleb128 0xf
 2076 00b3 0D       		.uleb128 0xd
 2077 00b4 00       		.byte	0
 2078 00b5 03       		.uleb128 0x3
 2079 00b6 0E       		.uleb128 0xe
 2080 00b7 3A       		.uleb128 0x3a
 2081 00b8 0B       		.uleb128 0xb
 2082 00b9 3B       		.uleb128 0x3b
 2083 00ba 0B       		.uleb128 0xb
 2084 00bb 49       		.uleb128 0x49
 2085 00bc 13       		.uleb128 0x13
 2086 00bd 00       		.byte	0
 2087 00be 00       		.byte	0
 2088 00bf 10       		.uleb128 0x10
 2089 00c0 26       		.uleb128 0x26
 2090 00c1 00       		.byte	0
 2091 00c2 49       		.uleb128 0x49
 2092 00c3 13       		.uleb128 0x13
 2093 00c4 00       		.byte	0
 2094 00c5 00       		.byte	0
 2095 00c6 11       		.uleb128 0x11
 2096 00c7 13       		.uleb128 0x13
 2097 00c8 01       		.byte	0x1
 2098 00c9 0B       		.uleb128 0xb
 2099 00ca 0B       		.uleb128 0xb
 2100 00cb 3A       		.uleb128 0x3a
ARM GAS  /tmp/ccLmIIGa.s 			page 38


 2101 00cc 0B       		.uleb128 0xb
 2102 00cd 3B       		.uleb128 0x3b
 2103 00ce 05       		.uleb128 0x5
 2104 00cf 01       		.uleb128 0x1
 2105 00d0 13       		.uleb128 0x13
 2106 00d1 00       		.byte	0
 2107 00d2 00       		.byte	0
 2108 00d3 12       		.uleb128 0x12
 2109 00d4 0D       		.uleb128 0xd
 2110 00d5 00       		.byte	0
 2111 00d6 03       		.uleb128 0x3
 2112 00d7 0E       		.uleb128 0xe
 2113 00d8 3A       		.uleb128 0x3a
 2114 00d9 0B       		.uleb128 0xb
 2115 00da 3B       		.uleb128 0x3b
 2116 00db 05       		.uleb128 0x5
 2117 00dc 49       		.uleb128 0x49
 2118 00dd 13       		.uleb128 0x13
 2119 00de 38       		.uleb128 0x38
 2120 00df 0B       		.uleb128 0xb
 2121 00e0 00       		.byte	0
 2122 00e1 00       		.byte	0
 2123 00e2 13       		.uleb128 0x13
 2124 00e3 16       		.uleb128 0x16
 2125 00e4 00       		.byte	0
 2126 00e5 03       		.uleb128 0x3
 2127 00e6 0E       		.uleb128 0xe
 2128 00e7 3A       		.uleb128 0x3a
 2129 00e8 0B       		.uleb128 0xb
 2130 00e9 3B       		.uleb128 0x3b
 2131 00ea 05       		.uleb128 0x5
 2132 00eb 49       		.uleb128 0x49
 2133 00ec 13       		.uleb128 0x13
 2134 00ed 00       		.byte	0
 2135 00ee 00       		.byte	0
 2136 00ef 14       		.uleb128 0x14
 2137 00f0 04       		.uleb128 0x4
 2138 00f1 01       		.byte	0x1
 2139 00f2 0B       		.uleb128 0xb
 2140 00f3 0B       		.uleb128 0xb
 2141 00f4 3A       		.uleb128 0x3a
 2142 00f5 0B       		.uleb128 0xb
 2143 00f6 3B       		.uleb128 0x3b
 2144 00f7 0B       		.uleb128 0xb
 2145 00f8 01       		.uleb128 0x1
 2146 00f9 13       		.uleb128 0x13
 2147 00fa 00       		.byte	0
 2148 00fb 00       		.byte	0
 2149 00fc 15       		.uleb128 0x15
 2150 00fd 28       		.uleb128 0x28
 2151 00fe 00       		.byte	0
 2152 00ff 03       		.uleb128 0x3
 2153 0100 0E       		.uleb128 0xe
 2154 0101 1C       		.uleb128 0x1c
 2155 0102 0D       		.uleb128 0xd
 2156 0103 00       		.byte	0
 2157 0104 00       		.byte	0
ARM GAS  /tmp/ccLmIIGa.s 			page 39


 2158 0105 16       		.uleb128 0x16
 2159 0106 04       		.uleb128 0x4
 2160 0107 01       		.byte	0x1
 2161 0108 0B       		.uleb128 0xb
 2162 0109 0B       		.uleb128 0xb
 2163 010a 3A       		.uleb128 0x3a
 2164 010b 0B       		.uleb128 0xb
 2165 010c 3B       		.uleb128 0x3b
 2166 010d 05       		.uleb128 0x5
 2167 010e 01       		.uleb128 0x1
 2168 010f 13       		.uleb128 0x13
 2169 0110 00       		.byte	0
 2170 0111 00       		.byte	0
 2171 0112 17       		.uleb128 0x17
 2172 0113 2E       		.uleb128 0x2e
 2173 0114 01       		.byte	0x1
 2174 0115 3F       		.uleb128 0x3f
 2175 0116 19       		.uleb128 0x19
 2176 0117 03       		.uleb128 0x3
 2177 0118 0E       		.uleb128 0xe
 2178 0119 3A       		.uleb128 0x3a
 2179 011a 0B       		.uleb128 0xb
 2180 011b 3B       		.uleb128 0x3b
 2181 011c 0B       		.uleb128 0xb
 2182 011d 27       		.uleb128 0x27
 2183 011e 19       		.uleb128 0x19
 2184 011f 11       		.uleb128 0x11
 2185 0120 01       		.uleb128 0x1
 2186 0121 12       		.uleb128 0x12
 2187 0122 06       		.uleb128 0x6
 2188 0123 40       		.uleb128 0x40
 2189 0124 18       		.uleb128 0x18
 2190 0125 9742     		.uleb128 0x2117
 2191 0127 19       		.uleb128 0x19
 2192 0128 01       		.uleb128 0x1
 2193 0129 13       		.uleb128 0x13
 2194 012a 00       		.byte	0
 2195 012b 00       		.byte	0
 2196 012c 18       		.uleb128 0x18
 2197 012d 898201   		.uleb128 0x4109
 2198 0130 00       		.byte	0
 2199 0131 11       		.uleb128 0x11
 2200 0132 01       		.uleb128 0x1
 2201 0133 9542     		.uleb128 0x2115
 2202 0135 19       		.uleb128 0x19
 2203 0136 31       		.uleb128 0x31
 2204 0137 13       		.uleb128 0x13
 2205 0138 00       		.byte	0
 2206 0139 00       		.byte	0
 2207 013a 19       		.uleb128 0x19
 2208 013b 05       		.uleb128 0x5
 2209 013c 00       		.byte	0
 2210 013d 03       		.uleb128 0x3
 2211 013e 0E       		.uleb128 0xe
 2212 013f 3A       		.uleb128 0x3a
 2213 0140 0B       		.uleb128 0xb
 2214 0141 3B       		.uleb128 0x3b
ARM GAS  /tmp/ccLmIIGa.s 			page 40


 2215 0142 0B       		.uleb128 0xb
 2216 0143 49       		.uleb128 0x49
 2217 0144 13       		.uleb128 0x13
 2218 0145 02       		.uleb128 0x2
 2219 0146 17       		.uleb128 0x17
 2220 0147 00       		.byte	0
 2221 0148 00       		.byte	0
 2222 0149 1A       		.uleb128 0x1a
 2223 014a 898201   		.uleb128 0x4109
 2224 014d 01       		.byte	0x1
 2225 014e 11       		.uleb128 0x11
 2226 014f 01       		.uleb128 0x1
 2227 0150 9542     		.uleb128 0x2115
 2228 0152 19       		.uleb128 0x19
 2229 0153 31       		.uleb128 0x31
 2230 0154 13       		.uleb128 0x13
 2231 0155 00       		.byte	0
 2232 0156 00       		.byte	0
 2233 0157 1B       		.uleb128 0x1b
 2234 0158 8A8201   		.uleb128 0x410a
 2235 015b 00       		.byte	0
 2236 015c 02       		.uleb128 0x2
 2237 015d 18       		.uleb128 0x18
 2238 015e 9142     		.uleb128 0x2111
 2239 0160 18       		.uleb128 0x18
 2240 0161 00       		.byte	0
 2241 0162 00       		.byte	0
 2242 0163 1C       		.uleb128 0x1c
 2243 0164 0B       		.uleb128 0xb
 2244 0165 01       		.byte	0x1
 2245 0166 55       		.uleb128 0x55
 2246 0167 17       		.uleb128 0x17
 2247 0168 01       		.uleb128 0x1
 2248 0169 13       		.uleb128 0x13
 2249 016a 00       		.byte	0
 2250 016b 00       		.byte	0
 2251 016c 1D       		.uleb128 0x1d
 2252 016d 34       		.uleb128 0x34
 2253 016e 00       		.byte	0
 2254 016f 03       		.uleb128 0x3
 2255 0170 08       		.uleb128 0x8
 2256 0171 3A       		.uleb128 0x3a
 2257 0172 0B       		.uleb128 0xb
 2258 0173 3B       		.uleb128 0x3b
 2259 0174 0B       		.uleb128 0xb
 2260 0175 49       		.uleb128 0x49
 2261 0176 13       		.uleb128 0x13
 2262 0177 02       		.uleb128 0x2
 2263 0178 18       		.uleb128 0x18
 2264 0179 00       		.byte	0
 2265 017a 00       		.byte	0
 2266 017b 1E       		.uleb128 0x1e
 2267 017c 0B       		.uleb128 0xb
 2268 017d 01       		.byte	0x1
 2269 017e 11       		.uleb128 0x11
 2270 017f 01       		.uleb128 0x1
 2271 0180 12       		.uleb128 0x12
ARM GAS  /tmp/ccLmIIGa.s 			page 41


 2272 0181 06       		.uleb128 0x6
 2273 0182 01       		.uleb128 0x1
 2274 0183 13       		.uleb128 0x13
 2275 0184 00       		.byte	0
 2276 0185 00       		.byte	0
 2277 0186 1F       		.uleb128 0x1f
 2278 0187 898201   		.uleb128 0x4109
 2279 018a 01       		.byte	0x1
 2280 018b 11       		.uleb128 0x11
 2281 018c 01       		.uleb128 0x1
 2282 018d 31       		.uleb128 0x31
 2283 018e 13       		.uleb128 0x13
 2284 018f 00       		.byte	0
 2285 0190 00       		.byte	0
 2286 0191 20       		.uleb128 0x20
 2287 0192 2E       		.uleb128 0x2e
 2288 0193 01       		.byte	0x1
 2289 0194 3F       		.uleb128 0x3f
 2290 0195 19       		.uleb128 0x19
 2291 0196 03       		.uleb128 0x3
 2292 0197 0E       		.uleb128 0xe
 2293 0198 3A       		.uleb128 0x3a
 2294 0199 0B       		.uleb128 0xb
 2295 019a 3B       		.uleb128 0x3b
 2296 019b 0B       		.uleb128 0xb
 2297 019c 27       		.uleb128 0x27
 2298 019d 19       		.uleb128 0x19
 2299 019e 49       		.uleb128 0x49
 2300 019f 13       		.uleb128 0x13
 2301 01a0 11       		.uleb128 0x11
 2302 01a1 01       		.uleb128 0x1
 2303 01a2 12       		.uleb128 0x12
 2304 01a3 06       		.uleb128 0x6
 2305 01a4 40       		.uleb128 0x40
 2306 01a5 18       		.uleb128 0x18
 2307 01a6 9742     		.uleb128 0x2117
 2308 01a8 19       		.uleb128 0x19
 2309 01a9 01       		.uleb128 0x1
 2310 01aa 13       		.uleb128 0x13
 2311 01ab 00       		.byte	0
 2312 01ac 00       		.byte	0
 2313 01ad 21       		.uleb128 0x21
 2314 01ae 05       		.uleb128 0x5
 2315 01af 00       		.byte	0
 2316 01b0 03       		.uleb128 0x3
 2317 01b1 0E       		.uleb128 0xe
 2318 01b2 3A       		.uleb128 0x3a
 2319 01b3 0B       		.uleb128 0xb
 2320 01b4 3B       		.uleb128 0x3b
 2321 01b5 0B       		.uleb128 0xb
 2322 01b6 49       		.uleb128 0x49
 2323 01b7 13       		.uleb128 0x13
 2324 01b8 02       		.uleb128 0x2
 2325 01b9 18       		.uleb128 0x18
 2326 01ba 00       		.byte	0
 2327 01bb 00       		.byte	0
 2328 01bc 22       		.uleb128 0x22
ARM GAS  /tmp/ccLmIIGa.s 			page 42


 2329 01bd 34       		.uleb128 0x34
 2330 01be 00       		.byte	0
 2331 01bf 03       		.uleb128 0x3
 2332 01c0 0E       		.uleb128 0xe
 2333 01c1 3A       		.uleb128 0x3a
 2334 01c2 0B       		.uleb128 0xb
 2335 01c3 3B       		.uleb128 0x3b
 2336 01c4 0B       		.uleb128 0xb
 2337 01c5 49       		.uleb128 0x49
 2338 01c6 13       		.uleb128 0x13
 2339 01c7 02       		.uleb128 0x2
 2340 01c8 18       		.uleb128 0x18
 2341 01c9 00       		.byte	0
 2342 01ca 00       		.byte	0
 2343 01cb 23       		.uleb128 0x23
 2344 01cc 34       		.uleb128 0x34
 2345 01cd 00       		.byte	0
 2346 01ce 03       		.uleb128 0x3
 2347 01cf 08       		.uleb128 0x8
 2348 01d0 3A       		.uleb128 0x3a
 2349 01d1 0B       		.uleb128 0xb
 2350 01d2 3B       		.uleb128 0x3b
 2351 01d3 05       		.uleb128 0x5
 2352 01d4 49       		.uleb128 0x49
 2353 01d5 13       		.uleb128 0x13
 2354 01d6 02       		.uleb128 0x2
 2355 01d7 18       		.uleb128 0x18
 2356 01d8 00       		.byte	0
 2357 01d9 00       		.byte	0
 2358 01da 24       		.uleb128 0x24
 2359 01db 2E       		.uleb128 0x2e
 2360 01dc 01       		.byte	0x1
 2361 01dd 3F       		.uleb128 0x3f
 2362 01de 19       		.uleb128 0x19
 2363 01df 03       		.uleb128 0x3
 2364 01e0 0E       		.uleb128 0xe
 2365 01e1 3A       		.uleb128 0x3a
 2366 01e2 0B       		.uleb128 0xb
 2367 01e3 3B       		.uleb128 0x3b
 2368 01e4 05       		.uleb128 0x5
 2369 01e5 27       		.uleb128 0x27
 2370 01e6 19       		.uleb128 0x19
 2371 01e7 11       		.uleb128 0x11
 2372 01e8 01       		.uleb128 0x1
 2373 01e9 12       		.uleb128 0x12
 2374 01ea 06       		.uleb128 0x6
 2375 01eb 40       		.uleb128 0x40
 2376 01ec 18       		.uleb128 0x18
 2377 01ed 9742     		.uleb128 0x2117
 2378 01ef 19       		.uleb128 0x19
 2379 01f0 01       		.uleb128 0x1
 2380 01f1 13       		.uleb128 0x13
 2381 01f2 00       		.byte	0
 2382 01f3 00       		.byte	0
 2383 01f4 25       		.uleb128 0x25
 2384 01f5 05       		.uleb128 0x5
 2385 01f6 00       		.byte	0
ARM GAS  /tmp/ccLmIIGa.s 			page 43


 2386 01f7 03       		.uleb128 0x3
 2387 01f8 0E       		.uleb128 0xe
 2388 01f9 3A       		.uleb128 0x3a
 2389 01fa 0B       		.uleb128 0xb
 2390 01fb 3B       		.uleb128 0x3b
 2391 01fc 05       		.uleb128 0x5
 2392 01fd 49       		.uleb128 0x49
 2393 01fe 13       		.uleb128 0x13
 2394 01ff 02       		.uleb128 0x2
 2395 0200 17       		.uleb128 0x17
 2396 0201 00       		.byte	0
 2397 0202 00       		.byte	0
 2398 0203 26       		.uleb128 0x26
 2399 0204 34       		.uleb128 0x34
 2400 0205 00       		.byte	0
 2401 0206 03       		.uleb128 0x3
 2402 0207 0E       		.uleb128 0xe
 2403 0208 3A       		.uleb128 0x3a
 2404 0209 0B       		.uleb128 0xb
 2405 020a 3B       		.uleb128 0x3b
 2406 020b 05       		.uleb128 0x5
 2407 020c 49       		.uleb128 0x49
 2408 020d 13       		.uleb128 0x13
 2409 020e 3F       		.uleb128 0x3f
 2410 020f 19       		.uleb128 0x19
 2411 0210 3C       		.uleb128 0x3c
 2412 0211 19       		.uleb128 0x19
 2413 0212 00       		.byte	0
 2414 0213 00       		.byte	0
 2415 0214 27       		.uleb128 0x27
 2416 0215 2E       		.uleb128 0x2e
 2417 0216 00       		.byte	0
 2418 0217 3F       		.uleb128 0x3f
 2419 0218 19       		.uleb128 0x19
 2420 0219 03       		.uleb128 0x3
 2421 021a 0E       		.uleb128 0xe
 2422 021b 3A       		.uleb128 0x3a
 2423 021c 0B       		.uleb128 0xb
 2424 021d 3B       		.uleb128 0x3b
 2425 021e 05       		.uleb128 0x5
 2426 021f 27       		.uleb128 0x27
 2427 0220 19       		.uleb128 0x19
 2428 0221 3C       		.uleb128 0x3c
 2429 0222 19       		.uleb128 0x19
 2430 0223 00       		.byte	0
 2431 0224 00       		.byte	0
 2432 0225 28       		.uleb128 0x28
 2433 0226 2E       		.uleb128 0x2e
 2434 0227 01       		.byte	0x1
 2435 0228 3F       		.uleb128 0x3f
 2436 0229 19       		.uleb128 0x19
 2437 022a 03       		.uleb128 0x3
 2438 022b 0E       		.uleb128 0xe
 2439 022c 3A       		.uleb128 0x3a
 2440 022d 0B       		.uleb128 0xb
 2441 022e 3B       		.uleb128 0x3b
 2442 022f 0B       		.uleb128 0xb
ARM GAS  /tmp/ccLmIIGa.s 			page 44


 2443 0230 27       		.uleb128 0x27
 2444 0231 19       		.uleb128 0x19
 2445 0232 3C       		.uleb128 0x3c
 2446 0233 19       		.uleb128 0x19
 2447 0234 01       		.uleb128 0x1
 2448 0235 13       		.uleb128 0x13
 2449 0236 00       		.byte	0
 2450 0237 00       		.byte	0
 2451 0238 29       		.uleb128 0x29
 2452 0239 05       		.uleb128 0x5
 2453 023a 00       		.byte	0
 2454 023b 49       		.uleb128 0x49
 2455 023c 13       		.uleb128 0x13
 2456 023d 00       		.byte	0
 2457 023e 00       		.byte	0
 2458 023f 2A       		.uleb128 0x2a
 2459 0240 2E       		.uleb128 0x2e
 2460 0241 01       		.byte	0x1
 2461 0242 3F       		.uleb128 0x3f
 2462 0243 19       		.uleb128 0x19
 2463 0244 03       		.uleb128 0x3
 2464 0245 0E       		.uleb128 0xe
 2465 0246 3A       		.uleb128 0x3a
 2466 0247 0B       		.uleb128 0xb
 2467 0248 3B       		.uleb128 0x3b
 2468 0249 05       		.uleb128 0x5
 2469 024a 27       		.uleb128 0x27
 2470 024b 19       		.uleb128 0x19
 2471 024c 3C       		.uleb128 0x3c
 2472 024d 19       		.uleb128 0x19
 2473 024e 01       		.uleb128 0x1
 2474 024f 13       		.uleb128 0x13
 2475 0250 00       		.byte	0
 2476 0251 00       		.byte	0
 2477 0252 2B       		.uleb128 0x2b
 2478 0253 2E       		.uleb128 0x2e
 2479 0254 01       		.byte	0x1
 2480 0255 3F       		.uleb128 0x3f
 2481 0256 19       		.uleb128 0x19
 2482 0257 03       		.uleb128 0x3
 2483 0258 0E       		.uleb128 0xe
 2484 0259 3A       		.uleb128 0x3a
 2485 025a 0B       		.uleb128 0xb
 2486 025b 3B       		.uleb128 0x3b
 2487 025c 05       		.uleb128 0x5
 2488 025d 27       		.uleb128 0x27
 2489 025e 19       		.uleb128 0x19
 2490 025f 49       		.uleb128 0x49
 2491 0260 13       		.uleb128 0x13
 2492 0261 3C       		.uleb128 0x3c
 2493 0262 19       		.uleb128 0x19
 2494 0263 01       		.uleb128 0x1
 2495 0264 13       		.uleb128 0x13
 2496 0265 00       		.byte	0
 2497 0266 00       		.byte	0
 2498 0267 2C       		.uleb128 0x2c
 2499 0268 2E       		.uleb128 0x2e
ARM GAS  /tmp/ccLmIIGa.s 			page 45


 2500 0269 00       		.byte	0
 2501 026a 3F       		.uleb128 0x3f
 2502 026b 19       		.uleb128 0x19
 2503 026c 03       		.uleb128 0x3
 2504 026d 0E       		.uleb128 0xe
 2505 026e 3A       		.uleb128 0x3a
 2506 026f 0B       		.uleb128 0xb
 2507 0270 3B       		.uleb128 0x3b
 2508 0271 0B       		.uleb128 0xb
 2509 0272 27       		.uleb128 0x27
 2510 0273 19       		.uleb128 0x19
 2511 0274 49       		.uleb128 0x49
 2512 0275 13       		.uleb128 0x13
 2513 0276 3C       		.uleb128 0x3c
 2514 0277 19       		.uleb128 0x19
 2515 0278 00       		.byte	0
 2516 0279 00       		.byte	0
 2517 027a 00       		.byte	0
 2518              		.section	.debug_loc,"",%progbits
 2519              	.Ldebug_loc0:
 2520              	.LLST0:
 2521 0000 10000000 		.4byte	.LVL1-.Ltext0
 2522 0004 1A000000 		.4byte	.LVL2-.Ltext0
 2523 0008 0100     		.2byte	0x1
 2524 000a 50       		.byte	0x50
 2525 000b 1A000000 		.4byte	.LVL2-.Ltext0
 2526 000f 1D000000 		.4byte	.LVL3-1-.Ltext0
 2527 0013 0300     		.2byte	0x3
 2528 0015 70       		.byte	0x70
 2529 0016 74       		.sleb128 -12
 2530 0017 9F       		.byte	0x9f
 2531 0018 1D000000 		.4byte	.LVL3-1-.Ltext0
 2532 001c 1E000000 		.4byte	.LFE131-.Ltext0
 2533 0020 0400     		.2byte	0x4
 2534 0022 F3       		.byte	0xf3
 2535 0023 01       		.uleb128 0x1
 2536 0024 50       		.byte	0x50
 2537 0025 9F       		.byte	0x9f
 2538 0026 00000000 		.4byte	0
 2539 002a 00000000 		.4byte	0
 2540              	.LLST1:
 2541 002e 20000000 		.4byte	.LVL4-.Ltext0
 2542 0032 2F000000 		.4byte	.LVL5-1-.Ltext0
 2543 0036 0100     		.2byte	0x1
 2544 0038 50       		.byte	0x50
 2545 0039 2F000000 		.4byte	.LVL5-1-.Ltext0
 2546 003d 3C000000 		.4byte	.LFE132-.Ltext0
 2547 0041 0100     		.2byte	0x1
 2548 0043 54       		.byte	0x54
 2549 0044 00000000 		.4byte	0
 2550 0048 00000000 		.4byte	0
 2551              	.LLST2:
 2552 004c 20000000 		.4byte	.LVL4-.Ltext0
 2553 0050 2F000000 		.4byte	.LVL5-1-.Ltext0
 2554 0054 0100     		.2byte	0x1
 2555 0056 51       		.byte	0x51
 2556 0057 2F000000 		.4byte	.LVL5-1-.Ltext0
ARM GAS  /tmp/ccLmIIGa.s 			page 46


 2557 005b 3C000000 		.4byte	.LFE132-.Ltext0
 2558 005f 0400     		.2byte	0x4
 2559 0061 F3       		.byte	0xf3
 2560 0062 01       		.uleb128 0x1
 2561 0063 51       		.byte	0x51
 2562 0064 9F       		.byte	0x9f
 2563 0065 00000000 		.4byte	0
 2564 0069 00000000 		.4byte	0
 2565              	.LLST3:
 2566 006d 40000000 		.4byte	.LVL6-.Ltext0
 2567 0071 4D000000 		.4byte	.LVL7-1-.Ltext0
 2568 0075 0100     		.2byte	0x1
 2569 0077 50       		.byte	0x50
 2570 0078 4D000000 		.4byte	.LVL7-1-.Ltext0
 2571 007c 5A000000 		.4byte	.LFE133-.Ltext0
 2572 0080 0100     		.2byte	0x1
 2573 0082 54       		.byte	0x54
 2574 0083 00000000 		.4byte	0
 2575 0087 00000000 		.4byte	0
 2576              	.LLST4:
 2577 008b 60000000 		.4byte	.LVL8-.Ltext0
 2578 008f 62000000 		.4byte	.LVL9-.Ltext0
 2579 0093 0100     		.2byte	0x1
 2580 0095 50       		.byte	0x50
 2581 0096 62000000 		.4byte	.LVL9-.Ltext0
 2582 009a 64000000 		.4byte	.LFE134-.Ltext0
 2583 009e 0400     		.2byte	0x4
 2584 00a0 F3       		.byte	0xf3
 2585 00a1 01       		.uleb128 0x1
 2586 00a2 50       		.byte	0x50
 2587 00a3 9F       		.byte	0x9f
 2588 00a4 00000000 		.4byte	0
 2589 00a8 00000000 		.4byte	0
 2590              	.LLST5:
 2591 00ac 70000000 		.4byte	.LVL10-.Ltext0
 2592 00b0 9D000000 		.4byte	.LVL12-1-.Ltext0
 2593 00b4 0100     		.2byte	0x1
 2594 00b6 50       		.byte	0x50
 2595 00b7 9D000000 		.4byte	.LVL12-1-.Ltext0
 2596 00bb B4000000 		.4byte	.LFE135-.Ltext0
 2597 00bf 0100     		.2byte	0x1
 2598 00c1 54       		.byte	0x54
 2599 00c2 00000000 		.4byte	0
 2600 00c6 00000000 		.4byte	0
 2601              	.LLST6:
 2602 00ca 70000000 		.4byte	.LVL10-.Ltext0
 2603 00ce 9D000000 		.4byte	.LVL12-1-.Ltext0
 2604 00d2 0100     		.2byte	0x1
 2605 00d4 51       		.byte	0x51
 2606 00d5 9D000000 		.4byte	.LVL12-1-.Ltext0
 2607 00d9 B4000000 		.4byte	.LFE135-.Ltext0
 2608 00dd 0400     		.2byte	0x4
 2609 00df F3       		.byte	0xf3
 2610 00e0 01       		.uleb128 0x1
 2611 00e1 51       		.byte	0x51
 2612 00e2 9F       		.byte	0x9f
 2613 00e3 00000000 		.4byte	0
ARM GAS  /tmp/ccLmIIGa.s 			page 47


 2614 00e7 00000000 		.4byte	0
 2615              	.LLST7:
 2616 00eb 70000000 		.4byte	.LVL10-.Ltext0
 2617 00ef 9D000000 		.4byte	.LVL12-1-.Ltext0
 2618 00f3 0100     		.2byte	0x1
 2619 00f5 52       		.byte	0x52
 2620 00f6 9D000000 		.4byte	.LVL12-1-.Ltext0
 2621 00fa B4000000 		.4byte	.LFE135-.Ltext0
 2622 00fe 0400     		.2byte	0x4
 2623 0100 F3       		.byte	0xf3
 2624 0101 01       		.uleb128 0x1
 2625 0102 52       		.byte	0x52
 2626 0103 9F       		.byte	0x9f
 2627 0104 00000000 		.4byte	0
 2628 0108 00000000 		.4byte	0
 2629              	.LLST8:
 2630 010c 70000000 		.4byte	.LVL10-.Ltext0
 2631 0110 80000000 		.4byte	.LVL11-.Ltext0
 2632 0114 0100     		.2byte	0x1
 2633 0116 53       		.byte	0x53
 2634 0117 80000000 		.4byte	.LVL11-.Ltext0
 2635 011b B4000000 		.4byte	.LFE135-.Ltext0
 2636 011f 0100     		.2byte	0x1
 2637 0121 58       		.byte	0x58
 2638 0122 00000000 		.4byte	0
 2639 0126 00000000 		.4byte	0
 2640              	.LLST9:
 2641 012a C0000000 		.4byte	.LVL13-.Ltext0
 2642 012e DF000000 		.4byte	.LVL15-1-.Ltext0
 2643 0132 0100     		.2byte	0x1
 2644 0134 50       		.byte	0x50
 2645 0135 DF000000 		.4byte	.LVL15-1-.Ltext0
 2646 0139 F4000000 		.4byte	.LFE136-.Ltext0
 2647 013d 0100     		.2byte	0x1
 2648 013f 54       		.byte	0x54
 2649 0140 00000000 		.4byte	0
 2650 0144 00000000 		.4byte	0
 2651              	.LLST10:
 2652 0148 C0000000 		.4byte	.LVL13-.Ltext0
 2653 014c DF000000 		.4byte	.LVL15-1-.Ltext0
 2654 0150 0100     		.2byte	0x1
 2655 0152 51       		.byte	0x51
 2656 0153 DF000000 		.4byte	.LVL15-1-.Ltext0
 2657 0157 F4000000 		.4byte	.LFE136-.Ltext0
 2658 015b 0400     		.2byte	0x4
 2659 015d F3       		.byte	0xf3
 2660 015e 01       		.uleb128 0x1
 2661 015f 51       		.byte	0x51
 2662 0160 9F       		.byte	0x9f
 2663 0161 00000000 		.4byte	0
 2664 0165 00000000 		.4byte	0
 2665              	.LLST11:
 2666 0169 C0000000 		.4byte	.LVL13-.Ltext0
 2667 016d DF000000 		.4byte	.LVL15-1-.Ltext0
 2668 0171 0100     		.2byte	0x1
 2669 0173 52       		.byte	0x52
 2670 0174 DF000000 		.4byte	.LVL15-1-.Ltext0
ARM GAS  /tmp/ccLmIIGa.s 			page 48


 2671 0178 F4000000 		.4byte	.LFE136-.Ltext0
 2672 017c 0400     		.2byte	0x4
 2673 017e F3       		.byte	0xf3
 2674 017f 01       		.uleb128 0x1
 2675 0180 52       		.byte	0x52
 2676 0181 9F       		.byte	0x9f
 2677 0182 00000000 		.4byte	0
 2678 0186 00000000 		.4byte	0
 2679              	.LLST12:
 2680 018a C0000000 		.4byte	.LVL13-.Ltext0
 2681 018e CC000000 		.4byte	.LVL14-.Ltext0
 2682 0192 0100     		.2byte	0x1
 2683 0194 53       		.byte	0x53
 2684 0195 CC000000 		.4byte	.LVL14-.Ltext0
 2685 0199 DF000000 		.4byte	.LVL15-1-.Ltext0
 2686 019d 0100     		.2byte	0x1
 2687 019f 5E       		.byte	0x5e
 2688 01a0 DF000000 		.4byte	.LVL15-1-.Ltext0
 2689 01a4 F4000000 		.4byte	.LFE136-.Ltext0
 2690 01a8 0400     		.2byte	0x4
 2691 01aa F3       		.byte	0xf3
 2692 01ab 01       		.uleb128 0x1
 2693 01ac 53       		.byte	0x53
 2694 01ad 9F       		.byte	0x9f
 2695 01ae 00000000 		.4byte	0
 2696 01b2 00000000 		.4byte	0
 2697              	.LLST13:
 2698 01b6 00010000 		.4byte	.LVL16-.Ltext0
 2699 01ba 02010000 		.4byte	.LVL17-.Ltext0
 2700 01be 0100     		.2byte	0x1
 2701 01c0 50       		.byte	0x50
 2702 01c1 02010000 		.4byte	.LVL17-.Ltext0
 2703 01c5 05010000 		.4byte	.LVL18-1-.Ltext0
 2704 01c9 0300     		.2byte	0x3
 2705 01cb 70       		.byte	0x70
 2706 01cc 74       		.sleb128 -12
 2707 01cd 9F       		.byte	0x9f
 2708 01ce 05010000 		.4byte	.LVL18-1-.Ltext0
 2709 01d2 06010000 		.4byte	.LFE137-.Ltext0
 2710 01d6 0400     		.2byte	0x4
 2711 01d8 F3       		.byte	0xf3
 2712 01d9 01       		.uleb128 0x1
 2713 01da 50       		.byte	0x50
 2714 01db 9F       		.byte	0x9f
 2715 01dc 00000000 		.4byte	0
 2716 01e0 00000000 		.4byte	0
 2717              	.LLST14:
 2718 01e4 10010000 		.4byte	.LVL19-.Ltext0
 2719 01e8 13010000 		.4byte	.LVL20-1-.Ltext0
 2720 01ec 0100     		.2byte	0x1
 2721 01ee 50       		.byte	0x50
 2722 01ef 13010000 		.4byte	.LVL20-1-.Ltext0
 2723 01f3 14010000 		.4byte	.LFE138-.Ltext0
 2724 01f7 0400     		.2byte	0x4
 2725 01f9 F3       		.byte	0xf3
 2726 01fa 01       		.uleb128 0x1
 2727 01fb 50       		.byte	0x50
ARM GAS  /tmp/ccLmIIGa.s 			page 49


 2728 01fc 9F       		.byte	0x9f
 2729 01fd 00000000 		.4byte	0
 2730 0201 00000000 		.4byte	0
 2731              		.section	.debug_aranges,"",%progbits
 2732 0000 1C000000 		.4byte	0x1c
 2733 0004 0200     		.2byte	0x2
 2734 0006 00000000 		.4byte	.Ldebug_info0
 2735 000a 04       		.byte	0x4
 2736 000b 00       		.byte	0
 2737 000c 0000     		.2byte	0
 2738 000e 0000     		.2byte	0
 2739 0010 00000000 		.4byte	.Ltext0
 2740 0014 14010000 		.4byte	.Letext0-.Ltext0
 2741 0018 00000000 		.4byte	0
 2742 001c 00000000 		.4byte	0
 2743              		.section	.debug_ranges,"",%progbits
 2744              	.Ldebug_ranges0:
 2745 0000 22000000 		.4byte	.LBB2-.Ltext0
 2746 0004 24000000 		.4byte	.LBE2-.Ltext0
 2747 0008 26000000 		.4byte	.LBB3-.Ltext0
 2748 000c 2A000000 		.4byte	.LBE3-.Ltext0
 2749 0010 00000000 		.4byte	0
 2750 0014 00000000 		.4byte	0
 2751 0018 42000000 		.4byte	.LBB5-.Ltext0
 2752 001c 44000000 		.4byte	.LBE5-.Ltext0
 2753 0020 46000000 		.4byte	.LBB6-.Ltext0
 2754 0024 4A000000 		.4byte	.LBE6-.Ltext0
 2755 0028 00000000 		.4byte	0
 2756 002c 00000000 		.4byte	0
 2757              		.section	.debug_line,"",%progbits
 2758              	.Ldebug_line0:
 2759 0000 60050000 		.section	.debug_str,"MS",%progbits,1
 2759      0200F904 
 2759      00000201 
 2759      FB0E0D00 
 2759      01010101 
 2760              	.LASF96:
 2761 0000 5354445F 		.ascii	"STD_DUTY_CYCLE\000"
 2761      44555459 
 2761      5F435943 
 2761      4C4500
 2762              	.LASF113:
 2763 000f 646D6172 		.ascii	"dmarx\000"
 2763      7800
 2764              	.LASF99:
 2765 0015 69326364 		.ascii	"i2cdutycycle_t\000"
 2765      75747963 
 2765      79636C65 
 2765      5F7400
 2766              	.LASF89:
 2767 0024 69326373 		.ascii	"i2cstate_t\000"
 2767      74617465 
 2767      5F7400
 2768              	.LASF59:
 2769 002f 4D304152 		.ascii	"M0AR\000"
 2769      00
 2770              	.LASF2:
ARM GAS  /tmp/ccLmIIGa.s 			page 50


 2771 0034 73697A65 		.ascii	"size_t\000"
 2771      5F7400
 2772              	.LASF53:
 2773 003b 7264796D 		.ascii	"rdymsg\000"
 2773      736700
 2774              	.LASF81:
 2775 0042 76656374 		.ascii	"vector\000"
 2775      6F7200
 2776              	.LASF3:
 2777 0049 5F5F7569 		.ascii	"__uint8_t\000"
 2777      6E74385F 
 2777      7400
 2778              	.LASF84:
 2779 0053 4932435F 		.ascii	"I2C_STOP\000"
 2779      53544F50 
 2779      00
 2780              	.LASF134:
 2781 005c 6932635F 		.ascii	"i2c_lld_master_receive_timeout\000"
 2781      6C6C645F 
 2781      6D617374 
 2781      65725F72 
 2781      65636569 
 2782              	.LASF72:
 2783 007b 54524953 		.ascii	"TRISE\000"
 2783      4500
 2784              	.LASF77:
 2785 0081 73747265 		.ascii	"stream\000"
 2785      616D00
 2786              	.LASF13:
 2787 0088 6C6F6E67 		.ascii	"long long unsigned int\000"
 2787      206C6F6E 
 2787      6720756E 
 2787      7369676E 
 2787      65642069 
 2788              	.LASF54:
 2789 009f 65786974 		.ascii	"exitcode\000"
 2789      636F6465 
 2789      00
 2790              	.LASF129:
 2791 00a8 69326352 		.ascii	"i2cReleaseBus\000"
 2791      656C6561 
 2791      73654275 
 2791      7300
 2792              	.LASF139:
 2793 00b6 49544D5F 		.ascii	"ITM_RxBuffer\000"
 2793      52784275 
 2793      66666572 
 2793      00
 2794              	.LASF118:
 2795 00c3 69326370 		.ascii	"i2cp\000"
 2795      00
 2796              	.LASF138:
 2797 00c8 2F686F6D 		.ascii	"/home/sbcu/Dropbox/pcb-layouts/axo-on-discovery-boa"
 2797      652F7362 
 2797      63752F44 
 2797      726F7062 
 2797      6F782F70 
ARM GAS  /tmp/ccLmIIGa.s 			page 51


 2798 00fb 72642F61 		.ascii	"rd/axoloti/firmware\000"
 2798      786F6C6F 
 2798      74692F66 
 2798      69726D77 
 2798      61726500 
 2799              	.LASF50:
 2800 010f 6D5F7175 		.ascii	"m_queue\000"
 2800      65756500 
 2801              	.LASF29:
 2802 0117 705F7072 		.ascii	"p_prio\000"
 2802      696F00
 2803              	.LASF121:
 2804 011e 6932634D 		.ascii	"i2cMasterTransmitTimeout\000"
 2804      61737465 
 2804      72547261 
 2804      6E736D69 
 2804      7454696D 
 2805              	.LASF141:
 2806 0137 63684D74 		.ascii	"chMtxUnlock\000"
 2806      78556E6C 
 2806      6F636B00 
 2807              	.LASF1:
 2808 0143 7369676E 		.ascii	"signed char\000"
 2808      65642063 
 2808      68617200 
 2809              	.LASF101:
 2810 014f 636C6F63 		.ascii	"clock_speed\000"
 2810      6B5F7370 
 2810      65656400 
 2811              	.LASF124:
 2812 015b 72786275 		.ascii	"rxbuf\000"
 2812      6600
 2813              	.LASF110:
 2814 0161 61646472 		.ascii	"addr\000"
 2814      00
 2815              	.LASF133:
 2816 0166 6932635F 		.ascii	"i2c_lld_master_transmit_timeout\000"
 2816      6C6C645F 
 2816      6D617374 
 2816      65725F74 
 2816      72616E73 
 2817              	.LASF21:
 2818 0186 74736C69 		.ascii	"tslices_t\000"
 2818      6365735F 
 2818      7400
 2819              	.LASF90:
 2820 0190 69326361 		.ascii	"i2caddr_t\000"
 2820      6464725F 
 2820      7400
 2821              	.LASF105:
 2822 019a 73746174 		.ascii	"state\000"
 2822      6500
 2823              	.LASF9:
 2824 01a0 6C6F6E67 		.ascii	"long int\000"
 2824      20696E74 
 2824      00
 2825              	.LASF20:
ARM GAS  /tmp/ccLmIIGa.s 			page 52


 2826 01a9 74737461 		.ascii	"tstate_t\000"
 2826      74655F74 
 2826      00
 2827              	.LASF74:
 2828 01b2 464C5452 		.ascii	"FLTR\000"
 2828      00
 2829              	.LASF31:
 2830 01b7 705F6E65 		.ascii	"p_newer\000"
 2830      77657200 
 2831              	.LASF111:
 2832 01bf 7278646D 		.ascii	"rxdmamode\000"
 2832      616D6F64 
 2832      6500
 2833              	.LASF114:
 2834 01c9 646D6174 		.ascii	"dmatx\000"
 2834      7800
 2835              	.LASF94:
 2836 01cf 4F504D4F 		.ascii	"OPMODE_SMBUS_HOST\000"
 2836      44455F53 
 2836      4D425553 
 2836      5F484F53 
 2836      5400
 2837              	.LASF10:
 2838 01e1 5F5F7569 		.ascii	"__uint32_t\000"
 2838      6E743332 
 2838      5F7400
 2839              	.LASF45:
 2840 01ec 72656761 		.ascii	"regarm_t\000"
 2840      726D5F74 
 2840      00
 2841              	.LASF80:
 2842 01f5 73656C66 		.ascii	"selfindex\000"
 2842      696E6465 
 2842      7800
 2843              	.LASF100:
 2844 01ff 6F705F6D 		.ascii	"op_mode\000"
 2844      6F646500 
 2845              	.LASF12:
 2846 0207 6C6F6E67 		.ascii	"long long int\000"
 2846      206C6F6E 
 2846      6720696E 
 2846      7400
 2847              	.LASF0:
 2848 0215 756E7369 		.ascii	"unsigned int\000"
 2848      676E6564 
 2848      20696E74 
 2848      00
 2849              	.LASF122:
 2850 0222 74786275 		.ascii	"txbuf\000"
 2850      6600
 2851              	.LASF107:
 2852 0228 6572726F 		.ascii	"errors\000"
 2852      727300
 2853              	.LASF38:
 2854 022f 705F6D73 		.ascii	"p_msgqueue\000"
 2854      67717565 
 2854      756500
ARM GAS  /tmp/ccLmIIGa.s 			page 53


 2855              	.LASF126:
 2856 023a 74696D65 		.ascii	"timeout\000"
 2856      6F757400 
 2857              	.LASF79:
 2858 0242 69736869 		.ascii	"ishift\000"
 2858      667400
 2859              	.LASF93:
 2860 0249 4F504D4F 		.ascii	"OPMODE_SMBUS_DEVICE\000"
 2860      44455F53 
 2860      4D425553 
 2860      5F444556 
 2860      49434500 
 2861              	.LASF7:
 2862 025d 73686F72 		.ascii	"short unsigned int\000"
 2862      7420756E 
 2862      7369676E 
 2862      65642069 
 2862      6E7400
 2863              	.LASF104:
 2864 0270 49324344 		.ascii	"I2CDriver\000"
 2864      72697665 
 2864      7200
 2865              	.LASF23:
 2866 027a 6D73675F 		.ascii	"msg_t\000"
 2866      7400
 2867              	.LASF19:
 2868 0280 746D6F64 		.ascii	"tmode_t\000"
 2868      655F7400 
 2869              	.LASF15:
 2870 0288 75696E74 		.ascii	"uint16_t\000"
 2870      31365F74 
 2870      00
 2871              	.LASF44:
 2872 0291 54687265 		.ascii	"ThreadsList\000"
 2872      6164734C 
 2872      69737400 
 2873              	.LASF24:
 2874 029d 6576656E 		.ascii	"eventmask_t\000"
 2874      746D6173 
 2874      6B5F7400 
 2875              	.LASF5:
 2876 02a9 73686F72 		.ascii	"short int\000"
 2876      7420696E 
 2876      7400
 2877              	.LASF132:
 2878 02b3 6932635F 		.ascii	"i2c_lld_stop\000"
 2878      6C6C645F 
 2878      73746F70 
 2878      00
 2879              	.LASF131:
 2880 02c0 6932635F 		.ascii	"i2c_lld_start\000"
 2880      6C6C645F 
 2880      73746172 
 2880      7400
 2881              	.LASF48:
 2882 02ce 73697A65 		.ascii	"sizetype\000"
 2882      74797065 
ARM GAS  /tmp/ccLmIIGa.s 			page 54


 2882      00
 2883              	.LASF117:
 2884 02d7 69326353 		.ascii	"i2cStart\000"
 2884      74617274 
 2884      00
 2885              	.LASF49:
 2886 02e0 4D757465 		.ascii	"Mutex\000"
 2886      7800
 2887              	.LASF102:
 2888 02e6 64757479 		.ascii	"duty_cycle\000"
 2888      5F637963 
 2888      6C6500
 2889              	.LASF135:
 2890 02f1 63684D74 		.ascii	"chMtxLock\000"
 2890      784C6F63 
 2890      6B00
 2891              	.LASF32:
 2892 02fb 705F6F6C 		.ascii	"p_older\000"
 2892      64657200 
 2893              	.LASF125:
 2894 0303 72786279 		.ascii	"rxbytes\000"
 2894      74657300 
 2895              	.LASF119:
 2896 030b 69326353 		.ascii	"i2cStop\000"
 2896      746F7000 
 2897              	.LASF43:
 2898 0313 54687265 		.ascii	"ThreadsQueue\000"
 2898      61647351 
 2898      75657565 
 2898      00
 2899              	.LASF112:
 2900 0320 7478646D 		.ascii	"txdmamode\000"
 2900      616D6F64 
 2900      6500
 2901              	.LASF92:
 2902 032a 4F504D4F 		.ascii	"OPMODE_I2C\000"
 2902      44455F49 
 2902      324300
 2903              	.LASF98:
 2904 0335 46415354 		.ascii	"FAST_DUTY_CYCLE_16_9\000"
 2904      5F445554 
 2904      595F4359 
 2904      434C455F 
 2904      31365F39 
 2905              	.LASF62:
 2906 034a 52455345 		.ascii	"RESERVED0\000"
 2906      52564544 
 2906      3000
 2907              	.LASF63:
 2908 0354 52455345 		.ascii	"RESERVED1\000"
 2908      52564544 
 2908      3100
 2909              	.LASF65:
 2910 035e 52455345 		.ascii	"RESERVED2\000"
 2910      52564544 
 2910      3200
 2911              	.LASF67:
ARM GAS  /tmp/ccLmIIGa.s 			page 55


 2912 0368 52455345 		.ascii	"RESERVED3\000"
 2912      52564544 
 2912      3300
 2913              	.LASF68:
 2914 0372 52455345 		.ascii	"RESERVED4\000"
 2914      52564544 
 2914      3400
 2915              	.LASF28:
 2916 037c 705F7072 		.ascii	"p_prev\000"
 2916      657600
 2917              	.LASF70:
 2918 0383 52455345 		.ascii	"RESERVED6\000"
 2918      52564544 
 2918      3600
 2919              	.LASF71:
 2920 038d 52455345 		.ascii	"RESERVED7\000"
 2920      52564544 
 2920      3700
 2921              	.LASF73:
 2922 0397 52455345 		.ascii	"RESERVED8\000"
 2922      52564544 
 2922      3800
 2923              	.LASF22:
 2924 03a1 74707269 		.ascii	"tprio_t\000"
 2924      6F5F7400 
 2925              	.LASF86:
 2926 03a9 4932435F 		.ascii	"I2C_ACTIVE_TX\000"
 2926      41435449 
 2926      56455F54 
 2926      5800
 2927              	.LASF91:
 2928 03b7 69326366 		.ascii	"i2cflags_t\000"
 2928      6C616773 
 2928      5F7400
 2929              	.LASF108:
 2930 03c2 6D757465 		.ascii	"mutex\000"
 2930      7800
 2931              	.LASF18:
 2932 03c8 5F426F6F 		.ascii	"_Bool\000"
 2932      6C00
 2933              	.LASF16:
 2934 03ce 696E7433 		.ascii	"int32_t\000"
 2934      325F7400 
 2935              	.LASF4:
 2936 03d6 756E7369 		.ascii	"unsigned char\000"
 2936      676E6564 
 2936      20636861 
 2936      7200
 2937              	.LASF82:
 2938 03e4 73746D33 		.ascii	"stm32_dma_stream_t\000"
 2938      325F646D 
 2938      615F7374 
 2938      7265616D 
 2938      5F7400
 2939              	.LASF41:
 2940 03f7 705F6D74 		.ascii	"p_mtxlist\000"
 2940      786C6973 
ARM GAS  /tmp/ccLmIIGa.s 			page 56


 2940      7400
 2941              	.LASF83:
 2942 0401 4932435F 		.ascii	"I2C_UNINIT\000"
 2942      554E494E 
 2942      495400
 2943              	.LASF34:
 2944 040c 705F7374 		.ascii	"p_state\000"
 2944      61746500 
 2945              	.LASF36:
 2946 0414 705F7072 		.ascii	"p_preempt\000"
 2946      65656D70 
 2946      7400
 2947              	.LASF120:
 2948 041e 69326347 		.ascii	"i2cGetErrors\000"
 2948      65744572 
 2948      726F7273 
 2948      00
 2949              	.LASF56:
 2950 042b 65776D61 		.ascii	"ewmask\000"
 2950      736B00
 2951              	.LASF27:
 2952 0432 705F6E65 		.ascii	"p_next\000"
 2952      787400
 2953              	.LASF35:
 2954 0439 705F666C 		.ascii	"p_flags\000"
 2954      61677300 
 2955              	.LASF97:
 2956 0441 46415354 		.ascii	"FAST_DUTY_CYCLE_2\000"
 2956      5F445554 
 2956      595F4359 
 2956      434C455F 
 2956      3200
 2957              	.LASF26:
 2958 0453 54687265 		.ascii	"Thread\000"
 2958      616400
 2959              	.LASF88:
 2960 045a 4932435F 		.ascii	"I2C_LOCKED\000"
 2960      4C4F434B 
 2960      454400
 2961              	.LASF40:
 2962 0465 705F6570 		.ascii	"p_epending\000"
 2962      656E6469 
 2962      6E6700
 2963              	.LASF78:
 2964 0470 69666372 		.ascii	"ifcr\000"
 2964      00
 2965              	.LASF69:
 2966 0475 52455345 		.ascii	"RESERVED5\000"
 2966      52564544 
 2966      3500
 2967              	.LASF17:
 2968 047f 75696E74 		.ascii	"uint32_t\000"
 2968      33325F74 
 2968      00
 2969              	.LASF137:
 2970 0488 2F686F6D 		.ascii	"/home/sbcu/Dropbox/pcb-layouts/axo-on-discovery-boa"
 2970      652F7362 
ARM GAS  /tmp/ccLmIIGa.s 			page 57


 2970      63752F44 
 2970      726F7062 
 2970      6F782F70 
 2971 04bb 72642F61 		.ascii	"rd/axoloti/platform_linux/../chibios/os/hal/src/i2c"
 2971      786F6C6F 
 2971      74692F70 
 2971      6C617466 
 2971      6F726D5F 
 2972 04ee 2E6300   		.ascii	".c\000"
 2973              	.LASF87:
 2974 04f1 4932435F 		.ascii	"I2C_ACTIVE_RX\000"
 2974      41435449 
 2974      56455F52 
 2974      5800
 2975              	.LASF11:
 2976 04ff 6C6F6E67 		.ascii	"long unsigned int\000"
 2976      20756E73 
 2976      69676E65 
 2976      6420696E 
 2976      7400
 2977              	.LASF57:
 2978 0511 63686172 		.ascii	"char\000"
 2978      00
 2979              	.LASF106:
 2980 0516 636F6E66 		.ascii	"config\000"
 2980      696700
 2981              	.LASF6:
 2982 051d 5F5F7569 		.ascii	"__uint16_t\000"
 2982      6E743136 
 2982      5F7400
 2983              	.LASF52:
 2984 0528 6D5F6E65 		.ascii	"m_next\000"
 2984      787400
 2985              	.LASF25:
 2986 052f 73797374 		.ascii	"systime_t\000"
 2986      696D655F 
 2986      7400
 2987              	.LASF42:
 2988 0539 705F7265 		.ascii	"p_realprio\000"
 2988      616C7072 
 2988      696F00
 2989              	.LASF8:
 2990 0544 5F5F696E 		.ascii	"__int32_t\000"
 2990      7433325F 
 2990      7400
 2991              	.LASF109:
 2992 054e 74687265 		.ascii	"thread\000"
 2992      616400
 2993              	.LASF58:
 2994 0555 4E445452 		.ascii	"NDTR\000"
 2994      00
 2995              	.LASF85:
 2996 055a 4932435F 		.ascii	"I2C_READY\000"
 2996      52454144 
 2996      5900
 2997              	.LASF33:
 2998 0564 705F6E61 		.ascii	"p_name\000"
ARM GAS  /tmp/ccLmIIGa.s 			page 58


 2998      6D6500
 2999              	.LASF61:
 3000 056b 444D415F 		.ascii	"DMA_Stream_TypeDef\000"
 3000      53747265 
 3000      616D5F54 
 3000      79706544 
 3000      656600
 3001              	.LASF47:
 3002 057e 636F6E74 		.ascii	"context\000"
 3002      65787400 
 3003              	.LASF46:
 3004 0586 696E7463 		.ascii	"intctx\000"
 3004      747800
 3005              	.LASF60:
 3006 058d 4D314152 		.ascii	"M1AR\000"
 3006      00
 3007              	.LASF130:
 3008 0592 63684D74 		.ascii	"chMtxInit\000"
 3008      78496E69 
 3008      7400
 3009              	.LASF103:
 3010 059c 49324343 		.ascii	"I2CConfig\000"
 3010      6F6E6669 
 3010      6700
 3011              	.LASF75:
 3012 05a6 52455345 		.ascii	"RESERVED9\000"
 3012      52564544 
 3012      3900
 3013              	.LASF140:
 3014 05b0 6932635F 		.ascii	"i2c_lld_init\000"
 3014      6C6C645F 
 3014      696E6974 
 3014      00
 3015              	.LASF128:
 3016 05bd 69326341 		.ascii	"i2cAcquireBus\000"
 3016      63717569 
 3016      72654275 
 3016      7300
 3017              	.LASF14:
 3018 05cb 75696E74 		.ascii	"uint8_t\000"
 3018      385F7400 
 3019              	.LASF64:
 3020 05d3 4F415231 		.ascii	"OAR1\000"
 3020      00
 3021              	.LASF66:
 3022 05d8 4F415232 		.ascii	"OAR2\000"
 3022      00
 3023              	.LASF127:
 3024 05dd 6932634D 		.ascii	"i2cMasterReceiveTimeout\000"
 3024      61737465 
 3024      72526563 
 3024      65697665 
 3024      54696D65 
 3025              	.LASF55:
 3026 05f5 77746F62 		.ascii	"wtobjp\000"
 3026      6A7000
 3027              	.LASF136:
ARM GAS  /tmp/ccLmIIGa.s 			page 59


 3028 05fc 474E5520 		.ascii	"GNU C 4.9.3 20150529 (release) [ARM/embedded-4_9-br"
 3028      4320342E 
 3028      392E3320 
 3028      32303135 
 3028      30353239 
 3029 062f 616E6368 		.ascii	"anch revision 224288] -mcpu=cortex-m4 -mfloat-abi=h"
 3029      20726576 
 3029      6973696F 
 3029      6E203232 
 3029      34323838 
 3030 0662 61726420 		.ascii	"ard -mfpu=fpv4-sp-d16 -mno-thumb-interwork -mthumb "
 3030      2D6D6670 
 3030      753D6670 
 3030      76342D73 
 3030      702D6431 
 3031 0695 2D676764 		.ascii	"-ggdb -O2 -fomit-frame-pointer -falign-functions=16"
 3031      62202D4F 
 3031      32202D66 
 3031      6F6D6974 
 3031      2D667261 
 3032 06c8 202D666E 		.ascii	" -fno-math-errno -fsingle-precision-constant\000"
 3032      6F2D6D61 
 3032      74682D65 
 3032      72726E6F 
 3032      202D6673 
 3033              	.LASF115:
 3034 06f5 69326349 		.ascii	"i2cInit\000"
 3034      6E697400 
 3035              	.LASF39:
 3036 06fd 705F6D73 		.ascii	"p_msg\000"
 3036      6700
 3037              	.LASF76:
 3038 0703 4932435F 		.ascii	"I2C_TypeDef\000"
 3038      54797065 
 3038      44656600 
 3039              	.LASF95:
 3040 070f 6932636F 		.ascii	"i2copmode_t\000"
 3040      706D6F64 
 3040      655F7400 
 3041              	.LASF116:
 3042 071b 6932634F 		.ascii	"i2cObjectInit\000"
 3042      626A6563 
 3042      74496E69 
 3042      7400
 3043              	.LASF51:
 3044 0729 6D5F6F77 		.ascii	"m_owner\000"
 3044      6E657200 
 3045              	.LASF30:
 3046 0731 705F6374 		.ascii	"p_ctx\000"
 3046      7800
 3047              	.LASF37:
 3048 0737 705F7761 		.ascii	"p_waiting\000"
 3048      6974696E 
 3048      6700
 3049              	.LASF123:
 3050 0741 74786279 		.ascii	"txbytes\000"
 3050      74657300 
ARM GAS  /tmp/ccLmIIGa.s 			page 60


 3051              		.ident	"GCC: (GNU Tools for ARM Embedded Processors) 4.9.3 20150529 (release) [ARM/embedded-4_9-br
ARM GAS  /tmp/ccLmIIGa.s 			page 61


DEFINED SYMBOLS
                            *ABS*:00000000 i2c.c
     /tmp/ccLmIIGa.s:20     .text:00000000 $t
     /tmp/ccLmIIGa.s:26     .text:00000000 i2cInit
     /tmp/ccLmIIGa.s:46     .text:00000010 i2cObjectInit
     /tmp/ccLmIIGa.s:76     .text:00000020 i2cStart
     /tmp/ccLmIIGa.s:126    .text:00000040 i2cStop
     /tmp/ccLmIIGa.s:174    .text:00000060 i2cGetErrors
     /tmp/ccLmIIGa.s:195    .text:00000070 i2cMasterTransmitTimeout
     /tmp/ccLmIIGa.s:274    .text:000000c0 i2cMasterReceiveTimeout
     /tmp/ccLmIIGa.s:347    .text:00000100 i2cAcquireBus
     /tmp/ccLmIIGa.s:369    .text:00000110 i2cReleaseBus
                     .debug_frame:00000010 $d

UNDEFINED SYMBOLS
i2c_lld_init
chMtxInit
i2c_lld_start
i2c_lld_stop
i2c_lld_master_transmit_timeout
i2c_lld_master_receive_timeout
chMtxLock
chMtxUnlock
