ARM GAS  /tmp/cc12Onaq.s 			page 1


   1              		.syntax unified
   2              		.cpu cortex-m4
   3              		.eabi_attribute 27, 1
   4              		.eabi_attribute 28, 1
   5              		.fpu fpv4-sp-d16
   6              		.eabi_attribute 20, 1
   7              		.eabi_attribute 21, 1
   8              		.eabi_attribute 23, 3
   9              		.eabi_attribute 24, 1
  10              		.eabi_attribute 25, 1
  11              		.eabi_attribute 26, 1
  12              		.eabi_attribute 30, 2
  13              		.eabi_attribute 34, 1
  14              		.eabi_attribute 18, 4
  15              		.thumb
  16              		.file	"i2c_lld.c"
  17              		.text
  18              	.Ltext0:
  19              		.cfi_sections	.debug_frame
  20              		.align	2
  21              		.p2align 4,,15
  22              		.thumb
  23              		.thumb_func
  24              		.type	i2c_lld_abort_operation, %function
  25              	i2c_lld_abort_operation:
  26              	.LFB130:
  27              		.file 1 "/home/sbcu/Dropbox/pcb-layouts/axo-on-discovery-board/axoloti/platform_linux/../chibios/o
  28              		.loc 1 142 0
  29              		.cfi_startproc
  30              		@ args = 0, pretend = 0, frame = 0
  31              		@ frame_needed = 0, uses_anonymous_args = 0
  32              		@ link register save eliminated.
  33              	.LVL0:
  34 0000 30B4     		push	{r4, r5}
  35              		.cfi_def_cfa_offset 8
  36              		.cfi_offset 4, -8
  37              		.cfi_offset 5, -4
  38              		.loc 1 143 0
  39 0002 436B     		ldr	r3, [r0, #52]
  40              	.LVL1:
  41              		.loc 1 152 0
  42 0004 046B     		ldr	r4, [r0, #48]
  43              		.loc 1 146 0
  44 0006 4FF40041 		mov	r1, #32768
  45              		.loc 1 152 0
  46 000a 2268     		ldr	r2, [r4]
  47              		.loc 1 146 0
  48 000c 1980     		strh	r1, [r3]	@ movhi
  49              		.loc 1 147 0
  50 000e 0021     		movs	r1, #0
  51 0010 1980     		strh	r1, [r3]	@ movhi
  52              		.loc 1 148 0
  53 0012 9980     		strh	r1, [r3, #4]	@ movhi
  54              		.loc 1 149 0
  55 0014 9982     		strh	r1, [r3, #20]	@ movhi
  56              		.loc 1 152 0
  57 0016 1368     		ldr	r3, [r2]
ARM GAS  /tmp/cc12Onaq.s 			page 2


  58              	.LVL2:
  59 0018 23F01F03 		bic	r3, r3, #31
  60 001c 1360     		str	r3, [r2]
  61              	.L2:
  62              		.loc 1 152 0 is_stmt 0 discriminator 2
  63 001e 1368     		ldr	r3, [r2]
  64 0020 D907     		lsls	r1, r3, #31
  65 0022 FCD4     		bmi	.L2
  66              		.loc 1 153 0 is_stmt 1 discriminator 3
  67 0024 C16A     		ldr	r1, [r0, #44]
  68              		.loc 1 152 0 discriminator 3
  69 0026 257A     		ldrb	r5, [r4, #8]	@ zero_extendqisi2
  70 0028 6068     		ldr	r0, [r4, #4]
  71              	.LVL3:
  72              		.loc 1 153 0 discriminator 3
  73 002a 0A68     		ldr	r2, [r1]
  74              		.loc 1 152 0 discriminator 3
  75 002c 3D23     		movs	r3, #61
  76 002e AB40     		lsls	r3, r3, r5
  77 0030 0360     		str	r3, [r0]
  78              		.loc 1 153 0 discriminator 3
  79 0032 1368     		ldr	r3, [r2]
  80 0034 23F01F03 		bic	r3, r3, #31
  81 0038 1360     		str	r3, [r2]
  82              	.L3:
  83              		.loc 1 153 0 is_stmt 0 discriminator 2
  84 003a 1368     		ldr	r3, [r2]
  85 003c DB07     		lsls	r3, r3, #31
  86 003e FCD4     		bmi	.L3
  87              		.loc 1 153 0 discriminator 3
  88 0040 087A     		ldrb	r0, [r1, #8]	@ zero_extendqisi2
  89 0042 4A68     		ldr	r2, [r1, #4]
  90 0044 3D23     		movs	r3, #61
  91 0046 8340     		lsls	r3, r3, r0
  92 0048 1360     		str	r3, [r2]
  93              		.loc 1 154 0 is_stmt 1 discriminator 3
  94 004a 30BC     		pop	{r4, r5}
  95              		.cfi_restore 5
  96              		.cfi_restore 4
  97              		.cfi_def_cfa_offset 0
  98 004c 7047     		bx	lr
  99              		.cfi_endproc
 100              	.LFE130:
 101              		.size	i2c_lld_abort_operation, .-i2c_lld_abort_operation
 102 004e 00BF     		.align	2
 103              		.p2align 4,,15
 104              		.thumb
 105              		.thumb_func
 106              		.type	i2c_lld_serve_event_interrupt, %function
 107              	i2c_lld_serve_event_interrupt:
 108              	.LFB134:
 109              		.loc 1 293 0
 110              		.cfi_startproc
 111              		@ args = 0, pretend = 0, frame = 0
 112              		@ frame_needed = 0, uses_anonymous_args = 0
 113              	.LVL4:
 114 0050 38B5     		push	{r3, r4, r5, lr}
ARM GAS  /tmp/cc12Onaq.s 			page 3


 115              		.cfi_def_cfa_offset 16
 116              		.cfi_offset 3, -16
 117              		.cfi_offset 4, -12
 118              		.cfi_offset 5, -8
 119              		.cfi_offset 14, -4
 120              		.loc 1 294 0
 121 0052 446B     		ldr	r4, [r0, #52]
 122              	.LVL5:
 123              		.loc 1 301 0
 124 0054 444A     		ldr	r2, .L30
 125              		.loc 1 295 0
 126 0056 238B     		ldrh	r3, [r4, #24]
 127              	.LVL6:
 128              		.loc 1 296 0
 129 0058 A58A     		ldrh	r5, [r4, #20]
 130 005a ADB2     		uxth	r5, r5
 131              	.LVL7:
 132              		.loc 1 301 0
 133 005c 45EA0343 		orr	r3, r5, r3, lsl #16
 134              	.LVL8:
 135 0060 23F07F43 		bic	r3, r3, #-16777216
 136 0064 9342     		cmp	r3, r2
 137 0066 64D0     		beq	.L10
 138 0068 1ED8     		bhi	.L11
 139 006a 073A     		subs	r2, r2, #7
 140 006c 9342     		cmp	r3, r2
 141 006e 54D0     		beq	.L12
 142 0070 0132     		adds	r2, r2, #1
 143 0072 9342     		cmp	r3, r2
 144 0074 13D1     		bne	.L9
 145              		.loc 1 315 0
 146 0076 A388     		ldrh	r3, [r4, #4]
 147              		.loc 1 316 0
 148 0078 C26A     		ldr	r2, [r0, #44]
 149              		.loc 1 315 0
 150 007a 23F40073 		bic	r3, r3, #512
 151 007e 1B04     		lsls	r3, r3, #16
 152              		.loc 1 316 0
 153 0080 1268     		ldr	r2, [r2]
 154              		.loc 1 315 0
 155 0082 1B0C     		lsrs	r3, r3, #16
 156 0084 A380     		strh	r3, [r4, #4]	@ movhi
 157              		.loc 1 316 0
 158 0086 1368     		ldr	r3, [r2]
 159 0088 43F00103 		orr	r3, r3, #1
 160 008c 1360     		str	r3, [r2]
 161              		.loc 1 317 0
 162 008e A388     		ldrh	r3, [r4, #4]
 163 0090 9BB2     		uxth	r3, r3
 164 0092 43F48053 		orr	r3, r3, #4096
 165 0096 A380     		strh	r3, [r4, #4]	@ movhi
 166              		.loc 1 318 0
 167 0098 5368     		ldr	r3, [r2, #4]
 168 009a 012B     		cmp	r3, #1
 169 009c 5CD9     		bls	.L28
 170              	.L9:
 171              		.loc 1 341 0
ARM GAS  /tmp/cc12Onaq.s 			page 4


 172 009e 15F00A0F 		tst	r5, #10
 173              		.loc 1 342 0
 174 00a2 18BF     		it	ne
 175 00a4 238B     		ldrhne	r3, [r4, #24]
 176 00a6 38BD     		pop	{r3, r4, r5, pc}
 177              	.LVL9:
 178              	.L11:
 179              		.loc 1 301 0
 180 00a8 304A     		ldr	r2, .L30+4
 181 00aa 9342     		cmp	r3, r2
 182 00ac 24D0     		beq	.L14
 183 00ae 0232     		adds	r2, r2, #2
 184 00b0 9342     		cmp	r3, r2
 185 00b2 F4D1     		bne	.L9
 186              		.loc 1 327 0
 187 00b4 C36A     		ldr	r3, [r0, #44]
 188 00b6 1B68     		ldr	r3, [r3]
 189 00b8 5A68     		ldr	r2, [r3, #4]
 190 00ba 002A     		cmp	r2, #0
 191 00bc 42D1     		bne	.L29
 192              		.loc 1 333 0
 193 00be A388     		ldrh	r3, [r4, #4]
 194 00c0 23F40073 		bic	r3, r3, #512
 195 00c4 1B04     		lsls	r3, r3, #16
 196 00c6 1B0C     		lsrs	r3, r3, #16
 197 00c8 A380     		strh	r3, [r4, #4]	@ movhi
 198              		.loc 1 334 0
 199 00ca 2388     		ldrh	r3, [r4]
 200 00cc 9BB2     		uxth	r3, r3
 201 00ce 43F40073 		orr	r3, r3, #512
 202 00d2 2380     		strh	r3, [r4]	@ movhi
 203              	.LBB6:
 204              		.loc 1 335 0
 205 00d4 2023     		movs	r3, #32
 206              	@ 335 "/home/sbcu/Dropbox/pcb-layouts/axo-on-discovery-board/axoloti/platform_linux/../chibios/os/h
 207 00d6 83F31188 		msr     BASEPRI, r3
 208              	@ 0 "" 2
 209              		.thumb
 210              	.LBE6:
 211 00da C369     		ldr	r3, [r0, #28]
 212 00dc 23B1     		cbz	r3, .L19
 213              	.LVL10:
 214              	.LBB7:
 215              		.loc 1 335 0 is_stmt 0 discriminator 1
 216 00de C261     		str	r2, [r0, #28]
 217 00e0 1846     		mov	r0, r3
 218              	.LVL11:
 219 00e2 1A62     		str	r2, [r3, #32]
 220 00e4 FFF7FEFF 		bl	chSchReadyI
 221              	.LVL12:
 222              	.L19:
 223              	.LBE7:
 224              	.LBB8:
 225              		.loc 1 335 0 discriminator 3
 226 00e8 0023     		movs	r3, #0
 227              	@ 335 "/home/sbcu/Dropbox/pcb-layouts/axo-on-discovery-board/axoloti/platform_linux/../chibios/os/h
 228 00ea 83F31188 		msr     BASEPRI, r3
ARM GAS  /tmp/cc12Onaq.s 			page 5


 229              	@ 0 "" 2
 230              		.thumb
 231              	.LBE8:
 232              		.loc 1 341 0 is_stmt 1 discriminator 3
 233 00ee 15F00A0F 		tst	r5, #10
 234              		.loc 1 342 0 discriminator 3
 235 00f2 18BF     		it	ne
 236 00f4 238B     		ldrhne	r3, [r4, #24]
 237 00f6 38BD     		pop	{r3, r4, r5, pc}
 238              	.LVL13:
 239              	.L14:
 240              		.loc 1 322 0
 241 00f8 A388     		ldrh	r3, [r4, #4]
 242              		.loc 1 323 0
 243 00fa 026B     		ldr	r2, [r0, #48]
 244              		.loc 1 322 0
 245 00fc 23F40073 		bic	r3, r3, #512
 246 0100 1B04     		lsls	r3, r3, #16
 247              		.loc 1 323 0
 248 0102 1268     		ldr	r2, [r2]
 249              		.loc 1 322 0
 250 0104 1B0C     		lsrs	r3, r3, #16
 251 0106 A380     		strh	r3, [r4, #4]	@ movhi
 252              		.loc 1 323 0
 253 0108 1368     		ldr	r3, [r2]
 254 010a 43F00103 		orr	r3, r3, #1
 255 010e 1360     		str	r3, [r2]
 256              		.loc 1 341 0
 257 0110 15F00A0F 		tst	r5, #10
 258              		.loc 1 342 0
 259 0114 18BF     		it	ne
 260 0116 238B     		ldrhne	r3, [r4, #24]
 261 0118 38BD     		pop	{r3, r4, r5, pc}
 262              	.LVL14:
 263              	.L12:
 264              		.loc 1 303 0
 265 011a 038C     		ldrh	r3, [r0, #32]
 266 011c 1A0A     		lsrs	r2, r3, #8
 267 011e 0BD0     		beq	.L27
 268              		.loc 1 305 0
 269 0120 03F00103 		and	r3, r3, #1
 270 0124 43F0F003 		orr	r3, r3, #240
 271 0128 02F00602 		and	r2, r2, #6
 272 012c 1343     		orrs	r3, r3, r2
 273 012e 2382     		strh	r3, [r4, #16]	@ movhi
 274 0130 B5E7     		b	.L9
 275              	.L10:
 276              		.loc 1 312 0
 277 0132 038C     		ldrh	r3, [r0, #32]
 278 0134 C3F34703 		ubfx	r3, r3, #1, #8
 279              	.L27:
 280 0138 2382     		strh	r3, [r4, #16]	@ movhi
 281              		.loc 1 341 0
 282 013a 15F00A0F 		tst	r5, #10
 283              		.loc 1 342 0
 284 013e 18BF     		it	ne
 285 0140 238B     		ldrhne	r3, [r4, #24]
ARM GAS  /tmp/cc12Onaq.s 			page 6


 286 0142 38BD     		pop	{r3, r4, r5, pc}
 287              	.LVL15:
 288              	.L29:
 289              		.loc 1 330 0
 290 0144 2388     		ldrh	r3, [r4]
 291              		.loc 1 329 0
 292 0146 028C     		ldrh	r2, [r0, #32]
 293              		.loc 1 330 0
 294 0148 9BB2     		uxth	r3, r3
 295 014a 43F4A063 		orr	r3, r3, #1280
 296              		.loc 1 329 0
 297 014e 42F00102 		orr	r2, r2, #1
 298 0152 0284     		strh	r2, [r0, #32]	@ movhi
 299              		.loc 1 330 0
 300 0154 2380     		strh	r3, [r4]	@ movhi
 301              		.loc 1 331 0
 302 0156 38BD     		pop	{r3, r4, r5, pc}
 303              	.LVL16:
 304              	.L28:
 305              		.loc 1 319 0
 306 0158 2388     		ldrh	r3, [r4]
 307 015a 23F48063 		bic	r3, r3, #1024
 308 015e 1B04     		lsls	r3, r3, #16
 309 0160 1B0C     		lsrs	r3, r3, #16
 310 0162 2380     		strh	r3, [r4]	@ movhi
 311 0164 9BE7     		b	.L9
 312              	.L31:
 313 0166 00BF     		.align	2
 314              	.L30:
 315 0168 08000300 		.word	196616
 316 016c 82000700 		.word	458882
 317              		.cfi_endproc
 318              	.LFE134:
 319              		.size	i2c_lld_serve_event_interrupt, .-i2c_lld_serve_event_interrupt
 320              		.align	2
 321              		.p2align 4,,15
 322              		.thumb
 323              		.thumb_func
 324              		.type	i2c_lld_serve_error_interrupt, %function
 325              	i2c_lld_serve_error_interrupt:
 326              	.LFB137:
 327              		.loc 1 407 0
 328              		.cfi_startproc
 329              		@ args = 0, pretend = 0, frame = 0
 330              		@ frame_needed = 0, uses_anonymous_args = 0
 331              	.LVL17:
 332 0170 70B5     		push	{r4, r5, r6, lr}
 333              		.cfi_def_cfa_offset 16
 334              		.cfi_offset 4, -16
 335              		.cfi_offset 5, -12
 336              		.cfi_offset 6, -8
 337              		.cfi_offset 14, -4
 338              		.loc 1 410 0
 339 0172 056B     		ldr	r5, [r0, #48]
 340 0174 2A68     		ldr	r2, [r5]
 341 0176 1368     		ldr	r3, [r2]
 342 0178 23F01F03 		bic	r3, r3, #31
ARM GAS  /tmp/cc12Onaq.s 			page 7


 343 017c 1360     		str	r3, [r2]
 344              	.L33:
 345              		.loc 1 410 0 is_stmt 0 discriminator 2
 346 017e 1368     		ldr	r3, [r2]
 347 0180 DE07     		lsls	r6, r3, #31
 348 0182 FCD4     		bmi	.L33
 349              		.loc 1 410 0 discriminator 3
 350 0184 2E7A     		ldrb	r6, [r5, #8]	@ zero_extendqisi2
 351              		.loc 1 411 0 is_stmt 1 discriminator 3
 352 0186 C46A     		ldr	r4, [r0, #44]
 353              		.loc 1 410 0 discriminator 3
 354 0188 6D68     		ldr	r5, [r5, #4]
 355              		.loc 1 411 0 discriminator 3
 356 018a 2268     		ldr	r2, [r4]
 357              		.loc 1 410 0 discriminator 3
 358 018c 3D23     		movs	r3, #61
 359 018e B340     		lsls	r3, r3, r6
 360 0190 2B60     		str	r3, [r5]
 361              		.loc 1 411 0 discriminator 3
 362 0192 1368     		ldr	r3, [r2]
 363 0194 23F01F03 		bic	r3, r3, #31
 364 0198 1360     		str	r3, [r2]
 365              	.L34:
 366              		.loc 1 411 0 is_stmt 0 discriminator 2
 367 019a 1368     		ldr	r3, [r2]
 368 019c 13F00103 		ands	r3, r3, #1
 369 01a0 FBD1     		bne	.L34
 370              		.loc 1 411 0 discriminator 3
 371 01a2 257A     		ldrb	r5, [r4, #8]	@ zero_extendqisi2
 372 01a4 6468     		ldr	r4, [r4, #4]
 373 01a6 3D22     		movs	r2, #61
 374 01a8 AA40     		lsls	r2, r2, r5
 375              		.loc 1 415 0 is_stmt 1 discriminator 3
 376 01aa CD05     		lsls	r5, r1, #23
 377              		.loc 1 411 0 discriminator 3
 378 01ac 2260     		str	r2, [r4]
 379              		.loc 1 416 0 discriminator 3
 380 01ae 48BF     		it	mi
 381 01b0 0123     		movmi	r3, #1
 382              		.loc 1 418 0 discriminator 3
 383 01b2 8C05     		lsls	r4, r1, #22
 384              		.loc 1 416 0 discriminator 3
 385 01b4 8360     		str	r3, [r0, #8]
 386              		.loc 1 419 0 discriminator 3
 387 01b6 44BF     		itt	mi
 388 01b8 43F00203 		orrmi	r3, r3, #2
 389 01bc 8360     		strmi	r3, [r0, #8]
 390              		.loc 1 421 0 discriminator 3
 391 01be 4A05     		lsls	r2, r1, #21
 392 01c0 0ED5     		bpl	.L38
 393              		.loc 1 422 0
 394 01c2 446B     		ldr	r4, [r0, #52]
 395 01c4 A288     		ldrh	r2, [r4, #4]
 396 01c6 22F40072 		bic	r2, r2, #512
 397 01ca 1204     		lsls	r2, r2, #16
 398 01cc 120C     		lsrs	r2, r2, #16
 399 01ce A280     		strh	r2, [r4, #4]	@ movhi
ARM GAS  /tmp/cc12Onaq.s 			page 8


 400              		.loc 1 423 0
 401 01d0 2288     		ldrh	r2, [r4]
 402 01d2 92B2     		uxth	r2, r2
 403              		.loc 1 424 0
 404 01d4 43F00403 		orr	r3, r3, #4
 405              		.loc 1 423 0
 406 01d8 42F40072 		orr	r2, r2, #512
 407 01dc 2280     		strh	r2, [r4]	@ movhi
 408              		.loc 1 424 0
 409 01de 8360     		str	r3, [r0, #8]
 410              	.L38:
 411              		.loc 1 427 0
 412 01e0 0E05     		lsls	r6, r1, #20
 413              		.loc 1 428 0
 414 01e2 44BF     		itt	mi
 415 01e4 43F00803 		orrmi	r3, r3, #8
 416 01e8 8360     		strmi	r3, [r0, #8]
 417              		.loc 1 430 0
 418 01ea 4D04     		lsls	r5, r1, #17
 419              		.loc 1 431 0
 420 01ec 44BF     		itt	mi
 421 01ee 43F02003 		orrmi	r3, r3, #32
 422 01f2 8360     		strmi	r3, [r0, #8]
 423              		.loc 1 433 0
 424 01f4 CC04     		lsls	r4, r1, #19
 425 01f6 15D5     		bpl	.L41
 426              		.loc 1 434 0
 427 01f8 43F01003 		orr	r3, r3, #16
 428              		.loc 1 436 0
 429 01fc 0904     		lsls	r1, r1, #16
 430              	.LVL18:
 431              		.loc 1 434 0
 432 01fe 8360     		str	r3, [r0, #8]
 433              		.loc 1 436 0
 434 0200 15D4     		bmi	.L42
 435              	.L43:
 436              	.LBB9:
 437              		.loc 1 441 0
 438 0202 2023     		movs	r3, #32
 439              	@ 441 "/home/sbcu/Dropbox/pcb-layouts/axo-on-discovery-board/axoloti/platform_linux/../chibios/os/h
 440 0204 83F31188 		msr     BASEPRI, r3
 441              	@ 0 "" 2
 442              		.thumb
 443              	.LBE9:
 444 0208 C369     		ldr	r3, [r0, #28]
 445 020a 3BB1     		cbz	r3, .L46
 446              	.L70:
 447              	.LVL19:
 448              	.LBB10:
 449              		.loc 1 441 0 is_stmt 0 discriminator 1
 450 020c 0021     		movs	r1, #0
 451 020e 6FF00102 		mvn	r2, #1
 452 0212 C161     		str	r1, [r0, #28]
 453 0214 1846     		mov	r0, r3
 454              	.LVL20:
 455 0216 1A62     		str	r2, [r3, #32]
 456 0218 FFF7FEFF 		bl	chSchReadyI
ARM GAS  /tmp/cc12Onaq.s 			page 9


 457              	.LVL21:
 458              	.L46:
 459              	.LBE10:
 460              	.LBB11:
 461              		.loc 1 441 0 discriminator 3
 462 021c 0023     		movs	r3, #0
 463              	@ 441 "/home/sbcu/Dropbox/pcb-layouts/axo-on-discovery-board/axoloti/platform_linux/../chibios/os/h
 464 021e 83F31188 		msr     BASEPRI, r3
 465              	@ 0 "" 2
 466              		.thumb
 467 0222 70BD     		pop	{r4, r5, r6, pc}
 468              	.LVL22:
 469              	.L41:
 470              	.LBE11:
 471              		.loc 1 436 0 is_stmt 1
 472 0224 0A04     		lsls	r2, r1, #16
 473 0226 02D4     		bmi	.L42
 474              		.loc 1 440 0
 475 0228 002B     		cmp	r3, #0
 476 022a EAD1     		bne	.L43
 477 022c 70BD     		pop	{r4, r5, r6, pc}
 478              	.LVL23:
 479              	.L42:
 480              		.loc 1 437 0
 481 022e 43F04003 		orr	r3, r3, #64
 482 0232 8360     		str	r3, [r0, #8]
 483              	.LBB12:
 484              		.loc 1 441 0
 485 0234 2023     		movs	r3, #32
 486              	@ 441 "/home/sbcu/Dropbox/pcb-layouts/axo-on-discovery-board/axoloti/platform_linux/../chibios/os/h
 487 0236 83F31188 		msr     BASEPRI, r3
 488              	@ 0 "" 2
 489              		.thumb
 490              	.LBE12:
 491 023a C369     		ldr	r3, [r0, #28]
 492 023c 002B     		cmp	r3, #0
 493 023e E5D1     		bne	.L70
 494 0240 ECE7     		b	.L46
 495              		.cfi_endproc
 496              	.LFE137:
 497              		.size	i2c_lld_serve_error_interrupt, .-i2c_lld_serve_error_interrupt
 498 0242 00BF     		.align	2
 499 0244 AFF30080 		.p2align 4,,15
 499      AFF30080 
 499      AFF30080 
 500              		.thumb
 501              		.thumb_func
 502              		.type	i2c_lld_safety_timeout, %function
 503              	i2c_lld_safety_timeout:
 504              	.LFB131:
 505              		.loc 1 163 0
 506              		.cfi_startproc
 507              		@ args = 0, pretend = 0, frame = 0
 508              		@ frame_needed = 0, uses_anonymous_args = 0
 509              	.LVL24:
 510 0250 38B5     		push	{r3, r4, r5, lr}
 511              		.cfi_def_cfa_offset 16
ARM GAS  /tmp/cc12Onaq.s 			page 10


 512              		.cfi_offset 3, -16
 513              		.cfi_offset 4, -12
 514              		.cfi_offset 5, -8
 515              		.cfi_offset 14, -4
 516              	.LBB13:
 517              		.loc 1 166 0
 518 0252 2023     		movs	r3, #32
 519              	@ 166 "/home/sbcu/Dropbox/pcb-layouts/axo-on-discovery-board/axoloti/platform_linux/../chibios/os/h
 520 0254 83F31188 		msr     BASEPRI, r3
 521              	@ 0 "" 2
 522              		.thumb
 523              	.LBE13:
 524              		.loc 1 167 0
 525 0258 C569     		ldr	r5, [r0, #28]
 526 025a 55B1     		cbz	r5, .L72
 527 025c 0446     		mov	r4, r0
 528              	.LVL25:
 529              	.LBB14:
 530              		.loc 1 169 0
 531 025e FFF7CFFE 		bl	i2c_lld_abort_operation
 532              	.LVL26:
 533              		.loc 1 170 0
 534 0262 0022     		movs	r2, #0
 535              		.loc 1 171 0
 536 0264 4FF0FF33 		mov	r3, #-1
 537              		.loc 1 170 0
 538 0268 E261     		str	r2, [r4, #28]
 539              		.loc 1 172 0
 540 026a 2846     		mov	r0, r5
 541              		.loc 1 171 0
 542 026c 2B62     		str	r3, [r5, #32]
 543              		.loc 1 172 0
 544 026e FFF7FEFF 		bl	chSchReadyI
 545              	.LVL27:
 546              	.L72:
 547              	.LBE14:
 548              	.LBB15:
 549              		.loc 1 174 0
 550 0272 0023     		movs	r3, #0
 551              	@ 174 "/home/sbcu/Dropbox/pcb-layouts/axo-on-discovery-board/axoloti/platform_linux/../chibios/os/h
 552 0274 83F31188 		msr     BASEPRI, r3
 553              	@ 0 "" 2
 554              		.thumb
 555 0278 38BD     		pop	{r3, r4, r5, pc}
 556              	.LBE15:
 557              		.cfi_endproc
 558              	.LFE131:
 559              		.size	i2c_lld_safety_timeout, .-i2c_lld_safety_timeout
 560 027a 00BF     		.align	2
 561 027c AFF30080 		.p2align 4,,15
 562              		.thumb
 563              		.thumb_func
 564              		.type	i2c_lld_serve_tx_end_irq, %function
 565              	i2c_lld_serve_tx_end_irq:
 566              	.LFB136:
 567              		.loc 1 380 0
 568              		.cfi_startproc
ARM GAS  /tmp/cc12Onaq.s 			page 11


 569              		@ args = 0, pretend = 0, frame = 0
 570              		@ frame_needed = 0, uses_anonymous_args = 0
 571              	.LVL28:
 572              		.loc 1 385 0
 573 0280 11F00C0F 		tst	r1, #12
 574              		.loc 1 380 0
 575 0284 38B5     		push	{r3, r4, r5, lr}
 576              		.cfi_def_cfa_offset 16
 577              		.cfi_offset 3, -16
 578              		.cfi_offset 4, -12
 579              		.cfi_offset 5, -8
 580              		.cfi_offset 14, -4
 581              		.loc 1 380 0
 582 0286 0546     		mov	r5, r0
 583              		.loc 1 381 0
 584 0288 446B     		ldr	r4, [r0, #52]
 585              	.LVL29:
 586              		.loc 1 385 0
 587 028a 13D1     		bne	.L85
 588              	.LVL30:
 589              	.L78:
 590              		.loc 1 392 0
 591 028c 296B     		ldr	r1, [r5, #48]
 592 028e 0A68     		ldr	r2, [r1]
 593 0290 1368     		ldr	r3, [r2]
 594 0292 23F01F03 		bic	r3, r3, #31
 595 0296 1360     		str	r3, [r2]
 596              	.L79:
 597              		.loc 1 392 0 is_stmt 0 discriminator 2
 598 0298 1368     		ldr	r3, [r2]
 599 029a DB07     		lsls	r3, r3, #31
 600 029c FCD4     		bmi	.L79
 601              		.loc 1 392 0 discriminator 3
 602 029e 087A     		ldrb	r0, [r1, #8]	@ zero_extendqisi2
 603 02a0 4A68     		ldr	r2, [r1, #4]
 604 02a2 3D23     		movs	r3, #61
 605 02a4 8340     		lsls	r3, r3, r0
 606 02a6 1360     		str	r3, [r2]
 607              		.loc 1 396 0 is_stmt 1 discriminator 3
 608 02a8 A388     		ldrh	r3, [r4, #4]
 609 02aa 9BB2     		uxth	r3, r3
 610 02ac 43F40073 		orr	r3, r3, #512
 611 02b0 A380     		strh	r3, [r4, #4]	@ movhi
 612 02b2 38BD     		pop	{r3, r4, r5, pc}
 613              	.LVL31:
 614              	.L85:
 615              		.loc 1 386 0
 616 02b4 FFF7FEFF 		bl	port_halt
 617              	.LVL32:
 618 02b8 E8E7     		b	.L78
 619              		.cfi_endproc
 620              	.LFE136:
 621              		.size	i2c_lld_serve_tx_end_irq, .-i2c_lld_serve_tx_end_irq
 622 02ba 00BF     		.align	2
 623 02bc AFF30080 		.p2align 4,,15
 624              		.thumb
 625              		.thumb_func
ARM GAS  /tmp/cc12Onaq.s 			page 12


 626              		.type	i2c_lld_serve_rx_end_irq, %function
 627              	i2c_lld_serve_rx_end_irq:
 628              	.LFB135:
 629              		.loc 1 353 0
 630              		.cfi_startproc
 631              		@ args = 0, pretend = 0, frame = 0
 632              		@ frame_needed = 0, uses_anonymous_args = 0
 633              	.LVL33:
 634              		.loc 1 358 0
 635 02c0 11F00C0F 		tst	r1, #12
 636              		.loc 1 353 0
 637 02c4 70B5     		push	{r4, r5, r6, lr}
 638              		.cfi_def_cfa_offset 16
 639              		.cfi_offset 4, -16
 640              		.cfi_offset 5, -12
 641              		.cfi_offset 6, -8
 642              		.cfi_offset 14, -4
 643              		.loc 1 353 0
 644 02c6 0546     		mov	r5, r0
 645              		.loc 1 354 0
 646 02c8 446B     		ldr	r4, [r0, #52]
 647              	.LVL34:
 648              		.loc 1 358 0
 649 02ca 2DD1     		bne	.L98
 650              	.LVL35:
 651              	.L87:
 652              		.loc 1 365 0
 653 02cc E86A     		ldr	r0, [r5, #44]
 654 02ce 0168     		ldr	r1, [r0]
 655 02d0 0B68     		ldr	r3, [r1]
 656 02d2 23F01F03 		bic	r3, r3, #31
 657 02d6 0B60     		str	r3, [r1]
 658              	.L88:
 659              		.loc 1 365 0 is_stmt 0 discriminator 2
 660 02d8 0B68     		ldr	r3, [r1]
 661 02da 13F00102 		ands	r2, r3, #1
 662 02de FBD1     		bne	.L88
 663              		.loc 1 365 0 discriminator 3
 664 02e0 067A     		ldrb	r6, [r0, #8]	@ zero_extendqisi2
 665 02e2 4168     		ldr	r1, [r0, #4]
 666 02e4 3D23     		movs	r3, #61
 667 02e6 B340     		lsls	r3, r3, r6
 668 02e8 0B60     		str	r3, [r1]
 669              		.loc 1 367 0 is_stmt 1 discriminator 3
 670 02ea A388     		ldrh	r3, [r4, #4]
 671 02ec 23F48053 		bic	r3, r3, #4096
 672 02f0 1B04     		lsls	r3, r3, #16
 673 02f2 1B0C     		lsrs	r3, r3, #16
 674 02f4 A380     		strh	r3, [r4, #4]	@ movhi
 675              		.loc 1 368 0 discriminator 3
 676 02f6 2388     		ldrh	r3, [r4]
 677 02f8 23F48063 		bic	r3, r3, #1024
 678 02fc 1B04     		lsls	r3, r3, #16
 679 02fe 1B0C     		lsrs	r3, r3, #16
 680 0300 2380     		strh	r3, [r4]	@ movhi
 681              		.loc 1 369 0 discriminator 3
 682 0302 2388     		ldrh	r3, [r4]
ARM GAS  /tmp/cc12Onaq.s 			page 13


 683 0304 9BB2     		uxth	r3, r3
 684 0306 43F40073 		orr	r3, r3, #512
 685 030a 2380     		strh	r3, [r4]	@ movhi
 686              	.LBB16:
 687              		.loc 1 370 0 discriminator 3
 688 030c 2023     		movs	r3, #32
 689              	@ 370 "/home/sbcu/Dropbox/pcb-layouts/axo-on-discovery-board/axoloti/platform_linux/../chibios/os/h
 690 030e 83F31188 		msr     BASEPRI, r3
 691              	@ 0 "" 2
 692              		.thumb
 693              	.LBE16:
 694 0312 EB69     		ldr	r3, [r5, #28]
 695 0314 23B1     		cbz	r3, .L89
 696              	.LVL36:
 697              	.LBB17:
 698              		.loc 1 370 0 is_stmt 0 discriminator 1
 699 0316 EA61     		str	r2, [r5, #28]
 700 0318 1846     		mov	r0, r3
 701 031a 1A62     		str	r2, [r3, #32]
 702 031c FFF7FEFF 		bl	chSchReadyI
 703              	.LVL37:
 704              	.L89:
 705              	.LBE17:
 706              	.LBB18:
 707              		.loc 1 370 0 discriminator 3
 708 0320 0023     		movs	r3, #0
 709              	@ 370 "/home/sbcu/Dropbox/pcb-layouts/axo-on-discovery-board/axoloti/platform_linux/../chibios/os/h
 710 0322 83F31188 		msr     BASEPRI, r3
 711              	@ 0 "" 2
 712              		.thumb
 713 0326 70BD     		pop	{r4, r5, r6, pc}
 714              	.LVL38:
 715              	.L98:
 716              	.LBE18:
 717              		.loc 1 359 0 is_stmt 1
 718 0328 FFF7FEFF 		bl	port_halt
 719              	.LVL39:
 720 032c CEE7     		b	.L87
 721              		.cfi_endproc
 722              	.LFE135:
 723              		.size	i2c_lld_serve_rx_end_irq, .-i2c_lld_serve_rx_end_irq
 724 032e 00BF     		.align	2
 725              		.p2align 4,,15
 726              		.global	VectorBC
 727              		.thumb
 728              		.thumb_func
 729              		.type	VectorBC, %function
 730              	VectorBC:
 731              	.LFB138:
 732              		.loc 1 454 0
 733              		.cfi_startproc
 734              		@ args = 0, pretend = 0, frame = 0
 735              		@ frame_needed = 0, uses_anonymous_args = 0
 736 0330 08B5     		push	{r3, lr}
 737              		.cfi_def_cfa_offset 8
 738              		.cfi_offset 3, -8
 739              		.cfi_offset 14, -4
ARM GAS  /tmp/cc12Onaq.s 			page 14


 740              		.loc 1 458 0
 741 0332 0348     		ldr	r0, .L101
 742 0334 FFF78CFE 		bl	i2c_lld_serve_event_interrupt
 743              	.LVL40:
 744              		.loc 1 461 0
 745 0338 BDE80840 		pop	{r3, lr}
 746              		.cfi_restore 14
 747              		.cfi_restore 3
 748              		.cfi_def_cfa_offset 0
 749              		.loc 1 460 0
 750 033c FFF7FEBF 		b	_port_irq_epilogue
 751              	.LVL41:
 752              	.L102:
 753              		.align	2
 754              	.L101:
 755 0340 00000000 		.word	I2CD1
 756              		.cfi_endproc
 757              	.LFE138:
 758              		.size	VectorBC, .-VectorBC
 759              		.align	2
 760 0344 AFF30080 		.p2align 4,,15
 760      AFF30080 
 760      AFF30080 
 761              		.global	VectorC0
 762              		.thumb
 763              		.thumb_func
 764              		.type	VectorC0, %function
 765              	VectorC0:
 766              	.LFB139:
 767              		.loc 1 466 0
 768              		.cfi_startproc
 769              		@ args = 0, pretend = 0, frame = 0
 770              		@ frame_needed = 0, uses_anonymous_args = 0
 771              		.loc 1 467 0
 772 0350 0848     		ldr	r0, .L105
 773 0352 426B     		ldr	r2, [r0, #52]
 774 0354 918A     		ldrh	r1, [r2, #20]
 775              		.loc 1 466 0
 776 0356 08B5     		push	{r3, lr}
 777              		.cfi_def_cfa_offset 8
 778              		.cfi_offset 3, -8
 779              		.cfi_offset 14, -4
 780              		.loc 1 467 0
 781 0358 89B2     		uxth	r1, r1
 782              	.LVL42:
 783              		.loc 1 471 0
 784 035a 01F45F43 		and	r3, r1, #57088
 785 035e 83F47F43 		eor	r3, r3, #65280
 786 0362 83F0FF03 		eor	r3, r3, #255
 787 0366 9382     		strh	r3, [r2, #20]	@ movhi
 788              		.loc 1 472 0
 789 0368 FFF702FF 		bl	i2c_lld_serve_error_interrupt
 790              	.LVL43:
 791              		.loc 1 475 0
 792 036c BDE80840 		pop	{r3, lr}
 793              		.cfi_restore 14
 794              		.cfi_restore 3
ARM GAS  /tmp/cc12Onaq.s 			page 15


 795              		.cfi_def_cfa_offset 0
 796              		.loc 1 474 0
 797 0370 FFF7FEBF 		b	_port_irq_epilogue
 798              	.LVL44:
 799              	.L106:
 800              		.align	2
 801              	.L105:
 802 0374 00000000 		.word	I2CD1
 803              		.cfi_endproc
 804              	.LFE139:
 805              		.size	VectorC0, .-VectorC0
 806              		.align	2
 807 0378 AFF30080 		.p2align 4,,15
 807      AFF30080 
 808              		.global	VectorC4
 809              		.thumb
 810              		.thumb_func
 811              		.type	VectorC4, %function
 812              	VectorC4:
 813              	.LFB140:
 814              		.loc 1 484 0
 815              		.cfi_startproc
 816              		@ args = 0, pretend = 0, frame = 0
 817              		@ frame_needed = 0, uses_anonymous_args = 0
 818 0380 08B5     		push	{r3, lr}
 819              		.cfi_def_cfa_offset 8
 820              		.cfi_offset 3, -8
 821              		.cfi_offset 14, -4
 822              		.loc 1 488 0
 823 0382 0348     		ldr	r0, .L109
 824 0384 FFF764FE 		bl	i2c_lld_serve_event_interrupt
 825              	.LVL45:
 826              		.loc 1 491 0
 827 0388 BDE80840 		pop	{r3, lr}
 828              		.cfi_restore 14
 829              		.cfi_restore 3
 830              		.cfi_def_cfa_offset 0
 831              		.loc 1 490 0
 832 038c FFF7FEBF 		b	_port_irq_epilogue
 833              	.LVL46:
 834              	.L110:
 835              		.align	2
 836              	.L109:
 837 0390 00000000 		.word	I2CD2
 838              		.cfi_endproc
 839              	.LFE140:
 840              		.size	VectorC4, .-VectorC4
 841              		.align	2
 842 0394 AFF30080 		.p2align 4,,15
 842      AFF30080 
 842      AFF30080 
 843              		.global	VectorC8
 844              		.thumb
 845              		.thumb_func
 846              		.type	VectorC8, %function
 847              	VectorC8:
 848              	.LFB141:
ARM GAS  /tmp/cc12Onaq.s 			page 16


 849              		.loc 1 498 0
 850              		.cfi_startproc
 851              		@ args = 0, pretend = 0, frame = 0
 852              		@ frame_needed = 0, uses_anonymous_args = 0
 853              		.loc 1 499 0
 854 03a0 0848     		ldr	r0, .L113
 855 03a2 426B     		ldr	r2, [r0, #52]
 856 03a4 918A     		ldrh	r1, [r2, #20]
 857              		.loc 1 498 0
 858 03a6 08B5     		push	{r3, lr}
 859              		.cfi_def_cfa_offset 8
 860              		.cfi_offset 3, -8
 861              		.cfi_offset 14, -4
 862              		.loc 1 499 0
 863 03a8 89B2     		uxth	r1, r1
 864              	.LVL47:
 865              		.loc 1 503 0
 866 03aa 01F45F43 		and	r3, r1, #57088
 867 03ae 83F47F43 		eor	r3, r3, #65280
 868 03b2 83F0FF03 		eor	r3, r3, #255
 869 03b6 9382     		strh	r3, [r2, #20]	@ movhi
 870              		.loc 1 504 0
 871 03b8 FFF7DAFE 		bl	i2c_lld_serve_error_interrupt
 872              	.LVL48:
 873              		.loc 1 507 0
 874 03bc BDE80840 		pop	{r3, lr}
 875              		.cfi_restore 14
 876              		.cfi_restore 3
 877              		.cfi_def_cfa_offset 0
 878              		.loc 1 506 0
 879 03c0 FFF7FEBF 		b	_port_irq_epilogue
 880              	.LVL49:
 881              	.L114:
 882              		.align	2
 883              	.L113:
 884 03c4 00000000 		.word	I2CD2
 885              		.cfi_endproc
 886              	.LFE141:
 887              		.size	VectorC8, .-VectorC8
 888              		.align	2
 889 03c8 AFF30080 		.p2align 4,,15
 889      AFF30080 
 890              		.global	i2c_lld_init
 891              		.thumb
 892              		.thumb_func
 893              		.type	i2c_lld_init, %function
 894              	i2c_lld_init:
 895              	.LFB142:
 896              		.loc 1 551 0
 897              		.cfi_startproc
 898              		@ args = 0, pretend = 0, frame = 0
 899              		@ frame_needed = 0, uses_anonymous_args = 0
 900 03d0 F8B5     		push	{r3, r4, r5, r6, r7, lr}
 901              		.cfi_def_cfa_offset 24
 902              		.cfi_offset 3, -24
 903              		.cfi_offset 4, -20
 904              		.cfi_offset 5, -16
ARM GAS  /tmp/cc12Onaq.s 			page 17


 905              		.cfi_offset 6, -12
 906              		.cfi_offset 7, -8
 907              		.cfi_offset 14, -4
 908              		.loc 1 554 0
 909 03d2 0D4E     		ldr	r6, .L117
 910              		.loc 1 562 0
 911 03d4 0D4D     		ldr	r5, .L117+4
 912              		.loc 1 557 0
 913 03d6 0E4C     		ldr	r4, .L117+8
 914              		.loc 1 554 0
 915 03d8 3046     		mov	r0, r6
 916 03da FFF7FEFF 		bl	i2cObjectInit
 917              	.LVL50:
 918              		.loc 1 556 0
 919 03de 0D4B     		ldr	r3, .L117+12
 920 03e0 7363     		str	r3, [r6, #52]
 921              		.loc 1 555 0
 922 03e2 0027     		movs	r7, #0
 923              		.loc 1 558 0
 924 03e4 04F10C03 		add	r3, r4, #12
 925              		.loc 1 562 0
 926 03e8 2846     		mov	r0, r5
 927              		.loc 1 557 0
 928 03ea F462     		str	r4, [r6, #44]
 929              		.loc 1 558 0
 930 03ec 3363     		str	r3, [r6, #48]
 931              		.loc 1 555 0
 932 03ee F761     		str	r7, [r6, #28]
 933              		.loc 1 562 0
 934 03f0 FFF7FEFF 		bl	i2cObjectInit
 935              	.LVL51:
 936              		.loc 1 565 0
 937 03f4 A4F12403 		sub	r3, r4, #36
 938              		.loc 1 564 0
 939 03f8 074A     		ldr	r2, .L117+16
 940              		.loc 1 563 0
 941 03fa EF61     		str	r7, [r5, #28]
 942              		.loc 1 566 0
 943 03fc 1834     		adds	r4, r4, #24
 944              		.loc 1 564 0
 945 03fe 6A63     		str	r2, [r5, #52]
 946              		.loc 1 565 0
 947 0400 EB62     		str	r3, [r5, #44]
 948              		.loc 1 566 0
 949 0402 2C63     		str	r4, [r5, #48]
 950 0404 F8BD     		pop	{r3, r4, r5, r6, r7, pc}
 951              	.L118:
 952 0406 00BF     		.align	2
 953              	.L117:
 954 0408 00000000 		.word	I2CD1
 955 040c 00000000 		.word	I2CD2
 956 0410 3C000000 		.word	_stm32_dma_streams+60
 957 0414 00540040 		.word	1073763328
 958 0418 00580040 		.word	1073764352
 959              		.cfi_endproc
 960              	.LFE142:
 961              		.size	i2c_lld_init, .-i2c_lld_init
ARM GAS  /tmp/cc12Onaq.s 			page 18


 962              		.align	2
 963 041c AFF30080 		.p2align 4,,15
 964              		.global	i2c_lld_start
 965              		.thumb
 966              		.thumb_func
 967              		.type	i2c_lld_start, %function
 968              	i2c_lld_start:
 969              	.LFB143:
 970              		.loc 1 585 0
 971              		.cfi_startproc
 972              		@ args = 0, pretend = 0, frame = 0
 973              		@ frame_needed = 0, uses_anonymous_args = 0
 974              	.LVL52:
 975 0420 2DE9F843 		push	{r3, r4, r5, r6, r7, r8, r9, lr}
 976              		.cfi_def_cfa_offset 32
 977              		.cfi_offset 3, -32
 978              		.cfi_offset 4, -28
 979              		.cfi_offset 5, -24
 980              		.cfi_offset 6, -20
 981              		.cfi_offset 7, -16
 982              		.cfi_offset 8, -12
 983              		.cfi_offset 9, -8
 984              		.cfi_offset 14, -4
 985              		.loc 1 598 0
 986 0424 0378     		ldrb	r3, [r0]	@ zero_extendqisi2
 987              		.loc 1 586 0
 988 0426 456B     		ldr	r5, [r0, #52]
 989              	.LVL53:
 990              		.loc 1 588 0
 991 0428 40F25642 		movw	r2, #1110
 992 042c 8262     		str	r2, [r0, #40]
 993              		.loc 1 598 0
 994 042e 012B     		cmp	r3, #1
 995              		.loc 1 592 0
 996 0430 40F21642 		movw	r2, #1046
 997              		.loc 1 585 0
 998 0434 0446     		mov	r4, r0
 999              		.loc 1 592 0
 1000 0436 4262     		str	r2, [r0, #36]
 1001              		.loc 1 598 0
 1002 0438 44D0     		beq	.L135
 1003              	.L131:
 1004              		.loc 1 586 0
 1005 043a 2B46     		mov	r3, r5
 1006              	.LVL54:
 1007              	.L120:
 1008              		.loc 1 686 0
 1009 043c E16A     		ldr	r1, [r4, #44]
 1010              		.loc 1 687 0
 1011 043e 226B     		ldr	r2, [r4, #48]
 1012 0440 6068     		ldr	r0, [r4, #4]
 1013              	.LVL55:
 1014              		.loc 1 686 0
 1015 0442 D1F80090 		ldr	r9, [r1]
 1016              		.loc 1 687 0
 1017 0446 D2F80080 		ldr	r8, [r2]
 1018              	.LBB25:
ARM GAS  /tmp/cc12Onaq.s 			page 19


 1019              	.LBB26:
 1020              		.loc 1 187 0
 1021 044a 4468     		ldr	r4, [r0, #4]
 1022              	.LVL56:
 1023              		.loc 1 188 0
 1024 044c 077A     		ldrb	r7, [r0, #8]	@ zero_extendqisi2
 1025              	.LVL57:
 1026              		.loc 1 201 0
 1027 044e 664E     		ldr	r6, .L141
 1028              	.LBE26:
 1029              	.LBE25:
 1030              		.loc 1 686 0
 1031 0450 05F11002 		add	r2, r5, #16
 1032              		.loc 1 690 0
 1033 0454 4FF4004C 		mov	ip, #32768
 1034              		.loc 1 691 0
 1035 0458 0021     		movs	r1, #0
 1036              		.loc 1 692 0
 1037 045a 4FF4106E 		mov	lr, #2304
 1038              		.loc 1 686 0
 1039 045e C9F80820 		str	r2, [r9, #8]
 1040              		.loc 1 687 0
 1041 0462 C8F80820 		str	r2, [r8, #8]
 1042              		.loc 1 690 0
 1043 0466 A5F800C0 		strh	ip, [r5]	@ movhi
 1044              		.loc 1 691 0
 1045 046a 2980     		strh	r1, [r5]	@ movhi
 1046              		.loc 1 692 0
 1047 046c A5F804E0 		strh	lr, [r5, #4]	@ movhi
 1048              	.LBB30:
 1049              	.LBB27:
 1050              		.loc 1 194 0
 1051 0470 9A88     		ldrh	r2, [r3, #4]
 1052 0472 22F03F02 		bic	r2, r2, #63
 1053 0476 1204     		lsls	r2, r2, #16
 1054 0478 120C     		lsrs	r2, r2, #16
 1055 047a 9A80     		strh	r2, [r3, #4]	@ movhi
 1056              		.loc 1 195 0
 1057 047c 9A88     		ldrh	r2, [r3, #4]
 1058 047e 92B2     		uxth	r2, r2
 1059 0480 42F02A02 		orr	r2, r2, #42
 1060              		.loc 1 201 0
 1061 0484 B442     		cmp	r4, r6
 1062              		.loc 1 195 0
 1063 0486 9A80     		strh	r2, [r3, #4]	@ movhi
 1064              	.LVL58:
 1065              		.loc 1 201 0
 1066 0488 53DD     		ble	.L136
 1067              		.loc 1 221 0
 1068 048a 584A     		ldr	r2, .L141+4
 1069 048c 9442     		cmp	r4, r2
 1070 048e 07DC     		bgt	.L123
 1071              		.loc 1 227 0
 1072 0490 022F     		cmp	r7, #2
 1073 0492 6DD0     		beq	.L137
 1074              		.loc 1 234 0
 1075 0494 032F     		cmp	r7, #3
ARM GAS  /tmp/cc12Onaq.s 			page 20


 1076 0496 5ED0     		beq	.L138
 1077 0498 48F6FF71 		movw	r1, #36863
 1078              	.LVL59:
 1079              	.L125:
 1080              		.loc 1 249 0
 1081 049c 0D22     		movs	r2, #13
 1082 049e 1A84     		strh	r2, [r3, #32]	@ movhi
 1083              	.LVL60:
 1084              	.L123:
 1085              		.loc 1 255 0
 1086 04a0 9983     		strh	r1, [r3, #28]	@ movhi
 1087              	.LVL61:
 1088              	.LBE27:
 1089              	.LBE30:
 1090              	.LBB31:
 1091              	.LBB32:
 1092              		.loc 1 271 0
 1093 04a2 0178     		ldrb	r1, [r0]	@ zero_extendqisi2
 1094              	.LVL62:
 1095              		.loc 1 270 0
 1096 04a4 1A88     		ldrh	r2, [r3]
 1097              		.loc 1 271 0
 1098 04a6 0229     		cmp	r1, #2
 1099              		.loc 1 270 0
 1100 04a8 92B2     		uxth	r2, r2
 1101              	.LVL63:
 1102              		.loc 1 271 0
 1103 04aa 4ED0     		beq	.L127
 1104 04ac 0329     		cmp	r1, #3
 1105 04ae 49D0     		beq	.L128
 1106 04b0 0129     		cmp	r1, #1
 1107 04b2 3AD0     		beq	.L139
 1108              	.L126:
 1109              		.loc 1 283 0
 1110 04b4 1A80     		strh	r2, [r3]	@ movhi
 1111              	.LVL64:
 1112              	.LBE32:
 1113              	.LBE31:
 1114              		.loc 1 699 0
 1115 04b6 2B88     		ldrh	r3, [r5]
 1116              	.LVL65:
 1117 04b8 9BB2     		uxth	r3, r3
 1118 04ba 43F00103 		orr	r3, r3, #1
 1119 04be 2B80     		strh	r3, [r5]	@ movhi
 1120 04c0 BDE8F883 		pop	{r3, r4, r5, r6, r7, r8, r9, pc}
 1121              	.LVL66:
 1122              	.L135:
 1123              		.loc 1 601 0
 1124 04c4 4A4B     		ldr	r3, .L141+8
 1125 04c6 9842     		cmp	r0, r3
 1126 04c8 60D0     		beq	.L140
 1127              		.loc 1 629 0
 1128 04ca 4A4B     		ldr	r3, .L141+12
 1129 04cc 9842     		cmp	r0, r3
 1130 04ce B4D1     		bne	.L131
 1131              	.LBB35:
 1132              		.loc 1 632 0
ARM GAS  /tmp/cc12Onaq.s 			page 21


 1133 04d0 494E     		ldr	r6, .L141+16
 1134              		.loc 1 633 0
 1135 04d2 C06A     		ldr	r0, [r0, #44]
 1136              	.LVL67:
 1137              		.loc 1 632 0
 1138 04d4 336A     		ldr	r3, [r6, #32]
 1139              		.loc 1 633 0
 1140 04d6 494A     		ldr	r2, .L141+20
 1141              		.loc 1 632 0
 1142 04d8 43F48003 		orr	r3, r3, #4194304
 1143 04dc 0027     		movs	r7, #0
 1144 04de 3362     		str	r3, [r6, #32]
 1145              		.loc 1 633 0
 1146 04e0 0521     		movs	r1, #5
 1147 04e2 2346     		mov	r3, r4
 1148              		.loc 1 632 0
 1149 04e4 3762     		str	r7, [r6, #32]
 1150              		.loc 1 633 0
 1151 04e6 FFF7FEFF 		bl	dmaStreamAllocate
 1152              	.LVL68:
 1153              		.loc 1 638 0
 1154 04ea 454A     		ldr	r2, .L141+24
 1155 04ec 206B     		ldr	r0, [r4, #48]
 1156 04ee 0521     		movs	r1, #5
 1157 04f0 2346     		mov	r3, r4
 1158 04f2 FFF7FEFF 		bl	dmaStreamAllocate
 1159              	.LVL69:
 1160              		.loc 1 643 0
 1161 04f6 336C     		ldr	r3, [r6, #64]
 1162 04f8 43F48003 		orr	r3, r3, #4194304
 1163 04fc 3364     		str	r3, [r6, #64]
 1164              		.loc 1 644 0
 1165 04fe 2120     		movs	r0, #33
 1166 0500 5021     		movs	r1, #80
 1167 0502 FFF7FEFF 		bl	nvicEnableVector
 1168              	.LVL70:
 1169              		.loc 1 646 0
 1170 0506 5021     		movs	r1, #80
 1171 0508 2220     		movs	r0, #34
 1172 050a FFF7FEFF 		bl	nvicEnableVector
 1173              	.LVL71:
 1174              		.loc 1 649 0
 1175 050e 616A     		ldr	r1, [r4, #36]
 1176              		.loc 1 651 0
 1177 0510 A26A     		ldr	r2, [r4, #40]
 1178 0512 636B     		ldr	r3, [r4, #52]
 1179              		.loc 1 649 0
 1180 0514 41F06061 		orr	r1, r1, #234881024
 1181              		.loc 1 651 0
 1182 0518 42F06062 		orr	r2, r2, #234881024
 1183              		.loc 1 649 0
 1184 051c 41F44031 		orr	r1, r1, #196608
 1185              		.loc 1 651 0
 1186 0520 42F44032 		orr	r2, r2, #196608
 1187              		.loc 1 649 0
 1188 0524 6162     		str	r1, [r4, #36]
 1189              		.loc 1 651 0
ARM GAS  /tmp/cc12Onaq.s 			page 22


 1190 0526 A262     		str	r2, [r4, #40]
 1191 0528 88E7     		b	.L120
 1192              	.LVL72:
 1193              	.L139:
 1194              	.LBE35:
 1195              	.LBB36:
 1196              	.LBB33:
 1197              		.loc 1 273 0
 1198 052a 22F00A02 		bic	r2, r2, #10
 1199              	.LVL73:
 1200 052e 92B2     		uxth	r2, r2
 1201              	.LVL74:
 1202 0530 C0E7     		b	.L126
 1203              	.LVL75:
 1204              	.L136:
 1205              	.LBE33:
 1206              	.LBE36:
 1207              	.LBB37:
 1208              	.LBB28:
 1209              		.loc 1 219 0
 1210 0532 2B26     		movs	r6, #43
 1211              		.loc 1 211 0
 1212 0534 6100     		lsls	r1, r4, #1
 1213 0536 334A     		ldr	r2, .L141+28
 1214              		.loc 1 219 0
 1215 0538 1E84     		strh	r6, [r3, #32]	@ movhi
 1216              		.loc 1 211 0
 1217 053a 92FBF1F1 		sdiv	r1, r2, r1
 1218              		.loc 1 216 0
 1219 053e C1F30B01 		ubfx	r1, r1, #0, #12
 1220              	.LVL76:
 1221 0542 ADE7     		b	.L123
 1222              	.LVL77:
 1223              	.L128:
 1224              	.LBE28:
 1225              	.LBE37:
 1226              	.LBB38:
 1227              	.LBB34:
 1228              		.loc 1 280 0
 1229 0544 42F00A02 		orr	r2, r2, #10
 1230              	.LVL78:
 1231 0548 B4E7     		b	.L126
 1232              	.L127:
 1233              	.LVL79:
 1234              		.loc 1 277 0
 1235 054a 22F00802 		bic	r2, r2, #8
 1236              	.LVL80:
 1237 054e 92B2     		uxth	r2, r2
 1238 0550 42F00202 		orr	r2, r2, #2
 1239              	.LVL81:
 1240 0554 AEE7     		b	.L126
 1241              	.LVL82:
 1242              	.L138:
 1243              	.LBE34:
 1244              	.LBE38:
 1245              	.LBB39:
 1246              	.LBB29:
ARM GAS  /tmp/cc12Onaq.s 			page 23


 1247              		.loc 1 239 0
 1248 0556 04EB8401 		add	r1, r4, r4, lsl #2
 1249 055a 01EB8101 		add	r1, r1, r1, lsl #2
 1250 055e 294A     		ldr	r2, .L141+28
 1251 0560 92FBF1F1 		sdiv	r1, r2, r1
 1252 0564 6FEA8141 		mvn	r1, r1, lsl #18
 1253 0568 6FEA9141 		mvn	r1, r1, lsr #18
 1254 056c 89B2     		uxth	r1, r1
 1255 056e 95E7     		b	.L125
 1256              	.LVL83:
 1257              	.L137:
 1258              		.loc 1 232 0
 1259 0570 02F11E72 		add	r2, r2, #41418752
 1260 0574 04EB4401 		add	r1, r4, r4, lsl #1
 1261 0578 02F53132 		add	r2, r2, #181248
 1262 057c 92FBF1F1 		sdiv	r1, r2, r1
 1263 0580 6FEA4141 		mvn	r1, r1, lsl #17
 1264 0584 6FEA5141 		mvn	r1, r1, lsr #17
 1265 0588 89B2     		uxth	r1, r1
 1266 058a 87E7     		b	.L125
 1267              	.LVL84:
 1268              	.L140:
 1269              	.LBE29:
 1270              	.LBE39:
 1271              	.LBB40:
 1272              		.loc 1 604 0
 1273 058c 1A4E     		ldr	r6, .L141+16
 1274              		.loc 1 605 0
 1275 058e C06A     		ldr	r0, [r0, #44]
 1276              	.LVL85:
 1277              		.loc 1 604 0
 1278 0590 336A     		ldr	r3, [r6, #32]
 1279              		.loc 1 605 0
 1280 0592 1A4A     		ldr	r2, .L141+20
 1281              		.loc 1 604 0
 1282 0594 43F40013 		orr	r3, r3, #2097152
 1283 0598 0027     		movs	r7, #0
 1284 059a 3362     		str	r3, [r6, #32]
 1285              		.loc 1 605 0
 1286 059c 0521     		movs	r1, #5
 1287 059e 2346     		mov	r3, r4
 1288              		.loc 1 604 0
 1289 05a0 3762     		str	r7, [r6, #32]
 1290              		.loc 1 605 0
 1291 05a2 FFF7FEFF 		bl	dmaStreamAllocate
 1292              	.LVL86:
 1293              		.loc 1 610 0
 1294 05a6 164A     		ldr	r2, .L141+24
 1295 05a8 206B     		ldr	r0, [r4, #48]
 1296 05aa 0521     		movs	r1, #5
 1297 05ac 2346     		mov	r3, r4
 1298 05ae FFF7FEFF 		bl	dmaStreamAllocate
 1299              	.LVL87:
 1300              		.loc 1 615 0
 1301 05b2 336C     		ldr	r3, [r6, #64]
 1302 05b4 43F40013 		orr	r3, r3, #2097152
 1303 05b8 3364     		str	r3, [r6, #64]
ARM GAS  /tmp/cc12Onaq.s 			page 24


 1304              		.loc 1 616 0
 1305 05ba 1F20     		movs	r0, #31
 1306 05bc 5021     		movs	r1, #80
 1307 05be FFF7FEFF 		bl	nvicEnableVector
 1308              	.LVL88:
 1309              		.loc 1 618 0
 1310 05c2 5021     		movs	r1, #80
 1311 05c4 2020     		movs	r0, #32
 1312 05c6 FFF7FEFF 		bl	nvicEnableVector
 1313              	.LVL89:
 1314              		.loc 1 621 0
 1315 05ca 616A     		ldr	r1, [r4, #36]
 1316              		.loc 1 623 0
 1317 05cc A26A     		ldr	r2, [r4, #40]
 1318 05ce 636B     		ldr	r3, [r4, #52]
 1319              		.loc 1 621 0
 1320 05d0 41F00071 		orr	r1, r1, #33554432
 1321              		.loc 1 623 0
 1322 05d4 42F00072 		orr	r2, r2, #33554432
 1323              		.loc 1 621 0
 1324 05d8 41F44031 		orr	r1, r1, #196608
 1325              		.loc 1 623 0
 1326 05dc 42F44032 		orr	r2, r2, #196608
 1327              		.loc 1 621 0
 1328 05e0 6162     		str	r1, [r4, #36]
 1329              		.loc 1 623 0
 1330 05e2 A262     		str	r2, [r4, #40]
 1331 05e4 2AE7     		b	.L120
 1332              	.L142:
 1333 05e6 00BF     		.align	2
 1334              	.L141:
 1335 05e8 A0860100 		.word	100000
 1336 05ec 801A0600 		.word	400000
 1337 05f0 00000000 		.word	I2CD1
 1338 05f4 00000000 		.word	I2CD2
 1339 05f8 00380240 		.word	1073887232
 1340 05fc 00000000 		.word	i2c_lld_serve_rx_end_irq
 1341 0600 00000000 		.word	i2c_lld_serve_tx_end_irq
 1342 0604 80DE8002 		.word	42000000
 1343              	.LBE40:
 1344              		.cfi_endproc
 1345              	.LFE143:
 1346              		.size	i2c_lld_start, .-i2c_lld_start
 1347              		.align	2
 1348 0608 AFF30080 		.p2align 4,,15
 1348      AFF30080 
 1349              		.global	i2c_lld_stop
 1350              		.thumb
 1351              		.thumb_func
 1352              		.type	i2c_lld_stop, %function
 1353              	i2c_lld_stop:
 1354              	.LFB144:
 1355              		.loc 1 709 0
 1356              		.cfi_startproc
 1357              		@ args = 0, pretend = 0, frame = 0
 1358              		@ frame_needed = 0, uses_anonymous_args = 0
 1359              	.LVL90:
ARM GAS  /tmp/cc12Onaq.s 			page 25


 1360              		.loc 1 712 0
 1361 0610 0378     		ldrb	r3, [r0]	@ zero_extendqisi2
 1362 0612 012B     		cmp	r3, #1
 1363              		.loc 1 709 0
 1364 0614 10B5     		push	{r4, lr}
 1365              		.cfi_def_cfa_offset 8
 1366              		.cfi_offset 4, -8
 1367              		.cfi_offset 14, -4
 1368              		.loc 1 709 0
 1369 0616 0446     		mov	r4, r0
 1370              		.loc 1 712 0
 1371 0618 0DD0     		beq	.L143
 1372              		.loc 1 715 0
 1373 061a FFF7F1FC 		bl	i2c_lld_abort_operation
 1374              	.LVL91:
 1375              		.loc 1 716 0
 1376 061e 206B     		ldr	r0, [r4, #48]
 1377 0620 FFF7FEFF 		bl	dmaStreamRelease
 1378              	.LVL92:
 1379              		.loc 1 717 0
 1380 0624 E06A     		ldr	r0, [r4, #44]
 1381 0626 FFF7FEFF 		bl	dmaStreamRelease
 1382              	.LVL93:
 1383              		.loc 1 720 0
 1384 062a 0F4B     		ldr	r3, .L151
 1385 062c 9C42     		cmp	r4, r3
 1386 062e 0FD0     		beq	.L149
 1387              		.loc 1 728 0
 1388 0630 0E4B     		ldr	r3, .L151+4
 1389 0632 9C42     		cmp	r4, r3
 1390 0634 00D0     		beq	.L150
 1391              	.L143:
 1392 0636 10BD     		pop	{r4, pc}
 1393              	.LVL94:
 1394              	.L150:
 1395              		.loc 1 729 0
 1396 0638 2120     		movs	r0, #33
 1397 063a FFF7FEFF 		bl	nvicDisableVector
 1398              	.LVL95:
 1399              		.loc 1 730 0
 1400 063e 2220     		movs	r0, #34
 1401 0640 FFF7FEFF 		bl	nvicDisableVector
 1402              	.LVL96:
 1403              		.loc 1 731 0
 1404 0644 0A4A     		ldr	r2, .L151+8
 1405 0646 136C     		ldr	r3, [r2, #64]
 1406 0648 23F48003 		bic	r3, r3, #4194304
 1407 064c 1364     		str	r3, [r2, #64]
 1408 064e F2E7     		b	.L143
 1409              	.L149:
 1410              		.loc 1 721 0
 1411 0650 1F20     		movs	r0, #31
 1412 0652 FFF7FEFF 		bl	nvicDisableVector
 1413              	.LVL97:
 1414              		.loc 1 722 0
 1415 0656 2020     		movs	r0, #32
 1416 0658 FFF7FEFF 		bl	nvicDisableVector
ARM GAS  /tmp/cc12Onaq.s 			page 26


 1417              	.LVL98:
 1418              		.loc 1 723 0
 1419 065c 044A     		ldr	r2, .L151+8
 1420 065e 136C     		ldr	r3, [r2, #64]
 1421 0660 23F40013 		bic	r3, r3, #2097152
 1422 0664 1364     		str	r3, [r2, #64]
 1423 0666 10BD     		pop	{r4, pc}
 1424              	.LVL99:
 1425              	.L152:
 1426              		.align	2
 1427              	.L151:
 1428 0668 00000000 		.word	I2CD1
 1429 066c 00000000 		.word	I2CD2
 1430 0670 00380240 		.word	1073887232
 1431              		.cfi_endproc
 1432              	.LFE144:
 1433              		.size	i2c_lld_stop, .-i2c_lld_stop
 1434              		.align	2
 1435 0674 AFF30080 		.p2align 4,,15
 1435      AFF30080 
 1435      AFF30080 
 1436              		.global	i2c_lld_master_receive_timeout
 1437              		.thumb
 1438              		.thumb_func
 1439              		.type	i2c_lld_master_receive_timeout, %function
 1440              	i2c_lld_master_receive_timeout:
 1441              	.LFB145:
 1442              		.loc 1 770 0
 1443              		.cfi_startproc
 1444              		@ args = 4, pretend = 0, frame = 24
 1445              		@ frame_needed = 0, uses_anonymous_args = 0
 1446              	.LVL100:
 1447 0680 2DE9F043 		push	{r4, r5, r6, r7, r8, r9, lr}
 1448              		.cfi_def_cfa_offset 28
 1449              		.cfi_offset 4, -28
 1450              		.cfi_offset 5, -24
 1451              		.cfi_offset 6, -20
 1452              		.cfi_offset 7, -16
 1453              		.cfi_offset 8, -12
 1454              		.cfi_offset 9, -8
 1455              		.cfi_offset 14, -4
 1456 0684 87B0     		sub	sp, sp, #28
 1457              		.cfi_def_cfa_offset 56
 1458              		.loc 1 770 0
 1459 0686 0646     		mov	r6, r0
 1460 0688 0E9D     		ldr	r5, [sp, #56]
 1461              		.loc 1 771 0
 1462 068a 446B     		ldr	r4, [r0, #52]
 1463              	.LVL101:
 1464              		.loc 1 779 0
 1465 068c 681C     		adds	r0, r5, #1
 1466              	.LVL102:
 1467              		.loc 1 770 0
 1468 068e 0F46     		mov	r7, r1
 1469 0690 9146     		mov	r9, r2
 1470 0692 9846     		mov	r8, r3
 1471              		.loc 1 779 0
ARM GAS  /tmp/cc12Onaq.s 			page 27


 1472 0694 05D0     		beq	.L154
 1473              		.loc 1 780 0
 1474 0696 01A8     		add	r0, sp, #4
 1475 0698 2946     		mov	r1, r5
 1476              	.LVL103:
 1477 069a 2F4A     		ldr	r2, .L177
 1478              	.LVL104:
 1479 069c 3346     		mov	r3, r6
 1480              	.LVL105:
 1481 069e FFF7FEFF 		bl	chVTSetI
 1482              	.LVL106:
 1483              	.L154:
 1484              	.LBB41:
 1485              		.loc 1 783 0
 1486 06a2 0023     		movs	r3, #0
 1487              	@ 783 "/home/sbcu/Dropbox/pcb-layouts/axo-on-discovery-board/axoloti/platform_linux/../chibios/os/h
 1488 06a4 83F31188 		msr     BASEPRI, r3
 1489              	@ 0 "" 2
 1490              		.thumb
 1491              	.LBE41:
 1492              		.loc 1 790 0
 1493 06a8 F16A     		ldr	r1, [r6, #44]
 1494 06aa 726A     		ldr	r2, [r6, #36]
 1495 06ac 0968     		ldr	r1, [r1]
 1496              		.loc 1 787 0
 1497 06ae B360     		str	r3, [r6, #8]
 1498              		.loc 1 786 0
 1499 06b0 7F00     		lsls	r7, r7, #1
 1500 06b2 47F00107 		orr	r7, r7, #1
 1501 06b6 3784     		strh	r7, [r6, #32]	@ movhi
 1502              		.loc 1 790 0
 1503 06b8 0A60     		str	r2, [r1]
 1504              		.loc 1 791 0
 1505 06ba C1F80C90 		str	r9, [r1, #12]
 1506              		.loc 1 792 0
 1507 06be C1F80480 		str	r8, [r1, #4]
 1508              		.loc 1 796 0
 1509 06c2 02E0     		b	.L155
 1510              	.L156:
 1511              	.LBB42:
 1512              		.loc 1 800 0
 1513 06c4 0023     		movs	r3, #0
 1514              	@ 800 "/home/sbcu/Dropbox/pcb-layouts/axo-on-discovery-board/axoloti/platform_linux/../chibios/os/h
 1515 06c6 83F31188 		msr     BASEPRI, r3
 1516              	@ 0 "" 2
 1517              		.thumb
 1518              	.L155:
 1519              	.LBE42:
 1520              		.loc 1 796 0
 1521 06ca 238B     		ldrh	r3, [r4, #24]
 1522 06cc 13F0020F 		tst	r3, #2
 1523              	.LBB43:
 1524              		.loc 1 797 0
 1525 06d0 4FF02003 		mov	r3, #32
 1526              	.LBE43:
 1527              		.loc 1 796 0
 1528 06d4 02D1     		bne	.L158
ARM GAS  /tmp/cc12Onaq.s 			page 28


 1529              		.loc 1 796 0 is_stmt 0 discriminator 1
 1530 06d6 2288     		ldrh	r2, [r4]
 1531 06d8 9205     		lsls	r2, r2, #22
 1532 06da 0BD5     		bpl	.L176
 1533              	.L158:
 1534              	.LBB44:
 1535              		.loc 1 797 0 is_stmt 1
 1536              	@ 797 "/home/sbcu/Dropbox/pcb-layouts/axo-on-discovery-board/axoloti/platform_linux/../chibios/os/h
 1537 06dc 83F31188 		msr     BASEPRI, r3
 1538              	@ 0 "" 2
 1539              		.thumb
 1540              	.LBE44:
 1541              		.loc 1 798 0
 1542 06e0 691C     		adds	r1, r5, #1
 1543 06e2 EFD0     		beq	.L156
 1544              		.loc 1 798 0 is_stmt 0 discriminator 1
 1545 06e4 049B     		ldr	r3, [sp, #16]
 1546 06e6 002B     		cmp	r3, #0
 1547 06e8 ECD1     		bne	.L156
 1548              	.L160:
 1549              		.loc 1 799 0 is_stmt 1
 1550 06ea 4FF0FF30 		mov	r0, #-1
 1551              		.loc 1 822 0
 1552 06ee 07B0     		add	sp, sp, #28
 1553              		.cfi_remember_state
 1554              		.cfi_def_cfa_offset 28
 1555              		@ sp needed
 1556 06f0 BDE8F083 		pop	{r4, r5, r6, r7, r8, r9, pc}
 1557              	.LVL107:
 1558              	.L176:
 1559              		.cfi_restore_state
 1560              	.LBB45:
 1561              		.loc 1 804 0
 1562              	@ 804 "/home/sbcu/Dropbox/pcb-layouts/axo-on-discovery-board/axoloti/platform_linux/../chibios/os/h
 1563 06f4 83F31188 		msr     BASEPRI, r3
 1564              	@ 0 "" 2
 1565              		.thumb
 1566              	.LBE45:
 1567              		.loc 1 808 0
 1568 06f8 0135     		adds	r5, r5, #1
 1569 06fa 1CD0     		beq	.L159
 1570              		.loc 1 808 0 is_stmt 0 discriminator 1
 1571 06fc 049B     		ldr	r3, [sp, #16]
 1572 06fe 002B     		cmp	r3, #0
 1573 0700 F3D0     		beq	.L160
 1574              		.loc 1 812 0 is_stmt 1
 1575 0702 A388     		ldrh	r3, [r4, #4]
 1576              		.loc 1 816 0
 1577 0704 154D     		ldr	r5, .L177+4
 1578              		.loc 1 812 0
 1579 0706 9BB2     		uxth	r3, r3
 1580 0708 43F40073 		orr	r3, r3, #512
 1581 070c A380     		strh	r3, [r4, #4]	@ movhi
 1582              		.loc 1 813 0
 1583 070e 2388     		ldrh	r3, [r4]
 1584              		.loc 1 816 0
 1585 0710 AA69     		ldr	r2, [r5, #24]
ARM GAS  /tmp/cc12Onaq.s 			page 29


 1586              		.loc 1 813 0
 1587 0712 9BB2     		uxth	r3, r3
 1588 0714 43F4A063 		orr	r3, r3, #1280
 1589 0718 2380     		strh	r3, [r4]	@ movhi
 1590              		.loc 1 817 0
 1591 071a 0220     		movs	r0, #2
 1592              		.loc 1 816 0
 1593 071c F261     		str	r2, [r6, #28]
 1594              		.loc 1 817 0
 1595 071e FFF7FEFF 		bl	chSchGoSleepS
 1596              	.LVL108:
 1597              		.loc 1 818 0
 1598 0722 049B     		ldr	r3, [sp, #16]
 1599 0724 13B1     		cbz	r3, .L162
 1600              		.loc 1 819 0
 1601 0726 01A8     		add	r0, sp, #4
 1602 0728 FFF7FEFF 		bl	chVTResetI
 1603              	.LVL109:
 1604              	.L162:
 1605              		.loc 1 821 0
 1606 072c AB69     		ldr	r3, [r5, #24]
 1607 072e 186A     		ldr	r0, [r3, #32]
 1608              		.loc 1 822 0
 1609 0730 07B0     		add	sp, sp, #28
 1610              		.cfi_remember_state
 1611              		.cfi_def_cfa_offset 28
 1612              		@ sp needed
 1613 0732 BDE8F083 		pop	{r4, r5, r6, r7, r8, r9, pc}
 1614              	.LVL110:
 1615              	.L159:
 1616              		.cfi_restore_state
 1617              		.loc 1 812 0
 1618 0736 A388     		ldrh	r3, [r4, #4]
 1619              		.loc 1 816 0
 1620 0738 084D     		ldr	r5, .L177+4
 1621              		.loc 1 812 0
 1622 073a 9BB2     		uxth	r3, r3
 1623 073c 43F40073 		orr	r3, r3, #512
 1624 0740 A380     		strh	r3, [r4, #4]	@ movhi
 1625              		.loc 1 813 0
 1626 0742 2388     		ldrh	r3, [r4]
 1627              		.loc 1 816 0
 1628 0744 AA69     		ldr	r2, [r5, #24]
 1629              		.loc 1 813 0
 1630 0746 9BB2     		uxth	r3, r3
 1631 0748 43F4A063 		orr	r3, r3, #1280
 1632 074c 2380     		strh	r3, [r4]	@ movhi
 1633              		.loc 1 817 0
 1634 074e 0220     		movs	r0, #2
 1635              		.loc 1 816 0
 1636 0750 F261     		str	r2, [r6, #28]
 1637              		.loc 1 817 0
 1638 0752 FFF7FEFF 		bl	chSchGoSleepS
 1639              	.LVL111:
 1640 0756 E9E7     		b	.L162
 1641              	.L178:
 1642              		.align	2
ARM GAS  /tmp/cc12Onaq.s 			page 30


 1643              	.L177:
 1644 0758 00000000 		.word	i2c_lld_safety_timeout
 1645 075c 00000000 		.word	rlist
 1646              		.cfi_endproc
 1647              	.LFE145:
 1648              		.size	i2c_lld_master_receive_timeout, .-i2c_lld_master_receive_timeout
 1649              		.align	2
 1650              		.p2align 4,,15
 1651              		.global	i2c_lld_master_transmit_timeout
 1652              		.thumb
 1653              		.thumb_func
 1654              		.type	i2c_lld_master_transmit_timeout, %function
 1655              	i2c_lld_master_transmit_timeout:
 1656              	.LFB146:
 1657              		.loc 1 852 0
 1658              		.cfi_startproc
 1659              		@ args = 12, pretend = 0, frame = 24
 1660              		@ frame_needed = 0, uses_anonymous_args = 0
 1661              	.LVL112:
 1662 0760 2DE9F043 		push	{r4, r5, r6, r7, r8, r9, lr}
 1663              		.cfi_def_cfa_offset 28
 1664              		.cfi_offset 4, -28
 1665              		.cfi_offset 5, -24
 1666              		.cfi_offset 6, -20
 1667              		.cfi_offset 7, -16
 1668              		.cfi_offset 8, -12
 1669              		.cfi_offset 9, -8
 1670              		.cfi_offset 14, -4
 1671 0764 87B0     		sub	sp, sp, #28
 1672              		.cfi_def_cfa_offset 56
 1673              		.loc 1 852 0
 1674 0766 8046     		mov	r8, r0
 1675 0768 109D     		ldr	r5, [sp, #64]
 1676              		.loc 1 853 0
 1677 076a 446B     		ldr	r4, [r0, #52]
 1678              	.LVL113:
 1679              		.loc 1 862 0
 1680 076c 681C     		adds	r0, r5, #1
 1681              	.LVL114:
 1682              		.loc 1 852 0
 1683 076e 8946     		mov	r9, r1
 1684 0770 1746     		mov	r7, r2
 1685 0772 1E46     		mov	r6, r3
 1686              		.loc 1 862 0
 1687 0774 05D0     		beq	.L180
 1688              		.loc 1 863 0
 1689 0776 01A8     		add	r0, sp, #4
 1690 0778 2946     		mov	r1, r5
 1691              	.LVL115:
 1692 077a 364A     		ldr	r2, .L203
 1693              	.LVL116:
 1694 077c 4346     		mov	r3, r8
 1695              	.LVL117:
 1696 077e FFF7FEFF 		bl	chVTSetI
 1697              	.LVL118:
 1698              	.L180:
 1699              	.LBB46:
ARM GAS  /tmp/cc12Onaq.s 			page 31


 1700              		.loc 1 866 0
 1701 0782 0023     		movs	r3, #0
 1702              	@ 866 "/home/sbcu/Dropbox/pcb-layouts/axo-on-discovery-board/axoloti/platform_linux/../chibios/os/h
 1703 0784 83F31188 		msr     BASEPRI, r3
 1704              	@ 0 "" 2
 1705              		.thumb
 1706              	.LBE46:
 1707              		.loc 1 873 0
 1708 0788 D8F83010 		ldr	r1, [r8, #48]
 1709              		.loc 1 878 0
 1710 078c D8F82C20 		ldr	r2, [r8, #44]
 1711              		.loc 1 873 0
 1712 0790 0968     		ldr	r1, [r1]
 1713              		.loc 1 878 0
 1714 0792 1268     		ldr	r2, [r2]
 1715              		.loc 1 870 0
 1716 0794 C8F80830 		str	r3, [r8, #8]
 1717              		.loc 1 869 0
 1718 0798 4FEA4909 		lsl	r9, r9, #1
 1719              		.loc 1 873 0
 1720 079c D8F82830 		ldr	r3, [r8, #40]
 1721              		.loc 1 878 0
 1722 07a0 D8F82400 		ldr	r0, [r8, #36]
 1723              		.loc 1 869 0
 1724 07a4 A8F82090 		strh	r9, [r8, #32]	@ movhi
 1725              		.loc 1 873 0
 1726 07a8 0B60     		str	r3, [r1]
 1727              		.loc 1 879 0
 1728 07aa 0E9B     		ldr	r3, [sp, #56]
 1729              		.loc 1 874 0
 1730 07ac CF60     		str	r7, [r1, #12]
 1731              		.loc 1 875 0
 1732 07ae 4E60     		str	r6, [r1, #4]
 1733              		.loc 1 878 0
 1734 07b0 1060     		str	r0, [r2]
 1735              		.loc 1 879 0
 1736 07b2 D360     		str	r3, [r2, #12]
 1737              		.loc 1 880 0
 1738 07b4 0F9B     		ldr	r3, [sp, #60]
 1739 07b6 5360     		str	r3, [r2, #4]
 1740              		.loc 1 884 0
 1741 07b8 02E0     		b	.L181
 1742              	.L182:
 1743              	.LBB47:
 1744              		.loc 1 888 0
 1745 07ba 0023     		movs	r3, #0
 1746              	@ 888 "/home/sbcu/Dropbox/pcb-layouts/axo-on-discovery-board/axoloti/platform_linux/../chibios/os/h
 1747 07bc 83F31188 		msr     BASEPRI, r3
 1748              	@ 0 "" 2
 1749              		.thumb
 1750              	.L181:
 1751              	.LBE47:
 1752              		.loc 1 884 0
 1753 07c0 238B     		ldrh	r3, [r4, #24]
 1754 07c2 13F0020F 		tst	r3, #2
 1755              	.LBB48:
 1756              		.loc 1 885 0
ARM GAS  /tmp/cc12Onaq.s 			page 32


 1757 07c6 4FF02003 		mov	r3, #32
 1758              	.LBE48:
 1759              		.loc 1 884 0
 1760 07ca 02D1     		bne	.L184
 1761              		.loc 1 884 0 is_stmt 0 discriminator 1
 1762 07cc 2288     		ldrh	r2, [r4]
 1763 07ce 9205     		lsls	r2, r2, #22
 1764 07d0 0BD5     		bpl	.L202
 1765              	.L184:
 1766              	.LBB49:
 1767              		.loc 1 885 0 is_stmt 1
 1768              	@ 885 "/home/sbcu/Dropbox/pcb-layouts/axo-on-discovery-board/axoloti/platform_linux/../chibios/os/h
 1769 07d2 83F31188 		msr     BASEPRI, r3
 1770              	@ 0 "" 2
 1771              		.thumb
 1772              	.LBE49:
 1773              		.loc 1 886 0
 1774 07d6 691C     		adds	r1, r5, #1
 1775 07d8 EFD0     		beq	.L182
 1776              		.loc 1 886 0 is_stmt 0 discriminator 1
 1777 07da 049B     		ldr	r3, [sp, #16]
 1778 07dc 002B     		cmp	r3, #0
 1779 07de ECD1     		bne	.L182
 1780              	.L186:
 1781              		.loc 1 887 0 is_stmt 1
 1782 07e0 4FF0FF30 		mov	r0, #-1
 1783              		.loc 1 910 0
 1784 07e4 07B0     		add	sp, sp, #28
 1785              		.cfi_remember_state
 1786              		.cfi_def_cfa_offset 28
 1787              		@ sp needed
 1788 07e6 BDE8F083 		pop	{r4, r5, r6, r7, r8, r9, pc}
 1789              	.LVL119:
 1790              	.L202:
 1791              		.cfi_restore_state
 1792              	.LBB50:
 1793              		.loc 1 892 0
 1794              	@ 892 "/home/sbcu/Dropbox/pcb-layouts/axo-on-discovery-board/axoloti/platform_linux/../chibios/os/h
 1795 07ea 83F31188 		msr     BASEPRI, r3
 1796              	@ 0 "" 2
 1797              		.thumb
 1798              	.LBE50:
 1799              		.loc 1 896 0
 1800 07ee 0135     		adds	r5, r5, #1
 1801 07f0 1DD0     		beq	.L185
 1802              		.loc 1 896 0 is_stmt 0 discriminator 1
 1803 07f2 049B     		ldr	r3, [sp, #16]
 1804 07f4 002B     		cmp	r3, #0
 1805 07f6 F3D0     		beq	.L186
 1806              		.loc 1 900 0 is_stmt 1
 1807 07f8 A388     		ldrh	r3, [r4, #4]
 1808              		.loc 1 904 0
 1809 07fa 174D     		ldr	r5, .L203+4
 1810              		.loc 1 900 0
 1811 07fc 9BB2     		uxth	r3, r3
 1812 07fe 43F40073 		orr	r3, r3, #512
 1813 0802 A380     		strh	r3, [r4, #4]	@ movhi
ARM GAS  /tmp/cc12Onaq.s 			page 33


 1814              		.loc 1 901 0
 1815 0804 2388     		ldrh	r3, [r4]
 1816              		.loc 1 904 0
 1817 0806 AA69     		ldr	r2, [r5, #24]
 1818              		.loc 1 901 0
 1819 0808 9BB2     		uxth	r3, r3
 1820 080a 43F48073 		orr	r3, r3, #256
 1821 080e 2380     		strh	r3, [r4]	@ movhi
 1822              		.loc 1 905 0
 1823 0810 0220     		movs	r0, #2
 1824              		.loc 1 904 0
 1825 0812 C8F81C20 		str	r2, [r8, #28]
 1826              		.loc 1 905 0
 1827 0816 FFF7FEFF 		bl	chSchGoSleepS
 1828              	.LVL120:
 1829              		.loc 1 906 0
 1830 081a 049B     		ldr	r3, [sp, #16]
 1831 081c 13B1     		cbz	r3, .L188
 1832              		.loc 1 907 0
 1833 081e 01A8     		add	r0, sp, #4
 1834 0820 FFF7FEFF 		bl	chVTResetI
 1835              	.LVL121:
 1836              	.L188:
 1837              		.loc 1 909 0
 1838 0824 AB69     		ldr	r3, [r5, #24]
 1839 0826 186A     		ldr	r0, [r3, #32]
 1840              		.loc 1 910 0
 1841 0828 07B0     		add	sp, sp, #28
 1842              		.cfi_remember_state
 1843              		.cfi_def_cfa_offset 28
 1844              		@ sp needed
 1845 082a BDE8F083 		pop	{r4, r5, r6, r7, r8, r9, pc}
 1846              	.LVL122:
 1847              	.L185:
 1848              		.cfi_restore_state
 1849              		.loc 1 900 0
 1850 082e A388     		ldrh	r3, [r4, #4]
 1851              		.loc 1 904 0
 1852 0830 094D     		ldr	r5, .L203+4
 1853              		.loc 1 900 0
 1854 0832 9BB2     		uxth	r3, r3
 1855 0834 43F40073 		orr	r3, r3, #512
 1856 0838 A380     		strh	r3, [r4, #4]	@ movhi
 1857              		.loc 1 901 0
 1858 083a 2388     		ldrh	r3, [r4]
 1859              		.loc 1 904 0
 1860 083c AA69     		ldr	r2, [r5, #24]
 1861              		.loc 1 901 0
 1862 083e 9BB2     		uxth	r3, r3
 1863 0840 43F48073 		orr	r3, r3, #256
 1864 0844 2380     		strh	r3, [r4]	@ movhi
 1865              		.loc 1 905 0
 1866 0846 0220     		movs	r0, #2
 1867              		.loc 1 904 0
 1868 0848 C8F81C20 		str	r2, [r8, #28]
 1869              		.loc 1 905 0
 1870 084c FFF7FEFF 		bl	chSchGoSleepS
ARM GAS  /tmp/cc12Onaq.s 			page 34


 1871              	.LVL123:
 1872 0850 E8E7     		b	.L188
 1873              	.L204:
 1874 0852 00BF     		.align	2
 1875              	.L203:
 1876 0854 00000000 		.word	i2c_lld_safety_timeout
 1877 0858 00000000 		.word	rlist
 1878              		.cfi_endproc
 1879              	.LFE146:
 1880              		.size	i2c_lld_master_transmit_timeout, .-i2c_lld_master_transmit_timeout
 1881              		.comm	I2CD2,56,4
 1882              		.comm	I2CD1,56,4
 1883              	.Letext0:
 1884              		.file 2 "/home/sbcu/Dropbox/pcb-layouts/axo-on-discovery-board/axoloti/platform_linux/lib/gcc/arm-
 1885              		.file 3 "/home/sbcu/Dropbox/pcb-layouts/axo-on-discovery-board/axoloti/platform_linux/arm-none-eab
 1886              		.file 4 "/home/sbcu/Dropbox/pcb-layouts/axo-on-discovery-board/axoloti/platform_linux/arm-none-eab
 1887              		.file 5 "/home/sbcu/Dropbox/pcb-layouts/axo-on-discovery-board/axoloti/platform_linux/../chibios/o
 1888              		.file 6 "/home/sbcu/Dropbox/pcb-layouts/axo-on-discovery-board/axoloti/platform_linux/../chibios/o
 1889              		.file 7 "/home/sbcu/Dropbox/pcb-layouts/axo-on-discovery-board/axoloti/platform_linux/../chibios/o
 1890              		.file 8 "/home/sbcu/Dropbox/pcb-layouts/axo-on-discovery-board/axoloti/platform_linux/../chibios/o
 1891              		.file 9 "/home/sbcu/Dropbox/pcb-layouts/axo-on-discovery-board/axoloti/platform_linux/../chibios/o
 1892              		.file 10 "/home/sbcu/Dropbox/pcb-layouts/axo-on-discovery-board/axoloti/platform_linux/../chibios/
 1893              		.file 11 "/home/sbcu/Dropbox/pcb-layouts/axo-on-discovery-board/axoloti/platform_linux/../chibios/
 1894              		.file 12 "/home/sbcu/Dropbox/pcb-layouts/axo-on-discovery-board/axoloti/platform_linux/../chibios/
 1895              		.file 13 "/home/sbcu/Dropbox/pcb-layouts/axo-on-discovery-board/axoloti/platform_linux/../chibios/
 1896              		.file 14 "/home/sbcu/Dropbox/pcb-layouts/axo-on-discovery-board/axoloti/platform_linux/../chibios/
 1897              		.file 15 "/home/sbcu/Dropbox/pcb-layouts/axo-on-discovery-board/axoloti/platform_linux/../chibios/
 1898              		.file 16 "/home/sbcu/Dropbox/pcb-layouts/axo-on-discovery-board/axoloti/platform_linux/../CMSIS//I
 1899              		.file 17 "/home/sbcu/Dropbox/pcb-layouts/axo-on-discovery-board/axoloti/platform_linux/../chibios/