ARM GAS  /tmp/cc15MIRe.s 			page 1


   1              		.syntax unified
   2              		.cpu cortex-m4
   3              		.eabi_attribute 27, 1
   4              		.eabi_attribute 28, 1
   5              		.fpu fpv4-sp-d16
   6              		.eabi_attribute 20, 1
   7              		.eabi_attribute 21, 1
   8              		.eabi_attribute 23, 3
   9              		.eabi_attribute 24, 1
  10              		.eabi_attribute 25, 1
  11              		.eabi_attribute 26, 1
  12              		.eabi_attribute 30, 2
  13              		.eabi_attribute 34, 1
  14              		.eabi_attribute 18, 4
  15              		.thumb
  16              		.file	"lorenz_generator.cpp"
  17              		.text
  18              	.Ltext0:
  19              		.cfi_sections	.debug_frame
  20              		.align	2
  21              		.p2align 4,,15
  22              		.global	_ZN7streams15LorenzGenerator4InitEv
  23              		.thumb
  24              		.thumb_func
  25              		.type	_ZN7streams15LorenzGenerator4InitEv, %function
  26              	_ZN7streams15LorenzGenerator4InitEv:
  27              		.fnstart
  28              	.LFB11:
  29              		.file 1 "./mutable_instruments/streams/lorenz_generator.cpp"
  30              		.loc 1 41 0
  31              		.cfi_startproc
  32              		@ args = 0, pretend = 0, frame = 0
  33              		@ frame_needed = 0, uses_anonymous_args = 0
  34              		@ link register save eliminated.
  35              	.LVL0:
  36              		.loc 1 42 0
  37 0000 034B     		ldr	r3, .L2
  38 0002 0360     		str	r3, [r0]
  39              		.loc 1 43 0
  40 0004 0023     		movs	r3, #0
  41 0006 4360     		str	r3, [r0, #4]
  42              		.loc 1 44 0
  43 0008 8360     		str	r3, [r0, #8]
  44              		.loc 1 45 0
  45 000a 0361     		str	r3, [r0, #16]
  46              		.loc 1 46 0
  47 000c 4361     		str	r3, [r0, #20]
  48 000e 7047     		bx	lr
  49              	.L3:
  50              		.align	2
  51              	.L2:
  52 0010 99991900 		.word	1677721
  53              		.cfi_endproc
  54              	.LFE11:
  55              		.cantunwind
  56              		.fnend
  57              		.size	_ZN7streams15LorenzGenerator4InitEv, .-_ZN7streams15LorenzGenerator4InitEv
ARM GAS  /tmp/cc15MIRe.s 			page 2


  58              		.align	2
  59 0014 AFF30080 		.p2align 4,,15
  59      AFF30080 
  59      AFF30080 
  60              		.global	_ZN7streams15LorenzGenerator7ProcessEssPtS1_
  61              		.thumb
  62              		.thumb_func
  63              		.type	_ZN7streams15LorenzGenerator7ProcessEssPtS1_, %function
  64              	_ZN7streams15LorenzGenerator7ProcessEssPtS1_:
  65              		.fnstart
  66              	.LFB12:
  67              		.loc 1 53 0
  68              		.cfi_startproc
  69              		@ args = 4, pretend = 0, frame = 24
  70              		@ frame_needed = 0, uses_anonymous_args = 0
  71              	.LVL1:
  72 0020 2DE9F04F 		push	{r4, r5, r6, r7, r8, r9, r10, fp, lr}
  73              		.cfi_def_cfa_offset 36
  74              		.cfi_offset 4, -36
  75              		.cfi_offset 5, -32
  76              		.cfi_offset 6, -28
  77              		.cfi_offset 7, -24
  78              		.cfi_offset 8, -20
  79              		.cfi_offset 9, -16
  80              		.cfi_offset 10, -12
  81              		.cfi_offset 11, -8
  82              		.cfi_offset 14, -4
  83 0024 87B0     		sub	sp, sp, #28
  84              		.cfi_def_cfa_offset 64
  85              	.LBB2:
  86              		.loc 1 55 0
  87 0026 C169     		ldr	r1, [r0, #28]
  88              	.LVL2:
  89 0028 0591     		str	r1, [sp, #20]
  90              		.loc 1 61 0
  91 002a 8168     		ldr	r1, [r0, #8]
  92              		.loc 1 60 0
  93 002c D0F800A0 		ldr	r10, [r0]
  94              		.loc 1 54 0
  95 0030 D0F810C0 		ldr	ip, [r0, #16]
  96 0034 8769     		ldr	r7, [r0, #24]
  97              		.loc 1 56 0
  98 0036 C668     		ldr	r6, [r0, #12]
  99              		.loc 1 55 0
 100 0038 D0F814E0 		ldr	lr, [r0, #20]
 101              		.loc 1 60 0
 102 003c D0F804B0 		ldr	fp, [r0, #4]
 103              		.loc 1 61 0
 104 0040 4FF0E054 		mov	r4, #469762048
 105 0044 B4EB0108 		subs	r8, r4, r1
 106 0048 4FF00005 		mov	r5, #0
 107 004c 65EBE179 		sbc	r9, r5, r1, asr #31
 108 0050 CDE90089 		strd	r8, [sp]
 109 0054 0099     		ldr	r1, [sp]
 110 0056 0AFB09F5 		mul	r5, r10, r9
 111 005a 4FEAEA79 		asr	r9, r10, #31
 112 005e 01FB0958 		mla	r8, r1, r9, r5
ARM GAS  /tmp/cc15MIRe.s 			page 3


 113 0062 AAFB0145 		umull	r4, r5, r10, r1
 114 0066 CDE90245 		strd	r4, [sp, #8]
 115 006a 2C46     		mov	r4, r5
 116 006c 4444     		add	r4, r4, r8
 117 006e 0394     		str	r4, [sp, #12]
 118 0070 DDE90289 		ldrd	r8, [sp, #8]
 119              		.loc 1 54 0
 120 0074 CCEB0707 		rsb	r7, ip, r7
 121 0078 0CEB2724 		add	r4, ip, r7, asr #8
 122 007c 0461     		str	r4, [r0, #16]
 123              		.loc 1 55 0
 124 007e 0599     		ldr	r1, [sp, #20]
 125              		.loc 1 54 0
 126 0080 0594     		str	r4, [sp, #20]
 127              		.loc 1 61 0
 128 0082 4446     		mov	r4, r8
 129              		.loc 1 56 0
 130 0084 06EB2222 		add	r2, r6, r2, asr #8
 131              	.LVL3:
 132              		.loc 1 61 0
 133 0088 4D46     		mov	r5, r9
 134 008a 240E     		lsrs	r4, r4, #24
 135 008c B2F5807F 		cmp	r2, #256
 136 0090 44EA0924 		orr	r4, r4, r9, lsl #8
 137 0094 4FEA2565 		asr	r5, r5, #24
 138 0098 0195     		str	r5, [sp, #4]
 139 009a 0094     		str	r4, [sp]
 140 009c A8BF     		it	ge
 141 009e 4FF48072 		movge	r2, #256
 142              	.LVL4:
 143              		.loc 1 55 0
 144 00a2 CEEB0101 		rsb	r1, lr, r1
 145              		.loc 1 61 0
 146 00a6 DDE90089 		ldrd	r8, [sp]
 147              		.loc 1 55 0
 148 00aa 0EEB2121 		add	r1, lr, r1, asr #8
 149              		.loc 1 58 0
 150 00ae 394F     		ldr	r7, .L11
 151              		.loc 1 55 0
 152 00b0 4161     		str	r1, [r0, #20]
 153 00b2 22EAE272 		bic	r2, r2, r2, asr #31
 154              	.LVL5:
 155              		.loc 1 60 0
 156 00b6 CAEB0B04 		rsb	r4, r10, fp
 157 00ba 4FF02065 		mov	r5, #167772160
 158 00be 84FB0545 		smull	r4, r5, r4, r5
 159              		.loc 1 58 0
 160 00c2 57F82220 		ldr	r2, [r7, r2, lsl #2]
 161              	.LVL6:
 162              		.loc 1 62 0
 163 00c6 344E     		ldr	r6, .L11+4
 164              		.loc 1 71 0
 165 00c8 90F820C0 		ldrb	ip, [r0, #32]	@ zero_extendqisi2
 166              		.loc 1 60 0
 167 00cc CDE90245 		strd	r4, [sp, #8]
 168              		.loc 1 62 0
 169 00d0 8468     		ldr	r4, [r0, #8]
ARM GAS  /tmp/cc15MIRe.s 			page 4


 170              		.loc 1 61 0
 171 00d2 B8EB0B08 		subs	r8, r8, fp
 172              		.loc 1 62 0
 173 00d6 84FB0667 		smull	r6, r7, r4, r6
 174              		.loc 1 61 0
 175 00da 69EBEB79 		sbc	r9, r9, fp, asr #31
 176 00de A8FB0245 		umull	r4, r5, r8, r2
 177 00e2 CDE90045 		strd	r4, [sp]
 178 00e6 02FB0954 		mla	r4, r2, r9, r5
 179 00ea 0194     		str	r4, [sp, #4]
 180              		.loc 1 62 0
 181 00ec 8AFB0B45 		smull	r4, r5, r10, fp
 182 00f0 4FEA1468 		lsr	r8, r4, #24
 183 00f4 340E     		lsrs	r4, r6, #24
 184 00f6 44EA0724 		orr	r4, r4, r7, lsl #8
 185 00fa 48EA0528 		orr	r8, r8, r5, lsl #8
 186 00fe B8EB0408 		subs	r8, r8, r4
 187 0102 4FEA2569 		asr	r9, r5, #24
 188 0106 4FEA2765 		asr	r5, r7, #24
 189              		.loc 1 60 0
 190 010a DDE90267 		ldrd	r6, [sp, #8]
 191              		.loc 1 62 0
 192 010e 69EB0509 		sbc	r9, r9, r5
 193              		.loc 1 61 0
 194 0112 009D     		ldr	r5, [sp]
 195              		.loc 1 60 0
 196 0114 340E     		lsrs	r4, r6, #24
 197              		.loc 1 61 0
 198 0116 2E0E     		lsrs	r6, r5, #24
 199 0118 019D     		ldr	r5, [sp, #4]
 200              		.loc 1 62 0
 201 011a CDE90089 		strd	r8, [sp]
 202              		.loc 1 60 0
 203 011e 44EA0724 		orr	r4, r4, r7, lsl #8
 204 0122 4FEA276E 		asr	lr, r7, #24
 205              		.loc 1 62 0
 206 0126 019F     		ldr	r7, [sp, #4]
 207 0128 A8FB0289 		umull	r8, r9, r8, r2
 208              		.loc 1 61 0
 209 012c 46EA0526 		orr	r6, r6, r5, lsl #8
 210              		.loc 1 60 0
 211 0130 A4FB0245 		umull	r4, r5, r4, r2
 212 0134 02FB0E55 		mla	r5, r2, lr, r5
 213              		.loc 1 62 0
 214 0138 02FB0799 		mla	r9, r2, r7, r9
 215              		.loc 1 60 0
 216 013c 220E     		lsrs	r2, r4, #24
 217              	.LVL7:
 218              		.loc 1 62 0
 219 013e 8768     		ldr	r7, [r0, #8]
 220              		.loc 1 60 0
 221 0140 42EA0522 		orr	r2, r2, r5, lsl #8
 222              		.loc 1 62 0
 223 0144 4FEA1864 		lsr	r4, r8, #24
 224              		.loc 1 60 0
 225 0148 0AEB0205 		add	r5, r10, r2
 226              	.LVL8:
ARM GAS  /tmp/cc15MIRe.s 			page 5


 227              		.loc 1 62 0
 228 014c 44EA0924 		orr	r4, r4, r9, lsl #8
 229 0150 3C44     		add	r4, r4, r7
 230              	.LVL9:
 231              		.loc 1 61 0
 232 0152 5E44     		add	r6, r6, fp
 233              		.loc 1 69 0
 234 0154 AA13     		asrs	r2, r5, #14
 235              		.loc 1 66 0
 236 0156 8460     		str	r4, [r0, #8]
 237              		.loc 1 64 0
 238 0158 80E86000 		stmia	r0, {r5, r6}
 239              		.loc 1 69 0
 240 015c 02F50042 		add	r2, r2, #32768
 241              		.loc 1 68 0
 242 0160 A413     		asrs	r4, r4, #14
 243              	.LVL10:
 244              	.LBE2:
 245              		.loc 1 53 0
 246 0162 1098     		ldr	r0, [sp, #64]
 247              	.LVL11:
 248              	.LBB3:
 249              		.loc 1 71 0
 250 0164 BCF1000F 		cmp	ip, #0
 251 0168 02D0     		beq	.L5
 252 016a 2546     		mov	r5, r4
 253              	.LVL12:
 254              		.loc 1 74 0
 255 016c 1446     		mov	r4, r2
 256              	.LVL13:
 257              		.loc 1 75 0
 258 016e 2A46     		mov	r2, r5
 259              	.LVL14:
 260              	.L5:
 261              		.loc 1 79 0
 262 0170 A2F57F4C 		sub	ip, r2, #65280
 263 0174 059A     		ldr	r2, [sp, #20]
 264              	.LVL15:
 265 0176 ACF1FF0C 		sub	ip, ip, #255
 266              	.LVL16:
 267 017a 0CFB02F7 		mul	r7, ip, r2
 268              	.LVL17:
 269              		.loc 1 78 0
 270 017e 01FB04F1 		mul	r1, r1, r4
 271              		.loc 1 79 0
 272 0182 FF13     		asrs	r7, r7, #15
 273 0184 013F     		subs	r7, r7, #1
 274              		.loc 1 78 0
 275 0186 C913     		asrs	r1, r1, #15
 276 0188 1980     		strh	r1, [r3]	@ movhi
 277              		.loc 1 79 0
 278 018a 0780     		strh	r7, [r0]	@ movhi
 279              	.LBE3:
 280              		.loc 1 80 0
 281 018c 07B0     		add	sp, sp, #28
 282              		.cfi_def_cfa_offset 36
 283              		@ sp needed
ARM GAS  /tmp/cc15MIRe.s 			page 6


 284 018e BDE8F08F 		pop	{r4, r5, r6, r7, r8, r9, r10, fp, pc}
 285              	.LVL18:
 286              	.L12:
 287 0192 00BF     		.align	2
 288              	.L11:
 289 0194 00000000 		.word	_ZN7streams15lut_lorenz_rateE
 290 0198 ACAAAA02 		.word	44739244
 291              		.cfi_endproc
 292              	.LFE12:
 293              		.cantunwind
 294              		.fnend
 295              		.size	_ZN7streams15LorenzGenerator7ProcessEssPtS1_, .-_ZN7streams15LorenzGenerator7ProcessEssPtS1_
 296              	.Letext0:
 297              		.file 2 "/home/sbcu/Dropbox/pcb-layouts/axo-on-discovery-board/axoloti/platform_linux/arm-none-eab
 298              		.file 3 "/home/sbcu/Dropbox/pcb-layouts/axo-on-discovery-board/axoloti/platform_linux/arm-none-eab
 299              		.file 4 "./mutable_instruments/stmlib/stmlib.h"
 300              		.file 5 "./mutable_instruments/streams/lorenz_generator.h"
 301              		.file 6 "./mutable_instruments/streams/resources.h"
 302              		.file 7 "./mutable_instruments/streams/meta_parameters.h"