ARM GAS  /tmp/cc15MIRe.s 			page 1


   1              		.syntax unified
   2              		.cpu cortex-m4
   3              		.eabi_attribute 27, 1
   4              		.eabi_attribute 28, 1
   5              		.fpu fpv4-sp-d16
   6              		.eabi_attribute 20, 1
   7              		.eabi_attribute 21, 1
   8              		.eabi_attribute 23, 3
   9              		.eabi_attribute 24, 1
  10              		.eabi_attribute 25, 1
  11              		.eabi_attribute 26, 1
  12              		.eabi_attribute 30, 2
  13              		.eabi_attribute 34, 1
  14              		.eabi_attribute 18, 4
  15              		.thumb
  16              		.file	"lorenz_generator.cpp"
  17              		.text
  18              	.Ltext0:
  19              		.cfi_sections	.debug_frame
  20              		.align	2
  21              		.p2align 4,,15
  22              		.global	_ZN7streams15LorenzGenerator4InitEv
  23              		.thumb
  24              		.thumb_func
  25              		.type	_ZN7streams15LorenzGenerator4InitEv, %function
  26              	_ZN7streams15LorenzGenerator4InitEv:
  27              		.fnstart
  28              	.LFB11:
  29              		.file 1 "./mutable_instruments/streams/lorenz_generator.cpp"
  30              		.loc 1 41 0
  31              		.cfi_startproc
  32              		@ args = 0, pretend = 0, frame = 0
  33              		@ frame_needed = 0, uses_anonymous_args = 0
  34              		@ link register save eliminated.
  35              	.LVL0:
  36              		.loc 1 42 0
  37 0000 034B     		ldr	r3, .L2
  38 0002 0360     		str	r3, [r0]
  39              		.loc 1 43 0
  40 0004 0023     		movs	r3, #0
  41 0006 4360     		str	r3, [r0, #4]
  42              		.loc 1 44 0
  43 0008 8360     		str	r3, [r0, #8]
  44              		.loc 1 45 0
  45 000a 0361     		str	r3, [r0, #16]
  46              		.loc 1 46 0
  47 000c 4361     		str	r3, [r0, #20]
  48 000e 7047     		bx	lr
  49              	.L3:
  50              		.align	2
  51              	.L2:
  52 0010 99991900 		.word	1677721
  53              		.cfi_endproc
  54              	.LFE11:
  55              		.cantunwind
  56              		.fnend
  57              		.size	_ZN7streams15LorenzGenerator4InitEv, .-_ZN7streams15LorenzGenerator4InitEv
ARM GAS  /tmp/cc15MIRe.s 			page 2


  58              		.align	2
  59 0014 AFF30080 		.p2align 4,,15
  59      AFF30080 
  59      AFF30080 
  60              		.global	_ZN7streams15LorenzGenerator7ProcessEssPtS1_
  61              		.thumb
  62              		.thumb_func
  63              		.type	_ZN7streams15LorenzGenerator7ProcessEssPtS1_, %function
  64              	_ZN7streams15LorenzGenerator7ProcessEssPtS1_:
  65              		.fnstart
  66              	.LFB12:
  67              		.loc 1 53 0
  68              		.cfi_startproc
  69              		@ args = 4, pretend = 0, frame = 24
  70              		@ frame_needed = 0, uses_anonymous_args = 0
  71              	.LVL1:
  72 0020 2DE9F04F 		push	{r4, r5, r6, r7, r8, r9, r10, fp, lr}
  73              		.cfi_def_cfa_offset 36
  74              		.cfi_offset 4, -36
  75              		.cfi_offset 5, -32
  76              		.cfi_offset 6, -28
  77              		.cfi_offset 7, -24
  78              		.cfi_offset 8, -20
  79              		.cfi_offset 9, -16
  80              		.cfi_offset 10, -12
  81              		.cfi_offset 11, -8
  82              		.cfi_offset 14, -4
  83 0024 87B0     		sub	sp, sp, #28
  84              		.cfi_def_cfa_offset 64
  85              	.LBB2:
  86              		.loc 1 55 0
  87 0026 C169     		ldr	r1, [r0, #28]
  88              	.LVL2:
  89 0028 0591     		str	r1, [sp, #20]
  90              		.loc 1 61 0
  91 002a 8168     		ldr	r1, [r0, #8]
  92              		.loc 1 60 0
  93 002c D0F800A0 		ldr	r10, [r0]
  94              		.loc 1 54 0
  95 0030 D0F810C0 		ldr	ip, [r0, #16]
  96 0034 8769     		ldr	r7, [r0, #24]
  97              		.loc 1 56 0
  98 0036 C668     		ldr	r6, [r0, #12]
  99              		.loc 1 55 0
 100 0038 D0F814E0 		ldr	lr, [r0, #20]
 101              		.loc 1 60 0
 102 003c D0F804B0 		ldr	fp, [r0, #4]
 103              		.loc 1 61 0
 104 0040 4FF0E054 		mov	r4, #469762048
 105 0044 B4EB0108 		subs	r8, r4, r1
 106 0048 4FF00005 		mov	r5, #0
 107 004c 65EBE179 		sbc	r9, r5, r1, asr #31
 108 0050 CDE90089 		strd	r8, [sp]
 109 0054 0099     		ldr	r1, [sp]
 110 0056 0AFB09F5 		mul	r5, r10, r9
 111 005a 4FEAEA79 		asr	r9, r10, #31
 112 005e 01FB0958 		mla	r8, r1, r9, r5
ARM GAS  /tmp/cc15MIRe.s 			page 3


 113 0062 AAFB0145 		umull	r4, r5, r10, r1
 114 0066 CDE90245 		strd	r4, [sp, #8]
 115 006a 2C46     		mov	r4, r5
 116 006c 4444     		add	r4, r4, r8
 117 006e 0394     		str	r4, [sp, #12]
 118 0070 DDE90289 		ldrd	r8, [sp, #8]
 119              		.loc 1 54 0
 120 0074 CCEB0707 		rsb	r7, ip, r7
 121 0078 0CEB2724 		add	r4, ip, r7, asr #8
 122 007c 0461     		str	r4, [r0, #16]
 123              		.loc 1 55 0
 124 007e 0599     		ldr	r1, [sp, #20]
 125              		.loc 1 54 0
 126 0080 0594     		str	r4, [sp, #20]
 127              		.loc 1 61 0
 128 0082 4446     		mov	r4, r8
 129              		.loc 1 56 0
 130 0084 06EB2222 		add	r2, r6, r2, asr #8
 131              	.LVL3:
 132              		.loc 1 61 0
 133 0088 4D46     		mov	r5, r9
 134 008a 240E     		lsrs	r4, r4, #24
 135 008c B2F5807F 		cmp	r2, #256
 136 0090 44EA0924 		orr	r4, r4, r9, lsl #8
 137 0094 4FEA2565 		asr	r5, r5, #24
 138 0098 0195     		str	r5, [sp, #4]
 139 009a 0094     		str	r4, [sp]
 140 009c A8BF     		it	ge
 141 009e 4FF48072 		movge	r2, #256
 142              	.LVL4:
 143              		.loc 1 55 0
 144 00a2 CEEB0101 		rsb	r1, lr, r1
 145              		.loc 1 61 0
 146 00a6 DDE90089 		ldrd	r8, [sp]
 147              		.loc 1 55 0
 148 00aa 0EEB2121 		add	r1, lr, r1, asr #8
 149              		.loc 1 58 0
 150 00ae 394F     		ldr	r7, .L11
 151              		.loc 1 55 0
 152 00b0 4161     		str	r1, [r0, #20]
 153 00b2 22EAE272 		bic	r2, r2, r2, asr #31
 154              	.LVL5:
 155              		.loc 1 60 0
 156 00b6 CAEB0B04 		rsb	r4, r10, fp
 157 00ba 4FF02065 		mov	r5, #167772160
 158 00be 84FB0545 		smull	r4, r5, r4, r5
 159              		.loc 1 58 0
 160 00c2 57F82220 		ldr	r2, [r7, r2, lsl #2]
 161              	.LVL6:
 162              		.loc 1 62 0
 163 00c6 344E     		ldr	r6, .L11+4
 164              		.loc 1 71 0
 165 00c8 90F820C0 		ldrb	ip, [r0, #32]	@ zero_extendqisi2
 166              		.loc 1 60 0
 167 00cc CDE90245 		strd	r4, [sp, #8]
 168              		.loc 1 62 0
 169 00d0 8468     		ldr	r4, [r0, #8]
ARM GAS  /tmp/cc15MIRe.s 			page 4


 170              		.loc 1 61 0
 171 00d2 B8EB0B08 		subs	r8, r8, fp
 172              		.loc 1 62 0
 173 00d6 84FB0667 		smull	r6, r7, r4, r6
 174              		.loc 1 61 0
 175 00da 69EBEB79 		sbc	r9, r9, fp, asr #31
 176 00de A8FB0245 		umull	r4, r5, r8, r2
 177 00e2 CDE90045 		strd	r4, [sp]
 178 00e6 02FB0954 		mla	r4, r2, r9, r5
 179 00ea 0194     		str	r4, [sp, #4]
 180              		.loc 1 62 0
 181 00ec 8AFB0B45 		smull	r4, r5, r10, fp
 182 00f0 4FEA1468 		lsr	r8, r4, #24
 183 00f4 340E     		lsrs	r4, r6, #24
 184 00f6 44EA0724 		orr	r4, r4, r7, lsl #8
 185 00fa 48EA0528 		orr	r8, r8, r5, lsl #8
 186 00fe B8EB0408 		subs	r8, r8, r4
 187 0102 4FEA2569 		asr	r9, r5, #24
 188 0106 4FEA2765 		asr	r5, r7, #24
 189              		.loc 1 60 0
 190 010a DDE90267 		ldrd	r6, [sp, #8]
 191              		.loc 1 62 0
 192 010e 69EB0509 		sbc	r9, r9, r5
 193              		.loc 1 61 0
 194 0112 009D     		ldr	r5, [sp]
 195              		.loc 1 60 0
 196 0114 340E     		lsrs	r4, r6, #24
 197              		.loc 1 61 0
 198 0116 2E0E     		lsrs	r6, r5, #24
 199 0118 019D     		ldr	r5, [sp, #4]
 200              		.loc 1 62 0
 201 011a CDE90089 		strd	r8, [sp]
 202              		.loc 1 60 0
 203 011e 44EA0724 		orr	r4, r4, r7, lsl #8
 204 0122 4FEA276E 		asr	lr, r7, #24
 205              		.loc 1 62 0
 206 0126 019F     		ldr	r7, [sp, #4]
 207 0128 A8FB0289 		umull	r8, r9, r8, r2
 208              		.loc 1 61 0
 209 012c 46EA0526 		orr	r6, r6, r5, lsl #8
 210              		.loc 1 60 0
 211 0130 A4FB0245 		umull	r4, r5, r4, r2
 212 0134 02FB0E55 		mla	r5, r2, lr, r5
 213              		.loc 1 62 0
 214 0138 02FB0799 		mla	r9, r2, r7, r9
 215              		.loc 1 60 0
 216 013c 220E     		lsrs	r2, r4, #24
 217              	.LVL7:
 218              		.loc 1 62 0
 219 013e 8768     		ldr	r7, [r0, #8]
 220              		.loc 1 60 0
 221 0140 42EA0522 		orr	r2, r2, r5, lsl #8
 222              		.loc 1 62 0
 223 0144 4FEA1864 		lsr	r4, r8, #24
 224              		.loc 1 60 0
 225 0148 0AEB0205 		add	r5, r10, r2
 226              	.LVL8:
ARM GAS  /tmp/cc15MIRe.s 			page 5


 227              		.loc 1 62 0
 228 014c 44EA0924 		orr	r4, r4, r9, lsl #8
 229 0150 3C44     		add	r4, r4, r7
 230              	.LVL9:
 231              		.loc 1 61 0
 232 0152 5E44     		add	r6, r6, fp
 233              		.loc 1 69 0
 234 0154 AA13     		asrs	r2, r5, #14
 235              		.loc 1 66 0
 236 0156 8460     		str	r4, [r0, #8]
 237              		.loc 1 64 0
 238 0158 80E86000 		stmia	r0, {r5, r6}
 239              		.loc 1 69 0
 240 015c 02F50042 		add	r2, r2, #32768
 241              		.loc 1 68 0
 242 0160 A413     		asrs	r4, r4, #14
 243              	.LVL10:
 244              	.LBE2:
 245              		.loc 1 53 0
 246 0162 1098     		ldr	r0, [sp, #64]
 247              	.LVL11:
 248              	.LBB3:
 249              		.loc 1 71 0
 250 0164 BCF1000F 		cmp	ip, #0
 251 0168 02D0     		beq	.L5
 252 016a 2546     		mov	r5, r4
 253              	.LVL12:
 254              		.loc 1 74 0
 255 016c 1446     		mov	r4, r2
 256              	.LVL13:
 257              		.loc 1 75 0
 258 016e 2A46     		mov	r2, r5
 259              	.LVL14:
 260              	.L5:
 261              		.loc 1 79 0
 262 0170 A2F57F4C 		sub	ip, r2, #65280
 263 0174 059A     		ldr	r2, [sp, #20]
 264              	.LVL15:
 265 0176 ACF1FF0C 		sub	ip, ip, #255
 266              	.LVL16:
 267 017a 0CFB02F7 		mul	r7, ip, r2
 268              	.LVL17:
 269              		.loc 1 78 0
 270 017e 01FB04F1 		mul	r1, r1, r4
 271              		.loc 1 79 0
 272 0182 FF13     		asrs	r7, r7, #15
 273 0184 013F     		subs	r7, r7, #1
 274              		.loc 1 78 0
 275 0186 C913     		asrs	r1, r1, #15
 276 0188 1980     		strh	r1, [r3]	@ movhi
 277              		.loc 1 79 0
 278 018a 0780     		strh	r7, [r0]	@ movhi
 279              	.LBE3:
 280              		.loc 1 80 0
 281 018c 07B0     		add	sp, sp, #28
 282              		.cfi_def_cfa_offset 36
 283              		@ sp needed
ARM GAS  /tmp/cc15MIRe.s 			page 6


 284 018e BDE8F08F 		pop	{r4, r5, r6, r7, r8, r9, r10, fp, pc}
 285              	.LVL18:
 286              	.L12:
 287 0192 00BF     		.align	2
 288              	.L11:
 289 0194 00000000 		.word	_ZN7streams15lut_lorenz_rateE
 290 0198 ACAAAA02 		.word	44739244
 291              		.cfi_endproc
 292              	.LFE12:
 293              		.cantunwind
 294              		.fnend
 295              		.size	_ZN7streams15LorenzGenerator7ProcessEssPtS1_, .-_ZN7streams15LorenzGenerator7ProcessEssPtS1_
 296              	.Letext0:
 297              		.file 2 "/home/sbcu/Dropbox/pcb-layouts/axo-on-discovery-board/axoloti/platform_linux/arm-none-eab
 298              		.file 3 "/home/sbcu/Dropbox/pcb-layouts/axo-on-discovery-board/axoloti/platform_linux/arm-none-eab
 299              		.file 4 "./mutable_instruments/stmlib/stmlib.h"
 300              		.file 5 "./mutable_instruments/streams/lorenz_generator.h"
 301              		.file 6 "./mutable_instruments/streams/resources.h"
 302              		.file 7 "./mutable_instruments/streams/meta_parameters.h"
 303              		.section	.debug_info,"",%progbits
 304              	.Ldebug_info0:
 305 0000 64060000 		.4byte	0x664
 306 0004 0400     		.2byte	0x4
 307 0006 00000000 		.4byte	.Ldebug_abbrev0
 308 000a 04       		.byte	0x4
 309 000b 01       		.uleb128 0x1
 310 000c C6030000 		.4byte	.LASF82
 311 0010 04       		.byte	0x4
 312 0011 B1010000 		.4byte	.LASF83
 313 0015 7F000000 		.4byte	.LASF84
 314 0019 00000000 		.4byte	.Ltext0
 315 001d 9C010000 		.4byte	.Letext0-.Ltext0
 316 0021 00000000 		.4byte	.Ldebug_line0
 317 0025 02       		.uleb128 0x2
 318 0026 01       		.byte	0x1
 319 0027 06       		.byte	0x6
 320 0028 6A020000 		.4byte	.LASF0
 321 002c 03       		.uleb128 0x3
 322 002d FA010000 		.4byte	.LASF2
 323 0031 02       		.byte	0x2
 324 0032 1D       		.byte	0x1d
 325 0033 37000000 		.4byte	0x37
 326 0037 02       		.uleb128 0x2
 327 0038 01       		.byte	0x1
 328 0039 08       		.byte	0x8
 329 003a 49020000 		.4byte	.LASF1
 330 003e 03       		.uleb128 0x3
 331 003f A4050000 		.4byte	.LASF3
 332 0043 02       		.byte	0x2
 333 0044 29       		.byte	0x29
 334 0045 49000000 		.4byte	0x49
 335 0049 02       		.uleb128 0x2
 336 004a 02       		.byte	0x2
 337 004b 05       		.byte	0x5
 338 004c 47000000 		.4byte	.LASF4
 339 0050 03       		.uleb128 0x3
 340 0051 CF000000 		.4byte	.LASF5
ARM GAS  /tmp/cc15MIRe.s 			page 7


 341 0055 02       		.byte	0x2
 342 0056 2B       		.byte	0x2b
 343 0057 5B000000 		.4byte	0x5b
 344 005b 02       		.uleb128 0x2
 345 005c 02       		.byte	0x2
 346 005d 07       		.byte	0x7
 347 005e 15030000 		.4byte	.LASF6
 348 0062 03       		.uleb128 0x3
 349 0063 7F050000 		.4byte	.LASF7
 350 0067 02       		.byte	0x2
 351 0068 3F       		.byte	0x3f
 352 0069 6D000000 		.4byte	0x6d
 353 006d 02       		.uleb128 0x2
 354 006e 04       		.byte	0x4
 355 006f 05       		.byte	0x5
 356 0070 A8010000 		.4byte	.LASF8
 357 0074 02       		.uleb128 0x2
 358 0075 04       		.byte	0x4
 359 0076 07       		.byte	0x7
 360 0077 34050000 		.4byte	.LASF9
 361 007b 03       		.uleb128 0x3
 362 007c 06060000 		.4byte	.LASF10
 363 0080 02       		.byte	0x2
 364 0081 59       		.byte	0x59
 365 0082 86000000 		.4byte	0x86
 366 0086 02       		.uleb128 0x2
 367 0087 08       		.byte	0x8
 368 0088 05       		.byte	0x5
 369 0089 7C010000 		.4byte	.LASF11
 370 008d 02       		.uleb128 0x2
 371 008e 08       		.byte	0x8
 372 008f 07       		.byte	0x7
 373 0090 86020000 		.4byte	.LASF12
 374 0094 04       		.uleb128 0x4
 375 0095 04       		.byte	0x4
 376 0096 05       		.byte	0x5
 377 0097 696E7400 		.ascii	"int\000"
 378 009b 02       		.uleb128 0x2
 379 009c 04       		.byte	0x4
 380 009d 07       		.byte	0x7
 381 009e 9D020000 		.4byte	.LASF13
 382 00a2 03       		.uleb128 0x3
 383 00a3 28010000 		.4byte	.LASF14
 384 00a7 03       		.byte	0x3
 385 00a8 14       		.byte	0x14
 386 00a9 2C000000 		.4byte	0x2c
 387 00ad 03       		.uleb128 0x3
 388 00ae 78030000 		.4byte	.LASF15
 389 00b2 03       		.byte	0x3
 390 00b3 19       		.byte	0x19
 391 00b4 3E000000 		.4byte	0x3e
 392 00b8 03       		.uleb128 0x3
 393 00b9 B0020000 		.4byte	.LASF16
 394 00bd 03       		.byte	0x3
 395 00be 1A       		.byte	0x1a
 396 00bf 50000000 		.4byte	0x50
 397 00c3 03       		.uleb128 0x3
ARM GAS  /tmp/cc15MIRe.s 			page 8


 398 00c4 70030000 		.4byte	.LASF17
 399 00c8 03       		.byte	0x3
 400 00c9 1F       		.byte	0x1f
 401 00ca 62000000 		.4byte	0x62
 402 00ce 03       		.uleb128 0x3
 403 00cf E2000000 		.4byte	.LASF18
 404 00d3 03       		.byte	0x3
 405 00d4 25       		.byte	0x25
 406 00d5 7B000000 		.4byte	0x7b
 407 00d9 05       		.uleb128 0x5
 408 00da 09030000 		.4byte	.LASF19
 409 00de 04       		.byte	0x4
 410 00df 3C       		.byte	0x3c
 411 00e0 05       		.uleb128 0x5
 412 00e1 E9010000 		.4byte	.LASF20
 413 00e5 04       		.byte	0x4
 414 00e6 5D       		.byte	0x5d
 415 00e7 02       		.uleb128 0x2
 416 00e8 04       		.byte	0x4
 417 00e9 07       		.byte	0x7
 418 00ea 56000000 		.4byte	.LASF21
 419 00ee 06       		.uleb128 0x6
 420 00ef AE050000 		.4byte	.LASF85
 421 00f3 07       		.byte	0x7
 422 00f4 22       		.byte	0x22
 423 00f5 55040000 		.4byte	0x455
 424 00f9 07       		.uleb128 0x7
 425 00fa 30010000 		.4byte	.LASF28
 426 00fe 24       		.byte	0x24
 427 00ff 05       		.byte	0x5
 428 0100 26       		.byte	0x26
 429 0101 70020000 		.4byte	0x270
 430 0105 08       		.uleb128 0x8
 431 0106 785F00   		.ascii	"x_\000"
 432 0109 05       		.byte	0x5
 433 010a 42       		.byte	0x42
 434 010b C3000000 		.4byte	0xc3
 435 010f 00       		.byte	0
 436 0110 08       		.uleb128 0x8
 437 0111 795F00   		.ascii	"y_\000"
 438 0114 05       		.byte	0x5
 439 0115 42       		.byte	0x42
 440 0116 C3000000 		.4byte	0xc3
 441 011a 04       		.byte	0x4
 442 011b 08       		.uleb128 0x8
 443 011c 7A5F00   		.ascii	"z_\000"
 444 011f 05       		.byte	0x5
 445 0120 42       		.byte	0x42
 446 0121 C3000000 		.4byte	0xc3
 447 0125 08       		.byte	0x8
 448 0126 09       		.uleb128 0x9
 449 0127 DA020000 		.4byte	.LASF22
 450 012b 05       		.byte	0x5
 451 012c 43       		.byte	0x43
 452 012d C3000000 		.4byte	0xc3
 453 0131 0C       		.byte	0xc
 454 0132 09       		.uleb128 0x9
ARM GAS  /tmp/cc15MIRe.s 			page 9


 455 0133 27000000 		.4byte	.LASF23
 456 0137 05       		.byte	0x5
 457 0138 44       		.byte	0x44
 458 0139 C3000000 		.4byte	0xc3
 459 013d 10       		.byte	0x10
 460 013e 09       		.uleb128 0x9
 461 013f DC050000 		.4byte	.LASF24
 462 0143 05       		.byte	0x5
 463 0144 45       		.byte	0x45
 464 0145 C3000000 		.4byte	0xc3
 465 0149 14       		.byte	0x14
 466 014a 09       		.uleb128 0x9
 467 014b 80030000 		.4byte	.LASF25
 468 014f 05       		.byte	0x5
 469 0150 46       		.byte	0x46
 470 0151 C3000000 		.4byte	0xc3
 471 0155 18       		.byte	0x18
 472 0156 09       		.uleb128 0x9
 473 0157 57020000 		.4byte	.LASF26
 474 015b 05       		.byte	0x5
 475 015c 47       		.byte	0x47
 476 015d C3000000 		.4byte	0xc3
 477 0161 1C       		.byte	0x1c
 478 0162 09       		.uleb128 0x9
 479 0163 75010000 		.4byte	.LASF27
 480 0167 05       		.byte	0x5
 481 0168 49       		.byte	0x49
 482 0169 A2000000 		.4byte	0xa2
 483 016d 20       		.byte	0x20
 484 016e 0A       		.uleb128 0xa
 485 016f 30010000 		.4byte	.LASF28
 486 0173 05       		.byte	0x5
 487 0174 28       		.byte	0x28
 488 0175 55040000 		.4byte	0x455
 489 0179 01       		.byte	0x1
 490 017a 82010000 		.4byte	0x182
 491 017e 88010000 		.4byte	0x188
 492 0182 0B       		.uleb128 0xb
 493 0183 55040000 		.4byte	0x455
 494 0187 00       		.byte	0
 495 0188 0A       		.uleb128 0xa
 496 0189 11020000 		.4byte	.LASF29
 497 018d 05       		.byte	0x5
 498 018e 29       		.byte	0x29
 499 018f 5B040000 		.4byte	0x45b
 500 0193 01       		.byte	0x1
 501 0194 9C010000 		.4byte	0x19c
 502 0198 A7010000 		.4byte	0x1a7
 503 019c 0B       		.uleb128 0xb
 504 019d 55040000 		.4byte	0x455
 505 01a1 0B       		.uleb128 0xb
 506 01a2 94000000 		.4byte	0x94
 507 01a6 00       		.byte	0
 508 01a7 0C       		.uleb128 0xc
 509 01a8 A3010000 		.4byte	.LASF30
 510 01ac 05       		.byte	0x5
 511 01ad 2B       		.byte	0x2b
ARM GAS  /tmp/cc15MIRe.s 			page 10


 512 01ae EB040000 		.4byte	.LASF32
 513 01b2 01       		.byte	0x1
 514 01b3 BB010000 		.4byte	0x1bb
 515 01b7 C1010000 		.4byte	0x1c1
 516 01bb 0B       		.uleb128 0xb
 517 01bc 55040000 		.4byte	0x455
 518 01c0 00       		.byte	0
 519 01c1 0C       		.uleb128 0xc
 520 01c2 DA000000 		.4byte	.LASF31
 521 01c6 05       		.byte	0x5
 522 01c7 2C       		.byte	0x2c
 523 01c8 43030000 		.4byte	.LASF33
 524 01cc 01       		.byte	0x1
 525 01cd D5010000 		.4byte	0x1d5
 526 01d1 EF010000 		.4byte	0x1ef
 527 01d5 0B       		.uleb128 0xb
 528 01d6 55040000 		.4byte	0x455
 529 01da 0D       		.uleb128 0xd
 530 01db AD000000 		.4byte	0xad
 531 01df 0D       		.uleb128 0xd
 532 01e0 AD000000 		.4byte	0xad
 533 01e4 0D       		.uleb128 0xd
 534 01e5 5D040000 		.4byte	0x45d
 535 01e9 0D       		.uleb128 0xd
 536 01ea 5D040000 		.4byte	0x45d
 537 01ee 00       		.byte	0
 538 01ef 0C       		.uleb128 0xc
 539 01f0 33060000 		.4byte	.LASF34
 540 01f4 05       		.byte	0x5
 541 01f5 32       		.byte	0x32
 542 01f6 E0020000 		.4byte	.LASF35
 543 01fa 01       		.byte	0x1
 544 01fb 03020000 		.4byte	0x203
 545 01ff 0E020000 		.4byte	0x20e
 546 0203 0B       		.uleb128 0xb
 547 0204 55040000 		.4byte	0x455
 548 0208 0D       		.uleb128 0xd
 549 0209 A2000000 		.4byte	0xa2
 550 020d 00       		.byte	0
 551 020e 0C       		.uleb128 0xc
 552 020f 6D060000 		.4byte	.LASF36
 553 0213 05       		.byte	0x5
 554 0214 36       		.byte	0x36
 555 0215 EA000000 		.4byte	.LASF37
 556 0219 01       		.byte	0x1
 557 021a 22020000 		.4byte	0x222
 558 021e 37020000 		.4byte	0x237
 559 0222 0B       		.uleb128 0xb
 560 0223 55040000 		.4byte	0x455
 561 0227 0D       		.uleb128 0xd
 562 0228 63040000 		.4byte	0x463
 563 022c 0D       		.uleb128 0xd
 564 022d 6A040000 		.4byte	0x46a
 565 0231 0D       		.uleb128 0xd
 566 0232 6A040000 		.4byte	0x46a
 567 0236 00       		.byte	0
 568 0237 0E       		.uleb128 0xe
ARM GAS  /tmp/cc15MIRe.s 			page 11


 569 0238 30010000 		.4byte	.LASF28
 570 023c 05       		.byte	0x5
 571 023d 4B       		.byte	0x4b
 572 023e 55040000 		.4byte	0x455
 573 0242 4A020000 		.4byte	0x24a
 574 0246 55020000 		.4byte	0x255
 575 024a 0B       		.uleb128 0xb
 576 024b 55040000 		.4byte	0x455
 577 024f 0D       		.uleb128 0xd
 578 0250 70040000 		.4byte	0x470
 579 0254 00       		.byte	0
 580 0255 0F       		.uleb128 0xf
 581 0256 50060000 		.4byte	.LASF86
 582 025a 05       		.byte	0x5
 583 025b 4B       		.byte	0x4b
 584 025c 0F050000 		.4byte	.LASF87
 585 0260 64020000 		.4byte	0x264
 586 0264 0B       		.uleb128 0xb
 587 0265 55040000 		.4byte	0x455
 588 0269 0D       		.uleb128 0xd
 589 026a 70040000 		.4byte	0x470
 590 026e 00       		.byte	0
 591 026f 00       		.byte	0
 592 0270 10       		.uleb128 0x10
 593 0271 F9000000 		.4byte	0xf9
 594 0275 11       		.uleb128 0x11
 595 0276 01       		.byte	0x1
 596 0277 23       		.byte	0x23
 597 0278 E0000000 		.4byte	0xe0
 598 027c 12       		.uleb128 0x12
 599 027d 5B050000 		.4byte	.LASF88
 600 0281 06       		.byte	0x6
 601 0282 44       		.byte	0x44
 602 0283 93030000 		.4byte	.LASF89
 603 0287 61050000 		.4byte	0x561
 604 028b 13       		.uleb128 0x13
 605 028c 1D000000 		.4byte	.LASF38
 606 0290 06       		.byte	0x6
 607 0291 45       		.byte	0x45
 608 0292 6C050000 		.4byte	0x56c
 609 0296 00       		.byte	0
 610 0297 13       		.uleb128 0x13
 611 0298 04020000 		.4byte	.LASF39
 612 029c 06       		.byte	0x6
 613 029d 46       		.byte	0x46
 614 029e 6C050000 		.4byte	0x56c
 615 02a2 00       		.byte	0
 616 02a3 14       		.uleb128 0x14
 617 02a4 31030000 		.4byte	.LASF40
 618 02a8 06       		.byte	0x6
 619 02a9 47       		.byte	0x47
 620 02aa 6C050000 		.4byte	0x56c
 621 02ae 0104     		.2byte	0x401
 622 02b0 13       		.uleb128 0x13
 623 02b1 0E030000 		.4byte	.LASF41
 624 02b5 06       		.byte	0x6
 625 02b6 48       		.byte	0x48
ARM GAS  /tmp/cc15MIRe.s 			page 12


 626 02b7 6C050000 		.4byte	0x56c
 627 02bb 01       		.byte	0x1
 628 02bc 14       		.uleb128 0x14
 629 02bd DF040000 		.4byte	.LASF42
 630 02c1 06       		.byte	0x6
 631 02c2 49       		.byte	0x49
 632 02c3 6C050000 		.4byte	0x56c
 633 02c7 0101     		.2byte	0x101
 634 02c9 13       		.uleb128 0x13
 635 02ca 00000000 		.4byte	.LASF43
 636 02ce 06       		.byte	0x6
 637 02cf 4A       		.byte	0x4a
 638 02d0 6C050000 		.4byte	0x56c
 639 02d4 00       		.byte	0
 640 02d5 14       		.uleb128 0x14
 641 02d6 CB040000 		.4byte	.LASF44
 642 02da 06       		.byte	0x6
 643 02db 4B       		.byte	0x4b
 644 02dc 6C050000 		.4byte	0x56c
 645 02e0 0101     		.2byte	0x101
 646 02e2 13       		.uleb128 0x13
 647 02e3 35020000 		.4byte	.LASF45
 648 02e7 06       		.byte	0x6
 649 02e8 4C       		.byte	0x4c
 650 02e9 6C050000 		.4byte	0x56c
 651 02ed 01       		.byte	0x1
 652 02ee 14       		.uleb128 0x14
 653 02ef 6D000000 		.4byte	.LASF46
 654 02f3 06       		.byte	0x6
 655 02f4 4D       		.byte	0x4d
 656 02f5 6C050000 		.4byte	0x56c
 657 02f9 0101     		.2byte	0x101
 658 02fb 13       		.uleb128 0x13
 659 02fc 76020000 		.4byte	.LASF47
 660 0300 06       		.byte	0x6
 661 0301 4E       		.byte	0x4e
 662 0302 6C050000 		.4byte	0x56c
 663 0306 02       		.byte	0x2
 664 0307 14       		.uleb128 0x14
 665 0308 B1030000 		.4byte	.LASF48
 666 030c 06       		.byte	0x6
 667 030d 4F       		.byte	0x4f
 668 030e 6C050000 		.4byte	0x56c
 669 0312 0101     		.2byte	0x101
 670 0314 13       		.uleb128 0x13
 671 0315 18010000 		.4byte	.LASF49
 672 0319 06       		.byte	0x6
 673 031a 50       		.byte	0x50
 674 031b 6C050000 		.4byte	0x56c
 675 031f 03       		.byte	0x3
 676 0320 14       		.uleb128 0x14
 677 0321 46050000 		.4byte	.LASF50
 678 0325 06       		.byte	0x6
 679 0326 51       		.byte	0x51
 680 0327 6C050000 		.4byte	0x56c
 681 032b 0101     		.2byte	0x101
 682 032d 13       		.uleb128 0x13
ARM GAS  /tmp/cc15MIRe.s 			page 13


 683 032e BB050000 		.4byte	.LASF51
 684 0332 06       		.byte	0x6
 685 0333 52       		.byte	0x52
 686 0334 6C050000 		.4byte	0x56c
 687 0338 04       		.byte	0x4
 688 0339 14       		.uleb128 0x14
 689 033a 6B050000 		.4byte	.LASF52
 690 033e 06       		.byte	0x6
 691 033f 53       		.byte	0x53
 692 0340 6C050000 		.4byte	0x56c
 693 0344 0101     		.2byte	0x101
 694 0346 13       		.uleb128 0x13
 695 0347 89050000 		.4byte	.LASF53
 696 034b 06       		.byte	0x6
 697 034c 54       		.byte	0x54
 698 034d 6C050000 		.4byte	0x56c
 699 0351 05       		.byte	0x5
 700 0352 14       		.uleb128 0x14
 701 0353 CA050000 		.4byte	.LASF54
 702 0357 06       		.byte	0x6
 703 0358 55       		.byte	0x55
 704 0359 6C050000 		.4byte	0x56c
 705 035d 0101     		.2byte	0x101
 706 035f 13       		.uleb128 0x13
 707 0360 42060000 		.4byte	.LASF55
 708 0364 06       		.byte	0x6
 709 0365 56       		.byte	0x56
 710 0366 6C050000 		.4byte	0x56c
 711 036a 06       		.byte	0x6
 712 036b 14       		.uleb128 0x14
 713 036c 5A060000 		.4byte	.LASF56
 714 0370 06       		.byte	0x6
 715 0371 57       		.byte	0x57
 716 0372 6C050000 		.4byte	0x56c
 717 0376 0101     		.2byte	0x101
 718 0378 13       		.uleb128 0x13
 719 0379 F1050000 		.4byte	.LASF57
 720 037d 06       		.byte	0x6
 721 037e 58       		.byte	0x58
 722 037f 6C050000 		.4byte	0x56c
 723 0383 07       		.byte	0x7
 724 0384 14       		.uleb128 0x14
 725 0385 46010000 		.4byte	.LASF58
 726 0389 06       		.byte	0x6
 727 038a 59       		.byte	0x59
 728 038b 6C050000 		.4byte	0x56c
 729 038f 0101     		.2byte	0x101
 730 0391 13       		.uleb128 0x13
 731 0392 96050000 		.4byte	.LASF59
 732 0396 06       		.byte	0x6
 733 0397 5A       		.byte	0x5a
 734 0398 6C050000 		.4byte	0x56c
 735 039c 08       		.byte	0x8
 736 039d 14       		.uleb128 0x14
 737 039e 22020000 		.4byte	.LASF60
 738 03a2 06       		.byte	0x6
 739 03a3 5B       		.byte	0x5b
ARM GAS  /tmp/cc15MIRe.s 			page 14


 740 03a4 6C050000 		.4byte	0x56c
 741 03a8 0101     		.2byte	0x101
 742 03aa 13       		.uleb128 0x13
 743 03ab 20060000 		.4byte	.LASF61
 744 03af 06       		.byte	0x6
 745 03b0 5C       		.byte	0x5c
 746 03b1 6C050000 		.4byte	0x56c
 747 03b5 00       		.byte	0
 748 03b6 14       		.uleb128 0x14
 749 03b7 B9020000 		.4byte	.LASF62
 750 03bb 06       		.byte	0x6
 751 03bc 5D       		.byte	0x5d
 752 03bd 6C050000 		.4byte	0x56c
 753 03c1 0101     		.2byte	0x101
 754 03c3 13       		.uleb128 0x13
 755 03c4 33000000 		.4byte	.LASF63
 756 03c8 06       		.byte	0x6
 757 03c9 5E       		.byte	0x5e
 758 03ca 6C050000 		.4byte	0x56c
 759 03ce 01       		.byte	0x1
 760 03cf 14       		.uleb128 0x14
 761 03d0 8A010000 		.4byte	.LASF64
 762 03d4 06       		.byte	0x6
 763 03d5 5F       		.byte	0x5f
 764 03d6 6C050000 		.4byte	0x56c
 765 03da 8002     		.2byte	0x280
 766 03dc 13       		.uleb128 0x13
 767 03dd C6000000 		.4byte	.LASF65
 768 03e1 06       		.byte	0x6
 769 03e2 60       		.byte	0x60
 770 03e3 6C050000 		.4byte	0x56c
 771 03e7 02       		.byte	0x2
 772 03e8 14       		.uleb128 0x14
 773 03e9 0F000000 		.4byte	.LASF66
 774 03ed 06       		.byte	0x6
 775 03ee 61       		.byte	0x61
 776 03ef 6C050000 		.4byte	0x56c
 777 03f3 0101     		.2byte	0x101
 778 03f5 13       		.uleb128 0x13
 779 03f6 28030000 		.4byte	.LASF67
 780 03fa 06       		.byte	0x6
 781 03fb 62       		.byte	0x62
 782 03fc 6C050000 		.4byte	0x56c
 783 0400 03       		.byte	0x3
 784 0401 14       		.uleb128 0x14
 785 0402 5F000000 		.4byte	.LASF68
 786 0406 06       		.byte	0x6
 787 0407 63       		.byte	0x63
 788 0408 6C050000 		.4byte	0x56c
 789 040c 0101     		.2byte	0x101
 790 040e 13       		.uleb128 0x13
 791 040f 10060000 		.4byte	.LASF69
 792 0413 06       		.byte	0x6
 793 0414 64       		.byte	0x64
 794 0415 6C050000 		.4byte	0x56c
 795 0419 04       		.byte	0x4
 796 041a 14       		.uleb128 0x14
ARM GAS  /tmp/cc15MIRe.s 			page 15


 797 041b 60010000 		.4byte	.LASF70
 798 041f 06       		.byte	0x6
 799 0420 65       		.byte	0x65
 800 0421 6C050000 		.4byte	0x56c
 801 0425 0101     		.2byte	0x101
 802 0427 15       		.uleb128 0x15
 803 0428 AA020000 		.4byte	.LASF71
 804 042c 01       		.byte	0x1
 805 042d 25       		.byte	0x25
 806 042e 47060000 		.4byte	0x647
 807 0432 0000000A 		.4byte	0xa000000
 808 0436 16       		.uleb128 0x16
 809 0437 72686F00 		.ascii	"rho\000"
 810 043b 01       		.byte	0x1
 811 043c 26       		.byte	0x26
 812 043d 47060000 		.4byte	0x647
 813 0441 0000001C 		.4byte	0x1c000000
 814 0445 15       		.uleb128 0x15
 815 0446 51000000 		.4byte	.LASF72
 816 044a 01       		.byte	0x1
 817 044b 27       		.byte	0x27
 818 044c 47060000 		.4byte	0x647
 819 0450 ACAAAA02 		.4byte	0x2aaaaac
 820 0454 00       		.byte	0
 821 0455 17       		.uleb128 0x17
 822 0456 04       		.byte	0x4
 823 0457 F9000000 		.4byte	0xf9
 824 045b 18       		.uleb128 0x18
 825 045c 04       		.byte	0x4
 826 045d 17       		.uleb128 0x17
 827 045e 04       		.byte	0x4
 828 045f B8000000 		.4byte	0xb8
 829 0463 02       		.uleb128 0x2
 830 0464 01       		.byte	0x1
 831 0465 02       		.byte	0x2
 832 0466 E4010000 		.4byte	.LASF73
 833 046a 17       		.uleb128 0x17
 834 046b 04       		.byte	0x4
 835 046c C3000000 		.4byte	0xc3
 836 0470 19       		.uleb128 0x19
 837 0471 04       		.byte	0x4
 838 0472 70020000 		.4byte	0x270
 839 0476 1A       		.uleb128 0x1a
 840 0477 A7010000 		.4byte	0x1a7
 841 047b 01       		.byte	0x1
 842 047c 29       		.byte	0x29
 843 047d 00000000 		.4byte	.LFB11
 844 0481 14000000 		.4byte	.LFE11-.LFB11
 845 0485 01       		.uleb128 0x1
 846 0486 9C       		.byte	0x9c
 847 0487 8F040000 		.4byte	0x48f
 848 048b 9B040000 		.4byte	0x49b
 849 048f 1B       		.uleb128 0x1b
 850 0490 3D060000 		.4byte	.LASF74
 851 0494 9B040000 		.4byte	0x49b
 852 0498 01       		.uleb128 0x1
 853 0499 50       		.byte	0x50
ARM GAS  /tmp/cc15MIRe.s 			page 16


 854 049a 00       		.byte	0
 855 049b 10       		.uleb128 0x10
 856 049c 55040000 		.4byte	0x455
 857 04a0 1A       		.uleb128 0x1a
 858 04a1 C1010000 		.4byte	0x1c1
 859 04a5 01       		.byte	0x1
 860 04a6 31       		.byte	0x31
 861 04a7 20000000 		.4byte	.LFB12
 862 04ab 7C010000 		.4byte	.LFE12-.LFB12
 863 04af 01       		.uleb128 0x1
 864 04b0 9C       		.byte	0x9c
 865 04b1 B9040000 		.4byte	0x4b9
 866 04b5 61050000 		.4byte	0x561
 867 04b9 1C       		.uleb128 0x1c
 868 04ba 3D060000 		.4byte	.LASF74
 869 04be 9B040000 		.4byte	0x49b
 870 04c2 00000000 		.4byte	.LLST0
 871 04c6 1D       		.uleb128 0x1d
 872 04c7 40010000 		.4byte	.LASF75
 873 04cb 01       		.byte	0x1
 874 04cc 32       		.byte	0x32
 875 04cd AD000000 		.4byte	0xad
 876 04d1 21000000 		.4byte	.LLST1
 877 04d5 1D       		.uleb128 0x1d
 878 04d6 42020000 		.4byte	.LASF76
 879 04da 01       		.byte	0x1
 880 04db 33       		.byte	0x33
 881 04dc AD000000 		.4byte	0xad
 882 04e0 42000000 		.4byte	.LLST2
 883 04e4 1E       		.uleb128 0x1e
 884 04e5 77060000 		.4byte	.LASF77
 885 04e9 01       		.byte	0x1
 886 04ea 34       		.byte	0x34
 887 04eb 5D040000 		.4byte	0x45d
 888 04ef 01       		.uleb128 0x1
 889 04f0 53       		.byte	0x53
 890 04f1 1D       		.uleb128 0x1d
 891 04f2 F0010000 		.4byte	.LASF78
 892 04f6 01       		.byte	0x1
 893 04f7 35       		.byte	0x35
 894 04f8 5D040000 		.4byte	0x45d
 895 04fc 63000000 		.4byte	.LLST3
 896 0500 1F       		.uleb128 0x1f
 897 0501 00000000 		.4byte	.Ldebug_ranges0+0
 898 0505 20       		.uleb128 0x20
 899 0506 B6050000 		.4byte	.LASF79
 900 050a 01       		.byte	0x1
 901 050b 38       		.byte	0x38
 902 050c C3000000 		.4byte	0xc3
 903 0510 83000000 		.4byte	.LLST4
 904 0514 21       		.uleb128 0x21
 905 0515 647400   		.ascii	"dt\000"
 906 0518 01       		.byte	0x1
 907 0519 3A       		.byte	0x3a
 908 051a CE000000 		.4byte	0xce
 909 051e 22       		.uleb128 0x22
 910 051f 7800     		.ascii	"x\000"
ARM GAS  /tmp/cc15MIRe.s 			page 17


 911 0521 01       		.byte	0x1
 912 0522 3C       		.byte	0x3c
 913 0523 C3000000 		.4byte	0xc3
 914 0527 B8000000 		.4byte	.LLST5
 915 052b 21       		.uleb128 0x21
 916 052c 7900     		.ascii	"y\000"
 917 052e 01       		.byte	0x1
 918 052f 3D       		.byte	0x3d
 919 0530 C3000000 		.4byte	0xc3
 920 0534 22       		.uleb128 0x22
 921 0535 7A00     		.ascii	"z\000"
 922 0537 01       		.byte	0x1
 923 0538 3E       		.byte	0x3e
 924 0539 C3000000 		.4byte	0xc3
 925 053d D8000000 		.4byte	.LLST6
 926 0541 20       		.uleb128 0x20
 927 0542 D1020000 		.4byte	.LASF80
 928 0546 01       		.byte	0x1
 929 0547 44       		.byte	0x44
 930 0548 C3000000 		.4byte	0xc3
 931 054c 1D010000 		.4byte	.LLST7
 932 0550 20       		.uleb128 0x20
 933 0551 E8050000 		.4byte	.LASF81
 934 0555 01       		.byte	0x1
 935 0556 45       		.byte	0x45
 936 0557 C3000000 		.4byte	0xc3
 937 055b 46010000 		.4byte	.LLST8
 938 055f 00       		.byte	0
 939 0560 00       		.byte	0
 940 0561 23       		.uleb128 0x23
 941 0562 74000000 		.4byte	0x74
 942 0566 6C050000 		.4byte	0x56c
 943 056a 24       		.uleb128 0x24
 944 056b 00       		.byte	0
 945 056c 10       		.uleb128 0x10
 946 056d 94000000 		.4byte	0x94
 947 0571 25       		.uleb128 0x25
 948 0572 8B020000 		.4byte	0x28b
 949 0576 00       		.byte	0
 950 0577 25       		.uleb128 0x25
 951 0578 97020000 		.4byte	0x297
 952 057c 00       		.byte	0
 953 057d 26       		.uleb128 0x26
 954 057e A3020000 		.4byte	0x2a3
 955 0582 0104     		.2byte	0x401
 956 0584 25       		.uleb128 0x25
 957 0585 B0020000 		.4byte	0x2b0
 958 0589 01       		.byte	0x1
 959 058a 26       		.uleb128 0x26
 960 058b BC020000 		.4byte	0x2bc
 961 058f 0101     		.2byte	0x101
 962 0591 25       		.uleb128 0x25
 963 0592 C9020000 		.4byte	0x2c9
 964 0596 00       		.byte	0
 965 0597 26       		.uleb128 0x26
 966 0598 D5020000 		.4byte	0x2d5
 967 059c 0101     		.2byte	0x101
ARM GAS  /tmp/cc15MIRe.s 			page 18


 968 059e 25       		.uleb128 0x25
 969 059f E2020000 		.4byte	0x2e2
 970 05a3 01       		.byte	0x1
 971 05a4 26       		.uleb128 0x26
 972 05a5 EE020000 		.4byte	0x2ee
 973 05a9 0101     		.2byte	0x101
 974 05ab 25       		.uleb128 0x25
 975 05ac FB020000 		.4byte	0x2fb
 976 05b0 02       		.byte	0x2
 977 05b1 26       		.uleb128 0x26
 978 05b2 07030000 		.4byte	0x307
 979 05b6 0101     		.2byte	0x101
 980 05b8 25       		.uleb128 0x25
 981 05b9 14030000 		.4byte	0x314
 982 05bd 03       		.byte	0x3
 983 05be 26       		.uleb128 0x26
 984 05bf 20030000 		.4byte	0x320
 985 05c3 0101     		.2byte	0x101
 986 05c5 25       		.uleb128 0x25
 987 05c6 2D030000 		.4byte	0x32d
 988 05ca 04       		.byte	0x4
 989 05cb 26       		.uleb128 0x26
 990 05cc 39030000 		.4byte	0x339
 991 05d0 0101     		.2byte	0x101
 992 05d2 25       		.uleb128 0x25
 993 05d3 46030000 		.4byte	0x346
 994 05d7 05       		.byte	0x5
 995 05d8 26       		.uleb128 0x26
 996 05d9 52030000 		.4byte	0x352
 997 05dd 0101     		.2byte	0x101
 998 05df 25       		.uleb128 0x25
 999 05e0 5F030000 		.4byte	0x35f
 1000 05e4 06       		.byte	0x6
 1001 05e5 26       		.uleb128 0x26
 1002 05e6 6B030000 		.4byte	0x36b
 1003 05ea 0101     		.2byte	0x101
 1004 05ec 25       		.uleb128 0x25
 1005 05ed 78030000 		.4byte	0x378
 1006 05f1 07       		.byte	0x7
 1007 05f2 26       		.uleb128 0x26
 1008 05f3 84030000 		.4byte	0x384
 1009 05f7 0101     		.2byte	0x101
 1010 05f9 25       		.uleb128 0x25
 1011 05fa 91030000 		.4byte	0x391
 1012 05fe 08       		.byte	0x8
 1013 05ff 26       		.uleb128 0x26
 1014 0600 9D030000 		.4byte	0x39d
 1015 0604 0101     		.2byte	0x101
 1016 0606 25       		.uleb128 0x25
 1017 0607 AA030000 		.4byte	0x3aa
 1018 060b 00       		.byte	0
 1019 060c 26       		.uleb128 0x26
 1020 060d B6030000 		.4byte	0x3b6
 1021 0611 0101     		.2byte	0x101
 1022 0613 25       		.uleb128 0x25
 1023 0614 C3030000 		.4byte	0x3c3
 1024 0618 01       		.byte	0x1
ARM GAS  /tmp/cc15MIRe.s 			page 19


 1025 0619 26       		.uleb128 0x26
 1026 061a CF030000 		.4byte	0x3cf
 1027 061e 8002     		.2byte	0x280
 1028 0620 25       		.uleb128 0x25
 1029 0621 DC030000 		.4byte	0x3dc
 1030 0625 02       		.byte	0x2
 1031 0626 26       		.uleb128 0x26
 1032 0627 E8030000 		.4byte	0x3e8
 1033 062b 0101     		.2byte	0x101
 1034 062d 25       		.uleb128 0x25
 1035 062e F5030000 		.4byte	0x3f5
 1036 0632 03       		.byte	0x3
 1037 0633 26       		.uleb128 0x26
 1038 0634 01040000 		.4byte	0x401
 1039 0638 0101     		.2byte	0x101
 1040 063a 25       		.uleb128 0x25
 1041 063b 0E040000 		.4byte	0x40e
 1042 063f 04       		.byte	0x4
 1043 0640 26       		.uleb128 0x26
 1044 0641 1A040000 		.4byte	0x41a
 1045 0645 0101     		.2byte	0x101
 1046 0647 10       		.uleb128 0x10
 1047 0648 CE000000 		.4byte	0xce
 1048 064c 27       		.uleb128 0x27
 1049 064d 27040000 		.4byte	0x427
 1050 0651 0000000A 		.4byte	0xa000000
 1051 0655 27       		.uleb128 0x27
 1052 0656 36040000 		.4byte	0x436
 1053 065a 0000001C 		.4byte	0x1c000000
 1054 065e 27       		.uleb128 0x27
 1055 065f 45040000 		.4byte	0x445
 1056 0663 ACAAAA02 		.4byte	0x2aaaaac
 1057 0667 00       		.byte	0
 1058              		.section	.debug_abbrev,"",%progbits
 1059              	.Ldebug_abbrev0:
 1060 0000 01       		.uleb128 0x1
 1061 0001 11       		.uleb128 0x11
 1062 0002 01       		.byte	0x1
 1063 0003 25       		.uleb128 0x25
 1064 0004 0E       		.uleb128 0xe
 1065 0005 13       		.uleb128 0x13
 1066 0006 0B       		.uleb128 0xb
 1067 0007 03       		.uleb128 0x3
 1068 0008 0E       		.uleb128 0xe
 1069 0009 1B       		.uleb128 0x1b
 1070 000a 0E       		.uleb128 0xe
 1071 000b 11       		.uleb128 0x11
 1072 000c 01       		.uleb128 0x1
 1073 000d 12       		.uleb128 0x12
 1074 000e 06       		.uleb128 0x6
 1075 000f 10       		.uleb128 0x10
 1076 0010 17       		.uleb128 0x17
 1077 0011 00       		.byte	0
 1078 0012 00       		.byte	0
 1079 0013 02       		.uleb128 0x2
 1080 0014 24       		.uleb128 0x24
 1081 0015 00       		.byte	0
ARM GAS  /tmp/cc15MIRe.s 			page 20


 1082 0016 0B       		.uleb128 0xb
 1083 0017 0B       		.uleb128 0xb
 1084 0018 3E       		.uleb128 0x3e
 1085 0019 0B       		.uleb128 0xb
 1086 001a 03       		.uleb128 0x3
 1087 001b 0E       		.uleb128 0xe
 1088 001c 00       		.byte	0
 1089 001d 00       		.byte	0
 1090 001e 03       		.uleb128 0x3
 1091 001f 16       		.uleb128 0x16
 1092 0020 00       		.byte	0
 1093 0021 03       		.uleb128 0x3
 1094 0022 0E       		.uleb128 0xe
 1095 0023 3A       		.uleb128 0x3a
 1096 0024 0B       		.uleb128 0xb
 1097 0025 3B       		.uleb128 0x3b
 1098 0026 0B       		.uleb128 0xb
 1099 0027 49       		.uleb128 0x49
 1100 0028 13       		.uleb128 0x13
 1101 0029 00       		.byte	0
 1102 002a 00       		.byte	0
 1103 002b 04       		.uleb128 0x4
 1104 002c 24       		.uleb128 0x24
 1105 002d 00       		.byte	0
 1106 002e 0B       		.uleb128 0xb
 1107 002f 0B       		.uleb128 0xb
 1108 0030 3E       		.uleb128 0x3e
 1109 0031 0B       		.uleb128 0xb
 1110 0032 03       		.uleb128 0x3
 1111 0033 08       		.uleb128 0x8
 1112 0034 00       		.byte	0
 1113 0035 00       		.byte	0
 1114 0036 05       		.uleb128 0x5
 1115 0037 39       		.uleb128 0x39
 1116 0038 00       		.byte	0
 1117 0039 03       		.uleb128 0x3
 1118 003a 0E       		.uleb128 0xe
 1119 003b 3A       		.uleb128 0x3a
 1120 003c 0B       		.uleb128 0xb
 1121 003d 3B       		.uleb128 0x3b
 1122 003e 0B       		.uleb128 0xb
 1123 003f 00       		.byte	0
 1124 0040 00       		.byte	0
 1125 0041 06       		.uleb128 0x6
 1126 0042 39       		.uleb128 0x39
 1127 0043 01       		.byte	0x1
 1128 0044 03       		.uleb128 0x3
 1129 0045 0E       		.uleb128 0xe
 1130 0046 3A       		.uleb128 0x3a
 1131 0047 0B       		.uleb128 0xb
 1132 0048 3B       		.uleb128 0x3b
 1133 0049 0B       		.uleb128 0xb
 1134 004a 01       		.uleb128 0x1
 1135 004b 13       		.uleb128 0x13
 1136 004c 00       		.byte	0
 1137 004d 00       		.byte	0
 1138 004e 07       		.uleb128 0x7
ARM GAS  /tmp/cc15MIRe.s 			page 21


 1139 004f 02       		.uleb128 0x2
 1140 0050 01       		.byte	0x1
 1141 0051 03       		.uleb128 0x3
 1142 0052 0E       		.uleb128 0xe
 1143 0053 0B       		.uleb128 0xb
 1144 0054 0B       		.uleb128 0xb
 1145 0055 3A       		.uleb128 0x3a
 1146 0056 0B       		.uleb128 0xb
 1147 0057 3B       		.uleb128 0x3b
 1148 0058 0B       		.uleb128 0xb
 1149 0059 01       		.uleb128 0x1
 1150 005a 13       		.uleb128 0x13
 1151 005b 00       		.byte	0
 1152 005c 00       		.byte	0
 1153 005d 08       		.uleb128 0x8
 1154 005e 0D       		.uleb128 0xd
 1155 005f 00       		.byte	0
 1156 0060 03       		.uleb128 0x3
 1157 0061 08       		.uleb128 0x8
 1158 0062 3A       		.uleb128 0x3a
 1159 0063 0B       		.uleb128 0xb
 1160 0064 3B       		.uleb128 0x3b
 1161 0065 0B       		.uleb128 0xb
 1162 0066 49       		.uleb128 0x49
 1163 0067 13       		.uleb128 0x13
 1164 0068 38       		.uleb128 0x38
 1165 0069 0B       		.uleb128 0xb
 1166 006a 00       		.byte	0
 1167 006b 00       		.byte	0
 1168 006c 09       		.uleb128 0x9
 1169 006d 0D       		.uleb128 0xd
 1170 006e 00       		.byte	0
 1171 006f 03       		.uleb128 0x3
 1172 0070 0E       		.uleb128 0xe
 1173 0071 3A       		.uleb128 0x3a
 1174 0072 0B       		.uleb128 0xb
 1175 0073 3B       		.uleb128 0x3b
 1176 0074 0B       		.uleb128 0xb
 1177 0075 49       		.uleb128 0x49
 1178 0076 13       		.uleb128 0x13
 1179 0077 38       		.uleb128 0x38
 1180 0078 0B       		.uleb128 0xb
 1181 0079 00       		.byte	0
 1182 007a 00       		.byte	0
 1183 007b 0A       		.uleb128 0xa
 1184 007c 2E       		.uleb128 0x2e
 1185 007d 01       		.byte	0x1
 1186 007e 3F       		.uleb128 0x3f
 1187 007f 19       		.uleb128 0x19
 1188 0080 03       		.uleb128 0x3
 1189 0081 0E       		.uleb128 0xe
 1190 0082 3A       		.uleb128 0x3a
 1191 0083 0B       		.uleb128 0xb
 1192 0084 3B       		.uleb128 0x3b
 1193 0085 0B       		.uleb128 0xb
 1194 0086 49       		.uleb128 0x49
 1195 0087 13       		.uleb128 0x13
ARM GAS  /tmp/cc15MIRe.s 			page 22


 1196 0088 32       		.uleb128 0x32
 1197 0089 0B       		.uleb128 0xb
 1198 008a 3C       		.uleb128 0x3c
 1199 008b 19       		.uleb128 0x19
 1200 008c 64       		.uleb128 0x64
 1201 008d 13       		.uleb128 0x13
 1202 008e 01       		.uleb128 0x1
 1203 008f 13       		.uleb128 0x13
 1204 0090 00       		.byte	0
 1205 0091 00       		.byte	0
 1206 0092 0B       		.uleb128 0xb
 1207 0093 05       		.uleb128 0x5
 1208 0094 00       		.byte	0
 1209 0095 49       		.uleb128 0x49
 1210 0096 13       		.uleb128 0x13
 1211 0097 34       		.uleb128 0x34
 1212 0098 19       		.uleb128 0x19
 1213 0099 00       		.byte	0
 1214 009a 00       		.byte	0
 1215 009b 0C       		.uleb128 0xc
 1216 009c 2E       		.uleb128 0x2e
 1217 009d 01       		.byte	0x1
 1218 009e 3F       		.uleb128 0x3f
 1219 009f 19       		.uleb128 0x19
 1220 00a0 03       		.uleb128 0x3
 1221 00a1 0E       		.uleb128 0xe
 1222 00a2 3A       		.uleb128 0x3a
 1223 00a3 0B       		.uleb128 0xb
 1224 00a4 3B       		.uleb128 0x3b
 1225 00a5 0B       		.uleb128 0xb
 1226 00a6 6E       		.uleb128 0x6e
 1227 00a7 0E       		.uleb128 0xe
 1228 00a8 32       		.uleb128 0x32
 1229 00a9 0B       		.uleb128 0xb
 1230 00aa 3C       		.uleb128 0x3c
 1231 00ab 19       		.uleb128 0x19
 1232 00ac 64       		.uleb128 0x64
 1233 00ad 13       		.uleb128 0x13
 1234 00ae 01       		.uleb128 0x1
 1235 00af 13       		.uleb128 0x13
 1236 00b0 00       		.byte	0
 1237 00b1 00       		.byte	0
 1238 00b2 0D       		.uleb128 0xd
 1239 00b3 05       		.uleb128 0x5
 1240 00b4 00       		.byte	0
 1241 00b5 49       		.uleb128 0x49
 1242 00b6 13       		.uleb128 0x13
 1243 00b7 00       		.byte	0
 1244 00b8 00       		.byte	0
 1245 00b9 0E       		.uleb128 0xe
 1246 00ba 2E       		.uleb128 0x2e
 1247 00bb 01       		.byte	0x1
 1248 00bc 3F       		.uleb128 0x3f
 1249 00bd 19       		.uleb128 0x19
 1250 00be 03       		.uleb128 0x3
 1251 00bf 0E       		.uleb128 0xe
 1252 00c0 3A       		.uleb128 0x3a
ARM GAS  /tmp/cc15MIRe.s 			page 23


 1253 00c1 0B       		.uleb128 0xb
 1254 00c2 3B       		.uleb128 0x3b
 1255 00c3 0B       		.uleb128 0xb
 1256 00c4 49       		.uleb128 0x49
 1257 00c5 13       		.uleb128 0x13
 1258 00c6 3C       		.uleb128 0x3c
 1259 00c7 19       		.uleb128 0x19
 1260 00c8 64       		.uleb128 0x64
 1261 00c9 13       		.uleb128 0x13
 1262 00ca 01       		.uleb128 0x1
 1263 00cb 13       		.uleb128 0x13
 1264 00cc 00       		.byte	0
 1265 00cd 00       		.byte	0
 1266 00ce 0F       		.uleb128 0xf
 1267 00cf 2E       		.uleb128 0x2e
 1268 00d0 01       		.byte	0x1
 1269 00d1 3F       		.uleb128 0x3f
 1270 00d2 19       		.uleb128 0x19
 1271 00d3 03       		.uleb128 0x3
 1272 00d4 0E       		.uleb128 0xe
 1273 00d5 3A       		.uleb128 0x3a
 1274 00d6 0B       		.uleb128 0xb
 1275 00d7 3B       		.uleb128 0x3b
 1276 00d8 0B       		.uleb128 0xb
 1277 00d9 6E       		.uleb128 0x6e
 1278 00da 0E       		.uleb128 0xe
 1279 00db 3C       		.uleb128 0x3c
 1280 00dc 19       		.uleb128 0x19
 1281 00dd 64       		.uleb128 0x64
 1282 00de 13       		.uleb128 0x13
 1283 00df 00       		.byte	0
 1284 00e0 00       		.byte	0
 1285 00e1 10       		.uleb128 0x10
 1286 00e2 26       		.uleb128 0x26
 1287 00e3 00       		.byte	0
 1288 00e4 49       		.uleb128 0x49
 1289 00e5 13       		.uleb128 0x13
 1290 00e6 00       		.byte	0
 1291 00e7 00       		.byte	0
 1292 00e8 11       		.uleb128 0x11
 1293 00e9 3A       		.uleb128 0x3a
 1294 00ea 00       		.byte	0
 1295 00eb 3A       		.uleb128 0x3a
 1296 00ec 0B       		.uleb128 0xb
 1297 00ed 3B       		.uleb128 0x3b
 1298 00ee 0B       		.uleb128 0xb
 1299 00ef 18       		.uleb128 0x18
 1300 00f0 13       		.uleb128 0x13
 1301 00f1 00       		.byte	0
 1302 00f2 00       		.byte	0
 1303 00f3 12       		.uleb128 0x12
 1304 00f4 34       		.uleb128 0x34
 1305 00f5 00       		.byte	0
 1306 00f6 03       		.uleb128 0x3
 1307 00f7 0E       		.uleb128 0xe
 1308 00f8 3A       		.uleb128 0x3a
 1309 00f9 0B       		.uleb128 0xb
ARM GAS  /tmp/cc15MIRe.s 			page 24


 1310 00fa 3B       		.uleb128 0x3b
 1311 00fb 0B       		.uleb128 0xb
 1312 00fc 6E       		.uleb128 0x6e
 1313 00fd 0E       		.uleb128 0xe
 1314 00fe 49       		.uleb128 0x49
 1315 00ff 13       		.uleb128 0x13
 1316 0100 3F       		.uleb128 0x3f
 1317 0101 19       		.uleb128 0x19
 1318 0102 3C       		.uleb128 0x3c
 1319 0103 19       		.uleb128 0x19
 1320 0104 00       		.byte	0
 1321 0105 00       		.byte	0
 1322 0106 13       		.uleb128 0x13
 1323 0107 34       		.uleb128 0x34
 1324 0108 00       		.byte	0
 1325 0109 03       		.uleb128 0x3
 1326 010a 0E       		.uleb128 0xe
 1327 010b 3A       		.uleb128 0x3a
 1328 010c 0B       		.uleb128 0xb
 1329 010d 3B       		.uleb128 0x3b
 1330 010e 0B       		.uleb128 0xb
 1331 010f 49       		.uleb128 0x49
 1332 0110 13       		.uleb128 0x13
 1333 0111 3C       		.uleb128 0x3c
 1334 0112 19       		.uleb128 0x19
 1335 0113 1C       		.uleb128 0x1c
 1336 0114 0B       		.uleb128 0xb
 1337 0115 00       		.byte	0
 1338 0116 00       		.byte	0
 1339 0117 14       		.uleb128 0x14
 1340 0118 34       		.uleb128 0x34
 1341 0119 00       		.byte	0
 1342 011a 03       		.uleb128 0x3
 1343 011b 0E       		.uleb128 0xe
 1344 011c 3A       		.uleb128 0x3a
 1345 011d 0B       		.uleb128 0xb
 1346 011e 3B       		.uleb128 0x3b
 1347 011f 0B       		.uleb128 0xb
 1348 0120 49       		.uleb128 0x49
 1349 0121 13       		.uleb128 0x13
 1350 0122 3C       		.uleb128 0x3c
 1351 0123 19       		.uleb128 0x19
 1352 0124 1C       		.uleb128 0x1c
 1353 0125 05       		.uleb128 0x5
 1354 0126 00       		.byte	0
 1355 0127 00       		.byte	0
 1356 0128 15       		.uleb128 0x15
 1357 0129 34       		.uleb128 0x34
 1358 012a 00       		.byte	0
 1359 012b 03       		.uleb128 0x3
 1360 012c 0E       		.uleb128 0xe
 1361 012d 3A       		.uleb128 0x3a
 1362 012e 0B       		.uleb128 0xb
 1363 012f 3B       		.uleb128 0x3b
 1364 0130 0B       		.uleb128 0xb
 1365 0131 49       		.uleb128 0x49
 1366 0132 13       		.uleb128 0x13
ARM GAS  /tmp/cc15MIRe.s 			page 25


 1367 0133 3C       		.uleb128 0x3c
 1368 0134 19       		.uleb128 0x19
 1369 0135 1C       		.uleb128 0x1c
 1370 0136 06       		.uleb128 0x6
 1371 0137 00       		.byte	0
 1372 0138 00       		.byte	0
 1373 0139 16       		.uleb128 0x16
 1374 013a 34       		.uleb128 0x34
 1375 013b 00       		.byte	0
 1376 013c 03       		.uleb128 0x3
 1377 013d 08       		.uleb128 0x8
 1378 013e 3A       		.uleb128 0x3a
 1379 013f 0B       		.uleb128 0xb
 1380 0140 3B       		.uleb128 0x3b
 1381 0141 0B       		.uleb128 0xb
 1382 0142 49       		.uleb128 0x49
 1383 0143 13       		.uleb128 0x13
 1384 0144 3C       		.uleb128 0x3c
 1385 0145 19       		.uleb128 0x19
 1386 0146 1C       		.uleb128 0x1c
 1387 0147 06       		.uleb128 0x6
 1388 0148 00       		.byte	0
 1389 0149 00       		.byte	0
 1390 014a 17       		.uleb128 0x17
 1391 014b 0F       		.uleb128 0xf
 1392 014c 00       		.byte	0
 1393 014d 0B       		.uleb128 0xb
 1394 014e 0B       		.uleb128 0xb
 1395 014f 49       		.uleb128 0x49
 1396 0150 13       		.uleb128 0x13
 1397 0151 00       		.byte	0
 1398 0152 00       		.byte	0
 1399 0153 18       		.uleb128 0x18
 1400 0154 0F       		.uleb128 0xf
 1401 0155 00       		.byte	0
 1402 0156 0B       		.uleb128 0xb
 1403 0157 0B       		.uleb128 0xb
 1404 0158 00       		.byte	0
 1405 0159 00       		.byte	0
 1406 015a 19       		.uleb128 0x19
 1407 015b 10       		.uleb128 0x10
 1408 015c 00       		.byte	0
 1409 015d 0B       		.uleb128 0xb
 1410 015e 0B       		.uleb128 0xb
 1411 015f 49       		.uleb128 0x49
 1412 0160 13       		.uleb128 0x13
 1413 0161 00       		.byte	0
 1414 0162 00       		.byte	0
 1415 0163 1A       		.uleb128 0x1a
 1416 0164 2E       		.uleb128 0x2e
 1417 0165 01       		.byte	0x1
 1418 0166 47       		.uleb128 0x47
 1419 0167 13       		.uleb128 0x13
 1420 0168 3A       		.uleb128 0x3a
 1421 0169 0B       		.uleb128 0xb
 1422 016a 3B       		.uleb128 0x3b
 1423 016b 0B       		.uleb128 0xb
ARM GAS  /tmp/cc15MIRe.s 			page 26


 1424 016c 11       		.uleb128 0x11
 1425 016d 01       		.uleb128 0x1
 1426 016e 12       		.uleb128 0x12
 1427 016f 06       		.uleb128 0x6
 1428 0170 40       		.uleb128 0x40
 1429 0171 18       		.uleb128 0x18
 1430 0172 64       		.uleb128 0x64
 1431 0173 13       		.uleb128 0x13
 1432 0174 9742     		.uleb128 0x2117
 1433 0176 19       		.uleb128 0x19
 1434 0177 01       		.uleb128 0x1
 1435 0178 13       		.uleb128 0x13
 1436 0179 00       		.byte	0
 1437 017a 00       		.byte	0
 1438 017b 1B       		.uleb128 0x1b
 1439 017c 05       		.uleb128 0x5
 1440 017d 00       		.byte	0
 1441 017e 03       		.uleb128 0x3
 1442 017f 0E       		.uleb128 0xe
 1443 0180 49       		.uleb128 0x49
 1444 0181 13       		.uleb128 0x13
 1445 0182 34       		.uleb128 0x34
 1446 0183 19       		.uleb128 0x19
 1447 0184 02       		.uleb128 0x2
 1448 0185 18       		.uleb128 0x18
 1449 0186 00       		.byte	0
 1450 0187 00       		.byte	0
 1451 0188 1C       		.uleb128 0x1c
 1452 0189 05       		.uleb128 0x5
 1453 018a 00       		.byte	0
 1454 018b 03       		.uleb128 0x3
 1455 018c 0E       		.uleb128 0xe
 1456 018d 49       		.uleb128 0x49
 1457 018e 13       		.uleb128 0x13
 1458 018f 34       		.uleb128 0x34
 1459 0190 19       		.uleb128 0x19
 1460 0191 02       		.uleb128 0x2
 1461 0192 17       		.uleb128 0x17
 1462 0193 00       		.byte	0
 1463 0194 00       		.byte	0
 1464 0195 1D       		.uleb128 0x1d
 1465 0196 05       		.uleb128 0x5
 1466 0197 00       		.byte	0
 1467 0198 03       		.uleb128 0x3
 1468 0199 0E       		.uleb128 0xe
 1469 019a 3A       		.uleb128 0x3a
 1470 019b 0B       		.uleb128 0xb
 1471 019c 3B       		.uleb128 0x3b
 1472 019d 0B       		.uleb128 0xb
 1473 019e 49       		.uleb128 0x49
 1474 019f 13       		.uleb128 0x13
 1475 01a0 02       		.uleb128 0x2
 1476 01a1 17       		.uleb128 0x17
 1477 01a2 00       		.byte	0
 1478 01a3 00       		.byte	0
 1479 01a4 1E       		.uleb128 0x1e
 1480 01a5 05       		.uleb128 0x5
ARM GAS  /tmp/cc15MIRe.s 			page 27


 1481 01a6 00       		.byte	0
 1482 01a7 03       		.uleb128 0x3
 1483 01a8 0E       		.uleb128 0xe
 1484 01a9 3A       		.uleb128 0x3a
 1485 01aa 0B       		.uleb128 0xb
 1486 01ab 3B       		.uleb128 0x3b
 1487 01ac 0B       		.uleb128 0xb
 1488 01ad 49       		.uleb128 0x49
 1489 01ae 13       		.uleb128 0x13
 1490 01af 02       		.uleb128 0x2
 1491 01b0 18       		.uleb128 0x18
 1492 01b1 00       		.byte	0
 1493 01b2 00       		.byte	0
 1494 01b3 1F       		.uleb128 0x1f
 1495 01b4 0B       		.uleb128 0xb
 1496 01b5 01       		.byte	0x1
 1497 01b6 55       		.uleb128 0x55
 1498 01b7 17       		.uleb128 0x17
 1499 01b8 00       		.byte	0
 1500 01b9 00       		.byte	0
 1501 01ba 20       		.uleb128 0x20
 1502 01bb 34       		.uleb128 0x34
 1503 01bc 00       		.byte	0
 1504 01bd 03       		.uleb128 0x3
 1505 01be 0E       		.uleb128 0xe
 1506 01bf 3A       		.uleb128 0x3a
 1507 01c0 0B       		.uleb128 0xb
 1508 01c1 3B       		.uleb128 0x3b
 1509 01c2 0B       		.uleb128 0xb
 1510 01c3 49       		.uleb128 0x49
 1511 01c4 13       		.uleb128 0x13
 1512 01c5 02       		.uleb128 0x2
 1513 01c6 17       		.uleb128 0x17
 1514 01c7 00       		.byte	0
 1515 01c8 00       		.byte	0
 1516 01c9 21       		.uleb128 0x21
 1517 01ca 34       		.uleb128 0x34
 1518 01cb 00       		.byte	0
 1519 01cc 03       		.uleb128 0x3
 1520 01cd 08       		.uleb128 0x8
 1521 01ce 3A       		.uleb128 0x3a
 1522 01cf 0B       		.uleb128 0xb
 1523 01d0 3B       		.uleb128 0x3b
 1524 01d1 0B       		.uleb128 0xb
 1525 01d2 49       		.uleb128 0x49
 1526 01d3 13       		.uleb128 0x13
 1527 01d4 00       		.byte	0
 1528 01d5 00       		.byte	0
 1529 01d6 22       		.uleb128 0x22
 1530 01d7 34       		.uleb128 0x34
 1531 01d8 00       		.byte	0
 1532 01d9 03       		.uleb128 0x3
 1533 01da 08       		.uleb128 0x8
 1534 01db 3A       		.uleb128 0x3a
 1535 01dc 0B       		.uleb128 0xb
 1536 01dd 3B       		.uleb128 0x3b
 1537 01de 0B       		.uleb128 0xb
ARM GAS  /tmp/cc15MIRe.s 			page 28


 1538 01df 49       		.uleb128 0x49
 1539 01e0 13       		.uleb128 0x13
 1540 01e1 02       		.uleb128 0x2
 1541 01e2 17       		.uleb128 0x17
 1542 01e3 00       		.byte	0
 1543 01e4 00       		.byte	0
 1544 01e5 23       		.uleb128 0x23
 1545 01e6 01       		.uleb128 0x1
 1546 01e7 01       		.byte	0x1
 1547 01e8 49       		.uleb128 0x49
 1548 01e9 13       		.uleb128 0x13
 1549 01ea 01       		.uleb128 0x1
 1550 01eb 13       		.uleb128 0x13
 1551 01ec 00       		.byte	0
 1552 01ed 00       		.byte	0
 1553 01ee 24       		.uleb128 0x24
 1554 01ef 21       		.uleb128 0x21
 1555 01f0 00       		.byte	0
 1556 01f1 00       		.byte	0
 1557 01f2 00       		.byte	0
 1558 01f3 25       		.uleb128 0x25
 1559 01f4 34       		.uleb128 0x34
 1560 01f5 00       		.byte	0
 1561 01f6 47       		.uleb128 0x47
 1562 01f7 13       		.uleb128 0x13
 1563 01f8 1C       		.uleb128 0x1c
 1564 01f9 0B       		.uleb128 0xb
 1565 01fa 00       		.byte	0
 1566 01fb 00       		.byte	0
 1567 01fc 26       		.uleb128 0x26
 1568 01fd 34       		.uleb128 0x34
 1569 01fe 00       		.byte	0
 1570 01ff 47       		.uleb128 0x47
 1571 0200 13       		.uleb128 0x13
 1572 0201 1C       		.uleb128 0x1c
 1573 0202 05       		.uleb128 0x5
 1574 0203 00       		.byte	0
 1575 0204 00       		.byte	0
 1576 0205 27       		.uleb128 0x27
 1577 0206 34       		.uleb128 0x34
 1578 0207 00       		.byte	0
 1579 0208 47       		.uleb128 0x47
 1580 0209 13       		.uleb128 0x13
 1581 020a 1C       		.uleb128 0x1c
 1582 020b 06       		.uleb128 0x6
 1583 020c 00       		.byte	0
 1584 020d 00       		.byte	0
 1585 020e 00       		.byte	0
 1586              		.section	.debug_loc,"",%progbits
 1587              	.Ldebug_loc0:
 1588              	.LLST0:
 1589 0000 20000000 		.4byte	.LVL1-.Ltext0
 1590 0004 64010000 		.4byte	.LVL11-.Ltext0
 1591 0008 0100     		.2byte	0x1
 1592 000a 50       		.byte	0x50
 1593 000b 64010000 		.4byte	.LVL11-.Ltext0
 1594 000f 9C010000 		.4byte	.LFE12-.Ltext0
ARM GAS  /tmp/cc15MIRe.s 			page 29


 1595 0013 0400     		.2byte	0x4
 1596 0015 F3       		.byte	0xf3
 1597 0016 01       		.uleb128 0x1
 1598 0017 50       		.byte	0x50
 1599 0018 9F       		.byte	0x9f
 1600 0019 00000000 		.4byte	0
 1601 001d 00000000 		.4byte	0
 1602              	.LLST1:
 1603 0021 20000000 		.4byte	.LVL1-.Ltext0
 1604 0025 28000000 		.4byte	.LVL2-.Ltext0
 1605 0029 0100     		.2byte	0x1
 1606 002b 51       		.byte	0x51
 1607 002c 28000000 		.4byte	.LVL2-.Ltext0
 1608 0030 9C010000 		.4byte	.LFE12-.Ltext0
 1609 0034 0400     		.2byte	0x4
 1610 0036 F3       		.byte	0xf3
 1611 0037 01       		.uleb128 0x1
 1612 0038 51       		.byte	0x51
 1613 0039 9F       		.byte	0x9f
 1614 003a 00000000 		.4byte	0
 1615 003e 00000000 		.4byte	0
 1616              	.LLST2:
 1617 0042 20000000 		.4byte	.LVL1-.Ltext0
 1618 0046 88000000 		.4byte	.LVL3-.Ltext0
 1619 004a 0100     		.2byte	0x1
 1620 004c 52       		.byte	0x52
 1621 004d 88000000 		.4byte	.LVL3-.Ltext0
 1622 0051 9C010000 		.4byte	.LFE12-.Ltext0
 1623 0055 0400     		.2byte	0x4
 1624 0057 F3       		.byte	0xf3
 1625 0058 01       		.uleb128 0x1
 1626 0059 52       		.byte	0x52
 1627 005a 9F       		.byte	0x9f
 1628 005b 00000000 		.4byte	0
 1629 005f 00000000 		.4byte	0
 1630              	.LLST3:
 1631 0063 20000000 		.4byte	.LVL1-.Ltext0
 1632 0067 92010000 		.4byte	.LVL18-.Ltext0
 1633 006b 0200     		.2byte	0x2
 1634 006d 91       		.byte	0x91
 1635 006e 00       		.sleb128 0
 1636 006f 92010000 		.4byte	.LVL18-.Ltext0
 1637 0073 9C010000 		.4byte	.LFE12-.Ltext0
 1638 0077 0200     		.2byte	0x2
 1639 0079 7D       		.byte	0x7d
 1640 007a 00       		.sleb128 0
 1641 007b 00000000 		.4byte	0
 1642 007f 00000000 		.4byte	0
 1643              	.LLST4:
 1644 0083 88000000 		.4byte	.LVL3-.Ltext0
 1645 0087 A2000000 		.4byte	.LVL4-.Ltext0
 1646 008b 0100     		.2byte	0x1
 1647 008d 52       		.byte	0x52
 1648 008e A2000000 		.4byte	.LVL4-.Ltext0
 1649 0092 B6000000 		.4byte	.LVL5-.Ltext0
 1650 0096 0D00     		.2byte	0xd
 1651 0098 72       		.byte	0x72
ARM GAS  /tmp/cc15MIRe.s 			page 30


 1652 0099 00       		.sleb128 0
 1653 009a 12       		.byte	0x12
 1654 009b 30       		.byte	0x30
 1655 009c 16       		.byte	0x16
 1656 009d 14       		.byte	0x14
 1657 009e 2B       		.byte	0x2b
 1658 009f 28       		.byte	0x28
 1659 00a0 0100     		.2byte	0x1
 1660 00a2 16       		.byte	0x16
 1661 00a3 13       		.byte	0x13
 1662 00a4 9F       		.byte	0x9f
 1663 00a5 B6000000 		.4byte	.LVL5-.Ltext0
 1664 00a9 C6000000 		.4byte	.LVL6-.Ltext0
 1665 00ad 0100     		.2byte	0x1
 1666 00af 52       		.byte	0x52
 1667 00b0 00000000 		.4byte	0
 1668 00b4 00000000 		.4byte	0
 1669              	.LLST5:
 1670 00b8 4C010000 		.4byte	.LVL8-.Ltext0
 1671 00bc 6C010000 		.4byte	.LVL12-.Ltext0
 1672 00c0 0100     		.2byte	0x1
 1673 00c2 55       		.byte	0x55
 1674 00c3 6C010000 		.4byte	.LVL12-.Ltext0
 1675 00c7 9C010000 		.4byte	.LFE12-.Ltext0
 1676 00cb 0300     		.2byte	0x3
 1677 00cd F3       		.byte	0xf3
 1678 00ce 01       		.uleb128 0x1
 1679 00cf 50       		.byte	0x50
 1680 00d0 00000000 		.4byte	0
 1681 00d4 00000000 		.4byte	0
 1682              	.LLST6:
 1683 00d8 52010000 		.4byte	.LVL9-.Ltext0
 1684 00dc 62010000 		.4byte	.LVL10-.Ltext0
 1685 00e0 0100     		.2byte	0x1
 1686 00e2 54       		.byte	0x54
 1687 00e3 62010000 		.4byte	.LVL10-.Ltext0
 1688 00e7 64010000 		.4byte	.LVL11-.Ltext0
 1689 00eb 0200     		.2byte	0x2
 1690 00ed 70       		.byte	0x70
 1691 00ee 08       		.sleb128 8
 1692 00ef 64010000 		.4byte	.LVL11-.Ltext0
 1693 00f3 7E010000 		.4byte	.LVL17-.Ltext0
 1694 00f7 0D00     		.2byte	0xd
 1695 00f9 79       		.byte	0x79
 1696 00fa 00       		.sleb128 0
 1697 00fb 38       		.byte	0x38
 1698 00fc 24       		.byte	0x24
 1699 00fd 78       		.byte	0x78
 1700 00fe 00       		.sleb128 0
 1701 00ff 48       		.byte	0x48
 1702 0100 25       		.byte	0x25
 1703 0101 21       		.byte	0x21
 1704 0102 77       		.byte	0x77
 1705 0103 00       		.sleb128 0
 1706 0104 22       		.byte	0x22
 1707 0105 9F       		.byte	0x9f
 1708 0106 7E010000 		.4byte	.LVL17-.Ltext0
ARM GAS  /tmp/cc15MIRe.s 			page 31


 1709 010a 9C010000 		.4byte	.LFE12-.Ltext0
 1710 010e 0500     		.2byte	0x5
 1711 0110 F3       		.byte	0xf3
 1712 0111 01       		.uleb128 0x1
 1713 0112 50       		.byte	0x50
 1714 0113 23       		.byte	0x23
 1715 0114 08       		.uleb128 0x8
 1716 0115 00000000 		.4byte	0
 1717 0119 00000000 		.4byte	0
 1718              	.LLST7:
 1719 011d 62010000 		.4byte	.LVL10-.Ltext0
 1720 0121 6E010000 		.4byte	.LVL13-.Ltext0
 1721 0125 0100     		.2byte	0x1
 1722 0127 54       		.byte	0x54
 1723 0128 6E010000 		.4byte	.LVL13-.Ltext0
 1724 012c 70010000 		.4byte	.LVL14-.Ltext0
 1725 0130 0100     		.2byte	0x1
 1726 0132 55       		.byte	0x55
 1727 0133 70010000 		.4byte	.LVL14-.Ltext0
 1728 0137 92010000 		.4byte	.LVL18-.Ltext0
 1729 013b 0100     		.2byte	0x1
 1730 013d 54       		.byte	0x54
 1731 013e 00000000 		.4byte	0
 1732 0142 00000000 		.4byte	0
 1733              	.LLST8:
 1734 0146 62010000 		.4byte	.LVL10-.Ltext0
 1735 014a 76010000 		.4byte	.LVL15-.Ltext0
 1736 014e 0100     		.2byte	0x1
 1737 0150 52       		.byte	0x52
 1738 0151 76010000 		.4byte	.LVL15-.Ltext0
 1739 0155 7A010000 		.4byte	.LVL16-.Ltext0
 1740 0159 0500     		.2byte	0x5
 1741 015b 7C       		.byte	0x7c
 1742 015c 80FE03   		.sleb128 65280
 1743 015f 9F       		.byte	0x9f
 1744 0160 7A010000 		.4byte	.LVL16-.Ltext0
 1745 0164 9C010000 		.4byte	.LFE12-.Ltext0
 1746 0168 0500     		.2byte	0x5
 1747 016a 7C       		.byte	0x7c
 1748 016b FFFF03   		.sleb128 65535
 1749 016e 9F       		.byte	0x9f
 1750 016f 00000000 		.4byte	0
 1751 0173 00000000 		.4byte	0
 1752              		.section	.debug_aranges,"",%progbits
 1753 0000 1C000000 		.4byte	0x1c
 1754 0004 0200     		.2byte	0x2
 1755 0006 00000000 		.4byte	.Ldebug_info0
 1756 000a 04       		.byte	0x4
 1757 000b 00       		.byte	0
 1758 000c 0000     		.2byte	0
 1759 000e 0000     		.2byte	0
 1760 0010 00000000 		.4byte	.Ltext0
 1761 0014 9C010000 		.4byte	.Letext0-.Ltext0
 1762 0018 00000000 		.4byte	0
 1763 001c 00000000 		.4byte	0
 1764              		.section	.debug_ranges,"",%progbits
 1765              	.Ldebug_ranges0:
ARM GAS  /tmp/cc15MIRe.s 			page 32


 1766 0000 26000000 		.4byte	.LBB2-.Ltext0
 1767 0004 62010000 		.4byte	.LBE2-.Ltext0
 1768 0008 64010000 		.4byte	.LBB3-.Ltext0
 1769 000c 8C010000 		.4byte	.LBE3-.Ltext0
 1770 0010 00000000 		.4byte	0
 1771 0014 00000000 		.4byte	0
 1772              		.section	.debug_line,"",%progbits
 1773              	.Ldebug_line0:
 1774 0000 09020000 		.section	.debug_str,"MS",%progbits,1
 1774      02009F01 
 1774      00000201 
 1774      FB0E0D00 
 1774      01010101 
 1775              	.LASF43:
 1776 0000 4C55545F 		.ascii	"LUT_ENV_LINEAR\000"
 1776      454E565F 
 1776      4C494E45 
 1776      415200
 1777              	.LASF66:
 1778 000f 4C55545F 		.ascii	"LUT_EXP2_SIZE\000"
 1778      45585032 
 1778      5F53495A 
 1778      4500
 1779              	.LASF38:
 1780 001d 5354525F 		.ascii	"STR_DUMMY\000"
 1780      44554D4D 
 1780      5900
 1781              	.LASF23:
 1782 0027 7663665F 		.ascii	"vcf_amount_\000"
 1782      616D6F75 
 1782      6E745F00 
 1783              	.LASF63:
 1784 0033 4C55545F 		.ascii	"LUT_LP_COEFFICIENTS\000"
 1784      4C505F43 
 1784      4F454646 
 1784      49434945 
 1784      4E545300 
 1785              	.LASF4:
 1786 0047 73686F72 		.ascii	"short int\000"
 1786      7420696E 
 1786      7400
 1787              	.LASF72:
 1788 0051 62657461 		.ascii	"beta\000"
 1788      00
 1789              	.LASF21:
 1790 0056 73697A65 		.ascii	"sizetype\000"
 1790      74797065 
 1790      00
 1791              	.LASF68:
 1792 005f 4C55545F 		.ascii	"LUT_LOG2_SIZE\000"
 1792      4C4F4732 
 1792      5F53495A 
 1792      4500
 1793              	.LASF46:
 1794 006d 4C55545F 		.ascii	"LUT_ENV_EXPO_SIZE\000"
 1794      454E565F 
 1794      4558504F 
ARM GAS  /tmp/cc15MIRe.s 			page 33


 1794      5F53495A 
 1794      4500
 1795              	.LASF84:
 1796 007f 2F686F6D 		.ascii	"/home/sbcu/Dropbox/pcb-layouts/axo-on-discovery-boa"
 1796      652F7362 
 1796      63752F44 
 1796      726F7062 
 1796      6F782F70 
 1797 00b2 72642F61 		.ascii	"rd/axoloti/firmware\000"
 1797      786F6C6F 
 1797      74692F66 
 1797      69726D77 
 1797      61726500 
 1798              	.LASF65:
 1799 00c6 4C55545F 		.ascii	"LUT_EXP2\000"
 1799      45585032 
 1799      00
 1800              	.LASF5:
 1801 00cf 5F5F7569 		.ascii	"__uint16_t\000"
 1801      6E743136 
 1801      5F7400
 1802              	.LASF31:
 1803 00da 50726F63 		.ascii	"Process\000"
 1803      65737300 
 1804              	.LASF18:
 1805 00e2 696E7436 		.ascii	"int64_t\000"
 1805      345F7400 
 1806              	.LASF37:
 1807 00ea 5F5A4E37 		.ascii	"_ZN7streams15LorenzGenerator9ConfigureEbPlS1_\000"
 1807      73747265 
 1807      616D7331 
 1807      354C6F72 
 1807      656E7A47 
 1808              	.LASF49:
 1809 0118 4C55545F 		.ascii	"LUT_SQUARE_ROOT\000"
 1809      53515541 
 1809      52455F52 
 1809      4F4F5400 
 1810              	.LASF14:
 1811 0128 75696E74 		.ascii	"uint8_t\000"
 1811      385F7400 
 1812              	.LASF28:
 1813 0130 4C6F7265 		.ascii	"LorenzGenerator\000"
 1813      6E7A4765 
 1813      6E657261 
 1813      746F7200 
 1814              	.LASF75:
 1815 0140 61756469 		.ascii	"audio\000"
 1815      6F00
 1816              	.LASF58:
 1817 0146 4C55545F 		.ascii	"LUT_COMPRESSOR_RATIO_SIZE\000"
 1817      434F4D50 
 1817      52455353 
 1817      4F525F52 
 1817      4154494F 
 1818              	.LASF70:
 1819 0160 4C55545F 		.ascii	"LUT_LORENZ_RATE_SIZE\000"
ARM GAS  /tmp/cc15MIRe.s 			page 34


 1819      4C4F5245 
 1819      4E5A5F52 
 1819      4154455F 
 1819      53495A45 
 1820              	.LASF27:
 1821 0175 696E6465 		.ascii	"index_\000"
 1821      785F00
 1822              	.LASF11:
 1823 017c 6C6F6E67 		.ascii	"long long int\000"
 1823      206C6F6E 
 1823      6720696E 
 1823      7400
 1824              	.LASF64:
 1825 018a 4C55545F 		.ascii	"LUT_LP_COEFFICIENTS_SIZE\000"
 1825      4C505F43 
 1825      4F454646 
 1825      49434945 
 1825      4E54535F 
 1826              	.LASF30:
 1827 01a3 496E6974 		.ascii	"Init\000"
 1827      00
 1828              	.LASF8:
 1829 01a8 6C6F6E67 		.ascii	"long int\000"
 1829      20696E74 
 1829      00
 1830              	.LASF83:
 1831 01b1 2E2F6D75 		.ascii	"./mutable_instruments/streams/lorenz_generator.cpp\000"
 1831      7461626C 
 1831      655F696E 
 1831      73747275 
 1831      6D656E74 
 1832              	.LASF73:
 1833 01e4 626F6F6C 		.ascii	"bool\000"
 1833      00
 1834              	.LASF20:
 1835 01e9 73746D6C 		.ascii	"stmlib\000"
 1835      696200
 1836              	.LASF78:
 1837 01f0 66726571 		.ascii	"frequency\000"
 1837      75656E63 
 1837      7900
 1838              	.LASF2:
 1839 01fa 5F5F7569 		.ascii	"__uint8_t\000"
 1839      6E74385F 
 1839      7400
 1840              	.LASF39:
 1841 0204 5741565F 		.ascii	"WAV_GOMPERTZ\000"
 1841      474F4D50 
 1841      4552545A 
 1841      00
 1842              	.LASF29:
 1843 0211 7E4C6F72 		.ascii	"~LorenzGenerator\000"
 1843      656E7A47 
 1843      656E6572 
 1843      61746F72 
 1843      00
 1844              	.LASF60:
ARM GAS  /tmp/cc15MIRe.s 			page 35


 1845 0222 4C55545F 		.ascii	"LUT_SOFT_KNEE_SIZE\000"
 1845      534F4654 
 1845      5F4B4E45 
 1845      455F5349 
 1845      5A4500
 1846              	.LASF45:
 1847 0235 4C55545F 		.ascii	"LUT_ENV_EXPO\000"
 1847      454E565F 
 1847      4558504F 
 1847      00
 1848              	.LASF76:
 1849 0242 65786369 		.ascii	"excite\000"
 1849      746500
 1850              	.LASF1:
 1851 0249 756E7369 		.ascii	"unsigned char\000"
 1851      676E6564 
 1851      20636861 
 1851      7200
 1852              	.LASF26:
 1853 0257 74617267 		.ascii	"target_vca_amount_\000"
 1853      65745F76 
 1853      63615F61 
 1853      6D6F756E 
 1853      745F00
 1854              	.LASF0:
 1855 026a 7369676E 		.ascii	"signed char\000"
 1855      65642063 
 1855      68617200 
 1856              	.LASF47:
 1857 0276 4C55545F 		.ascii	"LUT_ENV_QUARTIC\000"
 1857      454E565F 
 1857      51554152 
 1857      54494300 
 1858              	.LASF12:
 1859 0286 6C6F6E67 		.ascii	"long long unsigned int\000"
 1859      206C6F6E 
 1859      6720756E 
 1859      7369676E 
 1859      65642069 
 1860              	.LASF13:
 1861 029d 756E7369 		.ascii	"unsigned int\000"
 1861      676E6564 
 1861      20696E74 
 1861      00
 1862              	.LASF71:
 1863 02aa 7369676D 		.ascii	"sigma\000"
 1863      6100
 1864              	.LASF16:
 1865 02b0 75696E74 		.ascii	"uint16_t\000"
 1865      31365F74 
 1865      00
 1866              	.LASF62:
 1867 02b9 4C55545F 		.ascii	"LUT_ENV_INCREMENTS_SIZE\000"
 1867      454E565F 
 1867      494E4352 
 1867      454D454E 
 1867      54535F53 
ARM GAS  /tmp/cc15MIRe.s 			page 36


 1868              	.LASF80:
 1869 02d1 7A5F7363 		.ascii	"z_scaled\000"
 1869      616C6564 
 1869      00
 1870              	.LASF22:
 1871 02da 72617465 		.ascii	"rate_\000"
 1871      5F00
 1872              	.LASF35:
 1873 02e0 5F5A4E37 		.ascii	"_ZN7streams15LorenzGenerator9set_indexEh\000"
 1873      73747265 
 1873      616D7331 
 1873      354C6F72 
 1873      656E7A47 
 1874              	.LASF19:
 1875 0309 696D706C 		.ascii	"impl\000"
 1875      00
 1876              	.LASF41:
 1877 030e 5741565F 		.ascii	"WAV_DB\000"
 1877      444200
 1878              	.LASF6:
 1879 0315 73686F72 		.ascii	"short unsigned int\000"
 1879      7420756E 
 1879      7369676E 
 1879      65642069 
 1879      6E7400
 1880              	.LASF67:
 1881 0328 4C55545F 		.ascii	"LUT_LOG2\000"
 1881      4C4F4732 
 1881      00
 1882              	.LASF40:
 1883 0331 5741565F 		.ascii	"WAV_GOMPERTZ_SIZE\000"
 1883      474F4D50 
 1883      4552545A 
 1883      5F53495A 
 1883      4500
 1884              	.LASF33:
 1885 0343 5F5A4E37 		.ascii	"_ZN7streams15LorenzGenerator7ProcessEssPtS1_\000"
 1885      73747265 
 1885      616D7331 
 1885      354C6F72 
 1885      656E7A47 
 1886              	.LASF17:
 1887 0370 696E7433 		.ascii	"int32_t\000"
 1887      325F7400 
 1888              	.LASF15:
 1889 0378 696E7431 		.ascii	"int16_t\000"
 1889      365F7400 
 1890              	.LASF25:
 1891 0380 74617267 		.ascii	"target_vcf_amount_\000"
 1891      65745F76 
 1891      63665F61 
 1891      6D6F756E 
 1891      745F00
 1892              	.LASF89:
 1893 0393 5F5A4E37 		.ascii	"_ZN7streams15lut_lorenz_rateE\000"
 1893      73747265 
 1893      616D7331 
ARM GAS  /tmp/cc15MIRe.s 			page 37


 1893      356C7574 
 1893      5F6C6F72 
 1894              	.LASF48:
 1895 03b1 4C55545F 		.ascii	"LUT_ENV_QUARTIC_SIZE\000"
 1895      454E565F 
 1895      51554152 
 1895      5449435F 
 1895      53495A45 
 1896              	.LASF82:
 1897 03c6 474E5520 		.ascii	"GNU C++ 4.9.3 20150529 (release) [ARM/embedded-4_9-"
 1897      432B2B20 
 1897      342E392E 
 1897      33203230 
 1897      31353035 
 1898 03f9 6272616E 		.ascii	"branch revision 224288] -mcpu=cortex-m4 -mfloat-abi"
 1898      63682072 
 1898      65766973 
 1898      696F6E20 
 1898      32323432 
 1899 042c 3D686172 		.ascii	"=hard -mfpu=fpv4-sp-d16 -mno-thumb-interwork -mthum"
 1899      64202D6D 
 1899      6670753D 
 1899      66707634 
 1899      2D73702D 
 1900 045f 62202D67 		.ascii	"b -ggdb -O2 -fomit-frame-pointer -falign-functions="
 1900      67646220 
 1900      2D4F3220 
 1900      2D666F6D 
 1900      69742D66 
 1901 0492 3136202D 		.ascii	"16 -fno-math-errno -fsingle-precision-constant -fno"
 1901      666E6F2D 
 1901      6D617468 
 1901      2D657272 
 1901      6E6F202D 
 1902 04c5 2D727474 		.ascii	"-rtti\000"
 1902      6900
 1903              	.LASF44:
 1904 04cb 4C55545F 		.ascii	"LUT_ENV_LINEAR_SIZE\000"
 1904      454E565F 
 1904      4C494E45 
 1904      41525F53 
 1904      495A4500 
 1905              	.LASF42:
 1906 04df 5741565F 		.ascii	"WAV_DB_SIZE\000"
 1906      44425F53 
 1906      495A4500 
 1907              	.LASF32:
 1908 04eb 5F5A4E37 		.ascii	"_ZN7streams15LorenzGenerator4InitEv\000"
 1908      73747265 
 1908      616D7331 
 1908      354C6F72 
 1908      656E7A47 
 1909              	.LASF87:
 1910 050f 5F5A4E37 		.ascii	"_ZN7streams15LorenzGeneratoraSERKS0_\000"
 1910      73747265 
 1910      616D7331 
 1910      354C6F72 
ARM GAS  /tmp/cc15MIRe.s 			page 38


 1910      656E7A47 
 1911              	.LASF9:
 1912 0534 6C6F6E67 		.ascii	"long unsigned int\000"
 1912      20756E73 
 1912      69676E65 
 1912      6420696E 
 1912      7400
 1913              	.LASF50:
 1914 0546 4C55545F 		.ascii	"LUT_SQUARE_ROOT_SIZE\000"
 1914      53515541 
 1914      52455F52 
 1914      4F4F545F 
 1914      53495A45 
 1915              	.LASF88:
 1916 055b 6C75745F 		.ascii	"lut_lorenz_rate\000"
 1916      6C6F7265 
 1916      6E7A5F72 
 1916      61746500 
 1917              	.LASF52:
 1918 056b 4C55545F 		.ascii	"LUT_SVF_CUTOFF_SIZE\000"
 1918      5356465F 
 1918      4355544F 
 1918      46465F53 
 1918      495A4500 
 1919              	.LASF7:
 1920 057f 5F5F696E 		.ascii	"__int32_t\000"
 1920      7433325F 
 1920      7400
 1921              	.LASF53:
 1922 0589 4C55545F 		.ascii	"LUT_SVF_DAMP\000"
 1922      5356465F 
 1922      44414D50 
 1922      00
 1923              	.LASF59:
 1924 0596 4C55545F 		.ascii	"LUT_SOFT_KNEE\000"
 1924      534F4654 
 1924      5F4B4E45 
 1924      4500
 1925              	.LASF3:
 1926 05a4 5F5F696E 		.ascii	"__int16_t\000"
 1926      7431365F 
 1926      7400
 1927              	.LASF85:
 1928 05ae 73747265 		.ascii	"streams\000"
 1928      616D7300 
 1929              	.LASF79:
 1930 05b6 72617465 		.ascii	"rate\000"
 1930      00
 1931              	.LASF51:
 1932 05bb 4C55545F 		.ascii	"LUT_SVF_CUTOFF\000"
 1932      5356465F 
 1932      4355544F 
 1932      464600
 1933              	.LASF54:
 1934 05ca 4C55545F 		.ascii	"LUT_SVF_DAMP_SIZE\000"
 1934      5356465F 
 1934      44414D50 
ARM GAS  /tmp/cc15MIRe.s 			page 39


 1934      5F53495A 
 1934      4500
 1935              	.LASF24:
 1936 05dc 7663615F 		.ascii	"vca_amount_\000"
 1936      616D6F75 
 1936      6E745F00 
 1937              	.LASF81:
 1938 05e8 785F7363 		.ascii	"x_scaled\000"
 1938      616C6564 
 1938      00
 1939              	.LASF57:
 1940 05f1 4C55545F 		.ascii	"LUT_COMPRESSOR_RATIO\000"
 1940      434F4D50 
 1940      52455353 
 1940      4F525F52 
 1940      4154494F 
 1941              	.LASF10:
 1942 0606 5F5F696E 		.ascii	"__int64_t\000"
 1942      7436345F 
 1942      7400
 1943              	.LASF69:
 1944 0610 4C55545F 		.ascii	"LUT_LORENZ_RATE\000"
 1944      4C4F5245 
 1944      4E5A5F52 
 1944      41544500 
 1945              	.LASF61:
 1946 0620 4C55545F 		.ascii	"LUT_ENV_INCREMENTS\000"
 1946      454E565F 
 1946      494E4352 
 1946      454D454E 
 1946      545300
 1947              	.LASF34:
 1948 0633 7365745F 		.ascii	"set_index\000"
 1948      696E6465 
 1948      7800
 1949              	.LASF74:
 1950 063d 74686973 		.ascii	"this\000"
 1950      00
 1951              	.LASF55:
 1952 0642 4C55545F 		.ascii	"LUT_2164_GAIN\000"
 1952      32313634 
 1952      5F474149 
 1952      4E00
 1953              	.LASF86:
 1954 0650 6F706572 		.ascii	"operator=\000"
 1954      61746F72 
 1954      3D00
 1955              	.LASF56:
 1956 065a 4C55545F 		.ascii	"LUT_2164_GAIN_SIZE\000"
 1956      32313634 
 1956      5F474149 
 1956      4E5F5349 
 1956      5A4500
 1957              	.LASF36:
 1958 066d 436F6E66 		.ascii	"Configure\000"
 1958      69677572 
 1958      6500
ARM GAS  /tmp/cc15MIRe.s 			page 40


 1959              	.LASF77:
 1960 0677 6761696E 		.ascii	"gain\000"
 1960      00
 1961              		.ident	"GCC: (GNU Tools for ARM Embedded Processors) 4.9.3 20150529 (release) [ARM/embedded-4_9-br
ARM GAS  /tmp/cc15MIRe.s 			page 41


DEFINED SYMBOLS
                            *ABS*:00000000 lorenz_generator.cpp
     /tmp/cc15MIRe.s:20     .text:00000000 $t
     /tmp/cc15MIRe.s:26     .text:00000000 _ZN7streams15LorenzGenerator4InitEv
     /tmp/cc15MIRe.s:52     .text:00000010 $d
                       .ARM.exidx:00000000 $d
     /tmp/cc15MIRe.s:58     .text:00000014 $t
     /tmp/cc15MIRe.s:64     .text:00000020 _ZN7streams15LorenzGenerator7ProcessEssPtS1_
     /tmp/cc15MIRe.s:289    .text:00000194 $d
                     .debug_frame:00000010 $d

UNDEFINED SYMBOLS
_ZN7streams15lut_lorenz_rateE
