ARM GAS  /tmp/ccKw3qim.s 			page 1


   1              		.syntax unified
   2              		.cpu cortex-m4
   3              		.eabi_attribute 27, 1
   4              		.eabi_attribute 28, 1
   5              		.fpu fpv4-sp-d16
   6              		.eabi_attribute 20, 1
   7              		.eabi_attribute 21, 1
   8              		.eabi_attribute 23, 3
   9              		.eabi_attribute 24, 1
  10              		.eabi_attribute 25, 1
  11              		.eabi_attribute 26, 1
  12              		.eabi_attribute 30, 2
  13              		.eabi_attribute 34, 1
  14              		.eabi_attribute 18, 4
  15              		.thumb
  16              		.file	"main.c"
  17              		.text
  18              	.Ltext0:
  19              		.cfi_sections	.debug_frame
  20              		.align	2
  21              		.p2align 4,,15
  22              		.global	ToggleGreen
  23              		.thumb
  24              		.thumb_func
  25              		.type	ToggleGreen, %function
  26              	ToggleGreen:
  27              	.LFB180:
  28              		.file 1 "main.c"
  29              		.loc 1 69 0
  30              		.cfi_startproc
  31              		@ args = 0, pretend = 0, frame = 0
  32              		@ frame_needed = 0, uses_anonymous_args = 0
  33 0000 10B5     		push	{r4, lr}
  34              		.cfi_def_cfa_offset 8
  35              		.cfi_offset 4, -8
  36              		.cfi_offset 14, -4
  37              		.loc 1 70 0
  38 0002 064C     		ldr	r4, .L3
  39 0004 4FF48051 		mov	r1, #4096
  40 0008 2046     		mov	r0, r4
  41 000a 0122     		movs	r2, #1
  42 000c FFF7FEFF 		bl	_pal_lld_setgroupmode
  43              	.LVL0:
  44 0010 6369     		ldr	r3, [r4, #20]
  45 0012 83F48053 		eor	r3, r3, #4096
  46 0016 6361     		str	r3, [r4, #20]
  47 0018 10BD     		pop	{r4, pc}
  48              	.L4:
  49 001a 00BF     		.align	2
  50              	.L3:
  51 001c 000C0240 		.word	1073875968
  52              		.cfi_endproc
  53              	.LFE180:
  54              		.size	ToggleGreen, .-ToggleGreen
  55              		.align	2
  56              		.p2align 4,,15
  57              		.global	ToggleOrange
ARM GAS  /tmp/ccKw3qim.s 			page 2


  58              		.thumb
  59              		.thumb_func
  60              		.type	ToggleOrange, %function
  61              	ToggleOrange:
  62              	.LFB181:
  63              		.loc 1 72 0
  64              		.cfi_startproc
  65              		@ args = 0, pretend = 0, frame = 0
  66              		@ frame_needed = 0, uses_anonymous_args = 0
  67 0020 10B5     		push	{r4, lr}
  68              		.cfi_def_cfa_offset 8
  69              		.cfi_offset 4, -8
  70              		.cfi_offset 14, -4
  71              		.loc 1 73 0
  72 0022 064C     		ldr	r4, .L7
  73 0024 4FF40051 		mov	r1, #8192
  74 0028 2046     		mov	r0, r4
  75 002a 0122     		movs	r2, #1
  76 002c FFF7FEFF 		bl	_pal_lld_setgroupmode
  77              	.LVL1:
  78 0030 6369     		ldr	r3, [r4, #20]
  79 0032 83F40053 		eor	r3, r3, #8192
  80 0036 6361     		str	r3, [r4, #20]
  81 0038 10BD     		pop	{r4, pc}
  82              	.L8:
  83 003a 00BF     		.align	2
  84              	.L7:
  85 003c 000C0240 		.word	1073875968
  86              		.cfi_endproc
  87              	.LFE181:
  88              		.size	ToggleOrange, .-ToggleOrange
  89              		.align	2
  90              		.p2align 4,,15
  91              		.global	ToggleRed
  92              		.thumb
  93              		.thumb_func
  94              		.type	ToggleRed, %function
  95              	ToggleRed:
  96              	.LFB182:
  97              		.loc 1 75 0
  98              		.cfi_startproc
  99              		@ args = 0, pretend = 0, frame = 0
 100              		@ frame_needed = 0, uses_anonymous_args = 0
 101 0040 10B5     		push	{r4, lr}
 102              		.cfi_def_cfa_offset 8
 103              		.cfi_offset 4, -8
 104              		.cfi_offset 14, -4
 105              		.loc 1 76 0
 106 0042 064C     		ldr	r4, .L11
 107 0044 4FF48041 		mov	r1, #16384
 108 0048 2046     		mov	r0, r4
 109 004a 0122     		movs	r2, #1
 110 004c FFF7FEFF 		bl	_pal_lld_setgroupmode
 111              	.LVL2:
 112 0050 6369     		ldr	r3, [r4, #20]
 113 0052 83F48043 		eor	r3, r3, #16384
 114 0056 6361     		str	r3, [r4, #20]
ARM GAS  /tmp/ccKw3qim.s 			page 3


 115 0058 10BD     		pop	{r4, pc}
 116              	.L12:
 117 005a 00BF     		.align	2
 118              	.L11:
 119 005c 000C0240 		.word	1073875968
 120              		.cfi_endproc
 121              	.LFE182:
 122              		.size	ToggleRed, .-ToggleRed
 123              		.align	2
 124              		.p2align 4,,15
 125              		.global	ToggleBlue
 126              		.thumb
 127              		.thumb_func
 128              		.type	ToggleBlue, %function
 129              	ToggleBlue:
 130              	.LFB183:
 131              		.loc 1 78 0
 132              		.cfi_startproc
 133              		@ args = 0, pretend = 0, frame = 0
 134              		@ frame_needed = 0, uses_anonymous_args = 0
 135 0060 10B5     		push	{r4, lr}
 136              		.cfi_def_cfa_offset 8
 137              		.cfi_offset 4, -8
 138              		.cfi_offset 14, -4
 139              		.loc 1 79 0
 140 0062 064C     		ldr	r4, .L15
 141 0064 4FF40041 		mov	r1, #32768
 142 0068 2046     		mov	r0, r4
 143 006a 0122     		movs	r2, #1
 144 006c FFF7FEFF 		bl	_pal_lld_setgroupmode
 145              	.LVL3:
 146 0070 6369     		ldr	r3, [r4, #20]
 147 0072 83F40043 		eor	r3, r3, #32768
 148 0076 6361     		str	r3, [r4, #20]
 149 0078 10BD     		pop	{r4, pc}
 150              	.L16:
 151 007a 00BF     		.align	2
 152              	.L15:
 153 007c 000C0240 		.word	1073875968
 154              		.cfi_endproc
 155              	.LFE183:
 156              		.size	ToggleBlue, .-ToggleBlue
 157              		.section	.text.startup,"ax",%progbits
 158              		.align	2
 159              		.p2align 4,,15
 160              		.global	main
 161              		.thumb
 162              		.thumb_func
 163              		.type	main, %function
 164              	main:
 165              	.LFB184:
 166              		.loc 1 83 0
 167              		.cfi_startproc
 168              		@ Volatile: function does not return.
 169              		@ args = 0, pretend = 0, frame = 0
 170              		@ frame_needed = 0, uses_anonymous_args = 0
 171 0000 08B5     		push	{r3, lr}
ARM GAS  /tmp/ccKw3qim.s 			page 4


 172              		.cfi_def_cfa_offset 8
 173              		.cfi_offset 3, -8
 174              		.cfi_offset 14, -4
 175              		.loc 1 87 0
 176 0002 0021     		movs	r1, #0
 177 0004 4FF40072 		mov	r2, #512
 178 0008 4FF00050 		mov	r0, #536870912
 179 000c FFF7FEFF 		bl	memcpy
 180              	.LVL4:
 181              		.loc 1 90 0
 182 0010 254A     		ldr	r2, .L25
 183              		.loc 1 117 0
 184 0012 264D     		ldr	r5, .L25+4
 185              		.loc 1 90 0
 186 0014 1368     		ldr	r3, [r2]
 187              		.loc 1 122 0
 188 0016 264C     		ldr	r4, .L25+8
 189              		.loc 1 90 0
 190 0018 43F00303 		orr	r3, r3, #3
 191 001c 1360     		str	r3, [r2]
 192              		.loc 1 92 0
 193 001e FFF7FEFF 		bl	halInit
 194              	.LVL5:
 195              		.loc 1 93 0
 196 0022 FFF7FEFF 		bl	chSysInit
 197              	.LVL6:
 198              		.loc 1 95 0
 199 0026 FFF7FEFF 		bl	sdcard_init
 200              	.LVL7:
 201              		.loc 1 96 0
 202 002a FFF7FEFF 		bl	sysmon_init
 203              	.LVL8:
 204              		.loc 1 110 0
 205 002e FFF7FEFF 		bl	exception_init
 206              	.LVL9:
 207              		.loc 1 112 0
 208 0032 FFF7FEFF 		bl	InitPatch0
 209              	.LVL10:
 210              		.loc 1 114 0
 211 0036 FFF7FEFF 		bl	InitPConnection
 212              	.LVL11:
 213              		.loc 1 117 0
 214 003a 0221     		movs	r1, #2
 215 003c 0122     		movs	r2, #1
 216 003e 2846     		mov	r0, r5
 217 0040 FFF7FEFF 		bl	_pal_lld_setgroupmode
 218              	.LVL12:
 219              		.loc 1 118 0
 220 0044 0223     		movs	r3, #2
 221 0046 2B83     		strh	r3, [r5, #24]	@ movhi
 222              		.loc 1 120 0
 223 0048 0A20     		movs	r0, #10
 224 004a FFF7FEFF 		bl	chThdSleep
 225              	.LVL13:
 226              		.loc 1 122 0
 227 004e 4022     		movs	r2, #64
 228 0050 2046     		mov	r0, r4
ARM GAS  /tmp/ccKw3qim.s 			page 5


 229 0052 0121     		movs	r1, #1
 230 0054 FFF7FEFF 		bl	_pal_lld_setgroupmode
 231              	.LVL14:
 232              		.loc 1 124 0
 233 0058 FFF7FEFF 		bl	axoloti_board_init
 234              	.LVL15:
 235              		.loc 1 125 0
 236 005c FFF7FEFF 		bl	adc_init
 237              	.LVL16:
 238              		.loc 1 126 0
 239 0060 FFF7FEFF 		bl	axoloti_math_init
 240              	.LVL17:
 241              		.loc 1 127 0
 242 0064 FFF7FEFF 		bl	midi_init
 243              	.LVL18:
 244              		.loc 1 128 0
 245 0068 FFF7FEFF 		bl	start_dsp_thread
 246              	.LVL19:
 247              		.loc 1 129 0
 248 006c FFF7FEFF 		bl	codec_init
 249              	.LVL20:
 250              		.loc 1 130 0
 251 0070 2369     		ldr	r3, [r4, #16]
 252 0072 DA07     		lsls	r2, r3, #31
 253 0074 0DD5     		bpl	.L23
 254              	.L18:
 255              		.loc 1 138 0
 256 0076 FFF7FEFF 		bl	ui_init
 257              	.LVL21:
 258              		.loc 1 149 0
 259 007a FFF7FEFF 		bl	exception_check
 260              	.LVL22:
 261 007e 18B9     		cbnz	r0, .L20
 262              		.loc 1 162 0
 263 0080 0C4B     		ldr	r3, .L25+12
 264 0082 1B78     		ldrb	r3, [r3]	@ zero_extendqisi2
 265 0084 012B     		cmp	r3, #1
 266 0086 08D0     		beq	.L24
 267              	.L20:
 268              		.loc 1 169 0 discriminator 1
 269 0088 4FF47A70 		mov	r0, #1000
 270 008c FFF7FEFF 		bl	chThdSleep
 271              	.LVL23:
 272              		.loc 1 170 0 discriminator 1
 273 0090 FAE7     		b	.L20
 274              	.L23:
 275              		.loc 1 132 0
 276 0092 0120     		movs	r0, #1
 277 0094 FFF7FEFF 		bl	chThdSleep
 278              	.LVL24:
 279 0098 EDE7     		b	.L18
 280              	.L24:
 281              		.loc 1 163 0
 282 009a 054B     		ldr	r3, .L25+8
 283 009c 1B69     		ldr	r3, [r3, #16]
 284 009e DB07     		lsls	r3, r3, #31
 285 00a0 F2D4     		bmi	.L20
ARM GAS  /tmp/ccKw3qim.s 			page 6


 286              		.loc 1 164 0
 287 00a2 FFF7FEFF 		bl	LoadPatchStartFlash
 288              	.LVL25:
 289 00a6 EFE7     		b	.L20
 290              	.L26:
 291              		.align	2
 292              	.L25:
 293 00a8 00380140 		.word	1073821696
 294 00ac 00080240 		.word	1073874944
 295 00b0 00000240 		.word	1073872896
 296 00b4 00000000 		.word	patchStatus
 297              		.cfi_endproc
 298              	.LFE184:
 299              		.size	main, .-main
 300              		.text
 301              		.align	2
 302              		.p2align 4,,15
 303              		.global	HAL_Delay
 304              		.thumb
 305              		.thumb_func
 306              		.type	HAL_Delay, %function
 307              	HAL_Delay:
 308              	.LFB185:
 309              		.loc 1 173 0
 310              		.cfi_startproc
 311              		@ args = 0, pretend = 0, frame = 0
 312              		@ frame_needed = 0, uses_anonymous_args = 0
 313              		@ link register save eliminated.
 314              	.LVL26:
 315              		.loc 1 174 0
 316 0080 4FF47A73 		mov	r3, #1000
 317 0084 03FB00F0 		mul	r0, r3, r0
 318              	.LVL27:
 319 0088 034B     		ldr	r3, .L28
 320 008a 0138     		subs	r0, r0, #1
 321 008c A3FB0030 		umull	r3, r0, r3, r0
 322 0090 8009     		lsrs	r0, r0, #6
 323 0092 0130     		adds	r0, r0, #1
 324 0094 FFF7FEBF 		b	chThdSleep
 325              	.LVL28:
 326              	.L29:
 327              		.align	2
 328              	.L28:
 329 0098 D34D6210 		.word	274877907
 330              		.cfi_endproc
 331              	.LFE185:
 332              		.size	HAL_Delay, .-HAL_Delay
 333              		.align	2
 334 009c AFF30080 		.p2align 4,,15
 335              		.global	_sbrk
 336              		.thumb
 337              		.thumb_func
 338              		.type	_sbrk, %function
 339              	_sbrk:
 340              	.LFB186:
 341              		.loc 1 177 0
 342              		.cfi_startproc
ARM GAS  /tmp/ccKw3qim.s 			page 7


 343              		@ Volatile: function does not return.
 344              		@ args = 0, pretend = 0, frame = 0
 345              		@ frame_needed = 0, uses_anonymous_args = 0
 346              		@ link register save eliminated.
 347              	.L31:
 348              		.loc 1 179 0 discriminator 1
 349 00a0 FEE7     		b	.L31
 350              		.cfi_endproc
 351              	.LFE186:
 352              		.size	_sbrk, .-_sbrk
 353              	.Letext0:
 354              		.file 2 "/d_drive/axoloti/platform_linux/arm-none-eabi/include/machine/_default_types.h"
 355              		.file 3 "/d_drive/axoloti/platform_linux/arm-none-eabi/include/sys/_stdint.h"
 356              		.file 4 "/d_drive/axoloti/platform_linux/../chibios/os/ports/GCC/ARMCMx/chtypes.h"
 357              		.file 5 "/d_drive/axoloti/platform_linux/../chibios/os/hal/platforms/STM32F4xx/stm32f4xx.h"
 358              		.file 6 "/d_drive/axoloti/platform_linux/../chibios/os/hal/platforms/STM32/GPIOv2/pal_lld.h"
 359              		.file 7 "patch.h"
 360              		.file 8 "/d_drive/axoloti/platform_linux/../CMSIS//Include/core_cm4.h"
 361              		.file 9 "axoloti_math.h"
 362              		.file 10 "/d_drive/axoloti/platform_linux/../chibios/os/hal/include/hal.h"
 363              		.file 11 "/d_drive/axoloti/platform_linux/../chibios/os/kernel/include/chsys.h"
 364              		.file 12 "sdcard.h"
 365              		.file 13 "sysmon.h"
 366              		.file 14 "exceptions.h"
 367              		.file 15 "pconnection.h"
 368              		.file 16 "/d_drive/axoloti/platform_linux/../chibios/os/kernel/include/chthreads.h"
 369              		.file 17 "axoloti_board.h"
 370              		.file 18 "midi.h"
 371              		.file 19 "codec.h"
 372              		.file 20 "ui.h"