ARM GAS  /tmp/ccKw3qim.s 			page 1


   1              		.syntax unified
   2              		.cpu cortex-m4
   3              		.eabi_attribute 27, 1
   4              		.eabi_attribute 28, 1
   5              		.fpu fpv4-sp-d16
   6              		.eabi_attribute 20, 1
   7              		.eabi_attribute 21, 1
   8              		.eabi_attribute 23, 3
   9              		.eabi_attribute 24, 1
  10              		.eabi_attribute 25, 1
  11              		.eabi_attribute 26, 1
  12              		.eabi_attribute 30, 2
  13              		.eabi_attribute 34, 1
  14              		.eabi_attribute 18, 4
  15              		.thumb
  16              		.file	"main.c"
  17              		.text
  18              	.Ltext0:
  19              		.cfi_sections	.debug_frame
  20              		.align	2
  21              		.p2align 4,,15
  22              		.global	ToggleGreen
  23              		.thumb
  24              		.thumb_func
  25              		.type	ToggleGreen, %function
  26              	ToggleGreen:
  27              	.LFB180:
  28              		.file 1 "main.c"
  29              		.loc 1 69 0
  30              		.cfi_startproc
  31              		@ args = 0, pretend = 0, frame = 0
  32              		@ frame_needed = 0, uses_anonymous_args = 0
  33 0000 10B5     		push	{r4, lr}
  34              		.cfi_def_cfa_offset 8
  35              		.cfi_offset 4, -8
  36              		.cfi_offset 14, -4
  37              		.loc 1 70 0
  38 0002 064C     		ldr	r4, .L3
  39 0004 4FF48051 		mov	r1, #4096
  40 0008 2046     		mov	r0, r4
  41 000a 0122     		movs	r2, #1
  42 000c FFF7FEFF 		bl	_pal_lld_setgroupmode
  43              	.LVL0:
  44 0010 6369     		ldr	r3, [r4, #20]
  45 0012 83F48053 		eor	r3, r3, #4096
  46 0016 6361     		str	r3, [r4, #20]
  47 0018 10BD     		pop	{r4, pc}
  48              	.L4:
  49 001a 00BF     		.align	2
  50              	.L3:
  51 001c 000C0240 		.word	1073875968
  52              		.cfi_endproc
  53              	.LFE180:
  54              		.size	ToggleGreen, .-ToggleGreen
  55              		.align	2
  56              		.p2align 4,,15
  57              		.global	ToggleOrange
ARM GAS  /tmp/ccKw3qim.s 			page 2


  58              		.thumb
  59              		.thumb_func
  60              		.type	ToggleOrange, %function
  61              	ToggleOrange:
  62              	.LFB181:
  63              		.loc 1 72 0
  64              		.cfi_startproc
  65              		@ args = 0, pretend = 0, frame = 0
  66              		@ frame_needed = 0, uses_anonymous_args = 0
  67 0020 10B5     		push	{r4, lr}
  68              		.cfi_def_cfa_offset 8
  69              		.cfi_offset 4, -8
  70              		.cfi_offset 14, -4
  71              		.loc 1 73 0
  72 0022 064C     		ldr	r4, .L7
  73 0024 4FF40051 		mov	r1, #8192
  74 0028 2046     		mov	r0, r4
  75 002a 0122     		movs	r2, #1
  76 002c FFF7FEFF 		bl	_pal_lld_setgroupmode
  77              	.LVL1:
  78 0030 6369     		ldr	r3, [r4, #20]
  79 0032 83F40053 		eor	r3, r3, #8192
  80 0036 6361     		str	r3, [r4, #20]
  81 0038 10BD     		pop	{r4, pc}
  82              	.L8:
  83 003a 00BF     		.align	2
  84              	.L7:
  85 003c 000C0240 		.word	1073875968
  86              		.cfi_endproc
  87              	.LFE181:
  88              		.size	ToggleOrange, .-ToggleOrange
  89              		.align	2
  90              		.p2align 4,,15
  91              		.global	ToggleRed
  92              		.thumb
  93              		.thumb_func
  94              		.type	ToggleRed, %function
  95              	ToggleRed:
  96              	.LFB182:
  97              		.loc 1 75 0
  98              		.cfi_startproc
  99              		@ args = 0, pretend = 0, frame = 0
 100              		@ frame_needed = 0, uses_anonymous_args = 0
 101 0040 10B5     		push	{r4, lr}
 102              		.cfi_def_cfa_offset 8
 103              		.cfi_offset 4, -8
 104              		.cfi_offset 14, -4
 105              		.loc 1 76 0
 106 0042 064C     		ldr	r4, .L11
 107 0044 4FF48041 		mov	r1, #16384
 108 0048 2046     		mov	r0, r4
 109 004a 0122     		movs	r2, #1
 110 004c FFF7FEFF 		bl	_pal_lld_setgroupmode
 111              	.LVL2:
 112 0050 6369     		ldr	r3, [r4, #20]
 113 0052 83F48043 		eor	r3, r3, #16384
 114 0056 6361     		str	r3, [r4, #20]
ARM GAS  /tmp/ccKw3qim.s 			page 3


 115 0058 10BD     		pop	{r4, pc}
 116              	.L12:
 117 005a 00BF     		.align	2
 118              	.L11:
 119 005c 000C0240 		.word	1073875968
 120              		.cfi_endproc
 121              	.LFE182:
 122              		.size	ToggleRed, .-ToggleRed
 123              		.align	2
 124              		.p2align 4,,15
 125              		.global	ToggleBlue
 126              		.thumb
 127              		.thumb_func
 128              		.type	ToggleBlue, %function
 129              	ToggleBlue:
 130              	.LFB183:
 131              		.loc 1 78 0
 132              		.cfi_startproc
 133              		@ args = 0, pretend = 0, frame = 0
 134              		@ frame_needed = 0, uses_anonymous_args = 0
 135 0060 10B5     		push	{r4, lr}
 136              		.cfi_def_cfa_offset 8
 137              		.cfi_offset 4, -8
 138              		.cfi_offset 14, -4
 139              		.loc 1 79 0
 140 0062 064C     		ldr	r4, .L15
 141 0064 4FF40041 		mov	r1, #32768
 142 0068 2046     		mov	r0, r4
 143 006a 0122     		movs	r2, #1
 144 006c FFF7FEFF 		bl	_pal_lld_setgroupmode
 145              	.LVL3:
 146 0070 6369     		ldr	r3, [r4, #20]
 147 0072 83F40043 		eor	r3, r3, #32768
 148 0076 6361     		str	r3, [r4, #20]
 149 0078 10BD     		pop	{r4, pc}
 150              	.L16:
 151 007a 00BF     		.align	2
 152              	.L15:
 153 007c 000C0240 		.word	1073875968
 154              		.cfi_endproc
 155              	.LFE183:
 156              		.size	ToggleBlue, .-ToggleBlue
 157              		.section	.text.startup,"ax",%progbits
 158              		.align	2
 159              		.p2align 4,,15
 160              		.global	main
 161              		.thumb
 162              		.thumb_func
 163              		.type	main, %function
 164              	main:
 165              	.LFB184:
 166              		.loc 1 83 0
 167              		.cfi_startproc
 168              		@ Volatile: function does not return.
 169              		@ args = 0, pretend = 0, frame = 0
 170              		@ frame_needed = 0, uses_anonymous_args = 0
 171 0000 08B5     		push	{r3, lr}
ARM GAS  /tmp/ccKw3qim.s 			page 4


 172              		.cfi_def_cfa_offset 8
 173              		.cfi_offset 3, -8
 174              		.cfi_offset 14, -4
 175              		.loc 1 87 0
 176 0002 0021     		movs	r1, #0
 177 0004 4FF40072 		mov	r2, #512
 178 0008 4FF00050 		mov	r0, #536870912
 179 000c FFF7FEFF 		bl	memcpy
 180              	.LVL4:
 181              		.loc 1 90 0
 182 0010 254A     		ldr	r2, .L25
 183              		.loc 1 117 0
 184 0012 264D     		ldr	r5, .L25+4
 185              		.loc 1 90 0
 186 0014 1368     		ldr	r3, [r2]
 187              		.loc 1 122 0
 188 0016 264C     		ldr	r4, .L25+8
 189              		.loc 1 90 0
 190 0018 43F00303 		orr	r3, r3, #3
 191 001c 1360     		str	r3, [r2]
 192              		.loc 1 92 0
 193 001e FFF7FEFF 		bl	halInit
 194              	.LVL5:
 195              		.loc 1 93 0
 196 0022 FFF7FEFF 		bl	chSysInit
 197              	.LVL6:
 198              		.loc 1 95 0
 199 0026 FFF7FEFF 		bl	sdcard_init
 200              	.LVL7:
 201              		.loc 1 96 0
 202 002a FFF7FEFF 		bl	sysmon_init
 203              	.LVL8:
 204              		.loc 1 110 0
 205 002e FFF7FEFF 		bl	exception_init
 206              	.LVL9:
 207              		.loc 1 112 0
 208 0032 FFF7FEFF 		bl	InitPatch0
 209              	.LVL10:
 210              		.loc 1 114 0
 211 0036 FFF7FEFF 		bl	InitPConnection
 212              	.LVL11:
 213              		.loc 1 117 0
 214 003a 0221     		movs	r1, #2
 215 003c 0122     		movs	r2, #1
 216 003e 2846     		mov	r0, r5
 217 0040 FFF7FEFF 		bl	_pal_lld_setgroupmode
 218              	.LVL12:
 219              		.loc 1 118 0
 220 0044 0223     		movs	r3, #2
 221 0046 2B83     		strh	r3, [r5, #24]	@ movhi
 222              		.loc 1 120 0
 223 0048 0A20     		movs	r0, #10
 224 004a FFF7FEFF 		bl	chThdSleep
 225              	.LVL13:
 226              		.loc 1 122 0
 227 004e 4022     		movs	r2, #64
 228 0050 2046     		mov	r0, r4
ARM GAS  /tmp/ccKw3qim.s 			page 5


 229 0052 0121     		movs	r1, #1
 230 0054 FFF7FEFF 		bl	_pal_lld_setgroupmode
 231              	.LVL14:
 232              		.loc 1 124 0
 233 0058 FFF7FEFF 		bl	axoloti_board_init
 234              	.LVL15:
 235              		.loc 1 125 0
 236 005c FFF7FEFF 		bl	adc_init
 237              	.LVL16:
 238              		.loc 1 126 0
 239 0060 FFF7FEFF 		bl	axoloti_math_init
 240              	.LVL17:
 241              		.loc 1 127 0
 242 0064 FFF7FEFF 		bl	midi_init
 243              	.LVL18:
 244              		.loc 1 128 0
 245 0068 FFF7FEFF 		bl	start_dsp_thread
 246              	.LVL19:
 247              		.loc 1 129 0
 248 006c FFF7FEFF 		bl	codec_init
 249              	.LVL20:
 250              		.loc 1 130 0
 251 0070 2369     		ldr	r3, [r4, #16]
 252 0072 DA07     		lsls	r2, r3, #31
 253 0074 0DD5     		bpl	.L23
 254              	.L18:
 255              		.loc 1 138 0
 256 0076 FFF7FEFF 		bl	ui_init
 257              	.LVL21:
 258              		.loc 1 149 0
 259 007a FFF7FEFF 		bl	exception_check
 260              	.LVL22:
 261 007e 18B9     		cbnz	r0, .L20
 262              		.loc 1 162 0
 263 0080 0C4B     		ldr	r3, .L25+12
 264 0082 1B78     		ldrb	r3, [r3]	@ zero_extendqisi2
 265 0084 012B     		cmp	r3, #1
 266 0086 08D0     		beq	.L24
 267              	.L20:
 268              		.loc 1 169 0 discriminator 1
 269 0088 4FF47A70 		mov	r0, #1000
 270 008c FFF7FEFF 		bl	chThdSleep
 271              	.LVL23:
 272              		.loc 1 170 0 discriminator 1
 273 0090 FAE7     		b	.L20
 274              	.L23:
 275              		.loc 1 132 0
 276 0092 0120     		movs	r0, #1
 277 0094 FFF7FEFF 		bl	chThdSleep
 278              	.LVL24:
 279 0098 EDE7     		b	.L18
 280              	.L24:
 281              		.loc 1 163 0
 282 009a 054B     		ldr	r3, .L25+8
 283 009c 1B69     		ldr	r3, [r3, #16]
 284 009e DB07     		lsls	r3, r3, #31
 285 00a0 F2D4     		bmi	.L20
ARM GAS  /tmp/ccKw3qim.s 			page 6


 286              		.loc 1 164 0
 287 00a2 FFF7FEFF 		bl	LoadPatchStartFlash
 288              	.LVL25:
 289 00a6 EFE7     		b	.L20
 290              	.L26:
 291              		.align	2
 292              	.L25:
 293 00a8 00380140 		.word	1073821696
 294 00ac 00080240 		.word	1073874944
 295 00b0 00000240 		.word	1073872896
 296 00b4 00000000 		.word	patchStatus
 297              		.cfi_endproc
 298              	.LFE184:
 299              		.size	main, .-main
 300              		.text
 301              		.align	2
 302              		.p2align 4,,15
 303              		.global	HAL_Delay
 304              		.thumb
 305              		.thumb_func
 306              		.type	HAL_Delay, %function
 307              	HAL_Delay:
 308              	.LFB185:
 309              		.loc 1 173 0
 310              		.cfi_startproc
 311              		@ args = 0, pretend = 0, frame = 0
 312              		@ frame_needed = 0, uses_anonymous_args = 0
 313              		@ link register save eliminated.
 314              	.LVL26:
 315              		.loc 1 174 0
 316 0080 4FF47A73 		mov	r3, #1000
 317 0084 03FB00F0 		mul	r0, r3, r0
 318              	.LVL27:
 319 0088 034B     		ldr	r3, .L28
 320 008a 0138     		subs	r0, r0, #1
 321 008c A3FB0030 		umull	r3, r0, r3, r0
 322 0090 8009     		lsrs	r0, r0, #6
 323 0092 0130     		adds	r0, r0, #1
 324 0094 FFF7FEBF 		b	chThdSleep
 325              	.LVL28:
 326              	.L29:
 327              		.align	2
 328              	.L28:
 329 0098 D34D6210 		.word	274877907
 330              		.cfi_endproc
 331              	.LFE185:
 332              		.size	HAL_Delay, .-HAL_Delay
 333              		.align	2
 334 009c AFF30080 		.p2align 4,,15
 335              		.global	_sbrk
 336              		.thumb
 337              		.thumb_func
 338              		.type	_sbrk, %function
 339              	_sbrk:
 340              	.LFB186:
 341              		.loc 1 177 0
 342              		.cfi_startproc
ARM GAS  /tmp/ccKw3qim.s 			page 7


 343              		@ Volatile: function does not return.
 344              		@ args = 0, pretend = 0, frame = 0
 345              		@ frame_needed = 0, uses_anonymous_args = 0
 346              		@ link register save eliminated.
 347              	.L31:
 348              		.loc 1 179 0 discriminator 1
 349 00a0 FEE7     		b	.L31
 350              		.cfi_endproc
 351              	.LFE186:
 352              		.size	_sbrk, .-_sbrk
 353              	.Letext0:
 354              		.file 2 "/d_drive/axoloti/platform_linux/arm-none-eabi/include/machine/_default_types.h"
 355              		.file 3 "/d_drive/axoloti/platform_linux/arm-none-eabi/include/sys/_stdint.h"
 356              		.file 4 "/d_drive/axoloti/platform_linux/../chibios/os/ports/GCC/ARMCMx/chtypes.h"
 357              		.file 5 "/d_drive/axoloti/platform_linux/../chibios/os/hal/platforms/STM32F4xx/stm32f4xx.h"
 358              		.file 6 "/d_drive/axoloti/platform_linux/../chibios/os/hal/platforms/STM32/GPIOv2/pal_lld.h"
 359              		.file 7 "patch.h"
 360              		.file 8 "/d_drive/axoloti/platform_linux/../CMSIS//Include/core_cm4.h"
 361              		.file 9 "axoloti_math.h"
 362              		.file 10 "/d_drive/axoloti/platform_linux/../chibios/os/hal/include/hal.h"
 363              		.file 11 "/d_drive/axoloti/platform_linux/../chibios/os/kernel/include/chsys.h"
 364              		.file 12 "sdcard.h"
 365              		.file 13 "sysmon.h"
 366              		.file 14 "exceptions.h"
 367              		.file 15 "pconnection.h"
 368              		.file 16 "/d_drive/axoloti/platform_linux/../chibios/os/kernel/include/chthreads.h"
 369              		.file 17 "axoloti_board.h"
 370              		.file 18 "midi.h"
 371              		.file 19 "codec.h"
 372              		.file 20 "ui.h"
 373 00a2 00BF     		.section	.debug_info,"",%progbits
 374              	.Ldebug_info0:
 375 0000 40060000 		.4byte	0x640
 376 0004 0400     		.2byte	0x4
 377 0006 00000000 		.4byte	.Ldebug_abbrev0
 378 000a 04       		.byte	0x4
 379 000b 01       		.uleb128 0x1
 380 000c 6E020000 		.4byte	.LASF75
 381 0010 01       		.byte	0x1
 382 0011 A5030000 		.4byte	.LASF76
 383 0015 23020000 		.4byte	.LASF77
 384 0019 00000000 		.4byte	.Ldebug_ranges0+0
 385 001d 00000000 		.4byte	0
 386 0021 00000000 		.4byte	.Ldebug_line0
 387 0025 02       		.uleb128 0x2
 388 0026 08       		.byte	0x8
 389 0027 07       		.byte	0x7
 390 0028 22040000 		.4byte	.LASF0
 391 002c 02       		.uleb128 0x2
 392 002d 04       		.byte	0x4
 393 002e 07       		.byte	0x7
 394 002f EA010000 		.4byte	.LASF1
 395 0033 02       		.uleb128 0x2
 396 0034 01       		.byte	0x1
 397 0035 06       		.byte	0x6
 398 0036 B3010000 		.4byte	.LASF2
 399 003a 02       		.uleb128 0x2
ARM GAS  /tmp/ccKw3qim.s 			page 8


 400 003b 01       		.byte	0x1
 401 003c 08       		.byte	0x8
 402 003d 84010000 		.4byte	.LASF3
 403 0041 03       		.uleb128 0x3
 404 0042 E7030000 		.4byte	.LASF5
 405 0046 02       		.byte	0x2
 406 0047 29       		.byte	0x29
 407 0048 4C000000 		.4byte	0x4c
 408 004c 02       		.uleb128 0x2
 409 004d 02       		.byte	0x2
 410 004e 05       		.byte	0x5
 411 004f 2F000000 		.4byte	.LASF4
 412 0053 03       		.uleb128 0x3
 413 0054 7E000000 		.4byte	.LASF6
 414 0058 02       		.byte	0x2
 415 0059 2B       		.byte	0x2b
 416 005a 5E000000 		.4byte	0x5e
 417 005e 02       		.uleb128 0x2
 418 005f 02       		.byte	0x2
 419 0060 07       		.byte	0x7
 420 0061 3D020000 		.4byte	.LASF7
 421 0065 03       		.uleb128 0x3
 422 0066 D5030000 		.4byte	.LASF8
 423 006a 02       		.byte	0x2
 424 006b 3F       		.byte	0x3f
 425 006c 70000000 		.4byte	0x70
 426 0070 02       		.uleb128 0x2
 427 0071 04       		.byte	0x4
 428 0072 05       		.byte	0x5
 429 0073 16010000 		.4byte	.LASF9
 430 0077 03       		.uleb128 0x3
 431 0078 CA030000 		.4byte	.LASF10
 432 007c 02       		.byte	0x2
 433 007d 41       		.byte	0x41
 434 007e 82000000 		.4byte	0x82
 435 0082 02       		.uleb128 0x2
 436 0083 04       		.byte	0x4
 437 0084 07       		.byte	0x7
 438 0085 AC030000 		.4byte	.LASF11
 439 0089 02       		.uleb128 0x2
 440 008a 08       		.byte	0x8
 441 008b 05       		.byte	0x5
 442 008c 69000000 		.4byte	.LASF12
 443 0090 04       		.uleb128 0x4
 444 0091 04       		.byte	0x4
 445 0092 05       		.byte	0x5
 446 0093 696E7400 		.ascii	"int\000"
 447 0097 03       		.uleb128 0x3
 448 0098 FD030000 		.4byte	.LASF13
 449 009c 03       		.byte	0x3
 450 009d 19       		.byte	0x19
 451 009e 41000000 		.4byte	0x41
 452 00a2 03       		.uleb128 0x3
 453 00a3 02020000 		.4byte	.LASF14
 454 00a7 03       		.byte	0x3
 455 00a8 1A       		.byte	0x1a
 456 00a9 53000000 		.4byte	0x53
ARM GAS  /tmp/ccKw3qim.s 			page 9


 457 00ad 03       		.uleb128 0x3
 458 00ae 6F030000 		.4byte	.LASF15
 459 00b2 03       		.byte	0x3
 460 00b3 1F       		.byte	0x1f
 461 00b4 65000000 		.4byte	0x65
 462 00b8 03       		.uleb128 0x3
 463 00b9 E1010000 		.4byte	.LASF16
 464 00bd 03       		.byte	0x3
 465 00be 20       		.byte	0x20
 466 00bf 77000000 		.4byte	0x77
 467 00c3 02       		.uleb128 0x2
 468 00c4 04       		.byte	0x4
 469 00c5 07       		.byte	0x7
 470 00c6 39000000 		.4byte	.LASF17
 471 00ca 02       		.uleb128 0x2
 472 00cb 01       		.byte	0x1
 473 00cc 02       		.byte	0x2
 474 00cd 8F030000 		.4byte	.LASF18
 475 00d1 03       		.uleb128 0x3
 476 00d2 50020000 		.4byte	.LASF19
 477 00d6 04       		.byte	0x4
 478 00d7 35       		.byte	0x35
 479 00d8 B8000000 		.4byte	0xb8
 480 00dc 05       		.uleb128 0x5
 481 00dd 04       		.byte	0x4
 482 00de 06       		.uleb128 0x6
 483 00df B8000000 		.4byte	0xb8
 484 00e3 02       		.uleb128 0x2
 485 00e4 01       		.byte	0x1
 486 00e5 08       		.byte	0x8
 487 00e6 69020000 		.4byte	.LASF20
 488 00ea 07       		.uleb128 0x7
 489 00eb B8000000 		.4byte	0xb8
 490 00ef FA000000 		.4byte	0xfa
 491 00f3 08       		.uleb128 0x8
 492 00f4 C3000000 		.4byte	0xc3
 493 00f8 01       		.byte	0x1
 494 00f9 00       		.byte	0
 495 00fa 07       		.uleb128 0x7
 496 00fb B8000000 		.4byte	0xb8
 497 00ff 0A010000 		.4byte	0x10a
 498 0103 08       		.uleb128 0x8
 499 0104 C3000000 		.4byte	0xc3
 500 0108 03       		.byte	0x3
 501 0109 00       		.byte	0
 502 010a 06       		.uleb128 0x6
 503 010b AD000000 		.4byte	0xad
 504 010f 09       		.uleb128 0x9
 505 0110 24       		.byte	0x24
 506 0111 05       		.byte	0x5
 507 0112 E903     		.2byte	0x3e9
 508 0114 5A010000 		.4byte	0x15a
 509 0118 0A       		.uleb128 0xa
 510 0119 EB000000 		.4byte	.LASF21
 511 011d 05       		.byte	0x5
 512 011e EB03     		.2byte	0x3eb
 513 0120 DE000000 		.4byte	0xde
ARM GAS  /tmp/ccKw3qim.s 			page 10


 514 0124 00       		.byte	0
 515 0125 0B       		.uleb128 0xb
 516 0126 504D4300 		.ascii	"PMC\000"
 517 012a 05       		.byte	0x5
 518 012b EC03     		.2byte	0x3ec
 519 012d DE000000 		.4byte	0xde
 520 0131 04       		.byte	0x4
 521 0132 0A       		.uleb128 0xa
 522 0133 A1000000 		.4byte	.LASF22
 523 0137 05       		.byte	0x5
 524 0138 ED03     		.2byte	0x3ed
 525 013a 5A010000 		.4byte	0x15a
 526 013e 08       		.byte	0x8
 527 013f 0A       		.uleb128 0xa
 528 0140 0C040000 		.4byte	.LASF23
 529 0144 05       		.byte	0x5
 530 0145 EE03     		.2byte	0x3ee
 531 0147 EA000000 		.4byte	0xea
 532 014b 18       		.byte	0x18
 533 014c 0A       		.uleb128 0xa
 534 014d 67010000 		.4byte	.LASF24
 535 0151 05       		.byte	0x5
 536 0152 EF03     		.2byte	0x3ef
 537 0154 DE000000 		.4byte	0xde
 538 0158 20       		.byte	0x20
 539 0159 00       		.byte	0
 540 015a 06       		.uleb128 0x6
 541 015b FA000000 		.4byte	0xfa
 542 015f 0C       		.uleb128 0xc
 543 0160 5A020000 		.4byte	.LASF25
 544 0164 05       		.byte	0x5
 545 0165 F003     		.2byte	0x3f0
 546 0167 0F010000 		.4byte	0x10f
 547 016b 0D       		.uleb128 0xd
 548 016c 04       		.byte	0x4
 549 016d 06       		.byte	0x6
 550 016e 96       		.byte	0x96
 551 016f 8C010000 		.4byte	0x18c
 552 0173 0E       		.uleb128 0xe
 553 0174 73657400 		.ascii	"set\000"
 554 0178 06       		.byte	0x6
 555 0179 97       		.byte	0x97
 556 017a A2000000 		.4byte	0xa2
 557 017e 00       		.byte	0
 558 017f 0F       		.uleb128 0xf
 559 0180 3D010000 		.4byte	.LASF26
 560 0184 06       		.byte	0x6
 561 0185 98       		.byte	0x98
 562 0186 A2000000 		.4byte	0xa2
 563 018a 02       		.byte	0x2
 564 018b 00       		.byte	0
 565 018c 10       		.uleb128 0x10
 566 018d 04       		.byte	0x4
 567 018e 06       		.byte	0x6
 568 018f 94       		.byte	0x94
 569 0190 A7010000 		.4byte	0x1a7
 570 0194 11       		.uleb128 0x11
ARM GAS  /tmp/ccKw3qim.s 			page 11


 571 0195 5700     		.ascii	"W\000"
 572 0197 06       		.byte	0x6
 573 0198 95       		.byte	0x95
 574 0199 B8000000 		.4byte	0xb8
 575 019d 11       		.uleb128 0x11
 576 019e 4800     		.ascii	"H\000"
 577 01a0 06       		.byte	0x6
 578 01a1 99       		.byte	0x99
 579 01a2 6B010000 		.4byte	0x16b
 580 01a6 00       		.byte	0
 581 01a7 0D       		.uleb128 0xd
 582 01a8 28       		.byte	0x28
 583 01a9 06       		.byte	0x6
 584 01aa 8C       		.byte	0x8c
 585 01ab 28020000 		.4byte	0x228
 586 01af 0F       		.uleb128 0xf
 587 01b0 37010000 		.4byte	.LASF27
 588 01b4 06       		.byte	0x6
 589 01b5 8E       		.byte	0x8e
 590 01b6 DE000000 		.4byte	0xde
 591 01ba 00       		.byte	0
 592 01bb 0F       		.uleb128 0xf
 593 01bc DE000000 		.4byte	.LASF28
 594 01c0 06       		.byte	0x6
 595 01c1 8F       		.byte	0x8f
 596 01c2 DE000000 		.4byte	0xde
 597 01c6 04       		.byte	0x4
 598 01c7 0F       		.uleb128 0xf
 599 01c8 9D030000 		.4byte	.LASF29
 600 01cc 06       		.byte	0x6
 601 01cd 90       		.byte	0x90
 602 01ce DE000000 		.4byte	0xde
 603 01d2 08       		.byte	0x8
 604 01d3 0F       		.uleb128 0xf
 605 01d4 FA000000 		.4byte	.LASF30
 606 01d8 06       		.byte	0x6
 607 01d9 91       		.byte	0x91
 608 01da DE000000 		.4byte	0xde
 609 01de 0C       		.byte	0xc
 610 01df 0E       		.uleb128 0xe
 611 01e0 49445200 		.ascii	"IDR\000"
 612 01e4 06       		.byte	0x6
 613 01e5 92       		.byte	0x92
 614 01e6 DE000000 		.4byte	0xde
 615 01ea 10       		.byte	0x10
 616 01eb 0E       		.uleb128 0xe
 617 01ec 4F445200 		.ascii	"ODR\000"
 618 01f0 06       		.byte	0x6
 619 01f1 93       		.byte	0x93
 620 01f2 DE000000 		.4byte	0xde
 621 01f6 14       		.byte	0x14
 622 01f7 0F       		.uleb128 0xf
 623 01f8 32010000 		.4byte	.LASF31
 624 01fc 06       		.byte	0x6
 625 01fd 9A       		.byte	0x9a
 626 01fe 28020000 		.4byte	0x228
 627 0202 18       		.byte	0x18
ARM GAS  /tmp/ccKw3qim.s 			page 12


 628 0203 0F       		.uleb128 0xf
 629 0204 39040000 		.4byte	.LASF32
 630 0208 06       		.byte	0x6
 631 0209 9B       		.byte	0x9b
 632 020a DE000000 		.4byte	0xde
 633 020e 1C       		.byte	0x1c
 634 020f 0F       		.uleb128 0xf
 635 0210 54000000 		.4byte	.LASF33
 636 0214 06       		.byte	0x6
 637 0215 9C       		.byte	0x9c
 638 0216 DE000000 		.4byte	0xde
 639 021a 20       		.byte	0x20
 640 021b 0F       		.uleb128 0xf
 641 021c 1E020000 		.4byte	.LASF34
 642 0220 06       		.byte	0x6
 643 0221 9D       		.byte	0x9d
 644 0222 DE000000 		.4byte	0xde
 645 0226 24       		.byte	0x24
 646 0227 00       		.byte	0
 647 0228 06       		.uleb128 0x6
 648 0229 8C010000 		.4byte	0x18c
 649 022d 03       		.uleb128 0x3
 650 022e 00000000 		.4byte	.LASF35
 651 0232 06       		.byte	0x6
 652 0233 9E       		.byte	0x9e
 653 0234 A7010000 		.4byte	0x1a7
 654 0238 03       		.uleb128 0x3
 655 0239 B2000000 		.4byte	.LASF36
 656 023d 06       		.byte	0x6
 657 023e F0       		.byte	0xf0
 658 023f B8000000 		.4byte	0xb8
 659 0243 03       		.uleb128 0x3
 660 0244 90000000 		.4byte	.LASF37
 661 0248 06       		.byte	0x6
 662 0249 F5       		.byte	0xf5
 663 024a B8000000 		.4byte	0xb8
 664 024e 03       		.uleb128 0x3
 665 024f 6D010000 		.4byte	.LASF38
 666 0253 06       		.byte	0x6
 667 0254 FD       		.byte	0xfd
 668 0255 59020000 		.4byte	0x259
 669 0259 12       		.uleb128 0x12
 670 025a 04       		.byte	0x4
 671 025b 2D020000 		.4byte	0x22d
 672 025f 02       		.uleb128 0x2
 673 0260 04       		.byte	0x4
 674 0261 04       		.byte	0x4
 675 0262 E5000000 		.4byte	.LASF39
 676 0266 13       		.uleb128 0x13
 677 0267 01       		.byte	0x1
 678 0268 07       		.byte	0x7
 679 0269 48       		.byte	0x48
 680 026a 87020000 		.4byte	0x287
 681 026e 14       		.uleb128 0x14
 682 026f 67030000 		.4byte	.LASF40
 683 0273 00       		.sleb128 0
 684 0274 14       		.uleb128 0x14
ARM GAS  /tmp/ccKw3qim.s 			page 13


 685 0275 DF030000 		.4byte	.LASF41
 686 0279 01       		.sleb128 1
 687 027a 14       		.uleb128 0x14
 688 027b D8010000 		.4byte	.LASF42
 689 027f 02       		.sleb128 2
 690 0280 14       		.uleb128 0x14
 691 0281 F1030000 		.4byte	.LASF43
 692 0285 03       		.sleb128 3
 693 0286 00       		.byte	0
 694 0287 03       		.uleb128 0x3
 695 0288 4F010000 		.4byte	.LASF44
 696 028c 07       		.byte	0x7
 697 028d 4E       		.byte	0x4e
 698 028e 66020000 		.4byte	0x266
 699 0292 02       		.uleb128 0x2
 700 0293 08       		.byte	0x8
 701 0294 04       		.byte	0x4
 702 0295 05040000 		.4byte	.LASF45
 703 0299 02       		.uleb128 0x2
 704 029a 08       		.byte	0x8
 705 029b 04       		.byte	0x4
 706 029c 78010000 		.4byte	.LASF46
 707 02a0 15       		.uleb128 0x15
 708 02a1 BE030000 		.4byte	.LASF47
 709 02a5 01       		.byte	0x1
 710 02a6 45       		.byte	0x45
 711 02a7 00000000 		.4byte	.LFB180
 712 02ab 20000000 		.4byte	.LFE180-.LFB180
 713 02af 01       		.uleb128 0x1
 714 02b0 9C       		.byte	0x9c
 715 02b1 D2020000 		.4byte	0x2d2
 716 02b5 16       		.uleb128 0x16
 717 02b6 10000000 		.4byte	.LVL0
 718 02ba 7D050000 		.4byte	0x57d
 719 02be 17       		.uleb128 0x17
 720 02bf 01       		.uleb128 0x1
 721 02c0 52       		.byte	0x52
 722 02c1 01       		.uleb128 0x1
 723 02c2 31       		.byte	0x31
 724 02c3 17       		.uleb128 0x17
 725 02c4 01       		.uleb128 0x1
 726 02c5 51       		.byte	0x51
 727 02c6 03       		.uleb128 0x3
 728 02c7 0A       		.byte	0xa
 729 02c8 0010     		.2byte	0x1000
 730 02ca 17       		.uleb128 0x17
 731 02cb 01       		.uleb128 0x1
 732 02cc 50       		.byte	0x50
 733 02cd 02       		.uleb128 0x2
 734 02ce 74       		.byte	0x74
 735 02cf 00       		.sleb128 0
 736 02d0 00       		.byte	0
 737 02d1 00       		.byte	0
 738 02d2 15       		.uleb128 0x15
 739 02d3 82030000 		.4byte	.LASF48
 740 02d7 01       		.byte	0x1
 741 02d8 48       		.byte	0x48
ARM GAS  /tmp/ccKw3qim.s 			page 14


 742 02d9 20000000 		.4byte	.LFB181
 743 02dd 20000000 		.4byte	.LFE181-.LFB181
 744 02e1 01       		.uleb128 0x1
 745 02e2 9C       		.byte	0x9c
 746 02e3 04030000 		.4byte	0x304
 747 02e7 16       		.uleb128 0x16
 748 02e8 30000000 		.4byte	.LVL1
 749 02ec 7D050000 		.4byte	0x57d
 750 02f0 17       		.uleb128 0x17
 751 02f1 01       		.uleb128 0x1
 752 02f2 52       		.byte	0x52
 753 02f3 01       		.uleb128 0x1
 754 02f4 31       		.byte	0x31
 755 02f5 17       		.uleb128 0x17
 756 02f6 01       		.uleb128 0x1
 757 02f7 51       		.byte	0x51
 758 02f8 03       		.uleb128 0x3
 759 02f9 0A       		.byte	0xa
 760 02fa 0020     		.2byte	0x2000
 761 02fc 17       		.uleb128 0x17
 762 02fd 01       		.uleb128 0x1
 763 02fe 50       		.byte	0x50
 764 02ff 02       		.uleb128 0x2
 765 0300 74       		.byte	0x74
 766 0301 00       		.sleb128 0
 767 0302 00       		.byte	0
 768 0303 00       		.byte	0
 769 0304 15       		.uleb128 0x15
 770 0305 28010000 		.4byte	.LASF49
 771 0309 01       		.byte	0x1
 772 030a 4B       		.byte	0x4b
 773 030b 40000000 		.4byte	.LFB182
 774 030f 20000000 		.4byte	.LFE182-.LFB182
 775 0313 01       		.uleb128 0x1
 776 0314 9C       		.byte	0x9c
 777 0315 36030000 		.4byte	0x336
 778 0319 16       		.uleb128 0x16
 779 031a 50000000 		.4byte	.LVL2
 780 031e 7D050000 		.4byte	0x57d
 781 0322 17       		.uleb128 0x17
 782 0323 01       		.uleb128 0x1
 783 0324 52       		.byte	0x52
 784 0325 01       		.uleb128 0x1
 785 0326 31       		.byte	0x31
 786 0327 17       		.uleb128 0x17
 787 0328 01       		.uleb128 0x1
 788 0329 51       		.byte	0x51
 789 032a 03       		.uleb128 0x3
 790 032b 0A       		.byte	0xa
 791 032c 0040     		.2byte	0x4000
 792 032e 17       		.uleb128 0x17
 793 032f 01       		.uleb128 0x1
 794 0330 50       		.byte	0x50
 795 0331 02       		.uleb128 0x2
 796 0332 74       		.byte	0x74
 797 0333 00       		.sleb128 0
 798 0334 00       		.byte	0
ARM GAS  /tmp/ccKw3qim.s 			page 15


 799 0335 00       		.byte	0
 800 0336 15       		.uleb128 0x15
 801 0337 77030000 		.4byte	.LASF50
 802 033b 01       		.byte	0x1
 803 033c 4E       		.byte	0x4e
 804 033d 60000000 		.4byte	.LFB183
 805 0341 20000000 		.4byte	.LFE183-.LFB183
 806 0345 01       		.uleb128 0x1
 807 0346 9C       		.byte	0x9c
 808 0347 68030000 		.4byte	0x368
 809 034b 16       		.uleb128 0x16
 810 034c 70000000 		.4byte	.LVL3
 811 0350 7D050000 		.4byte	0x57d
 812 0354 17       		.uleb128 0x17
 813 0355 01       		.uleb128 0x1
 814 0356 52       		.byte	0x52
 815 0357 01       		.uleb128 0x1
 816 0358 31       		.byte	0x31
 817 0359 17       		.uleb128 0x17
 818 035a 01       		.uleb128 0x1
 819 035b 51       		.byte	0x51
 820 035c 03       		.uleb128 0x3
 821 035d 0A       		.byte	0xa
 822 035e 0080     		.2byte	0x8000
 823 0360 17       		.uleb128 0x17
 824 0361 01       		.uleb128 0x1
 825 0362 50       		.byte	0x50
 826 0363 02       		.uleb128 0x2
 827 0364 74       		.byte	0x74
 828 0365 00       		.sleb128 0
 829 0366 00       		.byte	0
 830 0367 00       		.byte	0
 831 0368 18       		.uleb128 0x18
 832 0369 59000000 		.4byte	.LASF78
 833 036d 01       		.byte	0x1
 834 036e 53       		.byte	0x53
 835 036f 90000000 		.4byte	0x90
 836 0373 00000000 		.4byte	.LFB184
 837 0377 B8000000 		.4byte	.LFE184-.LFB184
 838 037b 01       		.uleb128 0x1
 839 037c 9C       		.byte	0x9c
 840 037d AB040000 		.4byte	0x4ab
 841 0381 19       		.uleb128 0x19
 842 0382 10000000 		.4byte	.LVL4
 843 0386 99050000 		.4byte	0x599
 844 038a A2030000 		.4byte	0x3a2
 845 038e 17       		.uleb128 0x17
 846 038f 01       		.uleb128 0x1
 847 0390 52       		.byte	0x52
 848 0391 03       		.uleb128 0x3
 849 0392 0A       		.byte	0xa
 850 0393 0002     		.2byte	0x200
 851 0395 17       		.uleb128 0x17
 852 0396 01       		.uleb128 0x1
 853 0397 51       		.byte	0x51
 854 0398 01       		.uleb128 0x1
 855 0399 30       		.byte	0x30
ARM GAS  /tmp/ccKw3qim.s 			page 16


 856 039a 17       		.uleb128 0x17
 857 039b 01       		.uleb128 0x1
 858 039c 50       		.byte	0x50
 859 039d 03       		.uleb128 0x3
 860 039e 40       		.byte	0x40
 861 039f 49       		.byte	0x49
 862 03a0 24       		.byte	0x24
 863 03a1 00       		.byte	0
 864 03a2 1A       		.uleb128 0x1a
 865 03a3 22000000 		.4byte	.LVL5
 866 03a7 BD050000 		.4byte	0x5bd
 867 03ab 1A       		.uleb128 0x1a
 868 03ac 26000000 		.4byte	.LVL6
 869 03b0 C4050000 		.4byte	0x5c4
 870 03b4 1A       		.uleb128 0x1a
 871 03b5 2A000000 		.4byte	.LVL7
 872 03b9 CB050000 		.4byte	0x5cb
 873 03bd 1A       		.uleb128 0x1a
 874 03be 2E000000 		.4byte	.LVL8
 875 03c2 D2050000 		.4byte	0x5d2
 876 03c6 1A       		.uleb128 0x1a
 877 03c7 32000000 		.4byte	.LVL9
 878 03cb D9050000 		.4byte	0x5d9
 879 03cf 1A       		.uleb128 0x1a
 880 03d0 36000000 		.4byte	.LVL10
 881 03d4 E0050000 		.4byte	0x5e0
 882 03d8 1A       		.uleb128 0x1a
 883 03d9 3A000000 		.4byte	.LVL11
 884 03dd E7050000 		.4byte	0x5e7
 885 03e1 19       		.uleb128 0x19
 886 03e2 44000000 		.4byte	.LVL12
 887 03e6 7D050000 		.4byte	0x57d
 888 03ea FF030000 		.4byte	0x3ff
 889 03ee 17       		.uleb128 0x17
 890 03ef 01       		.uleb128 0x1
 891 03f0 52       		.byte	0x52
 892 03f1 01       		.uleb128 0x1
 893 03f2 31       		.byte	0x31
 894 03f3 17       		.uleb128 0x17
 895 03f4 01       		.uleb128 0x1
 896 03f5 51       		.byte	0x51
 897 03f6 01       		.uleb128 0x1
 898 03f7 32       		.byte	0x32
 899 03f8 17       		.uleb128 0x17
 900 03f9 01       		.uleb128 0x1
 901 03fa 50       		.byte	0x50
 902 03fb 02       		.uleb128 0x2
 903 03fc 75       		.byte	0x75
 904 03fd 00       		.sleb128 0
 905 03fe 00       		.byte	0
 906 03ff 19       		.uleb128 0x19
 907 0400 4E000000 		.4byte	.LVL13
 908 0404 EE050000 		.4byte	0x5ee
 909 0408 12040000 		.4byte	0x412
 910 040c 17       		.uleb128 0x17
 911 040d 01       		.uleb128 0x1
 912 040e 50       		.byte	0x50
ARM GAS  /tmp/ccKw3qim.s 			page 17


 913 040f 01       		.uleb128 0x1
 914 0410 3A       		.byte	0x3a
 915 0411 00       		.byte	0
 916 0412 19       		.uleb128 0x19
 917 0413 58000000 		.4byte	.LVL14
 918 0417 7D050000 		.4byte	0x57d
 919 041b 31040000 		.4byte	0x431
 920 041f 17       		.uleb128 0x17
 921 0420 01       		.uleb128 0x1
 922 0421 52       		.byte	0x52
 923 0422 02       		.uleb128 0x2
 924 0423 08       		.byte	0x8
 925 0424 40       		.byte	0x40
 926 0425 17       		.uleb128 0x17
 927 0426 01       		.uleb128 0x1
 928 0427 51       		.byte	0x51
 929 0428 01       		.uleb128 0x1
 930 0429 31       		.byte	0x31
 931 042a 17       		.uleb128 0x17
 932 042b 01       		.uleb128 0x1
 933 042c 50       		.byte	0x50
 934 042d 02       		.uleb128 0x2
 935 042e 74       		.byte	0x74
 936 042f 00       		.sleb128 0
 937 0430 00       		.byte	0
 938 0431 1A       		.uleb128 0x1a
 939 0432 5C000000 		.4byte	.LVL15
 940 0436 00060000 		.4byte	0x600
 941 043a 1A       		.uleb128 0x1a
 942 043b 60000000 		.4byte	.LVL16
 943 043f 07060000 		.4byte	0x607
 944 0443 1A       		.uleb128 0x1a
 945 0444 64000000 		.4byte	.LVL17
 946 0448 0E060000 		.4byte	0x60e
 947 044c 1A       		.uleb128 0x1a
 948 044d 68000000 		.4byte	.LVL18
 949 0451 15060000 		.4byte	0x615
 950 0455 1A       		.uleb128 0x1a
 951 0456 6C000000 		.4byte	.LVL19
 952 045a 1C060000 		.4byte	0x61c
 953 045e 1A       		.uleb128 0x1a
 954 045f 70000000 		.4byte	.LVL20
 955 0463 23060000 		.4byte	0x623
 956 0467 1A       		.uleb128 0x1a
 957 0468 7A000000 		.4byte	.LVL21
 958 046c 2A060000 		.4byte	0x62a
 959 0470 1A       		.uleb128 0x1a
 960 0471 7E000000 		.4byte	.LVL22
 961 0475 31060000 		.4byte	0x631
 962 0479 19       		.uleb128 0x19
 963 047a 90000000 		.4byte	.LVL23
 964 047e EE050000 		.4byte	0x5ee
 965 0482 8E040000 		.4byte	0x48e
 966 0486 17       		.uleb128 0x17
 967 0487 01       		.uleb128 0x1
 968 0488 50       		.byte	0x50
 969 0489 03       		.uleb128 0x3
ARM GAS  /tmp/ccKw3qim.s 			page 18


 970 048a 0A       		.byte	0xa
 971 048b E803     		.2byte	0x3e8
 972 048d 00       		.byte	0
 973 048e 19       		.uleb128 0x19
 974 048f 98000000 		.4byte	.LVL24
 975 0493 EE050000 		.4byte	0x5ee
 976 0497 A1040000 		.4byte	0x4a1
 977 049b 17       		.uleb128 0x17
 978 049c 01       		.uleb128 0x1
 979 049d 50       		.byte	0x50
 980 049e 01       		.uleb128 0x1
 981 049f 31       		.byte	0x31
 982 04a0 00       		.byte	0
 983 04a1 1A       		.uleb128 0x1a
 984 04a2 A6000000 		.4byte	.LVL25
 985 04a6 3C060000 		.4byte	0x63c
 986 04aa 00       		.byte	0
 987 04ab 15       		.uleb128 0x15
 988 04ac CE010000 		.4byte	.LASF51
 989 04b0 01       		.byte	0x1
 990 04b1 AD       		.byte	0xad
 991 04b2 80000000 		.4byte	.LFB185
 992 04b6 1C000000 		.4byte	.LFE185-.LFB185
 993 04ba 01       		.uleb128 0x1
 994 04bb 9C       		.byte	0x9c
 995 04bc FC040000 		.4byte	0x4fc
 996 04c0 1B       		.uleb128 0x1b
 997 04c1 6E00     		.ascii	"n\000"
 998 04c3 01       		.byte	0x1
 999 04c4 AD       		.byte	0xad
 1000 04c5 2C000000 		.4byte	0x2c
 1001 04c9 00000000 		.4byte	.LLST0
 1002 04cd 1C       		.uleb128 0x1c
 1003 04ce 98000000 		.4byte	.LVL28
 1004 04d2 EE050000 		.4byte	0x5ee
 1005 04d6 17       		.uleb128 0x17
 1006 04d7 01       		.uleb128 0x1
 1007 04d8 50       		.byte	0x50
 1008 04d9 20       		.uleb128 0x20
 1009 04da F3       		.byte	0xf3
 1010 04db 01       		.uleb128 0x1
 1011 04dc 50       		.byte	0x50
 1012 04dd 0A       		.byte	0xa
 1013 04de E803     		.2byte	0x3e8
 1014 04e0 1E       		.byte	0x1e
 1015 04e1 31       		.byte	0x31
 1016 04e2 1C       		.byte	0x1c
 1017 04e3 F7       		.byte	0xf7
 1018 04e4 2C       		.uleb128 0x2c
 1019 04e5 F7       		.byte	0xf7
 1020 04e6 25       		.uleb128 0x25
 1021 04e7 0C       		.byte	0xc
 1022 04e8 D34D6210 		.4byte	0x10624dd3
 1023 04ec F7       		.byte	0xf7
 1024 04ed 25       		.uleb128 0x25
 1025 04ee 1E       		.byte	0x1e
 1026 04ef 08       		.byte	0x8
ARM GAS  /tmp/ccKw3qim.s 			page 19


 1027 04f0 20       		.byte	0x20
 1028 04f1 F7       		.byte	0xf7
 1029 04f2 25       		.uleb128 0x25
 1030 04f3 25       		.byte	0x25
 1031 04f4 F7       		.byte	0xf7
 1032 04f5 2C       		.uleb128 0x2c
 1033 04f6 36       		.byte	0x36
 1034 04f7 25       		.byte	0x25
 1035 04f8 23       		.byte	0x23
 1036 04f9 01       		.uleb128 0x1
 1037 04fa 00       		.byte	0
 1038 04fb 00       		.byte	0
 1039 04fc 1D       		.uleb128 0x1d
 1040 04fd 10010000 		.4byte	.LASF79
 1041 0501 01       		.byte	0x1
 1042 0502 B1       		.byte	0xb1
 1043 0503 A0000000 		.4byte	.LFB186
 1044 0507 02000000 		.4byte	.LFE186-.LFB186
 1045 050b 01       		.uleb128 0x1
 1046 050c 9C       		.byte	0x9c
 1047 050d 1E       		.uleb128 0x1e
 1048 050e 15040000 		.4byte	.LASF52
 1049 0512 08       		.byte	0x8
 1050 0513 DF07     		.2byte	0x7df
 1051 0515 0A010000 		.4byte	0x10a
 1052 0519 1F       		.uleb128 0x1f
 1053 051a 43010000 		.4byte	.LASF53
 1054 051e 07       		.byte	0x7
 1055 051f 50       		.byte	0x50
 1056 0520 24050000 		.4byte	0x524
 1057 0524 06       		.uleb128 0x6
 1058 0525 87020000 		.4byte	0x287
 1059 0529 07       		.uleb128 0x7
 1060 052a AD000000 		.4byte	0xad
 1061 052e 3A050000 		.4byte	0x53a
 1062 0532 20       		.uleb128 0x20
 1063 0533 C3000000 		.4byte	0xc3
 1064 0537 0010     		.2byte	0x1000
 1065 0539 00       		.byte	0
 1066 053a 1F       		.uleb128 0x1f
 1067 053b 3E040000 		.4byte	.LASF54
 1068 053f 09       		.byte	0x9
 1069 0540 26       		.byte	0x26
 1070 0541 29050000 		.4byte	0x529
 1071 0545 07       		.uleb128 0x7
 1072 0546 97000000 		.4byte	0x97
 1073 054a 56050000 		.4byte	0x556
 1074 054e 20       		.uleb128 0x20
 1075 054f C3000000 		.4byte	0xc3
 1076 0553 0004     		.2byte	0x400
 1077 0555 00       		.byte	0
 1078 0556 1F       		.uleb128 0x1f
 1079 0557 99000000 		.4byte	.LASF55
 1080 055b 09       		.byte	0x9
 1081 055c 28       		.byte	0x28
 1082 055d 45050000 		.4byte	0x545
 1083 0561 07       		.uleb128 0x7
ARM GAS  /tmp/ccKw3qim.s 			page 20


 1084 0562 B8000000 		.4byte	0xb8
 1085 0566 72050000 		.4byte	0x572
 1086 056a 20       		.uleb128 0x20
 1087 056b C3000000 		.4byte	0xc3
 1088 056f 0001     		.2byte	0x100
 1089 0571 00       		.byte	0
 1090 0572 1F       		.uleb128 0x1f
 1091 0573 89000000 		.4byte	.LASF56
 1092 0577 09       		.byte	0x9
 1093 0578 2A       		.byte	0x2a
 1094 0579 61050000 		.4byte	0x561
 1095 057d 21       		.uleb128 0x21
 1096 057e 0D000000 		.4byte	.LASF57
 1097 0582 06       		.byte	0x6
 1098 0583 C201     		.2byte	0x1c2
 1099 0585 99050000 		.4byte	0x599
 1100 0589 22       		.uleb128 0x22
 1101 058a 4E020000 		.4byte	0x24e
 1102 058e 22       		.uleb128 0x22
 1103 058f 38020000 		.4byte	0x238
 1104 0593 22       		.uleb128 0x22
 1105 0594 43020000 		.4byte	0x243
 1106 0598 00       		.byte	0
 1107 0599 23       		.uleb128 0x23
 1108 059a 77000000 		.4byte	.LASF58
 1109 059e DC000000 		.4byte	0xdc
 1110 05a2 B6050000 		.4byte	0x5b6
 1111 05a6 22       		.uleb128 0x22
 1112 05a7 DC000000 		.4byte	0xdc
 1113 05ab 22       		.uleb128 0x22
 1114 05ac B6050000 		.4byte	0x5b6
 1115 05b0 22       		.uleb128 0x22
 1116 05b1 C3000000 		.4byte	0xc3
 1117 05b5 00       		.byte	0
 1118 05b6 12       		.uleb128 0x12
 1119 05b7 04       		.byte	0x4
 1120 05b8 BC050000 		.4byte	0x5bc
 1121 05bc 24       		.uleb128 0x24
 1122 05bd 25       		.uleb128 0x25
 1123 05be F2000000 		.4byte	.LASF59
 1124 05c2 0A       		.byte	0xa
 1125 05c3 D0       		.byte	0xd0
 1126 05c4 25       		.uleb128 0x25
 1127 05c5 A8000000 		.4byte	.LASF60
 1128 05c9 0B       		.byte	0xb
 1129 05ca F6       		.byte	0xf6
 1130 05cb 25       		.uleb128 0x25
 1131 05cc 23000000 		.4byte	.LASF61
 1132 05d0 0C       		.byte	0xc
 1133 05d1 17       		.byte	0x17
 1134 05d2 25       		.uleb128 0x25
 1135 05d3 45040000 		.4byte	.LASF62
 1136 05d7 0D       		.byte	0xd
 1137 05d8 16       		.byte	0x16
 1138 05d9 25       		.uleb128 0x25
 1139 05da BF010000 		.4byte	.LASF63
 1140 05de 0E       		.byte	0xe
ARM GAS  /tmp/ccKw3qim.s 			page 21


 1141 05df 16       		.byte	0x16
 1142 05e0 25       		.uleb128 0x25
 1143 05e1 F7010000 		.4byte	.LASF64
 1144 05e5 07       		.byte	0x7
 1145 05e6 56       		.byte	0x56
 1146 05e7 25       		.uleb128 0x25
 1147 05e8 A3010000 		.4byte	.LASF65
 1148 05ec 0F       		.byte	0xf
 1149 05ed 18       		.byte	0x18
 1150 05ee 21       		.uleb128 0x21
 1151 05ef 5E000000 		.4byte	.LASF66
 1152 05f3 10       		.byte	0x10
 1153 05f4 7501     		.2byte	0x175
 1154 05f6 00060000 		.4byte	0x600
 1155 05fa 22       		.uleb128 0x22
 1156 05fb D1000000 		.4byte	0xd1
 1157 05ff 00       		.byte	0
 1158 0600 25       		.uleb128 0x25
 1159 0601 0B020000 		.4byte	.LASF67
 1160 0605 11       		.byte	0x11
 1161 0606 1C       		.byte	0x1c
 1162 0607 25       		.uleb128 0x25
 1163 0608 1F010000 		.4byte	.LASF68
 1164 060c 11       		.byte	0x11
 1165 060d 1D       		.byte	0x1d
 1166 060e 25       		.uleb128 0x25
 1167 060f 42000000 		.4byte	.LASF69
 1168 0613 09       		.byte	0x9
 1169 0614 3B       		.byte	0x3b
 1170 0615 25       		.uleb128 0x25
 1171 0616 5D010000 		.4byte	.LASF70
 1172 061a 12       		.byte	0x12
 1173 061b 70       		.byte	0x70
 1174 061c 25       		.uleb128 0x25
 1175 061d 92010000 		.4byte	.LASF71
 1176 0621 07       		.byte	0x7
 1177 0622 5A       		.byte	0x5a
 1178 0623 25       		.uleb128 0x25
 1179 0624 BF000000 		.4byte	.LASF72
 1180 0628 13       		.byte	0x13
 1181 0629 1E       		.byte	0x1e
 1182 062a 25       		.uleb128 0x25
 1183 062b 95030000 		.4byte	.LASF73
 1184 062f 14       		.byte	0x14
 1185 0630 17       		.byte	0x17
 1186 0631 26       		.uleb128 0x26
 1187 0632 00010000 		.4byte	.LASF80
 1188 0636 0E       		.byte	0xe
 1189 0637 17       		.byte	0x17
 1190 0638 90000000 		.4byte	0x90
 1191 063c 25       		.uleb128 0x25
 1192 063d CA000000 		.4byte	.LASF74
 1193 0641 07       		.byte	0x7
 1194 0642 65       		.byte	0x65
 1195 0643 00       		.byte	0
 1196              		.section	.debug_abbrev,"",%progbits
 1197              	.Ldebug_abbrev0:
ARM GAS  /tmp/ccKw3qim.s 			page 22


 1198 0000 01       		.uleb128 0x1
 1199 0001 11       		.uleb128 0x11
 1200 0002 01       		.byte	0x1
 1201 0003 25       		.uleb128 0x25
 1202 0004 0E       		.uleb128 0xe
 1203 0005 13       		.uleb128 0x13
 1204 0006 0B       		.uleb128 0xb
 1205 0007 03       		.uleb128 0x3
 1206 0008 0E       		.uleb128 0xe
 1207 0009 1B       		.uleb128 0x1b
 1208 000a 0E       		.uleb128 0xe
 1209 000b 55       		.uleb128 0x55
 1210 000c 17       		.uleb128 0x17
 1211 000d 11       		.uleb128 0x11
 1212 000e 01       		.uleb128 0x1
 1213 000f 10       		.uleb128 0x10
 1214 0010 17       		.uleb128 0x17
 1215 0011 00       		.byte	0
 1216 0012 00       		.byte	0
 1217 0013 02       		.uleb128 0x2
 1218 0014 24       		.uleb128 0x24
 1219 0015 00       		.byte	0
 1220 0016 0B       		.uleb128 0xb
 1221 0017 0B       		.uleb128 0xb
 1222 0018 3E       		.uleb128 0x3e
 1223 0019 0B       		.uleb128 0xb
 1224 001a 03       		.uleb128 0x3
 1225 001b 0E       		.uleb128 0xe
 1226 001c 00       		.byte	0
 1227 001d 00       		.byte	0
 1228 001e 03       		.uleb128 0x3
 1229 001f 16       		.uleb128 0x16
 1230 0020 00       		.byte	0
 1231 0021 03       		.uleb128 0x3
 1232 0022 0E       		.uleb128 0xe
 1233 0023 3A       		.uleb128 0x3a
 1234 0024 0B       		.uleb128 0xb
 1235 0025 3B       		.uleb128 0x3b
 1236 0026 0B       		.uleb128 0xb
 1237 0027 49       		.uleb128 0x49
 1238 0028 13       		.uleb128 0x13
 1239 0029 00       		.byte	0
 1240 002a 00       		.byte	0
 1241 002b 04       		.uleb128 0x4
 1242 002c 24       		.uleb128 0x24
 1243 002d 00       		.byte	0
 1244 002e 0B       		.uleb128 0xb
 1245 002f 0B       		.uleb128 0xb
 1246 0030 3E       		.uleb128 0x3e
 1247 0031 0B       		.uleb128 0xb
 1248 0032 03       		.uleb128 0x3
 1249 0033 08       		.uleb128 0x8
 1250 0034 00       		.byte	0
 1251 0035 00       		.byte	0
 1252 0036 05       		.uleb128 0x5
 1253 0037 0F       		.uleb128 0xf
 1254 0038 00       		.byte	0
ARM GAS  /tmp/ccKw3qim.s 			page 23


 1255 0039 0B       		.uleb128 0xb
 1256 003a 0B       		.uleb128 0xb
 1257 003b 00       		.byte	0
 1258 003c 00       		.byte	0
 1259 003d 06       		.uleb128 0x6
 1260 003e 35       		.uleb128 0x35
 1261 003f 00       		.byte	0
 1262 0040 49       		.uleb128 0x49
 1263 0041 13       		.uleb128 0x13
 1264 0042 00       		.byte	0
 1265 0043 00       		.byte	0
 1266 0044 07       		.uleb128 0x7
 1267 0045 01       		.uleb128 0x1
 1268 0046 01       		.byte	0x1
 1269 0047 49       		.uleb128 0x49
 1270 0048 13       		.uleb128 0x13
 1271 0049 01       		.uleb128 0x1
 1272 004a 13       		.uleb128 0x13
 1273 004b 00       		.byte	0
 1274 004c 00       		.byte	0
 1275 004d 08       		.uleb128 0x8
 1276 004e 21       		.uleb128 0x21
 1277 004f 00       		.byte	0
 1278 0050 49       		.uleb128 0x49
 1279 0051 13       		.uleb128 0x13
 1280 0052 2F       		.uleb128 0x2f
 1281 0053 0B       		.uleb128 0xb
 1282 0054 00       		.byte	0
 1283 0055 00       		.byte	0
 1284 0056 09       		.uleb128 0x9
 1285 0057 13       		.uleb128 0x13
 1286 0058 01       		.byte	0x1
 1287 0059 0B       		.uleb128 0xb
 1288 005a 0B       		.uleb128 0xb
 1289 005b 3A       		.uleb128 0x3a
 1290 005c 0B       		.uleb128 0xb
 1291 005d 3B       		.uleb128 0x3b
 1292 005e 05       		.uleb128 0x5
 1293 005f 01       		.uleb128 0x1
 1294 0060 13       		.uleb128 0x13
 1295 0061 00       		.byte	0
 1296 0062 00       		.byte	0
 1297 0063 0A       		.uleb128 0xa
 1298 0064 0D       		.uleb128 0xd
 1299 0065 00       		.byte	0
 1300 0066 03       		.uleb128 0x3
 1301 0067 0E       		.uleb128 0xe
 1302 0068 3A       		.uleb128 0x3a
 1303 0069 0B       		.uleb128 0xb
 1304 006a 3B       		.uleb128 0x3b
 1305 006b 05       		.uleb128 0x5
 1306 006c 49       		.uleb128 0x49
 1307 006d 13       		.uleb128 0x13
 1308 006e 38       		.uleb128 0x38
 1309 006f 0B       		.uleb128 0xb
 1310 0070 00       		.byte	0
 1311 0071 00       		.byte	0
ARM GAS  /tmp/ccKw3qim.s 			page 24


 1312 0072 0B       		.uleb128 0xb
 1313 0073 0D       		.uleb128 0xd
 1314 0074 00       		.byte	0
 1315 0075 03       		.uleb128 0x3
 1316 0076 08       		.uleb128 0x8
 1317 0077 3A       		.uleb128 0x3a
 1318 0078 0B       		.uleb128 0xb
 1319 0079 3B       		.uleb128 0x3b
 1320 007a 05       		.uleb128 0x5
 1321 007b 49       		.uleb128 0x49
 1322 007c 13       		.uleb128 0x13
 1323 007d 38       		.uleb128 0x38
 1324 007e 0B       		.uleb128 0xb
 1325 007f 00       		.byte	0
 1326 0080 00       		.byte	0
 1327 0081 0C       		.uleb128 0xc
 1328 0082 16       		.uleb128 0x16
 1329 0083 00       		.byte	0
 1330 0084 03       		.uleb128 0x3
 1331 0085 0E       		.uleb128 0xe
 1332 0086 3A       		.uleb128 0x3a
 1333 0087 0B       		.uleb128 0xb
 1334 0088 3B       		.uleb128 0x3b
 1335 0089 05       		.uleb128 0x5
 1336 008a 49       		.uleb128 0x49
 1337 008b 13       		.uleb128 0x13
 1338 008c 00       		.byte	0
 1339 008d 00       		.byte	0
 1340 008e 0D       		.uleb128 0xd
 1341 008f 13       		.uleb128 0x13
 1342 0090 01       		.byte	0x1
 1343 0091 0B       		.uleb128 0xb
 1344 0092 0B       		.uleb128 0xb
 1345 0093 3A       		.uleb128 0x3a
 1346 0094 0B       		.uleb128 0xb
 1347 0095 3B       		.uleb128 0x3b
 1348 0096 0B       		.uleb128 0xb
 1349 0097 01       		.uleb128 0x1
 1350 0098 13       		.uleb128 0x13
 1351 0099 00       		.byte	0
 1352 009a 00       		.byte	0
 1353 009b 0E       		.uleb128 0xe
 1354 009c 0D       		.uleb128 0xd
 1355 009d 00       		.byte	0
 1356 009e 03       		.uleb128 0x3
 1357 009f 08       		.uleb128 0x8
 1358 00a0 3A       		.uleb128 0x3a
 1359 00a1 0B       		.uleb128 0xb
 1360 00a2 3B       		.uleb128 0x3b
 1361 00a3 0B       		.uleb128 0xb
 1362 00a4 49       		.uleb128 0x49
 1363 00a5 13       		.uleb128 0x13
 1364 00a6 38       		.uleb128 0x38
 1365 00a7 0B       		.uleb128 0xb
 1366 00a8 00       		.byte	0
 1367 00a9 00       		.byte	0
 1368 00aa 0F       		.uleb128 0xf
ARM GAS  /tmp/ccKw3qim.s 			page 25


 1369 00ab 0D       		.uleb128 0xd
 1370 00ac 00       		.byte	0
 1371 00ad 03       		.uleb128 0x3
 1372 00ae 0E       		.uleb128 0xe
 1373 00af 3A       		.uleb128 0x3a
 1374 00b0 0B       		.uleb128 0xb
 1375 00b1 3B       		.uleb128 0x3b
 1376 00b2 0B       		.uleb128 0xb
 1377 00b3 49       		.uleb128 0x49
 1378 00b4 13       		.uleb128 0x13
 1379 00b5 38       		.uleb128 0x38
 1380 00b6 0B       		.uleb128 0xb
 1381 00b7 00       		.byte	0
 1382 00b8 00       		.byte	0
 1383 00b9 10       		.uleb128 0x10
 1384 00ba 17       		.uleb128 0x17
 1385 00bb 01       		.byte	0x1
 1386 00bc 0B       		.uleb128 0xb
 1387 00bd 0B       		.uleb128 0xb
 1388 00be 3A       		.uleb128 0x3a
 1389 00bf 0B       		.uleb128 0xb
 1390 00c0 3B       		.uleb128 0x3b
 1391 00c1 0B       		.uleb128 0xb
 1392 00c2 01       		.uleb128 0x1
 1393 00c3 13       		.uleb128 0x13
 1394 00c4 00       		.byte	0
 1395 00c5 00       		.byte	0
 1396 00c6 11       		.uleb128 0x11
 1397 00c7 0D       		.uleb128 0xd
 1398 00c8 00       		.byte	0
 1399 00c9 03       		.uleb128 0x3
 1400 00ca 08       		.uleb128 0x8
 1401 00cb 3A       		.uleb128 0x3a
 1402 00cc 0B       		.uleb128 0xb
 1403 00cd 3B       		.uleb128 0x3b
 1404 00ce 0B       		.uleb128 0xb
 1405 00cf 49       		.uleb128 0x49
 1406 00d0 13       		.uleb128 0x13
 1407 00d1 00       		.byte	0
 1408 00d2 00       		.byte	0
 1409 00d3 12       		.uleb128 0x12
 1410 00d4 0F       		.uleb128 0xf
 1411 00d5 00       		.byte	0
 1412 00d6 0B       		.uleb128 0xb
 1413 00d7 0B       		.uleb128 0xb
 1414 00d8 49       		.uleb128 0x49
 1415 00d9 13       		.uleb128 0x13
 1416 00da 00       		.byte	0
 1417 00db 00       		.byte	0
 1418 00dc 13       		.uleb128 0x13
 1419 00dd 04       		.uleb128 0x4
 1420 00de 01       		.byte	0x1
 1421 00df 0B       		.uleb128 0xb
 1422 00e0 0B       		.uleb128 0xb
 1423 00e1 3A       		.uleb128 0x3a
 1424 00e2 0B       		.uleb128 0xb
 1425 00e3 3B       		.uleb128 0x3b
ARM GAS  /tmp/ccKw3qim.s 			page 26


 1426 00e4 0B       		.uleb128 0xb
 1427 00e5 01       		.uleb128 0x1
 1428 00e6 13       		.uleb128 0x13
 1429 00e7 00       		.byte	0
 1430 00e8 00       		.byte	0
 1431 00e9 14       		.uleb128 0x14
 1432 00ea 28       		.uleb128 0x28
 1433 00eb 00       		.byte	0
 1434 00ec 03       		.uleb128 0x3
 1435 00ed 0E       		.uleb128 0xe
 1436 00ee 1C       		.uleb128 0x1c
 1437 00ef 0D       		.uleb128 0xd
 1438 00f0 00       		.byte	0
 1439 00f1 00       		.byte	0
 1440 00f2 15       		.uleb128 0x15
 1441 00f3 2E       		.uleb128 0x2e
 1442 00f4 01       		.byte	0x1
 1443 00f5 3F       		.uleb128 0x3f
 1444 00f6 19       		.uleb128 0x19
 1445 00f7 03       		.uleb128 0x3
 1446 00f8 0E       		.uleb128 0xe
 1447 00f9 3A       		.uleb128 0x3a
 1448 00fa 0B       		.uleb128 0xb
 1449 00fb 3B       		.uleb128 0x3b
 1450 00fc 0B       		.uleb128 0xb
 1451 00fd 27       		.uleb128 0x27
 1452 00fe 19       		.uleb128 0x19
 1453 00ff 11       		.uleb128 0x11
 1454 0100 01       		.uleb128 0x1
 1455 0101 12       		.uleb128 0x12
 1456 0102 06       		.uleb128 0x6
 1457 0103 40       		.uleb128 0x40
 1458 0104 18       		.uleb128 0x18
 1459 0105 9742     		.uleb128 0x2117
 1460 0107 19       		.uleb128 0x19
 1461 0108 01       		.uleb128 0x1
 1462 0109 13       		.uleb128 0x13
 1463 010a 00       		.byte	0
 1464 010b 00       		.byte	0
 1465 010c 16       		.uleb128 0x16
 1466 010d 898201   		.uleb128 0x4109
 1467 0110 01       		.byte	0x1
 1468 0111 11       		.uleb128 0x11
 1469 0112 01       		.uleb128 0x1
 1470 0113 31       		.uleb128 0x31
 1471 0114 13       		.uleb128 0x13
 1472 0115 00       		.byte	0
 1473 0116 00       		.byte	0
 1474 0117 17       		.uleb128 0x17
 1475 0118 8A8201   		.uleb128 0x410a
 1476 011b 00       		.byte	0
 1477 011c 02       		.uleb128 0x2
 1478 011d 18       		.uleb128 0x18
 1479 011e 9142     		.uleb128 0x2111
 1480 0120 18       		.uleb128 0x18
 1481 0121 00       		.byte	0
 1482 0122 00       		.byte	0
ARM GAS  /tmp/ccKw3qim.s 			page 27


 1483 0123 18       		.uleb128 0x18
 1484 0124 2E       		.uleb128 0x2e
 1485 0125 01       		.byte	0x1
 1486 0126 3F       		.uleb128 0x3f
 1487 0127 19       		.uleb128 0x19
 1488 0128 03       		.uleb128 0x3
 1489 0129 0E       		.uleb128 0xe
 1490 012a 3A       		.uleb128 0x3a
 1491 012b 0B       		.uleb128 0xb
 1492 012c 3B       		.uleb128 0x3b
 1493 012d 0B       		.uleb128 0xb
 1494 012e 27       		.uleb128 0x27
 1495 012f 19       		.uleb128 0x19
 1496 0130 49       		.uleb128 0x49
 1497 0131 13       		.uleb128 0x13
 1498 0132 11       		.uleb128 0x11
 1499 0133 01       		.uleb128 0x1
 1500 0134 12       		.uleb128 0x12
 1501 0135 06       		.uleb128 0x6
 1502 0136 40       		.uleb128 0x40
 1503 0137 18       		.uleb128 0x18
 1504 0138 9742     		.uleb128 0x2117
 1505 013a 19       		.uleb128 0x19
 1506 013b 01       		.uleb128 0x1
 1507 013c 13       		.uleb128 0x13
 1508 013d 00       		.byte	0
 1509 013e 00       		.byte	0
 1510 013f 19       		.uleb128 0x19
 1511 0140 898201   		.uleb128 0x4109
 1512 0143 01       		.byte	0x1
 1513 0144 11       		.uleb128 0x11
 1514 0145 01       		.uleb128 0x1
 1515 0146 31       		.uleb128 0x31
 1516 0147 13       		.uleb128 0x13
 1517 0148 01       		.uleb128 0x1
 1518 0149 13       		.uleb128 0x13
 1519 014a 00       		.byte	0
 1520 014b 00       		.byte	0
 1521 014c 1A       		.uleb128 0x1a
 1522 014d 898201   		.uleb128 0x4109
 1523 0150 00       		.byte	0
 1524 0151 11       		.uleb128 0x11
 1525 0152 01       		.uleb128 0x1
 1526 0153 31       		.uleb128 0x31
 1527 0154 13       		.uleb128 0x13
 1528 0155 00       		.byte	0
 1529 0156 00       		.byte	0
 1530 0157 1B       		.uleb128 0x1b
 1531 0158 05       		.uleb128 0x5
 1532 0159 00       		.byte	0
 1533 015a 03       		.uleb128 0x3
 1534 015b 08       		.uleb128 0x8
 1535 015c 3A       		.uleb128 0x3a
 1536 015d 0B       		.uleb128 0xb
 1537 015e 3B       		.uleb128 0x3b
 1538 015f 0B       		.uleb128 0xb
 1539 0160 49       		.uleb128 0x49
ARM GAS  /tmp/ccKw3qim.s 			page 28


 1540 0161 13       		.uleb128 0x13
 1541 0162 02       		.uleb128 0x2
 1542 0163 17       		.uleb128 0x17
 1543 0164 00       		.byte	0
 1544 0165 00       		.byte	0
 1545 0166 1C       		.uleb128 0x1c
 1546 0167 898201   		.uleb128 0x4109
 1547 016a 01       		.byte	0x1
 1548 016b 11       		.uleb128 0x11
 1549 016c 01       		.uleb128 0x1
 1550 016d 9542     		.uleb128 0x2115
 1551 016f 19       		.uleb128 0x19
 1552 0170 31       		.uleb128 0x31
 1553 0171 13       		.uleb128 0x13
 1554 0172 00       		.byte	0
 1555 0173 00       		.byte	0
 1556 0174 1D       		.uleb128 0x1d
 1557 0175 2E       		.uleb128 0x2e
 1558 0176 00       		.byte	0
 1559 0177 3F       		.uleb128 0x3f
 1560 0178 19       		.uleb128 0x19
 1561 0179 03       		.uleb128 0x3
 1562 017a 0E       		.uleb128 0xe
 1563 017b 3A       		.uleb128 0x3a
 1564 017c 0B       		.uleb128 0xb
 1565 017d 3B       		.uleb128 0x3b
 1566 017e 0B       		.uleb128 0xb
 1567 017f 27       		.uleb128 0x27
 1568 0180 19       		.uleb128 0x19
 1569 0181 11       		.uleb128 0x11
 1570 0182 01       		.uleb128 0x1
 1571 0183 12       		.uleb128 0x12
 1572 0184 06       		.uleb128 0x6
 1573 0185 40       		.uleb128 0x40
 1574 0186 18       		.uleb128 0x18
 1575 0187 9742     		.uleb128 0x2117
 1576 0189 19       		.uleb128 0x19
 1577 018a 00       		.byte	0
 1578 018b 00       		.byte	0
 1579 018c 1E       		.uleb128 0x1e
 1580 018d 34       		.uleb128 0x34
 1581 018e 00       		.byte	0
 1582 018f 03       		.uleb128 0x3
 1583 0190 0E       		.uleb128 0xe
 1584 0191 3A       		.uleb128 0x3a
 1585 0192 0B       		.uleb128 0xb
 1586 0193 3B       		.uleb128 0x3b
 1587 0194 05       		.uleb128 0x5
 1588 0195 49       		.uleb128 0x49
 1589 0196 13       		.uleb128 0x13
 1590 0197 3F       		.uleb128 0x3f
 1591 0198 19       		.uleb128 0x19
 1592 0199 3C       		.uleb128 0x3c
 1593 019a 19       		.uleb128 0x19
 1594 019b 00       		.byte	0
 1595 019c 00       		.byte	0
 1596 019d 1F       		.uleb128 0x1f
ARM GAS  /tmp/ccKw3qim.s 			page 29


 1597 019e 34       		.uleb128 0x34
 1598 019f 00       		.byte	0
 1599 01a0 03       		.uleb128 0x3
 1600 01a1 0E       		.uleb128 0xe
 1601 01a2 3A       		.uleb128 0x3a
 1602 01a3 0B       		.uleb128 0xb
 1603 01a4 3B       		.uleb128 0x3b
 1604 01a5 0B       		.uleb128 0xb
 1605 01a6 49       		.uleb128 0x49
 1606 01a7 13       		.uleb128 0x13
 1607 01a8 3F       		.uleb128 0x3f
 1608 01a9 19       		.uleb128 0x19
 1609 01aa 3C       		.uleb128 0x3c
 1610 01ab 19       		.uleb128 0x19
 1611 01ac 00       		.byte	0
 1612 01ad 00       		.byte	0
 1613 01ae 20       		.uleb128 0x20
 1614 01af 21       		.uleb128 0x21
 1615 01b0 00       		.byte	0
 1616 01b1 49       		.uleb128 0x49
 1617 01b2 13       		.uleb128 0x13
 1618 01b3 2F       		.uleb128 0x2f
 1619 01b4 05       		.uleb128 0x5
 1620 01b5 00       		.byte	0
 1621 01b6 00       		.byte	0
 1622 01b7 21       		.uleb128 0x21
 1623 01b8 2E       		.uleb128 0x2e
 1624 01b9 01       		.byte	0x1
 1625 01ba 3F       		.uleb128 0x3f
 1626 01bb 19       		.uleb128 0x19
 1627 01bc 03       		.uleb128 0x3
 1628 01bd 0E       		.uleb128 0xe
 1629 01be 3A       		.uleb128 0x3a
 1630 01bf 0B       		.uleb128 0xb
 1631 01c0 3B       		.uleb128 0x3b
 1632 01c1 05       		.uleb128 0x5
 1633 01c2 27       		.uleb128 0x27
 1634 01c3 19       		.uleb128 0x19
 1635 01c4 3C       		.uleb128 0x3c
 1636 01c5 19       		.uleb128 0x19
 1637 01c6 01       		.uleb128 0x1
 1638 01c7 13       		.uleb128 0x13
 1639 01c8 00       		.byte	0
 1640 01c9 00       		.byte	0
 1641 01ca 22       		.uleb128 0x22
 1642 01cb 05       		.uleb128 0x5
 1643 01cc 00       		.byte	0
 1644 01cd 49       		.uleb128 0x49
 1645 01ce 13       		.uleb128 0x13
 1646 01cf 00       		.byte	0
 1647 01d0 00       		.byte	0
 1648 01d1 23       		.uleb128 0x23
 1649 01d2 2E       		.uleb128 0x2e
 1650 01d3 01       		.byte	0x1
 1651 01d4 3F       		.uleb128 0x3f
 1652 01d5 19       		.uleb128 0x19
 1653 01d6 03       		.uleb128 0x3
ARM GAS  /tmp/ccKw3qim.s 			page 30


 1654 01d7 0E       		.uleb128 0xe
 1655 01d8 27       		.uleb128 0x27
 1656 01d9 19       		.uleb128 0x19
 1657 01da 49       		.uleb128 0x49
 1658 01db 13       		.uleb128 0x13
 1659 01dc 34       		.uleb128 0x34
 1660 01dd 19       		.uleb128 0x19
 1661 01de 3C       		.uleb128 0x3c
 1662 01df 19       		.uleb128 0x19
 1663 01e0 01       		.uleb128 0x1
 1664 01e1 13       		.uleb128 0x13
 1665 01e2 00       		.byte	0
 1666 01e3 00       		.byte	0
 1667 01e4 24       		.uleb128 0x24
 1668 01e5 26       		.uleb128 0x26
 1669 01e6 00       		.byte	0
 1670 01e7 00       		.byte	0
 1671 01e8 00       		.byte	0
 1672 01e9 25       		.uleb128 0x25
 1673 01ea 2E       		.uleb128 0x2e
 1674 01eb 00       		.byte	0
 1675 01ec 3F       		.uleb128 0x3f
 1676 01ed 19       		.uleb128 0x19
 1677 01ee 03       		.uleb128 0x3
 1678 01ef 0E       		.uleb128 0xe
 1679 01f0 3A       		.uleb128 0x3a
 1680 01f1 0B       		.uleb128 0xb
 1681 01f2 3B       		.uleb128 0x3b
 1682 01f3 0B       		.uleb128 0xb
 1683 01f4 27       		.uleb128 0x27
 1684 01f5 19       		.uleb128 0x19
 1685 01f6 3C       		.uleb128 0x3c
 1686 01f7 19       		.uleb128 0x19
 1687 01f8 00       		.byte	0
 1688 01f9 00       		.byte	0
 1689 01fa 26       		.uleb128 0x26
 1690 01fb 2E       		.uleb128 0x2e
 1691 01fc 00       		.byte	0
 1692 01fd 3F       		.uleb128 0x3f
 1693 01fe 19       		.uleb128 0x19
 1694 01ff 03       		.uleb128 0x3
 1695 0200 0E       		.uleb128 0xe
 1696 0201 3A       		.uleb128 0x3a
 1697 0202 0B       		.uleb128 0xb
 1698 0203 3B       		.uleb128 0x3b
 1699 0204 0B       		.uleb128 0xb
 1700 0205 27       		.uleb128 0x27
 1701 0206 19       		.uleb128 0x19
 1702 0207 49       		.uleb128 0x49
 1703 0208 13       		.uleb128 0x13
 1704 0209 3C       		.uleb128 0x3c
 1705 020a 19       		.uleb128 0x19
 1706 020b 00       		.byte	0
 1707 020c 00       		.byte	0
 1708 020d 00       		.byte	0
 1709              		.section	.debug_loc,"",%progbits
 1710              	.Ldebug_loc0:
ARM GAS  /tmp/ccKw3qim.s 			page 31


 1711              	.LLST0:
 1712 0000 80000000 		.4byte	.LVL26
 1713 0004 88000000 		.4byte	.LVL27
 1714 0008 0100     		.2byte	0x1
 1715 000a 50       		.byte	0x50
 1716 000b 88000000 		.4byte	.LVL27
 1717 000f 9C000000 		.4byte	.LFE185
 1718 0013 0400     		.2byte	0x4
 1719 0015 F3       		.byte	0xf3
 1720 0016 01       		.uleb128 0x1
 1721 0017 50       		.byte	0x50
 1722 0018 9F       		.byte	0x9f
 1723 0019 00000000 		.4byte	0
 1724 001d 00000000 		.4byte	0
 1725              		.section	.debug_aranges,"",%progbits
 1726 0000 24000000 		.4byte	0x24
 1727 0004 0200     		.2byte	0x2
 1728 0006 00000000 		.4byte	.Ldebug_info0
 1729 000a 04       		.byte	0x4
 1730 000b 00       		.byte	0
 1731 000c 0000     		.2byte	0
 1732 000e 0000     		.2byte	0
 1733 0010 00000000 		.4byte	.Ltext0
 1734 0014 A2000000 		.4byte	.Letext0-.Ltext0
 1735 0018 00000000 		.4byte	.LFB184
 1736 001c B8000000 		.4byte	.LFE184-.LFB184
 1737 0020 00000000 		.4byte	0
 1738 0024 00000000 		.4byte	0
 1739              		.section	.debug_ranges,"",%progbits
 1740              	.Ldebug_ranges0:
 1741 0000 00000000 		.4byte	.Ltext0
 1742 0004 A2000000 		.4byte	.Letext0
 1743 0008 00000000 		.4byte	.LFB184
 1744 000c B8000000 		.4byte	.LFE184
 1745 0010 00000000 		.4byte	0
 1746 0014 00000000 		.4byte	0
 1747              		.section	.debug_line,"",%progbits
 1748              	.Ldebug_line0:
 1749 0000 7F030000 		.section	.debug_str,"MS",%progbits,1
 1749      02000D03 
 1749      00000201 
 1749      FB0E0D00 
 1749      01010101 
 1750              	.LASF35:
 1751 0000 4750494F 		.ascii	"GPIO_TypeDef\000"
 1751      5F547970 
 1751      65446566 
 1751      00
 1752              	.LASF57:
 1753 000d 5F70616C 		.ascii	"_pal_lld_setgroupmode\000"
 1753      5F6C6C64 
 1753      5F736574 
 1753      67726F75 
 1753      706D6F64 
 1754              	.LASF61:
 1755 0023 73646361 		.ascii	"sdcard_init\000"
 1755      72645F69 
ARM GAS  /tmp/ccKw3qim.s 			page 32


 1755      6E697400 
 1756              	.LASF4:
 1757 002f 73686F72 		.ascii	"short int\000"
 1757      7420696E 
 1757      7400
 1758              	.LASF17:
 1759 0039 73697A65 		.ascii	"sizetype\000"
 1759      74797065 
 1759      00
 1760              	.LASF69:
 1761 0042 61786F6C 		.ascii	"axoloti_math_init\000"
 1761      6F74695F 
 1761      6D617468 
 1761      5F696E69 
 1761      7400
 1762              	.LASF33:
 1763 0054 4146524C 		.ascii	"AFRL\000"
 1763      00
 1764              	.LASF78:
 1765 0059 6D61696E 		.ascii	"main\000"
 1765      00
 1766              	.LASF66:
 1767 005e 63685468 		.ascii	"chThdSleep\000"
 1767      64536C65 
 1767      657000
 1768              	.LASF12:
 1769 0069 6C6F6E67 		.ascii	"long long int\000"
 1769      206C6F6E 
 1769      6720696E 
 1769      7400
 1770              	.LASF58:
 1771 0077 6D656D63 		.ascii	"memcpy\000"
 1771      707900
 1772              	.LASF6:
 1773 007e 5F5F7569 		.ascii	"__uint16_t\000"
 1773      6E743136 
 1773      5F7400
 1774              	.LASF56:
 1775 0089 70697463 		.ascii	"pitcht\000"
 1775      687400
 1776              	.LASF37:
 1777 0090 696F6D6F 		.ascii	"iomode_t\000"
 1777      64655F74 
 1777      00
 1778              	.LASF55:
 1779 0099 77696E64 		.ascii	"windowt\000"
 1779      6F777400 
 1780              	.LASF22:
 1781 00a1 45585449 		.ascii	"EXTICR\000"
 1781      435200
 1782              	.LASF60:
 1783 00a8 63685379 		.ascii	"chSysInit\000"
 1783      73496E69 
 1783      7400
 1784              	.LASF36:
 1785 00b2 696F706F 		.ascii	"ioportmask_t\000"
 1785      72746D61 
ARM GAS  /tmp/ccKw3qim.s 			page 33


 1785      736B5F74 
 1785      00
 1786              	.LASF72:
 1787 00bf 636F6465 		.ascii	"codec_init\000"
 1787      635F696E 
 1787      697400
 1788              	.LASF74:
 1789 00ca 4C6F6164 		.ascii	"LoadPatchStartFlash\000"
 1789      50617463 
 1789      68537461 
 1789      7274466C 
 1789      61736800 
 1790              	.LASF28:
 1791 00de 4F545950 		.ascii	"OTYPER\000"
 1791      455200
 1792              	.LASF39:
 1793 00e5 666C6F61 		.ascii	"float\000"
 1793      7400
 1794              	.LASF21:
 1795 00eb 4D454D52 		.ascii	"MEMRMP\000"
 1795      4D5000
 1796              	.LASF59:
 1797 00f2 68616C49 		.ascii	"halInit\000"
 1797      6E697400 
 1798              	.LASF30:
 1799 00fa 50555044 		.ascii	"PUPDR\000"
 1799      5200
 1800              	.LASF80:
 1801 0100 65786365 		.ascii	"exception_check\000"
 1801      7074696F 
 1801      6E5F6368 
 1801      65636B00 
 1802              	.LASF79:
 1803 0110 5F736272 		.ascii	"_sbrk\000"
 1803      6B00
 1804              	.LASF9:
 1805 0116 6C6F6E67 		.ascii	"long int\000"
 1805      20696E74 
 1805      00
 1806              	.LASF68:
 1807 011f 6164635F 		.ascii	"adc_init\000"
 1807      696E6974 
 1807      00
 1808              	.LASF49:
 1809 0128 546F6767 		.ascii	"ToggleRed\000"
 1809      6C655265 
 1809      6400
 1810              	.LASF31:
 1811 0132 42535252 		.ascii	"BSRR\000"
 1811      00
 1812              	.LASF27:
 1813 0137 4D4F4445 		.ascii	"MODER\000"
 1813      5200
 1814              	.LASF26:
 1815 013d 636C6561 		.ascii	"clear\000"
 1815      7200
 1816              	.LASF53:
ARM GAS  /tmp/ccKw3qim.s 			page 34


 1817 0143 70617463 		.ascii	"patchStatus\000"
 1817      68537461 
 1817      74757300 
 1818              	.LASF44:
 1819 014f 70617463 		.ascii	"patchStatus_t\000"
 1819      68537461 
 1819      7475735F 
 1819      7400
 1820              	.LASF70:
 1821 015d 6D696469 		.ascii	"midi_init\000"
 1821      5F696E69 
 1821      7400
 1822              	.LASF24:
 1823 0167 434D5043 		.ascii	"CMPCR\000"
 1823      5200
 1824              	.LASF38:
 1825 016d 696F706F 		.ascii	"ioportid_t\000"
 1825      72746964 
 1825      5F7400
 1826              	.LASF46:
 1827 0178 6C6F6E67 		.ascii	"long double\000"
 1827      20646F75 
 1827      626C6500 
 1828              	.LASF3:
 1829 0184 756E7369 		.ascii	"unsigned char\000"
 1829      676E6564 
 1829      20636861 
 1829      7200
 1830              	.LASF71:
 1831 0192 73746172 		.ascii	"start_dsp_thread\000"
 1831      745F6473 
 1831      705F7468 
 1831      72656164 
 1831      00
 1832              	.LASF65:
 1833 01a3 496E6974 		.ascii	"InitPConnection\000"
 1833      50436F6E 
 1833      6E656374 
 1833      696F6E00 
 1834              	.LASF2:
 1835 01b3 7369676E 		.ascii	"signed char\000"
 1835      65642063 
 1835      68617200 
 1836              	.LASF63:
 1837 01bf 65786365 		.ascii	"exception_init\000"
 1837      7074696F 
 1837      6E5F696E 
 1837      697400
 1838              	.LASF51:
 1839 01ce 48414C5F 		.ascii	"HAL_Delay\000"
 1839      44656C61 
 1839      7900
 1840              	.LASF42:
 1841 01d8 53544F50 		.ascii	"STOPPING\000"
 1841      50494E47 
 1841      00
 1842              	.LASF16:
ARM GAS  /tmp/ccKw3qim.s 			page 35


 1843 01e1 75696E74 		.ascii	"uint32_t\000"
 1843      33325F74 
 1843      00
 1844              	.LASF1:
 1845 01ea 756E7369 		.ascii	"unsigned int\000"
 1845      676E6564 
 1845      20696E74 
 1845      00
 1846              	.LASF64:
 1847 01f7 496E6974 		.ascii	"InitPatch0\000"
 1847      50617463 
 1847      683000
 1848              	.LASF14:
 1849 0202 75696E74 		.ascii	"uint16_t\000"
 1849      31365F74 
 1849      00
 1850              	.LASF67:
 1851 020b 61786F6C 		.ascii	"axoloti_board_init\000"
 1851      6F74695F 
 1851      626F6172 
 1851      645F696E 
 1851      697400
 1852              	.LASF34:
 1853 021e 41465248 		.ascii	"AFRH\000"
 1853      00
 1854              	.LASF77:
 1855 0223 2F645F64 		.ascii	"/d_drive/axoloti/firmware\000"
 1855      72697665 
 1855      2F61786F 
 1855      6C6F7469 
 1855      2F666972 
 1856              	.LASF7:
 1857 023d 73686F72 		.ascii	"short unsigned int\000"
 1857      7420756E 
 1857      7369676E 
 1857      65642069 
 1857      6E7400
 1858              	.LASF19:
 1859 0250 73797374 		.ascii	"systime_t\000"
 1859      696D655F 
 1859      7400
 1860              	.LASF25:
 1861 025a 53595343 		.ascii	"SYSCFG_TypeDef\000"
 1861      46475F54 
 1861      79706544 
 1861      656600
 1862              	.LASF20:
 1863 0269 63686172 		.ascii	"char\000"
 1863      00
 1864              	.LASF75:
 1865 026e 474E5520 		.ascii	"GNU C 4.9.3 20150529 (release) [ARM/embedded-4_9-br"
 1865      4320342E 
 1865      392E3320 
 1865      32303135 
 1865      30353239 
 1866 02a1 616E6368 		.ascii	"anch revision 224288] -mcpu=cortex-m4 -mfloat-abi=h"
 1866      20726576 
ARM GAS  /tmp/ccKw3qim.s 			page 36


 1866      6973696F 
 1866      6E203232 
 1866      34323838 
 1867 02d4 61726420 		.ascii	"ard -mfpu=fpv4-sp-d16 -mno-thumb-interwork -mthumb "
 1867      2D6D6670 
 1867      753D6670 
 1867      76342D73 
 1867      702D6431 
 1868 0307 2D676764 		.ascii	"-ggdb -O2 -fomit-frame-pointer -falign-functions=16"
 1868      62202D4F 
 1868      32202D66 
 1868      6F6D6974 
 1868      2D667261 
 1869 033a 202D666E 		.ascii	" -fno-math-errno -fsingle-precision-constant\000"
 1869      6F2D6D61 
 1869      74682D65 
 1869      72726E6F 
 1869      202D6673 
 1870              	.LASF40:
 1871 0367 52554E4E 		.ascii	"RUNNING\000"
 1871      494E4700 
 1872              	.LASF15:
 1873 036f 696E7433 		.ascii	"int32_t\000"
 1873      325F7400 
 1874              	.LASF50:
 1875 0377 546F6767 		.ascii	"ToggleBlue\000"
 1875      6C65426C 
 1875      756500
 1876              	.LASF48:
 1877 0382 546F6767 		.ascii	"ToggleOrange\000"
 1877      6C654F72 
 1877      616E6765 
 1877      00
 1878              	.LASF18:
 1879 038f 5F426F6F 		.ascii	"_Bool\000"
 1879      6C00
 1880              	.LASF73:
 1881 0395 75695F69 		.ascii	"ui_init\000"
 1881      6E697400 
 1882              	.LASF29:
 1883 039d 4F535045 		.ascii	"OSPEEDR\000"
 1883      45445200 
 1884              	.LASF76:
 1885 03a5 6D61696E 		.ascii	"main.c\000"
 1885      2E6300
 1886              	.LASF11:
 1887 03ac 6C6F6E67 		.ascii	"long unsigned int\000"
 1887      20756E73 
 1887      69676E65 
 1887      6420696E 
 1887      7400
 1888              	.LASF47:
 1889 03be 546F6767 		.ascii	"ToggleGreen\000"
 1889      6C654772 
 1889      65656E00 
 1890              	.LASF10:
 1891 03ca 5F5F7569 		.ascii	"__uint32_t\000"
ARM GAS  /tmp/ccKw3qim.s 			page 37


 1891      6E743332 
 1891      5F7400
 1892              	.LASF8:
 1893 03d5 5F5F696E 		.ascii	"__int32_t\000"
 1893      7433325F 
 1893      7400
 1894              	.LASF41:
 1895 03df 53544F50 		.ascii	"STOPPED\000"
 1895      50454400 
 1896              	.LASF5:
 1897 03e7 5F5F696E 		.ascii	"__int16_t\000"
 1897      7431365F 
 1897      7400
 1898              	.LASF43:
 1899 03f1 53544152 		.ascii	"STARTFAILED\000"
 1899      54464149 
 1899      4C454400 
 1900              	.LASF13:
 1901 03fd 696E7431 		.ascii	"int16_t\000"
 1901      365F7400 
 1902              	.LASF45:
 1903 0405 646F7562 		.ascii	"double\000"
 1903      6C6500
 1904              	.LASF23:
 1905 040c 52455345 		.ascii	"RESERVED\000"
 1905      52564544 
 1905      00
 1906              	.LASF52:
 1907 0415 49544D5F 		.ascii	"ITM_RxBuffer\000"
 1907      52784275 
 1907      66666572 
 1907      00
 1908              	.LASF0:
 1909 0422 6C6F6E67 		.ascii	"long long unsigned int\000"
 1909      206C6F6E 
 1909      6720756E 
 1909      7369676E 
 1909      65642069 
 1910              	.LASF32:
 1911 0439 4C434B52 		.ascii	"LCKR\000"
 1911      00
 1912              	.LASF54:
 1913 043e 73696E65 		.ascii	"sine2t\000"
 1913      327400
 1914              	.LASF62:
 1915 0445 7379736D 		.ascii	"sysmon_init\000"
 1915      6F6E5F69 
 1915      6E697400 
 1916              		.ident	"GCC: (GNU Tools for ARM Embedded Processors) 4.9.3 20150529 (release) [ARM/embedded-4_9-br
ARM GAS  /tmp/ccKw3qim.s 			page 38


DEFINED SYMBOLS
                            *ABS*:00000000 main.c
     /tmp/ccKw3qim.s:20     .text:00000000 $t
     /tmp/ccKw3qim.s:26     .text:00000000 ToggleGreen
     /tmp/ccKw3qim.s:51     .text:0000001c $d
     /tmp/ccKw3qim.s:55     .text:00000020 $t
     /tmp/ccKw3qim.s:61     .text:00000020 ToggleOrange
     /tmp/ccKw3qim.s:85     .text:0000003c $d
     /tmp/ccKw3qim.s:89     .text:00000040 $t
     /tmp/ccKw3qim.s:95     .text:00000040 ToggleRed
     /tmp/ccKw3qim.s:119    .text:0000005c $d
     /tmp/ccKw3qim.s:123    .text:00000060 $t
     /tmp/ccKw3qim.s:129    .text:00000060 ToggleBlue
     /tmp/ccKw3qim.s:153    .text:0000007c $d
     /tmp/ccKw3qim.s:158    .text.startup:00000000 $t
     /tmp/ccKw3qim.s:164    .text.startup:00000000 main
     /tmp/ccKw3qim.s:293    .text.startup:000000a8 $d
     /tmp/ccKw3qim.s:301    .text:00000080 $t
     /tmp/ccKw3qim.s:307    .text:00000080 HAL_Delay
     /tmp/ccKw3qim.s:329    .text:00000098 $d
     /tmp/ccKw3qim.s:333    .text:0000009c $t
     /tmp/ccKw3qim.s:339    .text:000000a0 _sbrk
                     .debug_frame:00000010 $d

UNDEFINED SYMBOLS
_pal_lld_setgroupmode
memcpy
halInit
chSysInit
sdcard_init
sysmon_init
exception_init
InitPatch0
InitPConnection
chThdSleep
axoloti_board_init
adc_init
axoloti_math_init
midi_init
start_dsp_thread
codec_init
ui_init
exception_check
LoadPatchStartFlash
patchStatus
