ARM GAS  /tmp/ccBedchN.s 			page 1


   1              		.syntax unified
   2              		.cpu cortex-m4
   3              		.eabi_attribute 27, 1
   4              		.eabi_attribute 28, 1
   5              		.fpu fpv4-sp-d16
   6              		.eabi_attribute 20, 1
   7              		.eabi_attribute 21, 1
   8              		.eabi_attribute 23, 3
   9              		.eabi_attribute 24, 1
  10              		.eabi_attribute 25, 1
  11              		.eabi_attribute 26, 1
  12              		.eabi_attribute 30, 2
  13              		.eabi_attribute 34, 1
  14              		.eabi_attribute 18, 4
  15              		.thumb
  16              		.file	"main.c"
  17              		.text
  18              	.Ltext0:
  19              		.cfi_sections	.debug_frame
  20              		.align	2
  21              		.p2align 4,,15
  22              		.global	ToggleGreen
  23              		.thumb
  24              		.thumb_func
  25              		.type	ToggleGreen, %function
  26              	ToggleGreen:
  27              	.LFB180:
  28              		.file 1 "main.c"
  29              		.loc 1 61 0
  30              		.cfi_startproc
  31              		@ args = 0, pretend = 0, frame = 0
  32              		@ frame_needed = 0, uses_anonymous_args = 0
  33 0000 10B5     		push	{r4, lr}
  34              		.cfi_def_cfa_offset 8
  35              		.cfi_offset 4, -8
  36              		.cfi_offset 14, -4
  37              		.loc 1 62 0
  38 0002 064C     		ldr	r4, .L3
  39 0004 4FF48051 		mov	r1, #4096
  40 0008 2046     		mov	r0, r4
  41 000a 0122     		movs	r2, #1
  42 000c FFF7FEFF 		bl	_pal_lld_setgroupmode
  43              	.LVL0:
  44 0010 6369     		ldr	r3, [r4, #20]
  45 0012 83F48053 		eor	r3, r3, #4096
  46 0016 6361     		str	r3, [r4, #20]
  47 0018 10BD     		pop	{r4, pc}
  48              	.L4:
  49 001a 00BF     		.align	2
  50              	.L3:
  51 001c 000C0240 		.word	1073875968
  52              		.cfi_endproc
  53              	.LFE180:
  54              		.size	ToggleGreen, .-ToggleGreen
  55              		.align	2
  56              		.p2align 4,,15
  57              		.global	ToggleOrange
ARM GAS  /tmp/ccBedchN.s 			page 2


  58              		.thumb
  59              		.thumb_func
  60              		.type	ToggleOrange, %function
  61              	ToggleOrange:
  62              	.LFB181:
  63              		.loc 1 64 0
  64              		.cfi_startproc
  65              		@ args = 0, pretend = 0, frame = 0
  66              		@ frame_needed = 0, uses_anonymous_args = 0
  67 0020 10B5     		push	{r4, lr}
  68              		.cfi_def_cfa_offset 8
  69              		.cfi_offset 4, -8
  70              		.cfi_offset 14, -4
  71              		.loc 1 65 0
  72 0022 064C     		ldr	r4, .L7
  73 0024 4FF40051 		mov	r1, #8192
  74 0028 2046     		mov	r0, r4
  75 002a 0122     		movs	r2, #1
  76 002c FFF7FEFF 		bl	_pal_lld_setgroupmode
  77              	.LVL1:
  78 0030 6369     		ldr	r3, [r4, #20]
  79 0032 83F40053 		eor	r3, r3, #8192
  80 0036 6361     		str	r3, [r4, #20]
  81 0038 10BD     		pop	{r4, pc}
  82              	.L8:
  83 003a 00BF     		.align	2
  84              	.L7:
  85 003c 000C0240 		.word	1073875968
  86              		.cfi_endproc
  87              	.LFE181:
  88              		.size	ToggleOrange, .-ToggleOrange
  89              		.align	2
  90              		.p2align 4,,15
  91              		.global	ToggleRed
  92              		.thumb
  93              		.thumb_func
  94              		.type	ToggleRed, %function
  95              	ToggleRed:
  96              	.LFB182:
  97              		.loc 1 67 0
  98              		.cfi_startproc
  99              		@ args = 0, pretend = 0, frame = 0
 100              		@ frame_needed = 0, uses_anonymous_args = 0
 101 0040 10B5     		push	{r4, lr}
 102              		.cfi_def_cfa_offset 8
 103              		.cfi_offset 4, -8
 104              		.cfi_offset 14, -4
 105              		.loc 1 68 0
 106 0042 064C     		ldr	r4, .L11
 107 0044 4FF48041 		mov	r1, #16384
 108 0048 2046     		mov	r0, r4
 109 004a 0122     		movs	r2, #1
 110 004c FFF7FEFF 		bl	_pal_lld_setgroupmode
 111              	.LVL2:
 112 0050 6369     		ldr	r3, [r4, #20]
 113 0052 83F48043 		eor	r3, r3, #16384
 114 0056 6361     		str	r3, [r4, #20]
ARM GAS  /tmp/ccBedchN.s 			page 3


 115 0058 10BD     		pop	{r4, pc}
 116              	.L12:
 117 005a 00BF     		.align	2
 118              	.L11:
 119 005c 000C0240 		.word	1073875968
 120              		.cfi_endproc
 121              	.LFE182:
 122              		.size	ToggleRed, .-ToggleRed
 123              		.align	2
 124              		.p2align 4,,15
 125              		.global	ToggleBlue
 126              		.thumb
 127              		.thumb_func
 128              		.type	ToggleBlue, %function
 129              	ToggleBlue:
 130              	.LFB183:
 131              		.loc 1 70 0
 132              		.cfi_startproc
 133              		@ args = 0, pretend = 0, frame = 0
 134              		@ frame_needed = 0, uses_anonymous_args = 0
 135 0060 10B5     		push	{r4, lr}
 136              		.cfi_def_cfa_offset 8
 137              		.cfi_offset 4, -8
 138              		.cfi_offset 14, -4
 139              		.loc 1 71 0
 140 0062 064C     		ldr	r4, .L15
 141 0064 4FF40041 		mov	r1, #32768
 142 0068 2046     		mov	r0, r4
 143 006a 0122     		movs	r2, #1
 144 006c FFF7FEFF 		bl	_pal_lld_setgroupmode
 145              	.LVL3:
 146 0070 6369     		ldr	r3, [r4, #20]
 147 0072 83F40043 		eor	r3, r3, #32768
 148 0076 6361     		str	r3, [r4, #20]
 149 0078 10BD     		pop	{r4, pc}
 150              	.L16:
 151 007a 00BF     		.align	2
 152              	.L15:
 153 007c 000C0240 		.word	1073875968
 154              		.cfi_endproc
 155              	.LFE183:
 156              		.size	ToggleBlue, .-ToggleBlue
 157              		.section	.text.startup,"ax",%progbits
 158              		.align	2
 159              		.p2align 4,,15
 160              		.global	main
 161              		.thumb
 162              		.thumb_func
 163              		.type	main, %function
 164              	main:
 165              	.LFB184:
 166              		.loc 1 74 0
 167              		.cfi_startproc
 168              		@ Volatile: function does not return.
 169              		@ args = 0, pretend = 0, frame = 0
 170              		@ frame_needed = 0, uses_anonymous_args = 0
 171 0000 08B5     		push	{r3, lr}
ARM GAS  /tmp/ccBedchN.s 			page 4


 172              		.cfi_def_cfa_offset 8
 173              		.cfi_offset 3, -8
 174              		.cfi_offset 14, -4
 175              		.loc 1 78 0
 176 0002 0021     		movs	r1, #0
 177 0004 4FF40072 		mov	r2, #512
 178 0008 4FF00050 		mov	r0, #536870912
 179 000c FFF7FEFF 		bl	memcpy
 180              	.LVL4:
 181              		.loc 1 81 0
 182 0010 2D4A     		ldr	r2, .L31
 183              		.loc 1 107 0
 184 0012 2E4D     		ldr	r5, .L31+4
 185              		.loc 1 81 0
 186 0014 1368     		ldr	r3, [r2]
 187              		.loc 1 112 0
 188 0016 2E4C     		ldr	r4, .L31+8
 189              		.loc 1 81 0
 190 0018 43F00303 		orr	r3, r3, #3
 191 001c 1360     		str	r3, [r2]
 192              		.loc 1 83 0
 193 001e FFF7FEFF 		bl	halInit
 194              	.LVL5:
 195              		.loc 1 84 0
 196 0022 FFF7FEFF 		bl	chSysInit
 197              	.LVL6:
 198              		.loc 1 85 0
 199 0026 FFF7FEFF 		bl	sdcard_init
 200              	.LVL7:
 201              		.loc 1 86 0
 202 002a FFF7FEFF 		bl	sysmon_init
 203              	.LVL8:
 204              		.loc 1 100 0
 205 002e FFF7FEFF 		bl	exception_init
 206              	.LVL9:
 207              		.loc 1 102 0
 208 0032 FFF7FEFF 		bl	InitPatch0
 209              	.LVL10:
 210              		.loc 1 104 0
 211 0036 FFF7FEFF 		bl	InitPConnection
 212              	.LVL11:
 213              		.loc 1 107 0
 214 003a 0221     		movs	r1, #2
 215 003c 0122     		movs	r2, #1
 216 003e 2846     		mov	r0, r5
 217 0040 FFF7FEFF 		bl	_pal_lld_setgroupmode
 218              	.LVL12:
 219              		.loc 1 108 0
 220 0044 0223     		movs	r3, #2
 221 0046 2B83     		strh	r3, [r5, #24]	@ movhi
 222              		.loc 1 110 0
 223 0048 0A20     		movs	r0, #10
 224 004a FFF7FEFF 		bl	chThdSleep
 225              	.LVL13:
 226              		.loc 1 112 0
 227 004e 0121     		movs	r1, #1
 228 0050 2046     		mov	r0, r4
ARM GAS  /tmp/ccBedchN.s 			page 5


 229 0052 4022     		movs	r2, #64
 230 0054 FFF7FEFF 		bl	_pal_lld_setgroupmode
 231              	.LVL14:
 232              		.loc 1 114 0
 233 0058 FFF7FEFF 		bl	axoloti_board_init
 234              	.LVL15:
 235              		.loc 1 115 0
 236 005c FFF7FEFF 		bl	adc_init
 237              	.LVL16:
 238              		.loc 1 121 0
 239 0060 FFF7FEFF 		bl	axoloti_math_init
 240              	.LVL17:
 241              		.loc 1 122 0
 242 0064 FFF7FEFF 		bl	midi_init
 243              	.LVL18:
 244              		.loc 1 123 0
 245 0068 FFF7FEFF 		bl	start_dsp_thread
 246              	.LVL19:
 247              		.loc 1 124 0
 248 006c FFF7FEFF 		bl	codec_init
 249              	.LVL20:
 250              		.loc 1 125 0
 251 0070 2369     		ldr	r3, [r4, #16]
 252 0072 D907     		lsls	r1, r3, #31
 253 0074 09D5     		bpl	.L29
 254              		.loc 1 130 0
 255 0076 FFF7FEFF 		bl	ui_init
 256              	.LVL21:
 257              		.loc 1 132 0
 258 007a FFF7FEFF 		bl	exception_check
 259              	.LVL22:
 260 007e 68B1     		cbz	r0, .L30
 261              	.L23:
 262              		.loc 1 150 0 discriminator 1
 263 0080 4FF47A70 		mov	r0, #1000
 264 0084 FFF7FEFF 		bl	chThdSleep
 265              	.LVL23:
 266              		.loc 1 151 0 discriminator 1
 267 0088 FAE7     		b	.L23
 268              	.L29:
 269              		.loc 1 127 0
 270 008a 0120     		movs	r0, #1
 271 008c FFF7FEFF 		bl	chThdSleep
 272              	.LVL24:
 273              		.loc 1 130 0
 274 0090 FFF7FEFF 		bl	ui_init
 275              	.LVL25:
 276              		.loc 1 132 0
 277 0094 FFF7FEFF 		bl	exception_check
 278              	.LVL26:
 279 0098 0028     		cmp	r0, #0
 280 009a F1D1     		bne	.L23
 281              	.L30:
 282              		.loc 1 135 0
 283 009c FFF7FEFF 		bl	sdcard_attemptMountIfUnmounted
 284              	.LVL27:
 285              		.loc 1 136 0
ARM GAS  /tmp/ccBedchN.s 			page 6


 286 00a0 0C4B     		ldr	r3, .L31+12
 287 00a2 1B78     		ldrb	r3, [r3]	@ zero_extendqisi2
 288 00a4 2BB1     		cbz	r3, .L21
 289              		.loc 1 136 0 is_stmt 0 discriminator 1
 290 00a6 0A4B     		ldr	r3, .L31+8
 291 00a8 1B69     		ldr	r3, [r3, #16]
 292 00aa DA07     		lsls	r2, r3, #31
 293 00ac 01D4     		bmi	.L21
 294              		.loc 1 138 0 is_stmt 1
 295 00ae FFF7FEFF 		bl	LoadPatchStartSD
 296              	.LVL28:
 297              	.L21:
 298              		.loc 1 143 0
 299 00b2 094B     		ldr	r3, .L31+16
 300 00b4 1B78     		ldrb	r3, [r3]	@ zero_extendqisi2
 301 00b6 012B     		cmp	r3, #1
 302 00b8 E2D1     		bne	.L23
 303              		.loc 1 144 0
 304 00ba 054B     		ldr	r3, .L31+8
 305 00bc 1B69     		ldr	r3, [r3, #16]
 306 00be DB07     		lsls	r3, r3, #31
 307 00c0 DED4     		bmi	.L23
 308              		.loc 1 145 0
 309 00c2 FFF7FEFF 		bl	LoadPatchStartFlash
 310              	.LVL29:
 311 00c6 DBE7     		b	.L23
 312              	.L32:
 313              		.align	2
 314              	.L31:
 315 00c8 00380140 		.word	1073821696
 316 00cc 00080240 		.word	1073874944
 317 00d0 00000240 		.word	1073872896
 318 00d4 00000000 		.word	fs_ready
 319 00d8 00000000 		.word	patchStatus
 320              		.cfi_endproc
 321              	.LFE184:
 322              		.size	main, .-main
 323              		.text
 324              		.align	2
 325              		.p2align 4,,15
 326              		.global	HAL_Delay
 327              		.thumb
 328              		.thumb_func
 329              		.type	HAL_Delay, %function
 330              	HAL_Delay:
 331              	.LFB185:
 332              		.loc 1 154 0
 333              		.cfi_startproc
 334              		@ args = 0, pretend = 0, frame = 0
 335              		@ frame_needed = 0, uses_anonymous_args = 0
 336              		@ link register save eliminated.
 337              	.LVL30:
 338              		.loc 1 155 0
 339 0080 4FF47A73 		mov	r3, #1000
 340 0084 03FB00F0 		mul	r0, r3, r0
 341              	.LVL31:
 342 0088 034B     		ldr	r3, .L34
ARM GAS  /tmp/ccBedchN.s 			page 7


 343 008a 0138     		subs	r0, r0, #1
 344 008c A3FB0030 		umull	r3, r0, r3, r0
 345 0090 8009     		lsrs	r0, r0, #6
 346 0092 0130     		adds	r0, r0, #1
 347 0094 FFF7FEBF 		b	chThdSleep
 348              	.LVL32:
 349              	.L35:
 350              		.align	2
 351              	.L34:
 352 0098 D34D6210 		.word	274877907
 353              		.cfi_endproc
 354              	.LFE185:
 355              		.size	HAL_Delay, .-HAL_Delay
 356              		.align	2
 357 009c AFF30080 		.p2align 4,,15
 358              		.global	_sbrk
 359              		.thumb
 360              		.thumb_func
 361              		.type	_sbrk, %function
 362              	_sbrk:
 363              	.LFB186:
 364              		.loc 1 158 0
 365              		.cfi_startproc
 366              		@ Volatile: function does not return.
 367              		@ args = 0, pretend = 0, frame = 0
 368              		@ frame_needed = 0, uses_anonymous_args = 0
 369              		@ link register save eliminated.
 370              	.L37:
 371              		.loc 1 160 0 discriminator 1
 372 00a0 FEE7     		b	.L37
 373              		.cfi_endproc
 374              	.LFE186:
 375              		.size	_sbrk, .-_sbrk
 376              	.Letext0:
 377              		.file 2 "/home/sbcu/Dropbox/pcb-layouts/axo-on-discovery-board/axoloti/platform_linux/arm-none-eab
 378              		.file 3 "/home/sbcu/Dropbox/pcb-layouts/axo-on-discovery-board/axoloti/platform_linux/arm-none-eab
 379              		.file 4 "/home/sbcu/Dropbox/pcb-layouts/axo-on-discovery-board/axoloti/platform_linux/../chibios/o
 380              		.file 5 "/home/sbcu/Dropbox/pcb-layouts/axo-on-discovery-board/axoloti/platform_linux/../chibios/o
 381              		.file 6 "/home/sbcu/Dropbox/pcb-layouts/axo-on-discovery-board/axoloti/platform_linux/../chibios/o
 382              		.file 7 "patch.h"
 383              		.file 8 "/home/sbcu/Dropbox/pcb-layouts/axo-on-discovery-board/axoloti/platform_linux/../CMSIS//In
 384              		.file 9 "sdcard.h"
 385              		.file 10 "axoloti_math.h"
 386              		.file 11 "/home/sbcu/Dropbox/pcb-layouts/axo-on-discovery-board/axoloti/platform_linux/../chibios/
 387              		.file 12 "/home/sbcu/Dropbox/pcb-layouts/axo-on-discovery-board/axoloti/platform_linux/../chibios/
 388              		.file 13 "sysmon.h"
 389              		.file 14 "exceptions.h"
 390              		.file 15 "pconnection.h"
 391              		.file 16 "/home/sbcu/Dropbox/pcb-layouts/axo-on-discovery-board/axoloti/platform_linux/../chibios/
 392              		.file 17 "axoloti_board.h"
 393              		.file 18 "midi.h"
 394              		.file 19 "codec.h"
 395              		.file 20 "ui.h"
 396 00a2 00BF     		.section	.debug_info,"",%progbits
 397              	.Ldebug_info0:
 398 0000 88060000 		.4byte	0x688
 399 0004 0400     		.2byte	0x4
ARM GAS  /tmp/ccBedchN.s 			page 8


 400 0006 00000000 		.4byte	.Ldebug_abbrev0
 401 000a 04       		.byte	0x4
 402 000b 01       		.uleb128 0x1
 403 000c 93020000 		.4byte	.LASF79
 404 0010 01       		.byte	0x1
 405 0011 D1030000 		.4byte	.LASF80
 406 0015 29040000 		.4byte	.LASF81
 407 0019 00000000 		.4byte	.Ldebug_ranges0+0
 408 001d 00000000 		.4byte	0
 409 0021 00000000 		.4byte	.Ldebug_line0
 410 0025 02       		.uleb128 0x2
 411 0026 08       		.byte	0x8
 412 0027 07       		.byte	0x7
 413 0028 54000000 		.4byte	.LASF0
 414 002c 02       		.uleb128 0x2
 415 002d 04       		.byte	0x4
 416 002e 07       		.byte	0x7
 417 002f 1B020000 		.4byte	.LASF1
 418 0033 02       		.uleb128 0x2
 419 0034 01       		.byte	0x1
 420 0035 06       		.byte	0x6
 421 0036 E4010000 		.4byte	.LASF2
 422 003a 02       		.uleb128 0x2
 423 003b 01       		.byte	0x1
 424 003c 08       		.byte	0x8
 425 003d B5010000 		.4byte	.LASF3
 426 0041 03       		.uleb128 0x3
 427 0042 13040000 		.4byte	.LASF5
 428 0046 02       		.byte	0x2
 429 0047 29       		.byte	0x29
 430 0048 4C000000 		.4byte	0x4c
 431 004c 02       		.uleb128 0x2
 432 004d 02       		.byte	0x2
 433 004e 05       		.byte	0x5
 434 004f 2F000000 		.4byte	.LASF4
 435 0053 03       		.uleb128 0x3
 436 0054 90000000 		.4byte	.LASF6
 437 0058 02       		.byte	0x2
 438 0059 2B       		.byte	0x2b
 439 005a 5E000000 		.4byte	0x5e
 440 005e 02       		.uleb128 0x2
 441 005f 02       		.byte	0x2
 442 0060 07       		.byte	0x7
 443 0061 62020000 		.4byte	.LASF7
 444 0065 03       		.uleb128 0x3
 445 0066 01040000 		.4byte	.LASF8
 446 006a 02       		.byte	0x2
 447 006b 3F       		.byte	0x3f
 448 006c 70000000 		.4byte	0x70
 449 0070 02       		.uleb128 0x2
 450 0071 04       		.byte	0x4
 451 0072 05       		.byte	0x5
 452 0073 47010000 		.4byte	.LASF9
 453 0077 03       		.uleb128 0x3
 454 0078 F6030000 		.4byte	.LASF10
 455 007c 02       		.byte	0x2
 456 007d 41       		.byte	0x41
ARM GAS  /tmp/ccBedchN.s 			page 9


 457 007e 82000000 		.4byte	0x82
 458 0082 02       		.uleb128 0x2
 459 0083 04       		.byte	0x4
 460 0084 07       		.byte	0x7
 461 0085 D8030000 		.4byte	.LASF11
 462 0089 02       		.uleb128 0x2
 463 008a 08       		.byte	0x8
 464 008b 05       		.byte	0x5
 465 008c 7B000000 		.4byte	.LASF12
 466 0090 04       		.uleb128 0x4
 467 0091 04       		.byte	0x4
 468 0092 05       		.byte	0x5
 469 0093 696E7400 		.ascii	"int\000"
 470 0097 03       		.uleb128 0x3
 471 0098 81040000 		.4byte	.LASF13
 472 009c 03       		.byte	0x3
 473 009d 19       		.byte	0x19
 474 009e 41000000 		.4byte	0x41
 475 00a2 03       		.uleb128 0x3
 476 00a3 33020000 		.4byte	.LASF14
 477 00a7 03       		.byte	0x3
 478 00a8 1A       		.byte	0x1a
 479 00a9 53000000 		.4byte	0x53
 480 00ad 03       		.uleb128 0x3
 481 00ae 94030000 		.4byte	.LASF15
 482 00b2 03       		.byte	0x3
 483 00b3 1F       		.byte	0x1f
 484 00b4 65000000 		.4byte	0x65
 485 00b8 03       		.uleb128 0x3
 486 00b9 12020000 		.4byte	.LASF16
 487 00bd 03       		.byte	0x3
 488 00be 20       		.byte	0x20
 489 00bf 77000000 		.4byte	0x77
 490 00c3 02       		.uleb128 0x2
 491 00c4 04       		.byte	0x4
 492 00c5 07       		.byte	0x7
 493 00c6 39000000 		.4byte	.LASF17
 494 00ca 03       		.uleb128 0x3
 495 00cb 9C030000 		.4byte	.LASF18
 496 00cf 04       		.byte	0x4
 497 00d0 2B       		.byte	0x2b
 498 00d1 D5000000 		.4byte	0xd5
 499 00d5 02       		.uleb128 0x2
 500 00d6 01       		.byte	0x1
 501 00d7 02       		.byte	0x2
 502 00d8 BB030000 		.4byte	.LASF19
 503 00dc 03       		.uleb128 0x3
 504 00dd 75020000 		.4byte	.LASF20
 505 00e1 04       		.byte	0x4
 506 00e2 35       		.byte	0x35
 507 00e3 B8000000 		.4byte	0xb8
 508 00e7 05       		.uleb128 0x5
 509 00e8 04       		.byte	0x4
 510 00e9 06       		.uleb128 0x6
 511 00ea B8000000 		.4byte	0xb8
 512 00ee 02       		.uleb128 0x2
 513 00ef 01       		.byte	0x1
ARM GAS  /tmp/ccBedchN.s 			page 10


 514 00f0 08       		.byte	0x8
 515 00f1 8E020000 		.4byte	.LASF21
 516 00f5 07       		.uleb128 0x7
 517 00f6 B8000000 		.4byte	0xb8
 518 00fa 05010000 		.4byte	0x105
 519 00fe 08       		.uleb128 0x8
 520 00ff C3000000 		.4byte	0xc3
 521 0103 01       		.byte	0x1
 522 0104 00       		.byte	0
 523 0105 07       		.uleb128 0x7
 524 0106 B8000000 		.4byte	0xb8
 525 010a 15010000 		.4byte	0x115
 526 010e 08       		.uleb128 0x8
 527 010f C3000000 		.4byte	0xc3
 528 0113 03       		.byte	0x3
 529 0114 00       		.byte	0
 530 0115 06       		.uleb128 0x6
 531 0116 AD000000 		.4byte	0xad
 532 011a 09       		.uleb128 0x9
 533 011b 24       		.byte	0x24
 534 011c 05       		.byte	0x5
 535 011d E903     		.2byte	0x3e9
 536 011f 65010000 		.4byte	0x165
 537 0123 0A       		.uleb128 0xa
 538 0124 FD000000 		.4byte	.LASF22
 539 0128 05       		.byte	0x5
 540 0129 EB03     		.2byte	0x3eb
 541 012b E9000000 		.4byte	0xe9
 542 012f 00       		.byte	0
 543 0130 0B       		.uleb128 0xb
 544 0131 504D4300 		.ascii	"PMC\000"
 545 0135 05       		.byte	0x5
 546 0136 EC03     		.2byte	0x3ec
 547 0138 E9000000 		.4byte	0xe9
 548 013c 04       		.byte	0x4
 549 013d 0A       		.uleb128 0xa
 550 013e B3000000 		.4byte	.LASF23
 551 0142 05       		.byte	0x5
 552 0143 ED03     		.2byte	0x3ed
 553 0145 65010000 		.4byte	0x165
 554 0149 08       		.byte	0x8
 555 014a 0A       		.uleb128 0xa
 556 014b 90040000 		.4byte	.LASF24
 557 014f 05       		.byte	0x5
 558 0150 EE03     		.2byte	0x3ee
 559 0152 F5000000 		.4byte	0xf5
 560 0156 18       		.byte	0x18
 561 0157 0A       		.uleb128 0xa
 562 0158 98010000 		.4byte	.LASF25
 563 015c 05       		.byte	0x5
 564 015d EF03     		.2byte	0x3ef
 565 015f E9000000 		.4byte	0xe9
 566 0163 20       		.byte	0x20
 567 0164 00       		.byte	0
 568 0165 06       		.uleb128 0x6
 569 0166 05010000 		.4byte	0x105
 570 016a 0C       		.uleb128 0xc
ARM GAS  /tmp/ccBedchN.s 			page 11


 571 016b 7F020000 		.4byte	.LASF26
 572 016f 05       		.byte	0x5
 573 0170 F003     		.2byte	0x3f0
 574 0172 1A010000 		.4byte	0x11a
 575 0176 0D       		.uleb128 0xd
 576 0177 04       		.byte	0x4
 577 0178 06       		.byte	0x6
 578 0179 96       		.byte	0x96
 579 017a 97010000 		.4byte	0x197
 580 017e 0E       		.uleb128 0xe
 581 017f 73657400 		.ascii	"set\000"
 582 0183 06       		.byte	0x6
 583 0184 97       		.byte	0x97
 584 0185 A2000000 		.4byte	0xa2
 585 0189 00       		.byte	0
 586 018a 0F       		.uleb128 0xf
 587 018b 6E010000 		.4byte	.LASF27
 588 018f 06       		.byte	0x6
 589 0190 98       		.byte	0x98
 590 0191 A2000000 		.4byte	0xa2
 591 0195 02       		.byte	0x2
 592 0196 00       		.byte	0
 593 0197 10       		.uleb128 0x10
 594 0198 04       		.byte	0x4
 595 0199 06       		.byte	0x6
 596 019a 94       		.byte	0x94
 597 019b B2010000 		.4byte	0x1b2
 598 019f 11       		.uleb128 0x11
 599 01a0 5700     		.ascii	"W\000"
 600 01a2 06       		.byte	0x6
 601 01a3 95       		.byte	0x95
 602 01a4 B8000000 		.4byte	0xb8
 603 01a8 11       		.uleb128 0x11
 604 01a9 4800     		.ascii	"H\000"
 605 01ab 06       		.byte	0x6
 606 01ac 99       		.byte	0x99
 607 01ad 76010000 		.4byte	0x176
 608 01b1 00       		.byte	0
 609 01b2 0D       		.uleb128 0xd
 610 01b3 28       		.byte	0x28
 611 01b4 06       		.byte	0x6
 612 01b5 8C       		.byte	0x8c
 613 01b6 33020000 		.4byte	0x233
 614 01ba 0F       		.uleb128 0xf
 615 01bb 68010000 		.4byte	.LASF28
 616 01bf 06       		.byte	0x6
 617 01c0 8E       		.byte	0x8e
 618 01c1 E9000000 		.4byte	0xe9
 619 01c5 00       		.byte	0
 620 01c6 0F       		.uleb128 0xf
 621 01c7 F0000000 		.4byte	.LASF29
 622 01cb 06       		.byte	0x6
 623 01cc 8F       		.byte	0x8f
 624 01cd E9000000 		.4byte	0xe9
 625 01d1 04       		.byte	0x4
 626 01d2 0F       		.uleb128 0xf
 627 01d3 C9030000 		.4byte	.LASF30
ARM GAS  /tmp/ccBedchN.s 			page 12


 628 01d7 06       		.byte	0x6
 629 01d8 90       		.byte	0x90
 630 01d9 E9000000 		.4byte	0xe9
 631 01dd 08       		.byte	0x8
 632 01de 0F       		.uleb128 0xf
 633 01df 2B010000 		.4byte	.LASF31
 634 01e3 06       		.byte	0x6
 635 01e4 91       		.byte	0x91
 636 01e5 E9000000 		.4byte	0xe9
 637 01e9 0C       		.byte	0xc
 638 01ea 0E       		.uleb128 0xe
 639 01eb 49445200 		.ascii	"IDR\000"
 640 01ef 06       		.byte	0x6
 641 01f0 92       		.byte	0x92
 642 01f1 E9000000 		.4byte	0xe9
 643 01f5 10       		.byte	0x10
 644 01f6 0E       		.uleb128 0xe
 645 01f7 4F445200 		.ascii	"ODR\000"
 646 01fb 06       		.byte	0x6
 647 01fc 93       		.byte	0x93
 648 01fd E9000000 		.4byte	0xe9
 649 0201 14       		.byte	0x14
 650 0202 0F       		.uleb128 0xf
 651 0203 63010000 		.4byte	.LASF32
 652 0207 06       		.byte	0x6
 653 0208 9A       		.byte	0x9a
 654 0209 33020000 		.4byte	0x233
 655 020d 18       		.byte	0x18
 656 020e 0F       		.uleb128 0xf
 657 020f A6040000 		.4byte	.LASF33
 658 0213 06       		.byte	0x6
 659 0214 9B       		.byte	0x9b
 660 0215 E9000000 		.4byte	0xe9
 661 0219 1C       		.byte	0x1c
 662 021a 0F       		.uleb128 0xf
 663 021b 5D020000 		.4byte	.LASF34
 664 021f 06       		.byte	0x6
 665 0220 9C       		.byte	0x9c
 666 0221 E9000000 		.4byte	0xe9
 667 0225 20       		.byte	0x20
 668 0226 0F       		.uleb128 0xf
 669 0227 58020000 		.4byte	.LASF35
 670 022b 06       		.byte	0x6
 671 022c 9D       		.byte	0x9d
 672 022d E9000000 		.4byte	0xe9
 673 0231 24       		.byte	0x24
 674 0232 00       		.byte	0
 675 0233 06       		.uleb128 0x6
 676 0234 97010000 		.4byte	0x197
 677 0238 03       		.uleb128 0x3
 678 0239 00000000 		.4byte	.LASF36
 679 023d 06       		.byte	0x6
 680 023e 9E       		.byte	0x9e
 681 023f B2010000 		.4byte	0x1b2
 682 0243 03       		.uleb128 0x3
 683 0244 C4000000 		.4byte	.LASF37
 684 0248 06       		.byte	0x6
ARM GAS  /tmp/ccBedchN.s 			page 13


 685 0249 F0       		.byte	0xf0
 686 024a B8000000 		.4byte	0xb8
 687 024e 03       		.uleb128 0x3
 688 024f A2000000 		.4byte	.LASF38
 689 0253 06       		.byte	0x6
 690 0254 F5       		.byte	0xf5
 691 0255 B8000000 		.4byte	0xb8
 692 0259 03       		.uleb128 0x3
 693 025a 9E010000 		.4byte	.LASF39
 694 025e 06       		.byte	0x6
 695 025f FD       		.byte	0xfd
 696 0260 64020000 		.4byte	0x264
 697 0264 12       		.uleb128 0x12
 698 0265 04       		.byte	0x4
 699 0266 38020000 		.4byte	0x238
 700 026a 02       		.uleb128 0x2
 701 026b 04       		.byte	0x4
 702 026c 04       		.byte	0x4
 703 026d F7000000 		.4byte	.LASF40
 704 0271 13       		.uleb128 0x13
 705 0272 01       		.byte	0x1
 706 0273 07       		.byte	0x7
 707 0274 48       		.byte	0x48
 708 0275 92020000 		.4byte	0x292
 709 0279 14       		.uleb128 0x14
 710 027a 8C030000 		.4byte	.LASF41
 711 027e 00       		.sleb128 0
 712 027f 14       		.uleb128 0x14
 713 0280 0B040000 		.4byte	.LASF42
 714 0284 01       		.sleb128 1
 715 0285 14       		.uleb128 0x14
 716 0286 09020000 		.4byte	.LASF43
 717 028a 02       		.sleb128 2
 718 028b 14       		.uleb128 0x14
 719 028c 1D040000 		.4byte	.LASF44
 720 0290 03       		.sleb128 3
 721 0291 00       		.byte	0
 722 0292 03       		.uleb128 0x3
 723 0293 80010000 		.4byte	.LASF45
 724 0297 07       		.byte	0x7
 725 0298 4E       		.byte	0x4e
 726 0299 71020000 		.4byte	0x271
 727 029d 02       		.uleb128 0x2
 728 029e 08       		.byte	0x8
 729 029f 04       		.byte	0x4
 730 02a0 89040000 		.4byte	.LASF46
 731 02a4 02       		.uleb128 0x2
 732 02a5 08       		.byte	0x8
 733 02a6 04       		.byte	0x4
 734 02a7 A9010000 		.4byte	.LASF47
 735 02ab 15       		.uleb128 0x15
 736 02ac EA030000 		.4byte	.LASF48
 737 02b0 01       		.byte	0x1
 738 02b1 3D       		.byte	0x3d
 739 02b2 00000000 		.4byte	.LFB180
 740 02b6 20000000 		.4byte	.LFE180-.LFB180
 741 02ba 01       		.uleb128 0x1
ARM GAS  /tmp/ccBedchN.s 			page 14


 742 02bb 9C       		.byte	0x9c
 743 02bc DD020000 		.4byte	0x2dd
 744 02c0 16       		.uleb128 0x16
 745 02c1 10000000 		.4byte	.LVL0
 746 02c5 B7050000 		.4byte	0x5b7
 747 02c9 17       		.uleb128 0x17
 748 02ca 01       		.uleb128 0x1
 749 02cb 52       		.byte	0x52
 750 02cc 01       		.uleb128 0x1
 751 02cd 31       		.byte	0x31
 752 02ce 17       		.uleb128 0x17
 753 02cf 01       		.uleb128 0x1
 754 02d0 51       		.byte	0x51
 755 02d1 03       		.uleb128 0x3
 756 02d2 0A       		.byte	0xa
 757 02d3 0010     		.2byte	0x1000
 758 02d5 17       		.uleb128 0x17
 759 02d6 01       		.uleb128 0x1
 760 02d7 50       		.byte	0x50
 761 02d8 02       		.uleb128 0x2
 762 02d9 74       		.byte	0x74
 763 02da 00       		.sleb128 0
 764 02db 00       		.byte	0
 765 02dc 00       		.byte	0
 766 02dd 15       		.uleb128 0x15
 767 02de AE030000 		.4byte	.LASF49
 768 02e2 01       		.byte	0x1
 769 02e3 40       		.byte	0x40
 770 02e4 20000000 		.4byte	.LFB181
 771 02e8 20000000 		.4byte	.LFE181-.LFB181
 772 02ec 01       		.uleb128 0x1
 773 02ed 9C       		.byte	0x9c
 774 02ee 0F030000 		.4byte	0x30f
 775 02f2 16       		.uleb128 0x16
 776 02f3 30000000 		.4byte	.LVL1
 777 02f7 B7050000 		.4byte	0x5b7
 778 02fb 17       		.uleb128 0x17
 779 02fc 01       		.uleb128 0x1
 780 02fd 52       		.byte	0x52
 781 02fe 01       		.uleb128 0x1
 782 02ff 31       		.byte	0x31
 783 0300 17       		.uleb128 0x17
 784 0301 01       		.uleb128 0x1
 785 0302 51       		.byte	0x51
 786 0303 03       		.uleb128 0x3
 787 0304 0A       		.byte	0xa
 788 0305 0020     		.2byte	0x2000
 789 0307 17       		.uleb128 0x17
 790 0308 01       		.uleb128 0x1
 791 0309 50       		.byte	0x50
 792 030a 02       		.uleb128 0x2
 793 030b 74       		.byte	0x74
 794 030c 00       		.sleb128 0
 795 030d 00       		.byte	0
 796 030e 00       		.byte	0
 797 030f 15       		.uleb128 0x15
 798 0310 59010000 		.4byte	.LASF50
ARM GAS  /tmp/ccBedchN.s 			page 15


 799 0314 01       		.byte	0x1
 800 0315 43       		.byte	0x43
 801 0316 40000000 		.4byte	.LFB182
 802 031a 20000000 		.4byte	.LFE182-.LFB182
 803 031e 01       		.uleb128 0x1
 804 031f 9C       		.byte	0x9c
 805 0320 41030000 		.4byte	0x341
 806 0324 16       		.uleb128 0x16
 807 0325 50000000 		.4byte	.LVL2
 808 0329 B7050000 		.4byte	0x5b7
 809 032d 17       		.uleb128 0x17
 810 032e 01       		.uleb128 0x1
 811 032f 52       		.byte	0x52
 812 0330 01       		.uleb128 0x1
 813 0331 31       		.byte	0x31
 814 0332 17       		.uleb128 0x17
 815 0333 01       		.uleb128 0x1
 816 0334 51       		.byte	0x51
 817 0335 03       		.uleb128 0x3
 818 0336 0A       		.byte	0xa
 819 0337 0040     		.2byte	0x4000
 820 0339 17       		.uleb128 0x17
 821 033a 01       		.uleb128 0x1
 822 033b 50       		.byte	0x50
 823 033c 02       		.uleb128 0x2
 824 033d 74       		.byte	0x74
 825 033e 00       		.sleb128 0
 826 033f 00       		.byte	0
 827 0340 00       		.byte	0
 828 0341 15       		.uleb128 0x15
 829 0342 A3030000 		.4byte	.LASF51
 830 0346 01       		.byte	0x1
 831 0347 46       		.byte	0x46
 832 0348 60000000 		.4byte	.LFB183
 833 034c 20000000 		.4byte	.LFE183-.LFB183
 834 0350 01       		.uleb128 0x1
 835 0351 9C       		.byte	0x9c
 836 0352 73030000 		.4byte	0x373
 837 0356 16       		.uleb128 0x16
 838 0357 70000000 		.4byte	.LVL3
 839 035b B7050000 		.4byte	0x5b7
 840 035f 17       		.uleb128 0x17
 841 0360 01       		.uleb128 0x1
 842 0361 52       		.byte	0x52
 843 0362 01       		.uleb128 0x1
 844 0363 31       		.byte	0x31
 845 0364 17       		.uleb128 0x17
 846 0365 01       		.uleb128 0x1
 847 0366 51       		.byte	0x51
 848 0367 03       		.uleb128 0x3
 849 0368 0A       		.byte	0xa
 850 0369 0080     		.2byte	0x8000
 851 036b 17       		.uleb128 0x17
 852 036c 01       		.uleb128 0x1
 853 036d 50       		.byte	0x50
 854 036e 02       		.uleb128 0x2
 855 036f 74       		.byte	0x74
ARM GAS  /tmp/ccBedchN.s 			page 16


 856 0370 00       		.sleb128 0
 857 0371 00       		.byte	0
 858 0372 00       		.byte	0
 859 0373 18       		.uleb128 0x18
 860 0374 6B000000 		.4byte	.LASF82
 861 0378 01       		.byte	0x1
 862 0379 4A       		.byte	0x4a
 863 037a 90000000 		.4byte	0x90
 864 037e 00000000 		.4byte	.LFB184
 865 0382 DC000000 		.4byte	.LFE184-.LFB184
 866 0386 01       		.uleb128 0x1
 867 0387 9C       		.byte	0x9c
 868 0388 DA040000 		.4byte	0x4da
 869 038c 19       		.uleb128 0x19
 870 038d 10000000 		.4byte	.LVL4
 871 0391 D3050000 		.4byte	0x5d3
 872 0395 AD030000 		.4byte	0x3ad
 873 0399 17       		.uleb128 0x17
 874 039a 01       		.uleb128 0x1
 875 039b 52       		.byte	0x52
 876 039c 03       		.uleb128 0x3
 877 039d 0A       		.byte	0xa
 878 039e 0002     		.2byte	0x200
 879 03a0 17       		.uleb128 0x17
 880 03a1 01       		.uleb128 0x1
 881 03a2 51       		.byte	0x51
 882 03a3 01       		.uleb128 0x1
 883 03a4 30       		.byte	0x30
 884 03a5 17       		.uleb128 0x17
 885 03a6 01       		.uleb128 0x1
 886 03a7 50       		.byte	0x50
 887 03a8 03       		.uleb128 0x3
 888 03a9 40       		.byte	0x40
 889 03aa 49       		.byte	0x49
 890 03ab 24       		.byte	0x24
 891 03ac 00       		.byte	0
 892 03ad 1A       		.uleb128 0x1a
 893 03ae 22000000 		.4byte	.LVL5
 894 03b2 F7050000 		.4byte	0x5f7
 895 03b6 1A       		.uleb128 0x1a
 896 03b7 26000000 		.4byte	.LVL6
 897 03bb FE050000 		.4byte	0x5fe
 898 03bf 1A       		.uleb128 0x1a
 899 03c0 2A000000 		.4byte	.LVL7
 900 03c4 05060000 		.4byte	0x605
 901 03c8 1A       		.uleb128 0x1a
 902 03c9 2E000000 		.4byte	.LVL8
 903 03cd 0C060000 		.4byte	0x60c
 904 03d1 1A       		.uleb128 0x1a
 905 03d2 32000000 		.4byte	.LVL9
 906 03d6 13060000 		.4byte	0x613
 907 03da 1A       		.uleb128 0x1a
 908 03db 36000000 		.4byte	.LVL10
 909 03df 1A060000 		.4byte	0x61a
 910 03e3 1A       		.uleb128 0x1a
 911 03e4 3A000000 		.4byte	.LVL11
 912 03e8 21060000 		.4byte	0x621
ARM GAS  /tmp/ccBedchN.s 			page 17


 913 03ec 19       		.uleb128 0x19
 914 03ed 44000000 		.4byte	.LVL12
 915 03f1 B7050000 		.4byte	0x5b7
 916 03f5 0A040000 		.4byte	0x40a
 917 03f9 17       		.uleb128 0x17
 918 03fa 01       		.uleb128 0x1
 919 03fb 52       		.byte	0x52
 920 03fc 01       		.uleb128 0x1
 921 03fd 31       		.byte	0x31
 922 03fe 17       		.uleb128 0x17
 923 03ff 01       		.uleb128 0x1
 924 0400 51       		.byte	0x51
 925 0401 01       		.uleb128 0x1
 926 0402 32       		.byte	0x32
 927 0403 17       		.uleb128 0x17
 928 0404 01       		.uleb128 0x1
 929 0405 50       		.byte	0x50
 930 0406 02       		.uleb128 0x2
 931 0407 75       		.byte	0x75
 932 0408 00       		.sleb128 0
 933 0409 00       		.byte	0
 934 040a 19       		.uleb128 0x19
 935 040b 4E000000 		.4byte	.LVL13
 936 040f 28060000 		.4byte	0x628
 937 0413 1D040000 		.4byte	0x41d
 938 0417 17       		.uleb128 0x17
 939 0418 01       		.uleb128 0x1
 940 0419 50       		.byte	0x50
 941 041a 01       		.uleb128 0x1
 942 041b 3A       		.byte	0x3a
 943 041c 00       		.byte	0
 944 041d 19       		.uleb128 0x19
 945 041e 58000000 		.4byte	.LVL14
 946 0422 B7050000 		.4byte	0x5b7
 947 0426 3C040000 		.4byte	0x43c
 948 042a 17       		.uleb128 0x17
 949 042b 01       		.uleb128 0x1
 950 042c 52       		.byte	0x52
 951 042d 02       		.uleb128 0x2
 952 042e 08       		.byte	0x8
 953 042f 40       		.byte	0x40
 954 0430 17       		.uleb128 0x17
 955 0431 01       		.uleb128 0x1
 956 0432 51       		.byte	0x51
 957 0433 01       		.uleb128 0x1
 958 0434 31       		.byte	0x31
 959 0435 17       		.uleb128 0x17
 960 0436 01       		.uleb128 0x1
 961 0437 50       		.byte	0x50
 962 0438 02       		.uleb128 0x2
 963 0439 74       		.byte	0x74
 964 043a 00       		.sleb128 0
 965 043b 00       		.byte	0
 966 043c 1A       		.uleb128 0x1a
 967 043d 5C000000 		.4byte	.LVL15
 968 0441 3A060000 		.4byte	0x63a
 969 0445 1A       		.uleb128 0x1a
ARM GAS  /tmp/ccBedchN.s 			page 18


 970 0446 60000000 		.4byte	.LVL16
 971 044a 41060000 		.4byte	0x641
 972 044e 1A       		.uleb128 0x1a
 973 044f 64000000 		.4byte	.LVL17
 974 0453 48060000 		.4byte	0x648
 975 0457 1A       		.uleb128 0x1a
 976 0458 68000000 		.4byte	.LVL18
 977 045c 4F060000 		.4byte	0x64f
 978 0460 1A       		.uleb128 0x1a
 979 0461 6C000000 		.4byte	.LVL19
 980 0465 56060000 		.4byte	0x656
 981 0469 1A       		.uleb128 0x1a
 982 046a 70000000 		.4byte	.LVL20
 983 046e 5D060000 		.4byte	0x65d
 984 0472 1A       		.uleb128 0x1a
 985 0473 7A000000 		.4byte	.LVL21
 986 0477 64060000 		.4byte	0x664
 987 047b 1A       		.uleb128 0x1a
 988 047c 7E000000 		.4byte	.LVL22
 989 0480 6B060000 		.4byte	0x66b
 990 0484 19       		.uleb128 0x19
 991 0485 88000000 		.4byte	.LVL23
 992 0489 28060000 		.4byte	0x628
 993 048d 99040000 		.4byte	0x499
 994 0491 17       		.uleb128 0x17
 995 0492 01       		.uleb128 0x1
 996 0493 50       		.byte	0x50
 997 0494 03       		.uleb128 0x3
 998 0495 0A       		.byte	0xa
 999 0496 E803     		.2byte	0x3e8
 1000 0498 00       		.byte	0
 1001 0499 19       		.uleb128 0x19
 1002 049a 90000000 		.4byte	.LVL24
 1003 049e 28060000 		.4byte	0x628
 1004 04a2 AC040000 		.4byte	0x4ac
 1005 04a6 17       		.uleb128 0x17
 1006 04a7 01       		.uleb128 0x1
 1007 04a8 50       		.byte	0x50
 1008 04a9 01       		.uleb128 0x1
 1009 04aa 31       		.byte	0x31
 1010 04ab 00       		.byte	0
 1011 04ac 1A       		.uleb128 0x1a
 1012 04ad 94000000 		.4byte	.LVL25
 1013 04b1 64060000 		.4byte	0x664
 1014 04b5 1A       		.uleb128 0x1a
 1015 04b6 98000000 		.4byte	.LVL26
 1016 04ba 6B060000 		.4byte	0x66b
 1017 04be 1A       		.uleb128 0x1a
 1018 04bf A0000000 		.4byte	.LVL27
 1019 04c3 76060000 		.4byte	0x676
 1020 04c7 1A       		.uleb128 0x1a
 1021 04c8 B2000000 		.4byte	.LVL28
 1022 04cc 7D060000 		.4byte	0x67d
 1023 04d0 1A       		.uleb128 0x1a
 1024 04d1 C6000000 		.4byte	.LVL29
 1025 04d5 84060000 		.4byte	0x684
 1026 04d9 00       		.byte	0
ARM GAS  /tmp/ccBedchN.s 			page 19


 1027 04da 15       		.uleb128 0x15
 1028 04db FF010000 		.4byte	.LASF52
 1029 04df 01       		.byte	0x1
 1030 04e0 9A       		.byte	0x9a
 1031 04e1 80000000 		.4byte	.LFB185
 1032 04e5 1C000000 		.4byte	.LFE185-.LFB185
 1033 04e9 01       		.uleb128 0x1
 1034 04ea 9C       		.byte	0x9c
 1035 04eb 2B050000 		.4byte	0x52b
 1036 04ef 1B       		.uleb128 0x1b
 1037 04f0 6E00     		.ascii	"n\000"
 1038 04f2 01       		.byte	0x1
 1039 04f3 9A       		.byte	0x9a
 1040 04f4 2C000000 		.4byte	0x2c
 1041 04f8 00000000 		.4byte	.LLST0
 1042 04fc 1C       		.uleb128 0x1c
 1043 04fd 98000000 		.4byte	.LVL32
 1044 0501 28060000 		.4byte	0x628
 1045 0505 17       		.uleb128 0x17
 1046 0506 01       		.uleb128 0x1
 1047 0507 50       		.byte	0x50
 1048 0508 20       		.uleb128 0x20
 1049 0509 F3       		.byte	0xf3
 1050 050a 01       		.uleb128 0x1
 1051 050b 50       		.byte	0x50
 1052 050c 0A       		.byte	0xa
 1053 050d E803     		.2byte	0x3e8
 1054 050f 1E       		.byte	0x1e
 1055 0510 31       		.byte	0x31
 1056 0511 1C       		.byte	0x1c
 1057 0512 F7       		.byte	0xf7
 1058 0513 2C       		.uleb128 0x2c
 1059 0514 F7       		.byte	0xf7
 1060 0515 25       		.uleb128 0x25
 1061 0516 0C       		.byte	0xc
 1062 0517 D34D6210 		.4byte	0x10624dd3
 1063 051b F7       		.byte	0xf7
 1064 051c 25       		.uleb128 0x25
 1065 051d 1E       		.byte	0x1e
 1066 051e 08       		.byte	0x8
 1067 051f 20       		.byte	0x20
 1068 0520 F7       		.byte	0xf7
 1069 0521 25       		.uleb128 0x25
 1070 0522 25       		.byte	0x25
 1071 0523 F7       		.byte	0xf7
 1072 0524 2C       		.uleb128 0x2c
 1073 0525 36       		.byte	0x36
 1074 0526 25       		.byte	0x25
 1075 0527 23       		.byte	0x23
 1076 0528 01       		.uleb128 0x1
 1077 0529 00       		.byte	0
 1078 052a 00       		.byte	0
 1079 052b 1D       		.uleb128 0x1d
 1080 052c 41010000 		.4byte	.LASF83
 1081 0530 01       		.byte	0x1
 1082 0531 9E       		.byte	0x9e
 1083 0532 A0000000 		.4byte	.LFB186
ARM GAS  /tmp/ccBedchN.s 			page 20


 1084 0536 02000000 		.4byte	.LFE186-.LFB186
 1085 053a 01       		.uleb128 0x1
 1086 053b 9C       		.byte	0x9c
 1087 053c 1E       		.uleb128 0x1e
 1088 053d 99040000 		.4byte	.LASF53
 1089 0541 08       		.byte	0x8
 1090 0542 DF07     		.2byte	0x7df
 1091 0544 15010000 		.4byte	0x115
 1092 0548 1F       		.uleb128 0x1f
 1093 0549 3C020000 		.4byte	.LASF54
 1094 054d 09       		.byte	0x9
 1095 054e 20       		.byte	0x20
 1096 054f CA000000 		.4byte	0xca
 1097 0553 1F       		.uleb128 0x1f
 1098 0554 74010000 		.4byte	.LASF55
 1099 0558 07       		.byte	0x7
 1100 0559 50       		.byte	0x50
 1101 055a 5E050000 		.4byte	0x55e
 1102 055e 06       		.uleb128 0x6
 1103 055f 92020000 		.4byte	0x292
 1104 0563 07       		.uleb128 0x7
 1105 0564 AD000000 		.4byte	0xad
 1106 0568 74050000 		.4byte	0x574
 1107 056c 20       		.uleb128 0x20
 1108 056d C3000000 		.4byte	0xc3
 1109 0571 0010     		.2byte	0x1000
 1110 0573 00       		.byte	0
 1111 0574 1F       		.uleb128 0x1f
 1112 0575 AB040000 		.4byte	.LASF56
 1113 0579 0A       		.byte	0xa
 1114 057a 26       		.byte	0x26
 1115 057b 63050000 		.4byte	0x563
 1116 057f 07       		.uleb128 0x7
 1117 0580 97000000 		.4byte	0x97
 1118 0584 90050000 		.4byte	0x590
 1119 0588 20       		.uleb128 0x20
 1120 0589 C3000000 		.4byte	0xc3
 1121 058d 0004     		.2byte	0x400
 1122 058f 00       		.byte	0
 1123 0590 1F       		.uleb128 0x1f
 1124 0591 AB000000 		.4byte	.LASF57
 1125 0595 0A       		.byte	0xa
 1126 0596 28       		.byte	0x28
 1127 0597 7F050000 		.4byte	0x57f
 1128 059b 07       		.uleb128 0x7
 1129 059c B8000000 		.4byte	0xb8
 1130 05a0 AC050000 		.4byte	0x5ac
 1131 05a4 20       		.uleb128 0x20
 1132 05a5 C3000000 		.4byte	0xc3
 1133 05a9 0001     		.2byte	0x100
 1134 05ab 00       		.byte	0
 1135 05ac 1F       		.uleb128 0x1f
 1136 05ad 9B000000 		.4byte	.LASF58
 1137 05b1 0A       		.byte	0xa
 1138 05b2 2A       		.byte	0x2a
 1139 05b3 9B050000 		.4byte	0x59b
 1140 05b7 21       		.uleb128 0x21
ARM GAS  /tmp/ccBedchN.s 			page 21


 1141 05b8 0D000000 		.4byte	.LASF59
 1142 05bc 06       		.byte	0x6
 1143 05bd C201     		.2byte	0x1c2
 1144 05bf D3050000 		.4byte	0x5d3
 1145 05c3 22       		.uleb128 0x22
 1146 05c4 59020000 		.4byte	0x259
 1147 05c8 22       		.uleb128 0x22
 1148 05c9 43020000 		.4byte	0x243
 1149 05cd 22       		.uleb128 0x22
 1150 05ce 4E020000 		.4byte	0x24e
 1151 05d2 00       		.byte	0
 1152 05d3 23       		.uleb128 0x23
 1153 05d4 89000000 		.4byte	.LASF60
 1154 05d8 E7000000 		.4byte	0xe7
 1155 05dc F0050000 		.4byte	0x5f0
 1156 05e0 22       		.uleb128 0x22
 1157 05e1 E7000000 		.4byte	0xe7
 1158 05e5 22       		.uleb128 0x22
 1159 05e6 F0050000 		.4byte	0x5f0
 1160 05ea 22       		.uleb128 0x22
 1161 05eb C3000000 		.4byte	0xc3
 1162 05ef 00       		.byte	0
 1163 05f0 12       		.uleb128 0x12
 1164 05f1 04       		.byte	0x4
 1165 05f2 F6050000 		.4byte	0x5f6
 1166 05f6 24       		.uleb128 0x24
 1167 05f7 25       		.uleb128 0x25
 1168 05f8 04010000 		.4byte	.LASF61
 1169 05fc 0B       		.byte	0xb
 1170 05fd D0       		.byte	0xd0
 1171 05fe 25       		.uleb128 0x25
 1172 05ff BA000000 		.4byte	.LASF62
 1173 0603 0C       		.byte	0xc
 1174 0604 F6       		.byte	0xf6
 1175 0605 25       		.uleb128 0x25
 1176 0606 23000000 		.4byte	.LASF63
 1177 060a 09       		.byte	0x9
 1178 060b 17       		.byte	0x17
 1179 060c 25       		.uleb128 0x25
 1180 060d B2040000 		.4byte	.LASF64
 1181 0611 0D       		.byte	0xd
 1182 0612 16       		.byte	0x16
 1183 0613 25       		.uleb128 0x25
 1184 0614 F0010000 		.4byte	.LASF65
 1185 0618 0E       		.byte	0xe
 1186 0619 16       		.byte	0x16
 1187 061a 25       		.uleb128 0x25
 1188 061b 28020000 		.4byte	.LASF66
 1189 061f 07       		.byte	0x7
 1190 0620 56       		.byte	0x56
 1191 0621 25       		.uleb128 0x25
 1192 0622 D4010000 		.4byte	.LASF67
 1193 0626 0F       		.byte	0xf
 1194 0627 18       		.byte	0x18
 1195 0628 21       		.uleb128 0x21
 1196 0629 70000000 		.4byte	.LASF68
 1197 062d 10       		.byte	0x10
ARM GAS  /tmp/ccBedchN.s 			page 22


 1198 062e 7501     		.2byte	0x175
 1199 0630 3A060000 		.4byte	0x63a
 1200 0634 22       		.uleb128 0x22
 1201 0635 DC000000 		.4byte	0xdc
 1202 0639 00       		.byte	0
 1203 063a 25       		.uleb128 0x25
 1204 063b 45020000 		.4byte	.LASF69
 1205 063f 11       		.byte	0x11
 1206 0640 1C       		.byte	0x1c
 1207 0641 25       		.uleb128 0x25
 1208 0642 50010000 		.4byte	.LASF70
 1209 0646 11       		.byte	0x11
 1210 0647 1D       		.byte	0x1d
 1211 0648 25       		.uleb128 0x25
 1212 0649 42000000 		.4byte	.LASF71
 1213 064d 0A       		.byte	0xa
 1214 064e 3B       		.byte	0x3b
 1215 064f 25       		.uleb128 0x25
 1216 0650 8E010000 		.4byte	.LASF72
 1217 0654 12       		.byte	0x12
 1218 0655 70       		.byte	0x70
 1219 0656 25       		.uleb128 0x25
 1220 0657 C3010000 		.4byte	.LASF73
 1221 065b 07       		.byte	0x7
 1222 065c 5A       		.byte	0x5a
 1223 065d 25       		.uleb128 0x25
 1224 065e D1000000 		.4byte	.LASF74
 1225 0662 13       		.byte	0x13
 1226 0663 1E       		.byte	0x1e
 1227 0664 25       		.uleb128 0x25
 1228 0665 C1030000 		.4byte	.LASF75
 1229 0669 14       		.byte	0x14
 1230 066a 17       		.byte	0x17
 1231 066b 26       		.uleb128 0x26
 1232 066c 31010000 		.4byte	.LASF84
 1233 0670 0E       		.byte	0xe
 1234 0671 17       		.byte	0x17
 1235 0672 90000000 		.4byte	0x90
 1236 0676 25       		.uleb128 0x25
 1237 0677 0C010000 		.4byte	.LASF76
 1238 067b 09       		.byte	0x9
 1239 067c 19       		.byte	0x19
 1240 067d 25       		.uleb128 0x25
 1241 067e 70040000 		.4byte	.LASF77
 1242 0682 07       		.byte	0x7
 1243 0683 64       		.byte	0x64
 1244 0684 25       		.uleb128 0x25
 1245 0685 DC000000 		.4byte	.LASF78
 1246 0689 07       		.byte	0x7
 1247 068a 65       		.byte	0x65
 1248 068b 00       		.byte	0
 1249              		.section	.debug_abbrev,"",%progbits
 1250              	.Ldebug_abbrev0:
 1251 0000 01       		.uleb128 0x1
 1252 0001 11       		.uleb128 0x11
 1253 0002 01       		.byte	0x1
 1254 0003 25       		.uleb128 0x25
ARM GAS  /tmp/ccBedchN.s 			page 23


 1255 0004 0E       		.uleb128 0xe
 1256 0005 13       		.uleb128 0x13
 1257 0006 0B       		.uleb128 0xb
 1258 0007 03       		.uleb128 0x3
 1259 0008 0E       		.uleb128 0xe
 1260 0009 1B       		.uleb128 0x1b
 1261 000a 0E       		.uleb128 0xe
 1262 000b 55       		.uleb128 0x55
 1263 000c 17       		.uleb128 0x17
 1264 000d 11       		.uleb128 0x11
 1265 000e 01       		.uleb128 0x1
 1266 000f 10       		.uleb128 0x10
 1267 0010 17       		.uleb128 0x17
 1268 0011 00       		.byte	0
 1269 0012 00       		.byte	0
 1270 0013 02       		.uleb128 0x2
 1271 0014 24       		.uleb128 0x24
 1272 0015 00       		.byte	0
 1273 0016 0B       		.uleb128 0xb
 1274 0017 0B       		.uleb128 0xb
 1275 0018 3E       		.uleb128 0x3e
 1276 0019 0B       		.uleb128 0xb
 1277 001a 03       		.uleb128 0x3
 1278 001b 0E       		.uleb128 0xe
 1279 001c 00       		.byte	0
 1280 001d 00       		.byte	0
 1281 001e 03       		.uleb128 0x3
 1282 001f 16       		.uleb128 0x16
 1283 0020 00       		.byte	0
 1284 0021 03       		.uleb128 0x3
 1285 0022 0E       		.uleb128 0xe
 1286 0023 3A       		.uleb128 0x3a
 1287 0024 0B       		.uleb128 0xb
 1288 0025 3B       		.uleb128 0x3b
 1289 0026 0B       		.uleb128 0xb
 1290 0027 49       		.uleb128 0x49
 1291 0028 13       		.uleb128 0x13
 1292 0029 00       		.byte	0
 1293 002a 00       		.byte	0
 1294 002b 04       		.uleb128 0x4
 1295 002c 24       		.uleb128 0x24
 1296 002d 00       		.byte	0
 1297 002e 0B       		.uleb128 0xb
 1298 002f 0B       		.uleb128 0xb
 1299 0030 3E       		.uleb128 0x3e
 1300 0031 0B       		.uleb128 0xb
 1301 0032 03       		.uleb128 0x3
 1302 0033 08       		.uleb128 0x8
 1303 0034 00       		.byte	0
 1304 0035 00       		.byte	0
 1305 0036 05       		.uleb128 0x5
 1306 0037 0F       		.uleb128 0xf
 1307 0038 00       		.byte	0
 1308 0039 0B       		.uleb128 0xb
 1309 003a 0B       		.uleb128 0xb
 1310 003b 00       		.byte	0
 1311 003c 00       		.byte	0
ARM GAS  /tmp/ccBedchN.s 			page 24


 1312 003d 06       		.uleb128 0x6
 1313 003e 35       		.uleb128 0x35
 1314 003f 00       		.byte	0
 1315 0040 49       		.uleb128 0x49
 1316 0041 13       		.uleb128 0x13
 1317 0042 00       		.byte	0
 1318 0043 00       		.byte	0
 1319 0044 07       		.uleb128 0x7
 1320 0045 01       		.uleb128 0x1
 1321 0046 01       		.byte	0x1
 1322 0047 49       		.uleb128 0x49
 1323 0048 13       		.uleb128 0x13
 1324 0049 01       		.uleb128 0x1
 1325 004a 13       		.uleb128 0x13
 1326 004b 00       		.byte	0
 1327 004c 00       		.byte	0
 1328 004d 08       		.uleb128 0x8
 1329 004e 21       		.uleb128 0x21
 1330 004f 00       		.byte	0
 1331 0050 49       		.uleb128 0x49
 1332 0051 13       		.uleb128 0x13
 1333 0052 2F       		.uleb128 0x2f
 1334 0053 0B       		.uleb128 0xb
 1335 0054 00       		.byte	0
 1336 0055 00       		.byte	0
 1337 0056 09       		.uleb128 0x9
 1338 0057 13       		.uleb128 0x13
 1339 0058 01       		.byte	0x1
 1340 0059 0B       		.uleb128 0xb
 1341 005a 0B       		.uleb128 0xb
 1342 005b 3A       		.uleb128 0x3a
 1343 005c 0B       		.uleb128 0xb
 1344 005d 3B       		.uleb128 0x3b
 1345 005e 05       		.uleb128 0x5
 1346 005f 01       		.uleb128 0x1
 1347 0060 13       		.uleb128 0x13
 1348 0061 00       		.byte	0
 1349 0062 00       		.byte	0
 1350 0063 0A       		.uleb128 0xa
 1351 0064 0D       		.uleb128 0xd
 1352 0065 00       		.byte	0
 1353 0066 03       		.uleb128 0x3
 1354 0067 0E       		.uleb128 0xe
 1355 0068 3A       		.uleb128 0x3a
 1356 0069 0B       		.uleb128 0xb
 1357 006a 3B       		.uleb128 0x3b
 1358 006b 05       		.uleb128 0x5
 1359 006c 49       		.uleb128 0x49
 1360 006d 13       		.uleb128 0x13
 1361 006e 38       		.uleb128 0x38
 1362 006f 0B       		.uleb128 0xb
 1363 0070 00       		.byte	0
 1364 0071 00       		.byte	0
 1365 0072 0B       		.uleb128 0xb
 1366 0073 0D       		.uleb128 0xd
 1367 0074 00       		.byte	0
 1368 0075 03       		.uleb128 0x3
ARM GAS  /tmp/ccBedchN.s 			page 25


 1369 0076 08       		.uleb128 0x8
 1370 0077 3A       		.uleb128 0x3a
 1371 0078 0B       		.uleb128 0xb
 1372 0079 3B       		.uleb128 0x3b
 1373 007a 05       		.uleb128 0x5
 1374 007b 49       		.uleb128 0x49
 1375 007c 13       		.uleb128 0x13
 1376 007d 38       		.uleb128 0x38
 1377 007e 0B       		.uleb128 0xb
 1378 007f 00       		.byte	0
 1379 0080 00       		.byte	0
 1380 0081 0C       		.uleb128 0xc
 1381 0082 16       		.uleb128 0x16
 1382 0083 00       		.byte	0
 1383 0084 03       		.uleb128 0x3
 1384 0085 0E       		.uleb128 0xe
 1385 0086 3A       		.uleb128 0x3a
 1386 0087 0B       		.uleb128 0xb
 1387 0088 3B       		.uleb128 0x3b
 1388 0089 05       		.uleb128 0x5
 1389 008a 49       		.uleb128 0x49
 1390 008b 13       		.uleb128 0x13
 1391 008c 00       		.byte	0
 1392 008d 00       		.byte	0
 1393 008e 0D       		.uleb128 0xd
 1394 008f 13       		.uleb128 0x13
 1395 0090 01       		.byte	0x1
 1396 0091 0B       		.uleb128 0xb
 1397 0092 0B       		.uleb128 0xb
 1398 0093 3A       		.uleb128 0x3a
 1399 0094 0B       		.uleb128 0xb
 1400 0095 3B       		.uleb128 0x3b
 1401 0096 0B       		.uleb128 0xb
 1402 0097 01       		.uleb128 0x1
 1403 0098 13       		.uleb128 0x13
 1404 0099 00       		.byte	0
 1405 009a 00       		.byte	0
 1406 009b 0E       		.uleb128 0xe
 1407 009c 0D       		.uleb128 0xd
 1408 009d 00       		.byte	0
 1409 009e 03       		.uleb128 0x3
 1410 009f 08       		.uleb128 0x8
 1411 00a0 3A       		.uleb128 0x3a
 1412 00a1 0B       		.uleb128 0xb
 1413 00a2 3B       		.uleb128 0x3b
 1414 00a3 0B       		.uleb128 0xb
 1415 00a4 49       		.uleb128 0x49
 1416 00a5 13       		.uleb128 0x13
 1417 00a6 38       		.uleb128 0x38
 1418 00a7 0B       		.uleb128 0xb
 1419 00a8 00       		.byte	0
 1420 00a9 00       		.byte	0
 1421 00aa 0F       		.uleb128 0xf
 1422 00ab 0D       		.uleb128 0xd
 1423 00ac 00       		.byte	0
 1424 00ad 03       		.uleb128 0x3
 1425 00ae 0E       		.uleb128 0xe
ARM GAS  /tmp/ccBedchN.s 			page 26


 1426 00af 3A       		.uleb128 0x3a
 1427 00b0 0B       		.uleb128 0xb
 1428 00b1 3B       		.uleb128 0x3b
 1429 00b2 0B       		.uleb128 0xb
 1430 00b3 49       		.uleb128 0x49
 1431 00b4 13       		.uleb128 0x13
 1432 00b5 38       		.uleb128 0x38
 1433 00b6 0B       		.uleb128 0xb
 1434 00b7 00       		.byte	0
 1435 00b8 00       		.byte	0
 1436 00b9 10       		.uleb128 0x10
 1437 00ba 17       		.uleb128 0x17
 1438 00bb 01       		.byte	0x1
 1439 00bc 0B       		.uleb128 0xb
 1440 00bd 0B       		.uleb128 0xb
 1441 00be 3A       		.uleb128 0x3a
 1442 00bf 0B       		.uleb128 0xb
 1443 00c0 3B       		.uleb128 0x3b
 1444 00c1 0B       		.uleb128 0xb
 1445 00c2 01       		.uleb128 0x1
 1446 00c3 13       		.uleb128 0x13
 1447 00c4 00       		.byte	0
 1448 00c5 00       		.byte	0
 1449 00c6 11       		.uleb128 0x11
 1450 00c7 0D       		.uleb128 0xd
 1451 00c8 00       		.byte	0
 1452 00c9 03       		.uleb128 0x3
 1453 00ca 08       		.uleb128 0x8
 1454 00cb 3A       		.uleb128 0x3a
 1455 00cc 0B       		.uleb128 0xb
 1456 00cd 3B       		.uleb128 0x3b
 1457 00ce 0B       		.uleb128 0xb
 1458 00cf 49       		.uleb128 0x49
 1459 00d0 13       		.uleb128 0x13
 1460 00d1 00       		.byte	0
 1461 00d2 00       		.byte	0
 1462 00d3 12       		.uleb128 0x12
 1463 00d4 0F       		.uleb128 0xf
 1464 00d5 00       		.byte	0
 1465 00d6 0B       		.uleb128 0xb
 1466 00d7 0B       		.uleb128 0xb
 1467 00d8 49       		.uleb128 0x49
 1468 00d9 13       		.uleb128 0x13
 1469 00da 00       		.byte	0
 1470 00db 00       		.byte	0
 1471 00dc 13       		.uleb128 0x13
 1472 00dd 04       		.uleb128 0x4
 1473 00de 01       		.byte	0x1
 1474 00df 0B       		.uleb128 0xb
 1475 00e0 0B       		.uleb128 0xb
 1476 00e1 3A       		.uleb128 0x3a
 1477 00e2 0B       		.uleb128 0xb
 1478 00e3 3B       		.uleb128 0x3b
 1479 00e4 0B       		.uleb128 0xb
 1480 00e5 01       		.uleb128 0x1
 1481 00e6 13       		.uleb128 0x13
 1482 00e7 00       		.byte	0
ARM GAS  /tmp/ccBedchN.s 			page 27


 1483 00e8 00       		.byte	0
 1484 00e9 14       		.uleb128 0x14
 1485 00ea 28       		.uleb128 0x28
 1486 00eb 00       		.byte	0
 1487 00ec 03       		.uleb128 0x3
 1488 00ed 0E       		.uleb128 0xe
 1489 00ee 1C       		.uleb128 0x1c
 1490 00ef 0D       		.uleb128 0xd
 1491 00f0 00       		.byte	0
 1492 00f1 00       		.byte	0
 1493 00f2 15       		.uleb128 0x15
 1494 00f3 2E       		.uleb128 0x2e
 1495 00f4 01       		.byte	0x1
 1496 00f5 3F       		.uleb128 0x3f
 1497 00f6 19       		.uleb128 0x19
 1498 00f7 03       		.uleb128 0x3
 1499 00f8 0E       		.uleb128 0xe
 1500 00f9 3A       		.uleb128 0x3a
 1501 00fa 0B       		.uleb128 0xb
 1502 00fb 3B       		.uleb128 0x3b
 1503 00fc 0B       		.uleb128 0xb
 1504 00fd 27       		.uleb128 0x27
 1505 00fe 19       		.uleb128 0x19
 1506 00ff 11       		.uleb128 0x11
 1507 0100 01       		.uleb128 0x1
 1508 0101 12       		.uleb128 0x12
 1509 0102 06       		.uleb128 0x6
 1510 0103 40       		.uleb128 0x40
 1511 0104 18       		.uleb128 0x18
 1512 0105 9742     		.uleb128 0x2117
 1513 0107 19       		.uleb128 0x19
 1514 0108 01       		.uleb128 0x1
 1515 0109 13       		.uleb128 0x13
 1516 010a 00       		.byte	0
 1517 010b 00       		.byte	0
 1518 010c 16       		.uleb128 0x16
 1519 010d 898201   		.uleb128 0x4109
 1520 0110 01       		.byte	0x1
 1521 0111 11       		.uleb128 0x11
 1522 0112 01       		.uleb128 0x1
 1523 0113 31       		.uleb128 0x31
 1524 0114 13       		.uleb128 0x13
 1525 0115 00       		.byte	0
 1526 0116 00       		.byte	0
 1527 0117 17       		.uleb128 0x17
 1528 0118 8A8201   		.uleb128 0x410a
 1529 011b 00       		.byte	0
 1530 011c 02       		.uleb128 0x2
 1531 011d 18       		.uleb128 0x18
 1532 011e 9142     		.uleb128 0x2111
 1533 0120 18       		.uleb128 0x18
 1534 0121 00       		.byte	0
 1535 0122 00       		.byte	0
 1536 0123 18       		.uleb128 0x18
 1537 0124 2E       		.uleb128 0x2e
 1538 0125 01       		.byte	0x1
 1539 0126 3F       		.uleb128 0x3f
ARM GAS  /tmp/ccBedchN.s 			page 28


 1540 0127 19       		.uleb128 0x19
 1541 0128 03       		.uleb128 0x3
 1542 0129 0E       		.uleb128 0xe
 1543 012a 3A       		.uleb128 0x3a
 1544 012b 0B       		.uleb128 0xb
 1545 012c 3B       		.uleb128 0x3b
 1546 012d 0B       		.uleb128 0xb
 1547 012e 27       		.uleb128 0x27
 1548 012f 19       		.uleb128 0x19
 1549 0130 49       		.uleb128 0x49
 1550 0131 13       		.uleb128 0x13
 1551 0132 11       		.uleb128 0x11
 1552 0133 01       		.uleb128 0x1
 1553 0134 12       		.uleb128 0x12
 1554 0135 06       		.uleb128 0x6
 1555 0136 40       		.uleb128 0x40
 1556 0137 18       		.uleb128 0x18
 1557 0138 9742     		.uleb128 0x2117
 1558 013a 19       		.uleb128 0x19
 1559 013b 01       		.uleb128 0x1
 1560 013c 13       		.uleb128 0x13
 1561 013d 00       		.byte	0
 1562 013e 00       		.byte	0
 1563 013f 19       		.uleb128 0x19
 1564 0140 898201   		.uleb128 0x4109
 1565 0143 01       		.byte	0x1
 1566 0144 11       		.uleb128 0x11
 1567 0145 01       		.uleb128 0x1
 1568 0146 31       		.uleb128 0x31
 1569 0147 13       		.uleb128 0x13
 1570 0148 01       		.uleb128 0x1
 1571 0149 13       		.uleb128 0x13
 1572 014a 00       		.byte	0
 1573 014b 00       		.byte	0
 1574 014c 1A       		.uleb128 0x1a
 1575 014d 898201   		.uleb128 0x4109
 1576 0150 00       		.byte	0
 1577 0151 11       		.uleb128 0x11
 1578 0152 01       		.uleb128 0x1
 1579 0153 31       		.uleb128 0x31
 1580 0154 13       		.uleb128 0x13
 1581 0155 00       		.byte	0
 1582 0156 00       		.byte	0
 1583 0157 1B       		.uleb128 0x1b
 1584 0158 05       		.uleb128 0x5
 1585 0159 00       		.byte	0
 1586 015a 03       		.uleb128 0x3
 1587 015b 08       		.uleb128 0x8
 1588 015c 3A       		.uleb128 0x3a
 1589 015d 0B       		.uleb128 0xb
 1590 015e 3B       		.uleb128 0x3b
 1591 015f 0B       		.uleb128 0xb
 1592 0160 49       		.uleb128 0x49
 1593 0161 13       		.uleb128 0x13
 1594 0162 02       		.uleb128 0x2
 1595 0163 17       		.uleb128 0x17
 1596 0164 00       		.byte	0
ARM GAS  /tmp/ccBedchN.s 			page 29


 1597 0165 00       		.byte	0
 1598 0166 1C       		.uleb128 0x1c
 1599 0167 898201   		.uleb128 0x4109
 1600 016a 01       		.byte	0x1
 1601 016b 11       		.uleb128 0x11
 1602 016c 01       		.uleb128 0x1
 1603 016d 9542     		.uleb128 0x2115
 1604 016f 19       		.uleb128 0x19
 1605 0170 31       		.uleb128 0x31
 1606 0171 13       		.uleb128 0x13
 1607 0172 00       		.byte	0
 1608 0173 00       		.byte	0
 1609 0174 1D       		.uleb128 0x1d
 1610 0175 2E       		.uleb128 0x2e
 1611 0176 00       		.byte	0
 1612 0177 3F       		.uleb128 0x3f
 1613 0178 19       		.uleb128 0x19
 1614 0179 03       		.uleb128 0x3
 1615 017a 0E       		.uleb128 0xe
 1616 017b 3A       		.uleb128 0x3a
 1617 017c 0B       		.uleb128 0xb
 1618 017d 3B       		.uleb128 0x3b
 1619 017e 0B       		.uleb128 0xb
 1620 017f 27       		.uleb128 0x27
 1621 0180 19       		.uleb128 0x19
 1622 0181 11       		.uleb128 0x11
 1623 0182 01       		.uleb128 0x1
 1624 0183 12       		.uleb128 0x12
 1625 0184 06       		.uleb128 0x6
 1626 0185 40       		.uleb128 0x40
 1627 0186 18       		.uleb128 0x18
 1628 0187 9742     		.uleb128 0x2117
 1629 0189 19       		.uleb128 0x19
 1630 018a 00       		.byte	0
 1631 018b 00       		.byte	0
 1632 018c 1E       		.uleb128 0x1e
 1633 018d 34       		.uleb128 0x34
 1634 018e 00       		.byte	0
 1635 018f 03       		.uleb128 0x3
 1636 0190 0E       		.uleb128 0xe
 1637 0191 3A       		.uleb128 0x3a
 1638 0192 0B       		.uleb128 0xb
 1639 0193 3B       		.uleb128 0x3b
 1640 0194 05       		.uleb128 0x5
 1641 0195 49       		.uleb128 0x49
 1642 0196 13       		.uleb128 0x13
 1643 0197 3F       		.uleb128 0x3f
 1644 0198 19       		.uleb128 0x19
 1645 0199 3C       		.uleb128 0x3c
 1646 019a 19       		.uleb128 0x19
 1647 019b 00       		.byte	0
 1648 019c 00       		.byte	0
 1649 019d 1F       		.uleb128 0x1f
 1650 019e 34       		.uleb128 0x34
 1651 019f 00       		.byte	0
 1652 01a0 03       		.uleb128 0x3
 1653 01a1 0E       		.uleb128 0xe
ARM GAS  /tmp/ccBedchN.s 			page 30


 1654 01a2 3A       		.uleb128 0x3a
 1655 01a3 0B       		.uleb128 0xb
 1656 01a4 3B       		.uleb128 0x3b
 1657 01a5 0B       		.uleb128 0xb
 1658 01a6 49       		.uleb128 0x49
 1659 01a7 13       		.uleb128 0x13
 1660 01a8 3F       		.uleb128 0x3f
 1661 01a9 19       		.uleb128 0x19
 1662 01aa 3C       		.uleb128 0x3c
 1663 01ab 19       		.uleb128 0x19
 1664 01ac 00       		.byte	0
 1665 01ad 00       		.byte	0
 1666 01ae 20       		.uleb128 0x20
 1667 01af 21       		.uleb128 0x21
 1668 01b0 00       		.byte	0
 1669 01b1 49       		.uleb128 0x49
 1670 01b2 13       		.uleb128 0x13
 1671 01b3 2F       		.uleb128 0x2f
 1672 01b4 05       		.uleb128 0x5
 1673 01b5 00       		.byte	0
 1674 01b6 00       		.byte	0
 1675 01b7 21       		.uleb128 0x21
 1676 01b8 2E       		.uleb128 0x2e
 1677 01b9 01       		.byte	0x1
 1678 01ba 3F       		.uleb128 0x3f
 1679 01bb 19       		.uleb128 0x19
 1680 01bc 03       		.uleb128 0x3
 1681 01bd 0E       		.uleb128 0xe
 1682 01be 3A       		.uleb128 0x3a
 1683 01bf 0B       		.uleb128 0xb
 1684 01c0 3B       		.uleb128 0x3b
 1685 01c1 05       		.uleb128 0x5
 1686 01c2 27       		.uleb128 0x27
 1687 01c3 19       		.uleb128 0x19
 1688 01c4 3C       		.uleb128 0x3c
 1689 01c5 19       		.uleb128 0x19
 1690 01c6 01       		.uleb128 0x1
 1691 01c7 13       		.uleb128 0x13
 1692 01c8 00       		.byte	0
 1693 01c9 00       		.byte	0
 1694 01ca 22       		.uleb128 0x22
 1695 01cb 05       		.uleb128 0x5
 1696 01cc 00       		.byte	0
 1697 01cd 49       		.uleb128 0x49
 1698 01ce 13       		.uleb128 0x13
 1699 01cf 00       		.byte	0
 1700 01d0 00       		.byte	0
 1701 01d1 23       		.uleb128 0x23
 1702 01d2 2E       		.uleb128 0x2e
 1703 01d3 01       		.byte	0x1
 1704 01d4 3F       		.uleb128 0x3f
 1705 01d5 19       		.uleb128 0x19
 1706 01d6 03       		.uleb128 0x3
 1707 01d7 0E       		.uleb128 0xe
 1708 01d8 27       		.uleb128 0x27
 1709 01d9 19       		.uleb128 0x19
 1710 01da 49       		.uleb128 0x49
ARM GAS  /tmp/ccBedchN.s 			page 31


 1711 01db 13       		.uleb128 0x13
 1712 01dc 34       		.uleb128 0x34
 1713 01dd 19       		.uleb128 0x19
 1714 01de 3C       		.uleb128 0x3c
 1715 01df 19       		.uleb128 0x19
 1716 01e0 01       		.uleb128 0x1
 1717 01e1 13       		.uleb128 0x13
 1718 01e2 00       		.byte	0
 1719 01e3 00       		.byte	0
 1720 01e4 24       		.uleb128 0x24
 1721 01e5 26       		.uleb128 0x26
 1722 01e6 00       		.byte	0
 1723 01e7 00       		.byte	0
 1724 01e8 00       		.byte	0
 1725 01e9 25       		.uleb128 0x25
 1726 01ea 2E       		.uleb128 0x2e
 1727 01eb 00       		.byte	0
 1728 01ec 3F       		.uleb128 0x3f
 1729 01ed 19       		.uleb128 0x19
 1730 01ee 03       		.uleb128 0x3
 1731 01ef 0E       		.uleb128 0xe
 1732 01f0 3A       		.uleb128 0x3a
 1733 01f1 0B       		.uleb128 0xb
 1734 01f2 3B       		.uleb128 0x3b
 1735 01f3 0B       		.uleb128 0xb
 1736 01f4 27       		.uleb128 0x27
 1737 01f5 19       		.uleb128 0x19
 1738 01f6 3C       		.uleb128 0x3c
 1739 01f7 19       		.uleb128 0x19
 1740 01f8 00       		.byte	0
 1741 01f9 00       		.byte	0
 1742 01fa 26       		.uleb128 0x26
 1743 01fb 2E       		.uleb128 0x2e
 1744 01fc 00       		.byte	0
 1745 01fd 3F       		.uleb128 0x3f
 1746 01fe 19       		.uleb128 0x19
 1747 01ff 03       		.uleb128 0x3
 1748 0200 0E       		.uleb128 0xe
 1749 0201 3A       		.uleb128 0x3a
 1750 0202 0B       		.uleb128 0xb
 1751 0203 3B       		.uleb128 0x3b
 1752 0204 0B       		.uleb128 0xb
 1753 0205 27       		.uleb128 0x27
 1754 0206 19       		.uleb128 0x19
 1755 0207 49       		.uleb128 0x49
 1756 0208 13       		.uleb128 0x13
 1757 0209 3C       		.uleb128 0x3c
 1758 020a 19       		.uleb128 0x19
 1759 020b 00       		.byte	0
 1760 020c 00       		.byte	0
 1761 020d 00       		.byte	0
 1762              		.section	.debug_loc,"",%progbits
 1763              	.Ldebug_loc0:
 1764              	.LLST0:
 1765 0000 80000000 		.4byte	.LVL30
 1766 0004 88000000 		.4byte	.LVL31
 1767 0008 0100     		.2byte	0x1
ARM GAS  /tmp/ccBedchN.s 			page 32


 1768 000a 50       		.byte	0x50
 1769 000b 88000000 		.4byte	.LVL31
 1770 000f 9C000000 		.4byte	.LFE185
 1771 0013 0400     		.2byte	0x4
 1772 0015 F3       		.byte	0xf3
 1773 0016 01       		.uleb128 0x1
 1774 0017 50       		.byte	0x50
 1775 0018 9F       		.byte	0x9f
 1776 0019 00000000 		.4byte	0
 1777 001d 00000000 		.4byte	0
 1778              		.section	.debug_aranges,"",%progbits
 1779 0000 24000000 		.4byte	0x24
 1780 0004 0200     		.2byte	0x2
 1781 0006 00000000 		.4byte	.Ldebug_info0
 1782 000a 04       		.byte	0x4
 1783 000b 00       		.byte	0
 1784 000c 0000     		.2byte	0
 1785 000e 0000     		.2byte	0
 1786 0010 00000000 		.4byte	.Ltext0
 1787 0014 A2000000 		.4byte	.Letext0-.Ltext0
 1788 0018 00000000 		.4byte	.LFB184
 1789 001c DC000000 		.4byte	.LFE184-.LFB184
 1790 0020 00000000 		.4byte	0
 1791 0024 00000000 		.4byte	0
 1792              		.section	.debug_ranges,"",%progbits
 1793              	.Ldebug_ranges0:
 1794 0000 00000000 		.4byte	.Ltext0
 1795 0004 A2000000 		.4byte	.Letext0
 1796 0008 00000000 		.4byte	.LFB184
 1797 000c DC000000 		.4byte	.LFE184
 1798 0010 00000000 		.4byte	0
 1799 0014 00000000 		.4byte	0
 1800              		.section	.debug_line,"",%progbits
 1801              	.Ldebug_line0:
 1802 0000 EE040000 		.section	.debug_str,"MS",%progbits,1
 1802      02007504 
 1802      00000201 
 1802      FB0E0D00 
 1802      01010101 
 1803              	.LASF36:
 1804 0000 4750494F 		.ascii	"GPIO_TypeDef\000"
 1804      5F547970 
 1804      65446566 
 1804      00
 1805              	.LASF59:
 1806 000d 5F70616C 		.ascii	"_pal_lld_setgroupmode\000"
 1806      5F6C6C64 
 1806      5F736574 
 1806      67726F75 
 1806      706D6F64 
 1807              	.LASF63:
 1808 0023 73646361 		.ascii	"sdcard_init\000"
 1808      72645F69 
 1808      6E697400 
 1809              	.LASF4:
 1810 002f 73686F72 		.ascii	"short int\000"
 1810      7420696E 
ARM GAS  /tmp/ccBedchN.s 			page 33


 1810      7400
 1811              	.LASF17:
 1812 0039 73697A65 		.ascii	"sizetype\000"
 1812      74797065 
 1812      00
 1813              	.LASF71:
 1814 0042 61786F6C 		.ascii	"axoloti_math_init\000"
 1814      6F74695F 
 1814      6D617468 
 1814      5F696E69 
 1814      7400
 1815              	.LASF0:
 1816 0054 6C6F6E67 		.ascii	"long long unsigned int\000"
 1816      206C6F6E 
 1816      6720756E 
 1816      7369676E 
 1816      65642069 
 1817              	.LASF82:
 1818 006b 6D61696E 		.ascii	"main\000"
 1818      00
 1819              	.LASF68:
 1820 0070 63685468 		.ascii	"chThdSleep\000"
 1820      64536C65 
 1820      657000
 1821              	.LASF12:
 1822 007b 6C6F6E67 		.ascii	"long long int\000"
 1822      206C6F6E 
 1822      6720696E 
 1822      7400
 1823              	.LASF60:
 1824 0089 6D656D63 		.ascii	"memcpy\000"
 1824      707900
 1825              	.LASF6:
 1826 0090 5F5F7569 		.ascii	"__uint16_t\000"
 1826      6E743136 
 1826      5F7400
 1827              	.LASF58:
 1828 009b 70697463 		.ascii	"pitcht\000"
 1828      687400
 1829              	.LASF38:
 1830 00a2 696F6D6F 		.ascii	"iomode_t\000"
 1830      64655F74 
 1830      00
 1831              	.LASF57:
 1832 00ab 77696E64 		.ascii	"windowt\000"
 1832      6F777400 
 1833              	.LASF23:
 1834 00b3 45585449 		.ascii	"EXTICR\000"
 1834      435200
 1835              	.LASF62:
 1836 00ba 63685379 		.ascii	"chSysInit\000"
 1836      73496E69 
 1836      7400
 1837              	.LASF37:
 1838 00c4 696F706F 		.ascii	"ioportmask_t\000"
 1838      72746D61 
 1838      736B5F74 
ARM GAS  /tmp/ccBedchN.s 			page 34


 1838      00
 1839              	.LASF74:
 1840 00d1 636F6465 		.ascii	"codec_init\000"
 1840      635F696E 
 1840      697400
 1841              	.LASF78:
 1842 00dc 4C6F6164 		.ascii	"LoadPatchStartFlash\000"
 1842      50617463 
 1842      68537461 
 1842      7274466C 
 1842      61736800 
 1843              	.LASF29:
 1844 00f0 4F545950 		.ascii	"OTYPER\000"
 1844      455200
 1845              	.LASF40:
 1846 00f7 666C6F61 		.ascii	"float\000"
 1846      7400
 1847              	.LASF22:
 1848 00fd 4D454D52 		.ascii	"MEMRMP\000"
 1848      4D5000
 1849              	.LASF61:
 1850 0104 68616C49 		.ascii	"halInit\000"
 1850      6E697400 
 1851              	.LASF76:
 1852 010c 73646361 		.ascii	"sdcard_attemptMountIfUnmounted\000"
 1852      72645F61 
 1852      7474656D 
 1852      70744D6F 
 1852      756E7449 
 1853              	.LASF31:
 1854 012b 50555044 		.ascii	"PUPDR\000"
 1854      5200
 1855              	.LASF84:
 1856 0131 65786365 		.ascii	"exception_check\000"
 1856      7074696F 
 1856      6E5F6368 
 1856      65636B00 
 1857              	.LASF83:
 1858 0141 5F736272 		.ascii	"_sbrk\000"
 1858      6B00
 1859              	.LASF9:
 1860 0147 6C6F6E67 		.ascii	"long int\000"
 1860      20696E74 
 1860      00
 1861              	.LASF70:
 1862 0150 6164635F 		.ascii	"adc_init\000"
 1862      696E6974 
 1862      00
 1863              	.LASF50:
 1864 0159 546F6767 		.ascii	"ToggleRed\000"
 1864      6C655265 
 1864      6400
 1865              	.LASF32:
 1866 0163 42535252 		.ascii	"BSRR\000"
 1866      00
 1867              	.LASF28:
 1868 0168 4D4F4445 		.ascii	"MODER\000"
ARM GAS  /tmp/ccBedchN.s 			page 35


 1868      5200
 1869              	.LASF27:
 1870 016e 636C6561 		.ascii	"clear\000"
 1870      7200
 1871              	.LASF55:
 1872 0174 70617463 		.ascii	"patchStatus\000"
 1872      68537461 
 1872      74757300 
 1873              	.LASF45:
 1874 0180 70617463 		.ascii	"patchStatus_t\000"
 1874      68537461 
 1874      7475735F 
 1874      7400
 1875              	.LASF72:
 1876 018e 6D696469 		.ascii	"midi_init\000"
 1876      5F696E69 
 1876      7400
 1877              	.LASF25:
 1878 0198 434D5043 		.ascii	"CMPCR\000"
 1878      5200
 1879              	.LASF39:
 1880 019e 696F706F 		.ascii	"ioportid_t\000"
 1880      72746964 
 1880      5F7400
 1881              	.LASF47:
 1882 01a9 6C6F6E67 		.ascii	"long double\000"
 1882      20646F75 
 1882      626C6500 
 1883              	.LASF3:
 1884 01b5 756E7369 		.ascii	"unsigned char\000"
 1884      676E6564 
 1884      20636861 
 1884      7200
 1885              	.LASF73:
 1886 01c3 73746172 		.ascii	"start_dsp_thread\000"
 1886      745F6473 
 1886      705F7468 
 1886      72656164 
 1886      00
 1887              	.LASF67:
 1888 01d4 496E6974 		.ascii	"InitPConnection\000"
 1888      50436F6E 
 1888      6E656374 
 1888      696F6E00 
 1889              	.LASF2:
 1890 01e4 7369676E 		.ascii	"signed char\000"
 1890      65642063 
 1890      68617200 
 1891              	.LASF65:
 1892 01f0 65786365 		.ascii	"exception_init\000"
 1892      7074696F 
 1892      6E5F696E 
 1892      697400
 1893              	.LASF52:
 1894 01ff 48414C5F 		.ascii	"HAL_Delay\000"
 1894      44656C61 
 1894      7900
ARM GAS  /tmp/ccBedchN.s 			page 36


 1895              	.LASF43:
 1896 0209 53544F50 		.ascii	"STOPPING\000"
 1896      50494E47 
 1896      00
 1897              	.LASF16:
 1898 0212 75696E74 		.ascii	"uint32_t\000"
 1898      33325F74 
 1898      00
 1899              	.LASF1:
 1900 021b 756E7369 		.ascii	"unsigned int\000"
 1900      676E6564 
 1900      20696E74 
 1900      00
 1901              	.LASF66:
 1902 0228 496E6974 		.ascii	"InitPatch0\000"
 1902      50617463 
 1902      683000
 1903              	.LASF14:
 1904 0233 75696E74 		.ascii	"uint16_t\000"
 1904      31365F74 
 1904      00
 1905              	.LASF54:
 1906 023c 66735F72 		.ascii	"fs_ready\000"
 1906      65616479 
 1906      00
 1907              	.LASF69:
 1908 0245 61786F6C 		.ascii	"axoloti_board_init\000"
 1908      6F74695F 
 1908      626F6172 
 1908      645F696E 
 1908      697400
 1909              	.LASF35:
 1910 0258 41465248 		.ascii	"AFRH\000"
 1910      00
 1911              	.LASF34:
 1912 025d 4146524C 		.ascii	"AFRL\000"
 1912      00
 1913              	.LASF7:
 1914 0262 73686F72 		.ascii	"short unsigned int\000"
 1914      7420756E 
 1914      7369676E 
 1914      65642069 
 1914      6E7400
 1915              	.LASF20:
 1916 0275 73797374 		.ascii	"systime_t\000"
 1916      696D655F 
 1916      7400
 1917              	.LASF26:
 1918 027f 53595343 		.ascii	"SYSCFG_TypeDef\000"
 1918      46475F54 
 1918      79706544 
 1918      656600
 1919              	.LASF21:
 1920 028e 63686172 		.ascii	"char\000"
 1920      00
 1921              	.LASF79:
 1922 0293 474E5520 		.ascii	"GNU C 4.9.3 20150529 (release) [ARM/embedded-4_9-br"
ARM GAS  /tmp/ccBedchN.s 			page 37


 1922      4320342E 
 1922      392E3320 
 1922      32303135 
 1922      30353239 
 1923 02c6 616E6368 		.ascii	"anch revision 224288] -mcpu=cortex-m4 -mfloat-abi=h"
 1923      20726576 
 1923      6973696F 
 1923      6E203232 
 1923      34323838 
 1924 02f9 61726420 		.ascii	"ard -mfpu=fpv4-sp-d16 -mno-thumb-interwork -mthumb "
 1924      2D6D6670 
 1924      753D6670 
 1924      76342D73 
 1924      702D6431 
 1925 032c 2D676764 		.ascii	"-ggdb -O2 -fomit-frame-pointer -falign-functions=16"
 1925      62202D4F 
 1925      32202D66 
 1925      6F6D6974 
 1925      2D667261 
 1926 035f 202D666E 		.ascii	" -fno-math-errno -fsingle-precision-constant\000"
 1926      6F2D6D61 
 1926      74682D65 
 1926      72726E6F 
 1926      202D6673 
 1927              	.LASF41:
 1928 038c 52554E4E 		.ascii	"RUNNING\000"
 1928      494E4700 
 1929              	.LASF15:
 1930 0394 696E7433 		.ascii	"int32_t\000"
 1930      325F7400 
 1931              	.LASF18:
 1932 039c 626F6F6C 		.ascii	"bool_t\000"
 1932      5F7400
 1933              	.LASF51:
 1934 03a3 546F6767 		.ascii	"ToggleBlue\000"
 1934      6C65426C 
 1934      756500
 1935              	.LASF49:
 1936 03ae 546F6767 		.ascii	"ToggleOrange\000"
 1936      6C654F72 
 1936      616E6765 
 1936      00
 1937              	.LASF19:
 1938 03bb 5F426F6F 		.ascii	"_Bool\000"
 1938      6C00
 1939              	.LASF75:
 1940 03c1 75695F69 		.ascii	"ui_init\000"
 1940      6E697400 
 1941              	.LASF30:
 1942 03c9 4F535045 		.ascii	"OSPEEDR\000"
 1942      45445200 
 1943              	.LASF80:
 1944 03d1 6D61696E 		.ascii	"main.c\000"
 1944      2E6300
 1945              	.LASF11:
 1946 03d8 6C6F6E67 		.ascii	"long unsigned int\000"
 1946      20756E73 
ARM GAS  /tmp/ccBedchN.s 			page 38


 1946      69676E65 
 1946      6420696E 
 1946      7400
 1947              	.LASF48:
 1948 03ea 546F6767 		.ascii	"ToggleGreen\000"
 1948      6C654772 
 1948      65656E00 
 1949              	.LASF10:
 1950 03f6 5F5F7569 		.ascii	"__uint32_t\000"
 1950      6E743332 
 1950      5F7400
 1951              	.LASF8:
 1952 0401 5F5F696E 		.ascii	"__int32_t\000"
 1952      7433325F 
 1952      7400
 1953              	.LASF42:
 1954 040b 53544F50 		.ascii	"STOPPED\000"
 1954      50454400 
 1955              	.LASF5:
 1956 0413 5F5F696E 		.ascii	"__int16_t\000"
 1956      7431365F 
 1956      7400
 1957              	.LASF44:
 1958 041d 53544152 		.ascii	"STARTFAILED\000"
 1958      54464149 
 1958      4C454400 
 1959              	.LASF81:
 1960 0429 2F686F6D 		.ascii	"/home/sbcu/Dropbox/pcb-layouts/axo-on-discovery-boa"
 1960      652F7362 
 1960      63752F44 
 1960      726F7062 
 1960      6F782F70 
 1961 045c 72642F61 		.ascii	"rd/axoloti/firmware\000"
 1961      786F6C6F 
 1961      74692F66 
 1961      69726D77 
 1961      61726500 
 1962              	.LASF77:
 1963 0470 4C6F6164 		.ascii	"LoadPatchStartSD\000"
 1963      50617463 
 1963      68537461 
 1963      72745344 
 1963      00
 1964              	.LASF13:
 1965 0481 696E7431 		.ascii	"int16_t\000"
 1965      365F7400 
 1966              	.LASF46:
 1967 0489 646F7562 		.ascii	"double\000"
 1967      6C6500
 1968              	.LASF24:
 1969 0490 52455345 		.ascii	"RESERVED\000"
 1969      52564544 
 1969      00
 1970              	.LASF53:
 1971 0499 49544D5F 		.ascii	"ITM_RxBuffer\000"
 1971      52784275 
 1971      66666572 
ARM GAS  /tmp/ccBedchN.s 			page 39


 1971      00
 1972              	.LASF33:
 1973 04a6 4C434B52 		.ascii	"LCKR\000"
 1973      00
 1974              	.LASF56:
 1975 04ab 73696E65 		.ascii	"sine2t\000"
 1975      327400
 1976              	.LASF64:
 1977 04b2 7379736D 		.ascii	"sysmon_init\000"
 1977      6F6E5F69 
 1977      6E697400 
 1978              		.ident	"GCC: (GNU Tools for ARM Embedded Processors) 4.9.3 20150529 (release) [ARM/embedded-4_9-br
ARM GAS  /tmp/ccBedchN.s 			page 40


DEFINED SYMBOLS
                            *ABS*:00000000 main.c
     /tmp/ccBedchN.s:20     .text:00000000 $t
     /tmp/ccBedchN.s:26     .text:00000000 ToggleGreen
     /tmp/ccBedchN.s:51     .text:0000001c $d
     /tmp/ccBedchN.s:55     .text:00000020 $t
     /tmp/ccBedchN.s:61     .text:00000020 ToggleOrange
     /tmp/ccBedchN.s:85     .text:0000003c $d
     /tmp/ccBedchN.s:89     .text:00000040 $t
     /tmp/ccBedchN.s:95     .text:00000040 ToggleRed
     /tmp/ccBedchN.s:119    .text:0000005c $d
     /tmp/ccBedchN.s:123    .text:00000060 $t
     /tmp/ccBedchN.s:129    .text:00000060 ToggleBlue
     /tmp/ccBedchN.s:153    .text:0000007c $d
     /tmp/ccBedchN.s:158    .text.startup:00000000 $t
     /tmp/ccBedchN.s:164    .text.startup:00000000 main
     /tmp/ccBedchN.s:315    .text.startup:000000c8 $d
     /tmp/ccBedchN.s:324    .text:00000080 $t
     /tmp/ccBedchN.s:330    .text:00000080 HAL_Delay
     /tmp/ccBedchN.s:352    .text:00000098 $d
     /tmp/ccBedchN.s:356    .text:0000009c $t
     /tmp/ccBedchN.s:362    .text:000000a0 _sbrk
                     .debug_frame:00000010 $d

UNDEFINED SYMBOLS
_pal_lld_setgroupmode
memcpy
halInit
chSysInit
sdcard_init
sysmon_init
exception_init
InitPatch0
InitPConnection
chThdSleep
axoloti_board_init
adc_init
axoloti_math_init
midi_init
start_dsp_thread
codec_init
ui_init
exception_check
sdcard_attemptMountIfUnmounted
LoadPatchStartSD
LoadPatchStartFlash
fs_ready
patchStatus
