ARM GAS  /tmp/cc3DtOmY.s 			page 1


   1              		.syntax unified
   2              		.cpu cortex-m4
   3              		.eabi_attribute 27, 1
   4              		.eabi_attribute 28, 1
   5              		.fpu fpv4-sp-d16
   6              		.eabi_attribute 20, 1
   7              		.eabi_attribute 21, 1
   8              		.eabi_attribute 23, 3
   9              		.eabi_attribute 24, 1
  10              		.eabi_attribute 25, 1
  11              		.eabi_attribute 26, 1
  12              		.eabi_attribute 30, 2
  13              		.eabi_attribute 34, 1
  14              		.eabi_attribute 18, 4
  15              		.thumb
  16              		.file	"midi.c"
  17              		.text
  18              	.Ltext0:
  19              		.cfi_sections	.debug_frame
  20              		.align	2
  21              		.p2align 4,,15
  22              		.global	MidiSend1
  23              		.thumb
  24              		.thumb_func
  25              		.type	MidiSend1, %function
  26              	MidiSend1:
  27              	.LFB133:
  28              		.file 1 "midi.c"
  29              		.loc 1 28 0
  30              		.cfi_startproc
  31              		@ args = 0, pretend = 0, frame = 0
  32              		@ frame_needed = 0, uses_anonymous_args = 0
  33              	.LVL0:
  34              		.loc 1 29 0
  35 0000 0138     		subs	r0, r0, #1
  36              	.LVL1:
  37 0002 0E28     		cmp	r0, #14
  38 0004 1ED8     		bhi	.L9
  39 0006 DFE800F0 		tbb	[pc, r0]
  40              	.L4:
  41 000a 1A       		.byte	(.L3-.L4)/2
  42 000b 16       		.byte	(.L5-.L4)/2
  43 000c 12       		.byte	(.L6-.L4)/2
  44 000d 1D       		.byte	(.L9-.L4)/2
  45 000e 1D       		.byte	(.L9-.L4)/2
  46 000f 1D       		.byte	(.L9-.L4)/2
  47 0010 1D       		.byte	(.L9-.L4)/2
  48 0011 1D       		.byte	(.L9-.L4)/2
  49 0012 1D       		.byte	(.L9-.L4)/2
  50 0013 1D       		.byte	(.L9-.L4)/2
  51 0014 1D       		.byte	(.L9-.L4)/2
  52 0015 1D       		.byte	(.L9-.L4)/2
  53 0016 1D       		.byte	(.L9-.L4)/2
  54 0017 1D       		.byte	(.L9-.L4)/2
  55 0018 08       		.byte	(.L7-.L4)/2
  56 0019 00       		.p2align 1
  57              	.L7:
ARM GAS  /tmp/cc3DtOmY.s 			page 2


  58              		.loc 1 28 0
  59 001a 00B5     		push	{lr}
  60              		.cfi_def_cfa_offset 4
  61              		.cfi_offset 14, -4
  62 001c 83B0     		sub	sp, sp, #12
  63              		.cfi_def_cfa_offset 16
  64              		.loc 1 39 0
  65 001e 0023     		movs	r3, #0
  66 0020 0093     		str	r3, [sp]
  67 0022 0F20     		movs	r0, #15
  68 0024 FFF7FEFF 		bl	MidiInMsgHandler
  69              	.LVL2:
  70              		.loc 1 50 0
  71 0028 03B0     		add	sp, sp, #12
  72              		.cfi_def_cfa_offset 4
  73              		@ sp needed
  74 002a 5DF804FB 		ldr	pc, [sp], #4
  75              	.LVL3:
  76              	.L6:
  77              		.cfi_def_cfa_offset 0
  78              		.cfi_restore 14
  79              		.loc 1 35 0
  80 002e 0846     		mov	r0, r1
  81 0030 1146     		mov	r1, r2
  82              	.LVL4:
  83 0032 FFF7FEBF 		b	usbh_MidiSend1
  84              	.LVL5:
  85              	.L5:
  86              		.loc 1 43 0
  87 0036 0846     		mov	r0, r1
  88 0038 1146     		mov	r1, r2
  89              	.LVL6:
  90 003a FFF7FEBF 		b	midi_usb_MidiSend1
  91              	.LVL7:
  92              	.L3:
  93              		.loc 1 31 0
  94 003e 1046     		mov	r0, r2
  95 0040 FFF7FEBF 		b	serial_MidiSend1
  96              	.LVL8:
  97              	.L9:
  98 0044 7047     		bx	lr
  99              		.cfi_endproc
 100              	.LFE133:
 101              		.size	MidiSend1, .-MidiSend1
 102 0046 00BF     		.align	2
 103 0048 AFF30080 		.p2align 4,,15
 103      AFF30080 
 104              		.global	MidiSend2
 105              		.thumb
 106              		.thumb_func
 107              		.type	MidiSend2, %function
 108              	MidiSend2:
 109              	.LFB134:
 110              		.loc 1 52 0
 111              		.cfi_startproc
 112              		@ args = 0, pretend = 0, frame = 0
 113              		@ frame_needed = 0, uses_anonymous_args = 0
ARM GAS  /tmp/cc3DtOmY.s 			page 3


 114              	.LVL9:
 115 0050 00B5     		push	{lr}
 116              		.cfi_def_cfa_offset 4
 117              		.cfi_offset 14, -4
 118              		.loc 1 53 0
 119 0052 0138     		subs	r0, r0, #1
 120              	.LVL10:
 121              		.loc 1 52 0
 122 0054 83B0     		sub	sp, sp, #12
 123              		.cfi_def_cfa_offset 16
 124              		.loc 1 53 0
 125 0056 0E28     		cmp	r0, #14
 126 0058 0ED8     		bhi	.L11
 127 005a DFE800F0 		tbb	[pc, r0]
 128              	.L14:
 129 005e 18       		.byte	(.L13-.L14)/2
 130 005f 1F       		.byte	(.L15-.L14)/2
 131 0060 10       		.byte	(.L16-.L14)/2
 132 0061 0D       		.byte	(.L11-.L14)/2
 133 0062 0D       		.byte	(.L11-.L14)/2
 134 0063 0D       		.byte	(.L11-.L14)/2
 135 0064 0D       		.byte	(.L11-.L14)/2
 136 0065 0D       		.byte	(.L11-.L14)/2
 137 0066 0D       		.byte	(.L11-.L14)/2
 138 0067 0D       		.byte	(.L11-.L14)/2
 139 0068 0D       		.byte	(.L11-.L14)/2
 140 0069 0D       		.byte	(.L11-.L14)/2
 141 006a 0D       		.byte	(.L11-.L14)/2
 142 006b 0D       		.byte	(.L11-.L14)/2
 143 006c 08       		.byte	(.L17-.L14)/2
 144 006d 00       		.p2align 1
 145              	.L17:
 146              		.loc 1 63 0
 147 006e 0020     		movs	r0, #0
 148 0070 0090     		str	r0, [sp]
 149 0072 0F20     		movs	r0, #15
 150 0074 FFF7FEFF 		bl	MidiInMsgHandler
 151              	.LVL11:
 152              	.L11:
 153              		.loc 1 74 0
 154 0078 03B0     		add	sp, sp, #12
 155              		.cfi_remember_state
 156              		.cfi_def_cfa_offset 4
 157              		@ sp needed
 158 007a 5DF804FB 		ldr	pc, [sp], #4
 159              	.LVL12:
 160              	.L16:
 161              		.cfi_restore_state
 162              		.loc 1 59 0
 163 007e 0846     		mov	r0, r1
 164 0080 1146     		mov	r1, r2
 165              	.LVL13:
 166 0082 1A46     		mov	r2, r3
 167              	.LVL14:
 168              		.loc 1 74 0
 169 0084 03B0     		add	sp, sp, #12
 170              		.cfi_remember_state
ARM GAS  /tmp/cc3DtOmY.s 			page 4


 171              		.cfi_def_cfa_offset 4
 172              		@ sp needed
 173 0086 5DF804EB 		ldr	lr, [sp], #4
 174              		.cfi_restore 14
 175              		.cfi_def_cfa_offset 0
 176              		.loc 1 59 0
 177 008a FFF7FEBF 		b	usbh_MidiSend2
 178              	.LVL15:
 179              	.L13:
 180              		.cfi_restore_state
 181              		.loc 1 55 0
 182 008e 1046     		mov	r0, r2
 183 0090 1946     		mov	r1, r3
 184              	.LVL16:
 185              		.loc 1 74 0
 186 0092 03B0     		add	sp, sp, #12
 187              		.cfi_remember_state
 188              		.cfi_def_cfa_offset 4
 189              		@ sp needed
 190 0094 5DF804EB 		ldr	lr, [sp], #4
 191              		.cfi_restore 14
 192              		.cfi_def_cfa_offset 0
 193              		.loc 1 55 0
 194 0098 FFF7FEBF 		b	serial_MidiSend2
 195              	.LVL17:
 196              	.L15:
 197              		.cfi_restore_state
 198              		.loc 1 67 0
 199 009c 0846     		mov	r0, r1
 200 009e 1146     		mov	r1, r2
 201              	.LVL18:
 202 00a0 1A46     		mov	r2, r3
 203              	.LVL19:
 204              		.loc 1 74 0
 205 00a2 03B0     		add	sp, sp, #12
 206              		.cfi_def_cfa_offset 4
 207              		@ sp needed
 208 00a4 5DF804EB 		ldr	lr, [sp], #4
 209              		.cfi_restore 14
 210              		.cfi_def_cfa_offset 0
 211              		.loc 1 67 0
 212 00a8 FFF7FEBF 		b	midi_usb_MidiSend2
 213              	.LVL20:
 214              		.cfi_endproc
 215              	.LFE134:
 216              		.size	MidiSend2, .-MidiSend2
 217              		.align	2
 218 00ac AFF30080 		.p2align 4,,15
 219              		.global	MidiSend3
 220              		.thumb
 221              		.thumb_func
 222              		.type	MidiSend3, %function
 223              	MidiSend3:
 224              	.LFB135:
 225              		.loc 1 76 0
 226              		.cfi_startproc
 227              		@ args = 4, pretend = 0, frame = 0
ARM GAS  /tmp/cc3DtOmY.s 			page 5


 228              		@ frame_needed = 0, uses_anonymous_args = 0
 229              	.LVL21:
 230 00b0 20B5     		push	{r5, lr}
 231              		.cfi_def_cfa_offset 8
 232              		.cfi_offset 5, -8
 233              		.cfi_offset 14, -4
 234              		.loc 1 77 0
 235 00b2 0138     		subs	r0, r0, #1
 236              	.LVL22:
 237              		.loc 1 76 0
 238 00b4 9DF80850 		ldrb	r5, [sp, #8]	@ zero_extendqisi2
 239              		.loc 1 77 0
 240 00b8 0E28     		cmp	r0, #14
 241 00ba 26D8     		bhi	.L19
 242 00bc DFE800F0 		tbb	[pc, r0]
 243              	.L22:
 244 00c0 1E       		.byte	(.L21-.L22)/2
 245 00c1 16       		.byte	(.L23-.L22)/2
 246 00c2 0E       		.byte	(.L24-.L22)/2
 247 00c3 25       		.byte	(.L19-.L22)/2
 248 00c4 25       		.byte	(.L19-.L22)/2
 249 00c5 25       		.byte	(.L19-.L22)/2
 250 00c6 25       		.byte	(.L19-.L22)/2
 251 00c7 25       		.byte	(.L19-.L22)/2
 252 00c8 25       		.byte	(.L19-.L22)/2
 253 00c9 25       		.byte	(.L19-.L22)/2
 254 00ca 25       		.byte	(.L19-.L22)/2
 255 00cb 25       		.byte	(.L19-.L22)/2
 256 00cc 25       		.byte	(.L19-.L22)/2
 257 00cd 25       		.byte	(.L19-.L22)/2
 258 00ce 08       		.byte	(.L25-.L22)/2
 259 00cf 00       		.p2align 1
 260              	.L25:
 261              		.loc 1 87 0
 262 00d0 0295     		str	r5, [sp, #8]
 263              	.LVL23:
 264 00d2 0F20     		movs	r0, #15
 265              		.loc 1 98 0
 266 00d4 BDE82040 		pop	{r5, lr}
 267              		.cfi_remember_state
 268              		.cfi_restore 14
 269              		.cfi_restore 5
 270              		.cfi_def_cfa_offset 0
 271              		.loc 1 87 0
 272 00d8 FFF7FEBF 		b	MidiInMsgHandler
 273              	.LVL24:
 274              	.L24:
 275              		.cfi_restore_state
 276              		.loc 1 83 0
 277 00dc 0846     		mov	r0, r1
 278 00de 1146     		mov	r1, r2
 279              	.LVL25:
 280 00e0 1A46     		mov	r2, r3
 281              	.LVL26:
 282 00e2 2B46     		mov	r3, r5
 283              	.LVL27:
 284              		.loc 1 98 0
ARM GAS  /tmp/cc3DtOmY.s 			page 6


 285 00e4 BDE82040 		pop	{r5, lr}
 286              		.cfi_remember_state
 287              		.cfi_restore 14
 288              		.cfi_restore 5
 289              		.cfi_def_cfa_offset 0
 290              	.LVL28:
 291              		.loc 1 83 0
 292 00e8 FFF7FEBF 		b	usbh_MidiSend3
 293              	.LVL29:
 294              	.L23:
 295              		.cfi_restore_state
 296              		.loc 1 91 0
 297 00ec 0846     		mov	r0, r1
 298 00ee 1146     		mov	r1, r2
 299              	.LVL30:
 300 00f0 1A46     		mov	r2, r3
 301              	.LVL31:
 302 00f2 2B46     		mov	r3, r5
 303              	.LVL32:
 304              		.loc 1 98 0
 305 00f4 BDE82040 		pop	{r5, lr}
 306              		.cfi_remember_state
 307              		.cfi_restore 14
 308              		.cfi_restore 5
 309              		.cfi_def_cfa_offset 0
 310              	.LVL33:
 311              		.loc 1 91 0
 312 00f8 FFF7FEBF 		b	midi_usb_MidiSend3
 313              	.LVL34:
 314              	.L21:
 315              		.cfi_restore_state
 316              		.loc 1 79 0
 317 00fc 1046     		mov	r0, r2
 318 00fe 1946     		mov	r1, r3
 319              	.LVL35:
 320 0100 2A46     		mov	r2, r5
 321              	.LVL36:
 322              		.loc 1 98 0
 323 0102 BDE82040 		pop	{r5, lr}
 324              		.cfi_remember_state
 325              		.cfi_restore 14
 326              		.cfi_restore 5
 327              		.cfi_def_cfa_offset 0
 328              	.LVL37:
 329              		.loc 1 79 0
 330 0106 FFF7FEBF 		b	serial_MidiSend3
 331              	.LVL38:
 332              	.L19:
 333              		.cfi_restore_state
 334 010a 20BD     		pop	{r5, pc}
 335              		.cfi_endproc
 336              	.LFE135:
 337              		.size	MidiSend3, .-MidiSend3
 338              		.align	2
 339 010c AFF30080 		.p2align 4,,15
 340              		.global	MidiSendSysEx
 341              		.thumb
ARM GAS  /tmp/cc3DtOmY.s 			page 7


 342              		.thumb_func
 343              		.type	MidiSendSysEx, %function
 344              	MidiSendSysEx:
 345              	.LFB136:
 346              		.loc 1 100 0
 347              		.cfi_startproc
 348              		@ args = 0, pretend = 0, frame = 0
 349              		@ frame_needed = 0, uses_anonymous_args = 0
 350              		@ link register save eliminated.
 351              	.LVL39:
 352              		.loc 1 101 0
 353 0110 0328     		cmp	r0, #3
 354 0112 00D0     		beq	.L31
 355 0114 7047     		bx	lr
 356              	.L31:
 357              		.loc 1 103 0
 358 0116 0846     		mov	r0, r1
 359              	.LVL40:
 360 0118 1146     		mov	r1, r2
 361              	.LVL41:
 362 011a 1A46     		mov	r2, r3
 363              	.LVL42:
 364 011c FFF7FEBF 		b	usbh_MidiSendSysEx
 365              	.LVL43:
 366              		.cfi_endproc
 367              	.LFE136:
 368              		.size	MidiSendSysEx, .-MidiSendSysEx
 369              		.align	2
 370              		.p2align 4,,15
 371              		.global	midi_init
 372              		.thumb
 373              		.thumb_func
 374              		.type	midi_init, %function
 375              	midi_init:
 376              	.LFB137:
 377              		.loc 1 112 0
 378              		.cfi_startproc
 379              		@ args = 0, pretend = 0, frame = 0
 380              		@ frame_needed = 0, uses_anonymous_args = 0
 381 0120 08B5     		push	{r3, lr}
 382              		.cfi_def_cfa_offset 8
 383              		.cfi_offset 3, -8
 384              		.cfi_offset 14, -4
 385              		.loc 1 113 0
 386 0122 FFF7FEFF 		bl	serial_midi_init
 387              	.LVL44:
 388              		.loc 1 115 0
 389 0126 BDE80840 		pop	{r3, lr}
 390              		.cfi_restore 14
 391              		.cfi_restore 3
 392              		.cfi_def_cfa_offset 0
 393              		.loc 1 114 0
 394 012a FFF7FEBF 		b	usbh_midi_init
 395              	.LVL45:
 396              		.cfi_endproc
 397              	.LFE137:
 398              		.size	midi_init, .-midi_init
ARM GAS  /tmp/cc3DtOmY.s 			page 8


 399 012e 00BF     		.align	2
 400              		.p2align 4,,15
 401              		.global	MidiGetOutputBufferPending
 402              		.thumb
 403              		.thumb_func
 404              		.type	MidiGetOutputBufferPending, %function
 405              	MidiGetOutputBufferPending:
 406              	.LFB138:
 407              		.loc 1 119 0
 408              		.cfi_startproc
 409              		@ args = 0, pretend = 0, frame = 0
 410              		@ frame_needed = 0, uses_anonymous_args = 0
 411              		@ link register save eliminated.
 412              	.LVL46:
 413              		.loc 1 120 0
 414 0130 0128     		cmp	r0, #1
 415 0132 05D0     		beq	.L36
 416 0134 0328     		cmp	r0, #3
 417 0136 01D1     		bne	.L40
 418              		.loc 1 125 0
 419 0138 FFF7FEBF 		b	usbh_MidiGetOutputBufferPending
 420              	.LVL47:
 421              	.L40:
 422              		.loc 1 132 0
 423 013c 0020     		movs	r0, #0
 424              	.LVL48:
 425 013e 7047     		bx	lr
 426              	.LVL49:
 427              	.L36:
 428              		.loc 1 122 0
 429 0140 FFF7FEBF 		b	serial_MidiGetOutputBufferPending
 430              	.LVL50:
 431              		.cfi_endproc
 432              	.LFE138:
 433              		.size	MidiGetOutputBufferPending, .-MidiGetOutputBufferPending
 434              		.align	2
 435 0144 AFF30080 		.p2align 4,,15
 435      AFF30080 
 435      AFF30080 
 436              		.global	MidiGetOutputBufferAvailable
 437              		.thumb
 438              		.thumb_func
 439              		.type	MidiGetOutputBufferAvailable, %function
 440              	MidiGetOutputBufferAvailable:
 441              	.LFB139:
 442              		.loc 1 135 0
 443              		.cfi_startproc
 444              		@ args = 0, pretend = 0, frame = 0
 445              		@ frame_needed = 0, uses_anonymous_args = 0
 446              		@ link register save eliminated.
 447              	.LVL51:
 448              		.loc 1 136 0
 449 0150 0328     		cmp	r0, #3
 450 0152 01D0     		beq	.L45
 451              		.loc 1 145 0
 452 0154 0020     		movs	r0, #0
 453              	.LVL52:
ARM GAS  /tmp/cc3DtOmY.s 			page 9


 454 0156 7047     		bx	lr
 455              	.LVL53:
 456              	.L45:
 457              		.loc 1 138 0
 458 0158 FFF7FEBF 		b	usbh_MidiGetOutputBufferAvailable
 459              	.LVL54:
 460              		.cfi_endproc
 461              	.LFE139:
 462              		.size	MidiGetOutputBufferAvailable, .-MidiGetOutputBufferAvailable
 463              	.Letext0:
 464              		.file 2 "/d_drive/axoloti/platform_linux/arm-none-eabi/include/machine/_default_types.h"
 465              		.file 3 "/d_drive/axoloti/platform_linux/arm-none-eabi/include/sys/_stdint.h"
 466              		.file 4 "midi.h"
 467              		.file 5 "usbh_midi_core.h"
 468              		.file 6 "midi_usb.h"
 469              		.file 7 "serial_midi.h"
 470              		.file 8 "/d_drive/axoloti/platform_linux/../CMSIS//Include/core_cm4.h"