ARM GAS  /tmp/cc9HRptf.s 			page 1


   1              		.syntax unified
   2              		.cpu cortex-m4
   3              		.eabi_attribute 27, 1
   4              		.eabi_attribute 28, 1
   5              		.fpu fpv4-sp-d16
   6              		.eabi_attribute 20, 1
   7              		.eabi_attribute 21, 1
   8              		.eabi_attribute 23, 3
   9              		.eabi_attribute 24, 1
  10              		.eabi_attribute 25, 1
  11              		.eabi_attribute 26, 1
  12              		.eabi_attribute 30, 2
  13              		.eabi_attribute 34, 1
  14              		.eabi_attribute 18, 4
  15              		.thumb
  16              		.file	"midi_usb.c"
  17              		.text
  18              	.Ltext0:
  19              		.cfi_sections	.debug_frame
  20              		.align	2
  21              		.p2align 4,,15
  22              		.thumb
  23              		.thumb_func
  24              		.type	onotify, %function
  25              	onotify:
  26              	.LFB139:
  27              		.file 1 "midi_usb.c"
  28              		.loc 1 134 0
  29              		.cfi_startproc
  30              		@ args = 0, pretend = 0, frame = 0
  31              		@ frame_needed = 0, uses_anonymous_args = 0
  32              	.LVL0:
  33 0000 10B5     		push	{r4, lr}
  34              		.cfi_def_cfa_offset 8
  35              		.cfi_offset 4, -8
  36              		.cfi_offset 14, -4
  37              		.loc 1 136 0
  38 0002 046A     		ldr	r4, [r0, #32]
  39              	.LVL1:
  40              		.loc 1 140 0
  41 0004 D4F8D430 		ldr	r3, [r4, #212]
  42 0008 1A68     		ldr	r2, [r3]
  43 000a 1178     		ldrb	r1, [r2]	@ zero_extendqisi2
  44 000c 0429     		cmp	r1, #4
  45 000e 00D0     		beq	.L8
  46              	.L1:
  47 0010 10BD     		pop	{r4, pc}
  48              	.LVL2:
  49              	.L8:
  50              		.loc 1 141 0
  51 0012 217A     		ldrb	r1, [r4, #8]	@ zero_extendqisi2
  52 0014 0229     		cmp	r1, #2
  53 0016 FBD1     		bne	.L1
  54              		.loc 1 146 0
  55 0018 1289     		ldrh	r2, [r2, #8]
  56 001a 1B79     		ldrb	r3, [r3, #4]	@ zero_extendqisi2
  57 001c 42FA03F3 		asr	r3, r2, r3
ARM GAS  /tmp/cc9HRptf.s 			page 2


  58 0020 DB07     		lsls	r3, r3, #31
  59 0022 F5D4     		bmi	.L1
  60              		.loc 1 147 0
  61 0024 216C     		ldr	r1, [r4, #64]
  62 0026 E36B     		ldr	r3, [r4, #60]
  63 0028 A26B     		ldr	r2, [r4, #56]
  64 002a CB1A     		subs	r3, r1, r3
  65              	.LVL3:
  66              		.loc 1 148 0
  67 002c 9A1A     		subs	r2, r3, r2
  68              	.LVL4:
  69 002e EFD0     		beq	.L1
  70              		.loc 1 148 0 is_stmt 0 discriminator 1
  71 0030 12F00303 		ands	r3, r2, #3
  72 0034 ECD1     		bne	.L1
  73              	.LBB22:
  74              		.loc 1 150 0 is_stmt 1
  75              	@ 150 "midi_usb.c" 1
  76 0036 83F31188 		msr     BASEPRI, r3
  77              	@ 0 "" 2
  78              		.thumb
  79              	.LBE22:
  80              		.loc 1 153 0
  81 003a D4F8D410 		ldr	r1, [r4, #212]
  82 003e 1346     		mov	r3, r2
  83 0040 0868     		ldr	r0, [r1]
  84              	.LVL5:
  85 0042 0979     		ldrb	r1, [r1, #4]	@ zero_extendqisi2
  86 0044 04F13002 		add	r2, r4, #48
  87              	.LVL6:
  88 0048 FFF7FEFF 		bl	usbPrepareQueuedTransmit
  89              	.LVL7:
  90              	.LBB23:
  91              		.loc 1 156 0
  92 004c 2023     		movs	r3, #32
  93              	@ 156 "midi_usb.c" 1
  94 004e 83F31188 		msr     BASEPRI, r3
  95              	@ 0 "" 2
  96              		.thumb
  97              	.LBE23:
  98              		.loc 1 158 0
  99 0052 D4F8D430 		ldr	r3, [r4, #212]
 100              		.loc 1 161 0
 101 0056 BDE81040 		pop	{r4, lr}
 102              		.cfi_restore 14
 103              		.cfi_restore 4
 104              		.cfi_def_cfa_offset 0
 105              	.LVL8:
 106              		.loc 1 158 0
 107 005a 1868     		ldr	r0, [r3]
 108 005c 1979     		ldrb	r1, [r3, #4]	@ zero_extendqisi2
 109 005e FFF7FEBF 		b	usbStartTransmitI
 110              	.LVL9:
 111              		.cfi_endproc
 112              	.LFE139:
 113              		.size	onotify, .-onotify
 114 0062 00BF     		.align	2
ARM GAS  /tmp/cc9HRptf.s 			page 3


 115 0064 AFF30080 		.p2align 4,,15
 115      AFF30080 
 115      AFF30080 
 116              		.thumb
 117              		.thumb_func
 118              		.type	inotify, %function
 119              	inotify:
 120              	.LFB138:
 121              		.loc 1 102 0
 122              		.cfi_startproc
 123              		@ args = 0, pretend = 0, frame = 0
 124              		@ frame_needed = 0, uses_anonymous_args = 0
 125              	.LVL10:
 126 0070 38B5     		push	{r3, r4, r5, lr}
 127              		.cfi_def_cfa_offset 16
 128              		.cfi_offset 3, -16
 129              		.cfi_offset 4, -12
 130              		.cfi_offset 5, -8
 131              		.cfi_offset 14, -4
 132              		.loc 1 104 0
 133 0072 046A     		ldr	r4, [r0, #32]
 134              	.LVL11:
 135              		.loc 1 108 0
 136 0074 D4F8D430 		ldr	r3, [r4, #212]
 137 0078 1A68     		ldr	r2, [r3]
 138 007a 1178     		ldrb	r1, [r2]	@ zero_extendqisi2
 139 007c 0429     		cmp	r1, #4
 140 007e 00D0     		beq	.L12
 141              	.LVL12:
 142              	.L9:
 143 0080 38BD     		pop	{r3, r4, r5, pc}
 144              	.LVL13:
 145              	.L12:
 146              		.loc 1 109 0
 147 0082 217A     		ldrb	r1, [r4, #8]	@ zero_extendqisi2
 148 0084 0229     		cmp	r1, #2
 149 0086 FBD1     		bne	.L9
 150              		.loc 1 115 0
 151 0088 5979     		ldrb	r1, [r3, #5]	@ zero_extendqisi2
 152              		.loc 1 116 0
 153 008a 5389     		ldrh	r3, [r2, #10]
 154              		.loc 1 115 0
 155 008c 02EB8102 		add	r2, r2, r1, lsl #2
 156              		.loc 1 116 0
 157 0090 0B41     		asrs	r3, r3, r1
 158              		.loc 1 115 0
 159 0092 D268     		ldr	r2, [r2, #12]
 160              		.loc 1 116 0
 161 0094 13F00103 		ands	r3, r3, #1
 162              		.loc 1 115 0
 163 0098 558A     		ldrh	r5, [r2, #18]
 164              	.LVL14:
 165              		.loc 1 116 0
 166 009a F1D1     		bne	.L9
 167              		.loc 1 117 0 discriminator 1
 168 009c A269     		ldr	r2, [r4, #24]
 169 009e E169     		ldr	r1, [r4, #28]
ARM GAS  /tmp/cc9HRptf.s 			page 4


 170              		.loc 1 116 0 discriminator 1
 171 00a0 6069     		ldr	r0, [r4, #20]
 172              	.LVL15:
 173              		.loc 1 117 0 discriminator 1
 174 00a2 891A     		subs	r1, r1, r2
 175              		.loc 1 116 0 discriminator 1
 176 00a4 0A1A     		subs	r2, r1, r0
 177              	.LVL16:
 178 00a6 9542     		cmp	r5, r2
 179 00a8 EAD8     		bhi	.L9
 180              	.LBB24:
 181              		.loc 1 118 0
 182              	@ 118 "midi_usb.c" 1
 183 00aa 83F31188 		msr     BASEPRI, r3
 184              	@ 0 "" 2
 185              		.thumb
 186              	.LBE24:
 187              		.loc 1 121 0
 188 00ae B2FBF5F3 		udiv	r3, r2, r5
 189              	.LVL17:
 190              		.loc 1 122 0
 191 00b2 D4F8D410 		ldr	r1, [r4, #212]
 192 00b6 05FB03F3 		mul	r3, r5, r3
 193              	.LVL18:
 194 00ba 0868     		ldr	r0, [r1]
 195 00bc 4979     		ldrb	r1, [r1, #5]	@ zero_extendqisi2
 196 00be 04F10C02 		add	r2, r4, #12
 197 00c2 FFF7FEFF 		bl	usbPrepareQueuedReceive
 198              	.LVL19:
 199              	.LBB25:
 200              		.loc 1 125 0
 201 00c6 2023     		movs	r3, #32
 202              	@ 125 "midi_usb.c" 1
 203 00c8 83F31188 		msr     BASEPRI, r3
 204              	@ 0 "" 2
 205              		.thumb
 206              	.LBE25:
 207              		.loc 1 127 0
 208 00cc D4F8D430 		ldr	r3, [r4, #212]
 209 00d0 1868     		ldr	r0, [r3]
 210 00d2 5979     		ldrb	r1, [r3, #5]	@ zero_extendqisi2
 211              		.loc 1 129 0
 212 00d4 BDE83840 		pop	{r3, r4, r5, lr}
 213              		.cfi_restore 14
 214              		.cfi_restore 5
 215              		.cfi_restore 4
 216              		.cfi_restore 3
 217              		.cfi_def_cfa_offset 0
 218              	.LVL20:
 219              		.loc 1 127 0
 220 00d8 FFF7FEBF 		b	usbStartReceiveI
 221              	.LVL21:
 222              		.cfi_endproc
 223              	.LFE138:
 224              		.size	inotify, .-inotify
 225              		.align	2
 226 00dc AFF30080 		.p2align 4,,15
ARM GAS  /tmp/cc9HRptf.s 			page 5


 227              		.thumb
 228              		.thumb_func
 229              		.type	readt, %function
 230              	readt:
 231              	.LFB137:
 232              		.loc 1 91 0
 233              		.cfi_startproc
 234              		@ args = 0, pretend = 0, frame = 0
 235              		@ frame_needed = 0, uses_anonymous_args = 0
 236              		@ link register save eliminated.
 237              	.LVL22:
 238              		.loc 1 93 0
 239 00e0 0C30     		adds	r0, r0, #12
 240              	.LVL23:
 241 00e2 FFF7FEBF 		b	chIQReadTimeout
 242              	.LVL24:
 243              		.cfi_endproc
 244              	.LFE137:
 245              		.size	readt, .-readt
 246 00e6 00BF     		.align	2
 247 00e8 AFF30080 		.p2align 4,,15
 247      AFF30080 
 248              		.thumb
 249              		.thumb_func
 250              		.type	read, %function
 251              	read:
 252              	.LFB131:
 253              		.loc 1 61 0
 254              		.cfi_startproc
 255              		@ args = 0, pretend = 0, frame = 0
 256              		@ frame_needed = 0, uses_anonymous_args = 0
 257              		@ link register save eliminated.
 258              	.LVL25:
 259              		.loc 1 63 0
 260 00f0 0C30     		adds	r0, r0, #12
 261              	.LVL26:
 262 00f2 4FF0FF33 		mov	r3, #-1
 263 00f6 FFF7FEBF 		b	chIQReadTimeout
 264              	.LVL27:
 265              		.cfi_endproc
 266              	.LFE131:
 267              		.size	read, .-read
 268 00fa 00BF     		.align	2
 269 00fc AFF30080 		.p2align 4,,15
 270              		.thumb
 271              		.thumb_func
 272              		.type	writet, %function
 273              	writet:
 274              	.LFB136:
 275              		.loc 1 86 0
 276              		.cfi_startproc
 277              		@ args = 0, pretend = 0, frame = 0
 278              		@ frame_needed = 0, uses_anonymous_args = 0
 279              		@ link register save eliminated.
 280              	.LVL28:
 281              		.loc 1 88 0
 282 0100 3030     		adds	r0, r0, #48
ARM GAS  /tmp/cc9HRptf.s 			page 6


 283              	.LVL29:
 284 0102 FFF7FEBF 		b	chOQWriteTimeout
 285              	.LVL30:
 286              		.cfi_endproc
 287              	.LFE136:
 288              		.size	writet, .-writet
 289 0106 00BF     		.align	2
 290 0108 AFF30080 		.p2align 4,,15
 290      AFF30080 
 291              		.thumb
 292              		.thumb_func
 293              		.type	write, %function
 294              	write:
 295              	.LFB130:
 296              		.loc 1 56 0
 297              		.cfi_startproc
 298              		@ args = 0, pretend = 0, frame = 0
 299              		@ frame_needed = 0, uses_anonymous_args = 0
 300              		@ link register save eliminated.
 301              	.LVL31:
 302              		.loc 1 58 0
 303 0110 3030     		adds	r0, r0, #48
 304              	.LVL32:
 305 0112 4FF0FF33 		mov	r3, #-1
 306 0116 FFF7FEBF 		b	chOQWriteTimeout
 307              	.LVL33:
 308              		.cfi_endproc
 309              	.LFE130:
 310              		.size	write, .-write
 311 011a 00BF     		.align	2
 312 011c AFF30080 		.p2align 4,,15
 313              		.thumb
 314              		.thumb_func
 315              		.type	gett, %function
 316              	gett:
 317              	.LFB135:
 318              		.loc 1 81 0
 319              		.cfi_startproc
 320              		@ args = 0, pretend = 0, frame = 0
 321              		@ frame_needed = 0, uses_anonymous_args = 0
 322              		@ link register save eliminated.
 323              	.LVL34:
 324              		.loc 1 83 0
 325 0120 0C30     		adds	r0, r0, #12
 326              	.LVL35:
 327 0122 FFF7FEBF 		b	chIQGetTimeout
 328              	.LVL36:
 329              		.cfi_endproc
 330              	.LFE135:
 331              		.size	gett, .-gett
 332 0126 00BF     		.align	2
 333 0128 AFF30080 		.p2align 4,,15
 333      AFF30080 
 334              		.thumb
 335              		.thumb_func
 336              		.type	get, %function
 337              	get:
ARM GAS  /tmp/cc9HRptf.s 			page 7


 338              	.LFB133:
 339              		.loc 1 71 0
 340              		.cfi_startproc
 341              		@ args = 0, pretend = 0, frame = 0
 342              		@ frame_needed = 0, uses_anonymous_args = 0
 343              		@ link register save eliminated.
 344              	.LVL37:
 345              		.loc 1 73 0
 346 0130 0C30     		adds	r0, r0, #12
 347              	.LVL38:
 348 0132 4FF0FF31 		mov	r1, #-1
 349 0136 FFF7FEBF 		b	chIQGetTimeout
 350              	.LVL39:
 351              		.cfi_endproc
 352              	.LFE133:
 353              		.size	get, .-get
 354 013a 00BF     		.align	2
 355 013c AFF30080 		.p2align 4,,15
 356              		.thumb
 357              		.thumb_func
 358              		.type	putt, %function
 359              	putt:
 360              	.LFB134:
 361              		.loc 1 76 0
 362              		.cfi_startproc
 363              		@ args = 0, pretend = 0, frame = 0
 364              		@ frame_needed = 0, uses_anonymous_args = 0
 365              		@ link register save eliminated.
 366              	.LVL40:
 367              		.loc 1 78 0
 368 0140 3030     		adds	r0, r0, #48
 369              	.LVL41:
 370 0142 FFF7FEBF 		b	chOQPutTimeout
 371              	.LVL42:
 372              		.cfi_endproc
 373              	.LFE134:
 374              		.size	putt, .-putt
 375 0146 00BF     		.align	2
 376 0148 AFF30080 		.p2align 4,,15
 376      AFF30080 
 377              		.thumb
 378              		.thumb_func
 379              		.type	put, %function
 380              	put:
 381              	.LFB132:
 382              		.loc 1 66 0
 383              		.cfi_startproc
 384              		@ args = 0, pretend = 0, frame = 0
 385              		@ frame_needed = 0, uses_anonymous_args = 0
 386              		@ link register save eliminated.
 387              	.LVL43:
 388              		.loc 1 68 0
 389 0150 3030     		adds	r0, r0, #48
 390              	.LVL44:
 391 0152 4FF0FF32 		mov	r2, #-1
 392 0156 FFF7FEBF 		b	chOQPutTimeout
 393              	.LVL45:
ARM GAS  /tmp/cc9HRptf.s 			page 8


 394              		.cfi_endproc
 395              	.LFE132:
 396              		.size	put, .-put
 397 015a 00BF     		.align	2
 398 015c AFF30080 		.p2align 4,,15
 399              		.global	mduInit
 400              		.thumb
 401              		.thumb_func
 402              		.type	mduInit, %function
 403              	mduInit:
 404              	.LFB140:
 405              		.loc 1 174 0
 406              		.cfi_startproc
 407              		@ args = 0, pretend = 0, frame = 0
 408              		@ frame_needed = 0, uses_anonymous_args = 0
 409              		@ link register save eliminated.
 410 0160 7047     		bx	lr
 411              		.cfi_endproc
 412              	.LFE140:
 413              		.size	mduInit, .-mduInit
 414 0162 00BF     		.align	2
 415 0164 AFF30080 		.p2align 4,,15
 415      AFF30080 
 415      AFF30080 
 416              		.global	mduObjectInit
 417              		.thumb
 418              		.thumb_func
 419              		.type	mduObjectInit, %function
 420              	mduObjectInit:
 421              	.LFB141:
 422              		.loc 1 186 0
 423              		.cfi_startproc
 424              		@ args = 0, pretend = 0, frame = 0
 425              		@ frame_needed = 0, uses_anonymous_args = 0
 426              	.LVL46:
 427              		.loc 1 186 0
 428 0170 10B5     		push	{r4, lr}
 429              		.cfi_def_cfa_offset 8
 430              		.cfi_offset 4, -8
 431              		.cfi_offset 14, -4
 432              		.loc 1 188 0
 433 0172 0346     		mov	r3, r0
 434 0174 0D4A     		ldr	r2, .L24
 435 0176 43F8042B 		str	r2, [r3], #4
 436              		.loc 1 186 0
 437 017a 82B0     		sub	sp, sp, #8
 438              		.cfi_def_cfa_offset 16
 439              		.loc 1 186 0
 440 017c 0446     		mov	r4, r0
 441              		.loc 1 190 0
 442 017e 0122     		movs	r2, #1
 443              		.loc 1 191 0
 444 0180 0090     		str	r0, [sp]
 445 0182 04F15401 		add	r1, r4, #84
 446              		.loc 1 189 0
 447 0186 4360     		str	r3, [r0, #4]
 448              		.loc 1 190 0
ARM GAS  /tmp/cc9HRptf.s 			page 9


 449 0188 0272     		strb	r2, [r0, #8]
 450              		.loc 1 191 0
 451 018a 094B     		ldr	r3, .L24+4
 452 018c 0C30     		adds	r0, r0, #12
 453              	.LVL47:
 454 018e 4022     		movs	r2, #64
 455 0190 FFF7FEFF 		bl	chIQInit
 456              	.LVL48:
 457              		.loc 1 192 0
 458 0194 0094     		str	r4, [sp]
 459 0196 04F13000 		add	r0, r4, #48
 460 019a 04F19401 		add	r1, r4, #148
 461 019e 4022     		movs	r2, #64
 462 01a0 044B     		ldr	r3, .L24+8
 463 01a2 FFF7FEFF 		bl	chOQInit
 464              	.LVL49:
 465              		.loc 1 193 0
 466 01a6 02B0     		add	sp, sp, #8
 467              		.cfi_def_cfa_offset 8
 468              		@ sp needed
 469 01a8 10BD     		pop	{r4, pc}
 470              	.LVL50:
 471              	.L25:
 472 01aa 00BF     		.align	2
 473              	.L24:
 474 01ac 00000000 		.word	.LANCHOR0
 475 01b0 00000000 		.word	inotify
 476 01b4 00000000 		.word	onotify
 477              		.cfi_endproc
 478              	.LFE141:
 479              		.size	mduObjectInit, .-mduObjectInit
 480              		.align	2
 481 01b8 AFF30080 		.p2align 4,,15
 481      AFF30080 
 482              		.global	mduStart
 483              		.thumb
 484              		.thumb_func
 485              		.type	mduStart, %function
 486              	mduStart:
 487              	.LFB142:
 488              		.loc 1 203 0
 489              		.cfi_startproc
 490              		@ args = 0, pretend = 0, frame = 0
 491              		@ frame_needed = 0, uses_anonymous_args = 0
 492              		@ link register save eliminated.
 493              	.LVL51:
 494 01c0 30B4     		push	{r4, r5}
 495              		.cfi_def_cfa_offset 8
 496              		.cfi_offset 4, -8
 497              		.cfi_offset 5, -4
 498              	.LBB26:
 499              		.loc 1 208 0
 500 01c2 2023     		movs	r3, #32
 501              	.LBE26:
 502              		.loc 1 204 0
 503 01c4 0C68     		ldr	r4, [r1]
 504              	.LVL52:
ARM GAS  /tmp/cc9HRptf.s 			page 10


 505              	.LBB27:
 506              		.loc 1 208 0
 507              	@ 208 "midi_usb.c" 1
 508 01c6 83F31188 		msr     BASEPRI, r3
 509              	@ 0 "" 2
 510              		.thumb
 511              	.LBE27:
 512              		.loc 1 212 0
 513 01ca 0B79     		ldrb	r3, [r1, #4]	@ zero_extendqisi2
 514 01cc 04EB8303 		add	r3, r4, r3, lsl #2
 515              		.loc 1 215 0
 516 01d0 0225     		movs	r5, #2
 517              		.loc 1 212 0
 518 01d2 9861     		str	r0, [r3, #24]
 519              		.loc 1 213 0
 520 01d4 4A79     		ldrb	r2, [r1, #5]	@ zero_extendqisi2
 521 01d6 0932     		adds	r2, r2, #9
 522              	.LBB28:
 523              		.loc 1 216 0
 524 01d8 0023     		movs	r3, #0
 525              	.LBE28:
 526              		.loc 1 213 0
 527 01da 44F82200 		str	r0, [r4, r2, lsl #2]
 528              		.loc 1 214 0
 529 01de C0F8D410 		str	r1, [r0, #212]
 530              		.loc 1 215 0
 531 01e2 0572     		strb	r5, [r0, #8]
 532              	.LBB29:
 533              		.loc 1 216 0
 534              	@ 216 "midi_usb.c" 1
 535 01e4 83F31188 		msr     BASEPRI, r3
 536              	@ 0 "" 2
 537              		.thumb
 538              	.LBE29:
 539              		.loc 1 218 0
 540 01e8 30BC     		pop	{r4, r5}
 541              		.cfi_restore 5
 542              		.cfi_restore 4
 543              		.cfi_def_cfa_offset 0
 544              	.LVL53:
 545 01ea 7047     		bx	lr
 546              		.cfi_endproc
 547              	.LFE142:
 548              		.size	mduStart, .-mduStart
 549              		.align	2
 550 01ec AFF30080 		.p2align 4,,15
 551              		.global	mduStop
 552              		.thumb
 553              		.thumb_func
 554              		.type	mduStop, %function
 555              	mduStop:
 556              	.LFB143:
 557              		.loc 1 229 0
 558              		.cfi_startproc
 559              		@ args = 0, pretend = 0, frame = 0
 560              		@ frame_needed = 0, uses_anonymous_args = 0
 561              	.LVL54:
ARM GAS  /tmp/cc9HRptf.s 			page 11


 562              		.loc 1 230 0
 563 01f0 D0F8D420 		ldr	r2, [r0, #212]
 564              		.loc 1 229 0
 565 01f4 38B5     		push	{r3, r4, r5, lr}
 566              		.cfi_def_cfa_offset 16
 567              		.cfi_offset 3, -16
 568              		.cfi_offset 4, -12
 569              		.cfi_offset 5, -8
 570              		.cfi_offset 14, -4
 571              		.loc 1 230 0
 572 01f6 1168     		ldr	r1, [r2]
 573              	.LVL55:
 574              		.loc 1 229 0
 575 01f8 0446     		mov	r4, r0
 576              	.LBB30:
 577              		.loc 1 234 0
 578 01fa 2023     		movs	r3, #32
 579              	@ 234 "midi_usb.c" 1
 580 01fc 83F31188 		msr     BASEPRI, r3
 581              	@ 0 "" 2
 582              		.thumb
 583              	.LBE30:
 584              		.loc 1 241 0
 585 0200 D0F8D430 		ldr	r3, [r0, #212]
 586 0204 1A79     		ldrb	r2, [r3, #4]	@ zero_extendqisi2
 587 0206 0532     		adds	r2, r2, #5
 588 0208 01EB8202 		add	r2, r1, r2, lsl #2
 589 020c 0025     		movs	r5, #0
 590 020e 5560     		str	r5, [r2, #4]
 591              		.loc 1 242 0
 592 0210 5B79     		ldrb	r3, [r3, #5]	@ zero_extendqisi2
 593 0212 0933     		adds	r3, r3, #9
 594              		.loc 1 243 0
 595 0214 0122     		movs	r2, #1
 596              		.loc 1 242 0
 597 0216 41F82350 		str	r5, [r1, r3, lsl #2]
 598              		.loc 1 246 0
 599 021a 0430     		adds	r0, r0, #4
 600              	.LVL56:
 601              		.loc 1 243 0
 602 021c 2272     		strb	r2, [r4, #8]
 603              		.loc 1 246 0
 604 021e 0221     		movs	r1, #2
 605              	.LVL57:
 606 0220 FFF7FEFF 		bl	chEvtBroadcastFlagsI
 607              	.LVL58:
 608              		.loc 1 247 0
 609 0224 04F10C00 		add	r0, r4, #12
 610 0228 FFF7FEFF 		bl	chIQResetI
 611              	.LVL59:
 612              		.loc 1 248 0
 613 022c 04F13000 		add	r0, r4, #48
 614 0230 FFF7FEFF 		bl	chOQResetI
 615              	.LVL60:
 616              		.loc 1 249 0
 617 0234 FFF7FEFF 		bl	chSchRescheduleS
 618              	.LVL61:
ARM GAS  /tmp/cc9HRptf.s 			page 12


 619              	.LBB31:
 620              		.loc 1 251 0
 621 0238 2B46     		mov	r3, r5
 622              	@ 251 "midi_usb.c" 1
 623 023a 83F31188 		msr     BASEPRI, r3
 624              	@ 0 "" 2
 625              		.thumb
 626 023e 38BD     		pop	{r3, r4, r5, pc}
 627              	.LBE31:
 628              		.cfi_endproc
 629              	.LFE143:
 630              		.size	mduStop, .-mduStop
 631              		.align	2
 632              		.p2align 4,,15
 633              		.global	mduConfigureHookI
 634              		.thumb
 635              		.thumb_func
 636              		.type	mduConfigureHookI, %function
 637              	mduConfigureHookI:
 638              	.LFB144:
 639              		.loc 1 262 0
 640              		.cfi_startproc
 641              		@ args = 0, pretend = 0, frame = 0
 642              		@ frame_needed = 0, uses_anonymous_args = 0
 643              	.LVL62:
 644 0240 70B5     		push	{r4, r5, r6, lr}
 645              		.cfi_def_cfa_offset 16
 646              		.cfi_offset 4, -16
 647              		.cfi_offset 5, -12
 648              		.cfi_offset 6, -8
 649              		.cfi_offset 14, -4
 650              		.loc 1 263 0
 651 0242 D0F8D430 		ldr	r3, [r0, #212]
 652              		.loc 1 265 0
 653 0246 00F10C06 		add	r6, r0, #12
 654              		.loc 1 262 0
 655 024a 0446     		mov	r4, r0
 656              		.loc 1 265 0
 657 024c 3046     		mov	r0, r6
 658              	.LVL63:
 659              		.loc 1 263 0
 660 024e 1D68     		ldr	r5, [r3]
 661              	.LVL64:
 662              		.loc 1 265 0
 663 0250 FFF7FEFF 		bl	chIQResetI
 664              	.LVL65:
 665              		.loc 1 266 0
 666 0254 04F13000 		add	r0, r4, #48
 667 0258 FFF7FEFF 		bl	chOQResetI
 668              	.LVL66:
 669              		.loc 1 267 0
 670 025c 201D     		adds	r0, r4, #4
 671 025e 0121     		movs	r1, #1
 672 0260 FFF7FEFF 		bl	chEvtBroadcastFlagsI
 673              	.LVL67:
 674              		.loc 1 271 0
 675 0264 D4F8D430 		ldr	r3, [r4, #212]
ARM GAS  /tmp/cc9HRptf.s 			page 13


 676 0268 5979     		ldrb	r1, [r3, #5]	@ zero_extendqisi2
 677 026a 05EB8103 		add	r3, r5, r1, lsl #2
 678              		.loc 1 270 0
 679 026e 2846     		mov	r0, r5
 680              		.loc 1 271 0
 681 0270 DB68     		ldr	r3, [r3, #12]
 682              		.loc 1 270 0
 683 0272 3246     		mov	r2, r6
 684 0274 5B8A     		ldrh	r3, [r3, #18]
 685 0276 FFF7FEFF 		bl	usbPrepareQueuedReceive
 686              	.LVL68:
 687              		.loc 1 272 0
 688 027a D4F8D430 		ldr	r3, [r4, #212]
 689 027e 2846     		mov	r0, r5
 690 0280 5979     		ldrb	r1, [r3, #5]	@ zero_extendqisi2
 691              		.loc 1 273 0
 692 0282 BDE87040 		pop	{r4, r5, r6, lr}
 693              		.cfi_restore 14
 694              		.cfi_restore 6
 695              		.cfi_restore 5
 696              		.cfi_restore 4
 697              		.cfi_def_cfa_offset 0
 698              	.LVL69:
 699              		.loc 1 272 0
 700 0286 FFF7FEBF 		b	usbStartReceiveI
 701              	.LVL70:
 702              		.cfi_endproc
 703              	.LFE144:
 704              		.size	mduConfigureHookI, .-mduConfigureHookI
 705 028a 00BF     		.align	2
 706 028c AFF30080 		.p2align 4,,15
 707              		.global	mduRequestsHook
 708              		.thumb
 709              		.thumb_func
 710              		.type	mduRequestsHook, %function
 711              	mduRequestsHook:
 712              	.LFB145:
 713              		.loc 1 290 0
 714              		.cfi_startproc
 715              		@ args = 0, pretend = 0, frame = 0
 716              		@ frame_needed = 0, uses_anonymous_args = 0
 717              		@ link register save eliminated.
 718              	.LVL71:
 719              		.loc 1 294 0
 720 0290 0020     		movs	r0, #0
 721              	.LVL72:
 722 0292 7047     		bx	lr
 723              		.cfi_endproc
 724              	.LFE145:
 725              		.size	mduRequestsHook, .-mduRequestsHook
 726              		.align	2
 727 0294 AFF30080 		.p2align 4,,15
 727      AFF30080 
 727      AFF30080 
 728              		.global	mduDataTransmitted
 729              		.thumb
 730              		.thumb_func
ARM GAS  /tmp/cc9HRptf.s 			page 14


 731              		.type	mduDataTransmitted, %function
 732              	mduDataTransmitted:
 733              	.LFB146:
 734              		.loc 1 304 0
 735              		.cfi_startproc
 736              		@ args = 0, pretend = 0, frame = 0
 737              		@ frame_needed = 0, uses_anonymous_args = 0
 738              	.LVL73:
 739 02a0 2DE9F041 		push	{r4, r5, r6, r7, r8, lr}
 740              		.cfi_def_cfa_offset 24
 741              		.cfi_offset 4, -24
 742              		.cfi_offset 5, -20
 743              		.cfi_offset 6, -16
 744              		.cfi_offset 7, -12
 745              		.cfi_offset 8, -8
 746              		.cfi_offset 14, -4
 747 02a4 00EB8108 		add	r8, r0, r1, lsl #2
 748              		.loc 1 306 0
 749 02a8 D8F81840 		ldr	r4, [r8, #24]
 750              	.LVL74:
 751              		.loc 1 308 0
 752 02ac B4B1     		cbz	r4, .L33
 753 02ae 0F46     		mov	r7, r1
 754 02b0 0646     		mov	r6, r0
 755              	.LBB32:
 756              		.loc 1 311 0
 757 02b2 2023     		movs	r3, #32
 758              	@ 311 "midi_usb.c" 1
 759 02b4 83F31188 		msr     BASEPRI, r3
 760              	@ 0 "" 2
 761              		.thumb
 762              	.LBE32:
 763              		.loc 1 313 0
 764 02b8 0821     		movs	r1, #8
 765              	.LVL75:
 766 02ba 201D     		adds	r0, r4, #4
 767              	.LVL76:
 768 02bc FFF7FEFF 		bl	chEvtBroadcastFlagsI
 769              	.LVL77:
 770              		.loc 1 315 0
 771 02c0 226C     		ldr	r2, [r4, #64]
 772 02c2 E36B     		ldr	r3, [r4, #60]
 773 02c4 A56B     		ldr	r5, [r4, #56]
 774 02c6 D31A     		subs	r3, r2, r3
 775              	.LVL78:
 776 02c8 5D1B     		subs	r5, r3, r5
 777              	.LVL79:
 778 02ca 12D1     		bne	.L45
 779              		.loc 1 327 0
 780 02cc D8F80C30 		ldr	r3, [r8, #12]
 781 02d0 5A69     		ldr	r2, [r3, #20]
 782 02d2 5268     		ldr	r2, [r2, #4]
 783 02d4 22B9     		cbnz	r2, .L46
 784              	.L36:
 785              	.LBB33:
 786              		.loc 1 343 0
 787 02d6 0023     		movs	r3, #0
ARM GAS  /tmp/cc9HRptf.s 			page 15


 788              	@ 343 "midi_usb.c" 1
 789 02d8 83F31188 		msr     BASEPRI, r3
 790              	@ 0 "" 2
 791              	.LVL80:
 792              		.thumb
 793              	.L33:
 794 02dc BDE8F081 		pop	{r4, r5, r6, r7, r8, pc}
 795              	.LVL81:
 796              	.L46:
 797              	.LBE33:
 798              		.loc 1 328 0
 799 02e0 1B8A     		ldrh	r3, [r3, #16]
 800 02e2 013B     		subs	r3, r3, #1
 801 02e4 1340     		ands	r3, r3, r2
 802 02e6 F6D1     		bne	.L36
 803              	.LBB34:
 804              		.loc 1 333 0
 805              	@ 333 "midi_usb.c" 1
 806 02e8 83F31188 		msr     BASEPRI, r3
 807              	@ 0 "" 2
 808              		.thumb
 809              	.LBE34:
 810              		.loc 1 336 0
 811 02ec 04F13002 		add	r2, r4, #48
 812 02f0 05E0     		b	.L44
 813              	.L45:
 814              	.LBB35:
 815              		.loc 1 318 0
 816 02f2 0023     		movs	r3, #0
 817              	@ 318 "midi_usb.c" 1
 818 02f4 83F31188 		msr     BASEPRI, r3
 819              	@ 0 "" 2
 820              		.thumb
 821              	.LBE35:
 822              		.loc 1 321 0
 823 02f8 04F13002 		add	r2, r4, #48
 824 02fc 2B46     		mov	r3, r5
 825              	.L44:
 826              		.loc 1 336 0
 827 02fe 3046     		mov	r0, r6
 828 0300 3946     		mov	r1, r7
 829 0302 FFF7FEFF 		bl	usbPrepareQueuedTransmit
 830              	.LVL82:
 831              	.LBB36:
 832              		.loc 1 338 0
 833 0306 2023     		movs	r3, #32
 834              	@ 338 "midi_usb.c" 1
 835 0308 83F31188 		msr     BASEPRI, r3
 836              	@ 0 "" 2
 837              		.thumb
 838              	.LBE36:
 839              		.loc 1 340 0
 840 030c 3046     		mov	r0, r6
 841 030e 3946     		mov	r1, r7
 842 0310 FFF7FEFF 		bl	usbStartTransmitI
 843              	.LVL83:
 844 0314 DFE7     		b	.L36
ARM GAS  /tmp/cc9HRptf.s 			page 16


 845              		.cfi_endproc
 846              	.LFE146:
 847              		.size	mduDataTransmitted, .-mduDataTransmitted
 848 0316 00BF     		.align	2
 849 0318 AFF30080 		.p2align 4,,15
 849      AFF30080 
 850              		.global	mduDataReceived
 851              		.thumb
 852              		.thumb_func
 853              		.type	mduDataReceived, %function
 854              	mduDataReceived:
 855              	.LFB147:
 856              		.loc 1 355 0
 857              		.cfi_startproc
 858              		@ args = 0, pretend = 0, frame = 0
 859              		@ frame_needed = 0, uses_anonymous_args = 0
 860              	.LVL84:
 861 0320 2DE9F041 		push	{r4, r5, r6, r7, r8, lr}
 862              		.cfi_def_cfa_offset 24
 863              		.cfi_offset 4, -24
 864              		.cfi_offset 5, -20
 865              		.cfi_offset 6, -16
 866              		.cfi_offset 7, -12
 867              		.cfi_offset 8, -8
 868              		.cfi_offset 14, -4
 869 0324 00EB8104 		add	r4, r0, r1, lsl #2
 870              		.loc 1 357 0
 871 0328 666A     		ldr	r6, [r4, #36]
 872              	.LVL85:
 873              		.loc 1 359 0
 874 032a A6B1     		cbz	r6, .L47
 875 032c 0F46     		mov	r7, r1
 876 032e 8046     		mov	r8, r0
 877              	.LBB37:
 878              		.loc 1 362 0
 879 0330 2023     		movs	r3, #32
 880              	@ 362 "midi_usb.c" 1
 881 0332 83F31188 		msr     BASEPRI, r3
 882              	@ 0 "" 2
 883              		.thumb
 884              	.LBE37:
 885              		.loc 1 364 0
 886 0336 0421     		movs	r1, #4
 887              	.LVL86:
 888 0338 7018     		adds	r0, r6, r1
 889              	.LVL87:
 890 033a FFF7FEFF 		bl	chEvtBroadcastFlagsI
 891              	.LVL88:
 892              		.loc 1 369 0
 893 033e 06F11403 		add	r3, r6, #20
 894              		.loc 1 368 0
 895 0342 E268     		ldr	r2, [r4, #12]
 896              		.loc 1 369 0
 897 0344 38CB     		ldmia	r3, {r3, r4, r5}
 898              		.loc 1 368 0
 899 0346 518A     		ldrh	r1, [r2, #18]
 900              	.LVL89:
ARM GAS  /tmp/cc9HRptf.s 			page 17


 901              		.loc 1 369 0
 902 0348 2D1B     		subs	r5, r5, r4
 903 034a EC1A     		subs	r4, r5, r3
 904              	.LVL90:
 905 034c A142     		cmp	r1, r4
 906 034e 04D9     		bls	.L54
 907              	.LVL91:
 908              	.L49:
 909              	.LBB38:
 910              		.loc 1 383 0
 911 0350 0023     		movs	r3, #0
 912              	@ 383 "midi_usb.c" 1
 913 0352 83F31188 		msr     BASEPRI, r3
 914              	@ 0 "" 2
 915              	.LVL92:
 916              		.thumb
 917              	.L47:
 918 0356 BDE8F081 		pop	{r4, r5, r6, r7, r8, pc}
 919              	.LVL93:
 920              	.L54:
 921              	.LBE38:
 922              	.LBB39:
 923              		.loc 1 372 0
 924 035a 0023     		movs	r3, #0
 925              	@ 372 "midi_usb.c" 1
 926 035c 83F31188 		msr     BASEPRI, r3
 927              	@ 0 "" 2
 928              		.thumb
 929              	.LBE39:
 930              		.loc 1 375 0
 931 0360 B4FBF1F3 		udiv	r3, r4, r1
 932              	.LVL94:
 933              		.loc 1 376 0
 934 0364 06F10C02 		add	r2, r6, #12
 935 0368 01FB03F3 		mul	r3, r1, r3
 936              	.LVL95:
 937 036c 4046     		mov	r0, r8
 938 036e 3946     		mov	r1, r7
 939              	.LVL96:
 940 0370 FFF7FEFF 		bl	usbPrepareQueuedReceive
 941              	.LVL97:
 942              	.LBB40:
 943              		.loc 1 378 0
 944 0374 2023     		movs	r3, #32
 945              	@ 378 "midi_usb.c" 1
 946 0376 83F31188 		msr     BASEPRI, r3
 947              	@ 0 "" 2
 948              		.thumb
 949              	.LBE40:
 950              		.loc 1 380 0
 951 037a 4046     		mov	r0, r8
 952 037c 3946     		mov	r1, r7
 953 037e FFF7FEFF 		bl	usbStartReceiveI
 954              	.LVL98:
 955 0382 E5E7     		b	.L49
 956              		.cfi_endproc
 957              	.LFE147:
ARM GAS  /tmp/cc9HRptf.s 			page 18


 958              		.size	mduDataReceived, .-mduDataReceived
 959              		.align	2
 960 0384 AFF30080 		.p2align 4,,15
 960      AFF30080 
 960      AFF30080 
 961              		.global	calcDS1
 962              		.thumb
 963              		.thumb_func
 964              		.type	calcDS1, %function
 965              	calcDS1:
 966              	.LFB148:
 967              		.loc 1 388 0
 968              		.cfi_startproc
 969              		@ args = 0, pretend = 0, frame = 0
 970              		@ frame_needed = 0, uses_anonymous_args = 0
 971              		@ link register save eliminated.
 972              	.LVL99:
 973              		.loc 1 393 0
 974 0390 0009     		lsrs	r0, r0, #4
 975              	.LVL100:
 976 0392 7047     		bx	lr
 977              		.cfi_endproc
 978              	.LFE148:
 979              		.size	calcDS1, .-calcDS1
 980              		.align	2
 981 0394 AFF30080 		.p2align 4,,15
 981      AFF30080 
 981      AFF30080 
 982              		.global	calcCIN1
 983              		.thumb
 984              		.thumb_func
 985              		.type	calcCIN1, %function
 986              	calcCIN1:
 987              	.LFB149:
 988              		.loc 1 395 0
 989              		.cfi_startproc
 990              		@ args = 0, pretend = 0, frame = 0
 991              		@ frame_needed = 0, uses_anonymous_args = 0
 992              		@ link register save eliminated.
 993              	.LVL101:
 994              	.LBB41:
 995              	.LBB42:
 996              		.loc 1 391 0
 997 03a0 0909     		lsrs	r1, r1, #4
 998              	.LVL102:
 999              	.LBE42:
 1000              	.LBE41:
 1001              		.loc 1 397 0
 1002 03a2 0138     		subs	r0, r0, #1
 1003              	.LVL103:
 1004 03a4 41EA0010 		orr	r0, r1, r0, lsl #4
 1005              		.loc 1 399 0
 1006 03a8 C0B2     		uxtb	r0, r0
 1007 03aa 7047     		bx	lr
 1008              		.cfi_endproc
 1009              	.LFE149:
 1010              		.size	calcCIN1, .-calcCIN1
ARM GAS  /tmp/cc9HRptf.s 			page 19


 1011              		.align	2
 1012 03ac AFF30080 		.p2align 4,,15
 1013              		.global	midi_usb_MidiSend1
 1014              		.thumb
 1015              		.thumb_func
 1016              		.type	midi_usb_MidiSend1, %function
 1017              	midi_usb_MidiSend1:
 1018              	.LFB150:
 1019              		.loc 1 401 0
 1020              		.cfi_startproc
 1021              		@ args = 0, pretend = 0, frame = 8
 1022              		@ frame_needed = 0, uses_anonymous_args = 0
 1023              	.LVL104:
 1024 03b0 30B5     		push	{r4, r5, lr}
 1025              		.cfi_def_cfa_offset 12
 1026              		.cfi_offset 4, -12
 1027              		.cfi_offset 5, -8
 1028              		.cfi_offset 14, -4
 1029 03b2 83B0     		sub	sp, sp, #12
 1030              		.cfi_def_cfa_offset 24
 1031              	.LBB43:
 1032              	.LBB44:
 1033              	.LBB45:
 1034              	.LBB46:
 1035              		.loc 1 391 0
 1036 03b4 0B09     		lsrs	r3, r1, #4
 1037              	.LBE46:
 1038              	.LBE45:
 1039              		.loc 1 397 0
 1040 03b6 0138     		subs	r0, r0, #1
 1041              	.LVL105:
 1042 03b8 43EA0014 		orr	r4, r3, r0, lsl #4
 1043              	.LBE44:
 1044              	.LBE43:
 1045              		.loc 1 405 0
 1046 03bc 0025     		movs	r5, #0
 1047              		.loc 1 404 0
 1048 03be 8DF80510 		strb	r1, [sp, #5]
 1049              	.LBB47:
 1050              	.LBB48:
 1051              		.loc 1 58 0
 1052 03c2 0422     		movs	r2, #4
 1053 03c4 01A9     		add	r1, sp, #4
 1054              	.LVL106:
 1055 03c6 4FF0FF33 		mov	r3, #-1
 1056 03ca 0548     		ldr	r0, .L59
 1057              	.LBE48:
 1058              	.LBE47:
 1059              		.loc 1 403 0
 1060 03cc 8DF80440 		strb	r4, [sp, #4]
 1061              		.loc 1 405 0
 1062 03d0 8DF80650 		strb	r5, [sp, #6]
 1063              		.loc 1 406 0
 1064 03d4 8DF80750 		strb	r5, [sp, #7]
 1065              	.LVL107:
 1066              	.LBB50:
 1067              	.LBB49:
ARM GAS  /tmp/cc9HRptf.s 			page 20


 1068              		.loc 1 58 0
 1069 03d8 FFF7FEFF 		bl	chOQWriteTimeout
 1070              	.LVL108:
 1071              	.LBE49:
 1072              	.LBE50:
 1073              		.loc 1 408 0
 1074 03dc 03B0     		add	sp, sp, #12
 1075              		.cfi_def_cfa_offset 12
 1076              		@ sp needed
 1077 03de 30BD     		pop	{r4, r5, pc}
 1078              	.LVL109:
 1079              	.L60:
 1080              		.align	2
 1081              	.L59:
 1082 03e0 30000000 		.word	MDU1+48
 1083              		.cfi_endproc
 1084              	.LFE150:
 1085              		.size	midi_usb_MidiSend1, .-midi_usb_MidiSend1
 1086              		.align	2
 1087 03e4 AFF30080 		.p2align 4,,15
 1087      AFF30080 
 1087      AFF30080 
 1088              		.global	midi_usb_MidiSend2
 1089              		.thumb
 1090              		.thumb_func
 1091              		.type	midi_usb_MidiSend2, %function
 1092              	midi_usb_MidiSend2:
 1093              	.LFB151:
 1094              		.loc 1 410 0
 1095              		.cfi_startproc
 1096              		@ args = 0, pretend = 0, frame = 8
 1097              		@ frame_needed = 0, uses_anonymous_args = 0
 1098              	.LVL110:
 1099 03f0 30B5     		push	{r4, r5, lr}
 1100              		.cfi_def_cfa_offset 12
 1101              		.cfi_offset 4, -12
 1102              		.cfi_offset 5, -8
 1103              		.cfi_offset 14, -4
 1104 03f2 83B0     		sub	sp, sp, #12
 1105              		.cfi_def_cfa_offset 24
 1106              	.LBB51:
 1107              	.LBB52:
 1108              	.LBB53:
 1109              	.LBB54:
 1110              		.loc 1 391 0
 1111 03f4 0B09     		lsrs	r3, r1, #4
 1112              	.LBE54:
 1113              	.LBE53:
 1114              		.loc 1 397 0
 1115 03f6 0138     		subs	r0, r0, #1
 1116              	.LVL111:
 1117 03f8 43EA0014 		orr	r4, r3, r0, lsl #4
 1118              	.LBE52:
 1119              	.LBE51:
 1120              		.loc 1 414 0
 1121 03fc 8DF80620 		strb	r2, [sp, #6]
 1122              		.loc 1 413 0
ARM GAS  /tmp/cc9HRptf.s 			page 21


 1123 0400 8DF80510 		strb	r1, [sp, #5]
 1124              		.loc 1 415 0
 1125 0404 0025     		movs	r5, #0
 1126              	.LBB55:
 1127              	.LBB56:
 1128              		.loc 1 58 0
 1129 0406 01A9     		add	r1, sp, #4
 1130              	.LVL112:
 1131 0408 0422     		movs	r2, #4
 1132              	.LVL113:
 1133 040a 4FF0FF33 		mov	r3, #-1
 1134 040e 0448     		ldr	r0, .L63
 1135              	.LBE56:
 1136              	.LBE55:
 1137              		.loc 1 412 0
 1138 0410 8DF80440 		strb	r4, [sp, #4]
 1139              		.loc 1 415 0
 1140 0414 8DF80750 		strb	r5, [sp, #7]
 1141              	.LVL114:
 1142              	.LBB58:
 1143              	.LBB57:
 1144              		.loc 1 58 0
 1145 0418 FFF7FEFF 		bl	chOQWriteTimeout
 1146              	.LVL115:
 1147              	.LBE57:
 1148              	.LBE58:
 1149              		.loc 1 417 0
 1150 041c 03B0     		add	sp, sp, #12
 1151              		.cfi_def_cfa_offset 12
 1152              		@ sp needed
 1153 041e 30BD     		pop	{r4, r5, pc}
 1154              	.LVL116:
 1155              	.L64:
 1156              		.align	2
 1157              	.L63:
 1158 0420 30000000 		.word	MDU1+48
 1159              		.cfi_endproc
 1160              	.LFE151:
 1161              		.size	midi_usb_MidiSend2, .-midi_usb_MidiSend2
 1162              		.align	2
 1163 0424 AFF30080 		.p2align 4,,15
 1163      AFF30080 
 1163      AFF30080 
 1164              		.global	midi_usb_MidiSend3
 1165              		.thumb
 1166              		.thumb_func
 1167              		.type	midi_usb_MidiSend3, %function
 1168              	midi_usb_MidiSend3:
 1169              	.LFB152:
 1170              		.loc 1 419 0
 1171              		.cfi_startproc
 1172              		@ args = 0, pretend = 0, frame = 8
 1173              		@ frame_needed = 0, uses_anonymous_args = 0
 1174              	.LVL117:
 1175 0430 10B5     		push	{r4, lr}
 1176              		.cfi_def_cfa_offset 8
 1177              		.cfi_offset 4, -8
ARM GAS  /tmp/cc9HRptf.s 			page 22


 1178              		.cfi_offset 14, -4
 1179 0432 82B0     		sub	sp, sp, #8
 1180              		.cfi_def_cfa_offset 16
 1181              	.LBB59:
 1182              	.LBB60:
 1183              		.loc 1 397 0
 1184 0434 0138     		subs	r0, r0, #1
 1185              	.LVL118:
 1186              	.LBB61:
 1187              	.LBB62:
 1188              		.loc 1 391 0
 1189 0436 0C09     		lsrs	r4, r1, #4
 1190              	.LBE62:
 1191              	.LBE61:
 1192              		.loc 1 397 0
 1193 0438 44EA0014 		orr	r4, r4, r0, lsl #4
 1194              	.LBE60:
 1195              	.LBE59:
 1196              		.loc 1 423 0
 1197 043c 8DF80620 		strb	r2, [sp, #6]
 1198              		.loc 1 424 0
 1199 0440 8DF80730 		strb	r3, [sp, #7]
 1200              	.LVL119:
 1201              		.loc 1 422 0
 1202 0444 8DF80510 		strb	r1, [sp, #5]
 1203              	.LBB63:
 1204              	.LBB64:
 1205              		.loc 1 58 0
 1206 0448 0422     		movs	r2, #4
 1207              	.LVL120:
 1208 044a 01A9     		add	r1, sp, #4
 1209              	.LVL121:
 1210 044c 4FF0FF33 		mov	r3, #-1
 1211              	.LVL122:
 1212 0450 0348     		ldr	r0, .L67
 1213              	.LBE64:
 1214              	.LBE63:
 1215              		.loc 1 421 0
 1216 0452 8DF80440 		strb	r4, [sp, #4]
 1217              	.LBB66:
 1218              	.LBB65:
 1219              		.loc 1 58 0
 1220 0456 FFF7FEFF 		bl	chOQWriteTimeout
 1221              	.LVL123:
 1222              	.LBE65:
 1223              	.LBE66:
 1224              		.loc 1 426 0
 1225 045a 02B0     		add	sp, sp, #8
 1226              		.cfi_def_cfa_offset 8
 1227              		@ sp needed
 1228 045c 10BD     		pop	{r4, pc}
 1229              	.LVL124:
 1230              	.L68:
 1231 045e 00BF     		.align	2
 1232              	.L67:
 1233 0460 30000000 		.word	MDU1+48
 1234              		.cfi_endproc
ARM GAS  /tmp/cc9HRptf.s 			page 23


 1235              	.LFE152:
 1236              		.size	midi_usb_MidiSend3, .-midi_usb_MidiSend3
 1237              		.section	.rodata
 1238              		.align	2
 1239              		.set	.LANCHOR0,. + 0
 1240              		.type	vmt, %object
 1241              		.size	vmt, 32
 1242              	vmt:
 1243 0000 00000000 		.word	write
 1244 0004 00000000 		.word	read
 1245 0008 00000000 		.word	put
 1246 000c 00000000 		.word	get
 1247 0010 00000000 		.word	putt
 1248 0014 00000000 		.word	gett
 1249 0018 00000000 		.word	writet
 1250 001c 00000000 		.word	readt
 1251              		.text
 1252              	.Letext0:
 1253              		.file 2 "/home/sbcu/Dropbox/pcb-layouts/axo-on-discovery-board/axoloti/platform_linux/lib/gcc/arm-
 1254              		.file 3 "/home/sbcu/Dropbox/pcb-layouts/axo-on-discovery-board/axoloti/platform_linux/arm-none-eab
 1255              		.file 4 "/home/sbcu/Dropbox/pcb-layouts/axo-on-discovery-board/axoloti/platform_linux/arm-none-eab
 1256              		.file 5 "/home/sbcu/Dropbox/pcb-layouts/axo-on-discovery-board/axoloti/platform_linux/../chibios/o
 1257              		.file 6 "/home/sbcu/Dropbox/pcb-layouts/axo-on-discovery-board/axoloti/platform_linux/../chibios/o
 1258              		.file 7 "/home/sbcu/Dropbox/pcb-layouts/axo-on-discovery-board/axoloti/platform_linux/../chibios/o
 1259              		.file 8 "/home/sbcu/Dropbox/pcb-layouts/axo-on-discovery-board/axoloti/platform_linux/../chibios/o
 1260              		.file 9 "/home/sbcu/Dropbox/pcb-layouts/axo-on-discovery-board/axoloti/platform_linux/../chibios/o
 1261              		.file 10 "/home/sbcu/Dropbox/pcb-layouts/axo-on-discovery-board/axoloti/platform_linux/../chibios/
 1262              		.file 11 "/home/sbcu/Dropbox/pcb-layouts/axo-on-discovery-board/axoloti/platform_linux/../chibios/
 1263              		.file 12 "/home/sbcu/Dropbox/pcb-layouts/axo-on-discovery-board/axoloti/platform_linux/../chibios/
 1264              		.file 13 "/home/sbcu/Dropbox/pcb-layouts/axo-on-discovery-board/axoloti/platform_linux/../chibios/
 1265              		.file 14 "/home/sbcu/Dropbox/pcb-layouts/axo-on-discovery-board/axoloti/platform_linux/../chibios/
 1266              		.file 15 "midi_usb.h"
 1267              		.file 16 "/home/sbcu/Dropbox/pcb-layouts/axo-on-discovery-board/axoloti/platform_linux/../CMSIS//I
 1268              		.file 17 "usbcfg.h"
 1269              		.file 18 "/home/sbcu/Dropbox/pcb-layouts/axo-on-discovery-board/axoloti/platform_linux/../chibios/