ARM GAS  /tmp/ccdXBqHP.s 			page 1


   1              		.syntax unified
   2              		.cpu cortex-m4
   3              		.eabi_attribute 27, 1
   4              		.eabi_attribute 28, 1
   5              		.fpu fpv4-sp-d16
   6              		.eabi_attribute 20, 1
   7              		.eabi_attribute 21, 1
   8              		.eabi_attribute 23, 3
   9              		.eabi_attribute 24, 1
  10              		.eabi_attribute 25, 1
  11              		.eabi_attribute 26, 1
  12              		.eabi_attribute 30, 2
  13              		.eabi_attribute 34, 1
  14              		.eabi_attribute 18, 4
  15              		.thumb
  16              		.file	"multistage_envelope.cpp"
  17              		.text
  18              	.Ltext0:
  19              		.cfi_sections	.debug_frame
  20              		.align	2
  21              		.p2align 4,,15
  22              		.global	_ZN8elements18MultistageEnvelope4InitEv
  23              		.thumb
  24              		.thumb_func
  25              		.type	_ZN8elements18MultistageEnvelope4InitEv, %function
  26              	_ZN8elements18MultistageEnvelope4InitEv:
  27              		.fnstart
  28              	.LFB464:
  29              		.file 1 "./mutable_instruments/elements/dsp/multistage_envelope.cpp"
  30              		.loc 1 38 0
  31              		.cfi_startproc
  32              		@ args = 0, pretend = 0, frame = 0
  33              		@ frame_needed = 0, uses_anonymous_args = 0
  34              	.LVL0:
  35 0000 F0B5     		push	{r4, r5, r6, r7, lr}
  36              		.cfi_def_cfa_offset 20
  37              		.cfi_offset 4, -20
  38              		.cfi_offset 5, -16
  39              		.cfi_offset 6, -12
  40              		.cfi_offset 7, -8
  41              		.cfi_offset 14, -4
  42              	.LBB4:
  43              	.LBB5:
  44              		.file 2 "./mutable_instruments/elements/dsp/multistage_envelope.h"
  45              		.loc 2 124 0
  46 0002 0023     		movs	r3, #0
  47              		.loc 2 137 0
  48 0004 0022     		movs	r2, #0
  49              		.loc 2 121 0
  50 0006 0326     		movs	r6, #3
  51              		.loc 2 122 0
  52 0008 0225     		movs	r5, #2
  53              		.loc 2 126 0
  54 000a 4FF07A54 		mov	r4, #1048576000
  55              		.loc 2 134 0
  56 000e 0121     		movs	r1, #1
  57              		.loc 2 125 0
ARM GAS  /tmp/ccdXBqHP.s 			page 2


  58 0010 4FF07E5E 		mov	lr, #1065353216
  59              		.loc 2 131 0
  60 0014 4FF07C57 		mov	r7, #1056964608
  61              		.loc 2 125 0
  62 0018 C0F804E0 		str	lr, [r0, #4]	@ float
  63              		.loc 2 131 0
  64 001c 0762     		str	r7, [r0, #32]	@ float
  65              		.loc 2 121 0
  66 001e A0F84460 		strh	r6, [r0, #68]	@ movhi
  67              	.LBE5:
  68              	.LBE4:
  69              		.loc 1 40 0
  70 0022 C686     		strh	r6, [r0, #54]	@ movhi
  71              	.LBB8:
  72              	.LBB6:
  73              		.loc 2 122 0
  74 0024 A0F84650 		strh	r5, [r0, #70]	@ movhi
  75              		.loc 2 133 0
  76 0028 80F83050 		strb	r5, [r0, #48]
  77              		.loc 2 124 0
  78 002c 0360     		str	r3, [r0]	@ float
  79              		.loc 2 127 0
  80 002e C360     		str	r3, [r0, #12]	@ float
  81              		.loc 2 129 0
  82 0030 8361     		str	r3, [r0, #24]	@ float
  83              	.LBE6:
  84              	.LBE8:
  85              		.loc 1 41 0
  86 0032 0364     		str	r3, [r0, #64]	@ float
  87              		.loc 1 42 0
  88 0034 8363     		str	r3, [r0, #56]	@ float
  89              		.loc 1 43 0
  90 0036 C363     		str	r3, [r0, #60]	@ float
  91              	.LBB9:
  92              	.LBB7:
  93              		.loc 2 126 0
  94 0038 8460     		str	r4, [r0, #8]	@ float
  95              		.loc 2 130 0
  96 003a C461     		str	r4, [r0, #28]	@ float
  97              		.loc 2 134 0
  98 003c 80F83110 		strb	r1, [r0, #49]
  99              		.loc 2 135 0
 100 0040 80F83210 		strb	r1, [r0, #50]
 101              		.loc 2 137 0
 102 0044 A0F84A20 		strh	r2, [r0, #74]	@ movhi
 103 0048 A0F84820 		strh	r2, [r0, #72]	@ movhi
 104              	.LBE7:
 105              	.LBE9:
 106              		.loc 1 44 0
 107 004c 80F84C20 		strb	r2, [r0, #76]
 108 0050 F0BD     		pop	{r4, r5, r6, r7, pc}
 109              		.cfi_endproc
 110              	.LFE464:
 111              		.cantunwind
 112              		.fnend
 113              		.size	_ZN8elements18MultistageEnvelope4InitEv, .-_ZN8elements18MultistageEnvelope4InitEv
 114              	.Letext0:
ARM GAS  /tmp/ccdXBqHP.s 			page 3


 115              		.file 3 "/home/sbcu/Dropbox/pcb-layouts/axo-on-discovery-board/axoloti/platform_linux/arm-none-eab
 116              		.file 4 "/home/sbcu/Dropbox/pcb-layouts/axo-on-discovery-board/axoloti/platform_linux/arm-none-eab
 117              		.file 5 "/home/sbcu/Dropbox/pcb-layouts/axo-on-discovery-board/axoloti/platform_linux/lib/gcc/arm-
 118              		.file 6 "./mutable_instruments/stmlib/stmlib.h"
 119              		.file 7 "./mutable_instruments/elements/../mutable_resources.h"
 120              		.file 8 "./mutable_instruments/elements/resources.h"
 121              		.file 9 "/home/sbcu/Dropbox/pcb-layouts/axo-on-discovery-board/axoloti/platform_linux/arm-none-eab
 122              		.file 10 "/home/sbcu/Dropbox/pcb-layouts/axo-on-discovery-board/axoloti/platform_linux/arm-none-ea
 123              		.file 11 "/home/sbcu/Dropbox/pcb-layouts/axo-on-discovery-board/axoloti/platform_linux/arm-none-ea
 124              		.file 12 "/home/sbcu/Dropbox/pcb-layouts/axo-on-discovery-board/axoloti/platform_linux/arm-none-ea
 125              		.file 13 "/home/sbcu/Dropbox/pcb-layouts/axo-on-discovery-board/axoloti/platform_linux/arm-none-ea
 126              		.file 14 "/home/sbcu/Dropbox/pcb-layouts/axo-on-discovery-board/axoloti/platform_linux/arm-none-ea
 127              		.file 15 "/home/sbcu/Dropbox/pcb-layouts/axo-on-discovery-board/axoloti/platform_linux/arm-none-ea
 128              		.file 16 "/home/sbcu/Dropbox/pcb-layouts/axo-on-discovery-board/axoloti/platform_linux/arm-none-ea
 129              		.file 17 "/home/sbcu/Dropbox/pcb-layouts/axo-on-discovery-board/axoloti/platform_linux/arm-none-ea
 130              		.file 18 "<built-in>"