ARM GAS  /tmp/ccytw9ax.s 			page 1


   1              		.syntax unified
   2              		.cpu cortex-m4
   3              		.eabi_attribute 27, 1
   4              		.eabi_attribute 28, 1
   5              		.fpu fpv4-sp-d16
   6              		.eabi_attribute 20, 1
   7              		.eabi_attribute 21, 1
   8              		.eabi_attribute 23, 3
   9              		.eabi_attribute 24, 1
  10              		.eabi_attribute 25, 1
  11              		.eabi_attribute 26, 1
  12              		.eabi_attribute 30, 2
  13              		.eabi_attribute 34, 1
  14              		.eabi_attribute 18, 4
  15              		.thumb
  16              		.file	"nvic.c"
  17              		.text
  18              	.Ltext0:
  19              		.cfi_sections	.debug_frame
  20              		.align	2
  21              		.p2align 4,,15
  22              		.global	nvicEnableVector
  23              		.thumb
  24              		.thumb_func
  25              		.type	nvicEnableVector, %function
  26              	nvicEnableVector:
  27              	.LFB7:
  28              		.file 1 "/home/sbcu/Dropbox/pcb-layouts/axo-on-discovery-board/axoloti/platform_linux/../chibios/o
  29              		.loc 1 46 0
  30              		.cfi_startproc
  31              		@ args = 0, pretend = 0, frame = 0
  32              		@ frame_needed = 0, uses_anonymous_args = 0
  33              		@ link register save eliminated.
  34              	.LVL0:
  35 0000 20F00302 		bic	r2, r0, #3
  36 0004 02F16042 		add	r2, r2, #-536870912
  37 0008 02F56142 		add	r2, r2, #57600
  38 000c 70B4     		push	{r4, r5, r6}
  39              		.cfi_def_cfa_offset 12
  40              		.cfi_offset 4, -12
  41              		.cfi_offset 5, -8
  42              		.cfi_offset 6, -4
  43              		.loc 1 50 0
  44 000e 4309     		lsrs	r3, r0, #5
  45              		.loc 1 47 0
  46 0010 00F00304 		and	r4, r0, #3
  47              		.loc 1 49 0
  48 0014 D2F80053 		ldr	r5, [r2, #768]
  49              		.loc 1 47 0
  50 0018 E400     		lsls	r4, r4, #3
  51              	.LVL1:
  52              		.loc 1 49 0
  53 001a FF26     		movs	r6, #255
  54 001c 9B00     		lsls	r3, r3, #2
  55 001e A640     		lsls	r6, r6, r4
  56 0020 03F16043 		add	r3, r3, #-536870912
  57 0024 A140     		lsls	r1, r1, r4
ARM GAS  /tmp/ccytw9ax.s 			page 2


  58              	.LVL2:
  59 0026 25EA0605 		bic	r5, r5, r6
  60 002a 03F56143 		add	r3, r3, #57600
  61              		.loc 1 50 0
  62 002e 0124     		movs	r4, #1
  63              	.LVL3:
  64 0030 00F01F00 		and	r0, r0, #31
  65              	.LVL4:
  66 0034 04FA00F0 		lsl	r0, r4, r0
  67              		.loc 1 49 0
  68 0038 2943     		orrs	r1, r1, r5
  69 003a C2F80013 		str	r1, [r2, #768]
  70              		.loc 1 52 0
  71 003e 70BC     		pop	{r4, r5, r6}
  72              		.cfi_restore 6
  73              		.cfi_restore 5
  74              		.cfi_restore 4
  75              		.cfi_def_cfa_offset 0
  76              		.loc 1 50 0
  77 0040 C3F88001 		str	r0, [r3, #384]
  78              		.loc 1 51 0
  79 0044 1860     		str	r0, [r3]
  80              		.loc 1 52 0
  81 0046 7047     		bx	lr
  82              		.cfi_endproc
  83              	.LFE7:
  84              		.size	nvicEnableVector, .-nvicEnableVector
  85              		.align	2
  86 0048 AFF30080 		.p2align 4,,15
  86      AFF30080 
  87              		.global	nvicDisableVector
  88              		.thumb
  89              		.thumb_func
  90              		.type	nvicDisableVector, %function
  91              	nvicDisableVector:
  92              	.LFB8:
  93              		.loc 1 60 0
  94              		.cfi_startproc
  95              		@ args = 0, pretend = 0, frame = 0
  96              		@ frame_needed = 0, uses_anonymous_args = 0
  97              		@ link register save eliminated.
  98              	.LVL5:
  99              		.loc 1 63 0
 100 0050 4209     		lsrs	r2, r0, #5
 101              		.loc 1 60 0
 102 0052 30B4     		push	{r4, r5}
 103              		.cfi_def_cfa_offset 8
 104              		.cfi_offset 4, -8
 105              		.cfi_offset 5, -4
 106              		.loc 1 63 0
 107 0054 2032     		adds	r2, r2, #32
 108 0056 00F01F05 		and	r5, r0, #31
 109 005a 0C4C     		ldr	r4, .L5
 110 005c 20F00303 		bic	r3, r0, #3
 111 0060 0121     		movs	r1, #1
 112 0062 A940     		lsls	r1, r1, r5
 113 0064 03F16043 		add	r3, r3, #-536870912
ARM GAS  /tmp/ccytw9ax.s 			page 3


 114 0068 44F82210 		str	r1, [r4, r2, lsl #2]
 115 006c 03F56143 		add	r3, r3, #57600
 116              		.loc 1 61 0
 117 0070 00F00300 		and	r0, r0, #3
 118              	.LVL6:
 119              		.loc 1 64 0
 120 0074 D3F80013 		ldr	r1, [r3, #768]
 121              		.loc 1 61 0
 122 0078 C000     		lsls	r0, r0, #3
 123              	.LVL7:
 124              		.loc 1 64 0
 125 007a FF22     		movs	r2, #255
 126 007c 8240     		lsls	r2, r2, r0
 127 007e 21EA0202 		bic	r2, r1, r2
 128 0082 C3F80023 		str	r2, [r3, #768]
 129              		.loc 1 65 0
 130 0086 30BC     		pop	{r4, r5}
 131              		.cfi_restore 5
 132              		.cfi_restore 4
 133              		.cfi_def_cfa_offset 0
 134 0088 7047     		bx	lr
 135              	.L6:
 136 008a 00BF     		.align	2
 137              	.L5:
 138 008c 00E100E0 		.word	-536813312
 139              		.cfi_endproc
 140              	.LFE8:
 141              		.size	nvicDisableVector, .-nvicDisableVector
 142              		.align	2
 143              		.p2align 4,,15
 144              		.global	nvicSetSystemHandlerPriority
 145              		.thumb
 146              		.thumb_func
 147              		.type	nvicSetSystemHandlerPriority, %function
 148              	nvicSetSystemHandlerPriority:
 149              	.LFB9:
 150              		.loc 1 74 0
 151              		.cfi_startproc
 152              		@ args = 0, pretend = 0, frame = 0
 153              		@ frame_needed = 0, uses_anonymous_args = 0
 154              		@ link register save eliminated.
 155              	.LVL8:
 156 0090 20F00303 		bic	r3, r0, #3
 157 0094 03F16043 		add	r3, r3, #-536870912
 158 0098 03F56D43 		add	r3, r3, #60672
 159              		.loc 1 75 0
 160 009c 00F00300 		and	r0, r0, #3
 161              	.LVL9:
 162              		.loc 1 74 0
 163 00a0 10B4     		push	{r4}
 164              		.cfi_def_cfa_offset 4
 165              		.cfi_offset 4, -4
 166              		.loc 1 75 0
 167 00a2 C000     		lsls	r0, r0, #3
 168              	.LVL10:
 169              		.loc 1 77 0
 170 00a4 9A69     		ldr	r2, [r3, #24]
ARM GAS  /tmp/ccytw9ax.s 			page 4


 171              		.loc 1 78 0
 172 00a6 FF24     		movs	r4, #255
 173 00a8 8440     		lsls	r4, r4, r0
 174              		.loc 1 77 0
 175 00aa 22EA0402 		bic	r2, r2, r4
 176              		.loc 1 78 0
 177 00ae 8140     		lsls	r1, r1, r0
 178              	.LVL11:
 179 00b0 1143     		orrs	r1, r1, r2
 180              		.loc 1 77 0
 181 00b2 9961     		str	r1, [r3, #24]
 182              		.loc 1 79 0
 183 00b4 5DF8044B 		ldr	r4, [sp], #4
 184              		.cfi_restore 4
 185              		.cfi_def_cfa_offset 0
 186 00b8 7047     		bx	lr
 187              		.cfi_endproc
 188              	.LFE9:
 189              		.size	nvicSetSystemHandlerPriority, .-nvicSetSystemHandlerPriority
 190              	.Letext0:
 191              		.file 2 "/home/sbcu/Dropbox/pcb-layouts/axo-on-discovery-board/axoloti/platform_linux/arm-none-eab
 192              		.file 3 "/home/sbcu/Dropbox/pcb-layouts/axo-on-discovery-board/axoloti/platform_linux/arm-none-eab
 193              		.file 4 "/home/sbcu/Dropbox/pcb-layouts/axo-on-discovery-board/axoloti/platform_linux/../chibios/o