ARM GAS  /tmp/ccBJNJuT.s 			page 1


   1              		.syntax unified
   2              		.cpu cortex-m4
   3              		.eabi_attribute 27, 1
   4              		.eabi_attribute 28, 1
   5              		.fpu fpv4-sp-d16
   6              		.eabi_attribute 20, 1
   7              		.eabi_attribute 21, 1
   8              		.eabi_attribute 23, 3
   9              		.eabi_attribute 24, 1
  10              		.eabi_attribute 25, 1
  11              		.eabi_attribute 26, 1
  12              		.eabi_attribute 30, 2
  13              		.eabi_attribute 34, 1
  14              		.eabi_attribute 18, 4
  15              		.thumb
  16              		.file	"ominous_voice.cpp"
  17              		.text
  18              	.Ltext0:
  19              		.cfi_sections	.debug_frame
  20              		.align	2
  21              		.p2align 4,,15
  22              		.global	_ZN8elements11Spatializer4InitEf
  23              		.thumb
  24              		.thumb_func
  25              		.type	_ZN8elements11Spatializer4InitEf, %function
  26              	_ZN8elements11Spatializer4InitEf:
  27              		.fnstart
  28              	.LFB666:
  29              		.file 1 "./mutable_instruments/elements/dsp/ominous_voice.cpp"
  30              		.loc 1 69 0
  31              		.cfi_startproc
  32              		@ args = 0, pretend = 0, frame = 0
  33              		@ frame_needed = 0, uses_anonymous_args = 0
  34              		@ link register save eliminated.
  35              	.LVL0:
  36              		.loc 1 70 0
  37 0000 0023     		movs	r3, #0
  38              	.LBB184:
  39              	.LBB185:
  40              		.file 2 "./mutable_instruments/stmlib/dsp/filter.h"
  41              		.loc 2 470 0
  42 0002 0749     		ldr	r1, .L2
  43              	.LBE185:
  44              	.LBE184:
  45              		.loc 1 71 0
  46 0004 80ED140A 		fsts	s0, [r0, #80]
  47              	.LBB187:
  48              	.LBB186:
  49              		.loc 2 474 0
  50 0008 4FF07E52 		mov	r2, #1065353216
  51              		.loc 2 470 0
  52 000c 4165     		str	r1, [r0, #84]	@ float
  53              		.loc 2 474 0
  54 000e 8265     		str	r2, [r0, #88]	@ float
  55              	.LBE186:
  56              	.LBE187:
  57              		.loc 1 70 0
ARM GAS  /tmp/ccBJNJuT.s 			page 2


  58 0010 8364     		str	r3, [r0, #72]	@ float
  59              		.loc 1 72 0
  60 0012 0364     		str	r3, [r0, #64]	@ float
  61              		.loc 1 73 0
  62 0014 4364     		str	r3, [r0, #68]	@ float
  63              		.loc 1 74 0
  64 0016 C364     		str	r3, [r0, #76]	@ float
  65              	.LVL1:
  66              	.LBB188:
  67              	.LBB189:
  68              	.LBB190:
  69              		.loc 2 461 0
  70 0018 0366     		str	r3, [r0, #96]	@ float
  71 001a C365     		str	r3, [r0, #92]	@ float
  72              	.LVL2:
  73 001c 7047     		bx	lr
  74              	.L3:
  75 001e 00BF     		.align	2
  76              	.L2:
  77 0020 5C30A03E 		.word	1050685532
  78              	.LBE190:
  79              	.LBE189:
  80              	.LBE188:
  81              		.cfi_endproc
  82              	.LFE666:
  83              		.cantunwind
  84              		.fnend
  85              		.size	_ZN8elements11Spatializer4InitEf, .-_ZN8elements11Spatializer4InitEf
  86              		.align	2
  87 0024 AFF30080 		.p2align 4,,15
  87      AFF30080 
  87      AFF30080 
  88              		.global	_ZN8elements11Spatializer7ProcessEPfS1_S1_j
  89              		.thumb
  90              		.thumb_func
  91              		.type	_ZN8elements11Spatializer7ProcessEPfS1_S1_j, %function
  92              	_ZN8elements11Spatializer7ProcessEPfS1_S1_j:
  93              		.fnstart
  94              	.LFB667:
  95              		.loc 1 83 0
  96              		.cfi_startproc
  97              		@ args = 4, pretend = 0, frame = 0
  98              		@ frame_needed = 0, uses_anonymous_args = 0
  99              	.LVL3:
 100 0030 F0B5     		push	{r4, r5, r6, r7, lr}
 101              		.cfi_def_cfa_offset 20
 102              		.cfi_offset 4, -20
 103              		.cfi_offset 5, -16
 104              		.cfi_offset 6, -12
 105              		.cfi_offset 7, -8
 106              		.cfi_offset 14, -4
 107              		.loc 1 83 0
 108 0032 059D     		ldr	r5, [sp, #20]
 109              	.LVL4:
 110              	.LBB209:
 111              	.LBB210:
 112              	.LBB211:
ARM GAS  /tmp/ccBJNJuT.s 			page 3


 113              		.loc 2 546 0
 114 0034 D0ED176A 		flds	s13, [r0, #92]
 115              	.LVL5:
 116              		.loc 2 547 0
 117 0038 90ED187A 		flds	s14, [r0, #96]
 118              	.LVL6:
 119              		.loc 2 549 0
 120 003c 6C1E     		subs	r4, r5, #1
 121              	.LVL7:
 122 003e ADB1     		cbz	r5, .L5
 123 0040 0646     		mov	r6, r0
 124 0042 0F46     		mov	r7, r1
 125              	.LVL8:
 126              	.L6:
 127              		.loc 2 552 0
 128 0044 90ED156A 		flds	s12, [r0, #84]
 129 0048 D0ED165A 		flds	s11, [r0, #88]
 130              		.loc 2 551 0
 131 004c F7EC017A 		fldmias	r7!, {s15}
 132              	.LVL9:
 133              		.loc 2 552 0
 134 0050 E7EE066A 		vfma.f32	s13, s14, s12
 135              	.LVL10:
 136              		.loc 2 549 0
 137 0054 013C     		subs	r4, r4, #1
 138              	.LVL11:
 139 0056 B4F1FF3F 		cmp	r4, #-1
 140              		.loc 2 551 0
 141 005a E5EEC77A 		vfms.f32	s15, s11, s14
 142              		.loc 2 559 0
 143 005e E6EC016A 		fstmias	r6!, {s13}
 144              	.LVL12:
 145              		.loc 2 553 0
 146 0062 77EEE67A 		fsubs	s15, s15, s13
 147              	.LVL13:
 148              		.loc 2 554 0
 149 0066 A6EE277A 		vfma.f32	s14, s12, s15
 150              	.LVL14:
 151              		.loc 2 549 0
 152 006a EBD1     		bne	.L6
 153              	.LVL15:
 154              	.L5:
 155              	.LBE211:
 156              	.LBE210:
 157              		.loc 1 86 0
 158 006c 90ED125A 		flds	s10, [r0, #72]
 159              	.LVL16:
 160              	.LBB214:
 161              	.LBB215:
 162              		.file 3 "./mutable_instruments/stmlib/dsp/dsp.h"
 163              		.loc 3 70 0
 164 0070 DFED722A 		flds	s5, .L18
 165              		.loc 3 72 0
 166 0074 724C     		ldr	r4, .L18+4
 167              	.LVL17:
 168              	.LBE215:
 169              	.LBE214:
ARM GAS  /tmp/ccBJNJuT.s 			page 4


 170              	.LBB223:
 171              	.LBB212:
 172              		.loc 2 570 0
 173 0076 C0ED176A 		fsts	s13, [r0, #92]
 174              	.LBE212:
 175              	.LBE223:
 176              	.LBB224:
 177              	.LBB216:
 178              		.loc 3 69 0
 179 007a FDEEC54A 		ftosizs	s9, s10
 180              	.LBE216:
 181              	.LBE224:
 182              	.LBB225:
 183              	.LBB226:
 184              		.loc 3 73 0
 185 007e 261D     		adds	r6, r4, #4
 186              	.LBE226:
 187              	.LBE225:
 188              	.LBB239:
 189              	.LBB217:
 190              		.loc 3 69 0
 191 0080 F8EEE44A 		fsitos	s9, s9
 192              	.LBE217:
 193              	.LBE239:
 194              	.LBB240:
 195              	.LBB213:
 196              		.loc 2 571 0
 197 0084 80ED187A 		fsts	s14, [r0, #96]
 198              	.LBE213:
 199              	.LBE240:
 200              	.LBB241:
 201              	.LBB218:
 202              		.loc 3 69 0
 203 0088 75EE644A 		fsubs	s9, s10, s9
 204              	.LBE218:
 205              	.LBE241:
 206              		.loc 1 87 0
 207 008c D0ED136A 		flds	s13, [r0, #76]
 208              	.LVL18:
 209              		.loc 1 92 0
 210 0090 90ED142A 		flds	s4, [r0, #80]
 211              		.loc 1 101 0
 212 0094 D0ED105A 		flds	s11, [r0, #64]
 213              		.loc 1 102 0
 214 0098 D0ED117A 		flds	s15, [r0, #68]
 215              	.LBB242:
 216              	.LBB219:
 217              		.loc 3 70 0
 218 009c 64EEA24A 		fmuls	s9, s9, s5
 219              	.LVL19:
 220              	.LBE219:
 221              	.LBE242:
 222              		.loc 1 91 0
 223 00a0 F7EE003A 		fconsts	s7, #112
 224              	.LBB243:
 225              	.LBB220:
 226              		.loc 3 71 0
ARM GAS  /tmp/ccBJNJuT.s 			page 5


 227 00a4 BDEEE46A 		ftosizs	s12, s9
 228              	.LVL20:
 229              	.LBE220:
 230              	.LBE243:
 231              		.loc 1 92 0
 232 00a8 33EEE67A 		fsubs	s14, s7, s13
 233              	.LVL21:
 234              	.LBB244:
 235              	.LBB221:
 236              		.loc 3 72 0
 237 00ac 16EE107A 		fmrs	r7, s12	@ int
 238 00b0 BF00     		lsls	r7, r7, #2
 239 00b2 07EB040E 		add	lr, r7, r4
 240              		.loc 3 73 0
 241 00b6 3744     		add	r7, r7, r6
 242              		.loc 3 71 0
 243 00b8 B8EEC64A 		fsitos	s8, s12
 244              		.loc 3 74 0
 245 00bc 97ED003A 		flds	s6, [r7]
 246              		.loc 3 72 0
 247 00c0 9EED006A 		flds	s12, [lr]
 248              	.LVL22:
 249              		.loc 3 71 0
 250 00c4 74EEC44A 		fsubs	s9, s9, s8
 251              	.LVL23:
 252              		.loc 3 74 0
 253 00c8 33EE464A 		fsubs	s8, s6, s12
 254              	.LBE221:
 255              	.LBE244:
 256              		.loc 1 92 0
 257 00cc 27EE027A 		fmuls	s14, s14, s4
 258              	.LBB245:
 259              	.LBB222:
 260              		.loc 3 74 0
 261 00d0 A4EE846A 		vfma.f32	s12, s9, s8
 262              	.LVL24:
 263              	.LBE222:
 264              	.LBE245:
 265              		.loc 1 90 0
 266 00d4 F5EE004A 		fconsts	s9, #80
 267              	.LVL25:
 268              		.loc 1 92 0
 269 00d8 A6EE867A 		vfma.f32	s14, s13, s12
 270              		.loc 1 90 0
 271 00dc 35EE245A 		fadds	s10, s10, s9
 272              	.LVL26:
 273              		.loc 1 97 0
 274 00e0 B0EE086A 		fconsts	s12, #8
 275              		.loc 1 95 0
 276 00e4 77EE234A 		fadds	s9, s14, s7
 277              		.loc 1 97 0
 278 00e8 37EE067A 		fadds	s14, s14, s12
 279              	.LBB246:
 280              	.LBB227:
 281              		.loc 3 69 0
 282 00ec BDEEC56A 		ftosizs	s12, s10
 283              	.LBE227:
ARM GAS  /tmp/ccBJNJuT.s 			page 6


 284              	.LBE246:
 285              		.loc 1 95 0
 286 00f0 B4EE004A 		fconsts	s8, #64
 287 00f4 64EE844A 		fmuls	s9, s9, s8
 288              		.loc 1 97 0
 289 00f8 27EE047A 		fmuls	s14, s14, s8
 290              	.LBB247:
 291              	.LBB228:
 292              		.loc 3 69 0
 293 00fc B8EEC66A 		fsitos	s12, s12
 294              	.LBE228:
 295              	.LBE247:
 296              	.LBB248:
 297              	.LBB249:
 298 0100 BDEEE43A 		ftosizs	s6, s9
 299              	.LBE249:
 300              	.LBE248:
 301              	.LBB262:
 302              	.LBB229:
 303 0104 35EE465A 		fsubs	s10, s10, s12
 304              	.LVL27:
 305              	.LBE229:
 306              	.LBE262:
 307              	.LBB263:
 308              	.LBB264:
 309 0108 BDEEC76A 		ftosizs	s12, s14
 310              	.LBE264:
 311              	.LBE263:
 312              	.LBB278:
 313              	.LBB230:
 314              		.loc 3 70 0
 315 010c 25EE225A 		fmuls	s10, s10, s5
 316              	.LVL28:
 317              	.LBE230:
 318              	.LBE278:
 319              	.LBB279:
 320              	.LBB265:
 321              		.loc 3 69 0
 322 0110 B8EEC66A 		fsitos	s12, s12
 323              	.LBE265:
 324              	.LBE279:
 325              	.LBB280:
 326              	.LBB250:
 327 0114 B8EEC33A 		fsitos	s6, s6
 328              	.LBE250:
 329              	.LBE280:
 330              	.LBB281:
 331              	.LBB266:
 332 0118 37EE467A 		fsubs	s14, s14, s12
 333              	.LBE266:
 334              	.LBE281:
 335              	.LBB282:
 336              	.LBB251:
 337 011c 34EEC33A 		fsubs	s6, s9, s6
 338              	.LBE251:
 339              	.LBE282:
 340              		.loc 1 100 0
ARM GAS  /tmp/ccBJNJuT.s 			page 7


 341 0120 06EE105A 		fmsr	s12, r5	@ int
 342              	.LBB283:
 343              	.LBB231:
 344              		.loc 3 71 0
 345 0124 FDEEC54A 		ftosizs	s9, s10
 346              	.LVL29:
 347              	.LBE231:
 348              	.LBE283:
 349              	.LBB284:
 350              	.LBB252:
 351              		.loc 3 70 0
 352 0128 23EE223A 		fmuls	s6, s6, s5
 353              	.LBE252:
 354              	.LBE284:
 355              		.loc 1 100 0
 356 012c B8EE464A 		fuitos	s8, s12
 357              	.LBB285:
 358              	.LBB232:
 359              		.loc 3 72 0
 360 0130 14EE907A 		fmrs	r7, s9	@ int
 361              	.LBE232:
 362              	.LBE285:
 363              	.LBB286:
 364              	.LBB267:
 365              		.loc 3 70 0
 366 0134 27EE226A 		fmuls	s12, s14, s5
 367              	.LBE267:
 368              	.LBE286:
 369              	.LBB287:
 370              	.LBB233:
 371              		.loc 3 72 0
 372 0138 BF00     		lsls	r7, r7, #2
 373              	.LBE233:
 374              	.LBE287:
 375              	.LBB288:
 376              	.LBB253:
 377              		.loc 3 71 0
 378 013a BDEEC37A 		ftosizs	s14, s6
 379              	.LBE253:
 380              	.LBE288:
 381              	.LBB289:
 382              	.LBB268:
 383 013e BDEEC62A 		ftosizs	s4, s12
 384              	.LBE268:
 385              	.LBE289:
 386              	.LBB290:
 387              	.LBB234:
 388              		.loc 3 72 0
 389 0142 07EB040E 		add	lr, r7, r4
 390              	.LVL30:
 391              	.LBE234:
 392              	.LBE290:
 393              		.loc 1 100 0
 394 0146 83EE844A 		fdivs	s8, s7, s8
 395              	.LBB291:
 396              	.LBB235:
 397              		.loc 3 73 0
ARM GAS  /tmp/ccBJNJuT.s 			page 8


 398 014a 3744     		add	r7, r7, r6
 399              		.loc 3 72 0
 400 014c DEED002A 		flds	s5, [lr]
 401              	.LVL31:
 402              		.loc 3 74 0
 403 0150 97ED000A 		flds	s0, [r7]
 404              		.loc 3 71 0
 405 0154 F8EEE44A 		fsitos	s9, s9
 406              	.LVL32:
 407              	.LBE235:
 408              	.LBE291:
 409              	.LBB292:
 410              	.LBB254:
 411              		.loc 3 72 0
 412 0158 17EE107A 		fmrs	r7, s14	@ int
 413              	.LBE254:
 414              	.LBE292:
 415              	.LBB293:
 416              	.LBB269:
 417 015c 12EE10EA 		fmrs	lr, s4	@ int
 418              	.LVL33:
 419              	.LBE269:
 420              	.LBE293:
 421              	.LBB294:
 422              	.LBB236:
 423              		.loc 3 71 0
 424 0160 35EE645A 		fsubs	s10, s10, s9
 425              	.LVL34:
 426              	.LBE236:
 427              	.LBE294:
 428              	.LBB295:
 429              	.LBB255:
 430              		.loc 3 72 0
 431 0164 BF00     		lsls	r7, r7, #2
 432              	.LBE255:
 433              	.LBE295:
 434              	.LBB296:
 435              	.LBB270:
 436 0166 4FEA8E0E 		lsl	lr, lr, #2
 437              	.LBE270:
 438              	.LBE296:
 439              	.LBB297:
 440              	.LBB237:
 441              		.loc 3 74 0
 442 016a 30EE620A 		fsubs	s0, s0, s5
 443              	.LBE237:
 444              	.LBE297:
 445              	.LBB298:
 446              	.LBB256:
 447              		.loc 3 72 0
 448 016e 07EB040C 		add	ip, r7, r4
 449              		.loc 3 73 0
 450 0172 3744     		add	r7, r7, r6
 451              	.LBE256:
 452              	.LBE298:
 453              	.LBB299:
 454              	.LBB271:
ARM GAS  /tmp/ccBJNJuT.s 			page 9


 455              		.loc 3 72 0
 456 0174 7444     		add	r4, r4, lr
 457              	.LVL35:
 458              		.loc 3 73 0
 459 0176 7644     		add	r6, r6, lr
 460              	.LBE271:
 461              	.LBE299:
 462              	.LBB300:
 463              	.LBB257:
 464              		.loc 3 71 0
 465 0178 F8EEC71A 		fsitos	s3, s14
 466              		.loc 3 72 0
 467 017c DCED004A 		flds	s9, [ip]
 468              	.LBE257:
 469              	.LBE300:
 470              	.LBB301:
 471              	.LBB272:
 472 0180 94ED007A 		flds	s14, [r4]
 473              	.LBE272:
 474              	.LBE301:
 475              	.LBB302:
 476              	.LBB258:
 477              		.loc 3 74 0
 478 0184 D7ED000A 		flds	s1, [r7]
 479              	.LBE258:
 480              	.LBE302:
 481              	.LBB303:
 482              	.LBB273:
 483 0188 96ED001A 		flds	s2, [r6]
 484              	.LBE273:
 485              	.LBE303:
 486              	.LBB304:
 487              	.LBB238:
 488 018c E5EE002A 		vfma.f32	s5, s10, s0
 489              	.LVL36:
 490              	.LBE238:
 491              	.LBE304:
 492              	.LBB305:
 493              	.LBB274:
 494              		.loc 3 71 0
 495 0190 B8EEC22A 		fsitos	s4, s4
 496              	.LBE274:
 497              	.LBE305:
 498              	.LBB306:
 499              	.LBB259:
 500 0194 33EE613A 		fsubs	s6, s6, s3
 501              	.LBE259:
 502              	.LBE306:
 503              	.LBB307:
 504              	.LBB275:
 505              		.loc 3 74 0
 506 0198 31EE475A 		fsubs	s10, s2, s14
 507              	.LVL37:
 508              	.LBE275:
 509              	.LBE307:
 510              	.LBB308:
 511              	.LBB260:
ARM GAS  /tmp/ccBJNJuT.s 			page 10


 512 019c 70EEE41A 		fsubs	s3, s1, s9
 513              	.LBE260:
 514              	.LBE308:
 515              	.LBB309:
 516              	.LBB276:
 517              		.loc 3 71 0
 518 01a0 36EE426A 		fsubs	s12, s12, s4
 519              	.LBE276:
 520              	.LBE309:
 521              	.LBB310:
 522              	.LBB261:
 523              		.loc 3 74 0
 524 01a4 E3EE214A 		vfma.f32	s9, s6, s3
 525              	.LBE261:
 526              	.LBE310:
 527              	.LBB311:
 528              	.LBB277:
 529 01a8 A6EE057A 		vfma.f32	s14, s12, s10
 530              	.LBE277:
 531              	.LBE311:
 532              		.loc 1 91 0
 533 01ac E6EEA23A 		vfma.f32	s7, s13, s5
 534 01b0 B6EE005A 		fconsts	s10, #96
 535              		.loc 1 101 0
 536 01b4 74EEE54A 		fsubs	s9, s9, s11
 537              		.loc 1 102 0
 538 01b8 37EE677A 		fsubs	s14, s14, s15
 539              		.loc 1 91 0
 540 01bc 63EE853A 		fmuls	s7, s7, s10
 541              		.loc 1 101 0
 542 01c0 64EE844A 		fmuls	s9, s9, s8
 543              		.loc 1 91 0
 544 01c4 66EEA33A 		fmuls	s7, s13, s7
 545              	.LVL38:
 546              		.loc 1 102 0
 547 01c8 27EE044A 		fmuls	s8, s14, s8
 548              	.LVL39:
 549              	.LBB312:
 550              		.loc 1 104 0
 551 01cc ADB3     		cbz	r5, .L4
 552              	.LBB313:
 553              		.loc 1 111 0
 554 01ce 9FED1D3A 		flds	s6, .L18+8
 555 01d2 01EB8505 		add	r5, r1, r5, lsl #2
 556              	.LVL40:
 557 01d6 0446     		mov	r4, r0
 558 01d8 03E0     		b	.L9
 559              	.LVL41:
 560              	.L17:
 561 01da D0ED105A 		flds	s11, [r0, #64]
 562 01de D0ED117A 		flds	s15, [r0, #68]
 563              	.L9:
 564              		.loc 1 105 0 discriminator 3
 565 01e2 74EEA55A 		fadds	s11, s9, s11
 566              		.loc 1 106 0 discriminator 3
 567 01e6 74EE277A 		fadds	s15, s8, s15
 568              		.loc 1 105 0 discriminator 3
ARM GAS  /tmp/ccBJNJuT.s 			page 11


 569 01ea C0ED105A 		fsts	s11, [r0, #64]
 570              		.loc 1 106 0 discriminator 3
 571 01ee C0ED117A 		fsts	s15, [r0, #68]
 572              		.loc 1 107 0 discriminator 3
 573 01f2 B1EC017A 		fldmias	r1!, {s14}
 574 01f6 F4EC016A 		fldmias	r4!, {s13}
 575              		.loc 1 110 0 discriminator 3
 576 01fa 92ED006A 		flds	s12, [r2]
 577              		.loc 1 107 0 discriminator 3
 578 01fe 76EEC76A 		fsubs	s13, s13, s14
 579              	.LBE313:
 580              		.loc 1 104 0 discriminator 3
 581 0202 A942     		cmp	r1, r5
 582              	.LBB314:
 583              		.loc 1 107 0 discriminator 3
 584 0204 A6EEA37A 		vfma.f32	s14, s13, s7
 585              	.LVL42:
 586              		.loc 1 109 0 discriminator 3
 587 0208 67EE877A 		fmuls	s15, s15, s14
 588              	.LVL43:
 589              		.loc 1 111 0 discriminator 3
 590 020c F0EE676A 		fcpys	s13, s15
 591 0210 D5EE876A 		vfnms.f32	s13, s11, s14
 592              		.loc 1 110 0 discriminator 3
 593 0214 E5EE877A 		vfma.f32	s15, s11, s14
 594              	.LVL44:
 595              		.loc 1 111 0 discriminator 3
 596 0218 26EE857A 		fmuls	s14, s13, s10
 597              	.LVL45:
 598              		.loc 1 110 0 discriminator 3
 599 021c F0EE466A 		fcpys	s13, s12
 600 0220 E7EE856A 		vfma.f32	s13, s15, s10
 601              		.loc 1 111 0 discriminator 3
 602 0224 C7EE037A 		fdivs	s15, s14, s6
 603              		.loc 1 110 0 discriminator 3
 604 0228 E2EC016A 		fstmias	r2!, {s13}
 605              	.LVL46:
 606              		.loc 1 111 0 discriminator 3
 607 022c 93ED007A 		flds	s14, [r3]
 608 0230 77EE277A 		fadds	s15, s14, s15
 609 0234 E3EC017A 		fstmias	r3!, {s15}
 610              	.LBE314:
 611              		.loc 1 104 0 discriminator 3
 612 0238 CFD1     		bne	.L17
 613              	.L4:
 614 023a F0BD     		pop	{r4, r5, r6, r7, pc}
 615              	.LVL47:
 616              	.L19:
 617              		.align	2
 618              	.L18:
 619 023c 00008045 		.word	1166016512
 620 0240 00000000 		.word	_ZN17mutable_resources8lut_sineE
 621 0244 3333333F 		.word	1060320051
 622              	.LBE312:
 623              	.LBE209:
 624              		.cfi_endproc
 625              	.LFE667:
ARM GAS  /tmp/ccBJNJuT.s 			page 12


 626              		.cantunwind
 627              		.fnend
 628              		.size	_ZN8elements11Spatializer7ProcessEPfS1_S1_j, .-_ZN8elements11Spatializer7ProcessEPfS1_S1_j
 629              		.align	2
 630 0248 AFF30080 		.p2align 4,,15
 630      AFF30080 
 631              		.global	_ZN8elements12FmOscillator7ProcessEffffPKfPfj
 632              		.thumb
 633              		.thumb_func
 634              		.type	_ZN8elements12FmOscillator7ProcessEffffPKfPfj, %function
 635              	_ZN8elements12FmOscillator7ProcessEffffPKfPfj:
 636              		.fnstart
 637              	.LFB668:
 638              		.loc 1 123 0
 639              		.cfi_startproc
 640              		@ args = 0, pretend = 0, frame = 0
 641              		@ frame_needed = 0, uses_anonymous_args = 0
 642              	.LVL48:
 643              	.LBB315:
 644              	.LBB316:
 645              	.LBB317:
 646              		.loc 3 44 0
 647 0250 9FED777A 		flds	s14, .L32
 648              	.LBE317:
 649              	.LBE316:
 650              	.LBB324:
 651              	.LBB325:
 652              		.file 4 "./mutable_instruments/elements/dsp/ominous_voice.h"
 653              		.loc 4 139 0
 654 0254 DFED777A 		flds	s15, .L32+4
 655              	.LBE325:
 656              	.LBE324:
 657              		.loc 1 140 0
 658 0258 9FED775A 		flds	s10, .L32+8
 659              	.LBB339:
 660              	.LBB318:
 661              		.loc 3 44 0
 662 025c 60EE870A 		fmuls	s1, s1, s14
 663              	.LVL49:
 664              	.LBE318:
 665              	.LBE339:
 666              	.LBE315:
 667              		.loc 1 123 0
 668 0260 2DE9F04F 		push	{r4, r5, r6, r7, r8, r9, r10, fp, lr}
 669              		.cfi_def_cfa_offset 36
 670              		.cfi_offset 4, -36
 671              		.cfi_offset 5, -32
 672              		.cfi_offset 6, -28
 673              		.cfi_offset 7, -24
 674              		.cfi_offset 8, -20
 675              		.cfi_offset 9, -16
 676              		.cfi_offset 10, -12
 677              		.cfi_offset 11, -8
 678              		.cfi_offset 14, -4
 679              	.LBB396:
 680              	.LBB340:
 681              	.LBB319:
ARM GAS  /tmp/ccBJNJuT.s 			page 13


 682              		.loc 3 45 0
 683 0264 BDEEE07A 		ftosizs	s14, s1
 684              	.LVL50:
 685              		.loc 3 46 0
 686 0268 744F     		ldr	r7, .L32+12
 687              	.LBE319:
 688              	.LBE340:
 689              	.LBB341:
 690              	.LBB328:
 691              		.loc 4 141 0
 692 026a 754E     		ldr	r6, .L32+16
 693              		.loc 4 142 0
 694 026c 754D     		ldr	r5, .L32+20
 695              	.LBE328:
 696              	.LBE341:
 697              		.loc 1 129 0
 698 026e D0F808B0 		ldr	fp, [r0, #8]
 699              		.loc 1 130 0
 700 0272 D0F80CA0 		ldr	r10, [r0, #12]
 701              	.LBB342:
 702              	.LBB320:
 703              		.loc 3 46 0
 704 0276 17EE104A 		fmrs	r4, s14	@ int
 705              	.LBE320:
 706              	.LBE342:
 707              		.loc 1 133 0
 708 027a 06EE903A 		fmsr	s13, r3	@ int
 709              	.LBB343:
 710              	.LBB321:
 711              		.loc 3 46 0
 712 027e A400     		lsls	r4, r4, #2
 713 0280 04EB070E 		add	lr, r4, r7
 714              		.loc 3 48 0
 715 0284 DEED015A 		flds	s11, [lr, #4]
 716              	.LBE321:
 717              	.LBE343:
 718              		.loc 1 133 0
 719 0288 B8EE666A 		fuitos	s12, s13
 720              	.LBB344:
 721              	.LBB322:
 722              		.loc 3 45 0
 723 028c B8EEC77A 		fsitos	s14, s14
 724              	.LVL51:
 725              		.loc 3 46 0
 726 0290 DEED006A 		flds	s13, [lr]
 727              	.LVL52:
 728              		.loc 3 45 0
 729 0294 70EEC70A 		fsubs	s1, s1, s14
 730              	.LVL53:
 731              		.loc 3 48 0
 732 0298 35EEE67A 		fsubs	s14, s11, s13
 733              	.LBE322:
 734              	.LBE344:
 735              		.loc 1 133 0
 736 029c B7EE004A 		fconsts	s8, #112
 737              	.LBB345:
 738              	.LBB323:
ARM GAS  /tmp/ccBJNJuT.s 			page 14


 739              		.loc 3 48 0
 740 02a0 E0EE876A 		vfma.f32	s13, s1, s14
 741              	.LVL54:
 742              	.LBE323:
 743              	.LBE345:
 744              		.loc 1 133 0
 745 02a4 84EE066A 		fdivs	s12, s8, s12
 746              		.loc 1 127 0
 747 02a8 30EE267A 		fadds	s14, s0, s13
 748              		.loc 1 140 0
 749 02ac F6EE085A 		fconsts	s11, #104
 750              	.LBB346:
 751              	.LBB347:
 752              		.loc 4 139 0
 753 02b0 27EE277A 		fmuls	s14, s14, s15
 754              	.LBE347:
 755              	.LBE346:
 756              	.LBB360:
 757              	.LBB329:
 758 02b4 60EE277A 		fmuls	s15, s0, s15
 759              	.LBE329:
 760              	.LBE360:
 761              	.LBB361:
 762              	.LBB350:
 763 02b8 BDEEC77A 		ftosizs	s14, s14
 764              	.LBE350:
 765              	.LBE361:
 766              	.LBB362:
 767              	.LBB330:
 768 02bc FDEEE77A 		ftosizs	s15, s15
 769              	.LBE330:
 770              	.LBE362:
 771              		.loc 1 140 0
 772 02c0 A6EEA50A 		vfma.f32	s0, s13, s11
 773              	.LVL55:
 774              	.LBB363:
 775              	.LBB351:
 776              		.loc 4 139 0
 777 02c4 17EE107A 		fmrs	r7, s14	@ int
 778              	.LBE351:
 779              	.LBE363:
 780              	.LBB364:
 781              	.LBB331:
 782 02c8 17EE904A 		fmrs	r4, s15	@ int
 783              	.LVL56:
 784              	.LBE331:
 785              	.LBE364:
 786              	.LBB365:
 787              	.LBB352:
 788              		.loc 4 140 0
 789 02cc A7F5A047 		sub	r7, r7, #20480
 790              	.LBE352:
 791              	.LBE365:
 792              	.LBB366:
 793              	.LBB332:
 794 02d0 A4F5A044 		sub	r4, r4, #20480
 795              	.LBE332:
ARM GAS  /tmp/ccBJNJuT.s 			page 15


 796              	.LBE366:
 797              	.LBB367:
 798              	.LBB353:
 799              	.LBB348:
 800              	.LBB349:
 801              		.loc 3 133 0
 802              	@ 133 "./mutable_instruments/stmlib/dsp/dsp.h" 1
 803 02d4 07F30F07 		ssat r7, #16, r7
 804              	@ 0 "" 2
 805              		.thumb
 806              	.LBE349:
 807              	.LBE348:
 808              	.LBE353:
 809              	.LBE367:
 810              	.LBB368:
 811              	.LBB333:
 812              	.LBB326:
 813              	.LBB327:
 814              	@ 133 "./mutable_instruments/stmlib/dsp/dsp.h" 1
 815 02d8 04F30F04 		ssat r4, #16, r4
 816              	@ 0 "" 2
 817              	.LVL57:
 818              		.thumb
 819              	.LBE327:
 820              	.LBE326:
 821              	.LBE333:
 822              	.LBE368:
 823              	.LBB369:
 824              	.LBB354:
 825              		.loc 4 140 0
 826 02dc 07F50047 		add	r7, r7, #32768
 827              	.LBE354:
 828              	.LBE369:
 829              	.LBB370:
 830              	.LBB334:
 831 02e0 04F50044 		add	r4, r4, #32768
 832              	.LVL58:
 833              		.loc 4 141 0
 834 02e4 4FEA242C 		asr	ip, r4, #8
 835              	.LVL59:
 836              	.LBE334:
 837              	.LBE370:
 838              		.loc 1 140 0
 839 02e8 30EE450A 		fsubs	s0, s0, s10
 840              	.LBB371:
 841              	.LBB355:
 842              		.loc 4 141 0
 843 02ec 4FEA272E 		asr	lr, r7, #8
 844              	.LVL60:
 845              	.LBE355:
 846              	.LBE371:
 847              	.LBB372:
 848              	.LBB335:
 849              		.loc 4 142 0
 850 02f0 E4B2     		uxtb	r4, r4
 851              	.LVL61:
 852              	.LBE335:
ARM GAS  /tmp/ccBJNJuT.s 			page 16


 853              	.LBE372:
 854              	.LBB373:
 855              	.LBB356:
 856 02f2 FFB2     		uxtb	r7, r7
 857              	.LBE356:
 858              	.LBE373:
 859              		.loc 1 141 0
 860 02f4 F3EE087A 		fconsts	s15, #56
 861              	.LBB374:
 862              	.LBB357:
 863              		.loc 4 141 0
 864 02f8 06EB8E0E 		add	lr, r6, lr, lsl #2
 865              		.loc 4 142 0
 866 02fc 05EB8707 		add	r7, r5, r7, lsl #2
 867              	.LBE357:
 868              	.LBE374:
 869              	.LBB375:
 870              	.LBB336:
 871              		.loc 4 141 0
 872 0300 06EB8C06 		add	r6, r6, ip, lsl #2
 873              		.loc 4 142 0
 874 0304 05EB8404 		add	r4, r5, r4, lsl #2
 875              	.LBE336:
 876              	.LBE375:
 877              		.loc 1 141 0
 878 0308 A1EE270A 		vfma.f32	s0, s2, s15
 879              	.LBB376:
 880              	.LBB358:
 881              		.loc 4 142 0
 882 030c DEED006A 		flds	s13, [lr]
 883 0310 D7ED004A 		flds	s9, [r7]
 884              	.LBE358:
 885              	.LBE376:
 886              	.LBB377:
 887              	.LBB337:
 888 0314 96ED007A 		flds	s14, [r6]
 889 0318 94ED005A 		flds	s10, [r4]
 890              	.LBE337:
 891              	.LBE377:
 892              		.loc 1 134 0
 893 031c D0ED005A 		flds	s11, [r0]
 894              		.loc 1 136 0
 895 0320 D0ED017A 		flds	s15, [r0, #4]
 896              	.LBB378:
 897              	.LBB359:
 898              		.loc 4 142 0
 899 0324 66EEA46A 		fmuls	s13, s13, s9
 900              	.LBE359:
 901              	.LBE378:
 902              	.LBB379:
 903              	.LBB338:
 904 0328 27EE057A 		fmuls	s14, s14, s10
 905              	.LBE338:
 906              	.LBE379:
 907              		.loc 1 135 0
 908 032c 71EEE51A 		fsubs	s3, s3, s11
 909              	.LVL62:
ARM GAS  /tmp/ccBJNJuT.s 			page 17


 910              		.loc 1 127 0
 911 0330 FCEEE66A 		ftouizs	s13, s13
 912              		.loc 1 126 0
 913 0334 BCEEC77A 		ftouizs	s14, s14
 914              		.loc 1 144 0
 915 0338 B5EEC00A 		fcmpezs	s0
 916 033c F1EE10FA 		fmstat
 917              		.loc 1 127 0
 918 0340 16EE90CA 		fmrs	ip, s13	@ int
 919              		.loc 1 126 0
 920 0344 17EE108A 		fmrs	r8, s14	@ int
 921              	.LVL63:
 922              		.loc 1 135 0
 923 0348 61EE861A 		fmuls	s3, s3, s12
 924              	.LVL64:
 925              		.loc 1 144 0
 926 034c 0ED9     		bls	.L21
 927 034e 20EE400A 		fnmuls	s0, s0, s0
 928              	.LVL65:
 929              		.loc 1 144 0 is_stmt 0 discriminator 2
 930 0352 DFED3D6A 		flds	s13, .L32+24
 931              		.loc 1 146 0 is_stmt 1 discriminator 2
 932 0356 9FED3D7A 		flds	s14, .L32+28
 933              		.loc 1 144 0 discriminator 2
 934 035a A0EE264A 		vfma.f32	s8, s0, s13
 935              	.LVL66:
 936              		.loc 1 146 0 discriminator 2
 937 035e B4EE474A 		fcmps	s8, s14
 938 0362 F1EE10FA 		fmstat
 939 0366 48BF     		it	mi
 940 0368 B0EE474A 		fcpysmi	s8, s14
 941              	.LVL67:
 942              	.L21:
 943              	.LBB380:
 944              		.loc 1 149 0
 945 036c 002B     		cmp	r3, #0
 946 036e 55D0     		beq	.L23
 947 0370 374E     		ldr	r6, .L32+32
 948              	.LBB381:
 949              	.LBB382:
 950              	.LBB383:
 951              		.loc 4 155 0
 952 0372 DFED384A 		flds	s9, .L32+36
 953              		.loc 4 157 0
 954 0376 9FED385A 		flds	s10, .L32+40
 955 037a 01EB8309 		add	r9, r1, r3, lsl #2
 956              	.LBE383:
 957              	.LBE382:
 958              	.LBE381:
 959              		.loc 1 149 0
 960 037e D646     		mov	lr, r10
 961 0380 5F46     		mov	r7, fp
 962              	.LVL68:
 963              	.L24:
 964              	.LBB394:
 965              		.loc 1 153 0 discriminator 3
 966 0382 61EE277A 		fmuls	s15, s2, s15
ARM GAS  /tmp/ccBJNJuT.s 			page 18


 967              	.LVL69:
 968              		.loc 1 152 0 discriminator 3
 969 0386 E644     		add	lr, lr, ip
 970              	.LVL70:
 971              	.LBB388:
 972              	.LBB384:
 973              		.loc 4 155 0 discriminator 3
 974 0388 67EEA47A 		fmuls	s15, s15, s9
 975              	.LBE384:
 976              	.LBE388:
 977              		.loc 1 156 0 discriminator 3
 978 038c B1EC017A 		fldmias	r1!, {s14}
 979              	.LBB389:
 980              	.LBB385:
 981              		.loc 4 155 0 discriminator 3
 982 0390 FCEEE77A 		ftouizs	s15, s15
 983              	.LBE385:
 984              	.LBE389:
 985              		.loc 1 150 0 discriminator 3
 986 0394 75EEA15A 		fadds	s11, s11, s3
 987              	.LVL71:
 988              	.LBB390:
 989              	.LBB386:
 990              		.loc 4 155 0 discriminator 3
 991 0398 17EE904A 		fmrs	r4, s15	@ int
 992 039c 7444     		add	r4, r4, lr
 993              		.loc 4 156 0 discriminator 3
 994 039e 250D     		lsrs	r5, r4, #20
 995              		.loc 4 157 0 discriminator 3
 996 03a0 2403     		lsls	r4, r4, #12
 997 03a2 07EE904A 		fmsr	s15, r4	@ int
 998              		.loc 4 158 0 discriminator 3
 999 03a6 06EB8504 		add	r4, r6, r5, lsl #2
 1000 03aa D4ED006A 		flds	s13, [r4]
 1001              		.loc 4 160 0 discriminator 3
 1002 03ae 94ED016A 		flds	s12, [r4, #4]
 1003              		.loc 4 157 0 discriminator 3
 1004 03b2 F8EE677A 		fuitos	s15, s15
 1005              		.loc 4 160 0 discriminator 3
 1006 03b6 36EE666A 		fsubs	s12, s12, s13
 1007              		.loc 4 157 0 discriminator 3
 1008 03ba 67EE857A 		fmuls	s15, s15, s10
 1009              	.LBE386:
 1010              	.LBE390:
 1011              		.loc 1 151 0 discriminator 3
 1012 03be 4744     		add	r7, r7, r8
 1013              	.LVL72:
 1014              	.LBB391:
 1015              	.LBB387:
 1016              		.loc 4 160 0 discriminator 3
 1017 03c0 E7EE866A 		vfma.f32	s13, s15, s12
 1018              	.LVL73:
 1019              	.LBE387:
 1020              	.LBE391:
 1021              	.LBE394:
 1022              		.loc 1 149 0 discriminator 3
 1023 03c4 4945     		cmp	r1, r9
ARM GAS  /tmp/ccBJNJuT.s 			page 19


 1024              	.LBB395:
 1025              		.loc 1 156 0 discriminator 3
 1026 03c6 F0EE477A 		fcpys	s15, s14
 1027 03ca E5EEA67A 		vfma.f32	s15, s11, s13
 1028 03ce 67EE847A 		fmuls	s15, s15, s8
 1029              	.LBB392:
 1030              	.LBB393:
 1031              		.loc 4 155 0 discriminator 3
 1032 03d2 67EEA47A 		fmuls	s15, s15, s9
 1033 03d6 FCEEE77A 		ftouizs	s15, s15
 1034 03da 17EE904A 		fmrs	r4, s15	@ int
 1035              	.LVL74:
 1036 03de 3C44     		add	r4, r4, r7
 1037              	.LVL75:
 1038              		.loc 4 156 0 discriminator 3
 1039 03e0 4FEA1455 		lsr	r5, r4, #20
 1040              	.LVL76:
 1041              		.loc 4 157 0 discriminator 3
 1042 03e4 4FEA0434 		lsl	r4, r4, #12
 1043              	.LVL77:
 1044 03e8 07EE104A 		fmsr	s14, r4	@ int
 1045              		.loc 4 158 0 discriminator 3
 1046 03ec 06EB8504 		add	r4, r6, r5, lsl #2
 1047 03f0 D4ED007A 		flds	s15, [r4]
 1048              	.LVL78:
 1049              		.loc 4 160 0 discriminator 3
 1050 03f4 D4ED016A 		flds	s13, [r4, #4]
 1051              	.LVL79:
 1052              		.loc 4 157 0 discriminator 3
 1053 03f8 B8EE477A 		fuitos	s14, s14
 1054              		.loc 4 160 0 discriminator 3
 1055 03fc 76EEE76A 		fsubs	s13, s13, s15
 1056              		.loc 4 157 0 discriminator 3
 1057 0400 27EE057A 		fmuls	s14, s14, s10
 1058              		.loc 4 160 0 discriminator 3
 1059 0404 E7EE267A 		vfma.f32	s15, s14, s13
 1060              	.LVL80:
 1061              	.LBE393:
 1062              	.LBE392:
 1063              		.loc 1 156 0 discriminator 3
 1064 0408 E2EC017A 		fstmias	r2!, {s15}
 1065              	.LVL81:
 1066              	.LBE395:
 1067              		.loc 1 149 0 discriminator 3
 1068 040c B9D1     		bne	.L24
 1069 040e 013B     		subs	r3, r3, #1
 1070              	.LVL82:
 1071 0410 C344     		add	fp, fp, r8
 1072 0412 E244     		add	r10, r10, ip
 1073 0414 03FB08BB 		mla	fp, r3, r8, fp
 1074 0418 03FB0CAA 		mla	r10, r3, ip, r10
 1075              	.LVL83:
 1076              	.L23:
 1077              	.LBE380:
 1078              		.loc 1 159 0
 1079 041c C0F808B0 		str	fp, [r0, #8]
 1080              		.loc 1 160 0
ARM GAS  /tmp/ccBJNJuT.s 			page 20


 1081 0420 C0F80CA0 		str	r10, [r0, #12]
 1082              		.loc 1 161 0
 1083 0424 C0ED005A 		fsts	s11, [r0]
 1084              		.loc 1 162 0
 1085 0428 C0ED017A 		fsts	s15, [r0, #4]
 1086 042c BDE8F08F 		pop	{r4, r5, r6, r7, r8, r9, r10, fp, pc}
 1087              	.LVL84:
 1088              	.L33:
 1089              		.align	2
 1090              	.L32:
 1091 0430 00000043 		.word	1124073472
 1092 0434 00008043 		.word	1132462080
 1093 0438 00007042 		.word	1114636288
 1094 043c 00000000 		.word	_ZN17mutable_resources26lut_fm_frequency_quantizerE
 1095 0440 00000000 		.word	_ZN8elements26lut_midi_to_increment_highE
 1096 0444 00000000 		.word	_ZN8elements17lut_midi_to_f_lowE
 1097 0448 A69BC43A 		.word	985963430
 1098 044c 00000000 		.word	0
 1099 0450 00000000 		.word	_ZN17mutable_resources8lut_sineE
 1100 0454 0000004F 		.word	1325400064
 1101 0458 0000802F 		.word	796917760
 1102              	.LBE396:
 1103              		.cfi_endproc
 1104              	.LFE668:
 1105              		.cantunwind
 1106              		.fnend
 1107              		.size	_ZN8elements12FmOscillator7ProcessEffffPKfPfj, .-_ZN8elements12FmOscillator7ProcessEffffPKfP
 1108              		.align	2
 1109 045c AFF30080 		.p2align 4,,15
 1110              		.global	_ZN8elements12OminousVoice4InitEv
 1111              		.thumb
 1112              		.thumb_func
 1113              		.type	_ZN8elements12OminousVoice4InitEv, %function
 1114              	_ZN8elements12OminousVoice4InitEv:
 1115              		.fnstart
 1116              	.LFB669:
 1117              		.loc 1 166 0
 1118              		.cfi_startproc
 1119              		@ args = 0, pretend = 0, frame = 0
 1120              		@ frame_needed = 0, uses_anonymous_args = 0
 1121              	.LVL85:
 1122 0460 2DE9F84F 		push	{r3, r4, r5, r6, r7, r8, r9, r10, fp, lr}
 1123              		.save {r3, r4, r5, r6, r7, r8, r9, r10, fp, lr}
 1124              		.cfi_def_cfa_offset 40
 1125              		.cfi_offset 3, -40
 1126              		.cfi_offset 4, -36
 1127              		.cfi_offset 5, -32
 1128              		.cfi_offset 6, -28
 1129              		.cfi_offset 7, -24
 1130              		.cfi_offset 8, -20
 1131              		.cfi_offset 9, -16
 1132              		.cfi_offset 10, -12
 1133              		.cfi_offset 11, -8
 1134              		.cfi_offset 14, -4
 1135              		.loc 1 166 0
 1136 0464 0546     		mov	r5, r0
 1137              	.LBB397:
ARM GAS  /tmp/ccBJNJuT.s 			page 21


 1138              		.loc 1 167 0
 1139 0466 00F24446 		addw	r6, r0, #1092
 1140 046a 3046     		mov	r0, r6
 1141              	.LVL86:
 1142              		.loc 1 170 0
 1143 046c 05F2D447 		addw	r7, r5, #1236
 1144              		.loc 1 167 0
 1145 0470 FFF7FEFF 		bl	_ZN8elements18MultistageEnvelope4InitEv
 1146              	.LVL87:
 1147              	.LBB398:
 1148              	.LBB399:
 1149              		.file 5 "./mutable_instruments/elements/dsp/multistage_envelope.h"
 1150              		.loc 5 121 0
 1151 0474 0324     		movs	r4, #3
 1152              		.loc 5 126 0
 1153 0476 4FF07C53 		mov	r3, #1056964608
 1154              		.loc 5 124 0
 1155 047a 0022     		movs	r2, #0
 1156              		.loc 5 122 0
 1157 047c 0220     		movs	r0, #2
 1158              		.loc 5 134 0
 1159 047e 0121     		movs	r1, #1
 1160              		.loc 5 137 0
 1161 0480 4FF0000E 		mov	lr, #0
 1162              		.loc 5 125 0
 1163 0484 4FF07E58 		mov	r8, #1065353216
 1164 0488 DFF8A0C1 		ldr	ip, .L49+24
 1165              	.LBE399:
 1166              	.LBE398:
 1167              	.LBB402:
 1168              	.LBB403:
 1169              	.LBB404:
 1170              		.loc 2 470 0
 1171 048c DFED615A 		flds	s11, .L49
 1172              	.LBE404:
 1173              	.LBE403:
 1174              	.LBB406:
 1175              	.LBB407:
 1176              	.LBB408:
 1177              		.loc 2 220 0
 1178 0490 9FED616A 		flds	s12, .L49+4
 1179              		.loc 2 221 0
 1180 0494 DFED616A 		flds	s13, .L49+8
 1181              		.loc 2 222 0
 1182 0498 9FED617A 		flds	s14, .L49+12
 1183              	.LBE408:
 1184              	.LBE407:
 1185              	.LBE406:
 1186              	.LBB413:
 1187              	.LBB414:
 1188              		.loc 1 71 0
 1189 049c 9FED615A 		flds	s10, .L49+16
 1190              	.LBB415:
 1191              	.LBB416:
 1192              		.loc 2 470 0
 1193 04a0 DFF88CB1 		ldr	fp, .L49+28
 1194              	.LBE416:
ARM GAS  /tmp/ccBJNJuT.s 			page 22


 1195              	.LBE415:
 1196              		.loc 1 71 0
 1197 04a4 DFED607A 		flds	s15, .L49+20
 1198              	.LBE414:
 1199              	.LBE413:
 1200              	.LBE402:
 1201              	.LBB452:
 1202              	.LBB400:
 1203              		.loc 5 121 0
 1204 04a8 A5F88844 		strh	r4, [r5, #1160]	@ movhi
 1205              		.loc 5 122 0
 1206 04ac A5F88A04 		strh	r0, [r5, #1162]	@ movhi
 1207 04b0 2C46     		mov	r4, r5
 1208              		.loc 5 125 0
 1209 04b2 C6F80480 		str	r8, [r6, #4]	@ float
 1210              		.loc 5 124 0
 1211 04b6 3260     		str	r2, [r6]	@ float
 1212              		.loc 5 127 0
 1213 04b8 F260     		str	r2, [r6, #12]	@ float
 1214              		.loc 5 126 0
 1215 04ba B360     		str	r3, [r6, #8]	@ float
 1216              		.loc 5 129 0
 1217 04bc B361     		str	r3, [r6, #24]	@ float
 1218              		.loc 5 130 0
 1219 04be F361     		str	r3, [r6, #28]	@ float
 1220              		.loc 5 131 0
 1221 04c0 3362     		str	r3, [r6, #32]	@ float
 1222              	.LBE400:
 1223              	.LBE452:
 1224              		.loc 1 170 0
 1225 04c2 8846     		mov	r8, r1
 1226              	.LBB453:
 1227              	.LBB401:
 1228              		.loc 5 133 0
 1229 04c4 85F87404 		strb	r0, [r5, #1140]
 1230              		.loc 5 134 0
 1231 04c8 85F87514 		strb	r1, [r5, #1141]
 1232              		.loc 5 135 0
 1233 04cc 85F87614 		strb	r1, [r5, #1142]
 1234              		.loc 5 137 0
 1235 04d0 A5F88EE4 		strh	lr, [r5, #1166]	@ movhi
 1236 04d4 A5F88CE4 		strh	lr, [r5, #1164]	@ movhi
 1237              	.LBE401:
 1238              	.LBE453:
 1239              		.loc 1 169 0
 1240 04d8 85F840E4 		strb	lr, [r5, #1088]
 1241 04dc 05F59D66 		add	r6, r5, #1256
 1242              		.loc 1 170 0
 1243 04e0 3A60     		str	r2, [r7]	@ float
 1244              	.LVL88:
 1245 04e2 05F59C69 		add	r9, r5, #1248
 1246 04e6 2846     		mov	r0, r5
 1247 04e8 2F46     		mov	r7, r5
 1248              	.LVL89:
 1249              	.L35:
 1250 04ea 04F59E61 		add	r1, r4, #1264
 1251              	.LBB454:
ARM GAS  /tmp/ccBJNJuT.s 			page 23


 1252              		.loc 1 173 0
 1253 04ee 46F8042B 		str	r2, [r6], #4	@ float
 1254              	.LVL90:
 1255 04f2 04F2F44A 		addw	r10, r4, #1268
 1256              	.LBB430:
 1257              	.LBB431:
 1258              		.loc 4 125 0
 1259 04f6 0A60     		str	r2, [r1]	@ float
 1260 04f8 07F5A763 		add	r3, r7, #1336
 1261 04fc 07F63811 		addw	r1, r7, #2360
 1262              	.LVL91:
 1263              	.LBE431:
 1264              	.LBE430:
 1265              	.LBB433:
 1266              	.LBB434:
 1267              	.LBB435:
 1268              	.LBB436:
 1269              	.LBB437:
 1270              		.file 6 "/home/sbcu/Dropbox/pcb-layouts/axo-on-discovery-board/axoloti/platform_linux/arm-none-eab
 1271              		.loc 6 703 0
 1272 0500 9942     		cmp	r1, r3
 1273              	.LBE437:
 1274              	.LBE436:
 1275              	.LBE435:
 1276              	.LBE434:
 1277              	.LBE433:
 1278              	.LBB442:
 1279              	.LBB432:
 1280              		.loc 4 126 0
 1281 0502 CAF80020 		str	r2, [r10]	@ float
 1282              	.LVL92:
 1283              	.LBE432:
 1284              	.LBE442:
 1285              	.LBB443:
 1286              	.LBB441:
 1287              		.loc 4 57 0
 1288 0506 C7F834C5 		str	ip, [r7, #1332]
 1289              	.LBB440:
 1290              	.LBB439:
 1291              	.LBB438:
 1292              		.loc 6 703 0
 1293 050a 03D0     		beq	.L40
 1294              	.LVL93:
 1295              	.L39:
 1296              		.loc 6 704 0
 1297 050c 43F8042B 		str	r2, [r3], #4	@ float
 1298              	.LVL94:
 1299              		.loc 6 703 0
 1300 0510 8B42     		cmp	r3, r1
 1301 0512 FBD1     		bne	.L39
 1302              	.L40:
 1303 0514 04F21C53 		addw	r3, r4, #1308
 1304              	.LVL95:
 1305              	.LBE438:
 1306              	.LBE439:
 1307              	.LBE440:
 1308              		.loc 4 59 0
ARM GAS  /tmp/ccBJNJuT.s 			page 24


 1309 0518 0021     		movs	r1, #0
 1310              	.LVL96:
 1311 051a 04F5A36A 		add	r10, r4, #1304
 1312 051e C7F83015 		str	r1, [r7, #1328]
 1313              	.LVL97:
 1314              	.LBE441:
 1315              	.LBE443:
 1316              	.LBB444:
 1317              	.LBB445:
 1318              	.LBB446:
 1319              		.loc 2 461 0
 1320 0522 1A60     		str	r2, [r3]	@ float
 1321 0524 04F21453 		addw	r3, r4, #1300
 1322 0528 CAF80020 		str	r2, [r10]	@ float
 1323              	.LVL98:
 1324 052c 04F5A261 		add	r1, r4, #1296
 1325              	.LVL99:
 1326              	.LBE446:
 1327              	.LBE445:
 1328              	.LBE444:
 1329              	.LBB447:
 1330              	.LBB405:
 1331              		.loc 2 474 0
 1332 0530 4FF0804A 		mov	r10, #1073741824
 1333              		.loc 2 470 0
 1334 0534 C1ED005A 		fsts	s11, [r1]
 1335              		.loc 2 474 0
 1336 0538 C3F800A0 		str	r10, [r3]	@ float
 1337 053c 05F55461 		add	r1, r5, #3392
 1338              	.LVL100:
 1339 0540 05F64453 		addw	r3, r5, #3396
 1340              	.LBE405:
 1341              	.LBE447:
 1342              		.loc 1 185 0
 1343 0544 49F8042B 		str	r2, [r9], #4	@ float
 1344              	.LVL101:
 1345              	.LBB448:
 1346              	.LBB410:
 1347              	.LBB409:
 1348              		.loc 2 220 0
 1349 0548 81ED006A 		fsts	s12, [r1]
 1350              		.loc 2 221 0
 1351 054c C3ED006A 		fsts	s13, [r3]
 1352 0550 05F55561 		add	r1, r5, #3408
 1353              	.LVL102:
 1354 0554 05F64C53 		addw	r3, r5, #3404
 1355 0558 05F6485A 		addw	r10, r5, #3400
 1356              		.loc 2 222 0
 1357 055c 8AED007A 		fsts	s14, [r10]
 1358              	.LVL103:
 1359              	.LBE409:
 1360              	.LBE410:
 1361              	.LBB411:
 1362              	.LBB412:
 1363              		.loc 2 184 0
 1364 0560 0A60     		str	r2, [r1]	@ float
 1365 0562 1A60     		str	r2, [r3]	@ float
ARM GAS  /tmp/ccBJNJuT.s 			page 25


 1366              	.LBE412:
 1367              	.LBE411:
 1368              	.LBE448:
 1369              		.loc 1 188 0
 1370 0564 BEF1000F 		cmp	lr, #0
 1371 0568 27D0     		beq	.L48
 1372              	.LVL104:
 1373 056a 00F55B6A 		add	r10, r0, #3504
 1374 056e 00F6A853 		addw	r3, r0, #3496
 1375              	.LBB449:
 1376              	.LBB427:
 1377              		.loc 1 70 0 discriminator 4
 1378 0572 CAF80020 		str	r2, [r10]	@ float
 1379 0576 00F6B851 		addw	r1, r0, #3512
 1380 057a 00F6AC5A 		addw	r10, r0, #3500
 1381              		.loc 1 71 0 discriminator 4
 1382 057e C1ED007A 		fsts	s15, [r1]
 1383              		.loc 1 72 0 discriminator 4
 1384 0582 1A60     		str	r2, [r3]	@ float
 1385 0584 00F6B451 		addw	r1, r0, #3508
 1386 0588 00F6C853 		addw	r3, r0, #3528
 1387              		.loc 1 73 0 discriminator 4
 1388 058c CAF80020 		str	r2, [r10]	@ float
 1389 0590 00F6C45A 		addw	r10, r0, #3524
 1390              		.loc 1 74 0 discriminator 4
 1391 0594 0A60     		str	r2, [r1]	@ float
 1392              	.LVL105:
 1393              	.LBB419:
 1394              	.LBB420:
 1395              	.LBB421:
 1396              		.loc 2 461 0 discriminator 4
 1397 0596 1A60     		str	r2, [r3]	@ float
 1398 0598 00F6BC51 		addw	r1, r0, #3516
 1399 059c 00F55C63 		add	r3, r0, #3520
 1400 05a0 CAF80020 		str	r2, [r10]	@ float
 1401              	.LVL106:
 1402              	.LBE421:
 1403              	.LBE420:
 1404              	.LBE419:
 1405              	.LBE427:
 1406              	.LBE449:
 1407              		.loc 1 172 0 discriminator 4
 1408 05a4 B8F1020F 		cmp	r8, #2
 1409              	.LBB450:
 1410              	.LBB428:
 1411              	.LBB424:
 1412              	.LBB417:
 1413              		.loc 2 474 0 discriminator 4
 1414 05a8 4FF07E5A 		mov	r10, #1065353216
 1415              		.loc 2 470 0 discriminator 4
 1416 05ac C1F800B0 		str	fp, [r1]	@ float
 1417              		.loc 2 474 0 discriminator 4
 1418 05b0 C3F800A0 		str	r10, [r3]	@ float
 1419              	.LVL107:
 1420              	.LBE417:
 1421              	.LBE424:
 1422              	.LBE428:
ARM GAS  /tmp/ccBJNJuT.s 			page 26


 1423              	.LBE450:
 1424              		.loc 1 172 0 discriminator 4
 1425 05b4 24D1     		bne	.L41
 1426 05b6 BDE8F88F 		pop	{r3, r4, r5, r6, r7, r8, r9, r10, fp, pc}
 1427              	.LVL108:
 1428              	.L48:
 1429 05ba 00F55B6A 		add	r10, r0, #3504
 1430 05be 00F6A853 		addw	r3, r0, #3496
 1431              	.LBB451:
 1432              	.LBB429:
 1433              		.loc 1 70 0
 1434 05c2 CAF80020 		str	r2, [r10]	@ float
 1435 05c6 00F6B851 		addw	r1, r0, #3512
 1436 05ca 00F6AC5A 		addw	r10, r0, #3500
 1437              		.loc 1 71 0
 1438 05ce 81ED005A 		fsts	s10, [r1]
 1439              		.loc 1 72 0
 1440 05d2 1A60     		str	r2, [r3]	@ float
 1441 05d4 00F6B451 		addw	r1, r0, #3508
 1442 05d8 00F6C853 		addw	r3, r0, #3528
 1443              		.loc 1 73 0
 1444 05dc CAF80020 		str	r2, [r10]	@ float
 1445 05e0 00F6C45A 		addw	r10, r0, #3524
 1446              		.loc 1 74 0
 1447 05e4 0A60     		str	r2, [r1]	@ float
 1448              	.LVL109:
 1449              	.LBB425:
 1450              	.LBB423:
 1451              	.LBB422:
 1452              		.loc 2 461 0
 1453 05e6 1A60     		str	r2, [r3]	@ float
 1454 05e8 00F6BC51 		addw	r1, r0, #3516
 1455 05ec 00F55C63 		add	r3, r0, #3520
 1456 05f0 CAF80020 		str	r2, [r10]	@ float
 1457              	.LVL110:
 1458              	.LBE422:
 1459              	.LBE423:
 1460              	.LBE425:
 1461              	.LBB426:
 1462              	.LBB418:
 1463              		.loc 2 474 0
 1464 05f4 4FF07E5A 		mov	r10, #1065353216
 1465              		.loc 2 470 0
 1466 05f8 C1F800B0 		str	fp, [r1]	@ float
 1467              		.loc 2 474 0
 1468 05fc C3F800A0 		str	r10, [r3]	@ float
 1469              	.LVL111:
 1470              	.L41:
 1471 0600 0EF1010E 		add	lr, lr, #1
 1472 0604 1034     		adds	r4, r4, #16
 1473              	.LVL112:
 1474 0606 07F58167 		add	r7, r7, #1032
 1475              	.LVL113:
 1476 060a 08F10108 		add	r8, r8, #1
 1477              	.LVL114:
 1478 060e 6430     		adds	r0, r0, #100
 1479              	.LVL115:
ARM GAS  /tmp/ccBJNJuT.s 			page 27


 1480 0610 1435     		adds	r5, r5, #20
 1481              	.LVL116:
 1482 0612 6AE7     		b	.L35
 1483              	.L50:
 1484              		.align	2
 1485              	.L49:
 1486 0614 7A371E3F 		.word	1058944890
 1487 0618 22BA003D 		.word	1023457826
 1488 061c 0AD7233C 		.word	1008981770
 1489 0620 CAAA7F3F 		.word	1065331402
 1490 0624 333333BF 		.word	-1087163597
 1491 0628 3333333F 		.word	1060320051
 1492 062c 00000000 		.word	.LANCHOR0
 1493 0630 5C30A03E 		.word	1050685532
 1494              	.LBE418:
 1495              	.LBE426:
 1496              	.LBE429:
 1497              	.LBE451:
 1498              	.LBE454:
 1499              	.LBE397:
 1500              		.cfi_endproc
 1501              	.LFE669:
 1502              		.fnend
 1503              		.size	_ZN8elements12OminousVoice4InitEv, .-_ZN8elements12OminousVoice4InitEv
 1504              		.align	2
 1505 0634 AFF30080 		.p2align 4,,15
 1505      AFF30080 
 1505      AFF30080 
 1506              		.global	_ZN8elements12OminousVoice17ConfigureEnvelopeERKNS_5PatchE
 1507              		.thumb
 1508              		.thumb_func
 1509              		.type	_ZN8elements12OminousVoice17ConfigureEnvelopeERKNS_5PatchE, %function
 1510              	_ZN8elements12OminousVoice17ConfigureEnvelopeERKNS_5PatchE:
 1511              		.fnstart
 1512              	.LFB670:
 1513              		.loc 1 192 0
 1514              		.cfi_startproc
 1515              		@ args = 0, pretend = 0, frame = 0
 1516              		@ frame_needed = 0, uses_anonymous_args = 0
 1517              	.LVL117:
 1518              	.LBB455:
 1519              		.loc 1 193 0
 1520 0640 D1ED007A 		flds	s15, [r1]
 1521 0644 9FED3D7A 		flds	s14, .L66
 1522 0648 F4EEC77A 		fcmpes	s15, s14
 1523 064c F1EE10FA 		fmstat
 1524              	.LBE455:
 1525              		.loc 1 192 0
 1526 0650 F0B5     		push	{r4, r5, r6, r7, lr}
 1527              		.cfi_def_cfa_offset 20
 1528              		.cfi_offset 4, -20
 1529              		.cfi_offset 5, -16
 1530              		.cfi_offset 6, -12
 1531              		.cfi_offset 7, -8
 1532              		.cfi_offset 14, -4
 1533              	.LBB472:
 1534              		.loc 1 193 0
ARM GAS  /tmp/ccBJNJuT.s 			page 28


 1535 0652 53D4     		bmi	.L64
 1536              	.LBB456:
 1537              		.loc 1 197 0
 1538 0654 DFED3A6A 		flds	s13, .L66+4
 1539 0658 F4EEE67A 		fcmpes	s15, s13
 1540 065c F1EE10FA 		fmstat
 1541 0660 2ED4     		bmi	.L65
 1542              	.LVL118:
 1543              	.LBB457:
 1544              		.loc 1 202 0
 1545 0662 F7EE006A 		fconsts	s13, #112
 1546 0666 76EEE77A 		fsubs	s15, s13, s15
 1547 066a 9FED367A 		flds	s14, .L66+8
 1548 066e 9FED366A 		flds	s12, .L66+12
 1549 0672 F6EE085A 		fconsts	s11, #104
 1550 0676 A7EEA57A 		vfma.f32	s14, s15, s11
 1551              	.LBB458:
 1552              	.LBB459:
 1553              		.loc 5 124 0
 1554 067a 00F24443 		addw	r3, r0, #1092
 1555 067e 0022     		movs	r2, #0
 1556              		.loc 5 121 0
 1557 0680 0326     		movs	r6, #3
 1558              	.LBE459:
 1559              	.LBE458:
 1560              		.loc 1 202 0
 1561 0682 67EE067A 		fmuls	s15, s14, s12
 1562              	.LVL119:
 1563              	.LBB461:
 1564              	.LBB460:
 1565              		.loc 5 122 0
 1566 0686 0225     		movs	r5, #2
 1567              		.loc 5 121 0
 1568 0688 A0F88864 		strh	r6, [r0, #1160]	@ movhi
 1569              		.loc 5 122 0
 1570 068c A0F88A54 		strh	r5, [r0, #1162]	@ movhi
 1571              		.loc 5 134 0
 1572 0690 0124     		movs	r4, #1
 1573              		.loc 5 137 0
 1574 0692 0021     		movs	r1, #0
 1575              	.LVL120:
 1576              		.loc 5 130 0
 1577 0694 C3ED077A 		fsts	s15, [r3, #28]
 1578              		.loc 5 131 0
 1579 0698 C3ED087A 		fsts	s15, [r3, #32]
 1580              		.loc 5 125 0
 1581 069c C3ED016A 		fsts	s13, [r3, #4]
 1582              		.loc 5 126 0
 1583 06a0 C3ED026A 		fsts	s13, [r3, #8]
 1584              		.loc 5 124 0
 1585 06a4 1A60     		str	r2, [r3]	@ float
 1586              	.LVL121:
 1587              	.L62:
 1588              		.loc 5 127 0
 1589 06a6 DA60     		str	r2, [r3, #12]	@ float
 1590              		.loc 5 129 0
 1591 06a8 9A61     		str	r2, [r3, #24]	@ float
ARM GAS  /tmp/ccBJNJuT.s 			page 29


 1592              	.L63:
 1593              		.loc 5 133 0
 1594 06aa 80F87454 		strb	r5, [r0, #1140]
 1595              		.loc 5 134 0
 1596 06ae 80F87544 		strb	r4, [r0, #1141]
 1597              		.loc 5 135 0
 1598 06b2 80F87644 		strb	r4, [r0, #1142]
 1599              		.loc 5 137 0
 1600 06b6 A0F88E14 		strh	r1, [r0, #1166]	@ movhi
 1601 06ba A0F88C14 		strh	r1, [r0, #1164]	@ movhi
 1602 06be F0BD     		pop	{r4, r5, r6, r7, pc}
 1603              	.LVL122:
 1604              	.L65:
 1605              	.LBE460:
 1606              	.LBE461:
 1607              	.LBE457:
 1608              	.LBB462:
 1609              		.loc 1 198 0
 1610 06c0 77EEC77A 		fsubs	s15, s15, s14
 1611              	.LVL123:
 1612 06c4 B1EE047A 		fconsts	s14, #20
 1613              	.LBB463:
 1614              	.LBB464:
 1615              		.loc 5 124 0
 1616 06c8 00F24443 		addw	r3, r0, #1092
 1617              	.LVL124:
 1618              	.LBE464:
 1619              	.LBE463:
 1620              		.loc 1 198 0
 1621 06cc 67EE877A 		fmuls	s15, s15, s14
 1622              	.LBB466:
 1623              	.LBB465:
 1624              		.loc 5 124 0
 1625 06d0 0022     		movs	r2, #0
 1626              		.loc 5 130 0
 1627 06d2 1E4E     		ldr	r6, .L66+16
 1628              		.loc 5 121 0
 1629 06d4 4FF0030E 		mov	lr, #3
 1630              		.loc 5 122 0
 1631 06d8 0225     		movs	r5, #2
 1632              		.loc 5 125 0
 1633 06da 4FF07E57 		mov	r7, #1065353216
 1634              		.loc 5 121 0
 1635 06de A0F888E4 		strh	lr, [r0, #1160]	@ movhi
 1636              		.loc 5 122 0
 1637 06e2 A0F88A54 		strh	r5, [r0, #1162]	@ movhi
 1638              		.loc 5 134 0
 1639 06e6 0124     		movs	r4, #1
 1640              		.loc 5 137 0
 1641 06e8 0021     		movs	r1, #0
 1642              	.LVL125:
 1643              		.loc 5 126 0
 1644 06ea C3ED027A 		fsts	s15, [r3, #8]
 1645              		.loc 5 125 0
 1646 06ee 5F60     		str	r7, [r3, #4]	@ float
 1647              		.loc 5 124 0
 1648 06f0 1A60     		str	r2, [r3]	@ float
ARM GAS  /tmp/ccBJNJuT.s 			page 30


 1649              		.loc 5 127 0
 1650 06f2 DA60     		str	r2, [r3, #12]	@ float
 1651              		.loc 5 129 0
 1652 06f4 9A61     		str	r2, [r3, #24]	@ float
 1653              		.loc 5 130 0
 1654 06f6 DE61     		str	r6, [r3, #28]	@ float
 1655              		.loc 5 131 0
 1656 06f8 1E62     		str	r6, [r3, #32]	@ float
 1657 06fa D6E7     		b	.L63
 1658              	.LVL126:
 1659              	.L64:
 1660              	.LBE465:
 1661              	.LBE466:
 1662              	.LBE462:
 1663              	.LBE456:
 1664              	.LBB467:
 1665              		.loc 1 195 0
 1666 06fc 9FED147A 		flds	s14, .L66+20
 1667 0700 DFED116A 		flds	s13, .L66+12
 1668 0704 B6EE046A 		fconsts	s12, #100
 1669 0708 A7EE867A 		vfma.f32	s14, s15, s12
 1670              	.LBB468:
 1671              	.LBB469:
 1672              		.loc 5 124 0
 1673 070c 00F24443 		addw	r3, r0, #1092
 1674 0710 0022     		movs	r2, #0
 1675              		.loc 5 121 0
 1676 0712 0327     		movs	r7, #3
 1677              	.LBE469:
 1678              	.LBE468:
 1679              		.loc 1 195 0
 1680 0714 67EE267A 		fmuls	s15, s14, s13
 1681              	.LVL127:
 1682              	.LBB471:
 1683              	.LBB470:
 1684              		.loc 5 122 0
 1685 0718 0225     		movs	r5, #2
 1686              		.loc 5 125 0
 1687 071a 4FF07E56 		mov	r6, #1065353216
 1688              		.loc 5 121 0
 1689 071e A0F88874 		strh	r7, [r0, #1160]	@ movhi
 1690              		.loc 5 122 0
 1691 0722 A0F88A54 		strh	r5, [r0, #1162]	@ movhi
 1692              		.loc 5 134 0
 1693 0726 0124     		movs	r4, #1
 1694              		.loc 5 137 0
 1695 0728 0021     		movs	r1, #0
 1696              	.LVL128:
 1697              		.loc 5 130 0
 1698 072a C3ED077A 		fsts	s15, [r3, #28]
 1699              		.loc 5 131 0
 1700 072e C3ED087A 		fsts	s15, [r3, #32]
 1701              		.loc 5 125 0
 1702 0732 5E60     		str	r6, [r3, #4]	@ float
 1703              		.loc 5 124 0
 1704 0734 1A60     		str	r2, [r3]	@ float
 1705              		.loc 5 126 0
ARM GAS  /tmp/ccBJNJuT.s 			page 31


 1706 0736 9A60     		str	r2, [r3, #8]	@ float
 1707 0738 B5E7     		b	.L62
 1708              	.L67:
 1709 073a 00BF     		.align	2
 1710              	.L66:
 1711 073c CDCCCC3E 		.word	1053609165
 1712 0740 9A99193F 		.word	1058642330
 1713 0744 9A99193E 		.word	1041865114
 1714 0748 6666E63F 		.word	1072064102
 1715 074c CDCC4C3F 		.word	1061997773
 1716 0750 CDCC4C3E 		.word	1045220557
 1717              	.LBE470:
 1718              	.LBE471:
 1719              	.LBE467:
 1720              	.LBE472:
 1721              		.cfi_endproc
 1722              	.LFE670:
 1723              		.cantunwind
 1724              		.fnend
 1725              		.size	_ZN8elements12OminousVoice17ConfigureEnvelopeERKNS_5PatchE, .-_ZN8elements12OminousVoice17Co
 1726              		.align	2
 1727 0754 AFF30080 		.p2align 4,,15
 1727      AFF30080 
 1727      AFF30080 
 1728              		.global	_ZN8elements12OminousVoice7ProcessERKNS_5PatchEffbPKfS5_PfS6_S6_j
 1729              		.thumb
 1730              		.thumb_func
 1731              		.type	_ZN8elements12OminousVoice7ProcessERKNS_5PatchEffbPKfS5_PfS6_S6_j, %function
 1732              	_ZN8elements12OminousVoice7ProcessERKNS_5PatchEffbPKfS5_PfS6_S6_j:
 1733              		.fnstart
 1734              	.LFB671:
 1735              		.loc 1 217 0
 1736              		.cfi_startproc
 1737              		@ args = 20, pretend = 0, frame = 64
 1738              		@ frame_needed = 0, uses_anonymous_args = 0
 1739              	.LVL129:
 1740 0760 2DE9F04F 		push	{r4, r5, r6, r7, r8, r9, r10, fp, lr}
 1741              		.cfi_def_cfa_offset 36
 1742              		.cfi_offset 4, -36
 1743              		.cfi_offset 5, -32
 1744              		.cfi_offset 6, -28
 1745              		.cfi_offset 7, -24
 1746              		.cfi_offset 8, -20
 1747              		.cfi_offset 9, -16
 1748              		.cfi_offset 10, -12
 1749              		.cfi_offset 11, -8
 1750              		.cfi_offset 14, -4
 1751 0764 2DED088B 		fstmfdd	sp!, {d8, d9, d10, d11}
 1752              		.cfi_def_cfa_offset 68
 1753              		.cfi_offset 80, -68
 1754              		.cfi_offset 81, -64
 1755              		.cfi_offset 82, -60
 1756              		.cfi_offset 83, -56
 1757              		.cfi_offset 84, -52
 1758              		.cfi_offset 85, -48
 1759              		.cfi_offset 86, -44
 1760              		.cfi_offset 87, -40
ARM GAS  /tmp/ccBJNJuT.s 			page 32


 1761 0768 93B0     		sub	sp, sp, #76
 1762              		.cfi_def_cfa_offset 144
 1763              		.loc 1 217 0
 1764 076a B0EE40AA 		fcpys	s20, s0
 1765 076e B0EE608A 		fcpys	s16, s1
 1766 0772 9846     		mov	r8, r3
 1767 0774 DDF8A090 		ldr	r9, [sp, #160]
 1768 0778 0446     		mov	r4, r0
 1769 077a 8B46     		mov	fp, r1
 1770              	.LBB532:
 1771              	.LBB533:
 1772              	.LBB534:
 1773              		.loc 4 212 0
 1774 077c 1646     		mov	r6, r2
 1775 077e 002A     		cmp	r2, #0
 1776 0780 00F0B483 		beq	.L69
 1777              		.loc 4 213 0
 1778 0784 90F84064 		ldrb	r6, [r0, #1088]	@ zero_extendqisi2
 1779              		.loc 4 220 0
 1780 0788 0123     		movs	r3, #1
 1781              	.LVL130:
 1782              		.loc 4 213 0
 1783 078a 5E40     		eors	r6, r6, r3
 1784              	.LVL131:
 1785              		.loc 4 220 0
 1786 078c 80F84034 		strb	r3, [r0, #1088]
 1787              		.loc 4 216 0
 1788 0790 46F00405 		orr	r5, r6, #4
 1789              	.LVL132:
 1790              	.LBE534:
 1791              	.LBE533:
 1792              		.loc 1 221 0
 1793 0794 FFF7FEFF 		bl	_ZN8elements12OminousVoice17ConfigureEnvelopeERKNS_5PatchE
 1794              	.LVL133:
 1795              	.LBB536:
 1796              	.LBB537:
 1797              		.loc 5 59 0
 1798 0798 002E     		cmp	r6, #0
 1799 079a 00F0D883 		beq	.L128
 1800              		.loc 5 60 0
 1801 079e B4F88804 		ldrh	r0, [r4, #1160]
 1802 07a2 B4F97A34 		ldrsh	r3, [r4, #1146]
 1803              		.loc 5 62 0
 1804 07a6 8342     		cmp	r3, r0
 1805 07a8 04D0     		beq	.L73
 1806              		.loc 5 60 0
 1807 07aa 94F89034 		ldrb	r3, [r4, #1168]	@ zero_extendqisi2
 1808 07ae 002B     		cmp	r3, #0
 1809 07b0 00F0F983 		beq	.L74
 1810              	.L73:
 1811              		.loc 5 62 0
 1812 07b4 04F24443 		addw	r3, r4, #1092
 1813 07b8 93ED007A 		flds	s14, [r3]
 1814              	.L75:
 1815              		.loc 5 64 0
 1816 07bc DFEDE46A 		flds	s13, .L190
 1817 07c0 B4F88A74 		ldrh	r7, [r4, #1162]
ARM GAS  /tmp/ccBJNJuT.s 			page 33


 1818              		.loc 5 62 0
 1819 07c4 83ED0E7A 		fsts	s14, [r3, #56]
 1820              		.loc 5 63 0
 1821 07c8 0021     		movs	r1, #0
 1822 07ca A4F87A14 		strh	r1, [r4, #1146]	@ movhi
 1823              		.loc 5 64 0
 1824 07ce F0EE667A 		fcpys	s15, s13
 1825 07d2 0A46     		mov	r2, r1
 1826 07d4 B0EE666A 		fcpys	s12, s13
 1827 07d8 C3ED106A 		fsts	s13, [r3, #64]
 1828 07dc 0126     		movs	r6, #1
 1829 07de 4FF0040E 		mov	lr, #4
 1830              	.LVL134:
 1831              	.L76:
 1832              		.loc 5 79 0
 1833 07e2 002F     		cmp	r7, #0
 1834 07e4 40F0AA83 		bne	.L78
 1835              	.LVL135:
 1836              	.L81:
 1837              		.loc 5 83 0
 1838 07e8 8142     		cmp	r1, r0
 1839 07ea 00F0AD83 		beq	.L134
 1840              	.LVL136:
 1841              		.loc 5 84 0
 1842 07ee 03EB8100 		add	r0, r3, r1, lsl #2
 1843              	.LBB538:
 1844              	.LBB539:
 1845              		.loc 5 329 0
 1846 07f2 D0ED066A 		flds	s13, [r0, #24]
 1847 07f6 DFEDD75A 		flds	s11, .L190+4
 1848              		.loc 5 332 0
 1849 07fa D74D     		ldr	r5, .L190+8
 1850              		.loc 5 329 0
 1851 07fc 66EEA55A 		fmuls	s11, s13, s11
 1852              	.LVL137:
 1853              		.loc 5 330 0
 1854 0800 FCEEE56A 		ftouizs	s13, s11
 1855              	.LVL138:
 1856              		.loc 5 332 0
 1857 0804 16EE900A 		fmrs	r0, s13	@ int
 1858 0808 8000     		lsls	r0, r0, #2
 1859 080a 4719     		adds	r7, r0, r5
 1860              		.loc 5 331 0
 1861 080c B8EE665A 		fuitos	s10, s13
 1862              		.loc 5 334 0
 1863 0810 D7ED014A 		flds	s9, [r7, #4]
 1864              		.loc 5 332 0
 1865 0814 D7ED006A 		flds	s13, [r7]
 1866              	.LVL139:
 1867              		.loc 5 331 0
 1868 0818 75EEC55A 		fsubs	s11, s11, s10
 1869              	.LVL140:
 1870              		.loc 5 334 0
 1871 081c 34EEE65A 		fsubs	s10, s9, s13
 1872 0820 E5EE856A 		vfma.f32	s13, s11, s10
 1873              	.LVL141:
 1874              	.L82:
ARM GAS  /tmp/ccBJNJuT.s 			page 34


 1875              	.LBE539:
 1876              	.LBE538:
 1877              		.loc 5 87 0
 1878 0824 2144     		add	r1, r1, r4
 1879              		.loc 5 88 0
 1880 0826 CD48     		ldr	r0, .L190+12
 1881              		.loc 5 87 0
 1882 0828 91F87414 		ldrb	r1, [r1, #1140]	@ zero_extendqisi2
 1883              		.loc 5 88 0
 1884 082c 0A31     		adds	r1, r1, #10
 1885              		.loc 5 90 0
 1886 082e 03EB8606 		add	r6, r3, r6, lsl #2
 1887              		.loc 5 88 0
 1888 0832 50F82110 		ldr	r1, [r0, r1, lsl #2]
 1889              	.LVL142:
 1890              		.loc 5 90 0
 1891 0836 96ED005A 		flds	s10, [r6]
 1892              	.LBB540:
 1893              	.LBB541:
 1894              		.loc 5 332 0
 1895 083a 0A44     		add	r2, r2, r1
 1896              		.loc 5 333 0
 1897 083c 7144     		add	r1, r1, lr
 1898              	.LVL143:
 1899              		.loc 5 332 0
 1900 083e D2ED005A 		flds	s11, [r2]
 1901              	.LVL144:
 1902              		.loc 5 334 0
 1903 0842 D1ED004A 		flds	s9, [r1]
 1904 0846 74EEE54A 		fsubs	s9, s9, s11
 1905              	.LBE541:
 1906              	.LBE540:
 1907              		.loc 5 90 0
 1908 084a 35EE475A 		fsubs	s10, s10, s14
 1909              	.LBB543:
 1910              	.LBB542:
 1911              		.loc 5 334 0
 1912 084e E4EEA75A 		vfma.f32	s11, s9, s15
 1913              	.LVL145:
 1914              	.LBE542:
 1915              	.LBE543:
 1916              	.LBE537:
 1917              	.LBE536:
 1918              		.loc 1 224 0
 1919 0852 04F2D442 		addw	r2, r4, #1236
 1920              	.LVL146:
 1921 0856 0B92     		str	r2, [sp, #44]
 1922              		.loc 1 223 0
 1923 0858 F6EE007A 		fconsts	s15, #96
 1924              	.LVL147:
 1925              	.LBB548:
 1926              	.LBB544:
 1927              		.loc 5 90 0
 1928 085c A5EE857A 		vfma.f32	s14, s11, s10
 1929              	.LBE544:
 1930              	.LBE548:
 1931              		.loc 1 223 0
ARM GAS  /tmp/ccBJNJuT.s 			page 35


 1932 0860 B4EEE78A 		fcmpes	s16, s15
 1933              	.LBB549:
 1934              	.LBB545:
 1935              		.loc 5 89 0
 1936 0864 76EE866A 		fadds	s13, s13, s12
 1937              	.LVL148:
 1938              	.LBE545:
 1939              	.LBE549:
 1940              		.loc 1 223 0
 1941 0868 F1EE10FA 		fmstat
 1942 086c A4BF     		itt	ge
 1943 086e F0EE007A 		fconstsge	s15, #0
 1944 0872 FFEE009A 		fconstsge	s19, #240
 1945              	.LBB550:
 1946              	.LBB546:
 1947              		.loc 5 89 0
 1948 0876 C3ED106A 		fsts	s13, [r3, #64]
 1949              		.loc 5 90 0
 1950 087a 83ED0F7A 		fsts	s14, [r3, #60]
 1951              	.LBE546:
 1952              	.LBE550:
 1953              		.loc 1 226 0
 1954 087e 04F59B63 		add	r3, r4, #1240
 1955              		.loc 1 223 0
 1956 0882 A8BF     		it	ge
 1957 0884 E8EE279A 		vfmage.f32	s19, s16, s15
 1958              		.loc 1 226 0
 1959 0888 DBED0C6A 		flds	s13, [fp, #48]
 1960 088c D3ED007A 		flds	s15, [r3]
 1961 0890 DFEDB35A 		flds	s11, .L190+16
 1962              		.loc 1 223 0
 1963 0894 B8BF     		it	lt
 1964 0896 DFEDAE9A 		fldslt	s19, .L190
 1965              		.loc 1 227 0
 1966 089a 9FEDB26A 		flds	s12, .L190+20
 1967              		.loc 1 233 0
 1968 089e DBED0B4A 		flds	s9, [fp, #44]
 1969 08a2 9FEDB15A 		flds	s10, .L190+24
 1970              		.loc 1 226 0
 1971 08a6 76EEE76A 		fsubs	s13, s13, s15
 1972              		.loc 1 223 0
 1973 08aa 79EE879A 		fadds	s19, s19, s14
 1974              	.LVL149:
 1975              		.loc 1 226 0
 1976 08ae E6EEA57A 		vfma.f32	s15, s13, s11
 1977              		.loc 1 224 0
 1978 08b2 06EE909A 		fmsr	s13, r9	@ int
 1979              		.loc 1 226 0
 1980 08b6 B0EE677A 		fcpys	s14, s15
 1981              		.loc 1 224 0
 1982 08ba D2ED007A 		flds	s15, [r2]
 1983              		.loc 1 234 0
 1984 08be DFEDAB5A 		flds	s11, .L190+28
 1985              		.loc 1 226 0
 1986 08c2 83ED007A 		fsts	s14, [r3]
 1987              		.loc 1 227 0
 1988 08c6 B4EEC67A 		fcmpes	s14, s12
ARM GAS  /tmp/ccBJNJuT.s 			page 36


 1989              		.loc 1 224 0
 1990 08ca B8EE668A 		fuitos	s16, s13
 1991              	.LVL150:
 1992              		.loc 1 227 0
 1993 08ce F1EE10FA 		fmstat
 1994              		.loc 1 224 0
 1995 08d2 79EEE77A 		fsubs	s15, s19, s15
 1996              		.loc 1 227 0
 1997 08d6 94BF     		ite	ls
 1998 08d8 DFEDA56A 		fldsls	s13, .L190+32
 1999 08dc DFEDA56A 		fldshi	s13, .L190+36
 2000              		.loc 1 235 0
 2001 08e0 9FEDA56A 		flds	s12, .L190+40
 2002              		.loc 1 224 0
 2003 08e4 87EE888A 		fdivs	s16, s15, s16
 2004              	.LVL151:
 2005              		.loc 1 233 0
 2006 08e8 F2EE087A 		fconsts	s15, #40
 2007              		.loc 1 227 0
 2008 08ec 98BF     		it	ls
 2009 08ee 67EE266A 		fmulsls	s13, s14, s13
 2010              	.LVL152:
 2011              		.loc 1 233 0
 2012 08f2 E4EE857A 		vfma.f32	s15, s9, s10
 2013              		.loc 1 234 0
 2014 08f6 66EEA96A 		fmuls	s13, s13, s19
 2015              	.LVL153:
 2016              		.loc 1 235 0
 2017 08fa 3AEE466A 		fsubs	s12, s20, s12
 2018              		.loc 1 234 0
 2019 08fe E6EEA57A 		vfma.f32	s15, s13, s11
 2020              		.loc 1 229 0
 2021 0902 67EE076A 		fmuls	s13, s14, s14
 2022 0906 F6EE005A 		fconsts	s11, #96
 2023              		.loc 1 235 0
 2024 090a E6EE257A 		vfma.f32	s15, s12, s11
 2025              		.loc 1 229 0
 2026 090e 67EE266A 		fmuls	s13, s14, s13
 2027 0912 B7EE009A 		fconsts	s18, #112
 2028 0916 27EE267A 		fmuls	s14, s14, s13
 2029              	.LBB551:
 2030              	.LBB552:
 2031              		.loc 4 225 0
 2032 091a FAEE086A 		fconsts	s13, #168
 2033 091e F4EEE67A 		fcmpes	s15, s13
 2034 0922 F1EE10FA 		fmstat
 2035              	.LBE552:
 2036              	.LBE551:
 2037              		.loc 1 229 0
 2038 0926 A7EE259A 		vfma.f32	s18, s14, s11
 2039              	.LVL154:
 2040              	.LBB562:
 2041              	.LBB555:
 2042              		.loc 4 225 0
 2043 092a 00F1DD82 		bmi	.L137
 2044 092e B0EE677A 		fcpys	s14, s15
 2045 0932 BEEECC7A 		vcvt.s32.f32	s14, s14, #8
ARM GAS  /tmp/ccBJNJuT.s 			page 37


 2046 0936 17EE103A 		fmrs	r3, s14	@ int
 2047 093a A3F5A043 		sub	r3, r3, #20480
 2048              	.L87:
 2049              	.LVL155:
 2050              	.LBE555:
 2051              	.LBE562:
 2052              		.loc 1 238 0
 2053 093e DBED0A7A 		flds	s15, [fp, #40]
 2054              	.LVL156:
 2055 0942 9FED8E7A 		flds	s14, .L190+44
 2056              		.loc 1 239 0
 2057 0946 9FED8E6A 		flds	s12, .L190+48
 2058              	.LBB563:
 2059              	.LBB556:
 2060              		.loc 4 230 0
 2061 094a 8E4A     		ldr	r2, .L190+52
 2062              	.LBB553:
 2063              	.LBB554:
 2064              		.loc 3 133 0
 2065              	@ 133 "./mutable_instruments/stmlib/dsp/dsp.h" 1
 2066 094c 03F30F03 		ssat r3, #16, r3
 2067              	@ 0 "" 2
 2068              	.LVL157:
 2069              		.thumb
 2070              	.LBE554:
 2071              	.LBE553:
 2072              	.LBE556:
 2073              	.LBE563:
 2074              		.loc 1 238 0
 2075 0950 77EEC77A 		fsubs	s15, s15, s14
 2076              		.loc 1 239 0
 2077 0954 F0EE006A 		fconsts	s13, #0
 2078 0958 27EEE77A 		fnmuls	s14, s15, s15
 2079              	.LBB564:
 2080              	.LBB557:
 2081              		.loc 4 229 0
 2082 095c 03F50043 		add	r3, r3, #32768
 2083              	.LVL158:
 2084              	.LBE557:
 2085              	.LBE564:
 2086              		.loc 1 239 0
 2087 0960 A7EE266A 		vfma.f32	s12, s14, s13
 2088              	.LBB565:
 2089              	.LBB558:
 2090              		.loc 4 230 0
 2091 0964 8849     		ldr	r1, .L190+56
 2092 0966 1812     		asrs	r0, r3, #8
 2093 0968 DBB2     		uxtb	r3, r3
 2094              	.LVL159:
 2095 096a 01EB8001 		add	r1, r1, r0, lsl #2
 2096 096e 02EB8303 		add	r3, r2, r3, lsl #2
 2097 0972 91ED007A 		flds	s14, [r1]
 2098              	.LBE558:
 2099              	.LBE565:
 2100              		.loc 1 240 0
 2101 0976 DBED0F7A 		flds	s15, [fp, #60]
 2102              	.LBB566:
ARM GAS  /tmp/ccBJNJuT.s 			page 38


 2103              	.LBB559:
 2104              		.loc 4 230 0
 2105 097a 93ED004A 		flds	s8, [r3]
 2106              	.LBE559:
 2107              	.LBE566:
 2108              	.LBB567:
 2109              	.LBB568:
 2110              	.LBB569:
 2111              	.LBB570:
 2112              		.loc 2 127 0
 2113 097e DFED834A 		flds	s9, .L190+60
 2114 0982 9FED833A 		flds	s6, .L190+64
 2115 0986 9FED835A 		flds	s10, .L190+68
 2116              	.LBE570:
 2117              	.LBE569:
 2118              	.LBE568:
 2119              	.LBE567:
 2120              		.loc 1 246 0
 2121 098a 2699     		ldr	r1, [sp, #152]
 2122              		.loc 1 243 0
 2123 098c F7EE045A 		fconsts	s11, #116
 2124              		.loc 1 240 0
 2125 0990 F7EE006A 		fconsts	s13, #112
 2126              		.loc 1 243 0
 2127 0994 66EE255A 		fmuls	s11, s12, s11
 2128              	.LBB589:
 2129              	.LBB560:
 2130              		.loc 4 230 0
 2131 0998 27EE047A 		fmuls	s14, s14, s8
 2132              	.LVL160:
 2133              	.LBE560:
 2134              	.LBE589:
 2135              		.loc 1 240 0
 2136 099c 77EEA67A 		fadds	s15, s15, s13
 2137              	.LBB590:
 2138              	.LBB591:
 2139              		.loc 2 221 0
 2140 09a0 C6EEA55A 		fdivs	s11, s13, s11
 2141              		.loc 2 220 0
 2142 09a4 04F65453 		addw	r3, r4, #3412
 2143              	.LBE591:
 2144              	.LBE590:
 2145              	.LBB608:
 2146              	.LBB579:
 2147 09a8 04F55460 		add	r0, r4, #3392
 2148              	.LBE579:
 2149              	.LBE608:
 2150              		.loc 1 246 0
 2151 09ac 4FEA8902 		lsl	r2, r9, #2
 2152 09b0 1144     		add	r1, r1, r2
 2153              	.LBB609:
 2154              	.LBB580:
 2155              		.loc 2 221 0
 2156 09b2 86EE866A 		fdivs	s12, s13, s12
 2157              	.LVL161:
 2158              	.LBE580:
 2159              	.LBE609:
ARM GAS  /tmp/ccBJNJuT.s 			page 39


 2160              		.loc 1 240 0
 2161 09b6 67EE877A 		fmuls	s15, s15, s14
 2162              	.LVL162:
 2163              	.LBB610:
 2164              	.LBB581:
 2165              	.LBB575:
 2166              	.LBB571:
 2167              		.loc 2 126 0
 2168 09ba 67EE073A 		fmuls	s7, s14, s14
 2169              	.LVL163:
 2170              	.LBE571:
 2171              	.LBE575:
 2172              	.LBE581:
 2173              	.LBE610:
 2174              	.LBB611:
 2175              	.LBB600:
 2176              	.LBB592:
 2177              	.LBB593:
 2178 09be 27EEA74A 		fmuls	s8, s15, s15
 2179              	.LBE593:
 2180              	.LBE592:
 2181              	.LBE600:
 2182              	.LBE611:
 2183              	.LBB612:
 2184              	.LBB582:
 2185              	.LBB576:
 2186              	.LBB572:
 2187              		.loc 2 127 0
 2188 09c2 F0EE642A 		fcpys	s5, s9
 2189 09c6 E3EE832A 		vfma.f32	s5, s7, s6
 2190              	.LBE572:
 2191              	.LBE576:
 2192              	.LBE582:
 2193              	.LBE612:
 2194              	.LBB613:
 2195              	.LBB601:
 2196              	.LBB597:
 2197              	.LBB594:
 2198 09ca E4EE034A 		vfma.f32	s9, s8, s6
 2199              	.LBE594:
 2200              	.LBE597:
 2201              	.LBE601:
 2202              	.LBE613:
 2203              	.LBB614:
 2204              	.LBB583:
 2205              	.LBB577:
 2206              	.LBB573:
 2207 09ce B0EE453A 		fcpys	s6, s10
 2208 09d2 A3EEA23A 		vfma.f32	s6, s7, s5
 2209              	.LBE573:
 2210              	.LBE577:
 2211              	.LBE583:
 2212              	.LBE614:
 2213              	.LBB615:
 2214              	.LBB602:
 2215              	.LBB598:
 2216              	.LBB595:
ARM GAS  /tmp/ccBJNJuT.s 			page 40


 2217 09d6 A4EE245A 		vfma.f32	s10, s8, s9
 2218              	.LBE595:
 2219              	.LBE598:
 2220              	.LBE602:
 2221              	.LBE615:
 2222              	.LBB616:
 2223              	.LBB584:
 2224              	.LBB578:
 2225              	.LBB574:
 2226 09da 27EE037A 		fmuls	s14, s14, s6
 2227              	.LVL164:
 2228              	.LBE574:
 2229              	.LBE578:
 2230              	.LBE584:
 2231              	.LBE616:
 2232              	.LBB617:
 2233              	.LBB603:
 2234              	.LBB599:
 2235              	.LBB596:
 2236 09de 67EE857A 		fmuls	s15, s15, s10
 2237              	.LVL165:
 2238              	.LBE596:
 2239              	.LBE599:
 2240              		.loc 2 222 0
 2241 09e2 F0EE664A 		fcpys	s9, s13
 2242              	.LBE603:
 2243              	.LBE617:
 2244              	.LBB618:
 2245              	.LBB585:
 2246 09e6 B0EE665A 		fcpys	s10, s13
 2247 09ea A7EE065A 		vfma.f32	s10, s14, s12
 2248              	.LBE585:
 2249              	.LBE618:
 2250              	.LBB619:
 2251              	.LBB604:
 2252 09ee E7EEA54A 		vfma.f32	s9, s15, s11
 2253              	.LBE604:
 2254              	.LBE619:
 2255              	.LBB620:
 2256              	.LBB586:
 2257 09f2 A7EE075A 		vfma.f32	s10, s14, s14
 2258              	.LBE586:
 2259              	.LBE620:
 2260              	.LBB621:
 2261              	.LBB605:
 2262 09f6 E7EEA74A 		vfma.f32	s9, s15, s15
 2263              	.LBE605:
 2264              	.LBE621:
 2265              	.LBB622:
 2266              	.LBB587:
 2267 09fa 86EE855A 		fdivs	s10, s13, s10
 2268              	.LBE587:
 2269              	.LBE622:
 2270              	.LBB623:
 2271              	.LBB606:
 2272 09fe C6EEA46A 		fdivs	s13, s13, s9
 2273              	.LBE606:
ARM GAS  /tmp/ccBJNJuT.s 			page 41


 2274              	.LBE623:
 2275              	.LBB624:
 2276              	.LBB588:
 2277              		.loc 2 220 0
 2278 0a02 80ED007A 		fsts	s14, [r0]
 2279              		.loc 2 221 0
 2280 0a06 80ED016A 		fsts	s12, [r0, #4]
 2281              		.loc 2 222 0
 2282 0a0a 80ED025A 		fsts	s10, [r0, #8]
 2283              	.LVL166:
 2284              	.LBE588:
 2285              	.LBE624:
 2286              	.LBB625:
 2287              	.LBB607:
 2288 0a0e C3ED026A 		fsts	s13, [r3, #8]
 2289              		.loc 2 220 0
 2290 0a12 C3ED007A 		fsts	s15, [r3]
 2291              		.loc 2 221 0
 2292 0a16 C3ED015A 		fsts	s11, [r3, #4]
 2293              	.LBE607:
 2294              	.LBE625:
 2295              	.LBB626:
 2296              	.LBB627:
 2297              	.LBB628:
 2298              		.loc 6 703 0
 2299 0a1a 269B     		ldr	r3, [sp, #152]
 2300              	.LVL167:
 2301 0a1c 8B42     		cmp	r3, r1
 2302 0a1e 05D0     		beq	.L92
 2303 0a20 269B     		ldr	r3, [sp, #152]
 2304              		.loc 6 704 0
 2305 0a22 0020     		movs	r0, #0
 2306              	.LVL168:
 2307              	.L91:
 2308 0a24 43F8040B 		str	r0, [r3], #4	@ float
 2309              	.LVL169:
 2310              		.loc 6 703 0
 2311 0a28 9942     		cmp	r1, r3
 2312 0a2a FBD1     		bne	.L91
 2313              	.L92:
 2314              	.LBE628:
 2315              	.LBE627:
 2316              	.LBE626:
 2317              		.loc 1 247 0
 2318 0a2c 279B     		ldr	r3, [sp, #156]
 2319              	.LVL170:
 2320 0a2e 9918     		adds	r1, r3, r2
 2321              	.LVL171:
 2322              	.LBB629:
 2323              	.LBB630:
 2324              	.LBB631:
 2325              		.loc 6 703 0
 2326 0a30 8B42     		cmp	r3, r1
 2327 0a32 05D0     		beq	.L90
 2328 0a34 279B     		ldr	r3, [sp, #156]
 2329              		.loc 6 704 0
 2330 0a36 0020     		movs	r0, #0
ARM GAS  /tmp/ccBJNJuT.s 			page 42


 2331              	.LVL172:
 2332              	.L95:
 2333 0a38 43F8040B 		str	r0, [r3], #4	@ float
 2334              	.LVL173:
 2335              		.loc 6 703 0
 2336 0a3c 9942     		cmp	r1, r3
 2337 0a3e FBD1     		bne	.L95
 2338              	.L90:
 2339              	.LBE631:
 2340              	.LBE630:
 2341              	.LBE629:
 2342              		.loc 1 248 0
 2343 0a40 259B     		ldr	r3, [sp, #148]
 2344              	.LVL174:
 2345 0a42 9918     		adds	r1, r3, r2
 2346              	.LVL175:
 2347              	.LBB632:
 2348              	.LBB633:
 2349              	.LBB634:
 2350              		.loc 6 703 0
 2351 0a44 8B42     		cmp	r3, r1
 2352 0a46 05D0     		beq	.L94
 2353 0a48 259B     		ldr	r3, [sp, #148]
 2354              		.loc 6 704 0
 2355 0a4a 0020     		movs	r0, #0
 2356              	.LVL176:
 2357              	.L97:
 2358 0a4c 43F8040B 		str	r0, [r3], #4	@ float
 2359              	.LVL177:
 2360              		.loc 6 703 0
 2361 0a50 9942     		cmp	r1, r3
 2362 0a52 FBD1     		bne	.L97
 2363              	.L94:
 2364              	.LBE634:
 2365              	.LBE633:
 2366              	.LBE632:
 2367              		.loc 1 251 0
 2368 0a54 04F2DC43 		addw	r3, r4, #1244
 2369              	.LVL178:
 2370 0a58 D3ED007A 		flds	s15, [r3]
 2371 0a5c 9BED027A 		flds	s14, [fp, #8]
 2372 0a60 DFED4D8A 		flds	s17, .L190+72
 2373 0a64 0E93     		str	r3, [sp, #56]
 2374 0a66 37EE677A 		fsubs	s14, s14, s15
 2375 0a6a 1D46     		mov	r5, r3
 2376 0a6c E7EE287A 		vfma.f32	s15, s14, s17
 2377              		.loc 1 250 0
 2378 0a70 4A4B     		ldr	r3, .L190+76
 2379 0a72 0694     		str	r4, [sp, #24]
 2380 0a74 93E80300 		ldmia	r3, {r0, r1}
 2381              	.LVL179:
 2382 0a78 04F59D63 		add	r3, r4, #1256
 2383 0a7c 1E46     		mov	r6, r3
 2384 0a7e 0893     		str	r3, [sp, #32]
 2385 0a80 4FEAC903 		lsl	r3, r9, #3
 2386              		.loc 1 251 0
 2387 0a84 C5ED007A 		fsts	s15, [r5]
ARM GAS  /tmp/ccBJNJuT.s 			page 43


 2388 0a88 0993     		str	r3, [sp, #36]
 2389 0a8a 1D46     		mov	r5, r3
 2390              		.loc 1 250 0
 2391 0a8c 10AB     		add	r3, sp, #64
 2392 0a8e 83E80300 		stmia	r3, {r0, r1}
 2393 0a92 6B1E     		subs	r3, r5, #1
 2394 0a94 0C93     		str	r3, [sp, #48]
 2395 0a96 04F50073 		add	r3, r4, #512
 2396 0a9a 0A93     		str	r3, [sp, #40]
 2397 0a9c 09F1FF33 		add	r3, r9, #-1
 2398 0aa0 0D93     		str	r3, [sp, #52]
 2399 0aa2 04F58063 		add	r3, r4, #1024
 2400              		.loc 1 252 0
 2401 0aa6 DFED3E6A 		flds	s13, .L190+80
 2402 0aaa 0593     		str	r3, [sp, #20]
 2403 0aac 04F59C63 		add	r3, r4, #1248
 2404 0ab0 02F58062 		add	r2, r2, #1024
 2405              	.LVL180:
 2406 0ab4 0793     		str	r3, [sp, #28]
 2407              	.LBB635:
 2408              		.loc 1 253 0
 2409 0ab6 0023     		movs	r3, #0
 2410              	.LBB636:
 2411              	.LBB637:
 2412              	.LBB638:
 2413              		.loc 3 44 0
 2414 0ab8 DFED2FAA 		flds	s21, .L190+40
 2415              	.LBE638:
 2416              	.LBE637:
 2417              		.loc 1 275 0
 2418 0abc 9FED39BA 		flds	s22, .L190+84
 2419              	.LBB641:
 2420              	.LBB642:
 2421              		.loc 4 199 0
 2422 0ac0 D6ED007A 		flds	s15, [r6]
 2423              	.LBE642:
 2424              	.LBE641:
 2425              	.LBE636:
 2426              	.LBE635:
 2427              		.loc 1 252 0
 2428 0ac4 0394     		str	r4, [sp, #12]
 2429 0ac6 A718     		adds	r7, r4, r2
 2430 0ac8 3AEE66AA 		fsubs	s20, s20, s13
 2431              	.LVL181:
 2432 0acc 2546     		mov	r5, r4
 2433 0ace 0294     		str	r4, [sp, #8]
 2434              	.LBB686:
 2435              		.loc 1 253 0
 2436 0ad0 0493     		str	r3, [sp, #16]
 2437              	.LVL182:
 2438              	.LBB682:
 2439              		.loc 1 257 0
 2440 0ad2 4046     		mov	r0, r8
 2441              	.LBB651:
 2442              	.LBB648:
 2443              	.LBB643:
 2444              		.loc 4 200 0
ARM GAS  /tmp/ccBJNJuT.s 			page 44


 2445 0ad4 B9F1000F 		cmp	r9, #0
 2446 0ad8 00F09582 		beq	.L131
 2447              	.LVL183:
 2448              	.L130:
 2449              	.LBE643:
 2450              	.LBE648:
 2451              	.LBE651:
 2452              		.loc 1 257 0
 2453 0adc 2346     		mov	r3, r4
 2454 0ade 0021     		movs	r1, #0
 2455              	.LBB652:
 2456              	.LBB649:
 2457              	.LBB646:
 2458              	.LBB644:
 2459              		.loc 4 201 0
 2460 0ae0 F4EE006A 		fconsts	s13, #64
 2461              	.LVL184:
 2462              	.L101:
 2463 0ae4 B0EC017A 		fldmias	r0!, {s14}
 2464 0ae8 37EE677A 		fsubs	s14, s14, s15
 2465 0aec 03F12002 		add	r2, r3, #32
 2466 0af0 27EE267A 		fmuls	s14, s14, s13
 2467              	.LVL185:
 2468              	.L100:
 2469              	.LBB645:
 2470              		.loc 4 203 0
 2471 0af4 E3EC017A 		fstmias	r3!, {s15}
 2472              	.LVL186:
 2473              		.loc 4 202 0
 2474 0af8 9342     		cmp	r3, r2
 2475              		.loc 4 204 0
 2476 0afa 77EE877A 		fadds	s15, s15, s14
 2477              	.LVL187:
 2478              		.loc 4 202 0
 2479 0afe F9D1     		bne	.L100
 2480              	.LBE645:
 2481              	.LBE644:
 2482              		.loc 4 200 0
 2483 0b00 0131     		adds	r1, r1, #1
 2484              	.LVL188:
 2485 0b02 8945     		cmp	r9, r1
 2486 0b04 EED8     		bhi	.L101
 2487              	.LBE646:
 2488              		.loc 4 207 0
 2489 0b06 089B     		ldr	r3, [sp, #32]
 2490              	.LVL189:
 2491 0b08 C3ED007A 		fsts	s15, [r3]
 2492              	.LBE649:
 2493              	.LBE652:
 2494              		.loc 1 259 0
 2495 0b0c 049B     		ldr	r3, [sp, #16]
 2496 0b0e 002B     		cmp	r3, #0
 2497 0b10 00F07982 		beq	.L131
 2498              	.LVL190:
 2499              	.L102:
 2500              	.LBB653:
 2501              	.LBB639:
ARM GAS  /tmp/ccBJNJuT.s 			page 45


 2502              		.loc 3 44 0
 2503 0b14 DBED017A 		flds	s15, [fp, #4]
 2504              	.LVL191:
 2505              		.loc 3 46 0
 2506 0b18 234A     		ldr	r2, .L190+88
 2507              	.LBE639:
 2508              	.LBE653:
 2509              		.loc 1 267 0
 2510 0b1a DBED070A 		flds	s1, [fp, #28]
 2511              		.loc 1 268 0
 2512 0b1e DBED081A 		flds	s3, [fp, #32]
 2513              		.loc 1 269 0
 2514 0b22 DBED06BA 		flds	s23, [fp, #24]
 2515              	.LBB654:
 2516              	.LBB640:
 2517              		.loc 3 44 0
 2518 0b26 67EEAA7A 		fmuls	s15, s15, s21
 2519              	.LVL192:
 2520              		.loc 3 45 0
 2521 0b2a BDEEE77A 		ftosizs	s14, s15
 2522              	.LVL193:
 2523              		.loc 3 46 0
 2524 0b2e 17EE103A 		fmrs	r3, s14	@ int
 2525 0b32 9B00     		lsls	r3, r3, #2
 2526 0b34 9918     		adds	r1, r3, r2
 2527              		.loc 3 45 0
 2528 0b36 B8EEC77A 		fsitos	s14, s14
 2529              	.LVL194:
 2530              		.loc 3 46 0
 2531 0b3a 91ED000A 		flds	s0, [r1]
 2532              	.LVL195:
 2533              		.loc 3 48 0
 2534 0b3e D1ED016A 		flds	s13, [r1, #4]
 2535              		.loc 3 45 0
 2536 0b42 77EEC77A 		fsubs	s15, s15, s14
 2537              	.LVL196:
 2538              		.loc 3 48 0
 2539 0b46 36EEC07A 		fsubs	s14, s13, s0
 2540 0b4a A7EE870A 		vfma.f32	s0, s15, s14
 2541 0b4e 31E0     		b	.L191
 2542              	.L192:
 2543              		.align	2
 2544              	.L190:
 2545 0b50 00000000 		.word	0
 2546 0b54 00008043 		.word	1132462080
 2547 0b58 00000000 		.word	_ZN8elements18lut_env_incrementsE
 2548 0b5c 00000000 		.word	_ZN8elements18lookup_table_tableE
 2549 0b60 CDCCCC3D 		.word	1036831949
 2550 0b64 6666663F 		.word	1063675494
 2551 0b68 00000C43 		.word	1124859904
 2552 0b6c 0000F042 		.word	1123024896
 2553 0b70 CDCC8C3F 		.word	1066192077
 2554 0b74 A4707D3F 		.word	1065185444
 2555 0b78 00008042 		.word	1115684864
 2556 0b7c 9A99193F 		.word	1058642330
 2557 0b80 F628DC3F 		.word	1071393014
 2558 0b84 00000000 		.word	_ZN8elements17lut_midi_to_f_lowE
ARM GAS  /tmp/ccBJNJuT.s 			page 46


 2559 0b88 00000000 		.word	_ZN8elements18lut_midi_to_f_highE
 2560 0b8c 8FBA2141 		.word	1092729487
 2561 0b90 4B265F42 		.word	1113531979
 2562 0b94 DB0F4940 		.word	1078530011
 2563 0b98 0AD7233C 		.word	1008981770
 2564 0b9c 94010000 		.word	.LANCHOR0+404
 2565 0ba0 00001042 		.word	1108344832
 2566 0ba4 9A99193E 		.word	1041865114
 2567 0ba8 00000000 		.word	_ZN8elements20lut_detune_quantizerE
 2568 0bac 6F12833A 		.word	981668463
 2569 0bb0 00000000 		.word	0
 2570              	.L191:
 2571              	.LVL197:
 2572              	.L103:
 2573              	.LBE640:
 2574              	.LBE654:
 2575              		.loc 1 279 0
 2576 0bb4 0E9B     		ldr	r3, [sp, #56]
 2577 0bb6 039E     		ldr	r6, [sp, #12]
 2578 0bb8 93ED001A 		flds	s2, [r3]
 2579              		.loc 1 275 0
 2580 0bbc DBED096A 		flds	s13, [fp, #36]
 2581              		.loc 1 279 0
 2582 0bc0 DDF82480 		ldr	r8, [sp, #36]
 2583 0bc4 DDF828A0 		ldr	r10, [sp, #40]
 2584              		.loc 1 276 0
 2585 0bc8 B0EE007A 		fconsts	s14, #0
 2586              		.loc 1 275 0
 2587 0bcc F5EE007A 		fconsts	s15, #80
 2588              		.loc 1 276 0
 2589 0bd0 A1EE667A 		vfms.f32	s14, s2, s13
 2590              		.loc 1 279 0
 2591 0bd4 06F59E60 		add	r0, r6, #1264
 2592 0bd8 2146     		mov	r1, r4
 2593              		.loc 1 275 0
 2594 0bda E6EE8B7A 		vfma.f32	s15, s13, s22
 2595              		.loc 1 279 0
 2596 0bde 5246     		mov	r2, r10
 2597 0be0 4346     		mov	r3, r8
 2598 0be2 67EE211A 		fmuls	s3, s14, s3
 2599              	.LVL198:
 2600 0be6 3AEE000A 		fadds	s0, s20, s0
 2601              	.LVL199:
 2602 0bea 21EE271A 		fmuls	s2, s2, s15
 2603 0bee FFF7FEFF 		bl	_ZN8elements12FmOscillator7ProcessEffffPKfPfj
 2604              	.LVL200:
 2605 0bf2 3146     		mov	r1, r6
 2606 0bf4 01F21C5C 		addw	ip, r1, #1308
 2607 0bf8 06F5A366 		add	r6, r6, #1304
 2608              	.LBB655:
 2609              	.LBB656:
 2610              		.loc 2 549 0
 2611 0bfc 4246     		mov	r2, r8
 2612              		.loc 2 546 0
 2613 0bfe D6ED006A 		flds	s13, [r6]
 2614              	.LVL201:
 2615              		.loc 2 547 0
ARM GAS  /tmp/ccBJNJuT.s 			page 47


 2616 0c02 9CED007A 		flds	s14, [ip]
 2617              	.LVL202:
 2618              		.loc 2 549 0
 2619 0c06 002A     		cmp	r2, #0
 2620 0c08 65D0     		beq	.L104
 2621 0c0a 0C9A     		ldr	r2, [sp, #48]
 2622 0c0c 0391     		str	r1, [sp, #12]
 2623 0c0e 01F5A260 		add	r0, r1, #1296
 2624 0c12 5346     		mov	r3, r10
 2625 0c14 01F21451 		addw	r1, r1, #1300
 2626              	.LVL203:
 2627              	.L105:
 2628              		.loc 2 552 0
 2629 0c18 90ED006A 		flds	s12, [r0]
 2630 0c1c D1ED005A 		flds	s11, [r1]
 2631              		.loc 2 551 0
 2632 0c20 D3ED007A 		flds	s15, [r3]
 2633              		.loc 2 552 0
 2634 0c24 E7EE066A 		vfma.f32	s13, s14, s12
 2635              	.LVL204:
 2636              		.loc 2 549 0
 2637 0c28 013A     		subs	r2, r2, #1
 2638              	.LVL205:
 2639 0c2a B2F1FF3F 		cmp	r2, #-1
 2640              		.loc 2 551 0
 2641 0c2e E5EEC77A 		vfms.f32	s15, s11, s14
 2642              		.loc 2 559 0
 2643 0c32 E3EC016A 		fstmias	r3!, {s13}
 2644              	.LVL206:
 2645              		.loc 2 553 0
 2646 0c36 77EEE67A 		fsubs	s15, s15, s13
 2647              	.LVL207:
 2648              		.loc 2 554 0
 2649 0c3a A6EE277A 		vfma.f32	s14, s12, s15
 2650              	.LVL208:
 2651              		.loc 2 549 0
 2652 0c3e EBD1     		bne	.L105
 2653 0c40 049A     		ldr	r2, [sp, #16]
 2654              	.LVL209:
 2655              		.loc 2 570 0
 2656 0c42 C6ED006A 		fsts	s13, [r6]
 2657 0c46 4FEAC21E 		lsl	lr, r2, #7
 2658 0c4a 9644     		add	lr, lr, r2
 2659 0c4c 4FEA4E0E 		lsl	lr, lr, #1
 2660              		.loc 2 571 0
 2661 0c50 8CED007A 		fsts	s14, [ip]
 2662              	.LVL210:
 2663 0c54 DDF824C0 		ldr	ip, [sp, #36]
 2664              	.LBE656:
 2665              	.LBE655:
 2666              		.loc 1 286 0
 2667 0c58 DDF81480 		ldr	r8, [sp, #20]
 2668              	.LBB658:
 2669              	.LBB657:
 2670              		.loc 2 571 0
 2671 0c5c 0A98     		ldr	r0, [sp, #40]
 2672 0c5e 0F97     		str	r7, [sp, #60]
ARM GAS  /tmp/ccBJNJuT.s 			page 48


 2673 0c60 0EF5DA73 		add	r3, lr, #436
 2674              	.LVL211:
 2675 0c64 6746     		mov	r7, ip
 2676 0c66 0EF24F1A 		addw	r10, lr, #335
 2677 0c6a 9C46     		mov	ip, r3
 2678              	.LVL212:
 2679              	.L132:
 2680 0c6c D5F83035 		ldr	r3, [r5, #1328]
 2681 0c70 00F12006 		add	r6, r0, #32
 2682              	.LVL213:
 2683              	.L107:
 2684              	.LBE657:
 2685              	.LBE658:
 2686              	.LBB659:
 2687              	.LBB660:
 2688              	.LBB661:
 2689              	.LBB662:
 2690              		.loc 4 65 0
 2691 0c74 F0EC017A 		fldmias	r0!, {s15}
 2692              	.LVL214:
 2693 0c78 0EEB0302 		add	r2, lr, r3
 2694 0c7c 02F5A771 		add	r1, r2, #334
 2695              		.loc 4 66 0
 2696 0c80 7F33     		adds	r3, r3, #127
 2697              		.loc 4 65 0
 2698 0c82 02F5E772 		add	r2, r2, #462
 2699              		.loc 4 66 0
 2700 0c86 03F07F03 		and	r3, r3, #127
 2701              		.loc 4 65 0
 2702 0c8a 04EB8101 		add	r1, r4, r1, lsl #2
 2703 0c8e 04EB8202 		add	r2, r4, r2, lsl #2
 2704              		.loc 4 64 0
 2705 0c92 B042     		cmp	r0, r6
 2706              		.loc 4 65 0
 2707 0c94 C1ED007A 		fsts	s15, [r1]
 2708 0c98 C2ED007A 		fsts	s15, [r2]
 2709              		.loc 4 66 0
 2710 0c9c C5F83035 		str	r3, [r5, #1328]
 2711              	.LVL215:
 2712              		.loc 4 64 0
 2713 0ca0 E8D1     		bne	.L107
 2714 0ca2 0AEB0302 		add	r2, r10, r3
 2715 0ca6 D5F83415 		ldr	r1, [r5, #1332]
 2716 0caa 5FED3F7A 		flds	s15, .L190+96
 2717 0cae 6344     		add	r3, r3, ip
 2718 0cb0 083F     		subs	r7, r7, #8
 2719              	.LVL216:
 2720 0cb2 04EB8202 		add	r2, r4, r2, lsl #2
 2721 0cb6 04EB8303 		add	r3, r4, r3, lsl #2
 2722              	.LVL217:
 2723              	.L108:
 2724              	.LBE662:
 2725              	.LBB663:
 2726              		.loc 4 71 0
 2727 0cba F2EC016A 		fldmias	r2!, {s13}
 2728 0cbe B1EC017A 		fldmias	r1!, {s14}
 2729              		.loc 4 70 0
ARM GAS  /tmp/ccBJNJuT.s 			page 49


 2730 0cc2 9A42     		cmp	r2, r3
 2731              		.loc 4 71 0
 2732 0cc4 E6EE877A 		vfma.f32	s15, s13, s14
 2733              	.LVL218:
 2734              		.loc 4 70 0
 2735 0cc8 F7D1     		bne	.L108
 2736              	.LBE663:
 2737              		.loc 4 73 0
 2738 0cca E8EC017A 		fstmias	r8!, {s15}
 2739              	.LVL219:
 2740 0cce 3046     		mov	r0, r6
 2741              	.LBE661:
 2742              		.loc 4 63 0
 2743 0cd0 002F     		cmp	r7, #0
 2744 0cd2 CBD1     		bne	.L132
 2745              	.LVL220:
 2746 0cd4 0F9F     		ldr	r7, [sp, #60]
 2747              	.LVL221:
 2748              	.L104:
 2749              	.LBE660:
 2750              	.LBE659:
 2751              		.loc 1 289 0
 2752 0cd6 079B     		ldr	r3, [sp, #28]
 2753 0cd8 D3ED006A 		flds	s13, [r3]
 2754              	.LVL222:
 2755              	.LBB664:
 2756              		.loc 1 290 0
 2757 0cdc B9F1000F 		cmp	r9, #0
 2758 0ce0 13D0     		beq	.L109
 2759 0ce2 059B     		ldr	r3, [sp, #20]
 2760 0ce4 259A     		ldr	r2, [sp, #148]
 2761              	.LVL223:
 2762              	.L110:
 2763              		.loc 1 292 0 discriminator 3
 2764 0ce6 D3ED007A 		flds	s15, [r3]
 2765              		.loc 1 291 0 discriminator 3
 2766 0cea 3BEEE67A 		fsubs	s14, s23, s13
 2767 0cee E7EE286A 		vfma.f32	s13, s14, s17
 2768              	.LVL224:
 2769              		.loc 1 292 0 discriminator 3
 2770 0cf2 66EEA77A 		fmuls	s15, s13, s15
 2771 0cf6 E3EC017A 		fstmias	r3!, {s15}
 2772              		.loc 1 293 0 discriminator 3
 2773 0cfa 92ED007A 		flds	s14, [r2]
 2774 0cfe 77EE277A 		fadds	s15, s14, s15
 2775              		.loc 1 290 0 discriminator 3
 2776 0d02 BB42     		cmp	r3, r7
 2777              		.loc 1 293 0 discriminator 3
 2778 0d04 E2EC017A 		fstmias	r2!, {s15}
 2779              		.loc 1 290 0 discriminator 3
 2780 0d08 EDD1     		bne	.L110
 2781              	.L109:
 2782              	.LBE664:
 2783              		.loc 1 295 0
 2784 0d0a 079B     		ldr	r3, [sp, #28]
 2785 0d0c 029A     		ldr	r2, [sp, #8]
 2786 0d0e C3ED006A 		fsts	s13, [r3]
ARM GAS  /tmp/ccBJNJuT.s 			page 50


 2787              		.loc 1 298 0
 2788 0d12 DBED0A4A 		flds	s9, [fp, #40]
 2789              	.LVL225:
 2790              	.LBB665:
 2791              	.LBB666:
 2792              		.loc 2 379 0
 2793 0d16 F6EE007A 		fconsts	s15, #96
 2794 0d1a F4EEE74A 		fcmpes	s9, s15
 2795 0d1e 02F64C5E 		addw	lr, r2, #3404
 2796 0d22 02F5556C 		add	ip, r2, #3408
 2797 0d26 F1EE10FA 		fmstat
 2798              		.loc 2 377 0
 2799 0d2a DEED006A 		flds	s13, [lr]
 2800              	.LVL226:
 2801              		.loc 2 378 0
 2802 0d2e 9CED005A 		flds	s10, [ip]
 2803              	.LVL227:
 2804              		.loc 2 379 0
 2805 0d32 40F1B680 		bpl	.L179
 2806 0d36 B1EE644A 		fnegs	s8, s9
 2807 0d3a 34EE044A 		fadds	s8, s8, s8
 2808              	.LVL228:
 2809 0d3e 74EEA44A 		fadds	s9, s9, s9
 2810              	.LVL229:
 2811              	.L113:
 2812              		.loc 2 380 0
 2813 0d42 F7EE003A 		fconsts	s7, #112
 2814 0d46 73EEE43A 		fsubs	s7, s7, s9
 2815              	.LVL230:
 2816              		.loc 2 381 0
 2817 0d4a 5FED674A 		flds	s9, .L190+96
 2818              	.LVL231:
 2819              	.L116:
 2820              		.loc 2 382 0
 2821 0d4e B9F1000F 		cmp	r9, #0
 2822 0d52 52D0     		beq	.L117
 2823 0d54 0298     		ldr	r0, [sp, #8]
 2824 0d56 0D9A     		ldr	r2, [sp, #52]
 2825 0d58 059B     		ldr	r3, [sp, #20]
 2826              	.LVL232:
 2827 0d5a 0146     		mov	r1, r0
 2828 0d5c 00F55466 		add	r6, r0, #3392
 2829 0d60 01F64851 		addw	r1, r1, #3400
 2830 0d64 00F64450 		addw	r0, r0, #3396
 2831              	.LVL233:
 2832              	.L118:
 2833 0d68 90ED006A 		flds	s12, [r0]
 2834              		.loc 2 383 0
 2835 0d6c 93ED007A 		flds	s14, [r3]
 2836 0d70 D6ED005A 		flds	s11, [r6]
 2837 0d74 D1ED007A 		flds	s15, [r1]
 2838 0d78 A6EE667A 		vfms.f32	s14, s12, s13
 2839              		.loc 2 382 0
 2840 0d7c 013A     		subs	r2, r2, #1
 2841              	.LVL234:
 2842 0d7e B2F1FF3F 		cmp	r2, #-1
 2843              		.loc 2 383 0
ARM GAS  /tmp/ccBJNJuT.s 			page 51


 2844 0d82 A6EEE57A 		vfms.f32	s14, s13, s11
 2845 0d86 37EE457A 		fsubs	s14, s14, s10
 2846 0d8a 67EE277A 		fmuls	s15, s14, s15
 2847              	.LVL235:
 2848              		.loc 2 384 0
 2849 0d8e B0EE667A 		fcpys	s14, s13
 2850 0d92 A5EEA77A 		vfma.f32	s14, s11, s15
 2851              	.LVL236:
 2852              		.loc 2 386 0
 2853 0d96 F0EE456A 		fcpys	s13, s10
 2854              	.LVL237:
 2855              		.loc 2 388 0
 2856 0d9a 27EE246A 		fmuls	s12, s14, s9
 2857              		.loc 2 386 0
 2858 0d9e E5EE876A 		vfma.f32	s13, s11, s14
 2859              		.loc 2 388 0
 2860 0da2 A7EE846A 		vfma.f32	s12, s15, s8
 2861              		.loc 2 387 0
 2862 0da6 B0EE665A 		fcpys	s10, s13
 2863              	.LVL238:
 2864              		.loc 2 388 0
 2865 0daa A6EEA36A 		vfma.f32	s12, s13, s7
 2866              		.loc 2 387 0
 2867 0dae A5EE875A 		vfma.f32	s10, s11, s14
 2868              		.loc 2 385 0
 2869 0db2 A5EEA77A 		vfma.f32	s14, s11, s15
 2870              	.LVL239:
 2871              		.loc 2 388 0
 2872 0db6 A3EC016A 		fstmias	r3!, {s12}
 2873              	.LVL240:
 2874              		.loc 2 385 0
 2875 0dba F0EE476A 		fcpys	s13, s14
 2876              	.LVL241:
 2877              		.loc 2 382 0
 2878 0dbe D3D1     		bne	.L118
 2879              	.LBE666:
 2880              	.LBE665:
 2881              		.loc 1 301 0
 2882 0dc0 0B9B     		ldr	r3, [sp, #44]
 2883              	.LVL242:
 2884              	.LBB670:
 2885              	.LBB667:
 2886              		.loc 2 392 0
 2887 0dc2 8EED007A 		fsts	s14, [lr]
 2888              		.loc 2 393 0
 2889 0dc6 8CED005A 		fsts	s10, [ip]
 2890              	.LBE667:
 2891              	.LBE670:
 2892              		.loc 1 301 0
 2893 0dca D3ED006A 		flds	s13, [r3]
 2894              	.LVL243:
 2895 0dce 059B     		ldr	r3, [sp, #20]
 2896              	.LBB671:
 2897              	.LBB672:
 2898              		.loc 1 304 0
 2899 0dd0 B7EE006A 		fconsts	s12, #112
 2900              	.LVL244:
ARM GAS  /tmp/ccBJNJuT.s 			page 52


 2901              	.L122:
 2902              		.loc 1 303 0
 2903 0dd4 66EE897A 		fmuls	s15, s13, s18
 2904              	.LVL245:
 2905              		.loc 1 305 0
 2906 0dd8 93ED007A 		flds	s14, [r3]
 2907              		.loc 1 304 0
 2908 0ddc F4EE467A 		fcmps	s15, s12
 2909 0de0 F1EE10FA 		fmstat
 2910 0de4 A8BF     		it	ge
 2911 0de6 F0EE467A 		fcpysge	s15, s12
 2912              	.LVL246:
 2913              		.loc 1 305 0
 2914 0dea 67EE277A 		fmuls	s15, s14, s15
 2915              	.LVL247:
 2916              		.loc 1 306 0
 2917 0dee 76EE886A 		fadds	s13, s13, s16
 2918              	.LVL248:
 2919              		.loc 1 305 0
 2920 0df2 E3EC017A 		fstmias	r3!, {s15}
 2921              	.LBE672:
 2922              		.loc 1 302 0
 2923 0df6 BB42     		cmp	r3, r7
 2924 0df8 ECD1     		bne	.L122
 2925              	.LVL249:
 2926              	.L117:
 2927              	.LBE671:
 2928              		.loc 1 310 0
 2929 0dfa 9BED0D7A 		flds	s14, [fp, #52]
 2930              	.LVL250:
 2931 0dfe 0699     		ldr	r1, [sp, #24]
 2932 0e00 049A     		ldr	r2, [sp, #16]
 2933 0e02 5FED966A 		flds	s13, .L190+92
 2934 0e06 67EE077A 		fmuls	s15, s14, s14
 2935 0e0a 10A8     		add	r0, sp, #64
 2936 0e0c 01F55B63 		add	r3, r1, #3504
 2937 0e10 00EB8202 		add	r2, r0, r2, lsl #2
 2938 0e14 67EEA66A 		fmuls	s13, s15, s13
 2939              	.LVL251:
 2940              	.LBB673:
 2941              	.LBB674:
 2942              		.loc 4 92 0
 2943 0e18 92ED006A 		flds	s12, [r2]
 2944 0e1c D3ED007A 		flds	s15, [r3]
 2945 0e20 E6EE267A 		vfma.f32	s15, s12, s13
 2946 0e24 01F66850 		addw	r0, r1, #3432
 2947              	.LVL252:
 2948              		.loc 4 93 0
 2949 0e28 F7EE006A 		fconsts	s13, #112
 2950              	.LVL253:
 2951 0e2c F4EEE67A 		fcmpes	s15, s13
 2952 0e30 F1EE10FA 		fmstat
 2953              		.loc 4 94 0
 2954 0e34 A8BF     		it	ge
 2955 0e36 77EEE67A 		fsubsge	s15, s15, s13
 2956              		.loc 4 96 0
 2957 0e3a F5EEC07A 		fcmpezs	s15
ARM GAS  /tmp/ccBJNJuT.s 			page 53


 2958 0e3e F1EE10FA 		fmstat
 2959              		.loc 4 94 0
 2960 0e42 C3ED007A 		fsts	s15, [r3]
 2961              		.loc 4 96 0
 2962 0e46 48D4     		bmi	.L188
 2963              	.L125:
 2964              	.LVL254:
 2965 0e48 029E     		ldr	r6, [sp, #8]
 2966 0e4a 069B     		ldr	r3, [sp, #24]
 2967              	.LBE674:
 2968              	.LBE673:
 2969              		.loc 1 315 0
 2970 0e4c 0599     		ldr	r1, [sp, #20]
 2971 0e4e 269A     		ldr	r2, [sp, #152]
 2972 0e50 1436     		adds	r6, r6, #20
 2973 0e52 0296     		str	r6, [sp, #8]
 2974 0e54 079E     		ldr	r6, [sp, #28]
 2975 0e56 0436     		adds	r6, r6, #4
 2976 0e58 0796     		str	r6, [sp, #28]
 2977 0e5a 039E     		ldr	r6, [sp, #12]
 2978 0e5c 1036     		adds	r6, r6, #16
 2979 0e5e 0396     		str	r6, [sp, #12]
 2980              		.loc 1 314 0
 2981 0e60 F0EE007A 		fconsts	s15, #0
 2982 0e64 089E     		ldr	r6, [sp, #32]
 2983 0e66 77EEC77A 		fsubs	s15, s15, s14
 2984 0e6a 0436     		adds	r6, r6, #4
 2985 0e6c 27EE277A 		fmuls	s14, s14, s15
 2986              	.LVL255:
 2987 0e70 0896     		str	r6, [sp, #32]
 2988 0e72 069E     		ldr	r6, [sp, #24]
 2989 0e74 03F6B453 		addw	r3, r3, #3508
 2990              	.LBB676:
 2991              	.LBB677:
 2992              		.loc 4 102 0
 2993 0e78 83ED007A 		fsts	s14, [r3]
 2994 0e7c 6436     		adds	r6, r6, #100
 2995              	.LBE677:
 2996              	.LBE676:
 2997              		.loc 1 315 0
 2998 0e7e 279B     		ldr	r3, [sp, #156]
 2999 0e80 CDF80090 		str	r9, [sp]
 3000 0e84 0696     		str	r6, [sp, #24]
 3001 0e86 FFF7FEFF 		bl	_ZN8elements11Spatializer7ProcessEPfS1_S1_j
 3002              	.LVL256:
 3003              	.LBE682:
 3004              		.loc 1 253 0
 3005 0e8a 049B     		ldr	r3, [sp, #16]
 3006 0e8c 05F58165 		add	r5, r5, #1032
 3007 0e90 C3B1     		cbz	r3, .L139
 3008              	.LBE686:
 3009              		.loc 1 318 0
 3010 0e92 0B9B     		ldr	r3, [sp, #44]
 3011 0e94 C3ED009A 		fsts	s19, [r3]
 3012              	.LBE532:
 3013              		.loc 1 319 0
 3014 0e98 13B0     		add	sp, sp, #76
ARM GAS  /tmp/ccBJNJuT.s 			page 54


 3015              		.cfi_remember_state
 3016              		.cfi_def_cfa_offset 68
 3017              		@ sp needed
 3018 0e9a BDEC088B 		fldmfdd	sp!, {d8-d11}
 3019              		.cfi_restore 86
 3020              		.cfi_restore 87
 3021              		.cfi_restore 84
 3022              		.cfi_restore 85
 3023              		.cfi_restore 82
 3024              		.cfi_restore 83
 3025              		.cfi_restore 80
 3026              		.cfi_restore 81
 3027              		.cfi_def_cfa_offset 36
 3028              	.LVL257:
 3029 0e9e BDE8F08F 		pop	{r4, r5, r6, r7, r8, r9, r10, fp, pc}
 3030              	.LVL258:
 3031              	.L179:
 3032              		.cfi_restore_state
 3033              	.LBB692:
 3034              	.LBB687:
 3035              	.LBB683:
 3036              	.LBB678:
 3037              	.LBB668:
 3038              		.loc 2 379 0
 3039 0ea2 74EEA44A 		fadds	s9, s9, s9
 3040              	.LVL259:
 3041 0ea6 B0EE004A 		fconsts	s8, #0
 3042 0eaa 34EEC44A 		fsubs	s8, s9, s8
 3043              	.LVL260:
 3044              		.loc 2 380 0
 3045 0eae 3FF548AF 		bmi	.L113
 3046              	.LVL261:
 3047              		.loc 2 381 0
 3048 0eb2 00F1A380 		bmi	.L138
 3049 0eb6 F7EE007A 		fconsts	s15, #112
 3050 0eba 74EEE74A 		fsubs	s9, s9, s15
 3051              		.loc 2 380 0
 3052 0ebe 5FEDC43A 		flds	s7, .L190+96
 3053 0ec2 44E7     		b	.L116
 3054              	.LVL262:
 3055              	.L139:
 3056              	.LBE668:
 3057              	.LBE678:
 3058              	.LBE683:
 3059 0ec4 0123     		movs	r3, #1
 3060              	.LVL263:
 3061 0ec6 0493     		str	r3, [sp, #16]
 3062              	.LVL264:
 3063              	.LBB684:
 3064              	.LBB679:
 3065              	.LBB650:
 3066              		.loc 4 199 0
 3067 0ec8 089B     		ldr	r3, [sp, #32]
 3068 0eca D3ED007A 		flds	s15, [r3]
 3069              	.LVL265:
 3070              	.LBB647:
 3071              		.loc 4 200 0
ARM GAS  /tmp/ccBJNJuT.s 			page 55


 3072 0ece B9F1000F 		cmp	r9, #0
 3073 0ed2 3FF41FAE 		beq	.L102
 3074              	.LBE647:
 3075              	.LBE650:
 3076              	.LBE679:
 3077              		.loc 1 257 0
 3078 0ed6 2498     		ldr	r0, [sp, #144]
 3079 0ed8 00E6     		b	.L130
 3080              	.LVL266:
 3081              	.L188:
 3082              	.LBB680:
 3083              	.LBB675:
 3084              		.loc 4 97 0
 3085 0eda F7EE006A 		fconsts	s13, #112
 3086 0ede 77EEA67A 		fadds	s15, s15, s13
 3087 0ee2 C3ED007A 		fsts	s15, [r3]
 3088 0ee6 AFE7     		b	.L125
 3089              	.LVL267:
 3090              	.L137:
 3091              	.LBE675:
 3092              	.LBE680:
 3093              	.LBE684:
 3094              	.LBE687:
 3095              	.LBB688:
 3096              	.LBB561:
 3097              		.loc 4 225 0
 3098 0ee8 4B4B     		ldr	r3, .L193
 3099 0eea 28E5     		b	.L87
 3100              	.LVL268:
 3101              	.L69:
 3102              	.LBE561:
 3103              	.LBE688:
 3104              	.LBB689:
 3105              	.LBB535:
 3106              		.loc 4 217 0
 3107 0eec 90F84034 		ldrb	r3, [r0, #1088]	@ zero_extendqisi2
 3108              	.LVL269:
 3109              		.loc 4 220 0
 3110 0ef0 84F84024 		strb	r2, [r4, #1088]
 3111              		.loc 4 218 0
 3112 0ef4 002B     		cmp	r3, #0
 3113 0ef6 0CBF     		ite	eq
 3114 0ef8 0025     		moveq	r5, #0
 3115 0efa 0225     		movne	r5, #2
 3116              	.LVL270:
 3117              	.LBE535:
 3118              	.LBE689:
 3119              		.loc 1 221 0
 3120 0efc FFF7FEFF 		bl	_ZN8elements12OminousVoice17ConfigureEnvelopeERKNS_5PatchE
 3121              	.LVL271:
 3122              	.LBB690:
 3123              	.LBB547:
 3124              		.loc 5 65 0
 3125 0f00 2DB3     		cbz	r5, .L128
 3126 0f02 B4F88A74 		ldrh	r7, [r4, #1162]
 3127 0f06 27B3     		cbz	r7, .L77
 3128              		.loc 5 66 0
ARM GAS  /tmp/ccBJNJuT.s 			page 56


 3129 0f08 04F24443 		addw	r3, r4, #1092
 3130              	.LVL272:
 3131              		.loc 5 68 0
 3132 0f0c DFED436A 		flds	s13, .L193+4
 3133              		.loc 5 66 0
 3134 0f10 93ED0F7A 		flds	s14, [r3, #60]
 3135 0f14 B4F88804 		ldrh	r0, [r4, #1160]
 3136 0f18 83ED0E7A 		fsts	s14, [r3, #56]
 3137              		.loc 5 67 0
 3138 0f1c 1FFA87FE 		uxth	lr, r7
 3139 0f20 0FFA8EF1 		sxth	r1, lr
 3140 0f24 A4F87AE4 		strh	lr, [r4, #1146]	@ movhi
 3141              		.loc 5 68 0
 3142 0f28 3246     		mov	r2, r6
 3143 0f2a F0EE667A 		fcpys	s15, s13
 3144 0f2e 4E1C     		adds	r6, r1, #1
 3145              	.LVL273:
 3146 0f30 B0EE666A 		fcpys	s12, s13
 3147 0f34 C3ED106A 		fsts	s13, [r3, #64]
 3148 0f38 4FF0040E 		mov	lr, #4
 3149              	.LVL274:
 3150              	.L78:
 3151              		.loc 5 79 0
 3152 0f3c 8F42     		cmp	r7, r1
 3153 0f3e 7FF453AC 		bne	.L81
 3154 0f42 6D07     		lsls	r5, r5, #29
 3155              	.LVL275:
 3156 0f44 7FF550AC 		bpl	.L81
 3157              	.LVL276:
 3158              	.L134:
 3159              		.loc 5 82 0
 3160 0f48 DFED346A 		flds	s13, .L193+4
 3161 0f4c 6AE4     		b	.L82
 3162              	.LVL277:
 3163              	.L128:
 3164 0f4e B4F88A74 		ldrh	r7, [r4, #1162]
 3165              	.LVL278:
 3166              	.L77:
 3167              		.loc 5 69 0
 3168 0f52 04F24443 		addw	r3, r4, #1092
 3169 0f56 93ED106A 		flds	s12, [r3, #64]
 3170 0f5a F7EE007A 		fconsts	s15, #112
 3171 0f5e B4EEE76A 		fcmpes	s12, s15
 3172 0f62 F1EE10FA 		fmstat
 3173 0f66 23DB     		blt	.L189
 3174              		.loc 5 70 0
 3175 0f68 B4F87A24 		ldrh	r2, [r4, #1146]
 3176              		.loc 5 73 0
 3177 0f6c B4F88E04 		ldrh	r0, [r4, #1166]
 3178              		.loc 5 72 0
 3179 0f70 DFED2A7A 		flds	s15, .L193+4
 3180              		.loc 5 70 0
 3181 0f74 11B2     		sxth	r1, r2
 3182              		.loc 5 71 0
 3183 0f76 0132     		adds	r2, r2, #1
 3184              		.loc 5 70 0
 3185 0f78 03EB8101 		add	r1, r3, r1, lsl #2
ARM GAS  /tmp/ccBJNJuT.s 			page 57


 3186              		.loc 5 71 0
 3187 0f7c 92B2     		uxth	r2, r2
 3188              		.loc 5 70 0
 3189 0f7e 91ED017A 		flds	s14, [r1, #4]
 3190              		.loc 5 73 0
 3191 0f82 11B2     		sxth	r1, r2
 3192 0f84 8142     		cmp	r1, r0
 3193              		.loc 5 70 0
 3194 0f86 83ED0E7A 		fsts	s14, [r3, #56]
 3195              		.loc 5 71 0
 3196 0f8a A4F87A24 		strh	r2, [r4, #1146]	@ movhi
 3197              		.loc 5 72 0
 3198 0f8e C3ED107A 		fsts	s15, [r3, #64]
 3199              		.loc 5 73 0
 3200 0f92 24D0     		beq	.L80
 3201 0f94 B4F88804 		ldrh	r0, [r4, #1160]
 3202 0f98 B0EE676A 		fcpys	s12, s15
 3203 0f9c 4E1C     		adds	r6, r1, #1
 3204 0f9e 4FF0040E 		mov	lr, #4
 3205 0fa2 0022     		movs	r2, #0
 3206 0fa4 1DE4     		b	.L76
 3207              	.LVL279:
 3208              	.L74:
 3209              		.loc 5 62 0
 3210 0fa6 04F24443 		addw	r3, r4, #1092
 3211 0faa 93ED0F7A 		flds	s14, [r3, #60]
 3212 0fae 05E4     		b	.L75
 3213              	.LVL280:
 3214              	.L189:
 3215 0fb0 DFED1B7A 		flds	s15, .L193+8
 3216 0fb4 B4F97A14 		ldrsh	r1, [r4, #1146]
 3217 0fb8 B4F88804 		ldrh	r0, [r4, #1160]
 3218 0fbc 93ED0E7A 		flds	s14, [r3, #56]
 3219 0fc0 66EE277A 		fmuls	s15, s12, s15
 3220 0fc4 4E1C     		adds	r6, r1, #1
 3221 0fc6 FCEEE76A 		ftouizs	s13, s15
 3222 0fca 16EE902A 		fmrs	r2, s13	@ int
 3223 0fce F8EE665A 		fuitos	s11, s13
 3224 0fd2 9200     		lsls	r2, r2, #2
 3225 0fd4 77EEE57A 		fsubs	s15, s15, s11
 3226 0fd8 02F1040E 		add	lr, r2, #4
 3227 0fdc 01E4     		b	.L76
 3228              	.L80:
 3229              		.loc 5 74 0
 3230 0fde B4F88C14 		ldrh	r1, [r4, #1164]
 3231 0fe2 A4F87A14 		strh	r1, [r4, #1146]	@ movhi
 3232 0fe6 09B2     		sxth	r1, r1
 3233 0fe8 B4F88804 		ldrh	r0, [r4, #1160]
 3234 0fec B0EE676A 		fcpys	s12, s15
 3235 0ff0 4E1C     		adds	r6, r1, #1
 3236 0ff2 4FF0040E 		mov	lr, #4
 3237 0ff6 0022     		movs	r2, #0
 3238 0ff8 FFF7F3BB 		b	.L76
 3239              	.LVL281:
 3240              	.L138:
 3241              	.LBE547:
 3242              	.LBE690:
ARM GAS  /tmp/ccBJNJuT.s 			page 58


 3243              	.LBB691:
 3244              	.LBB685:
 3245              	.LBB681:
 3246              	.LBB669:
 3247              		.loc 2 380 0
 3248 0ffc DFED073A 		flds	s7, .L193+4
 3249              		.loc 2 381 0
 3250 1000 F0EE634A 		fcpys	s9, s7
 3251 1004 A3E6     		b	.L116
 3252              	.LVL282:
 3253              	.L131:
 3254              	.LBE669:
 3255              	.LBE681:
 3256              		.loc 1 261 0
 3257 1006 DBED040A 		flds	s1, [fp, #16]
 3258              	.LVL283:
 3259              		.loc 1 262 0
 3260 100a DBED051A 		flds	s3, [fp, #20]
 3261              	.LVL284:
 3262              		.loc 1 263 0
 3263 100e DBED03BA 		flds	s23, [fp, #12]
 3264              	.LVL285:
 3265              		.loc 1 260 0
 3266 1012 9FED020A 		flds	s0, .L193+4
 3267 1016 CDE5     		b	.L103
 3268              	.L194:
 3269              		.align	2
 3270              	.L193:
 3271 1018 00A4FFFF 		.word	-23552
 3272 101c 00000000 		.word	0
 3273 1020 00008043 		.word	1132462080
 3274              	.LBE685:
 3275              	.LBE691:
 3276              	.LBE692:
 3277              		.cfi_endproc
 3278              	.LFE671:
 3279              		.cantunwind
 3280              		.fnend
 3281              		.size	_ZN8elements12OminousVoice7ProcessERKNS_5PatchEffbPKfS5_PfS6_S6_j, .-_ZN8elements12OminousVo
 3282              		.section	.rodata
 3283              		.align	2
 3284              		.set	.LANCHOR0,. + 0
 3285              		.type	_ZN8elementsL19kDownsamplingFilterE, %object
 3286              		.size	_ZN8elementsL19kDownsamplingFilterE, 404
 3287              	_ZN8elementsL19kDownsamplingFilterE:
 3288 0000 D9B2F3BA 		.word	-1158434087
 3289 0004 E84F9B3A 		.word	983257064
 3290 0008 D8E99E3A 		.word	983493080
 3291 000c 2087B33A 		.word	984844064
 3292 0010 CADECB3A 		.word	986439370
 3293 0014 C8F4DC3A 		.word	987559112
 3294 0018 0DE5DD3A 		.word	987620621
 3295 001c 300AC83A 		.word	986188336
 3296 0020 2CAE973A 		.word	983019052
 3297 0024 A09F183A 		.word	974692256
 3298 0028 D25035B9 		.word	-1187688238
 3299 002c 78448ABA 		.word	-1165343624
ARM GAS  /tmp/ccBJNJuT.s 			page 59


 3300 0030 91DF01BB 		.word	-1157505135
 3301 0034 1FF23ABB 		.word	-1153764833
 3302 0038 3F0169BB 		.word	-1150746305
 3303 003c D95282BB 		.word	-1149087015
 3304 0040 A5BF83BB 		.word	-1148993627
 3305 0044 5C056DBB 		.word	-1150483108
 3306 0048 264C33BB 		.word	-1154266074
 3307 004c D176B7BA 		.word	-1162381615
 3308 0050 ECCAA439 		.word	967101164
 3309 0054 90F2143B 		.word	991228560
 3310 0058 B0BD8C3B 		.word	999079344
 3311 005c 9E0DCA3B 		.word	1003097502
 3312 0060 A5D6FA3B 		.word	1006294693
 3313 0064 B0D50B3C 		.word	1007408560
 3314 0068 38230D3C 		.word	1007493944
 3315 006c 1152FE3B 		.word	1006522897
 3316 0070 60F4C13B 		.word	1002566752
 3317 0074 5F5F4D3B 		.word	994926431
 3318 0078 5BCCE9B9 		.word	-1175860133
 3319 007c A88795BB 		.word	-1147828312
 3320 0080 0E4811BC 		.word	-1139718130
 3321 0084 FEE053BC 		.word	-1135353602
 3322 0088 796C85BC 		.word	-1132106631
 3323 008c B93197BC 		.word	-1130942023
 3324 0090 93999BBC 		.word	-1130653293
 3325 0094 3AB58FBC 		.word	-1131432646
 3326 0098 6CB962BC 		.word	-1134380692
 3327 009c B03FFFBB 		.word	-1140899920
 3328 00a0 09F50D3A 		.word	973993225
 3329 00a4 DCEA323C 		.word	1009969884
 3330 00a8 A1E4BB3C 		.word	1018946721
 3331 00ac C794133D 		.word	1024693447
 3332 00b0 99E04A3D 		.word	1028317337
 3333 00b4 E266803D 		.word	1031825122
 3334 00b8 9E20993D 		.word	1033445534
 3335 00bc AF24AE3D 		.word	1034822831
 3336 00c0 412ABE3D 		.word	1035872833
 3337 00c4 0D33C83D 		.word	1036530445
 3338 00c8 D29DCB3D 		.word	1036754386
 3339 00cc 0D33C83D 		.word	1036530445
 3340 00d0 412ABE3D 		.word	1035872833
 3341 00d4 AF24AE3D 		.word	1034822831
 3342 00d8 9E20993D 		.word	1033445534
 3343 00dc E266803D 		.word	1031825122
 3344 00e0 99E04A3D 		.word	1028317337
 3345 00e4 C794133D 		.word	1024693447
 3346 00e8 A1E4BB3C 		.word	1018946721
 3347 00ec DCEA323C 		.word	1009969884
 3348 00f0 09F50D3A 		.word	973993225
 3349 00f4 B03FFFBB 		.word	-1140899920
 3350 00f8 6CB962BC 		.word	-1134380692
 3351 00fc 3AB58FBC 		.word	-1131432646
 3352 0100 93999BBC 		.word	-1130653293
 3353 0104 B93197BC 		.word	-1130942023
 3354 0108 796C85BC 		.word	-1132106631
 3355 010c FEE053BC 		.word	-1135353602
 3356 0110 0E4811BC 		.word	-1139718130
ARM GAS  /tmp/ccBJNJuT.s 			page 60


 3357 0114 A88795BB 		.word	-1147828312
 3358 0118 5BCCE9B9 		.word	-1175860133
 3359 011c 5F5F4D3B 		.word	994926431
 3360 0120 60F4C13B 		.word	1002566752
 3361 0124 1152FE3B 		.word	1006522897
 3362 0128 38230D3C 		.word	1007493944
 3363 012c B0D50B3C 		.word	1007408560
 3364 0130 A5D6FA3B 		.word	1006294693
 3365 0134 9E0DCA3B 		.word	1003097502
 3366 0138 B0BD8C3B 		.word	999079344
 3367 013c 90F2143B 		.word	991228560
 3368 0140 ECCAA439 		.word	967101164
 3369 0144 D176B7BA 		.word	-1162381615
 3370 0148 264C33BB 		.word	-1154266074
 3371 014c 5C056DBB 		.word	-1150483108
 3372 0150 A5BF83BB 		.word	-1148993627
 3373 0154 D95282BB 		.word	-1149087015
 3374 0158 3F0169BB 		.word	-1150746305
 3375 015c 1FF23ABB 		.word	-1153764833
 3376 0160 91DF01BB 		.word	-1157505135
 3377 0164 78448ABA 		.word	-1165343624
 3378 0168 D25035B9 		.word	-1187688238
 3379 016c A09F183A 		.word	974692256
 3380 0170 2CAE973A 		.word	983019052
 3381 0174 300AC83A 		.word	986188336
 3382 0178 0DE5DD3A 		.word	987620621
 3383 017c C8F4DC3A 		.word	987559112
 3384 0180 CADECB3A 		.word	986439370
 3385 0184 2087B33A 		.word	984844064
 3386 0188 D8E99E3A 		.word	983493080
 3387 018c E84F9B3A 		.word	983257064
 3388 0190 D9B2F3BA 		.word	-1158434087
 3389              	.LC0:
 3390 0194 0000803F 		.word	1065353216
 3391 0198 68CD8F3F 		.word	1066388840
 3392              		.text
 3393              	.Letext0:
 3394              		.file 7 "/home/sbcu/Dropbox/pcb-layouts/axo-on-discovery-board/axoloti/platform_linux/arm-none-eab
 3395              		.file 8 "/home/sbcu/Dropbox/pcb-layouts/axo-on-discovery-board/axoloti/platform_linux/arm-none-eab
 3396              		.file 9 "/home/sbcu/Dropbox/pcb-layouts/axo-on-discovery-board/axoloti/platform_linux/lib/gcc/arm-
 3397              		.file 10 "./mutable_instruments/stmlib/stmlib.h"
 3398              		.file 11 "/home/sbcu/Dropbox/pcb-layouts/axo-on-discovery-board/axoloti/platform_linux/arm-none-ea
 3399              		.file 12 "/home/sbcu/Dropbox/pcb-layouts/axo-on-discovery-board/axoloti/platform_linux/arm-none-ea
 3400              		.file 13 "/home/sbcu/Dropbox/pcb-layouts/axo-on-discovery-board/axoloti/platform_linux/arm-none-ea
 3401              		.file 14 "/home/sbcu/Dropbox/pcb-layouts/axo-on-discovery-board/axoloti/platform_linux/arm-none-ea
 3402              		.file 15 "/home/sbcu/Dropbox/pcb-layouts/axo-on-discovery-board/axoloti/platform_linux/arm-none-ea
 3403              		.file 16 "/home/sbcu/Dropbox/pcb-layouts/axo-on-discovery-board/axoloti/platform_linux/arm-none-ea
 3404              		.file 17 "/home/sbcu/Dropbox/pcb-layouts/axo-on-discovery-board/axoloti/platform_linux/arm-none-ea
 3405              		.file 18 "/home/sbcu/Dropbox/pcb-layouts/axo-on-discovery-board/axoloti/platform_linux/arm-none-ea
 3406              		.file 19 "/home/sbcu/Dropbox/pcb-layouts/axo-on-discovery-board/axoloti/platform_linux/arm-none-ea
 3407              		.file 20 "/home/sbcu/Dropbox/pcb-layouts/axo-on-discovery-board/axoloti/platform_linux/arm-none-ea
 3408              		.file 21 "/home/sbcu/Dropbox/pcb-layouts/axo-on-discovery-board/axoloti/platform_linux/arm-none-ea
 3409              		.file 22 "/home/sbcu/Dropbox/pcb-layouts/axo-on-discovery-board/axoloti/platform_linux/arm-none-ea
 3410              		.file 23 "/home/sbcu/Dropbox/pcb-layouts/axo-on-discovery-board/axoloti/platform_linux/arm-none-ea
 3411              		.file 24 "/home/sbcu/Dropbox/pcb-layouts/axo-on-discovery-board/axoloti/platform_linux/arm-none-ea
 3412              		.file 25 "./mutable_instruments/elements/../mutable_resources.h"
 3413              		.file 26 "/home/sbcu/Dropbox/pcb-layouts/axo-on-discovery-board/axoloti/platform_linux/arm-none-ea
ARM GAS  /tmp/ccBJNJuT.s 			page 61


 3414              		.file 27 "./mutable_instruments/elements/resources.h"
 3415              		.file 28 "./mutable_instruments/elements/dsp/dsp.h"
 3416              		.file 29 "./mutable_instruments/elements/dsp/patch.h"
 3417              		.file 30 "<built-in>"