ARM GAS  /tmp/ccddVHCT.s 			page 1


   1              		.syntax unified
   2              		.cpu cortex-m4
   3              		.eabi_attribute 27, 1
   4              		.eabi_attribute 28, 1
   5              		.fpu fpv4-sp-d16
   6              		.eabi_attribute 20, 1
   7              		.eabi_attribute 21, 1
   8              		.eabi_attribute 23, 3
   9              		.eabi_attribute 24, 1
  10              		.eabi_attribute 25, 1
  11              		.eabi_attribute 26, 1
  12              		.eabi_attribute 30, 2
  13              		.eabi_attribute 34, 1
  14              		.eabi_attribute 18, 4
  15              		.thumb
  16              		.file	"pal.c"
  17              		.text
  18              	.Ltext0:
  19              		.cfi_sections	.debug_frame
  20              		.align	2
  21              		.p2align 4,,15
  22              		.global	palReadBus
  23              		.thumb
  24              		.thumb_func
  25              		.type	palReadBus, %function
  26              	palReadBus:
  27              	.LFB130:
  28              		.file 1 "/home/sbcu/Dropbox/pcb-layouts/axo-on-discovery-board/axoloti/platform_linux/../chibios/o
  29              		.loc 1 77 0
  30              		.cfi_startproc
  31              		@ args = 0, pretend = 0, frame = 0
  32              		@ frame_needed = 0, uses_anonymous_args = 0
  33              		@ link register save eliminated.
  34              	.LVL0:
  35              		.loc 1 82 0
  36 0000 0368     		ldr	r3, [r0]
  37 0002 8168     		ldr	r1, [r0, #8]
  38 0004 1B69     		ldr	r3, [r3, #16]
  39 0006 4268     		ldr	r2, [r0, #4]
  40 0008 23FA01F0 		lsr	r0, r3, r1
  41              	.LVL1:
  42              		.loc 1 83 0
  43 000c 1040     		ands	r0, r0, r2
  44 000e 7047     		bx	lr
  45              		.cfi_endproc
  46              	.LFE130:
  47              		.size	palReadBus, .-palReadBus
  48              		.align	2
  49              		.p2align 4,,15
  50              		.global	palWriteBus
  51              		.thumb
  52              		.thumb_func
  53              		.type	palWriteBus, %function
  54              	palWriteBus:
  55              	.LFB131:
  56              		.loc 1 103 0
  57              		.cfi_startproc
ARM GAS  /tmp/ccddVHCT.s 			page 2


  58              		@ args = 0, pretend = 0, frame = 0
  59              		@ frame_needed = 0, uses_anonymous_args = 0
  60              		@ link register save eliminated.
  61              	.LVL2:
  62 0010 30B4     		push	{r4, r5}
  63              		.cfi_def_cfa_offset 8
  64              		.cfi_offset 4, -8
  65              		.cfi_offset 5, -4
  66              		.loc 1 108 0
  67 0012 19C8     		ldmia	r0, {r0, r3, r4}
  68              	.LVL3:
  69 0014 23EA0102 		bic	r2, r3, r1
  70 0018 04F11005 		add	r5, r4, #16
  71 001c 0B40     		ands	r3, r3, r1
  72 001e 03FA04F1 		lsl	r1, r3, r4
  73              	.LVL4:
  74 0022 02FA05F3 		lsl	r3, r2, r5
  75 0026 0B43     		orrs	r3, r3, r1
  76 0028 8361     		str	r3, [r0, #24]
  77              		.loc 1 109 0
  78 002a 30BC     		pop	{r4, r5}
  79              		.cfi_restore 5
  80              		.cfi_restore 4
  81              		.cfi_def_cfa_offset 0
  82 002c 7047     		bx	lr
  83              		.cfi_endproc
  84              	.LFE131:
  85              		.size	palWriteBus, .-palWriteBus
  86 002e 00BF     		.align	2
  87              		.p2align 4,,15
  88              		.global	palSetBusMode
  89              		.thumb
  90              		.thumb_func
  91              		.type	palSetBusMode, %function
  92              	palSetBusMode:
  93              	.LFB132:
  94              		.loc 1 127 0
  95              		.cfi_startproc
  96              		@ args = 0, pretend = 0, frame = 0
  97              		@ frame_needed = 0, uses_anonymous_args = 0
  98              		@ link register save eliminated.
  99              	.LVL5:
 100              		.loc 1 127 0
 101 0030 0A46     		mov	r2, r1
 102              		.loc 1 132 0
 103 0032 0BC8     		ldmia	r0, {r0, r1, r3}
 104              	.LVL6:
 105 0034 9940     		lsls	r1, r1, r3
 106 0036 FFF7FEBF 		b	_pal_lld_setgroupmode
 107              	.LVL7:
 108              		.cfi_endproc
 109              	.LFE132:
 110              		.size	palSetBusMode, .-palSetBusMode
 111              	.Letext0:
 112              		.file 2 "/home/sbcu/Dropbox/pcb-layouts/axo-on-discovery-board/axoloti/platform_linux/arm-none-eab
 113              		.file 3 "/home/sbcu/Dropbox/pcb-layouts/axo-on-discovery-board/axoloti/platform_linux/arm-none-eab
 114              		.file 4 "/home/sbcu/Dropbox/pcb-layouts/axo-on-discovery-board/axoloti/platform_linux/arm-none-eab
ARM GAS  /tmp/ccddVHCT.s 			page 3


 115              		.file 5 "/home/sbcu/Dropbox/pcb-layouts/axo-on-discovery-board/axoloti/platform_linux/../chibios/o
 116              		.file 6 "/home/sbcu/Dropbox/pcb-layouts/axo-on-discovery-board/axoloti/platform_linux/../chibios/o
 117              		.file 7 "/home/sbcu/Dropbox/pcb-layouts/axo-on-discovery-board/axoloti/platform_linux/../CMSIS//In