ARM GAS  /tmp/ccRCTHg3.s 			page 1


   1              		.syntax unified
   2              		.cpu cortex-m4
   3              		.eabi_attribute 27, 1
   4              		.eabi_attribute 28, 1
   5              		.fpu fpv4-sp-d16
   6              		.eabi_attribute 20, 1
   7              		.eabi_attribute 21, 1
   8              		.eabi_attribute 23, 3
   9              		.eabi_attribute 24, 1
  10              		.eabi_attribute 25, 1
  11              		.eabi_attribute 26, 1
  12              		.eabi_attribute 30, 2
  13              		.eabi_attribute 34, 1
  14              		.eabi_attribute 18, 4
  15              		.thumb
  16              		.file	"pal_lld.c"
  17              		.text
  18              	.Ltext0:
  19              		.cfi_sections	.debug_frame
  20              		.align	2
  21              		.p2align 4,,15
  22              		.global	_pal_lld_init
  23              		.thumb
  24              		.thumb_func
  25              		.type	_pal_lld_init, %function
  26              	_pal_lld_init:
  27              	.LFB131:
  28              		.file 1 "/home/sbcu/Dropbox/pcb-layouts/axo-on-discovery-board/axoloti/platform_linux/../chibios/o
  29              		.loc 1 119 0
  30              		.cfi_startproc
  31              		@ args = 0, pretend = 0, frame = 0
  32              		@ frame_needed = 0, uses_anonymous_args = 0
  33              	.LVL0:
  34 0000 2DE9F04F 		push	{r4, r5, r6, r7, r8, r9, r10, fp, lr}
  35              		.cfi_def_cfa_offset 36
  36              		.cfi_offset 4, -36
  37              		.cfi_offset 5, -32
  38              		.cfi_offset 6, -28
  39              		.cfi_offset 7, -24
  40              		.cfi_offset 8, -20
  41              		.cfi_offset 9, -16
  42              		.cfi_offset 10, -12
  43              		.cfi_offset 11, -8
  44              		.cfi_offset 14, -4
  45              		.loc 1 132 0
  46 0004 DFF8B481 		ldr	r8, .L3+24
  47              	.LBB20:
  48              	.LBB21:
  49              		.loc 1 94 0
  50 0008 DFF8B4C1 		ldr	ip, .L3+28
  51              	.LBE21:
  52              	.LBE20:
  53              		.loc 1 132 0
  54 000c D8F830A0 		ldr	r10, [r8, #48]
  55              	.LBB23:
  56              	.LBB24:
  57              		.loc 1 94 0
ARM GAS  /tmp/ccRCTHg3.s 			page 2


  58 0010 DFF8B0E1 		ldr	lr, .L3+32
  59              	.LBE24:
  60              	.LBE23:
  61              	.LBB26:
  62              	.LBB27:
  63 0014 634F     		ldr	r7, .L3
  64              	.LBE27:
  65              	.LBE26:
  66              	.LBB29:
  67              	.LBB30:
  68 0016 644E     		ldr	r6, .L3+4
  69              	.LBE30:
  70              	.LBE29:
  71              	.LBB32:
  72              	.LBB33:
  73 0018 644D     		ldr	r5, .L3+8
  74              	.LBE33:
  75              	.LBE32:
  76              	.LBB35:
  77              	.LBB36:
  78 001a 654C     		ldr	r4, .L3+12
  79              	.LBE36:
  80              	.LBE35:
  81              	.LBB38:
  82              	.LBB39:
  83 001c 6549     		ldr	r1, .L3+16
  84              	.LBE39:
  85              	.LBE38:
  86              	.LBB41:
  87              	.LBB42:
  88 001e 664A     		ldr	r2, .L3+20
  89              	.LBE42:
  90              	.LBE41:
  91              	.LBB44:
  92              	.LBB45:
  93 0020 DFF8A4B1 		ldr	fp, .L3+36
  94              	.LBE45:
  95              	.LBE44:
  96              		.loc 1 132 0
  97 0024 40F2FF19 		movw	r9, #511
  98 0028 4AEA090A 		orr	r10, r10, r9
  99 002c C8F830A0 		str	r10, [r8, #48]
 100              		.loc 1 133 0
 101 0030 D8F850A0 		ldr	r10, [r8, #80]
 102 0034 4AEA0909 		orr	r9, r10, r9
 103 0038 C8F85090 		str	r9, [r8, #80]
 104              	.LVL1:
 105              	.LBB47:
 106              	.LBB22:
 107              		.loc 1 94 0
 108 003c 4368     		ldr	r3, [r0, #4]
 109 003e CCF80430 		str	r3, [ip, #4]
 110              		.loc 1 95 0
 111 0042 8368     		ldr	r3, [r0, #8]
 112 0044 CCF80830 		str	r3, [ip, #8]
 113              		.loc 1 96 0
 114 0048 C368     		ldr	r3, [r0, #12]
ARM GAS  /tmp/ccRCTHg3.s 			page 3


 115 004a CCF80C30 		str	r3, [ip, #12]
 116              		.loc 1 97 0
 117 004e 0369     		ldr	r3, [r0, #16]
 118 0050 CCF81430 		str	r3, [ip, #20]
 119              		.loc 1 98 0
 120 0054 4369     		ldr	r3, [r0, #20]
 121 0056 CCF82030 		str	r3, [ip, #32]
 122              		.loc 1 99 0
 123 005a 8369     		ldr	r3, [r0, #24]
 124 005c CCF82430 		str	r3, [ip, #36]
 125              		.loc 1 100 0
 126 0060 0368     		ldr	r3, [r0]
 127 0062 CCF80030 		str	r3, [ip]
 128              	.LVL2:
 129              	.LBE22:
 130              	.LBE47:
 131              	.LBB48:
 132              	.LBB25:
 133              		.loc 1 94 0
 134 0066 036A     		ldr	r3, [r0, #32]
 135 0068 CEF80430 		str	r3, [lr, #4]
 136              		.loc 1 95 0
 137 006c 436A     		ldr	r3, [r0, #36]
 138 006e CEF80830 		str	r3, [lr, #8]
 139              		.loc 1 96 0
 140 0072 836A     		ldr	r3, [r0, #40]
 141 0074 CEF80C30 		str	r3, [lr, #12]
 142              		.loc 1 97 0
 143 0078 C36A     		ldr	r3, [r0, #44]
 144 007a CEF81430 		str	r3, [lr, #20]
 145              		.loc 1 98 0
 146 007e 036B     		ldr	r3, [r0, #48]
 147 0080 CEF82030 		str	r3, [lr, #32]
 148              		.loc 1 99 0
 149 0084 436B     		ldr	r3, [r0, #52]
 150 0086 CEF82430 		str	r3, [lr, #36]
 151              		.loc 1 100 0
 152 008a C369     		ldr	r3, [r0, #28]
 153 008c CEF80030 		str	r3, [lr]
 154              	.LVL3:
 155              	.LBE25:
 156              	.LBE48:
 157              	.LBB49:
 158              	.LBB28:
 159              		.loc 1 94 0
 160 0090 C36B     		ldr	r3, [r0, #60]
 161 0092 7B60     		str	r3, [r7, #4]
 162              		.loc 1 95 0
 163 0094 036C     		ldr	r3, [r0, #64]
 164 0096 BB60     		str	r3, [r7, #8]
 165              		.loc 1 96 0
 166 0098 436C     		ldr	r3, [r0, #68]
 167 009a FB60     		str	r3, [r7, #12]
 168              		.loc 1 97 0
 169 009c 836C     		ldr	r3, [r0, #72]
 170 009e 7B61     		str	r3, [r7, #20]
 171              		.loc 1 98 0
ARM GAS  /tmp/ccRCTHg3.s 			page 4


 172 00a0 C36C     		ldr	r3, [r0, #76]
 173 00a2 3B62     		str	r3, [r7, #32]
 174              		.loc 1 99 0
 175 00a4 036D     		ldr	r3, [r0, #80]
 176 00a6 7B62     		str	r3, [r7, #36]
 177              		.loc 1 100 0
 178 00a8 836B     		ldr	r3, [r0, #56]
 179 00aa 3B60     		str	r3, [r7]
 180              	.LVL4:
 181              	.LBE28:
 182              	.LBE49:
 183              	.LBB50:
 184              	.LBB31:
 185              		.loc 1 94 0
 186 00ac 876D     		ldr	r7, [r0, #88]
 187 00ae 7760     		str	r7, [r6, #4]
 188              		.loc 1 95 0
 189 00b0 C76D     		ldr	r7, [r0, #92]
 190 00b2 B760     		str	r7, [r6, #8]
 191              		.loc 1 96 0
 192 00b4 076E     		ldr	r7, [r0, #96]
 193 00b6 F760     		str	r7, [r6, #12]
 194              		.loc 1 97 0
 195 00b8 476E     		ldr	r7, [r0, #100]
 196 00ba 7761     		str	r7, [r6, #20]
 197              		.loc 1 98 0
 198 00bc 876E     		ldr	r7, [r0, #104]
 199 00be 3762     		str	r7, [r6, #32]
 200              		.loc 1 99 0
 201 00c0 C76E     		ldr	r7, [r0, #108]
 202 00c2 7762     		str	r7, [r6, #36]
 203              		.loc 1 100 0
 204 00c4 476D     		ldr	r7, [r0, #84]
 205 00c6 3760     		str	r7, [r6]
 206              	.LVL5:
 207              	.LBE31:
 208              	.LBE50:
 209              	.LBB51:
 210              	.LBB34:
 211              		.loc 1 94 0
 212 00c8 466F     		ldr	r6, [r0, #116]
 213 00ca 6E60     		str	r6, [r5, #4]
 214              		.loc 1 95 0
 215 00cc 866F     		ldr	r6, [r0, #120]
 216 00ce AE60     		str	r6, [r5, #8]
 217              		.loc 1 96 0
 218 00d0 C66F     		ldr	r6, [r0, #124]
 219 00d2 EE60     		str	r6, [r5, #12]
 220              		.loc 1 97 0
 221 00d4 D0F88060 		ldr	r6, [r0, #128]
 222 00d8 6E61     		str	r6, [r5, #20]
 223              		.loc 1 98 0
 224 00da D0F88460 		ldr	r6, [r0, #132]
 225 00de 2E62     		str	r6, [r5, #32]
 226              		.loc 1 99 0
 227 00e0 D0F88860 		ldr	r6, [r0, #136]
 228 00e4 6E62     		str	r6, [r5, #36]
ARM GAS  /tmp/ccRCTHg3.s 			page 5


 229              		.loc 1 100 0
 230 00e6 066F     		ldr	r6, [r0, #112]
 231 00e8 2E60     		str	r6, [r5]
 232              	.LVL6:
 233              	.LBE34:
 234              	.LBE51:
 235              	.LBB52:
 236              	.LBB37:
 237              		.loc 1 94 0
 238 00ea D0F89050 		ldr	r5, [r0, #144]
 239 00ee 6560     		str	r5, [r4, #4]
 240              		.loc 1 95 0
 241 00f0 D0F89450 		ldr	r5, [r0, #148]
 242 00f4 A560     		str	r5, [r4, #8]
 243              		.loc 1 96 0
 244 00f6 D0F89850 		ldr	r5, [r0, #152]
 245 00fa E560     		str	r5, [r4, #12]
 246              		.loc 1 97 0
 247 00fc D0F89C50 		ldr	r5, [r0, #156]
 248 0100 6561     		str	r5, [r4, #20]
 249              		.loc 1 98 0
 250 0102 D0F8A050 		ldr	r5, [r0, #160]
 251 0106 2562     		str	r5, [r4, #32]
 252              		.loc 1 99 0
 253 0108 D0F8A450 		ldr	r5, [r0, #164]
 254 010c 6562     		str	r5, [r4, #36]
 255              		.loc 1 100 0
 256 010e D0F88C50 		ldr	r5, [r0, #140]
 257 0112 2560     		str	r5, [r4]
 258              	.LVL7:
 259              	.LBE37:
 260              	.LBE52:
 261              	.LBB53:
 262              	.LBB40:
 263              		.loc 1 94 0
 264 0114 D0F8AC40 		ldr	r4, [r0, #172]
 265 0118 4C60     		str	r4, [r1, #4]
 266              		.loc 1 95 0
 267 011a D0F8B040 		ldr	r4, [r0, #176]
 268 011e 8C60     		str	r4, [r1, #8]
 269              		.loc 1 96 0
 270 0120 D0F8B440 		ldr	r4, [r0, #180]
 271 0124 CC60     		str	r4, [r1, #12]
 272              		.loc 1 97 0
 273 0126 D0F8B840 		ldr	r4, [r0, #184]
 274 012a 4C61     		str	r4, [r1, #20]
 275              		.loc 1 98 0
 276 012c D0F8BC40 		ldr	r4, [r0, #188]
 277 0130 0C62     		str	r4, [r1, #32]
 278              		.loc 1 99 0
 279 0132 D0F8C040 		ldr	r4, [r0, #192]
 280 0136 4C62     		str	r4, [r1, #36]
 281              		.loc 1 100 0
 282 0138 D0F8A840 		ldr	r4, [r0, #168]
 283 013c 0C60     		str	r4, [r1]
 284              	.LVL8:
 285              	.LBE40:
ARM GAS  /tmp/ccRCTHg3.s 			page 6


 286              	.LBE53:
 287              	.LBB54:
 288              	.LBB43:
 289              		.loc 1 94 0
 290 013e D0F8C810 		ldr	r1, [r0, #200]
 291 0142 5160     		str	r1, [r2, #4]
 292              		.loc 1 95 0
 293 0144 D0F8CC10 		ldr	r1, [r0, #204]
 294 0148 9160     		str	r1, [r2, #8]
 295              		.loc 1 96 0
 296 014a D0F8D010 		ldr	r1, [r0, #208]
 297 014e D160     		str	r1, [r2, #12]
 298              		.loc 1 97 0
 299 0150 D0F8D410 		ldr	r1, [r0, #212]
 300 0154 5161     		str	r1, [r2, #20]
 301              		.loc 1 98 0
 302 0156 D0F8D810 		ldr	r1, [r0, #216]
 303 015a 1162     		str	r1, [r2, #32]
 304              		.loc 1 99 0
 305 015c D0F8DC10 		ldr	r1, [r0, #220]
 306 0160 5162     		str	r1, [r2, #36]
 307              		.loc 1 100 0
 308 0162 D0F8C410 		ldr	r1, [r0, #196]
 309 0166 1160     		str	r1, [r2]
 310              	.LVL9:
 311              	.LBE43:
 312              	.LBE54:
 313              	.LBB55:
 314              	.LBB46:
 315              		.loc 1 94 0
 316 0168 D0F8E420 		ldr	r2, [r0, #228]
 317 016c CBF80420 		str	r2, [fp, #4]
 318              		.loc 1 95 0
 319 0170 D0F8E820 		ldr	r2, [r0, #232]
 320 0174 CBF80820 		str	r2, [fp, #8]
 321              		.loc 1 96 0
 322 0178 D0F8EC20 		ldr	r2, [r0, #236]
 323 017c CBF80C20 		str	r2, [fp, #12]
 324              		.loc 1 97 0
 325 0180 D0F8F020 		ldr	r2, [r0, #240]
 326 0184 CBF81420 		str	r2, [fp, #20]
 327              		.loc 1 98 0
 328 0188 D0F8F420 		ldr	r2, [r0, #244]
 329 018c CBF82020 		str	r2, [fp, #32]
 330              		.loc 1 99 0
 331 0190 D0F8F820 		ldr	r2, [r0, #248]
 332 0194 CBF82420 		str	r2, [fp, #36]
 333              		.loc 1 100 0
 334 0198 D0F8E020 		ldr	r2, [r0, #224]
 335 019c CBF80020 		str	r2, [fp]
 336 01a0 BDE8F08F 		pop	{r4, r5, r6, r7, r8, r9, r10, fp, pc}
 337              	.L4:
 338              		.align	2
 339              	.L3:
 340 01a4 00080240 		.word	1073874944
 341 01a8 000C0240 		.word	1073875968
 342 01ac 00100240 		.word	1073876992
ARM GAS  /tmp/ccRCTHg3.s 			page 7


 343 01b0 00140240 		.word	1073878016
 344 01b4 00180240 		.word	1073879040
 345 01b8 001C0240 		.word	1073880064
 346 01bc 00380240 		.word	1073887232
 347 01c0 00000240 		.word	1073872896
 348 01c4 00040240 		.word	1073873920
 349 01c8 00200240 		.word	1073881088
 350              	.LBE46:
 351              	.LBE55:
 352              		.cfi_endproc
 353              	.LFE131:
 354              		.size	_pal_lld_init, .-_pal_lld_init
 355              		.align	2
 356 01cc AFF30080 		.p2align 4,,15
 357              		.global	_pal_lld_setgroupmode
 358              		.thumb
 359              		.thumb_func
 360              		.type	_pal_lld_setgroupmode, %function
 361              	_pal_lld_setgroupmode:
 362              	.LFB132:
 363              		.loc 1 184 0
 364              		.cfi_startproc
 365              		@ args = 0, pretend = 0, frame = 0
 366              		@ frame_needed = 0, uses_anonymous_args = 0
 367              	.LVL10:
 368 01d0 2DE9F04F 		push	{r4, r5, r6, r7, r8, r9, r10, fp, lr}
 369              		.cfi_def_cfa_offset 36
 370              		.cfi_offset 4, -36
 371              		.cfi_offset 5, -32
 372              		.cfi_offset 6, -28
 373              		.cfi_offset 7, -24
 374              		.cfi_offset 8, -20
 375              		.cfi_offset 9, -16
 376              		.cfi_offset 10, -12
 377              		.cfi_offset 11, -8
 378              		.cfi_offset 14, -4
 379              	.LBB56:
 380              		.loc 1 197 0
 381 01d4 4FF00F0C 		mov	ip, #15
 382              	.LBE56:
 383              		.loc 1 186 0
 384 01d8 02F0030E 		and	lr, r2, #3
 385              	.LVL11:
 386              		.loc 1 187 0
 387 01dc C2F38007 		ubfx	r7, r2, #2, #1
 388              	.LVL12:
 389              		.loc 1 188 0
 390 01e0 C2F3C106 		ubfx	r6, r2, #3, #2
 391              	.LVL13:
 392              		.loc 1 189 0
 393 01e4 C2F34115 		ubfx	r5, r2, #5, #2
 394              	.LVL14:
 395              		.loc 1 191 0
 396 01e8 0024     		movs	r4, #0
 397              		.loc 1 190 0
 398 01ea C2F3C312 		ubfx	r2, r2, #7, #4
 399              	.LVL15:
ARM GAS  /tmp/ccRCTHg3.s 			page 8


 400              	.LBB57:
 401              		.loc 1 202 0
 402 01ee 4FF00109 		mov	r9, #1
 403              		.loc 1 204 0
 404 01f2 4FF00308 		mov	r8, #3
 405 01f6 2BE0     		b	.L10
 406              	.LVL16:
 407              	.L16:
 408              		.loc 1 199 0
 409 01f8 D0F820B0 		ldr	fp, [r0, #32]
 410 01fc 2BEA0303 		bic	r3, fp, r3
 411              	.LVL17:
 412 0200 43EA0A03 		orr	r3, r3, r10
 413 0204 0362     		str	r3, [r0, #32]
 414              	.L8:
 415              	.LVL18:
 416              		.loc 1 203 0
 417 0206 4368     		ldr	r3, [r0, #4]
 418              		.loc 1 202 0
 419 0208 09FA04FA 		lsl	r10, r9, r4
 420              	.LVL19:
 421              		.loc 1 203 0
 422 020c 23EA0A03 		bic	r3, r3, r10
 423 0210 3B43     		orrs	r3, r3, r7
 424 0212 4360     		str	r3, [r0, #4]
 425              	.LVL20:
 426 0214 4FEA440A 		lsl	r10, r4, #1
 427              		.loc 1 205 0
 428 0218 8368     		ldr	r3, [r0, #8]
 429              		.loc 1 204 0
 430 021a 08FA0AFA 		lsl	r10, r8, r10
 431              		.loc 1 205 0
 432 021e 6FEA0A0A 		mvn	r10, r10
 433 0222 0AEA0303 		and	r3, r10, r3
 434 0226 3343     		orrs	r3, r3, r6
 435 0228 8360     		str	r3, [r0, #8]
 436              		.loc 1 206 0
 437 022a C368     		ldr	r3, [r0, #12]
 438 022c 0AEA0303 		and	r3, r10, r3
 439 0230 2B43     		orrs	r3, r3, r5
 440 0232 C360     		str	r3, [r0, #12]
 441              		.loc 1 207 0
 442 0234 0368     		ldr	r3, [r0]
 443 0236 0AEA0303 		and	r3, r10, r3
 444 023a 43EA0E03 		orr	r3, r3, lr
 445 023e 0360     		str	r3, [r0]
 446              	.LVL21:
 447              	.L6:
 448              	.LBE57:
 449              		.loc 1 210 0
 450 0240 4908     		lsrs	r1, r1, #1
 451              	.LVL22:
 452 0242 19D0     		beq	.L5
 453              		.loc 1 212 0
 454 0244 7F00     		lsls	r7, r7, #1
 455              	.LVL23:
 456              		.loc 1 213 0
ARM GAS  /tmp/ccRCTHg3.s 			page 9


 457 0246 B600     		lsls	r6, r6, #2
 458              	.LVL24:
 459              		.loc 1 214 0
 460 0248 AD00     		lsls	r5, r5, #2
 461              	.LVL25:
 462              		.loc 1 215 0
 463 024a 4FEA8E0E 		lsl	lr, lr, #2
 464              	.LVL26:
 465              		.loc 1 216 0
 466 024e 0134     		adds	r4, r4, #1
 467              	.LVL27:
 468              	.L10:
 469              	.LBB58:
 470              		.loc 1 196 0
 471 0250 04F00703 		and	r3, r4, #7
 472 0254 9B00     		lsls	r3, r3, #2
 473              	.LBE58:
 474              		.loc 1 193 0
 475 0256 11F0010F 		tst	r1, #1
 476              	.LBB59:
 477              		.loc 1 196 0
 478 025a 02FA03FA 		lsl	r10, r2, r3
 479              	.LVL28:
 480              		.loc 1 197 0
 481 025e 0CFA03F3 		lsl	r3, ip, r3
 482              	.LVL29:
 483              	.LBE59:
 484              		.loc 1 193 0
 485 0262 EDD0     		beq	.L6
 486              	.LBB60:
 487              		.loc 1 198 0
 488 0264 072C     		cmp	r4, #7
 489 0266 C7D9     		bls	.L16
 490              		.loc 1 201 0
 491 0268 D0F824B0 		ldr	fp, [r0, #36]
 492 026c 2BEA0303 		bic	r3, fp, r3
 493              	.LVL30:
 494 0270 43EA0A03 		orr	r3, r3, r10
 495 0274 4362     		str	r3, [r0, #36]
 496 0276 C6E7     		b	.L8
 497              	.LVL31:
 498              	.L5:
 499 0278 BDE8F08F 		pop	{r4, r5, r6, r7, r8, r9, r10, fp, pc}
 500              	.LBE60:
 501              		.cfi_endproc
 502              	.LFE132:
 503              		.size	_pal_lld_setgroupmode, .-_pal_lld_setgroupmode
 504              	.Letext0:
 505              		.file 2 "/home/sbcu/Dropbox/pcb-layouts/axo-on-discovery-board/axoloti/platform_linux/arm-none-eab
 506              		.file 3 "/home/sbcu/Dropbox/pcb-layouts/axo-on-discovery-board/axoloti/platform_linux/arm-none-eab
 507              		.file 4 "/home/sbcu/Dropbox/pcb-layouts/axo-on-discovery-board/axoloti/platform_linux/../chibios/o
 508              		.file 5 "/home/sbcu/Dropbox/pcb-layouts/axo-on-discovery-board/axoloti/platform_linux/../chibios/o
 509              		.file 6 "/home/sbcu/Dropbox/pcb-layouts/axo-on-discovery-board/axoloti/platform_linux/../CMSIS//In
 510              		.section	.debug_info,"",%progbits
 511              	.Ldebug_info0:
 512 0000 F8060000 		.4byte	0x6f8
 513 0004 0400     		.2byte	0x4
ARM GAS  /tmp/ccRCTHg3.s 			page 10


 514 0006 00000000 		.4byte	.Ldebug_abbrev0
 515 000a 04       		.byte	0x4
 516 000b 01       		.uleb128 0x1
 517 000c E1020000 		.4byte	.LASF87
 518 0010 01       		.byte	0x1
 519 0011 60000000 		.4byte	.LASF88
 520 0015 0F010000 		.4byte	.LASF89
 521 0019 00000000 		.4byte	.Ltext0
 522 001d 7C020000 		.4byte	.Letext0-.Ltext0
 523 0021 00000000 		.4byte	.Ldebug_line0
 524 0025 02       		.uleb128 0x2
 525 0026 04       		.byte	0x4
 526 0027 05       		.byte	0x5
 527 0028 696E7400 		.ascii	"int\000"
 528 002c 03       		.uleb128 0x3
 529 002d 04       		.byte	0x4
 530 002e 07       		.byte	0x7
 531 002f B8040000 		.4byte	.LASF0
 532 0033 03       		.uleb128 0x3
 533 0034 01       		.byte	0x1
 534 0035 06       		.byte	0x6
 535 0036 56020000 		.4byte	.LASF1
 536 003a 03       		.uleb128 0x3
 537 003b 01       		.byte	0x1
 538 003c 08       		.byte	0x8
 539 003d 40020000 		.4byte	.LASF2
 540 0041 03       		.uleb128 0x3
 541 0042 02       		.byte	0x2
 542 0043 05       		.byte	0x5
 543 0044 79010000 		.4byte	.LASF3
 544 0048 04       		.uleb128 0x4
 545 0049 61010000 		.4byte	.LASF5
 546 004d 02       		.byte	0x2
 547 004e 2B       		.byte	0x2b
 548 004f 53000000 		.4byte	0x53
 549 0053 03       		.uleb128 0x3
 550 0054 02       		.byte	0x2
 551 0055 07       		.byte	0x7
 552 0056 BF020000 		.4byte	.LASF4
 553 005a 04       		.uleb128 0x4
 554 005b E2030000 		.4byte	.LASF6
 555 005f 02       		.byte	0x2
 556 0060 3F       		.byte	0x3f
 557 0061 65000000 		.4byte	0x65
 558 0065 03       		.uleb128 0x3
 559 0066 04       		.byte	0x4
 560 0067 05       		.byte	0x5
 561 0068 F6010000 		.4byte	.LASF7
 562 006c 04       		.uleb128 0x4
 563 006d 56010000 		.4byte	.LASF8
 564 0071 02       		.byte	0x2
 565 0072 41       		.byte	0x41
 566 0073 77000000 		.4byte	0x77
 567 0077 03       		.uleb128 0x3
 568 0078 04       		.byte	0x4
 569 0079 07       		.byte	0x7
 570 007a 9B020000 		.4byte	.LASF9
ARM GAS  /tmp/ccRCTHg3.s 			page 11


 571 007e 03       		.uleb128 0x3
 572 007f 08       		.byte	0x8
 573 0080 05       		.byte	0x5
 574 0081 DA010000 		.4byte	.LASF10
 575 0085 03       		.uleb128 0x3
 576 0086 08       		.byte	0x8
 577 0087 07       		.byte	0x7
 578 0088 62020000 		.4byte	.LASF11
 579 008c 04       		.uleb128 0x4
 580 008d 92020000 		.4byte	.LASF12
 581 0091 03       		.byte	0x3
 582 0092 1A       		.byte	0x1a
 583 0093 48000000 		.4byte	0x48
 584 0097 04       		.uleb128 0x4
 585 0098 DA030000 		.4byte	.LASF13
 586 009c 03       		.byte	0x3
 587 009d 1F       		.byte	0x1f
 588 009e 5A000000 		.4byte	0x5a
 589 00a2 04       		.uleb128 0x4
 590 00a3 79020000 		.4byte	.LASF14
 591 00a7 03       		.byte	0x3
 592 00a8 20       		.byte	0x20
 593 00a9 6C000000 		.4byte	0x6c
 594 00ad 03       		.uleb128 0x3
 595 00ae 01       		.byte	0x1
 596 00af 02       		.byte	0x2
 597 00b0 F6030000 		.4byte	.LASF15
 598 00b4 05       		.uleb128 0x5
 599 00b5 A2000000 		.4byte	0xa2
 600 00b9 03       		.uleb128 0x3
 601 00ba 04       		.byte	0x4
 602 00bb 07       		.byte	0x7
 603 00bc E9000000 		.4byte	.LASF16
 604 00c0 03       		.uleb128 0x3
 605 00c1 01       		.byte	0x1
 606 00c2 08       		.byte	0x8
 607 00c3 DC020000 		.4byte	.LASF17
 608 00c7 06       		.uleb128 0x6
 609 00c8 A2000000 		.4byte	0xa2
 610 00cc D7000000 		.4byte	0xd7
 611 00d0 07       		.uleb128 0x7
 612 00d1 B9000000 		.4byte	0xb9
 613 00d5 01       		.byte	0x1
 614 00d6 00       		.byte	0
 615 00d7 05       		.uleb128 0x5
 616 00d8 97000000 		.4byte	0x97
 617 00dc 08       		.uleb128 0x8
 618 00dd 90       		.byte	0x90
 619 00de 04       		.byte	0x4
 620 00df 5804     		.2byte	0x458
 621 00e1 85020000 		.4byte	0x285
 622 00e5 09       		.uleb128 0x9
 623 00e6 435200   		.ascii	"CR\000"
 624 00e9 04       		.byte	0x4
 625 00ea 5A04     		.2byte	0x45a
 626 00ec B4000000 		.4byte	0xb4
 627 00f0 00       		.byte	0
ARM GAS  /tmp/ccRCTHg3.s 			page 12


 628 00f1 0A       		.uleb128 0xa
 629 00f2 B2020000 		.4byte	.LASF18
 630 00f6 04       		.byte	0x4
 631 00f7 5B04     		.2byte	0x45b
 632 00f9 B4000000 		.4byte	0xb4
 633 00fd 04       		.byte	0x4
 634 00fe 0A       		.uleb128 0xa
 635 00ff C5040000 		.4byte	.LASF19
 636 0103 04       		.byte	0x4
 637 0104 5C04     		.2byte	0x45c
 638 0106 B4000000 		.4byte	0xb4
 639 010a 08       		.byte	0x8
 640 010b 09       		.uleb128 0x9
 641 010c 43495200 		.ascii	"CIR\000"
 642 0110 04       		.byte	0x4
 643 0111 5D04     		.2byte	0x45d
 644 0113 B4000000 		.4byte	0xb4
 645 0117 0C       		.byte	0xc
 646 0118 0A       		.uleb128 0xa
 647 0119 83010000 		.4byte	.LASF20
 648 011d 04       		.byte	0x4
 649 011e 5E04     		.2byte	0x45e
 650 0120 B4000000 		.4byte	0xb4
 651 0124 10       		.byte	0x10
 652 0125 0A       		.uleb128 0xa
 653 0126 89020000 		.4byte	.LASF21
 654 012a 04       		.byte	0x4
 655 012b 5F04     		.2byte	0x45f
 656 012d B4000000 		.4byte	0xb4
 657 0131 14       		.byte	0x14
 658 0132 0A       		.uleb128 0xa
 659 0133 94040000 		.4byte	.LASF22
 660 0137 04       		.byte	0x4
 661 0138 6004     		.2byte	0x460
 662 013a B4000000 		.4byte	0xb4
 663 013e 18       		.byte	0x18
 664 013f 0A       		.uleb128 0xa
 665 0140 17040000 		.4byte	.LASF23
 666 0144 04       		.byte	0x4
 667 0145 6104     		.2byte	0x461
 668 0147 A2000000 		.4byte	0xa2
 669 014b 1C       		.byte	0x1c
 670 014c 0A       		.uleb128 0xa
 671 014d 27000000 		.4byte	.LASF24
 672 0151 04       		.byte	0x4
 673 0152 6204     		.2byte	0x462
 674 0154 B4000000 		.4byte	0xb4
 675 0158 20       		.byte	0x20
 676 0159 0A       		.uleb128 0xa
 677 015a 18020000 		.4byte	.LASF25
 678 015e 04       		.byte	0x4
 679 015f 6304     		.2byte	0x463
 680 0161 B4000000 		.4byte	0xb4
 681 0165 24       		.byte	0x24
 682 0166 0A       		.uleb128 0xa
 683 0167 21040000 		.4byte	.LASF26
 684 016b 04       		.byte	0x4
ARM GAS  /tmp/ccRCTHg3.s 			page 13


 685 016c 6404     		.2byte	0x464
 686 016e C7000000 		.4byte	0xc7
 687 0172 28       		.byte	0x28
 688 0173 0A       		.uleb128 0xa
 689 0174 64040000 		.4byte	.LASF27
 690 0178 04       		.byte	0x4
 691 0179 6504     		.2byte	0x465
 692 017b B4000000 		.4byte	0xb4
 693 017f 30       		.byte	0x30
 694 0180 0A       		.uleb128 0xa
 695 0181 30000000 		.4byte	.LASF28
 696 0185 04       		.byte	0x4
 697 0186 6604     		.2byte	0x466
 698 0188 B4000000 		.4byte	0xb4
 699 018c 34       		.byte	0x34
 700 018d 0A       		.uleb128 0xa
 701 018e CA010000 		.4byte	.LASF29
 702 0192 04       		.byte	0x4
 703 0193 6704     		.2byte	0x467
 704 0195 B4000000 		.4byte	0xb4
 705 0199 38       		.byte	0x38
 706 019a 0A       		.uleb128 0xa
 707 019b 2B040000 		.4byte	.LASF30
 708 019f 04       		.byte	0x4
 709 01a0 6804     		.2byte	0x468
 710 01a2 A2000000 		.4byte	0xa2
 711 01a6 3C       		.byte	0x3c
 712 01a7 0A       		.uleb128 0xa
 713 01a8 A6010000 		.4byte	.LASF31
 714 01ac 04       		.byte	0x4
 715 01ad 6904     		.2byte	0x469
 716 01af B4000000 		.4byte	0xb4
 717 01b3 40       		.byte	0x40
 718 01b4 0A       		.uleb128 0xa
 719 01b5 4E020000 		.4byte	.LASF32
 720 01b9 04       		.byte	0x4
 721 01ba 6A04     		.2byte	0x46a
 722 01bc B4000000 		.4byte	0xb4
 723 01c0 44       		.byte	0x44
 724 01c1 0A       		.uleb128 0xa
 725 01c2 35040000 		.4byte	.LASF33
 726 01c6 04       		.byte	0x4
 727 01c7 6B04     		.2byte	0x46b
 728 01c9 C7000000 		.4byte	0xc7
 729 01cd 48       		.byte	0x48
 730 01ce 0A       		.uleb128 0xa
 731 01cf 00000000 		.4byte	.LASF34
 732 01d3 04       		.byte	0x4
 733 01d4 6C04     		.2byte	0x46c
 734 01d6 B4000000 		.4byte	0xb4
 735 01da 50       		.byte	0x50
 736 01db 0A       		.uleb128 0xa
 737 01dc 01040000 		.4byte	.LASF35
 738 01e0 04       		.byte	0x4
 739 01e1 6D04     		.2byte	0x46d
 740 01e3 B4000000 		.4byte	0xb4
 741 01e7 54       		.byte	0x54
ARM GAS  /tmp/ccRCTHg3.s 			page 14


 742 01e8 0A       		.uleb128 0xa
 743 01e9 9C010000 		.4byte	.LASF36
 744 01ed 04       		.byte	0x4
 745 01ee 6E04     		.2byte	0x46e
 746 01f0 B4000000 		.4byte	0xb4
 747 01f4 58       		.byte	0x58
 748 01f5 0A       		.uleb128 0xa
 749 01f6 3F040000 		.4byte	.LASF37
 750 01fa 04       		.byte	0x4
 751 01fb 6F04     		.2byte	0x46f
 752 01fd A2000000 		.4byte	0xa2
 753 0201 5C       		.byte	0x5c
 754 0202 0A       		.uleb128 0xa
 755 0203 D2020000 		.4byte	.LASF38
 756 0207 04       		.byte	0x4
 757 0208 7004     		.2byte	0x470
 758 020a B4000000 		.4byte	0xb4
 759 020e 60       		.byte	0x60
 760 020f 0A       		.uleb128 0xa
 761 0210 DA040000 		.4byte	.LASF39
 762 0214 04       		.byte	0x4
 763 0215 7104     		.2byte	0x471
 764 0217 B4000000 		.4byte	0xb4
 765 021b 64       		.byte	0x64
 766 021c 0A       		.uleb128 0xa
 767 021d 49040000 		.4byte	.LASF40
 768 0221 04       		.byte	0x4
 769 0222 7204     		.2byte	0x472
 770 0224 C7000000 		.4byte	0xc7
 771 0228 68       		.byte	0x68
 772 0229 0A       		.uleb128 0xa
 773 022a F2000000 		.4byte	.LASF41
 774 022e 04       		.byte	0x4
 775 022f 7304     		.2byte	0x473
 776 0231 B4000000 		.4byte	0xb4
 777 0235 70       		.byte	0x70
 778 0236 09       		.uleb128 0x9
 779 0237 43535200 		.ascii	"CSR\000"
 780 023b 04       		.byte	0x4
 781 023c 7404     		.2byte	0x474
 782 023e B4000000 		.4byte	0xb4
 783 0242 74       		.byte	0x74
 784 0243 0A       		.uleb128 0xa
 785 0244 53040000 		.4byte	.LASF42
 786 0248 04       		.byte	0x4
 787 0249 7504     		.2byte	0x475
 788 024b C7000000 		.4byte	0xc7
 789 024f 78       		.byte	0x78
 790 0250 0A       		.uleb128 0xa
 791 0251 6C010000 		.4byte	.LASF43
 792 0255 04       		.byte	0x4
 793 0256 7604     		.2byte	0x476
 794 0258 B4000000 		.4byte	0xb4
 795 025c 80       		.byte	0x80
 796 025d 0A       		.uleb128 0xa
 797 025e FE000000 		.4byte	.LASF44
 798 0262 04       		.byte	0x4
ARM GAS  /tmp/ccRCTHg3.s 			page 15


 799 0263 7704     		.2byte	0x477
 800 0265 B4000000 		.4byte	0xb4
 801 0269 84       		.byte	0x84
 802 026a 0A       		.uleb128 0xa
 803 026b CA040000 		.4byte	.LASF45
 804 026f 04       		.byte	0x4
 805 0270 7804     		.2byte	0x478
 806 0272 B4000000 		.4byte	0xb4
 807 0276 88       		.byte	0x88
 808 0277 0A       		.uleb128 0xa
 809 0278 C2010000 		.4byte	.LASF46
 810 027c 04       		.byte	0x4
 811 027d 7904     		.2byte	0x479
 812 027f B4000000 		.4byte	0xb4
 813 0283 8C       		.byte	0x8c
 814 0284 00       		.byte	0
 815 0285 0B       		.uleb128 0xb
 816 0286 06020000 		.4byte	.LASF47
 817 028a 04       		.byte	0x4
 818 028b 7B04     		.2byte	0x47b
 819 028d DC000000 		.4byte	0xdc
 820 0291 0C       		.uleb128 0xc
 821 0292 04       		.byte	0x4
 822 0293 05       		.byte	0x5
 823 0294 96       		.byte	0x96
 824 0295 B2020000 		.4byte	0x2b2
 825 0299 0D       		.uleb128 0xd
 826 029a 73657400 		.ascii	"set\000"
 827 029e 05       		.byte	0x5
 828 029f 97       		.byte	0x97
 829 02a0 8C000000 		.4byte	0x8c
 830 02a4 00       		.byte	0
 831 02a5 0E       		.uleb128 0xe
 832 02a6 21020000 		.4byte	.LASF48
 833 02aa 05       		.byte	0x5
 834 02ab 98       		.byte	0x98
 835 02ac 8C000000 		.4byte	0x8c
 836 02b0 02       		.byte	0x2
 837 02b1 00       		.byte	0
 838 02b2 0F       		.uleb128 0xf
 839 02b3 04       		.byte	0x4
 840 02b4 05       		.byte	0x5
 841 02b5 94       		.byte	0x94
 842 02b6 CD020000 		.4byte	0x2cd
 843 02ba 10       		.uleb128 0x10
 844 02bb 5700     		.ascii	"W\000"
 845 02bd 05       		.byte	0x5
 846 02be 95       		.byte	0x95
 847 02bf A2000000 		.4byte	0xa2
 848 02c3 10       		.uleb128 0x10
 849 02c4 4800     		.ascii	"H\000"
 850 02c6 05       		.byte	0x5
 851 02c7 99       		.byte	0x99
 852 02c8 91020000 		.4byte	0x291
 853 02cc 00       		.byte	0
 854 02cd 0C       		.uleb128 0xc
 855 02ce 28       		.byte	0x28
ARM GAS  /tmp/ccRCTHg3.s 			page 16


 856 02cf 05       		.byte	0x5
 857 02d0 8C       		.byte	0x8c
 858 02d1 4E030000 		.4byte	0x34e
 859 02d5 0E       		.uleb128 0xe
 860 02d6 12020000 		.4byte	.LASF49
 861 02da 05       		.byte	0x5
 862 02db 8E       		.byte	0x8e
 863 02dc B4000000 		.4byte	0xb4
 864 02e0 00       		.byte	0
 865 02e1 0E       		.uleb128 0xe
 866 02e2 BB010000 		.4byte	.LASF50
 867 02e6 05       		.byte	0x5
 868 02e7 8F       		.byte	0x8f
 869 02e8 B4000000 		.4byte	0xb4
 870 02ec 04       		.byte	0x4
 871 02ed 0E       		.uleb128 0xe
 872 02ee D2010000 		.4byte	.LASF51
 873 02f2 05       		.byte	0x5
 874 02f3 90       		.byte	0x90
 875 02f4 B4000000 		.4byte	0xb4
 876 02f8 08       		.byte	0x8
 877 02f9 0E       		.uleb128 0xe
 878 02fa E8010000 		.4byte	.LASF52
 879 02fe 05       		.byte	0x5
 880 02ff 91       		.byte	0x91
 881 0300 B4000000 		.4byte	0xb4
 882 0304 0C       		.byte	0xc
 883 0305 0D       		.uleb128 0xd
 884 0306 49445200 		.ascii	"IDR\000"
 885 030a 05       		.byte	0x5
 886 030b 92       		.byte	0x92
 887 030c B4000000 		.4byte	0xb4
 888 0310 10       		.byte	0x10
 889 0311 0D       		.uleb128 0xd
 890 0312 4F445200 		.ascii	"ODR\000"
 891 0316 05       		.byte	0x5
 892 0317 93       		.byte	0x93
 893 0318 B4000000 		.4byte	0xb4
 894 031c 14       		.byte	0x14
 895 031d 0E       		.uleb128 0xe
 896 031e E4040000 		.4byte	.LASF53
 897 0322 05       		.byte	0x5
 898 0323 9A       		.byte	0x9a
 899 0324 4E030000 		.4byte	0x34e
 900 0328 18       		.byte	0x18
 901 0329 0E       		.uleb128 0xe
 902 032a D5040000 		.4byte	.LASF54
 903 032e 05       		.byte	0x5
 904 032f 9B       		.byte	0x9b
 905 0330 B4000000 		.4byte	0xb4
 906 0334 1C       		.byte	0x1c
 907 0335 0E       		.uleb128 0xe
 908 0336 BA020000 		.4byte	.LASF55
 909 033a 05       		.byte	0x5
 910 033b 9C       		.byte	0x9c
 911 033c B4000000 		.4byte	0xb4
 912 0340 20       		.byte	0x20
ARM GAS  /tmp/ccRCTHg3.s 			page 17


 913 0341 0E       		.uleb128 0xe
 914 0342 AD020000 		.4byte	.LASF56
 915 0346 05       		.byte	0x5
 916 0347 9D       		.byte	0x9d
 917 0348 B4000000 		.4byte	0xb4
 918 034c 24       		.byte	0x24
 919 034d 00       		.byte	0
 920 034e 05       		.uleb128 0x5
 921 034f B2020000 		.4byte	0x2b2
 922 0353 04       		.uleb128 0x4
 923 0354 87040000 		.4byte	.LASF57
 924 0358 05       		.byte	0x5
 925 0359 9E       		.byte	0x9e
 926 035a CD020000 		.4byte	0x2cd
 927 035e 0C       		.uleb128 0xc
 928 035f 1C       		.byte	0x1c
 929 0360 05       		.byte	0x5
 930 0361 A3       		.byte	0xa3
 931 0362 BB030000 		.4byte	0x3bb
 932 0366 0E       		.uleb128 0xe
 933 0367 81040000 		.4byte	.LASF58
 934 036b 05       		.byte	0x5
 935 036c A5       		.byte	0xa5
 936 036d A2000000 		.4byte	0xa2
 937 0371 00       		.byte	0
 938 0372 0E       		.uleb128 0xe
 939 0373 82020000 		.4byte	.LASF59
 940 0377 05       		.byte	0x5
 941 0378 A7       		.byte	0xa7
 942 0379 A2000000 		.4byte	0xa2
 943 037d 04       		.byte	0x4
 944 037e 0E       		.uleb128 0xe
 945 037f EE010000 		.4byte	.LASF60
 946 0383 05       		.byte	0x5
 947 0384 A9       		.byte	0xa9
 948 0385 A2000000 		.4byte	0xa2
 949 0389 08       		.byte	0x8
 950 038a 0E       		.uleb128 0xe
 951 038b 71040000 		.4byte	.LASF61
 952 038f 05       		.byte	0x5
 953 0390 AB       		.byte	0xab
 954 0391 A2000000 		.4byte	0xa2
 955 0395 0C       		.byte	0xc
 956 0396 0D       		.uleb128 0xd
 957 0397 6F647200 		.ascii	"odr\000"
 958 039b 05       		.byte	0x5
 959 039c AD       		.byte	0xad
 960 039d A2000000 		.4byte	0xa2
 961 03a1 10       		.byte	0x10
 962 03a2 0E       		.uleb128 0xe
 963 03a3 7C040000 		.4byte	.LASF62
 964 03a7 05       		.byte	0x5
 965 03a8 AF       		.byte	0xaf
 966 03a9 A2000000 		.4byte	0xa2
 967 03ad 14       		.byte	0x14
 968 03ae 0E       		.uleb128 0xe
 969 03af 77040000 		.4byte	.LASF63
ARM GAS  /tmp/ccRCTHg3.s 			page 18


 970 03b3 05       		.byte	0x5
 971 03b4 B1       		.byte	0xb1
 972 03b5 A2000000 		.4byte	0xa2
 973 03b9 18       		.byte	0x18
 974 03ba 00       		.byte	0
 975 03bb 04       		.uleb128 0x4
 976 03bc 38000000 		.4byte	.LASF64
 977 03c0 05       		.byte	0x5
 978 03c1 B2       		.byte	0xb2
 979 03c2 5E030000 		.4byte	0x35e
 980 03c6 0C       		.uleb128 0xc
 981 03c7 FC       		.byte	0xfc
 982 03c8 05       		.byte	0x5
 983 03c9 BB       		.byte	0xbb
 984 03ca 3B040000 		.4byte	0x43b
 985 03ce 0E       		.uleb128 0xe
 986 03cf 2E020000 		.4byte	.LASF65
 987 03d3 05       		.byte	0x5
 988 03d4 BE       		.byte	0xbe
 989 03d5 BB030000 		.4byte	0x3bb
 990 03d9 00       		.byte	0
 991 03da 0E       		.uleb128 0xe
 992 03db 72010000 		.4byte	.LASF66
 993 03df 05       		.byte	0x5
 994 03e0 C2       		.byte	0xc2
 995 03e1 BB030000 		.4byte	0x3bb
 996 03e5 1C       		.byte	0x1c
 997 03e6 0E       		.uleb128 0xe
 998 03e7 0A000000 		.4byte	.LASF67
 999 03eb 05       		.byte	0x5
 1000 03ec C6       		.byte	0xc6
 1001 03ed BB030000 		.4byte	0x3bb
 1002 03f1 38       		.byte	0x38
 1003 03f2 0E       		.uleb128 0xe
 1004 03f3 FF010000 		.4byte	.LASF68
 1005 03f7 05       		.byte	0x5
 1006 03f8 CA       		.byte	0xca
 1007 03f9 BB030000 		.4byte	0x3bb
 1008 03fd 54       		.byte	0x54
 1009 03fe 0E       		.uleb128 0xe
 1010 03ff 10040000 		.4byte	.LASF69
 1011 0403 05       		.byte	0x5
 1012 0404 CE       		.byte	0xce
 1013 0405 BB030000 		.4byte	0x3bb
 1014 0409 70       		.byte	0x70
 1015 040a 0E       		.uleb128 0xe
 1016 040b 4B000000 		.4byte	.LASF70
 1017 040f 05       		.byte	0x5
 1018 0410 D2       		.byte	0xd2
 1019 0411 BB030000 		.4byte	0x3bb
 1020 0415 8C       		.byte	0x8c
 1021 0416 0E       		.uleb128 0xe
 1022 0417 27020000 		.4byte	.LASF71
 1023 041b 05       		.byte	0x5
 1024 041c D6       		.byte	0xd6
 1025 041d BB030000 		.4byte	0x3bb
 1026 0421 A8       		.byte	0xa8
ARM GAS  /tmp/ccRCTHg3.s 			page 19


 1027 0422 0E       		.uleb128 0xe
 1028 0423 5D040000 		.4byte	.LASF72
 1029 0427 05       		.byte	0x5
 1030 0428 DA       		.byte	0xda
 1031 0429 BB030000 		.4byte	0x3bb
 1032 042d C4       		.byte	0xc4
 1033 042e 0E       		.uleb128 0xe
 1034 042f F7000000 		.4byte	.LASF73
 1035 0433 05       		.byte	0x5
 1036 0434 DE       		.byte	0xde
 1037 0435 BB030000 		.4byte	0x3bb
 1038 0439 E0       		.byte	0xe0
 1039 043a 00       		.byte	0
 1040 043b 04       		.uleb128 0x4
 1041 043c EC030000 		.4byte	.LASF74
 1042 0440 05       		.byte	0x5
 1043 0441 E0       		.byte	0xe0
 1044 0442 C6030000 		.4byte	0x3c6
 1045 0446 04       		.uleb128 0x4
 1046 0447 AE010000 		.4byte	.LASF75
 1047 044b 05       		.byte	0x5
 1048 044c F0       		.byte	0xf0
 1049 044d A2000000 		.4byte	0xa2
 1050 0451 04       		.uleb128 0x4
 1051 0452 93010000 		.4byte	.LASF76
 1052 0456 05       		.byte	0x5
 1053 0457 F5       		.byte	0xf5
 1054 0458 A2000000 		.4byte	0xa2
 1055 045c 04       		.uleb128 0x4
 1056 045d 35020000 		.4byte	.LASF77
 1057 0461 05       		.byte	0x5
 1058 0462 FD       		.byte	0xfd
 1059 0463 67040000 		.4byte	0x467
 1060 0467 11       		.uleb128 0x11
 1061 0468 04       		.byte	0x4
 1062 0469 53030000 		.4byte	0x353
 1063 046d 12       		.uleb128 0x12
 1064 046e E0000000 		.4byte	.LASF90
 1065 0472 01       		.byte	0x1
 1066 0473 5C       		.byte	0x5c
 1067 0474 01       		.byte	0x1
 1068 0475 90040000 		.4byte	0x490
 1069 0479 13       		.uleb128 0x13
 1070 047a 09010000 		.4byte	.LASF78
 1071 047e 01       		.byte	0x1
 1072 047f 5C       		.byte	0x5c
 1073 0480 67040000 		.4byte	0x467
 1074 0484 13       		.uleb128 0x13
 1075 0485 8C010000 		.4byte	.LASF79
 1076 0489 01       		.byte	0x1
 1077 048a 5C       		.byte	0x5c
 1078 048b 90040000 		.4byte	0x490
 1079 048f 00       		.byte	0
 1080 0490 11       		.uleb128 0x11
 1081 0491 04       		.byte	0x4
 1082 0492 96040000 		.4byte	0x496
 1083 0496 14       		.uleb128 0x14
ARM GAS  /tmp/ccRCTHg3.s 			page 20


 1084 0497 BB030000 		.4byte	0x3bb
 1085 049b 15       		.uleb128 0x15
 1086 049c 52000000 		.4byte	.LASF80
 1087 04a0 01       		.byte	0x1
 1088 04a1 77       		.byte	0x77
 1089 04a2 00000000 		.4byte	.LFB131
 1090 04a6 CC010000 		.4byte	.LFE131-.LFB131
 1091 04aa 01       		.uleb128 0x1
 1092 04ab 9C       		.byte	0x9c
 1093 04ac 14060000 		.4byte	0x614
 1094 04b0 16       		.uleb128 0x16
 1095 04b1 8C010000 		.4byte	.LASF79
 1096 04b5 01       		.byte	0x1
 1097 04b6 77       		.byte	0x77
 1098 04b7 14060000 		.4byte	0x614
 1099 04bb 01       		.uleb128 0x1
 1100 04bc 50       		.byte	0x50
 1101 04bd 17       		.uleb128 0x17
 1102 04be 6D040000 		.4byte	0x46d
 1103 04c2 08000000 		.4byte	.LBB20
 1104 04c6 00000000 		.4byte	.Ldebug_ranges0+0
 1105 04ca 01       		.byte	0x1
 1106 04cb 8C       		.byte	0x8c
 1107 04cc E1040000 		.4byte	0x4e1
 1108 04d0 18       		.uleb128 0x18
 1109 04d1 84040000 		.4byte	0x484
 1110 04d5 01       		.uleb128 0x1
 1111 04d6 50       		.byte	0x50
 1112 04d7 19       		.uleb128 0x19
 1113 04d8 79040000 		.4byte	0x479
 1114 04dc 00000240 		.4byte	0x40020000
 1115 04e0 00       		.byte	0
 1116 04e1 17       		.uleb128 0x17
 1117 04e2 6D040000 		.4byte	0x46d
 1118 04e6 10000000 		.4byte	.LBB23
 1119 04ea 18000000 		.4byte	.Ldebug_ranges0+0x18
 1120 04ee 01       		.byte	0x1
 1121 04ef 8F       		.byte	0x8f
 1122 04f0 07050000 		.4byte	0x507
 1123 04f4 18       		.uleb128 0x18
 1124 04f5 84040000 		.4byte	0x484
 1125 04f9 03       		.uleb128 0x3
 1126 04fa 70       		.byte	0x70
 1127 04fb 1C       		.sleb128 28
 1128 04fc 9F       		.byte	0x9f
 1129 04fd 19       		.uleb128 0x19
 1130 04fe 79040000 		.4byte	0x479
 1131 0502 00040240 		.4byte	0x40020400
 1132 0506 00       		.byte	0
 1133 0507 17       		.uleb128 0x17
 1134 0508 6D040000 		.4byte	0x46d
 1135 050c 14000000 		.4byte	.LBB26
 1136 0510 30000000 		.4byte	.Ldebug_ranges0+0x30
 1137 0514 01       		.byte	0x1
 1138 0515 92       		.byte	0x92
 1139 0516 2D050000 		.4byte	0x52d
 1140 051a 18       		.uleb128 0x18
ARM GAS  /tmp/ccRCTHg3.s 			page 21


 1141 051b 84040000 		.4byte	0x484
 1142 051f 03       		.uleb128 0x3
 1143 0520 70       		.byte	0x70
 1144 0521 38       		.sleb128 56
 1145 0522 9F       		.byte	0x9f
 1146 0523 19       		.uleb128 0x19
 1147 0524 79040000 		.4byte	0x479
 1148 0528 00080240 		.4byte	0x40020800
 1149 052c 00       		.byte	0
 1150 052d 17       		.uleb128 0x17
 1151 052e 6D040000 		.4byte	0x46d
 1152 0532 16000000 		.4byte	.LBB29
 1153 0536 48000000 		.4byte	.Ldebug_ranges0+0x48
 1154 053a 01       		.byte	0x1
 1155 053b 95       		.byte	0x95
 1156 053c 54050000 		.4byte	0x554
 1157 0540 18       		.uleb128 0x18
 1158 0541 84040000 		.4byte	0x484
 1159 0545 04       		.uleb128 0x4
 1160 0546 70       		.byte	0x70
 1161 0547 D400     		.sleb128 84
 1162 0549 9F       		.byte	0x9f
 1163 054a 19       		.uleb128 0x19
 1164 054b 79040000 		.4byte	0x479
 1165 054f 000C0240 		.4byte	0x40020c00
 1166 0553 00       		.byte	0
 1167 0554 17       		.uleb128 0x17
 1168 0555 6D040000 		.4byte	0x46d
 1169 0559 18000000 		.4byte	.LBB32
 1170 055d 60000000 		.4byte	.Ldebug_ranges0+0x60
 1171 0561 01       		.byte	0x1
 1172 0562 98       		.byte	0x98
 1173 0563 7B050000 		.4byte	0x57b
 1174 0567 18       		.uleb128 0x18
 1175 0568 84040000 		.4byte	0x484
 1176 056c 04       		.uleb128 0x4
 1177 056d 70       		.byte	0x70
 1178 056e F000     		.sleb128 112
 1179 0570 9F       		.byte	0x9f
 1180 0571 19       		.uleb128 0x19
 1181 0572 79040000 		.4byte	0x479
 1182 0576 00100240 		.4byte	0x40021000
 1183 057a 00       		.byte	0
 1184 057b 17       		.uleb128 0x17
 1185 057c 6D040000 		.4byte	0x46d
 1186 0580 1A000000 		.4byte	.LBB35
 1187 0584 78000000 		.4byte	.Ldebug_ranges0+0x78
 1188 0588 01       		.byte	0x1
 1189 0589 9B       		.byte	0x9b
 1190 058a A2050000 		.4byte	0x5a2
 1191 058e 18       		.uleb128 0x18
 1192 058f 84040000 		.4byte	0x484
 1193 0593 04       		.uleb128 0x4
 1194 0594 70       		.byte	0x70
 1195 0595 8C01     		.sleb128 140
 1196 0597 9F       		.byte	0x9f
 1197 0598 19       		.uleb128 0x19
ARM GAS  /tmp/ccRCTHg3.s 			page 22


 1198 0599 79040000 		.4byte	0x479
 1199 059d 00140240 		.4byte	0x40021400
 1200 05a1 00       		.byte	0
 1201 05a2 17       		.uleb128 0x17
 1202 05a3 6D040000 		.4byte	0x46d
 1203 05a7 1C000000 		.4byte	.LBB38
 1204 05ab 90000000 		.4byte	.Ldebug_ranges0+0x90
 1205 05af 01       		.byte	0x1
 1206 05b0 9E       		.byte	0x9e
 1207 05b1 C9050000 		.4byte	0x5c9
 1208 05b5 18       		.uleb128 0x18
 1209 05b6 84040000 		.4byte	0x484
 1210 05ba 04       		.uleb128 0x4
 1211 05bb 70       		.byte	0x70
 1212 05bc A801     		.sleb128 168
 1213 05be 9F       		.byte	0x9f
 1214 05bf 19       		.uleb128 0x19
 1215 05c0 79040000 		.4byte	0x479
 1216 05c4 00180240 		.4byte	0x40021800
 1217 05c8 00       		.byte	0
 1218 05c9 17       		.uleb128 0x17
 1219 05ca 6D040000 		.4byte	0x46d
 1220 05ce 1E000000 		.4byte	.LBB41
 1221 05d2 A8000000 		.4byte	.Ldebug_ranges0+0xa8
 1222 05d6 01       		.byte	0x1
 1223 05d7 A1       		.byte	0xa1
 1224 05d8 F0050000 		.4byte	0x5f0
 1225 05dc 18       		.uleb128 0x18
 1226 05dd 84040000 		.4byte	0x484
 1227 05e1 04       		.uleb128 0x4
 1228 05e2 70       		.byte	0x70
 1229 05e3 C401     		.sleb128 196
 1230 05e5 9F       		.byte	0x9f
 1231 05e6 19       		.uleb128 0x19
 1232 05e7 79040000 		.4byte	0x479
 1233 05eb 001C0240 		.4byte	0x40021c00
 1234 05ef 00       		.byte	0
 1235 05f0 1A       		.uleb128 0x1a
 1236 05f1 6D040000 		.4byte	0x46d
 1237 05f5 20000000 		.4byte	.LBB44
 1238 05f9 C0000000 		.4byte	.Ldebug_ranges0+0xc0
 1239 05fd 01       		.byte	0x1
 1240 05fe A4       		.byte	0xa4
 1241 05ff 18       		.uleb128 0x18
 1242 0600 84040000 		.4byte	0x484
 1243 0604 04       		.uleb128 0x4
 1244 0605 70       		.byte	0x70
 1245 0606 E001     		.sleb128 224
 1246 0608 9F       		.byte	0x9f
 1247 0609 19       		.uleb128 0x19
 1248 060a 79040000 		.4byte	0x479
 1249 060e 00200240 		.4byte	0x40022000
 1250 0612 00       		.byte	0
 1251 0613 00       		.byte	0
 1252 0614 11       		.uleb128 0x11
 1253 0615 04       		.byte	0x4
 1254 0616 1A060000 		.4byte	0x61a
ARM GAS  /tmp/ccRCTHg3.s 			page 23


 1255 061a 14       		.uleb128 0x14
 1256 061b 3B040000 		.4byte	0x43b
 1257 061f 15       		.uleb128 0x15
 1258 0620 11000000 		.4byte	.LASF81
 1259 0624 01       		.byte	0x1
 1260 0625 B6       		.byte	0xb6
 1261 0626 D0010000 		.4byte	.LFB132
 1262 062a AC000000 		.4byte	.LFE132-.LFB132
 1263 062e 01       		.uleb128 0x1
 1264 062f 9C       		.byte	0x9c
 1265 0630 EF060000 		.4byte	0x6ef
 1266 0634 16       		.uleb128 0x16
 1267 0635 0B040000 		.4byte	.LASF82
 1268 0639 01       		.byte	0x1
 1269 063a B6       		.byte	0xb6
 1270 063b 5C040000 		.4byte	0x45c
 1271 063f 01       		.uleb128 0x1
 1272 0640 50       		.byte	0x50
 1273 0641 1B       		.uleb128 0x1b
 1274 0642 6C040000 		.4byte	.LASF83
 1275 0646 01       		.byte	0x1
 1276 0647 B7       		.byte	0xb7
 1277 0648 46040000 		.4byte	0x446
 1278 064c 00000000 		.4byte	.LLST0
 1279 0650 1B       		.uleb128 0x1b
 1280 0651 FC030000 		.4byte	.LASF84
 1281 0655 01       		.byte	0x1
 1282 0656 B8       		.byte	0xb8
 1283 0657 51040000 		.4byte	0x451
 1284 065b 2D000000 		.4byte	.LLST1
 1285 065f 1C       		.uleb128 0x1c
 1286 0660 81040000 		.4byte	.LASF58
 1287 0664 01       		.byte	0x1
 1288 0665 BA       		.byte	0xba
 1289 0666 A2000000 		.4byte	0xa2
 1290 066a 01       		.uleb128 0x1
 1291 066b 5E       		.byte	0x5e
 1292 066c 1C       		.uleb128 0x1c
 1293 066d 82020000 		.4byte	.LASF59
 1294 0671 01       		.byte	0x1
 1295 0672 BB       		.byte	0xbb
 1296 0673 A2000000 		.4byte	0xa2
 1297 0677 01       		.uleb128 0x1
 1298 0678 57       		.byte	0x57
 1299 0679 1C       		.uleb128 0x1c
 1300 067a EE010000 		.4byte	.LASF60
 1301 067e 01       		.byte	0x1
 1302 067f BC       		.byte	0xbc
 1303 0680 A2000000 		.4byte	0xa2
 1304 0684 01       		.uleb128 0x1
 1305 0685 56       		.byte	0x56
 1306 0686 1C       		.uleb128 0x1c
 1307 0687 71040000 		.4byte	.LASF61
 1308 068b 01       		.byte	0x1
 1309 068c BD       		.byte	0xbd
 1310 068d A2000000 		.4byte	0xa2
 1311 0691 01       		.uleb128 0x1
ARM GAS  /tmp/ccRCTHg3.s 			page 24


 1312 0692 55       		.byte	0x55
 1313 0693 1C       		.uleb128 0x1c
 1314 0694 9D040000 		.4byte	.LASF85
 1315 0698 01       		.byte	0x1
 1316 0699 BE       		.byte	0xbe
 1317 069a A2000000 		.4byte	0xa2
 1318 069e 01       		.uleb128 0x1
 1319 069f 52       		.byte	0x52
 1320 06a0 1D       		.uleb128 0x1d
 1321 06a1 62697400 		.ascii	"bit\000"
 1322 06a5 01       		.byte	0x1
 1323 06a6 BF       		.byte	0xbf
 1324 06a7 A2000000 		.4byte	0xa2
 1325 06ab 4E000000 		.4byte	.LLST2
 1326 06af 1E       		.uleb128 0x1e
 1327 06b0 D8000000 		.4byte	.Ldebug_ranges0+0xd8
 1328 06b4 1F       		.uleb128 0x1f
 1329 06b5 AF040000 		.4byte	.LASF86
 1330 06b9 01       		.byte	0x1
 1331 06ba C2       		.byte	0xc2
 1332 06bb A2000000 		.4byte	0xa2
 1333 06bf 6D000000 		.4byte	.LLST3
 1334 06c3 1D       		.uleb128 0x1d
 1335 06c4 6D3100   		.ascii	"m1\000"
 1336 06c7 01       		.byte	0x1
 1337 06c8 C2       		.byte	0xc2
 1338 06c9 A2000000 		.4byte	0xa2
 1339 06cd B3000000 		.4byte	.LLST4
 1340 06d1 1D       		.uleb128 0x1d
 1341 06d2 6D3200   		.ascii	"m2\000"
 1342 06d5 01       		.byte	0x1
 1343 06d6 C2       		.byte	0xc2
 1344 06d7 A2000000 		.4byte	0xa2
 1345 06db CA000000 		.4byte	.LLST5
 1346 06df 1D       		.uleb128 0x1d
 1347 06e0 6D3400   		.ascii	"m4\000"
 1348 06e3 01       		.byte	0x1
 1349 06e4 C2       		.byte	0xc2
 1350 06e5 A2000000 		.4byte	0xa2
 1351 06e9 E3000000 		.4byte	.LLST6
 1352 06ed 00       		.byte	0
 1353 06ee 00       		.byte	0
 1354 06ef 20       		.uleb128 0x20
 1355 06f0 A2040000 		.4byte	.LASF91
 1356 06f4 06       		.byte	0x6
 1357 06f5 DF07     		.2byte	0x7df
 1358 06f7 D7000000 		.4byte	0xd7
 1359 06fb 00       		.byte	0
 1360              		.section	.debug_abbrev,"",%progbits
 1361              	.Ldebug_abbrev0:
 1362 0000 01       		.uleb128 0x1
 1363 0001 11       		.uleb128 0x11
 1364 0002 01       		.byte	0x1
 1365 0003 25       		.uleb128 0x25
 1366 0004 0E       		.uleb128 0xe
 1367 0005 13       		.uleb128 0x13
 1368 0006 0B       		.uleb128 0xb
ARM GAS  /tmp/ccRCTHg3.s 			page 25


 1369 0007 03       		.uleb128 0x3
 1370 0008 0E       		.uleb128 0xe
 1371 0009 1B       		.uleb128 0x1b
 1372 000a 0E       		.uleb128 0xe
 1373 000b 11       		.uleb128 0x11
 1374 000c 01       		.uleb128 0x1
 1375 000d 12       		.uleb128 0x12
 1376 000e 06       		.uleb128 0x6
 1377 000f 10       		.uleb128 0x10
 1378 0010 17       		.uleb128 0x17
 1379 0011 00       		.byte	0
 1380 0012 00       		.byte	0
 1381 0013 02       		.uleb128 0x2
 1382 0014 24       		.uleb128 0x24
 1383 0015 00       		.byte	0
 1384 0016 0B       		.uleb128 0xb
 1385 0017 0B       		.uleb128 0xb
 1386 0018 3E       		.uleb128 0x3e
 1387 0019 0B       		.uleb128 0xb
 1388 001a 03       		.uleb128 0x3
 1389 001b 08       		.uleb128 0x8
 1390 001c 00       		.byte	0
 1391 001d 00       		.byte	0
 1392 001e 03       		.uleb128 0x3
 1393 001f 24       		.uleb128 0x24
 1394 0020 00       		.byte	0
 1395 0021 0B       		.uleb128 0xb
 1396 0022 0B       		.uleb128 0xb
 1397 0023 3E       		.uleb128 0x3e
 1398 0024 0B       		.uleb128 0xb
 1399 0025 03       		.uleb128 0x3
 1400 0026 0E       		.uleb128 0xe
 1401 0027 00       		.byte	0
 1402 0028 00       		.byte	0
 1403 0029 04       		.uleb128 0x4
 1404 002a 16       		.uleb128 0x16
 1405 002b 00       		.byte	0
 1406 002c 03       		.uleb128 0x3
 1407 002d 0E       		.uleb128 0xe
 1408 002e 3A       		.uleb128 0x3a
 1409 002f 0B       		.uleb128 0xb
 1410 0030 3B       		.uleb128 0x3b
 1411 0031 0B       		.uleb128 0xb
 1412 0032 49       		.uleb128 0x49
 1413 0033 13       		.uleb128 0x13
 1414 0034 00       		.byte	0
 1415 0035 00       		.byte	0
 1416 0036 05       		.uleb128 0x5
 1417 0037 35       		.uleb128 0x35
 1418 0038 00       		.byte	0
 1419 0039 49       		.uleb128 0x49
 1420 003a 13       		.uleb128 0x13
 1421 003b 00       		.byte	0
 1422 003c 00       		.byte	0
 1423 003d 06       		.uleb128 0x6
 1424 003e 01       		.uleb128 0x1
 1425 003f 01       		.byte	0x1
ARM GAS  /tmp/ccRCTHg3.s 			page 26


 1426 0040 49       		.uleb128 0x49
 1427 0041 13       		.uleb128 0x13
 1428 0042 01       		.uleb128 0x1
 1429 0043 13       		.uleb128 0x13
 1430 0044 00       		.byte	0
 1431 0045 00       		.byte	0
 1432 0046 07       		.uleb128 0x7
 1433 0047 21       		.uleb128 0x21
 1434 0048 00       		.byte	0
 1435 0049 49       		.uleb128 0x49
 1436 004a 13       		.uleb128 0x13
 1437 004b 2F       		.uleb128 0x2f
 1438 004c 0B       		.uleb128 0xb
 1439 004d 00       		.byte	0
 1440 004e 00       		.byte	0
 1441 004f 08       		.uleb128 0x8
 1442 0050 13       		.uleb128 0x13
 1443 0051 01       		.byte	0x1
 1444 0052 0B       		.uleb128 0xb
 1445 0053 0B       		.uleb128 0xb
 1446 0054 3A       		.uleb128 0x3a
 1447 0055 0B       		.uleb128 0xb
 1448 0056 3B       		.uleb128 0x3b
 1449 0057 05       		.uleb128 0x5
 1450 0058 01       		.uleb128 0x1
 1451 0059 13       		.uleb128 0x13
 1452 005a 00       		.byte	0
 1453 005b 00       		.byte	0
 1454 005c 09       		.uleb128 0x9
 1455 005d 0D       		.uleb128 0xd
 1456 005e 00       		.byte	0
 1457 005f 03       		.uleb128 0x3
 1458 0060 08       		.uleb128 0x8
 1459 0061 3A       		.uleb128 0x3a
 1460 0062 0B       		.uleb128 0xb
 1461 0063 3B       		.uleb128 0x3b
 1462 0064 05       		.uleb128 0x5
 1463 0065 49       		.uleb128 0x49
 1464 0066 13       		.uleb128 0x13
 1465 0067 38       		.uleb128 0x38
 1466 0068 0B       		.uleb128 0xb
 1467 0069 00       		.byte	0
 1468 006a 00       		.byte	0
 1469 006b 0A       		.uleb128 0xa
 1470 006c 0D       		.uleb128 0xd
 1471 006d 00       		.byte	0
 1472 006e 03       		.uleb128 0x3
 1473 006f 0E       		.uleb128 0xe
 1474 0070 3A       		.uleb128 0x3a
 1475 0071 0B       		.uleb128 0xb
 1476 0072 3B       		.uleb128 0x3b
 1477 0073 05       		.uleb128 0x5
 1478 0074 49       		.uleb128 0x49
 1479 0075 13       		.uleb128 0x13
 1480 0076 38       		.uleb128 0x38
 1481 0077 0B       		.uleb128 0xb
 1482 0078 00       		.byte	0
ARM GAS  /tmp/ccRCTHg3.s 			page 27


 1483 0079 00       		.byte	0
 1484 007a 0B       		.uleb128 0xb
 1485 007b 16       		.uleb128 0x16
 1486 007c 00       		.byte	0
 1487 007d 03       		.uleb128 0x3
 1488 007e 0E       		.uleb128 0xe
 1489 007f 3A       		.uleb128 0x3a
 1490 0080 0B       		.uleb128 0xb
 1491 0081 3B       		.uleb128 0x3b
 1492 0082 05       		.uleb128 0x5
 1493 0083 49       		.uleb128 0x49
 1494 0084 13       		.uleb128 0x13
 1495 0085 00       		.byte	0
 1496 0086 00       		.byte	0
 1497 0087 0C       		.uleb128 0xc
 1498 0088 13       		.uleb128 0x13
 1499 0089 01       		.byte	0x1
 1500 008a 0B       		.uleb128 0xb
 1501 008b 0B       		.uleb128 0xb
 1502 008c 3A       		.uleb128 0x3a
 1503 008d 0B       		.uleb128 0xb
 1504 008e 3B       		.uleb128 0x3b
 1505 008f 0B       		.uleb128 0xb
 1506 0090 01       		.uleb128 0x1
 1507 0091 13       		.uleb128 0x13
 1508 0092 00       		.byte	0
 1509 0093 00       		.byte	0
 1510 0094 0D       		.uleb128 0xd
 1511 0095 0D       		.uleb128 0xd
 1512 0096 00       		.byte	0
 1513 0097 03       		.uleb128 0x3
 1514 0098 08       		.uleb128 0x8
 1515 0099 3A       		.uleb128 0x3a
 1516 009a 0B       		.uleb128 0xb
 1517 009b 3B       		.uleb128 0x3b
 1518 009c 0B       		.uleb128 0xb
 1519 009d 49       		.uleb128 0x49
 1520 009e 13       		.uleb128 0x13
 1521 009f 38       		.uleb128 0x38
 1522 00a0 0B       		.uleb128 0xb
 1523 00a1 00       		.byte	0
 1524 00a2 00       		.byte	0
 1525 00a3 0E       		.uleb128 0xe
 1526 00a4 0D       		.uleb128 0xd
 1527 00a5 00       		.byte	0
 1528 00a6 03       		.uleb128 0x3
 1529 00a7 0E       		.uleb128 0xe
 1530 00a8 3A       		.uleb128 0x3a
 1531 00a9 0B       		.uleb128 0xb
 1532 00aa 3B       		.uleb128 0x3b
 1533 00ab 0B       		.uleb128 0xb
 1534 00ac 49       		.uleb128 0x49
 1535 00ad 13       		.uleb128 0x13
 1536 00ae 38       		.uleb128 0x38
 1537 00af 0B       		.uleb128 0xb
 1538 00b0 00       		.byte	0
 1539 00b1 00       		.byte	0
ARM GAS  /tmp/ccRCTHg3.s 			page 28


 1540 00b2 0F       		.uleb128 0xf
 1541 00b3 17       		.uleb128 0x17
 1542 00b4 01       		.byte	0x1
 1543 00b5 0B       		.uleb128 0xb
 1544 00b6 0B       		.uleb128 0xb
 1545 00b7 3A       		.uleb128 0x3a
 1546 00b8 0B       		.uleb128 0xb
 1547 00b9 3B       		.uleb128 0x3b
 1548 00ba 0B       		.uleb128 0xb
 1549 00bb 01       		.uleb128 0x1
 1550 00bc 13       		.uleb128 0x13
 1551 00bd 00       		.byte	0
 1552 00be 00       		.byte	0
 1553 00bf 10       		.uleb128 0x10
 1554 00c0 0D       		.uleb128 0xd
 1555 00c1 00       		.byte	0
 1556 00c2 03       		.uleb128 0x3
 1557 00c3 08       		.uleb128 0x8
 1558 00c4 3A       		.uleb128 0x3a
 1559 00c5 0B       		.uleb128 0xb
 1560 00c6 3B       		.uleb128 0x3b
 1561 00c7 0B       		.uleb128 0xb
 1562 00c8 49       		.uleb128 0x49
 1563 00c9 13       		.uleb128 0x13
 1564 00ca 00       		.byte	0
 1565 00cb 00       		.byte	0
 1566 00cc 11       		.uleb128 0x11
 1567 00cd 0F       		.uleb128 0xf
 1568 00ce 00       		.byte	0
 1569 00cf 0B       		.uleb128 0xb
 1570 00d0 0B       		.uleb128 0xb
 1571 00d1 49       		.uleb128 0x49
 1572 00d2 13       		.uleb128 0x13
 1573 00d3 00       		.byte	0
 1574 00d4 00       		.byte	0
 1575 00d5 12       		.uleb128 0x12
 1576 00d6 2E       		.uleb128 0x2e
 1577 00d7 01       		.byte	0x1
 1578 00d8 03       		.uleb128 0x3
 1579 00d9 0E       		.uleb128 0xe
 1580 00da 3A       		.uleb128 0x3a
 1581 00db 0B       		.uleb128 0xb
 1582 00dc 3B       		.uleb128 0x3b
 1583 00dd 0B       		.uleb128 0xb
 1584 00de 27       		.uleb128 0x27
 1585 00df 19       		.uleb128 0x19
 1586 00e0 20       		.uleb128 0x20
 1587 00e1 0B       		.uleb128 0xb
 1588 00e2 01       		.uleb128 0x1
 1589 00e3 13       		.uleb128 0x13
 1590 00e4 00       		.byte	0
 1591 00e5 00       		.byte	0
 1592 00e6 13       		.uleb128 0x13
 1593 00e7 05       		.uleb128 0x5
 1594 00e8 00       		.byte	0
 1595 00e9 03       		.uleb128 0x3
 1596 00ea 0E       		.uleb128 0xe
ARM GAS  /tmp/ccRCTHg3.s 			page 29


 1597 00eb 3A       		.uleb128 0x3a
 1598 00ec 0B       		.uleb128 0xb
 1599 00ed 3B       		.uleb128 0x3b
 1600 00ee 0B       		.uleb128 0xb
 1601 00ef 49       		.uleb128 0x49
 1602 00f0 13       		.uleb128 0x13
 1603 00f1 00       		.byte	0
 1604 00f2 00       		.byte	0
 1605 00f3 14       		.uleb128 0x14
 1606 00f4 26       		.uleb128 0x26
 1607 00f5 00       		.byte	0
 1608 00f6 49       		.uleb128 0x49
 1609 00f7 13       		.uleb128 0x13
 1610 00f8 00       		.byte	0
 1611 00f9 00       		.byte	0
 1612 00fa 15       		.uleb128 0x15
 1613 00fb 2E       		.uleb128 0x2e
 1614 00fc 01       		.byte	0x1
 1615 00fd 3F       		.uleb128 0x3f
 1616 00fe 19       		.uleb128 0x19
 1617 00ff 03       		.uleb128 0x3
 1618 0100 0E       		.uleb128 0xe
 1619 0101 3A       		.uleb128 0x3a
 1620 0102 0B       		.uleb128 0xb
 1621 0103 3B       		.uleb128 0x3b
 1622 0104 0B       		.uleb128 0xb
 1623 0105 27       		.uleb128 0x27
 1624 0106 19       		.uleb128 0x19
 1625 0107 11       		.uleb128 0x11
 1626 0108 01       		.uleb128 0x1
 1627 0109 12       		.uleb128 0x12
 1628 010a 06       		.uleb128 0x6
 1629 010b 40       		.uleb128 0x40
 1630 010c 18       		.uleb128 0x18
 1631 010d 9742     		.uleb128 0x2117
 1632 010f 19       		.uleb128 0x19
 1633 0110 01       		.uleb128 0x1
 1634 0111 13       		.uleb128 0x13
 1635 0112 00       		.byte	0
 1636 0113 00       		.byte	0
 1637 0114 16       		.uleb128 0x16
 1638 0115 05       		.uleb128 0x5
 1639 0116 00       		.byte	0
 1640 0117 03       		.uleb128 0x3
 1641 0118 0E       		.uleb128 0xe
 1642 0119 3A       		.uleb128 0x3a
 1643 011a 0B       		.uleb128 0xb
 1644 011b 3B       		.uleb128 0x3b
 1645 011c 0B       		.uleb128 0xb
 1646 011d 49       		.uleb128 0x49
 1647 011e 13       		.uleb128 0x13
 1648 011f 02       		.uleb128 0x2
 1649 0120 18       		.uleb128 0x18
 1650 0121 00       		.byte	0
 1651 0122 00       		.byte	0
 1652 0123 17       		.uleb128 0x17
 1653 0124 1D       		.uleb128 0x1d
ARM GAS  /tmp/ccRCTHg3.s 			page 30


 1654 0125 01       		.byte	0x1
 1655 0126 31       		.uleb128 0x31
 1656 0127 13       		.uleb128 0x13
 1657 0128 52       		.uleb128 0x52
 1658 0129 01       		.uleb128 0x1
 1659 012a 55       		.uleb128 0x55
 1660 012b 17       		.uleb128 0x17
 1661 012c 58       		.uleb128 0x58
 1662 012d 0B       		.uleb128 0xb
 1663 012e 59       		.uleb128 0x59
 1664 012f 0B       		.uleb128 0xb
 1665 0130 01       		.uleb128 0x1
 1666 0131 13       		.uleb128 0x13
 1667 0132 00       		.byte	0
 1668 0133 00       		.byte	0
 1669 0134 18       		.uleb128 0x18
 1670 0135 05       		.uleb128 0x5
 1671 0136 00       		.byte	0
 1672 0137 31       		.uleb128 0x31
 1673 0138 13       		.uleb128 0x13
 1674 0139 02       		.uleb128 0x2
 1675 013a 18       		.uleb128 0x18
 1676 013b 00       		.byte	0
 1677 013c 00       		.byte	0
 1678 013d 19       		.uleb128 0x19
 1679 013e 05       		.uleb128 0x5
 1680 013f 00       		.byte	0
 1681 0140 31       		.uleb128 0x31
 1682 0141 13       		.uleb128 0x13
 1683 0142 1C       		.uleb128 0x1c
 1684 0143 06       		.uleb128 0x6
 1685 0144 00       		.byte	0
 1686 0145 00       		.byte	0
 1687 0146 1A       		.uleb128 0x1a
 1688 0147 1D       		.uleb128 0x1d
 1689 0148 01       		.byte	0x1
 1690 0149 31       		.uleb128 0x31
 1691 014a 13       		.uleb128 0x13
 1692 014b 52       		.uleb128 0x52
 1693 014c 01       		.uleb128 0x1
 1694 014d 55       		.uleb128 0x55
 1695 014e 17       		.uleb128 0x17
 1696 014f 58       		.uleb128 0x58
 1697 0150 0B       		.uleb128 0xb
 1698 0151 59       		.uleb128 0x59
 1699 0152 0B       		.uleb128 0xb
 1700 0153 00       		.byte	0
 1701 0154 00       		.byte	0
 1702 0155 1B       		.uleb128 0x1b
 1703 0156 05       		.uleb128 0x5
 1704 0157 00       		.byte	0
 1705 0158 03       		.uleb128 0x3
 1706 0159 0E       		.uleb128 0xe
 1707 015a 3A       		.uleb128 0x3a
 1708 015b 0B       		.uleb128 0xb
 1709 015c 3B       		.uleb128 0x3b
 1710 015d 0B       		.uleb128 0xb
ARM GAS  /tmp/ccRCTHg3.s 			page 31


 1711 015e 49       		.uleb128 0x49
 1712 015f 13       		.uleb128 0x13
 1713 0160 02       		.uleb128 0x2
 1714 0161 17       		.uleb128 0x17
 1715 0162 00       		.byte	0
 1716 0163 00       		.byte	0
 1717 0164 1C       		.uleb128 0x1c
 1718 0165 34       		.uleb128 0x34
 1719 0166 00       		.byte	0
 1720 0167 03       		.uleb128 0x3
 1721 0168 0E       		.uleb128 0xe
 1722 0169 3A       		.uleb128 0x3a
 1723 016a 0B       		.uleb128 0xb
 1724 016b 3B       		.uleb128 0x3b
 1725 016c 0B       		.uleb128 0xb
 1726 016d 49       		.uleb128 0x49
 1727 016e 13       		.uleb128 0x13
 1728 016f 02       		.uleb128 0x2
 1729 0170 18       		.uleb128 0x18
 1730 0171 00       		.byte	0
 1731 0172 00       		.byte	0
 1732 0173 1D       		.uleb128 0x1d
 1733 0174 34       		.uleb128 0x34
 1734 0175 00       		.byte	0
 1735 0176 03       		.uleb128 0x3
 1736 0177 08       		.uleb128 0x8
 1737 0178 3A       		.uleb128 0x3a
 1738 0179 0B       		.uleb128 0xb
 1739 017a 3B       		.uleb128 0x3b
 1740 017b 0B       		.uleb128 0xb
 1741 017c 49       		.uleb128 0x49
 1742 017d 13       		.uleb128 0x13
 1743 017e 02       		.uleb128 0x2
 1744 017f 17       		.uleb128 0x17
 1745 0180 00       		.byte	0
 1746 0181 00       		.byte	0
 1747 0182 1E       		.uleb128 0x1e
 1748 0183 0B       		.uleb128 0xb
 1749 0184 01       		.byte	0x1
 1750 0185 55       		.uleb128 0x55
 1751 0186 17       		.uleb128 0x17
 1752 0187 00       		.byte	0
 1753 0188 00       		.byte	0
 1754 0189 1F       		.uleb128 0x1f
 1755 018a 34       		.uleb128 0x34
 1756 018b 00       		.byte	0
 1757 018c 03       		.uleb128 0x3
 1758 018d 0E       		.uleb128 0xe
 1759 018e 3A       		.uleb128 0x3a
 1760 018f 0B       		.uleb128 0xb
 1761 0190 3B       		.uleb128 0x3b
 1762 0191 0B       		.uleb128 0xb
 1763 0192 49       		.uleb128 0x49
 1764 0193 13       		.uleb128 0x13
 1765 0194 02       		.uleb128 0x2
 1766 0195 17       		.uleb128 0x17
 1767 0196 00       		.byte	0
ARM GAS  /tmp/ccRCTHg3.s 			page 32


 1768 0197 00       		.byte	0
 1769 0198 20       		.uleb128 0x20
 1770 0199 34       		.uleb128 0x34
 1771 019a 00       		.byte	0
 1772 019b 03       		.uleb128 0x3
 1773 019c 0E       		.uleb128 0xe
 1774 019d 3A       		.uleb128 0x3a
 1775 019e 0B       		.uleb128 0xb
 1776 019f 3B       		.uleb128 0x3b
 1777 01a0 05       		.uleb128 0x5
 1778 01a1 49       		.uleb128 0x49
 1779 01a2 13       		.uleb128 0x13
 1780 01a3 3F       		.uleb128 0x3f
 1781 01a4 19       		.uleb128 0x19
 1782 01a5 3C       		.uleb128 0x3c
 1783 01a6 19       		.uleb128 0x19
 1784 01a7 00       		.byte	0
 1785 01a8 00       		.byte	0
 1786 01a9 00       		.byte	0
 1787              		.section	.debug_loc,"",%progbits
 1788              	.Ldebug_loc0:
 1789              	.LLST0:
 1790 0000 D0010000 		.4byte	.LVL10-.Ltext0
 1791 0004 40020000 		.4byte	.LVL21-.Ltext0
 1792 0008 0100     		.2byte	0x1
 1793 000a 51       		.byte	0x51
 1794 000b 40020000 		.4byte	.LVL21-.Ltext0
 1795 000f 42020000 		.4byte	.LVL22-.Ltext0
 1796 0013 0500     		.2byte	0x5
 1797 0015 71       		.byte	0x71
 1798 0016 00       		.sleb128 0
 1799 0017 31       		.byte	0x31
 1800 0018 25       		.byte	0x25
 1801 0019 9F       		.byte	0x9f
 1802 001a 42020000 		.4byte	.LVL22-.Ltext0
 1803 001e 7C020000 		.4byte	.LFE132-.Ltext0
 1804 0022 0100     		.2byte	0x1
 1805 0024 51       		.byte	0x51
 1806 0025 00000000 		.4byte	0
 1807 0029 00000000 		.4byte	0
 1808              	.LLST1:
 1809 002d D0010000 		.4byte	.LVL10-.Ltext0
 1810 0031 EE010000 		.4byte	.LVL15-.Ltext0
 1811 0035 0100     		.2byte	0x1
 1812 0037 52       		.byte	0x52
 1813 0038 EE010000 		.4byte	.LVL15-.Ltext0
 1814 003c 7C020000 		.4byte	.LFE132-.Ltext0
 1815 0040 0400     		.2byte	0x4
 1816 0042 F3       		.byte	0xf3
 1817 0043 01       		.uleb128 0x1
 1818 0044 52       		.byte	0x52
 1819 0045 9F       		.byte	0x9f
 1820 0046 00000000 		.4byte	0
 1821 004a 00000000 		.4byte	0
 1822              	.LLST2:
 1823 004e EE010000 		.4byte	.LVL15-.Ltext0
 1824 0052 F8010000 		.4byte	.LVL16-.Ltext0
ARM GAS  /tmp/ccRCTHg3.s 			page 33


 1825 0056 0200     		.2byte	0x2
 1826 0058 30       		.byte	0x30
 1827 0059 9F       		.byte	0x9f
 1828 005a F8010000 		.4byte	.LVL16-.Ltext0
 1829 005e 7C020000 		.4byte	.LFE132-.Ltext0
 1830 0062 0100     		.2byte	0x1
 1831 0064 54       		.byte	0x54
 1832 0065 00000000 		.4byte	0
 1833 0069 00000000 		.4byte	0
 1834              	.LLST3:
 1835 006d F8010000 		.4byte	.LVL16-.Ltext0
 1836 0071 0C020000 		.4byte	.LVL19-.Ltext0
 1837 0075 0100     		.2byte	0x1
 1838 0077 5A       		.byte	0x5a
 1839 0078 0C020000 		.4byte	.LVL19-.Ltext0
 1840 007c 50020000 		.4byte	.LVL27-.Ltext0
 1841 0080 0A00     		.2byte	0xa
 1842 0082 72       		.byte	0x72
 1843 0083 00       		.sleb128 0
 1844 0084 74       		.byte	0x74
 1845 0085 00       		.sleb128 0
 1846 0086 37       		.byte	0x37
 1847 0087 1A       		.byte	0x1a
 1848 0088 32       		.byte	0x32
 1849 0089 24       		.byte	0x24
 1850 008a 24       		.byte	0x24
 1851 008b 9F       		.byte	0x9f
 1852 008c 5E020000 		.4byte	.LVL28-.Ltext0
 1853 0090 78020000 		.4byte	.LVL31-.Ltext0
 1854 0094 0100     		.2byte	0x1
 1855 0096 5A       		.byte	0x5a
 1856 0097 78020000 		.4byte	.LVL31-.Ltext0
 1857 009b 7C020000 		.4byte	.LFE132-.Ltext0
 1858 009f 0A00     		.2byte	0xa
 1859 00a1 72       		.byte	0x72
 1860 00a2 00       		.sleb128 0
 1861 00a3 74       		.byte	0x74
 1862 00a4 00       		.sleb128 0
 1863 00a5 37       		.byte	0x37
 1864 00a6 1A       		.byte	0x1a
 1865 00a7 32       		.byte	0x32
 1866 00a8 24       		.byte	0x24
 1867 00a9 24       		.byte	0x24
 1868 00aa 9F       		.byte	0x9f
 1869 00ab 00000000 		.4byte	0
 1870 00af 00000000 		.4byte	0
 1871              	.LLST4:
 1872 00b3 06020000 		.4byte	.LVL18-.Ltext0
 1873 00b7 40020000 		.4byte	.LVL21-.Ltext0
 1874 00bb 0500     		.2byte	0x5
 1875 00bd 31       		.byte	0x31
 1876 00be 74       		.byte	0x74
 1877 00bf 00       		.sleb128 0
 1878 00c0 24       		.byte	0x24
 1879 00c1 9F       		.byte	0x9f
 1880 00c2 00000000 		.4byte	0
 1881 00c6 00000000 		.4byte	0
ARM GAS  /tmp/ccRCTHg3.s 			page 34


 1882              	.LLST5:
 1883 00ca 14020000 		.4byte	.LVL20-.Ltext0
 1884 00ce 40020000 		.4byte	.LVL21-.Ltext0
 1885 00d2 0700     		.2byte	0x7
 1886 00d4 33       		.byte	0x33
 1887 00d5 74       		.byte	0x74
 1888 00d6 00       		.sleb128 0
 1889 00d7 31       		.byte	0x31
 1890 00d8 24       		.byte	0x24
 1891 00d9 24       		.byte	0x24
 1892 00da 9F       		.byte	0x9f
 1893 00db 00000000 		.4byte	0
 1894 00df 00000000 		.4byte	0
 1895              	.LLST6:
 1896 00e3 F8010000 		.4byte	.LVL16-.Ltext0
 1897 00e7 00020000 		.4byte	.LVL17-.Ltext0
 1898 00eb 0100     		.2byte	0x1
 1899 00ed 53       		.byte	0x53
 1900 00ee 00020000 		.4byte	.LVL17-.Ltext0
 1901 00f2 50020000 		.4byte	.LVL27-.Ltext0
 1902 00f6 0A00     		.2byte	0xa
 1903 00f8 7C       		.byte	0x7c
 1904 00f9 00       		.sleb128 0
 1905 00fa 74       		.byte	0x74
 1906 00fb 00       		.sleb128 0
 1907 00fc 37       		.byte	0x37
 1908 00fd 1A       		.byte	0x1a
 1909 00fe 32       		.byte	0x32
 1910 00ff 24       		.byte	0x24
 1911 0100 24       		.byte	0x24
 1912 0101 9F       		.byte	0x9f
 1913 0102 62020000 		.4byte	.LVL29-.Ltext0
 1914 0106 70020000 		.4byte	.LVL30-.Ltext0
 1915 010a 0100     		.2byte	0x1
 1916 010c 53       		.byte	0x53
 1917 010d 70020000 		.4byte	.LVL30-.Ltext0
 1918 0111 7C020000 		.4byte	.LFE132-.Ltext0
 1919 0115 0A00     		.2byte	0xa
 1920 0117 7C       		.byte	0x7c
 1921 0118 00       		.sleb128 0
 1922 0119 74       		.byte	0x74
 1923 011a 00       		.sleb128 0
 1924 011b 37       		.byte	0x37
 1925 011c 1A       		.byte	0x1a
 1926 011d 32       		.byte	0x32
 1927 011e 24       		.byte	0x24
 1928 011f 24       		.byte	0x24
 1929 0120 9F       		.byte	0x9f
 1930 0121 00000000 		.4byte	0
 1931 0125 00000000 		.4byte	0
 1932              		.section	.debug_aranges,"",%progbits
 1933 0000 1C000000 		.4byte	0x1c
 1934 0004 0200     		.2byte	0x2
 1935 0006 00000000 		.4byte	.Ldebug_info0
 1936 000a 04       		.byte	0x4
 1937 000b 00       		.byte	0
 1938 000c 0000     		.2byte	0
ARM GAS  /tmp/ccRCTHg3.s 			page 35


 1939 000e 0000     		.2byte	0
 1940 0010 00000000 		.4byte	.Ltext0
 1941 0014 7C020000 		.4byte	.Letext0-.Ltext0
 1942 0018 00000000 		.4byte	0
 1943 001c 00000000 		.4byte	0
 1944              		.section	.debug_ranges,"",%progbits
 1945              	.Ldebug_ranges0:
 1946 0000 08000000 		.4byte	.LBB20-.Ltext0
 1947 0004 0C000000 		.4byte	.LBE20-.Ltext0
 1948 0008 3C000000 		.4byte	.LBB47-.Ltext0
 1949 000c 66000000 		.4byte	.LBE47-.Ltext0
 1950 0010 00000000 		.4byte	0
 1951 0014 00000000 		.4byte	0
 1952 0018 10000000 		.4byte	.LBB23-.Ltext0
 1953 001c 14000000 		.4byte	.LBE23-.Ltext0
 1954 0020 66000000 		.4byte	.LBB48-.Ltext0
 1955 0024 90000000 		.4byte	.LBE48-.Ltext0
 1956 0028 00000000 		.4byte	0
 1957 002c 00000000 		.4byte	0
 1958 0030 14000000 		.4byte	.LBB26-.Ltext0
 1959 0034 16000000 		.4byte	.LBE26-.Ltext0
 1960 0038 90000000 		.4byte	.LBB49-.Ltext0
 1961 003c AC000000 		.4byte	.LBE49-.Ltext0
 1962 0040 00000000 		.4byte	0
 1963 0044 00000000 		.4byte	0
 1964 0048 16000000 		.4byte	.LBB29-.Ltext0
 1965 004c 18000000 		.4byte	.LBE29-.Ltext0
 1966 0050 AC000000 		.4byte	.LBB50-.Ltext0
 1967 0054 C8000000 		.4byte	.LBE50-.Ltext0
 1968 0058 00000000 		.4byte	0
 1969 005c 00000000 		.4byte	0
 1970 0060 18000000 		.4byte	.LBB32-.Ltext0
 1971 0064 1A000000 		.4byte	.LBE32-.Ltext0
 1972 0068 C8000000 		.4byte	.LBB51-.Ltext0
 1973 006c EA000000 		.4byte	.LBE51-.Ltext0
 1974 0070 00000000 		.4byte	0
 1975 0074 00000000 		.4byte	0
 1976 0078 1A000000 		.4byte	.LBB35-.Ltext0
 1977 007c 1C000000 		.4byte	.LBE35-.Ltext0
 1978 0080 EA000000 		.4byte	.LBB52-.Ltext0
 1979 0084 14010000 		.4byte	.LBE52-.Ltext0
 1980 0088 00000000 		.4byte	0
 1981 008c 00000000 		.4byte	0
 1982 0090 1C000000 		.4byte	.LBB38-.Ltext0
 1983 0094 1E000000 		.4byte	.LBE38-.Ltext0
 1984 0098 14010000 		.4byte	.LBB53-.Ltext0
 1985 009c 3E010000 		.4byte	.LBE53-.Ltext0
 1986 00a0 00000000 		.4byte	0
 1987 00a4 00000000 		.4byte	0
 1988 00a8 1E000000 		.4byte	.LBB41-.Ltext0
 1989 00ac 20000000 		.4byte	.LBE41-.Ltext0
 1990 00b0 3E010000 		.4byte	.LBB54-.Ltext0
 1991 00b4 68010000 		.4byte	.LBE54-.Ltext0
 1992 00b8 00000000 		.4byte	0
 1993 00bc 00000000 		.4byte	0
 1994 00c0 20000000 		.4byte	.LBB44-.Ltext0
 1995 00c4 24000000 		.4byte	.LBE44-.Ltext0
ARM GAS  /tmp/ccRCTHg3.s 			page 36


 1996 00c8 68010000 		.4byte	.LBB55-.Ltext0
 1997 00cc CC010000 		.4byte	.LBE55-.Ltext0
 1998 00d0 00000000 		.4byte	0
 1999 00d4 00000000 		.4byte	0
 2000 00d8 D4010000 		.4byte	.LBB56-.Ltext0
 2001 00dc D8010000 		.4byte	.LBE56-.Ltext0
 2002 00e0 EE010000 		.4byte	.LBB57-.Ltext0
 2003 00e4 40020000 		.4byte	.LBE57-.Ltext0
 2004 00e8 50020000 		.4byte	.LBB58-.Ltext0
 2005 00ec 56020000 		.4byte	.LBE58-.Ltext0
 2006 00f0 5A020000 		.4byte	.LBB59-.Ltext0
 2007 00f4 62020000 		.4byte	.LBE59-.Ltext0
 2008 00f8 64020000 		.4byte	.LBB60-.Ltext0
 2009 00fc 7C020000 		.4byte	.LBE60-.Ltext0
 2010 0100 00000000 		.4byte	0
 2011 0104 00000000 		.4byte	0
 2012              		.section	.debug_line,"",%progbits
 2013              	.Ldebug_line0:
 2014 0000 28030000 		.section	.debug_str,"MS",%progbits,1
 2014      02008502 
 2014      00000201 
 2014      FB0E0D00 
 2014      01010101 
 2015              	.LASF34:
 2016 0000 41484231 		.ascii	"AHB1LPENR\000"
 2016      4C50454E 
 2016      5200
 2017              	.LASF67:
 2018 000a 50434461 		.ascii	"PCData\000"
 2018      746100
 2019              	.LASF81:
 2020 0011 5F70616C 		.ascii	"_pal_lld_setgroupmode\000"
 2020      5F6C6C64 
 2020      5F736574 
 2020      67726F75 
 2020      706D6F64 
 2021              	.LASF24:
 2022 0027 41504231 		.ascii	"APB1RSTR\000"
 2022      52535452 
 2022      00
 2023              	.LASF28:
 2024 0030 41484232 		.ascii	"AHB2ENR\000"
 2024      454E5200 
 2025              	.LASF64:
 2026 0038 73746D33 		.ascii	"stm32_gpio_setup_t\000"
 2026      325F6770 
 2026      696F5F73 
 2026      65747570 
 2026      5F7400
 2027              	.LASF70:
 2028 004b 50464461 		.ascii	"PFData\000"
 2028      746100
 2029              	.LASF80:
 2030 0052 5F70616C 		.ascii	"_pal_lld_init\000"
 2030      5F6C6C64 
 2030      5F696E69 
 2030      7400
ARM GAS  /tmp/ccRCTHg3.s 			page 37


 2031              	.LASF88:
 2032 0060 2F686F6D 		.ascii	"/home/sbcu/Dropbox/pcb-layouts/axo-on-discovery-boa"
 2032      652F7362 
 2032      63752F44 
 2032      726F7062 
 2032      6F782F70 
 2033 0093 72642F61 		.ascii	"rd/axoloti/platform_linux/../chibios/os/hal/platfor"
 2033      786F6C6F 
 2033      74692F70 
 2033      6C617466 
 2033      6F726D5F 
 2034 00c6 6D732F53 		.ascii	"ms/STM32/GPIOv2/pal_lld.c\000"
 2034      544D3332 
 2034      2F475049 
 2034      4F76322F 
 2034      70616C5F 
 2035              	.LASF90:
 2036 00e0 696E6974 		.ascii	"initgpio\000"
 2036      6770696F 
 2036      00
 2037              	.LASF16:
 2038 00e9 73697A65 		.ascii	"sizetype\000"
 2038      74797065 
 2038      00
 2039              	.LASF41:
 2040 00f2 42444352 		.ascii	"BDCR\000"
 2040      00
 2041              	.LASF73:
 2042 00f7 50494461 		.ascii	"PIData\000"
 2042      746100
 2043              	.LASF44:
 2044 00fe 504C4C49 		.ascii	"PLLI2SCFGR\000"
 2044      32534346 
 2044      475200
 2045              	.LASF78:
 2046 0109 6770696F 		.ascii	"gpiop\000"
 2046      7000
 2047              	.LASF89:
 2048 010f 2F686F6D 		.ascii	"/home/sbcu/Dropbox/pcb-layouts/axo-on-discovery-boa"
 2048      652F7362 
 2048      63752F44 
 2048      726F7062 
 2048      6F782F70 
 2049 0142 72642F61 		.ascii	"rd/axoloti/firmware\000"
 2049      786F6C6F 
 2049      74692F66 
 2049      69726D77 
 2049      61726500 
 2050              	.LASF8:
 2051 0156 5F5F7569 		.ascii	"__uint32_t\000"
 2051      6E743332 
 2051      5F7400
 2052              	.LASF5:
 2053 0161 5F5F7569 		.ascii	"__uint16_t\000"
 2053      6E743136 
 2053      5F7400
 2054              	.LASF43:
ARM GAS  /tmp/ccRCTHg3.s 			page 38


 2055 016c 53534347 		.ascii	"SSCGR\000"
 2055      5200
 2056              	.LASF66:
 2057 0172 50424461 		.ascii	"PBData\000"
 2057      746100
 2058              	.LASF3:
 2059 0179 73686F72 		.ascii	"short int\000"
 2059      7420696E 
 2059      7400
 2060              	.LASF20:
 2061 0183 41484231 		.ascii	"AHB1RSTR\000"
 2061      52535452 
 2061      00
 2062              	.LASF79:
 2063 018c 636F6E66 		.ascii	"config\000"
 2063      696700
 2064              	.LASF76:
 2065 0193 696F6D6F 		.ascii	"iomode_t\000"
 2065      64655F74 
 2065      00
 2066              	.LASF36:
 2067 019c 41484233 		.ascii	"AHB3LPENR\000"
 2067      4C50454E 
 2067      5200
 2068              	.LASF31:
 2069 01a6 41504231 		.ascii	"APB1ENR\000"
 2069      454E5200 
 2070              	.LASF75:
 2071 01ae 696F706F 		.ascii	"ioportmask_t\000"
 2071      72746D61 
 2071      736B5F74 
 2071      00
 2072              	.LASF50:
 2073 01bb 4F545950 		.ascii	"OTYPER\000"
 2073      455200
 2074              	.LASF46:
 2075 01c2 44434B43 		.ascii	"DCKCFGR\000"
 2075      46475200 
 2076              	.LASF29:
 2077 01ca 41484233 		.ascii	"AHB3ENR\000"
 2077      454E5200 
 2078              	.LASF51:
 2079 01d2 4F535045 		.ascii	"OSPEEDR\000"
 2079      45445200 
 2080              	.LASF10:
 2081 01da 6C6F6E67 		.ascii	"long long int\000"
 2081      206C6F6E 
 2081      6720696E 
 2081      7400
 2082              	.LASF52:
 2083 01e8 50555044 		.ascii	"PUPDR\000"
 2083      5200
 2084              	.LASF60:
 2085 01ee 6F737065 		.ascii	"ospeedr\000"
 2085      65647200 
 2086              	.LASF7:
 2087 01f6 6C6F6E67 		.ascii	"long int\000"
ARM GAS  /tmp/ccRCTHg3.s 			page 39


 2087      20696E74 
 2087      00
 2088              	.LASF68:
 2089 01ff 50444461 		.ascii	"PDData\000"
 2089      746100
 2090              	.LASF47:
 2091 0206 5243435F 		.ascii	"RCC_TypeDef\000"
 2091      54797065 
 2091      44656600 
 2092              	.LASF49:
 2093 0212 4D4F4445 		.ascii	"MODER\000"
 2093      5200
 2094              	.LASF25:
 2095 0218 41504232 		.ascii	"APB2RSTR\000"
 2095      52535452 
 2095      00
 2096              	.LASF48:
 2097 0221 636C6561 		.ascii	"clear\000"
 2097      7200
 2098              	.LASF71:
 2099 0227 50474461 		.ascii	"PGData\000"
 2099      746100
 2100              	.LASF65:
 2101 022e 50414461 		.ascii	"PAData\000"
 2101      746100
 2102              	.LASF77:
 2103 0235 696F706F 		.ascii	"ioportid_t\000"
 2103      72746964 
 2103      5F7400
 2104              	.LASF2:
 2105 0240 756E7369 		.ascii	"unsigned char\000"
 2105      676E6564 
 2105      20636861 
 2105      7200
 2106              	.LASF32:
 2107 024e 41504232 		.ascii	"APB2ENR\000"
 2107      454E5200 
 2108              	.LASF1:
 2109 0256 7369676E 		.ascii	"signed char\000"
 2109      65642063 
 2109      68617200 
 2110              	.LASF11:
 2111 0262 6C6F6E67 		.ascii	"long long unsigned int\000"
 2111      206C6F6E 
 2111      6720756E 
 2111      7369676E 
 2111      65642069 
 2112              	.LASF14:
 2113 0279 75696E74 		.ascii	"uint32_t\000"
 2113      33325F74 
 2113      00
 2114              	.LASF59:
 2115 0282 6F747970 		.ascii	"otyper\000"
 2115      657200
 2116              	.LASF21:
 2117 0289 41484232 		.ascii	"AHB2RSTR\000"
 2117      52535452 
ARM GAS  /tmp/ccRCTHg3.s 			page 40


 2117      00
 2118              	.LASF12:
 2119 0292 75696E74 		.ascii	"uint16_t\000"
 2119      31365F74 
 2119      00
 2120              	.LASF9:
 2121 029b 6C6F6E67 		.ascii	"long unsigned int\000"
 2121      20756E73 
 2121      69676E65 
 2121      6420696E 
 2121      7400
 2122              	.LASF56:
 2123 02ad 41465248 		.ascii	"AFRH\000"
 2123      00
 2124              	.LASF18:
 2125 02b2 504C4C43 		.ascii	"PLLCFGR\000"
 2125      46475200 
 2126              	.LASF55:
 2127 02ba 4146524C 		.ascii	"AFRL\000"
 2127      00
 2128              	.LASF4:
 2129 02bf 73686F72 		.ascii	"short unsigned int\000"
 2129      7420756E 
 2129      7369676E 
 2129      65642069 
 2129      6E7400
 2130              	.LASF38:
 2131 02d2 41504231 		.ascii	"APB1LPENR\000"
 2131      4C50454E 
 2131      5200
 2132              	.LASF17:
 2133 02dc 63686172 		.ascii	"char\000"
 2133      00
 2134              	.LASF87:
 2135 02e1 474E5520 		.ascii	"GNU C 4.9.3 20150529 (release) [ARM/embedded-4_9-br"
 2135      4320342E 
 2135      392E3320 
 2135      32303135 
 2135      30353239 
 2136 0314 616E6368 		.ascii	"anch revision 224288] -mcpu=cortex-m4 -mfloat-abi=h"
 2136      20726576 
 2136      6973696F 
 2136      6E203232 
 2136      34323838 
 2137 0347 61726420 		.ascii	"ard -mfpu=fpv4-sp-d16 -mno-thumb-interwork -mthumb "
 2137      2D6D6670 
 2137      753D6670 
 2137      76342D73 
 2137      702D6431 
 2138 037a 2D676764 		.ascii	"-ggdb -O2 -fomit-frame-pointer -falign-functions=16"
 2138      62202D4F 
 2138      32202D66 
 2138      6F6D6974 
 2138      2D667261 
 2139 03ad 202D666E 		.ascii	" -fno-math-errno -fsingle-precision-constant\000"
 2139      6F2D6D61 
 2139      74682D65 
ARM GAS  /tmp/ccRCTHg3.s 			page 41


 2139      72726E6F 
 2139      202D6673 
 2140              	.LASF13:
 2141 03da 696E7433 		.ascii	"int32_t\000"
 2141      325F7400 
 2142              	.LASF6:
 2143 03e2 5F5F696E 		.ascii	"__int32_t\000"
 2143      7433325F 
 2143      7400
 2144              	.LASF74:
 2145 03ec 50414C43 		.ascii	"PALConfig\000"
 2145      6F6E6669 
 2145      6700
 2146              	.LASF15:
 2147 03f6 5F426F6F 		.ascii	"_Bool\000"
 2147      6C00
 2148              	.LASF84:
 2149 03fc 6D6F6465 		.ascii	"mode\000"
 2149      00
 2150              	.LASF35:
 2151 0401 41484232 		.ascii	"AHB2LPENR\000"
 2151      4C50454E 
 2151      5200
 2152              	.LASF82:
 2153 040b 706F7274 		.ascii	"port\000"
 2153      00
 2154              	.LASF69:
 2155 0410 50454461 		.ascii	"PEData\000"
 2155      746100
 2156              	.LASF23:
 2157 0417 52455345 		.ascii	"RESERVED0\000"
 2157      52564544 
 2157      3000
 2158              	.LASF26:
 2159 0421 52455345 		.ascii	"RESERVED1\000"
 2159      52564544 
 2159      3100
 2160              	.LASF30:
 2161 042b 52455345 		.ascii	"RESERVED2\000"
 2161      52564544 
 2161      3200
 2162              	.LASF33:
 2163 0435 52455345 		.ascii	"RESERVED3\000"
 2163      52564544 
 2163      3300
 2164              	.LASF37:
 2165 043f 52455345 		.ascii	"RESERVED4\000"
 2165      52564544 
 2165      3400
 2166              	.LASF40:
 2167 0449 52455345 		.ascii	"RESERVED5\000"
 2167      52564544 
 2167      3500
 2168              	.LASF42:
 2169 0453 52455345 		.ascii	"RESERVED6\000"
 2169      52564544 
 2169      3600
ARM GAS  /tmp/ccRCTHg3.s 			page 42


 2170              	.LASF72:
 2171 045d 50484461 		.ascii	"PHData\000"
 2171      746100
 2172              	.LASF27:
 2173 0464 41484231 		.ascii	"AHB1ENR\000"
 2173      454E5200 
 2174              	.LASF83:
 2175 046c 6D61736B 		.ascii	"mask\000"
 2175      00
 2176              	.LASF61:
 2177 0471 70757064 		.ascii	"pupdr\000"
 2177      7200
 2178              	.LASF63:
 2179 0477 61667268 		.ascii	"afrh\000"
 2179      00
 2180              	.LASF62:
 2181 047c 6166726C 		.ascii	"afrl\000"
 2181      00
 2182              	.LASF58:
 2183 0481 6D6F6465 		.ascii	"moder\000"
 2183      7200
 2184              	.LASF57:
 2185 0487 4750494F 		.ascii	"GPIO_TypeDef\000"
 2185      5F547970 
 2185      65446566 
 2185      00
 2186              	.LASF22:
 2187 0494 41484233 		.ascii	"AHB3RSTR\000"
 2187      52535452 
 2187      00
 2188              	.LASF85:
 2189 049d 616C7472 		.ascii	"altr\000"
 2189      00
 2190              	.LASF91:
 2191 04a2 49544D5F 		.ascii	"ITM_RxBuffer\000"
 2191      52784275 
 2191      66666572 
 2191      00
 2192              	.LASF86:
 2193 04af 616C7472 		.ascii	"altrmask\000"
 2193      6D61736B 
 2193      00
 2194              	.LASF0:
 2195 04b8 756E7369 		.ascii	"unsigned int\000"
 2195      676E6564 
 2195      20696E74 
 2195      00
 2196              	.LASF19:
 2197 04c5 43464752 		.ascii	"CFGR\000"
 2197      00
 2198              	.LASF45:
 2199 04ca 504C4C53 		.ascii	"PLLSAICFGR\000"
 2199      41494346 
 2199      475200
 2200              	.LASF54:
 2201 04d5 4C434B52 		.ascii	"LCKR\000"
 2201      00
ARM GAS  /tmp/ccRCTHg3.s 			page 43


 2202              	.LASF39:
 2203 04da 41504232 		.ascii	"APB2LPENR\000"
 2203      4C50454E 
 2203      5200
 2204              	.LASF53:
 2205 04e4 42535252 		.ascii	"BSRR\000"
 2205      00
 2206              		.ident	"GCC: (GNU Tools for ARM Embedded Processors) 4.9.3 20150529 (release) [ARM/embedded-4_9-br
ARM GAS  /tmp/ccRCTHg3.s 			page 44


DEFINED SYMBOLS
                            *ABS*:00000000 pal_lld.c
     /tmp/ccRCTHg3.s:20     .text:00000000 $t
     /tmp/ccRCTHg3.s:26     .text:00000000 _pal_lld_init
     /tmp/ccRCTHg3.s:340    .text:000001a4 $d
     /tmp/ccRCTHg3.s:355    .text:000001cc $t
     /tmp/ccRCTHg3.s:361    .text:000001d0 _pal_lld_setgroupmode
                     .debug_frame:00000010 $d

NO UNDEFINED SYMBOLS
