ARM GAS  /tmp/ccRCTHg3.s 			page 1


   1              		.syntax unified
   2              		.cpu cortex-m4
   3              		.eabi_attribute 27, 1
   4              		.eabi_attribute 28, 1
   5              		.fpu fpv4-sp-d16
   6              		.eabi_attribute 20, 1
   7              		.eabi_attribute 21, 1
   8              		.eabi_attribute 23, 3
   9              		.eabi_attribute 24, 1
  10              		.eabi_attribute 25, 1
  11              		.eabi_attribute 26, 1
  12              		.eabi_attribute 30, 2
  13              		.eabi_attribute 34, 1
  14              		.eabi_attribute 18, 4
  15              		.thumb
  16              		.file	"pal_lld.c"
  17              		.text
  18              	.Ltext0:
  19              		.cfi_sections	.debug_frame
  20              		.align	2
  21              		.p2align 4,,15
  22              		.global	_pal_lld_init
  23              		.thumb
  24              		.thumb_func
  25              		.type	_pal_lld_init, %function
  26              	_pal_lld_init:
  27              	.LFB131:
  28              		.file 1 "/home/sbcu/Dropbox/pcb-layouts/axo-on-discovery-board/axoloti/platform_linux/../chibios/o
  29              		.loc 1 119 0
  30              		.cfi_startproc
  31              		@ args = 0, pretend = 0, frame = 0
  32              		@ frame_needed = 0, uses_anonymous_args = 0
  33              	.LVL0:
  34 0000 2DE9F04F 		push	{r4, r5, r6, r7, r8, r9, r10, fp, lr}
  35              		.cfi_def_cfa_offset 36
  36              		.cfi_offset 4, -36
  37              		.cfi_offset 5, -32
  38              		.cfi_offset 6, -28
  39              		.cfi_offset 7, -24
  40              		.cfi_offset 8, -20
  41              		.cfi_offset 9, -16
  42              		.cfi_offset 10, -12
  43              		.cfi_offset 11, -8
  44              		.cfi_offset 14, -4
  45              		.loc 1 132 0
  46 0004 DFF8B481 		ldr	r8, .L3+24
  47              	.LBB20:
  48              	.LBB21:
  49              		.loc 1 94 0
  50 0008 DFF8B4C1 		ldr	ip, .L3+28
  51              	.LBE21:
  52              	.LBE20:
  53              		.loc 1 132 0
  54 000c D8F830A0 		ldr	r10, [r8, #48]
  55              	.LBB23:
  56              	.LBB24:
  57              		.loc 1 94 0
ARM GAS  /tmp/ccRCTHg3.s 			page 2


  58 0010 DFF8B0E1 		ldr	lr, .L3+32
  59              	.LBE24:
  60              	.LBE23:
  61              	.LBB26:
  62              	.LBB27:
  63 0014 634F     		ldr	r7, .L3
  64              	.LBE27:
  65              	.LBE26:
  66              	.LBB29:
  67              	.LBB30:
  68 0016 644E     		ldr	r6, .L3+4
  69              	.LBE30:
  70              	.LBE29:
  71              	.LBB32:
  72              	.LBB33:
  73 0018 644D     		ldr	r5, .L3+8
  74              	.LBE33:
  75              	.LBE32:
  76              	.LBB35:
  77              	.LBB36:
  78 001a 654C     		ldr	r4, .L3+12
  79              	.LBE36:
  80              	.LBE35:
  81              	.LBB38:
  82              	.LBB39:
  83 001c 6549     		ldr	r1, .L3+16
  84              	.LBE39:
  85              	.LBE38:
  86              	.LBB41:
  87              	.LBB42:
  88 001e 664A     		ldr	r2, .L3+20
  89              	.LBE42:
  90              	.LBE41:
  91              	.LBB44:
  92              	.LBB45:
  93 0020 DFF8A4B1 		ldr	fp, .L3+36
  94              	.LBE45:
  95              	.LBE44:
  96              		.loc 1 132 0
  97 0024 40F2FF19 		movw	r9, #511
  98 0028 4AEA090A 		orr	r10, r10, r9
  99 002c C8F830A0 		str	r10, [r8, #48]
 100              		.loc 1 133 0
 101 0030 D8F850A0 		ldr	r10, [r8, #80]
 102 0034 4AEA0909 		orr	r9, r10, r9
 103 0038 C8F85090 		str	r9, [r8, #80]
 104              	.LVL1:
 105              	.LBB47:
 106              	.LBB22:
 107              		.loc 1 94 0
 108 003c 4368     		ldr	r3, [r0, #4]
 109 003e CCF80430 		str	r3, [ip, #4]
 110              		.loc 1 95 0
 111 0042 8368     		ldr	r3, [r0, #8]
 112 0044 CCF80830 		str	r3, [ip, #8]
 113              		.loc 1 96 0
 114 0048 C368     		ldr	r3, [r0, #12]
ARM GAS  /tmp/ccRCTHg3.s 			page 3


 115 004a CCF80C30 		str	r3, [ip, #12]
 116              		.loc 1 97 0
 117 004e 0369     		ldr	r3, [r0, #16]
 118 0050 CCF81430 		str	r3, [ip, #20]
 119              		.loc 1 98 0
 120 0054 4369     		ldr	r3, [r0, #20]
 121 0056 CCF82030 		str	r3, [ip, #32]
 122              		.loc 1 99 0
 123 005a 8369     		ldr	r3, [r0, #24]
 124 005c CCF82430 		str	r3, [ip, #36]
 125              		.loc 1 100 0
 126 0060 0368     		ldr	r3, [r0]
 127 0062 CCF80030 		str	r3, [ip]
 128              	.LVL2:
 129              	.LBE22:
 130              	.LBE47:
 131              	.LBB48:
 132              	.LBB25:
 133              		.loc 1 94 0
 134 0066 036A     		ldr	r3, [r0, #32]
 135 0068 CEF80430 		str	r3, [lr, #4]
 136              		.loc 1 95 0
 137 006c 436A     		ldr	r3, [r0, #36]
 138 006e CEF80830 		str	r3, [lr, #8]
 139              		.loc 1 96 0
 140 0072 836A     		ldr	r3, [r0, #40]
 141 0074 CEF80C30 		str	r3, [lr, #12]
 142              		.loc 1 97 0
 143 0078 C36A     		ldr	r3, [r0, #44]
 144 007a CEF81430 		str	r3, [lr, #20]
 145              		.loc 1 98 0
 146 007e 036B     		ldr	r3, [r0, #48]
 147 0080 CEF82030 		str	r3, [lr, #32]
 148              		.loc 1 99 0
 149 0084 436B     		ldr	r3, [r0, #52]
 150 0086 CEF82430 		str	r3, [lr, #36]
 151              		.loc 1 100 0
 152 008a C369     		ldr	r3, [r0, #28]
 153 008c CEF80030 		str	r3, [lr]
 154              	.LVL3:
 155              	.LBE25:
 156              	.LBE48:
 157              	.LBB49:
 158              	.LBB28:
 159              		.loc 1 94 0
 160 0090 C36B     		ldr	r3, [r0, #60]
 161 0092 7B60     		str	r3, [r7, #4]
 162              		.loc 1 95 0
 163 0094 036C     		ldr	r3, [r0, #64]
 164 0096 BB60     		str	r3, [r7, #8]
 165              		.loc 1 96 0
 166 0098 436C     		ldr	r3, [r0, #68]
 167 009a FB60     		str	r3, [r7, #12]
 168              		.loc 1 97 0
 169 009c 836C     		ldr	r3, [r0, #72]
 170 009e 7B61     		str	r3, [r7, #20]
 171              		.loc 1 98 0
ARM GAS  /tmp/ccRCTHg3.s 			page 4


 172 00a0 C36C     		ldr	r3, [r0, #76]
 173 00a2 3B62     		str	r3, [r7, #32]
 174              		.loc 1 99 0
 175 00a4 036D     		ldr	r3, [r0, #80]
 176 00a6 7B62     		str	r3, [r7, #36]
 177              		.loc 1 100 0
 178 00a8 836B     		ldr	r3, [r0, #56]
 179 00aa 3B60     		str	r3, [r7]
 180              	.LVL4:
 181              	.LBE28:
 182              	.LBE49:
 183              	.LBB50:
 184              	.LBB31:
 185              		.loc 1 94 0
 186 00ac 876D     		ldr	r7, [r0, #88]
 187 00ae 7760     		str	r7, [r6, #4]
 188              		.loc 1 95 0
 189 00b0 C76D     		ldr	r7, [r0, #92]
 190 00b2 B760     		str	r7, [r6, #8]
 191              		.loc 1 96 0
 192 00b4 076E     		ldr	r7, [r0, #96]
 193 00b6 F760     		str	r7, [r6, #12]
 194              		.loc 1 97 0
 195 00b8 476E     		ldr	r7, [r0, #100]
 196 00ba 7761     		str	r7, [r6, #20]
 197              		.loc 1 98 0
 198 00bc 876E     		ldr	r7, [r0, #104]
 199 00be 3762     		str	r7, [r6, #32]
 200              		.loc 1 99 0
 201 00c0 C76E     		ldr	r7, [r0, #108]
 202 00c2 7762     		str	r7, [r6, #36]
 203              		.loc 1 100 0
 204 00c4 476D     		ldr	r7, [r0, #84]
 205 00c6 3760     		str	r7, [r6]
 206              	.LVL5:
 207              	.LBE31:
 208              	.LBE50:
 209              	.LBB51:
 210              	.LBB34:
 211              		.loc 1 94 0
 212 00c8 466F     		ldr	r6, [r0, #116]
 213 00ca 6E60     		str	r6, [r5, #4]
 214              		.loc 1 95 0
 215 00cc 866F     		ldr	r6, [r0, #120]
 216 00ce AE60     		str	r6, [r5, #8]
 217              		.loc 1 96 0
 218 00d0 C66F     		ldr	r6, [r0, #124]
 219 00d2 EE60     		str	r6, [r5, #12]
 220              		.loc 1 97 0
 221 00d4 D0F88060 		ldr	r6, [r0, #128]
 222 00d8 6E61     		str	r6, [r5, #20]
 223              		.loc 1 98 0
 224 00da D0F88460 		ldr	r6, [r0, #132]
 225 00de 2E62     		str	r6, [r5, #32]
 226              		.loc 1 99 0
 227 00e0 D0F88860 		ldr	r6, [r0, #136]
 228 00e4 6E62     		str	r6, [r5, #36]
ARM GAS  /tmp/ccRCTHg3.s 			page 5


 229              		.loc 1 100 0
 230 00e6 066F     		ldr	r6, [r0, #112]
 231 00e8 2E60     		str	r6, [r5]
 232              	.LVL6:
 233              	.LBE34:
 234              	.LBE51:
 235              	.LBB52:
 236              	.LBB37:
 237              		.loc 1 94 0
 238 00ea D0F89050 		ldr	r5, [r0, #144]
 239 00ee 6560     		str	r5, [r4, #4]
 240              		.loc 1 95 0
 241 00f0 D0F89450 		ldr	r5, [r0, #148]
 242 00f4 A560     		str	r5, [r4, #8]
 243              		.loc 1 96 0
 244 00f6 D0F89850 		ldr	r5, [r0, #152]
 245 00fa E560     		str	r5, [r4, #12]
 246              		.loc 1 97 0
 247 00fc D0F89C50 		ldr	r5, [r0, #156]
 248 0100 6561     		str	r5, [r4, #20]
 249              		.loc 1 98 0
 250 0102 D0F8A050 		ldr	r5, [r0, #160]
 251 0106 2562     		str	r5, [r4, #32]
 252              		.loc 1 99 0
 253 0108 D0F8A450 		ldr	r5, [r0, #164]
 254 010c 6562     		str	r5, [r4, #36]
 255              		.loc 1 100 0
 256 010e D0F88C50 		ldr	r5, [r0, #140]
 257 0112 2560     		str	r5, [r4]
 258              	.LVL7:
 259              	.LBE37:
 260              	.LBE52:
 261              	.LBB53:
 262              	.LBB40:
 263              		.loc 1 94 0
 264 0114 D0F8AC40 		ldr	r4, [r0, #172]
 265 0118 4C60     		str	r4, [r1, #4]
 266              		.loc 1 95 0
 267 011a D0F8B040 		ldr	r4, [r0, #176]
 268 011e 8C60     		str	r4, [r1, #8]
 269              		.loc 1 96 0
 270 0120 D0F8B440 		ldr	r4, [r0, #180]
 271 0124 CC60     		str	r4, [r1, #12]
 272              		.loc 1 97 0
 273 0126 D0F8B840 		ldr	r4, [r0, #184]
 274 012a 4C61     		str	r4, [r1, #20]
 275              		.loc 1 98 0
 276 012c D0F8BC40 		ldr	r4, [r0, #188]
 277 0130 0C62     		str	r4, [r1, #32]
 278              		.loc 1 99 0
 279 0132 D0F8C040 		ldr	r4, [r0, #192]
 280 0136 4C62     		str	r4, [r1, #36]
 281              		.loc 1 100 0
 282 0138 D0F8A840 		ldr	r4, [r0, #168]
 283 013c 0C60     		str	r4, [r1]
 284              	.LVL8:
 285              	.LBE40:
ARM GAS  /tmp/ccRCTHg3.s 			page 6


 286              	.LBE53:
 287              	.LBB54:
 288              	.LBB43:
 289              		.loc 1 94 0
 290 013e D0F8C810 		ldr	r1, [r0, #200]
 291 0142 5160     		str	r1, [r2, #4]
 292              		.loc 1 95 0
 293 0144 D0F8CC10 		ldr	r1, [r0, #204]
 294 0148 9160     		str	r1, [r2, #8]
 295              		.loc 1 96 0
 296 014a D0F8D010 		ldr	r1, [r0, #208]
 297 014e D160     		str	r1, [r2, #12]
 298              		.loc 1 97 0
 299 0150 D0F8D410 		ldr	r1, [r0, #212]
 300 0154 5161     		str	r1, [r2, #20]
 301              		.loc 1 98 0
 302 0156 D0F8D810 		ldr	r1, [r0, #216]
 303 015a 1162     		str	r1, [r2, #32]
 304              		.loc 1 99 0
 305 015c D0F8DC10 		ldr	r1, [r0, #220]
 306 0160 5162     		str	r1, [r2, #36]
 307              		.loc 1 100 0
 308 0162 D0F8C410 		ldr	r1, [r0, #196]
 309 0166 1160     		str	r1, [r2]
 310              	.LVL9:
 311              	.LBE43:
 312              	.LBE54:
 313              	.LBB55:
 314              	.LBB46:
 315              		.loc 1 94 0
 316 0168 D0F8E420 		ldr	r2, [r0, #228]
 317 016c CBF80420 		str	r2, [fp, #4]
 318              		.loc 1 95 0
 319 0170 D0F8E820 		ldr	r2, [r0, #232]
 320 0174 CBF80820 		str	r2, [fp, #8]
 321              		.loc 1 96 0
 322 0178 D0F8EC20 		ldr	r2, [r0, #236]
 323 017c CBF80C20 		str	r2, [fp, #12]
 324              		.loc 1 97 0
 325 0180 D0F8F020 		ldr	r2, [r0, #240]
 326 0184 CBF81420 		str	r2, [fp, #20]
 327              		.loc 1 98 0
 328 0188 D0F8F420 		ldr	r2, [r0, #244]
 329 018c CBF82020 		str	r2, [fp, #32]
 330              		.loc 1 99 0
 331 0190 D0F8F820 		ldr	r2, [r0, #248]
 332 0194 CBF82420 		str	r2, [fp, #36]
 333              		.loc 1 100 0
 334 0198 D0F8E020 		ldr	r2, [r0, #224]
 335 019c CBF80020 		str	r2, [fp]
 336 01a0 BDE8F08F 		pop	{r4, r5, r6, r7, r8, r9, r10, fp, pc}
 337              	.L4:
 338              		.align	2
 339              	.L3:
 340 01a4 00080240 		.word	1073874944
 341 01a8 000C0240 		.word	1073875968
 342 01ac 00100240 		.word	1073876992
ARM GAS  /tmp/ccRCTHg3.s 			page 7


 343 01b0 00140240 		.word	1073878016
 344 01b4 00180240 		.word	1073879040
 345 01b8 001C0240 		.word	1073880064
 346 01bc 00380240 		.word	1073887232
 347 01c0 00000240 		.word	1073872896
 348 01c4 00040240 		.word	1073873920
 349 01c8 00200240 		.word	1073881088
 350              	.LBE46:
 351              	.LBE55:
 352              		.cfi_endproc
 353              	.LFE131:
 354              		.size	_pal_lld_init, .-_pal_lld_init
 355              		.align	2
 356 01cc AFF30080 		.p2align 4,,15
 357              		.global	_pal_lld_setgroupmode
 358              		.thumb
 359              		.thumb_func
 360              		.type	_pal_lld_setgroupmode, %function
 361              	_pal_lld_setgroupmode:
 362              	.LFB132:
 363              		.loc 1 184 0
 364              		.cfi_startproc
 365              		@ args = 0, pretend = 0, frame = 0
 366              		@ frame_needed = 0, uses_anonymous_args = 0
 367              	.LVL10:
 368 01d0 2DE9F04F 		push	{r4, r5, r6, r7, r8, r9, r10, fp, lr}
 369              		.cfi_def_cfa_offset 36
 370              		.cfi_offset 4, -36
 371              		.cfi_offset 5, -32
 372              		.cfi_offset 6, -28
 373              		.cfi_offset 7, -24
 374              		.cfi_offset 8, -20
 375              		.cfi_offset 9, -16
 376              		.cfi_offset 10, -12
 377              		.cfi_offset 11, -8
 378              		.cfi_offset 14, -4
 379              	.LBB56:
 380              		.loc 1 197 0
 381 01d4 4FF00F0C 		mov	ip, #15
 382              	.LBE56:
 383              		.loc 1 186 0
 384 01d8 02F0030E 		and	lr, r2, #3
 385              	.LVL11:
 386              		.loc 1 187 0
 387 01dc C2F38007 		ubfx	r7, r2, #2, #1
 388              	.LVL12:
 389              		.loc 1 188 0
 390 01e0 C2F3C106 		ubfx	r6, r2, #3, #2
 391              	.LVL13:
 392              		.loc 1 189 0
 393 01e4 C2F34115 		ubfx	r5, r2, #5, #2
 394              	.LVL14:
 395              		.loc 1 191 0
 396 01e8 0024     		movs	r4, #0
 397              		.loc 1 190 0
 398 01ea C2F3C312 		ubfx	r2, r2, #7, #4
 399              	.LVL15:
ARM GAS  /tmp/ccRCTHg3.s 			page 8


 400              	.LBB57:
 401              		.loc 1 202 0
 402 01ee 4FF00109 		mov	r9, #1
 403              		.loc 1 204 0
 404 01f2 4FF00308 		mov	r8, #3
 405 01f6 2BE0     		b	.L10
 406              	.LVL16:
 407              	.L16:
 408              		.loc 1 199 0
 409 01f8 D0F820B0 		ldr	fp, [r0, #32]
 410 01fc 2BEA0303 		bic	r3, fp, r3
 411              	.LVL17:
 412 0200 43EA0A03 		orr	r3, r3, r10
 413 0204 0362     		str	r3, [r0, #32]
 414              	.L8:
 415              	.LVL18:
 416              		.loc 1 203 0
 417 0206 4368     		ldr	r3, [r0, #4]
 418              		.loc 1 202 0
 419 0208 09FA04FA 		lsl	r10, r9, r4
 420              	.LVL19:
 421              		.loc 1 203 0
 422 020c 23EA0A03 		bic	r3, r3, r10
 423 0210 3B43     		orrs	r3, r3, r7
 424 0212 4360     		str	r3, [r0, #4]
 425              	.LVL20:
 426 0214 4FEA440A 		lsl	r10, r4, #1
 427              		.loc 1 205 0
 428 0218 8368     		ldr	r3, [r0, #8]
 429              		.loc 1 204 0
 430 021a 08FA0AFA 		lsl	r10, r8, r10
 431              		.loc 1 205 0
 432 021e 6FEA0A0A 		mvn	r10, r10
 433 0222 0AEA0303 		and	r3, r10, r3
 434 0226 3343     		orrs	r3, r3, r6
 435 0228 8360     		str	r3, [r0, #8]
 436              		.loc 1 206 0
 437 022a C368     		ldr	r3, [r0, #12]
 438 022c 0AEA0303 		and	r3, r10, r3
 439 0230 2B43     		orrs	r3, r3, r5
 440 0232 C360     		str	r3, [r0, #12]
 441              		.loc 1 207 0
 442 0234 0368     		ldr	r3, [r0]
 443 0236 0AEA0303 		and	r3, r10, r3
 444 023a 43EA0E03 		orr	r3, r3, lr
 445 023e 0360     		str	r3, [r0]
 446              	.LVL21:
 447              	.L6:
 448              	.LBE57:
 449              		.loc 1 210 0
 450 0240 4908     		lsrs	r1, r1, #1
 451              	.LVL22:
 452 0242 19D0     		beq	.L5
 453              		.loc 1 212 0
 454 0244 7F00     		lsls	r7, r7, #1
 455              	.LVL23:
 456              		.loc 1 213 0
ARM GAS  /tmp/ccRCTHg3.s 			page 9


 457 0246 B600     		lsls	r6, r6, #2
 458              	.LVL24:
 459              		.loc 1 214 0
 460 0248 AD00     		lsls	r5, r5, #2
 461              	.LVL25:
 462              		.loc 1 215 0
 463 024a 4FEA8E0E 		lsl	lr, lr, #2
 464              	.LVL26:
 465              		.loc 1 216 0
 466 024e 0134     		adds	r4, r4, #1
 467              	.LVL27:
 468              	.L10:
 469              	.LBB58:
 470              		.loc 1 196 0
 471 0250 04F00703 		and	r3, r4, #7
 472 0254 9B00     		lsls	r3, r3, #2
 473              	.LBE58:
 474              		.loc 1 193 0
 475 0256 11F0010F 		tst	r1, #1
 476              	.LBB59:
 477              		.loc 1 196 0
 478 025a 02FA03FA 		lsl	r10, r2, r3
 479              	.LVL28:
 480              		.loc 1 197 0
 481 025e 0CFA03F3 		lsl	r3, ip, r3
 482              	.LVL29:
 483              	.LBE59:
 484              		.loc 1 193 0
 485 0262 EDD0     		beq	.L6
 486              	.LBB60:
 487              		.loc 1 198 0
 488 0264 072C     		cmp	r4, #7
 489 0266 C7D9     		bls	.L16
 490              		.loc 1 201 0
 491 0268 D0F824B0 		ldr	fp, [r0, #36]
 492 026c 2BEA0303 		bic	r3, fp, r3
 493              	.LVL30:
 494 0270 43EA0A03 		orr	r3, r3, r10
 495 0274 4362     		str	r3, [r0, #36]
 496 0276 C6E7     		b	.L8
 497              	.LVL31:
 498              	.L5:
 499 0278 BDE8F08F 		pop	{r4, r5, r6, r7, r8, r9, r10, fp, pc}
 500              	.LBE60:
 501              		.cfi_endproc
 502              	.LFE132:
 503              		.size	_pal_lld_setgroupmode, .-_pal_lld_setgroupmode
 504              	.Letext0:
 505              		.file 2 "/home/sbcu/Dropbox/pcb-layouts/axo-on-discovery-board/axoloti/platform_linux/arm-none-eab
 506              		.file 3 "/home/sbcu/Dropbox/pcb-layouts/axo-on-discovery-board/axoloti/platform_linux/arm-none-eab
 507              		.file 4 "/home/sbcu/Dropbox/pcb-layouts/axo-on-discovery-board/axoloti/platform_linux/../chibios/o
 508              		.file 5 "/home/sbcu/Dropbox/pcb-layouts/axo-on-discovery-board/axoloti/platform_linux/../chibios/o
 509              		.file 6 "/home/sbcu/Dropbox/pcb-layouts/axo-on-discovery-board/axoloti/platform_linux/../CMSIS//In