ARM GAS  /tmp/cckZPy9k.s 			page 1


   1              		.syntax unified
   2              		.cpu cortex-m4
   3              		.eabi_attribute 27, 1
   4              		.eabi_attribute 28, 1
   5              		.fpu fpv4-sp-d16
   6              		.eabi_attribute 20, 1
   7              		.eabi_attribute 21, 1
   8              		.eabi_attribute 23, 3
   9              		.eabi_attribute 24, 1
  10              		.eabi_attribute 25, 1
  11              		.eabi_attribute 26, 1
  12              		.eabi_attribute 30, 2
  13              		.eabi_attribute 34, 1
  14              		.eabi_attribute 18, 4
  15              		.thumb
  16              		.file	"parameters.c"
  17              		.text
  18              	.Ltext0:
  19              		.cfi_sections	.debug_frame
  20              		.align	2
  21              		.p2align 4,,15
  22              		.global	PExModulationSourceChange
  23              		.thumb
  24              		.thumb_func
  25              		.type	PExModulationSourceChange, %function
  26              	PExModulationSourceChange:
  27              	.LFB179:
  28              		.file 1 "parameters.c"
  29              		.loc 1 26 0
  30              		.cfi_startproc
  31              		@ args = 4, pretend = 0, frame = 0
  32              		@ frame_needed = 0, uses_anonymous_args = 0
  33              	.LVL0:
  34 0000 2DE9F84F 		push	{r3, r4, r5, r6, r7, r8, r9, r10, fp, lr}
  35              		.cfi_def_cfa_offset 40
  36              		.cfi_offset 3, -40
  37              		.cfi_offset 4, -36
  38              		.cfi_offset 5, -32
  39              		.cfi_offset 6, -28
  40              		.cfi_offset 7, -24
  41              		.cfi_offset 8, -20
  42              		.cfi_offset 9, -16
  43              		.cfi_offset 10, -12
  44              		.cfi_offset 11, -8
  45              		.cfi_offset 14, -4
  46              		.loc 1 29 0
  47 0004 B1F10009 		subs	r9, r1, #0
  48              		.loc 1 26 0
  49 0008 9B46     		mov	fp, r3
  50              		.loc 1 29 0
  51 000a 2CDD     		ble	.L6
  52 000c 9246     		mov	r10, r2
  53 000e 071D     		adds	r7, r0, #4
  54 0010 4FF00008 		mov	r8, #0
  55 0014 06E0     		b	.L5
  56              	.LVL1:
  57              	.L14:
ARM GAS  /tmp/cckZPy9k.s 			page 2


  58              	.LBB7:
  59              		.loc 1 39 0
  60 0016 9847     		blx	r3
  61              	.LVL2:
  62              	.L3:
  63              	.LBE7:
  64              		.loc 1 29 0 discriminator 2
  65 0018 08F10108 		add	r8, r8, #1
  66              	.LVL3:
  67 001c C845     		cmp	r8, r9
  68 001e 07F10807 		add	r7, r7, #8
  69              	.LVL4:
  70 0022 20D0     		beq	.L6
  71              	.LVL5:
  72              	.L5:
  73              	.LBB12:
  74              		.loc 1 31 0
  75 0024 57F8045C 		ldr	r5, [r7, #-4]
  76              		.loc 1 33 0
  77 0028 05EB8504 		add	r4, r5, r5, lsl #2
  78              		.loc 1 31 0
  79 002c 0135     		adds	r5, r5, #1
  80              		.loc 1 33 0
  81 002e 0AEB8404 		add	r4, r10, r4, lsl #2
  82              	.LVL6:
  83              		.loc 1 31 0
  84 0032 F1D0     		beq	.L3
  85              		.loc 1 34 0
  86 0034 6668     		ldr	r6, [r4, #4]
  87              	.LVL7:
  88              		.loc 1 35 0
  89 0036 3B68     		ldr	r3, [r7]
  90              	.LVL8:
  91              	.LBB8:
  92              	.LBB9:
  93              		.file 2 "axoloti_math.h"
  94              		.loc 2 65 0
  95 0038 DBF80000 		ldr	r0, [fp]
  96              	@ 65 "axoloti_math.h" 1
  97 003c 50FB03F5 		smmul r5, r0, r3
  98              	@ 0 "" 2
  99              	.LVL9:
 100              		.thumb
 101              	.LBE9:
 102              	.LBE8:
 103              		.loc 1 35 0
 104 0040 A6EB4516 		sub	r6, r6, r5, lsl #5
 105              	.LVL10:
 106              	.LBB10:
 107              	.LBB11:
 108              		.loc 2 65 0
 109 0044 0A9A     		ldr	r2, [sp, #40]
 110              	@ 65 "axoloti_math.h" 1
 111 0046 52FB03F5 		smmul r5, r2, r3
 112              	@ 0 "" 2
 113              	.LVL11:
 114              		.thumb
ARM GAS  /tmp/cckZPy9k.s 			page 3


 115              	.LBE11:
 116              	.LBE10:
 117              		.loc 1 38 0
 118 004a E368     		ldr	r3, [r4, #12]
 119              	.LVL12:
 120              		.loc 1 36 0
 121 004c 06EB4515 		add	r5, r6, r5, lsl #5
 122              	.LVL13:
 123              		.loc 1 39 0
 124 0050 2046     		mov	r0, r4
 125              		.loc 1 37 0
 126 0052 6560     		str	r5, [r4, #4]
 127              	.LVL14:
 128              		.loc 1 38 0
 129 0054 002B     		cmp	r3, #0
 130 0056 DED1     		bne	.L14
 131              	.LBE12:
 132              		.loc 1 29 0
 133 0058 08F10108 		add	r8, r8, #1
 134              	.LVL15:
 135 005c C845     		cmp	r8, r9
 136              	.LBB13:
 137              		.loc 1 43 0
 138 005e A560     		str	r5, [r4, #8]
 139 0060 07F10807 		add	r7, r7, #8
 140              	.LVL16:
 141              	.LBE13:
 142              		.loc 1 29 0
 143 0064 DED1     		bne	.L5
 144              	.LVL17:
 145              	.L6:
 146              		.loc 1 46 0
 147 0066 0A9B     		ldr	r3, [sp, #40]
 148 0068 CBF80030 		str	r3, [fp]
 149 006c BDE8F88F 		pop	{r3, r4, r5, r6, r7, r8, r9, r10, fp, pc}
 150              		.cfi_endproc
 151              	.LFE179:
 152              		.size	PExModulationSourceChange, .-PExModulationSourceChange
 153              		.align	2
 154              		.p2align 4,,15
 155              		.global	PExParameterChange
 156              		.thumb
 157              		.thumb_func
 158              		.type	PExParameterChange, %function
 159              	PExParameterChange:
 160              	.LFB180:
 161              		.loc 1 50 0
 162              		.cfi_startproc
 163              		@ args = 0, pretend = 0, frame = 0
 164              		@ frame_needed = 0, uses_anonymous_args = 0
 165              		@ link register save eliminated.
 166              	.LVL18:
 167 0070 F0B4     		push	{r4, r5, r6, r7}
 168              		.cfi_def_cfa_offset 16
 169              		.cfi_offset 4, -16
 170              		.cfi_offset 5, -12
 171              		.cfi_offset 6, -8
ARM GAS  /tmp/cckZPy9k.s 			page 4


 172              		.cfi_offset 7, -4
 173              		.loc 1 51 0
 174 0072 4568     		ldr	r5, [r0, #4]
 175 0074 0768     		ldr	r7, [r0]
 176              		.loc 1 54 0
 177 0076 0469     		ldr	r4, [r0, #16]
 178              		.loc 1 55 0
 179 0078 C668     		ldr	r6, [r0, #12]
 180              		.loc 1 52 0
 181 007a 0160     		str	r1, [r0]
 182              		.loc 1 51 0
 183 007c ED1B     		subs	r5, r5, r7
 184              		.loc 1 54 0
 185 007e 2243     		orrs	r2, r2, r4
 186              	.LVL19:
 187              		.loc 1 53 0
 188 0080 2944     		add	r1, r1, r5
 189              	.LVL20:
 190              		.loc 1 54 0
 191 0082 0261     		str	r2, [r0, #16]
 192              		.loc 1 53 0
 193 0084 4160     		str	r1, [r0, #4]
 194              		.loc 1 55 0
 195 0086 16B1     		cbz	r6, .L16
 196              		.loc 1 56 0
 197 0088 3346     		mov	r3, r6
 198              		.loc 1 61 0
 199 008a F0BC     		pop	{r4, r5, r6, r7}
 200              		.cfi_remember_state
 201              		.cfi_restore 7
 202              		.cfi_restore 6
 203              		.cfi_restore 5
 204              		.cfi_restore 4
 205              		.cfi_def_cfa_offset 0
 206              		.loc 1 56 0
 207 008c 1847     		bx	r3	@ indirect register sibling call
 208              	.LVL21:
 209              	.L16:
 210              		.cfi_restore_state
 211              		.loc 1 59 0
 212 008e 8160     		str	r1, [r0, #8]
 213              		.loc 1 61 0
 214 0090 F0BC     		pop	{r4, r5, r6, r7}
 215              		.cfi_restore 7
 216              		.cfi_restore 6
 217              		.cfi_restore 5
 218              		.cfi_restore 4
 219              		.cfi_def_cfa_offset 0
 220 0092 7047     		bx	lr
 221              		.cfi_endproc
 222              	.LFE180:
 223              		.size	PExParameterChange, .-PExParameterChange
 224              		.align	2
 225 0094 AFF30080 		.p2align 4,,15
 225      AFF30080 
 225      AFF30080 
 226              		.global	ApplyPreset
ARM GAS  /tmp/cckZPy9k.s 			page 5


 227              		.thumb
 228              		.thumb_func
 229              		.type	ApplyPreset, %function
 230              	ApplyPreset:
 231              	.LFB181:
 232              		.loc 1 63 0
 233              		.cfi_startproc
 234              		@ args = 0, pretend = 0, frame = 0
 235              		@ frame_needed = 0, uses_anonymous_args = 0
 236              		@ link register save eliminated.
 237              	.LVL22:
 238              		.loc 1 65 0
 239 00a0 014B     		ldr	r3, .L19
 240 00a2 1B69     		ldr	r3, [r3, #16]
 241 00a4 1847     		bx	r3	@ indirect register sibling call
 242              	.LVL23:
 243              	.L20:
 244 00a6 00BF     		.align	2
 245              	.L19:
 246 00a8 00000000 		.word	patchMeta
 247              		.cfi_endproc
 248              	.LFE181:
 249              		.size	ApplyPreset, .-ApplyPreset
 250              	.Letext0:
 251              		.file 3 "/d_drive/axoloti/platform_linux/arm-none-eabi/include/machine/_default_types.h"
 252              		.file 4 "/d_drive/axoloti/platform_linux/arm-none-eabi/include/sys/_stdint.h"
 253              		.file 5 "parameters.h"
 254              		.file 6 "midi.h"
 255              		.file 7 "patch.h"
 256              		.file 8 "/d_drive/axoloti/platform_linux/../CMSIS//Include/core_cm4.h"