ARM GAS  /tmp/cckZPy9k.s 			page 1


   1              		.syntax unified
   2              		.cpu cortex-m4
   3              		.eabi_attribute 27, 1
   4              		.eabi_attribute 28, 1
   5              		.fpu fpv4-sp-d16
   6              		.eabi_attribute 20, 1
   7              		.eabi_attribute 21, 1
   8              		.eabi_attribute 23, 3
   9              		.eabi_attribute 24, 1
  10              		.eabi_attribute 25, 1
  11              		.eabi_attribute 26, 1
  12              		.eabi_attribute 30, 2
  13              		.eabi_attribute 34, 1
  14              		.eabi_attribute 18, 4
  15              		.thumb
  16              		.file	"parameters.c"
  17              		.text
  18              	.Ltext0:
  19              		.cfi_sections	.debug_frame
  20              		.align	2
  21              		.p2align 4,,15
  22              		.global	PExModulationSourceChange
  23              		.thumb
  24              		.thumb_func
  25              		.type	PExModulationSourceChange, %function
  26              	PExModulationSourceChange:
  27              	.LFB179:
  28              		.file 1 "parameters.c"
  29              		.loc 1 26 0
  30              		.cfi_startproc
  31              		@ args = 4, pretend = 0, frame = 0
  32              		@ frame_needed = 0, uses_anonymous_args = 0
  33              	.LVL0:
  34 0000 2DE9F84F 		push	{r3, r4, r5, r6, r7, r8, r9, r10, fp, lr}
  35              		.cfi_def_cfa_offset 40
  36              		.cfi_offset 3, -40
  37              		.cfi_offset 4, -36
  38              		.cfi_offset 5, -32
  39              		.cfi_offset 6, -28
  40              		.cfi_offset 7, -24
  41              		.cfi_offset 8, -20
  42              		.cfi_offset 9, -16
  43              		.cfi_offset 10, -12
  44              		.cfi_offset 11, -8
  45              		.cfi_offset 14, -4
  46              		.loc 1 29 0
  47 0004 B1F10009 		subs	r9, r1, #0
  48              		.loc 1 26 0
  49 0008 9B46     		mov	fp, r3
  50              		.loc 1 29 0
  51 000a 2CDD     		ble	.L6
  52 000c 9246     		mov	r10, r2
  53 000e 071D     		adds	r7, r0, #4
  54 0010 4FF00008 		mov	r8, #0
  55 0014 06E0     		b	.L5
  56              	.LVL1:
  57              	.L14:
ARM GAS  /tmp/cckZPy9k.s 			page 2


  58              	.LBB7:
  59              		.loc 1 39 0
  60 0016 9847     		blx	r3
  61              	.LVL2:
  62              	.L3:
  63              	.LBE7:
  64              		.loc 1 29 0 discriminator 2
  65 0018 08F10108 		add	r8, r8, #1
  66              	.LVL3:
  67 001c C845     		cmp	r8, r9
  68 001e 07F10807 		add	r7, r7, #8
  69              	.LVL4:
  70 0022 20D0     		beq	.L6
  71              	.LVL5:
  72              	.L5:
  73              	.LBB12:
  74              		.loc 1 31 0
  75 0024 57F8045C 		ldr	r5, [r7, #-4]
  76              		.loc 1 33 0
  77 0028 05EB8504 		add	r4, r5, r5, lsl #2
  78              		.loc 1 31 0
  79 002c 0135     		adds	r5, r5, #1
  80              		.loc 1 33 0
  81 002e 0AEB8404 		add	r4, r10, r4, lsl #2
  82              	.LVL6:
  83              		.loc 1 31 0
  84 0032 F1D0     		beq	.L3
  85              		.loc 1 34 0
  86 0034 6668     		ldr	r6, [r4, #4]
  87              	.LVL7:
  88              		.loc 1 35 0
  89 0036 3B68     		ldr	r3, [r7]
  90              	.LVL8:
  91              	.LBB8:
  92              	.LBB9:
  93              		.file 2 "axoloti_math.h"
  94              		.loc 2 65 0
  95 0038 DBF80000 		ldr	r0, [fp]
  96              	@ 65 "axoloti_math.h" 1
  97 003c 50FB03F5 		smmul r5, r0, r3
  98              	@ 0 "" 2
  99              	.LVL9:
 100              		.thumb
 101              	.LBE9:
 102              	.LBE8:
 103              		.loc 1 35 0
 104 0040 A6EB4516 		sub	r6, r6, r5, lsl #5
 105              	.LVL10:
 106              	.LBB10:
 107              	.LBB11:
 108              		.loc 2 65 0
 109 0044 0A9A     		ldr	r2, [sp, #40]
 110              	@ 65 "axoloti_math.h" 1
 111 0046 52FB03F5 		smmul r5, r2, r3
 112              	@ 0 "" 2
 113              	.LVL11:
 114              		.thumb
ARM GAS  /tmp/cckZPy9k.s 			page 3


 115              	.LBE11:
 116              	.LBE10:
 117              		.loc 1 38 0
 118 004a E368     		ldr	r3, [r4, #12]
 119              	.LVL12:
 120              		.loc 1 36 0
 121 004c 06EB4515 		add	r5, r6, r5, lsl #5
 122              	.LVL13:
 123              		.loc 1 39 0
 124 0050 2046     		mov	r0, r4
 125              		.loc 1 37 0
 126 0052 6560     		str	r5, [r4, #4]
 127              	.LVL14:
 128              		.loc 1 38 0
 129 0054 002B     		cmp	r3, #0
 130 0056 DED1     		bne	.L14
 131              	.LBE12:
 132              		.loc 1 29 0
 133 0058 08F10108 		add	r8, r8, #1
 134              	.LVL15:
 135 005c C845     		cmp	r8, r9
 136              	.LBB13:
 137              		.loc 1 43 0
 138 005e A560     		str	r5, [r4, #8]
 139 0060 07F10807 		add	r7, r7, #8
 140              	.LVL16:
 141              	.LBE13:
 142              		.loc 1 29 0
 143 0064 DED1     		bne	.L5
 144              	.LVL17:
 145              	.L6:
 146              		.loc 1 46 0
 147 0066 0A9B     		ldr	r3, [sp, #40]
 148 0068 CBF80030 		str	r3, [fp]
 149 006c BDE8F88F 		pop	{r3, r4, r5, r6, r7, r8, r9, r10, fp, pc}
 150              		.cfi_endproc
 151              	.LFE179:
 152              		.size	PExModulationSourceChange, .-PExModulationSourceChange
 153              		.align	2
 154              		.p2align 4,,15
 155              		.global	PExParameterChange
 156              		.thumb
 157              		.thumb_func
 158              		.type	PExParameterChange, %function
 159              	PExParameterChange:
 160              	.LFB180:
 161              		.loc 1 50 0
 162              		.cfi_startproc
 163              		@ args = 0, pretend = 0, frame = 0
 164              		@ frame_needed = 0, uses_anonymous_args = 0
 165              		@ link register save eliminated.
 166              	.LVL18:
 167 0070 F0B4     		push	{r4, r5, r6, r7}
 168              		.cfi_def_cfa_offset 16
 169              		.cfi_offset 4, -16
 170              		.cfi_offset 5, -12
 171              		.cfi_offset 6, -8
ARM GAS  /tmp/cckZPy9k.s 			page 4


 172              		.cfi_offset 7, -4
 173              		.loc 1 51 0
 174 0072 4568     		ldr	r5, [r0, #4]
 175 0074 0768     		ldr	r7, [r0]
 176              		.loc 1 54 0
 177 0076 0469     		ldr	r4, [r0, #16]
 178              		.loc 1 55 0
 179 0078 C668     		ldr	r6, [r0, #12]
 180              		.loc 1 52 0
 181 007a 0160     		str	r1, [r0]
 182              		.loc 1 51 0
 183 007c ED1B     		subs	r5, r5, r7
 184              		.loc 1 54 0
 185 007e 2243     		orrs	r2, r2, r4
 186              	.LVL19:
 187              		.loc 1 53 0
 188 0080 2944     		add	r1, r1, r5
 189              	.LVL20:
 190              		.loc 1 54 0
 191 0082 0261     		str	r2, [r0, #16]
 192              		.loc 1 53 0
 193 0084 4160     		str	r1, [r0, #4]
 194              		.loc 1 55 0
 195 0086 16B1     		cbz	r6, .L16
 196              		.loc 1 56 0
 197 0088 3346     		mov	r3, r6
 198              		.loc 1 61 0
 199 008a F0BC     		pop	{r4, r5, r6, r7}
 200              		.cfi_remember_state
 201              		.cfi_restore 7
 202              		.cfi_restore 6
 203              		.cfi_restore 5
 204              		.cfi_restore 4
 205              		.cfi_def_cfa_offset 0
 206              		.loc 1 56 0
 207 008c 1847     		bx	r3	@ indirect register sibling call
 208              	.LVL21:
 209              	.L16:
 210              		.cfi_restore_state
 211              		.loc 1 59 0
 212 008e 8160     		str	r1, [r0, #8]
 213              		.loc 1 61 0
 214 0090 F0BC     		pop	{r4, r5, r6, r7}
 215              		.cfi_restore 7
 216              		.cfi_restore 6
 217              		.cfi_restore 5
 218              		.cfi_restore 4
 219              		.cfi_def_cfa_offset 0
 220 0092 7047     		bx	lr
 221              		.cfi_endproc
 222              	.LFE180:
 223              		.size	PExParameterChange, .-PExParameterChange
 224              		.align	2
 225 0094 AFF30080 		.p2align 4,,15
 225      AFF30080 
 225      AFF30080 
 226              		.global	ApplyPreset
ARM GAS  /tmp/cckZPy9k.s 			page 5


 227              		.thumb
 228              		.thumb_func
 229              		.type	ApplyPreset, %function
 230              	ApplyPreset:
 231              	.LFB181:
 232              		.loc 1 63 0
 233              		.cfi_startproc
 234              		@ args = 0, pretend = 0, frame = 0
 235              		@ frame_needed = 0, uses_anonymous_args = 0
 236              		@ link register save eliminated.
 237              	.LVL22:
 238              		.loc 1 65 0
 239 00a0 014B     		ldr	r3, .L19
 240 00a2 1B69     		ldr	r3, [r3, #16]
 241 00a4 1847     		bx	r3	@ indirect register sibling call
 242              	.LVL23:
 243              	.L20:
 244 00a6 00BF     		.align	2
 245              	.L19:
 246 00a8 00000000 		.word	patchMeta
 247              		.cfi_endproc
 248              	.LFE181:
 249              		.size	ApplyPreset, .-ApplyPreset
 250              	.Letext0:
 251              		.file 3 "/d_drive/axoloti/platform_linux/arm-none-eabi/include/machine/_default_types.h"
 252              		.file 4 "/d_drive/axoloti/platform_linux/arm-none-eabi/include/sys/_stdint.h"
 253              		.file 5 "parameters.h"
 254              		.file 6 "midi.h"
 255              		.file 7 "patch.h"
 256              		.file 8 "/d_drive/axoloti/platform_linux/../CMSIS//Include/core_cm4.h"
 257              		.section	.debug_info,"",%progbits
 258              	.Ldebug_info0:
 259 0000 88050000 		.4byte	0x588
 260 0004 0400     		.2byte	0x4
 261 0006 00000000 		.4byte	.Ldebug_abbrev0
 262 000a 04       		.byte	0x4
 263 000b 01       		.uleb128 0x1
 264 000c 9F020000 		.4byte	.LASF77
 265 0010 01       		.byte	0x1
 266 0011 69040000 		.4byte	.LASF78
 267 0015 64020000 		.4byte	.LASF79
 268 0019 00000000 		.4byte	.Ltext0
 269 001d AC000000 		.4byte	.Letext0-.Ltext0
 270 0021 00000000 		.4byte	.Ldebug_line0
 271 0025 02       		.uleb128 0x2
 272 0026 01       		.byte	0x1
 273 0027 06       		.byte	0x6
 274 0028 D0010000 		.4byte	.LASF0
 275 002c 03       		.uleb128 0x3
 276 002d 67010000 		.4byte	.LASF2
 277 0031 03       		.byte	0x3
 278 0032 1D       		.byte	0x1d
 279 0033 37000000 		.4byte	0x37
 280 0037 02       		.uleb128 0x2
 281 0038 01       		.byte	0x1
 282 0039 08       		.byte	0x8
 283 003a B2010000 		.4byte	.LASF1
ARM GAS  /tmp/cckZPy9k.s 			page 6


 284 003e 03       		.uleb128 0x3
 285 003f A2040000 		.4byte	.LASF3
 286 0043 03       		.byte	0x3
 287 0044 29       		.byte	0x29
 288 0045 49000000 		.4byte	0x49
 289 0049 02       		.uleb128 0x2
 290 004a 02       		.byte	0x2
 291 004b 05       		.byte	0x5
 292 004c 35000000 		.4byte	.LASF4
 293 0050 02       		.uleb128 0x2
 294 0051 02       		.byte	0x2
 295 0052 07       		.byte	0x7
 296 0053 7E020000 		.4byte	.LASF5
 297 0057 03       		.uleb128 0x3
 298 0058 8F040000 		.4byte	.LASF6
 299 005c 03       		.byte	0x3
 300 005d 3F       		.byte	0x3f
 301 005e 62000000 		.4byte	0x62
 302 0062 02       		.uleb128 0x2
 303 0063 04       		.byte	0x4
 304 0064 05       		.byte	0x5
 305 0065 4F010000 		.4byte	.LASF7
 306 0069 03       		.uleb128 0x3
 307 006a 54000000 		.4byte	.LASF8
 308 006e 03       		.byte	0x3
 309 006f 41       		.byte	0x41
 310 0070 74000000 		.4byte	0x74
 311 0074 02       		.uleb128 0x2
 312 0075 04       		.byte	0x4
 313 0076 07       		.byte	0x7
 314 0077 2E020000 		.4byte	.LASF9
 315 007b 02       		.uleb128 0x2
 316 007c 08       		.byte	0x8
 317 007d 05       		.byte	0x5
 318 007e 0A010000 		.4byte	.LASF10
 319 0082 02       		.uleb128 0x2
 320 0083 08       		.byte	0x8
 321 0084 07       		.byte	0x7
 322 0085 DC010000 		.4byte	.LASF11
 323 0089 04       		.uleb128 0x4
 324 008a 04       		.byte	0x4
 325 008b 05       		.byte	0x5
 326 008c 696E7400 		.ascii	"int\000"
 327 0090 02       		.uleb128 0x2
 328 0091 04       		.byte	0x4
 329 0092 07       		.byte	0x7
 330 0093 21020000 		.4byte	.LASF12
 331 0097 03       		.uleb128 0x3
 332 0098 88010000 		.4byte	.LASF13
 333 009c 04       		.byte	0x4
 334 009d 14       		.byte	0x14
 335 009e 2C000000 		.4byte	0x2c
 336 00a2 03       		.uleb128 0x3
 337 00a3 C4030000 		.4byte	.LASF14
 338 00a7 04       		.byte	0x4
 339 00a8 19       		.byte	0x19
 340 00a9 3E000000 		.4byte	0x3e
ARM GAS  /tmp/cckZPy9k.s 			page 7


 341 00ad 03       		.uleb128 0x3
 342 00ae AB030000 		.4byte	.LASF15
 343 00b2 04       		.byte	0x4
 344 00b3 1F       		.byte	0x1f
 345 00b4 57000000 		.4byte	0x57
 346 00b8 03       		.uleb128 0x3
 347 00b9 B9000000 		.4byte	.LASF16
 348 00bd 04       		.byte	0x4
 349 00be 20       		.byte	0x20
 350 00bf 69000000 		.4byte	0x69
 351 00c3 05       		.uleb128 0x5
 352 00c4 98030000 		.4byte	.LASF80
 353 00c8 14       		.byte	0x14
 354 00c9 05       		.byte	0x5
 355 00ca 26       		.byte	0x26
 356 00cb 0C010000 		.4byte	0x10c
 357 00cf 06       		.uleb128 0x6
 358 00d0 81000000 		.4byte	.LASF17
 359 00d4 05       		.byte	0x5
 360 00d5 27       		.byte	0x27
 361 00d6 AD000000 		.4byte	0xad
 362 00da 00       		.byte	0
 363 00db 06       		.uleb128 0x6
 364 00dc 99040000 		.4byte	.LASF18
 365 00e0 05       		.byte	0x5
 366 00e1 28       		.byte	0x28
 367 00e2 AD000000 		.4byte	0xad
 368 00e6 04       		.byte	0x4
 369 00e7 06       		.uleb128 0x6
 370 00e8 FF000000 		.4byte	.LASF19
 371 00ec 05       		.byte	0x5
 372 00ed 29       		.byte	0x29
 373 00ee AD000000 		.4byte	0xad
 374 00f2 08       		.byte	0x8
 375 00f3 06       		.uleb128 0x6
 376 00f4 F1040000 		.4byte	.LASF20
 377 00f8 05       		.byte	0x5
 378 00f9 2C       		.byte	0x2c
 379 00fa 1D010000 		.4byte	0x11d
 380 00fe 0C       		.byte	0xc
 381 00ff 06       		.uleb128 0x6
 382 0100 B5040000 		.4byte	.LASF21
 383 0104 05       		.byte	0x5
 384 0105 2D       		.byte	0x2d
 385 0106 B8000000 		.4byte	0xb8
 386 010a 10       		.byte	0x10
 387 010b 00       		.byte	0
 388 010c 07       		.uleb128 0x7
 389 010d 17010000 		.4byte	0x117
 390 0111 08       		.uleb128 0x8
 391 0112 17010000 		.4byte	0x117
 392 0116 00       		.byte	0
 393 0117 09       		.uleb128 0x9
 394 0118 04       		.byte	0x4
 395 0119 C3000000 		.4byte	0xc3
 396 011d 09       		.uleb128 0x9
 397 011e 04       		.byte	0x4
ARM GAS  /tmp/cckZPy9k.s 			page 8


 398 011f 0C010000 		.4byte	0x10c
 399 0123 03       		.uleb128 0x3
 400 0124 87000000 		.4byte	.LASF22
 401 0128 05       		.byte	0x5
 402 0129 37       		.byte	0x37
 403 012a C3000000 		.4byte	0xc3
 404 012e 0A       		.uleb128 0xa
 405 012f 08       		.byte	0x8
 406 0130 05       		.byte	0x5
 407 0131 39       		.byte	0x39
 408 0132 4F010000 		.4byte	0x14f
 409 0136 06       		.uleb128 0x6
 410 0137 90010000 		.4byte	.LASF23
 411 013b 05       		.byte	0x5
 412 013c 3A       		.byte	0x3a
 413 013d AD000000 		.4byte	0xad
 414 0141 00       		.byte	0
 415 0142 06       		.uleb128 0x6
 416 0143 04050000 		.4byte	.LASF24
 417 0147 05       		.byte	0x5
 418 0148 3B       		.byte	0x3b
 419 0149 AD000000 		.4byte	0xad
 420 014d 04       		.byte	0x4
 421 014e 00       		.byte	0
 422 014f 03       		.uleb128 0x3
 423 0150 C2000000 		.4byte	.LASF25
 424 0154 05       		.byte	0x5
 425 0155 3C       		.byte	0x3c
 426 0156 2E010000 		.4byte	0x12e
 427 015a 02       		.uleb128 0x2
 428 015b 01       		.byte	0x1
 429 015c 02       		.byte	0x2
 430 015d CC030000 		.4byte	.LASF26
 431 0161 0B       		.uleb128 0xb
 432 0162 04       		.byte	0x4
 433 0163 02       		.uleb128 0x2
 434 0164 04       		.byte	0x4
 435 0165 07       		.byte	0x7
 436 0166 3F000000 		.4byte	.LASF27
 437 016a 02       		.uleb128 0x2
 438 016b 01       		.byte	0x1
 439 016c 08       		.byte	0x8
 440 016d 9A020000 		.4byte	.LASF28
 441 0171 0C       		.uleb128 0xc
 442 0172 AD000000 		.4byte	0xad
 443 0176 02       		.uleb128 0x2
 444 0177 04       		.byte	0x4
 445 0178 04       		.byte	0x4
 446 0179 20040000 		.4byte	.LASF29
 447 017d 09       		.uleb128 0x9
 448 017e 04       		.byte	0x4
 449 017f AD000000 		.4byte	0xad
 450 0183 09       		.uleb128 0x9
 451 0184 04       		.byte	0x4
 452 0185 89010000 		.4byte	0x189
 453 0189 0D       		.uleb128 0xd
 454 018a 09       		.uleb128 0x9
ARM GAS  /tmp/cckZPy9k.s 			page 9


 455 018b 04       		.byte	0x4
 456 018c 23010000 		.4byte	0x123
 457 0190 0E       		.uleb128 0xe
 458 0191 01       		.byte	0x1
 459 0192 06       		.byte	0x6
 460 0193 63       		.byte	0x63
 461 0194 C3010000 		.4byte	0x1c3
 462 0198 0F       		.uleb128 0xf
 463 0199 B3030000 		.4byte	.LASF30
 464 019d 00       		.sleb128 0
 465 019e 0F       		.uleb128 0xf
 466 019f C0010000 		.4byte	.LASF31
 467 01a3 01       		.sleb128 1
 468 01a4 0F       		.uleb128 0xf
 469 01a5 07000000 		.4byte	.LASF32
 470 01a9 02       		.sleb128 2
 471 01aa 0F       		.uleb128 0xf
 472 01ab 12050000 		.4byte	.LASF33
 473 01af 03       		.sleb128 3
 474 01b0 0F       		.uleb128 0xf
 475 01b1 F3010000 		.4byte	.LASF34
 476 01b5 04       		.sleb128 4
 477 01b6 0F       		.uleb128 0xf
 478 01b7 0A020000 		.4byte	.LASF35
 479 01bb 05       		.sleb128 5
 480 01bc 0F       		.uleb128 0xf
 481 01bd 27050000 		.4byte	.LASF36
 482 01c1 0F       		.sleb128 15
 483 01c2 00       		.byte	0
 484 01c3 03       		.uleb128 0x3
 485 01c4 FF030000 		.4byte	.LASF37
 486 01c8 06       		.byte	0x6
 487 01c9 6B       		.byte	0x6b
 488 01ca 90010000 		.4byte	0x190
 489 01ce 03       		.uleb128 0x3
 490 01cf BD040000 		.4byte	.LASF38
 491 01d3 07       		.byte	0x7
 492 01d4 1E       		.byte	0x1e
 493 01d5 D9010000 		.4byte	0x1d9
 494 01d9 09       		.uleb128 0x9
 495 01da 04       		.byte	0x4
 496 01db DF010000 		.4byte	0x1df
 497 01df 07       		.uleb128 0x7
 498 01e0 EA010000 		.4byte	0x1ea
 499 01e4 08       		.uleb128 0x8
 500 01e5 AD000000 		.4byte	0xad
 501 01e9 00       		.byte	0
 502 01ea 03       		.uleb128 0x3
 503 01eb 54040000 		.4byte	.LASF39
 504 01ef 07       		.byte	0x7
 505 01f0 1F       		.byte	0x1f
 506 01f1 83010000 		.4byte	0x183
 507 01f5 03       		.uleb128 0x3
 508 01f6 D8040000 		.4byte	.LASF40
 509 01fa 07       		.byte	0x7
 510 01fb 20       		.byte	0x20
 511 01fc 00020000 		.4byte	0x200
ARM GAS  /tmp/cckZPy9k.s 			page 10


 512 0200 09       		.uleb128 0x9
 513 0201 04       		.byte	0x4
 514 0202 06020000 		.4byte	0x206
 515 0206 07       		.uleb128 0x7
 516 0207 16020000 		.4byte	0x216
 517 020b 08       		.uleb128 0x8
 518 020c 7D010000 		.4byte	0x17d
 519 0210 08       		.uleb128 0x8
 520 0211 7D010000 		.4byte	0x17d
 521 0215 00       		.byte	0
 522 0216 03       		.uleb128 0x3
 523 0217 E2030000 		.4byte	.LASF41
 524 021b 07       		.byte	0x7
 525 021c 21       		.byte	0x21
 526 021d 21020000 		.4byte	0x221
 527 0221 09       		.uleb128 0x9
 528 0222 04       		.byte	0x4
 529 0223 27020000 		.4byte	0x227
 530 0227 07       		.uleb128 0x7
 531 0228 46020000 		.4byte	0x246
 532 022c 08       		.uleb128 0x8
 533 022d C3010000 		.4byte	0x1c3
 534 0231 08       		.uleb128 0x8
 535 0232 97000000 		.4byte	0x97
 536 0236 08       		.uleb128 0x8
 537 0237 97000000 		.4byte	0x97
 538 023b 08       		.uleb128 0x8
 539 023c 97000000 		.4byte	0x97
 540 0240 08       		.uleb128 0x8
 541 0241 97000000 		.4byte	0x97
 542 0245 00       		.byte	0
 543 0246 03       		.uleb128 0x3
 544 0247 76040000 		.4byte	.LASF42
 545 024b 07       		.byte	0x7
 546 024c 22       		.byte	0x22
 547 024d D9010000 		.4byte	0x1d9
 548 0251 0A       		.uleb128 0xa
 549 0252 08       		.byte	0x8
 550 0253 07       		.byte	0x7
 551 0254 24       		.byte	0x24
 552 0255 72020000 		.4byte	0x272
 553 0259 06       		.uleb128 0x6
 554 025a 91020000 		.4byte	.LASF43
 555 025e 07       		.byte	0x7
 556 025f 25       		.byte	0x25
 557 0260 AD000000 		.4byte	0xad
 558 0264 00       		.byte	0
 559 0265 06       		.uleb128 0x6
 560 0266 81000000 		.4byte	.LASF17
 561 026a 07       		.byte	0x7
 562 026b 26       		.byte	0x26
 563 026c AD000000 		.4byte	0xad
 564 0270 04       		.byte	0x4
 565 0271 00       		.byte	0
 566 0272 03       		.uleb128 0x3
 567 0273 E1000000 		.4byte	.LASF44
 568 0277 07       		.byte	0x7
ARM GAS  /tmp/cckZPy9k.s 			page 11


 569 0278 27       		.byte	0x27
 570 0279 51020000 		.4byte	0x251
 571 027d 0A       		.uleb128 0xa
 572 027e 38       		.byte	0x38
 573 027f 07       		.byte	0x7
 574 0280 29       		.byte	0x29
 575 0281 2E030000 		.4byte	0x32e
 576 0285 06       		.uleb128 0x6
 577 0286 A9000000 		.4byte	.LASF45
 578 028a 07       		.byte	0x7
 579 028b 2A       		.byte	0x2a
 580 028c CE010000 		.4byte	0x1ce
 581 0290 00       		.byte	0
 582 0291 06       		.uleb128 0x6
 583 0292 40020000 		.4byte	.LASF46
 584 0296 07       		.byte	0x7
 585 0297 2B       		.byte	0x2b
 586 0298 EA010000 		.4byte	0x1ea
 587 029c 04       		.byte	0x4
 588 029d 06       		.uleb128 0x6
 589 029e 32010000 		.4byte	.LASF47
 590 02a2 07       		.byte	0x7
 591 02a3 2C       		.byte	0x2c
 592 02a4 F5010000 		.4byte	0x1f5
 593 02a8 08       		.byte	0x8
 594 02a9 06       		.uleb128 0x6
 595 02aa 67000000 		.4byte	.LASF48
 596 02ae 07       		.byte	0x7
 597 02af 2D       		.byte	0x2d
 598 02b0 16020000 		.4byte	0x216
 599 02b4 0C       		.byte	0xc
 600 02b5 06       		.uleb128 0x6
 601 02b6 26040000 		.4byte	.LASF49
 602 02ba 07       		.byte	0x7
 603 02bb 2E       		.byte	0x2e
 604 02bc 46020000 		.4byte	0x246
 605 02c0 10       		.byte	0x10
 606 02c1 06       		.uleb128 0x6
 607 02c2 AB010000 		.4byte	.LASF50
 608 02c6 07       		.byte	0x7
 609 02c7 2F       		.byte	0x2f
 610 02c8 B8000000 		.4byte	0xb8
 611 02cc 14       		.byte	0x14
 612 02cd 06       		.uleb128 0x6
 613 02ce 0B050000 		.4byte	.LASF51
 614 02d2 07       		.byte	0x7
 615 02d3 30       		.byte	0x30
 616 02d4 8A010000 		.4byte	0x18a
 617 02d8 18       		.byte	0x18
 618 02d9 06       		.uleb128 0x6
 619 02da 58010000 		.4byte	.LASF52
 620 02de 07       		.byte	0x7
 621 02df 31       		.byte	0x31
 622 02e0 7D010000 		.4byte	0x17d
 623 02e4 1C       		.byte	0x1c
 624 02e5 06       		.uleb128 0x6
 625 02e6 5F000000 		.4byte	.LASF53
ARM GAS  /tmp/cckZPy9k.s 			page 12


 626 02ea 07       		.byte	0x7
 627 02eb 32       		.byte	0x32
 628 02ec B8000000 		.4byte	0xb8
 629 02f0 20       		.byte	0x20
 630 02f1 06       		.uleb128 0x6
 631 02f2 1E000000 		.4byte	.LASF54
 632 02f6 07       		.byte	0x7
 633 02f7 33       		.byte	0x33
 634 02f8 B8000000 		.4byte	0xb8
 635 02fc 24       		.byte	0x24
 636 02fd 06       		.uleb128 0x6
 637 02fe 48000000 		.4byte	.LASF55
 638 0302 07       		.byte	0x7
 639 0303 34       		.byte	0x34
 640 0304 61010000 		.4byte	0x161
 641 0308 28       		.byte	0x28
 642 0309 06       		.uleb128 0x6
 643 030a FB040000 		.4byte	.LASF56
 644 030e 07       		.byte	0x7
 645 030f 35       		.byte	0x35
 646 0310 B8000000 		.4byte	0xb8
 647 0314 2C       		.byte	0x2c
 648 0315 06       		.uleb128 0x6
 649 0316 D2030000 		.4byte	.LASF57
 650 031a 07       		.byte	0x7
 651 031b 36       		.byte	0x36
 652 031c B8000000 		.4byte	0xb8
 653 0320 30       		.byte	0x30
 654 0321 06       		.uleb128 0x6
 655 0322 37040000 		.4byte	.LASF58
 656 0326 07       		.byte	0x7
 657 0327 37       		.byte	0x37
 658 0328 2E030000 		.4byte	0x32e
 659 032c 34       		.byte	0x34
 660 032d 00       		.byte	0
 661 032e 09       		.uleb128 0x9
 662 032f 04       		.byte	0x4
 663 0330 72020000 		.4byte	0x272
 664 0334 03       		.uleb128 0x3
 665 0335 7C010000 		.4byte	.LASF59
 666 0339 07       		.byte	0x7
 667 033a 38       		.byte	0x38
 668 033b 7D020000 		.4byte	0x27d
 669 033f 02       		.uleb128 0x2
 670 0340 08       		.byte	0x8
 671 0341 04       		.byte	0x4
 672 0342 40040000 		.4byte	.LASF60
 673 0346 02       		.uleb128 0x2
 674 0347 08       		.byte	0x8
 675 0348 04       		.byte	0x4
 676 0349 9F010000 		.4byte	.LASF61
 677 034d 10       		.uleb128 0x10
 678 034e AC040000 		.4byte	.LASF81
 679 0352 02       		.byte	0x2
 680 0353 3D       		.byte	0x3d
 681 0354 AD000000 		.4byte	0xad
 682 0358 03       		.byte	0x3
ARM GAS  /tmp/cckZPy9k.s 			page 13


 683 0359 7F030000 		.4byte	0x37f
 684 035d 11       		.uleb128 0x11
 685 035e 6F703100 		.ascii	"op1\000"
 686 0362 02       		.byte	0x2
 687 0363 3D       		.byte	0x3d
 688 0364 AD000000 		.4byte	0xad
 689 0368 11       		.uleb128 0x11
 690 0369 6F703200 		.ascii	"op2\000"
 691 036d 02       		.byte	0x2
 692 036e 3D       		.byte	0x3d
 693 036f AD000000 		.4byte	0xad
 694 0373 12       		.uleb128 0x12
 695 0374 00000000 		.4byte	.LASF82
 696 0378 02       		.byte	0x2
 697 0379 3F       		.byte	0x3f
 698 037a AD000000 		.4byte	0xad
 699 037e 00       		.byte	0
 700 037f 13       		.uleb128 0x13
 701 0380 18010000 		.4byte	.LASF67
 702 0384 01       		.byte	0x1
 703 0385 16       		.byte	0x16
 704 0386 00000000 		.4byte	.LFB179
 705 038a 70000000 		.4byte	.LFE179-.LFB179
 706 038e 01       		.uleb128 0x1
 707 038f 9C       		.byte	0x9c
 708 0390 98040000 		.4byte	0x498
 709 0394 14       		.uleb128 0x14
 710 0395 59020000 		.4byte	.LASF62
 711 0399 01       		.byte	0x1
 712 039a 16       		.byte	0x16
 713 039b 98040000 		.4byte	0x498
 714 039f 00000000 		.4byte	.LLST0
 715 03a3 14       		.uleb128 0x14
 716 03a4 D8000000 		.4byte	.LASF63
 717 03a8 01       		.byte	0x1
 718 03a9 17       		.byte	0x17
 719 03aa AD000000 		.4byte	0xad
 720 03ae 21000000 		.4byte	.LLST1
 721 03b2 14       		.uleb128 0x14
 722 03b3 71010000 		.4byte	.LASF64
 723 03b7 01       		.byte	0x1
 724 03b8 18       		.byte	0x18
 725 03b9 8A010000 		.4byte	0x18a
 726 03bd 3F000000 		.4byte	.LLST2
 727 03c1 14       		.uleb128 0x14
 728 03c2 CF040000 		.4byte	.LASF65
 729 03c6 01       		.byte	0x1
 730 03c7 19       		.byte	0x19
 731 03c8 7D010000 		.4byte	0x17d
 732 03cc 6B000000 		.4byte	.LLST3
 733 03d0 15       		.uleb128 0x15
 734 03d1 81000000 		.4byte	.LASF17
 735 03d5 01       		.byte	0x1
 736 03d6 1A       		.byte	0x1a
 737 03d7 AD000000 		.4byte	0xad
 738 03db 02       		.uleb128 0x2
 739 03dc 91       		.byte	0x91
ARM GAS  /tmp/cckZPy9k.s 			page 14


 740 03dd 00       		.sleb128 0
 741 03de 16       		.uleb128 0x16
 742 03df 7300     		.ascii	"s\000"
 743 03e1 01       		.byte	0x1
 744 03e2 1B       		.byte	0x1b
 745 03e3 98040000 		.4byte	0x498
 746 03e7 00000000 		.4byte	.LLST0
 747 03eb 16       		.uleb128 0x16
 748 03ec 7400     		.ascii	"t\000"
 749 03ee 01       		.byte	0x1
 750 03ef 1C       		.byte	0x1c
 751 03f0 89000000 		.4byte	0x89
 752 03f4 89000000 		.4byte	.LLST5
 753 03f8 17       		.uleb128 0x17
 754 03f9 00000000 		.4byte	.Ldebug_ranges0+0
 755 03fd 18       		.uleb128 0x18
 756 03fe 2E000000 		.4byte	.LASF66
 757 0402 01       		.byte	0x1
 758 0403 1E       		.byte	0x1e
 759 0404 98040000 		.4byte	0x498
 760 0408 A8000000 		.4byte	.LLST6
 761 040c 16       		.uleb128 0x16
 762 040d 50457800 		.ascii	"PEx\000"
 763 0411 01       		.byte	0x1
 764 0412 21       		.byte	0x21
 765 0413 8A010000 		.4byte	0x18a
 766 0417 E4000000 		.4byte	.LLST7
 767 041b 16       		.uleb128 0x16
 768 041c 7600     		.ascii	"v\000"
 769 041e 01       		.byte	0x1
 770 041f 22       		.byte	0x22
 771 0420 AD000000 		.4byte	0xad
 772 0424 0D010000 		.4byte	.LLST8
 773 0428 19       		.uleb128 0x19
 774 0429 4D030000 		.4byte	0x34d
 775 042d 38000000 		.4byte	.LBB8
 776 0431 08000000 		.4byte	.LBE8-.LBB8
 777 0435 01       		.byte	0x1
 778 0436 23       		.byte	0x23
 779 0437 61040000 		.4byte	0x461
 780 043b 1A       		.uleb128 0x1a
 781 043c 68030000 		.4byte	0x368
 782 0440 36010000 		.4byte	.LLST9
 783 0444 1A       		.uleb128 0x1a
 784 0445 5D030000 		.4byte	0x35d
 785 0449 55010000 		.4byte	.LLST10
 786 044d 1B       		.uleb128 0x1b
 787 044e 38000000 		.4byte	.LBB9
 788 0452 08000000 		.4byte	.LBE9-.LBB9
 789 0456 1C       		.uleb128 0x1c
 790 0457 73030000 		.4byte	0x373
 791 045b 69010000 		.4byte	.LLST11
 792 045f 00       		.byte	0
 793 0460 00       		.byte	0
 794 0461 1D       		.uleb128 0x1d
 795 0462 4D030000 		.4byte	0x34d
 796 0466 44000000 		.4byte	.LBB10
ARM GAS  /tmp/cckZPy9k.s 			page 15


 797 046a 06000000 		.4byte	.LBE10-.LBB10
 798 046e 01       		.byte	0x1
 799 046f 24       		.byte	0x24
 800 0470 1A       		.uleb128 0x1a
 801 0471 68030000 		.4byte	0x368
 802 0475 7C010000 		.4byte	.LLST12
 803 0479 1A       		.uleb128 0x1a
 804 047a 5D030000 		.4byte	0x35d
 805 047e 9B010000 		.4byte	.LLST13
 806 0482 1B       		.uleb128 0x1b
 807 0483 44000000 		.4byte	.LBB11
 808 0487 06000000 		.4byte	.LBE11-.LBB11
 809 048b 1C       		.uleb128 0x1c
 810 048c 73030000 		.4byte	0x373
 811 0490 C6010000 		.4byte	.LLST14
 812 0494 00       		.byte	0
 813 0495 00       		.byte	0
 814 0496 00       		.byte	0
 815 0497 00       		.byte	0
 816 0498 09       		.uleb128 0x9
 817 0499 04       		.byte	0x4
 818 049a 4F010000 		.4byte	0x14f
 819 049e 1E       		.uleb128 0x1e
 820 049f 0D040000 		.4byte	.LASF68
 821 04a3 01       		.byte	0x1
 822 04a4 31       		.byte	0x31
 823 04a5 70000000 		.4byte	.LFB180
 824 04a9 24000000 		.4byte	.LFE180-.LFB180
 825 04ad 01       		.uleb128 0x1
 826 04ae 9C       		.byte	0x9c
 827 04af EE040000 		.4byte	0x4ee
 828 04b3 14       		.uleb128 0x14
 829 04b4 53020000 		.4byte	.LASF69
 830 04b8 01       		.byte	0x1
 831 04b9 31       		.byte	0x31
 832 04ba 8A010000 		.4byte	0x18a
 833 04be D9010000 		.4byte	.LLST15
 834 04c2 14       		.uleb128 0x14
 835 04c3 81000000 		.4byte	.LASF17
 836 04c7 01       		.byte	0x1
 837 04c8 31       		.byte	0x31
 838 04c9 AD000000 		.4byte	0xad
 839 04cd 05020000 		.4byte	.LLST16
 840 04d1 14       		.uleb128 0x14
 841 04d2 B5040000 		.4byte	.LASF21
 842 04d6 01       		.byte	0x1
 843 04d7 32       		.byte	0x32
 844 04d8 B8000000 		.4byte	0xb8
 845 04dc 3E020000 		.4byte	.LLST17
 846 04e0 1F       		.uleb128 0x1f
 847 04e1 8E000000 		.4byte	.LVL21
 848 04e5 20       		.uleb128 0x20
 849 04e6 01       		.uleb128 0x1
 850 04e7 50       		.byte	0x50
 851 04e8 03       		.uleb128 0x3
 852 04e9 F3       		.byte	0xf3
 853 04ea 01       		.uleb128 0x1
ARM GAS  /tmp/cckZPy9k.s 			page 16


 854 04eb 50       		.byte	0x50
 855 04ec 00       		.byte	0
 856 04ed 00       		.byte	0
 857 04ee 1E       		.uleb128 0x1e
 858 04ef 43010000 		.4byte	.LASF70
 859 04f3 01       		.byte	0x1
 860 04f4 3F       		.byte	0x3f
 861 04f5 A0000000 		.4byte	.LFB181
 862 04f9 0C000000 		.4byte	.LFE181-.LFB181
 863 04fd 01       		.uleb128 0x1
 864 04fe 9C       		.byte	0x9c
 865 04ff 20050000 		.4byte	0x520
 866 0503 14       		.uleb128 0x14
 867 0504 A3000000 		.4byte	.LASF71
 868 0508 01       		.byte	0x1
 869 0509 3F       		.byte	0x3f
 870 050a 90000000 		.4byte	0x90
 871 050e 5F020000 		.4byte	.LLST18
 872 0512 1F       		.uleb128 0x1f
 873 0513 A6000000 		.4byte	.LVL23
 874 0517 20       		.uleb128 0x20
 875 0518 01       		.uleb128 0x1
 876 0519 50       		.byte	0x50
 877 051a 03       		.uleb128 0x3
 878 051b F3       		.byte	0xf3
 879 051c 01       		.uleb128 0x1
 880 051d 50       		.byte	0x50
 881 051e 00       		.byte	0
 882 051f 00       		.byte	0
 883 0520 21       		.uleb128 0x21
 884 0521 47040000 		.4byte	.LASF72
 885 0525 08       		.byte	0x8
 886 0526 DF07     		.2byte	0x7df
 887 0528 71010000 		.4byte	0x171
 888 052c 22       		.uleb128 0x22
 889 052d F5000000 		.4byte	.LASF73
 890 0531 07       		.byte	0x7
 891 0532 3A       		.byte	0x3a
 892 0533 34030000 		.4byte	0x334
 893 0537 23       		.uleb128 0x23
 894 0538 AD000000 		.4byte	0xad
 895 053c 48050000 		.4byte	0x548
 896 0540 24       		.uleb128 0x24
 897 0541 63010000 		.4byte	0x163
 898 0545 0010     		.2byte	0x1000
 899 0547 00       		.byte	0
 900 0548 22       		.uleb128 0x22
 901 0549 3C050000 		.4byte	.LASF74
 902 054d 02       		.byte	0x2
 903 054e 26       		.byte	0x26
 904 054f 37050000 		.4byte	0x537
 905 0553 23       		.uleb128 0x23
 906 0554 A2000000 		.4byte	0xa2
 907 0558 64050000 		.4byte	0x564
 908 055c 24       		.uleb128 0x24
 909 055d 63010000 		.4byte	0x163
 910 0561 0004     		.2byte	0x400
ARM GAS  /tmp/cckZPy9k.s 			page 17


 911 0563 00       		.byte	0
 912 0564 22       		.uleb128 0x22
 913 0565 9B000000 		.4byte	.LASF75
 914 0569 02       		.byte	0x2
 915 056a 28       		.byte	0x28
 916 056b 53050000 		.4byte	0x553
 917 056f 23       		.uleb128 0x23
 918 0570 B8000000 		.4byte	0xb8
 919 0574 80050000 		.4byte	0x580
 920 0578 24       		.uleb128 0x24
 921 0579 63010000 		.4byte	0x163
 922 057d 0001     		.2byte	0x100
 923 057f 00       		.byte	0
 924 0580 22       		.uleb128 0x22
 925 0581 7A000000 		.4byte	.LASF76
 926 0585 02       		.byte	0x2
 927 0586 2A       		.byte	0x2a
 928 0587 6F050000 		.4byte	0x56f
 929 058b 00       		.byte	0
 930              		.section	.debug_abbrev,"",%progbits
 931              	.Ldebug_abbrev0:
 932 0000 01       		.uleb128 0x1
 933 0001 11       		.uleb128 0x11
 934 0002 01       		.byte	0x1
 935 0003 25       		.uleb128 0x25
 936 0004 0E       		.uleb128 0xe
 937 0005 13       		.uleb128 0x13
 938 0006 0B       		.uleb128 0xb
 939 0007 03       		.uleb128 0x3
 940 0008 0E       		.uleb128 0xe
 941 0009 1B       		.uleb128 0x1b
 942 000a 0E       		.uleb128 0xe
 943 000b 11       		.uleb128 0x11
 944 000c 01       		.uleb128 0x1
 945 000d 12       		.uleb128 0x12
 946 000e 06       		.uleb128 0x6
 947 000f 10       		.uleb128 0x10
 948 0010 17       		.uleb128 0x17
 949 0011 00       		.byte	0
 950 0012 00       		.byte	0
 951 0013 02       		.uleb128 0x2
 952 0014 24       		.uleb128 0x24
 953 0015 00       		.byte	0
 954 0016 0B       		.uleb128 0xb
 955 0017 0B       		.uleb128 0xb
 956 0018 3E       		.uleb128 0x3e
 957 0019 0B       		.uleb128 0xb
 958 001a 03       		.uleb128 0x3
 959 001b 0E       		.uleb128 0xe
 960 001c 00       		.byte	0
 961 001d 00       		.byte	0
 962 001e 03       		.uleb128 0x3
 963 001f 16       		.uleb128 0x16
 964 0020 00       		.byte	0
 965 0021 03       		.uleb128 0x3
 966 0022 0E       		.uleb128 0xe
 967 0023 3A       		.uleb128 0x3a
ARM GAS  /tmp/cckZPy9k.s 			page 18


 968 0024 0B       		.uleb128 0xb
 969 0025 3B       		.uleb128 0x3b
 970 0026 0B       		.uleb128 0xb
 971 0027 49       		.uleb128 0x49
 972 0028 13       		.uleb128 0x13
 973 0029 00       		.byte	0
 974 002a 00       		.byte	0
 975 002b 04       		.uleb128 0x4
 976 002c 24       		.uleb128 0x24
 977 002d 00       		.byte	0
 978 002e 0B       		.uleb128 0xb
 979 002f 0B       		.uleb128 0xb
 980 0030 3E       		.uleb128 0x3e
 981 0031 0B       		.uleb128 0xb
 982 0032 03       		.uleb128 0x3
 983 0033 08       		.uleb128 0x8
 984 0034 00       		.byte	0
 985 0035 00       		.byte	0
 986 0036 05       		.uleb128 0x5
 987 0037 13       		.uleb128 0x13
 988 0038 01       		.byte	0x1
 989 0039 03       		.uleb128 0x3
 990 003a 0E       		.uleb128 0xe
 991 003b 0B       		.uleb128 0xb
 992 003c 0B       		.uleb128 0xb
 993 003d 3A       		.uleb128 0x3a
 994 003e 0B       		.uleb128 0xb
 995 003f 3B       		.uleb128 0x3b
 996 0040 0B       		.uleb128 0xb
 997 0041 01       		.uleb128 0x1
 998 0042 13       		.uleb128 0x13
 999 0043 00       		.byte	0
 1000 0044 00       		.byte	0
 1001 0045 06       		.uleb128 0x6
 1002 0046 0D       		.uleb128 0xd
 1003 0047 00       		.byte	0
 1004 0048 03       		.uleb128 0x3
 1005 0049 0E       		.uleb128 0xe
 1006 004a 3A       		.uleb128 0x3a
 1007 004b 0B       		.uleb128 0xb
 1008 004c 3B       		.uleb128 0x3b
 1009 004d 0B       		.uleb128 0xb
 1010 004e 49       		.uleb128 0x49
 1011 004f 13       		.uleb128 0x13
 1012 0050 38       		.uleb128 0x38
 1013 0051 0B       		.uleb128 0xb
 1014 0052 00       		.byte	0
 1015 0053 00       		.byte	0
 1016 0054 07       		.uleb128 0x7
 1017 0055 15       		.uleb128 0x15
 1018 0056 01       		.byte	0x1
 1019 0057 27       		.uleb128 0x27
 1020 0058 19       		.uleb128 0x19
 1021 0059 01       		.uleb128 0x1
 1022 005a 13       		.uleb128 0x13
 1023 005b 00       		.byte	0
 1024 005c 00       		.byte	0
ARM GAS  /tmp/cckZPy9k.s 			page 19


 1025 005d 08       		.uleb128 0x8
 1026 005e 05       		.uleb128 0x5
 1027 005f 00       		.byte	0
 1028 0060 49       		.uleb128 0x49
 1029 0061 13       		.uleb128 0x13
 1030 0062 00       		.byte	0
 1031 0063 00       		.byte	0
 1032 0064 09       		.uleb128 0x9
 1033 0065 0F       		.uleb128 0xf
 1034 0066 00       		.byte	0
 1035 0067 0B       		.uleb128 0xb
 1036 0068 0B       		.uleb128 0xb
 1037 0069 49       		.uleb128 0x49
 1038 006a 13       		.uleb128 0x13
 1039 006b 00       		.byte	0
 1040 006c 00       		.byte	0
 1041 006d 0A       		.uleb128 0xa
 1042 006e 13       		.uleb128 0x13
 1043 006f 01       		.byte	0x1
 1044 0070 0B       		.uleb128 0xb
 1045 0071 0B       		.uleb128 0xb
 1046 0072 3A       		.uleb128 0x3a
 1047 0073 0B       		.uleb128 0xb
 1048 0074 3B       		.uleb128 0x3b
 1049 0075 0B       		.uleb128 0xb
 1050 0076 01       		.uleb128 0x1
 1051 0077 13       		.uleb128 0x13
 1052 0078 00       		.byte	0
 1053 0079 00       		.byte	0
 1054 007a 0B       		.uleb128 0xb
 1055 007b 0F       		.uleb128 0xf
 1056 007c 00       		.byte	0
 1057 007d 0B       		.uleb128 0xb
 1058 007e 0B       		.uleb128 0xb
 1059 007f 00       		.byte	0
 1060 0080 00       		.byte	0
 1061 0081 0C       		.uleb128 0xc
 1062 0082 35       		.uleb128 0x35
 1063 0083 00       		.byte	0
 1064 0084 49       		.uleb128 0x49
 1065 0085 13       		.uleb128 0x13
 1066 0086 00       		.byte	0
 1067 0087 00       		.byte	0
 1068 0088 0D       		.uleb128 0xd
 1069 0089 15       		.uleb128 0x15
 1070 008a 00       		.byte	0
 1071 008b 27       		.uleb128 0x27
 1072 008c 19       		.uleb128 0x19
 1073 008d 00       		.byte	0
 1074 008e 00       		.byte	0
 1075 008f 0E       		.uleb128 0xe
 1076 0090 04       		.uleb128 0x4
 1077 0091 01       		.byte	0x1
 1078 0092 0B       		.uleb128 0xb
 1079 0093 0B       		.uleb128 0xb
 1080 0094 3A       		.uleb128 0x3a
 1081 0095 0B       		.uleb128 0xb
ARM GAS  /tmp/cckZPy9k.s 			page 20


 1082 0096 3B       		.uleb128 0x3b
 1083 0097 0B       		.uleb128 0xb
 1084 0098 01       		.uleb128 0x1
 1085 0099 13       		.uleb128 0x13
 1086 009a 00       		.byte	0
 1087 009b 00       		.byte	0
 1088 009c 0F       		.uleb128 0xf
 1089 009d 28       		.uleb128 0x28
 1090 009e 00       		.byte	0
 1091 009f 03       		.uleb128 0x3
 1092 00a0 0E       		.uleb128 0xe
 1093 00a1 1C       		.uleb128 0x1c
 1094 00a2 0D       		.uleb128 0xd
 1095 00a3 00       		.byte	0
 1096 00a4 00       		.byte	0
 1097 00a5 10       		.uleb128 0x10
 1098 00a6 2E       		.uleb128 0x2e
 1099 00a7 01       		.byte	0x1
 1100 00a8 03       		.uleb128 0x3
 1101 00a9 0E       		.uleb128 0xe
 1102 00aa 3A       		.uleb128 0x3a
 1103 00ab 0B       		.uleb128 0xb
 1104 00ac 3B       		.uleb128 0x3b
 1105 00ad 0B       		.uleb128 0xb
 1106 00ae 27       		.uleb128 0x27
 1107 00af 19       		.uleb128 0x19
 1108 00b0 49       		.uleb128 0x49
 1109 00b1 13       		.uleb128 0x13
 1110 00b2 20       		.uleb128 0x20
 1111 00b3 0B       		.uleb128 0xb
 1112 00b4 01       		.uleb128 0x1
 1113 00b5 13       		.uleb128 0x13
 1114 00b6 00       		.byte	0
 1115 00b7 00       		.byte	0
 1116 00b8 11       		.uleb128 0x11
 1117 00b9 05       		.uleb128 0x5
 1118 00ba 00       		.byte	0
 1119 00bb 03       		.uleb128 0x3
 1120 00bc 08       		.uleb128 0x8
 1121 00bd 3A       		.uleb128 0x3a
 1122 00be 0B       		.uleb128 0xb
 1123 00bf 3B       		.uleb128 0x3b
 1124 00c0 0B       		.uleb128 0xb
 1125 00c1 49       		.uleb128 0x49
 1126 00c2 13       		.uleb128 0x13
 1127 00c3 00       		.byte	0
 1128 00c4 00       		.byte	0
 1129 00c5 12       		.uleb128 0x12
 1130 00c6 34       		.uleb128 0x34
 1131 00c7 00       		.byte	0
 1132 00c8 03       		.uleb128 0x3
 1133 00c9 0E       		.uleb128 0xe
 1134 00ca 3A       		.uleb128 0x3a
 1135 00cb 0B       		.uleb128 0xb
 1136 00cc 3B       		.uleb128 0x3b
 1137 00cd 0B       		.uleb128 0xb
 1138 00ce 49       		.uleb128 0x49
ARM GAS  /tmp/cckZPy9k.s 			page 21


 1139 00cf 13       		.uleb128 0x13
 1140 00d0 00       		.byte	0
 1141 00d1 00       		.byte	0
 1142 00d2 13       		.uleb128 0x13
 1143 00d3 2E       		.uleb128 0x2e
 1144 00d4 01       		.byte	0x1
 1145 00d5 3F       		.uleb128 0x3f
 1146 00d6 19       		.uleb128 0x19
 1147 00d7 03       		.uleb128 0x3
 1148 00d8 0E       		.uleb128 0xe
 1149 00d9 3A       		.uleb128 0x3a
 1150 00da 0B       		.uleb128 0xb
 1151 00db 3B       		.uleb128 0x3b
 1152 00dc 0B       		.uleb128 0xb
 1153 00dd 27       		.uleb128 0x27
 1154 00de 19       		.uleb128 0x19
 1155 00df 11       		.uleb128 0x11
 1156 00e0 01       		.uleb128 0x1
 1157 00e1 12       		.uleb128 0x12
 1158 00e2 06       		.uleb128 0x6
 1159 00e3 40       		.uleb128 0x40
 1160 00e4 18       		.uleb128 0x18
 1161 00e5 9642     		.uleb128 0x2116
 1162 00e7 19       		.uleb128 0x19
 1163 00e8 01       		.uleb128 0x1
 1164 00e9 13       		.uleb128 0x13
 1165 00ea 00       		.byte	0
 1166 00eb 00       		.byte	0
 1167 00ec 14       		.uleb128 0x14
 1168 00ed 05       		.uleb128 0x5
 1169 00ee 00       		.byte	0
 1170 00ef 03       		.uleb128 0x3
 1171 00f0 0E       		.uleb128 0xe
 1172 00f1 3A       		.uleb128 0x3a
 1173 00f2 0B       		.uleb128 0xb
 1174 00f3 3B       		.uleb128 0x3b
 1175 00f4 0B       		.uleb128 0xb
 1176 00f5 49       		.uleb128 0x49
 1177 00f6 13       		.uleb128 0x13
 1178 00f7 02       		.uleb128 0x2
 1179 00f8 17       		.uleb128 0x17
 1180 00f9 00       		.byte	0
 1181 00fa 00       		.byte	0
 1182 00fb 15       		.uleb128 0x15
 1183 00fc 05       		.uleb128 0x5
 1184 00fd 00       		.byte	0
 1185 00fe 03       		.uleb128 0x3
 1186 00ff 0E       		.uleb128 0xe
 1187 0100 3A       		.uleb128 0x3a
 1188 0101 0B       		.uleb128 0xb
 1189 0102 3B       		.uleb128 0x3b
 1190 0103 0B       		.uleb128 0xb
 1191 0104 49       		.uleb128 0x49
 1192 0105 13       		.uleb128 0x13
 1193 0106 02       		.uleb128 0x2
 1194 0107 18       		.uleb128 0x18
 1195 0108 00       		.byte	0
ARM GAS  /tmp/cckZPy9k.s 			page 22


 1196 0109 00       		.byte	0
 1197 010a 16       		.uleb128 0x16
 1198 010b 34       		.uleb128 0x34
 1199 010c 00       		.byte	0
 1200 010d 03       		.uleb128 0x3
 1201 010e 08       		.uleb128 0x8
 1202 010f 3A       		.uleb128 0x3a
 1203 0110 0B       		.uleb128 0xb
 1204 0111 3B       		.uleb128 0x3b
 1205 0112 0B       		.uleb128 0xb
 1206 0113 49       		.uleb128 0x49
 1207 0114 13       		.uleb128 0x13
 1208 0115 02       		.uleb128 0x2
 1209 0116 17       		.uleb128 0x17
 1210 0117 00       		.byte	0
 1211 0118 00       		.byte	0
 1212 0119 17       		.uleb128 0x17
 1213 011a 0B       		.uleb128 0xb
 1214 011b 01       		.byte	0x1
 1215 011c 55       		.uleb128 0x55
 1216 011d 17       		.uleb128 0x17
 1217 011e 00       		.byte	0
 1218 011f 00       		.byte	0
 1219 0120 18       		.uleb128 0x18
 1220 0121 34       		.uleb128 0x34
 1221 0122 00       		.byte	0
 1222 0123 03       		.uleb128 0x3
 1223 0124 0E       		.uleb128 0xe
 1224 0125 3A       		.uleb128 0x3a
 1225 0126 0B       		.uleb128 0xb
 1226 0127 3B       		.uleb128 0x3b
 1227 0128 0B       		.uleb128 0xb
 1228 0129 49       		.uleb128 0x49
 1229 012a 13       		.uleb128 0x13
 1230 012b 02       		.uleb128 0x2
 1231 012c 17       		.uleb128 0x17
 1232 012d 00       		.byte	0
 1233 012e 00       		.byte	0
 1234 012f 19       		.uleb128 0x19
 1235 0130 1D       		.uleb128 0x1d
 1236 0131 01       		.byte	0x1
 1237 0132 31       		.uleb128 0x31
 1238 0133 13       		.uleb128 0x13
 1239 0134 11       		.uleb128 0x11
 1240 0135 01       		.uleb128 0x1
 1241 0136 12       		.uleb128 0x12
 1242 0137 06       		.uleb128 0x6
 1243 0138 58       		.uleb128 0x58
 1244 0139 0B       		.uleb128 0xb
 1245 013a 59       		.uleb128 0x59
 1246 013b 0B       		.uleb128 0xb
 1247 013c 01       		.uleb128 0x1
 1248 013d 13       		.uleb128 0x13
 1249 013e 00       		.byte	0
 1250 013f 00       		.byte	0
 1251 0140 1A       		.uleb128 0x1a
 1252 0141 05       		.uleb128 0x5
ARM GAS  /tmp/cckZPy9k.s 			page 23


 1253 0142 00       		.byte	0
 1254 0143 31       		.uleb128 0x31
 1255 0144 13       		.uleb128 0x13
 1256 0145 02       		.uleb128 0x2
 1257 0146 17       		.uleb128 0x17
 1258 0147 00       		.byte	0
 1259 0148 00       		.byte	0
 1260 0149 1B       		.uleb128 0x1b
 1261 014a 0B       		.uleb128 0xb
 1262 014b 01       		.byte	0x1
 1263 014c 11       		.uleb128 0x11
 1264 014d 01       		.uleb128 0x1
 1265 014e 12       		.uleb128 0x12
 1266 014f 06       		.uleb128 0x6
 1267 0150 00       		.byte	0
 1268 0151 00       		.byte	0
 1269 0152 1C       		.uleb128 0x1c
 1270 0153 34       		.uleb128 0x34
 1271 0154 00       		.byte	0
 1272 0155 31       		.uleb128 0x31
 1273 0156 13       		.uleb128 0x13
 1274 0157 02       		.uleb128 0x2
 1275 0158 17       		.uleb128 0x17
 1276 0159 00       		.byte	0
 1277 015a 00       		.byte	0
 1278 015b 1D       		.uleb128 0x1d
 1279 015c 1D       		.uleb128 0x1d
 1280 015d 01       		.byte	0x1
 1281 015e 31       		.uleb128 0x31
 1282 015f 13       		.uleb128 0x13
 1283 0160 11       		.uleb128 0x11
 1284 0161 01       		.uleb128 0x1
 1285 0162 12       		.uleb128 0x12
 1286 0163 06       		.uleb128 0x6
 1287 0164 58       		.uleb128 0x58
 1288 0165 0B       		.uleb128 0xb
 1289 0166 59       		.uleb128 0x59
 1290 0167 0B       		.uleb128 0xb
 1291 0168 00       		.byte	0
 1292 0169 00       		.byte	0
 1293 016a 1E       		.uleb128 0x1e
 1294 016b 2E       		.uleb128 0x2e
 1295 016c 01       		.byte	0x1
 1296 016d 3F       		.uleb128 0x3f
 1297 016e 19       		.uleb128 0x19
 1298 016f 03       		.uleb128 0x3
 1299 0170 0E       		.uleb128 0xe
 1300 0171 3A       		.uleb128 0x3a
 1301 0172 0B       		.uleb128 0xb
 1302 0173 3B       		.uleb128 0x3b
 1303 0174 0B       		.uleb128 0xb
 1304 0175 27       		.uleb128 0x27
 1305 0176 19       		.uleb128 0x19
 1306 0177 11       		.uleb128 0x11
 1307 0178 01       		.uleb128 0x1
 1308 0179 12       		.uleb128 0x12
 1309 017a 06       		.uleb128 0x6
ARM GAS  /tmp/cckZPy9k.s 			page 24


 1310 017b 40       		.uleb128 0x40
 1311 017c 18       		.uleb128 0x18
 1312 017d 9742     		.uleb128 0x2117
 1313 017f 19       		.uleb128 0x19
 1314 0180 01       		.uleb128 0x1
 1315 0181 13       		.uleb128 0x13
 1316 0182 00       		.byte	0
 1317 0183 00       		.byte	0
 1318 0184 1F       		.uleb128 0x1f
 1319 0185 898201   		.uleb128 0x4109
 1320 0188 01       		.byte	0x1
 1321 0189 11       		.uleb128 0x11
 1322 018a 01       		.uleb128 0x1
 1323 018b 9542     		.uleb128 0x2115
 1324 018d 19       		.uleb128 0x19
 1325 018e 00       		.byte	0
 1326 018f 00       		.byte	0
 1327 0190 20       		.uleb128 0x20
 1328 0191 8A8201   		.uleb128 0x410a
 1329 0194 00       		.byte	0
 1330 0195 02       		.uleb128 0x2
 1331 0196 18       		.uleb128 0x18
 1332 0197 9142     		.uleb128 0x2111
 1333 0199 18       		.uleb128 0x18
 1334 019a 00       		.byte	0
 1335 019b 00       		.byte	0
 1336 019c 21       		.uleb128 0x21
 1337 019d 34       		.uleb128 0x34
 1338 019e 00       		.byte	0
 1339 019f 03       		.uleb128 0x3
 1340 01a0 0E       		.uleb128 0xe
 1341 01a1 3A       		.uleb128 0x3a
 1342 01a2 0B       		.uleb128 0xb
 1343 01a3 3B       		.uleb128 0x3b
 1344 01a4 05       		.uleb128 0x5
 1345 01a5 49       		.uleb128 0x49
 1346 01a6 13       		.uleb128 0x13
 1347 01a7 3F       		.uleb128 0x3f
 1348 01a8 19       		.uleb128 0x19
 1349 01a9 3C       		.uleb128 0x3c
 1350 01aa 19       		.uleb128 0x19
 1351 01ab 00       		.byte	0
 1352 01ac 00       		.byte	0
 1353 01ad 22       		.uleb128 0x22
 1354 01ae 34       		.uleb128 0x34
 1355 01af 00       		.byte	0
 1356 01b0 03       		.uleb128 0x3
 1357 01b1 0E       		.uleb128 0xe
 1358 01b2 3A       		.uleb128 0x3a
 1359 01b3 0B       		.uleb128 0xb
 1360 01b4 3B       		.uleb128 0x3b
 1361 01b5 0B       		.uleb128 0xb
 1362 01b6 49       		.uleb128 0x49
 1363 01b7 13       		.uleb128 0x13
 1364 01b8 3F       		.uleb128 0x3f
 1365 01b9 19       		.uleb128 0x19
 1366 01ba 3C       		.uleb128 0x3c
ARM GAS  /tmp/cckZPy9k.s 			page 25


 1367 01bb 19       		.uleb128 0x19
 1368 01bc 00       		.byte	0
 1369 01bd 00       		.byte	0
 1370 01be 23       		.uleb128 0x23
 1371 01bf 01       		.uleb128 0x1
 1372 01c0 01       		.byte	0x1
 1373 01c1 49       		.uleb128 0x49
 1374 01c2 13       		.uleb128 0x13
 1375 01c3 01       		.uleb128 0x1
 1376 01c4 13       		.uleb128 0x13
 1377 01c5 00       		.byte	0
 1378 01c6 00       		.byte	0
 1379 01c7 24       		.uleb128 0x24
 1380 01c8 21       		.uleb128 0x21
 1381 01c9 00       		.byte	0
 1382 01ca 49       		.uleb128 0x49
 1383 01cb 13       		.uleb128 0x13
 1384 01cc 2F       		.uleb128 0x2f
 1385 01cd 05       		.uleb128 0x5
 1386 01ce 00       		.byte	0
 1387 01cf 00       		.byte	0
 1388 01d0 00       		.byte	0
 1389              		.section	.debug_loc,"",%progbits
 1390              	.Ldebug_loc0:
 1391              	.LLST0:
 1392 0000 00000000 		.4byte	.LVL0-.Ltext0
 1393 0004 16000000 		.4byte	.LVL1-.Ltext0
 1394 0008 0100     		.2byte	0x1
 1395 000a 50       		.byte	0x50
 1396 000b 16000000 		.4byte	.LVL1-.Ltext0
 1397 000f 70000000 		.4byte	.LFE179-.Ltext0
 1398 0013 0400     		.2byte	0x4
 1399 0015 F3       		.byte	0xf3
 1400 0016 01       		.uleb128 0x1
 1401 0017 50       		.byte	0x50
 1402 0018 9F       		.byte	0x9f
 1403 0019 00000000 		.4byte	0
 1404 001d 00000000 		.4byte	0
 1405              	.LLST1:
 1406 0021 00000000 		.4byte	.LVL0-.Ltext0
 1407 0025 16000000 		.4byte	.LVL1-.Ltext0
 1408 0029 0100     		.2byte	0x1
 1409 002b 51       		.byte	0x51
 1410 002c 16000000 		.4byte	.LVL1-.Ltext0
 1411 0030 70000000 		.4byte	.LFE179-.Ltext0
 1412 0034 0100     		.2byte	0x1
 1413 0036 59       		.byte	0x59
 1414 0037 00000000 		.4byte	0
 1415 003b 00000000 		.4byte	0
 1416              	.LLST2:
 1417 003f 00000000 		.4byte	.LVL0-.Ltext0
 1418 0043 16000000 		.4byte	.LVL1-.Ltext0
 1419 0047 0100     		.2byte	0x1
 1420 0049 52       		.byte	0x52
 1421 004a 16000000 		.4byte	.LVL1-.Ltext0
 1422 004e 66000000 		.4byte	.LVL17-.Ltext0
 1423 0052 0100     		.2byte	0x1
ARM GAS  /tmp/cckZPy9k.s 			page 26


 1424 0054 5A       		.byte	0x5a
 1425 0055 66000000 		.4byte	.LVL17-.Ltext0
 1426 0059 70000000 		.4byte	.LFE179-.Ltext0
 1427 005d 0400     		.2byte	0x4
 1428 005f F3       		.byte	0xf3
 1429 0060 01       		.uleb128 0x1
 1430 0061 52       		.byte	0x52
 1431 0062 9F       		.byte	0x9f
 1432 0063 00000000 		.4byte	0
 1433 0067 00000000 		.4byte	0
 1434              	.LLST3:
 1435 006b 00000000 		.4byte	.LVL0-.Ltext0
 1436 006f 16000000 		.4byte	.LVL1-.Ltext0
 1437 0073 0100     		.2byte	0x1
 1438 0075 53       		.byte	0x53
 1439 0076 16000000 		.4byte	.LVL1-.Ltext0
 1440 007a 70000000 		.4byte	.LFE179-.Ltext0
 1441 007e 0100     		.2byte	0x1
 1442 0080 5B       		.byte	0x5b
 1443 0081 00000000 		.4byte	0
 1444 0085 00000000 		.4byte	0
 1445              	.LLST5:
 1446 0089 00000000 		.4byte	.LVL0-.Ltext0
 1447 008d 16000000 		.4byte	.LVL1-.Ltext0
 1448 0091 0200     		.2byte	0x2
 1449 0093 30       		.byte	0x30
 1450 0094 9F       		.byte	0x9f
 1451 0095 16000000 		.4byte	.LVL1-.Ltext0
 1452 0099 66000000 		.4byte	.LVL17-.Ltext0
 1453 009d 0100     		.2byte	0x1
 1454 009f 58       		.byte	0x58
 1455 00a0 00000000 		.4byte	0
 1456 00a4 00000000 		.4byte	0
 1457              	.LLST6:
 1458 00a8 16000000 		.4byte	.LVL1-.Ltext0
 1459 00ac 22000000 		.4byte	.LVL4-.Ltext0
 1460 00b0 0300     		.2byte	0x3
 1461 00b2 77       		.byte	0x77
 1462 00b3 7C       		.sleb128 -4
 1463 00b4 9F       		.byte	0x9f
 1464 00b5 22000000 		.4byte	.LVL4-.Ltext0
 1465 00b9 24000000 		.4byte	.LVL5-.Ltext0
 1466 00bd 0300     		.2byte	0x3
 1467 00bf 77       		.byte	0x77
 1468 00c0 74       		.sleb128 -12
 1469 00c1 9F       		.byte	0x9f
 1470 00c2 24000000 		.4byte	.LVL5-.Ltext0
 1471 00c6 64000000 		.4byte	.LVL16-.Ltext0
 1472 00ca 0300     		.2byte	0x3
 1473 00cc 77       		.byte	0x77
 1474 00cd 7C       		.sleb128 -4
 1475 00ce 9F       		.byte	0x9f
 1476 00cf 64000000 		.4byte	.LVL16-.Ltext0
 1477 00d3 66000000 		.4byte	.LVL17-.Ltext0
 1478 00d7 0300     		.2byte	0x3
 1479 00d9 77       		.byte	0x77
 1480 00da 74       		.sleb128 -12
ARM GAS  /tmp/cckZPy9k.s 			page 27


 1481 00db 9F       		.byte	0x9f
 1482 00dc 00000000 		.4byte	0
 1483 00e0 00000000 		.4byte	0
 1484              	.LLST7:
 1485 00e4 16000000 		.4byte	.LVL1-.Ltext0
 1486 00e8 17000000 		.4byte	.LVL2-1-.Ltext0
 1487 00ec 0100     		.2byte	0x1
 1488 00ee 50       		.byte	0x50
 1489 00ef 17000000 		.4byte	.LVL2-1-.Ltext0
 1490 00f3 24000000 		.4byte	.LVL5-.Ltext0
 1491 00f7 0100     		.2byte	0x1
 1492 00f9 54       		.byte	0x54
 1493 00fa 32000000 		.4byte	.LVL6-.Ltext0
 1494 00fe 66000000 		.4byte	.LVL17-.Ltext0
 1495 0102 0100     		.2byte	0x1
 1496 0104 54       		.byte	0x54
 1497 0105 00000000 		.4byte	0
 1498 0109 00000000 		.4byte	0
 1499              	.LLST8:
 1500 010d 16000000 		.4byte	.LVL1-.Ltext0
 1501 0111 18000000 		.4byte	.LVL2-.Ltext0
 1502 0115 0100     		.2byte	0x1
 1503 0117 55       		.byte	0x55
 1504 0118 36000000 		.4byte	.LVL7-.Ltext0
 1505 011c 50000000 		.4byte	.LVL13-.Ltext0
 1506 0120 0100     		.2byte	0x1
 1507 0122 56       		.byte	0x56
 1508 0123 50000000 		.4byte	.LVL13-.Ltext0
 1509 0127 66000000 		.4byte	.LVL17-.Ltext0
 1510 012b 0100     		.2byte	0x1
 1511 012d 55       		.byte	0x55
 1512 012e 00000000 		.4byte	0
 1513 0132 00000000 		.4byte	0
 1514              	.LLST9:
 1515 0136 38000000 		.4byte	.LVL8-.Ltext0
 1516 013a 4C000000 		.4byte	.LVL12-.Ltext0
 1517 013e 0100     		.2byte	0x1
 1518 0140 53       		.byte	0x53
 1519 0141 4C000000 		.4byte	.LVL12-.Ltext0
 1520 0145 54000000 		.4byte	.LVL14-.Ltext0
 1521 0149 0200     		.2byte	0x2
 1522 014b 77       		.byte	0x77
 1523 014c 00       		.sleb128 0
 1524 014d 00000000 		.4byte	0
 1525 0151 00000000 		.4byte	0
 1526              	.LLST10:
 1527 0155 38000000 		.4byte	.LVL8-.Ltext0
 1528 0159 54000000 		.4byte	.LVL14-.Ltext0
 1529 015d 0200     		.2byte	0x2
 1530 015f 7B       		.byte	0x7b
 1531 0160 00       		.sleb128 0
 1532 0161 00000000 		.4byte	0
 1533 0165 00000000 		.4byte	0
 1534              	.LLST11:
 1535 0169 40000000 		.4byte	.LVL9-.Ltext0
 1536 016d 4A000000 		.4byte	.LVL11-.Ltext0
 1537 0171 0100     		.2byte	0x1
ARM GAS  /tmp/cckZPy9k.s 			page 28


 1538 0173 55       		.byte	0x55
 1539 0174 00000000 		.4byte	0
 1540 0178 00000000 		.4byte	0
 1541              	.LLST12:
 1542 017c 44000000 		.4byte	.LVL10-.Ltext0
 1543 0180 4C000000 		.4byte	.LVL12-.Ltext0
 1544 0184 0100     		.2byte	0x1
 1545 0186 53       		.byte	0x53
 1546 0187 4C000000 		.4byte	.LVL12-.Ltext0
 1547 018b 54000000 		.4byte	.LVL14-.Ltext0
 1548 018f 0200     		.2byte	0x2
 1549 0191 77       		.byte	0x77
 1550 0192 00       		.sleb128 0
 1551 0193 00000000 		.4byte	0
 1552 0197 00000000 		.4byte	0
 1553              	.LLST13:
 1554 019b 16000000 		.4byte	.LVL1-.Ltext0
 1555 019f 17000000 		.4byte	.LVL2-1-.Ltext0
 1556 01a3 0100     		.2byte	0x1
 1557 01a5 52       		.byte	0x52
 1558 01a6 17000000 		.4byte	.LVL2-1-.Ltext0
 1559 01aa 18000000 		.4byte	.LVL2-.Ltext0
 1560 01ae 0200     		.2byte	0x2
 1561 01b0 91       		.byte	0x91
 1562 01b1 00       		.sleb128 0
 1563 01b2 44000000 		.4byte	.LVL10-.Ltext0
 1564 01b6 66000000 		.4byte	.LVL17-.Ltext0
 1565 01ba 0200     		.2byte	0x2
 1566 01bc 91       		.byte	0x91
 1567 01bd 00       		.sleb128 0
 1568 01be 00000000 		.4byte	0
 1569 01c2 00000000 		.4byte	0
 1570              	.LLST14:
 1571 01c6 4A000000 		.4byte	.LVL11-.Ltext0
 1572 01ca 50000000 		.4byte	.LVL13-.Ltext0
 1573 01ce 0100     		.2byte	0x1
 1574 01d0 55       		.byte	0x55
 1575 01d1 00000000 		.4byte	0
 1576 01d5 00000000 		.4byte	0
 1577              	.LLST15:
 1578 01d9 70000000 		.4byte	.LVL18-.Ltext0
 1579 01dd 8D000000 		.4byte	.LVL21-1-.Ltext0
 1580 01e1 0100     		.2byte	0x1
 1581 01e3 50       		.byte	0x50
 1582 01e4 8D000000 		.4byte	.LVL21-1-.Ltext0
 1583 01e8 8E000000 		.4byte	.LVL21-.Ltext0
 1584 01ec 0400     		.2byte	0x4
 1585 01ee F3       		.byte	0xf3
 1586 01ef 01       		.uleb128 0x1
 1587 01f0 50       		.byte	0x50
 1588 01f1 9F       		.byte	0x9f
 1589 01f2 8E000000 		.4byte	.LVL21-.Ltext0
 1590 01f6 94000000 		.4byte	.LFE180-.Ltext0
 1591 01fa 0100     		.2byte	0x1
 1592 01fc 50       		.byte	0x50
 1593 01fd 00000000 		.4byte	0
 1594 0201 00000000 		.4byte	0
ARM GAS  /tmp/cckZPy9k.s 			page 29


 1595              	.LLST16:
 1596 0205 70000000 		.4byte	.LVL18-.Ltext0
 1597 0209 82000000 		.4byte	.LVL20-.Ltext0
 1598 020d 0100     		.2byte	0x1
 1599 020f 51       		.byte	0x51
 1600 0210 82000000 		.4byte	.LVL20-.Ltext0
 1601 0214 8D000000 		.4byte	.LVL21-1-.Ltext0
 1602 0218 0200     		.2byte	0x2
 1603 021a 70       		.byte	0x70
 1604 021b 00       		.sleb128 0
 1605 021c 8D000000 		.4byte	.LVL21-1-.Ltext0
 1606 0220 8E000000 		.4byte	.LVL21-.Ltext0
 1607 0224 0400     		.2byte	0x4
 1608 0226 F3       		.byte	0xf3
 1609 0227 01       		.uleb128 0x1
 1610 0228 51       		.byte	0x51
 1611 0229 9F       		.byte	0x9f
 1612 022a 8E000000 		.4byte	.LVL21-.Ltext0
 1613 022e 94000000 		.4byte	.LFE180-.Ltext0
 1614 0232 0200     		.2byte	0x2
 1615 0234 70       		.byte	0x70
 1616 0235 00       		.sleb128 0
 1617 0236 00000000 		.4byte	0
 1618 023a 00000000 		.4byte	0
 1619              	.LLST17:
 1620 023e 70000000 		.4byte	.LVL18-.Ltext0
 1621 0242 80000000 		.4byte	.LVL19-.Ltext0
 1622 0246 0100     		.2byte	0x1
 1623 0248 52       		.byte	0x52
 1624 0249 80000000 		.4byte	.LVL19-.Ltext0
 1625 024d 94000000 		.4byte	.LFE180-.Ltext0
 1626 0251 0400     		.2byte	0x4
 1627 0253 F3       		.byte	0xf3
 1628 0254 01       		.uleb128 0x1
 1629 0255 52       		.byte	0x52
 1630 0256 9F       		.byte	0x9f
 1631 0257 00000000 		.4byte	0
 1632 025b 00000000 		.4byte	0
 1633              	.LLST18:
 1634 025f A0000000 		.4byte	.LVL22-.Ltext0
 1635 0263 A5000000 		.4byte	.LVL23-1-.Ltext0
 1636 0267 0100     		.2byte	0x1
 1637 0269 50       		.byte	0x50
 1638 026a A5000000 		.4byte	.LVL23-1-.Ltext0
 1639 026e AC000000 		.4byte	.LFE181-.Ltext0
 1640 0272 0400     		.2byte	0x4
 1641 0274 F3       		.byte	0xf3
 1642 0275 01       		.uleb128 0x1
 1643 0276 50       		.byte	0x50
 1644 0277 9F       		.byte	0x9f
 1645 0278 00000000 		.4byte	0
 1646 027c 00000000 		.4byte	0
 1647              		.section	.debug_aranges,"",%progbits
 1648 0000 1C000000 		.4byte	0x1c
 1649 0004 0200     		.2byte	0x2
 1650 0006 00000000 		.4byte	.Ldebug_info0
 1651 000a 04       		.byte	0x4
ARM GAS  /tmp/cckZPy9k.s 			page 30


 1652 000b 00       		.byte	0
 1653 000c 0000     		.2byte	0
 1654 000e 0000     		.2byte	0
 1655 0010 00000000 		.4byte	.Ltext0
 1656 0014 AC000000 		.4byte	.Letext0-.Ltext0
 1657 0018 00000000 		.4byte	0
 1658 001c 00000000 		.4byte	0
 1659              		.section	.debug_ranges,"",%progbits
 1660              	.Ldebug_ranges0:
 1661 0000 16000000 		.4byte	.LBB7-.Ltext0
 1662 0004 18000000 		.4byte	.LBE7-.Ltext0
 1663 0008 24000000 		.4byte	.LBB12-.Ltext0
 1664 000c 58000000 		.4byte	.LBE12-.Ltext0
 1665 0010 5E000000 		.4byte	.LBB13-.Ltext0
 1666 0014 64000000 		.4byte	.LBE13-.Ltext0
 1667 0018 00000000 		.4byte	0
 1668 001c 00000000 		.4byte	0
 1669              		.section	.debug_line,"",%progbits
 1670              	.Ldebug_line0:
 1671 0000 92010000 		.section	.debug_str,"MS",%progbits,1
 1671      02003301 
 1671      00000201 
 1671      FB0E0D00 
 1671      01010101 
 1672              	.LASF82:
 1673 0000 72657375 		.ascii	"result\000"
 1673      6C7400
 1674              	.LASF32:
 1675 0007 4D494449 		.ascii	"MIDI_DEVICE_USB_DEVICE\000"
 1675      5F444556 
 1675      4943455F 
 1675      5553425F 
 1675      44455649 
 1676              	.LASF54:
 1677 001e 696E6974 		.ascii	"initpreset_size\000"
 1677      70726573 
 1677      65745F73 
 1677      697A6500 
 1678              	.LASF66:
 1679 002e 74617267 		.ascii	"target\000"
 1679      657400
 1680              	.LASF4:
 1681 0035 73686F72 		.ascii	"short int\000"
 1681      7420696E 
 1681      7400
 1682              	.LASF27:
 1683 003f 73697A65 		.ascii	"sizetype\000"
 1683      74797065 
 1683      00
 1684              	.LASF55:
 1685 0048 70496E69 		.ascii	"pInitpreset\000"
 1685      74707265 
 1685      73657400 
 1686              	.LASF8:
 1687 0054 5F5F7569 		.ascii	"__uint32_t\000"
 1687      6E743332 
 1687      5F7400
ARM GAS  /tmp/cckZPy9k.s 			page 31


 1688              	.LASF53:
 1689 005f 70617463 		.ascii	"patchID\000"
 1689      68494400 
 1690              	.LASF48:
 1691 0067 66707472 		.ascii	"fptr_MidiInHandler\000"
 1691      5F4D6964 
 1691      69496E48 
 1691      616E646C 
 1691      657200
 1692              	.LASF76:
 1693 007a 70697463 		.ascii	"pitcht\000"
 1693      687400
 1694              	.LASF17:
 1695 0081 76616C75 		.ascii	"value\000"
 1695      6500
 1696              	.LASF22:
 1697 0087 50617261 		.ascii	"ParameterExchange_t\000"
 1697      6D657465 
 1697      72457863 
 1697      68616E67 
 1697      655F7400 
 1698              	.LASF75:
 1699 009b 77696E64 		.ascii	"windowt\000"
 1699      6F777400 
 1700              	.LASF71:
 1701 00a3 696E6465 		.ascii	"index\000"
 1701      7800
 1702              	.LASF45:
 1703 00a9 66707472 		.ascii	"fptr_patch_init\000"
 1703      5F706174 
 1703      63685F69 
 1703      6E697400 
 1704              	.LASF16:
 1705 00b9 75696E74 		.ascii	"uint32_t\000"
 1705      33325F74 
 1705      00
 1706              	.LASF25:
 1707 00c2 5045784D 		.ascii	"PExModulationTarget_t\000"
 1707      6F64756C 
 1707      6174696F 
 1707      6E546172 
 1707      6765745F 
 1708              	.LASF63:
 1709 00d8 6E546172 		.ascii	"nTargets\000"
 1709      67657473 
 1709      00
 1710              	.LASF44:
 1711 00e1 50726573 		.ascii	"PresetParamChange_t\000"
 1711      65745061 
 1711      72616D43 
 1711      68616E67 
 1711      655F7400 
 1712              	.LASF73:
 1713 00f5 70617463 		.ascii	"patchMeta\000"
 1713      684D6574 
 1713      6100
 1714              	.LASF19:
ARM GAS  /tmp/cckZPy9k.s 			page 32


 1715 00ff 66696E61 		.ascii	"finalvalue\000"
 1715      6C76616C 
 1715      756500
 1716              	.LASF10:
 1717 010a 6C6F6E67 		.ascii	"long long int\000"
 1717      206C6F6E 
 1717      6720696E 
 1717      7400
 1718              	.LASF67:
 1719 0118 5045784D 		.ascii	"PExModulationSourceChange\000"
 1719      6F64756C 
 1719      6174696F 
 1719      6E536F75 
 1719      72636543 
 1720              	.LASF47:
 1721 0132 66707472 		.ascii	"fptr_dsp_process\000"
 1721      5F647370 
 1721      5F70726F 
 1721      63657373 
 1721      00
 1722              	.LASF70:
 1723 0143 4170706C 		.ascii	"ApplyPreset\000"
 1723      79507265 
 1723      73657400 
 1724              	.LASF7:
 1725 014f 6C6F6E67 		.ascii	"long int\000"
 1725      20696E74 
 1725      00
 1726              	.LASF52:
 1727 0158 70446973 		.ascii	"pDisplayVector\000"
 1727      706C6179 
 1727      56656374 
 1727      6F7200
 1728              	.LASF2:
 1729 0167 5F5F7569 		.ascii	"__uint8_t\000"
 1729      6E74385F 
 1729      7400
 1730              	.LASF64:
 1731 0171 70617261 		.ascii	"parameters\000"
 1731      6D657465 
 1731      727300
 1732              	.LASF59:
 1733 017c 70617463 		.ascii	"patchMeta_t\000"
 1733      684D6574 
 1733      615F7400 
 1734              	.LASF13:
 1735 0188 75696E74 		.ascii	"uint8_t\000"
 1735      385F7400 
 1736              	.LASF23:
 1737 0190 70617261 		.ascii	"parameterIndex\000"
 1737      6D657465 
 1737      72496E64 
 1737      657800
 1738              	.LASF61:
 1739 019f 6C6F6E67 		.ascii	"long double\000"
 1739      20646F75 
 1739      626C6500 
ARM GAS  /tmp/cckZPy9k.s 			page 33


 1740              	.LASF50:
 1741 01ab 6E756D50 		.ascii	"numPEx\000"
 1741      457800
 1742              	.LASF1:
 1743 01b2 756E7369 		.ascii	"unsigned char\000"
 1743      676E6564 
 1743      20636861 
 1743      7200
 1744              	.LASF31:
 1745 01c0 4D494449 		.ascii	"MIDI_DEVICE_DIN\000"
 1745      5F444556 
 1745      4943455F 
 1745      44494E00 
 1746              	.LASF0:
 1747 01d0 7369676E 		.ascii	"signed char\000"
 1747      65642063 
 1747      68617200 
 1748              	.LASF11:
 1749 01dc 6C6F6E67 		.ascii	"long long unsigned int\000"
 1749      206C6F6E 
 1749      6720756E 
 1749      7369676E 
 1749      65642069 
 1750              	.LASF34:
 1751 01f3 4D494449 		.ascii	"MIDI_DEVICE_DIGITAL_X1\000"
 1751      5F444556 
 1751      4943455F 
 1751      44494749 
 1751      54414C5F 
 1752              	.LASF35:
 1753 020a 4D494449 		.ascii	"MIDI_DEVICE_DIGITAL_X2\000"
 1753      5F444556 
 1753      4943455F 
 1753      44494749 
 1753      54414C5F 
 1754              	.LASF12:
 1755 0221 756E7369 		.ascii	"unsigned int\000"
 1755      676E6564 
 1755      20696E74 
 1755      00
 1756              	.LASF9:
 1757 022e 6C6F6E67 		.ascii	"long unsigned int\000"
 1757      20756E73 
 1757      69676E65 
 1757      6420696E 
 1757      7400
 1758              	.LASF46:
 1759 0240 66707472 		.ascii	"fptr_patch_dispose\000"
 1759      5F706174 
 1759      63685F64 
 1759      6973706F 
 1759      736500
 1760              	.LASF69:
 1761 0253 70617261 		.ascii	"param\000"
 1761      6D00
 1762              	.LASF62:
 1763 0259 6D6F6475 		.ascii	"modulation\000"
ARM GAS  /tmp/cckZPy9k.s 			page 34


 1763      6C617469 
 1763      6F6E00
 1764              	.LASF79:
 1765 0264 2F645F64 		.ascii	"/d_drive/axoloti/firmware\000"
 1765      72697665 
 1765      2F61786F 
 1765      6C6F7469 
 1765      2F666972 
 1766              	.LASF5:
 1767 027e 73686F72 		.ascii	"short unsigned int\000"
 1767      7420756E 
 1767      7369676E 
 1767      65642069 
 1767      6E7400
 1768              	.LASF43:
 1769 0291 70657849 		.ascii	"pexIndex\000"
 1769      6E646578 
 1769      00
 1770              	.LASF28:
 1771 029a 63686172 		.ascii	"char\000"
 1771      00
 1772              	.LASF77:
 1773 029f 474E5520 		.ascii	"GNU C 4.9.3 20150529 (release) [ARM/embedded-4_9-br"
 1773      4320342E 
 1773      392E3320 
 1773      32303135 
 1773      30353239 
 1774 02d2 616E6368 		.ascii	"anch revision 224288] -mcpu=cortex-m4 -mfloat-abi=h"
 1774      20726576 
 1774      6973696F 
 1774      6E203232 
 1774      34323838 
 1775 0305 61726420 		.ascii	"ard -mfpu=fpv4-sp-d16 -mno-thumb-interwork -mthumb "
 1775      2D6D6670 
 1775      753D6670 
 1775      76342D73 
 1775      702D6431 
 1776 0338 2D676764 		.ascii	"-ggdb -O2 -fomit-frame-pointer -falign-functions=16"
 1776      62202D4F 
 1776      32202D66 
 1776      6F6D6974 
 1776      2D667261 
 1777 036b 202D666E 		.ascii	" -fno-math-errno -fsingle-precision-constant\000"
 1777      6F2D6D61 
 1777      74682D65 
 1777      72726E6F 
 1777      202D6673 
 1778              	.LASF80:
 1779 0398 5F506172 		.ascii	"_ParameterExchange\000"
 1779      616D6574 
 1779      65724578 
 1779      6368616E 
 1779      676500
 1780              	.LASF15:
 1781 03ab 696E7433 		.ascii	"int32_t\000"
 1781      325F7400 
 1782              	.LASF30:
ARM GAS  /tmp/cckZPy9k.s 			page 35


 1783 03b3 4D494449 		.ascii	"MIDI_DEVICE_OMNI\000"
 1783      5F444556 
 1783      4943455F 
 1783      4F4D4E49 
 1783      00
 1784              	.LASF14:
 1785 03c4 696E7431 		.ascii	"int16_t\000"
 1785      365F7400 
 1786              	.LASF26:
 1787 03cc 5F426F6F 		.ascii	"_Bool\000"
 1787      6C00
 1788              	.LASF57:
 1789 03d2 6E707265 		.ascii	"npreset_entries\000"
 1789      7365745F 
 1789      656E7472 
 1789      69657300 
 1790              	.LASF41:
 1791 03e2 66707472 		.ascii	"fptr_patch_midi_in_handler_t\000"
 1791      5F706174 
 1791      63685F6D 
 1791      6964695F 
 1791      696E5F68 
 1792              	.LASF37:
 1793 03ff 6D696469 		.ascii	"midi_device_t\000"
 1793      5F646576 
 1793      6963655F 
 1793      7400
 1794              	.LASF68:
 1795 040d 50457850 		.ascii	"PExParameterChange\000"
 1795      6172616D 
 1795      65746572 
 1795      4368616E 
 1795      676500
 1796              	.LASF29:
 1797 0420 666C6F61 		.ascii	"float\000"
 1797      7400
 1798              	.LASF49:
 1799 0426 66707472 		.ascii	"fptr_applyPreset\000"
 1799      5F617070 
 1799      6C795072 
 1799      65736574 
 1799      00
 1800              	.LASF58:
 1801 0437 70507265 		.ascii	"pPresets\000"
 1801      73657473 
 1801      00
 1802              	.LASF60:
 1803 0440 646F7562 		.ascii	"double\000"
 1803      6C6500
 1804              	.LASF72:
 1805 0447 49544D5F 		.ascii	"ITM_RxBuffer\000"
 1805      52784275 
 1805      66666572 
 1805      00
 1806              	.LASF39:
 1807 0454 66707472 		.ascii	"fptr_patch_dispose_t\000"
 1807      5F706174 
ARM GAS  /tmp/cckZPy9k.s 			page 36


 1807      63685F64 
 1807      6973706F 
 1807      73655F74 
 1808              	.LASF78:
 1809 0469 70617261 		.ascii	"parameters.c\000"
 1809      6D657465 
 1809      72732E63 
 1809      00
 1810              	.LASF42:
 1811 0476 66707472 		.ascii	"fptr_patch_applyPreset_t\000"
 1811      5F706174 
 1811      63685F61 
 1811      70706C79 
 1811      50726573 
 1812              	.LASF6:
 1813 048f 5F5F696E 		.ascii	"__int32_t\000"
 1813      7433325F 
 1813      7400
 1814              	.LASF18:
 1815 0499 6D6F6476 		.ascii	"modvalue\000"
 1815      616C7565 
 1815      00
 1816              	.LASF3:
 1817 04a2 5F5F696E 		.ascii	"__int16_t\000"
 1817      7431365F 
 1817      7400
 1818              	.LASF81:
 1819 04ac 5F5F5F53 		.ascii	"___SMMUL\000"
 1819      4D4D554C 
 1819      00
 1820              	.LASF21:
 1821 04b5 7369676E 		.ascii	"signals\000"
 1821      616C7300 
 1822              	.LASF38:
 1823 04bd 66707472 		.ascii	"fptr_patch_init_t\000"
 1823      5F706174 
 1823      63685F69 
 1823      6E69745F 
 1823      7400
 1824              	.LASF65:
 1825 04cf 6F6C6476 		.ascii	"oldvalue\000"
 1825      616C7565 
 1825      00
 1826              	.LASF40:
 1827 04d8 66707472 		.ascii	"fptr_patch_dsp_process_t\000"
 1827      5F706174 
 1827      63685F64 
 1827      73705F70 
 1827      726F6365 
 1828              	.LASF20:
 1829 04f1 7066756E 		.ascii	"pfunction\000"
 1829      6374696F 
 1829      6E00
 1830              	.LASF56:
 1831 04fb 6E707265 		.ascii	"npresets\000"
 1831      73657473 
 1831      00
ARM GAS  /tmp/cckZPy9k.s 			page 37


 1832              	.LASF24:
 1833 0504 616D6F75 		.ascii	"amount\000"
 1833      6E7400
 1834              	.LASF51:
 1835 050b 70504578 		.ascii	"pPExch\000"
 1835      636800
 1836              	.LASF33:
 1837 0512 4D494449 		.ascii	"MIDI_DEVICE_USB_HOST\000"
 1837      5F444556 
 1837      4943455F 
 1837      5553425F 
 1837      484F5354 
 1838              	.LASF36:
 1839 0527 4D494449 		.ascii	"MIDI_DEVICE_INTERNAL\000"
 1839      5F444556 
 1839      4943455F 
 1839      494E5445 
 1839      524E414C 
 1840              	.LASF74:
 1841 053c 73696E65 		.ascii	"sine2t\000"
 1841      327400
 1842              		.ident	"GCC: (GNU Tools for ARM Embedded Processors) 4.9.3 20150529 (release) [ARM/embedded-4_9-br
ARM GAS  /tmp/cckZPy9k.s 			page 38


DEFINED SYMBOLS
                            *ABS*:00000000 parameters.c
     /tmp/cckZPy9k.s:20     .text:00000000 $t
     /tmp/cckZPy9k.s:26     .text:00000000 PExModulationSourceChange
     /tmp/cckZPy9k.s:159    .text:00000070 PExParameterChange
     /tmp/cckZPy9k.s:230    .text:000000a0 ApplyPreset
     /tmp/cckZPy9k.s:246    .text:000000a8 $d
                     .debug_frame:00000010 $d

UNDEFINED SYMBOLS
patchMeta
