ARM GAS  /tmp/ccLdaIGa.s 			page 1


   1              		.syntax unified
   2              		.cpu cortex-m4
   3              		.eabi_attribute 27, 1
   4              		.eabi_attribute 28, 1
   5              		.fpu fpv4-sp-d16
   6              		.eabi_attribute 20, 1
   7              		.eabi_attribute 21, 1
   8              		.eabi_attribute 23, 3
   9              		.eabi_attribute 24, 1
  10              		.eabi_attribute 25, 1
  11              		.eabi_attribute 26, 1
  12              		.eabi_attribute 30, 2
  13              		.eabi_attribute 34, 1
  14              		.eabi_attribute 18, 4
  15              		.thumb
  16              		.file	"pconnection.c"
  17              		.text
  18              	.Ltext0:
  19              		.cfi_sections	.debug_frame
  20              		.align	2
  21              		.p2align 4,,15
  22              		.thumb
  23              		.thumb_func
  24              		.type	ThreadUSBDMidi, %function
  25              	ThreadUSBDMidi:
  26              	.LFB131:
  27              		.file 1 "pconnection.c"
  28              		.loc 1 54 0
  29              		.cfi_startproc
  30              		@ Volatile: function does not return.
  31              		@ args = 0, pretend = 0, frame = 8
  32              		@ frame_needed = 0, uses_anonymous_args = 0
  33              	.LVL0:
  34 0000 00B5     		push	{lr}
  35              		.cfi_def_cfa_offset 4
  36              		.cfi_offset 14, -4
  37              		.loc 1 57 0
  38 0002 0E4B     		ldr	r3, .L5
  39 0004 0E4A     		ldr	r2, .L5+4
  40 0006 9B69     		ldr	r3, [r3, #24]
  41 0008 0E4D     		ldr	r5, .L5+8
  42 000a 9A61     		str	r2, [r3, #24]
  43              		.loc 1 54 0
  44 000c 85B0     		sub	sp, sp, #20
  45              		.cfi_def_cfa_offset 24
  46              	.LVL1:
  47              	.L2:
  48              		.loc 1 61 0 discriminator 1
  49 000e 2B68     		ldr	r3, [r5]
  50 0010 0C48     		ldr	r0, .L5+8
  51 0012 DC69     		ldr	r4, [r3, #28]
  52 0014 03A9     		add	r1, sp, #12
  53 0016 0422     		movs	r2, #4
  54 0018 4FF0FF33 		mov	r3, #-1
  55 001c A047     		blx	r4
  56              	.LVL2:
  57              		.loc 1 62 0 discriminator 1
ARM GAS  /tmp/ccLdaIGa.s 			page 2


  58 001e 9DF80C10 		ldrb	r1, [sp, #12]	@ zero_extendqisi2
  59 0022 9DF80F00 		ldrb	r0, [sp, #15]	@ zero_extendqisi2
  60 0026 0090     		str	r0, [sp]
  61 0028 0909     		lsrs	r1, r1, #4
  62 002a 9DF80D20 		ldrb	r2, [sp, #13]	@ zero_extendqisi2
  63 002e 9DF80E30 		ldrb	r3, [sp, #14]	@ zero_extendqisi2
  64 0032 0131     		adds	r1, r1, #1
  65 0034 0220     		movs	r0, #2
  66 0036 FFF7FEFF 		bl	MidiInMsgHandler
  67              	.LVL3:
  68              		.loc 1 64 0 discriminator 1
  69 003a E8E7     		b	.L2
  70              	.L6:
  71              		.align	2
  72              	.L5:
  73 003c 00000000 		.word	rlist
  74 0040 00000000 		.word	.LC0
  75 0044 00000000 		.word	MDU1
  76              		.cfi_endproc
  77              	.LFE131:
  78              		.size	ThreadUSBDMidi, .-ThreadUSBDMidi
  79              		.align	2
  80 0048 AFF30080 		.p2align 4,,15
  80      AFF30080 
  81              		.thumb
  82              		.thumb_func
  83              		.type	scan_files.constprop.1, %function
  84              	scan_files.constprop.1:
  85              	.LFB146:
  86              		.loc 1 181 0
  87              		.cfi_startproc
  88              		@ args = 0, pretend = 0, frame = 72
  89              		@ frame_needed = 0, uses_anonymous_args = 0
  90              	.LVL4:
  91 0050 2DE9F043 		push	{r4, r5, r6, r7, r8, r9, lr}
  92              		.cfi_def_cfa_offset 28
  93              		.cfi_offset 4, -28
  94              		.cfi_offset 5, -24
  95              		.cfi_offset 6, -20
  96              		.cfi_offset 7, -16
  97              		.cfi_offset 8, -12
  98              		.cfi_offset 9, -8
  99              		.cfi_offset 14, -4
 100              		.loc 1 190 0
 101 0054 574D     		ldr	r5, .L26
 102              		.loc 1 188 0
 103 0056 584B     		ldr	r3, .L26+4
 104              		.loc 1 181 0
 105 0058 93B0     		sub	sp, sp, #76
 106              		.cfi_def_cfa_offset 104
 107              		.loc 1 190 0
 108 005a 2946     		mov	r1, r5
 109              		.loc 1 188 0
 110 005c 0793     		str	r3, [sp, #28]
 111              		.loc 1 190 0
 112 005e 09A8     		add	r0, sp, #36
 113              		.loc 1 189 0
ARM GAS  /tmp/ccLdaIGa.s 			page 3


 114 0060 4FF48073 		mov	r3, #256
 115 0064 0893     		str	r3, [sp, #32]
 116              		.loc 1 190 0
 117 0066 FFF7FEFF 		bl	f_opendir
 118              	.LVL5:
 119              		.loc 1 191 0
 120 006a 0028     		cmp	r0, #0
 121 006c 40F09A80 		bne	.L8
 122              		.loc 1 192 0
 123 0070 2846     		mov	r0, r5
 124              	.LVL6:
 125 0072 FFF7FEFF 		bl	strlen
 126              	.LVL7:
 127              	.LBB7:
 128              		.loc 1 234 0
 129 0076 05F14B07 		add	r7, r5, #75
 130              	.LBE7:
 131              		.loc 1 192 0
 132 007a 0646     		mov	r6, r0
 133              	.LVL8:
 134              	.LBB8:
 135              		.loc 1 234 0
 136 007c 0744     		add	r7, r7, r0
 137              		.loc 1 233 0
 138 007e 05F14C08 		add	r8, r5, #76
 139              	.LVL9:
 140              	.L9:
 141              	.LBE8:
 142              		.loc 1 194 0
 143 0082 09A8     		add	r0, sp, #36
 144 0084 01A9     		add	r1, sp, #4
 145 0086 FFF7FEFF 		bl	f_readdir
 146              	.LVL10:
 147              		.loc 1 195 0
 148 008a 0446     		mov	r4, r0
 149 008c 0028     		cmp	r0, #0
 150 008e 4FD1     		bne	.L10
 151 0090 9DF80D30 		ldrb	r3, [sp, #13]	@ zero_extendqisi2
 152 0094 002B     		cmp	r3, #0
 153 0096 4BD0     		beq	.L10
 154              		.loc 1 197 0
 155 0098 2E2B     		cmp	r3, #46
 156 009a F2D0     		beq	.L9
 157              		.loc 1 200 0
 158 009c 079C     		ldr	r4, [sp, #28]
 159 009e 2378     		ldrb	r3, [r4]	@ zero_extendqisi2
 160 00a0 002B     		cmp	r3, #0
 161 00a2 49D0     		beq	.L15
 162              	.LVL11:
 163              		.loc 1 204 0
 164 00a4 2E2B     		cmp	r3, #46
 165 00a6 ECD0     		beq	.L9
 166              	.LVL12:
 167              	.L12:
 168              		.loc 1 206 0
 169 00a8 9DF80C20 		ldrb	r2, [sp, #12]	@ zero_extendqisi2
 170 00ac 02F00203 		and	r3, r2, #2
ARM GAS  /tmp/ccLdaIGa.s 			page 4


 171 00b0 03F0FF09 		and	r9, r3, #255
 172 00b4 002B     		cmp	r3, #0
 173 00b6 E4D1     		bne	.L9
 174              		.loc 1 208 0
 175 00b8 D306     		lsls	r3, r2, #27
 176 00ba 40D5     		bpl	.L13
 177              	.LBB9:
 178              		.loc 1 210 0
 179 00bc 701C     		adds	r0, r6, #1
 180              	.LVL13:
 181 00be 2146     		mov	r1, r4
 182 00c0 2844     		add	r0, r0, r5
 183              		.loc 1 209 0
 184 00c2 2F24     		movs	r4, #47
 185              	.LVL14:
 186 00c4 AC55     		strb	r4, [r5, r6]
 187              		.loc 1 210 0
 188 00c6 FFF7FEFF 		bl	strcpy
 189              	.LVL15:
 190              		.loc 1 216 0
 191 00ca BDF80A10 		ldrh	r1, [sp, #10]
 192 00ce BDF80830 		ldrh	r3, [sp, #8]
 193              		.loc 1 217 0
 194 00d2 3A48     		ldr	r0, .L26+8
 195              		.loc 1 215 0
 196 00d4 019A     		ldr	r2, [sp, #4]
 197 00d6 6A64     		str	r2, [r5, #68]
 198              		.loc 1 216 0
 199 00d8 03EB0143 		add	r3, r3, r1, lsl #16
 200              		.loc 1 211 0
 201 00dc 4FF0410C 		mov	ip, #65
 202              		.loc 1 212 0
 203 00e0 4FF0780E 		mov	lr, #120
 204              		.loc 1 213 0
 205 00e4 6F22     		movs	r2, #111
 206              		.loc 1 217 0
 207 00e6 A0F14B01 		sub	r1, r0, #75
 208              		.loc 1 216 0
 209 00ea AB64     		str	r3, [r5, #72]
 210              		.loc 1 214 0
 211 00ec 6623     		movs	r3, #102
 212              		.loc 1 211 0
 213 00ee 85F840C0 		strb	ip, [r5, #64]
 214              		.loc 1 212 0
 215 00f2 85F841E0 		strb	lr, [r5, #65]
 216              		.loc 1 213 0
 217 00f6 85F84220 		strb	r2, [r5, #66]
 218              		.loc 1 214 0
 219 00fa 85F84330 		strb	r3, [r5, #67]
 220              		.loc 1 217 0
 221 00fe FFF7FEFF 		bl	stpcpy
 222              	.LVL16:
 223              		.loc 1 221 0
 224 0102 DFF8C0E0 		ldr	lr, .L26+16
 225              		.loc 1 220 0
 226 0106 2E49     		ldr	r1, .L26+12
 227              		.loc 1 221 0
ARM GAS  /tmp/ccLdaIGa.s 			page 5


 228 0108 DEF80030 		ldr	r3, [lr]
 229              		.loc 1 217 0
 230 010c C8EB0002 		rsb	r2, r8, r0
 231              	.LVL17:
 232              		.loc 1 221 0
 233 0110 7046     		mov	r0, lr
 234              		.loc 1 219 0
 235 0112 02F80840 		strb	r4, [r2, r8]
 236              		.loc 1 220 0
 237 0116 02F80190 		strb	r9, [r2, r1]
 238              		.loc 1 221 0
 239 011a 0E32     		adds	r2, r2, #14
 240              	.LVL18:
 241 011c 0D39     		subs	r1, r1, #13
 242 011e 1B68     		ldr	r3, [r3]
 243 0120 9847     		blx	r3
 244              	.LVL19:
 245              		.loc 1 223 0
 246 0122 FFF795FF 		bl	scan_files.constprop.1
 247              	.LVL20:
 248              		.loc 1 224 0
 249 0126 05F80690 		strb	r9, [r5, r6]
 250              		.loc 1 225 0
 251 012a 0446     		mov	r4, r0
 252 012c 0028     		cmp	r0, #0
 253 012e A8D0     		beq	.L9
 254              	.L10:
 255              	.LVL21:
 256              	.LBE9:
 257              		.loc 1 245 0
 258 0130 2046     		mov	r0, r4
 259 0132 13B0     		add	sp, sp, #76
 260              		.cfi_remember_state
 261              		.cfi_def_cfa_offset 28
 262              		@ sp needed
 263 0134 BDE8F083 		pop	{r4, r5, r6, r7, r8, r9, pc}
 264              	.LVL22:
 265              	.L15:
 266              		.cfi_restore_state
 267              		.loc 1 200 0
 268 0138 0DF10D04 		add	r4, sp, #13
 269 013c B4E7     		b	.L12
 270              	.LVL23:
 271              	.L13:
 272              	.LBB10:
 273              		.loc 1 232 0
 274 013e BDF80A10 		ldrh	r1, [sp, #10]
 275 0142 BDF80830 		ldrh	r3, [sp, #8]
 276              		.loc 1 233 0
 277 0146 1D48     		ldr	r0, .L26+8
 278              	.LVL24:
 279              		.loc 1 231 0
 280 0148 019A     		ldr	r2, [sp, #4]
 281 014a 6A64     		str	r2, [r5, #68]
 282              		.loc 1 232 0
 283 014c 03EB0143 		add	r3, r3, r1, lsl #16
 284              		.loc 1 227 0
ARM GAS  /tmp/ccLdaIGa.s 			page 6


 285 0150 4FF0410C 		mov	ip, #65
 286              		.loc 1 228 0
 287 0154 4FF0780E 		mov	lr, #120
 288              		.loc 1 229 0
 289 0158 6F22     		movs	r2, #111
 290              		.loc 1 232 0
 291 015a AB64     		str	r3, [r5, #72]
 292              		.loc 1 233 0
 293 015c A0F14B01 		sub	r1, r0, #75
 294              		.loc 1 230 0
 295 0160 6623     		movs	r3, #102
 296              		.loc 1 235 0
 297 0162 A0F10C09 		sub	r9, r0, #12
 298              		.loc 1 229 0
 299 0166 85F84220 		strb	r2, [r5, #66]
 300              		.loc 1 227 0
 301 016a 85F840C0 		strb	ip, [r5, #64]
 302              		.loc 1 228 0
 303 016e 85F841E0 		strb	lr, [r5, #65]
 304              		.loc 1 230 0
 305 0172 85F84330 		strb	r3, [r5, #67]
 306              		.loc 1 233 0
 307 0176 FFF7FEFF 		bl	strcpy
 308              	.LVL25:
 309              		.loc 1 234 0
 310 017a 2F23     		movs	r3, #47
 311              		.loc 1 235 0
 312 017c 06F10C00 		add	r0, r6, #12
 313 0180 2146     		mov	r1, r4
 314              		.loc 1 234 0
 315 0182 3B70     		strb	r3, [r7]
 316              		.loc 1 235 0
 317 0184 4844     		add	r0, r0, r9
 318 0186 FFF7FEFF 		bl	strcpy
 319              	.LVL26:
 320              		.loc 1 237 0
 321 018a 0E4C     		ldr	r4, .L26+16
 322              	.LVL27:
 323              		.loc 1 236 0
 324 018c 09F10C00 		add	r0, r9, #12
 325 0190 FFF7FEFF 		bl	strlen
 326              	.LVL28:
 327              		.loc 1 237 0
 328 0194 2368     		ldr	r3, [r4]
 329 0196 00F10D02 		add	r2, r0, #13
 330 019a 4946     		mov	r1, r9
 331 019c 1B68     		ldr	r3, [r3]
 332 019e 2046     		mov	r0, r4
 333              	.LVL29:
 334 01a0 9847     		blx	r3
 335              	.LVL30:
 336 01a2 6EE7     		b	.L9
 337              	.LVL31:
 338              	.L8:
 339              	.LBE10:
 340              		.loc 1 242 0
 341 01a4 0021     		movs	r1, #0
ARM GAS  /tmp/ccLdaIGa.s 			page 7


 342 01a6 0446     		mov	r4, r0
 343 01a8 FFF7FEFF 		bl	report_fatfs_error
 344              	.LVL32:
 345              		.loc 1 245 0
 346 01ac 2046     		mov	r0, r4
 347 01ae 13B0     		add	sp, sp, #76
 348              		.cfi_def_cfa_offset 28
 349              		@ sp needed
 350 01b0 BDE8F083 		pop	{r4, r5, r6, r7, r8, r9, pc}
 351              	.LVL33:
 352              	.L27:
 353              		.align	2
 354              	.L26:
 355 01b4 00000000 		.word	fbuff
 356 01b8 00000000 		.word	FileName
 357 01bc 4C000000 		.word	fbuff+76
 358 01c0 4D000000 		.word	fbuff+77
 359 01c4 00000000 		.word	BDU1
 360              		.cfi_endproc
 361              	.LFE146:
 362              		.size	scan_files.constprop.1, .-scan_files.constprop.1
 363              		.align	2
 364 01c8 AFF30080 		.p2align 4,,15
 364      AFF30080 
 365              		.global	InitPConnection
 366              		.thumb
 367              		.thumb_func
 368              		.type	InitPConnection, %function
 369              	InitPConnection:
 370              	.LFB132:
 371              		.loc 1 67 0
 372              		.cfi_startproc
 373              		@ args = 0, pretend = 0, frame = 0
 374              		@ frame_needed = 0, uses_anonymous_args = 0
 375 01d0 70B5     		push	{r4, r5, r6, lr}
 376              		.cfi_def_cfa_offset 16
 377              		.cfi_offset 4, -16
 378              		.cfi_offset 5, -12
 379              		.cfi_offset 6, -8
 380              		.cfi_offset 14, -4
 381              		.loc 1 70 0
 382 01d2 1C49     		ldr	r1, .L30
 383              		.loc 1 76 0
 384 01d4 1C4E     		ldr	r6, .L30+4
 385              		.loc 1 77 0
 386 01d6 1D4C     		ldr	r4, .L30+8
 387              		.loc 1 78 0
 388 01d8 1D4D     		ldr	r5, .L30+12
 389              		.loc 1 67 0
 390 01da 82B0     		sub	sp, sp, #8
 391              		.cfi_def_cfa_offset 24
 392              		.loc 1 70 0
 393 01dc C1F31601 		ubfx	r1, r1, #0, #23
 394 01e0 4FF00060 		mov	r0, #134217728
 395 01e4 FFF7FEFF 		bl	CalcCRC32
 396              	.LVL34:
 397 01e8 1A4B     		ldr	r3, .L30+16
ARM GAS  /tmp/ccLdaIGa.s 			page 8


 398 01ea 1860     		str	r0, [r3]
 399              		.loc 1 76 0
 400 01ec 3046     		mov	r0, r6
 401 01ee FFF7FEFF 		bl	mduObjectInit
 402              	.LVL35:
 403              		.loc 1 77 0
 404 01f2 2146     		mov	r1, r4
 405 01f4 3046     		mov	r0, r6
 406 01f6 FFF7FEFF 		bl	mduStart
 407              	.LVL36:
 408              		.loc 1 78 0
 409 01fa 2846     		mov	r0, r5
 410 01fc FFF7FEFF 		bl	bduObjectInit
 411              	.LVL37:
 412              		.loc 1 79 0
 413 0200 2846     		mov	r0, r5
 414 0202 1549     		ldr	r1, .L30+20
 415 0204 FFF7FEFF 		bl	bduStart
 416              	.LVL38:
 417              		.loc 1 86 0
 418 0208 2468     		ldr	r4, [r4]
 419 020a 226D     		ldr	r2, [r4, #80]
 420 020c 936B     		ldr	r3, [r2, #56]
 421 020e 23F40023 		bic	r3, r3, #524288
 422 0212 9363     		str	r3, [r2, #56]
 423              		.loc 1 87 0
 424 0214 4FF47A70 		mov	r0, #1000
 425 0218 FFF7FEFF 		bl	chThdSleep
 426              	.LVL39:
 427              		.loc 1 88 0
 428 021c 2046     		mov	r0, r4
 429 021e 0F49     		ldr	r1, .L30+24
 430 0220 FFF7FEFF 		bl	usbStart
 431              	.LVL40:
 432              		.loc 1 89 0
 433 0224 216D     		ldr	r1, [r4, #80]
 434              		.loc 1 91 0
 435 0226 0E4B     		ldr	r3, .L30+28
 436              		.loc 1 89 0
 437 0228 8A6B     		ldr	r2, [r1, #56]
 438              		.loc 1 91 0
 439 022a 0E48     		ldr	r0, .L30+32
 440              		.loc 1 89 0
 441 022c 42F40022 		orr	r2, r2, #524288
 442              		.loc 1 91 0
 443 0230 0024     		movs	r4, #0
 444              		.loc 1 89 0
 445 0232 8A63     		str	r2, [r1, #56]
 446              		.loc 1 91 0
 447 0234 4FF41471 		mov	r1, #592
 448 0238 0094     		str	r4, [sp]
 449 023a 4022     		movs	r2, #64
 450 023c FFF7FEFF 		bl	chThdCreateStatic
 451              	.LVL41:
 452              		.loc 1 93 0
 453 0240 02B0     		add	sp, sp, #8
 454              		.cfi_def_cfa_offset 16
ARM GAS  /tmp/ccLdaIGa.s 			page 9


 455              		@ sp needed
 456 0242 70BD     		pop	{r4, r5, r6, pc}
 457              	.L31:
 458              		.align	2
 459              	.L30:
 460 0244 00000000 		.word	_flash_end
 461 0248 00000000 		.word	MDU1
 462 024c 00000000 		.word	midiusbcfg
 463 0250 00000000 		.word	BDU1
 464 0254 00000000 		.word	fwid
 465 0258 00000000 		.word	bulkusbcfg
 466 025c 00000000 		.word	usbcfg
 467 0260 00000000 		.word	ThreadUSBDMidi
 468 0264 00000000 		.word	.LANCHOR0
 469              		.cfi_endproc
 470              	.LFE132:
 471              		.size	InitPConnection, .-InitPConnection
 472              		.align	2
 473 0268 AFF30080 		.p2align 4,,15
 473      AFF30080 
 474              		.global	GetFirmwareID
 475              		.thumb
 476              		.thumb_func
 477              		.type	GetFirmwareID, %function
 478              	GetFirmwareID:
 479              	.LFB133:
 480              		.loc 1 98 0
 481              		.cfi_startproc
 482              		@ args = 0, pretend = 0, frame = 0
 483              		@ frame_needed = 0, uses_anonymous_args = 0
 484              		@ link register save eliminated.
 485              		.loc 1 99 0
 486 0270 014B     		ldr	r3, .L33
 487              		.loc 1 100 0
 488 0272 1868     		ldr	r0, [r3]
 489 0274 7047     		bx	lr
 490              	.L34:
 491 0276 00BF     		.align	2
 492              	.L33:
 493 0278 00000000 		.word	fwid
 494              		.cfi_endproc
 495              	.LFE133:
 496              		.size	GetFirmwareID, .-GetFirmwareID
 497              		.align	2
 498 027c AFF30080 		.p2align 4,,15
 499              		.global	TransmitDisplayPckt
 500              		.thumb
 501              		.thumb_func
 502              		.type	TransmitDisplayPckt, %function
 503              	TransmitDisplayPckt:
 504              	.LFB134:
 505              		.loc 1 102 0
 506              		.cfi_startproc
 507              		@ args = 0, pretend = 0, frame = 0
 508              		@ frame_needed = 0, uses_anonymous_args = 0
 509              		@ link register save eliminated.
 510              		.loc 1 103 0
ARM GAS  /tmp/ccLdaIGa.s 			page 10


 511 0280 064B     		ldr	r3, .L41
 512 0282 D969     		ldr	r1, [r3, #28]
 513 0284 29B1     		cbz	r1, .L35
 514              		.loc 1 105 0
 515 0286 8A68     		ldr	r2, [r1, #8]
 516 0288 0332     		adds	r2, r2, #3
 517 028a 9200     		lsls	r2, r2, #2
 518              	.LVL42:
 519              		.loc 1 106 0
 520 028c B2F5006F 		cmp	r2, #2048
 521 0290 00D9     		bls	.L40
 522              	.LVL43:
 523              	.L35:
 524 0292 7047     		bx	lr
 525              	.LVL44:
 526              	.L40:
 527              		.loc 1 108 0
 528 0294 0248     		ldr	r0, .L41+4
 529 0296 0368     		ldr	r3, [r0]
 530 0298 1B68     		ldr	r3, [r3]
 531 029a 1847     		bx	r3
 532              	.LVL45:
 533              	.L42:
 534              		.align	2
 535              	.L41:
 536 029c 00000000 		.word	patchMeta
 537 02a0 00000000 		.word	BDU1
 538              		.cfi_endproc
 539              	.LFE134:
 540              		.size	TransmitDisplayPckt, .-TransmitDisplayPckt
 541              		.align	2
 542 02a4 AFF30080 		.p2align 4,,15
 542      AFF30080 
 542      AFF30080 
 543              		.global	LogTextMessage
 544              		.thumb
 545              		.thumb_func
 546              		.type	LogTextMessage, %function
 547              	LogTextMessage:
 548              	.LFB135:
 549              		.loc 1 113 0
 550              		.cfi_startproc
 551              		@ args = 4, pretend = 16, frame = 8
 552              		@ frame_needed = 0, uses_anonymous_args = 1
 553              	.LVL46:
 554 02b0 0FB4     		push	{r0, r1, r2, r3}
 555              		.cfi_def_cfa_offset 16
 556              		.cfi_offset 0, -16
 557              		.cfi_offset 1, -12
 558              		.cfi_offset 2, -8
 559              		.cfi_offset 3, -4
 560 02b2 10B5     		push	{r4, lr}
 561              		.cfi_def_cfa_offset 24
 562              		.cfi_offset 4, -24
 563              		.cfi_offset 14, -20
 564              		.loc 1 114 0
 565 02b4 154C     		ldr	r4, .L50
ARM GAS  /tmp/ccLdaIGa.s 			page 11


 566 02b6 D4F85432 		ldr	r3, [r4, #596]
 567 02ba 1B68     		ldr	r3, [r3]
 568 02bc 1A78     		ldrb	r2, [r3]	@ zero_extendqisi2
 569 02be 042A     		cmp	r2, #4
 570              		.loc 1 113 0
 571 02c0 82B0     		sub	sp, sp, #8
 572              		.cfi_def_cfa_offset 32
 573              		.loc 1 114 0
 574 02c2 04D0     		beq	.L49
 575              	.L43:
 576              		.loc 1 125 0
 577 02c4 02B0     		add	sp, sp, #8
 578              		.cfi_remember_state
 579              		.cfi_def_cfa_offset 24
 580              		@ sp needed
 581 02c6 BDE81040 		pop	{r4, lr}
 582              		.cfi_restore 14
 583              		.cfi_restore 4
 584              		.cfi_def_cfa_offset 16
 585 02ca 04B0     		add	sp, sp, #16
 586              		.cfi_restore 3
 587              		.cfi_restore 2
 588              		.cfi_restore 1
 589              		.cfi_restore 0
 590              		.cfi_def_cfa_offset 0
 591 02cc 7047     		bx	lr
 592              	.L49:
 593              		.cfi_restore_state
 594              		.loc 1 114 0 discriminator 1
 595 02ce 104B     		ldr	r3, .L50+4
 596 02d0 93F85032 		ldrb	r3, [r3, #592]	@ zero_extendqisi2
 597 02d4 002B     		cmp	r3, #0
 598 02d6 F5D0     		beq	.L43
 599              	.LBB11:
 600              		.loc 1 115 0
 601 02d8 02A9     		add	r1, sp, #8
 602 02da 0E4B     		ldr	r3, .L50+8
 603 02dc 41F8083D 		str	r3, [r1, #-8]!
 604              		.loc 1 116 0
 605 02e0 2368     		ldr	r3, [r4]
 606 02e2 2046     		mov	r0, r4
 607 02e4 1B68     		ldr	r3, [r3]
 608 02e6 9847     		blx	r3
 609              	.LVL47:
 610              		.loc 1 120 0
 611 02e8 05AB     		add	r3, sp, #20
 612              		.loc 1 121 0
 613 02ea 1A46     		mov	r2, r3
 614 02ec 2046     		mov	r0, r4
 615 02ee 0499     		ldr	r1, [sp, #16]
 616              		.loc 1 120 0
 617 02f0 0193     		str	r3, [sp, #4]
 618              		.loc 1 121 0
 619 02f2 FFF7FEFF 		bl	chvprintf
 620              	.LVL48:
 621              		.loc 1 123 0
 622 02f6 2368     		ldr	r3, [r4]
ARM GAS  /tmp/ccLdaIGa.s 			page 12


 623 02f8 2046     		mov	r0, r4
 624 02fa 9B68     		ldr	r3, [r3, #8]
 625 02fc 0021     		movs	r1, #0
 626 02fe 9847     		blx	r3
 627              	.LVL49:
 628              	.LBE11:
 629              		.loc 1 125 0
 630 0300 02B0     		add	sp, sp, #8
 631              		.cfi_def_cfa_offset 24
 632              		@ sp needed
 633 0302 BDE81040 		pop	{r4, lr}
 634              		.cfi_restore 4
 635              		.cfi_restore 14
 636              		.cfi_def_cfa_offset 16
 637 0306 04B0     		add	sp, sp, #16
 638              		.cfi_restore 0
 639              		.cfi_restore 1
 640              		.cfi_restore 2
 641              		.cfi_restore 3
 642              		.cfi_def_cfa_offset 0
 643 0308 7047     		bx	lr
 644              	.L51:
 645 030a 00BF     		.align	2
 646              	.L50:
 647 030c 00000000 		.word	BDU1
 648 0310 00000000 		.word	.LANCHOR0
 649 0314 41786F54 		.word	1416591425
 650              		.cfi_endproc
 651              	.LFE135:
 652              		.size	LogTextMessage, .-LogTextMessage
 653              		.align	2
 654 0318 AFF30080 		.p2align 4,,15
 654      AFF30080 
 655              		.global	PExTransmit
 656              		.thumb
 657              		.thumb_func
 658              		.type	PExTransmit, %function
 659              	PExTransmit:
 660              	.LFB136:
 661              		.loc 1 127 0
 662              		.cfi_startproc
 663              		@ args = 0, pretend = 0, frame = 32
 664              		@ frame_needed = 0, uses_anonymous_args = 0
 665 0320 2DE9F047 		push	{r4, r5, r6, r7, r8, r9, r10, lr}
 666              		.cfi_def_cfa_offset 32
 667              		.cfi_offset 4, -32
 668              		.cfi_offset 5, -28
 669              		.cfi_offset 6, -24
 670              		.cfi_offset 7, -20
 671              		.cfi_offset 8, -16
 672              		.cfi_offset 9, -12
 673              		.cfi_offset 10, -8
 674              		.cfi_offset 14, -4
 675              		.loc 1 128 0
 676 0324 DFF81091 		ldr	r9, .L75+16
 677 0328 D9F84420 		ldr	r2, [r9, #68]
 678 032c D9F84830 		ldr	r3, [r9, #72]
ARM GAS  /tmp/ccLdaIGa.s 			page 13


 679 0330 9A42     		cmp	r2, r3
 680              		.loc 1 127 0
 681 0332 88B0     		sub	sp, sp, #32
 682              		.cfi_def_cfa_offset 64
 683              		.loc 1 128 0
 684 0334 09D0     		beq	.L73
 685              	.L53:
 686              		.loc 1 129 0
 687 0336 0120     		movs	r0, #1
 688 0338 FFF7FEFF 		bl	chThdSleep
 689              	.LVL50:
 690              		.loc 1 130 0
 691 033c D9F84C30 		ldr	r3, [r9, #76]
 692 0340 3948     		ldr	r0, .L75
 693 0342 9847     		blx	r3
 694              	.LVL51:
 695              	.L52:
 696              		.loc 1 177 0
 697 0344 08B0     		add	sp, sp, #32
 698              		.cfi_remember_state
 699              		.cfi_def_cfa_offset 32
 700              		@ sp needed
 701 0346 BDE8F087 		pop	{r4, r5, r6, r7, r8, r9, r10, pc}
 702              	.L73:
 703              		.cfi_restore_state
 704              		.loc 1 128 0 discriminator 1
 705 034a D9F83830 		ldr	r3, [r9, #56]
 706 034e 002B     		cmp	r3, #0
 707 0350 F1D0     		beq	.L53
 708              		.loc 1 133 0
 709 0352 364E     		ldr	r6, .L75+4
 710 0354 D6F85432 		ldr	r3, [r6, #596]
 711 0358 002B     		cmp	r3, #0
 712 035a 30D1     		bne	.L63
 713 035c 344C     		ldr	r4, .L75+8
 714              	.L64:
 715              		.loc 1 160 0
 716 035e 2378     		ldrb	r3, [r4]	@ zero_extendqisi2
 717 0360 03F0FF04 		and	r4, r3, #255
 718 0364 002B     		cmp	r3, #0
 719 0366 EDD1     		bne	.L52
 720              	.LVL52:
 721              	.LBB12:
 722              		.loc 1 162 0 discriminator 1
 723 0368 324E     		ldr	r6, .L75+12
 724 036a 7369     		ldr	r3, [r6, #20]
 725 036c 002B     		cmp	r3, #0
 726 036e E9D0     		beq	.L52
 727              	.LBB13:
 728              		.loc 1 167 0
 729 0370 DFF8D880 		ldr	r8, .L75+36
 730              	.LBE13:
 731              		.loc 1 162 0
 732 0374 2546     		mov	r5, r4
 733              		.loc 1 163 0
 734 0376 3746     		mov	r7, r6
 735 0378 05E0     		b	.L62
ARM GAS  /tmp/ccLdaIGa.s 			page 14


 736              	.LVL53:
 737              	.L61:
 738              		.loc 1 162 0 discriminator 2
 739 037a 7369     		ldr	r3, [r6, #20]
 740 037c 0135     		adds	r5, r5, #1
 741              	.LVL54:
 742 037e AB42     		cmp	r3, r5
 743 0380 04F11404 		add	r4, r4, #20
 744 0384 DED9     		bls	.L52
 745              	.LVL55:
 746              	.L62:
 747              		.loc 1 163 0
 748 0386 B069     		ldr	r0, [r6, #24]
 749 0388 0219     		adds	r2, r0, r4
 750 038a 1369     		ldr	r3, [r2, #16]
 751 038c D907     		lsls	r1, r3, #31
 752 038e F4D5     		bpl	.L61
 753              	.LBB14:
 754              		.loc 1 171 0
 755 0390 D9F80010 		ldr	r1, [r9]
 756              		.loc 1 164 0
 757 0394 50F804A0 		ldr	r10, [r0, r4]
 758              	.LVL56:
 759              		.loc 1 168 0
 760 0398 D7F820E0 		ldr	lr, [r7, #32]
 761              		.loc 1 171 0
 762 039c D1F800C0 		ldr	ip, [r1]
 763 03a0 2548     		ldr	r0, .L75+16
 764              		.loc 1 165 0
 765 03a2 23F00103 		bic	r3, r3, #1
 766 03a6 1361     		str	r3, [r2, #16]
 767              		.loc 1 171 0
 768 03a8 01A9     		add	r1, sp, #4
 769              		.loc 1 170 0
 770 03aa CDF80CA0 		str	r10, [sp, #12]
 771              		.loc 1 167 0
 772 03ae CDF80480 		str	r8, [sp, #4]
 773              		.loc 1 169 0
 774 03b2 0495     		str	r5, [sp, #16]
 775              		.loc 1 168 0
 776 03b4 CDF808E0 		str	lr, [sp, #8]
 777              		.loc 1 171 0
 778 03b8 1022     		movs	r2, #16
 779 03ba E047     		blx	ip
 780              	.LVL57:
 781 03bc DDE7     		b	.L61
 782              	.LVL58:
 783              	.L63:
 784              	.LBE14:
 785              	.LBE12:
 786              	.LBB15:
 787              		.loc 1 137 0
 788 03be 1F4B     		ldr	r3, .L75+20
 789              		.loc 1 138 0
 790 03c0 1C4A     		ldr	r2, .L75+12
 791              		.loc 1 137 0
 792 03c2 1B68     		ldr	r3, [r3]
ARM GAS  /tmp/ccLdaIGa.s 			page 15


 793              		.loc 1 138 0
 794 03c4 116A     		ldr	r1, [r2, #32]
 795              		.loc 1 137 0
 796 03c6 0393     		str	r3, [sp, #12]
 797              		.loc 1 135 0
 798 03c8 1D4A     		ldr	r2, .L75+24
 799              		.loc 1 138 0
 800 03ca 0491     		str	r1, [sp, #16]
 801              		.loc 1 136 0
 802 03cc 0023     		movs	r3, #0
 803 03ce 0293     		str	r3, [sp, #8]
 804              		.loc 1 135 0
 805 03d0 0192     		str	r2, [sp, #4]
 806              		.loc 1 139 0
 807 03d2 FFF7FEFF 		bl	sysmon_getVoltage10
 808              	.LVL59:
 809              		.loc 1 140 0
 810 03d6 164C     		ldr	r4, .L75+8
 811              		.loc 1 139 0
 812 03d8 0546     		mov	r5, r0
 813 03da FFF7FEFF 		bl	sysmon_getVoltage50
 814              	.LVL60:
 815              		.loc 1 140 0
 816 03de 2378     		ldrb	r3, [r4]	@ zero_extendqisi2
 817              		.loc 1 139 0
 818 03e0 05EB0040 		add	r0, r5, r0, lsl #16
 819 03e4 0590     		str	r0, [sp, #20]
 820              		.loc 1 140 0
 821 03e6 BBB1     		cbz	r3, .L55
 822              		.loc 1 141 0
 823 03e8 6FF00403 		mvn	r3, #4
 824 03ec 0693     		str	r3, [sp, #24]
 825              	.L56:
 826              		.loc 1 145 0
 827 03ee 154A     		ldr	r2, .L75+28
 828              		.loc 1 146 0
 829 03f0 D9F80030 		ldr	r3, [r9]
 830              		.loc 1 145 0
 831 03f4 1278     		ldrb	r2, [r2]	@ zero_extendqisi2
 832 03f6 0792     		str	r2, [sp, #28]
 833              		.loc 1 146 0
 834 03f8 1B68     		ldr	r3, [r3]
 835 03fa 0F48     		ldr	r0, .L75+16
 836 03fc 01A9     		add	r1, sp, #4
 837 03fe 1C22     		movs	r2, #28
 838 0400 9847     		blx	r3
 839              	.LVL61:
 840              		.loc 1 153 0
 841 0402 2378     		ldrb	r3, [r4]	@ zero_extendqisi2
 842 0404 6BB1     		cbz	r3, .L74
 843              	.L57:
 844              		.loc 1 156 0
 845 0406 0123     		movs	r3, #1
 846 0408 86F85032 		strb	r3, [r6, #592]
 847              		.loc 1 157 0
 848 040c FFF7FEFF 		bl	exception_checkandreport
 849              	.LVL62:
ARM GAS  /tmp/ccLdaIGa.s 			page 16


 850              		.loc 1 158 0
 851 0410 0023     		movs	r3, #0
 852 0412 C6F85432 		str	r3, [r6, #596]
 853 0416 A2E7     		b	.L64
 854              	.L55:
 855              		.loc 1 143 0
 856 0418 0B4B     		ldr	r3, .L75+32
 857 041a 93F90030 		ldrsb	r3, [r3]
 858 041e 0693     		str	r3, [sp, #24]
 859 0420 E5E7     		b	.L56
 860              	.L74:
 861              		.loc 1 154 0
 862 0422 FFF7FEFF 		bl	TransmitDisplayPckt
 863              	.LVL63:
 864 0426 EEE7     		b	.L57
 865              	.L76:
 866              		.align	2
 867              	.L75:
 868 0428 30000000 		.word	BDU1+48
 869 042c 00000000 		.word	.LANCHOR0
 870 0430 00000000 		.word	patchStatus
 871 0434 00000000 		.word	patchMeta
 872 0438 00000000 		.word	BDU1
 873 043c 00000000 		.word	dspLoadPct
 874 0440 41786F41 		.word	1097824321
 875 0444 00000000 		.word	fs_ready
 876 0448 00000000 		.word	loadPatchIndex
 877 044c 41786F51 		.word	1366259777
 878              	.LBE15:
 879              		.cfi_endproc
 880              	.LFE136:
 881              		.size	PExTransmit, .-PExTransmit
 882              		.align	2
 883              		.p2align 4,,15
 884              		.global	ReadDirectoryListing
 885              		.thumb
 886              		.thumb_func
 887              		.type	ReadDirectoryListing, %function
 888              	ReadDirectoryListing:
 889              	.LFB138:
 890              		.loc 1 247 0
 891              		.cfi_startproc
 892              		@ args = 0, pretend = 0, frame = 8
 893              		@ frame_needed = 0, uses_anonymous_args = 0
 894 0450 2DE9F047 		push	{r4, r5, r6, r7, r8, r9, r10, lr}
 895              		.cfi_def_cfa_offset 32
 896              		.cfi_offset 4, -32
 897              		.cfi_offset 5, -28
 898              		.cfi_offset 6, -24
 899              		.cfi_offset 7, -20
 900              		.cfi_offset 8, -16
 901              		.cfi_offset 9, -12
 902              		.cfi_offset 10, -8
 903              		.cfi_offset 14, -4
 904 0454 82B0     		sub	sp, sp, #8
 905              		.cfi_def_cfa_offset 40
 906              		.loc 1 252 0
ARM GAS  /tmp/ccLdaIGa.s 			page 17


 907 0456 2648     		ldr	r0, .L82
 908 0458 01A9     		add	r1, sp, #4
 909 045a 6A46     		mov	r2, sp
 910 045c FFF7FEFF 		bl	f_getfree
 911              	.LVL64:
 912              		.loc 1 253 0
 913 0460 0028     		cmp	r0, #0
 914 0462 3FD1     		bne	.L81
 915              		.loc 1 268 0
 916 0464 9DE80C00 		ldmia	sp, {r2, r3}
 917              		.loc 1 263 0
 918 0468 224C     		ldr	r4, .L82+4
 919              		.loc 1 270 0
 920 046a 234E     		ldr	r6, .L82+8
 921              		.loc 1 267 0
 922 046c 6360     		str	r3, [r4, #4]
 923              		.loc 1 265 0
 924 046e 4FF06F08 		mov	r8, #111
 925              		.loc 1 266 0
 926 0472 6423     		movs	r3, #100
 927 0474 E370     		strb	r3, [r4, #3]
 928              		.loc 1 265 0
 929 0476 84F80280 		strb	r8, [r4, #2]
 930              		.loc 1 263 0
 931 047a 4FF0410A 		mov	r10, #65
 932              		.loc 1 264 0
 933 047e 4FF07809 		mov	r9, #120
 934              		.loc 1 270 0
 935 0482 3368     		ldr	r3, [r6]
 936              		.loc 1 268 0
 937 0484 9178     		ldrb	r1, [r2, #2]	@ zero_extendqisi2
 938              		.loc 1 263 0
 939 0486 84F800A0 		strb	r10, [r4]
 940              		.loc 1 264 0
 941 048a 84F80190 		strb	r9, [r4, #1]
 942              		.loc 1 269 0
 943 048e 4FF40072 		mov	r2, #512
 944 0492 0546     		mov	r5, r0
 945              		.loc 1 270 0
 946 0494 1B68     		ldr	r3, [r3]
 947              		.loc 1 268 0
 948 0496 A160     		str	r1, [r4, #8]
 949              		.loc 1 269 0
 950 0498 E260     		str	r2, [r4, #12]
 951              		.loc 1 270 0
 952 049a 2146     		mov	r1, r4
 953 049c 1022     		movs	r2, #16
 954 049e 3046     		mov	r0, r6
 955              	.LVL65:
 956 04a0 9847     		blx	r3
 957              	.LVL66:
 958              		.loc 1 273 0
 959 04a2 2F27     		movs	r7, #47
 960              		.loc 1 272 0
 961 04a4 0A20     		movs	r0, #10
 962 04a6 FFF7FEFF 		bl	chThdSleep
 963              	.LVL67:
ARM GAS  /tmp/ccLdaIGa.s 			page 18


 964              		.loc 1 274 0
 965 04aa 6560     		str	r5, [r4, #4]
 966              		.loc 1 273 0
 967 04ac 2760     		str	r7, [r4]
 968              		.loc 1 275 0
 969 04ae FFF7CFFD 		bl	scan_files.constprop.1
 970              	.LVL68:
 971              		.loc 1 286 0
 972 04b2 3368     		ldr	r3, [r6]
 973              		.loc 1 278 0
 974 04b4 84F840A0 		strb	r10, [r4, #64]
 975              		.loc 1 281 0
 976 04b8 6622     		movs	r2, #102
 977 04ba 84F84320 		strb	r2, [r4, #67]
 978              		.loc 1 279 0
 979 04be 84F84190 		strb	r9, [r4, #65]
 980              		.loc 1 280 0
 981 04c2 84F84280 		strb	r8, [r4, #66]
 982              		.loc 1 284 0
 983 04c6 84F84C70 		strb	r7, [r4, #76]
 984              		.loc 1 285 0
 985 04ca 84F84D50 		strb	r5, [r4, #77]
 986              		.loc 1 282 0
 987 04ce 6564     		str	r5, [r4, #68]
 988              		.loc 1 283 0
 989 04d0 A564     		str	r5, [r4, #72]
 990              		.loc 1 286 0
 991 04d2 04F14001 		add	r1, r4, #64
 992 04d6 1B68     		ldr	r3, [r3]
 993 04d8 3046     		mov	r0, r6
 994 04da 0E22     		movs	r2, #14
 995 04dc 9847     		blx	r3
 996              	.LVL69:
 997              		.loc 1 288 0
 998 04de 02B0     		add	sp, sp, #8
 999              		.cfi_remember_state
 1000              		.cfi_def_cfa_offset 32
 1001              		@ sp needed
 1002 04e0 BDE8F087 		pop	{r4, r5, r6, r7, r8, r9, r10, pc}
 1003              	.LVL70:
 1004              	.L81:
 1005              		.cfi_restore_state
 1006              		.loc 1 254 0
 1007 04e4 0021     		movs	r1, #0
 1008 04e6 FFF7FEFF 		bl	report_fatfs_error
 1009              	.LVL71:
 1010              		.loc 1 288 0
 1011 04ea 02B0     		add	sp, sp, #8
 1012              		.cfi_def_cfa_offset 32
 1013              		@ sp needed
 1014 04ec BDE8F087 		pop	{r4, r5, r6, r7, r8, r9, r10, pc}
 1015              	.L83:
 1016              		.align	2
 1017              	.L82:
 1018 04f0 0C000000 		.word	.LC1
 1019 04f4 00000000 		.word	fbuff
 1020 04f8 00000000 		.word	BDU1
ARM GAS  /tmp/ccLdaIGa.s 			page 19


 1021              		.cfi_endproc
 1022              	.LFE138:
 1023              		.size	ReadDirectoryListing, .-ReadDirectoryListing
 1024              		.align	2
 1025 04fc AFF30080 		.p2align 4,,15
 1026              		.global	ManipulateFile
 1027              		.thumb
 1028              		.thumb_func
 1029              		.type	ManipulateFile, %function
 1030              	ManipulateFile:
 1031              	.LFB139:
 1032              		.loc 1 315 0
 1033              		.cfi_startproc
 1034              		@ args = 0, pretend = 0, frame = 32
 1035              		@ frame_needed = 0, uses_anonymous_args = 0
 1036 0500 F0B5     		push	{r4, r5, r6, r7, lr}
 1037              		.cfi_def_cfa_offset 20
 1038              		.cfi_offset 4, -20
 1039              		.cfi_offset 5, -16
 1040              		.cfi_offset 6, -12
 1041              		.cfi_offset 7, -8
 1042              		.cfi_offset 14, -4
 1043              		.loc 1 317 0
 1044 0502 564C     		ldr	r4, .L140
 1045              		.loc 1 315 0
 1046 0504 89B0     		sub	sp, sp, #36
 1047              		.cfi_def_cfa_offset 56
 1048              		.loc 1 316 0
 1049 0506 FFF7FEFF 		bl	sdcard_attemptMountIfUnmounted
 1050              	.LVL72:
 1051              		.loc 1 317 0
 1052 050a 2378     		ldrb	r3, [r4]	@ zero_extendqisi2
 1053 050c 6BB9     		cbnz	r3, .L130
 1054              		.loc 1 334 0
 1055 050e 6378     		ldrb	r3, [r4, #1]	@ zero_extendqisi2
 1056 0510 642B     		cmp	r3, #100
 1057 0512 2AD0     		beq	.L131
 1058              		.loc 1 349 0
 1059 0514 662B     		cmp	r3, #102
 1060 0516 4FD0     		beq	.L132
 1061              		.loc 1 364 0
 1062 0518 442B     		cmp	r3, #68
 1063 051a 1DD0     		beq	.L133
 1064              		.loc 1 371 0
 1065 051c 432B     		cmp	r3, #67
 1066 051e 00F08D80 		beq	.L134
 1067              		.loc 1 378 0
 1068 0522 492B     		cmp	r3, #73
 1069 0524 5DD0     		beq	.L135
 1070              	.L84:
 1071              		.loc 1 400 0
 1072 0526 09B0     		add	sp, sp, #36
 1073              		.cfi_remember_state
 1074              		.cfi_def_cfa_offset 20
 1075              		@ sp needed
 1076 0528 F0BD     		pop	{r4, r5, r6, r7, pc}
 1077              	.L130:
ARM GAS  /tmp/ccLdaIGa.s 			page 20


 1078              		.cfi_restore_state
 1079              	.LBB16:
 1080              		.loc 1 320 0
 1081 052a 4D48     		ldr	r0, .L140+4
 1082 052c 2146     		mov	r1, r4
 1083 052e 0A22     		movs	r2, #10
 1084 0530 FFF7FEFF 		bl	f_open
 1085              	.LVL73:
 1086              		.loc 1 321 0
 1087 0534 0028     		cmp	r0, #0
 1088 0536 3BD1     		bne	.L136
 1089              	.LVL74:
 1090              	.L86:
 1091              		.loc 1 324 0
 1092 0538 4A4B     		ldr	r3, .L140+8
 1093 053a 4948     		ldr	r0, .L140+4
 1094 053c 1968     		ldr	r1, [r3]
 1095 053e FFF7FEFF 		bl	f_lseek
 1096              	.LVL75:
 1097              		.loc 1 325 0
 1098 0542 88BB     		cbnz	r0, .L137
 1099              	.LVL76:
 1100              	.L87:
 1101              		.loc 1 328 0
 1102 0544 4648     		ldr	r0, .L140+4
 1103 0546 0021     		movs	r1, #0
 1104 0548 FFF7FEFF 		bl	f_lseek
 1105              	.LVL77:
 1106              		.loc 1 329 0
 1107 054c 0028     		cmp	r0, #0
 1108 054e EAD0     		beq	.L84
 1109              		.loc 1 330 0
 1110 0550 4249     		ldr	r1, .L140
 1111 0552 FFF7FEFF 		bl	report_fatfs_error
 1112              	.LVL78:
 1113 0556 E6E7     		b	.L84
 1114              	.L133:
 1115              	.LBE16:
 1116              	.LBB17:
 1117              		.loc 1 367 0
 1118 0558 A01D     		adds	r0, r4, #6
 1119 055a FFF7FEFF 		bl	f_unlink
 1120              	.LVL79:
 1121              		.loc 1 368 0
 1122 055e 0028     		cmp	r0, #0
 1123 0560 E1D0     		beq	.L84
 1124              	.LVL80:
 1125              	.L129:
 1126              	.LBE17:
 1127              	.LBB18:
 1128              		.loc 1 376 0
 1129 0562 A11D     		adds	r1, r4, #6
 1130 0564 FFF7FEFF 		bl	report_fatfs_error
 1131              	.LVL81:
 1132 0568 DDE7     		b	.L84
 1133              	.L131:
 1134              	.LBE18:
ARM GAS  /tmp/ccLdaIGa.s 			page 21


 1135              	.LBB19:
 1136              		.loc 1 337 0
 1137 056a A01D     		adds	r0, r4, #6
 1138 056c FFF7FEFF 		bl	f_mkdir
 1139              	.LVL82:
 1140              		.loc 1 338 0
 1141 0570 10F0F70F 		tst	r0, #247
 1142 0574 02D0     		beq	.L91
 1143              		.loc 1 339 0
 1144 0576 A11D     		adds	r1, r4, #6
 1145 0578 FFF7FEFF 		bl	report_fatfs_error
 1146              	.LVL83:
 1147              	.L91:
 1148              		.loc 1 344 0
 1149 057c 6179     		ldrb	r1, [r4, #5]	@ zero_extendqisi2
 1150              		.loc 1 343 0
 1151 057e E578     		ldrb	r5, [r4, #3]	@ zero_extendqisi2
 1152 0580 A278     		ldrb	r2, [r4, #2]	@ zero_extendqisi2
 1153              		.loc 1 344 0
 1154 0582 2379     		ldrb	r3, [r4, #4]	@ zero_extendqisi2
 1155              		.loc 1 345 0
 1156 0584 3848     		ldr	r0, .L140+12
 1157              		.loc 1 344 0
 1158 0586 03EB0123 		add	r3, r3, r1, lsl #8
 1159              		.loc 1 343 0
 1160 058a 02EB0522 		add	r2, r2, r5, lsl #8
 1161              		.loc 1 345 0
 1162 058e 6946     		mov	r1, sp
 1163              		.loc 1 343 0
 1164 0590 ADF80420 		strh	r2, [sp, #4]	@ movhi
 1165              		.loc 1 344 0
 1166 0594 ADF80630 		strh	r3, [sp, #6]	@ movhi
 1167              		.loc 1 345 0
 1168 0598 FFF7FEFF 		bl	f_utime
 1169              	.LVL84:
 1170              		.loc 1 346 0
 1171 059c 0028     		cmp	r0, #0
 1172 059e C2D0     		beq	.L84
 1173              	.LVL85:
 1174              	.L128:
 1175              	.LBE19:
 1176              	.LBB20:
 1177              		.loc 1 362 0
 1178 05a0 3149     		ldr	r1, .L140+12
 1179 05a2 FFF7FEFF 		bl	report_fatfs_error
 1180              	.LVL86:
 1181 05a6 BEE7     		b	.L84
 1182              	.LVL87:
 1183              	.L137:
 1184              	.LBE20:
 1185              	.LBB21:
 1186              		.loc 1 326 0
 1187 05a8 2C49     		ldr	r1, .L140
 1188 05aa FFF7FEFF 		bl	report_fatfs_error
 1189              	.LVL88:
 1190 05ae C9E7     		b	.L87
 1191              	.LVL89:
ARM GAS  /tmp/ccLdaIGa.s 			page 22


 1192              	.L136:
 1193              		.loc 1 322 0
 1194 05b0 2146     		mov	r1, r4
 1195 05b2 FFF7FEFF 		bl	report_fatfs_error
 1196              	.LVL90:
 1197 05b6 BFE7     		b	.L86
 1198              	.L132:
 1199              	.LBE21:
 1200              	.LBB22:
 1201              		.loc 1 352 0
 1202 05b8 2948     		ldr	r0, .L140+4
 1203 05ba A11D     		adds	r1, r4, #6
 1204 05bc 0A22     		movs	r2, #10
 1205 05be FFF7FEFF 		bl	f_open
 1206              	.LVL91:
 1207              		.loc 1 353 0
 1208 05c2 0028     		cmp	r0, #0
 1209 05c4 45D1     		bne	.L138
 1210              	.LVL92:
 1211              	.L94:
 1212              		.loc 1 356 0
 1213 05c6 274B     		ldr	r3, .L140+8
 1214 05c8 2548     		ldr	r0, .L140+4
 1215 05ca 1968     		ldr	r1, [r3]
 1216 05cc FFF7FEFF 		bl	f_lseek
 1217              	.LVL93:
 1218              		.loc 1 357 0
 1219 05d0 0028     		cmp	r0, #0
 1220 05d2 3AD1     		bne	.L139
 1221              	.LVL94:
 1222              	.L95:
 1223              		.loc 1 360 0
 1224 05d4 2248     		ldr	r0, .L140+4
 1225 05d6 0021     		movs	r1, #0
 1226 05d8 FFF7FEFF 		bl	f_lseek
 1227              	.LVL95:
 1228              		.loc 1 361 0
 1229 05dc 0028     		cmp	r0, #0
 1230 05de A2D0     		beq	.L84
 1231 05e0 DEE7     		b	.L128
 1232              	.LVL96:
 1233              	.L135:
 1234              	.LBE22:
 1235              	.LBB23:
 1236              		.loc 1 382 0
 1237 05e2 224D     		ldr	r5, .L140+16
 1238 05e4 0695     		str	r5, [sp, #24]
 1239              		.loc 1 383 0
 1240 05e6 4FF48073 		mov	r3, #256
 1241              		.loc 1 384 0
 1242 05ea A01D     		adds	r0, r4, #6
 1243 05ec 6946     		mov	r1, sp
 1244              		.loc 1 383 0
 1245 05ee 0793     		str	r3, [sp, #28]
 1246              		.loc 1 384 0
 1247 05f0 FFF7FEFF 		bl	f_stat
 1248              	.LVL97:
ARM GAS  /tmp/ccLdaIGa.s 			page 23


 1249              		.loc 1 385 0
 1250 05f4 0028     		cmp	r0, #0
 1251 05f6 96D1     		bne	.L84
 1252              	.LVL98:
 1253              	.LBB24:
 1254              		.loc 1 392 0
 1255 05f8 BDF80620 		ldrh	r2, [sp, #6]
 1256 05fc BDF80430 		ldrh	r3, [sp, #4]
 1257              		.loc 1 391 0
 1258 0600 0099     		ldr	r1, [sp]
 1259 0602 6960     		str	r1, [r5, #4]
 1260              		.loc 1 392 0
 1261 0604 03EB0243 		add	r3, r3, r2, lsl #16
 1262              		.loc 1 393 0
 1263 0608 05F10C06 		add	r6, r5, #12
 1264 060c A11D     		adds	r1, r4, #6
 1265              		.loc 1 387 0
 1266 060e 4FF0410E 		mov	lr, #65
 1267              		.loc 1 390 0
 1268 0612 6622     		movs	r2, #102
 1269              		.loc 1 388 0
 1270 0614 7827     		movs	r7, #120
 1271              		.loc 1 389 0
 1272 0616 6F24     		movs	r4, #111
 1273              		.loc 1 392 0
 1274 0618 AB60     		str	r3, [r5, #8]
 1275              		.loc 1 389 0
 1276 061a AC70     		strb	r4, [r5, #2]
 1277              		.loc 1 390 0
 1278 061c EA70     		strb	r2, [r5, #3]
 1279              		.loc 1 393 0
 1280 061e 3046     		mov	r0, r6
 1281              	.LVL99:
 1282              		.loc 1 387 0
 1283 0620 85F800E0 		strb	lr, [r5]
 1284              		.loc 1 388 0
 1285 0624 6F70     		strb	r7, [r5, #1]
 1286              		.loc 1 393 0
 1287 0626 FFF7FEFF 		bl	stpcpy
 1288              	.LVL100:
 1289              		.loc 1 395 0
 1290 062a 114B     		ldr	r3, .L140+20
 1291 062c 1C68     		ldr	r4, [r3]
 1292              		.loc 1 393 0
 1293 062e 821B     		subs	r2, r0, r6
 1294              		.loc 1 395 0
 1295 0630 0D32     		adds	r2, r2, #13
 1296 0632 2946     		mov	r1, r5
 1297 0634 2468     		ldr	r4, [r4]
 1298 0636 1846     		mov	r0, r3
 1299              	.LVL101:
 1300 0638 A047     		blx	r4
 1301              	.LVL102:
 1302 063a 74E7     		b	.L84
 1303              	.LVL103:
 1304              	.L134:
 1305              	.LBE24:
ARM GAS  /tmp/ccLdaIGa.s 			page 24


 1306              	.LBE23:
 1307              	.LBB25:
 1308              		.loc 1 374 0
 1309 063c A01D     		adds	r0, r4, #6
 1310 063e FFF7FEFF 		bl	f_chdir
 1311              	.LVL104:
 1312              		.loc 1 375 0
 1313 0642 0028     		cmp	r0, #0
 1314 0644 3FF46FAF 		beq	.L84
 1315 0648 8BE7     		b	.L129
 1316              	.LVL105:
 1317              	.L139:
 1318              	.LBE25:
 1319              	.LBB26:
 1320              		.loc 1 358 0
 1321 064a 0749     		ldr	r1, .L140+12
 1322 064c FFF7FEFF 		bl	report_fatfs_error
 1323              	.LVL106:
 1324 0650 C0E7     		b	.L95
 1325              	.LVL107:
 1326              	.L138:
 1327              		.loc 1 354 0
 1328 0652 A11D     		adds	r1, r4, #6
 1329 0654 FFF7FEFF 		bl	report_fatfs_error
 1330              	.LVL108:
 1331 0658 B5E7     		b	.L94
 1332              	.L141:
 1333 065a 00BF     		.align	2
 1334              	.L140:
 1335 065c 00000000 		.word	FileName
 1336 0660 00000000 		.word	pFile
 1337 0664 00000000 		.word	pFileSize
 1338 0668 06000000 		.word	FileName+6
 1339 066c 00000000 		.word	fbuff
 1340 0670 00000000 		.word	BDU1
 1341              	.LBE26:
 1342              		.cfi_endproc
 1343              	.LFE139:
 1344              		.size	ManipulateFile, .-ManipulateFile
 1345              		.align	2
 1346 0674 AFF30080 		.p2align 4,,15
 1346      AFF30080 
 1346      AFF30080 
 1347              		.global	CloseFile
 1348              		.thumb
 1349              		.thumb_func
 1350              		.type	CloseFile, %function
 1351              	CloseFile:
 1352              	.LFB140:
 1353              		.loc 1 402 0
 1354              		.cfi_startproc
 1355              		@ args = 0, pretend = 0, frame = 32
 1356              		@ frame_needed = 0, uses_anonymous_args = 0
 1357 0680 10B5     		push	{r4, lr}
 1358              		.cfi_def_cfa_offset 8
 1359              		.cfi_offset 4, -8
 1360              		.cfi_offset 14, -4
ARM GAS  /tmp/ccLdaIGa.s 			page 25


 1361              		.loc 1 404 0
 1362 0682 1248     		ldr	r0, .L155
 1363              		.loc 1 402 0
 1364 0684 88B0     		sub	sp, sp, #32
 1365              		.cfi_def_cfa_offset 40
 1366              		.loc 1 404 0
 1367 0686 FFF7FEFF 		bl	f_close
 1368              	.LVL109:
 1369              		.loc 1 405 0
 1370 068a D8B9     		cbnz	r0, .L153
 1371              	.LVL110:
 1372              	.L143:
 1373              		.loc 1 408 0
 1374 068c 104C     		ldr	r4, .L155+4
 1375 068e 2378     		ldrb	r3, [r4]	@ zero_extendqisi2
 1376 0690 0BB1     		cbz	r3, .L154
 1377              	.L142:
 1378              		.loc 1 418 0
 1379 0692 08B0     		add	sp, sp, #32
 1380              		.cfi_remember_state
 1381              		.cfi_def_cfa_offset 8
 1382              		@ sp needed
 1383 0694 10BD     		pop	{r4, pc}
 1384              	.L154:
 1385              		.cfi_restore_state
 1386              	.LBB30:
 1387              	.LBB31:
 1388              	.LBB32:
 1389              		.loc 1 411 0
 1390 0696 E078     		ldrb	r0, [r4, #3]	@ zero_extendqisi2
 1391              		.loc 1 412 0
 1392 0698 6179     		ldrb	r1, [r4, #5]	@ zero_extendqisi2
 1393              		.loc 1 411 0
 1394 069a A278     		ldrb	r2, [r4, #2]	@ zero_extendqisi2
 1395              		.loc 1 412 0
 1396 069c 2379     		ldrb	r3, [r4, #4]	@ zero_extendqisi2
 1397              		.loc 1 411 0
 1398 069e 02EB0022 		add	r2, r2, r0, lsl #8
 1399              		.loc 1 412 0
 1400 06a2 03EB0123 		add	r3, r3, r1, lsl #8
 1401              		.loc 1 413 0
 1402 06a6 A01D     		adds	r0, r4, #6
 1403 06a8 6946     		mov	r1, sp
 1404              		.loc 1 411 0
 1405 06aa ADF80420 		strh	r2, [sp, #4]	@ movhi
 1406              		.loc 1 412 0
 1407 06ae ADF80630 		strh	r3, [sp, #6]	@ movhi
 1408              		.loc 1 413 0
 1409 06b2 FFF7FEFF 		bl	f_utime
 1410              	.LVL111:
 1411              		.loc 1 414 0
 1412 06b6 0028     		cmp	r0, #0
 1413 06b8 EBD0     		beq	.L142
 1414              		.loc 1 415 0
 1415 06ba A11D     		adds	r1, r4, #6
 1416 06bc FFF7FEFF 		bl	report_fatfs_error
 1417              	.LVL112:
ARM GAS  /tmp/ccLdaIGa.s 			page 26


 1418              	.LBE32:
 1419              	.LBE31:
 1420              	.LBE30:
 1421              		.loc 1 418 0
 1422 06c0 08B0     		add	sp, sp, #32
 1423              		.cfi_remember_state
 1424              		.cfi_def_cfa_offset 8
 1425              		@ sp needed
 1426 06c2 10BD     		pop	{r4, pc}
 1427              	.LVL113:
 1428              	.L153:
 1429              		.cfi_restore_state
 1430              		.loc 1 406 0
 1431 06c4 0249     		ldr	r1, .L155+4
 1432 06c6 FFF7FEFF 		bl	report_fatfs_error
 1433              	.LVL114:
 1434 06ca DFE7     		b	.L143
 1435              	.L156:
 1436              		.align	2
 1437              	.L155:
 1438 06cc 00000000 		.word	pFile
 1439 06d0 00000000 		.word	FileName
 1440              		.cfi_endproc
 1441              	.LFE140:
 1442              		.size	CloseFile, .-CloseFile
 1443              		.align	2
 1444 06d4 AFF30080 		.p2align 4,,15
 1444      AFF30080 
 1444      AFF30080 
 1445              		.global	CopyPatchToFlash
 1446              		.thumb
 1447              		.thumb_func
 1448              		.type	CopyPatchToFlash, %function
 1449              	CopyPatchToFlash:
 1450              	.LFB141:
 1451              		.loc 1 420 0
 1452              		.cfi_startproc
 1453              		@ args = 0, pretend = 0, frame = 0
 1454              		@ frame_needed = 0, uses_anonymous_args = 0
 1455 06e0 38B5     		push	{r3, r4, r5, lr}
 1456              		.cfi_def_cfa_offset 16
 1457              		.cfi_offset 3, -16
 1458              		.cfi_offset 4, -12
 1459              		.cfi_offset 5, -8
 1460              		.cfi_offset 14, -4
 1461              		.loc 1 421 0
 1462 06e2 FFF7FEFF 		bl	flash_unlock
 1463              	.LVL115:
 1464              		.loc 1 422 0
 1465 06e6 0B20     		movs	r0, #11
 1466 06e8 FFF7FEFF 		bl	flash_Erase_sector
 1467              	.LVL116:
 1468              		.loc 1 423 0
 1469 06ec 0F4C     		ldr	r4, .L167
 1470              		.loc 1 426 0
 1471 06ee 104D     		ldr	r5, .L167+4
 1472              	.LVL117:
ARM GAS  /tmp/ccLdaIGa.s 			page 27


 1473              	.L158:
 1474 06f0 04F16840 		add	r0, r4, #-402653184
 1475              		.loc 1 427 0
 1476 06f4 54F8041B 		ldr	r1, [r4], #4
 1477              	.LVL118:
 1478 06f8 00F54F20 		add	r0, r0, #847872
 1479 06fc FFF7FEFF 		bl	flash_ProgramWord
 1480              	.LVL119:
 1481              		.loc 1 426 0
 1482 0700 AC42     		cmp	r4, r5
 1483 0702 F5D1     		bne	.L158
 1484 0704 0B4B     		ldr	r3, .L167+8
 1485 0706 0C4A     		ldr	r2, .L167+12
 1486              		.loc 1 436 0
 1487 0708 0C4D     		ldr	r5, .L167+16
 1488 070a 0024     		movs	r4, #0
 1489              	.LVL120:
 1490              	.L160:
 1491              		.loc 1 437 0
 1492 070c 53F8041F 		ldr	r1, [r3, #4]!
 1493 0710 52F8040F 		ldr	r0, [r2, #4]!
 1494              	.LVL121:
 1495 0714 8842     		cmp	r0, r1
 1496              		.loc 1 438 0
 1497 0716 18BF     		it	ne
 1498 0718 0134     		addne	r4, r4, #1
 1499              	.LVL122:
 1500              		.loc 1 436 0
 1501 071a AB42     		cmp	r3, r5
 1502 071c F6D1     		bne	.L160
 1503              		.loc 1 443 0
 1504 071e 04B1     		cbz	r4, .L161
 1505              	.L165:
 1506              		.loc 1 446 0 discriminator 1
 1507 0720 FEE7     		b	.L165
 1508              	.L161:
 1509              		.loc 1 448 0
 1510 0722 074B     		ldr	r3, .L167+20
 1511 0724 0122     		movs	r2, #1
 1512              	.LVL123:
 1513 0726 C3F85422 		str	r2, [r3, #596]
 1514 072a 38BD     		pop	{r3, r4, r5, pc}
 1515              	.LVL124:
 1516              	.L168:
 1517              		.align	2
 1518              	.L167:
 1519 072c 00100120 		.word	536940544
 1520 0730 00C00120 		.word	536985600
 1521 0734 FC0F0120 		.word	536940540
 1522 0738 FCFF0D08 		.word	135135228
 1523 073c FCBF0120 		.word	536985596
 1524 0740 00000000 		.word	.LANCHOR0
 1525              		.cfi_endproc
 1526              	.LFE141:
 1527              		.size	CopyPatchToFlash, .-CopyPatchToFlash
 1528              		.align	2
 1529 0744 AFF30080 		.p2align 4,,15
ARM GAS  /tmp/ccLdaIGa.s 			page 28


 1529      AFF30080 
 1529      AFF30080 
 1530              		.global	ReplyFWVersion
 1531              		.thumb
 1532              		.thumb_func
 1533              		.type	ReplyFWVersion, %function
 1534              	ReplyFWVersion:
 1535              	.LFB142:
 1536              		.loc 1 451 0
 1537              		.cfi_startproc
 1538              		@ args = 0, pretend = 0, frame = 16
 1539              		@ frame_needed = 0, uses_anonymous_args = 0
 1540 0750 2DE9F047 		push	{r4, r5, r6, r7, r8, r9, r10, lr}
 1541              		.cfi_def_cfa_offset 32
 1542              		.cfi_offset 4, -32
 1543              		.cfi_offset 5, -28
 1544              		.cfi_offset 6, -24
 1545              		.cfi_offset 7, -20
 1546              		.cfi_offset 8, -16
 1547              		.cfi_offset 9, -12
 1548              		.cfi_offset 10, -8
 1549              		.cfi_offset 14, -4
 1550              	.LBB33:
 1551              	.LBB34:
 1552              		.loc 1 99 0
 1553 0754 1D4B     		ldr	r3, .L171
 1554              	.LBE34:
 1555              	.LBE33:
 1556              		.loc 1 470 0
 1557 0756 1E48     		ldr	r0, .L171+4
 1558              	.LBB36:
 1559              	.LBB35:
 1560              		.loc 1 99 0
 1561 0758 1B68     		ldr	r3, [r3]
 1562              	.LVL125:
 1563              	.LBE35:
 1564              	.LBE36:
 1565              		.loc 1 470 0
 1566 075a 0568     		ldr	r5, [r0]
 1567              		.loc 1 451 0
 1568 075c 84B0     		sub	sp, sp, #16
 1569              		.cfi_def_cfa_offset 48
 1570              		.loc 1 457 0
 1571 075e 0124     		movs	r4, #1
 1572              		.loc 1 465 0
 1573 0760 8DF80B30 		strb	r3, [sp, #11]
 1574              		.loc 1 458 0
 1575 0764 0021     		movs	r1, #0
 1576              		.loc 1 462 0
 1577 0766 4FEA136A 		lsr	r10, r3, #24
 1578              		.loc 1 463 0
 1579 076a 4FEA1349 		lsr	r9, r3, #16
 1580              		.loc 1 454 0
 1581 076e 4FF0780C 		mov	ip, #120
 1582              		.loc 1 455 0
 1583 0772 4FF06F0E 		mov	lr, #111
 1584              		.loc 1 468 0
ARM GAS  /tmp/ccLdaIGa.s 			page 29


 1585 0776 1022     		movs	r2, #16
 1586              		.loc 1 464 0
 1587 0778 1B0A     		lsrs	r3, r3, #8
 1588              	.LVL126:
 1589              		.loc 1 453 0
 1590 077a 4FF04108 		mov	r8, #65
 1591              		.loc 1 456 0
 1592 077e 5627     		movs	r7, #86
 1593              		.loc 1 466 0
 1594 0780 2026     		movs	r6, #32
 1595              		.loc 1 458 0
 1596 0782 8DF80510 		strb	r1, [sp, #5]
 1597              		.loc 1 459 0
 1598 0786 8DF80610 		strb	r1, [sp, #6]
 1599              		.loc 1 469 0
 1600 078a 8DF80F10 		strb	r1, [sp, #15]
 1601              		.loc 1 462 0
 1602 078e 8DF808A0 		strb	r10, [sp, #8]
 1603              		.loc 1 463 0
 1604 0792 8DF80990 		strb	r9, [sp, #9]
 1605              		.loc 1 464 0
 1606 0796 8DF80A30 		strb	r3, [sp, #10]
 1607              		.loc 1 453 0
 1608 079a 8DF80080 		strb	r8, [sp]
 1609              		.loc 1 454 0
 1610 079e 8DF801C0 		strb	ip, [sp, #1]
 1611              		.loc 1 455 0
 1612 07a2 8DF802E0 		strb	lr, [sp, #2]
 1613              		.loc 1 456 0
 1614 07a6 8DF80370 		strb	r7, [sp, #3]
 1615              		.loc 1 457 0
 1616 07aa 8DF80440 		strb	r4, [sp, #4]
 1617              		.loc 1 460 0
 1618 07ae 8DF80740 		strb	r4, [sp, #7]
 1619              		.loc 1 467 0
 1620 07b2 8DF80D40 		strb	r4, [sp, #13]
 1621              		.loc 1 466 0
 1622 07b6 8DF80C60 		strb	r6, [sp, #12]
 1623              		.loc 1 468 0
 1624 07ba 8DF80E20 		strb	r2, [sp, #14]
 1625              		.loc 1 470 0
 1626 07be 2B68     		ldr	r3, [r5]
 1627 07c0 6946     		mov	r1, sp
 1628 07c2 9847     		blx	r3
 1629              	.LVL127:
 1630              		.loc 1 472 0
 1631 07c4 04B0     		add	sp, sp, #16
 1632              		.cfi_def_cfa_offset 32
 1633              		@ sp needed
 1634 07c6 BDE8F087 		pop	{r4, r5, r6, r7, r8, r9, r10, pc}
 1635              	.L172:
 1636 07ca 00BF     		.align	2
 1637              	.L171:
 1638 07cc 00000000 		.word	fwid
 1639 07d0 00000000 		.word	BDU1
 1640              		.cfi_endproc
 1641              	.LFE142:
ARM GAS  /tmp/ccLdaIGa.s 			page 30


 1642              		.size	ReplyFWVersion, .-ReplyFWVersion
 1643              		.align	2
 1644 07d4 AFF30080 		.p2align 4,,15
 1644      AFF30080 
 1644      AFF30080 
 1645              		.global	PExReceiveByte
 1646              		.thumb
 1647              		.thumb_func
 1648              		.type	PExReceiveByte, %function
 1649              	PExReceiveByte:
 1650              	.LFB143:
 1651              		.loc 1 474 0
 1652              		.cfi_startproc
 1653              		@ args = 0, pretend = 0, frame = 16
 1654              		@ frame_needed = 0, uses_anonymous_args = 0
 1655              	.LVL128:
 1656 07e0 F0B5     		push	{r4, r5, r6, r7, lr}
 1657              		.cfi_def_cfa_offset 20
 1658              		.cfi_offset 4, -20
 1659              		.cfi_offset 5, -16
 1660              		.cfi_offset 6, -12
 1661              		.cfi_offset 7, -8
 1662              		.cfi_offset 14, -4
 1663              		.loc 1 486 0
 1664 07e2 B24C     		ldr	r4, .L359
 1665 07e4 94F85832 		ldrb	r3, [r4, #600]	@ zero_extendqisi2
 1666              		.loc 1 474 0
 1667 07e8 87B0     		sub	sp, sp, #28
 1668              		.cfi_def_cfa_offset 48
 1669              		.loc 1 474 0
 1670 07ea 0546     		mov	r5, r0
 1671              		.loc 1 486 0
 1672 07ec 002B     		cmp	r3, #0
 1673 07ee 46D1     		bne	.L174
 1674              		.loc 1 487 0
 1675 07f0 D4F85C32 		ldr	r3, [r4, #604]
 1676 07f4 032B     		cmp	r3, #3
 1677 07f6 40D8     		bhi	.L173
 1678 07f8 DFE803F0 		tbb	[pc, r3]
 1679              	.L177:
 1680 07fc 71       		.byte	(.L176-.L177)/2
 1681 07fd 77       		.byte	(.L178-.L177)/2
 1682 07fe 7F       		.byte	(.L179-.L177)/2
 1683 07ff 02       		.byte	(.L180-.L177)/2
 1684              		.p2align 1
 1685              	.L180:
 1686              		.loc 1 506 0
 1687 0800 00F0FD03 		and	r3, r0, #253
 1688 0804 502B     		cmp	r3, #80
 1689              		.loc 1 505 0
 1690 0806 84F85802 		strb	r0, [r4, #600]
 1691 080a A84E     		ldr	r6, .L359
 1692              		.loc 1 506 0
 1693 080c 00F08D80 		beq	.L184
 1694              		.loc 1 512 0
 1695 0810 00F0DF03 		and	r3, r0, #223
 1696 0814 572B     		cmp	r3, #87
ARM GAS  /tmp/ccLdaIGa.s 			page 31


 1697 0816 00F08880 		beq	.L184
 1698              		.loc 1 518 0
 1699 081a 5428     		cmp	r0, #84
 1700 081c 00F08580 		beq	.L184
 1701              		.loc 1 521 0
 1702 0820 4D28     		cmp	r0, #77
 1703 0822 00F08280 		beq	.L184
 1704              		.loc 1 530 0
 1705 0826 A0F14103 		sub	r3, r0, #65
 1706 082a 022B     		cmp	r3, #2
 1707 082c 7DD9     		bls	.L184
 1708              		.loc 1 533 0
 1709 082e 7228     		cmp	r0, #114
 1710 0830 7BD0     		beq	.L184
 1711              		.loc 1 536 0
 1712 0832 7928     		cmp	r0, #121
 1713 0834 79D0     		beq	.L184
 1714              		.loc 1 539 0
 1715 0836 5328     		cmp	r0, #83
 1716 0838 00F0BA83 		beq	.L338
 1717              		.loc 1 545 0
 1718 083c 4428     		cmp	r0, #68
 1719 083e 00F0C283 		beq	.L339
 1720              		.loc 1 551 0
 1721 0842 4628     		cmp	r0, #70
 1722 0844 00F0C983 		beq	.L340
 1723              		.loc 1 557 0
 1724 0848 6428     		cmp	r0, #100
 1725 084a 00F0D883 		beq	.L341
 1726              		.loc 1 563 0
 1727 084e 7328     		cmp	r0, #115
 1728 0850 00F0E983 		beq	.L342
 1729              		.loc 1 570 0
 1730 0854 5628     		cmp	r0, #86
 1731              		.loc 1 571 0
 1732 0856 4FF00003 		mov	r3, #0
 1733              		.loc 1 570 0
 1734 085a 00F0DA83 		beq	.L343
 1735              		.loc 1 576 0
 1736 085e 7028     		cmp	r0, #112
 1737 0860 00F09E83 		beq	.L344
 1738              		.loc 1 584 0
 1739 0864 6328     		cmp	r0, #99
 1740              		.loc 1 585 0
 1741 0866 C4F85C32 		str	r3, [r4, #604]
 1742              		.loc 1 584 0
 1743 086a 06D1     		bne	.L173
 1744              		.loc 1 586 0
 1745 086c 84F85832 		strb	r3, [r4, #600]
 1746              		.loc 1 587 0
 1747 0870 FFF7FEFF 		bl	CloseFile
 1748              	.LVL129:
 1749              		.loc 1 588 0
 1750 0874 0123     		movs	r3, #1
 1751 0876 C4F85432 		str	r3, [r4, #596]
 1752              	.L173:
 1753              		.loc 1 1073 0
ARM GAS  /tmp/ccLdaIGa.s 			page 32


 1754 087a 07B0     		add	sp, sp, #28
 1755              		.cfi_remember_state
 1756              		.cfi_def_cfa_offset 20
 1757              		@ sp needed
 1758 087c F0BD     		pop	{r4, r5, r6, r7, pc}
 1759              	.LVL130:
 1760              	.L174:
 1761              		.cfi_restore_state
 1762              		.loc 1 595 0
 1763 087e 502B     		cmp	r3, #80
 1764 0880 20D0     		beq	.L345
 1765              		.loc 1 647 0
 1766 0882 572B     		cmp	r3, #87
 1767 0884 55D0     		beq	.L346
 1768              		.loc 1 699 0
 1769 0886 772B     		cmp	r3, #119
 1770 0888 3DD0     		beq	.L347
 1771              		.loc 1 782 0
 1772 088a 542B     		cmp	r3, #84
 1773 088c 00F01482 		beq	.L348
 1774              		.loc 1 788 0
 1775 0890 4D2B     		cmp	r3, #77
 1776 0892 00F09781 		beq	.L349
 1777              		.loc 1 811 0
 1778 0896 432B     		cmp	r3, #67
 1779 0898 00F0A581 		beq	.L350
 1780              		.loc 1 848 0
 1781 089c 412B     		cmp	r3, #65
 1782 089e 00F0D881 		beq	.L351
 1783              		.loc 1 892 0
 1784 08a2 422B     		cmp	r3, #66
 1785 08a4 51D0     		beq	.L352
 1786              		.loc 1 947 0
 1787 08a6 522B     		cmp	r3, #82
 1788 08a8 00F01782 		beq	.L353
 1789              		.loc 1 986 0
 1790 08ac 722B     		cmp	r3, #114
 1791 08ae 00F07282 		beq	.L354
 1792              		.loc 1 1037 0
 1793 08b2 792B     		cmp	r3, #121
 1794 08b4 00F0F582 		beq	.L355
 1795              	.LVL131:
 1796              	.L337:
 1797              	.LBB37:
 1798              		.loc 1 803 0
 1799 08b8 0023     		movs	r3, #0
 1800 08ba 84F85832 		strb	r3, [r4, #600]
 1801              		.loc 1 804 0
 1802 08be C4F85C32 		str	r3, [r4, #604]
 1803              		.loc 1 805 0
 1804 08c2 DAE7     		b	.L173
 1805              	.LVL132:
 1806              	.L345:
 1807              	.LBE37:
 1808              		.loc 1 596 0
 1809 08c4 D4F85C32 		ldr	r3, [r4, #604]
 1810 08c8 043B     		subs	r3, r3, #4
ARM GAS  /tmp/ccLdaIGa.s 			page 33


 1811 08ca 092B     		cmp	r3, #9
 1812 08cc 00F2FF81 		bhi	.L194
 1813 08d0 DFE803F0 		tbb	[pc, r3]
 1814              	.L196:
 1815 08d4 BA       		.byte	(.L195-.L196)/2
 1816 08d5 B0       		.byte	(.L197-.L196)/2
 1817 08d6 A6       		.byte	(.L198-.L196)/2
 1818 08d7 72       		.byte	(.L199-.L196)/2
 1819 08d8 62       		.byte	(.L287-.L196)/2
 1820 08d9 58       		.byte	(.L288-.L196)/2
 1821 08da 4E       		.byte	(.L289-.L196)/2
 1822 08db 68       		.byte	(.L217-.L196)/2
 1823 08dc 7C       		.byte	(.L204-.L196)/2
 1824 08dd 82       		.byte	(.L205-.L196)/2
 1825              		.p2align 1
 1826              	.L176:
 1827              		.loc 1 489 0
 1828 08de 4128     		cmp	r0, #65
 1829 08e0 CBD1     		bne	.L173
 1830              		.loc 1 490 0
 1831 08e2 0123     		movs	r3, #1
 1832 08e4 C4F85C32 		str	r3, [r4, #604]
 1833 08e8 C7E7     		b	.L173
 1834              	.L178:
 1835              		.loc 1 493 0
 1836 08ea 7828     		cmp	r0, #120
 1837 08ec 00F0AD81 		beq	.L356
 1838              	.L182:
 1839              		.loc 1 496 0
 1840 08f0 0023     		movs	r3, #0
 1841 08f2 C4F85C32 		str	r3, [r4, #604]
 1842              		.loc 1 1073 0
 1843 08f6 07B0     		add	sp, sp, #28
 1844              		.cfi_remember_state
 1845              		.cfi_def_cfa_offset 20
 1846              		@ sp needed
 1847 08f8 F0BD     		pop	{r4, r5, r6, r7, pc}
 1848              	.L179:
 1849              		.cfi_restore_state
 1850              		.loc 1 499 0
 1851 08fa 6F28     		cmp	r0, #111
 1852 08fc F8D1     		bne	.L182
 1853              		.loc 1 500 0
 1854 08fe 0323     		movs	r3, #3
 1855 0900 C4F85C32 		str	r3, [r4, #604]
 1856 0904 B9E7     		b	.L173
 1857              	.L347:
 1858              		.loc 1 700 0
 1859 0906 D4F85C22 		ldr	r2, [r4, #604]
 1860 090a 131F     		subs	r3, r2, #4
 1861 090c 132B     		cmp	r3, #19
 1862 090e 00F29282 		bhi	.L220
 1863 0912 DFE803F0 		tbb	[pc, r3]
 1864              	.L222:
 1865 0916 B3       		.byte	(.L292-.L222)/2
 1866 0917 A9       		.byte	(.L294-.L222)/2
 1867 0918 9F       		.byte	(.L295-.L222)/2
ARM GAS  /tmp/ccLdaIGa.s 			page 34


 1868 0919 B9       		.byte	(.L286-.L222)/2
 1869 091a 41       		.byte	(.L287-.L222)/2
 1870 091b 37       		.byte	(.L288-.L222)/2
 1871 091c 2D       		.byte	(.L289-.L222)/2
 1872 091d D1       		.byte	(.L229-.L222)/2
 1873 091e C3       		.byte	(.L230-.L222)/2
 1874 091f C3       		.byte	(.L230-.L222)/2
 1875 0920 C3       		.byte	(.L230-.L222)/2
 1876 0921 C3       		.byte	(.L230-.L222)/2
 1877 0922 C3       		.byte	(.L230-.L222)/2
 1878 0923 C3       		.byte	(.L230-.L222)/2
 1879 0924 C3       		.byte	(.L230-.L222)/2
 1880 0925 C3       		.byte	(.L230-.L222)/2
 1881 0926 C3       		.byte	(.L230-.L222)/2
 1882 0927 C3       		.byte	(.L230-.L222)/2
 1883 0928 C3       		.byte	(.L230-.L222)/2
 1884 0929 C3       		.byte	(.L230-.L222)/2
 1885              		.p2align 1
 1886              	.L184:
 1887              		.loc 1 507 0
 1888 092a 0423     		movs	r3, #4
 1889 092c C4F85C32 		str	r3, [r4, #604]
 1890 0930 A3E7     		b	.L173
 1891              	.L346:
 1892              		.loc 1 648 0
 1893 0932 D4F85C32 		ldr	r3, [r4, #604]
 1894 0936 043B     		subs	r3, r3, #4
 1895 0938 072B     		cmp	r3, #7
 1896 093a 00F21282 		bhi	.L208
 1897 093e DFE803F0 		tbb	[pc, r3]
 1898              	.L210:
 1899 0942 9D       		.byte	(.L292-.L210)/2
 1900 0943 93       		.byte	(.L294-.L210)/2
 1901 0944 89       		.byte	(.L295-.L210)/2
 1902 0945 A3       		.byte	(.L286-.L210)/2
 1903 0946 2B       		.byte	(.L287-.L210)/2
 1904 0947 21       		.byte	(.L288-.L210)/2
 1905 0948 17       		.byte	(.L289-.L210)/2
 1906 0949 31       		.byte	(.L217-.L210)/2
 1907              		.p2align 1
 1908              	.L352:
 1909              		.loc 1 893 0
 1910 094a D4F85C32 		ldr	r3, [r4, #604]
 1911 094e 043B     		subs	r3, r3, #4
 1912 0950 0B2B     		cmp	r3, #11
 1913 0952 92D8     		bhi	.L173
 1914 0954 DFE813F0 		tbh	[pc, r3, lsl #1]
 1915              	.L261:
 1916 0958 3001     		.2byte	(.L260-.L261)/2
 1917 095a 2601     		.2byte	(.L262-.L261)/2
 1918 095c 1C01     		.2byte	(.L263-.L261)/2
 1919 095e 1201     		.2byte	(.L264-.L261)/2
 1920 0960 0C01     		.2byte	(.L265-.L261)/2
 1921 0962 0201     		.2byte	(.L266-.L261)/2
 1922 0964 F800     		.2byte	(.L267-.L261)/2
 1923 0966 EE00     		.2byte	(.L268-.L261)/2
 1924 0968 E600     		.2byte	(.L269-.L261)/2
ARM GAS  /tmp/ccLdaIGa.s 			page 35


 1925 096a DE00     		.2byte	(.L270-.L261)/2
 1926 096c D600     		.2byte	(.L271-.L261)/2
 1927 096e C000     		.2byte	(.L272-.L261)/2
 1928              		.p2align 1
 1929              	.L289:
 1930              	.LBB38:
 1931              		.loc 1 1013 0
 1932 0970 D4F86432 		ldr	r3, [r4, #612]
 1933              		.loc 1 1014 0
 1934 0974 0B22     		movs	r2, #11
 1935              		.loc 1 1013 0
 1936 0976 03EB0543 		add	r3, r3, r5, lsl #16
 1937 097a C4F86432 		str	r3, [r4, #612]
 1938              		.loc 1 1014 0
 1939 097e C4F85C22 		str	r2, [r4, #604]
 1940              		.loc 1 1015 0
 1941 0982 7AE7     		b	.L173
 1942              	.L288:
 1943              		.loc 1 1009 0
 1944 0984 D4F86432 		ldr	r3, [r4, #612]
 1945              		.loc 1 1010 0
 1946 0988 0A22     		movs	r2, #10
 1947              		.loc 1 1009 0
 1948 098a 03EB0523 		add	r3, r3, r5, lsl #8
 1949 098e C4F86432 		str	r3, [r4, #612]
 1950              		.loc 1 1010 0
 1951 0992 C4F85C22 		str	r2, [r4, #604]
 1952              		.loc 1 1011 0
 1953 0996 70E7     		b	.L173
 1954              	.L287:
 1955              		.loc 1 1006 0
 1956 0998 0923     		movs	r3, #9
 1957              		.loc 1 1005 0
 1958 099a C4F86452 		str	r5, [r4, #612]
 1959              		.loc 1 1006 0
 1960 099e C4F85C32 		str	r3, [r4, #604]
 1961              		.loc 1 1007 0
 1962 09a2 6AE7     		b	.L173
 1963              	.L217:
 1964              	.LBE38:
 1965              		.loc 1 678 0
 1966 09a4 D4F86432 		ldr	r3, [r4, #612]
 1967              		.loc 1 679 0
 1968 09a8 0C22     		movs	r2, #12
 1969              		.loc 1 678 0
 1970 09aa 03EB0563 		add	r3, r3, r5, lsl #24
 1971 09ae C4F86432 		str	r3, [r4, #612]
 1972              		.loc 1 679 0
 1973 09b2 C4F85C22 		str	r2, [r4, #604]
 1974              		.loc 1 680 0
 1975 09b6 60E7     		b	.L173
 1976              	.L199:
 1977              		.loc 1 610 0
 1978 09b8 D4F86032 		ldr	r3, [r4, #608]
 1979              		.loc 1 611 0
 1980 09bc 0822     		movs	r2, #8
 1981              		.loc 1 610 0
ARM GAS  /tmp/ccLdaIGa.s 			page 36


 1982 09be 03EB0063 		add	r3, r3, r0, lsl #24
 1983 09c2 C4F86032 		str	r3, [r4, #608]
 1984              		.loc 1 611 0
 1985 09c6 C4F85C22 		str	r2, [r4, #604]
 1986              		.loc 1 612 0
 1987 09ca 56E7     		b	.L173
 1988              	.L204:
 1989              		.loc 1 631 0
 1990 09cc 0D23     		movs	r3, #13
 1991              		.loc 1 630 0
 1992 09ce C4F86802 		str	r0, [r4, #616]
 1993              		.loc 1 631 0
 1994 09d2 C4F85C32 		str	r3, [r4, #604]
 1995              		.loc 1 632 0
 1996 09d6 50E7     		b	.L173
 1997              	.L205:
 1998              		.loc 1 637 0
 1999 09d8 354A     		ldr	r2, .L359+4
 2000              		.loc 1 634 0
 2001 09da D4F86832 		ldr	r3, [r4, #616]
 2002              		.loc 1 637 0
 2003 09de 106A     		ldr	r0, [r2, #32]
 2004              	.LVL133:
 2005 09e0 D4F86012 		ldr	r1, [r4, #608]
 2006              		.loc 1 634 0
 2007 09e4 314E     		ldr	r6, .L359
 2008 09e6 03EB0525 		add	r5, r3, r5, lsl #8
 2009              		.loc 1 637 0
 2010 09ea 8842     		cmp	r0, r1
 2011              		.loc 1 635 0
 2012 09ec 4FF00003 		mov	r3, #0
 2013              		.loc 1 634 0
 2014 09f0 C4F86852 		str	r5, [r4, #616]
 2015              		.loc 1 635 0
 2016 09f4 C4F85C32 		str	r3, [r4, #604]
 2017              		.loc 1 636 0
 2018 09f8 84F85832 		strb	r3, [r4, #600]
 2019              		.loc 1 637 0
 2020 09fc 7FF43DAF 		bne	.L173
 2021              		.loc 1 637 0 is_stmt 0 discriminator 1
 2022 0a00 5369     		ldr	r3, [r2, #20]
 2023 0a02 9D42     		cmp	r5, r3
 2024 0a04 BFF439AF 		bcs	.L173
 2025              		.loc 1 639 0 is_stmt 1
 2026 0a08 9069     		ldr	r0, [r2, #24]
 2027 0a0a D6F86412 		ldr	r1, [r6, #612]
 2028 0a0e 05EB8505 		add	r5, r5, r5, lsl #2
 2029 0a12 00EB8500 		add	r0, r0, r5, lsl #2
 2030 0a16 6FF01102 		mvn	r2, #17
 2031 0a1a FFF7FEFF 		bl	PExParameterChange
 2032              	.LVL134:
 2033 0a1e 2CE7     		b	.L173
 2034              	.LVL135:
 2035              	.L198:
 2036              		.loc 1 606 0
 2037 0a20 D4F86032 		ldr	r3, [r4, #608]
 2038              		.loc 1 607 0
ARM GAS  /tmp/ccLdaIGa.s 			page 37


 2039 0a24 0722     		movs	r2, #7
 2040              		.loc 1 606 0
 2041 0a26 03EB0043 		add	r3, r3, r0, lsl #16
 2042 0a2a C4F86032 		str	r3, [r4, #608]
 2043              		.loc 1 607 0
 2044 0a2e C4F85C22 		str	r2, [r4, #604]
 2045              		.loc 1 608 0
 2046 0a32 22E7     		b	.L173
 2047              	.L197:
 2048              		.loc 1 602 0
 2049 0a34 D4F86032 		ldr	r3, [r4, #608]
 2050              		.loc 1 603 0
 2051 0a38 0622     		movs	r2, #6
 2052              		.loc 1 602 0
 2053 0a3a 03EB0023 		add	r3, r3, r0, lsl #8
 2054 0a3e C4F86032 		str	r3, [r4, #608]
 2055              		.loc 1 603 0
 2056 0a42 C4F85C22 		str	r2, [r4, #604]
 2057              		.loc 1 604 0
 2058 0a46 18E7     		b	.L173
 2059              	.L195:
 2060              		.loc 1 599 0
 2061 0a48 0523     		movs	r3, #5
 2062              		.loc 1 598 0
 2063 0a4a C4F86002 		str	r0, [r4, #608]
 2064              		.loc 1 599 0
 2065 0a4e C4F85C32 		str	r3, [r4, #604]
 2066              		.loc 1 600 0
 2067 0a52 12E7     		b	.L173
 2068              	.L295:
 2069              	.LBB39:
 2070              		.loc 1 1048 0
 2071 0a54 D4F86C32 		ldr	r3, [r4, #620]
 2072              		.loc 1 1049 0
 2073 0a58 0722     		movs	r2, #7
 2074              		.loc 1 1048 0
 2075 0a5a 03EB0543 		add	r3, r3, r5, lsl #16
 2076 0a5e C4F86C32 		str	r3, [r4, #620]
 2077              		.loc 1 1049 0
 2078 0a62 C4F85C22 		str	r2, [r4, #604]
 2079              		.loc 1 1050 0
 2080 0a66 08E7     		b	.L173
 2081              	.L294:
 2082              		.loc 1 1044 0
 2083 0a68 D4F86C32 		ldr	r3, [r4, #620]
 2084              		.loc 1 1045 0
 2085 0a6c 0622     		movs	r2, #6
 2086              		.loc 1 1044 0
 2087 0a6e 03EB0523 		add	r3, r3, r5, lsl #8
 2088 0a72 C4F86C32 		str	r3, [r4, #620]
 2089              		.loc 1 1045 0
 2090 0a76 C4F85C22 		str	r2, [r4, #604]
 2091              		.loc 1 1046 0
 2092 0a7a FEE6     		b	.L173
 2093              	.L292:
 2094              		.loc 1 1041 0
 2095 0a7c 0523     		movs	r3, #5
ARM GAS  /tmp/ccLdaIGa.s 			page 38


 2096              		.loc 1 1040 0
 2097 0a7e C4F86C52 		str	r5, [r4, #620]
 2098              		.loc 1 1041 0
 2099 0a82 C4F85C32 		str	r3, [r4, #604]
 2100              		.loc 1 1042 0
 2101 0a86 F8E6     		b	.L173
 2102              	.L286:
 2103              	.LBE39:
 2104              	.LBB40:
 2105              		.loc 1 1001 0
 2106 0a88 D4F86C32 		ldr	r3, [r4, #620]
 2107              		.loc 1 1002 0
 2108 0a8c 0822     		movs	r2, #8
 2109              		.loc 1 1001 0
 2110 0a8e 03EB0563 		add	r3, r3, r5, lsl #24
 2111 0a92 C4F86C32 		str	r3, [r4, #620]
 2112              		.loc 1 1002 0
 2113 0a96 C4F85C22 		str	r2, [r4, #604]
 2114              		.loc 1 1003 0
 2115 0a9a EEE6     		b	.L173
 2116              	.L230:
 2117              	.LBE40:
 2118              		.loc 1 747 0
 2119 0a9c 054B     		ldr	r3, .L359+8
 2120 0a9e 1344     		add	r3, r3, r2
 2121              		.loc 1 748 0
 2122 0aa0 0132     		adds	r2, r2, #1
 2123              		.loc 1 747 0
 2124 0aa2 03F80C0C 		strb	r0, [r3, #-12]
 2125              		.loc 1 748 0
 2126 0aa6 C4F85C22 		str	r2, [r4, #604]
 2127              		.loc 1 749 0
 2128 0aaa E6E6     		b	.L173
 2129              	.L360:
 2130              		.align	2
 2131              	.L359:
 2132 0aac 00000000 		.word	.LANCHOR0
 2133 0ab0 00000000 		.word	patchMeta
 2134 0ab4 00000000 		.word	FileName
 2135              	.L229:
 2136              		.loc 1 730 0
 2137 0ab8 D4F86432 		ldr	r3, [r4, #612]
 2138              		.loc 1 732 0
 2139 0abc D4F86C22 		ldr	r2, [r4, #620]
 2140 0ac0 C4F87422 		str	r2, [r4, #628]
 2141              		.loc 1 730 0
 2142 0ac4 03EB0065 		add	r5, r3, r0, lsl #24
 2143              		.loc 1 733 0
 2144 0ac8 0C23     		movs	r3, #12
 2145              		.loc 1 730 0
 2146 0aca C4F86452 		str	r5, [r4, #612]
 2147              		.loc 1 731 0
 2148 0ace C4F87052 		str	r5, [r4, #624]
 2149              		.loc 1 733 0
 2150 0ad2 C4F85C32 		str	r3, [r4, #604]
 2151              		.loc 1 734 0
 2152 0ad6 D0E6     		b	.L173
ARM GAS  /tmp/ccLdaIGa.s 			page 39


 2153              	.L272:
 2154              		.loc 1 939 0
 2155 0ad8 BB4E     		ldr	r6, .L361
 2156              		.loc 1 942 0
 2157 0ada BC48     		ldr	r0, .L361+4
 2158              	.LVL136:
 2159              		.loc 1 939 0
 2160 0adc F178     		ldrb	r1, [r6, #3]	@ zero_extendqisi2
 2161              		.loc 1 943 0
 2162 0ade BC4F     		ldr	r7, .L361+8
 2163              		.loc 1 942 0
 2164 0ae0 0268     		ldr	r2, [r0]
 2165              		.loc 1 943 0
 2166 0ae2 3B68     		ldr	r3, [r7]
 2167              		.loc 1 939 0
 2168 0ae4 0D44     		add	r5, r5, r1
 2169              		.loc 1 942 0
 2170 0ae6 D4F87C12 		ldr	r1, [r4, #636]
 2171              		.loc 1 939 0
 2172 0aea F570     		strb	r5, [r6, #3]
 2173              		.loc 1 942 0
 2174 0aec 0A43     		orrs	r2, r2, r1
 2175              		.loc 1 943 0
 2176 0aee D4F88012 		ldr	r1, [r4, #640]
 2177              		.loc 1 942 0
 2178 0af2 0260     		str	r2, [r0]
 2179              		.loc 1 943 0
 2180 0af4 0B40     		ands	r3, r3, r1
 2181              		.loc 1 940 0
 2182 0af6 0021     		movs	r1, #0
 2183              		.loc 1 943 0
 2184 0af8 3B60     		str	r3, [r7]
 2185              		.loc 1 940 0
 2186 0afa 84F85812 		strb	r1, [r4, #600]
 2187              		.loc 1 941 0
 2188 0afe C4F85C12 		str	r1, [r4, #604]
 2189              		.loc 1 944 0
 2190 0b02 BAE6     		b	.L173
 2191              	.LVL137:
 2192              	.L271:
 2193              		.loc 1 935 0
 2194 0b04 B04A     		ldr	r2, .L361
 2195 0b06 9378     		ldrb	r3, [r2, #2]	@ zero_extendqisi2
 2196              		.loc 1 936 0
 2197 0b08 0F21     		movs	r1, #15
 2198              		.loc 1 935 0
 2199 0b0a 1D44     		add	r5, r5, r3
 2200 0b0c 9570     		strb	r5, [r2, #2]
 2201              		.loc 1 936 0
 2202 0b0e C4F85C12 		str	r1, [r4, #604]
 2203              		.loc 1 937 0
 2204 0b12 B2E6     		b	.L173
 2205              	.L270:
 2206              		.loc 1 931 0
 2207 0b14 AC4A     		ldr	r2, .L361
 2208 0b16 5378     		ldrb	r3, [r2, #1]	@ zero_extendqisi2
 2209              		.loc 1 932 0
ARM GAS  /tmp/ccLdaIGa.s 			page 40


 2210 0b18 0E21     		movs	r1, #14
 2211              		.loc 1 931 0
 2212 0b1a 1D44     		add	r5, r5, r3
 2213 0b1c 5570     		strb	r5, [r2, #1]
 2214              		.loc 1 932 0
 2215 0b1e C4F85C12 		str	r1, [r4, #604]
 2216              		.loc 1 933 0
 2217 0b22 AAE6     		b	.L173
 2218              	.L269:
 2219              		.loc 1 927 0
 2220 0b24 A84A     		ldr	r2, .L361
 2221 0b26 1378     		ldrb	r3, [r2]	@ zero_extendqisi2
 2222              		.loc 1 928 0
 2223 0b28 0D21     		movs	r1, #13
 2224              		.loc 1 927 0
 2225 0b2a 1D44     		add	r5, r5, r3
 2226 0b2c 1570     		strb	r5, [r2]
 2227              		.loc 1 928 0
 2228 0b2e C4F85C12 		str	r1, [r4, #604]
 2229              		.loc 1 929 0
 2230 0b32 A2E6     		b	.L173
 2231              	.L268:
 2232              		.loc 1 923 0
 2233 0b34 D4F88032 		ldr	r3, [r4, #640]
 2234              		.loc 1 924 0
 2235 0b38 0C22     		movs	r2, #12
 2236              		.loc 1 923 0
 2237 0b3a 03EB0063 		add	r3, r3, r0, lsl #24
 2238 0b3e C4F88032 		str	r3, [r4, #640]
 2239              		.loc 1 924 0
 2240 0b42 C4F85C22 		str	r2, [r4, #604]
 2241              		.loc 1 925 0
 2242 0b46 98E6     		b	.L173
 2243              	.L267:
 2244              		.loc 1 919 0
 2245 0b48 D4F88032 		ldr	r3, [r4, #640]
 2246              		.loc 1 920 0
 2247 0b4c 0B22     		movs	r2, #11
 2248              		.loc 1 919 0
 2249 0b4e 03EB0043 		add	r3, r3, r0, lsl #16
 2250 0b52 C4F88032 		str	r3, [r4, #640]
 2251              		.loc 1 920 0
 2252 0b56 C4F85C22 		str	r2, [r4, #604]
 2253              		.loc 1 921 0
 2254 0b5a 8EE6     		b	.L173
 2255              	.L266:
 2256              		.loc 1 915 0
 2257 0b5c D4F88032 		ldr	r3, [r4, #640]
 2258              		.loc 1 916 0
 2259 0b60 0A22     		movs	r2, #10
 2260              		.loc 1 915 0
 2261 0b62 03EB0023 		add	r3, r3, r0, lsl #8
 2262 0b66 C4F88032 		str	r3, [r4, #640]
 2263              		.loc 1 916 0
 2264 0b6a C4F85C22 		str	r2, [r4, #604]
 2265              		.loc 1 917 0
 2266 0b6e 84E6     		b	.L173
ARM GAS  /tmp/ccLdaIGa.s 			page 41


 2267              	.L265:
 2268              		.loc 1 912 0
 2269 0b70 0923     		movs	r3, #9
 2270              		.loc 1 911 0
 2271 0b72 C4F88002 		str	r0, [r4, #640]
 2272              		.loc 1 912 0
 2273 0b76 C4F85C32 		str	r3, [r4, #604]
 2274              		.loc 1 913 0
 2275 0b7a 7EE6     		b	.L173
 2276              	.L264:
 2277              		.loc 1 907 0
 2278 0b7c D4F87C32 		ldr	r3, [r4, #636]
 2279              		.loc 1 908 0
 2280 0b80 0822     		movs	r2, #8
 2281              		.loc 1 907 0
 2282 0b82 03EB0063 		add	r3, r3, r0, lsl #24
 2283 0b86 C4F87C32 		str	r3, [r4, #636]
 2284              		.loc 1 908 0
 2285 0b8a C4F85C22 		str	r2, [r4, #604]
 2286              		.loc 1 909 0
 2287 0b8e 74E6     		b	.L173
 2288              	.L263:
 2289              		.loc 1 903 0
 2290 0b90 D4F87C32 		ldr	r3, [r4, #636]
 2291              		.loc 1 904 0
 2292 0b94 0722     		movs	r2, #7
 2293              		.loc 1 903 0
 2294 0b96 03EB0043 		add	r3, r3, r0, lsl #16
 2295 0b9a C4F87C32 		str	r3, [r4, #636]
 2296              		.loc 1 904 0
 2297 0b9e C4F85C22 		str	r2, [r4, #604]
 2298              		.loc 1 905 0
 2299 0ba2 6AE6     		b	.L173
 2300              	.L262:
 2301              		.loc 1 899 0
 2302 0ba4 D4F87C32 		ldr	r3, [r4, #636]
 2303              		.loc 1 900 0
 2304 0ba8 0622     		movs	r2, #6
 2305              		.loc 1 899 0
 2306 0baa 03EB0023 		add	r3, r3, r0, lsl #8
 2307 0bae C4F87C32 		str	r3, [r4, #636]
 2308              		.loc 1 900 0
 2309 0bb2 C4F85C22 		str	r2, [r4, #604]
 2310              		.loc 1 901 0
 2311 0bb6 60E6     		b	.L173
 2312              	.L260:
 2313              		.loc 1 896 0
 2314 0bb8 0523     		movs	r3, #5
 2315              		.loc 1 895 0
 2316 0bba C4F87C02 		str	r0, [r4, #636]
 2317              		.loc 1 896 0
 2318 0bbe C4F85C32 		str	r3, [r4, #604]
 2319              		.loc 1 897 0
 2320 0bc2 5AE6     		b	.L173
 2321              	.L349:
 2322              	.LBB41:
 2323              		.loc 1 790 0
ARM GAS  /tmp/ccLdaIGa.s 			page 42


 2324 0bc4 D4F85C32 		ldr	r3, [r4, #604]
 2325 0bc8 052B     		cmp	r3, #5
 2326 0bca 00F0C480 		beq	.L238
 2327 0bce 062B     		cmp	r3, #6
 2328 0bd0 00F0B580 		beq	.L239
 2329 0bd4 042B     		cmp	r3, #4
 2330 0bd6 7FF46FAE 		bne	.L337
 2331              		.loc 1 793 0
 2332 0bda 0523     		movs	r3, #5
 2333              		.loc 1 792 0
 2334 0bdc 84F87802 		strb	r0, [r4, #632]
 2335              		.loc 1 793 0
 2336 0be0 C4F85C32 		str	r3, [r4, #604]
 2337              		.loc 1 794 0
 2338 0be4 49E6     		b	.L173
 2339              	.L350:
 2340              	.LBE41:
 2341              		.loc 1 812 0
 2342 0be6 D4F85C22 		ldr	r2, [r4, #604]
 2343 0bea 131F     		subs	r3, r2, #4
 2344 0bec 042B     		cmp	r3, #4
 2345 0bee 00F28681 		bhi	.L242
 2346 0bf2 DFE803F0 		tbb	[pc, r3]
 2347              	.L244:
 2348 0bf6 24       		.byte	(.L243-.L244)/2
 2349 0bf7 1B       		.byte	(.L245-.L244)/2
 2350 0bf8 12       		.byte	(.L246-.L244)/2
 2351 0bf9 09       		.byte	(.L247-.L244)/2
 2352 0bfa 03       		.byte	(.L248-.L244)/2
 2353 0bfb 00       		.p2align 1
 2354              	.L248:
 2355              		.loc 1 830 0
 2356 0bfc 754A     		ldr	r2, .L361+12
 2357              		.loc 1 832 0
 2358 0bfe 0923     		movs	r3, #9
 2359              		.loc 1 830 0
 2360 0c00 1070     		strb	r0, [r2]
 2361              		.loc 1 832 0
 2362 0c02 C4F85C32 		str	r3, [r4, #604]
 2363              		.loc 1 833 0
 2364 0c06 38E6     		b	.L173
 2365              	.L247:
 2366              		.loc 1 826 0
 2367 0c08 734A     		ldr	r2, .L361+16
 2368 0c0a 1368     		ldr	r3, [r2]
 2369              		.loc 1 827 0
 2370 0c0c 0821     		movs	r1, #8
 2371              		.loc 1 826 0
 2372 0c0e 03EB0063 		add	r3, r3, r0, lsl #24
 2373 0c12 1360     		str	r3, [r2]
 2374              		.loc 1 827 0
 2375 0c14 C4F85C12 		str	r1, [r4, #604]
 2376              		.loc 1 828 0
 2377 0c18 2FE6     		b	.L173
 2378              	.L246:
 2379              		.loc 1 822 0
 2380 0c1a 6F4A     		ldr	r2, .L361+16
ARM GAS  /tmp/ccLdaIGa.s 			page 43


 2381 0c1c 1368     		ldr	r3, [r2]
 2382              		.loc 1 823 0
 2383 0c1e 0721     		movs	r1, #7
 2384              		.loc 1 822 0
 2385 0c20 03EB0043 		add	r3, r3, r0, lsl #16
 2386 0c24 1360     		str	r3, [r2]
 2387              		.loc 1 823 0
 2388 0c26 C4F85C12 		str	r1, [r4, #604]
 2389              		.loc 1 824 0
 2390 0c2a 26E6     		b	.L173
 2391              	.L245:
 2392              		.loc 1 818 0
 2393 0c2c 6A4A     		ldr	r2, .L361+16
 2394 0c2e 1368     		ldr	r3, [r2]
 2395              		.loc 1 819 0
 2396 0c30 0621     		movs	r1, #6
 2397              		.loc 1 818 0
 2398 0c32 03EB0023 		add	r3, r3, r0, lsl #8
 2399 0c36 1360     		str	r3, [r2]
 2400              		.loc 1 819 0
 2401 0c38 C4F85C12 		str	r1, [r4, #604]
 2402              		.loc 1 820 0
 2403 0c3c 1DE6     		b	.L173
 2404              	.L243:
 2405              		.loc 1 814 0
 2406 0c3e 664A     		ldr	r2, .L361+16
 2407              		.loc 1 815 0
 2408 0c40 0523     		movs	r3, #5
 2409              		.loc 1 814 0
 2410 0c42 1060     		str	r0, [r2]
 2411              		.loc 1 815 0
 2412 0c44 C4F85C32 		str	r3, [r4, #604]
 2413              		.loc 1 816 0
 2414 0c48 17E6     		b	.L173
 2415              	.L356:
 2416              		.loc 1 494 0
 2417 0c4a 0223     		movs	r3, #2
 2418 0c4c C4F85C32 		str	r3, [r4, #604]
 2419 0c50 13E6     		b	.L173
 2420              	.L351:
 2421              		.loc 1 849 0
 2422 0c52 D4F85C32 		ldr	r3, [r4, #604]
 2423 0c56 043B     		subs	r3, r3, #4
 2424 0c58 032B     		cmp	r3, #3
 2425 0c5a 00F26481 		bhi	.L252
 2426 0c5e DFE803F0 		tbb	[pc, r3]
 2427              	.L254:
 2428 0c62 25       		.byte	(.L253-.L254)/2
 2429 0c63 1B       		.byte	(.L255-.L254)/2
 2430 0c64 11       		.byte	(.L256-.L254)/2
 2431 0c65 02       		.byte	(.L257-.L254)/2
 2432              		.p2align 1
 2433              	.L257:
 2434              		.loc 1 863 0
 2435 0c66 D4F86432 		ldr	r3, [r4, #612]
 2436              		.loc 1 865 0
 2437 0c6a 5C4A     		ldr	r2, .L361+20
ARM GAS  /tmp/ccLdaIGa.s 			page 44


 2438 0c6c C4F87422 		str	r2, [r4, #628]
 2439              		.loc 1 863 0
 2440 0c70 03EB0065 		add	r5, r3, r0, lsl #24
 2441              		.loc 1 866 0
 2442 0c74 0823     		movs	r3, #8
 2443              		.loc 1 863 0
 2444 0c76 C4F86452 		str	r5, [r4, #612]
 2445              		.loc 1 864 0
 2446 0c7a C4F87052 		str	r5, [r4, #624]
 2447              		.loc 1 866 0
 2448 0c7e C4F85C32 		str	r3, [r4, #604]
 2449              		.loc 1 867 0
 2450 0c82 FAE5     		b	.L173
 2451              	.L256:
 2452              		.loc 1 859 0
 2453 0c84 D4F86432 		ldr	r3, [r4, #612]
 2454              		.loc 1 860 0
 2455 0c88 0722     		movs	r2, #7
 2456              		.loc 1 859 0
 2457 0c8a 03EB0043 		add	r3, r3, r0, lsl #16
 2458 0c8e C4F86432 		str	r3, [r4, #612]
 2459              		.loc 1 860 0
 2460 0c92 C4F85C22 		str	r2, [r4, #604]
 2461              		.loc 1 861 0
 2462 0c96 F0E5     		b	.L173
 2463              	.L255:
 2464              		.loc 1 855 0
 2465 0c98 D4F86432 		ldr	r3, [r4, #612]
 2466              		.loc 1 856 0
 2467 0c9c 0622     		movs	r2, #6
 2468              		.loc 1 855 0
 2469 0c9e 03EB0023 		add	r3, r3, r0, lsl #8
 2470 0ca2 C4F86432 		str	r3, [r4, #612]
 2471              		.loc 1 856 0
 2472 0ca6 C4F85C22 		str	r2, [r4, #604]
 2473              		.loc 1 857 0
 2474 0caa E6E5     		b	.L173
 2475              	.L253:
 2476              		.loc 1 852 0
 2477 0cac 0523     		movs	r3, #5
 2478              		.loc 1 851 0
 2479 0cae C4F86402 		str	r0, [r4, #612]
 2480              		.loc 1 852 0
 2481 0cb2 C4F85C32 		str	r3, [r4, #604]
 2482              		.loc 1 853 0
 2483 0cb6 E0E5     		b	.L173
 2484              	.L348:
 2485              		.loc 1 783 0
 2486 0cb8 FFF7FEFF 		bl	ApplyPreset
 2487              	.LVL138:
 2488              	.L336:
 2489              	.LBB42:
 2490              		.loc 1 1065 0
 2491 0cbc 0023     		movs	r3, #0
 2492              		.loc 1 1064 0
 2493 0cbe 0122     		movs	r2, #1
 2494 0cc0 C4F85422 		str	r2, [r4, #596]
ARM GAS  /tmp/ccLdaIGa.s 			page 45


 2495              		.loc 1 1065 0
 2496 0cc4 84F85832 		strb	r3, [r4, #600]
 2497              		.loc 1 1066 0
 2498 0cc8 C4F85C32 		str	r3, [r4, #604]
 2499              		.loc 1 1067 0
 2500 0ccc D5E5     		b	.L173
 2501              	.LVL139:
 2502              	.L194:
 2503              	.LBE42:
 2504              		.loc 1 643 0
 2505 0cce 0023     		movs	r3, #0
 2506 0cd0 C4F85C32 		str	r3, [r4, #604]
 2507              		.loc 1 644 0
 2508 0cd4 84F85832 		strb	r3, [r4, #600]
 2509 0cd8 CFE5     		b	.L173
 2510              	.L353:
 2511              		.loc 1 948 0
 2512 0cda D4F85C32 		ldr	r3, [r4, #604]
 2513 0cde 043B     		subs	r3, r3, #4
 2514 0ce0 032B     		cmp	r3, #3
 2515 0ce2 00F24A81 		bhi	.L274
 2516 0ce6 DFE803F0 		tbb	[pc, r3]
 2517              	.L276:
 2518 0cea 24       		.byte	(.L275-.L276)/2
 2519 0ceb 1A       		.byte	(.L277-.L276)/2
 2520 0cec 10       		.byte	(.L278-.L276)/2
 2521 0ced 02       		.byte	(.L279-.L276)/2
 2522              		.p2align 1
 2523              	.L279:
 2524              		.loc 1 962 0
 2525 0cee D4F87032 		ldr	r3, [r4, #624]
 2526              		.loc 1 964 0
 2527 0cf2 3B4A     		ldr	r2, .L361+24
 2528              		.loc 1 962 0
 2529 0cf4 03EB0063 		add	r3, r3, r0, lsl #24
 2530              		.loc 1 964 0
 2531 0cf8 526B     		ldr	r2, [r2, #52]
 2532              		.loc 1 962 0
 2533 0cfa C4F87032 		str	r3, [r4, #624]
 2534              		.loc 1 963 0
 2535 0cfe 0823     		movs	r3, #8
 2536              		.loc 1 964 0
 2537 0d00 C4F86C22 		str	r2, [r4, #620]
 2538              		.loc 1 963 0
 2539 0d04 C4F85C32 		str	r3, [r4, #604]
 2540              		.loc 1 965 0
 2541 0d08 B7E5     		b	.L173
 2542              	.L278:
 2543              		.loc 1 958 0
 2544 0d0a D4F87032 		ldr	r3, [r4, #624]
 2545              		.loc 1 959 0
 2546 0d0e 0722     		movs	r2, #7
 2547              		.loc 1 958 0
 2548 0d10 03EB0043 		add	r3, r3, r0, lsl #16
 2549 0d14 C4F87032 		str	r3, [r4, #624]
 2550              		.loc 1 959 0
 2551 0d18 C4F85C22 		str	r2, [r4, #604]
ARM GAS  /tmp/ccLdaIGa.s 			page 46


 2552              		.loc 1 960 0
 2553 0d1c ADE5     		b	.L173
 2554              	.L277:
 2555              		.loc 1 954 0
 2556 0d1e D4F87032 		ldr	r3, [r4, #624]
 2557              		.loc 1 955 0
 2558 0d22 0622     		movs	r2, #6
 2559              		.loc 1 954 0
 2560 0d24 03EB0023 		add	r3, r3, r0, lsl #8
 2561 0d28 C4F87032 		str	r3, [r4, #624]
 2562              		.loc 1 955 0
 2563 0d2c C4F85C22 		str	r2, [r4, #604]
 2564              		.loc 1 956 0
 2565 0d30 A3E5     		b	.L173
 2566              	.L275:
 2567              		.loc 1 951 0
 2568 0d32 0523     		movs	r3, #5
 2569              		.loc 1 950 0
 2570 0d34 C4F87002 		str	r0, [r4, #624]
 2571              		.loc 1 951 0
 2572 0d38 C4F85C32 		str	r3, [r4, #604]
 2573              		.loc 1 952 0
 2574 0d3c 9DE5     		b	.L173
 2575              	.L239:
 2576              	.LBB43:
 2577              		.loc 1 801 0
 2578 0d3e 0090     		str	r0, [sp]
 2579 0d40 94F87822 		ldrb	r2, [r4, #632]	@ zero_extendqisi2
 2580 0d44 94F87932 		ldrb	r3, [r4, #633]	@ zero_extendqisi2
 2581              		.loc 1 800 0
 2582 0d48 84F87A52 		strb	r5, [r4, #634]
 2583              		.loc 1 801 0
 2584 0d4c 0F20     		movs	r0, #15
 2585              	.LVL140:
 2586 0d4e 0121     		movs	r1, #1
 2587 0d50 FFF7FEFF 		bl	MidiInMsgHandler
 2588              	.LVL141:
 2589 0d54 B0E5     		b	.L337
 2590              	.LVL142:
 2591              	.L238:
 2592              		.loc 1 797 0
 2593 0d56 0623     		movs	r3, #6
 2594              		.loc 1 796 0
 2595 0d58 84F87902 		strb	r0, [r4, #633]
 2596              		.loc 1 797 0
 2597 0d5c C4F85C32 		str	r3, [r4, #604]
 2598              		.loc 1 798 0
 2599 0d60 8BE5     		b	.L173
 2600              	.L208:
 2601              	.LBE43:
 2602              		.loc 1 682 0
 2603 0d62 D4F86432 		ldr	r3, [r4, #612]
 2604 0d66 1F4A     		ldr	r2, .L361+28
 2605 0d68 002B     		cmp	r3, #0
 2606 0d6a 0BDD     		ble	.L218
 2607              		.loc 1 684 0
 2608 0d6c D2F86C12 		ldr	r1, [r2, #620]
ARM GAS  /tmp/ccLdaIGa.s 			page 47


 2609 0d70 01F8010B 		strb	r0, [r1], #1
 2610              		.loc 1 683 0
 2611 0d74 013B     		subs	r3, r3, #1
 2612 0d76 C2F86432 		str	r3, [r2, #612]
 2613              		.loc 1 685 0
 2614 0d7a C2F86C12 		str	r1, [r2, #620]
 2615              	.L335:
 2616              		.loc 1 686 0
 2617 0d7e 002B     		cmp	r3, #0
 2618 0d80 7FF47BAD 		bne	.L173
 2619              	.L218:
 2620              		.loc 1 687 0
 2621 0d84 0023     		movs	r3, #0
 2622              		.loc 1 689 0
 2623 0d86 0122     		movs	r2, #1
 2624              		.loc 1 687 0
 2625 0d88 84F85832 		strb	r3, [r4, #600]
 2626              		.loc 1 688 0
 2627 0d8c C4F85C32 		str	r3, [r4, #604]
 2628              		.loc 1 689 0
 2629 0d90 C4F85422 		str	r2, [r4, #596]
 2630 0d94 71E5     		b	.L173
 2631              	.L354:
 2632              		.loc 1 987 0
 2633 0d96 D4F85C32 		ldr	r3, [r4, #604]
 2634 0d9a 043B     		subs	r3, r3, #4
 2635 0d9c 072B     		cmp	r3, #7
 2636 0d9e 3FF66CAD 		bhi	.L173
 2637 0da2 01A2     		adr	r2, .L283
 2638 0da4 52F823F0 		ldr	pc, [r2, r3, lsl #2]
 2639              		.p2align 2
 2640              	.L283:
 2641 0da8 7D0A0000 		.word	.L292+1
 2642 0dac 690A0000 		.word	.L294+1
 2643 0db0 550A0000 		.word	.L295+1
 2644 0db4 890A0000 		.word	.L286+1
 2645 0db8 99090000 		.word	.L287+1
 2646 0dbc 85090000 		.word	.L288+1
 2647 0dc0 71090000 		.word	.L289+1
 2648 0dc4 E90D0000 		.word	.L290+1
 2649              		.p2align 1
 2650              	.L362:
 2651              		.align	2
 2652              	.L361:
 2653 0dc8 00000000 		.word	EncBuffer
 2654 0dcc 00000000 		.word	Btn_Nav_Or
 2655 0dd0 00000000 		.word	Btn_Nav_And
 2656 0dd4 00000000 		.word	FileName
 2657 0dd8 00000000 		.word	pFileSize
 2658 0ddc 00100120 		.word	536940544
 2659 0de0 00000000 		.word	patchMeta
 2660 0de4 00000000 		.word	.LANCHOR0
 2661              	.L290:
 2662              	.LBB44:
 2663              		.loc 1 1026 0
 2664 0de8 964E     		ldr	r6, .L363
 2665              		.loc 1 1017 0
ARM GAS  /tmp/ccLdaIGa.s 			page 48


 2666 0dea D4F86432 		ldr	r3, [r4, #612]
 2667              		.loc 1 1024 0
 2668 0dee D4F86C12 		ldr	r1, [r4, #620]
 2669              		.loc 1 1026 0
 2670 0df2 3268     		ldr	r2, [r6]
 2671              		.loc 1 1024 0
 2672 0df4 0491     		str	r1, [sp, #16]
 2673              		.loc 1 1020 0
 2674 0df6 4FF0410E 		mov	lr, #65
 2675              		.loc 1 1021 0
 2676 0dfa 7827     		movs	r7, #120
 2677              		.loc 1 1022 0
 2678 0dfc 6F20     		movs	r0, #111
 2679              	.LVL143:
 2680              		.loc 1 1023 0
 2681 0dfe 7221     		movs	r1, #114
 2682              		.loc 1 1022 0
 2683 0e00 8DF80E00 		strb	r0, [sp, #14]
 2684              		.loc 1 1023 0
 2685 0e04 8DF80F10 		strb	r1, [sp, #15]
 2686              		.loc 1 1017 0
 2687 0e08 03EB0565 		add	r5, r3, r5, lsl #24
 2688              		.loc 1 1020 0
 2689 0e0c 8DF80CE0 		strb	lr, [sp, #12]
 2690              		.loc 1 1021 0
 2691 0e10 8DF80D70 		strb	r7, [sp, #13]
 2692              		.loc 1 1026 0
 2693 0e14 1368     		ldr	r3, [r2]
 2694              		.loc 1 1025 0
 2695 0e16 0595     		str	r5, [sp, #20]
 2696              		.loc 1 1026 0
 2697 0e18 03A9     		add	r1, sp, #12
 2698 0e1a 3046     		mov	r0, r6
 2699 0e1c 0C22     		movs	r2, #12
 2700              		.loc 1 1017 0
 2701 0e1e C4F86452 		str	r5, [r4, #612]
 2702              		.loc 1 1026 0
 2703 0e22 9847     		blx	r3
 2704              	.LVL144:
 2705              		.loc 1 1028 0
 2706 0e24 3368     		ldr	r3, [r6]
 2707 0e26 D4F86C12 		ldr	r1, [r4, #620]
 2708 0e2a 1B68     		ldr	r3, [r3]
 2709 0e2c D4F86422 		ldr	r2, [r4, #612]
 2710 0e30 3046     		mov	r0, r6
 2711 0e32 9847     		blx	r3
 2712              	.LVL145:
 2713 0e34 42E7     		b	.L336
 2714              	.LVL146:
 2715              	.L220:
 2716              	.LBE44:
 2717              		.loc 1 751 0
 2718 0e36 D4F86432 		ldr	r3, [r4, #612]
 2719 0e3a 834A     		ldr	r2, .L363+4
 2720 0e3c 002B     		cmp	r3, #0
 2721 0e3e 7FF73BAD 		ble	.L337
 2722              		.loc 1 753 0
ARM GAS  /tmp/ccLdaIGa.s 			page 49


 2723 0e42 D2F87412 		ldr	r1, [r2, #628]
 2724 0e46 01F8010B 		strb	r0, [r1], #1
 2725              		.loc 1 752 0
 2726 0e4a 013B     		subs	r3, r3, #1
 2727 0e4c C2F86432 		str	r3, [r2, #612]
 2728              		.loc 1 754 0
 2729 0e50 C2F87412 		str	r1, [r2, #628]
 2730              		.loc 1 755 0
 2731 0e54 002B     		cmp	r3, #0
 2732 0e56 7FF410AD 		bne	.L173
 2733              	.LBB45:
 2734              		.loc 1 757 0
 2735 0e5a 82F85832 		strb	r3, [r2, #600]
 2736              		.loc 1 758 0
 2737 0e5e C2F85C32 		str	r3, [r2, #604]
 2738              		.loc 1 759 0
 2739 0e62 FFF7FEFF 		bl	sdcard_attemptMountIfUnmounted
 2740              	.LVL147:
 2741              		.loc 1 760 0
 2742 0e66 7948     		ldr	r0, .L363+8
 2743 0e68 7949     		ldr	r1, .L363+12
 2744 0e6a 0A22     		movs	r2, #10
 2745 0e6c FFF7FEFF 		bl	f_open
 2746              	.LVL148:
 2747              		.loc 1 761 0
 2748 0e70 0028     		cmp	r0, #0
 2749 0e72 40F0C080 		bne	.L357
 2750              	.LVL149:
 2751              	.L232:
 2752              		.loc 1 765 0
 2753 0e76 7548     		ldr	r0, .L363+8
 2754 0e78 D4F86C12 		ldr	r1, [r4, #620]
 2755 0e7c D4F87022 		ldr	r2, [r4, #624]
 2756 0e80 03AB     		add	r3, sp, #12
 2757 0e82 FFF7FEFF 		bl	f_write
 2758              	.LVL150:
 2759              		.loc 1 766 0
 2760 0e86 0028     		cmp	r0, #0
 2761 0e88 40F0B180 		bne	.L358
 2762              	.LVL151:
 2763              	.L233:
 2764              		.loc 1 769 0
 2765 0e8c 6F48     		ldr	r0, .L363+8
 2766 0e8e FFF7FEFF 		bl	f_close
 2767              	.LVL152:
 2768              		.loc 1 770 0
 2769 0e92 10B1     		cbz	r0, .L258
 2770              		.loc 1 771 0
 2771 0e94 6F48     		ldr	r0, .L363+16
 2772              	.LVL153:
 2773 0e96 FFF7FEFF 		bl	LogTextMessage
 2774              	.LVL154:
 2775              	.L258:
 2776              	.LBE45:
 2777              	.LBB46:
 2778              		.loc 1 883 0
 2779 0e9a 0123     		movs	r3, #1
ARM GAS  /tmp/ccLdaIGa.s 			page 50


 2780 0e9c C4F85432 		str	r3, [r4, #596]
 2781 0ea0 EBE4     		b	.L173
 2782              	.LVL155:
 2783              	.L355:
 2784              	.LBE46:
 2785              		.loc 1 1038 0
 2786 0ea2 D4F85C32 		ldr	r3, [r4, #604]
 2787 0ea6 043B     		subs	r3, r3, #4
 2788 0ea8 032B     		cmp	r3, #3
 2789 0eaa 3FF6E6AC 		bhi	.L173
 2790 0eae 01A2     		adr	r2, .L293
 2791 0eb0 52F823F0 		ldr	pc, [r2, r3, lsl #2]
 2792              		.p2align 2
 2793              	.L293:
 2794 0eb4 7D0A0000 		.word	.L292+1
 2795 0eb8 690A0000 		.word	.L294+1
 2796 0ebc 550A0000 		.word	.L295+1
 2797 0ec0 C50E0000 		.word	.L296+1
 2798              		.p2align 1
 2799              	.L296:
 2800              	.LBB47:
 2801              		.loc 1 1052 0
 2802 0ec4 D4F86C22 		ldr	r2, [r4, #620]
 2803              		.loc 1 1061 0
 2804 0ec8 5E48     		ldr	r0, .L363
 2805              	.LVL156:
 2806              		.loc 1 1052 0
 2807 0eca 2D06     		lsls	r5, r5, #24
 2808 0ecc AB18     		adds	r3, r5, r2
 2809              		.loc 1 1055 0
 2810 0ece 4FF0410E 		mov	lr, #65
 2811              		.loc 1 1056 0
 2812 0ed2 7827     		movs	r7, #120
 2813              		.loc 1 1057 0
 2814 0ed4 6F26     		movs	r6, #111
 2815              		.loc 1 1058 0
 2816 0ed6 7921     		movs	r1, #121
 2817 0ed8 8DF80F10 		strb	r1, [sp, #15]
 2818              		.loc 1 1055 0
 2819 0edc 8DF80CE0 		strb	lr, [sp, #12]
 2820              		.loc 1 1056 0
 2821 0ee0 8DF80D70 		strb	r7, [sp, #13]
 2822              		.loc 1 1057 0
 2823 0ee4 8DF80E60 		strb	r6, [sp, #14]
 2824              		.loc 1 1059 0
 2825 0ee8 0493     		str	r3, [sp, #16]
 2826              		.loc 1 1061 0
 2827 0eea 0168     		ldr	r1, [r0]
 2828              		.loc 1 1060 0
 2829 0eec AA58     		ldr	r2, [r5, r2]
 2830 0eee 0592     		str	r2, [sp, #20]
 2831              		.loc 1 1061 0
 2832 0ef0 0D68     		ldr	r5, [r1]
 2833              		.loc 1 1052 0
 2834 0ef2 C4F86C32 		str	r3, [r4, #620]
 2835              		.loc 1 1061 0
 2836 0ef6 03A9     		add	r1, sp, #12
ARM GAS  /tmp/ccLdaIGa.s 			page 51


 2837 0ef8 0C22     		movs	r2, #12
 2838 0efa A847     		blx	r5
 2839              	.LVL157:
 2840 0efc DEE6     		b	.L336
 2841              	.LVL158:
 2842              	.L242:
 2843 0efe 544B     		ldr	r3, .L363+12
 2844              	.LBE47:
 2845              		.loc 1 835 0
 2846 0f00 A0BB     		cbnz	r0, .L249
 2847              		.loc 1 835 0 is_stmt 0 discriminator 1
 2848 0f02 1978     		ldrb	r1, [r3]	@ zero_extendqisi2
 2849 0f04 09B9     		cbnz	r1, .L250
 2850              		.loc 1 835 0 discriminator 2
 2851 0f06 0D2A     		cmp	r2, #13
 2852 0f08 30DD     		ble	.L249
 2853              	.L250:
 2854              		.loc 1 840 0 is_stmt 1
 2855 0f0a 1A44     		add	r2, r2, r3
 2856 0f0c 0025     		movs	r5, #0
 2857 0f0e 02F8085C 		strb	r5, [r2, #-8]
 2858              		.loc 1 841 0
 2859 0f12 FFF7FEFF 		bl	ManipulateFile
 2860              	.LVL159:
 2861              		.loc 1 844 0
 2862 0f16 0123     		movs	r3, #1
 2863              		.loc 1 842 0
 2864 0f18 84F85852 		strb	r5, [r4, #600]
 2865              		.loc 1 843 0
 2866 0f1c C4F85C52 		str	r5, [r4, #604]
 2867              		.loc 1 844 0
 2868 0f20 C4F85432 		str	r3, [r4, #596]
 2869 0f24 A9E4     		b	.L173
 2870              	.LVL160:
 2871              	.L252:
 2872              		.loc 1 869 0
 2873 0f26 D4F86432 		ldr	r3, [r4, #612]
 2874 0f2a 474E     		ldr	r6, .L363+4
 2875 0f2c 002B     		cmp	r3, #0
 2876 0f2e 7FF7C3AC 		ble	.L337
 2877              		.loc 1 871 0
 2878 0f32 D6F87422 		ldr	r2, [r6, #628]
 2879 0f36 02F8010B 		strb	r0, [r2], #1
 2880              		.loc 1 870 0
 2881 0f3a 5D1E     		subs	r5, r3, #1
 2882 0f3c C6F86452 		str	r5, [r6, #612]
 2883              		.loc 1 872 0
 2884 0f40 C6F87422 		str	r2, [r6, #628]
 2885              		.loc 1 873 0
 2886 0f44 002D     		cmp	r5, #0
 2887 0f46 7FF498AC 		bne	.L173
 2888              	.LBB48:
 2889              		.loc 1 878 0
 2890 0f4a D6F87022 		ldr	r2, [r6, #624]
 2891 0f4e 3F48     		ldr	r0, .L363+8
 2892              	.LVL161:
 2893 0f50 4149     		ldr	r1, .L363+20
ARM GAS  /tmp/ccLdaIGa.s 			page 52


 2894              		.loc 1 875 0
 2895 0f52 86F85852 		strb	r5, [r6, #600]
 2896              		.loc 1 878 0
 2897 0f56 03AB     		add	r3, sp, #12
 2898              		.loc 1 876 0
 2899 0f58 C6F85C52 		str	r5, [r6, #604]
 2900              		.loc 1 878 0
 2901 0f5c FFF7FEFF 		bl	f_write
 2902              	.LVL162:
 2903              		.loc 1 880 0
 2904 0f60 0028     		cmp	r0, #0
 2905 0f62 9AD0     		beq	.L258
 2906              		.loc 1 881 0
 2907 0f64 2946     		mov	r1, r5
 2908 0f66 FFF7FEFF 		bl	report_fatfs_error
 2909              	.LVL163:
 2910 0f6a 96E7     		b	.L258
 2911              	.LVL164:
 2912              	.L249:
 2913              	.LBE48:
 2914              		.loc 1 836 0
 2915 0f6c 1344     		add	r3, r3, r2
 2916              		.loc 1 837 0
 2917 0f6e 0132     		adds	r2, r2, #1
 2918              		.loc 1 836 0
 2919 0f70 03F8085C 		strb	r5, [r3, #-8]
 2920              		.loc 1 837 0
 2921 0f74 C4F85C22 		str	r2, [r4, #604]
 2922 0f78 7FE4     		b	.L173
 2923              	.L274:
 2924              		.loc 1 967 0
 2925 0f7a D4F87032 		ldr	r3, [r4, #624]
 2926 0f7e 3249     		ldr	r1, .L363+4
 2927 0f80 002B     		cmp	r3, #0
 2928 0f82 7FF7FFAE 		ble	.L218
 2929              		.loc 1 969 0
 2930 0f86 D1F86C22 		ldr	r2, [r1, #620]
 2931              		.loc 1 968 0
 2932 0f8a 013B     		subs	r3, r3, #1
 2933 0f8c C1F87032 		str	r3, [r1, #624]
 2934              		.loc 1 969 0
 2935 0f90 002A     		cmp	r2, #0
 2936 0f92 3FF4F4AE 		beq	.L335
 2937              		.loc 1 970 0
 2938 0f96 02F8010B 		strb	r0, [r2], #1
 2939              		.loc 1 971 0
 2940 0f9a C1F86C22 		str	r2, [r1, #620]
 2941 0f9e EEE6     		b	.L335
 2942              	.L344:
 2943              		.loc 1 582 0
 2944 0fa0 0122     		movs	r2, #1
 2945              		.loc 1 577 0
 2946 0fa2 C4F85C32 		str	r3, [r4, #604]
 2947              		.loc 1 578 0
 2948 0fa6 84F85832 		strb	r3, [r4, #600]
 2949              		.loc 1 582 0
 2950 0faa C4F85422 		str	r2, [r4, #596]
ARM GAS  /tmp/ccLdaIGa.s 			page 53


 2951 0fae 64E4     		b	.L173
 2952              	.L338:
 2953              		.loc 1 540 0
 2954 0fb0 0023     		movs	r3, #0
 2955 0fb2 C6F85C32 		str	r3, [r6, #604]
 2956              		.loc 1 541 0
 2957 0fb6 86F85832 		strb	r3, [r6, #600]
 2958              		.loc 1 542 0
 2959 0fba FFF7FEFF 		bl	StopPatch
 2960              	.LVL165:
 2961              		.loc 1 543 0
 2962 0fbe 0123     		movs	r3, #1
 2963 0fc0 C6F85432 		str	r3, [r6, #596]
 2964 0fc4 59E4     		b	.L173
 2965              	.LVL166:
 2966              	.L339:
 2967              		.loc 1 546 0
 2968 0fc6 0023     		movs	r3, #0
 2969 0fc8 C6F85C32 		str	r3, [r6, #604]
 2970              		.loc 1 547 0
 2971 0fcc 86F85832 		strb	r3, [r6, #600]
 2972              		.loc 1 548 0
 2973 0fd0 FFF7FEFF 		bl	StopPatch
 2974              	.LVL167:
 2975              		.loc 1 549 0
 2976 0fd4 FFF7FEFF 		bl	exception_initiate_dfu
 2977              	.LVL168:
 2978 0fd8 4FE4     		b	.L173
 2979              	.LVL169:
 2980              	.L340:
 2981              		.loc 1 552 0
 2982 0fda 0023     		movs	r3, #0
 2983 0fdc C4F85C32 		str	r3, [r4, #604]
 2984              		.loc 1 553 0
 2985 0fe0 84F85832 		strb	r3, [r4, #600]
 2986              		.loc 1 554 0
 2987 0fe4 FFF7FEFF 		bl	StopPatch
 2988              	.LVL170:
 2989              		.loc 1 555 0
 2990 0fe8 FFF7FEFF 		bl	CopyPatchToFlash
 2991              	.LVL171:
 2992 0fec 45E4     		b	.L173
 2993              	.LVL172:
 2994              	.L358:
 2995              	.LBB49:
 2996              		.loc 1 767 0
 2997 0fee 1B48     		ldr	r0, .L363+24
 2998              	.LVL173:
 2999 0ff0 FFF7FEFF 		bl	LogTextMessage
 3000              	.LVL174:
 3001 0ff4 4AE7     		b	.L233
 3002              	.LVL175:
 3003              	.L357:
 3004              		.loc 1 762 0
 3005 0ff6 1A48     		ldr	r0, .L363+28
 3006              	.LVL176:
 3007 0ff8 FFF7FEFF 		bl	LogTextMessage
ARM GAS  /tmp/ccLdaIGa.s 			page 54


 3008              	.LVL177:
 3009 0ffc 3BE7     		b	.L232
 3010              	.LVL178:
 3011              	.L341:
 3012              	.LBE49:
 3013              		.loc 1 558 0
 3014 0ffe 0023     		movs	r3, #0
 3015 1000 C4F85C32 		str	r3, [r4, #604]
 3016              		.loc 1 559 0
 3017 1004 84F85832 		strb	r3, [r4, #600]
 3018              		.loc 1 560 0
 3019 1008 FFF7FEFF 		bl	StopPatch
 3020              	.LVL179:
 3021              		.loc 1 561 0
 3022 100c FFF7FEFF 		bl	ReadDirectoryListing
 3023              	.LVL180:
 3024 1010 33E4     		b	.L173
 3025              	.LVL181:
 3026              	.L343:
 3027              		.loc 1 571 0
 3028 1012 C4F85C32 		str	r3, [r4, #604]
 3029              		.loc 1 572 0
 3030 1016 84F85832 		strb	r3, [r4, #600]
 3031              		.loc 1 573 0
 3032 101a FFF7FEFF 		bl	ReplyFWVersion
 3033              	.LVL182:
 3034              		.loc 1 574 0
 3035 101e 0123     		movs	r3, #1
 3036 1020 C4F85432 		str	r3, [r4, #596]
 3037 1024 29E4     		b	.L173
 3038              	.LVL183:
 3039              	.L342:
 3040              		.loc 1 566 0
 3041 1026 0F4A     		ldr	r2, .L363+32
 3042              		.loc 1 564 0
 3043 1028 0023     		movs	r3, #0
 3044              		.loc 1 566 0
 3045 102a FC21     		movs	r1, #252
 3046              		.loc 1 564 0
 3047 102c C4F85C32 		str	r3, [r4, #604]
 3048              		.loc 1 565 0
 3049 1030 84F85832 		strb	r3, [r4, #600]
 3050              		.loc 1 566 0
 3051 1034 1170     		strb	r1, [r2]
 3052              		.loc 1 567 0
 3053 1036 FFF7FEFF 		bl	StartPatch
 3054              	.LVL184:
 3055              		.loc 1 568 0
 3056 103a 0123     		movs	r3, #1
 3057 103c C4F85432 		str	r3, [r4, #596]
 3058 1040 1BE4     		b	.L173
 3059              	.L364:
 3060 1042 00BF     		.align	2
 3061              	.L363:
 3062 1044 00000000 		.word	BDU1
 3063 1048 00000000 		.word	.LANCHOR0
 3064 104c 00000000 		.word	pFile
ARM GAS  /tmp/ccLdaIGa.s 			page 55


 3065 1050 00000000 		.word	FileName
 3066 1054 38000000 		.word	.LC4
 3067 1058 00100120 		.word	536940544
 3068 105c 24000000 		.word	.LC3
 3069 1060 10000000 		.word	.LC2
 3070 1064 00000000 		.word	loadPatchIndex
 3071              		.cfi_endproc
 3072              	.LFE143:
 3073              		.size	PExReceiveByte, .-PExReceiveByte
 3074              		.align	2
 3075 1068 AFF30080 		.p2align 4,,15
 3075      AFF30080 
 3076              		.global	PExReceive
 3077              		.thumb
 3078              		.thumb_func
 3079              		.type	PExReceive, %function
 3080              	PExReceive:
 3081              	.LFB144:
 3082              		.loc 1 1075 0
 3083              		.cfi_startproc
 3084              		@ args = 0, pretend = 0, frame = 8
 3085              		@ frame_needed = 0, uses_anonymous_args = 0
 3086              		.loc 1 1076 0
 3087 1070 0C4B     		ldr	r3, .L372
 3088 1072 D3F85432 		ldr	r3, [r3, #596]
 3089 1076 9BB9     		cbnz	r3, .L371
 3090              		.loc 1 1075 0
 3091 1078 30B5     		push	{r4, r5, lr}
 3092              		.cfi_def_cfa_offset 12
 3093              		.cfi_offset 4, -12
 3094              		.cfi_offset 5, -8
 3095              		.cfi_offset 14, -4
 3096 107a 0B4D     		ldr	r5, .L372+4
 3097 107c 83B0     		sub	sp, sp, #12
 3098              		.cfi_def_cfa_offset 24
 3099 107e 03E0     		b	.L366
 3100              	.L368:
 3101              	.LBB50:
 3102              		.loc 1 1079 0
 3103 1080 9DF80700 		ldrb	r0, [sp, #7]	@ zero_extendqisi2
 3104 1084 FFF7FEFF 		bl	PExReceiveByte
 3105              	.LVL185:
 3106              	.L366:
 3107              		.loc 1 1078 0
 3108 1088 2B68     		ldr	r3, [r5]
 3109 108a 0748     		ldr	r0, .L372+4
 3110 108c DC69     		ldr	r4, [r3, #28]
 3111 108e 0DF10701 		add	r1, sp, #7
 3112 1092 0122     		movs	r2, #1
 3113 1094 0023     		movs	r3, #0
 3114 1096 A047     		blx	r4
 3115              	.LVL186:
 3116 1098 0028     		cmp	r0, #0
 3117 109a F1D1     		bne	.L368
 3118              	.LBE50:
 3119              		.loc 1 1082 0
 3120 109c 03B0     		add	sp, sp, #12
ARM GAS  /tmp/ccLdaIGa.s 			page 56


 3121              		.cfi_def_cfa_offset 12
 3122              		@ sp needed
 3123 109e 30BD     		pop	{r4, r5, pc}
 3124              	.L371:
 3125              		.cfi_def_cfa_offset 0
 3126              		.cfi_restore 4
 3127              		.cfi_restore 5
 3128              		.cfi_restore 14
 3129 10a0 7047     		bx	lr
 3130              	.L373:
 3131 10a2 00BF     		.align	2
 3132              	.L372:
 3133 10a4 00000000 		.word	.LANCHOR0
 3134 10a8 00000000 		.word	BDU1
 3135              		.cfi_endproc
 3136              	.LFE144:
 3137              		.size	PExReceive, .-PExReceive
 3138              		.comm	pFileSize,4,4
 3139              		.comm	pFile,40,4
 3140              		.comm	FileName,256,4
 3141              		.global	connected
 3142              		.global	AckPending
 3143              		.comm	fwid,4,4
 3144              		.section	.rodata.str1.4,"aMS",%progbits,1
 3145              		.align	2
 3146              	.LC0:
 3147 0000 75736264 		.ascii	"usbdmidi\000"
 3147      6D696469 
 3147      00
 3148 0009 000000   		.space	3
 3149              	.LC1:
 3150 000c 2F00     		.ascii	"/\000"
 3151 000e 0000     		.space	2
 3152              	.LC2:
 3153 0010 46696C65 		.ascii	"File open failed\000"
 3153      206F7065 
 3153      6E206661 
 3153      696C6564 
 3153      00
 3154 0021 000000   		.space	3
 3155              	.LC3:
 3156 0024 46696C65 		.ascii	"File write failed\000"
 3156      20777269 
 3156      74652066 
 3156      61696C65 
 3156      6400
 3157 0036 0000     		.space	2
 3158              	.LC4:
 3159 0038 46696C65 		.ascii	"File close failed\000"
 3159      20636C6F 
 3159      73652066 
 3159      61696C65 
 3159      6400
 3160              		.bss
 3161              		.align	3
 3162              		.set	.LANCHOR0,. + 0
 3163              		.type	waThreadUSBDMidi, %object
ARM GAS  /tmp/ccLdaIGa.s 			page 57


 3164              		.size	waThreadUSBDMidi, 592
 3165              	waThreadUSBDMidi:
 3166 0000 00000000 		.space	592
 3166      00000000 
 3166      00000000 
 3166      00000000 
 3166      00000000 
 3167              		.type	connected, %object
 3168              		.size	connected, 1
 3169              	connected:
 3170 0250 00       		.space	1
 3171 0251 000000   		.space	3
 3172              		.type	AckPending, %object
 3173              		.size	AckPending, 4
 3174              	AckPending:
 3175 0254 00000000 		.space	4
 3176              		.type	header.8716, %object
 3177              		.size	header.8716, 1
 3178              	header.8716:
 3179 0258 00       		.space	1
 3180 0259 000000   		.space	3
 3181              		.type	state.8717, %object
 3182              		.size	state.8717, 4
 3183              	state.8717:
 3184 025c 00000000 		.space	4
 3185              		.type	patchid.8725, %object
 3186              		.size	patchid.8725, 4
 3187              	patchid.8725:
 3188 0260 00000000 		.space	4
 3189              		.type	value.8719, %object
 3190              		.size	value.8719, 4
 3191              	value.8719:
 3192 0264 00000000 		.space	4
 3193              		.type	index.8718, %object
 3194              		.size	index.8718, 4
 3195              	index.8718:
 3196 0268 00000000 		.space	4
 3197              		.type	offset.8721, %object
 3198              		.size	offset.8721, 4
 3199              	offset.8721:
 3200 026c 00000000 		.space	4
 3201              		.type	length.8722, %object
 3202              		.size	length.8722, 4
 3203              	length.8722:
 3204 0270 00000000 		.space	4
 3205              		.type	position.8720, %object
 3206              		.size	position.8720, 4
 3207              	position.8720:
 3208 0274 00000000 		.space	4
 3209              		.type	midi_r.8777, %object
 3210              		.size	midi_r.8777, 3
 3211              	midi_r.8777:
 3212 0278 000000   		.space	3
 3213 027b 00       		.space	1
 3214              		.type	a.8723, %object
 3215              		.size	a.8723, 4
 3216              	a.8723:
ARM GAS  /tmp/ccLdaIGa.s 			page 58


 3217 027c 00000000 		.space	4
 3218              		.type	b.8724, %object
 3219              		.size	b.8724, 4
 3220              	b.8724:
 3221 0280 00000000 		.space	4
 3222              		.text
 3223              	.Letext0:
 3224              		.file 2 "/home/sbcu/Dropbox/pcb-layouts/axo-on-discovery-board/axoloti/platform_linux/lib/gcc/arm-
 3225              		.file 3 "/home/sbcu/Dropbox/pcb-layouts/axo-on-discovery-board/axoloti/platform_linux/arm-none-eab
 3226              		.file 4 "/home/sbcu/Dropbox/pcb-layouts/axo-on-discovery-board/axoloti/platform_linux/arm-none-eab
 3227              		.file 5 "/home/sbcu/Dropbox/pcb-layouts/axo-on-discovery-board/axoloti/platform_linux/../chibios/o
 3228              		.file 6 "/home/sbcu/Dropbox/pcb-layouts/axo-on-discovery-board/axoloti/platform_linux/../chibios/o
 3229              		.file 7 "/home/sbcu/Dropbox/pcb-layouts/axo-on-discovery-board/axoloti/platform_linux/../chibios/o
 3230              		.file 8 "/home/sbcu/Dropbox/pcb-layouts/axo-on-discovery-board/axoloti/platform_linux/../chibios/o
 3231              		.file 9 "/home/sbcu/Dropbox/pcb-layouts/axo-on-discovery-board/axoloti/platform_linux/../chibios/o
 3232              		.file 10 "/home/sbcu/Dropbox/pcb-layouts/axo-on-discovery-board/axoloti/platform_linux/../chibios/
 3233              		.file 11 "/home/sbcu/Dropbox/pcb-layouts/axo-on-discovery-board/axoloti/platform_linux/../chibios/
 3234              		.file 12 "/home/sbcu/Dropbox/pcb-layouts/axo-on-discovery-board/axoloti/platform_linux/../chibios/
 3235              		.file 13 "/home/sbcu/Dropbox/pcb-layouts/axo-on-discovery-board/axoloti/platform_linux/../chibios/
 3236              		.file 14 "/home/sbcu/Dropbox/pcb-layouts/axo-on-discovery-board/axoloti/platform_linux/../chibios/
 3237              		.file 15 "/home/sbcu/Dropbox/pcb-layouts/axo-on-discovery-board/axoloti/platform_linux/../chibios/
 3238              		.file 16 "/home/sbcu/Dropbox/pcb-layouts/axo-on-discovery-board/axoloti/platform_linux/../chibios/
 3239              		.file 17 "/home/sbcu/Dropbox/pcb-layouts/axo-on-discovery-board/axoloti/platform_linux/../chibios/
 3240              		.file 18 "/home/sbcu/Dropbox/pcb-layouts/axo-on-discovery-board/axoloti/platform_linux/lib/gcc/arm
 3241              		.file 19 "<built-in>"
 3242              		.file 20 "parameters.h"
 3243              		.file 21 "ui.h"
 3244              		.file 22 "/home/sbcu/Dropbox/pcb-layouts/axo-on-discovery-board/axoloti/platform_linux/../chibios/
 3245              		.file 23 "/home/sbcu/Dropbox/pcb-layouts/axo-on-discovery-board/axoloti/platform_linux/../chibios/
 3246              		.file 24 "midi.h"
 3247              		.file 25 "patch.h"
 3248              		.file 26 "bulk_usb.h"
 3249              		.file 27 "midi_usb.h"
 3250              		.file 28 "/home/sbcu/Dropbox/pcb-layouts/axo-on-discovery-board/axoloti/platform_linux/../CMSIS//I
 3251              		.file 29 "usbcfg.h"
 3252              		.file 30 "sdcard.h"
 3253              		.file 31 "/home/sbcu/Dropbox/pcb-layouts/axo-on-discovery-board/axoloti/platform_linux/arm-none-ea
 3254              		.file 32 "exceptions.h"
 3255              		.file 33 "crc32.h"
 3256              		.file 34 "/home/sbcu/Dropbox/pcb-layouts/axo-on-discovery-board/axoloti/platform_linux/../chibios/
 3257              		.file 35 "sysmon.h"
 3258              		.file 36 "flash.h"
 3259              		.section	.debug_info,"",%progbits
 3260              	.Ldebug_info0:
 3261 0000 D0300000 		.4byte	0x30d0
 3262 0004 0400     		.2byte	0x4
 3263 0006 00000000 		.4byte	.Ldebug_abbrev0
 3264 000a 04       		.byte	0x4
 3265 000b 01       		.uleb128 0x1
 3266 000c 14120000 		.4byte	.LASF519
 3267 0010 01       		.byte	0x1
 3268 0011 04110000 		.4byte	.LASF520
 3269 0015 CE150000 		.4byte	.LASF521
 3270 0019 00000000 		.4byte	.Ltext0
 3271 001d AC100000 		.4byte	.Letext0-.Ltext0
 3272 0021 00000000 		.4byte	.Ldebug_line0
 3273 0025 02       		.uleb128 0x2
ARM GAS  /tmp/ccLdaIGa.s 			page 59


 3274 0026 04       		.byte	0x4
 3275 0027 05       		.byte	0x5
 3276 0028 696E7400 		.ascii	"int\000"
 3277 002c 03       		.uleb128 0x3
 3278 002d 67070000 		.4byte	.LASF1
 3279 0031 02       		.byte	0x2
 3280 0032 D4       		.byte	0xd4
 3281 0033 37000000 		.4byte	0x37
 3282 0037 04       		.uleb128 0x4
 3283 0038 04       		.byte	0x4
 3284 0039 07       		.byte	0x7
 3285 003a 8F150000 		.4byte	.LASF0
 3286 003e 03       		.uleb128 0x3
 3287 003f 5D150000 		.4byte	.LASF2
 3288 0043 03       		.byte	0x3
 3289 0044 1B       		.byte	0x1b
 3290 0045 49000000 		.4byte	0x49
 3291 0049 04       		.uleb128 0x4
 3292 004a 01       		.byte	0x1
 3293 004b 06       		.byte	0x6
 3294 004c 0A0C0000 		.4byte	.LASF3
 3295 0050 03       		.uleb128 0x3
 3296 0051 8C000000 		.4byte	.LASF4
 3297 0055 03       		.byte	0x3
 3298 0056 1D       		.byte	0x1d
 3299 0057 5B000000 		.4byte	0x5b
 3300 005b 04       		.uleb128 0x4
 3301 005c 01       		.byte	0x1
 3302 005d 08       		.byte	0x8
 3303 005e 76050000 		.4byte	.LASF5
 3304 0062 04       		.uleb128 0x4
 3305 0063 02       		.byte	0x2
 3306 0064 05       		.byte	0x5
 3307 0065 15160000 		.4byte	.LASF6
 3308 0069 03       		.uleb128 0x3
 3309 006a 41040000 		.4byte	.LASF7
 3310 006e 03       		.byte	0x3
 3311 006f 2B       		.byte	0x2b
 3312 0070 74000000 		.4byte	0x74
 3313 0074 04       		.uleb128 0x4
 3314 0075 02       		.byte	0x2
 3315 0076 07       		.byte	0x7
 3316 0077 F70B0000 		.4byte	.LASF8
 3317 007b 03       		.uleb128 0x3
 3318 007c 12110000 		.4byte	.LASF9
 3319 0080 03       		.byte	0x3
 3320 0081 3F       		.byte	0x3f
 3321 0082 86000000 		.4byte	0x86
 3322 0086 04       		.uleb128 0x4
 3323 0087 04       		.byte	0x4
 3324 0088 05       		.byte	0x5
 3325 0089 140D0000 		.4byte	.LASF10
 3326 008d 03       		.uleb128 0x3
 3327 008e 1C110000 		.4byte	.LASF11
 3328 0092 03       		.byte	0x3
 3329 0093 41       		.byte	0x41
 3330 0094 98000000 		.4byte	0x98
ARM GAS  /tmp/ccLdaIGa.s 			page 60


 3331 0098 04       		.uleb128 0x4
 3332 0099 04       		.byte	0x4
 3333 009a 07       		.byte	0x7
 3334 009b 530E0000 		.4byte	.LASF12
 3335 009f 04       		.uleb128 0x4
 3336 00a0 08       		.byte	0x8
 3337 00a1 05       		.byte	0x5
 3338 00a2 5D140000 		.4byte	.LASF13
 3339 00a6 03       		.uleb128 0x3
 3340 00a7 7A090000 		.4byte	.LASF14
 3341 00ab 03       		.byte	0x3
 3342 00ac 5B       		.byte	0x5b
 3343 00ad B1000000 		.4byte	0xb1
 3344 00b1 04       		.uleb128 0x4
 3345 00b2 08       		.byte	0x8
 3346 00b3 07       		.byte	0x7
 3347 00b4 20130000 		.4byte	.LASF15
 3348 00b8 03       		.uleb128 0x3
 3349 00b9 E20A0000 		.4byte	.LASF16
 3350 00bd 04       		.byte	0x4
 3351 00be 13       		.byte	0x13
 3352 00bf 3E000000 		.4byte	0x3e
 3353 00c3 03       		.uleb128 0x3
 3354 00c4 9D070000 		.4byte	.LASF17
 3355 00c8 04       		.byte	0x4
 3356 00c9 14       		.byte	0x14
 3357 00ca 50000000 		.4byte	0x50
 3358 00ce 03       		.uleb128 0x3
 3359 00cf 17010000 		.4byte	.LASF18
 3360 00d3 04       		.byte	0x4
 3361 00d4 1A       		.byte	0x1a
 3362 00d5 69000000 		.4byte	0x69
 3363 00d9 03       		.uleb128 0x3
 3364 00da 14020000 		.4byte	.LASF19
 3365 00de 04       		.byte	0x4
 3366 00df 1F       		.byte	0x1f
 3367 00e0 7B000000 		.4byte	0x7b
 3368 00e4 03       		.uleb128 0x3
 3369 00e5 C40D0000 		.4byte	.LASF20
 3370 00e9 04       		.byte	0x4
 3371 00ea 20       		.byte	0x20
 3372 00eb 8D000000 		.4byte	0x8d
 3373 00ef 03       		.uleb128 0x3
 3374 00f0 23060000 		.4byte	.LASF21
 3375 00f4 04       		.byte	0x4
 3376 00f5 26       		.byte	0x26
 3377 00f6 A6000000 		.4byte	0xa6
 3378 00fa 03       		.uleb128 0x3
 3379 00fb 650E0000 		.4byte	.LASF22
 3380 00ff 05       		.byte	0x5
 3381 0100 2B       		.byte	0x2b
 3382 0101 05010000 		.4byte	0x105
 3383 0105 04       		.uleb128 0x4
 3384 0106 01       		.byte	0x1
 3385 0107 02       		.byte	0x2
 3386 0108 96000000 		.4byte	.LASF23
 3387 010c 03       		.uleb128 0x3
ARM GAS  /tmp/ccLdaIGa.s 			page 61


 3388 010d 590A0000 		.4byte	.LASF24
 3389 0111 05       		.byte	0x5
 3390 0112 2C       		.byte	0x2c
 3391 0113 C3000000 		.4byte	0xc3
 3392 0117 03       		.uleb128 0x3
 3393 0118 D4130000 		.4byte	.LASF25
 3394 011c 05       		.byte	0x5
 3395 011d 2D       		.byte	0x2d
 3396 011e C3000000 		.4byte	0xc3
 3397 0122 03       		.uleb128 0x3
 3398 0123 860B0000 		.4byte	.LASF26
 3399 0127 05       		.byte	0x5
 3400 0128 2F       		.byte	0x2f
 3401 0129 C3000000 		.4byte	0xc3
 3402 012d 03       		.uleb128 0x3
 3403 012e BF030000 		.4byte	.LASF27
 3404 0132 05       		.byte	0x5
 3405 0133 30       		.byte	0x30
 3406 0134 E4000000 		.4byte	0xe4
 3407 0138 03       		.uleb128 0x3
 3408 0139 16000000 		.4byte	.LASF28
 3409 013d 05       		.byte	0x5
 3410 013e 31       		.byte	0x31
 3411 013f D9000000 		.4byte	0xd9
 3412 0143 03       		.uleb128 0x3
 3413 0144 F50D0000 		.4byte	.LASF29
 3414 0148 05       		.byte	0x5
 3415 0149 33       		.byte	0x33
 3416 014a E4000000 		.4byte	0xe4
 3417 014e 03       		.uleb128 0x3
 3418 014f A1140000 		.4byte	.LASF30
 3419 0153 05       		.byte	0x5
 3420 0154 34       		.byte	0x34
 3421 0155 E4000000 		.4byte	0xe4
 3422 0159 03       		.uleb128 0x3
 3423 015a 1C020000 		.4byte	.LASF31
 3424 015e 05       		.byte	0x5
 3425 015f 35       		.byte	0x35
 3426 0160 E4000000 		.4byte	0xe4
 3427 0164 03       		.uleb128 0x3
 3428 0165 F90F0000 		.4byte	.LASF32
 3429 0169 05       		.byte	0x5
 3430 016a 36       		.byte	0x36
 3431 016b D9000000 		.4byte	0xd9
 3432 016f 03       		.uleb128 0x3
 3433 0170 3B060000 		.4byte	.LASF33
 3434 0174 06       		.byte	0x6
 3435 0175 2A       		.byte	0x2a
 3436 0176 7A010000 		.4byte	0x17a
 3437 017a 05       		.uleb128 0x5
 3438 017b 3B060000 		.4byte	.LASF33
 3439 017f 40       		.byte	0x40
 3440 0180 07       		.byte	0x7
 3441 0181 5E       		.byte	0x5e
 3442 0182 53020000 		.4byte	0x253
 3443 0186 06       		.uleb128 0x6
 3444 0187 D7090000 		.4byte	.LASF34
ARM GAS  /tmp/ccLdaIGa.s 			page 62


 3445 018b 07       		.byte	0x7
 3446 018c 5F       		.byte	0x5f
 3447 018d 74020000 		.4byte	0x274
 3448 0191 00       		.byte	0
 3449 0192 06       		.uleb128 0x6
 3450 0193 05080000 		.4byte	.LASF35
 3451 0197 07       		.byte	0x7
 3452 0198 61       		.byte	0x61
 3453 0199 74020000 		.4byte	0x274
 3454 019d 04       		.byte	0x4
 3455 019e 06       		.uleb128 0x6
 3456 019f 6D090000 		.4byte	.LASF36
 3457 01a3 07       		.byte	0x7
 3458 01a4 63       		.byte	0x63
 3459 01a5 2D010000 		.4byte	0x12d
 3460 01a9 08       		.byte	0x8
 3461 01aa 06       		.uleb128 0x6
 3462 01ab BF050000 		.4byte	.LASF37
 3463 01af 07       		.byte	0x7
 3464 01b0 64       		.byte	0x64
 3465 01b1 09040000 		.4byte	0x409
 3466 01b5 0C       		.byte	0xc
 3467 01b6 06       		.uleb128 0x6
 3468 01b7 80010000 		.4byte	.LASF38
 3469 01bb 07       		.byte	0x7
 3470 01bc 66       		.byte	0x66
 3471 01bd 74020000 		.4byte	0x274
 3472 01c1 10       		.byte	0x10
 3473 01c2 06       		.uleb128 0x6
 3474 01c3 F0140000 		.4byte	.LASF39
 3475 01c7 07       		.byte	0x7
 3476 01c8 67       		.byte	0x67
 3477 01c9 74020000 		.4byte	0x274
 3478 01cd 14       		.byte	0x14
 3479 01ce 06       		.uleb128 0x6
 3480 01cf FB130000 		.4byte	.LASF40
 3481 01d3 07       		.byte	0x7
 3482 01d4 6E       		.byte	0x6e
 3483 01d5 AB050000 		.4byte	0x5ab
 3484 01d9 18       		.byte	0x18
 3485 01da 06       		.uleb128 0x6
 3486 01db 8B160000 		.4byte	.LASF41
 3487 01df 07       		.byte	0x7
 3488 01e0 79       		.byte	0x79
 3489 01e1 17010000 		.4byte	0x117
 3490 01e5 1C       		.byte	0x1c
 3491 01e6 06       		.uleb128 0x6
 3492 01e7 8A130000 		.4byte	.LASF42
 3493 01eb 07       		.byte	0x7
 3494 01ec 7D       		.byte	0x7d
 3495 01ed 0C010000 		.4byte	0x10c
 3496 01f1 1D       		.byte	0x1d
 3497 01f2 06       		.uleb128 0x6
 3498 01f3 160C0000 		.4byte	.LASF43
 3499 01f7 07       		.byte	0x7
 3500 01f8 88       		.byte	0x88
 3501 01f9 22010000 		.4byte	0x122
ARM GAS  /tmp/ccLdaIGa.s 			page 63


 3502 01fd 1E       		.byte	0x1e
 3503 01fe 07       		.uleb128 0x7
 3504 01ff 705F7500 		.ascii	"p_u\000"
 3505 0203 07       		.byte	0x7
 3506 0204 B4       		.byte	0xb4
 3507 0205 76050000 		.4byte	0x576
 3508 0209 20       		.byte	0x20
 3509 020a 06       		.uleb128 0x6
 3510 020b 33030000 		.4byte	.LASF44
 3511 020f 07       		.byte	0x7
 3512 0210 B9       		.byte	0xb9
 3513 0211 9A020000 		.4byte	0x29a
 3514 0215 24       		.byte	0x24
 3515 0216 06       		.uleb128 0x6
 3516 0217 25070000 		.4byte	.LASF45
 3517 021b 07       		.byte	0x7
 3518 021c BF       		.byte	0xbf
 3519 021d 7A020000 		.4byte	0x27a
 3520 0221 28       		.byte	0x28
 3521 0222 06       		.uleb128 0x6
 3522 0223 55040000 		.4byte	.LASF46
 3523 0227 07       		.byte	0x7
 3524 0228 C3       		.byte	0xc3
 3525 0229 38010000 		.4byte	0x138
 3526 022d 30       		.byte	0x30
 3527 022e 06       		.uleb128 0x6
 3528 022f 72110000 		.4byte	.LASF47
 3529 0233 07       		.byte	0x7
 3530 0234 C9       		.byte	0xc9
 3531 0235 43010000 		.4byte	0x143
 3532 0239 34       		.byte	0x34
 3533 023a 06       		.uleb128 0x6
 3534 023b CA130000 		.4byte	.LASF48
 3535 023f 07       		.byte	0x7
 3536 0240 D0       		.byte	0xd0
 3537 0241 BD050000 		.4byte	0x5bd
 3538 0245 38       		.byte	0x38
 3539 0246 06       		.uleb128 0x6
 3540 0247 A8100000 		.4byte	.LASF49
 3541 024b 07       		.byte	0x7
 3542 024c D4       		.byte	0xd4
 3543 024d 2D010000 		.4byte	0x12d
 3544 0251 3C       		.byte	0x3c
 3545 0252 00       		.byte	0
 3546 0253 08       		.uleb128 0x8
 3547 0254 08       		.byte	0x8
 3548 0255 06       		.byte	0x6
 3549 0256 61       		.byte	0x61
 3550 0257 74020000 		.4byte	0x274
 3551 025b 06       		.uleb128 0x6
 3552 025c D7090000 		.4byte	.LASF34
 3553 0260 06       		.byte	0x6
 3554 0261 62       		.byte	0x62
 3555 0262 74020000 		.4byte	0x274
 3556 0266 00       		.byte	0
 3557 0267 06       		.uleb128 0x6
 3558 0268 05080000 		.4byte	.LASF35
ARM GAS  /tmp/ccLdaIGa.s 			page 64


 3559 026c 06       		.byte	0x6
 3560 026d 64       		.byte	0x64
 3561 026e 74020000 		.4byte	0x274
 3562 0272 04       		.byte	0x4
 3563 0273 00       		.byte	0
 3564 0274 09       		.uleb128 0x9
 3565 0275 04       		.byte	0x4
 3566 0276 6F010000 		.4byte	0x16f
 3567 027a 03       		.uleb128 0x3
 3568 027b 90070000 		.4byte	.LASF50
 3569 027f 06       		.byte	0x6
 3570 0280 66       		.byte	0x66
 3571 0281 53020000 		.4byte	0x253
 3572 0285 08       		.uleb128 0x8
 3573 0286 04       		.byte	0x4
 3574 0287 06       		.byte	0x6
 3575 0288 6B       		.byte	0x6b
 3576 0289 9A020000 		.4byte	0x29a
 3577 028d 06       		.uleb128 0x6
 3578 028e D7090000 		.4byte	.LASF34
 3579 0292 06       		.byte	0x6
 3580 0293 6D       		.byte	0x6d
 3581 0294 74020000 		.4byte	0x274
 3582 0298 00       		.byte	0
 3583 0299 00       		.byte	0
 3584 029a 03       		.uleb128 0x3
 3585 029b 5F0C0000 		.4byte	.LASF51
 3586 029f 06       		.byte	0x6
 3587 02a0 70       		.byte	0x70
 3588 02a1 85020000 		.4byte	0x285
 3589 02a5 03       		.uleb128 0x3
 3590 02a6 E60D0000 		.4byte	.LASF52
 3591 02aa 08       		.byte	0x8
 3592 02ab E5       		.byte	0xe5
 3593 02ac B0020000 		.4byte	0x2b0
 3594 02b0 0A       		.uleb128 0xa
 3595 02b1 04       		.byte	0x4
 3596 02b2 03       		.uleb128 0x3
 3597 02b3 1E050000 		.4byte	.LASF53
 3598 02b7 08       		.byte	0x8
 3599 02b8 EB       		.byte	0xeb
 3600 02b9 EF000000 		.4byte	0xef
 3601 02bd 0B       		.uleb128 0xb
 3602 02be 0F000000 		.4byte	.LASF54
 3603 02c2 64       		.byte	0x64
 3604 02c3 08       		.byte	0x8
 3605 02c4 0C01     		.2byte	0x10c
 3606 02c6 09040000 		.4byte	0x409
 3607 02ca 0C       		.uleb128 0xc
 3608 02cb 73313600 		.ascii	"s16\000"
 3609 02cf 08       		.byte	0x8
 3610 02d0 0E01     		.2byte	0x10e
 3611 02d2 A5020000 		.4byte	0x2a5
 3612 02d6 00       		.byte	0
 3613 02d7 0C       		.uleb128 0xc
 3614 02d8 73313700 		.ascii	"s17\000"
 3615 02dc 08       		.byte	0x8
ARM GAS  /tmp/ccLdaIGa.s 			page 65


 3616 02dd 0F01     		.2byte	0x10f
 3617 02df A5020000 		.4byte	0x2a5
 3618 02e3 04       		.byte	0x4
 3619 02e4 0C       		.uleb128 0xc
 3620 02e5 73313800 		.ascii	"s18\000"
 3621 02e9 08       		.byte	0x8
 3622 02ea 1001     		.2byte	0x110
 3623 02ec A5020000 		.4byte	0x2a5
 3624 02f0 08       		.byte	0x8
 3625 02f1 0C       		.uleb128 0xc
 3626 02f2 73313900 		.ascii	"s19\000"
 3627 02f6 08       		.byte	0x8
 3628 02f7 1101     		.2byte	0x111
 3629 02f9 A5020000 		.4byte	0x2a5
 3630 02fd 0C       		.byte	0xc
 3631 02fe 0C       		.uleb128 0xc
 3632 02ff 73323000 		.ascii	"s20\000"
 3633 0303 08       		.byte	0x8
 3634 0304 1201     		.2byte	0x112
 3635 0306 A5020000 		.4byte	0x2a5
 3636 030a 10       		.byte	0x10
 3637 030b 0C       		.uleb128 0xc
 3638 030c 73323100 		.ascii	"s21\000"
 3639 0310 08       		.byte	0x8
 3640 0311 1301     		.2byte	0x113
 3641 0313 A5020000 		.4byte	0x2a5
 3642 0317 14       		.byte	0x14
 3643 0318 0C       		.uleb128 0xc
 3644 0319 73323200 		.ascii	"s22\000"
 3645 031d 08       		.byte	0x8
 3646 031e 1401     		.2byte	0x114
 3647 0320 A5020000 		.4byte	0x2a5
 3648 0324 18       		.byte	0x18
 3649 0325 0C       		.uleb128 0xc
 3650 0326 73323300 		.ascii	"s23\000"
 3651 032a 08       		.byte	0x8
 3652 032b 1501     		.2byte	0x115
 3653 032d A5020000 		.4byte	0x2a5
 3654 0331 1C       		.byte	0x1c
 3655 0332 0C       		.uleb128 0xc
 3656 0333 73323400 		.ascii	"s24\000"
 3657 0337 08       		.byte	0x8
 3658 0338 1601     		.2byte	0x116
 3659 033a A5020000 		.4byte	0x2a5
 3660 033e 20       		.byte	0x20
 3661 033f 0C       		.uleb128 0xc
 3662 0340 73323500 		.ascii	"s25\000"
 3663 0344 08       		.byte	0x8
 3664 0345 1701     		.2byte	0x117
 3665 0347 A5020000 		.4byte	0x2a5
 3666 034b 24       		.byte	0x24
 3667 034c 0C       		.uleb128 0xc
 3668 034d 73323600 		.ascii	"s26\000"
 3669 0351 08       		.byte	0x8
 3670 0352 1801     		.2byte	0x118
 3671 0354 A5020000 		.4byte	0x2a5
 3672 0358 28       		.byte	0x28
ARM GAS  /tmp/ccLdaIGa.s 			page 66


 3673 0359 0C       		.uleb128 0xc
 3674 035a 73323700 		.ascii	"s27\000"
 3675 035e 08       		.byte	0x8
 3676 035f 1901     		.2byte	0x119
 3677 0361 A5020000 		.4byte	0x2a5
 3678 0365 2C       		.byte	0x2c
 3679 0366 0C       		.uleb128 0xc
 3680 0367 73323800 		.ascii	"s28\000"
 3681 036b 08       		.byte	0x8
 3682 036c 1A01     		.2byte	0x11a
 3683 036e A5020000 		.4byte	0x2a5
 3684 0372 30       		.byte	0x30
 3685 0373 0C       		.uleb128 0xc
 3686 0374 73323900 		.ascii	"s29\000"
 3687 0378 08       		.byte	0x8
 3688 0379 1B01     		.2byte	0x11b
 3689 037b A5020000 		.4byte	0x2a5
 3690 037f 34       		.byte	0x34
 3691 0380 0C       		.uleb128 0xc
 3692 0381 73333000 		.ascii	"s30\000"
 3693 0385 08       		.byte	0x8
 3694 0386 1C01     		.2byte	0x11c
 3695 0388 A5020000 		.4byte	0x2a5
 3696 038c 38       		.byte	0x38
 3697 038d 0C       		.uleb128 0xc
 3698 038e 73333100 		.ascii	"s31\000"
 3699 0392 08       		.byte	0x8
 3700 0393 1D01     		.2byte	0x11d
 3701 0395 A5020000 		.4byte	0x2a5
 3702 0399 3C       		.byte	0x3c
 3703 039a 0C       		.uleb128 0xc
 3704 039b 723400   		.ascii	"r4\000"
 3705 039e 08       		.byte	0x8
 3706 039f 1F01     		.2byte	0x11f
 3707 03a1 A5020000 		.4byte	0x2a5
 3708 03a5 40       		.byte	0x40
 3709 03a6 0C       		.uleb128 0xc
 3710 03a7 723500   		.ascii	"r5\000"
 3711 03aa 08       		.byte	0x8
 3712 03ab 2001     		.2byte	0x120
 3713 03ad A5020000 		.4byte	0x2a5
 3714 03b1 44       		.byte	0x44
 3715 03b2 0C       		.uleb128 0xc
 3716 03b3 723600   		.ascii	"r6\000"
 3717 03b6 08       		.byte	0x8
 3718 03b7 2101     		.2byte	0x121
 3719 03b9 A5020000 		.4byte	0x2a5
 3720 03bd 48       		.byte	0x48
 3721 03be 0C       		.uleb128 0xc
 3722 03bf 723700   		.ascii	"r7\000"
 3723 03c2 08       		.byte	0x8
 3724 03c3 2201     		.2byte	0x122
 3725 03c5 A5020000 		.4byte	0x2a5
 3726 03c9 4C       		.byte	0x4c
 3727 03ca 0C       		.uleb128 0xc
 3728 03cb 723800   		.ascii	"r8\000"
 3729 03ce 08       		.byte	0x8
ARM GAS  /tmp/ccLdaIGa.s 			page 67


 3730 03cf 2301     		.2byte	0x123
 3731 03d1 A5020000 		.4byte	0x2a5
 3732 03d5 50       		.byte	0x50
 3733 03d6 0C       		.uleb128 0xc
 3734 03d7 723900   		.ascii	"r9\000"
 3735 03da 08       		.byte	0x8
 3736 03db 2401     		.2byte	0x124
 3737 03dd A5020000 		.4byte	0x2a5
 3738 03e1 54       		.byte	0x54
 3739 03e2 0C       		.uleb128 0xc
 3740 03e3 72313000 		.ascii	"r10\000"
 3741 03e7 08       		.byte	0x8
 3742 03e8 2501     		.2byte	0x125
 3743 03ea A5020000 		.4byte	0x2a5
 3744 03ee 58       		.byte	0x58
 3745 03ef 0C       		.uleb128 0xc
 3746 03f0 72313100 		.ascii	"r11\000"
 3747 03f4 08       		.byte	0x8
 3748 03f5 2601     		.2byte	0x126
 3749 03f7 A5020000 		.4byte	0x2a5
 3750 03fb 5C       		.byte	0x5c
 3751 03fc 0C       		.uleb128 0xc
 3752 03fd 6C7200   		.ascii	"lr\000"
 3753 0400 08       		.byte	0x8
 3754 0401 2701     		.2byte	0x127
 3755 0403 A5020000 		.4byte	0x2a5
 3756 0407 60       		.byte	0x60
 3757 0408 00       		.byte	0
 3758 0409 0B       		.uleb128 0xb
 3759 040a A10D0000 		.4byte	.LASF55
 3760 040e 04       		.byte	0x4
 3761 040f 08       		.byte	0x8
 3762 0410 3101     		.2byte	0x131
 3763 0412 24040000 		.4byte	0x424
 3764 0416 0C       		.uleb128 0xc
 3765 0417 72313300 		.ascii	"r13\000"
 3766 041b 08       		.byte	0x8
 3767 041c 3201     		.2byte	0x132
 3768 041e 24040000 		.4byte	0x424
 3769 0422 00       		.byte	0
 3770 0423 00       		.byte	0
 3771 0424 09       		.uleb128 0x9
 3772 0425 04       		.byte	0x4
 3773 0426 BD020000 		.4byte	0x2bd
 3774 042a 0D       		.uleb128 0xd
 3775 042b E4000000 		.4byte	0xe4
 3776 042f 04       		.uleb128 0x4
 3777 0430 04       		.byte	0x4
 3778 0431 07       		.byte	0x7
 3779 0432 B40B0000 		.4byte	.LASF56
 3780 0436 08       		.uleb128 0x8
 3781 0437 1C       		.byte	0x1c
 3782 0438 09       		.byte	0x9
 3783 0439 5E       		.byte	0x5e
 3784 043a 87040000 		.4byte	0x487
 3785 043e 06       		.uleb128 0x6
 3786 043f A00E0000 		.4byte	.LASF57
ARM GAS  /tmp/ccLdaIGa.s 			page 68


 3787 0443 09       		.byte	0x9
 3788 0444 5F       		.byte	0x5f
 3789 0445 7A020000 		.4byte	0x27a
 3790 0449 00       		.byte	0
 3791 044a 06       		.uleb128 0x6
 3792 044b 06120000 		.4byte	.LASF58
 3793 044f 09       		.byte	0x9
 3794 0450 60       		.byte	0x60
 3795 0451 2D010000 		.4byte	0x12d
 3796 0455 08       		.byte	0x8
 3797 0456 06       		.uleb128 0x6
 3798 0457 16070000 		.4byte	.LASF59
 3799 045b 09       		.byte	0x9
 3800 045c 62       		.byte	0x62
 3801 045d 09040000 		.4byte	0x409
 3802 0461 0C       		.byte	0xc
 3803 0462 06       		.uleb128 0x6
 3804 0463 040B0000 		.4byte	.LASF60
 3805 0467 09       		.byte	0x9
 3806 0468 65       		.byte	0x65
 3807 0469 74020000 		.4byte	0x274
 3808 046d 10       		.byte	0x10
 3809 046e 06       		.uleb128 0x6
 3810 046f FD070000 		.4byte	.LASF61
 3811 0473 09       		.byte	0x9
 3812 0474 66       		.byte	0x66
 3813 0475 74020000 		.4byte	0x274
 3814 0479 14       		.byte	0x14
 3815 047a 06       		.uleb128 0x6
 3816 047b D6050000 		.4byte	.LASF62
 3817 047f 09       		.byte	0x9
 3818 0480 69       		.byte	0x69
 3819 0481 74020000 		.4byte	0x274
 3820 0485 18       		.byte	0x18
 3821 0486 00       		.byte	0
 3822 0487 03       		.uleb128 0x3
 3823 0488 48060000 		.4byte	.LASF63
 3824 048c 09       		.byte	0x9
 3825 048d 6B       		.byte	0x6b
 3826 048e 36040000 		.4byte	0x436
 3827 0492 05       		.uleb128 0x5
 3828 0493 77020000 		.4byte	.LASF64
 3829 0497 0C       		.byte	0xc
 3830 0498 0A       		.byte	0xa
 3831 0499 2C       		.byte	0x2c
 3832 049a B7040000 		.4byte	0x4b7
 3833 049e 06       		.uleb128 0x6
 3834 049f 3E140000 		.4byte	.LASF65
 3835 04a3 0A       		.byte	0xa
 3836 04a4 2D       		.byte	0x2d
 3837 04a5 7A020000 		.4byte	0x27a
 3838 04a9 00       		.byte	0
 3839 04aa 06       		.uleb128 0x6
 3840 04ab 9D050000 		.4byte	.LASF66
 3841 04af 0A       		.byte	0xa
 3842 04b0 2F       		.byte	0x2f
 3843 04b1 64010000 		.4byte	0x164
ARM GAS  /tmp/ccLdaIGa.s 			page 69


 3844 04b5 08       		.byte	0x8
 3845 04b6 00       		.byte	0
 3846 04b7 03       		.uleb128 0x3
 3847 04b8 77020000 		.4byte	.LASF64
 3848 04bc 0A       		.byte	0xa
 3849 04bd 30       		.byte	0x30
 3850 04be 92040000 		.4byte	0x492
 3851 04c2 05       		.uleb128 0x5
 3852 04c3 CF060000 		.4byte	.LASF67
 3853 04c7 10       		.byte	0x10
 3854 04c8 0B       		.byte	0xb
 3855 04c9 2C       		.byte	0x2c
 3856 04ca F3040000 		.4byte	0x4f3
 3857 04ce 06       		.uleb128 0x6
 3858 04cf 2A0D0000 		.4byte	.LASF68
 3859 04d3 0B       		.byte	0xb
 3860 04d4 2D       		.byte	0x2d
 3861 04d5 7A020000 		.4byte	0x27a
 3862 04d9 00       		.byte	0
 3863 04da 06       		.uleb128 0x6
 3864 04db 570C0000 		.4byte	.LASF69
 3865 04df 0B       		.byte	0xb
 3866 04e0 2F       		.byte	0x2f
 3867 04e1 74020000 		.4byte	0x274
 3868 04e5 08       		.byte	0x8
 3869 04e6 06       		.uleb128 0x6
 3870 04e7 EF000000 		.4byte	.LASF70
 3871 04eb 0B       		.byte	0xb
 3872 04ec 31       		.byte	0x31
 3873 04ed F3040000 		.4byte	0x4f3
 3874 04f1 0C       		.byte	0xc
 3875 04f2 00       		.byte	0
 3876 04f3 09       		.uleb128 0x9
 3877 04f4 04       		.byte	0x4
 3878 04f5 C2040000 		.4byte	0x4c2
 3879 04f9 03       		.uleb128 0x3
 3880 04fa CF060000 		.4byte	.LASF67
 3881 04fe 0B       		.byte	0xb
 3882 04ff 33       		.byte	0x33
 3883 0500 C2040000 		.4byte	0x4c2
 3884 0504 03       		.uleb128 0x3
 3885 0505 E00B0000 		.4byte	.LASF71
 3886 0509 0C       		.byte	0xc
 3887 050a 2C       		.byte	0x2c
 3888 050b 0F050000 		.4byte	0x50f
 3889 050f 05       		.uleb128 0x5
 3890 0510 E00B0000 		.4byte	.LASF71
 3891 0514 10       		.byte	0x10
 3892 0515 0C       		.byte	0xc
 3893 0516 31       		.byte	0x31
 3894 0517 4C050000 		.4byte	0x54c
 3895 051b 06       		.uleb128 0x6
 3896 051c 41010000 		.4byte	.LASF72
 3897 0520 0C       		.byte	0xc
 3898 0521 32       		.byte	0x32
 3899 0522 4C050000 		.4byte	0x54c
 3900 0526 00       		.byte	0
ARM GAS  /tmp/ccLdaIGa.s 			page 70


 3901 0527 06       		.uleb128 0x6
 3902 0528 D6110000 		.4byte	.LASF73
 3903 052c 0C       		.byte	0xc
 3904 052d 35       		.byte	0x35
 3905 052e 74020000 		.4byte	0x274
 3906 0532 04       		.byte	0x4
 3907 0533 06       		.uleb128 0x6
 3908 0534 35020000 		.4byte	.LASF74
 3909 0538 0C       		.byte	0xc
 3910 0539 37       		.byte	0x37
 3911 053a 43010000 		.4byte	0x143
 3912 053e 08       		.byte	0x8
 3913 053f 06       		.uleb128 0x6
 3914 0540 C1130000 		.4byte	.LASF75
 3915 0544 0C       		.byte	0xc
 3916 0545 3A       		.byte	0x3a
 3917 0546 4E010000 		.4byte	0x14e
 3918 054a 0C       		.byte	0xc
 3919 054b 00       		.byte	0
 3920 054c 09       		.uleb128 0x9
 3921 054d 04       		.byte	0x4
 3922 054e 04050000 		.4byte	0x504
 3923 0552 05       		.uleb128 0x5
 3924 0553 A3080000 		.4byte	.LASF76
 3925 0557 04       		.byte	0x4
 3926 0558 0C       		.byte	0xc
 3927 0559 41       		.byte	0x41
 3928 055a 6B050000 		.4byte	0x56b
 3929 055e 06       		.uleb128 0x6
 3930 055f 53130000 		.4byte	.LASF77
 3931 0563 0C       		.byte	0xc
 3932 0564 42       		.byte	0x42
 3933 0565 4C050000 		.4byte	0x54c
 3934 0569 00       		.byte	0
 3935 056a 00       		.byte	0
 3936 056b 03       		.uleb128 0x3
 3937 056c A3080000 		.4byte	.LASF76
 3938 0570 0C       		.byte	0xc
 3939 0571 45       		.byte	0x45
 3940 0572 52050000 		.4byte	0x552
 3941 0576 0E       		.uleb128 0xe
 3942 0577 04       		.byte	0x4
 3943 0578 07       		.byte	0x7
 3944 0579 96       		.byte	0x96
 3945 057a AB050000 		.4byte	0x5ab
 3946 057e 0F       		.uleb128 0xf
 3947 057f 3B090000 		.4byte	.LASF78
 3948 0583 07       		.byte	0x7
 3949 0584 9D       		.byte	0x9d
 3950 0585 38010000 		.4byte	0x138
 3951 0589 0F       		.uleb128 0xf
 3952 058a 60080000 		.4byte	.LASF79
 3953 058e 07       		.byte	0x7
 3954 058f A4       		.byte	0xa4
 3955 0590 38010000 		.4byte	0x138
 3956 0594 0F       		.uleb128 0xf
 3957 0595 90100000 		.4byte	.LASF80
ARM GAS  /tmp/ccLdaIGa.s 			page 71


 3958 0599 07       		.byte	0x7
 3959 059a AB       		.byte	0xab
 3960 059b B0020000 		.4byte	0x2b0
 3961 059f 0F       		.uleb128 0xf
 3962 05a0 AB130000 		.4byte	.LASF81
 3963 05a4 07       		.byte	0x7
 3964 05a5 B2       		.byte	0xb2
 3965 05a6 43010000 		.4byte	0x143
 3966 05aa 00       		.byte	0
 3967 05ab 09       		.uleb128 0x9
 3968 05ac 04       		.byte	0x4
 3969 05ad B1050000 		.4byte	0x5b1
 3970 05b1 10       		.uleb128 0x10
 3971 05b2 B6050000 		.4byte	0x5b6
 3972 05b6 04       		.uleb128 0x4
 3973 05b7 01       		.byte	0x1
 3974 05b8 08       		.byte	0x8
 3975 05b9 9B0E0000 		.4byte	.LASF82
 3976 05bd 09       		.uleb128 0x9
 3977 05be 04       		.byte	0x4
 3978 05bf F9040000 		.4byte	0x4f9
 3979 05c3 03       		.uleb128 0x3
 3980 05c4 39040000 		.4byte	.LASF83
 3981 05c8 07       		.byte	0x7
 3982 05c9 E5       		.byte	0xe5
 3983 05ca CE050000 		.4byte	0x5ce
 3984 05ce 09       		.uleb128 0x9
 3985 05cf 04       		.byte	0x4
 3986 05d0 D4050000 		.4byte	0x5d4
 3987 05d4 11       		.uleb128 0x11
 3988 05d5 38010000 		.4byte	0x138
 3989 05d9 E3050000 		.4byte	0x5e3
 3990 05dd 12       		.uleb128 0x12
 3991 05de B0020000 		.4byte	0x2b0
 3992 05e2 00       		.byte	0
 3993 05e3 03       		.uleb128 0x3
 3994 05e4 BF140000 		.4byte	.LASF84
 3995 05e8 0D       		.byte	0xd
 3996 05e9 37       		.byte	0x37
 3997 05ea EE050000 		.4byte	0x5ee
 3998 05ee 05       		.uleb128 0x5
 3999 05ef BF140000 		.4byte	.LASF84
 4000 05f3 24       		.byte	0x24
 4001 05f4 0D       		.byte	0xd
 4002 05f5 45       		.byte	0x45
 4003 05f6 5B060000 		.4byte	0x65b
 4004 05fa 06       		.uleb128 0x6
 4005 05fb 4B030000 		.4byte	.LASF85
 4006 05ff 0D       		.byte	0xd
 4007 0600 46       		.byte	0x46
 4008 0601 7A020000 		.4byte	0x27a
 4009 0605 00       		.byte	0
 4010 0606 06       		.uleb128 0x6
 4011 0607 43110000 		.4byte	.LASF86
 4012 060b 0D       		.byte	0xd
 4013 060c 47       		.byte	0x47
 4014 060d 2C000000 		.4byte	0x2c
ARM GAS  /tmp/ccLdaIGa.s 			page 72


 4015 0611 08       		.byte	0x8
 4016 0612 06       		.uleb128 0x6
 4017 0613 CE090000 		.4byte	.LASF87
 4018 0617 0D       		.byte	0xd
 4019 0618 48       		.byte	0x48
 4020 0619 7D060000 		.4byte	0x67d
 4021 061d 0C       		.byte	0xc
 4022 061e 06       		.uleb128 0x6
 4023 061f A6020000 		.4byte	.LASF88
 4024 0623 0D       		.byte	0xd
 4025 0624 49       		.byte	0x49
 4026 0625 7D060000 		.4byte	0x67d
 4027 0629 10       		.byte	0x10
 4028 062a 06       		.uleb128 0x6
 4029 062b 55150000 		.4byte	.LASF89
 4030 062f 0D       		.byte	0xd
 4031 0630 4B       		.byte	0x4b
 4032 0631 7D060000 		.4byte	0x67d
 4033 0635 14       		.byte	0x14
 4034 0636 06       		.uleb128 0x6
 4035 0637 990D0000 		.4byte	.LASF90
 4036 063b 0D       		.byte	0xd
 4037 063c 4C       		.byte	0x4c
 4038 063d 7D060000 		.4byte	0x67d
 4039 0641 18       		.byte	0x18
 4040 0642 06       		.uleb128 0x6
 4041 0643 B3100000 		.4byte	.LASF91
 4042 0647 0D       		.byte	0xd
 4043 0648 4D       		.byte	0x4d
 4044 0649 5B060000 		.4byte	0x65b
 4045 064d 1C       		.byte	0x1c
 4046 064e 06       		.uleb128 0x6
 4047 064f CC0E0000 		.4byte	.LASF92
 4048 0653 0D       		.byte	0xd
 4049 0654 4E       		.byte	0x4e
 4050 0655 B0020000 		.4byte	0x2b0
 4051 0659 20       		.byte	0x20
 4052 065a 00       		.byte	0
 4053 065b 03       		.uleb128 0x3
 4054 065c 6D020000 		.4byte	.LASF93
 4055 0660 0D       		.byte	0xd
 4056 0661 3A       		.byte	0x3a
 4057 0662 66060000 		.4byte	0x666
 4058 0666 09       		.uleb128 0x9
 4059 0667 04       		.byte	0x4
 4060 0668 6C060000 		.4byte	0x66c
 4061 066c 13       		.uleb128 0x13
 4062 066d 77060000 		.4byte	0x677
 4063 0671 12       		.uleb128 0x12
 4064 0672 77060000 		.4byte	0x677
 4065 0676 00       		.byte	0
 4066 0677 09       		.uleb128 0x9
 4067 0678 04       		.byte	0x4
 4068 0679 E3050000 		.4byte	0x5e3
 4069 067d 09       		.uleb128 0x9
 4070 067e 04       		.byte	0x4
 4071 067f C3000000 		.4byte	0xc3
ARM GAS  /tmp/ccLdaIGa.s 			page 73


 4072 0683 03       		.uleb128 0x3
 4073 0684 B80C0000 		.4byte	.LASF94
 4074 0688 0D       		.byte	0xd
 4075 0689 82       		.byte	0x82
 4076 068a E3050000 		.4byte	0x5e3
 4077 068e 03       		.uleb128 0x3
 4078 068f F8140000 		.4byte	.LASF95
 4079 0693 0D       		.byte	0xd
 4080 0694 F5       		.byte	0xf5
 4081 0695 E3050000 		.4byte	0x5e3
 4082 0699 05       		.uleb128 0x5
 4083 069a 0E150000 		.4byte	.LASF96
 4084 069e 10       		.byte	0x10
 4085 069f 0E       		.byte	0xe
 4086 06a0 48       		.byte	0x48
 4087 06a1 D6060000 		.4byte	0x6d6
 4088 06a5 06       		.uleb128 0x6
 4089 06a6 A90D0000 		.4byte	.LASF97
 4090 06aa 0E       		.byte	0xe
 4091 06ab 49       		.byte	0x49
 4092 06ac FA060000 		.4byte	0x6fa
 4093 06b0 00       		.byte	0
 4094 06b1 06       		.uleb128 0x6
 4095 06b2 05010000 		.4byte	.LASF98
 4096 06b6 0E       		.byte	0xe
 4097 06b7 49       		.byte	0x49
 4098 06b8 19070000 		.4byte	0x719
 4099 06bc 04       		.byte	0x4
 4100 06bd 07       		.uleb128 0x7
 4101 06be 70757400 		.ascii	"put\000"
 4102 06c2 0E       		.byte	0xe
 4103 06c3 49       		.byte	0x49
 4104 06c4 33070000 		.4byte	0x733
 4105 06c8 08       		.byte	0x8
 4106 06c9 07       		.uleb128 0x7
 4107 06ca 67657400 		.ascii	"get\000"
 4108 06ce 0E       		.byte	0xe
 4109 06cf 49       		.byte	0x49
 4110 06d0 CE050000 		.4byte	0x5ce
 4111 06d4 0C       		.byte	0xc
 4112 06d5 00       		.byte	0
 4113 06d6 11       		.uleb128 0x11
 4114 06d7 2C000000 		.4byte	0x2c
 4115 06db EF060000 		.4byte	0x6ef
 4116 06df 12       		.uleb128 0x12
 4117 06e0 B0020000 		.4byte	0x2b0
 4118 06e4 12       		.uleb128 0x12
 4119 06e5 EF060000 		.4byte	0x6ef
 4120 06e9 12       		.uleb128 0x12
 4121 06ea 2C000000 		.4byte	0x2c
 4122 06ee 00       		.byte	0
 4123 06ef 09       		.uleb128 0x9
 4124 06f0 04       		.byte	0x4
 4125 06f1 F5060000 		.4byte	0x6f5
 4126 06f5 10       		.uleb128 0x10
 4127 06f6 C3000000 		.4byte	0xc3
 4128 06fa 09       		.uleb128 0x9
ARM GAS  /tmp/ccLdaIGa.s 			page 74


 4129 06fb 04       		.byte	0x4
 4130 06fc D6060000 		.4byte	0x6d6
 4131 0700 11       		.uleb128 0x11
 4132 0701 2C000000 		.4byte	0x2c
 4133 0705 19070000 		.4byte	0x719
 4134 0709 12       		.uleb128 0x12
 4135 070a B0020000 		.4byte	0x2b0
 4136 070e 12       		.uleb128 0x12
 4137 070f 7D060000 		.4byte	0x67d
 4138 0713 12       		.uleb128 0x12
 4139 0714 2C000000 		.4byte	0x2c
 4140 0718 00       		.byte	0
 4141 0719 09       		.uleb128 0x9
 4142 071a 04       		.byte	0x4
 4143 071b 00070000 		.4byte	0x700
 4144 071f 11       		.uleb128 0x11
 4145 0720 38010000 		.4byte	0x138
 4146 0724 33070000 		.4byte	0x733
 4147 0728 12       		.uleb128 0x12
 4148 0729 B0020000 		.4byte	0x2b0
 4149 072d 12       		.uleb128 0x12
 4150 072e C3000000 		.4byte	0xc3
 4151 0732 00       		.byte	0
 4152 0733 09       		.uleb128 0x9
 4153 0734 04       		.byte	0x4
 4154 0735 1F070000 		.4byte	0x71f
 4155 0739 08       		.uleb128 0x8
 4156 073a 04       		.byte	0x4
 4157 073b 0E       		.byte	0xe
 4158 073c 51       		.byte	0x51
 4159 073d 4E070000 		.4byte	0x74e
 4160 0741 07       		.uleb128 0x7
 4161 0742 766D7400 		.ascii	"vmt\000"
 4162 0746 0E       		.byte	0xe
 4163 0747 53       		.byte	0x53
 4164 0748 4E070000 		.4byte	0x74e
 4165 074c 00       		.byte	0
 4166 074d 00       		.byte	0
 4167 074e 09       		.uleb128 0x9
 4168 074f 04       		.byte	0x4
 4169 0750 54070000 		.4byte	0x754
 4170 0754 10       		.uleb128 0x10
 4171 0755 99060000 		.4byte	0x699
 4172 0759 03       		.uleb128 0x3
 4173 075a AA010000 		.4byte	.LASF99
 4174 075e 0E       		.byte	0xe
 4175 075f 55       		.byte	0x55
 4176 0760 39070000 		.4byte	0x739
 4177 0764 14       		.uleb128 0x14
 4178 0765 E4000000 		.4byte	0xe4
 4179 0769 74070000 		.4byte	0x774
 4180 076d 15       		.uleb128 0x15
 4181 076e 2F040000 		.4byte	0x42f
 4182 0772 0E       		.byte	0xe
 4183 0773 00       		.byte	0
 4184 0774 0D       		.uleb128 0xd
 4185 0775 D9000000 		.4byte	0xd9
ARM GAS  /tmp/ccLdaIGa.s 			page 75


 4186 0779 14       		.uleb128 0x14
 4187 077a E4000000 		.4byte	0xe4
 4188 077e 89070000 		.4byte	0x789
 4189 0782 15       		.uleb128 0x15
 4190 0783 2F040000 		.4byte	0x42f
 4191 0787 FF       		.byte	0xff
 4192 0788 00       		.byte	0
 4193 0789 14       		.uleb128 0x14
 4194 078a E4000000 		.4byte	0xe4
 4195 078e 99070000 		.4byte	0x799
 4196 0792 15       		.uleb128 0x15
 4197 0793 2F040000 		.4byte	0x42f
 4198 0797 02       		.byte	0x2
 4199 0798 00       		.byte	0
 4200 0799 11       		.uleb128 0x11
 4201 079a 38010000 		.4byte	0x138
 4202 079e B2070000 		.4byte	0x7b2
 4203 07a2 12       		.uleb128 0x12
 4204 07a3 B0020000 		.4byte	0x2b0
 4205 07a7 12       		.uleb128 0x12
 4206 07a8 C3000000 		.4byte	0xc3
 4207 07ac 12       		.uleb128 0x12
 4208 07ad 59010000 		.4byte	0x159
 4209 07b1 00       		.byte	0
 4210 07b2 09       		.uleb128 0x9
 4211 07b3 04       		.byte	0x4
 4212 07b4 99070000 		.4byte	0x799
 4213 07b8 11       		.uleb128 0x11
 4214 07b9 38010000 		.4byte	0x138
 4215 07bd CC070000 		.4byte	0x7cc
 4216 07c1 12       		.uleb128 0x12
 4217 07c2 B0020000 		.4byte	0x2b0
 4218 07c6 12       		.uleb128 0x12
 4219 07c7 59010000 		.4byte	0x159
 4220 07cb 00       		.byte	0
 4221 07cc 09       		.uleb128 0x9
 4222 07cd 04       		.byte	0x4
 4223 07ce B8070000 		.4byte	0x7b8
 4224 07d2 11       		.uleb128 0x11
 4225 07d3 2C000000 		.4byte	0x2c
 4226 07d7 F0070000 		.4byte	0x7f0
 4227 07db 12       		.uleb128 0x12
 4228 07dc B0020000 		.4byte	0x2b0
 4229 07e0 12       		.uleb128 0x12
 4230 07e1 EF060000 		.4byte	0x6ef
 4231 07e5 12       		.uleb128 0x12
 4232 07e6 2C000000 		.4byte	0x2c
 4233 07ea 12       		.uleb128 0x12
 4234 07eb 59010000 		.4byte	0x159
 4235 07ef 00       		.byte	0
 4236 07f0 09       		.uleb128 0x9
 4237 07f1 04       		.byte	0x4
 4238 07f2 D2070000 		.4byte	0x7d2
 4239 07f6 11       		.uleb128 0x11
 4240 07f7 2C000000 		.4byte	0x2c
 4241 07fb 14080000 		.4byte	0x814
 4242 07ff 12       		.uleb128 0x12
ARM GAS  /tmp/ccLdaIGa.s 			page 76


 4243 0800 B0020000 		.4byte	0x2b0
 4244 0804 12       		.uleb128 0x12
 4245 0805 7D060000 		.4byte	0x67d
 4246 0809 12       		.uleb128 0x12
 4247 080a 2C000000 		.4byte	0x2c
 4248 080e 12       		.uleb128 0x12
 4249 080f 59010000 		.4byte	0x159
 4250 0813 00       		.byte	0
 4251 0814 09       		.uleb128 0x9
 4252 0815 04       		.byte	0x4
 4253 0816 F6070000 		.4byte	0x7f6
 4254 081a 03       		.uleb128 0x3
 4255 081b EC090000 		.4byte	.LASF100
 4256 081f 0F       		.byte	0xf
 4257 0820 E9       		.byte	0xe9
 4258 0821 25080000 		.4byte	0x825
 4259 0825 16       		.uleb128 0x16
 4260 0826 EC090000 		.4byte	.LASF100
 4261 082a 3802     		.2byte	0x238
 4262 082c 10       		.byte	0x10
 4263 082d 7701     		.2byte	0x177
 4264 082f 52090000 		.4byte	0x952
 4265 0833 17       		.uleb128 0x17
 4266 0834 8C0C0000 		.4byte	.LASF101
 4267 0838 10       		.byte	0x10
 4268 0839 7B01     		.2byte	0x17b
 4269 083b 84090000 		.4byte	0x984
 4270 083f 00       		.byte	0
 4271 0840 17       		.uleb128 0x17
 4272 0841 6E100000 		.4byte	.LASF102
 4273 0845 10       		.byte	0x10
 4274 0846 7F01     		.2byte	0x17f
 4275 0848 A1120000 		.4byte	0x12a1
 4276 084c 04       		.byte	0x4
 4277 084d 17       		.uleb128 0x17
 4278 084e E3130000 		.4byte	.LASF103
 4279 0852 10       		.byte	0x10
 4280 0853 8301     		.2byte	0x183
 4281 0855 CE000000 		.4byte	0xce
 4282 0859 08       		.byte	0x8
 4283 085a 17       		.uleb128 0x17
 4284 085b 26150000 		.4byte	.LASF104
 4285 085f 10       		.byte	0x10
 4286 0860 8701     		.2byte	0x187
 4287 0862 CE000000 		.4byte	0xce
 4288 0866 0A       		.byte	0xa
 4289 0867 0C       		.uleb128 0xc
 4290 0868 65706300 		.ascii	"epc\000"
 4291 086c 10       		.byte	0x10
 4292 086d 8B01     		.2byte	0x18b
 4293 086f AC120000 		.4byte	0x12ac
 4294 0873 0C       		.byte	0xc
 4295 0874 17       		.uleb128 0x17
 4296 0875 49010000 		.4byte	.LASF105
 4297 0879 10       		.byte	0x10
 4298 087a 9201     		.2byte	0x192
 4299 087c C7120000 		.4byte	0x12c7
ARM GAS  /tmp/ccLdaIGa.s 			page 77


 4300 0880 1C       		.byte	0x1c
 4301 0881 17       		.uleb128 0x17
 4302 0882 FB060000 		.4byte	.LASF106
 4303 0886 10       		.byte	0x10
 4304 0887 9901     		.2byte	0x199
 4305 0889 C7120000 		.4byte	0x12c7
 4306 088d 28       		.byte	0x28
 4307 088e 17       		.uleb128 0x17
 4308 088f 13090000 		.4byte	.LASF107
 4309 0893 10       		.byte	0x10
 4310 0894 9D01     		.2byte	0x19d
 4311 0896 C3090000 		.4byte	0x9c3
 4312 089a 34       		.byte	0x34
 4313 089b 17       		.uleb128 0x17
 4314 089c 23100000 		.4byte	.LASF108
 4315 08a0 10       		.byte	0x10
 4316 08a1 A101     		.2byte	0x1a1
 4317 08a3 7D060000 		.4byte	0x67d
 4318 08a7 38       		.byte	0x38
 4319 08a8 17       		.uleb128 0x17
 4320 08a9 250D0000 		.4byte	.LASF109
 4321 08ad 10       		.byte	0x10
 4322 08ae A501     		.2byte	0x1a5
 4323 08b0 2C000000 		.4byte	0x2c
 4324 08b4 3C       		.byte	0x3c
 4325 08b5 17       		.uleb128 0x17
 4326 08b6 B6020000 		.4byte	.LASF110
 4327 08ba 10       		.byte	0x10
 4328 08bb A901     		.2byte	0x1a9
 4329 08bd 390A0000 		.4byte	0xa39
 4330 08c1 40       		.byte	0x40
 4331 08c2 17       		.uleb128 0x17
 4332 08c3 F3030000 		.4byte	.LASF111
 4333 08c7 10       		.byte	0x10
 4334 08c8 AD01     		.2byte	0x1ad
 4335 08ca D7120000 		.4byte	0x12d7
 4336 08ce 44       		.byte	0x44
 4337 08cf 17       		.uleb128 0x17
 4338 08d0 200C0000 		.4byte	.LASF112
 4339 08d4 10       		.byte	0x10
 4340 08d5 B101     		.2byte	0x1b1
 4341 08d7 CE000000 		.4byte	0xce
 4342 08db 4C       		.byte	0x4c
 4343 08dc 17       		.uleb128 0x17
 4344 08dd 99090000 		.4byte	.LASF113
 4345 08e1 10       		.byte	0x10
 4346 08e2 B501     		.2byte	0x1b5
 4347 08e4 C3000000 		.4byte	0xc3
 4348 08e8 4E       		.byte	0x4e
 4349 08e9 17       		.uleb128 0x17
 4350 08ea 310F0000 		.4byte	.LASF114
 4351 08ee 10       		.byte	0x10
 4352 08ef B901     		.2byte	0x1b9
 4353 08f1 C3000000 		.4byte	0xc3
 4354 08f5 4F       		.byte	0x4f
 4355 08f6 0C       		.uleb128 0xc
 4356 08f7 6F746700 		.ascii	"otg\000"
ARM GAS  /tmp/ccLdaIGa.s 			page 78


 4357 08fb 10       		.byte	0x10
 4358 08fc C101     		.2byte	0x1c1
 4359 08fe E7120000 		.4byte	0x12e7
 4360 0902 50       		.byte	0x50
 4361 0903 17       		.uleb128 0x17
 4362 0904 56080000 		.4byte	.LASF115
 4363 0908 10       		.byte	0x10
 4364 0909 C501     		.2byte	0x1c5
 4365 090b ED120000 		.4byte	0x12ed
 4366 090f 54       		.byte	0x54
 4367 0910 17       		.uleb128 0x17
 4368 0911 0D120000 		.4byte	.LASF116
 4369 0915 10       		.byte	0x10
 4370 0916 C901     		.2byte	0x1c9
 4371 0918 E4000000 		.4byte	0xe4
 4372 091c 58       		.byte	0x58
 4373 091d 17       		.uleb128 0x17
 4374 091e 3C070000 		.4byte	.LASF117
 4375 0922 10       		.byte	0x10
 4376 0923 CD01     		.2byte	0x1cd
 4377 0925 E4000000 		.4byte	0xe4
 4378 0929 5C       		.byte	0x5c
 4379 092a 17       		.uleb128 0x17
 4380 092b 260E0000 		.4byte	.LASF118
 4381 092f 10       		.byte	0x10
 4382 0930 D101     		.2byte	0x1d1
 4383 0932 74020000 		.4byte	0x274
 4384 0936 60       		.byte	0x60
 4385 0937 17       		.uleb128 0x17
 4386 0938 06100000 		.4byte	.LASF119
 4387 093c 10       		.byte	0x10
 4388 093d D501     		.2byte	0x1d5
 4389 093f 74020000 		.4byte	0x274
 4390 0943 64       		.byte	0x64
 4391 0944 17       		.uleb128 0x17
 4392 0945 A30B0000 		.4byte	.LASF120
 4393 0949 10       		.byte	0x10
 4394 094a D901     		.2byte	0x1d9
 4395 094c F8120000 		.4byte	0x12f8
 4396 0950 68       		.byte	0x68
 4397 0951 00       		.byte	0
 4398 0952 03       		.uleb128 0x3
 4399 0953 30150000 		.4byte	.LASF121
 4400 0957 0F       		.byte	0xf
 4401 0958 EE       		.byte	0xee
 4402 0959 C3000000 		.4byte	0xc3
 4403 095d 18       		.uleb128 0x18
 4404 095e 01       		.byte	0x1
 4405 095f 0F       		.byte	0xf
 4406 0960 F3       		.byte	0xf3
 4407 0961 84090000 		.4byte	0x984
 4408 0965 19       		.uleb128 0x19
 4409 0966 B0150000 		.4byte	.LASF122
 4410 096a 00       		.sleb128 0
 4411 096b 19       		.uleb128 0x19
 4412 096c 00000000 		.4byte	.LASF123
 4413 0970 01       		.sleb128 1
ARM GAS  /tmp/ccLdaIGa.s 			page 79


 4414 0971 19       		.uleb128 0x19
 4415 0972 C10A0000 		.4byte	.LASF124
 4416 0976 02       		.sleb128 2
 4417 0977 19       		.uleb128 0x19
 4418 0978 2E0E0000 		.4byte	.LASF125
 4419 097c 03       		.sleb128 3
 4420 097d 19       		.uleb128 0x19
 4421 097e A2040000 		.4byte	.LASF126
 4422 0982 04       		.sleb128 4
 4423 0983 00       		.byte	0
 4424 0984 03       		.uleb128 0x3
 4425 0985 07140000 		.4byte	.LASF127
 4426 0989 0F       		.byte	0xf
 4427 098a F9       		.byte	0xf9
 4428 098b 5D090000 		.4byte	0x95d
 4429 098f 1A       		.uleb128 0x1a
 4430 0990 01       		.byte	0x1
 4431 0991 0F       		.byte	0xf
 4432 0992 0701     		.2byte	0x107
 4433 0994 C3090000 		.4byte	0x9c3
 4434 0998 19       		.uleb128 0x19
 4435 0999 4D110000 		.4byte	.LASF128
 4436 099d 00       		.sleb128 0
 4437 099e 19       		.uleb128 0x19
 4438 099f 08090000 		.4byte	.LASF129
 4439 09a3 01       		.sleb128 1
 4440 09a4 19       		.uleb128 0x19
 4441 09a5 0F100000 		.4byte	.LASF130
 4442 09a9 02       		.sleb128 2
 4443 09aa 19       		.uleb128 0x19
 4444 09ab 970C0000 		.4byte	.LASF131
 4445 09af 03       		.sleb128 3
 4446 09b0 19       		.uleb128 0x19
 4447 09b1 78080000 		.4byte	.LASF132
 4448 09b5 04       		.sleb128 4
 4449 09b6 19       		.uleb128 0x19
 4450 09b7 85090000 		.4byte	.LASF133
 4451 09bb 05       		.sleb128 5
 4452 09bc 19       		.uleb128 0x19
 4453 09bd BF080000 		.4byte	.LASF134
 4454 09c1 06       		.sleb128 6
 4455 09c2 00       		.byte	0
 4456 09c3 1B       		.uleb128 0x1b
 4457 09c4 C0090000 		.4byte	.LASF135
 4458 09c8 0F       		.byte	0xf
 4459 09c9 0F01     		.2byte	0x10f
 4460 09cb 8F090000 		.4byte	0x98f
 4461 09cf 1A       		.uleb128 0x1a
 4462 09d0 01       		.byte	0x1
 4463 09d1 0F       		.byte	0xf
 4464 09d2 1401     		.2byte	0x114
 4465 09d4 FD090000 		.4byte	0x9fd
 4466 09d8 19       		.uleb128 0x19
 4467 09d9 010E0000 		.4byte	.LASF136
 4468 09dd 00       		.sleb128 0
 4469 09de 19       		.uleb128 0x19
 4470 09df 730E0000 		.4byte	.LASF137
ARM GAS  /tmp/ccLdaIGa.s 			page 80


 4471 09e3 01       		.sleb128 1
 4472 09e4 19       		.uleb128 0x19
 4473 09e5 520B0000 		.4byte	.LASF138
 4474 09e9 02       		.sleb128 2
 4475 09ea 19       		.uleb128 0x19
 4476 09eb BD0B0000 		.4byte	.LASF139
 4477 09ef 03       		.sleb128 3
 4478 09f0 19       		.uleb128 0x19
 4479 09f1 DF140000 		.4byte	.LASF140
 4480 09f5 04       		.sleb128 4
 4481 09f6 19       		.uleb128 0x19
 4482 09f7 200B0000 		.4byte	.LASF141
 4483 09fb 05       		.sleb128 5
 4484 09fc 00       		.byte	0
 4485 09fd 1B       		.uleb128 0x1b
 4486 09fe 900E0000 		.4byte	.LASF142
 4487 0a02 0F       		.byte	0xf
 4488 0a03 1B01     		.2byte	0x11b
 4489 0a05 CF090000 		.4byte	0x9cf
 4490 0a09 1C       		.uleb128 0x1c
 4491 0a0a 08       		.byte	0x8
 4492 0a0b 0F       		.byte	0xf
 4493 0a0c 2001     		.2byte	0x120
 4494 0a0e 2D0A0000 		.4byte	0xa2d
 4495 0a12 17       		.uleb128 0x17
 4496 0a13 6E160000 		.4byte	.LASF143
 4497 0a17 0F       		.byte	0xf
 4498 0a18 2401     		.2byte	0x124
 4499 0a1a 2C000000 		.4byte	0x2c
 4500 0a1e 00       		.byte	0
 4501 0a1f 17       		.uleb128 0x17
 4502 0a20 AC020000 		.4byte	.LASF144
 4503 0a24 0F       		.byte	0xf
 4504 0a25 2801     		.2byte	0x128
 4505 0a27 EF060000 		.4byte	0x6ef
 4506 0a2b 04       		.byte	0x4
 4507 0a2c 00       		.byte	0
 4508 0a2d 1B       		.uleb128 0x1b
 4509 0a2e 270C0000 		.4byte	.LASF145
 4510 0a32 0F       		.byte	0xf
 4511 0a33 2901     		.2byte	0x129
 4512 0a35 090A0000 		.4byte	0xa09
 4513 0a39 1B       		.uleb128 0x1b
 4514 0a3a 1F160000 		.4byte	.LASF146
 4515 0a3e 0F       		.byte	0xf
 4516 0a3f 3101     		.2byte	0x131
 4517 0a41 450A0000 		.4byte	0xa45
 4518 0a45 09       		.uleb128 0x9
 4519 0a46 04       		.byte	0x4
 4520 0a47 4B0A0000 		.4byte	0xa4b
 4521 0a4b 13       		.uleb128 0x13
 4522 0a4c 560A0000 		.4byte	0xa56
 4523 0a50 12       		.uleb128 0x12
 4524 0a51 560A0000 		.4byte	0xa56
 4525 0a55 00       		.byte	0
 4526 0a56 09       		.uleb128 0x9
 4527 0a57 04       		.byte	0x4
ARM GAS  /tmp/ccLdaIGa.s 			page 81


 4528 0a58 1A080000 		.4byte	0x81a
 4529 0a5c 1B       		.uleb128 0x1b
 4530 0a5d F5020000 		.4byte	.LASF147
 4531 0a61 0F       		.byte	0xf
 4532 0a62 3A01     		.2byte	0x13a
 4533 0a64 680A0000 		.4byte	0xa68
 4534 0a68 09       		.uleb128 0x9
 4535 0a69 04       		.byte	0x4
 4536 0a6a 6E0A0000 		.4byte	0xa6e
 4537 0a6e 13       		.uleb128 0x13
 4538 0a6f 7E0A0000 		.4byte	0xa7e
 4539 0a73 12       		.uleb128 0x12
 4540 0a74 560A0000 		.4byte	0xa56
 4541 0a78 12       		.uleb128 0x12
 4542 0a79 52090000 		.4byte	0x952
 4543 0a7d 00       		.byte	0
 4544 0a7e 1B       		.uleb128 0x1b
 4545 0a7f 58060000 		.4byte	.LASF148
 4546 0a83 0F       		.byte	0xf
 4547 0a84 4301     		.2byte	0x143
 4548 0a86 8A0A0000 		.4byte	0xa8a
 4549 0a8a 09       		.uleb128 0x9
 4550 0a8b 04       		.byte	0x4
 4551 0a8c 900A0000 		.4byte	0xa90
 4552 0a90 13       		.uleb128 0x13
 4553 0a91 A00A0000 		.4byte	0xaa0
 4554 0a95 12       		.uleb128 0x12
 4555 0a96 560A0000 		.4byte	0xa56
 4556 0a9a 12       		.uleb128 0x12
 4557 0a9b FD090000 		.4byte	0x9fd
 4558 0a9f 00       		.byte	0
 4559 0aa0 1B       		.uleb128 0x1b
 4560 0aa1 CD0D0000 		.4byte	.LASF149
 4561 0aa5 0F       		.byte	0xf
 4562 0aa6 4F01     		.2byte	0x14f
 4563 0aa8 AC0A0000 		.4byte	0xaac
 4564 0aac 09       		.uleb128 0x9
 4565 0aad 04       		.byte	0x4
 4566 0aae B20A0000 		.4byte	0xab2
 4567 0ab2 11       		.uleb128 0x11
 4568 0ab3 FA000000 		.4byte	0xfa
 4569 0ab7 C10A0000 		.4byte	0xac1
 4570 0abb 12       		.uleb128 0x12
 4571 0abc 560A0000 		.4byte	0xa56
 4572 0ac0 00       		.byte	0
 4573 0ac1 1B       		.uleb128 0x1b
 4574 0ac2 83040000 		.4byte	.LASF150
 4575 0ac6 0F       		.byte	0xf
 4576 0ac7 5401     		.2byte	0x154
 4577 0ac9 CD0A0000 		.4byte	0xacd
 4578 0acd 09       		.uleb128 0x9
 4579 0ace 04       		.byte	0x4
 4580 0acf D30A0000 		.4byte	0xad3
 4581 0ad3 11       		.uleb128 0x11
 4582 0ad4 F10A0000 		.4byte	0xaf1
 4583 0ad8 F10A0000 		.4byte	0xaf1
 4584 0adc 12       		.uleb128 0x12
ARM GAS  /tmp/ccLdaIGa.s 			page 82


 4585 0add 560A0000 		.4byte	0xa56
 4586 0ae1 12       		.uleb128 0x12
 4587 0ae2 C3000000 		.4byte	0xc3
 4588 0ae6 12       		.uleb128 0x12
 4589 0ae7 C3000000 		.4byte	0xc3
 4590 0aeb 12       		.uleb128 0x12
 4591 0aec CE000000 		.4byte	0xce
 4592 0af0 00       		.byte	0
 4593 0af1 09       		.uleb128 0x9
 4594 0af2 04       		.byte	0x4
 4595 0af3 F70A0000 		.4byte	0xaf7
 4596 0af7 10       		.uleb128 0x10
 4597 0af8 2D0A0000 		.4byte	0xa2d
 4598 0afc 08       		.uleb128 0x8
 4599 0afd 20       		.byte	0x20
 4600 0afe 11       		.byte	0x11
 4601 0aff 35       		.byte	0x35
 4602 0b00 650B0000 		.4byte	0xb65
 4603 0b04 06       		.uleb128 0x6
 4604 0b05 26020000 		.4byte	.LASF151
 4605 0b09 11       		.byte	0x11
 4606 0b0a 36       		.byte	0x36
 4607 0b0b 2A040000 		.4byte	0x42a
 4608 0b0f 00       		.byte	0
 4609 0b10 06       		.uleb128 0x6
 4610 0b11 E5090000 		.4byte	.LASF152
 4611 0b15 11       		.byte	0x11
 4612 0b16 38       		.byte	0x38
 4613 0b17 2A040000 		.4byte	0x42a
 4614 0b1b 04       		.byte	0x4
 4615 0b1c 06       		.uleb128 0x6
 4616 0b1d 8D010000 		.4byte	.LASF153
 4617 0b21 11       		.byte	0x11
 4618 0b22 39       		.byte	0x39
 4619 0b23 2A040000 		.4byte	0x42a
 4620 0b27 08       		.byte	0x8
 4621 0b28 06       		.uleb128 0x6
 4622 0b29 65100000 		.4byte	.LASF154
 4623 0b2d 11       		.byte	0x11
 4624 0b2e 3A       		.byte	0x3a
 4625 0b2f 2A040000 		.4byte	0x42a
 4626 0b33 0C       		.byte	0xc
 4627 0b34 06       		.uleb128 0x6
 4628 0b35 4B0B0000 		.4byte	.LASF155
 4629 0b39 11       		.byte	0x11
 4630 0b3a 3C       		.byte	0x3c
 4631 0b3b 2A040000 		.4byte	0x42a
 4632 0b3f 10       		.byte	0x10
 4633 0b40 06       		.uleb128 0x6
 4634 0b41 B6070000 		.4byte	.LASF156
 4635 0b45 11       		.byte	0x11
 4636 0b46 3E       		.byte	0x3e
 4637 0b47 2A040000 		.4byte	0x42a
 4638 0b4b 14       		.byte	0x14
 4639 0b4c 06       		.uleb128 0x6
 4640 0b4d BE070000 		.4byte	.LASF157
 4641 0b51 11       		.byte	0x11
ARM GAS  /tmp/ccLdaIGa.s 			page 83


 4642 0b52 3F       		.byte	0x3f
 4643 0b53 2A040000 		.4byte	0x42a
 4644 0b57 18       		.byte	0x18
 4645 0b58 06       		.uleb128 0x6
 4646 0b59 2D020000 		.4byte	.LASF158
 4647 0b5d 11       		.byte	0x11
 4648 0b5e 40       		.byte	0x40
 4649 0b5f 2A040000 		.4byte	0x42a
 4650 0b63 1C       		.byte	0x1c
 4651 0b64 00       		.byte	0
 4652 0b65 03       		.uleb128 0x3
 4653 0b66 2B100000 		.4byte	.LASF159
 4654 0b6a 11       		.byte	0x11
 4655 0b6b 41       		.byte	0x41
 4656 0b6c FC0A0000 		.4byte	0xafc
 4657 0b70 08       		.uleb128 0x8
 4658 0b71 20       		.byte	0x20
 4659 0b72 11       		.byte	0x11
 4660 0b73 46       		.byte	0x46
 4661 0b74 D90B0000 		.4byte	0xbd9
 4662 0b78 06       		.uleb128 0x6
 4663 0b79 4E080000 		.4byte	.LASF160
 4664 0b7d 11       		.byte	0x11
 4665 0b7e 47       		.byte	0x47
 4666 0b7f 2A040000 		.4byte	0x42a
 4667 0b83 00       		.byte	0
 4668 0b84 06       		.uleb128 0x6
 4669 0b85 DE090000 		.4byte	.LASF161
 4670 0b89 11       		.byte	0x11
 4671 0b8a 49       		.byte	0x49
 4672 0b8b 2A040000 		.4byte	0x42a
 4673 0b8f 04       		.byte	0x4
 4674 0b90 06       		.uleb128 0x6
 4675 0b91 5B130000 		.4byte	.LASF162
 4676 0b95 11       		.byte	0x11
 4677 0b96 4A       		.byte	0x4a
 4678 0b97 2A040000 		.4byte	0x42a
 4679 0b9b 08       		.byte	0x8
 4680 0b9c 06       		.uleb128 0x6
 4681 0b9d 090A0000 		.4byte	.LASF163
 4682 0ba1 11       		.byte	0x11
 4683 0ba2 4C       		.byte	0x4c
 4684 0ba3 2A040000 		.4byte	0x42a
 4685 0ba7 0C       		.byte	0xc
 4686 0ba8 06       		.uleb128 0x6
 4687 0ba9 EB0C0000 		.4byte	.LASF164
 4688 0bad 11       		.byte	0x11
 4689 0bae 4D       		.byte	0x4d
 4690 0baf 2A040000 		.4byte	0x42a
 4691 0bb3 10       		.byte	0x10
 4692 0bb4 06       		.uleb128 0x6
 4693 0bb5 B6070000 		.4byte	.LASF156
 4694 0bb9 11       		.byte	0x11
 4695 0bba 4F       		.byte	0x4f
 4696 0bbb 2A040000 		.4byte	0x42a
 4697 0bbf 14       		.byte	0x14
 4698 0bc0 06       		.uleb128 0x6
ARM GAS  /tmp/ccLdaIGa.s 			page 84


 4699 0bc1 F9030000 		.4byte	.LASF165
 4700 0bc5 11       		.byte	0x11
 4701 0bc6 50       		.byte	0x50
 4702 0bc7 2A040000 		.4byte	0x42a
 4703 0bcb 18       		.byte	0x18
 4704 0bcc 06       		.uleb128 0x6
 4705 0bcd 0C080000 		.4byte	.LASF166
 4706 0bd1 11       		.byte	0x11
 4707 0bd2 52       		.byte	0x52
 4708 0bd3 2A040000 		.4byte	0x42a
 4709 0bd7 1C       		.byte	0x1c
 4710 0bd8 00       		.byte	0
 4711 0bd9 03       		.uleb128 0x3
 4712 0bda AD040000 		.4byte	.LASF167
 4713 0bde 11       		.byte	0x11
 4714 0bdf 53       		.byte	0x53
 4715 0be0 700B0000 		.4byte	0xb70
 4716 0be4 08       		.uleb128 0x8
 4717 0be5 20       		.byte	0x20
 4718 0be6 11       		.byte	0x11
 4719 0be7 58       		.byte	0x58
 4720 0be8 4D0C0000 		.4byte	0xc4d
 4721 0bec 06       		.uleb128 0x6
 4722 0bed 05030000 		.4byte	.LASF168
 4723 0bf1 11       		.byte	0x11
 4724 0bf2 59       		.byte	0x59
 4725 0bf3 2A040000 		.4byte	0x42a
 4726 0bf7 00       		.byte	0
 4727 0bf8 06       		.uleb128 0x6
 4728 0bf9 DE090000 		.4byte	.LASF161
 4729 0bfd 11       		.byte	0x11
 4730 0bfe 5B       		.byte	0x5b
 4731 0bff 2A040000 		.4byte	0x42a
 4732 0c03 04       		.byte	0x4
 4733 0c04 06       		.uleb128 0x6
 4734 0c05 BC0D0000 		.4byte	.LASF169
 4735 0c09 11       		.byte	0x11
 4736 0c0a 5C       		.byte	0x5c
 4737 0c0b 2A040000 		.4byte	0x42a
 4738 0c0f 08       		.byte	0x8
 4739 0c10 06       		.uleb128 0x6
 4740 0c11 090A0000 		.4byte	.LASF163
 4741 0c15 11       		.byte	0x11
 4742 0c16 5E       		.byte	0x5e
 4743 0c17 2A040000 		.4byte	0x42a
 4744 0c1b 0C       		.byte	0xc
 4745 0c1c 06       		.uleb128 0x6
 4746 0c1d 12140000 		.4byte	.LASF170
 4747 0c21 11       		.byte	0x11
 4748 0c22 5F       		.byte	0x5f
 4749 0c23 2A040000 		.4byte	0x42a
 4750 0c27 10       		.byte	0x10
 4751 0c28 06       		.uleb128 0x6
 4752 0c29 B6070000 		.4byte	.LASF156
 4753 0c2d 11       		.byte	0x11
 4754 0c2e 61       		.byte	0x61
 4755 0c2f 2A040000 		.4byte	0x42a
ARM GAS  /tmp/ccLdaIGa.s 			page 85


 4756 0c33 14       		.byte	0x14
 4757 0c34 06       		.uleb128 0x6
 4758 0c35 BE070000 		.4byte	.LASF157
 4759 0c39 11       		.byte	0x11
 4760 0c3a 62       		.byte	0x62
 4761 0c3b 2A040000 		.4byte	0x42a
 4762 0c3f 18       		.byte	0x18
 4763 0c40 06       		.uleb128 0x6
 4764 0c41 0C080000 		.4byte	.LASF166
 4765 0c45 11       		.byte	0x11
 4766 0c46 63       		.byte	0x63
 4767 0c47 2A040000 		.4byte	0x42a
 4768 0c4b 1C       		.byte	0x1c
 4769 0c4c 00       		.byte	0
 4770 0c4d 03       		.uleb128 0x3
 4771 0c4e FC0C0000 		.4byte	.LASF171
 4772 0c52 11       		.byte	0x11
 4773 0c53 64       		.byte	0x64
 4774 0c54 E40B0000 		.4byte	0xbe4
 4775 0c58 1D       		.uleb128 0x1d
 4776 0c59 00100100 		.4byte	0x11000
 4777 0c5d 11       		.byte	0x11
 4778 0c5e 69       		.byte	0x69
 4779 0c5f 350F0000 		.4byte	0xf35
 4780 0c63 06       		.uleb128 0x6
 4781 0c64 E4020000 		.4byte	.LASF172
 4782 0c68 11       		.byte	0x11
 4783 0c69 6A       		.byte	0x6a
 4784 0c6a 2A040000 		.4byte	0x42a
 4785 0c6e 00       		.byte	0
 4786 0c6f 06       		.uleb128 0x6
 4787 0c70 E3060000 		.4byte	.LASF173
 4788 0c74 11       		.byte	0x11
 4789 0c75 6B       		.byte	0x6b
 4790 0c76 2A040000 		.4byte	0x42a
 4791 0c7a 04       		.byte	0x4
 4792 0c7b 06       		.uleb128 0x6
 4793 0c7c 01040000 		.4byte	.LASF174
 4794 0c80 11       		.byte	0x11
 4795 0c81 6C       		.byte	0x6c
 4796 0c82 2A040000 		.4byte	0x42a
 4797 0c86 08       		.byte	0x8
 4798 0c87 06       		.uleb128 0x6
 4799 0c88 41160000 		.4byte	.LASF175
 4800 0c8c 11       		.byte	0x11
 4801 0c8d 6D       		.byte	0x6d
 4802 0c8e 2A040000 		.4byte	0x42a
 4803 0c92 0C       		.byte	0xc
 4804 0c93 06       		.uleb128 0x6
 4805 0c94 D10A0000 		.4byte	.LASF176
 4806 0c98 11       		.byte	0x11
 4807 0c99 6E       		.byte	0x6e
 4808 0c9a 2A040000 		.4byte	0x42a
 4809 0c9e 10       		.byte	0x10
 4810 0c9f 06       		.uleb128 0x6
 4811 0ca0 B0060000 		.4byte	.LASF177
 4812 0ca4 11       		.byte	0x11
ARM GAS  /tmp/ccLdaIGa.s 			page 86


 4813 0ca5 6F       		.byte	0x6f
 4814 0ca6 2A040000 		.4byte	0x42a
 4815 0caa 14       		.byte	0x14
 4816 0cab 06       		.uleb128 0x6
 4817 0cac 0F0F0000 		.4byte	.LASF178
 4818 0cb0 11       		.byte	0x11
 4819 0cb1 70       		.byte	0x70
 4820 0cb2 2A040000 		.4byte	0x42a
 4821 0cb6 18       		.byte	0x18
 4822 0cb7 06       		.uleb128 0x6
 4823 0cb8 76040000 		.4byte	.LASF179
 4824 0cbc 11       		.byte	0x11
 4825 0cbd 71       		.byte	0x71
 4826 0cbe 2A040000 		.4byte	0x42a
 4827 0cc2 1C       		.byte	0x1c
 4828 0cc3 06       		.uleb128 0x6
 4829 0cc4 6E040000 		.4byte	.LASF180
 4830 0cc8 11       		.byte	0x11
 4831 0cc9 73       		.byte	0x73
 4832 0cca 2A040000 		.4byte	0x42a
 4833 0cce 20       		.byte	0x20
 4834 0ccf 06       		.uleb128 0x6
 4835 0cd0 B30E0000 		.4byte	.LASF181
 4836 0cd4 11       		.byte	0x11
 4837 0cd5 75       		.byte	0x75
 4838 0cd6 2A040000 		.4byte	0x42a
 4839 0cda 24       		.byte	0x24
 4840 0cdb 06       		.uleb128 0x6
 4841 0cdc 6D000000 		.4byte	.LASF182
 4842 0ce0 11       		.byte	0x11
 4843 0ce1 76       		.byte	0x76
 4844 0ce2 2A040000 		.4byte	0x42a
 4845 0ce6 28       		.byte	0x28
 4846 0ce7 06       		.uleb128 0x6
 4847 0ce8 280F0000 		.4byte	.LASF183
 4848 0cec 11       		.byte	0x11
 4849 0ced 78       		.byte	0x78
 4850 0cee 2A040000 		.4byte	0x42a
 4851 0cf2 2C       		.byte	0x2c
 4852 0cf3 06       		.uleb128 0x6
 4853 0cf4 AF080000 		.4byte	.LASF184
 4854 0cf8 11       		.byte	0x11
 4855 0cf9 7A       		.byte	0x7a
 4856 0cfa 2A040000 		.4byte	0x42a
 4857 0cfe 30       		.byte	0x30
 4858 0cff 06       		.uleb128 0x6
 4859 0d00 B7080000 		.4byte	.LASF185
 4860 0d04 11       		.byte	0x11
 4861 0d05 7B       		.byte	0x7b
 4862 0d06 2A040000 		.4byte	0x42a
 4863 0d0a 34       		.byte	0x34
 4864 0d0b 06       		.uleb128 0x6
 4865 0d0c 0A010000 		.4byte	.LASF186
 4866 0d10 11       		.byte	0x11
 4867 0d11 7C       		.byte	0x7c
 4868 0d12 2A040000 		.4byte	0x42a
 4869 0d16 38       		.byte	0x38
ARM GAS  /tmp/ccLdaIGa.s 			page 87


 4870 0d17 07       		.uleb128 0x7
 4871 0d18 43494400 		.ascii	"CID\000"
 4872 0d1c 11       		.byte	0x11
 4873 0d1d 7D       		.byte	0x7d
 4874 0d1e 2A040000 		.4byte	0x42a
 4875 0d22 3C       		.byte	0x3c
 4876 0d23 06       		.uleb128 0x6
 4877 0d24 52090000 		.4byte	.LASF187
 4878 0d28 11       		.byte	0x11
 4879 0d29 7E       		.byte	0x7e
 4880 0d2a 450F0000 		.4byte	0xf45
 4881 0d2e 40       		.byte	0x40
 4882 0d2f 1E       		.uleb128 0x1e
 4883 0d30 6B140000 		.4byte	.LASF188
 4884 0d34 11       		.byte	0x11
 4885 0d35 7F       		.byte	0x7f
 4886 0d36 2A040000 		.4byte	0x42a
 4887 0d3a 0001     		.2byte	0x100
 4888 0d3c 1E       		.uleb128 0x1e
 4889 0d3d 39010000 		.4byte	.LASF189
 4890 0d41 11       		.byte	0x11
 4891 0d42 81       		.byte	0x81
 4892 0d43 4A0F0000 		.4byte	0xf4a
 4893 0d47 0401     		.2byte	0x104
 4894 0d49 1E       		.uleb128 0x1e
 4895 0d4a AB0B0000 		.4byte	.LASF190
 4896 0d4e 11       		.byte	0x11
 4897 0d4f 83       		.byte	0x83
 4898 0d50 5F0F0000 		.4byte	0xf5f
 4899 0d54 4001     		.2byte	0x140
 4900 0d56 1E       		.uleb128 0x1e
 4901 0d57 750D0000 		.4byte	.LASF191
 4902 0d5b 11       		.byte	0x11
 4903 0d5c 84       		.byte	0x84
 4904 0d5d 2A040000 		.4byte	0x42a
 4905 0d61 0004     		.2byte	0x400
 4906 0d63 1E       		.uleb128 0x1e
 4907 0d64 AB150000 		.4byte	.LASF192
 4908 0d68 11       		.byte	0x11
 4909 0d69 85       		.byte	0x85
 4910 0d6a 2A040000 		.4byte	0x42a
 4911 0d6e 0404     		.2byte	0x404
 4912 0d70 1E       		.uleb128 0x1e
 4913 0d71 53020000 		.4byte	.LASF193
 4914 0d75 11       		.byte	0x11
 4915 0d76 86       		.byte	0x86
 4916 0d77 2A040000 		.4byte	0x42a
 4917 0d7b 0804     		.2byte	0x408
 4918 0d7d 1E       		.uleb128 0x1e
 4919 0d7e 87100000 		.4byte	.LASF194
 4920 0d82 11       		.byte	0x11
 4921 0d83 88       		.byte	0x88
 4922 0d84 2A040000 		.4byte	0x42a
 4923 0d88 0C04     		.2byte	0x40c
 4924 0d8a 1E       		.uleb128 0x1e
 4925 0d8b CD010000 		.4byte	.LASF195
 4926 0d8f 11       		.byte	0x11
ARM GAS  /tmp/ccLdaIGa.s 			page 88


 4927 0d90 89       		.byte	0x89
 4928 0d91 2A040000 		.4byte	0x42a
 4929 0d95 1004     		.2byte	0x410
 4930 0d97 1E       		.uleb128 0x1e
 4931 0d98 43020000 		.4byte	.LASF196
 4932 0d9c 11       		.byte	0x11
 4933 0d9d 8B       		.byte	0x8b
 4934 0d9e 2A040000 		.4byte	0x42a
 4935 0da2 1404     		.2byte	0x414
 4936 0da4 1E       		.uleb128 0x1e
 4937 0da5 F2060000 		.4byte	.LASF197
 4938 0da9 11       		.byte	0x11
 4939 0daa 8D       		.byte	0x8d
 4940 0dab 2A040000 		.4byte	0x42a
 4941 0daf 1804     		.2byte	0x418
 4942 0db1 1E       		.uleb128 0x1e
 4943 0db2 DF100000 		.4byte	.LASF198
 4944 0db6 11       		.byte	0x11
 4945 0db7 8F       		.byte	0x8f
 4946 0db8 740F0000 		.4byte	0xf74
 4947 0dbc 1C04     		.2byte	0x41c
 4948 0dbe 1E       		.uleb128 0x1e
 4949 0dbf 88010000 		.4byte	.LASF199
 4950 0dc3 11       		.byte	0x11
 4951 0dc4 90       		.byte	0x90
 4952 0dc5 2A040000 		.4byte	0x42a
 4953 0dc9 4004     		.2byte	0x440
 4954 0dcb 1E       		.uleb128 0x1e
 4955 0dcc CD110000 		.4byte	.LASF200
 4956 0dd0 11       		.byte	0x11
 4957 0dd1 92       		.byte	0x92
 4958 0dd2 890F0000 		.4byte	0xf89
 4959 0dd6 4404     		.2byte	0x444
 4960 0dd8 1F       		.uleb128 0x1f
 4961 0dd9 686300   		.ascii	"hc\000"
 4962 0ddc 11       		.byte	0x11
 4963 0ddd 93       		.byte	0x93
 4964 0dde 8E0F0000 		.4byte	0xf8e
 4965 0de2 0005     		.2byte	0x500
 4966 0de4 1E       		.uleb128 0x1e
 4967 0de5 C2000000 		.4byte	.LASF201
 4968 0de9 11       		.byte	0x11
 4969 0dea 94       		.byte	0x94
 4970 0deb AE0F0000 		.4byte	0xfae
 4971 0def 0007     		.2byte	0x700
 4972 0df1 1E       		.uleb128 0x1e
 4973 0df2 F90E0000 		.4byte	.LASF202
 4974 0df6 11       		.byte	0x11
 4975 0df7 95       		.byte	0x95
 4976 0df8 2A040000 		.4byte	0x42a
 4977 0dfc 0008     		.2byte	0x800
 4978 0dfe 1E       		.uleb128 0x1e
 4979 0dff CC140000 		.4byte	.LASF203
 4980 0e03 11       		.byte	0x11
 4981 0e04 96       		.byte	0x96
 4982 0e05 2A040000 		.4byte	0x42a
 4983 0e09 0408     		.2byte	0x804
ARM GAS  /tmp/ccLdaIGa.s 			page 89


 4984 0e0b 1E       		.uleb128 0x1e
 4985 0e0c 670A0000 		.4byte	.LASF204
 4986 0e10 11       		.byte	0x11
 4987 0e11 97       		.byte	0x97
 4988 0e12 2A040000 		.4byte	0x42a
 4989 0e16 0808     		.2byte	0x808
 4990 0e18 1E       		.uleb128 0x1e
 4991 0e19 BF020000 		.4byte	.LASF205
 4992 0e1d 11       		.byte	0x11
 4993 0e1e 98       		.byte	0x98
 4994 0e1f 2A040000 		.4byte	0x42a
 4995 0e23 0C08     		.2byte	0x80c
 4996 0e25 1E       		.uleb128 0x1e
 4997 0e26 DB060000 		.4byte	.LASF206
 4998 0e2a 11       		.byte	0x11
 4999 0e2b 99       		.byte	0x99
 5000 0e2c 2A040000 		.4byte	0x42a
 5001 0e30 1008     		.2byte	0x810
 5002 0e32 1E       		.uleb128 0x1e
 5003 0e33 0C020000 		.4byte	.LASF207
 5004 0e37 11       		.byte	0x11
 5005 0e38 9B       		.byte	0x9b
 5006 0e39 2A040000 		.4byte	0x42a
 5007 0e3d 1408     		.2byte	0x814
 5008 0e3f 1E       		.uleb128 0x1e
 5009 0e40 DD130000 		.4byte	.LASF208
 5010 0e44 11       		.byte	0x11
 5011 0e45 9D       		.byte	0x9d
 5012 0e46 2A040000 		.4byte	0x42a
 5013 0e4a 1808     		.2byte	0x818
 5014 0e4c 1E       		.uleb128 0x1e
 5015 0e4d 3A110000 		.4byte	.LASF209
 5016 0e51 11       		.byte	0x11
 5017 0e52 9F       		.byte	0x9f
 5018 0e53 2A040000 		.4byte	0x42a
 5019 0e57 1C08     		.2byte	0x81c
 5020 0e59 1E       		.uleb128 0x1e
 5021 0e5a 7E030000 		.4byte	.LASF210
 5022 0e5e 11       		.byte	0x11
 5023 0e5f A1       		.byte	0xa1
 5024 0e60 2A040000 		.4byte	0x42a
 5025 0e64 2008     		.2byte	0x820
 5026 0e66 1E       		.uleb128 0x1e
 5027 0e67 2A030000 		.4byte	.LASF211
 5028 0e6b 11       		.byte	0x11
 5029 0e6c A2       		.byte	0xa2
 5030 0e6d 2A040000 		.4byte	0x42a
 5031 0e71 2408     		.2byte	0x824
 5032 0e73 1E       		.uleb128 0x1e
 5033 0e74 CB000000 		.4byte	.LASF212
 5034 0e78 11       		.byte	0x11
 5035 0e79 A3       		.byte	0xa3
 5036 0e7a 2A040000 		.4byte	0x42a
 5037 0e7e 2808     		.2byte	0x828
 5038 0e80 1E       		.uleb128 0x1e
 5039 0e81 E8030000 		.4byte	.LASF213
 5040 0e85 11       		.byte	0x11
ARM GAS  /tmp/ccLdaIGa.s 			page 90


 5041 0e86 A5       		.byte	0xa5
 5042 0e87 2A040000 		.4byte	0x42a
 5043 0e8b 2C08     		.2byte	0x82c
 5044 0e8d 1E       		.uleb128 0x1e
 5045 0e8e CD030000 		.4byte	.LASF214
 5046 0e92 11       		.byte	0x11
 5047 0e93 A7       		.byte	0xa7
 5048 0e94 2A040000 		.4byte	0x42a
 5049 0e98 3008     		.2byte	0x830
 5050 0e9a 1E       		.uleb128 0x1e
 5051 0e9b 33080000 		.4byte	.LASF215
 5052 0e9f 11       		.byte	0x11
 5053 0ea0 A8       		.byte	0xa8
 5054 0ea1 2A040000 		.4byte	0x42a
 5055 0ea5 3408     		.2byte	0x834
 5056 0ea7 1E       		.uleb128 0x1e
 5057 0ea8 D6030000 		.4byte	.LASF216
 5058 0eac 11       		.byte	0x11
 5059 0ead AA       		.byte	0xaa
 5060 0eae 2A040000 		.4byte	0x42a
 5061 0eb2 3808     		.2byte	0x838
 5062 0eb4 1E       		.uleb128 0x1e
 5063 0eb5 DF030000 		.4byte	.LASF217
 5064 0eb9 11       		.byte	0x11
 5065 0eba AB       		.byte	0xab
 5066 0ebb 2A040000 		.4byte	0x42a
 5067 0ebf 3C08     		.2byte	0x83c
 5068 0ec1 1E       		.uleb128 0x1e
 5069 0ec2 30040000 		.4byte	.LASF218
 5070 0ec6 11       		.byte	0x11
 5071 0ec7 AC       		.byte	0xac
 5072 0ec8 C30F0000 		.4byte	0xfc3
 5073 0ecc 4008     		.2byte	0x840
 5074 0ece 1E       		.uleb128 0x1e
 5075 0ecf 6E070000 		.4byte	.LASF219
 5076 0ed3 11       		.byte	0x11
 5077 0ed4 AD       		.byte	0xad
 5078 0ed5 C80F0000 		.4byte	0xfc8
 5079 0ed9 8008     		.2byte	0x880
 5080 0edb 1E       		.uleb128 0x1e
 5081 0edc F6090000 		.4byte	.LASF220
 5082 0ee0 11       		.byte	0x11
 5083 0ee1 AE       		.byte	0xae
 5084 0ee2 CD0F0000 		.4byte	0xfcd
 5085 0ee6 C008     		.2byte	0x8c0
 5086 0ee8 1F       		.uleb128 0x1f
 5087 0ee9 696500   		.ascii	"ie\000"
 5088 0eec 11       		.byte	0x11
 5089 0eed AF       		.byte	0xaf
 5090 0eee D20F0000 		.4byte	0xfd2
 5091 0ef2 0009     		.2byte	0x900
 5092 0ef4 1F       		.uleb128 0x1f
 5093 0ef5 6F6500   		.ascii	"oe\000"
 5094 0ef8 11       		.byte	0x11
 5095 0ef9 B0       		.byte	0xb0
 5096 0efa E20F0000 		.4byte	0xfe2
 5097 0efe 000B     		.2byte	0xb00
ARM GAS  /tmp/ccLdaIGa.s 			page 91


 5098 0f00 1E       		.uleb128 0x1e
 5099 0f01 A1060000 		.4byte	.LASF221
 5100 0f05 11       		.byte	0x11
 5101 0f06 B1       		.byte	0xb1
 5102 0f07 F20F0000 		.4byte	0xff2
 5103 0f0b 000D     		.2byte	0xd00
 5104 0f0d 1E       		.uleb128 0x1e
 5105 0f0e D7140000 		.4byte	.LASF222
 5106 0f12 11       		.byte	0x11
 5107 0f13 B2       		.byte	0xb2
 5108 0f14 2A040000 		.4byte	0x42a
 5109 0f18 000E     		.2byte	0xe00
 5110 0f1a 1E       		.uleb128 0x1e
 5111 0f1b D2080000 		.4byte	.LASF223
 5112 0f1f 11       		.byte	0x11
 5113 0f20 B4       		.byte	0xb4
 5114 0f21 07100000 		.4byte	0x1007
 5115 0f25 040E     		.2byte	0xe04
 5116 0f27 1E       		.uleb128 0x1e
 5117 0f28 84050000 		.4byte	.LASF224
 5118 0f2c 11       		.byte	0x11
 5119 0f2d B5       		.byte	0xb5
 5120 0f2e 23100000 		.4byte	0x1023
 5121 0f32 0010     		.2byte	0x1000
 5122 0f34 00       		.byte	0
 5123 0f35 14       		.uleb128 0x14
 5124 0f36 E4000000 		.4byte	0xe4
 5125 0f3a 450F0000 		.4byte	0xf45
 5126 0f3e 15       		.uleb128 0x15
 5127 0f3f 2F040000 		.4byte	0x42f
 5128 0f43 2F       		.byte	0x2f
 5129 0f44 00       		.byte	0
 5130 0f45 0D       		.uleb128 0xd
 5131 0f46 350F0000 		.4byte	0xf35
 5132 0f4a 0D       		.uleb128 0xd
 5133 0f4b 64070000 		.4byte	0x764
 5134 0f4f 14       		.uleb128 0x14
 5135 0f50 E4000000 		.4byte	0xe4
 5136 0f54 5F0F0000 		.4byte	0xf5f
 5137 0f58 15       		.uleb128 0x15
 5138 0f59 2F040000 		.4byte	0x42f
 5139 0f5d AF       		.byte	0xaf
 5140 0f5e 00       		.byte	0
 5141 0f5f 0D       		.uleb128 0xd
 5142 0f60 4F0F0000 		.4byte	0xf4f
 5143 0f64 14       		.uleb128 0x14
 5144 0f65 E4000000 		.4byte	0xe4
 5145 0f69 740F0000 		.4byte	0xf74
 5146 0f6d 15       		.uleb128 0x15
 5147 0f6e 2F040000 		.4byte	0x42f
 5148 0f72 08       		.byte	0x8
 5149 0f73 00       		.byte	0
 5150 0f74 0D       		.uleb128 0xd
 5151 0f75 640F0000 		.4byte	0xf64
 5152 0f79 14       		.uleb128 0x14
 5153 0f7a E4000000 		.4byte	0xe4
 5154 0f7e 890F0000 		.4byte	0xf89
ARM GAS  /tmp/ccLdaIGa.s 			page 92


 5155 0f82 15       		.uleb128 0x15
 5156 0f83 2F040000 		.4byte	0x42f
 5157 0f87 2E       		.byte	0x2e
 5158 0f88 00       		.byte	0
 5159 0f89 0D       		.uleb128 0xd
 5160 0f8a 790F0000 		.4byte	0xf79
 5161 0f8e 14       		.uleb128 0x14
 5162 0f8f 650B0000 		.4byte	0xb65
 5163 0f93 9E0F0000 		.4byte	0xf9e
 5164 0f97 15       		.uleb128 0x15
 5165 0f98 2F040000 		.4byte	0x42f
 5166 0f9c 0F       		.byte	0xf
 5167 0f9d 00       		.byte	0
 5168 0f9e 14       		.uleb128 0x14
 5169 0f9f E4000000 		.4byte	0xe4
 5170 0fa3 AE0F0000 		.4byte	0xfae
 5171 0fa7 15       		.uleb128 0x15
 5172 0fa8 2F040000 		.4byte	0x42f
 5173 0fac 3F       		.byte	0x3f
 5174 0fad 00       		.byte	0
 5175 0fae 0D       		.uleb128 0xd
 5176 0faf 9E0F0000 		.4byte	0xf9e
 5177 0fb3 14       		.uleb128 0x14
 5178 0fb4 E4000000 		.4byte	0xe4
 5179 0fb8 C30F0000 		.4byte	0xfc3
 5180 0fbc 15       		.uleb128 0x15
 5181 0fbd 2F040000 		.4byte	0x42f
 5182 0fc1 0F       		.byte	0xf
 5183 0fc2 00       		.byte	0
 5184 0fc3 0D       		.uleb128 0xd
 5185 0fc4 B30F0000 		.4byte	0xfb3
 5186 0fc8 0D       		.uleb128 0xd
 5187 0fc9 B30F0000 		.4byte	0xfb3
 5188 0fcd 0D       		.uleb128 0xd
 5189 0fce B30F0000 		.4byte	0xfb3
 5190 0fd2 14       		.uleb128 0x14
 5191 0fd3 D90B0000 		.4byte	0xbd9
 5192 0fd7 E20F0000 		.4byte	0xfe2
 5193 0fdb 15       		.uleb128 0x15
 5194 0fdc 2F040000 		.4byte	0x42f
 5195 0fe0 0F       		.byte	0xf
 5196 0fe1 00       		.byte	0
 5197 0fe2 14       		.uleb128 0x14
 5198 0fe3 4D0C0000 		.4byte	0xc4d
 5199 0fe7 F20F0000 		.4byte	0xff2
 5200 0feb 15       		.uleb128 0x15
 5201 0fec 2F040000 		.4byte	0x42f
 5202 0ff0 0F       		.byte	0xf
 5203 0ff1 00       		.byte	0
 5204 0ff2 0D       		.uleb128 0xd
 5205 0ff3 9E0F0000 		.4byte	0xf9e
 5206 0ff7 14       		.uleb128 0x14
 5207 0ff8 E4000000 		.4byte	0xe4
 5208 0ffc 07100000 		.4byte	0x1007
 5209 1000 15       		.uleb128 0x15
 5210 1001 2F040000 		.4byte	0x42f
 5211 1005 7E       		.byte	0x7e
ARM GAS  /tmp/ccLdaIGa.s 			page 93


 5212 1006 00       		.byte	0
 5213 1007 0D       		.uleb128 0xd
 5214 1008 F70F0000 		.4byte	0xff7
 5215 100c 14       		.uleb128 0x14
 5216 100d E4000000 		.4byte	0xe4
 5217 1011 23100000 		.4byte	0x1023
 5218 1015 15       		.uleb128 0x15
 5219 1016 2F040000 		.4byte	0x42f
 5220 101a 0F       		.byte	0xf
 5221 101b 20       		.uleb128 0x20
 5222 101c 2F040000 		.4byte	0x42f
 5223 1020 FF03     		.2byte	0x3ff
 5224 1022 00       		.byte	0
 5225 1023 0D       		.uleb128 0xd
 5226 1024 0C100000 		.4byte	0x100c
 5227 1028 03       		.uleb128 0x3
 5228 1029 62160000 		.4byte	.LASF225
 5229 102d 11       		.byte	0x11
 5230 102e B6       		.byte	0xb6
 5231 102f 580C0000 		.4byte	0xc58
 5232 1033 08       		.uleb128 0x8
 5233 1034 0C       		.byte	0xc
 5234 1035 10       		.byte	0x10
 5235 1036 C6       		.byte	0xc6
 5236 1037 60100000 		.4byte	0x1060
 5237 103b 06       		.uleb128 0x6
 5238 103c 29050000 		.4byte	.LASF226
 5239 1040 10       		.byte	0x10
 5240 1041 C7       		.byte	0xc7
 5241 1042 E4000000 		.4byte	0xe4
 5242 1046 00       		.byte	0
 5243 1047 06       		.uleb128 0x6
 5244 1048 78060000 		.4byte	.LASF227
 5245 104c 10       		.byte	0x10
 5246 104d C8       		.byte	0xc8
 5247 104e E4000000 		.4byte	0xe4
 5248 1052 04       		.byte	0x4
 5249 1053 06       		.uleb128 0x6
 5250 1054 DB080000 		.4byte	.LASF228
 5251 1058 10       		.byte	0x10
 5252 1059 C9       		.byte	0xc9
 5253 105a E4000000 		.4byte	0xe4
 5254 105e 08       		.byte	0x8
 5255 105f 00       		.byte	0
 5256 1060 03       		.uleb128 0x3
 5257 1061 8E060000 		.4byte	.LASF229
 5258 1065 10       		.byte	0x10
 5259 1066 CA       		.byte	0xca
 5260 1067 33100000 		.4byte	0x1033
 5261 106b 08       		.uleb128 0x8
 5262 106c 04       		.byte	0x4
 5263 106d 10       		.byte	0x10
 5264 106e DD       		.byte	0xdd
 5265 106f 80100000 		.4byte	0x1080
 5266 1073 06       		.uleb128 0x6
 5267 1074 D1140000 		.4byte	.LASF230
 5268 1078 10       		.byte	0x10
ARM GAS  /tmp/ccLdaIGa.s 			page 94


 5269 1079 E1       		.byte	0xe1
 5270 107a EF060000 		.4byte	0x6ef
 5271 107e 00       		.byte	0
 5272 107f 00       		.byte	0
 5273 1080 08       		.uleb128 0x8
 5274 1081 04       		.byte	0x4
 5275 1082 10       		.byte	0x10
 5276 1083 E3       		.byte	0xe3
 5277 1084 95100000 		.4byte	0x1095
 5278 1088 06       		.uleb128 0x6
 5279 1089 89050000 		.4byte	.LASF231
 5280 108d 10       		.byte	0x10
 5281 108e E7       		.byte	0xe7
 5282 108f 95100000 		.4byte	0x1095
 5283 1093 00       		.byte	0
 5284 1094 00       		.byte	0
 5285 1095 09       		.uleb128 0x9
 5286 1096 04       		.byte	0x4
 5287 1097 8E060000 		.4byte	0x68e
 5288 109b 0E       		.uleb128 0xe
 5289 109c 04       		.byte	0x4
 5290 109d 10       		.byte	0x10
 5291 109e DC       		.byte	0xdc
 5292 109f BA100000 		.4byte	0x10ba
 5293 10a3 0F       		.uleb128 0xf
 5294 10a4 E2110000 		.4byte	.LASF232
 5295 10a8 10       		.byte	0x10
 5296 10a9 E2       		.byte	0xe2
 5297 10aa 6B100000 		.4byte	0x106b
 5298 10ae 0F       		.uleb128 0xf
 5299 10af 63110000 		.4byte	.LASF233
 5300 10b3 10       		.byte	0x10
 5301 10b4 E8       		.byte	0xe8
 5302 10b5 80100000 		.4byte	0x1080
 5303 10b9 00       		.byte	0
 5304 10ba 08       		.uleb128 0x8
 5305 10bb 14       		.byte	0x14
 5306 10bc 10       		.byte	0x10
 5307 10bd CF       		.byte	0xcf
 5308 10be FF100000 		.4byte	0x10ff
 5309 10c2 06       		.uleb128 0x6
 5310 10c3 4C040000 		.4byte	.LASF234
 5311 10c7 10       		.byte	0x10
 5312 10c8 D3       		.byte	0xd3
 5313 10c9 FA000000 		.4byte	0xfa
 5314 10cd 00       		.byte	0
 5315 10ce 06       		.uleb128 0x6
 5316 10cf 860A0000 		.4byte	.LASF235
 5317 10d3 10       		.byte	0x10
 5318 10d4 D7       		.byte	0xd7
 5319 10d5 2C000000 		.4byte	0x2c
 5320 10d9 04       		.byte	0x4
 5321 10da 06       		.uleb128 0x6
 5322 10db 52060000 		.4byte	.LASF236
 5323 10df 10       		.byte	0x10
 5324 10e0 DB       		.byte	0xdb
 5325 10e1 2C000000 		.4byte	0x2c
ARM GAS  /tmp/ccLdaIGa.s 			page 95


 5326 10e5 08       		.byte	0x8
 5327 10e6 06       		.uleb128 0x6
 5328 10e7 BF040000 		.4byte	.LASF237
 5329 10eb 10       		.byte	0x10
 5330 10ec E9       		.byte	0xe9
 5331 10ed 9B100000 		.4byte	0x109b
 5332 10f1 0C       		.byte	0xc
 5333 10f2 06       		.uleb128 0x6
 5334 10f3 FC0A0000 		.4byte	.LASF238
 5335 10f7 10       		.byte	0x10
 5336 10f8 ED       		.byte	0xed
 5337 10f9 2C000000 		.4byte	0x2c
 5338 10fd 10       		.byte	0x10
 5339 10fe 00       		.byte	0
 5340 10ff 03       		.uleb128 0x3
 5341 1100 5A090000 		.4byte	.LASF239
 5342 1104 10       		.byte	0x10
 5343 1105 EE       		.byte	0xee
 5344 1106 BA100000 		.4byte	0x10ba
 5345 110a 1C       		.uleb128 0x1c
 5346 110b 04       		.byte	0x4
 5347 110c 10       		.byte	0x10
 5348 110d 0101     		.2byte	0x101
 5349 110f 21110000 		.4byte	0x1121
 5350 1113 17       		.uleb128 0x17
 5351 1114 AA060000 		.4byte	.LASF240
 5352 1118 10       		.byte	0x10
 5353 1119 0501     		.2byte	0x105
 5354 111b 7D060000 		.4byte	0x67d
 5355 111f 00       		.byte	0
 5356 1120 00       		.byte	0
 5357 1121 1C       		.uleb128 0x1c
 5358 1122 04       		.byte	0x4
 5359 1123 10       		.byte	0x10
 5360 1124 0701     		.2byte	0x107
 5361 1126 38110000 		.4byte	0x1138
 5362 112a 17       		.uleb128 0x17
 5363 112b C5110000 		.4byte	.LASF241
 5364 112f 10       		.byte	0x10
 5365 1130 0B01     		.2byte	0x10b
 5366 1132 38110000 		.4byte	0x1138
 5367 1136 00       		.byte	0
 5368 1137 00       		.byte	0
 5369 1138 09       		.uleb128 0x9
 5370 1139 04       		.byte	0x4
 5371 113a 83060000 		.4byte	0x683
 5372 113e 21       		.uleb128 0x21
 5373 113f 04       		.byte	0x4
 5374 1140 10       		.byte	0x10
 5375 1141 0001     		.2byte	0x100
 5376 1143 60110000 		.4byte	0x1160
 5377 1147 22       		.uleb128 0x22
 5378 1148 E2110000 		.4byte	.LASF232
 5379 114c 10       		.byte	0x10
 5380 114d 0601     		.2byte	0x106
 5381 114f 0A110000 		.4byte	0x110a
 5382 1153 22       		.uleb128 0x22
ARM GAS  /tmp/ccLdaIGa.s 			page 96


 5383 1154 63110000 		.4byte	.LASF233
 5384 1158 10       		.byte	0x10
 5385 1159 0C01     		.2byte	0x10c
 5386 115b 21110000 		.4byte	0x1121
 5387 115f 00       		.byte	0
 5388 1160 08       		.uleb128 0x8
 5389 1161 14       		.byte	0x14
 5390 1162 10       		.byte	0x10
 5391 1163 F3       		.byte	0xf3
 5392 1164 A7110000 		.4byte	0x11a7
 5393 1168 06       		.uleb128 0x6
 5394 1169 75030000 		.4byte	.LASF242
 5395 116d 10       		.byte	0x10
 5396 116e F7       		.byte	0xf7
 5397 116f FA000000 		.4byte	0xfa
 5398 1173 00       		.byte	0
 5399 1174 06       		.uleb128 0x6
 5400 1175 3D0B0000 		.4byte	.LASF243
 5401 1179 10       		.byte	0x10
 5402 117a FB       		.byte	0xfb
 5403 117b 2C000000 		.4byte	0x2c
 5404 117f 04       		.byte	0x4
 5405 1180 06       		.uleb128 0x6
 5406 1181 42060000 		.4byte	.LASF244
 5407 1185 10       		.byte	0x10
 5408 1186 FF       		.byte	0xff
 5409 1187 2C000000 		.4byte	0x2c
 5410 118b 08       		.byte	0x8
 5411 118c 17       		.uleb128 0x17
 5412 118d BF040000 		.4byte	.LASF237
 5413 1191 10       		.byte	0x10
 5414 1192 0D01     		.2byte	0x10d
 5415 1194 3E110000 		.4byte	0x113e
 5416 1198 0C       		.byte	0xc
 5417 1199 17       		.uleb128 0x17
 5418 119a FC0A0000 		.4byte	.LASF238
 5419 119e 10       		.byte	0x10
 5420 119f 1101     		.2byte	0x111
 5421 11a1 2C000000 		.4byte	0x2c
 5422 11a5 10       		.byte	0x10
 5423 11a6 00       		.byte	0
 5424 11a7 1B       		.uleb128 0x1b
 5425 11a8 CB100000 		.4byte	.LASF245
 5426 11ac 10       		.byte	0x10
 5427 11ad 1201     		.2byte	0x112
 5428 11af 60110000 		.4byte	0x1160
 5429 11b3 1C       		.uleb128 0x1c
 5430 11b4 24       		.byte	0x24
 5431 11b5 10       		.byte	0x10
 5432 11b6 1801     		.2byte	0x118
 5433 11b8 3F120000 		.4byte	0x123f
 5434 11bc 17       		.uleb128 0x17
 5435 11bd F40C0000 		.4byte	.LASF246
 5436 11c1 10       		.byte	0x10
 5437 11c2 1C01     		.2byte	0x11c
 5438 11c4 E4000000 		.4byte	0xe4
 5439 11c8 00       		.byte	0
ARM GAS  /tmp/ccLdaIGa.s 			page 97


 5440 11c9 17       		.uleb128 0x17
 5441 11ca 6D050000 		.4byte	.LASF247
 5442 11ce 10       		.byte	0x10
 5443 11cf 2701     		.2byte	0x127
 5444 11d1 5C0A0000 		.4byte	0xa5c
 5445 11d5 04       		.byte	0x4
 5446 11d6 17       		.uleb128 0x17
 5447 11d7 B60D0000 		.4byte	.LASF248
 5448 11db 10       		.byte	0x10
 5449 11dc 2D01     		.2byte	0x12d
 5450 11de 5C0A0000 		.4byte	0xa5c
 5451 11e2 08       		.byte	0x8
 5452 11e3 17       		.uleb128 0x17
 5453 11e4 EB060000 		.4byte	.LASF249
 5454 11e8 10       		.byte	0x10
 5455 11e9 3301     		.2byte	0x133
 5456 11eb 5C0A0000 		.4byte	0xa5c
 5457 11ef 0C       		.byte	0xc
 5458 11f0 17       		.uleb128 0x17
 5459 11f1 76160000 		.4byte	.LASF250
 5460 11f5 10       		.byte	0x10
 5461 11f6 3901     		.2byte	0x139
 5462 11f8 CE000000 		.4byte	0xce
 5463 11fc 10       		.byte	0x10
 5464 11fd 17       		.uleb128 0x17
 5465 11fe 27090000 		.4byte	.LASF251
 5466 1202 10       		.byte	0x10
 5467 1203 3F01     		.2byte	0x13f
 5468 1205 CE000000 		.4byte	0xce
 5469 1209 12       		.byte	0x12
 5470 120a 17       		.uleb128 0x17
 5471 120b 66150000 		.4byte	.LASF252
 5472 120f 10       		.byte	0x10
 5473 1210 4401     		.2byte	0x144
 5474 1212 3F120000 		.4byte	0x123f
 5475 1216 14       		.byte	0x14
 5476 1217 17       		.uleb128 0x17
 5477 1218 69080000 		.4byte	.LASF253
 5478 121c 10       		.byte	0x10
 5479 121d 4901     		.2byte	0x149
 5480 121f 45120000 		.4byte	0x1245
 5481 1223 18       		.byte	0x18
 5482 1224 17       		.uleb128 0x17
 5483 1225 4B0A0000 		.4byte	.LASF254
 5484 1229 10       		.byte	0x10
 5485 122a 5001     		.2byte	0x150
 5486 122c CE000000 		.4byte	0xce
 5487 1230 1C       		.byte	0x1c
 5488 1231 17       		.uleb128 0x17
 5489 1232 04150000 		.4byte	.LASF255
 5490 1236 10       		.byte	0x10
 5491 1237 5601     		.2byte	0x156
 5492 1239 7D060000 		.4byte	0x67d
 5493 123d 20       		.byte	0x20
 5494 123e 00       		.byte	0
 5495 123f 09       		.uleb128 0x9
 5496 1240 04       		.byte	0x4
ARM GAS  /tmp/ccLdaIGa.s 			page 98


 5497 1241 FF100000 		.4byte	0x10ff
 5498 1245 09       		.uleb128 0x9
 5499 1246 04       		.byte	0x4
 5500 1247 A7110000 		.4byte	0x11a7
 5501 124b 1B       		.uleb128 0x1b
 5502 124c B3110000 		.4byte	.LASF256
 5503 1250 10       		.byte	0x10
 5504 1251 5701     		.2byte	0x157
 5505 1253 B3110000 		.4byte	0x11b3
 5506 1257 1C       		.uleb128 0x1c
 5507 1258 10       		.byte	0x10
 5508 1259 10       		.byte	0x10
 5509 125a 5C01     		.2byte	0x15c
 5510 125c 95120000 		.4byte	0x1295
 5511 1260 17       		.uleb128 0x17
 5512 1261 C8020000 		.4byte	.LASF257
 5513 1265 10       		.byte	0x10
 5514 1266 6101     		.2byte	0x161
 5515 1268 7E0A0000 		.4byte	0xa7e
 5516 126c 00       		.byte	0
 5517 126d 17       		.uleb128 0x17
 5518 126e AD140000 		.4byte	.LASF258
 5519 1272 10       		.byte	0x10
 5520 1273 6601     		.2byte	0x166
 5521 1275 C10A0000 		.4byte	0xac1
 5522 1279 04       		.byte	0x4
 5523 127a 17       		.uleb128 0x17
 5524 127b 6C0A0000 		.4byte	.LASF259
 5525 127f 10       		.byte	0x10
 5526 1280 6C01     		.2byte	0x16c
 5527 1282 A00A0000 		.4byte	0xaa0
 5528 1286 08       		.byte	0x8
 5529 1287 17       		.uleb128 0x17
 5530 1288 20010000 		.4byte	.LASF260
 5531 128c 10       		.byte	0x10
 5532 128d 7001     		.2byte	0x170
 5533 128f 390A0000 		.4byte	0xa39
 5534 1293 0C       		.byte	0xc
 5535 1294 00       		.byte	0
 5536 1295 1B       		.uleb128 0x1b
 5537 1296 FF090000 		.4byte	.LASF261
 5538 129a 10       		.byte	0x10
 5539 129b 7201     		.2byte	0x172
 5540 129d 57120000 		.4byte	0x1257
 5541 12a1 09       		.uleb128 0x9
 5542 12a2 04       		.byte	0x4
 5543 12a3 A7120000 		.4byte	0x12a7
 5544 12a7 10       		.uleb128 0x10
 5545 12a8 95120000 		.4byte	0x1295
 5546 12ac 14       		.uleb128 0x14
 5547 12ad BC120000 		.4byte	0x12bc
 5548 12b1 BC120000 		.4byte	0x12bc
 5549 12b5 15       		.uleb128 0x15
 5550 12b6 2F040000 		.4byte	0x42f
 5551 12ba 03       		.byte	0x3
 5552 12bb 00       		.byte	0
 5553 12bc 09       		.uleb128 0x9
ARM GAS  /tmp/ccLdaIGa.s 			page 99


 5554 12bd 04       		.byte	0x4
 5555 12be C2120000 		.4byte	0x12c2
 5556 12c2 10       		.uleb128 0x10
 5557 12c3 4B120000 		.4byte	0x124b
 5558 12c7 14       		.uleb128 0x14
 5559 12c8 B0020000 		.4byte	0x2b0
 5560 12cc D7120000 		.4byte	0x12d7
 5561 12d0 15       		.uleb128 0x15
 5562 12d1 2F040000 		.4byte	0x42f
 5563 12d5 02       		.byte	0x2
 5564 12d6 00       		.byte	0
 5565 12d7 14       		.uleb128 0x14
 5566 12d8 C3000000 		.4byte	0xc3
 5567 12dc E7120000 		.4byte	0x12e7
 5568 12e0 15       		.uleb128 0x15
 5569 12e1 2F040000 		.4byte	0x42f
 5570 12e5 07       		.byte	0x7
 5571 12e6 00       		.byte	0
 5572 12e7 09       		.uleb128 0x9
 5573 12e8 04       		.byte	0x4
 5574 12e9 28100000 		.4byte	0x1028
 5575 12ed 09       		.uleb128 0x9
 5576 12ee 04       		.byte	0x4
 5577 12ef F3120000 		.4byte	0x12f3
 5578 12f3 10       		.uleb128 0x10
 5579 12f4 60100000 		.4byte	0x1060
 5580 12f8 14       		.uleb128 0x14
 5581 12f9 B2020000 		.4byte	0x2b2
 5582 12fd 08130000 		.4byte	0x1308
 5583 1301 15       		.uleb128 0x15
 5584 1302 2F040000 		.4byte	0x42f
 5585 1306 39       		.byte	0x39
 5586 1307 00       		.byte	0
 5587 1308 03       		.uleb128 0x3
 5588 1309 E0040000 		.4byte	.LASF262
 5589 130d 12       		.byte	0x12
 5590 130e 28       		.byte	0x28
 5591 130f 13130000 		.4byte	0x1313
 5592 1313 05       		.uleb128 0x5
 5593 1314 81160000 		.4byte	.LASF263
 5594 1318 04       		.byte	0x4
 5595 1319 13       		.byte	0x13
 5596 131a 00       		.byte	0
 5597 131b 2A130000 		.4byte	0x132a
 5598 131f 23       		.uleb128 0x23
 5599 1320 1B140000 		.4byte	.LASF264
 5600 1324 B0020000 		.4byte	0x2b0
 5601 1328 00       		.byte	0
 5602 1329 00       		.byte	0
 5603 132a 03       		.uleb128 0x3
 5604 132b 06070000 		.4byte	.LASF265
 5605 132f 12       		.byte	0x12
 5606 1330 62       		.byte	0x62
 5607 1331 08130000 		.4byte	0x1308
 5608 1335 08       		.uleb128 0x8
 5609 1336 10       		.byte	0x10
 5610 1337 14       		.byte	0x14
ARM GAS  /tmp/ccLdaIGa.s 			page 100


 5611 1338 16       		.byte	0x16
 5612 1339 6E130000 		.4byte	0x136e
 5613 133d 06       		.uleb128 0x6
 5614 133e 2D140000 		.4byte	.LASF266
 5615 1342 14       		.byte	0x14
 5616 1343 17       		.byte	0x17
 5617 1344 D9000000 		.4byte	0xd9
 5618 1348 00       		.byte	0
 5619 1349 06       		.uleb128 0x6
 5620 134a DE000000 		.4byte	.LASF267
 5621 134e 14       		.byte	0x14
 5622 134f 18       		.byte	0x18
 5623 1350 E4000000 		.4byte	0xe4
 5624 1354 04       		.byte	0x4
 5625 1355 06       		.uleb128 0x6
 5626 1356 D5060000 		.4byte	.LASF268
 5627 135a 14       		.byte	0x14
 5628 135b 19       		.byte	0x19
 5629 135c D9000000 		.4byte	0xd9
 5630 1360 08       		.byte	0x8
 5631 1361 06       		.uleb128 0x6
 5632 1362 3D030000 		.4byte	.LASF269
 5633 1366 14       		.byte	0x14
 5634 1367 1A       		.byte	0x1a
 5635 1368 D9000000 		.4byte	0xd9
 5636 136c 0C       		.byte	0xc
 5637 136d 00       		.byte	0
 5638 136e 03       		.uleb128 0x3
 5639 136f 6A030000 		.4byte	.LASF270
 5640 1373 14       		.byte	0x14
 5641 1374 1B       		.byte	0x1b
 5642 1375 35130000 		.4byte	0x1335
 5643 1379 05       		.uleb128 0x5
 5644 137a 27110000 		.4byte	.LASF271
 5645 137e 14       		.byte	0x14
 5646 137f 14       		.byte	0x14
 5647 1380 26       		.byte	0x26
 5648 1381 C2130000 		.4byte	0x13c2
 5649 1385 06       		.uleb128 0x6
 5650 1386 D5060000 		.4byte	.LASF268
 5651 138a 14       		.byte	0x14
 5652 138b 27       		.byte	0x27
 5653 138c D9000000 		.4byte	0xd9
 5654 1390 00       		.byte	0
 5655 1391 06       		.uleb128 0x6
 5656 1392 E9110000 		.4byte	.LASF272
 5657 1396 14       		.byte	0x14
 5658 1397 28       		.byte	0x28
 5659 1398 D9000000 		.4byte	0xd9
 5660 139c 04       		.byte	0x4
 5661 139d 06       		.uleb128 0x6
 5662 139e 1E0A0000 		.4byte	.LASF273
 5663 13a2 14       		.byte	0x14
 5664 13a3 29       		.byte	0x29
 5665 13a4 D9000000 		.4byte	0xd9
 5666 13a8 08       		.byte	0x8
 5667 13a9 06       		.uleb128 0x6
ARM GAS  /tmp/ccLdaIGa.s 			page 101


 5668 13aa C30C0000 		.4byte	.LASF274
 5669 13ae 14       		.byte	0x14
 5670 13af 2C       		.byte	0x2c
 5671 13b0 D3130000 		.4byte	0x13d3
 5672 13b4 0C       		.byte	0xc
 5673 13b5 06       		.uleb128 0x6
 5674 13b6 56000000 		.4byte	.LASF275
 5675 13ba 14       		.byte	0x14
 5676 13bb 2D       		.byte	0x2d
 5677 13bc E4000000 		.4byte	0xe4
 5678 13c0 10       		.byte	0x10
 5679 13c1 00       		.byte	0
 5680 13c2 13       		.uleb128 0x13
 5681 13c3 CD130000 		.4byte	0x13cd
 5682 13c7 12       		.uleb128 0x12
 5683 13c8 CD130000 		.4byte	0x13cd
 5684 13cc 00       		.byte	0
 5685 13cd 09       		.uleb128 0x9
 5686 13ce 04       		.byte	0x4
 5687 13cf 79130000 		.4byte	0x1379
 5688 13d3 09       		.uleb128 0x9
 5689 13d4 04       		.byte	0x4
 5690 13d5 C2130000 		.4byte	0x13c2
 5691 13d9 03       		.uleb128 0x3
 5692 13da 0C0B0000 		.4byte	.LASF276
 5693 13de 14       		.byte	0x14
 5694 13df 37       		.byte	0x37
 5695 13e0 79130000 		.4byte	0x1379
 5696 13e4 08       		.uleb128 0x8
 5697 13e5 04       		.byte	0x4
 5698 13e6 15       		.byte	0x15
 5699 13e7 1A       		.byte	0x1a
 5700 13e8 55150000 		.4byte	0x1555
 5701 13ec 24       		.uleb128 0x24
 5702 13ed F9100000 		.4byte	.LASF277
 5703 13f1 15       		.byte	0x15
 5704 13f2 1B       		.byte	0x1b
 5705 13f3 25000000 		.4byte	0x25
 5706 13f7 04       		.byte	0x4
 5707 13f8 01       		.byte	0x1
 5708 13f9 1F       		.byte	0x1f
 5709 13fa 00       		.byte	0
 5710 13fb 24       		.uleb128 0x24
 5711 13fc 20140000 		.4byte	.LASF278
 5712 1400 15       		.byte	0x15
 5713 1401 1C       		.byte	0x1c
 5714 1402 25000000 		.4byte	0x25
 5715 1406 04       		.byte	0x4
 5716 1407 01       		.byte	0x1
 5717 1408 1E       		.byte	0x1e
 5718 1409 00       		.byte	0
 5719 140a 24       		.uleb128 0x24
 5720 140b A00A0000 		.4byte	.LASF279
 5721 140f 15       		.byte	0x15
 5722 1410 1D       		.byte	0x1d
 5723 1411 25000000 		.4byte	0x25
 5724 1415 04       		.byte	0x4
ARM GAS  /tmp/ccLdaIGa.s 			page 102


 5725 1416 01       		.byte	0x1
 5726 1417 1D       		.byte	0x1d
 5727 1418 00       		.byte	0
 5728 1419 24       		.uleb128 0x24
 5729 141a BF010000 		.4byte	.LASF280
 5730 141e 15       		.byte	0x15
 5731 141f 1E       		.byte	0x1e
 5732 1420 25000000 		.4byte	0x25
 5733 1424 04       		.byte	0x4
 5734 1425 01       		.byte	0x1
 5735 1426 1C       		.byte	0x1c
 5736 1427 00       		.byte	0
 5737 1428 24       		.uleb128 0x24
 5738 1429 53010000 		.4byte	.LASF281
 5739 142d 15       		.byte	0x15
 5740 142e 1F       		.byte	0x1f
 5741 142f 25000000 		.4byte	0x25
 5742 1433 04       		.byte	0x4
 5743 1434 01       		.byte	0x1
 5744 1435 1B       		.byte	0x1b
 5745 1436 00       		.byte	0
 5746 1437 24       		.uleb128 0x24
 5747 1438 900B0000 		.4byte	.LASF282
 5748 143c 15       		.byte	0x15
 5749 143d 20       		.byte	0x20
 5750 143e 25000000 		.4byte	0x25
 5751 1442 04       		.byte	0x4
 5752 1443 01       		.byte	0x1
 5753 1444 1A       		.byte	0x1a
 5754 1445 00       		.byte	0
 5755 1446 24       		.uleb128 0x24
 5756 1447 EF040000 		.4byte	.LASF283
 5757 144b 15       		.byte	0x15
 5758 144c 21       		.byte	0x21
 5759 144d 25000000 		.4byte	0x25
 5760 1451 04       		.byte	0x4
 5761 1452 01       		.byte	0x1
 5762 1453 19       		.byte	0x19
 5763 1454 00       		.byte	0
 5764 1455 24       		.uleb128 0x24
 5765 1456 47080000 		.4byte	.LASF284
 5766 145a 15       		.byte	0x15
 5767 145b 22       		.byte	0x22
 5768 145c 25000000 		.4byte	0x25
 5769 1460 04       		.byte	0x4
 5770 1461 09       		.byte	0x9
 5771 1462 10       		.byte	0x10
 5772 1463 00       		.byte	0
 5773 1464 24       		.uleb128 0x24
 5774 1465 3F0F0000 		.4byte	.LASF285
 5775 1469 15       		.byte	0x15
 5776 146a 23       		.byte	0x23
 5777 146b 25000000 		.4byte	0x25
 5778 146f 04       		.byte	0x4
 5779 1470 01       		.byte	0x1
 5780 1471 0F       		.byte	0xf
 5781 1472 00       		.byte	0
ARM GAS  /tmp/ccLdaIGa.s 			page 103


 5782 1473 24       		.uleb128 0x24
 5783 1474 450F0000 		.4byte	.LASF286
 5784 1478 15       		.byte	0x15
 5785 1479 24       		.byte	0x24
 5786 147a 25000000 		.4byte	0x25
 5787 147e 04       		.byte	0x4
 5788 147f 01       		.byte	0x1
 5789 1480 0E       		.byte	0xe
 5790 1481 00       		.byte	0
 5791 1482 24       		.uleb128 0x24
 5792 1483 4B0F0000 		.4byte	.LASF287
 5793 1487 15       		.byte	0x15
 5794 1488 25       		.byte	0x25
 5795 1489 25000000 		.4byte	0x25
 5796 148d 04       		.byte	0x4
 5797 148e 01       		.byte	0x1
 5798 148f 0D       		.byte	0xd
 5799 1490 00       		.byte	0
 5800 1491 24       		.uleb128 0x24
 5801 1492 510F0000 		.4byte	.LASF288
 5802 1496 15       		.byte	0x15
 5803 1497 26       		.byte	0x26
 5804 1498 25000000 		.4byte	0x25
 5805 149c 04       		.byte	0x4
 5806 149d 01       		.byte	0x1
 5807 149e 0C       		.byte	0xc
 5808 149f 00       		.byte	0
 5809 14a0 24       		.uleb128 0x24
 5810 14a1 570F0000 		.4byte	.LASF289
 5811 14a5 15       		.byte	0x15
 5812 14a6 27       		.byte	0x27
 5813 14a7 25000000 		.4byte	0x25
 5814 14ab 04       		.byte	0x4
 5815 14ac 01       		.byte	0x1
 5816 14ad 0B       		.byte	0xb
 5817 14ae 00       		.byte	0
 5818 14af 24       		.uleb128 0x24
 5819 14b0 5D0F0000 		.4byte	.LASF290
 5820 14b4 15       		.byte	0x15
 5821 14b5 28       		.byte	0x28
 5822 14b6 25000000 		.4byte	0x25
 5823 14ba 04       		.byte	0x4
 5824 14bb 01       		.byte	0x1
 5825 14bc 0A       		.byte	0xa
 5826 14bd 00       		.byte	0
 5827 14be 24       		.uleb128 0x24
 5828 14bf 630F0000 		.4byte	.LASF291
 5829 14c3 15       		.byte	0x15
 5830 14c4 29       		.byte	0x29
 5831 14c5 25000000 		.4byte	0x25
 5832 14c9 04       		.byte	0x4
 5833 14ca 01       		.byte	0x1
 5834 14cb 09       		.byte	0x9
 5835 14cc 00       		.byte	0
 5836 14cd 24       		.uleb128 0x24
 5837 14ce 690F0000 		.4byte	.LASF292
 5838 14d2 15       		.byte	0x15
ARM GAS  /tmp/ccLdaIGa.s 			page 104


 5839 14d3 2A       		.byte	0x2a
 5840 14d4 25000000 		.4byte	0x25
 5841 14d8 04       		.byte	0x4
 5842 14d9 01       		.byte	0x1
 5843 14da 08       		.byte	0x8
 5844 14db 00       		.byte	0
 5845 14dc 24       		.uleb128 0x24
 5846 14dd 6F0F0000 		.4byte	.LASF293
 5847 14e1 15       		.byte	0x15
 5848 14e2 2B       		.byte	0x2b
 5849 14e3 25000000 		.4byte	0x25
 5850 14e7 04       		.byte	0x4
 5851 14e8 01       		.byte	0x1
 5852 14e9 07       		.byte	0x7
 5853 14ea 00       		.byte	0
 5854 14eb 24       		.uleb128 0x24
 5855 14ec A00F0000 		.4byte	.LASF294
 5856 14f0 15       		.byte	0x15
 5857 14f1 2C       		.byte	0x2c
 5858 14f2 25000000 		.4byte	0x25
 5859 14f6 04       		.byte	0x4
 5860 14f7 01       		.byte	0x1
 5861 14f8 06       		.byte	0x6
 5862 14f9 00       		.byte	0
 5863 14fa 24       		.uleb128 0x24
 5864 14fb A70F0000 		.4byte	.LASF295
 5865 14ff 15       		.byte	0x15
 5866 1500 2D       		.byte	0x2d
 5867 1501 25000000 		.4byte	0x25
 5868 1505 04       		.byte	0x4
 5869 1506 01       		.byte	0x1
 5870 1507 05       		.byte	0x5
 5871 1508 00       		.byte	0
 5872 1509 24       		.uleb128 0x24
 5873 150a AE0F0000 		.4byte	.LASF296
 5874 150e 15       		.byte	0x15
 5875 150f 2E       		.byte	0x2e
 5876 1510 25000000 		.4byte	0x25
 5877 1514 04       		.byte	0x4
 5878 1515 01       		.byte	0x1
 5879 1516 04       		.byte	0x4
 5880 1517 00       		.byte	0
 5881 1518 24       		.uleb128 0x24
 5882 1519 B50F0000 		.4byte	.LASF297
 5883 151d 15       		.byte	0x15
 5884 151e 2F       		.byte	0x2f
 5885 151f 25000000 		.4byte	0x25
 5886 1523 04       		.byte	0x4
 5887 1524 01       		.byte	0x1
 5888 1525 03       		.byte	0x3
 5889 1526 00       		.byte	0
 5890 1527 24       		.uleb128 0x24
 5891 1528 BC0F0000 		.4byte	.LASF298
 5892 152c 15       		.byte	0x15
 5893 152d 30       		.byte	0x30
 5894 152e 25000000 		.4byte	0x25
 5895 1532 04       		.byte	0x4
ARM GAS  /tmp/ccLdaIGa.s 			page 105


 5896 1533 01       		.byte	0x1
 5897 1534 02       		.byte	0x2
 5898 1535 00       		.byte	0
 5899 1536 24       		.uleb128 0x24
 5900 1537 C30F0000 		.4byte	.LASF299
 5901 153b 15       		.byte	0x15
 5902 153c 31       		.byte	0x31
 5903 153d 25000000 		.4byte	0x25
 5904 1541 04       		.byte	0x4
 5905 1542 01       		.byte	0x1
 5906 1543 01       		.byte	0x1
 5907 1544 00       		.byte	0
 5908 1545 24       		.uleb128 0x24
 5909 1546 CA0F0000 		.4byte	.LASF300
 5910 154a 15       		.byte	0x15
 5911 154b 32       		.byte	0x32
 5912 154c 25000000 		.4byte	0x25
 5913 1550 04       		.byte	0x4
 5914 1551 01       		.byte	0x1
 5915 1552 00       		.byte	0
 5916 1553 00       		.byte	0
 5917 1554 00       		.byte	0
 5918 1555 0E       		.uleb128 0xe
 5919 1556 04       		.byte	0x4
 5920 1557 15       		.byte	0x15
 5921 1558 19       		.byte	0x19
 5922 1559 74150000 		.4byte	0x1574
 5923 155d 0F       		.uleb128 0xf
 5924 155e 4B090000 		.4byte	.LASF301
 5925 1562 15       		.byte	0x15
 5926 1563 33       		.byte	0x33
 5927 1564 E4130000 		.4byte	0x13e4
 5928 1568 0F       		.uleb128 0xf
 5929 1569 750F0000 		.4byte	.LASF302
 5930 156d 15       		.byte	0x15
 5931 156e 34       		.byte	0x34
 5932 156f 25000000 		.4byte	0x25
 5933 1573 00       		.byte	0
 5934 1574 03       		.uleb128 0x3
 5935 1575 1A040000 		.4byte	.LASF303
 5936 1579 15       		.byte	0x15
 5937 157a 35       		.byte	0x35
 5938 157b 55150000 		.4byte	0x1555
 5939 157f 04       		.uleb128 0x4
 5940 1580 04       		.byte	0x4
 5941 1581 04       		.byte	0x4
 5942 1582 AD050000 		.4byte	.LASF304
 5943 1586 09       		.uleb128 0x9
 5944 1587 04       		.byte	0x4
 5945 1588 D9000000 		.4byte	0xd9
 5946 158c 09       		.uleb128 0x9
 5947 158d 04       		.byte	0x4
 5948 158e 92150000 		.4byte	0x1592
 5949 1592 25       		.uleb128 0x25
 5950 1593 09       		.uleb128 0x9
 5951 1594 04       		.byte	0x4
 5952 1595 D9130000 		.4byte	0x13d9
ARM GAS  /tmp/ccLdaIGa.s 			page 106


 5953 1599 03       		.uleb128 0x3
 5954 159a 0F0D0000 		.4byte	.LASF305
 5955 159e 16       		.byte	0x16
 5956 159f 11       		.byte	0x11
 5957 15a0 37000000 		.4byte	0x37
 5958 15a4 03       		.uleb128 0x3
 5959 15a5 9A010000 		.4byte	.LASF306
 5960 15a9 16       		.byte	0x16
 5961 15aa 16       		.byte	0x16
 5962 15ab 5B000000 		.4byte	0x5b
 5963 15af 03       		.uleb128 0x3
 5964 15b0 7E040000 		.4byte	.LASF307
 5965 15b4 16       		.byte	0x16
 5966 15b5 1B       		.byte	0x1b
 5967 15b6 74000000 		.4byte	0x74
 5968 15ba 03       		.uleb128 0x3
 5969 15bb 610A0000 		.4byte	.LASF308
 5970 15bf 16       		.byte	0x16
 5971 15c0 1C       		.byte	0x1c
 5972 15c1 74000000 		.4byte	0x74
 5973 15c5 03       		.uleb128 0x3
 5974 15c6 3D020000 		.4byte	.LASF309
 5975 15ca 16       		.byte	0x16
 5976 15cb 21       		.byte	0x21
 5977 15cc 98000000 		.4byte	0x98
 5978 15d0 03       		.uleb128 0x3
 5979 15d1 DA0B0000 		.4byte	.LASF310
 5980 15d5 17       		.byte	0x17
 5981 15d6 42       		.byte	0x42
 5982 15d7 B6050000 		.4byte	0x5b6
 5983 15db 26       		.uleb128 0x26
 5984 15dc 3802     		.2byte	0x238
 5985 15de 17       		.byte	0x17
 5986 15df 4D       		.byte	0x4d
 5987 15e0 D4160000 		.4byte	0x16d4
 5988 15e4 06       		.uleb128 0x6
 5989 15e5 7F100000 		.4byte	.LASF311
 5990 15e9 17       		.byte	0x17
 5991 15ea 4E       		.byte	0x4e
 5992 15eb A4150000 		.4byte	0x15a4
 5993 15ef 00       		.byte	0
 5994 15f0 07       		.uleb128 0x7
 5995 15f1 64727600 		.ascii	"drv\000"
 5996 15f5 17       		.byte	0x17
 5997 15f6 4F       		.byte	0x4f
 5998 15f7 A4150000 		.4byte	0x15a4
 5999 15fb 01       		.byte	0x1
 6000 15fc 06       		.uleb128 0x6
 6001 15fd 370B0000 		.4byte	.LASF312
 6002 1601 17       		.byte	0x17
 6003 1602 50       		.byte	0x50
 6004 1603 A4150000 		.4byte	0x15a4
 6005 1607 02       		.byte	0x2
 6006 1608 06       		.uleb128 0x6
 6007 1609 FF0F0000 		.4byte	.LASF313
 6008 160d 17       		.byte	0x17
 6009 160e 51       		.byte	0x51
ARM GAS  /tmp/ccLdaIGa.s 			page 107


 6010 160f A4150000 		.4byte	0x15a4
 6011 1613 03       		.byte	0x3
 6012 1614 06       		.uleb128 0x6
 6013 1615 F2110000 		.4byte	.LASF314
 6014 1619 17       		.byte	0x17
 6015 161a 52       		.byte	0x52
 6016 161b A4150000 		.4byte	0x15a4
 6017 161f 04       		.byte	0x4
 6018 1620 06       		.uleb128 0x6
 6019 1621 81130000 		.4byte	.LASF315
 6020 1625 17       		.byte	0x17
 6021 1626 53       		.byte	0x53
 6022 1627 A4150000 		.4byte	0x15a4
 6023 162b 05       		.byte	0x5
 6024 162c 07       		.uleb128 0x7
 6025 162d 696400   		.ascii	"id\000"
 6026 1630 17       		.byte	0x17
 6027 1631 54       		.byte	0x54
 6028 1632 AF150000 		.4byte	0x15af
 6029 1636 06       		.byte	0x6
 6030 1637 06       		.uleb128 0x6
 6031 1638 4B150000 		.4byte	.LASF316
 6032 163c 17       		.byte	0x17
 6033 163d 55       		.byte	0x55
 6034 163e AF150000 		.4byte	0x15af
 6035 1642 08       		.byte	0x8
 6036 1643 06       		.uleb128 0x6
 6037 1644 9E0B0000 		.4byte	.LASF317
 6038 1648 17       		.byte	0x17
 6039 1649 5A       		.byte	0x5a
 6040 164a D4160000 		.4byte	0x16d4
 6041 164e 0C       		.byte	0xc
 6042 164f 06       		.uleb128 0x6
 6043 1650 6A0D0000 		.4byte	.LASF318
 6044 1654 17       		.byte	0x17
 6045 1655 5D       		.byte	0x5d
 6046 1656 C5150000 		.4byte	0x15c5
 6047 165a 10       		.byte	0x10
 6048 165b 06       		.uleb128 0x6
 6049 165c 3F000000 		.4byte	.LASF319
 6050 1660 17       		.byte	0x17
 6051 1661 5E       		.byte	0x5e
 6052 1662 C5150000 		.4byte	0x15c5
 6053 1666 14       		.byte	0x14
 6054 1667 06       		.uleb128 0x6
 6055 1668 65060000 		.4byte	.LASF320
 6056 166c 17       		.byte	0x17
 6057 166d 5F       		.byte	0x5f
 6058 166e C5150000 		.4byte	0x15c5
 6059 1672 18       		.byte	0x18
 6060 1673 06       		.uleb128 0x6
 6061 1674 30070000 		.4byte	.LASF321
 6062 1678 17       		.byte	0x17
 6063 1679 62       		.byte	0x62
 6064 167a C5150000 		.4byte	0x15c5
 6065 167e 1C       		.byte	0x1c
 6066 167f 06       		.uleb128 0x6
ARM GAS  /tmp/ccLdaIGa.s 			page 108


 6067 1680 85060000 		.4byte	.LASF322
 6068 1684 17       		.byte	0x17
 6069 1685 64       		.byte	0x64
 6070 1686 C5150000 		.4byte	0x15c5
 6071 168a 20       		.byte	0x20
 6072 168b 06       		.uleb128 0x6
 6073 168c 180A0000 		.4byte	.LASF323
 6074 1690 17       		.byte	0x17
 6075 1691 65       		.byte	0x65
 6076 1692 C5150000 		.4byte	0x15c5
 6077 1696 24       		.byte	0x24
 6078 1697 06       		.uleb128 0x6
 6079 1698 100A0000 		.4byte	.LASF324
 6080 169c 17       		.byte	0x17
 6081 169d 66       		.byte	0x66
 6082 169e C5150000 		.4byte	0x15c5
 6083 16a2 28       		.byte	0x28
 6084 16a3 06       		.uleb128 0x6
 6085 16a4 43030000 		.4byte	.LASF325
 6086 16a8 17       		.byte	0x17
 6087 16a9 67       		.byte	0x67
 6088 16aa C5150000 		.4byte	0x15c5
 6089 16ae 2C       		.byte	0x2c
 6090 16af 06       		.uleb128 0x6
 6091 16b0 320D0000 		.4byte	.LASF326
 6092 16b4 17       		.byte	0x17
 6093 16b5 68       		.byte	0x68
 6094 16b6 C5150000 		.4byte	0x15c5
 6095 16ba 30       		.byte	0x30
 6096 16bb 06       		.uleb128 0x6
 6097 16bc 980F0000 		.4byte	.LASF327
 6098 16c0 17       		.byte	0x17
 6099 16c1 69       		.byte	0x69
 6100 16c2 C5150000 		.4byte	0x15c5
 6101 16c6 34       		.byte	0x34
 6102 16c7 07       		.uleb128 0x7
 6103 16c8 77696E00 		.ascii	"win\000"
 6104 16cc 17       		.byte	0x17
 6105 16cd 6A       		.byte	0x6a
 6106 16ce DA160000 		.4byte	0x16da
 6107 16d2 38       		.byte	0x38
 6108 16d3 00       		.byte	0
 6109 16d4 09       		.uleb128 0x9
 6110 16d5 04       		.byte	0x4
 6111 16d6 B7040000 		.4byte	0x4b7
 6112 16da 14       		.uleb128 0x14
 6113 16db A4150000 		.4byte	0x15a4
 6114 16df EB160000 		.4byte	0x16eb
 6115 16e3 20       		.uleb128 0x20
 6116 16e4 2F040000 		.4byte	0x42f
 6117 16e8 FF01     		.2byte	0x1ff
 6118 16ea 00       		.byte	0
 6119 16eb 03       		.uleb128 0x3
 6120 16ec 74090000 		.4byte	.LASF328
 6121 16f0 17       		.byte	0x17
 6122 16f1 6B       		.byte	0x6b
 6123 16f2 DB150000 		.4byte	0x15db
ARM GAS  /tmp/ccLdaIGa.s 			page 109


 6124 16f6 08       		.uleb128 0x8
 6125 16f7 28       		.byte	0x28
 6126 16f8 17       		.byte	0x17
 6127 16f9 71       		.byte	0x71
 6128 16fa 8D170000 		.4byte	0x178d
 6129 16fe 07       		.uleb128 0x7
 6130 16ff 667300   		.ascii	"fs\000"
 6131 1702 17       		.byte	0x17
 6132 1703 72       		.byte	0x72
 6133 1704 8D170000 		.4byte	0x178d
 6134 1708 00       		.byte	0
 6135 1709 07       		.uleb128 0x7
 6136 170a 696400   		.ascii	"id\000"
 6137 170d 17       		.byte	0x17
 6138 170e 73       		.byte	0x73
 6139 170f AF150000 		.4byte	0x15af
 6140 1713 04       		.byte	0x4
 6141 1714 06       		.uleb128 0x6
 6142 1715 320B0000 		.4byte	.LASF329
 6143 1719 17       		.byte	0x17
 6144 171a 74       		.byte	0x74
 6145 171b A4150000 		.4byte	0x15a4
 6146 171f 06       		.byte	0x6
 6147 1720 06       		.uleb128 0x6
 6148 1721 B8060000 		.4byte	.LASF330
 6149 1725 17       		.byte	0x17
 6150 1726 75       		.byte	0x75
 6151 1727 A4150000 		.4byte	0x15a4
 6152 172b 07       		.byte	0x7
 6153 172c 06       		.uleb128 0x6
 6154 172d 7D000000 		.4byte	.LASF331
 6155 1731 17       		.byte	0x17
 6156 1732 76       		.byte	0x76
 6157 1733 C5150000 		.4byte	0x15c5
 6158 1737 08       		.byte	0x8
 6159 1738 06       		.uleb128 0x6
 6160 1739 180A0000 		.4byte	.LASF323
 6161 173d 17       		.byte	0x17
 6162 173e 77       		.byte	0x77
 6163 173f C5150000 		.4byte	0x15c5
 6164 1743 0C       		.byte	0xc
 6165 1744 06       		.uleb128 0x6
 6166 1745 D80C0000 		.4byte	.LASF332
 6167 1749 17       		.byte	0x17
 6168 174a 78       		.byte	0x78
 6169 174b C5150000 		.4byte	0x15c5
 6170 174f 10       		.byte	0x10
 6171 1750 06       		.uleb128 0x6
 6172 1751 C7030000 		.4byte	.LASF333
 6173 1755 17       		.byte	0x17
 6174 1756 79       		.byte	0x79
 6175 1757 C5150000 		.4byte	0x15c5
 6176 175b 14       		.byte	0x14
 6177 175c 06       		.uleb128 0x6
 6178 175d 27010000 		.4byte	.LASF334
 6179 1761 17       		.byte	0x17
 6180 1762 7A       		.byte	0x7a
ARM GAS  /tmp/ccLdaIGa.s 			page 110


 6181 1763 C5150000 		.4byte	0x15c5
 6182 1767 18       		.byte	0x18
 6183 1768 06       		.uleb128 0x6
 6184 1769 E6000000 		.4byte	.LASF335
 6185 176d 17       		.byte	0x17
 6186 176e 7C       		.byte	0x7c
 6187 176f C5150000 		.4byte	0x15c5
 6188 1773 1C       		.byte	0x1c
 6189 1774 06       		.uleb128 0x6
 6190 1775 A2030000 		.4byte	.LASF336
 6191 1779 17       		.byte	0x17
 6192 177a 7D       		.byte	0x7d
 6193 177b 93170000 		.4byte	0x1793
 6194 177f 20       		.byte	0x20
 6195 1780 06       		.uleb128 0x6
 6196 1781 7D110000 		.4byte	.LASF337
 6197 1785 17       		.byte	0x17
 6198 1786 80       		.byte	0x80
 6199 1787 99170000 		.4byte	0x1799
 6200 178b 24       		.byte	0x24
 6201 178c 00       		.byte	0
 6202 178d 09       		.uleb128 0x9
 6203 178e 04       		.byte	0x4
 6204 178f EB160000 		.4byte	0x16eb
 6205 1793 09       		.uleb128 0x9
 6206 1794 04       		.byte	0x4
 6207 1795 A4150000 		.4byte	0x15a4
 6208 1799 09       		.uleb128 0x9
 6209 179a 04       		.byte	0x4
 6210 179b C5150000 		.4byte	0x15c5
 6211 179f 27       		.uleb128 0x27
 6212 17a0 46494C00 		.ascii	"FIL\000"
 6213 17a4 17       		.byte	0x17
 6214 17a5 88       		.byte	0x88
 6215 17a6 F6160000 		.4byte	0x16f6
 6216 17aa 08       		.uleb128 0x8
 6217 17ab 24       		.byte	0x24
 6218 17ac 17       		.byte	0x17
 6219 17ad 8E       		.byte	0x8e
 6220 17ae 28180000 		.4byte	0x1828
 6221 17b2 07       		.uleb128 0x7
 6222 17b3 667300   		.ascii	"fs\000"
 6223 17b6 17       		.byte	0x17
 6224 17b7 8F       		.byte	0x8f
 6225 17b8 8D170000 		.4byte	0x178d
 6226 17bc 00       		.byte	0
 6227 17bd 07       		.uleb128 0x7
 6228 17be 696400   		.ascii	"id\000"
 6229 17c1 17       		.byte	0x17
 6230 17c2 90       		.byte	0x90
 6231 17c3 AF150000 		.4byte	0x15af
 6232 17c7 04       		.byte	0x4
 6233 17c8 06       		.uleb128 0x6
 6234 17c9 3D030000 		.4byte	.LASF269
 6235 17cd 17       		.byte	0x17
 6236 17ce 91       		.byte	0x91
 6237 17cf AF150000 		.4byte	0x15af
ARM GAS  /tmp/ccLdaIGa.s 			page 111


 6238 17d3 06       		.byte	0x6
 6239 17d4 06       		.uleb128 0x6
 6240 17d5 D80C0000 		.4byte	.LASF332
 6241 17d9 17       		.byte	0x17
 6242 17da 92       		.byte	0x92
 6243 17db C5150000 		.4byte	0x15c5
 6244 17df 08       		.byte	0x8
 6245 17e0 06       		.uleb128 0x6
 6246 17e1 C7030000 		.4byte	.LASF333
 6247 17e5 17       		.byte	0x17
 6248 17e6 93       		.byte	0x93
 6249 17e7 C5150000 		.4byte	0x15c5
 6250 17eb 0C       		.byte	0xc
 6251 17ec 06       		.uleb128 0x6
 6252 17ed 920C0000 		.4byte	.LASF338
 6253 17f1 17       		.byte	0x17
 6254 17f2 94       		.byte	0x94
 6255 17f3 C5150000 		.4byte	0x15c5
 6256 17f7 10       		.byte	0x10
 6257 17f8 07       		.uleb128 0x7
 6258 17f9 64697200 		.ascii	"dir\000"
 6259 17fd 17       		.byte	0x17
 6260 17fe 95       		.byte	0x95
 6261 17ff 93170000 		.4byte	0x1793
 6262 1803 14       		.byte	0x14
 6263 1804 07       		.uleb128 0x7
 6264 1805 666E00   		.ascii	"fn\000"
 6265 1808 17       		.byte	0x17
 6266 1809 96       		.byte	0x96
 6267 180a 93170000 		.4byte	0x1793
 6268 180e 18       		.byte	0x18
 6269 180f 07       		.uleb128 0x7
 6270 1810 6C666E00 		.ascii	"lfn\000"
 6271 1814 17       		.byte	0x17
 6272 1815 98       		.byte	0x98
 6273 1816 28180000 		.4byte	0x1828
 6274 181a 1C       		.byte	0x1c
 6275 181b 06       		.uleb128 0x6
 6276 181c 40100000 		.4byte	.LASF339
 6277 1820 17       		.byte	0x17
 6278 1821 99       		.byte	0x99
 6279 1822 AF150000 		.4byte	0x15af
 6280 1826 20       		.byte	0x20
 6281 1827 00       		.byte	0
 6282 1828 09       		.uleb128 0x9
 6283 1829 04       		.byte	0x4
 6284 182a BA150000 		.4byte	0x15ba
 6285 182e 27       		.uleb128 0x27
 6286 182f 44495200 		.ascii	"DIR\000"
 6287 1833 17       		.byte	0x17
 6288 1834 9B       		.byte	0x9b
 6289 1835 AA170000 		.4byte	0x17aa
 6290 1839 08       		.uleb128 0x8
 6291 183a 20       		.byte	0x20
 6292 183b 17       		.byte	0x17
 6293 183c A1       		.byte	0xa1
 6294 183d 96180000 		.4byte	0x1896
ARM GAS  /tmp/ccLdaIGa.s 			page 112


 6295 1841 06       		.uleb128 0x6
 6296 1842 180A0000 		.4byte	.LASF323
 6297 1846 17       		.byte	0x17
 6298 1847 A2       		.byte	0xa2
 6299 1848 C5150000 		.4byte	0x15c5
 6300 184c 00       		.byte	0
 6301 184d 06       		.uleb128 0x6
 6302 184e 5B070000 		.4byte	.LASF340
 6303 1852 17       		.byte	0x17
 6304 1853 A3       		.byte	0xa3
 6305 1854 AF150000 		.4byte	0x15af
 6306 1858 04       		.byte	0x4
 6307 1859 06       		.uleb128 0x6
 6308 185a E40F0000 		.4byte	.LASF341
 6309 185e 17       		.byte	0x17
 6310 185f A4       		.byte	0xa4
 6311 1860 AF150000 		.4byte	0x15af
 6312 1864 06       		.byte	0x6
 6313 1865 06       		.uleb128 0x6
 6314 1866 1D0D0000 		.4byte	.LASF342
 6315 186a 17       		.byte	0x17
 6316 186b A5       		.byte	0xa5
 6317 186c A4150000 		.4byte	0x15a4
 6318 1870 08       		.byte	0x8
 6319 1871 06       		.uleb128 0x6
 6320 1872 F6000000 		.4byte	.LASF343
 6321 1876 17       		.byte	0x17
 6322 1877 A6       		.byte	0xa6
 6323 1878 96180000 		.4byte	0x1896
 6324 187c 09       		.byte	0x9
 6325 187d 06       		.uleb128 0x6
 6326 187e D30E0000 		.4byte	.LASF344
 6327 1882 17       		.byte	0x17
 6328 1883 A8       		.byte	0xa8
 6329 1884 A6180000 		.4byte	0x18a6
 6330 1888 18       		.byte	0x18
 6331 1889 06       		.uleb128 0x6
 6332 188a 93010000 		.4byte	.LASF345
 6333 188e 17       		.byte	0x17
 6334 188f A9       		.byte	0xa9
 6335 1890 99150000 		.4byte	0x1599
 6336 1894 1C       		.byte	0x1c
 6337 1895 00       		.byte	0
 6338 1896 14       		.uleb128 0x14
 6339 1897 D0150000 		.4byte	0x15d0
 6340 189b A6180000 		.4byte	0x18a6
 6341 189f 15       		.uleb128 0x15
 6342 18a0 2F040000 		.4byte	0x42f
 6343 18a4 0C       		.byte	0xc
 6344 18a5 00       		.byte	0
 6345 18a6 09       		.uleb128 0x9
 6346 18a7 04       		.byte	0x4
 6347 18a8 D0150000 		.4byte	0x15d0
 6348 18ac 03       		.uleb128 0x3
 6349 18ad A1090000 		.4byte	.LASF346
 6350 18b1 17       		.byte	0x17
 6351 18b2 AB       		.byte	0xab
ARM GAS  /tmp/ccLdaIGa.s 			page 113


 6352 18b3 39180000 		.4byte	0x1839
 6353 18b7 18       		.uleb128 0x18
 6354 18b8 01       		.byte	0x1
 6355 18b9 17       		.byte	0x17
 6356 18ba B1       		.byte	0xb1
 6357 18bb 38190000 		.4byte	0x1938
 6358 18bf 19       		.uleb128 0x19
 6359 18c0 1A130000 		.4byte	.LASF347
 6360 18c4 00       		.sleb128 0
 6361 18c5 19       		.uleb128 0x19
 6362 18c6 91050000 		.4byte	.LASF348
 6363 18ca 01       		.sleb128 1
 6364 18cb 19       		.uleb128 0x19
 6365 18cc CF0B0000 		.4byte	.LASF349
 6366 18d0 02       		.sleb128 2
 6367 18d1 19       		.uleb128 0x19
 6368 18d2 63130000 		.4byte	.LASF350
 6369 18d6 03       		.sleb128 3
 6370 18d7 19       		.uleb128 0x19
 6371 18d8 EE0E0000 		.4byte	.LASF351
 6372 18dc 04       		.sleb128 4
 6373 18dd 19       		.uleb128 0x19
 6374 18de F0130000 		.4byte	.LASF352
 6375 18e2 05       		.sleb128 5
 6376 18e3 19       		.uleb128 0x19
 6377 18e4 13060000 		.4byte	.LASF353
 6378 18e8 06       		.sleb128 6
 6379 18e9 19       		.uleb128 0x19
 6380 18ea 93160000 		.4byte	.LASF354
 6381 18ee 07       		.sleb128 7
 6382 18ef 19       		.uleb128 0x19
 6383 18f0 69110000 		.4byte	.LASF355
 6384 18f4 08       		.sleb128 8
 6385 18f5 19       		.uleb128 0x19
 6386 18f6 BD060000 		.4byte	.LASF356
 6387 18fa 09       		.sleb128 9
 6388 18fb 19       		.uleb128 0x19
 6389 18fc 6B0C0000 		.4byte	.LASF357
 6390 1900 0A       		.sleb128 10
 6391 1901 19       		.uleb128 0x19
 6392 1902 74140000 		.4byte	.LASF358
 6393 1906 0B       		.sleb128 11
 6394 1907 19       		.uleb128 0x19
 6395 1908 A4110000 		.4byte	.LASF359
 6396 190c 0C       		.sleb128 12
 6397 190d 19       		.uleb128 0x19
 6398 190e CF040000 		.4byte	.LASF360
 6399 1912 0D       		.sleb128 13
 6400 1913 19       		.uleb128 0x19
 6401 1914 A4000000 		.4byte	.LASF361
 6402 1918 0E       		.sleb128 14
 6403 1919 19       		.uleb128 0x19
 6404 191a 0C050000 		.4byte	.LASF362
 6405 191e 0F       		.sleb128 15
 6406 191f 19       		.uleb128 0x19
 6407 1920 34140000 		.4byte	.LASF363
 6408 1924 10       		.sleb128 16
ARM GAS  /tmp/ccLdaIGa.s 			page 114


 6409 1925 19       		.uleb128 0x19
 6410 1926 38150000 		.4byte	.LASF364
 6411 192a 11       		.sleb128 17
 6412 192b 19       		.uleb128 0x19
 6413 192c 1C000000 		.4byte	.LASF365
 6414 1930 12       		.sleb128 18
 6415 1931 19       		.uleb128 0x19
 6416 1932 61010000 		.4byte	.LASF366
 6417 1936 13       		.sleb128 19
 6418 1937 00       		.byte	0
 6419 1938 03       		.uleb128 0x3
 6420 1939 9C000000 		.4byte	.LASF367
 6421 193d 17       		.byte	0x17
 6422 193e C6       		.byte	0xc6
 6423 193f B7180000 		.4byte	0x18b7
 6424 1943 18       		.uleb128 0x18
 6425 1944 01       		.byte	0x1
 6426 1945 18       		.byte	0x18
 6427 1946 63       		.byte	0x63
 6428 1947 76190000 		.4byte	0x1976
 6429 194b 19       		.uleb128 0x19
 6430 194c 97100000 		.4byte	.LASF368
 6431 1950 00       		.sleb128 0
 6432 1951 19       		.uleb128 0x19
 6433 1952 F2050000 		.4byte	.LASF369
 6434 1956 01       		.sleb128 1
 6435 1957 19       		.uleb128 0x19
 6436 1958 36050000 		.4byte	.LASF370
 6437 195c 02       		.sleb128 2
 6438 195d 19       		.uleb128 0x19
 6439 195e 50100000 		.4byte	.LASF371
 6440 1962 03       		.sleb128 3
 6441 1963 19       		.uleb128 0x19
 6442 1964 C6070000 		.4byte	.LASF372
 6443 1968 04       		.sleb128 4
 6444 1969 19       		.uleb128 0x19
 6445 196a DD070000 		.4byte	.LASF373
 6446 196e 05       		.sleb128 5
 6447 196f 19       		.uleb128 0x19
 6448 1970 AA030000 		.4byte	.LASF374
 6449 1974 0F       		.sleb128 15
 6450 1975 00       		.byte	0
 6451 1976 03       		.uleb128 0x3
 6452 1977 B4000000 		.4byte	.LASF375
 6453 197b 18       		.byte	0x18
 6454 197c 6B       		.byte	0x6b
 6455 197d 43190000 		.4byte	0x1943
 6456 1981 03       		.uleb128 0x3
 6457 1982 E0050000 		.4byte	.LASF376
 6458 1986 19       		.byte	0x19
 6459 1987 1E       		.byte	0x1e
 6460 1988 8C190000 		.4byte	0x198c
 6461 198c 09       		.uleb128 0x9
 6462 198d 04       		.byte	0x4
 6463 198e 92190000 		.4byte	0x1992
 6464 1992 13       		.uleb128 0x13
 6465 1993 9D190000 		.4byte	0x199d
ARM GAS  /tmp/ccLdaIGa.s 			page 115


 6466 1997 12       		.uleb128 0x12
 6467 1998 D9000000 		.4byte	0xd9
 6468 199c 00       		.byte	0
 6469 199d 03       		.uleb128 0x3
 6470 199e 3E130000 		.4byte	.LASF377
 6471 19a2 19       		.byte	0x19
 6472 19a3 1F       		.byte	0x1f
 6473 19a4 8C150000 		.4byte	0x158c
 6474 19a8 03       		.uleb128 0x3
 6475 19a9 77070000 		.4byte	.LASF378
 6476 19ad 19       		.byte	0x19
 6477 19ae 20       		.byte	0x20
 6478 19af B3190000 		.4byte	0x19b3
 6479 19b3 09       		.uleb128 0x9
 6480 19b4 04       		.byte	0x4
 6481 19b5 B9190000 		.4byte	0x19b9
 6482 19b9 13       		.uleb128 0x13
 6483 19ba C9190000 		.4byte	0x19c9
 6484 19be 12       		.uleb128 0x12
 6485 19bf 86150000 		.4byte	0x1586
 6486 19c3 12       		.uleb128 0x12
 6487 19c4 86150000 		.4byte	0x1586
 6488 19c8 00       		.byte	0
 6489 19c9 03       		.uleb128 0x3
 6490 19ca 420D0000 		.4byte	.LASF379
 6491 19ce 19       		.byte	0x19
 6492 19cf 21       		.byte	0x21
 6493 19d0 D4190000 		.4byte	0x19d4
 6494 19d4 09       		.uleb128 0x9
 6495 19d5 04       		.byte	0x4
 6496 19d6 DA190000 		.4byte	0x19da
 6497 19da 13       		.uleb128 0x13
 6498 19db F9190000 		.4byte	0x19f9
 6499 19df 12       		.uleb128 0x12
 6500 19e0 76190000 		.4byte	0x1976
 6501 19e4 12       		.uleb128 0x12
 6502 19e5 C3000000 		.4byte	0xc3
 6503 19e9 12       		.uleb128 0x12
 6504 19ea C3000000 		.4byte	0xc3
 6505 19ee 12       		.uleb128 0x12
 6506 19ef C3000000 		.4byte	0xc3
 6507 19f3 12       		.uleb128 0x12
 6508 19f4 C3000000 		.4byte	0xc3
 6509 19f8 00       		.byte	0
 6510 19f9 03       		.uleb128 0x3
 6511 19fa 92130000 		.4byte	.LASF380
 6512 19fe 19       		.byte	0x19
 6513 19ff 22       		.byte	0x22
 6514 1a00 8C190000 		.4byte	0x198c
 6515 1a04 08       		.uleb128 0x8
 6516 1a05 08       		.byte	0x8
 6517 1a06 19       		.byte	0x19
 6518 1a07 24       		.byte	0x24
 6519 1a08 251A0000 		.4byte	0x1a25
 6520 1a0c 06       		.uleb128 0x6
 6521 1a0d 1C070000 		.4byte	.LASF381
 6522 1a11 19       		.byte	0x19
ARM GAS  /tmp/ccLdaIGa.s 			page 116


 6523 1a12 25       		.byte	0x25
 6524 1a13 D9000000 		.4byte	0xd9
 6525 1a17 00       		.byte	0
 6526 1a18 06       		.uleb128 0x6
 6527 1a19 D5060000 		.4byte	.LASF268
 6528 1a1d 19       		.byte	0x19
 6529 1a1e 26       		.byte	0x26
 6530 1a1f D9000000 		.4byte	0xd9
 6531 1a23 04       		.byte	0x4
 6532 1a24 00       		.byte	0
 6533 1a25 03       		.uleb128 0x3
 6534 1a26 59020000 		.4byte	.LASF382
 6535 1a2a 19       		.byte	0x19
 6536 1a2b 27       		.byte	0x27
 6537 1a2c 041A0000 		.4byte	0x1a04
 6538 1a30 08       		.uleb128 0x8
 6539 1a31 38       		.byte	0x38
 6540 1a32 19       		.byte	0x19
 6541 1a33 29       		.byte	0x29
 6542 1a34 E11A0000 		.4byte	0x1ae1
 6543 1a38 06       		.uleb128 0x6
 6544 1a39 D5010000 		.4byte	.LASF383
 6545 1a3d 19       		.byte	0x19
 6546 1a3e 2A       		.byte	0x2a
 6547 1a3f 81190000 		.4byte	0x1981
 6548 1a43 00       		.byte	0
 6549 1a44 06       		.uleb128 0x6
 6550 1a45 6F150000 		.4byte	.LASF384
 6551 1a49 19       		.byte	0x19
 6552 1a4a 2B       		.byte	0x2b
 6553 1a4b 9D190000 		.4byte	0x199d
 6554 1a4f 04       		.byte	0x4
 6555 1a50 06       		.uleb128 0x6
 6556 1a51 87030000 		.4byte	.LASF385
 6557 1a55 19       		.byte	0x19
 6558 1a56 2C       		.byte	0x2c
 6559 1a57 A8190000 		.4byte	0x19a8
 6560 1a5b 08       		.byte	0x8
 6561 1a5c 06       		.uleb128 0x6
 6562 1a5d E90A0000 		.4byte	.LASF386
 6563 1a61 19       		.byte	0x19
 6564 1a62 2D       		.byte	0x2d
 6565 1a63 C9190000 		.4byte	0x19c9
 6566 1a67 0C       		.byte	0xc
 6567 1a68 06       		.uleb128 0x6
 6568 1a69 F0010000 		.4byte	.LASF387
 6569 1a6d 19       		.byte	0x19
 6570 1a6e 2E       		.byte	0x2e
 6571 1a6f F9190000 		.4byte	0x19f9
 6572 1a73 10       		.byte	0x10
 6573 1a74 06       		.uleb128 0x6
 6574 1a75 910F0000 		.4byte	.LASF388
 6575 1a79 19       		.byte	0x19
 6576 1a7a 2F       		.byte	0x2f
 6577 1a7b E4000000 		.4byte	0xe4
 6578 1a7f 14       		.byte	0x14
 6579 1a80 06       		.uleb128 0x6
ARM GAS  /tmp/ccLdaIGa.s 			page 117


 6580 1a81 6C0E0000 		.4byte	.LASF389
 6581 1a85 19       		.byte	0x19
 6582 1a86 30       		.byte	0x30
 6583 1a87 93150000 		.4byte	0x1593
 6584 1a8b 18       		.byte	0x18
 6585 1a8c 06       		.uleb128 0x6
 6586 1a8d 820F0000 		.4byte	.LASF390
 6587 1a91 19       		.byte	0x19
 6588 1a92 31       		.byte	0x31
 6589 1a93 86150000 		.4byte	0x1586
 6590 1a97 1C       		.byte	0x1c
 6591 1a98 06       		.uleb128 0x6
 6592 1a99 DE000000 		.4byte	.LASF267
 6593 1a9d 19       		.byte	0x19
 6594 1a9e 32       		.byte	0x32
 6595 1a9f E4000000 		.4byte	0xe4
 6596 1aa3 20       		.byte	0x20
 6597 1aa4 06       		.uleb128 0x6
 6598 1aa5 FC040000 		.4byte	.LASF391
 6599 1aa9 19       		.byte	0x19
 6600 1aaa 33       		.byte	0x33
 6601 1aab E4000000 		.4byte	0xe4
 6602 1aaf 24       		.byte	0x24
 6603 1ab0 06       		.uleb128 0x6
 6604 1ab1 96040000 		.4byte	.LASF392
 6605 1ab5 19       		.byte	0x19
 6606 1ab6 34       		.byte	0x34
 6607 1ab7 B0020000 		.4byte	0x2b0
 6608 1abb 28       		.byte	0x28
 6609 1abc 06       		.uleb128 0x6
 6610 1abd 3E080000 		.4byte	.LASF393
 6611 1ac1 19       		.byte	0x19
 6612 1ac2 35       		.byte	0x35
 6613 1ac3 E4000000 		.4byte	0xe4
 6614 1ac7 2C       		.byte	0x2c
 6615 1ac8 06       		.uleb128 0x6
 6616 1ac9 670B0000 		.4byte	.LASF394
 6617 1acd 19       		.byte	0x19
 6618 1ace 36       		.byte	0x36
 6619 1acf E4000000 		.4byte	0xe4
 6620 1ad3 30       		.byte	0x30
 6621 1ad4 06       		.uleb128 0x6
 6622 1ad5 0D030000 		.4byte	.LASF395
 6623 1ad9 19       		.byte	0x19
 6624 1ada 37       		.byte	0x37
 6625 1adb E11A0000 		.4byte	0x1ae1
 6626 1adf 34       		.byte	0x34
 6627 1ae0 00       		.byte	0
 6628 1ae1 09       		.uleb128 0x9
 6629 1ae2 04       		.byte	0x4
 6630 1ae3 251A0000 		.4byte	0x1a25
 6631 1ae7 03       		.uleb128 0x3
 6632 1ae8 8C020000 		.4byte	.LASF396
 6633 1aec 19       		.byte	0x19
 6634 1aed 38       		.byte	0x38
 6635 1aee 301A0000 		.4byte	0x1a30
 6636 1af2 18       		.uleb128 0x18
ARM GAS  /tmp/ccLdaIGa.s 			page 118


 6637 1af3 01       		.byte	0x1
 6638 1af4 19       		.byte	0x19
 6639 1af5 3E       		.byte	0x3e
 6640 1af6 191B0000 		.4byte	0x1b19
 6641 1afa 19       		.uleb128 0x19
 6642 1afb DB0F0000 		.4byte	.LASF397
 6643 1aff 7F       		.sleb128 -1
 6644 1b00 19       		.uleb128 0x19
 6645 1b01 33000000 		.4byte	.LASF398
 6646 1b05 7E       		.sleb128 -2
 6647 1b06 19       		.uleb128 0x19
 6648 1b07 4A000000 		.4byte	.LASF399
 6649 1b0b 7D       		.sleb128 -3
 6650 1b0c 19       		.uleb128 0x19
 6651 1b0d CD080000 		.4byte	.LASF400
 6652 1b11 7C       		.sleb128 -4
 6653 1b12 19       		.uleb128 0x19
 6654 1b13 350C0000 		.4byte	.LASF401
 6655 1b17 7B       		.sleb128 -5
 6656 1b18 00       		.byte	0
 6657 1b19 03       		.uleb128 0x3
 6658 1b1a E8100000 		.4byte	.LASF402
 6659 1b1e 19       		.byte	0x19
 6660 1b1f 45       		.byte	0x45
 6661 1b20 F21A0000 		.4byte	0x1af2
 6662 1b24 18       		.uleb128 0x18
 6663 1b25 01       		.byte	0x1
 6664 1b26 19       		.byte	0x19
 6665 1b27 48       		.byte	0x48
 6666 1b28 451B0000 		.4byte	0x1b45
 6667 1b2c 19       		.uleb128 0x19
 6668 1b2d C3100000 		.4byte	.LASF403
 6669 1b31 00       		.sleb128 0
 6670 1b32 19       		.uleb128 0x19
 6671 1b33 70060000 		.4byte	.LASF404
 6672 1b37 01       		.sleb128 1
 6673 1b38 19       		.uleb128 0x19
 6674 1b39 D90A0000 		.4byte	.LASF405
 6675 1b3d 02       		.sleb128 2
 6676 1b3e 19       		.uleb128 0x19
 6677 1b3f 170F0000 		.4byte	.LASF406
 6678 1b43 03       		.sleb128 3
 6679 1b44 00       		.byte	0
 6680 1b45 03       		.uleb128 0x3
 6681 1b46 8C110000 		.4byte	.LASF407
 6682 1b4a 19       		.byte	0x19
 6683 1b4b 4E       		.byte	0x4e
 6684 1b4c 241B0000 		.4byte	0x1b24
 6685 1b50 18       		.uleb128 0x18
 6686 1b51 01       		.byte	0x1
 6687 1b52 1A       		.byte	0x1a
 6688 1b53 4B       		.byte	0x4b
 6689 1b54 6B1B0000 		.4byte	0x1b6b
 6690 1b58 19       		.uleb128 0x19
 6691 1b59 A80E0000 		.4byte	.LASF408
 6692 1b5d 00       		.sleb128 0
 6693 1b5e 19       		.uleb128 0x19
ARM GAS  /tmp/ccLdaIGa.s 			page 119


 6694 1b5f 42090000 		.4byte	.LASF409
 6695 1b63 01       		.sleb128 1
 6696 1b64 19       		.uleb128 0x19
 6697 1b65 9A110000 		.4byte	.LASF410
 6698 1b69 02       		.sleb128 2
 6699 1b6a 00       		.byte	0
 6700 1b6b 03       		.uleb128 0x3
 6701 1b6c CD0C0000 		.4byte	.LASF411
 6702 1b70 1A       		.byte	0x1a
 6703 1b71 4F       		.byte	0x4f
 6704 1b72 501B0000 		.4byte	0x1b50
 6705 1b76 03       		.uleb128 0x3
 6706 1b77 85140000 		.4byte	.LASF412
 6707 1b7b 1A       		.byte	0x1a
 6708 1b7c 54       		.byte	0x54
 6709 1b7d 811B0000 		.4byte	0x1b81
 6710 1b81 28       		.uleb128 0x28
 6711 1b82 85140000 		.4byte	.LASF412
 6712 1b86 5802     		.2byte	0x258
 6713 1b88 1A       		.byte	0x1a
 6714 1b89 93       		.byte	0x93
 6715 1b8a EF1B0000 		.4byte	0x1bef
 6716 1b8e 07       		.uleb128 0x7
 6717 1b8f 766D7400 		.ascii	"vmt\000"
 6718 1b93 1A       		.byte	0x1a
 6719 1b94 95       		.byte	0x95
 6720 1b95 941C0000 		.4byte	0x1c94
 6721 1b99 00       		.byte	0
 6722 1b9a 06       		.uleb128 0x6
 6723 1b9b 09000000 		.4byte	.LASF413
 6724 1b9f 1A       		.byte	0x1a
 6725 1ba0 96       		.byte	0x96
 6726 1ba1 6B050000 		.4byte	0x56b
 6727 1ba5 04       		.byte	0x4
 6728 1ba6 06       		.uleb128 0x6
 6729 1ba7 8C0C0000 		.4byte	.LASF101
 6730 1bab 1A       		.byte	0x1a
 6731 1bac 96       		.byte	0x96
 6732 1bad 6B1B0000 		.4byte	0x1b6b
 6733 1bb1 08       		.byte	0x8
 6734 1bb2 06       		.uleb128 0x6
 6735 1bb3 AF0D0000 		.4byte	.LASF414
 6736 1bb7 1A       		.byte	0x1a
 6737 1bb8 96       		.byte	0x96
 6738 1bb9 83060000 		.4byte	0x683
 6739 1bbd 0C       		.byte	0xc
 6740 1bbe 06       		.uleb128 0x6
 6741 1bbf 290A0000 		.4byte	.LASF415
 6742 1bc3 1A       		.byte	0x1a
 6743 1bc4 96       		.byte	0x96
 6744 1bc5 8E060000 		.4byte	0x68e
 6745 1bc9 30       		.byte	0x30
 6746 1bca 07       		.uleb128 0x7
 6747 1bcb 696200   		.ascii	"ib\000"
 6748 1bce 1A       		.byte	0x1a
 6749 1bcf 96       		.byte	0x96
 6750 1bd0 9F1C0000 		.4byte	0x1c9f
ARM GAS  /tmp/ccLdaIGa.s 			page 120


 6751 1bd4 54       		.byte	0x54
 6752 1bd5 1F       		.uleb128 0x1f
 6753 1bd6 6F6200   		.ascii	"ob\000"
 6754 1bd9 1A       		.byte	0x1a
 6755 1bda 96       		.byte	0x96
 6756 1bdb 9F1C0000 		.4byte	0x1c9f
 6757 1bdf 5401     		.2byte	0x154
 6758 1be1 1E       		.uleb128 0x1e
 6759 1be2 6E100000 		.4byte	.LASF102
 6760 1be6 1A       		.byte	0x1a
 6761 1be7 96       		.byte	0x96
 6762 1be8 AF1C0000 		.4byte	0x1caf
 6763 1bec 5402     		.2byte	0x254
 6764 1bee 00       		.byte	0
 6765 1bef 08       		.uleb128 0x8
 6766 1bf0 08       		.byte	0x8
 6767 1bf1 1A       		.byte	0x1a
 6768 1bf2 5B       		.byte	0x5b
 6769 1bf3 1C1C0000 		.4byte	0x1c1c
 6770 1bf7 06       		.uleb128 0x6
 6771 1bf8 02140000 		.4byte	.LASF416
 6772 1bfc 1A       		.byte	0x1a
 6773 1bfd 5F       		.byte	0x5f
 6774 1bfe 560A0000 		.4byte	0xa56
 6775 1c02 00       		.byte	0
 6776 1c03 06       		.uleb128 0x6
 6777 1c04 33090000 		.4byte	.LASF417
 6778 1c08 1A       		.byte	0x1a
 6779 1c09 63       		.byte	0x63
 6780 1c0a 52090000 		.4byte	0x952
 6781 1c0e 04       		.byte	0x4
 6782 1c0f 06       		.uleb128 0x6
 6783 1c10 EC020000 		.4byte	.LASF418
 6784 1c14 1A       		.byte	0x1a
 6785 1c15 67       		.byte	0x67
 6786 1c16 52090000 		.4byte	0x952
 6787 1c1a 05       		.byte	0x5
 6788 1c1b 00       		.byte	0
 6789 1c1c 03       		.uleb128 0x3
 6790 1c1d 93140000 		.4byte	.LASF419
 6791 1c21 1A       		.byte	0x1a
 6792 1c22 68       		.byte	0x68
 6793 1c23 EF1B0000 		.4byte	0x1bef
 6794 1c27 05       		.uleb128 0x5
 6795 1c28 C5050000 		.4byte	.LASF420
 6796 1c2c 20       		.byte	0x20
 6797 1c2d 1A       		.byte	0x1a
 6798 1c2e 88       		.byte	0x88
 6799 1c2f 941C0000 		.4byte	0x1c94
 6800 1c33 06       		.uleb128 0x6
 6801 1c34 A90D0000 		.4byte	.LASF97
 6802 1c38 1A       		.byte	0x1a
 6803 1c39 89       		.byte	0x89
 6804 1c3a FA060000 		.4byte	0x6fa
 6805 1c3e 00       		.byte	0
 6806 1c3f 06       		.uleb128 0x6
 6807 1c40 05010000 		.4byte	.LASF98
ARM GAS  /tmp/ccLdaIGa.s 			page 121


 6808 1c44 1A       		.byte	0x1a
 6809 1c45 89       		.byte	0x89
 6810 1c46 19070000 		.4byte	0x719
 6811 1c4a 04       		.byte	0x4
 6812 1c4b 07       		.uleb128 0x7
 6813 1c4c 70757400 		.ascii	"put\000"
 6814 1c50 1A       		.byte	0x1a
 6815 1c51 89       		.byte	0x89
 6816 1c52 33070000 		.4byte	0x733
 6817 1c56 08       		.byte	0x8
 6818 1c57 07       		.uleb128 0x7
 6819 1c58 67657400 		.ascii	"get\000"
 6820 1c5c 1A       		.byte	0x1a
 6821 1c5d 89       		.byte	0x89
 6822 1c5e CE050000 		.4byte	0x5ce
 6823 1c62 0C       		.byte	0xc
 6824 1c63 06       		.uleb128 0x6
 6825 1c64 810B0000 		.4byte	.LASF421
 6826 1c68 1A       		.byte	0x1a
 6827 1c69 89       		.byte	0x89
 6828 1c6a B2070000 		.4byte	0x7b2
 6829 1c6e 10       		.byte	0x10
 6830 1c6f 06       		.uleb128 0x6
 6831 1c70 850D0000 		.4byte	.LASF422
 6832 1c74 1A       		.byte	0x1a
 6833 1c75 89       		.byte	0x89
 6834 1c76 CC070000 		.4byte	0x7cc
 6835 1c7a 14       		.byte	0x14
 6836 1c7b 06       		.uleb128 0x6
 6837 1c7c 56140000 		.4byte	.LASF423
 6838 1c80 1A       		.byte	0x1a
 6839 1c81 89       		.byte	0x89
 6840 1c82 F0070000 		.4byte	0x7f0
 6841 1c86 18       		.byte	0x18
 6842 1c87 06       		.uleb128 0x6
 6843 1c88 CB0A0000 		.4byte	.LASF424
 6844 1c8c 1A       		.byte	0x1a
 6845 1c8d 89       		.byte	0x89
 6846 1c8e 14080000 		.4byte	0x814
 6847 1c92 1C       		.byte	0x1c
 6848 1c93 00       		.byte	0
 6849 1c94 09       		.uleb128 0x9
 6850 1c95 04       		.byte	0x4
 6851 1c96 9A1C0000 		.4byte	0x1c9a
 6852 1c9a 10       		.uleb128 0x10
 6853 1c9b 271C0000 		.4byte	0x1c27
 6854 1c9f 14       		.uleb128 0x14
 6855 1ca0 C3000000 		.4byte	0xc3
 6856 1ca4 AF1C0000 		.4byte	0x1caf
 6857 1ca8 15       		.uleb128 0x15
 6858 1ca9 2F040000 		.4byte	0x42f
 6859 1cad FF       		.byte	0xff
 6860 1cae 00       		.byte	0
 6861 1caf 09       		.uleb128 0x9
 6862 1cb0 04       		.byte	0x4
 6863 1cb1 B51C0000 		.4byte	0x1cb5
 6864 1cb5 10       		.uleb128 0x10
ARM GAS  /tmp/ccLdaIGa.s 			page 122


 6865 1cb6 1C1C0000 		.4byte	0x1c1c
 6866 1cba 18       		.uleb128 0x18
 6867 1cbb 01       		.byte	0x1
 6868 1cbc 1B       		.byte	0x1b
 6869 1cbd 4D       		.byte	0x4d
 6870 1cbe D51C0000 		.4byte	0x1cd5
 6871 1cc2 19       		.uleb128 0x19
 6872 1cc3 C4040000 		.4byte	.LASF425
 6873 1cc7 00       		.sleb128 0
 6874 1cc8 19       		.uleb128 0x19
 6875 1cc9 EE0B0000 		.4byte	.LASF426
 6876 1ccd 01       		.sleb128 1
 6877 1cce 19       		.uleb128 0x19
 6878 1ccf D10F0000 		.4byte	.LASF427
 6879 1cd3 02       		.sleb128 2
 6880 1cd4 00       		.byte	0
 6881 1cd5 03       		.uleb128 0x3
 6882 1cd6 81020000 		.4byte	.LASF428
 6883 1cda 1B       		.byte	0x1b
 6884 1cdb 51       		.byte	0x51
 6885 1cdc BA1C0000 		.4byte	0x1cba
 6886 1ce0 03       		.uleb128 0x3
 6887 1ce1 98020000 		.4byte	.LASF429
 6888 1ce5 1B       		.byte	0x1b
 6889 1ce6 56       		.byte	0x56
 6890 1ce7 EB1C0000 		.4byte	0x1ceb
 6891 1ceb 05       		.uleb128 0x5
 6892 1cec 98020000 		.4byte	.LASF429
 6893 1cf0 D8       		.byte	0xd8
 6894 1cf1 1B       		.byte	0x1b
 6895 1cf2 95       		.byte	0x95
 6896 1cf3 561D0000 		.4byte	0x1d56
 6897 1cf7 07       		.uleb128 0x7
 6898 1cf8 766D7400 		.ascii	"vmt\000"
 6899 1cfc 1B       		.byte	0x1b
 6900 1cfd 97       		.byte	0x97
 6901 1cfe FB1D0000 		.4byte	0x1dfb
 6902 1d02 00       		.byte	0
 6903 1d03 06       		.uleb128 0x6
 6904 1d04 09000000 		.4byte	.LASF413
 6905 1d08 1B       		.byte	0x1b
 6906 1d09 98       		.byte	0x98
 6907 1d0a 6B050000 		.4byte	0x56b
 6908 1d0e 04       		.byte	0x4
 6909 1d0f 06       		.uleb128 0x6
 6910 1d10 8C0C0000 		.4byte	.LASF101
 6911 1d14 1B       		.byte	0x1b
 6912 1d15 98       		.byte	0x98
 6913 1d16 D51C0000 		.4byte	0x1cd5
 6914 1d1a 08       		.byte	0x8
 6915 1d1b 06       		.uleb128 0x6
 6916 1d1c AF0D0000 		.4byte	.LASF414
 6917 1d20 1B       		.byte	0x1b
 6918 1d21 98       		.byte	0x98
 6919 1d22 83060000 		.4byte	0x683
 6920 1d26 0C       		.byte	0xc
 6921 1d27 06       		.uleb128 0x6
ARM GAS  /tmp/ccLdaIGa.s 			page 123


 6922 1d28 290A0000 		.4byte	.LASF415
 6923 1d2c 1B       		.byte	0x1b
 6924 1d2d 98       		.byte	0x98
 6925 1d2e 8E060000 		.4byte	0x68e
 6926 1d32 30       		.byte	0x30
 6927 1d33 07       		.uleb128 0x7
 6928 1d34 696200   		.ascii	"ib\000"
 6929 1d37 1B       		.byte	0x1b
 6930 1d38 98       		.byte	0x98
 6931 1d39 061E0000 		.4byte	0x1e06
 6932 1d3d 54       		.byte	0x54
 6933 1d3e 07       		.uleb128 0x7
 6934 1d3f 6F6200   		.ascii	"ob\000"
 6935 1d42 1B       		.byte	0x1b
 6936 1d43 98       		.byte	0x98
 6937 1d44 061E0000 		.4byte	0x1e06
 6938 1d48 94       		.byte	0x94
 6939 1d49 06       		.uleb128 0x6
 6940 1d4a 6E100000 		.4byte	.LASF102
 6941 1d4e 1B       		.byte	0x1b
 6942 1d4f 98       		.byte	0x98
 6943 1d50 161E0000 		.4byte	0x1e16
 6944 1d54 D4       		.byte	0xd4
 6945 1d55 00       		.byte	0
 6946 1d56 08       		.uleb128 0x8
 6947 1d57 08       		.byte	0x8
 6948 1d58 1B       		.byte	0x1b
 6949 1d59 5D       		.byte	0x5d
 6950 1d5a 831D0000 		.4byte	0x1d83
 6951 1d5e 06       		.uleb128 0x6
 6952 1d5f 02140000 		.4byte	.LASF416
 6953 1d63 1B       		.byte	0x1b
 6954 1d64 61       		.byte	0x61
 6955 1d65 560A0000 		.4byte	0xa56
 6956 1d69 00       		.byte	0
 6957 1d6a 06       		.uleb128 0x6
 6958 1d6b 33090000 		.4byte	.LASF417
 6959 1d6f 1B       		.byte	0x1b
 6960 1d70 65       		.byte	0x65
 6961 1d71 52090000 		.4byte	0x952
 6962 1d75 04       		.byte	0x4
 6963 1d76 06       		.uleb128 0x6
 6964 1d77 EC020000 		.4byte	.LASF418
 6965 1d7b 1B       		.byte	0x1b
 6966 1d7c 69       		.byte	0x69
 6967 1d7d 52090000 		.4byte	0x952
 6968 1d81 05       		.byte	0x5
 6969 1d82 00       		.byte	0
 6970 1d83 03       		.uleb128 0x3
 6971 1d84 7E0C0000 		.4byte	.LASF430
 6972 1d88 1B       		.byte	0x1b
 6973 1d89 6A       		.byte	0x6a
 6974 1d8a 561D0000 		.4byte	0x1d56
 6975 1d8e 05       		.uleb128 0x5
 6976 1d8f 9D160000 		.4byte	.LASF431
 6977 1d93 20       		.byte	0x20
 6978 1d94 1B       		.byte	0x1b
ARM GAS  /tmp/ccLdaIGa.s 			page 124


 6979 1d95 8A       		.byte	0x8a
 6980 1d96 FB1D0000 		.4byte	0x1dfb
 6981 1d9a 06       		.uleb128 0x6
 6982 1d9b A90D0000 		.4byte	.LASF97
 6983 1d9f 1B       		.byte	0x1b
 6984 1da0 8B       		.byte	0x8b
 6985 1da1 FA060000 		.4byte	0x6fa
 6986 1da5 00       		.byte	0
 6987 1da6 06       		.uleb128 0x6
 6988 1da7 05010000 		.4byte	.LASF98
 6989 1dab 1B       		.byte	0x1b
 6990 1dac 8B       		.byte	0x8b
 6991 1dad 19070000 		.4byte	0x719
 6992 1db1 04       		.byte	0x4
 6993 1db2 07       		.uleb128 0x7
 6994 1db3 70757400 		.ascii	"put\000"
 6995 1db7 1B       		.byte	0x1b
 6996 1db8 8B       		.byte	0x8b
 6997 1db9 33070000 		.4byte	0x733
 6998 1dbd 08       		.byte	0x8
 6999 1dbe 07       		.uleb128 0x7
 7000 1dbf 67657400 		.ascii	"get\000"
 7001 1dc3 1B       		.byte	0x1b
 7002 1dc4 8B       		.byte	0x8b
 7003 1dc5 CE050000 		.4byte	0x5ce
 7004 1dc9 0C       		.byte	0xc
 7005 1dca 06       		.uleb128 0x6
 7006 1dcb 810B0000 		.4byte	.LASF421
 7007 1dcf 1B       		.byte	0x1b
 7008 1dd0 8B       		.byte	0x8b
 7009 1dd1 B2070000 		.4byte	0x7b2
 7010 1dd5 10       		.byte	0x10
 7011 1dd6 06       		.uleb128 0x6
 7012 1dd7 850D0000 		.4byte	.LASF422
 7013 1ddb 1B       		.byte	0x1b
 7014 1ddc 8B       		.byte	0x8b
 7015 1ddd CC070000 		.4byte	0x7cc
 7016 1de1 14       		.byte	0x14
 7017 1de2 06       		.uleb128 0x6
 7018 1de3 56140000 		.4byte	.LASF423
 7019 1de7 1B       		.byte	0x1b
 7020 1de8 8B       		.byte	0x8b
 7021 1de9 F0070000 		.4byte	0x7f0
 7022 1ded 18       		.byte	0x18
 7023 1dee 06       		.uleb128 0x6
 7024 1def CB0A0000 		.4byte	.LASF424
 7025 1df3 1B       		.byte	0x1b
 7026 1df4 8B       		.byte	0x8b
 7027 1df5 14080000 		.4byte	0x814
 7028 1df9 1C       		.byte	0x1c
 7029 1dfa 00       		.byte	0
 7030 1dfb 09       		.uleb128 0x9
 7031 1dfc 04       		.byte	0x4
 7032 1dfd 011E0000 		.4byte	0x1e01
 7033 1e01 10       		.uleb128 0x10
 7034 1e02 8E1D0000 		.4byte	0x1d8e
 7035 1e06 14       		.uleb128 0x14
ARM GAS  /tmp/ccLdaIGa.s 			page 125


 7036 1e07 C3000000 		.4byte	0xc3
 7037 1e0b 161E0000 		.4byte	0x1e16
 7038 1e0f 15       		.uleb128 0x15
 7039 1e10 2F040000 		.4byte	0x42f
 7040 1e14 3F       		.byte	0x3f
 7041 1e15 00       		.byte	0
 7042 1e16 09       		.uleb128 0x9
 7043 1e17 04       		.byte	0x4
 7044 1e18 1C1E0000 		.4byte	0x1e1c
 7045 1e1c 10       		.uleb128 0x10
 7046 1e1d 831D0000 		.4byte	0x1d83
 7047 1e21 09       		.uleb128 0x9
 7048 1e22 04       		.byte	0x4
 7049 1e23 B6050000 		.4byte	0x5b6
 7050 1e27 29       		.uleb128 0x29
 7051 1e28 770B0000 		.4byte	.LASF478
 7052 1e2c 01       		.byte	0x1
 7053 1e2d 9201     		.2byte	0x192
 7054 1e2f 01       		.byte	0x1
 7055 1e30 4F1E0000 		.4byte	0x1e4f
 7056 1e34 2A       		.uleb128 0x2a
 7057 1e35 65727200 		.ascii	"err\000"
 7058 1e39 01       		.byte	0x1
 7059 1e3a 9301     		.2byte	0x193
 7060 1e3c 38190000 		.4byte	0x1938
 7061 1e40 2B       		.uleb128 0x2b
 7062 1e41 2A       		.uleb128 0x2a
 7063 1e42 666E6F00 		.ascii	"fno\000"
 7064 1e46 01       		.byte	0x1
 7065 1e47 9A01     		.2byte	0x19a
 7066 1e49 AC180000 		.4byte	0x18ac
 7067 1e4d 00       		.byte	0
 7068 1e4e 00       		.byte	0
 7069 1e4f 2C       		.uleb128 0x2c
 7070 1e50 F8110000 		.4byte	.LASF496
 7071 1e54 01       		.byte	0x1
 7072 1e55 62       		.byte	0x62
 7073 1e56 25000000 		.4byte	0x25
 7074 1e5a 01       		.byte	0x1
 7075 1e5b 2D       		.uleb128 0x2d
 7076 1e5c 01020000 		.4byte	.LASF522
 7077 1e60 01       		.byte	0x1
 7078 1e61 B5       		.byte	0xb5
 7079 1e62 38190000 		.4byte	0x1938
 7080 1e66 01       		.byte	0x1
 7081 1e67 D01E0000 		.4byte	0x1ed0
 7082 1e6b 2E       		.uleb128 0x2e
 7083 1e6c B30C0000 		.4byte	.LASF523
 7084 1e70 01       		.byte	0x1
 7085 1e71 B5       		.byte	0xb5
 7086 1e72 211E0000 		.4byte	0x1e21
 7087 1e76 2F       		.uleb128 0x2f
 7088 1e77 72657300 		.ascii	"res\000"
 7089 1e7b 01       		.byte	0x1
 7090 1e7c B6       		.byte	0xb6
 7091 1e7d 38190000 		.4byte	0x1938
 7092 1e81 2F       		.uleb128 0x2f
ARM GAS  /tmp/ccLdaIGa.s 			page 126


 7093 1e82 666E6F00 		.ascii	"fno\000"
 7094 1e86 01       		.byte	0x1
 7095 1e87 B7       		.byte	0xb7
 7096 1e88 AC180000 		.4byte	0x18ac
 7097 1e8c 2F       		.uleb128 0x2f
 7098 1e8d 64697200 		.ascii	"dir\000"
 7099 1e91 01       		.byte	0x1
 7100 1e92 B8       		.byte	0xb8
 7101 1e93 2E180000 		.4byte	0x182e
 7102 1e97 2F       		.uleb128 0x2f
 7103 1e98 6900     		.ascii	"i\000"
 7104 1e9a 01       		.byte	0x1
 7105 1e9b B9       		.byte	0xb9
 7106 1e9c 25000000 		.4byte	0x25
 7107 1ea0 2F       		.uleb128 0x2f
 7108 1ea1 666E00   		.ascii	"fn\000"
 7109 1ea4 01       		.byte	0x1
 7110 1ea5 BA       		.byte	0xba
 7111 1ea6 211E0000 		.4byte	0x1e21
 7112 1eaa 2F       		.uleb128 0x2f
 7113 1eab 6D736700 		.ascii	"msg\000"
 7114 1eaf 01       		.byte	0x1
 7115 1eb0 BB       		.byte	0xbb
 7116 1eb1 211E0000 		.4byte	0x1e21
 7117 1eb5 30       		.uleb128 0x30
 7118 1eb6 C41E0000 		.4byte	0x1ec4
 7119 1eba 2F       		.uleb128 0x2f
 7120 1ebb 6C00     		.ascii	"l\000"
 7121 1ebd 01       		.byte	0x1
 7122 1ebe DA       		.byte	0xda
 7123 1ebf 25000000 		.4byte	0x25
 7124 1ec3 00       		.byte	0
 7125 1ec4 2B       		.uleb128 0x2b
 7126 1ec5 2F       		.uleb128 0x2f
 7127 1ec6 6C00     		.ascii	"l\000"
 7128 1ec8 01       		.byte	0x1
 7129 1ec9 EC       		.byte	0xec
 7130 1eca 25000000 		.4byte	0x25
 7131 1ece 00       		.byte	0
 7132 1ecf 00       		.byte	0
 7133 1ed0 31       		.uleb128 0x31
 7134 1ed1 B2130000 		.4byte	.LASF524
 7135 1ed5 01       		.byte	0x1
 7136 1ed6 36       		.byte	0x36
 7137 1ed7 38010000 		.4byte	0x138
 7138 1edb 00000000 		.4byte	.LFB131
 7139 1edf 48000000 		.4byte	.LFE131-.LFB131
 7140 1ee3 01       		.uleb128 0x1
 7141 1ee4 9C       		.byte	0x9c
 7142 1ee5 381F0000 		.4byte	0x1f38
 7143 1ee9 32       		.uleb128 0x32
 7144 1eea 61726700 		.ascii	"arg\000"
 7145 1eee 01       		.byte	0x1
 7146 1eef 36       		.byte	0x36
 7147 1ef0 B0020000 		.4byte	0x2b0
 7148 1ef4 00000000 		.4byte	.LLST0
 7149 1ef8 33       		.uleb128 0x33
ARM GAS  /tmp/ccLdaIGa.s 			page 127


 7150 1ef9 7200     		.ascii	"r\000"
 7151 1efb 01       		.byte	0x1
 7152 1efc 3B       		.byte	0x3b
 7153 1efd 381F0000 		.4byte	0x1f38
 7154 1f01 02       		.uleb128 0x2
 7155 1f02 91       		.byte	0x91
 7156 1f03 74       		.sleb128 -12
 7157 1f04 34       		.uleb128 0x34
 7158 1f05 1E000000 		.4byte	.LVL2
 7159 1f09 02       		.uleb128 0x2
 7160 1f0a 74       		.byte	0x74
 7161 1f0b 00       		.sleb128 0
 7162 1f0c 281F0000 		.4byte	0x1f28
 7163 1f10 35       		.uleb128 0x35
 7164 1f11 01       		.uleb128 0x1
 7165 1f12 53       		.byte	0x53
 7166 1f13 02       		.uleb128 0x2
 7167 1f14 09       		.byte	0x9
 7168 1f15 FF       		.byte	0xff
 7169 1f16 35       		.uleb128 0x35
 7170 1f17 01       		.uleb128 0x1
 7171 1f18 52       		.byte	0x52
 7172 1f19 01       		.uleb128 0x1
 7173 1f1a 34       		.byte	0x34
 7174 1f1b 35       		.uleb128 0x35
 7175 1f1c 01       		.uleb128 0x1
 7176 1f1d 51       		.byte	0x51
 7177 1f1e 02       		.uleb128 0x2
 7178 1f1f 91       		.byte	0x91
 7179 1f20 74       		.sleb128 -12
 7180 1f21 35       		.uleb128 0x35
 7181 1f22 01       		.uleb128 0x1
 7182 1f23 50       		.byte	0x50
 7183 1f24 02       		.uleb128 0x2
 7184 1f25 75       		.byte	0x75
 7185 1f26 00       		.sleb128 0
 7186 1f27 00       		.byte	0
 7187 1f28 36       		.uleb128 0x36
 7188 1f29 3A000000 		.4byte	.LVL3
 7189 1f2d 512D0000 		.4byte	0x2d51
 7190 1f31 35       		.uleb128 0x35
 7191 1f32 01       		.uleb128 0x1
 7192 1f33 50       		.byte	0x50
 7193 1f34 01       		.uleb128 0x1
 7194 1f35 32       		.byte	0x32
 7195 1f36 00       		.byte	0
 7196 1f37 00       		.byte	0
 7197 1f38 14       		.uleb128 0x14
 7198 1f39 C3000000 		.4byte	0xc3
 7199 1f3d 481F0000 		.4byte	0x1f48
 7200 1f41 15       		.uleb128 0x15
 7201 1f42 2F040000 		.4byte	0x42f
 7202 1f46 03       		.byte	0x3
 7203 1f47 00       		.byte	0
 7204 1f48 37       		.uleb128 0x37
 7205 1f49 5B1E0000 		.4byte	0x1e5b
 7206 1f4d 50000000 		.4byte	.LFB146
ARM GAS  /tmp/ccLdaIGa.s 			page 128


 7207 1f51 78010000 		.4byte	.LFE146-.LFB146
 7208 1f55 01       		.uleb128 0x1
 7209 1f56 9C       		.byte	0x9c
 7210 1f57 96200000 		.4byte	0x2096
 7211 1f5b 38       		.uleb128 0x38
 7212 1f5c 761E0000 		.4byte	0x1e76
 7213 1f60 21000000 		.4byte	.LLST1
 7214 1f64 39       		.uleb128 0x39
 7215 1f65 811E0000 		.4byte	0x1e81
 7216 1f69 03       		.uleb128 0x3
 7217 1f6a 91       		.byte	0x91
 7218 1f6b 9C7F     		.sleb128 -100
 7219 1f6d 39       		.uleb128 0x39
 7220 1f6e 8C1E0000 		.4byte	0x1e8c
 7221 1f72 03       		.uleb128 0x3
 7222 1f73 91       		.byte	0x91
 7223 1f74 BC7F     		.sleb128 -68
 7224 1f76 38       		.uleb128 0x38
 7225 1f77 971E0000 		.4byte	0x1e97
 7226 1f7b 76000000 		.4byte	.LLST2
 7227 1f7f 38       		.uleb128 0x38
 7228 1f80 A01E0000 		.4byte	0x1ea0
 7229 1f84 94000000 		.4byte	.LLST3
 7230 1f88 3A       		.uleb128 0x3a
 7231 1f89 AA1E0000 		.4byte	0x1eaa
 7232 1f8d 3B       		.uleb128 0x3b
 7233 1f8e 6B1E0000 		.4byte	0x1e6b
 7234 1f92 3C       		.uleb128 0x3c
 7235 1f93 00000000 		.4byte	.Ldebug_ranges0+0
 7236 1f97 F31F0000 		.4byte	0x1ff3
 7237 1f9b 38       		.uleb128 0x38
 7238 1f9c C51E0000 		.4byte	0x1ec5
 7239 1fa0 BD000000 		.4byte	.LLST4
 7240 1fa4 3D       		.uleb128 0x3d
 7241 1fa5 7A010000 		.4byte	.LVL25
 7242 1fa9 762D0000 		.4byte	0x2d76
 7243 1fad 3E       		.uleb128 0x3e
 7244 1fae 8A010000 		.4byte	.LVL26
 7245 1fb2 762D0000 		.4byte	0x2d76
 7246 1fb6 CC1F0000 		.4byte	0x1fcc
 7247 1fba 35       		.uleb128 0x35
 7248 1fbb 01       		.uleb128 0x1
 7249 1fbc 51       		.byte	0x51
 7250 1fbd 02       		.uleb128 0x2
 7251 1fbe 74       		.byte	0x74
 7252 1fbf 00       		.sleb128 0
 7253 1fc0 35       		.uleb128 0x35
 7254 1fc1 01       		.uleb128 0x1
 7255 1fc2 50       		.byte	0x50
 7256 1fc3 07       		.uleb128 0x7
 7257 1fc4 79       		.byte	0x79
 7258 1fc5 00       		.sleb128 0
 7259 1fc6 76       		.byte	0x76
 7260 1fc7 00       		.sleb128 0
 7261 1fc8 22       		.byte	0x22
 7262 1fc9 23       		.byte	0x23
 7263 1fca 0C       		.uleb128 0xc
ARM GAS  /tmp/ccLdaIGa.s 			page 129


 7264 1fcb 00       		.byte	0
 7265 1fcc 3E       		.uleb128 0x3e
 7266 1fcd 94010000 		.4byte	.LVL28
 7267 1fd1 902D0000 		.4byte	0x2d90
 7268 1fd5 E01F0000 		.4byte	0x1fe0
 7269 1fd9 35       		.uleb128 0x35
 7270 1fda 01       		.uleb128 0x1
 7271 1fdb 50       		.byte	0x50
 7272 1fdc 02       		.uleb128 0x2
 7273 1fdd 79       		.byte	0x79
 7274 1fde 0C       		.sleb128 12
 7275 1fdf 00       		.byte	0
 7276 1fe0 3F       		.uleb128 0x3f
 7277 1fe1 A2010000 		.4byte	.LVL30
 7278 1fe5 35       		.uleb128 0x35
 7279 1fe6 01       		.uleb128 0x1
 7280 1fe7 51       		.byte	0x51
 7281 1fe8 02       		.uleb128 0x2
 7282 1fe9 79       		.byte	0x79
 7283 1fea 00       		.sleb128 0
 7284 1feb 35       		.uleb128 0x35
 7285 1fec 01       		.uleb128 0x1
 7286 1fed 50       		.byte	0x50
 7287 1fee 02       		.uleb128 0x2
 7288 1fef 74       		.byte	0x74
 7289 1ff0 00       		.sleb128 0
 7290 1ff1 00       		.byte	0
 7291 1ff2 00       		.byte	0
 7292 1ff3 40       		.uleb128 0x40
 7293 1ff4 BC000000 		.4byte	.LBB9
 7294 1ff8 74000000 		.4byte	.LBE9-.LBB9
 7295 1ffc 35200000 		.4byte	0x2035
 7296 2000 38       		.uleb128 0x38
 7297 2001 BA1E0000 		.4byte	0x1eba
 7298 2005 DD000000 		.4byte	.LLST5
 7299 2009 3E       		.uleb128 0x3e
 7300 200a CA000000 		.4byte	.LVL15
 7301 200e 762D0000 		.4byte	0x2d76
 7302 2012 22200000 		.4byte	0x2022
 7303 2016 35       		.uleb128 0x35
 7304 2017 01       		.uleb128 0x1
 7305 2018 50       		.byte	0x50
 7306 2019 07       		.uleb128 0x7
 7307 201a 75       		.byte	0x75
 7308 201b 00       		.sleb128 0
 7309 201c 76       		.byte	0x76
 7310 201d 00       		.sleb128 0
 7311 201e 22       		.byte	0x22
 7312 201f 23       		.byte	0x23
 7313 2020 01       		.uleb128 0x1
 7314 2021 00       		.byte	0
 7315 2022 3D       		.uleb128 0x3d
 7316 2023 02010000 		.4byte	.LVL16
 7317 2027 A52D0000 		.4byte	0x2da5
 7318 202b 3D       		.uleb128 0x3d
 7319 202c 26010000 		.4byte	.LVL20
 7320 2030 481F0000 		.4byte	0x1f48
ARM GAS  /tmp/ccLdaIGa.s 			page 130


 7321 2034 00       		.byte	0
 7322 2035 3E       		.uleb128 0x3e
 7323 2036 6A000000 		.4byte	.LVL5
 7324 203a C32D0000 		.4byte	0x2dc3
 7325 203e 50200000 		.4byte	0x2050
 7326 2042 35       		.uleb128 0x35
 7327 2043 01       		.uleb128 0x1
 7328 2044 51       		.byte	0x51
 7329 2045 02       		.uleb128 0x2
 7330 2046 75       		.byte	0x75
 7331 2047 00       		.sleb128 0
 7332 2048 35       		.uleb128 0x35
 7333 2049 01       		.uleb128 0x1
 7334 204a 50       		.byte	0x50
 7335 204b 03       		.uleb128 0x3
 7336 204c 91       		.byte	0x91
 7337 204d BC7F     		.sleb128 -68
 7338 204f 00       		.byte	0
 7339 2050 3E       		.uleb128 0x3e
 7340 2051 76000000 		.4byte	.LVL7
 7341 2055 902D0000 		.4byte	0x2d90
 7342 2059 64200000 		.4byte	0x2064
 7343 205d 35       		.uleb128 0x35
 7344 205e 01       		.uleb128 0x1
 7345 205f 50       		.byte	0x50
 7346 2060 02       		.uleb128 0x2
 7347 2061 75       		.byte	0x75
 7348 2062 00       		.sleb128 0
 7349 2063 00       		.byte	0
 7350 2064 3E       		.uleb128 0x3e
 7351 2065 8A000000 		.4byte	.LVL10
 7352 2069 EE2D0000 		.4byte	0x2dee
 7353 206d 80200000 		.4byte	0x2080
 7354 2071 35       		.uleb128 0x35
 7355 2072 01       		.uleb128 0x1
 7356 2073 51       		.byte	0x51
 7357 2074 03       		.uleb128 0x3
 7358 2075 91       		.byte	0x91
 7359 2076 9C7F     		.sleb128 -100
 7360 2078 35       		.uleb128 0x35
 7361 2079 01       		.uleb128 0x1
 7362 207a 50       		.byte	0x50
 7363 207b 03       		.uleb128 0x3
 7364 207c 91       		.byte	0x91
 7365 207d BC7F     		.sleb128 -68
 7366 207f 00       		.byte	0
 7367 2080 36       		.uleb128 0x36
 7368 2081 AC010000 		.4byte	.LVL32
 7369 2085 0E2E0000 		.4byte	0x2e0e
 7370 2089 35       		.uleb128 0x35
 7371 208a 01       		.uleb128 0x1
 7372 208b 51       		.byte	0x51
 7373 208c 01       		.uleb128 0x1
 7374 208d 30       		.byte	0x30
 7375 208e 35       		.uleb128 0x35
 7376 208f 01       		.uleb128 0x1
 7377 2090 50       		.byte	0x50
ARM GAS  /tmp/ccLdaIGa.s 			page 131


 7378 2091 02       		.uleb128 0x2
 7379 2092 74       		.byte	0x74
 7380 2093 00       		.sleb128 0
 7381 2094 00       		.byte	0
 7382 2095 00       		.byte	0
 7383 2096 41       		.uleb128 0x41
 7384 2097 300A0000 		.4byte	.LASF433
 7385 209b 01       		.byte	0x1
 7386 209c 43       		.byte	0x43
 7387 209d D0010000 		.4byte	.LFB132
 7388 20a1 98000000 		.4byte	.LFE132-.LFB132
 7389 20a5 01       		.uleb128 0x1
 7390 20a6 9C       		.byte	0x9c
 7391 20a7 7B210000 		.4byte	0x217b
 7392 20ab 42       		.uleb128 0x42
 7393 20ac 400A0000 		.4byte	.LASF456
 7394 20b0 01       		.byte	0x1
 7395 20b1 45       		.byte	0x45
 7396 20b2 D9000000 		.4byte	0xd9
 7397 20b6 3E       		.uleb128 0x3e
 7398 20b7 E8010000 		.4byte	.LVL34
 7399 20bb 242E0000 		.4byte	0x2e24
 7400 20bf CB200000 		.4byte	0x20cb
 7401 20c3 35       		.uleb128 0x35
 7402 20c4 01       		.uleb128 0x1
 7403 20c5 50       		.byte	0x50
 7404 20c6 03       		.uleb128 0x3
 7405 20c7 40       		.byte	0x40
 7406 20c8 47       		.byte	0x47
 7407 20c9 24       		.byte	0x24
 7408 20ca 00       		.byte	0
 7409 20cb 3E       		.uleb128 0x3e
 7410 20cc F2010000 		.4byte	.LVL35
 7411 20d0 3E2E0000 		.4byte	0x2e3e
 7412 20d4 DF200000 		.4byte	0x20df
 7413 20d8 35       		.uleb128 0x35
 7414 20d9 01       		.uleb128 0x1
 7415 20da 50       		.byte	0x50
 7416 20db 02       		.uleb128 0x2
 7417 20dc 76       		.byte	0x76
 7418 20dd 00       		.sleb128 0
 7419 20de 00       		.byte	0
 7420 20df 3E       		.uleb128 0x3e
 7421 20e0 FA010000 		.4byte	.LVL36
 7422 20e4 552E0000 		.4byte	0x2e55
 7423 20e8 F9200000 		.4byte	0x20f9
 7424 20ec 35       		.uleb128 0x35
 7425 20ed 01       		.uleb128 0x1
 7426 20ee 51       		.byte	0x51
 7427 20ef 02       		.uleb128 0x2
 7428 20f0 74       		.byte	0x74
 7429 20f1 00       		.sleb128 0
 7430 20f2 35       		.uleb128 0x35
 7431 20f3 01       		.uleb128 0x1
 7432 20f4 50       		.byte	0x50
 7433 20f5 02       		.uleb128 0x2
 7434 20f6 76       		.byte	0x76
ARM GAS  /tmp/ccLdaIGa.s 			page 132


 7435 20f7 00       		.sleb128 0
 7436 20f8 00       		.byte	0
 7437 20f9 3E       		.uleb128 0x3e
 7438 20fa 00020000 		.4byte	.LVL37
 7439 20fe 6B2E0000 		.4byte	0x2e6b
 7440 2102 0D210000 		.4byte	0x210d
 7441 2106 35       		.uleb128 0x35
 7442 2107 01       		.uleb128 0x1
 7443 2108 50       		.byte	0x50
 7444 2109 02       		.uleb128 0x2
 7445 210a 75       		.byte	0x75
 7446 210b 00       		.sleb128 0
 7447 210c 00       		.byte	0
 7448 210d 3E       		.uleb128 0x3e
 7449 210e 08020000 		.4byte	.LVL38
 7450 2112 822E0000 		.4byte	0x2e82
 7451 2116 21210000 		.4byte	0x2121
 7452 211a 35       		.uleb128 0x35
 7453 211b 01       		.uleb128 0x1
 7454 211c 50       		.byte	0x50
 7455 211d 02       		.uleb128 0x2
 7456 211e 75       		.byte	0x75
 7457 211f 00       		.sleb128 0
 7458 2120 00       		.byte	0
 7459 2121 3E       		.uleb128 0x3e
 7460 2122 1C020000 		.4byte	.LVL39
 7461 2126 982E0000 		.4byte	0x2e98
 7462 212a 36210000 		.4byte	0x2136
 7463 212e 35       		.uleb128 0x35
 7464 212f 01       		.uleb128 0x1
 7465 2130 50       		.byte	0x50
 7466 2131 03       		.uleb128 0x3
 7467 2132 0A       		.byte	0xa
 7468 2133 E803     		.2byte	0x3e8
 7469 2135 00       		.byte	0
 7470 2136 3E       		.uleb128 0x3e
 7471 2137 24020000 		.4byte	.LVL40
 7472 213b AA2E0000 		.4byte	0x2eaa
 7473 213f 4A210000 		.4byte	0x214a
 7474 2143 35       		.uleb128 0x35
 7475 2144 01       		.uleb128 0x1
 7476 2145 50       		.byte	0x50
 7477 2146 02       		.uleb128 0x2
 7478 2147 74       		.byte	0x74
 7479 2148 00       		.sleb128 0
 7480 2149 00       		.byte	0
 7481 214a 36       		.uleb128 0x36
 7482 214b 40020000 		.4byte	.LVL41
 7483 214f C12E0000 		.4byte	0x2ec1
 7484 2153 35       		.uleb128 0x35
 7485 2154 01       		.uleb128 0x1
 7486 2155 53       		.byte	0x53
 7487 2156 05       		.uleb128 0x5
 7488 2157 03       		.byte	0x3
 7489 2158 00000000 		.4byte	ThreadUSBDMidi
 7490 215c 35       		.uleb128 0x35
 7491 215d 01       		.uleb128 0x1
ARM GAS  /tmp/ccLdaIGa.s 			page 133


 7492 215e 52       		.byte	0x52
 7493 215f 02       		.uleb128 0x2
 7494 2160 08       		.byte	0x8
 7495 2161 40       		.byte	0x40
 7496 2162 35       		.uleb128 0x35
 7497 2163 01       		.uleb128 0x1
 7498 2164 51       		.byte	0x51
 7499 2165 03       		.uleb128 0x3
 7500 2166 0A       		.byte	0xa
 7501 2167 5002     		.2byte	0x250
 7502 2169 35       		.uleb128 0x35
 7503 216a 01       		.uleb128 0x1
 7504 216b 50       		.byte	0x50
 7505 216c 05       		.uleb128 0x5
 7506 216d 03       		.byte	0x3
 7507 216e 00000000 		.4byte	.LANCHOR0
 7508 2172 35       		.uleb128 0x35
 7509 2173 02       		.uleb128 0x2
 7510 2174 7D       		.byte	0x7d
 7511 2175 00       		.sleb128 0
 7512 2176 02       		.uleb128 0x2
 7513 2177 74       		.byte	0x74
 7514 2178 00       		.sleb128 0
 7515 2179 00       		.byte	0
 7516 217a 00       		.byte	0
 7517 217b 43       		.uleb128 0x43
 7518 217c 4F1E0000 		.4byte	0x1e4f
 7519 2180 70020000 		.4byte	.LFB133
 7520 2184 0C000000 		.4byte	.LFE133-.LFB133
 7521 2188 01       		.uleb128 0x1
 7522 2189 9C       		.byte	0x9c
 7523 218a 44       		.uleb128 0x44
 7524 218b DA0E0000 		.4byte	.LASF482
 7525 218f 01       		.byte	0x1
 7526 2190 66       		.byte	0x66
 7527 2191 80020000 		.4byte	.LFB134
 7528 2195 24000000 		.4byte	.LFE134-.LFB134
 7529 2199 01       		.uleb128 0x1
 7530 219a 9C       		.byte	0x9c
 7531 219b AF210000 		.4byte	0x21af
 7532 219f 45       		.uleb128 0x45
 7533 21a0 32010000 		.4byte	.LASF432
 7534 21a4 01       		.byte	0x1
 7535 21a5 69       		.byte	0x69
 7536 21a6 37000000 		.4byte	0x37
 7537 21aa FD000000 		.4byte	.LLST6
 7538 21ae 00       		.byte	0
 7539 21af 41       		.uleb128 0x41
 7540 21b0 9C150000 		.4byte	.LASF434
 7541 21b4 01       		.byte	0x1
 7542 21b5 71       		.byte	0x71
 7543 21b6 B0020000 		.4byte	.LFB135
 7544 21ba 68000000 		.4byte	.LFE135-.LFB135
 7545 21be 01       		.uleb128 0x1
 7546 21bf 9C       		.byte	0x9c
 7547 21c0 3F220000 		.4byte	0x223f
 7548 21c4 46       		.uleb128 0x46
ARM GAS  /tmp/ccLdaIGa.s 			page 134


 7549 21c5 3B0D0000 		.4byte	.LASF435
 7550 21c9 01       		.byte	0x1
 7551 21ca 71       		.byte	0x71
 7552 21cb AB050000 		.4byte	0x5ab
 7553 21cf 02       		.uleb128 0x2
 7554 21d0 91       		.byte	0x91
 7555 21d1 70       		.sleb128 -16
 7556 21d2 47       		.uleb128 0x47
 7557 21d3 48       		.uleb128 0x48
 7558 21d4 D8020000 		.4byte	.LBB11
 7559 21d8 28000000 		.4byte	.LBE11-.LBB11
 7560 21dc 33       		.uleb128 0x33
 7561 21dd 6800     		.ascii	"h\000"
 7562 21df 01       		.byte	0x1
 7563 21e0 73       		.byte	0x73
 7564 21e1 25000000 		.4byte	0x25
 7565 21e5 02       		.uleb128 0x2
 7566 21e6 91       		.byte	0x91
 7567 21e7 60       		.sleb128 -32
 7568 21e8 33       		.uleb128 0x33
 7569 21e9 617000   		.ascii	"ap\000"
 7570 21ec 01       		.byte	0x1
 7571 21ed 77       		.byte	0x77
 7572 21ee 2A130000 		.4byte	0x132a
 7573 21f2 02       		.uleb128 0x2
 7574 21f3 91       		.byte	0x91
 7575 21f4 64       		.sleb128 -28
 7576 21f5 49       		.uleb128 0x49
 7577 21f6 E8020000 		.4byte	.LVL47
 7578 21fa 0B220000 		.4byte	0x220b
 7579 21fe 35       		.uleb128 0x35
 7580 21ff 01       		.uleb128 0x1
 7581 2200 51       		.byte	0x51
 7582 2201 02       		.uleb128 0x2
 7583 2202 91       		.byte	0x91
 7584 2203 40       		.sleb128 -64
 7585 2204 35       		.uleb128 0x35
 7586 2205 01       		.uleb128 0x1
 7587 2206 50       		.byte	0x50
 7588 2207 02       		.uleb128 0x2
 7589 2208 74       		.byte	0x74
 7590 2209 00       		.sleb128 0
 7591 220a 00       		.byte	0
 7592 220b 3E       		.uleb128 0x3e
 7593 220c F6020000 		.4byte	.LVL48
 7594 2210 EB2E0000 		.4byte	0x2eeb
 7595 2214 2C220000 		.4byte	0x222c
 7596 2218 35       		.uleb128 0x35
 7597 2219 01       		.uleb128 0x1
 7598 221a 52       		.byte	0x52
 7599 221b 02       		.uleb128 0x2
 7600 221c 91       		.byte	0x91
 7601 221d 54       		.sleb128 -44
 7602 221e 35       		.uleb128 0x35
 7603 221f 01       		.uleb128 0x1
 7604 2220 51       		.byte	0x51
 7605 2221 03       		.uleb128 0x3
ARM GAS  /tmp/ccLdaIGa.s 			page 135


 7606 2222 91       		.byte	0x91
 7607 2223 50       		.sleb128 -48
 7608 2224 06       		.byte	0x6
 7609 2225 35       		.uleb128 0x35
 7610 2226 01       		.uleb128 0x1
 7611 2227 50       		.byte	0x50
 7612 2228 02       		.uleb128 0x2
 7613 2229 74       		.byte	0x74
 7614 222a 00       		.sleb128 0
 7615 222b 00       		.byte	0
 7616 222c 3F       		.uleb128 0x3f
 7617 222d 00030000 		.4byte	.LVL49
 7618 2231 35       		.uleb128 0x35
 7619 2232 01       		.uleb128 0x1
 7620 2233 51       		.byte	0x51
 7621 2234 01       		.uleb128 0x1
 7622 2235 30       		.byte	0x30
 7623 2236 35       		.uleb128 0x35
 7624 2237 01       		.uleb128 0x1
 7625 2238 50       		.byte	0x50
 7626 2239 02       		.uleb128 0x2
 7627 223a 74       		.byte	0x74
 7628 223b 00       		.sleb128 0
 7629 223c 00       		.byte	0
 7630 223d 00       		.byte	0
 7631 223e 00       		.byte	0
 7632 223f 4A       		.uleb128 0x4a
 7633 2240 B3050000 		.4byte	.LASF436
 7634 2244 01       		.byte	0x1
 7635 2245 7F       		.byte	0x7f
 7636 2246 20030000 		.4byte	.LFB136
 7637 224a 30010000 		.4byte	.LFE136-.LFB136
 7638 224e 01       		.uleb128 0x1
 7639 224f 9C       		.byte	0x9c
 7640 2250 12230000 		.4byte	0x2312
 7641 2254 40       		.uleb128 0x40
 7642 2255 68030000 		.4byte	.LBB12
 7643 2259 56000000 		.4byte	.LBE12-.LBB12
 7644 225d A7220000 		.4byte	0x22a7
 7645 2261 4B       		.uleb128 0x4b
 7646 2262 6900     		.ascii	"i\000"
 7647 2264 01       		.byte	0x1
 7648 2265 A1       		.byte	0xa1
 7649 2266 37000000 		.4byte	0x37
 7650 226a 1B010000 		.4byte	.LLST7
 7651 226e 4C       		.uleb128 0x4c
 7652 226f 20000000 		.4byte	.Ldebug_ranges0+0x20
 7653 2273 4B       		.uleb128 0x4b
 7654 2274 7600     		.ascii	"v\000"
 7655 2276 01       		.byte	0x1
 7656 2277 A4       		.byte	0xa4
 7657 2278 25000000 		.4byte	0x25
 7658 227c 3A010000 		.4byte	.LLST8
 7659 2280 33       		.uleb128 0x33
 7660 2281 6D736700 		.ascii	"msg\000"
 7661 2285 01       		.byte	0x1
 7662 2286 A6       		.byte	0xa6
ARM GAS  /tmp/ccLdaIGa.s 			page 136


 7663 2287 6E130000 		.4byte	0x136e
 7664 228b 02       		.uleb128 0x2
 7665 228c 91       		.byte	0x91
 7666 228d 44       		.sleb128 -60
 7667 228e 3F       		.uleb128 0x3f
 7668 228f BC030000 		.4byte	.LVL57
 7669 2293 35       		.uleb128 0x35
 7670 2294 01       		.uleb128 0x1
 7671 2295 52       		.byte	0x52
 7672 2296 01       		.uleb128 0x1
 7673 2297 40       		.byte	0x40
 7674 2298 35       		.uleb128 0x35
 7675 2299 01       		.uleb128 0x1
 7676 229a 51       		.byte	0x51
 7677 229b 02       		.uleb128 0x2
 7678 229c 91       		.byte	0x91
 7679 229d 44       		.sleb128 -60
 7680 229e 35       		.uleb128 0x35
 7681 229f 01       		.uleb128 0x1
 7682 22a0 50       		.byte	0x50
 7683 22a1 02       		.uleb128 0x2
 7684 22a2 79       		.byte	0x79
 7685 22a3 00       		.sleb128 0
 7686 22a4 00       		.byte	0
 7687 22a5 00       		.byte	0
 7688 22a6 00       		.byte	0
 7689 22a7 40       		.uleb128 0x40
 7690 22a8 BE030000 		.4byte	.LBB15
 7691 22ac 92000000 		.4byte	.LBE15-.LBB15
 7692 22b0 02230000 		.4byte	0x2302
 7693 22b4 33       		.uleb128 0x33
 7694 22b5 61636B00 		.ascii	"ack\000"
 7695 22b9 01       		.byte	0x1
 7696 22ba 86       		.byte	0x86
 7697 22bb 12230000 		.4byte	0x2312
 7698 22bf 02       		.uleb128 0x2
 7699 22c0 91       		.byte	0x91
 7700 22c1 44       		.sleb128 -60
 7701 22c2 3D       		.uleb128 0x3d
 7702 22c3 D6030000 		.4byte	.LVL59
 7703 22c7 0C2F0000 		.4byte	0x2f0c
 7704 22cb 3D       		.uleb128 0x3d
 7705 22cc DE030000 		.4byte	.LVL60
 7706 22d0 172F0000 		.4byte	0x2f17
 7707 22d4 49       		.uleb128 0x49
 7708 22d5 02040000 		.4byte	.LVL61
 7709 22d9 EF220000 		.4byte	0x22ef
 7710 22dd 35       		.uleb128 0x35
 7711 22de 01       		.uleb128 0x1
 7712 22df 52       		.byte	0x52
 7713 22e0 01       		.uleb128 0x1
 7714 22e1 4C       		.byte	0x4c
 7715 22e2 35       		.uleb128 0x35
 7716 22e3 01       		.uleb128 0x1
 7717 22e4 51       		.byte	0x51
 7718 22e5 02       		.uleb128 0x2
 7719 22e6 91       		.byte	0x91
ARM GAS  /tmp/ccLdaIGa.s 			page 137


 7720 22e7 44       		.sleb128 -60
 7721 22e8 35       		.uleb128 0x35
 7722 22e9 01       		.uleb128 0x1
 7723 22ea 50       		.byte	0x50
 7724 22eb 02       		.uleb128 0x2
 7725 22ec 79       		.byte	0x79
 7726 22ed 00       		.sleb128 0
 7727 22ee 00       		.byte	0
 7728 22ef 3D       		.uleb128 0x3d
 7729 22f0 10040000 		.4byte	.LVL62
 7730 22f4 222F0000 		.4byte	0x2f22
 7731 22f8 3D       		.uleb128 0x3d
 7732 22f9 26040000 		.4byte	.LVL63
 7733 22fd 8A210000 		.4byte	0x218a
 7734 2301 00       		.byte	0
 7735 2302 36       		.uleb128 0x36
 7736 2303 3C030000 		.4byte	.LVL50
 7737 2307 982E0000 		.4byte	0x2e98
 7738 230b 35       		.uleb128 0x35
 7739 230c 01       		.uleb128 0x1
 7740 230d 50       		.byte	0x50
 7741 230e 01       		.uleb128 0x1
 7742 230f 31       		.byte	0x31
 7743 2310 00       		.byte	0
 7744 2311 00       		.byte	0
 7745 2312 14       		.uleb128 0x14
 7746 2313 25000000 		.4byte	0x25
 7747 2317 22230000 		.4byte	0x2322
 7748 231b 15       		.uleb128 0x15
 7749 231c 2F040000 		.4byte	0x42f
 7750 2320 06       		.byte	0x6
 7751 2321 00       		.byte	0
 7752 2322 41       		.uleb128 0x41
 7753 2323 46070000 		.4byte	.LASF437
 7754 2327 01       		.byte	0x1
 7755 2328 F7       		.byte	0xf7
 7756 2329 50040000 		.4byte	.LFB138
 7757 232d AC000000 		.4byte	.LFE138-.LFB138
 7758 2331 01       		.uleb128 0x1
 7759 2332 9C       		.byte	0x9c
 7760 2333 F4230000 		.4byte	0x23f4
 7761 2337 33       		.uleb128 0x33
 7762 2338 66737000 		.ascii	"fsp\000"
 7763 233c 01       		.byte	0x1
 7764 233d F8       		.byte	0xf8
 7765 233e 8D170000 		.4byte	0x178d
 7766 2342 02       		.uleb128 0x2
 7767 2343 91       		.byte	0x91
 7768 2344 58       		.sleb128 -40
 7769 2345 4D       		.uleb128 0x4d
 7770 2346 FC000000 		.4byte	.LASF438
 7771 234a 01       		.byte	0x1
 7772 234b F9       		.byte	0xf9
 7773 234c E4000000 		.4byte	0xe4
 7774 2350 02       		.uleb128 0x2
 7775 2351 91       		.byte	0x91
 7776 2352 5C       		.sleb128 -36
ARM GAS  /tmp/ccLdaIGa.s 			page 138


 7777 2353 4B       		.uleb128 0x4b
 7778 2354 65727200 		.ascii	"err\000"
 7779 2358 01       		.byte	0x1
 7780 2359 FA       		.byte	0xfa
 7781 235a 38190000 		.4byte	0x1938
 7782 235e 4D010000 		.4byte	.LLST9
 7783 2362 2A       		.uleb128 0x2a
 7784 2363 6D736700 		.ascii	"msg\000"
 7785 2367 01       		.byte	0x1
 7786 2368 1501     		.2byte	0x115
 7787 236a 211E0000 		.4byte	0x1e21
 7788 236e 3E       		.uleb128 0x3e
 7789 236f 60040000 		.4byte	.LVL64
 7790 2373 292F0000 		.4byte	0x2f29
 7791 2377 91230000 		.4byte	0x2391
 7792 237b 35       		.uleb128 0x35
 7793 237c 01       		.uleb128 0x1
 7794 237d 52       		.byte	0x52
 7795 237e 02       		.uleb128 0x2
 7796 237f 7D       		.byte	0x7d
 7797 2380 00       		.sleb128 0
 7798 2381 35       		.uleb128 0x35
 7799 2382 01       		.uleb128 0x1
 7800 2383 51       		.byte	0x51
 7801 2384 02       		.uleb128 0x2
 7802 2385 91       		.byte	0x91
 7803 2386 5C       		.sleb128 -36
 7804 2387 35       		.uleb128 0x35
 7805 2388 01       		.uleb128 0x1
 7806 2389 50       		.byte	0x50
 7807 238a 05       		.uleb128 0x5
 7808 238b 03       		.byte	0x3
 7809 238c 0C000000 		.4byte	.LC1
 7810 2390 00       		.byte	0
 7811 2391 49       		.uleb128 0x49
 7812 2392 A2040000 		.4byte	.LVL66
 7813 2396 AC230000 		.4byte	0x23ac
 7814 239a 35       		.uleb128 0x35
 7815 239b 01       		.uleb128 0x1
 7816 239c 52       		.byte	0x52
 7817 239d 01       		.uleb128 0x1
 7818 239e 40       		.byte	0x40
 7819 239f 35       		.uleb128 0x35
 7820 23a0 01       		.uleb128 0x1
 7821 23a1 51       		.byte	0x51
 7822 23a2 02       		.uleb128 0x2
 7823 23a3 74       		.byte	0x74
 7824 23a4 00       		.sleb128 0
 7825 23a5 35       		.uleb128 0x35
 7826 23a6 01       		.uleb128 0x1
 7827 23a7 50       		.byte	0x50
 7828 23a8 02       		.uleb128 0x2
 7829 23a9 76       		.byte	0x76
 7830 23aa 00       		.sleb128 0
 7831 23ab 00       		.byte	0
 7832 23ac 3E       		.uleb128 0x3e
 7833 23ad AA040000 		.4byte	.LVL67
ARM GAS  /tmp/ccLdaIGa.s 			page 139


 7834 23b1 982E0000 		.4byte	0x2e98
 7835 23b5 BF230000 		.4byte	0x23bf
 7836 23b9 35       		.uleb128 0x35
 7837 23ba 01       		.uleb128 0x1
 7838 23bb 50       		.byte	0x50
 7839 23bc 01       		.uleb128 0x1
 7840 23bd 3A       		.byte	0x3a
 7841 23be 00       		.byte	0
 7842 23bf 3D       		.uleb128 0x3d
 7843 23c0 B2040000 		.4byte	.LVL68
 7844 23c4 481F0000 		.4byte	0x1f48
 7845 23c8 49       		.uleb128 0x49
 7846 23c9 DE040000 		.4byte	.LVL69
 7847 23cd E4230000 		.4byte	0x23e4
 7848 23d1 35       		.uleb128 0x35
 7849 23d2 01       		.uleb128 0x1
 7850 23d3 52       		.byte	0x52
 7851 23d4 01       		.uleb128 0x1
 7852 23d5 3E       		.byte	0x3e
 7853 23d6 35       		.uleb128 0x35
 7854 23d7 01       		.uleb128 0x1
 7855 23d8 51       		.byte	0x51
 7856 23d9 03       		.uleb128 0x3
 7857 23da 74       		.byte	0x74
 7858 23db C000     		.sleb128 64
 7859 23dd 35       		.uleb128 0x35
 7860 23de 01       		.uleb128 0x1
 7861 23df 50       		.byte	0x50
 7862 23e0 02       		.uleb128 0x2
 7863 23e1 76       		.byte	0x76
 7864 23e2 00       		.sleb128 0
 7865 23e3 00       		.byte	0
 7866 23e4 36       		.uleb128 0x36
 7867 23e5 EA040000 		.4byte	.LVL71
 7868 23e9 0E2E0000 		.4byte	0x2e0e
 7869 23ed 35       		.uleb128 0x35
 7870 23ee 01       		.uleb128 0x1
 7871 23ef 51       		.byte	0x51
 7872 23f0 01       		.uleb128 0x1
 7873 23f1 30       		.byte	0x30
 7874 23f2 00       		.byte	0
 7875 23f3 00       		.byte	0
 7876 23f4 4E       		.uleb128 0x4e
 7877 23f5 2C060000 		.4byte	.LASF439
 7878 23f9 01       		.byte	0x1
 7879 23fa 3B01     		.2byte	0x13b
 7880 23fc 00050000 		.4byte	.LFB139
 7881 2400 74010000 		.4byte	.LFE139-.LFB139
 7882 2404 01       		.uleb128 0x1
 7883 2405 9C       		.byte	0x9c
 7884 2406 D5260000 		.4byte	0x26d5
 7885 240a 3C       		.uleb128 0x3c
 7886 240b 38000000 		.4byte	.Ldebug_ranges0+0x38
 7887 240f B1240000 		.4byte	0x24b1
 7888 2413 4F       		.uleb128 0x4f
 7889 2414 65727200 		.ascii	"err\000"
 7890 2418 01       		.byte	0x1
ARM GAS  /tmp/ccLdaIGa.s 			page 140


 7891 2419 3F01     		.2byte	0x13f
 7892 241b 38190000 		.4byte	0x1938
 7893 241f 6B010000 		.4byte	.LLST10
 7894 2423 3E       		.uleb128 0x3e
 7895 2424 34050000 		.4byte	.LVL73
 7896 2428 4E2F0000 		.4byte	0x2f4e
 7897 242c 45240000 		.4byte	0x2445
 7898 2430 35       		.uleb128 0x35
 7899 2431 01       		.uleb128 0x1
 7900 2432 52       		.byte	0x52
 7901 2433 01       		.uleb128 0x1
 7902 2434 3A       		.byte	0x3a
 7903 2435 35       		.uleb128 0x35
 7904 2436 01       		.uleb128 0x1
 7905 2437 51       		.byte	0x51
 7906 2438 02       		.uleb128 0x2
 7907 2439 74       		.byte	0x74
 7908 243a 00       		.sleb128 0
 7909 243b 35       		.uleb128 0x35
 7910 243c 01       		.uleb128 0x1
 7911 243d 50       		.byte	0x50
 7912 243e 05       		.uleb128 0x5
 7913 243f 03       		.byte	0x3
 7914 2440 00000000 		.4byte	pFile
 7915 2444 00       		.byte	0
 7916 2445 3E       		.uleb128 0x3e
 7917 2446 42050000 		.4byte	.LVL75
 7918 244a 732F0000 		.4byte	0x2f73
 7919 244e 5C240000 		.4byte	0x245c
 7920 2452 35       		.uleb128 0x35
 7921 2453 01       		.uleb128 0x1
 7922 2454 50       		.byte	0x50
 7923 2455 05       		.uleb128 0x5
 7924 2456 03       		.byte	0x3
 7925 2457 00000000 		.4byte	pFile
 7926 245b 00       		.byte	0
 7927 245c 3E       		.uleb128 0x3e
 7928 245d 4C050000 		.4byte	.LVL77
 7929 2461 732F0000 		.4byte	0x2f73
 7930 2465 78240000 		.4byte	0x2478
 7931 2469 35       		.uleb128 0x35
 7932 246a 01       		.uleb128 0x1
 7933 246b 51       		.byte	0x51
 7934 246c 01       		.uleb128 0x1
 7935 246d 30       		.byte	0x30
 7936 246e 35       		.uleb128 0x35
 7937 246f 01       		.uleb128 0x1
 7938 2470 50       		.byte	0x50
 7939 2471 05       		.uleb128 0x5
 7940 2472 03       		.byte	0x3
 7941 2473 00000000 		.4byte	pFile
 7942 2477 00       		.byte	0
 7943 2478 3E       		.uleb128 0x3e
 7944 2479 56050000 		.4byte	.LVL78
 7945 247d 0E2E0000 		.4byte	0x2e0e
 7946 2481 8C240000 		.4byte	0x248c
 7947 2485 35       		.uleb128 0x35
ARM GAS  /tmp/ccLdaIGa.s 			page 141


 7948 2486 01       		.uleb128 0x1
 7949 2487 51       		.byte	0x51
 7950 2488 02       		.uleb128 0x2
 7951 2489 74       		.byte	0x74
 7952 248a 00       		.sleb128 0
 7953 248b 00       		.byte	0
 7954 248c 3E       		.uleb128 0x3e
 7955 248d AE050000 		.4byte	.LVL88
 7956 2491 0E2E0000 		.4byte	0x2e0e
 7957 2495 A0240000 		.4byte	0x24a0
 7958 2499 35       		.uleb128 0x35
 7959 249a 01       		.uleb128 0x1
 7960 249b 51       		.byte	0x51
 7961 249c 02       		.uleb128 0x2
 7962 249d 74       		.byte	0x74
 7963 249e 00       		.sleb128 0
 7964 249f 00       		.byte	0
 7965 24a0 36       		.uleb128 0x36
 7966 24a1 B6050000 		.4byte	.LVL90
 7967 24a5 0E2E0000 		.4byte	0x2e0e
 7968 24a9 35       		.uleb128 0x35
 7969 24aa 01       		.uleb128 0x1
 7970 24ab 51       		.byte	0x51
 7971 24ac 02       		.uleb128 0x2
 7972 24ad 74       		.byte	0x74
 7973 24ae 00       		.sleb128 0
 7974 24af 00       		.byte	0
 7975 24b0 00       		.byte	0
 7976 24b1 40       		.uleb128 0x40
 7977 24b2 58050000 		.4byte	.LBB17
 7978 24b6 0A000000 		.4byte	.LBE17-.LBB17
 7979 24ba DF240000 		.4byte	0x24df
 7980 24be 4F       		.uleb128 0x4f
 7981 24bf 65727200 		.ascii	"err\000"
 7982 24c3 01       		.byte	0x1
 7983 24c4 6E01     		.2byte	0x16e
 7984 24c6 38190000 		.4byte	0x1938
 7985 24ca AA010000 		.4byte	.LLST11
 7986 24ce 36       		.uleb128 0x36
 7987 24cf 5E050000 		.4byte	.LVL79
 7988 24d3 8D2F0000 		.4byte	0x2f8d
 7989 24d7 35       		.uleb128 0x35
 7990 24d8 01       		.uleb128 0x1
 7991 24d9 50       		.byte	0x50
 7992 24da 02       		.uleb128 0x2
 7993 24db 74       		.byte	0x74
 7994 24dc 06       		.sleb128 6
 7995 24dd 00       		.byte	0
 7996 24de 00       		.byte	0
 7997 24df 3C       		.uleb128 0x3c
 7998 24e0 50000000 		.4byte	.Ldebug_ranges0+0x50
 7999 24e4 1D250000 		.4byte	0x251d
 8000 24e8 4F       		.uleb128 0x4f
 8001 24e9 65727200 		.ascii	"err\000"
 8002 24ed 01       		.byte	0x1
 8003 24ee 7501     		.2byte	0x175
 8004 24f0 38190000 		.4byte	0x1938
ARM GAS  /tmp/ccLdaIGa.s 			page 142


 8005 24f4 BD010000 		.4byte	.LLST12
 8006 24f8 3E       		.uleb128 0x3e
 8007 24f9 68050000 		.4byte	.LVL81
 8008 24fd 0E2E0000 		.4byte	0x2e0e
 8009 2501 0C250000 		.4byte	0x250c
 8010 2505 35       		.uleb128 0x35
 8011 2506 01       		.uleb128 0x1
 8012 2507 51       		.byte	0x51
 8013 2508 02       		.uleb128 0x2
 8014 2509 74       		.byte	0x74
 8015 250a 06       		.sleb128 6
 8016 250b 00       		.byte	0
 8017 250c 36       		.uleb128 0x36
 8018 250d 42060000 		.4byte	.LVL104
 8019 2511 A22F0000 		.4byte	0x2fa2
 8020 2515 35       		.uleb128 0x35
 8021 2516 01       		.uleb128 0x1
 8022 2517 50       		.byte	0x50
 8023 2518 02       		.uleb128 0x2
 8024 2519 74       		.byte	0x74
 8025 251a 06       		.sleb128 6
 8026 251b 00       		.byte	0
 8027 251c 00       		.byte	0
 8028 251d 40       		.uleb128 0x40
 8029 251e 6A050000 		.4byte	.LBB19
 8030 2522 36000000 		.4byte	.LBE19-.LBB19
 8031 2526 8B250000 		.4byte	0x258b
 8032 252a 4F       		.uleb128 0x4f
 8033 252b 65727200 		.ascii	"err\000"
 8034 252f 01       		.byte	0x1
 8035 2530 5001     		.2byte	0x150
 8036 2532 38190000 		.4byte	0x1938
 8037 2536 D0010000 		.4byte	.LLST13
 8038 253a 50       		.uleb128 0x50
 8039 253b 666E6F00 		.ascii	"fno\000"
 8040 253f 01       		.byte	0x1
 8041 2540 5601     		.2byte	0x156
 8042 2542 AC180000 		.4byte	0x18ac
 8043 2546 02       		.uleb128 0x2
 8044 2547 91       		.byte	0x91
 8045 2548 48       		.sleb128 -56
 8046 2549 3E       		.uleb128 0x3e
 8047 254a 70050000 		.4byte	.LVL82
 8048 254e B72F0000 		.4byte	0x2fb7
 8049 2552 5D250000 		.4byte	0x255d
 8050 2556 35       		.uleb128 0x35
 8051 2557 01       		.uleb128 0x1
 8052 2558 50       		.byte	0x50
 8053 2559 02       		.uleb128 0x2
 8054 255a 74       		.byte	0x74
 8055 255b 06       		.sleb128 6
 8056 255c 00       		.byte	0
 8057 255d 3E       		.uleb128 0x3e
 8058 255e 7C050000 		.4byte	.LVL83
 8059 2562 0E2E0000 		.4byte	0x2e0e
 8060 2566 71250000 		.4byte	0x2571
 8061 256a 35       		.uleb128 0x35
ARM GAS  /tmp/ccLdaIGa.s 			page 143


 8062 256b 01       		.uleb128 0x1
 8063 256c 51       		.byte	0x51
 8064 256d 02       		.uleb128 0x2
 8065 256e 74       		.byte	0x74
 8066 256f 06       		.sleb128 6
 8067 2570 00       		.byte	0
 8068 2571 36       		.uleb128 0x36
 8069 2572 9C050000 		.4byte	.LVL84
 8070 2576 CC2F0000 		.4byte	0x2fcc
 8071 257a 35       		.uleb128 0x35
 8072 257b 01       		.uleb128 0x1
 8073 257c 51       		.byte	0x51
 8074 257d 02       		.uleb128 0x2
 8075 257e 7D       		.byte	0x7d
 8076 257f 00       		.sleb128 0
 8077 2580 35       		.uleb128 0x35
 8078 2581 01       		.uleb128 0x1
 8079 2582 50       		.byte	0x50
 8080 2583 05       		.uleb128 0x5
 8081 2584 03       		.byte	0x3
 8082 2585 06000000 		.4byte	FileName+6
 8083 2589 00       		.byte	0
 8084 258a 00       		.byte	0
 8085 258b 3C       		.uleb128 0x3c
 8086 258c 68000000 		.4byte	.Ldebug_ranges0+0x68
 8087 2590 38260000 		.4byte	0x2638
 8088 2594 4F       		.uleb128 0x4f
 8089 2595 65727200 		.ascii	"err\000"
 8090 2599 01       		.byte	0x1
 8091 259a 5F01     		.2byte	0x15f
 8092 259c 38190000 		.4byte	0x1938
 8093 25a0 EE010000 		.4byte	.LLST14
 8094 25a4 3E       		.uleb128 0x3e
 8095 25a5 A6050000 		.4byte	.LVL86
 8096 25a9 0E2E0000 		.4byte	0x2e0e
 8097 25ad BB250000 		.4byte	0x25bb
 8098 25b1 35       		.uleb128 0x35
 8099 25b2 01       		.uleb128 0x1
 8100 25b3 51       		.byte	0x51
 8101 25b4 05       		.uleb128 0x5
 8102 25b5 03       		.byte	0x3
 8103 25b6 06000000 		.4byte	FileName+6
 8104 25ba 00       		.byte	0
 8105 25bb 3E       		.uleb128 0x3e
 8106 25bc C2050000 		.4byte	.LVL91
 8107 25c0 4E2F0000 		.4byte	0x2f4e
 8108 25c4 DD250000 		.4byte	0x25dd
 8109 25c8 35       		.uleb128 0x35
 8110 25c9 01       		.uleb128 0x1
 8111 25ca 52       		.byte	0x52
 8112 25cb 01       		.uleb128 0x1
 8113 25cc 3A       		.byte	0x3a
 8114 25cd 35       		.uleb128 0x35
 8115 25ce 01       		.uleb128 0x1
 8116 25cf 51       		.byte	0x51
 8117 25d0 02       		.uleb128 0x2
 8118 25d1 74       		.byte	0x74
ARM GAS  /tmp/ccLdaIGa.s 			page 144


 8119 25d2 06       		.sleb128 6
 8120 25d3 35       		.uleb128 0x35
 8121 25d4 01       		.uleb128 0x1
 8122 25d5 50       		.byte	0x50
 8123 25d6 05       		.uleb128 0x5
 8124 25d7 03       		.byte	0x3
 8125 25d8 00000000 		.4byte	pFile
 8126 25dc 00       		.byte	0
 8127 25dd 3E       		.uleb128 0x3e
 8128 25de D0050000 		.4byte	.LVL93
 8129 25e2 732F0000 		.4byte	0x2f73
 8130 25e6 F4250000 		.4byte	0x25f4
 8131 25ea 35       		.uleb128 0x35
 8132 25eb 01       		.uleb128 0x1
 8133 25ec 50       		.byte	0x50
 8134 25ed 05       		.uleb128 0x5
 8135 25ee 03       		.byte	0x3
 8136 25ef 00000000 		.4byte	pFile
 8137 25f3 00       		.byte	0
 8138 25f4 3E       		.uleb128 0x3e
 8139 25f5 DC050000 		.4byte	.LVL95
 8140 25f9 732F0000 		.4byte	0x2f73
 8141 25fd 10260000 		.4byte	0x2610
 8142 2601 35       		.uleb128 0x35
 8143 2602 01       		.uleb128 0x1
 8144 2603 51       		.byte	0x51
 8145 2604 01       		.uleb128 0x1
 8146 2605 30       		.byte	0x30
 8147 2606 35       		.uleb128 0x35
 8148 2607 01       		.uleb128 0x1
 8149 2608 50       		.byte	0x50
 8150 2609 05       		.uleb128 0x5
 8151 260a 03       		.byte	0x3
 8152 260b 00000000 		.4byte	pFile
 8153 260f 00       		.byte	0
 8154 2610 3E       		.uleb128 0x3e
 8155 2611 50060000 		.4byte	.LVL106
 8156 2615 0E2E0000 		.4byte	0x2e0e
 8157 2619 27260000 		.4byte	0x2627
 8158 261d 35       		.uleb128 0x35
 8159 261e 01       		.uleb128 0x1
 8160 261f 51       		.byte	0x51
 8161 2620 05       		.uleb128 0x5
 8162 2621 03       		.byte	0x3
 8163 2622 06000000 		.4byte	FileName+6
 8164 2626 00       		.byte	0
 8165 2627 36       		.uleb128 0x36
 8166 2628 58060000 		.4byte	.LVL108
 8167 262c 0E2E0000 		.4byte	0x2e0e
 8168 2630 35       		.uleb128 0x35
 8169 2631 01       		.uleb128 0x1
 8170 2632 51       		.byte	0x51
 8171 2633 02       		.uleb128 0x2
 8172 2634 74       		.byte	0x74
 8173 2635 06       		.sleb128 6
 8174 2636 00       		.byte	0
 8175 2637 00       		.byte	0
ARM GAS  /tmp/ccLdaIGa.s 			page 145


 8176 2638 40       		.uleb128 0x40
 8177 2639 E2050000 		.4byte	.LBB23
 8178 263d 5A000000 		.4byte	.LBE23-.LBB23
 8179 2641 CB260000 		.4byte	0x26cb
 8180 2645 4F       		.uleb128 0x4f
 8181 2646 65727200 		.ascii	"err\000"
 8182 264a 01       		.byte	0x1
 8183 264b 7C01     		.2byte	0x17c
 8184 264d 38190000 		.4byte	0x1938
 8185 2651 2D020000 		.4byte	.LLST15
 8186 2655 50       		.uleb128 0x50
 8187 2656 666E6F00 		.ascii	"fno\000"
 8188 265a 01       		.byte	0x1
 8189 265b 7D01     		.2byte	0x17d
 8190 265d AC180000 		.4byte	0x18ac
 8191 2661 02       		.uleb128 0x2
 8192 2662 91       		.byte	0x91
 8193 2663 48       		.sleb128 -56
 8194 2664 40       		.uleb128 0x40
 8195 2665 F8050000 		.4byte	.LBB24
 8196 2669 44000000 		.4byte	.LBE24-.LBB24
 8197 266d B4260000 		.4byte	0x26b4
 8198 2671 2A       		.uleb128 0x2a
 8199 2672 6D736700 		.ascii	"msg\000"
 8200 2676 01       		.byte	0x1
 8201 2677 8201     		.2byte	0x182
 8202 2679 211E0000 		.4byte	0x1e21
 8203 267d 2A       		.uleb128 0x2a
 8204 267e 6C00     		.ascii	"l\000"
 8205 2680 01       		.byte	0x1
 8206 2681 8A01     		.2byte	0x18a
 8207 2683 25000000 		.4byte	0x25
 8208 2687 3E       		.uleb128 0x3e
 8209 2688 2A060000 		.4byte	.LVL100
 8210 268c A52D0000 		.4byte	0x2da5
 8211 2690 A4260000 		.4byte	0x26a4
 8212 2694 35       		.uleb128 0x35
 8213 2695 01       		.uleb128 0x1
 8214 2696 51       		.byte	0x51
 8215 2697 05       		.uleb128 0x5
 8216 2698 03       		.byte	0x3
 8217 2699 06000000 		.4byte	FileName+6
 8218 269d 35       		.uleb128 0x35
 8219 269e 01       		.uleb128 0x1
 8220 269f 50       		.byte	0x50
 8221 26a0 02       		.uleb128 0x2
 8222 26a1 76       		.byte	0x76
 8223 26a2 00       		.sleb128 0
 8224 26a3 00       		.byte	0
 8225 26a4 51       		.uleb128 0x51
 8226 26a5 3A060000 		.4byte	.LVL102
 8227 26a9 02       		.uleb128 0x2
 8228 26aa 74       		.byte	0x74
 8229 26ab 00       		.sleb128 0
 8230 26ac 35       		.uleb128 0x35
 8231 26ad 01       		.uleb128 0x1
 8232 26ae 51       		.byte	0x51
ARM GAS  /tmp/ccLdaIGa.s 			page 146


 8233 26af 02       		.uleb128 0x2
 8234 26b0 75       		.byte	0x75
 8235 26b1 00       		.sleb128 0
 8236 26b2 00       		.byte	0
 8237 26b3 00       		.byte	0
 8238 26b4 36       		.uleb128 0x36
 8239 26b5 F4050000 		.4byte	.LVL97
 8240 26b9 F12F0000 		.4byte	0x2ff1
 8241 26bd 35       		.uleb128 0x35
 8242 26be 01       		.uleb128 0x1
 8243 26bf 51       		.byte	0x51
 8244 26c0 02       		.uleb128 0x2
 8245 26c1 7D       		.byte	0x7d
 8246 26c2 00       		.sleb128 0
 8247 26c3 35       		.uleb128 0x35
 8248 26c4 01       		.uleb128 0x1
 8249 26c5 50       		.byte	0x50
 8250 26c6 02       		.uleb128 0x2
 8251 26c7 74       		.byte	0x74
 8252 26c8 06       		.sleb128 6
 8253 26c9 00       		.byte	0
 8254 26ca 00       		.byte	0
 8255 26cb 3D       		.uleb128 0x3d
 8256 26cc 0A050000 		.4byte	.LVL72
 8257 26d0 0B300000 		.4byte	0x300b
 8258 26d4 00       		.byte	0
 8259 26d5 52       		.uleb128 0x52
 8260 26d6 271E0000 		.4byte	0x1e27
 8261 26da 80060000 		.4byte	.LFB140
 8262 26de 54000000 		.4byte	.LFE140-.LFB140
 8263 26e2 01       		.uleb128 0x1
 8264 26e3 9C       		.byte	0x9c
 8265 26e4 6F270000 		.4byte	0x276f
 8266 26e8 38       		.uleb128 0x38
 8267 26e9 341E0000 		.4byte	0x1e34
 8268 26ed 40020000 		.4byte	.LLST16
 8269 26f1 40       		.uleb128 0x40
 8270 26f2 96060000 		.4byte	.LBB31
 8271 26f6 2A000000 		.4byte	.LBE31-.LBB31
 8272 26fa 44270000 		.4byte	0x2744
 8273 26fe 38       		.uleb128 0x38
 8274 26ff 341E0000 		.4byte	0x1e34
 8275 2703 5E020000 		.4byte	.LLST17
 8276 2707 48       		.uleb128 0x48
 8277 2708 96060000 		.4byte	.LBB32
 8278 270c 2A000000 		.4byte	.LBE32-.LBB32
 8279 2710 39       		.uleb128 0x39
 8280 2711 411E0000 		.4byte	0x1e41
 8281 2715 02       		.uleb128 0x2
 8282 2716 91       		.byte	0x91
 8283 2717 58       		.sleb128 -40
 8284 2718 3E       		.uleb128 0x3e
 8285 2719 B6060000 		.4byte	.LVL111
 8286 271d CC2F0000 		.4byte	0x2fcc
 8287 2721 32270000 		.4byte	0x2732
 8288 2725 35       		.uleb128 0x35
 8289 2726 01       		.uleb128 0x1
ARM GAS  /tmp/ccLdaIGa.s 			page 147


 8290 2727 51       		.byte	0x51
 8291 2728 02       		.uleb128 0x2
 8292 2729 7D       		.byte	0x7d
 8293 272a 00       		.sleb128 0
 8294 272b 35       		.uleb128 0x35
 8295 272c 01       		.uleb128 0x1
 8296 272d 50       		.byte	0x50
 8297 272e 02       		.uleb128 0x2
 8298 272f 74       		.byte	0x74
 8299 2730 06       		.sleb128 6
 8300 2731 00       		.byte	0
 8301 2732 36       		.uleb128 0x36
 8302 2733 C0060000 		.4byte	.LVL112
 8303 2737 0E2E0000 		.4byte	0x2e0e
 8304 273b 35       		.uleb128 0x35
 8305 273c 01       		.uleb128 0x1
 8306 273d 51       		.byte	0x51
 8307 273e 02       		.uleb128 0x2
 8308 273f 74       		.byte	0x74
 8309 2740 06       		.sleb128 6
 8310 2741 00       		.byte	0
 8311 2742 00       		.byte	0
 8312 2743 00       		.byte	0
 8313 2744 3E       		.uleb128 0x3e
 8314 2745 8A060000 		.4byte	.LVL109
 8315 2749 12300000 		.4byte	0x3012
 8316 274d 5B270000 		.4byte	0x275b
 8317 2751 35       		.uleb128 0x35
 8318 2752 01       		.uleb128 0x1
 8319 2753 50       		.byte	0x50
 8320 2754 05       		.uleb128 0x5
 8321 2755 03       		.byte	0x3
 8322 2756 00000000 		.4byte	pFile
 8323 275a 00       		.byte	0
 8324 275b 36       		.uleb128 0x36
 8325 275c CA060000 		.4byte	.LVL114
 8326 2760 0E2E0000 		.4byte	0x2e0e
 8327 2764 35       		.uleb128 0x35
 8328 2765 01       		.uleb128 0x1
 8329 2766 51       		.byte	0x51
 8330 2767 05       		.uleb128 0x5
 8331 2768 03       		.byte	0x3
 8332 2769 00000000 		.4byte	FileName
 8333 276d 00       		.byte	0
 8334 276e 00       		.byte	0
 8335 276f 4E       		.uleb128 0x4e
 8336 2770 BB0E0000 		.4byte	.LASF440
 8337 2774 01       		.byte	0x1
 8338 2775 A401     		.2byte	0x1a4
 8339 2777 E0060000 		.4byte	.LFB141
 8340 277b 64000000 		.4byte	.LFE141-.LFB141
 8341 277f 01       		.uleb128 0x1
 8342 2780 9C       		.byte	0x9c
 8343 2781 F4270000 		.4byte	0x27f4
 8344 2785 53       		.uleb128 0x53
 8345 2786 F4070000 		.4byte	.LASF441
 8346 278a 01       		.byte	0x1
ARM GAS  /tmp/ccLdaIGa.s 			page 148


 8347 278b A701     		.2byte	0x1a7
 8348 278d 25000000 		.4byte	0x25
 8349 2791 71020000 		.4byte	.LLST18
 8350 2795 53       		.uleb128 0x53
 8351 2796 7A0D0000 		.4byte	.LASF442
 8352 279a 01       		.byte	0x1
 8353 279b A801     		.2byte	0x1a8
 8354 279d 25000000 		.4byte	0x25
 8355 27a1 DF020000 		.4byte	.LLST19
 8356 27a5 4F       		.uleb128 0x4f
 8357 27a6 6300     		.ascii	"c\000"
 8358 27a8 01       		.byte	0x1
 8359 27a9 A901     		.2byte	0x1a9
 8360 27ab 25000000 		.4byte	0x25
 8361 27af 4F030000 		.4byte	.LLST20
 8362 27b3 4F       		.uleb128 0x4f
 8363 27b4 65727200 		.ascii	"err\000"
 8364 27b8 01       		.byte	0x1
 8365 27b9 B301     		.2byte	0x1b3
 8366 27bb 25000000 		.4byte	0x25
 8367 27bf C9030000 		.4byte	.LLST21
 8368 27c3 3D       		.uleb128 0x3d
 8369 27c4 E6060000 		.4byte	.LVL115
 8370 27c8 27300000 		.4byte	0x3027
 8371 27cc 3E       		.uleb128 0x3e
 8372 27cd EC060000 		.4byte	.LVL116
 8373 27d1 2E300000 		.4byte	0x302e
 8374 27d5 DF270000 		.4byte	0x27df
 8375 27d9 35       		.uleb128 0x35
 8376 27da 01       		.uleb128 0x1
 8377 27db 50       		.byte	0x50
 8378 27dc 01       		.uleb128 0x1
 8379 27dd 3B       		.byte	0x3b
 8380 27de 00       		.byte	0
 8381 27df 36       		.uleb128 0x36
 8382 27e0 00070000 		.4byte	.LVL119
 8383 27e4 43300000 		.4byte	0x3043
 8384 27e8 35       		.uleb128 0x35
 8385 27e9 01       		.uleb128 0x1
 8386 27ea 50       		.byte	0x50
 8387 27eb 06       		.uleb128 0x6
 8388 27ec 74       		.byte	0x74
 8389 27ed FCDFB3C0 		.sleb128 -401805316
 8389      7E
 8390 27f2 00       		.byte	0
 8391 27f3 00       		.byte	0
 8392 27f4 4E       		.uleb128 0x4e
 8393 27f5 5E000000 		.4byte	.LASF443
 8394 27f9 01       		.byte	0x1
 8395 27fa C301     		.2byte	0x1c3
 8396 27fc 50070000 		.4byte	.LFB142
 8397 2800 84000000 		.4byte	.LFE142-.LFB142
 8398 2804 01       		.uleb128 0x1
 8399 2805 9C       		.byte	0x9c
 8400 2806 4B280000 		.4byte	0x284b
 8401 280a 54       		.uleb128 0x54
 8402 280b 61070000 		.4byte	.LASF444
ARM GAS  /tmp/ccLdaIGa.s 			page 149


 8403 280f 01       		.byte	0x1
 8404 2810 C401     		.2byte	0x1c4
 8405 2812 4B280000 		.4byte	0x284b
 8406 2816 02       		.uleb128 0x2
 8407 2817 91       		.byte	0x91
 8408 2818 50       		.sleb128 -48
 8409 2819 53       		.uleb128 0x53
 8410 281a 230F0000 		.4byte	.LASF445
 8411 281e 01       		.byte	0x1
 8412 281f CD01     		.2byte	0x1cd
 8413 2821 E4000000 		.4byte	0xe4
 8414 2825 DC030000 		.4byte	.LLST22
 8415 2829 55       		.uleb128 0x55
 8416 282a 4F1E0000 		.4byte	0x1e4f
 8417 282e 54070000 		.4byte	.LBB33
 8418 2832 88000000 		.4byte	.Ldebug_ranges0+0x88
 8419 2836 01       		.byte	0x1
 8420 2837 CD01     		.2byte	0x1cd
 8421 2839 3F       		.uleb128 0x3f
 8422 283a C4070000 		.4byte	.LVL127
 8423 283e 35       		.uleb128 0x35
 8424 283f 01       		.uleb128 0x1
 8425 2840 52       		.byte	0x52
 8426 2841 01       		.uleb128 0x1
 8427 2842 40       		.byte	0x40
 8428 2843 35       		.uleb128 0x35
 8429 2844 01       		.uleb128 0x1
 8430 2845 51       		.byte	0x51
 8431 2846 02       		.uleb128 0x2
 8432 2847 7D       		.byte	0x7d
 8433 2848 00       		.sleb128 0
 8434 2849 00       		.byte	0
 8435 284a 00       		.byte	0
 8436 284b 14       		.uleb128 0x14
 8437 284c C3000000 		.4byte	0xc3
 8438 2850 5B280000 		.4byte	0x285b
 8439 2854 15       		.uleb128 0x15
 8440 2855 2F040000 		.4byte	0x42f
 8441 2859 0F       		.byte	0xf
 8442 285a 00       		.byte	0
 8443 285b 4E       		.uleb128 0x4e
 8444 285c 8A0D0000 		.4byte	.LASF446
 8445 2860 01       		.byte	0x1
 8446 2861 DA01     		.2byte	0x1da
 8447 2863 E0070000 		.4byte	.LFB143
 8448 2867 88080000 		.4byte	.LFE143-.LFB143
 8449 286b 01       		.uleb128 0x1
 8450 286c 9C       		.byte	0x9c
 8451 286d 7F2B0000 		.4byte	0x2b7f
 8452 2871 56       		.uleb128 0x56
 8453 2872 6300     		.ascii	"c\000"
 8454 2874 01       		.byte	0x1
 8455 2875 DA01     		.2byte	0x1da
 8456 2877 5B000000 		.4byte	0x5b
 8457 287b FE030000 		.4byte	.LLST23
 8458 287f 54       		.uleb128 0x54
 8459 2880 2D140000 		.4byte	.LASF266
ARM GAS  /tmp/ccLdaIGa.s 			page 150


 8460 2884 01       		.byte	0x1
 8461 2885 DB01     		.2byte	0x1db
 8462 2887 B6050000 		.4byte	0x5b6
 8463 288b 05       		.uleb128 0x5
 8464 288c 03       		.byte	0x3
 8465 288d 58020000 		.4byte	header.8716
 8466 2891 54       		.uleb128 0x54
 8467 2892 8C0C0000 		.4byte	.LASF101
 8468 2896 01       		.byte	0x1
 8469 2897 DC01     		.2byte	0x1dc
 8470 2899 25000000 		.4byte	0x25
 8471 289d 05       		.uleb128 0x5
 8472 289e 03       		.byte	0x3
 8473 289f 5C020000 		.4byte	state.8717
 8474 28a3 54       		.uleb128 0x54
 8475 28a4 3D030000 		.4byte	.LASF269
 8476 28a8 01       		.byte	0x1
 8477 28a9 DD01     		.2byte	0x1dd
 8478 28ab 37000000 		.4byte	0x37
 8479 28af 05       		.uleb128 0x5
 8480 28b0 03       		.byte	0x3
 8481 28b1 68020000 		.4byte	index.8718
 8482 28b5 54       		.uleb128 0x54
 8483 28b6 D5060000 		.4byte	.LASF268
 8484 28ba 01       		.byte	0x1
 8485 28bb DE01     		.2byte	0x1de
 8486 28bd 25000000 		.4byte	0x25
 8487 28c1 05       		.uleb128 0x5
 8488 28c2 03       		.byte	0x3
 8489 28c3 64020000 		.4byte	value.8719
 8490 28c7 54       		.uleb128 0x54
 8491 28c8 110E0000 		.4byte	.LASF447
 8492 28cc 01       		.byte	0x1
 8493 28cd DF01     		.2byte	0x1df
 8494 28cf 25000000 		.4byte	0x25
 8495 28d3 05       		.uleb128 0x5
 8496 28d4 03       		.byte	0x3
 8497 28d5 74020000 		.4byte	position.8720
 8498 28d9 54       		.uleb128 0x54
 8499 28da 37130000 		.4byte	.LASF448
 8500 28de 01       		.byte	0x1
 8501 28df E001     		.2byte	0x1e0
 8502 28e1 25000000 		.4byte	0x25
 8503 28e5 05       		.uleb128 0x5
 8504 28e6 03       		.byte	0x3
 8505 28e7 6C020000 		.4byte	offset.8721
 8506 28eb 54       		.uleb128 0x54
 8507 28ec 32010000 		.4byte	.LASF432
 8508 28f0 01       		.byte	0x1
 8509 28f1 E101     		.2byte	0x1e1
 8510 28f3 25000000 		.4byte	0x25
 8511 28f7 05       		.uleb128 0x5
 8512 28f8 03       		.byte	0x3
 8513 28f9 70020000 		.4byte	length.8722
 8514 28fd 50       		.uleb128 0x50
 8515 28fe 6100     		.ascii	"a\000"
 8516 2900 01       		.byte	0x1
ARM GAS  /tmp/ccLdaIGa.s 			page 151


 8517 2901 E201     		.2byte	0x1e2
 8518 2903 25000000 		.4byte	0x25
 8519 2907 05       		.uleb128 0x5
 8520 2908 03       		.byte	0x3
 8521 2909 7C020000 		.4byte	a.8723
 8522 290d 50       		.uleb128 0x50
 8523 290e 6200     		.ascii	"b\000"
 8524 2910 01       		.byte	0x1
 8525 2911 E301     		.2byte	0x1e3
 8526 2913 25000000 		.4byte	0x25
 8527 2917 05       		.uleb128 0x5
 8528 2918 03       		.byte	0x3
 8529 2919 80020000 		.4byte	b.8724
 8530 291d 54       		.uleb128 0x54
 8531 291e AB0C0000 		.4byte	.LASF449
 8532 2922 01       		.byte	0x1
 8533 2923 E401     		.2byte	0x1e4
 8534 2925 E4000000 		.4byte	0xe4
 8535 2929 05       		.uleb128 0x5
 8536 292a 03       		.byte	0x3
 8537 292b 60020000 		.4byte	patchid.8725
 8538 292f 3C       		.uleb128 0x3c
 8539 2930 A0000000 		.4byte	.Ldebug_ranges0+0xa0
 8540 2934 66290000 		.4byte	0x2966
 8541 2938 54       		.uleb128 0x54
 8542 2939 35070000 		.4byte	.LASF450
 8543 293d 01       		.byte	0x1
 8544 293e 1503     		.2byte	0x315
 8545 2940 7F2B0000 		.4byte	0x2b7f
 8546 2944 05       		.uleb128 0x5
 8547 2945 03       		.byte	0x3
 8548 2946 78020000 		.4byte	midi_r.8777
 8549 294a 36       		.uleb128 0x36
 8550 294b 540D0000 		.4byte	.LVL141
 8551 294f 512D0000 		.4byte	0x2d51
 8552 2953 35       		.uleb128 0x35
 8553 2954 01       		.uleb128 0x1
 8554 2955 51       		.byte	0x51
 8555 2956 01       		.uleb128 0x1
 8556 2957 31       		.byte	0x31
 8557 2958 35       		.uleb128 0x35
 8558 2959 01       		.uleb128 0x1
 8559 295a 50       		.byte	0x50
 8560 295b 01       		.uleb128 0x1
 8561 295c 3F       		.byte	0x3f
 8562 295d 35       		.uleb128 0x35
 8563 295e 02       		.uleb128 0x2
 8564 295f 7D       		.byte	0x7d
 8565 2960 00       		.sleb128 0
 8566 2961 02       		.uleb128 0x2
 8567 2962 75       		.byte	0x75
 8568 2963 00       		.sleb128 0
 8569 2964 00       		.byte	0
 8570 2965 00       		.byte	0
 8571 2966 3C       		.uleb128 0x3c
 8572 2967 C0000000 		.4byte	.Ldebug_ranges0+0xc0
 8573 296b A6290000 		.4byte	0x29a6
ARM GAS  /tmp/ccLdaIGa.s 			page 152


 8574 296f 54       		.uleb128 0x54
 8575 2970 70130000 		.4byte	.LASF451
 8576 2974 01       		.byte	0x1
 8577 2975 FB03     		.2byte	0x3fb
 8578 2977 89070000 		.4byte	0x789
 8579 297b 02       		.uleb128 0x2
 8580 297c 91       		.byte	0x91
 8581 297d 5C       		.sleb128 -36
 8582 297e 49       		.uleb128 0x49
 8583 297f 240E0000 		.4byte	.LVL144
 8584 2983 99290000 		.4byte	0x2999
 8585 2987 35       		.uleb128 0x35
 8586 2988 01       		.uleb128 0x1
 8587 2989 52       		.byte	0x52
 8588 298a 01       		.uleb128 0x1
 8589 298b 3C       		.byte	0x3c
 8590 298c 35       		.uleb128 0x35
 8591 298d 01       		.uleb128 0x1
 8592 298e 51       		.byte	0x51
 8593 298f 02       		.uleb128 0x2
 8594 2990 91       		.byte	0x91
 8595 2991 5C       		.sleb128 -36
 8596 2992 35       		.uleb128 0x35
 8597 2993 01       		.uleb128 0x1
 8598 2994 50       		.byte	0x50
 8599 2995 02       		.uleb128 0x2
 8600 2996 76       		.byte	0x76
 8601 2997 00       		.sleb128 0
 8602 2998 00       		.byte	0
 8603 2999 3F       		.uleb128 0x3f
 8604 299a 340E0000 		.4byte	.LVL145
 8605 299e 35       		.uleb128 0x35
 8606 299f 01       		.uleb128 0x1
 8607 29a0 50       		.byte	0x50
 8608 29a1 02       		.uleb128 0x2
 8609 29a2 76       		.byte	0x76
 8610 29a3 00       		.sleb128 0
 8611 29a4 00       		.byte	0
 8612 29a5 00       		.byte	0
 8613 29a6 3C       		.uleb128 0x3c
 8614 29a7 E0000000 		.4byte	.Ldebug_ranges0+0xe0
 8615 29ab D3290000 		.4byte	0x29d3
 8616 29af 54       		.uleb128 0x54
 8617 29b0 70130000 		.4byte	.LASF451
 8618 29b4 01       		.byte	0x1
 8619 29b5 1E04     		.2byte	0x41e
 8620 29b7 89070000 		.4byte	0x789
 8621 29bb 02       		.uleb128 0x2
 8622 29bc 91       		.byte	0x91
 8623 29bd 5C       		.sleb128 -36
 8624 29be 51       		.uleb128 0x51
 8625 29bf FC0E0000 		.4byte	.LVL157
 8626 29c3 02       		.uleb128 0x2
 8627 29c4 75       		.byte	0x75
 8628 29c5 00       		.sleb128 0
 8629 29c6 35       		.uleb128 0x35
 8630 29c7 01       		.uleb128 0x1
ARM GAS  /tmp/ccLdaIGa.s 			page 153


 8631 29c8 52       		.byte	0x52
 8632 29c9 01       		.uleb128 0x1
 8633 29ca 3C       		.byte	0x3c
 8634 29cb 35       		.uleb128 0x35
 8635 29cc 01       		.uleb128 0x1
 8636 29cd 51       		.byte	0x51
 8637 29ce 02       		.uleb128 0x2
 8638 29cf 91       		.byte	0x91
 8639 29d0 5C       		.sleb128 -36
 8640 29d1 00       		.byte	0
 8641 29d2 00       		.byte	0
 8642 29d3 3C       		.uleb128 0x3c
 8643 29d4 00010000 		.4byte	.Ldebug_ranges0+0x100
 8644 29d8 9F2A0000 		.4byte	0x2a9f
 8645 29dc 4F       		.uleb128 0x4f
 8646 29dd 65727200 		.ascii	"err\000"
 8647 29e1 01       		.byte	0x1
 8648 29e2 F402     		.2byte	0x2f4
 8649 29e4 38190000 		.4byte	0x1938
 8650 29e8 BF050000 		.4byte	.LLST24
 8651 29ec 54       		.uleb128 0x54
 8652 29ed 83080000 		.4byte	.LASF452
 8653 29f1 01       		.byte	0x1
 8654 29f2 FC02     		.2byte	0x2fc
 8655 29f4 25000000 		.4byte	0x25
 8656 29f8 02       		.uleb128 0x2
 8657 29f9 91       		.byte	0x91
 8658 29fa 5C       		.sleb128 -36
 8659 29fb 3D       		.uleb128 0x3d
 8660 29fc 660E0000 		.4byte	.LVL147
 8661 2a00 0B300000 		.4byte	0x300b
 8662 2a04 3E       		.uleb128 0x3e
 8663 2a05 700E0000 		.4byte	.LVL148
 8664 2a09 4E2F0000 		.4byte	0x2f4e
 8665 2a0d 292A0000 		.4byte	0x2a29
 8666 2a11 35       		.uleb128 0x35
 8667 2a12 01       		.uleb128 0x1
 8668 2a13 52       		.byte	0x52
 8669 2a14 01       		.uleb128 0x1
 8670 2a15 3A       		.byte	0x3a
 8671 2a16 35       		.uleb128 0x35
 8672 2a17 01       		.uleb128 0x1
 8673 2a18 51       		.byte	0x51
 8674 2a19 05       		.uleb128 0x5
 8675 2a1a 03       		.byte	0x3
 8676 2a1b 00000000 		.4byte	FileName
 8677 2a1f 35       		.uleb128 0x35
 8678 2a20 01       		.uleb128 0x1
 8679 2a21 50       		.byte	0x50
 8680 2a22 05       		.uleb128 0x5
 8681 2a23 03       		.byte	0x3
 8682 2a24 00000000 		.4byte	pFile
 8683 2a28 00       		.byte	0
 8684 2a29 3E       		.uleb128 0x3e
 8685 2a2a 860E0000 		.4byte	.LVL150
 8686 2a2e 5D300000 		.4byte	0x305d
 8687 2a32 462A0000 		.4byte	0x2a46
ARM GAS  /tmp/ccLdaIGa.s 			page 154


 8688 2a36 35       		.uleb128 0x35
 8689 2a37 01       		.uleb128 0x1
 8690 2a38 53       		.byte	0x53
 8691 2a39 02       		.uleb128 0x2
 8692 2a3a 91       		.byte	0x91
 8693 2a3b 5C       		.sleb128 -36
 8694 2a3c 35       		.uleb128 0x35
 8695 2a3d 01       		.uleb128 0x1
 8696 2a3e 50       		.byte	0x50
 8697 2a3f 05       		.uleb128 0x5
 8698 2a40 03       		.byte	0x3
 8699 2a41 00000000 		.4byte	pFile
 8700 2a45 00       		.byte	0
 8701 2a46 3E       		.uleb128 0x3e
 8702 2a47 920E0000 		.4byte	.LVL152
 8703 2a4b 12300000 		.4byte	0x3012
 8704 2a4f 5D2A0000 		.4byte	0x2a5d
 8705 2a53 35       		.uleb128 0x35
 8706 2a54 01       		.uleb128 0x1
 8707 2a55 50       		.byte	0x50
 8708 2a56 05       		.uleb128 0x5
 8709 2a57 03       		.byte	0x3
 8710 2a58 00000000 		.4byte	pFile
 8711 2a5c 00       		.byte	0
 8712 2a5d 3E       		.uleb128 0x3e
 8713 2a5e 9A0E0000 		.4byte	.LVL154
 8714 2a62 AF210000 		.4byte	0x21af
 8715 2a66 742A0000 		.4byte	0x2a74
 8716 2a6a 35       		.uleb128 0x35
 8717 2a6b 01       		.uleb128 0x1
 8718 2a6c 50       		.byte	0x50
 8719 2a6d 05       		.uleb128 0x5
 8720 2a6e 03       		.byte	0x3
 8721 2a6f 38000000 		.4byte	.LC4
 8722 2a73 00       		.byte	0
 8723 2a74 3E       		.uleb128 0x3e
 8724 2a75 F40F0000 		.4byte	.LVL174
 8725 2a79 AF210000 		.4byte	0x21af
 8726 2a7d 8B2A0000 		.4byte	0x2a8b
 8727 2a81 35       		.uleb128 0x35
 8728 2a82 01       		.uleb128 0x1
 8729 2a83 50       		.byte	0x50
 8730 2a84 05       		.uleb128 0x5
 8731 2a85 03       		.byte	0x3
 8732 2a86 24000000 		.4byte	.LC3
 8733 2a8a 00       		.byte	0
 8734 2a8b 36       		.uleb128 0x36
 8735 2a8c FC0F0000 		.4byte	.LVL177
 8736 2a90 AF210000 		.4byte	0x21af
 8737 2a94 35       		.uleb128 0x35
 8738 2a95 01       		.uleb128 0x1
 8739 2a96 50       		.byte	0x50
 8740 2a97 05       		.uleb128 0x5
 8741 2a98 03       		.byte	0x3
 8742 2a99 10000000 		.4byte	.LC2
 8743 2a9d 00       		.byte	0
 8744 2a9e 00       		.byte	0
ARM GAS  /tmp/ccLdaIGa.s 			page 155


 8745 2a9f 3C       		.uleb128 0x3c
 8746 2aa0 18010000 		.4byte	.Ldebug_ranges0+0x118
 8747 2aa4 FE2A0000 		.4byte	0x2afe
 8748 2aa8 4F       		.uleb128 0x4f
 8749 2aa9 65727200 		.ascii	"err\000"
 8750 2aad 01       		.byte	0x1
 8751 2aae 6A03     		.2byte	0x36a
 8752 2ab0 38190000 		.4byte	0x1938
 8753 2ab4 FE050000 		.4byte	.LLST25
 8754 2ab8 54       		.uleb128 0x54
 8755 2ab9 83080000 		.4byte	.LASF452
 8756 2abd 01       		.byte	0x1
 8757 2abe 6D03     		.2byte	0x36d
 8758 2ac0 25000000 		.4byte	0x25
 8759 2ac4 02       		.uleb128 0x2
 8760 2ac5 91       		.byte	0x91
 8761 2ac6 5C       		.sleb128 -36
 8762 2ac7 3E       		.uleb128 0x3e
 8763 2ac8 600F0000 		.4byte	.LVL162
 8764 2acc 5D300000 		.4byte	0x305d
 8765 2ad0 ED2A0000 		.4byte	0x2aed
 8766 2ad4 35       		.uleb128 0x35
 8767 2ad5 01       		.uleb128 0x1
 8768 2ad6 53       		.byte	0x53
 8769 2ad7 02       		.uleb128 0x2
 8770 2ad8 91       		.byte	0x91
 8771 2ad9 5C       		.sleb128 -36
 8772 2ada 35       		.uleb128 0x35
 8773 2adb 01       		.uleb128 0x1
 8774 2adc 51       		.byte	0x51
 8775 2add 05       		.uleb128 0x5
 8776 2ade 0C       		.byte	0xc
 8777 2adf 00100120 		.4byte	0x20011000
 8778 2ae3 35       		.uleb128 0x35
 8779 2ae4 01       		.uleb128 0x1
 8780 2ae5 50       		.byte	0x50
 8781 2ae6 05       		.uleb128 0x5
 8782 2ae7 03       		.byte	0x3
 8783 2ae8 00000000 		.4byte	pFile
 8784 2aec 00       		.byte	0
 8785 2aed 36       		.uleb128 0x36
 8786 2aee 6A0F0000 		.4byte	.LVL163
 8787 2af2 0E2E0000 		.4byte	0x2e0e
 8788 2af6 35       		.uleb128 0x35
 8789 2af7 01       		.uleb128 0x1
 8790 2af8 51       		.byte	0x51
 8791 2af9 02       		.uleb128 0x2
 8792 2afa 75       		.byte	0x75
 8793 2afb 00       		.sleb128 0
 8794 2afc 00       		.byte	0
 8795 2afd 00       		.byte	0
 8796 2afe 3D       		.uleb128 0x3d
 8797 2aff 74080000 		.4byte	.LVL129
 8798 2b03 271E0000 		.4byte	0x1e27
 8799 2b07 3E       		.uleb128 0x3e
 8800 2b08 1E0A0000 		.4byte	.LVL134
 8801 2b0c 8E300000 		.4byte	0x308e
ARM GAS  /tmp/ccLdaIGa.s 			page 156


 8802 2b10 1B2B0000 		.4byte	0x2b1b
 8803 2b14 35       		.uleb128 0x35
 8804 2b15 01       		.uleb128 0x1
 8805 2b16 52       		.byte	0x52
 8806 2b17 02       		.uleb128 0x2
 8807 2b18 09       		.byte	0x9
 8808 2b19 EE       		.byte	0xee
 8809 2b1a 00       		.byte	0
 8810 2b1b 3D       		.uleb128 0x3d
 8811 2b1c BC0C0000 		.4byte	.LVL138
 8812 2b20 A9300000 		.4byte	0x30a9
 8813 2b24 3D       		.uleb128 0x3d
 8814 2b25 160F0000 		.4byte	.LVL159
 8815 2b29 F4230000 		.4byte	0x23f4
 8816 2b2d 3D       		.uleb128 0x3d
 8817 2b2e BE0F0000 		.4byte	.LVL165
 8818 2b32 BA300000 		.4byte	0x30ba
 8819 2b36 3D       		.uleb128 0x3d
 8820 2b37 D40F0000 		.4byte	.LVL167
 8821 2b3b BA300000 		.4byte	0x30ba
 8822 2b3f 3D       		.uleb128 0x3d
 8823 2b40 D80F0000 		.4byte	.LVL168
 8824 2b44 C1300000 		.4byte	0x30c1
 8825 2b48 3D       		.uleb128 0x3d
 8826 2b49 E80F0000 		.4byte	.LVL170
 8827 2b4d BA300000 		.4byte	0x30ba
 8828 2b51 3D       		.uleb128 0x3d
 8829 2b52 EC0F0000 		.4byte	.LVL171
 8830 2b56 6F270000 		.4byte	0x276f
 8831 2b5a 3D       		.uleb128 0x3d
 8832 2b5b 0C100000 		.4byte	.LVL179
 8833 2b5f BA300000 		.4byte	0x30ba
 8834 2b63 3D       		.uleb128 0x3d
 8835 2b64 10100000 		.4byte	.LVL180
 8836 2b68 22230000 		.4byte	0x2322
 8837 2b6c 3D       		.uleb128 0x3d
 8838 2b6d 1E100000 		.4byte	.LVL182
 8839 2b71 F4270000 		.4byte	0x27f4
 8840 2b75 3D       		.uleb128 0x3d
 8841 2b76 3A100000 		.4byte	.LVL184
 8842 2b7a C8300000 		.4byte	0x30c8
 8843 2b7e 00       		.byte	0
 8844 2b7f 14       		.uleb128 0x14
 8845 2b80 C3000000 		.4byte	0xc3
 8846 2b84 8F2B0000 		.4byte	0x2b8f
 8847 2b88 15       		.uleb128 0x15
 8848 2b89 2F040000 		.4byte	0x42f
 8849 2b8d 02       		.byte	0x2
 8850 2b8e 00       		.byte	0
 8851 2b8f 4E       		.uleb128 0x4e
 8852 2b90 8D0A0000 		.4byte	.LASF453
 8853 2b94 01       		.byte	0x1
 8854 2b95 3304     		.2byte	0x433
 8855 2b97 70100000 		.4byte	.LFB144
 8856 2b9b 3C000000 		.4byte	.LFE144-.LFB144
 8857 2b9f 01       		.uleb128 0x1
 8858 2ba0 9C       		.byte	0x9c
ARM GAS  /tmp/ccLdaIGa.s 			page 157


 8859 2ba1 E72B0000 		.4byte	0x2be7
 8860 2ba5 48       		.uleb128 0x48
 8861 2ba6 80100000 		.4byte	.LBB50
 8862 2baa 1C000000 		.4byte	.LBE50-.LBB50
 8863 2bae 54       		.uleb128 0x54
 8864 2baf 2D160000 		.4byte	.LASF454
 8865 2bb3 01       		.byte	0x1
 8866 2bb4 3504     		.2byte	0x435
 8867 2bb6 5B000000 		.4byte	0x5b
 8868 2bba 02       		.uleb128 0x2
 8869 2bbb 91       		.byte	0x91
 8870 2bbc 6F       		.sleb128 -17
 8871 2bbd 3D       		.uleb128 0x3d
 8872 2bbe 88100000 		.4byte	.LVL185
 8873 2bc2 5B280000 		.4byte	0x285b
 8874 2bc6 51       		.uleb128 0x51
 8875 2bc7 98100000 		.4byte	.LVL186
 8876 2bcb 02       		.uleb128 0x2
 8877 2bcc 74       		.byte	0x74
 8878 2bcd 00       		.sleb128 0
 8879 2bce 35       		.uleb128 0x35
 8880 2bcf 01       		.uleb128 0x1
 8881 2bd0 53       		.byte	0x53
 8882 2bd1 01       		.uleb128 0x1
 8883 2bd2 30       		.byte	0x30
 8884 2bd3 35       		.uleb128 0x35
 8885 2bd4 01       		.uleb128 0x1
 8886 2bd5 52       		.byte	0x52
 8887 2bd6 01       		.uleb128 0x1
 8888 2bd7 31       		.byte	0x31
 8889 2bd8 35       		.uleb128 0x35
 8890 2bd9 01       		.uleb128 0x1
 8891 2bda 51       		.byte	0x51
 8892 2bdb 02       		.uleb128 0x2
 8893 2bdc 91       		.byte	0x91
 8894 2bdd 6F       		.sleb128 -17
 8895 2bde 35       		.uleb128 0x35
 8896 2bdf 01       		.uleb128 0x1
 8897 2be0 50       		.byte	0x50
 8898 2be1 02       		.uleb128 0x2
 8899 2be2 75       		.byte	0x75
 8900 2be3 00       		.sleb128 0
 8901 2be4 00       		.byte	0
 8902 2be5 00       		.byte	0
 8903 2be6 00       		.byte	0
 8904 2be7 14       		.uleb128 0x14
 8905 2be8 B2020000 		.4byte	0x2b2
 8906 2bec F72B0000 		.4byte	0x2bf7
 8907 2bf0 15       		.uleb128 0x15
 8908 2bf1 2F040000 		.4byte	0x42f
 8909 2bf5 49       		.byte	0x49
 8910 2bf6 00       		.byte	0
 8911 2bf7 4D       		.uleb128 0x4d
 8912 2bf8 FE0E0000 		.4byte	.LASF455
 8913 2bfc 01       		.byte	0x1
 8914 2bfd 33       		.byte	0x33
 8915 2bfe E72B0000 		.4byte	0x2be7
ARM GAS  /tmp/ccLdaIGa.s 			page 158


 8916 2c02 05       		.uleb128 0x5
 8917 2c03 03       		.byte	0x3
 8918 2c04 00000000 		.4byte	waThreadUSBDMidi
 8919 2c08 42       		.uleb128 0x42
 8920 2c09 55030000 		.4byte	.LASF457
 8921 2c0d 09       		.byte	0x9
 8922 2c0e 6F       		.byte	0x6f
 8923 2c0f 87040000 		.4byte	0x487
 8924 2c13 57       		.uleb128 0x57
 8925 2c14 0D130000 		.4byte	.LASF458
 8926 2c18 1C       		.byte	0x1c
 8927 2c19 DF07     		.2byte	0x7df
 8928 2c1b 74070000 		.4byte	0x774
 8929 2c1f 42       		.uleb128 0x42
 8930 2c20 9F010000 		.4byte	.LASF459
 8931 2c24 15       		.byte	0x15
 8932 2c25 37       		.byte	0x37
 8933 2c26 74150000 		.4byte	0x1574
 8934 2c2a 42       		.uleb128 0x42
 8935 2c2b FC080000 		.4byte	.LASF460
 8936 2c2f 15       		.byte	0x15
 8937 2c30 38       		.byte	0x38
 8938 2c31 74150000 		.4byte	0x1574
 8939 2c35 14       		.uleb128 0x14
 8940 2c36 B8000000 		.4byte	0xb8
 8941 2c3a 452C0000 		.4byte	0x2c45
 8942 2c3e 15       		.uleb128 0x15
 8943 2c3f 2F040000 		.4byte	0x42f
 8944 2c43 03       		.byte	0x3
 8945 2c44 00       		.byte	0
 8946 2c45 42       		.uleb128 0x42
 8947 2c46 10040000 		.4byte	.LASF461
 8948 2c4a 15       		.byte	0x15
 8949 2c4b 39       		.byte	0x39
 8950 2c4c 352C0000 		.4byte	0x2c35
 8951 2c50 42       		.uleb128 0x42
 8952 2c51 49020000 		.4byte	.LASF462
 8953 2c55 19       		.byte	0x19
 8954 2c56 3A       		.byte	0x3a
 8955 2c57 E71A0000 		.4byte	0x1ae7
 8956 2c5b 42       		.uleb128 0x42
 8957 2c5c 850E0000 		.4byte	.LASF463
 8958 2c60 19       		.byte	0x19
 8959 2c61 3C       		.byte	0x3c
 8960 2c62 25000000 		.4byte	0x25
 8961 2c66 42       		.uleb128 0x42
 8962 2c67 EA0F0000 		.4byte	.LASF464
 8963 2c6b 19       		.byte	0x19
 8964 2c6c 46       		.byte	0x46
 8965 2c6d 191B0000 		.4byte	0x1b19
 8966 2c71 42       		.uleb128 0x42
 8967 2c72 1A0E0000 		.4byte	.LASF465
 8968 2c76 19       		.byte	0x19
 8969 2c77 50       		.byte	0x50
 8970 2c78 7C2C0000 		.4byte	0x2c7c
 8971 2c7c 0D       		.uleb128 0xd
 8972 2c7d 451B0000 		.4byte	0x1b45
ARM GAS  /tmp/ccLdaIGa.s 			page 159


 8973 2c81 42       		.uleb128 0x42
 8974 2c82 73080000 		.4byte	.LASF466
 8975 2c86 1D       		.byte	0x1d
 8976 2c87 21       		.byte	0x21
 8977 2c88 E01C0000 		.4byte	0x1ce0
 8978 2c8c 42       		.uleb128 0x42
 8979 2c8d 2D010000 		.4byte	.LASF467
 8980 2c91 1D       		.byte	0x1d
 8981 2c92 22       		.byte	0x22
 8982 2c93 761B0000 		.4byte	0x1b76
 8983 2c97 42       		.uleb128 0x42
 8984 2c98 17050000 		.4byte	.LASF468
 8985 2c9c 1D       		.byte	0x1d
 8986 2c9d 24       		.byte	0x24
 8987 2c9e A7120000 		.4byte	0x12a7
 8988 2ca2 42       		.uleb128 0x42
 8989 2ca3 5F0D0000 		.4byte	.LASF469
 8990 2ca7 1D       		.byte	0x1d
 8991 2ca8 25       		.byte	0x25
 8992 2ca9 1C1E0000 		.4byte	0x1e1c
 8993 2cad 42       		.uleb128 0x42
 8994 2cae 16030000 		.4byte	.LASF470
 8995 2cb2 1D       		.byte	0x1d
 8996 2cb3 26       		.byte	0x26
 8997 2cb4 B51C0000 		.4byte	0x1cb5
 8998 2cb8 42       		.uleb128 0x42
 8999 2cb9 DB020000 		.4byte	.LASF471
 9000 2cbd 1E       		.byte	0x1e
 9001 2cbe 20       		.byte	0x20
 9002 2cbf FA000000 		.4byte	0xfa
 9003 2cc3 42       		.uleb128 0x42
 9004 2cc4 5B030000 		.4byte	.LASF472
 9005 2cc8 1E       		.byte	0x1e
 9006 2cc9 22       		.byte	0x22
 9007 2cca 79070000 		.4byte	0x779
 9008 2cce 58       		.uleb128 0x58
 9009 2ccf 230F0000 		.4byte	.LASF445
 9010 2cd3 01       		.byte	0x1
 9011 2cd4 31       		.byte	0x31
 9012 2cd5 E4000000 		.4byte	0xe4
 9013 2cd9 05       		.uleb128 0x5
 9014 2cda 03       		.byte	0x3
 9015 2cdb 00000000 		.4byte	fwid
 9016 2cdf 42       		.uleb128 0x42
 9017 2ce0 400A0000 		.4byte	.LASF456
 9018 2ce4 01       		.byte	0x1
 9019 2ce5 45       		.byte	0x45
 9020 2ce6 D9000000 		.4byte	0xd9
 9021 2cea 58       		.uleb128 0x58
 9022 2ceb 36160000 		.4byte	.LASF473
 9023 2cef 01       		.byte	0x1
 9024 2cf0 5F       		.byte	0x5f
 9025 2cf1 25000000 		.4byte	0x25
 9026 2cf5 05       		.uleb128 0x5
 9027 2cf6 03       		.byte	0x3
 9028 2cf7 00000000 		.4byte	AckPending
 9029 2cfb 58       		.uleb128 0x58
ARM GAS  /tmp/ccLdaIGa.s 			page 160


 9030 2cfc 82000000 		.4byte	.LASF474
 9031 2d00 01       		.byte	0x1
 9032 2d01 60       		.byte	0x60
 9033 2d02 05010000 		.4byte	0x105
 9034 2d06 05       		.uleb128 0x5
 9035 2d07 03       		.byte	0x3
 9036 2d08 00000000 		.4byte	connected
 9037 2d0c 14       		.uleb128 0x14
 9038 2d0d B6050000 		.4byte	0x5b6
 9039 2d11 1C2D0000 		.4byte	0x2d1c
 9040 2d15 15       		.uleb128 0x15
 9041 2d16 2F040000 		.4byte	0x42f
 9042 2d1a FF       		.byte	0xff
 9043 2d1b 00       		.byte	0
 9044 2d1c 58       		.uleb128 0x58
 9045 2d1d DD0D0000 		.4byte	.LASF475
 9046 2d21 01       		.byte	0x1
 9047 2d22 B3       		.byte	0xb3
 9048 2d23 0C2D0000 		.4byte	0x2d0c
 9049 2d27 05       		.uleb128 0x5
 9050 2d28 03       		.byte	0x3
 9051 2d29 00000000 		.4byte	FileName
 9052 2d2d 59       		.uleb128 0x59
 9053 2d2e EF0D0000 		.4byte	.LASF476
 9054 2d32 01       		.byte	0x1
 9055 2d33 3801     		.2byte	0x138
 9056 2d35 9F170000 		.4byte	0x179f
 9057 2d39 05       		.uleb128 0x5
 9058 2d3a 03       		.byte	0x3
 9059 2d3b 00000000 		.4byte	pFile
 9060 2d3f 59       		.uleb128 0x59
 9061 2d40 D4000000 		.4byte	.LASF477
 9062 2d44 01       		.byte	0x1
 9063 2d45 3901     		.2byte	0x139
 9064 2d47 25000000 		.4byte	0x25
 9065 2d4b 05       		.uleb128 0x5
 9066 2d4c 03       		.byte	0x3
 9067 2d4d 00000000 		.4byte	pFileSize
 9068 2d51 5A       		.uleb128 0x5a
 9069 2d52 A5070000 		.4byte	.LASF479
 9070 2d56 18       		.byte	0x18
 9071 2d57 71       		.byte	0x71
 9072 2d58 762D0000 		.4byte	0x2d76
 9073 2d5c 12       		.uleb128 0x12
 9074 2d5d 76190000 		.4byte	0x1976
 9075 2d61 12       		.uleb128 0x12
 9076 2d62 C3000000 		.4byte	0xc3
 9077 2d66 12       		.uleb128 0x12
 9078 2d67 C3000000 		.4byte	0xc3
 9079 2d6b 12       		.uleb128 0x12
 9080 2d6c C3000000 		.4byte	0xc3
 9081 2d70 12       		.uleb128 0x12
 9082 2d71 C3000000 		.4byte	0xc3
 9083 2d75 00       		.byte	0
 9084 2d76 5B       		.uleb128 0x5b
 9085 2d77 76000000 		.4byte	.LASF480
 9086 2d7b 1F       		.byte	0x1f
ARM GAS  /tmp/ccLdaIGa.s 			page 161


 9087 2d7c 1E       		.byte	0x1e
 9088 2d7d 211E0000 		.4byte	0x1e21
 9089 2d81 902D0000 		.4byte	0x2d90
 9090 2d85 12       		.uleb128 0x12
 9091 2d86 211E0000 		.4byte	0x1e21
 9092 2d8a 12       		.uleb128 0x12
 9093 2d8b AB050000 		.4byte	0x5ab
 9094 2d8f 00       		.byte	0
 9095 2d90 5B       		.uleb128 0x5b
 9096 2d91 09040000 		.4byte	.LASF481
 9097 2d95 1F       		.byte	0x1f
 9098 2d96 21       		.byte	0x21
 9099 2d97 2C000000 		.4byte	0x2c
 9100 2d9b A52D0000 		.4byte	0x2da5
 9101 2d9f 12       		.uleb128 0x12
 9102 2da0 AB050000 		.4byte	0x5ab
 9103 2da4 00       		.byte	0
 9104 2da5 5C       		.uleb128 0x5c
 9105 2da6 02060000 		.4byte	.LASF483
 9106 2daa 13       		.byte	0x13
 9107 2dab 00       		.byte	0
 9108 2dac 10010000 		.4byte	.LASF525
 9109 2db0 211E0000 		.4byte	0x1e21
 9110 2db4 C32D0000 		.4byte	0x2dc3
 9111 2db8 12       		.uleb128 0x12
 9112 2db9 211E0000 		.4byte	0x1e21
 9113 2dbd 12       		.uleb128 0x12
 9114 2dbe AB050000 		.4byte	0x5ab
 9115 2dc2 00       		.byte	0
 9116 2dc3 5B       		.uleb128 0x5b
 9117 2dc4 A3050000 		.4byte	.LASF484
 9118 2dc8 17       		.byte	0x17
 9119 2dc9 D2       		.byte	0xd2
 9120 2dca 38190000 		.4byte	0x1938
 9121 2dce DD2D0000 		.4byte	0x2ddd
 9122 2dd2 12       		.uleb128 0x12
 9123 2dd3 DD2D0000 		.4byte	0x2ddd
 9124 2dd7 12       		.uleb128 0x12
 9125 2dd8 E32D0000 		.4byte	0x2de3
 9126 2ddc 00       		.byte	0
 9127 2ddd 09       		.uleb128 0x9
 9128 2dde 04       		.byte	0x4
 9129 2ddf 2E180000 		.4byte	0x182e
 9130 2de3 09       		.uleb128 0x9
 9131 2de4 04       		.byte	0x4
 9132 2de5 E92D0000 		.4byte	0x2de9
 9133 2de9 10       		.uleb128 0x10
 9134 2dea D0150000 		.4byte	0x15d0
 9135 2dee 5B       		.uleb128 0x5b
 9136 2def 490E0000 		.4byte	.LASF485
 9137 2df3 17       		.byte	0x17
 9138 2df4 D3       		.byte	0xd3
 9139 2df5 38190000 		.4byte	0x1938
 9140 2df9 082E0000 		.4byte	0x2e08
 9141 2dfd 12       		.uleb128 0x12
 9142 2dfe DD2D0000 		.4byte	0x2ddd
 9143 2e02 12       		.uleb128 0x12
ARM GAS  /tmp/ccLdaIGa.s 			page 162


 9144 2e03 082E0000 		.4byte	0x2e08
 9145 2e07 00       		.byte	0
 9146 2e08 09       		.uleb128 0x9
 9147 2e09 04       		.byte	0x4
 9148 2e0a AC180000 		.4byte	0x18ac
 9149 2e0e 5A       		.uleb128 0x5a
 9150 2e0f E9080000 		.4byte	.LASF486
 9151 2e13 20       		.byte	0x20
 9152 2e14 1F       		.byte	0x1f
 9153 2e15 242E0000 		.4byte	0x2e24
 9154 2e19 12       		.uleb128 0x12
 9155 2e1a 25000000 		.4byte	0x25
 9156 2e1e 12       		.uleb128 0x12
 9157 2e1f AB050000 		.4byte	0x5ab
 9158 2e23 00       		.byte	0
 9159 2e24 5B       		.uleb128 0x5b
 9160 2e25 75100000 		.4byte	.LASF487
 9161 2e29 21       		.byte	0x21
 9162 2e2a 17       		.byte	0x17
 9163 2e2b E4000000 		.4byte	0xe4
 9164 2e2f 3E2E0000 		.4byte	0x2e3e
 9165 2e33 12       		.uleb128 0x12
 9166 2e34 7D060000 		.4byte	0x67d
 9167 2e38 12       		.uleb128 0x12
 9168 2e39 E4000000 		.4byte	0xe4
 9169 2e3d 00       		.byte	0
 9170 2e3e 5A       		.uleb128 0x5a
 9171 2e3f 3B0E0000 		.4byte	.LASF488
 9172 2e43 1B       		.byte	0x1b
 9173 2e44 A7       		.byte	0xa7
 9174 2e45 4F2E0000 		.4byte	0x2e4f
 9175 2e49 12       		.uleb128 0x12
 9176 2e4a 4F2E0000 		.4byte	0x2e4f
 9177 2e4e 00       		.byte	0
 9178 2e4f 09       		.uleb128 0x9
 9179 2e50 04       		.byte	0x4
 9180 2e51 E01C0000 		.4byte	0x1ce0
 9181 2e55 5A       		.uleb128 0x5a
 9182 2e56 61030000 		.4byte	.LASF489
 9183 2e5a 1B       		.byte	0x1b
 9184 2e5b A8       		.byte	0xa8
 9185 2e5c 6B2E0000 		.4byte	0x2e6b
 9186 2e60 12       		.uleb128 0x12
 9187 2e61 4F2E0000 		.4byte	0x2e4f
 9188 2e65 12       		.uleb128 0x12
 9189 2e66 161E0000 		.4byte	0x1e16
 9190 2e6a 00       		.byte	0
 9191 2e6b 5A       		.uleb128 0x5a
 9192 2e6c 4D050000 		.4byte	.LASF490
 9193 2e70 1A       		.byte	0x1a
 9194 2e71 A5       		.byte	0xa5
 9195 2e72 7C2E0000 		.4byte	0x2e7c
 9196 2e76 12       		.uleb128 0x12
 9197 2e77 7C2E0000 		.4byte	0x2e7c
 9198 2e7b 00       		.byte	0
 9199 2e7c 09       		.uleb128 0x9
 9200 2e7d 04       		.byte	0x4
ARM GAS  /tmp/ccLdaIGa.s 			page 163


 9201 2e7e 761B0000 		.4byte	0x1b76
 9202 2e82 5A       		.uleb128 0x5a
 9203 2e83 7D0A0000 		.4byte	.LASF491
 9204 2e87 1A       		.byte	0x1a
 9205 2e88 A6       		.byte	0xa6
 9206 2e89 982E0000 		.4byte	0x2e98
 9207 2e8d 12       		.uleb128 0x12
 9208 2e8e 7C2E0000 		.4byte	0x2e7c
 9209 2e92 12       		.uleb128 0x12
 9210 2e93 AF1C0000 		.4byte	0x1caf
 9211 2e97 00       		.byte	0
 9212 2e98 5D       		.uleb128 0x5d
 9213 2e99 1C090000 		.4byte	.LASF492
 9214 2e9d 07       		.byte	0x7
 9215 2e9e 7501     		.2byte	0x175
 9216 2ea0 AA2E0000 		.4byte	0x2eaa
 9217 2ea4 12       		.uleb128 0x12
 9218 2ea5 59010000 		.4byte	0x159
 9219 2ea9 00       		.byte	0
 9220 2eaa 5D       		.uleb128 0x5d
 9221 2eab 21030000 		.4byte	.LASF493
 9222 2eaf 0F       		.byte	0xf
 9223 2eb0 2B02     		.2byte	0x22b
 9224 2eb2 C12E0000 		.4byte	0x2ec1
 9225 2eb6 12       		.uleb128 0x12
 9226 2eb7 560A0000 		.4byte	0xa56
 9227 2ebb 12       		.uleb128 0x12
 9228 2ebc A1120000 		.4byte	0x12a1
 9229 2ec0 00       		.byte	0
 9230 2ec1 5E       		.uleb128 0x5e
 9231 2ec2 5B050000 		.4byte	.LASF494
 9232 2ec6 07       		.byte	0x7
 9233 2ec7 7001     		.2byte	0x170
 9234 2ec9 74020000 		.4byte	0x274
 9235 2ecd EB2E0000 		.4byte	0x2eeb
 9236 2ed1 12       		.uleb128 0x12
 9237 2ed2 B0020000 		.4byte	0x2b0
 9238 2ed6 12       		.uleb128 0x12
 9239 2ed7 2C000000 		.4byte	0x2c
 9240 2edb 12       		.uleb128 0x12
 9241 2edc 2D010000 		.4byte	0x12d
 9242 2ee0 12       		.uleb128 0x12
 9243 2ee1 C3050000 		.4byte	0x5c3
 9244 2ee5 12       		.uleb128 0x12
 9245 2ee6 B0020000 		.4byte	0x2b0
 9246 2eea 00       		.byte	0
 9247 2eeb 5A       		.uleb128 0x5a
 9248 2eec 98030000 		.4byte	.LASF495
 9249 2ef0 22       		.byte	0x22
 9250 2ef1 28       		.byte	0x28
 9251 2ef2 062F0000 		.4byte	0x2f06
 9252 2ef6 12       		.uleb128 0x12
 9253 2ef7 062F0000 		.4byte	0x2f06
 9254 2efb 12       		.uleb128 0x12
 9255 2efc AB050000 		.4byte	0x5ab
 9256 2f00 12       		.uleb128 0x12
 9257 2f01 2A130000 		.4byte	0x132a
ARM GAS  /tmp/ccLdaIGa.s 			page 164


 9258 2f05 00       		.byte	0
 9259 2f06 09       		.uleb128 0x9
 9260 2f07 04       		.byte	0x4
 9261 2f08 59070000 		.4byte	0x759
 9262 2f0c 5F       		.uleb128 0x5f
 9263 2f0d AD0A0000 		.4byte	.LASF497
 9264 2f11 23       		.byte	0x23
 9265 2f12 34       		.byte	0x34
 9266 2f13 CE000000 		.4byte	0xce
 9267 2f17 5F       		.uleb128 0x5f
 9268 2f18 430C0000 		.4byte	.LASF498
 9269 2f1c 23       		.byte	0x23
 9270 2f1d 33       		.byte	0x33
 9271 2f1e CE000000 		.4byte	0xce
 9272 2f22 60       		.uleb128 0x60
 9273 2f23 49160000 		.4byte	.LASF507
 9274 2f27 20       		.byte	0x20
 9275 2f28 19       		.byte	0x19
 9276 2f29 5B       		.uleb128 0x5b
 9277 2f2a 76010000 		.4byte	.LASF499
 9278 2f2e 17       		.byte	0x17
 9279 2f2f D6       		.byte	0xd6
 9280 2f30 38190000 		.4byte	0x1938
 9281 2f34 482F0000 		.4byte	0x2f48
 9282 2f38 12       		.uleb128 0x12
 9283 2f39 E32D0000 		.4byte	0x2de3
 9284 2f3d 12       		.uleb128 0x12
 9285 2f3e 99170000 		.4byte	0x1799
 9286 2f42 12       		.uleb128 0x12
 9287 2f43 482F0000 		.4byte	0x2f48
 9288 2f47 00       		.byte	0
 9289 2f48 09       		.uleb128 0x9
 9290 2f49 04       		.byte	0x4
 9291 2f4a 8D170000 		.4byte	0x178d
 9292 2f4e 5B       		.uleb128 0x5b
 9293 2f4f 440B0000 		.4byte	.LASF500
 9294 2f53 17       		.byte	0x17
 9295 2f54 CE       		.byte	0xce
 9296 2f55 38190000 		.4byte	0x1938
 9297 2f59 6D2F0000 		.4byte	0x2f6d
 9298 2f5d 12       		.uleb128 0x12
 9299 2f5e 6D2F0000 		.4byte	0x2f6d
 9300 2f62 12       		.uleb128 0x12
 9301 2f63 E32D0000 		.4byte	0x2de3
 9302 2f67 12       		.uleb128 0x12
 9303 2f68 A4150000 		.4byte	0x15a4
 9304 2f6c 00       		.byte	0
 9305 2f6d 09       		.uleb128 0x9
 9306 2f6e 04       		.byte	0x4
 9307 2f6f 9F170000 		.4byte	0x179f
 9308 2f73 5B       		.uleb128 0x5b
 9309 2f74 46140000 		.4byte	.LASF501
 9310 2f78 17       		.byte	0x17
 9311 2f79 D0       		.byte	0xd0
 9312 2f7a 38190000 		.4byte	0x1938
 9313 2f7e 8D2F0000 		.4byte	0x2f8d
 9314 2f82 12       		.uleb128 0x12
ARM GAS  /tmp/ccLdaIGa.s 			page 165


 9315 2f83 6D2F0000 		.4byte	0x2f6d
 9316 2f87 12       		.uleb128 0x12
 9317 2f88 C5150000 		.4byte	0x15c5
 9318 2f8c 00       		.byte	0
 9319 2f8d 5B       		.uleb128 0x5b
 9320 2f8e 83110000 		.4byte	.LASF502
 9321 2f92 17       		.byte	0x17
 9322 2f93 D9       		.byte	0xd9
 9323 2f94 38190000 		.4byte	0x1938
 9324 2f98 A22F0000 		.4byte	0x2fa2
 9325 2f9c 12       		.uleb128 0x12
 9326 2f9d E32D0000 		.4byte	0x2de3
 9327 2fa1 00       		.byte	0
 9328 2fa2 5B       		.uleb128 0x5b
 9329 2fa3 48100000 		.4byte	.LASF503
 9330 2fa7 17       		.byte	0x17
 9331 2fa8 DF       		.byte	0xdf
 9332 2fa9 38190000 		.4byte	0x1938
 9333 2fad B72F0000 		.4byte	0x2fb7
 9334 2fb1 12       		.uleb128 0x12
 9335 2fb2 E32D0000 		.4byte	0x2de3
 9336 2fb6 00       		.byte	0
 9337 2fb7 5B       		.uleb128 0x5b
 9338 2fb8 0E070000 		.4byte	.LASF504
 9339 2fbc 17       		.byte	0x17
 9340 2fbd DA       		.byte	0xda
 9341 2fbe 38190000 		.4byte	0x1938
 9342 2fc2 CC2F0000 		.4byte	0x2fcc
 9343 2fc6 12       		.uleb128 0x12
 9344 2fc7 E32D0000 		.4byte	0x2de3
 9345 2fcb 00       		.byte	0
 9346 2fcc 5B       		.uleb128 0x5b
 9347 2fcd 7A0F0000 		.4byte	.LASF505
 9348 2fd1 17       		.byte	0x17
 9349 2fd2 DC       		.byte	0xdc
 9350 2fd3 38190000 		.4byte	0x1938
 9351 2fd7 E62F0000 		.4byte	0x2fe6
 9352 2fdb 12       		.uleb128 0x12
 9353 2fdc E32D0000 		.4byte	0x2de3
 9354 2fe0 12       		.uleb128 0x12
 9355 2fe1 E62F0000 		.4byte	0x2fe6
 9356 2fe5 00       		.byte	0
 9357 2fe6 09       		.uleb128 0x9
 9358 2fe7 04       		.byte	0x4
 9359 2fe8 EC2F0000 		.4byte	0x2fec
 9360 2fec 10       		.uleb128 0x10
 9361 2fed AC180000 		.4byte	0x18ac
 9362 2ff1 5B       		.uleb128 0x5b
 9363 2ff2 BC100000 		.4byte	.LASF506
 9364 2ff6 17       		.byte	0x17
 9365 2ff7 D4       		.byte	0xd4
 9366 2ff8 38190000 		.4byte	0x1938
 9367 2ffc 0B300000 		.4byte	0x300b
 9368 3000 12       		.uleb128 0x12
 9369 3001 E32D0000 		.4byte	0x2de3
 9370 3005 12       		.uleb128 0x12
 9371 3006 082E0000 		.4byte	0x2e08
ARM GAS  /tmp/ccLdaIGa.s 			page 166


 9372 300a 00       		.byte	0
 9373 300b 60       		.uleb128 0x60
 9374 300c 14080000 		.4byte	.LASF508
 9375 3010 1E       		.byte	0x1e
 9376 3011 19       		.byte	0x19
 9377 3012 5B       		.uleb128 0x5b
 9378 3013 4E140000 		.4byte	.LASF509
 9379 3017 17       		.byte	0x17
 9380 3018 D1       		.byte	0xd1
 9381 3019 38190000 		.4byte	0x1938
 9382 301d 27300000 		.4byte	0x3027
 9383 3021 12       		.uleb128 0x12
 9384 3022 6D2F0000 		.4byte	0x2f6d
 9385 3026 00       		.byte	0
 9386 3027 60       		.uleb128 0x60
 9387 3028 82150000 		.4byte	.LASF510
 9388 302c 24       		.byte	0x24
 9389 302d 18       		.byte	0x18
 9390 302e 5B       		.uleb128 0x5b
 9391 302f 5B040000 		.4byte	.LASF511
 9392 3033 24       		.byte	0x24
 9393 3034 16       		.byte	0x16
 9394 3035 25000000 		.4byte	0x25
 9395 3039 43300000 		.4byte	0x3043
 9396 303d 12       		.uleb128 0x12
 9397 303e 25000000 		.4byte	0x25
 9398 3042 00       		.byte	0
 9399 3043 5B       		.uleb128 0x5b
 9400 3044 91080000 		.4byte	.LASF512
 9401 3048 24       		.byte	0x24
 9402 3049 17       		.byte	0x17
 9403 304a 25000000 		.4byte	0x25
 9404 304e 5D300000 		.4byte	0x305d
 9405 3052 12       		.uleb128 0x12
 9406 3053 E4000000 		.4byte	0xe4
 9407 3057 12       		.uleb128 0x12
 9408 3058 E4000000 		.4byte	0xe4
 9409 305c 00       		.byte	0
 9410 305d 5B       		.uleb128 0x5b
 9411 305e 980A0000 		.4byte	.LASF513
 9412 3062 17       		.byte	0x17
 9413 3063 D5       		.byte	0xd5
 9414 3064 38190000 		.4byte	0x1938
 9415 3068 81300000 		.4byte	0x3081
 9416 306c 12       		.uleb128 0x12
 9417 306d 6D2F0000 		.4byte	0x2f6d
 9418 3071 12       		.uleb128 0x12
 9419 3072 81300000 		.4byte	0x3081
 9420 3076 12       		.uleb128 0x12
 9421 3077 99150000 		.4byte	0x1599
 9422 307b 12       		.uleb128 0x12
 9423 307c 88300000 		.4byte	0x3088
 9424 3080 00       		.byte	0
 9425 3081 09       		.uleb128 0x9
 9426 3082 04       		.byte	0x4
 9427 3083 87300000 		.4byte	0x3087
 9428 3087 61       		.uleb128 0x61
ARM GAS  /tmp/ccLdaIGa.s 			page 167


 9429 3088 09       		.uleb128 0x9
 9430 3089 04       		.byte	0x4
 9431 308a 99150000 		.4byte	0x1599
 9432 308e 5A       		.uleb128 0x5a
 9433 308f BB150000 		.4byte	.LASF514
 9434 3093 14       		.byte	0x14
 9435 3094 45       		.byte	0x45
 9436 3095 A9300000 		.4byte	0x30a9
 9437 3099 12       		.uleb128 0x12
 9438 309a 93150000 		.4byte	0x1593
 9439 309e 12       		.uleb128 0x12
 9440 309f D9000000 		.4byte	0xd9
 9441 30a3 12       		.uleb128 0x12
 9442 30a4 E4000000 		.4byte	0xe4
 9443 30a8 00       		.byte	0
 9444 30a9 5A       		.uleb128 0x5a
 9445 30aa DF0C0000 		.4byte	.LASF515
 9446 30ae 14       		.byte	0x14
 9447 30af 48       		.byte	0x48
 9448 30b0 BA300000 		.4byte	0x30ba
 9449 30b4 12       		.uleb128 0x12
 9450 30b5 37000000 		.4byte	0x37
 9451 30b9 00       		.byte	0
 9452 30ba 60       		.uleb128 0x60
 9453 30bb D1020000 		.4byte	.LASF516
 9454 30bf 19       		.byte	0x19
 9455 30c0 58       		.byte	0x58
 9456 30c1 60       		.uleb128 0x60
 9457 30c2 A9090000 		.4byte	.LASF517
 9458 30c6 20       		.byte	0x20
 9459 30c7 1C       		.byte	0x1c
 9460 30c8 5F       		.uleb128 0x5f
 9461 30c9 E5010000 		.4byte	.LASF518
 9462 30cd 19       		.byte	0x19
 9463 30ce 57       		.byte	0x57
 9464 30cf 25000000 		.4byte	0x25
 9465 30d3 00       		.byte	0
 9466              		.section	.debug_abbrev,"",%progbits
 9467              	.Ldebug_abbrev0:
 9468 0000 01       		.uleb128 0x1
 9469 0001 11       		.uleb128 0x11
 9470 0002 01       		.byte	0x1
 9471 0003 25       		.uleb128 0x25
 9472 0004 0E       		.uleb128 0xe
 9473 0005 13       		.uleb128 0x13
 9474 0006 0B       		.uleb128 0xb
 9475 0007 03       		.uleb128 0x3
 9476 0008 0E       		.uleb128 0xe
 9477 0009 1B       		.uleb128 0x1b
 9478 000a 0E       		.uleb128 0xe
 9479 000b 11       		.uleb128 0x11
 9480 000c 01       		.uleb128 0x1
 9481 000d 12       		.uleb128 0x12
 9482 000e 06       		.uleb128 0x6
 9483 000f 10       		.uleb128 0x10
 9484 0010 17       		.uleb128 0x17
 9485 0011 00       		.byte	0
ARM GAS  /tmp/ccLdaIGa.s 			page 168


 9486 0012 00       		.byte	0
 9487 0013 02       		.uleb128 0x2
 9488 0014 24       		.uleb128 0x24
 9489 0015 00       		.byte	0
 9490 0016 0B       		.uleb128 0xb
 9491 0017 0B       		.uleb128 0xb
 9492 0018 3E       		.uleb128 0x3e
 9493 0019 0B       		.uleb128 0xb
 9494 001a 03       		.uleb128 0x3
 9495 001b 08       		.uleb128 0x8
 9496 001c 00       		.byte	0
 9497 001d 00       		.byte	0
 9498 001e 03       		.uleb128 0x3
 9499 001f 16       		.uleb128 0x16
 9500 0020 00       		.byte	0
 9501 0021 03       		.uleb128 0x3
 9502 0022 0E       		.uleb128 0xe
 9503 0023 3A       		.uleb128 0x3a
 9504 0024 0B       		.uleb128 0xb
 9505 0025 3B       		.uleb128 0x3b
 9506 0026 0B       		.uleb128 0xb
 9507 0027 49       		.uleb128 0x49
 9508 0028 13       		.uleb128 0x13
 9509 0029 00       		.byte	0
 9510 002a 00       		.byte	0
 9511 002b 04       		.uleb128 0x4
 9512 002c 24       		.uleb128 0x24
 9513 002d 00       		.byte	0
 9514 002e 0B       		.uleb128 0xb
 9515 002f 0B       		.uleb128 0xb
 9516 0030 3E       		.uleb128 0x3e
 9517 0031 0B       		.uleb128 0xb
 9518 0032 03       		.uleb128 0x3
 9519 0033 0E       		.uleb128 0xe
 9520 0034 00       		.byte	0
 9521 0035 00       		.byte	0
 9522 0036 05       		.uleb128 0x5
 9523 0037 13       		.uleb128 0x13
 9524 0038 01       		.byte	0x1
 9525 0039 03       		.uleb128 0x3
 9526 003a 0E       		.uleb128 0xe
 9527 003b 0B       		.uleb128 0xb
 9528 003c 0B       		.uleb128 0xb
 9529 003d 3A       		.uleb128 0x3a
 9530 003e 0B       		.uleb128 0xb
 9531 003f 3B       		.uleb128 0x3b
 9532 0040 0B       		.uleb128 0xb
 9533 0041 01       		.uleb128 0x1
 9534 0042 13       		.uleb128 0x13
 9535 0043 00       		.byte	0
 9536 0044 00       		.byte	0
 9537 0045 06       		.uleb128 0x6
 9538 0046 0D       		.uleb128 0xd
 9539 0047 00       		.byte	0
 9540 0048 03       		.uleb128 0x3
 9541 0049 0E       		.uleb128 0xe
 9542 004a 3A       		.uleb128 0x3a
ARM GAS  /tmp/ccLdaIGa.s 			page 169


 9543 004b 0B       		.uleb128 0xb
 9544 004c 3B       		.uleb128 0x3b
 9545 004d 0B       		.uleb128 0xb
 9546 004e 49       		.uleb128 0x49
 9547 004f 13       		.uleb128 0x13
 9548 0050 38       		.uleb128 0x38
 9549 0051 0B       		.uleb128 0xb
 9550 0052 00       		.byte	0
 9551 0053 00       		.byte	0
 9552 0054 07       		.uleb128 0x7
 9553 0055 0D       		.uleb128 0xd
 9554 0056 00       		.byte	0
 9555 0057 03       		.uleb128 0x3
 9556 0058 08       		.uleb128 0x8
 9557 0059 3A       		.uleb128 0x3a
 9558 005a 0B       		.uleb128 0xb
 9559 005b 3B       		.uleb128 0x3b
 9560 005c 0B       		.uleb128 0xb
 9561 005d 49       		.uleb128 0x49
 9562 005e 13       		.uleb128 0x13
 9563 005f 38       		.uleb128 0x38
 9564 0060 0B       		.uleb128 0xb
 9565 0061 00       		.byte	0
 9566 0062 00       		.byte	0
 9567 0063 08       		.uleb128 0x8
 9568 0064 13       		.uleb128 0x13
 9569 0065 01       		.byte	0x1
 9570 0066 0B       		.uleb128 0xb
 9571 0067 0B       		.uleb128 0xb
 9572 0068 3A       		.uleb128 0x3a
 9573 0069 0B       		.uleb128 0xb
 9574 006a 3B       		.uleb128 0x3b
 9575 006b 0B       		.uleb128 0xb
 9576 006c 01       		.uleb128 0x1
 9577 006d 13       		.uleb128 0x13
 9578 006e 00       		.byte	0
 9579 006f 00       		.byte	0
 9580 0070 09       		.uleb128 0x9
 9581 0071 0F       		.uleb128 0xf
 9582 0072 00       		.byte	0
 9583 0073 0B       		.uleb128 0xb
 9584 0074 0B       		.uleb128 0xb
 9585 0075 49       		.uleb128 0x49
 9586 0076 13       		.uleb128 0x13
 9587 0077 00       		.byte	0
 9588 0078 00       		.byte	0
 9589 0079 0A       		.uleb128 0xa
 9590 007a 0F       		.uleb128 0xf
 9591 007b 00       		.byte	0
 9592 007c 0B       		.uleb128 0xb
 9593 007d 0B       		.uleb128 0xb
 9594 007e 00       		.byte	0
 9595 007f 00       		.byte	0
 9596 0080 0B       		.uleb128 0xb
 9597 0081 13       		.uleb128 0x13
 9598 0082 01       		.byte	0x1
 9599 0083 03       		.uleb128 0x3
ARM GAS  /tmp/ccLdaIGa.s 			page 170


 9600 0084 0E       		.uleb128 0xe
 9601 0085 0B       		.uleb128 0xb
 9602 0086 0B       		.uleb128 0xb
 9603 0087 3A       		.uleb128 0x3a
 9604 0088 0B       		.uleb128 0xb
 9605 0089 3B       		.uleb128 0x3b
 9606 008a 05       		.uleb128 0x5
 9607 008b 01       		.uleb128 0x1
 9608 008c 13       		.uleb128 0x13
 9609 008d 00       		.byte	0
 9610 008e 00       		.byte	0
 9611 008f 0C       		.uleb128 0xc
 9612 0090 0D       		.uleb128 0xd
 9613 0091 00       		.byte	0
 9614 0092 03       		.uleb128 0x3
 9615 0093 08       		.uleb128 0x8
 9616 0094 3A       		.uleb128 0x3a
 9617 0095 0B       		.uleb128 0xb
 9618 0096 3B       		.uleb128 0x3b
 9619 0097 05       		.uleb128 0x5
 9620 0098 49       		.uleb128 0x49
 9621 0099 13       		.uleb128 0x13
 9622 009a 38       		.uleb128 0x38
 9623 009b 0B       		.uleb128 0xb
 9624 009c 00       		.byte	0
 9625 009d 00       		.byte	0
 9626 009e 0D       		.uleb128 0xd
 9627 009f 35       		.uleb128 0x35
 9628 00a0 00       		.byte	0
 9629 00a1 49       		.uleb128 0x49
 9630 00a2 13       		.uleb128 0x13
 9631 00a3 00       		.byte	0
 9632 00a4 00       		.byte	0
 9633 00a5 0E       		.uleb128 0xe
 9634 00a6 17       		.uleb128 0x17
 9635 00a7 01       		.byte	0x1
 9636 00a8 0B       		.uleb128 0xb
 9637 00a9 0B       		.uleb128 0xb
 9638 00aa 3A       		.uleb128 0x3a
 9639 00ab 0B       		.uleb128 0xb
 9640 00ac 3B       		.uleb128 0x3b
 9641 00ad 0B       		.uleb128 0xb
 9642 00ae 01       		.uleb128 0x1
 9643 00af 13       		.uleb128 0x13
 9644 00b0 00       		.byte	0
 9645 00b1 00       		.byte	0
 9646 00b2 0F       		.uleb128 0xf
 9647 00b3 0D       		.uleb128 0xd
 9648 00b4 00       		.byte	0
 9649 00b5 03       		.uleb128 0x3
 9650 00b6 0E       		.uleb128 0xe
 9651 00b7 3A       		.uleb128 0x3a
 9652 00b8 0B       		.uleb128 0xb
 9653 00b9 3B       		.uleb128 0x3b
 9654 00ba 0B       		.uleb128 0xb
 9655 00bb 49       		.uleb128 0x49
 9656 00bc 13       		.uleb128 0x13
ARM GAS  /tmp/ccLdaIGa.s 			page 171


 9657 00bd 00       		.byte	0
 9658 00be 00       		.byte	0
 9659 00bf 10       		.uleb128 0x10
 9660 00c0 26       		.uleb128 0x26
 9661 00c1 00       		.byte	0
 9662 00c2 49       		.uleb128 0x49
 9663 00c3 13       		.uleb128 0x13
 9664 00c4 00       		.byte	0
 9665 00c5 00       		.byte	0
 9666 00c6 11       		.uleb128 0x11
 9667 00c7 15       		.uleb128 0x15
 9668 00c8 01       		.byte	0x1
 9669 00c9 27       		.uleb128 0x27
 9670 00ca 19       		.uleb128 0x19
 9671 00cb 49       		.uleb128 0x49
 9672 00cc 13       		.uleb128 0x13
 9673 00cd 01       		.uleb128 0x1
 9674 00ce 13       		.uleb128 0x13
 9675 00cf 00       		.byte	0
 9676 00d0 00       		.byte	0
 9677 00d1 12       		.uleb128 0x12
 9678 00d2 05       		.uleb128 0x5
 9679 00d3 00       		.byte	0
 9680 00d4 49       		.uleb128 0x49
 9681 00d5 13       		.uleb128 0x13
 9682 00d6 00       		.byte	0
 9683 00d7 00       		.byte	0
 9684 00d8 13       		.uleb128 0x13
 9685 00d9 15       		.uleb128 0x15
 9686 00da 01       		.byte	0x1
 9687 00db 27       		.uleb128 0x27
 9688 00dc 19       		.uleb128 0x19
 9689 00dd 01       		.uleb128 0x1
 9690 00de 13       		.uleb128 0x13
 9691 00df 00       		.byte	0
 9692 00e0 00       		.byte	0
 9693 00e1 14       		.uleb128 0x14
 9694 00e2 01       		.uleb128 0x1
 9695 00e3 01       		.byte	0x1
 9696 00e4 49       		.uleb128 0x49
 9697 00e5 13       		.uleb128 0x13
 9698 00e6 01       		.uleb128 0x1
 9699 00e7 13       		.uleb128 0x13
 9700 00e8 00       		.byte	0
 9701 00e9 00       		.byte	0
 9702 00ea 15       		.uleb128 0x15
 9703 00eb 21       		.uleb128 0x21
 9704 00ec 00       		.byte	0
 9705 00ed 49       		.uleb128 0x49
 9706 00ee 13       		.uleb128 0x13
 9707 00ef 2F       		.uleb128 0x2f
 9708 00f0 0B       		.uleb128 0xb
 9709 00f1 00       		.byte	0
 9710 00f2 00       		.byte	0
 9711 00f3 16       		.uleb128 0x16
 9712 00f4 13       		.uleb128 0x13
 9713 00f5 01       		.byte	0x1
ARM GAS  /tmp/ccLdaIGa.s 			page 172


 9714 00f6 03       		.uleb128 0x3
 9715 00f7 0E       		.uleb128 0xe
 9716 00f8 0B       		.uleb128 0xb
 9717 00f9 05       		.uleb128 0x5
 9718 00fa 3A       		.uleb128 0x3a
 9719 00fb 0B       		.uleb128 0xb
 9720 00fc 3B       		.uleb128 0x3b
 9721 00fd 05       		.uleb128 0x5
 9722 00fe 01       		.uleb128 0x1
 9723 00ff 13       		.uleb128 0x13
 9724 0100 00       		.byte	0
 9725 0101 00       		.byte	0
 9726 0102 17       		.uleb128 0x17
 9727 0103 0D       		.uleb128 0xd
 9728 0104 00       		.byte	0
 9729 0105 03       		.uleb128 0x3
 9730 0106 0E       		.uleb128 0xe
 9731 0107 3A       		.uleb128 0x3a
 9732 0108 0B       		.uleb128 0xb
 9733 0109 3B       		.uleb128 0x3b
 9734 010a 05       		.uleb128 0x5
 9735 010b 49       		.uleb128 0x49
 9736 010c 13       		.uleb128 0x13
 9737 010d 38       		.uleb128 0x38
 9738 010e 0B       		.uleb128 0xb
 9739 010f 00       		.byte	0
 9740 0110 00       		.byte	0
 9741 0111 18       		.uleb128 0x18
 9742 0112 04       		.uleb128 0x4
 9743 0113 01       		.byte	0x1
 9744 0114 0B       		.uleb128 0xb
 9745 0115 0B       		.uleb128 0xb
 9746 0116 3A       		.uleb128 0x3a
 9747 0117 0B       		.uleb128 0xb
 9748 0118 3B       		.uleb128 0x3b
 9749 0119 0B       		.uleb128 0xb
 9750 011a 01       		.uleb128 0x1
 9751 011b 13       		.uleb128 0x13
 9752 011c 00       		.byte	0
 9753 011d 00       		.byte	0
 9754 011e 19       		.uleb128 0x19
 9755 011f 28       		.uleb128 0x28
 9756 0120 00       		.byte	0
 9757 0121 03       		.uleb128 0x3
 9758 0122 0E       		.uleb128 0xe
 9759 0123 1C       		.uleb128 0x1c
 9760 0124 0D       		.uleb128 0xd
 9761 0125 00       		.byte	0
 9762 0126 00       		.byte	0
 9763 0127 1A       		.uleb128 0x1a
 9764 0128 04       		.uleb128 0x4
 9765 0129 01       		.byte	0x1
 9766 012a 0B       		.uleb128 0xb
 9767 012b 0B       		.uleb128 0xb
 9768 012c 3A       		.uleb128 0x3a
 9769 012d 0B       		.uleb128 0xb
 9770 012e 3B       		.uleb128 0x3b
ARM GAS  /tmp/ccLdaIGa.s 			page 173


 9771 012f 05       		.uleb128 0x5
 9772 0130 01       		.uleb128 0x1
 9773 0131 13       		.uleb128 0x13
 9774 0132 00       		.byte	0
 9775 0133 00       		.byte	0
 9776 0134 1B       		.uleb128 0x1b
 9777 0135 16       		.uleb128 0x16
 9778 0136 00       		.byte	0
 9779 0137 03       		.uleb128 0x3
 9780 0138 0E       		.uleb128 0xe
 9781 0139 3A       		.uleb128 0x3a
 9782 013a 0B       		.uleb128 0xb
 9783 013b 3B       		.uleb128 0x3b
 9784 013c 05       		.uleb128 0x5
 9785 013d 49       		.uleb128 0x49
 9786 013e 13       		.uleb128 0x13
 9787 013f 00       		.byte	0
 9788 0140 00       		.byte	0
 9789 0141 1C       		.uleb128 0x1c
 9790 0142 13       		.uleb128 0x13
 9791 0143 01       		.byte	0x1
 9792 0144 0B       		.uleb128 0xb
 9793 0145 0B       		.uleb128 0xb
 9794 0146 3A       		.uleb128 0x3a
 9795 0147 0B       		.uleb128 0xb
 9796 0148 3B       		.uleb128 0x3b
 9797 0149 05       		.uleb128 0x5
 9798 014a 01       		.uleb128 0x1
 9799 014b 13       		.uleb128 0x13
 9800 014c 00       		.byte	0
 9801 014d 00       		.byte	0
 9802 014e 1D       		.uleb128 0x1d
 9803 014f 13       		.uleb128 0x13
 9804 0150 01       		.byte	0x1
 9805 0151 0B       		.uleb128 0xb
 9806 0152 06       		.uleb128 0x6
 9807 0153 3A       		.uleb128 0x3a
 9808 0154 0B       		.uleb128 0xb
 9809 0155 3B       		.uleb128 0x3b
 9810 0156 0B       		.uleb128 0xb
 9811 0157 01       		.uleb128 0x1
 9812 0158 13       		.uleb128 0x13
 9813 0159 00       		.byte	0
 9814 015a 00       		.byte	0
 9815 015b 1E       		.uleb128 0x1e
 9816 015c 0D       		.uleb128 0xd
 9817 015d 00       		.byte	0
 9818 015e 03       		.uleb128 0x3
 9819 015f 0E       		.uleb128 0xe
 9820 0160 3A       		.uleb128 0x3a
 9821 0161 0B       		.uleb128 0xb
 9822 0162 3B       		.uleb128 0x3b
 9823 0163 0B       		.uleb128 0xb
 9824 0164 49       		.uleb128 0x49
 9825 0165 13       		.uleb128 0x13
 9826 0166 38       		.uleb128 0x38
 9827 0167 05       		.uleb128 0x5
ARM GAS  /tmp/ccLdaIGa.s 			page 174


 9828 0168 00       		.byte	0
 9829 0169 00       		.byte	0
 9830 016a 1F       		.uleb128 0x1f
 9831 016b 0D       		.uleb128 0xd
 9832 016c 00       		.byte	0
 9833 016d 03       		.uleb128 0x3
 9834 016e 08       		.uleb128 0x8
 9835 016f 3A       		.uleb128 0x3a
 9836 0170 0B       		.uleb128 0xb
 9837 0171 3B       		.uleb128 0x3b
 9838 0172 0B       		.uleb128 0xb
 9839 0173 49       		.uleb128 0x49
 9840 0174 13       		.uleb128 0x13
 9841 0175 38       		.uleb128 0x38
 9842 0176 05       		.uleb128 0x5
 9843 0177 00       		.byte	0
 9844 0178 00       		.byte	0
 9845 0179 20       		.uleb128 0x20
 9846 017a 21       		.uleb128 0x21
 9847 017b 00       		.byte	0
 9848 017c 49       		.uleb128 0x49
 9849 017d 13       		.uleb128 0x13
 9850 017e 2F       		.uleb128 0x2f
 9851 017f 05       		.uleb128 0x5
 9852 0180 00       		.byte	0
 9853 0181 00       		.byte	0
 9854 0182 21       		.uleb128 0x21
 9855 0183 17       		.uleb128 0x17
 9856 0184 01       		.byte	0x1
 9857 0185 0B       		.uleb128 0xb
 9858 0186 0B       		.uleb128 0xb
 9859 0187 3A       		.uleb128 0x3a
 9860 0188 0B       		.uleb128 0xb
 9861 0189 3B       		.uleb128 0x3b
 9862 018a 05       		.uleb128 0x5
 9863 018b 01       		.uleb128 0x1
 9864 018c 13       		.uleb128 0x13
 9865 018d 00       		.byte	0
 9866 018e 00       		.byte	0
 9867 018f 22       		.uleb128 0x22
 9868 0190 0D       		.uleb128 0xd
 9869 0191 00       		.byte	0
 9870 0192 03       		.uleb128 0x3
 9871 0193 0E       		.uleb128 0xe
 9872 0194 3A       		.uleb128 0x3a
 9873 0195 0B       		.uleb128 0xb
 9874 0196 3B       		.uleb128 0x3b
 9875 0197 05       		.uleb128 0x5
 9876 0198 49       		.uleb128 0x49
 9877 0199 13       		.uleb128 0x13
 9878 019a 00       		.byte	0
 9879 019b 00       		.byte	0
 9880 019c 23       		.uleb128 0x23
 9881 019d 0D       		.uleb128 0xd
 9882 019e 00       		.byte	0
 9883 019f 03       		.uleb128 0x3
 9884 01a0 0E       		.uleb128 0xe
ARM GAS  /tmp/ccLdaIGa.s 			page 175


 9885 01a1 49       		.uleb128 0x49
 9886 01a2 13       		.uleb128 0x13
 9887 01a3 38       		.uleb128 0x38
 9888 01a4 0B       		.uleb128 0xb
 9889 01a5 34       		.uleb128 0x34
 9890 01a6 19       		.uleb128 0x19
 9891 01a7 00       		.byte	0
 9892 01a8 00       		.byte	0
 9893 01a9 24       		.uleb128 0x24
 9894 01aa 0D       		.uleb128 0xd
 9895 01ab 00       		.byte	0
 9896 01ac 03       		.uleb128 0x3
 9897 01ad 0E       		.uleb128 0xe
 9898 01ae 3A       		.uleb128 0x3a
 9899 01af 0B       		.uleb128 0xb
 9900 01b0 3B       		.uleb128 0x3b
 9901 01b1 0B       		.uleb128 0xb
 9902 01b2 49       		.uleb128 0x49
 9903 01b3 13       		.uleb128 0x13
 9904 01b4 0B       		.uleb128 0xb
 9905 01b5 0B       		.uleb128 0xb
 9906 01b6 0D       		.uleb128 0xd
 9907 01b7 0B       		.uleb128 0xb
 9908 01b8 0C       		.uleb128 0xc
 9909 01b9 0B       		.uleb128 0xb
 9910 01ba 38       		.uleb128 0x38
 9911 01bb 0B       		.uleb128 0xb
 9912 01bc 00       		.byte	0
 9913 01bd 00       		.byte	0
 9914 01be 25       		.uleb128 0x25
 9915 01bf 15       		.uleb128 0x15
 9916 01c0 00       		.byte	0
 9917 01c1 27       		.uleb128 0x27
 9918 01c2 19       		.uleb128 0x19
 9919 01c3 00       		.byte	0
 9920 01c4 00       		.byte	0
 9921 01c5 26       		.uleb128 0x26
 9922 01c6 13       		.uleb128 0x13
 9923 01c7 01       		.byte	0x1
 9924 01c8 0B       		.uleb128 0xb
 9925 01c9 05       		.uleb128 0x5
 9926 01ca 3A       		.uleb128 0x3a
 9927 01cb 0B       		.uleb128 0xb
 9928 01cc 3B       		.uleb128 0x3b
 9929 01cd 0B       		.uleb128 0xb
 9930 01ce 01       		.uleb128 0x1
 9931 01cf 13       		.uleb128 0x13
 9932 01d0 00       		.byte	0
 9933 01d1 00       		.byte	0
 9934 01d2 27       		.uleb128 0x27
 9935 01d3 16       		.uleb128 0x16
 9936 01d4 00       		.byte	0
 9937 01d5 03       		.uleb128 0x3
 9938 01d6 08       		.uleb128 0x8
 9939 01d7 3A       		.uleb128 0x3a
 9940 01d8 0B       		.uleb128 0xb
 9941 01d9 3B       		.uleb128 0x3b
ARM GAS  /tmp/ccLdaIGa.s 			page 176


 9942 01da 0B       		.uleb128 0xb
 9943 01db 49       		.uleb128 0x49
 9944 01dc 13       		.uleb128 0x13
 9945 01dd 00       		.byte	0
 9946 01de 00       		.byte	0
 9947 01df 28       		.uleb128 0x28
 9948 01e0 13       		.uleb128 0x13
 9949 01e1 01       		.byte	0x1
 9950 01e2 03       		.uleb128 0x3
 9951 01e3 0E       		.uleb128 0xe
 9952 01e4 0B       		.uleb128 0xb
 9953 01e5 05       		.uleb128 0x5
 9954 01e6 3A       		.uleb128 0x3a
 9955 01e7 0B       		.uleb128 0xb
 9956 01e8 3B       		.uleb128 0x3b
 9957 01e9 0B       		.uleb128 0xb
 9958 01ea 01       		.uleb128 0x1
 9959 01eb 13       		.uleb128 0x13
 9960 01ec 00       		.byte	0
 9961 01ed 00       		.byte	0
 9962 01ee 29       		.uleb128 0x29
 9963 01ef 2E       		.uleb128 0x2e
 9964 01f0 01       		.byte	0x1
 9965 01f1 3F       		.uleb128 0x3f
 9966 01f2 19       		.uleb128 0x19
 9967 01f3 03       		.uleb128 0x3
 9968 01f4 0E       		.uleb128 0xe
 9969 01f5 3A       		.uleb128 0x3a
 9970 01f6 0B       		.uleb128 0xb
 9971 01f7 3B       		.uleb128 0x3b
 9972 01f8 05       		.uleb128 0x5
 9973 01f9 27       		.uleb128 0x27
 9974 01fa 19       		.uleb128 0x19
 9975 01fb 20       		.uleb128 0x20
 9976 01fc 0B       		.uleb128 0xb
 9977 01fd 01       		.uleb128 0x1
 9978 01fe 13       		.uleb128 0x13
 9979 01ff 00       		.byte	0
 9980 0200 00       		.byte	0
 9981 0201 2A       		.uleb128 0x2a
 9982 0202 34       		.uleb128 0x34
 9983 0203 00       		.byte	0
 9984 0204 03       		.uleb128 0x3
 9985 0205 08       		.uleb128 0x8
 9986 0206 3A       		.uleb128 0x3a
 9987 0207 0B       		.uleb128 0xb
 9988 0208 3B       		.uleb128 0x3b
 9989 0209 05       		.uleb128 0x5
 9990 020a 49       		.uleb128 0x49
 9991 020b 13       		.uleb128 0x13
 9992 020c 00       		.byte	0
 9993 020d 00       		.byte	0
 9994 020e 2B       		.uleb128 0x2b
 9995 020f 0B       		.uleb128 0xb
 9996 0210 01       		.byte	0x1
 9997 0211 00       		.byte	0
 9998 0212 00       		.byte	0
ARM GAS  /tmp/ccLdaIGa.s 			page 177


 9999 0213 2C       		.uleb128 0x2c
 10000 0214 2E       		.uleb128 0x2e
 10001 0215 00       		.byte	0
 10002 0216 3F       		.uleb128 0x3f
 10003 0217 19       		.uleb128 0x19
 10004 0218 03       		.uleb128 0x3
 10005 0219 0E       		.uleb128 0xe
 10006 021a 3A       		.uleb128 0x3a
 10007 021b 0B       		.uleb128 0xb
 10008 021c 3B       		.uleb128 0x3b
 10009 021d 0B       		.uleb128 0xb
 10010 021e 27       		.uleb128 0x27
 10011 021f 19       		.uleb128 0x19
 10012 0220 49       		.uleb128 0x49
 10013 0221 13       		.uleb128 0x13
 10014 0222 20       		.uleb128 0x20
 10015 0223 0B       		.uleb128 0xb
 10016 0224 00       		.byte	0
 10017 0225 00       		.byte	0
 10018 0226 2D       		.uleb128 0x2d
 10019 0227 2E       		.uleb128 0x2e
 10020 0228 01       		.byte	0x1
 10021 0229 03       		.uleb128 0x3
 10022 022a 0E       		.uleb128 0xe
 10023 022b 3A       		.uleb128 0x3a
 10024 022c 0B       		.uleb128 0xb
 10025 022d 3B       		.uleb128 0x3b
 10026 022e 0B       		.uleb128 0xb
 10027 022f 27       		.uleb128 0x27
 10028 0230 19       		.uleb128 0x19
 10029 0231 49       		.uleb128 0x49
 10030 0232 13       		.uleb128 0x13
 10031 0233 20       		.uleb128 0x20
 10032 0234 0B       		.uleb128 0xb
 10033 0235 01       		.uleb128 0x1
 10034 0236 13       		.uleb128 0x13
 10035 0237 00       		.byte	0
 10036 0238 00       		.byte	0
 10037 0239 2E       		.uleb128 0x2e
 10038 023a 05       		.uleb128 0x5
 10039 023b 00       		.byte	0
 10040 023c 03       		.uleb128 0x3
 10041 023d 0E       		.uleb128 0xe
 10042 023e 3A       		.uleb128 0x3a
 10043 023f 0B       		.uleb128 0xb
 10044 0240 3B       		.uleb128 0x3b
 10045 0241 0B       		.uleb128 0xb
 10046 0242 49       		.uleb128 0x49
 10047 0243 13       		.uleb128 0x13
 10048 0244 00       		.byte	0
 10049 0245 00       		.byte	0
 10050 0246 2F       		.uleb128 0x2f
 10051 0247 34       		.uleb128 0x34
 10052 0248 00       		.byte	0
 10053 0249 03       		.uleb128 0x3
 10054 024a 08       		.uleb128 0x8
 10055 024b 3A       		.uleb128 0x3a
ARM GAS  /tmp/ccLdaIGa.s 			page 178


 10056 024c 0B       		.uleb128 0xb
 10057 024d 3B       		.uleb128 0x3b
 10058 024e 0B       		.uleb128 0xb
 10059 024f 49       		.uleb128 0x49
 10060 0250 13       		.uleb128 0x13
 10061 0251 00       		.byte	0
 10062 0252 00       		.byte	0
 10063 0253 30       		.uleb128 0x30
 10064 0254 0B       		.uleb128 0xb
 10065 0255 01       		.byte	0x1
 10066 0256 01       		.uleb128 0x1
 10067 0257 13       		.uleb128 0x13
 10068 0258 00       		.byte	0
 10069 0259 00       		.byte	0
 10070 025a 31       		.uleb128 0x31
 10071 025b 2E       		.uleb128 0x2e
 10072 025c 01       		.byte	0x1
 10073 025d 03       		.uleb128 0x3
 10074 025e 0E       		.uleb128 0xe
 10075 025f 3A       		.uleb128 0x3a
 10076 0260 0B       		.uleb128 0xb
 10077 0261 3B       		.uleb128 0x3b
 10078 0262 0B       		.uleb128 0xb
 10079 0263 27       		.uleb128 0x27
 10080 0264 19       		.uleb128 0x19
 10081 0265 49       		.uleb128 0x49
 10082 0266 13       		.uleb128 0x13
 10083 0267 11       		.uleb128 0x11
 10084 0268 01       		.uleb128 0x1
 10085 0269 12       		.uleb128 0x12
 10086 026a 06       		.uleb128 0x6
 10087 026b 40       		.uleb128 0x40
 10088 026c 18       		.uleb128 0x18
 10089 026d 9742     		.uleb128 0x2117
 10090 026f 19       		.uleb128 0x19
 10091 0270 01       		.uleb128 0x1
 10092 0271 13       		.uleb128 0x13
 10093 0272 00       		.byte	0
 10094 0273 00       		.byte	0
 10095 0274 32       		.uleb128 0x32
 10096 0275 05       		.uleb128 0x5
 10097 0276 00       		.byte	0
 10098 0277 03       		.uleb128 0x3
 10099 0278 08       		.uleb128 0x8
 10100 0279 3A       		.uleb128 0x3a
 10101 027a 0B       		.uleb128 0xb
 10102 027b 3B       		.uleb128 0x3b
 10103 027c 0B       		.uleb128 0xb
 10104 027d 49       		.uleb128 0x49
 10105 027e 13       		.uleb128 0x13
 10106 027f 02       		.uleb128 0x2
 10107 0280 17       		.uleb128 0x17
 10108 0281 00       		.byte	0
 10109 0282 00       		.byte	0
 10110 0283 33       		.uleb128 0x33
 10111 0284 34       		.uleb128 0x34
 10112 0285 00       		.byte	0
ARM GAS  /tmp/ccLdaIGa.s 			page 179


 10113 0286 03       		.uleb128 0x3
 10114 0287 08       		.uleb128 0x8
 10115 0288 3A       		.uleb128 0x3a
 10116 0289 0B       		.uleb128 0xb
 10117 028a 3B       		.uleb128 0x3b
 10118 028b 0B       		.uleb128 0xb
 10119 028c 49       		.uleb128 0x49
 10120 028d 13       		.uleb128 0x13
 10121 028e 02       		.uleb128 0x2
 10122 028f 18       		.uleb128 0x18
 10123 0290 00       		.byte	0
 10124 0291 00       		.byte	0
 10125 0292 34       		.uleb128 0x34
 10126 0293 898201   		.uleb128 0x4109
 10127 0296 01       		.byte	0x1
 10128 0297 11       		.uleb128 0x11
 10129 0298 01       		.uleb128 0x1
 10130 0299 9342     		.uleb128 0x2113
 10131 029b 18       		.uleb128 0x18
 10132 029c 01       		.uleb128 0x1
 10133 029d 13       		.uleb128 0x13
 10134 029e 00       		.byte	0
 10135 029f 00       		.byte	0
 10136 02a0 35       		.uleb128 0x35
 10137 02a1 8A8201   		.uleb128 0x410a
 10138 02a4 00       		.byte	0
 10139 02a5 02       		.uleb128 0x2
 10140 02a6 18       		.uleb128 0x18
 10141 02a7 9142     		.uleb128 0x2111
 10142 02a9 18       		.uleb128 0x18
 10143 02aa 00       		.byte	0
 10144 02ab 00       		.byte	0
 10145 02ac 36       		.uleb128 0x36
 10146 02ad 898201   		.uleb128 0x4109
 10147 02b0 01       		.byte	0x1
 10148 02b1 11       		.uleb128 0x11
 10149 02b2 01       		.uleb128 0x1
 10150 02b3 31       		.uleb128 0x31
 10151 02b4 13       		.uleb128 0x13
 10152 02b5 00       		.byte	0
 10153 02b6 00       		.byte	0
 10154 02b7 37       		.uleb128 0x37
 10155 02b8 2E       		.uleb128 0x2e
 10156 02b9 01       		.byte	0x1
 10157 02ba 31       		.uleb128 0x31
 10158 02bb 13       		.uleb128 0x13
 10159 02bc 11       		.uleb128 0x11
 10160 02bd 01       		.uleb128 0x1
 10161 02be 12       		.uleb128 0x12
 10162 02bf 06       		.uleb128 0x6
 10163 02c0 40       		.uleb128 0x40
 10164 02c1 18       		.uleb128 0x18
 10165 02c2 9642     		.uleb128 0x2116
 10166 02c4 19       		.uleb128 0x19
 10167 02c5 01       		.uleb128 0x1
 10168 02c6 13       		.uleb128 0x13
 10169 02c7 00       		.byte	0
ARM GAS  /tmp/ccLdaIGa.s 			page 180


 10170 02c8 00       		.byte	0
 10171 02c9 38       		.uleb128 0x38
 10172 02ca 34       		.uleb128 0x34
 10173 02cb 00       		.byte	0
 10174 02cc 31       		.uleb128 0x31
 10175 02cd 13       		.uleb128 0x13
 10176 02ce 02       		.uleb128 0x2
 10177 02cf 17       		.uleb128 0x17
 10178 02d0 00       		.byte	0
 10179 02d1 00       		.byte	0
 10180 02d2 39       		.uleb128 0x39
 10181 02d3 34       		.uleb128 0x34
 10182 02d4 00       		.byte	0
 10183 02d5 31       		.uleb128 0x31
 10184 02d6 13       		.uleb128 0x13
 10185 02d7 02       		.uleb128 0x2
 10186 02d8 18       		.uleb128 0x18
 10187 02d9 00       		.byte	0
 10188 02da 00       		.byte	0
 10189 02db 3A       		.uleb128 0x3a
 10190 02dc 34       		.uleb128 0x34
 10191 02dd 00       		.byte	0
 10192 02de 31       		.uleb128 0x31
 10193 02df 13       		.uleb128 0x13
 10194 02e0 00       		.byte	0
 10195 02e1 00       		.byte	0
 10196 02e2 3B       		.uleb128 0x3b
 10197 02e3 05       		.uleb128 0x5
 10198 02e4 00       		.byte	0
 10199 02e5 31       		.uleb128 0x31
 10200 02e6 13       		.uleb128 0x13
 10201 02e7 00       		.byte	0
 10202 02e8 00       		.byte	0
 10203 02e9 3C       		.uleb128 0x3c
 10204 02ea 0B       		.uleb128 0xb
 10205 02eb 01       		.byte	0x1
 10206 02ec 55       		.uleb128 0x55
 10207 02ed 17       		.uleb128 0x17
 10208 02ee 01       		.uleb128 0x1
 10209 02ef 13       		.uleb128 0x13
 10210 02f0 00       		.byte	0
 10211 02f1 00       		.byte	0
 10212 02f2 3D       		.uleb128 0x3d
 10213 02f3 898201   		.uleb128 0x4109
 10214 02f6 00       		.byte	0
 10215 02f7 11       		.uleb128 0x11
 10216 02f8 01       		.uleb128 0x1
 10217 02f9 31       		.uleb128 0x31
 10218 02fa 13       		.uleb128 0x13
 10219 02fb 00       		.byte	0
 10220 02fc 00       		.byte	0
 10221 02fd 3E       		.uleb128 0x3e
 10222 02fe 898201   		.uleb128 0x4109
 10223 0301 01       		.byte	0x1
 10224 0302 11       		.uleb128 0x11
 10225 0303 01       		.uleb128 0x1
 10226 0304 31       		.uleb128 0x31
ARM GAS  /tmp/ccLdaIGa.s 			page 181


 10227 0305 13       		.uleb128 0x13
 10228 0306 01       		.uleb128 0x1
 10229 0307 13       		.uleb128 0x13
 10230 0308 00       		.byte	0
 10231 0309 00       		.byte	0
 10232 030a 3F       		.uleb128 0x3f
 10233 030b 898201   		.uleb128 0x4109
 10234 030e 01       		.byte	0x1
 10235 030f 11       		.uleb128 0x11
 10236 0310 01       		.uleb128 0x1
 10237 0311 00       		.byte	0
 10238 0312 00       		.byte	0
 10239 0313 40       		.uleb128 0x40
 10240 0314 0B       		.uleb128 0xb
 10241 0315 01       		.byte	0x1
 10242 0316 11       		.uleb128 0x11
 10243 0317 01       		.uleb128 0x1
 10244 0318 12       		.uleb128 0x12
 10245 0319 06       		.uleb128 0x6
 10246 031a 01       		.uleb128 0x1
 10247 031b 13       		.uleb128 0x13
 10248 031c 00       		.byte	0
 10249 031d 00       		.byte	0
 10250 031e 41       		.uleb128 0x41
 10251 031f 2E       		.uleb128 0x2e
 10252 0320 01       		.byte	0x1
 10253 0321 3F       		.uleb128 0x3f
 10254 0322 19       		.uleb128 0x19
 10255 0323 03       		.uleb128 0x3
 10256 0324 0E       		.uleb128 0xe
 10257 0325 3A       		.uleb128 0x3a
 10258 0326 0B       		.uleb128 0xb
 10259 0327 3B       		.uleb128 0x3b
 10260 0328 0B       		.uleb128 0xb
 10261 0329 27       		.uleb128 0x27
 10262 032a 19       		.uleb128 0x19
 10263 032b 11       		.uleb128 0x11
 10264 032c 01       		.uleb128 0x1
 10265 032d 12       		.uleb128 0x12
 10266 032e 06       		.uleb128 0x6
 10267 032f 40       		.uleb128 0x40
 10268 0330 18       		.uleb128 0x18
 10269 0331 9742     		.uleb128 0x2117
 10270 0333 19       		.uleb128 0x19
 10271 0334 01       		.uleb128 0x1
 10272 0335 13       		.uleb128 0x13
 10273 0336 00       		.byte	0
 10274 0337 00       		.byte	0
 10275 0338 42       		.uleb128 0x42
 10276 0339 34       		.uleb128 0x34
 10277 033a 00       		.byte	0
 10278 033b 03       		.uleb128 0x3
 10279 033c 0E       		.uleb128 0xe
 10280 033d 3A       		.uleb128 0x3a
 10281 033e 0B       		.uleb128 0xb
 10282 033f 3B       		.uleb128 0x3b
 10283 0340 0B       		.uleb128 0xb
ARM GAS  /tmp/ccLdaIGa.s 			page 182


 10284 0341 49       		.uleb128 0x49
 10285 0342 13       		.uleb128 0x13
 10286 0343 3F       		.uleb128 0x3f
 10287 0344 19       		.uleb128 0x19
 10288 0345 3C       		.uleb128 0x3c
 10289 0346 19       		.uleb128 0x19
 10290 0347 00       		.byte	0
 10291 0348 00       		.byte	0
 10292 0349 43       		.uleb128 0x43
 10293 034a 2E       		.uleb128 0x2e
 10294 034b 00       		.byte	0
 10295 034c 31       		.uleb128 0x31
 10296 034d 13       		.uleb128 0x13
 10297 034e 11       		.uleb128 0x11
 10298 034f 01       		.uleb128 0x1
 10299 0350 12       		.uleb128 0x12
 10300 0351 06       		.uleb128 0x6
 10301 0352 40       		.uleb128 0x40
 10302 0353 18       		.uleb128 0x18
 10303 0354 9742     		.uleb128 0x2117
 10304 0356 19       		.uleb128 0x19
 10305 0357 00       		.byte	0
 10306 0358 00       		.byte	0
 10307 0359 44       		.uleb128 0x44
 10308 035a 2E       		.uleb128 0x2e
 10309 035b 01       		.byte	0x1
 10310 035c 3F       		.uleb128 0x3f
 10311 035d 19       		.uleb128 0x19
 10312 035e 03       		.uleb128 0x3
 10313 035f 0E       		.uleb128 0xe
 10314 0360 3A       		.uleb128 0x3a
 10315 0361 0B       		.uleb128 0xb
 10316 0362 3B       		.uleb128 0x3b
 10317 0363 0B       		.uleb128 0xb
 10318 0364 27       		.uleb128 0x27
 10319 0365 19       		.uleb128 0x19
 10320 0366 11       		.uleb128 0x11
 10321 0367 01       		.uleb128 0x1
 10322 0368 12       		.uleb128 0x12
 10323 0369 06       		.uleb128 0x6
 10324 036a 40       		.uleb128 0x40
 10325 036b 18       		.uleb128 0x18
 10326 036c 01       		.uleb128 0x1
 10327 036d 13       		.uleb128 0x13
 10328 036e 00       		.byte	0
 10329 036f 00       		.byte	0
 10330 0370 45       		.uleb128 0x45
 10331 0371 34       		.uleb128 0x34
 10332 0372 00       		.byte	0
 10333 0373 03       		.uleb128 0x3
 10334 0374 0E       		.uleb128 0xe
 10335 0375 3A       		.uleb128 0x3a
 10336 0376 0B       		.uleb128 0xb
 10337 0377 3B       		.uleb128 0x3b
 10338 0378 0B       		.uleb128 0xb
 10339 0379 49       		.uleb128 0x49
 10340 037a 13       		.uleb128 0x13
ARM GAS  /tmp/ccLdaIGa.s 			page 183


 10341 037b 02       		.uleb128 0x2
 10342 037c 17       		.uleb128 0x17
 10343 037d 00       		.byte	0
 10344 037e 00       		.byte	0
 10345 037f 46       		.uleb128 0x46
 10346 0380 05       		.uleb128 0x5
 10347 0381 00       		.byte	0
 10348 0382 03       		.uleb128 0x3
 10349 0383 0E       		.uleb128 0xe
 10350 0384 3A       		.uleb128 0x3a
 10351 0385 0B       		.uleb128 0xb
 10352 0386 3B       		.uleb128 0x3b
 10353 0387 0B       		.uleb128 0xb
 10354 0388 49       		.uleb128 0x49
 10355 0389 13       		.uleb128 0x13
 10356 038a 02       		.uleb128 0x2
 10357 038b 18       		.uleb128 0x18
 10358 038c 00       		.byte	0
 10359 038d 00       		.byte	0
 10360 038e 47       		.uleb128 0x47
 10361 038f 18       		.uleb128 0x18
 10362 0390 00       		.byte	0
 10363 0391 00       		.byte	0
 10364 0392 00       		.byte	0
 10365 0393 48       		.uleb128 0x48
 10366 0394 0B       		.uleb128 0xb
 10367 0395 01       		.byte	0x1
 10368 0396 11       		.uleb128 0x11
 10369 0397 01       		.uleb128 0x1
 10370 0398 12       		.uleb128 0x12
 10371 0399 06       		.uleb128 0x6
 10372 039a 00       		.byte	0
 10373 039b 00       		.byte	0
 10374 039c 49       		.uleb128 0x49
 10375 039d 898201   		.uleb128 0x4109
 10376 03a0 01       		.byte	0x1
 10377 03a1 11       		.uleb128 0x11
 10378 03a2 01       		.uleb128 0x1
 10379 03a3 01       		.uleb128 0x1
 10380 03a4 13       		.uleb128 0x13
 10381 03a5 00       		.byte	0
 10382 03a6 00       		.byte	0
 10383 03a7 4A       		.uleb128 0x4a
 10384 03a8 2E       		.uleb128 0x2e
 10385 03a9 01       		.byte	0x1
 10386 03aa 3F       		.uleb128 0x3f
 10387 03ab 19       		.uleb128 0x19
 10388 03ac 03       		.uleb128 0x3
 10389 03ad 0E       		.uleb128 0xe
 10390 03ae 3A       		.uleb128 0x3a
 10391 03af 0B       		.uleb128 0xb
 10392 03b0 3B       		.uleb128 0x3b
 10393 03b1 0B       		.uleb128 0xb
 10394 03b2 27       		.uleb128 0x27
 10395 03b3 19       		.uleb128 0x19
 10396 03b4 11       		.uleb128 0x11
 10397 03b5 01       		.uleb128 0x1
ARM GAS  /tmp/ccLdaIGa.s 			page 184


 10398 03b6 12       		.uleb128 0x12
 10399 03b7 06       		.uleb128 0x6
 10400 03b8 40       		.uleb128 0x40
 10401 03b9 18       		.uleb128 0x18
 10402 03ba 9642     		.uleb128 0x2116
 10403 03bc 19       		.uleb128 0x19
 10404 03bd 01       		.uleb128 0x1
 10405 03be 13       		.uleb128 0x13
 10406 03bf 00       		.byte	0
 10407 03c0 00       		.byte	0
 10408 03c1 4B       		.uleb128 0x4b
 10409 03c2 34       		.uleb128 0x34
 10410 03c3 00       		.byte	0
 10411 03c4 03       		.uleb128 0x3
 10412 03c5 08       		.uleb128 0x8
 10413 03c6 3A       		.uleb128 0x3a
 10414 03c7 0B       		.uleb128 0xb
 10415 03c8 3B       		.uleb128 0x3b
 10416 03c9 0B       		.uleb128 0xb
 10417 03ca 49       		.uleb128 0x49
 10418 03cb 13       		.uleb128 0x13
 10419 03cc 02       		.uleb128 0x2
 10420 03cd 17       		.uleb128 0x17
 10421 03ce 00       		.byte	0
 10422 03cf 00       		.byte	0
 10423 03d0 4C       		.uleb128 0x4c
 10424 03d1 0B       		.uleb128 0xb
 10425 03d2 01       		.byte	0x1
 10426 03d3 55       		.uleb128 0x55
 10427 03d4 17       		.uleb128 0x17
 10428 03d5 00       		.byte	0
 10429 03d6 00       		.byte	0
 10430 03d7 4D       		.uleb128 0x4d
 10431 03d8 34       		.uleb128 0x34
 10432 03d9 00       		.byte	0
 10433 03da 03       		.uleb128 0x3
 10434 03db 0E       		.uleb128 0xe
 10435 03dc 3A       		.uleb128 0x3a
 10436 03dd 0B       		.uleb128 0xb
 10437 03de 3B       		.uleb128 0x3b
 10438 03df 0B       		.uleb128 0xb
 10439 03e0 49       		.uleb128 0x49
 10440 03e1 13       		.uleb128 0x13
 10441 03e2 02       		.uleb128 0x2
 10442 03e3 18       		.uleb128 0x18
 10443 03e4 00       		.byte	0
 10444 03e5 00       		.byte	0
 10445 03e6 4E       		.uleb128 0x4e
 10446 03e7 2E       		.uleb128 0x2e
 10447 03e8 01       		.byte	0x1
 10448 03e9 3F       		.uleb128 0x3f
 10449 03ea 19       		.uleb128 0x19
 10450 03eb 03       		.uleb128 0x3
 10451 03ec 0E       		.uleb128 0xe
 10452 03ed 3A       		.uleb128 0x3a
 10453 03ee 0B       		.uleb128 0xb
 10454 03ef 3B       		.uleb128 0x3b
ARM GAS  /tmp/ccLdaIGa.s 			page 185


 10455 03f0 05       		.uleb128 0x5
 10456 03f1 27       		.uleb128 0x27
 10457 03f2 19       		.uleb128 0x19
 10458 03f3 11       		.uleb128 0x11
 10459 03f4 01       		.uleb128 0x1
 10460 03f5 12       		.uleb128 0x12
 10461 03f6 06       		.uleb128 0x6
 10462 03f7 40       		.uleb128 0x40
 10463 03f8 18       		.uleb128 0x18
 10464 03f9 9742     		.uleb128 0x2117
 10465 03fb 19       		.uleb128 0x19
 10466 03fc 01       		.uleb128 0x1
 10467 03fd 13       		.uleb128 0x13
 10468 03fe 00       		.byte	0
 10469 03ff 00       		.byte	0
 10470 0400 4F       		.uleb128 0x4f
 10471 0401 34       		.uleb128 0x34
 10472 0402 00       		.byte	0
 10473 0403 03       		.uleb128 0x3
 10474 0404 08       		.uleb128 0x8
 10475 0405 3A       		.uleb128 0x3a
 10476 0406 0B       		.uleb128 0xb
 10477 0407 3B       		.uleb128 0x3b
 10478 0408 05       		.uleb128 0x5
 10479 0409 49       		.uleb128 0x49
 10480 040a 13       		.uleb128 0x13
 10481 040b 02       		.uleb128 0x2
 10482 040c 17       		.uleb128 0x17
 10483 040d 00       		.byte	0
 10484 040e 00       		.byte	0
 10485 040f 50       		.uleb128 0x50
 10486 0410 34       		.uleb128 0x34
 10487 0411 00       		.byte	0
 10488 0412 03       		.uleb128 0x3
 10489 0413 08       		.uleb128 0x8
 10490 0414 3A       		.uleb128 0x3a
 10491 0415 0B       		.uleb128 0xb
 10492 0416 3B       		.uleb128 0x3b
 10493 0417 05       		.uleb128 0x5
 10494 0418 49       		.uleb128 0x49
 10495 0419 13       		.uleb128 0x13
 10496 041a 02       		.uleb128 0x2
 10497 041b 18       		.uleb128 0x18
 10498 041c 00       		.byte	0
 10499 041d 00       		.byte	0
 10500 041e 51       		.uleb128 0x51
 10501 041f 898201   		.uleb128 0x4109
 10502 0422 01       		.byte	0x1
 10503 0423 11       		.uleb128 0x11
 10504 0424 01       		.uleb128 0x1
 10505 0425 9342     		.uleb128 0x2113
 10506 0427 18       		.uleb128 0x18
 10507 0428 00       		.byte	0
 10508 0429 00       		.byte	0
 10509 042a 52       		.uleb128 0x52
 10510 042b 2E       		.uleb128 0x2e
 10511 042c 01       		.byte	0x1
ARM GAS  /tmp/ccLdaIGa.s 			page 186


 10512 042d 31       		.uleb128 0x31
 10513 042e 13       		.uleb128 0x13
 10514 042f 11       		.uleb128 0x11
 10515 0430 01       		.uleb128 0x1
 10516 0431 12       		.uleb128 0x12
 10517 0432 06       		.uleb128 0x6
 10518 0433 40       		.uleb128 0x40
 10519 0434 18       		.uleb128 0x18
 10520 0435 9742     		.uleb128 0x2117
 10521 0437 19       		.uleb128 0x19
 10522 0438 01       		.uleb128 0x1
 10523 0439 13       		.uleb128 0x13
 10524 043a 00       		.byte	0
 10525 043b 00       		.byte	0
 10526 043c 53       		.uleb128 0x53
 10527 043d 34       		.uleb128 0x34
 10528 043e 00       		.byte	0
 10529 043f 03       		.uleb128 0x3
 10530 0440 0E       		.uleb128 0xe
 10531 0441 3A       		.uleb128 0x3a
 10532 0442 0B       		.uleb128 0xb
 10533 0443 3B       		.uleb128 0x3b
 10534 0444 05       		.uleb128 0x5
 10535 0445 49       		.uleb128 0x49
 10536 0446 13       		.uleb128 0x13
 10537 0447 02       		.uleb128 0x2
 10538 0448 17       		.uleb128 0x17
 10539 0449 00       		.byte	0
 10540 044a 00       		.byte	0
 10541 044b 54       		.uleb128 0x54
 10542 044c 34       		.uleb128 0x34
 10543 044d 00       		.byte	0
 10544 044e 03       		.uleb128 0x3
 10545 044f 0E       		.uleb128 0xe
 10546 0450 3A       		.uleb128 0x3a
 10547 0451 0B       		.uleb128 0xb
 10548 0452 3B       		.uleb128 0x3b
 10549 0453 05       		.uleb128 0x5
 10550 0454 49       		.uleb128 0x49
 10551 0455 13       		.uleb128 0x13
 10552 0456 02       		.uleb128 0x2
 10553 0457 18       		.uleb128 0x18
 10554 0458 00       		.byte	0
 10555 0459 00       		.byte	0
 10556 045a 55       		.uleb128 0x55
 10557 045b 1D       		.uleb128 0x1d
 10558 045c 00       		.byte	0
 10559 045d 31       		.uleb128 0x31
 10560 045e 13       		.uleb128 0x13
 10561 045f 52       		.uleb128 0x52
 10562 0460 01       		.uleb128 0x1
 10563 0461 55       		.uleb128 0x55
 10564 0462 17       		.uleb128 0x17
 10565 0463 58       		.uleb128 0x58
 10566 0464 0B       		.uleb128 0xb
 10567 0465 59       		.uleb128 0x59
 10568 0466 05       		.uleb128 0x5
ARM GAS  /tmp/ccLdaIGa.s 			page 187


 10569 0467 00       		.byte	0
 10570 0468 00       		.byte	0
 10571 0469 56       		.uleb128 0x56
 10572 046a 05       		.uleb128 0x5
 10573 046b 00       		.byte	0
 10574 046c 03       		.uleb128 0x3
 10575 046d 08       		.uleb128 0x8
 10576 046e 3A       		.uleb128 0x3a
 10577 046f 0B       		.uleb128 0xb
 10578 0470 3B       		.uleb128 0x3b
 10579 0471 05       		.uleb128 0x5
 10580 0472 49       		.uleb128 0x49
 10581 0473 13       		.uleb128 0x13
 10582 0474 02       		.uleb128 0x2
 10583 0475 17       		.uleb128 0x17
 10584 0476 00       		.byte	0
 10585 0477 00       		.byte	0
 10586 0478 57       		.uleb128 0x57
 10587 0479 34       		.uleb128 0x34
 10588 047a 00       		.byte	0
 10589 047b 03       		.uleb128 0x3
 10590 047c 0E       		.uleb128 0xe
 10591 047d 3A       		.uleb128 0x3a
 10592 047e 0B       		.uleb128 0xb
 10593 047f 3B       		.uleb128 0x3b
 10594 0480 05       		.uleb128 0x5
 10595 0481 49       		.uleb128 0x49
 10596 0482 13       		.uleb128 0x13
 10597 0483 3F       		.uleb128 0x3f
 10598 0484 19       		.uleb128 0x19
 10599 0485 3C       		.uleb128 0x3c
 10600 0486 19       		.uleb128 0x19
 10601 0487 00       		.byte	0
 10602 0488 00       		.byte	0
 10603 0489 58       		.uleb128 0x58
 10604 048a 34       		.uleb128 0x34
 10605 048b 00       		.byte	0
 10606 048c 03       		.uleb128 0x3
 10607 048d 0E       		.uleb128 0xe
 10608 048e 3A       		.uleb128 0x3a
 10609 048f 0B       		.uleb128 0xb
 10610 0490 3B       		.uleb128 0x3b
 10611 0491 0B       		.uleb128 0xb
 10612 0492 49       		.uleb128 0x49
 10613 0493 13       		.uleb128 0x13
 10614 0494 3F       		.uleb128 0x3f
 10615 0495 19       		.uleb128 0x19
 10616 0496 02       		.uleb128 0x2
 10617 0497 18       		.uleb128 0x18
 10618 0498 00       		.byte	0
 10619 0499 00       		.byte	0
 10620 049a 59       		.uleb128 0x59
 10621 049b 34       		.uleb128 0x34
 10622 049c 00       		.byte	0
 10623 049d 03       		.uleb128 0x3
 10624 049e 0E       		.uleb128 0xe
 10625 049f 3A       		.uleb128 0x3a
ARM GAS  /tmp/ccLdaIGa.s 			page 188


 10626 04a0 0B       		.uleb128 0xb
 10627 04a1 3B       		.uleb128 0x3b
 10628 04a2 05       		.uleb128 0x5
 10629 04a3 49       		.uleb128 0x49
 10630 04a4 13       		.uleb128 0x13
 10631 04a5 3F       		.uleb128 0x3f
 10632 04a6 19       		.uleb128 0x19
 10633 04a7 02       		.uleb128 0x2
 10634 04a8 18       		.uleb128 0x18
 10635 04a9 00       		.byte	0
 10636 04aa 00       		.byte	0
 10637 04ab 5A       		.uleb128 0x5a
 10638 04ac 2E       		.uleb128 0x2e
 10639 04ad 01       		.byte	0x1
 10640 04ae 3F       		.uleb128 0x3f
 10641 04af 19       		.uleb128 0x19
 10642 04b0 03       		.uleb128 0x3
 10643 04b1 0E       		.uleb128 0xe
 10644 04b2 3A       		.uleb128 0x3a
 10645 04b3 0B       		.uleb128 0xb
 10646 04b4 3B       		.uleb128 0x3b
 10647 04b5 0B       		.uleb128 0xb
 10648 04b6 27       		.uleb128 0x27
 10649 04b7 19       		.uleb128 0x19
 10650 04b8 3C       		.uleb128 0x3c
 10651 04b9 19       		.uleb128 0x19
 10652 04ba 01       		.uleb128 0x1
 10653 04bb 13       		.uleb128 0x13
 10654 04bc 00       		.byte	0
 10655 04bd 00       		.byte	0
 10656 04be 5B       		.uleb128 0x5b
 10657 04bf 2E       		.uleb128 0x2e
 10658 04c0 01       		.byte	0x1
 10659 04c1 3F       		.uleb128 0x3f
 10660 04c2 19       		.uleb128 0x19
 10661 04c3 03       		.uleb128 0x3
 10662 04c4 0E       		.uleb128 0xe
 10663 04c5 3A       		.uleb128 0x3a
 10664 04c6 0B       		.uleb128 0xb
 10665 04c7 3B       		.uleb128 0x3b
 10666 04c8 0B       		.uleb128 0xb
 10667 04c9 27       		.uleb128 0x27
 10668 04ca 19       		.uleb128 0x19
 10669 04cb 49       		.uleb128 0x49
 10670 04cc 13       		.uleb128 0x13
 10671 04cd 3C       		.uleb128 0x3c
 10672 04ce 19       		.uleb128 0x19
 10673 04cf 01       		.uleb128 0x1
 10674 04d0 13       		.uleb128 0x13
 10675 04d1 00       		.byte	0
 10676 04d2 00       		.byte	0
 10677 04d3 5C       		.uleb128 0x5c
 10678 04d4 2E       		.uleb128 0x2e
 10679 04d5 01       		.byte	0x1
 10680 04d6 3F       		.uleb128 0x3f
 10681 04d7 19       		.uleb128 0x19
 10682 04d8 03       		.uleb128 0x3
ARM GAS  /tmp/ccLdaIGa.s 			page 189


 10683 04d9 0E       		.uleb128 0xe
 10684 04da 3A       		.uleb128 0x3a
 10685 04db 0B       		.uleb128 0xb
 10686 04dc 3B       		.uleb128 0x3b
 10687 04dd 0B       		.uleb128 0xb
 10688 04de 6E       		.uleb128 0x6e
 10689 04df 0E       		.uleb128 0xe
 10690 04e0 27       		.uleb128 0x27
 10691 04e1 19       		.uleb128 0x19
 10692 04e2 49       		.uleb128 0x49
 10693 04e3 13       		.uleb128 0x13
 10694 04e4 3C       		.uleb128 0x3c
 10695 04e5 19       		.uleb128 0x19
 10696 04e6 01       		.uleb128 0x1
 10697 04e7 13       		.uleb128 0x13
 10698 04e8 00       		.byte	0
 10699 04e9 00       		.byte	0
 10700 04ea 5D       		.uleb128 0x5d
 10701 04eb 2E       		.uleb128 0x2e
 10702 04ec 01       		.byte	0x1
 10703 04ed 3F       		.uleb128 0x3f
 10704 04ee 19       		.uleb128 0x19
 10705 04ef 03       		.uleb128 0x3
 10706 04f0 0E       		.uleb128 0xe
 10707 04f1 3A       		.uleb128 0x3a
 10708 04f2 0B       		.uleb128 0xb
 10709 04f3 3B       		.uleb128 0x3b
 10710 04f4 05       		.uleb128 0x5
 10711 04f5 27       		.uleb128 0x27
 10712 04f6 19       		.uleb128 0x19
 10713 04f7 3C       		.uleb128 0x3c
 10714 04f8 19       		.uleb128 0x19
 10715 04f9 01       		.uleb128 0x1
 10716 04fa 13       		.uleb128 0x13
 10717 04fb 00       		.byte	0
 10718 04fc 00       		.byte	0
 10719 04fd 5E       		.uleb128 0x5e
 10720 04fe 2E       		.uleb128 0x2e
 10721 04ff 01       		.byte	0x1
 10722 0500 3F       		.uleb128 0x3f
 10723 0501 19       		.uleb128 0x19
 10724 0502 03       		.uleb128 0x3
 10725 0503 0E       		.uleb128 0xe
 10726 0504 3A       		.uleb128 0x3a
 10727 0505 0B       		.uleb128 0xb
 10728 0506 3B       		.uleb128 0x3b
 10729 0507 05       		.uleb128 0x5
 10730 0508 27       		.uleb128 0x27
 10731 0509 19       		.uleb128 0x19
 10732 050a 49       		.uleb128 0x49
 10733 050b 13       		.uleb128 0x13
 10734 050c 3C       		.uleb128 0x3c
 10735 050d 19       		.uleb128 0x19
 10736 050e 01       		.uleb128 0x1
 10737 050f 13       		.uleb128 0x13
 10738 0510 00       		.byte	0
 10739 0511 00       		.byte	0
ARM GAS  /tmp/ccLdaIGa.s 			page 190


 10740 0512 5F       		.uleb128 0x5f
 10741 0513 2E       		.uleb128 0x2e
 10742 0514 00       		.byte	0
 10743 0515 3F       		.uleb128 0x3f
 10744 0516 19       		.uleb128 0x19
 10745 0517 03       		.uleb128 0x3
 10746 0518 0E       		.uleb128 0xe
 10747 0519 3A       		.uleb128 0x3a
 10748 051a 0B       		.uleb128 0xb
 10749 051b 3B       		.uleb128 0x3b
 10750 051c 0B       		.uleb128 0xb
 10751 051d 27       		.uleb128 0x27
 10752 051e 19       		.uleb128 0x19
 10753 051f 49       		.uleb128 0x49
 10754 0520 13       		.uleb128 0x13
 10755 0521 3C       		.uleb128 0x3c
 10756 0522 19       		.uleb128 0x19
 10757 0523 00       		.byte	0
 10758 0524 00       		.byte	0
 10759 0525 60       		.uleb128 0x60
 10760 0526 2E       		.uleb128 0x2e
 10761 0527 00       		.byte	0
 10762 0528 3F       		.uleb128 0x3f
 10763 0529 19       		.uleb128 0x19
 10764 052a 03       		.uleb128 0x3
 10765 052b 0E       		.uleb128 0xe
 10766 052c 3A       		.uleb128 0x3a
 10767 052d 0B       		.uleb128 0xb
 10768 052e 3B       		.uleb128 0x3b
 10769 052f 0B       		.uleb128 0xb
 10770 0530 27       		.uleb128 0x27
 10771 0531 19       		.uleb128 0x19
 10772 0532 3C       		.uleb128 0x3c
 10773 0533 19       		.uleb128 0x19
 10774 0534 00       		.byte	0
 10775 0535 00       		.byte	0
 10776 0536 61       		.uleb128 0x61
 10777 0537 26       		.uleb128 0x26
 10778 0538 00       		.byte	0
 10779 0539 00       		.byte	0
 10780 053a 00       		.byte	0
 10781 053b 00       		.byte	0
 10782              		.section	.debug_loc,"",%progbits
 10783              	.Ldebug_loc0:
 10784              	.LLST0:
 10785 0000 00000000 		.4byte	.LVL0-.Ltext0
 10786 0004 0E000000 		.4byte	.LVL1-.Ltext0
 10787 0008 0100     		.2byte	0x1
 10788 000a 50       		.byte	0x50
 10789 000b 0E000000 		.4byte	.LVL1-.Ltext0
 10790 000f 48000000 		.4byte	.LFE131-.Ltext0
 10791 0013 0400     		.2byte	0x4
 10792 0015 F3       		.byte	0xf3
 10793 0016 01       		.uleb128 0x1
 10794 0017 50       		.byte	0x50
 10795 0018 9F       		.byte	0x9f
 10796 0019 00000000 		.4byte	0
ARM GAS  /tmp/ccLdaIGa.s 			page 191


 10797 001d 00000000 		.4byte	0
 10798              	.LLST1:
 10799 0021 6A000000 		.4byte	.LVL5-.Ltext0
 10800 0025 72000000 		.4byte	.LVL6-.Ltext0
 10801 0029 0100     		.2byte	0x1
 10802 002b 50       		.byte	0x50
 10803 002c 8A000000 		.4byte	.LVL10-.Ltext0
 10804 0030 BE000000 		.4byte	.LVL13-.Ltext0
 10805 0034 0100     		.2byte	0x1
 10806 0036 50       		.byte	0x50
 10807 0037 26010000 		.4byte	.LVL20-.Ltext0
 10808 003b 30010000 		.4byte	.LVL21-.Ltext0
 10809 003f 0100     		.2byte	0x1
 10810 0041 50       		.byte	0x50
 10811 0042 30010000 		.4byte	.LVL21-.Ltext0
 10812 0046 38010000 		.4byte	.LVL22-.Ltext0
 10813 004a 0100     		.2byte	0x1
 10814 004c 54       		.byte	0x54
 10815 004d 38010000 		.4byte	.LVL22-.Ltext0
 10816 0051 48010000 		.4byte	.LVL24-.Ltext0
 10817 0055 0100     		.2byte	0x1
 10818 0057 50       		.byte	0x50
 10819 0058 A4010000 		.4byte	.LVL31-.Ltext0
 10820 005c AB010000 		.4byte	.LVL32-1-.Ltext0
 10821 0060 0100     		.2byte	0x1
 10822 0062 50       		.byte	0x50
 10823 0063 AC010000 		.4byte	.LVL32-.Ltext0
 10824 0067 B4010000 		.4byte	.LVL33-.Ltext0
 10825 006b 0100     		.2byte	0x1
 10826 006d 54       		.byte	0x54
 10827 006e 00000000 		.4byte	0
 10828 0072 00000000 		.4byte	0
 10829              	.LLST2:
 10830 0076 7C000000 		.4byte	.LVL8-.Ltext0
 10831 007a 82000000 		.4byte	.LVL9-.Ltext0
 10832 007e 0100     		.2byte	0x1
 10833 0080 50       		.byte	0x50
 10834 0081 82000000 		.4byte	.LVL9-.Ltext0
 10835 0085 A4010000 		.4byte	.LVL31-.Ltext0
 10836 0089 0100     		.2byte	0x1
 10837 008b 56       		.byte	0x56
 10838 008c 00000000 		.4byte	0
 10839 0090 00000000 		.4byte	0
 10840              	.LLST3:
 10841 0094 A4000000 		.4byte	.LVL11-.Ltext0
 10842 0098 C4000000 		.4byte	.LVL14-.Ltext0
 10843 009c 0100     		.2byte	0x1
 10844 009e 54       		.byte	0x54
 10845 009f C4000000 		.4byte	.LVL14-.Ltext0
 10846 00a3 C9000000 		.4byte	.LVL15-1-.Ltext0
 10847 00a7 0100     		.2byte	0x1
 10848 00a9 51       		.byte	0x51
 10849 00aa 3E010000 		.4byte	.LVL23-.Ltext0
 10850 00ae 8C010000 		.4byte	.LVL27-.Ltext0
 10851 00b2 0100     		.2byte	0x1
 10852 00b4 54       		.byte	0x54
 10853 00b5 00000000 		.4byte	0
ARM GAS  /tmp/ccLdaIGa.s 			page 192


 10854 00b9 00000000 		.4byte	0
 10855              	.LLST4:
 10856 00bd 94010000 		.4byte	.LVL28-.Ltext0
 10857 00c1 A0010000 		.4byte	.LVL29-.Ltext0
 10858 00c5 0100     		.2byte	0x1
 10859 00c7 50       		.byte	0x50
 10860 00c8 A0010000 		.4byte	.LVL29-.Ltext0
 10861 00cc A1010000 		.4byte	.LVL30-1-.Ltext0
 10862 00d0 0300     		.2byte	0x3
 10863 00d2 72       		.byte	0x72
 10864 00d3 73       		.sleb128 -13
 10865 00d4 9F       		.byte	0x9f
 10866 00d5 00000000 		.4byte	0
 10867 00d9 00000000 		.4byte	0
 10868              	.LLST5:
 10869 00dd 10010000 		.4byte	.LVL17-.Ltext0
 10870 00e1 1C010000 		.4byte	.LVL18-.Ltext0
 10871 00e5 0100     		.2byte	0x1
 10872 00e7 52       		.byte	0x52
 10873 00e8 1C010000 		.4byte	.LVL18-.Ltext0
 10874 00ec 21010000 		.4byte	.LVL19-1-.Ltext0
 10875 00f0 0300     		.2byte	0x3
 10876 00f2 72       		.byte	0x72
 10877 00f3 72       		.sleb128 -14
 10878 00f4 9F       		.byte	0x9f
 10879 00f5 00000000 		.4byte	0
 10880 00f9 00000000 		.4byte	0
 10881              	.LLST6:
 10882 00fd 8C020000 		.4byte	.LVL42-.Ltext0
 10883 0101 92020000 		.4byte	.LVL43-.Ltext0
 10884 0105 0100     		.2byte	0x1
 10885 0107 52       		.byte	0x52
 10886 0108 94020000 		.4byte	.LVL44-.Ltext0
 10887 010c 9B020000 		.4byte	.LVL45-1-.Ltext0
 10888 0110 0100     		.2byte	0x1
 10889 0112 52       		.byte	0x52
 10890 0113 00000000 		.4byte	0
 10891 0117 00000000 		.4byte	0
 10892              	.LLST7:
 10893 011b 68030000 		.4byte	.LVL52-.Ltext0
 10894 011f 7A030000 		.4byte	.LVL53-.Ltext0
 10895 0123 0200     		.2byte	0x2
 10896 0125 30       		.byte	0x30
 10897 0126 9F       		.byte	0x9f
 10898 0127 7A030000 		.4byte	.LVL53-.Ltext0
 10899 012b BE030000 		.4byte	.LVL58-.Ltext0
 10900 012f 0100     		.2byte	0x1
 10901 0131 55       		.byte	0x55
 10902 0132 00000000 		.4byte	0
 10903 0136 00000000 		.4byte	0
 10904              	.LLST8:
 10905 013a 98030000 		.4byte	.LVL56-.Ltext0
 10906 013e BE030000 		.4byte	.LVL58-.Ltext0
 10907 0142 0100     		.2byte	0x1
 10908 0144 5A       		.byte	0x5a
 10909 0145 00000000 		.4byte	0
 10910 0149 00000000 		.4byte	0
ARM GAS  /tmp/ccLdaIGa.s 			page 193


 10911              	.LLST9:
 10912 014d 60040000 		.4byte	.LVL64-.Ltext0
 10913 0151 A0040000 		.4byte	.LVL65-.Ltext0
 10914 0155 0100     		.2byte	0x1
 10915 0157 50       		.byte	0x50
 10916 0158 E4040000 		.4byte	.LVL70-.Ltext0
 10917 015c E9040000 		.4byte	.LVL71-1-.Ltext0
 10918 0160 0100     		.2byte	0x1
 10919 0162 50       		.byte	0x50
 10920 0163 00000000 		.4byte	0
 10921 0167 00000000 		.4byte	0
 10922              	.LLST10:
 10923 016b 34050000 		.4byte	.LVL73-.Ltext0
 10924 016f 38050000 		.4byte	.LVL74-.Ltext0
 10925 0173 0100     		.2byte	0x1
 10926 0175 50       		.byte	0x50
 10927 0176 42050000 		.4byte	.LVL75-.Ltext0
 10928 017a 44050000 		.4byte	.LVL76-.Ltext0
 10929 017e 0100     		.2byte	0x1
 10930 0180 50       		.byte	0x50
 10931 0181 4C050000 		.4byte	.LVL77-.Ltext0
 10932 0185 55050000 		.4byte	.LVL78-1-.Ltext0
 10933 0189 0100     		.2byte	0x1
 10934 018b 50       		.byte	0x50
 10935 018c A8050000 		.4byte	.LVL87-.Ltext0
 10936 0190 AD050000 		.4byte	.LVL88-1-.Ltext0
 10937 0194 0100     		.2byte	0x1
 10938 0196 50       		.byte	0x50
 10939 0197 B0050000 		.4byte	.LVL89-.Ltext0
 10940 019b B5050000 		.4byte	.LVL90-1-.Ltext0
 10941 019f 0100     		.2byte	0x1
 10942 01a1 50       		.byte	0x50
 10943 01a2 00000000 		.4byte	0
 10944 01a6 00000000 		.4byte	0
 10945              	.LLST11:
 10946 01aa 5E050000 		.4byte	.LVL79-.Ltext0
 10947 01ae 62050000 		.4byte	.LVL80-.Ltext0
 10948 01b2 0100     		.2byte	0x1
 10949 01b4 50       		.byte	0x50
 10950 01b5 00000000 		.4byte	0
 10951 01b9 00000000 		.4byte	0
 10952              	.LLST12:
 10953 01bd 42060000 		.4byte	.LVL104-.Ltext0
 10954 01c1 4A060000 		.4byte	.LVL105-.Ltext0
 10955 01c5 0100     		.2byte	0x1
 10956 01c7 50       		.byte	0x50
 10957 01c8 00000000 		.4byte	0
 10958 01cc 00000000 		.4byte	0
 10959              	.LLST13:
 10960 01d0 70050000 		.4byte	.LVL82-.Ltext0
 10961 01d4 7B050000 		.4byte	.LVL83-1-.Ltext0
 10962 01d8 0100     		.2byte	0x1
 10963 01da 50       		.byte	0x50
 10964 01db 9C050000 		.4byte	.LVL84-.Ltext0
 10965 01df A0050000 		.4byte	.LVL85-.Ltext0
 10966 01e3 0100     		.2byte	0x1
 10967 01e5 50       		.byte	0x50
ARM GAS  /tmp/ccLdaIGa.s 			page 194


 10968 01e6 00000000 		.4byte	0
 10969 01ea 00000000 		.4byte	0
 10970              	.LLST14:
 10971 01ee C2050000 		.4byte	.LVL91-.Ltext0
 10972 01f2 C6050000 		.4byte	.LVL92-.Ltext0
 10973 01f6 0100     		.2byte	0x1
 10974 01f8 50       		.byte	0x50
 10975 01f9 D0050000 		.4byte	.LVL93-.Ltext0
 10976 01fd D4050000 		.4byte	.LVL94-.Ltext0
 10977 0201 0100     		.2byte	0x1
 10978 0203 50       		.byte	0x50
 10979 0204 DC050000 		.4byte	.LVL95-.Ltext0
 10980 0208 E2050000 		.4byte	.LVL96-.Ltext0
 10981 020c 0100     		.2byte	0x1
 10982 020e 50       		.byte	0x50
 10983 020f 4A060000 		.4byte	.LVL105-.Ltext0
 10984 0213 4F060000 		.4byte	.LVL106-1-.Ltext0
 10985 0217 0100     		.2byte	0x1
 10986 0219 50       		.byte	0x50
 10987 021a 52060000 		.4byte	.LVL107-.Ltext0
 10988 021e 57060000 		.4byte	.LVL108-1-.Ltext0
 10989 0222 0100     		.2byte	0x1
 10990 0224 50       		.byte	0x50
 10991 0225 00000000 		.4byte	0
 10992 0229 00000000 		.4byte	0
 10993              	.LLST15:
 10994 022d F4050000 		.4byte	.LVL97-.Ltext0
 10995 0231 20060000 		.4byte	.LVL99-.Ltext0
 10996 0235 0100     		.2byte	0x1
 10997 0237 50       		.byte	0x50
 10998 0238 00000000 		.4byte	0
 10999 023c 00000000 		.4byte	0
 11000              	.LLST16:
 11001 0240 8A060000 		.4byte	.LVL109-.Ltext0
 11002 0244 8C060000 		.4byte	.LVL110-.Ltext0
 11003 0248 0100     		.2byte	0x1
 11004 024a 50       		.byte	0x50
 11005 024b C4060000 		.4byte	.LVL113-.Ltext0
 11006 024f C9060000 		.4byte	.LVL114-1-.Ltext0
 11007 0253 0100     		.2byte	0x1
 11008 0255 50       		.byte	0x50
 11009 0256 00000000 		.4byte	0
 11010 025a 00000000 		.4byte	0
 11011              	.LLST17:
 11012 025e B6060000 		.4byte	.LVL111-.Ltext0
 11013 0262 BF060000 		.4byte	.LVL112-1-.Ltext0
 11014 0266 0100     		.2byte	0x1
 11015 0268 50       		.byte	0x50
 11016 0269 00000000 		.4byte	0
 11017 026d 00000000 		.4byte	0
 11018              	.LLST18:
 11019 0271 EC060000 		.4byte	.LVL116-.Ltext0
 11020 0275 F0060000 		.4byte	.LVL117-.Ltext0
 11021 0279 0600     		.2byte	0x6
 11022 027b 0C       		.byte	0xc
 11023 027c 00100120 		.4byte	0x20011000
 11024 0280 9F       		.byte	0x9f
ARM GAS  /tmp/ccLdaIGa.s 			page 195


 11025 0281 F0060000 		.4byte	.LVL117-.Ltext0
 11026 0285 F8060000 		.4byte	.LVL118-.Ltext0
 11027 0289 0100     		.2byte	0x1
 11028 028b 54       		.byte	0x54
 11029 028c F8060000 		.4byte	.LVL118-.Ltext0
 11030 0290 00070000 		.4byte	.LVL119-.Ltext0
 11031 0294 0300     		.2byte	0x3
 11032 0296 74       		.byte	0x74
 11033 0297 7C       		.sleb128 -4
 11034 0298 9F       		.byte	0x9f
 11035 0299 00070000 		.4byte	.LVL119-.Ltext0
 11036 029d 0C070000 		.4byte	.LVL120-.Ltext0
 11037 02a1 0100     		.2byte	0x1
 11038 02a3 54       		.byte	0x54
 11039 02a4 0C070000 		.4byte	.LVL120-.Ltext0
 11040 02a8 14070000 		.4byte	.LVL121-.Ltext0
 11041 02ac 0700     		.2byte	0x7
 11042 02ae 72       		.byte	0x72
 11043 02af 84A0CCBF 		.sleb128 401805316
 11043      01
 11044 02b4 9F       		.byte	0x9f
 11045 02b5 14070000 		.4byte	.LVL121-.Ltext0
 11046 02b9 1A070000 		.4byte	.LVL122-.Ltext0
 11047 02bd 0700     		.2byte	0x7
 11048 02bf 72       		.byte	0x72
 11049 02c0 80A0CCBF 		.sleb128 401805312
 11049      01
 11050 02c5 9F       		.byte	0x9f
 11051 02c6 1A070000 		.4byte	.LVL122-.Ltext0
 11052 02ca 26070000 		.4byte	.LVL123-.Ltext0
 11053 02ce 0700     		.2byte	0x7
 11054 02d0 72       		.byte	0x72
 11055 02d1 84A0CCBF 		.sleb128 401805316
 11055      01
 11056 02d6 9F       		.byte	0x9f
 11057 02d7 00000000 		.4byte	0
 11058 02db 00000000 		.4byte	0
 11059              	.LLST19:
 11060 02df EC060000 		.4byte	.LVL116-.Ltext0
 11061 02e3 F0060000 		.4byte	.LVL117-.Ltext0
 11062 02e7 0600     		.2byte	0x6
 11063 02e9 0C       		.byte	0xc
 11064 02ea 00000E08 		.4byte	0x80e0000
 11065 02ee 9F       		.byte	0x9f
 11066 02ef F0060000 		.4byte	.LVL117-.Ltext0
 11067 02f3 F8060000 		.4byte	.LVL118-.Ltext0
 11068 02f7 0700     		.2byte	0x7
 11069 02f9 74       		.byte	0x74
 11070 02fa 80E0B3C0 		.sleb128 -401805312
 11070      7E
 11071 02ff 9F       		.byte	0x9f
 11072 0300 F8060000 		.4byte	.LVL118-.Ltext0
 11073 0304 00070000 		.4byte	.LVL119-.Ltext0
 11074 0308 0700     		.2byte	0x7
 11075 030a 74       		.byte	0x74
 11076 030b FCDFB3C0 		.sleb128 -401805316
 11076      7E
ARM GAS  /tmp/ccLdaIGa.s 			page 196


 11077 0310 9F       		.byte	0x9f
 11078 0311 00070000 		.4byte	.LVL119-.Ltext0
 11079 0315 0C070000 		.4byte	.LVL120-.Ltext0
 11080 0319 0700     		.2byte	0x7
 11081 031b 74       		.byte	0x74
 11082 031c 80E0B3C0 		.sleb128 -401805312
 11082      7E
 11083 0321 9F       		.byte	0x9f
 11084 0322 0C070000 		.4byte	.LVL120-.Ltext0
 11085 0326 14070000 		.4byte	.LVL121-.Ltext0
 11086 032a 0300     		.2byte	0x3
 11087 032c 72       		.byte	0x72
 11088 032d 04       		.sleb128 4
 11089 032e 9F       		.byte	0x9f
 11090 032f 14070000 		.4byte	.LVL121-.Ltext0
 11091 0333 1A070000 		.4byte	.LVL122-.Ltext0
 11092 0337 0100     		.2byte	0x1
 11093 0339 52       		.byte	0x52
 11094 033a 1A070000 		.4byte	.LVL122-.Ltext0
 11095 033e 26070000 		.4byte	.LVL123-.Ltext0
 11096 0342 0300     		.2byte	0x3
 11097 0344 72       		.byte	0x72
 11098 0345 04       		.sleb128 4
 11099 0346 9F       		.byte	0x9f
 11100 0347 00000000 		.4byte	0
 11101 034b 00000000 		.4byte	0
 11102              	.LLST20:
 11103 034f EC060000 		.4byte	.LVL116-.Ltext0
 11104 0353 F0060000 		.4byte	.LVL117-.Ltext0
 11105 0357 0200     		.2byte	0x2
 11106 0359 30       		.byte	0x30
 11107 035a 9F       		.byte	0x9f
 11108 035b F0060000 		.4byte	.LVL117-.Ltext0
 11109 035f F8060000 		.4byte	.LVL118-.Ltext0
 11110 0363 0700     		.2byte	0x7
 11111 0365 74       		.byte	0x74
 11112 0366 80E0FBFF 		.sleb128 -536940544
 11112      7D
 11113 036b 9F       		.byte	0x9f
 11114 036c F8060000 		.4byte	.LVL118-.Ltext0
 11115 0370 00070000 		.4byte	.LVL119-.Ltext0
 11116 0374 0700     		.2byte	0x7
 11117 0376 74       		.byte	0x74
 11118 0377 FCDFFBFF 		.sleb128 -536940548
 11118      7D
 11119 037c 9F       		.byte	0x9f
 11120 037d 00070000 		.4byte	.LVL119-.Ltext0
 11121 0381 0C070000 		.4byte	.LVL120-.Ltext0
 11122 0385 0700     		.2byte	0x7
 11123 0387 74       		.byte	0x74
 11124 0388 80E0FBFF 		.sleb128 -536940544
 11124      7D
 11125 038d 9F       		.byte	0x9f
 11126 038e 0C070000 		.4byte	.LVL120-.Ltext0
 11127 0392 14070000 		.4byte	.LVL121-.Ltext0
 11128 0396 0700     		.2byte	0x7
 11129 0398 72       		.byte	0x72
ARM GAS  /tmp/ccLdaIGa.s 			page 197


 11130 0399 8480C8BF 		.sleb128 -135135228
 11130      7F
 11131 039e 9F       		.byte	0x9f
 11132 039f 14070000 		.4byte	.LVL121-.Ltext0
 11133 03a3 1A070000 		.4byte	.LVL122-.Ltext0
 11134 03a7 0700     		.2byte	0x7
 11135 03a9 72       		.byte	0x72
 11136 03aa 8080C8BF 		.sleb128 -135135232
 11136      7F
 11137 03af 9F       		.byte	0x9f
 11138 03b0 1A070000 		.4byte	.LVL122-.Ltext0
 11139 03b4 26070000 		.4byte	.LVL123-.Ltext0
 11140 03b8 0700     		.2byte	0x7
 11141 03ba 72       		.byte	0x72
 11142 03bb 8480C8BF 		.sleb128 -135135228
 11142      7F
 11143 03c0 9F       		.byte	0x9f
 11144 03c1 00000000 		.4byte	0
 11145 03c5 00000000 		.4byte	0
 11146              	.LLST21:
 11147 03c9 0C070000 		.4byte	.LVL120-.Ltext0
 11148 03cd 2C070000 		.4byte	.LVL124-.Ltext0
 11149 03d1 0100     		.2byte	0x1
 11150 03d3 54       		.byte	0x54
 11151 03d4 00000000 		.4byte	0
 11152 03d8 00000000 		.4byte	0
 11153              	.LLST22:
 11154 03dc 5A070000 		.4byte	.LVL125-.Ltext0
 11155 03e0 7A070000 		.4byte	.LVL126-.Ltext0
 11156 03e4 0100     		.2byte	0x1
 11157 03e6 53       		.byte	0x53
 11158 03e7 7A070000 		.4byte	.LVL126-.Ltext0
 11159 03eb C3070000 		.4byte	.LVL127-1-.Ltext0
 11160 03ef 0500     		.2byte	0x5
 11161 03f1 03       		.byte	0x3
 11162 03f2 00000000 		.4byte	fwid
 11163 03f6 00000000 		.4byte	0
 11164 03fa 00000000 		.4byte	0
 11165              	.LLST23:
 11166 03fe E0070000 		.4byte	.LVL128-.Ltext0
 11167 0402 73080000 		.4byte	.LVL129-1-.Ltext0
 11168 0406 0100     		.2byte	0x1
 11169 0408 50       		.byte	0x50
 11170 0409 73080000 		.4byte	.LVL129-1-.Ltext0
 11171 040d 7E080000 		.4byte	.LVL130-.Ltext0
 11172 0411 0400     		.2byte	0x4
 11173 0413 F3       		.byte	0xf3
 11174 0414 01       		.uleb128 0x1
 11175 0415 50       		.byte	0x50
 11176 0416 9F       		.byte	0x9f
 11177 0417 7E080000 		.4byte	.LVL130-.Ltext0
 11178 041b B8080000 		.4byte	.LVL131-.Ltext0
 11179 041f 0100     		.2byte	0x1
 11180 0421 50       		.byte	0x50
 11181 0422 B8080000 		.4byte	.LVL131-.Ltext0
 11182 0426 C4080000 		.4byte	.LVL132-.Ltext0
 11183 042a 0400     		.2byte	0x4
ARM GAS  /tmp/ccLdaIGa.s 			page 198


 11184 042c F3       		.byte	0xf3
 11185 042d 01       		.uleb128 0x1
 11186 042e 50       		.byte	0x50
 11187 042f 9F       		.byte	0x9f
 11188 0430 C4080000 		.4byte	.LVL132-.Ltext0
 11189 0434 E0090000 		.4byte	.LVL133-.Ltext0
 11190 0438 0100     		.2byte	0x1
 11191 043a 50       		.byte	0x50
 11192 043b E0090000 		.4byte	.LVL133-.Ltext0
 11193 043f 200A0000 		.4byte	.LVL135-.Ltext0
 11194 0443 0400     		.2byte	0x4
 11195 0445 F3       		.byte	0xf3
 11196 0446 01       		.uleb128 0x1
 11197 0447 50       		.byte	0x50
 11198 0448 9F       		.byte	0x9f
 11199 0449 200A0000 		.4byte	.LVL135-.Ltext0
 11200 044d DC0A0000 		.4byte	.LVL136-.Ltext0
 11201 0451 0100     		.2byte	0x1
 11202 0453 50       		.byte	0x50
 11203 0454 DC0A0000 		.4byte	.LVL136-.Ltext0
 11204 0458 040B0000 		.4byte	.LVL137-.Ltext0
 11205 045c 0400     		.2byte	0x4
 11206 045e F3       		.byte	0xf3
 11207 045f 01       		.uleb128 0x1
 11208 0460 50       		.byte	0x50
 11209 0461 9F       		.byte	0x9f
 11210 0462 040B0000 		.4byte	.LVL137-.Ltext0
 11211 0466 BB0C0000 		.4byte	.LVL138-1-.Ltext0
 11212 046a 0100     		.2byte	0x1
 11213 046c 50       		.byte	0x50
 11214 046d BB0C0000 		.4byte	.LVL138-1-.Ltext0
 11215 0471 CE0C0000 		.4byte	.LVL139-.Ltext0
 11216 0475 0400     		.2byte	0x4
 11217 0477 F3       		.byte	0xf3
 11218 0478 01       		.uleb128 0x1
 11219 0479 50       		.byte	0x50
 11220 047a 9F       		.byte	0x9f
 11221 047b CE0C0000 		.4byte	.LVL139-.Ltext0
 11222 047f 4E0D0000 		.4byte	.LVL140-.Ltext0
 11223 0483 0100     		.2byte	0x1
 11224 0485 50       		.byte	0x50
 11225 0486 4E0D0000 		.4byte	.LVL140-.Ltext0
 11226 048a 560D0000 		.4byte	.LVL142-.Ltext0
 11227 048e 0400     		.2byte	0x4
 11228 0490 F3       		.byte	0xf3
 11229 0491 01       		.uleb128 0x1
 11230 0492 50       		.byte	0x50
 11231 0493 9F       		.byte	0x9f
 11232 0494 560D0000 		.4byte	.LVL142-.Ltext0
 11233 0498 FE0D0000 		.4byte	.LVL143-.Ltext0
 11234 049c 0100     		.2byte	0x1
 11235 049e 50       		.byte	0x50
 11236 049f FE0D0000 		.4byte	.LVL143-.Ltext0
 11237 04a3 360E0000 		.4byte	.LVL146-.Ltext0
 11238 04a7 0400     		.2byte	0x4
 11239 04a9 F3       		.byte	0xf3
 11240 04aa 01       		.uleb128 0x1
ARM GAS  /tmp/ccLdaIGa.s 			page 199


 11241 04ab 50       		.byte	0x50
 11242 04ac 9F       		.byte	0x9f
 11243 04ad 360E0000 		.4byte	.LVL146-.Ltext0
 11244 04b1 650E0000 		.4byte	.LVL147-1-.Ltext0
 11245 04b5 0100     		.2byte	0x1
 11246 04b7 50       		.byte	0x50
 11247 04b8 650E0000 		.4byte	.LVL147-1-.Ltext0
 11248 04bc A20E0000 		.4byte	.LVL155-.Ltext0
 11249 04c0 0400     		.2byte	0x4
 11250 04c2 F3       		.byte	0xf3
 11251 04c3 01       		.uleb128 0x1
 11252 04c4 50       		.byte	0x50
 11253 04c5 9F       		.byte	0x9f
 11254 04c6 A20E0000 		.4byte	.LVL155-.Ltext0
 11255 04ca CA0E0000 		.4byte	.LVL156-.Ltext0
 11256 04ce 0100     		.2byte	0x1
 11257 04d0 50       		.byte	0x50
 11258 04d1 CA0E0000 		.4byte	.LVL156-.Ltext0
 11259 04d5 FE0E0000 		.4byte	.LVL158-.Ltext0
 11260 04d9 0400     		.2byte	0x4
 11261 04db F3       		.byte	0xf3
 11262 04dc 01       		.uleb128 0x1
 11263 04dd 50       		.byte	0x50
 11264 04de 9F       		.byte	0x9f
 11265 04df FE0E0000 		.4byte	.LVL158-.Ltext0
 11266 04e3 150F0000 		.4byte	.LVL159-1-.Ltext0
 11267 04e7 0100     		.2byte	0x1
 11268 04e9 50       		.byte	0x50
 11269 04ea 150F0000 		.4byte	.LVL159-1-.Ltext0
 11270 04ee 260F0000 		.4byte	.LVL160-.Ltext0
 11271 04f2 0400     		.2byte	0x4
 11272 04f4 F3       		.byte	0xf3
 11273 04f5 01       		.uleb128 0x1
 11274 04f6 50       		.byte	0x50
 11275 04f7 9F       		.byte	0x9f
 11276 04f8 260F0000 		.4byte	.LVL160-.Ltext0
 11277 04fc 500F0000 		.4byte	.LVL161-.Ltext0
 11278 0500 0100     		.2byte	0x1
 11279 0502 50       		.byte	0x50
 11280 0503 500F0000 		.4byte	.LVL161-.Ltext0
 11281 0507 5F0F0000 		.4byte	.LVL162-1-.Ltext0
 11282 050b 0600     		.2byte	0x6
 11283 050d 03       		.byte	0x3
 11284 050e 74020000 		.4byte	position.8720
 11285 0512 06       		.byte	0x6
 11286 0513 5F0F0000 		.4byte	.LVL162-1-.Ltext0
 11287 0517 6C0F0000 		.4byte	.LVL164-.Ltext0
 11288 051b 0400     		.2byte	0x4
 11289 051d F3       		.byte	0xf3
 11290 051e 01       		.uleb128 0x1
 11291 051f 50       		.byte	0x50
 11292 0520 9F       		.byte	0x9f
 11293 0521 6C0F0000 		.4byte	.LVL164-.Ltext0
 11294 0525 BD0F0000 		.4byte	.LVL165-1-.Ltext0
 11295 0529 0100     		.2byte	0x1
 11296 052b 50       		.byte	0x50
 11297 052c BD0F0000 		.4byte	.LVL165-1-.Ltext0
ARM GAS  /tmp/ccLdaIGa.s 			page 200


 11298 0530 C60F0000 		.4byte	.LVL166-.Ltext0
 11299 0534 0400     		.2byte	0x4
 11300 0536 F3       		.byte	0xf3
 11301 0537 01       		.uleb128 0x1
 11302 0538 50       		.byte	0x50
 11303 0539 9F       		.byte	0x9f
 11304 053a C60F0000 		.4byte	.LVL166-.Ltext0
 11305 053e D30F0000 		.4byte	.LVL167-1-.Ltext0
 11306 0542 0100     		.2byte	0x1
 11307 0544 50       		.byte	0x50
 11308 0545 D30F0000 		.4byte	.LVL167-1-.Ltext0
 11309 0549 DA0F0000 		.4byte	.LVL169-.Ltext0
 11310 054d 0400     		.2byte	0x4
 11311 054f F3       		.byte	0xf3
 11312 0550 01       		.uleb128 0x1
 11313 0551 50       		.byte	0x50
 11314 0552 9F       		.byte	0x9f
 11315 0553 DA0F0000 		.4byte	.LVL169-.Ltext0
 11316 0557 E70F0000 		.4byte	.LVL170-1-.Ltext0
 11317 055b 0100     		.2byte	0x1
 11318 055d 50       		.byte	0x50
 11319 055e E70F0000 		.4byte	.LVL170-1-.Ltext0
 11320 0562 FE0F0000 		.4byte	.LVL178-.Ltext0
 11321 0566 0400     		.2byte	0x4
 11322 0568 F3       		.byte	0xf3
 11323 0569 01       		.uleb128 0x1
 11324 056a 50       		.byte	0x50
 11325 056b 9F       		.byte	0x9f
 11326 056c FE0F0000 		.4byte	.LVL178-.Ltext0
 11327 0570 0B100000 		.4byte	.LVL179-1-.Ltext0
 11328 0574 0100     		.2byte	0x1
 11329 0576 50       		.byte	0x50
 11330 0577 0B100000 		.4byte	.LVL179-1-.Ltext0
 11331 057b 12100000 		.4byte	.LVL181-.Ltext0
 11332 057f 0400     		.2byte	0x4
 11333 0581 F3       		.byte	0xf3
 11334 0582 01       		.uleb128 0x1
 11335 0583 50       		.byte	0x50
 11336 0584 9F       		.byte	0x9f
 11337 0585 12100000 		.4byte	.LVL181-.Ltext0
 11338 0589 1D100000 		.4byte	.LVL182-1-.Ltext0
 11339 058d 0100     		.2byte	0x1
 11340 058f 50       		.byte	0x50
 11341 0590 1D100000 		.4byte	.LVL182-1-.Ltext0
 11342 0594 26100000 		.4byte	.LVL183-.Ltext0
 11343 0598 0400     		.2byte	0x4
 11344 059a F3       		.byte	0xf3
 11345 059b 01       		.uleb128 0x1
 11346 059c 50       		.byte	0x50
 11347 059d 9F       		.byte	0x9f
 11348 059e 26100000 		.4byte	.LVL183-.Ltext0
 11349 05a2 39100000 		.4byte	.LVL184-1-.Ltext0
 11350 05a6 0100     		.2byte	0x1
 11351 05a8 50       		.byte	0x50
 11352 05a9 39100000 		.4byte	.LVL184-1-.Ltext0
 11353 05ad 68100000 		.4byte	.LFE143-.Ltext0
 11354 05b1 0400     		.2byte	0x4
ARM GAS  /tmp/ccLdaIGa.s 			page 201


 11355 05b3 F3       		.byte	0xf3
 11356 05b4 01       		.uleb128 0x1
 11357 05b5 50       		.byte	0x50
 11358 05b6 9F       		.byte	0x9f
 11359 05b7 00000000 		.4byte	0
 11360 05bb 00000000 		.4byte	0
 11361              	.LLST24:
 11362 05bf 700E0000 		.4byte	.LVL148-.Ltext0
 11363 05c3 760E0000 		.4byte	.LVL149-.Ltext0
 11364 05c7 0100     		.2byte	0x1
 11365 05c9 50       		.byte	0x50
 11366 05ca 860E0000 		.4byte	.LVL150-.Ltext0
 11367 05ce 8C0E0000 		.4byte	.LVL151-.Ltext0
 11368 05d2 0100     		.2byte	0x1
 11369 05d4 50       		.byte	0x50
 11370 05d5 920E0000 		.4byte	.LVL152-.Ltext0
 11371 05d9 960E0000 		.4byte	.LVL153-.Ltext0
 11372 05dd 0100     		.2byte	0x1
 11373 05df 50       		.byte	0x50
 11374 05e0 EE0F0000 		.4byte	.LVL172-.Ltext0
 11375 05e4 F00F0000 		.4byte	.LVL173-.Ltext0
 11376 05e8 0100     		.2byte	0x1
 11377 05ea 50       		.byte	0x50
 11378 05eb F60F0000 		.4byte	.LVL175-.Ltext0
 11379 05ef F80F0000 		.4byte	.LVL176-.Ltext0
 11380 05f3 0100     		.2byte	0x1
 11381 05f5 50       		.byte	0x50
 11382 05f6 00000000 		.4byte	0
 11383 05fa 00000000 		.4byte	0
 11384              	.LLST25:
 11385 05fe 600F0000 		.4byte	.LVL162-.Ltext0
 11386 0602 690F0000 		.4byte	.LVL163-1-.Ltext0
 11387 0606 0100     		.2byte	0x1
 11388 0608 50       		.byte	0x50
 11389 0609 00000000 		.4byte	0
 11390 060d 00000000 		.4byte	0
 11391              		.section	.debug_aranges,"",%progbits
 11392 0000 1C000000 		.4byte	0x1c
 11393 0004 0200     		.2byte	0x2
 11394 0006 00000000 		.4byte	.Ldebug_info0
 11395 000a 04       		.byte	0x4
 11396 000b 00       		.byte	0
 11397 000c 0000     		.2byte	0
 11398 000e 0000     		.2byte	0
 11399 0010 00000000 		.4byte	.Ltext0
 11400 0014 AC100000 		.4byte	.Letext0-.Ltext0
 11401 0018 00000000 		.4byte	0
 11402 001c 00000000 		.4byte	0
 11403              		.section	.debug_ranges,"",%progbits
 11404              	.Ldebug_ranges0:
 11405 0000 76000000 		.4byte	.LBB7-.Ltext0
 11406 0004 7A000000 		.4byte	.LBE7-.Ltext0
 11407 0008 7C000000 		.4byte	.LBB8-.Ltext0
 11408 000c 82000000 		.4byte	.LBE8-.Ltext0
 11409 0010 3E010000 		.4byte	.LBB10-.Ltext0
 11410 0014 A4010000 		.4byte	.LBE10-.Ltext0
 11411 0018 00000000 		.4byte	0
ARM GAS  /tmp/ccLdaIGa.s 			page 202


 11412 001c 00000000 		.4byte	0
 11413 0020 70030000 		.4byte	.LBB13-.Ltext0
 11414 0024 74030000 		.4byte	.LBE13-.Ltext0
 11415 0028 90030000 		.4byte	.LBB14-.Ltext0
 11416 002c BE030000 		.4byte	.LBE14-.Ltext0
 11417 0030 00000000 		.4byte	0
 11418 0034 00000000 		.4byte	0
 11419 0038 2A050000 		.4byte	.LBB16-.Ltext0
 11420 003c 58050000 		.4byte	.LBE16-.Ltext0
 11421 0040 A8050000 		.4byte	.LBB21-.Ltext0
 11422 0044 B8050000 		.4byte	.LBE21-.Ltext0
 11423 0048 00000000 		.4byte	0
 11424 004c 00000000 		.4byte	0
 11425 0050 62050000 		.4byte	.LBB18-.Ltext0
 11426 0054 6A050000 		.4byte	.LBE18-.Ltext0
 11427 0058 3C060000 		.4byte	.LBB25-.Ltext0
 11428 005c 4A060000 		.4byte	.LBE25-.Ltext0
 11429 0060 00000000 		.4byte	0
 11430 0064 00000000 		.4byte	0
 11431 0068 A0050000 		.4byte	.LBB20-.Ltext0
 11432 006c A8050000 		.4byte	.LBE20-.Ltext0
 11433 0070 B8050000 		.4byte	.LBB22-.Ltext0
 11434 0074 E2050000 		.4byte	.LBE22-.Ltext0
 11435 0078 4A060000 		.4byte	.LBB26-.Ltext0
 11436 007c 74060000 		.4byte	.LBE26-.Ltext0
 11437 0080 00000000 		.4byte	0
 11438 0084 00000000 		.4byte	0
 11439 0088 54070000 		.4byte	.LBB33-.Ltext0
 11440 008c 56070000 		.4byte	.LBE33-.Ltext0
 11441 0090 58070000 		.4byte	.LBB36-.Ltext0
 11442 0094 5A070000 		.4byte	.LBE36-.Ltext0
 11443 0098 00000000 		.4byte	0
 11444 009c 00000000 		.4byte	0
 11445 00a0 B8080000 		.4byte	.LBB37-.Ltext0
 11446 00a4 C4080000 		.4byte	.LBE37-.Ltext0
 11447 00a8 C40B0000 		.4byte	.LBB41-.Ltext0
 11448 00ac E60B0000 		.4byte	.LBE41-.Ltext0
 11449 00b0 3E0D0000 		.4byte	.LBB43-.Ltext0
 11450 00b4 620D0000 		.4byte	.LBE43-.Ltext0
 11451 00b8 00000000 		.4byte	0
 11452 00bc 00000000 		.4byte	0
 11453 00c0 70090000 		.4byte	.LBB38-.Ltext0
 11454 00c4 A4090000 		.4byte	.LBE38-.Ltext0
 11455 00c8 880A0000 		.4byte	.LBB40-.Ltext0
 11456 00cc 9C0A0000 		.4byte	.LBE40-.Ltext0
 11457 00d0 E80D0000 		.4byte	.LBB44-.Ltext0
 11458 00d4 360E0000 		.4byte	.LBE44-.Ltext0
 11459 00d8 00000000 		.4byte	0
 11460 00dc 00000000 		.4byte	0
 11461 00e0 540A0000 		.4byte	.LBB39-.Ltext0
 11462 00e4 880A0000 		.4byte	.LBE39-.Ltext0
 11463 00e8 BC0C0000 		.4byte	.LBB42-.Ltext0
 11464 00ec CE0C0000 		.4byte	.LBE42-.Ltext0
 11465 00f0 C40E0000 		.4byte	.LBB47-.Ltext0
 11466 00f4 000F0000 		.4byte	.LBE47-.Ltext0
 11467 00f8 00000000 		.4byte	0
 11468 00fc 00000000 		.4byte	0
ARM GAS  /tmp/ccLdaIGa.s 			page 203


 11469 0100 5A0E0000 		.4byte	.LBB45-.Ltext0
 11470 0104 9A0E0000 		.4byte	.LBE45-.Ltext0
 11471 0108 EE0F0000 		.4byte	.LBB49-.Ltext0
 11472 010c FE0F0000 		.4byte	.LBE49-.Ltext0
 11473 0110 00000000 		.4byte	0
 11474 0114 00000000 		.4byte	0
 11475 0118 9A0E0000 		.4byte	.LBB46-.Ltext0
 11476 011c A20E0000 		.4byte	.LBE46-.Ltext0
 11477 0120 4A0F0000 		.4byte	.LBB48-.Ltext0
 11478 0124 6C0F0000 		.4byte	.LBE48-.Ltext0
 11479 0128 00000000 		.4byte	0
 11480 012c 00000000 		.4byte	0
 11481              		.section	.debug_line,"",%progbits
 11482              	.Ldebug_line0:
 11483 0000 460B0000 		.section	.debug_str,"MS",%progbits,1
 11483      02006606 
 11483      00000201 
 11483      FB0E0D00 
 11483      01010101 
 11484              	.LASF123:
 11485 0000 5553425F 		.ascii	"USB_STOP\000"
 11485      53544F50 
 11485      00
 11486              	.LASF413:
 11487 0009 6576656E 		.ascii	"event\000"
 11487      7400
 11488              	.LASF54:
 11489 000f 696E7463 		.ascii	"intctx\000"
 11489      747800
 11490              	.LASF28:
 11491 0016 6D73675F 		.ascii	"msg_t\000"
 11491      7400
 11492              	.LASF365:
 11493 001c 46525F54 		.ascii	"FR_TOO_MANY_OPEN_FILES\000"
 11493      4F4F5F4D 
 11493      414E595F 
 11493      4F50454E 
 11493      5F46494C 
 11494              	.LASF398:
 11495 0033 53544152 		.ascii	"START_FLASH\000"
 11495      545F464C 
 11495      41534800 
 11496              	.LASF319:
 11497 003f 66726565 		.ascii	"free_clust\000"
 11497      5F636C75 
 11497      737400
 11498              	.LASF399:
 11499 004a 42595F46 		.ascii	"BY_FILENAME\000"
 11499      494C454E 
 11499      414D4500 
 11500              	.LASF275:
 11501 0056 7369676E 		.ascii	"signals\000"
 11501      616C7300 
 11502              	.LASF443:
 11503 005e 5265706C 		.ascii	"ReplyFWVersion\000"
 11503      79465756 
 11503      65727369 
ARM GAS  /tmp/ccLdaIGa.s 			page 204


 11503      6F6E00
 11504              	.LASF182:
 11505 006d 44494550 		.ascii	"DIEPTXF0\000"
 11505      54584630 
 11505      00
 11506              	.LASF480:
 11507 0076 73747263 		.ascii	"strcpy\000"
 11507      707900
 11508              	.LASF331:
 11509 007d 66707472 		.ascii	"fptr\000"
 11509      00
 11510              	.LASF474:
 11511 0082 636F6E6E 		.ascii	"connected\000"
 11511      65637465 
 11511      6400
 11512              	.LASF4:
 11513 008c 5F5F7569 		.ascii	"__uint8_t\000"
 11513      6E74385F 
 11513      7400
 11514              	.LASF23:
 11515 0096 5F426F6F 		.ascii	"_Bool\000"
 11515      6C00
 11516              	.LASF367:
 11517 009c 46524553 		.ascii	"FRESULT\000"
 11517      554C5400 
 11518              	.LASF361:
 11519 00a4 46525F4D 		.ascii	"FR_MKFS_ABORTED\000"
 11519      4B46535F 
 11519      41424F52 
 11519      54454400 
 11520              	.LASF375:
 11521 00b4 6D696469 		.ascii	"midi_device_t\000"
 11521      5F646576 
 11521      6963655F 
 11521      7400
 11522              	.LASF201:
 11523 00c2 72657376 		.ascii	"resvd700\000"
 11523      64373030 
 11523      00
 11524              	.LASF212:
 11525 00cb 44564255 		.ascii	"DVBUSDIS\000"
 11525      53444953 
 11525      00
 11526              	.LASF477:
 11527 00d4 7046696C 		.ascii	"pFileSize\000"
 11527      6553697A 
 11527      6500
 11528              	.LASF267:
 11529 00de 70617463 		.ascii	"patchID\000"
 11529      68494400 
 11530              	.LASF335:
 11531 00e6 6469725F 		.ascii	"dir_sect\000"
 11531      73656374 
 11531      00
 11532              	.LASF70:
 11533 00ef 6D5F6E65 		.ascii	"m_next\000"
 11533      787400
ARM GAS  /tmp/ccLdaIGa.s 			page 205


 11534              	.LASF343:
 11535 00f6 666E616D 		.ascii	"fname\000"
 11535      6500
 11536              	.LASF438:
 11537 00fc 636C7573 		.ascii	"clusters\000"
 11537      74657273 
 11537      00
 11538              	.LASF98:
 11539 0105 72656164 		.ascii	"read\000"
 11539      00
 11540              	.LASF186:
 11541 010a 47434346 		.ascii	"GCCFG\000"
 11541      4700
 11542              	.LASF525:
 11543 0110 73747063 		.ascii	"stpcpy\000"
 11543      707900
 11544              	.LASF18:
 11545 0117 75696E74 		.ascii	"uint16_t\000"
 11545      31365F74 
 11545      00
 11546              	.LASF260:
 11547 0120 736F665F 		.ascii	"sof_cb\000"
 11547      636200
 11548              	.LASF334:
 11549 0127 64736563 		.ascii	"dsect\000"
 11549      7400
 11550              	.LASF467:
 11551 012d 42445531 		.ascii	"BDU1\000"
 11551      00
 11552              	.LASF432:
 11553 0132 6C656E67 		.ascii	"length\000"
 11553      746800
 11554              	.LASF189:
 11555 0139 44494550 		.ascii	"DIEPTXF\000"
 11555      54584600 
 11556              	.LASF72:
 11557 0141 656C5F6E 		.ascii	"el_next\000"
 11557      65787400 
 11558              	.LASF105:
 11559 0149 696E5F70 		.ascii	"in_params\000"
 11559      6172616D 
 11559      7300
 11560              	.LASF281:
 11561 0153 62746E5F 		.ascii	"btn_nav_Enter\000"
 11561      6E61765F 
 11561      456E7465 
 11561      7200
 11562              	.LASF366:
 11563 0161 46525F49 		.ascii	"FR_INVALID_PARAMETER\000"
 11563      4E56414C 
 11563      49445F50 
 11563      4152414D 
 11563      45544552 
 11564              	.LASF499:
 11565 0176 665F6765 		.ascii	"f_getfree\000"
 11565      74667265 
 11565      6500
ARM GAS  /tmp/ccLdaIGa.s 			page 206


 11566              	.LASF38:
 11567 0180 705F6E65 		.ascii	"p_newer\000"
 11567      77657200 
 11568              	.LASF199:
 11569 0188 48505254 		.ascii	"HPRT\000"
 11569      00
 11570              	.LASF153:
 11571 018d 4843494E 		.ascii	"HCINT\000"
 11571      5400
 11572              	.LASF345:
 11573 0193 6C667369 		.ascii	"lfsize\000"
 11573      7A6500
 11574              	.LASF306:
 11575 019a 42595445 		.ascii	"BYTE\000"
 11575      00
 11576              	.LASF459:
 11577 019f 42746E5F 		.ascii	"Btn_Nav_Or\000"
 11577      4E61765F 
 11577      4F7200
 11578              	.LASF99:
 11579 01aa 42617365 		.ascii	"BaseSequentialStream\000"
 11579      53657175 
 11579      656E7469 
 11579      616C5374 
 11579      7265616D 
 11580              	.LASF280:
 11581 01bf 62746E5F 		.ascii	"btn_nav_Right\000"
 11581      6E61765F 
 11581      52696768 
 11581      7400
 11582              	.LASF195:
 11583 01cd 48505458 		.ascii	"HPTXSTS\000"
 11583      53545300 
 11584              	.LASF383:
 11585 01d5 66707472 		.ascii	"fptr_patch_init\000"
 11585      5F706174 
 11585      63685F69 
 11585      6E697400 
 11586              	.LASF518:
 11587 01e5 53746172 		.ascii	"StartPatch\000"
 11587      74506174 
 11587      636800
 11588              	.LASF387:
 11589 01f0 66707472 		.ascii	"fptr_applyPreset\000"
 11589      5F617070 
 11589      6C795072 
 11589      65736574 
 11589      00
 11590              	.LASF522:
 11591 0201 7363616E 		.ascii	"scan_files\000"
 11591      5F66696C 
 11591      657300
 11592              	.LASF207:
 11593 020c 444F4550 		.ascii	"DOEPMSK\000"
 11593      4D534B00 
 11594              	.LASF19:
 11595 0214 696E7433 		.ascii	"int32_t\000"
ARM GAS  /tmp/ccLdaIGa.s 			page 207


 11595      325F7400 
 11596              	.LASF31:
 11597 021c 73797374 		.ascii	"systime_t\000"
 11597      696D655F 
 11597      7400
 11598              	.LASF151:
 11599 0226 48434348 		.ascii	"HCCHAR\000"
 11599      415200
 11600              	.LASF158:
 11601 022d 72657376 		.ascii	"resvd1c\000"
 11601      64316300 
 11602              	.LASF74:
 11603 0235 656C5F6D 		.ascii	"el_mask\000"
 11603      61736B00 
 11604              	.LASF309:
 11605 023d 44574F52 		.ascii	"DWORD\000"
 11605      4400
 11606              	.LASF196:
 11607 0243 4841494E 		.ascii	"HAINT\000"
 11607      5400
 11608              	.LASF462:
 11609 0249 70617463 		.ascii	"patchMeta\000"
 11609      684D6574 
 11609      6100
 11610              	.LASF193:
 11611 0253 48464E55 		.ascii	"HFNUM\000"
 11611      4D00
 11612              	.LASF382:
 11613 0259 50726573 		.ascii	"PresetParamChange_t\000"
 11613      65745061 
 11613      72616D43 
 11613      68616E67 
 11613      655F7400 
 11614              	.LASF93:
 11615 026d 716E6F74 		.ascii	"qnotify_t\000"
 11615      6966795F 
 11615      7400
 11616              	.LASF64:
 11617 0277 53656D61 		.ascii	"Semaphore\000"
 11617      70686F72 
 11617      6500
 11618              	.LASF428:
 11619 0281 6D647573 		.ascii	"mdustate_t\000"
 11619      74617465 
 11619      5F7400
 11620              	.LASF396:
 11621 028c 70617463 		.ascii	"patchMeta_t\000"
 11621      684D6574 
 11621      615F7400 
 11622              	.LASF429:
 11623 0298 4D696469 		.ascii	"MidiUSBDriver\000"
 11623      55534244 
 11623      72697665 
 11623      7200
 11624              	.LASF88:
 11625 02a6 715F746F 		.ascii	"q_top\000"
 11625      7000
ARM GAS  /tmp/ccLdaIGa.s 			page 208


 11626              	.LASF144:
 11627 02ac 75645F73 		.ascii	"ud_string\000"
 11627      7472696E 
 11627      6700
 11628              	.LASF110:
 11629 02b6 65703065 		.ascii	"ep0endcb\000"
 11629      6E646362 
 11629      00
 11630              	.LASF205:
 11631 02bf 72657376 		.ascii	"resvd80C\000"
 11631      64383043 
 11631      00
 11632              	.LASF257:
 11633 02c8 6576656E 		.ascii	"event_cb\000"
 11633      745F6362 
 11633      00
 11634              	.LASF516:
 11635 02d1 53746F70 		.ascii	"StopPatch\000"
 11635      50617463 
 11635      6800
 11636              	.LASF471:
 11637 02db 66735F72 		.ascii	"fs_ready\000"
 11637      65616479 
 11637      00
 11638              	.LASF172:
 11639 02e4 474F5447 		.ascii	"GOTGCTL\000"
 11639      43544C00 
 11640              	.LASF418:
 11641 02ec 62756C6B 		.ascii	"bulk_out\000"
 11641      5F6F7574 
 11641      00
 11642              	.LASF147:
 11643 02f5 75736265 		.ascii	"usbepcallback_t\000"
 11643      7063616C 
 11643      6C626163 
 11643      6B5F7400 
 11644              	.LASF168:
 11645 0305 444F4550 		.ascii	"DOEPCTL\000"
 11645      43544C00 
 11646              	.LASF395:
 11647 030d 70507265 		.ascii	"pPresets\000"
 11647      73657473 
 11647      00
 11648              	.LASF470:
 11649 0316 62756C6B 		.ascii	"bulkusbcfg\000"
 11649      75736263 
 11649      666700
 11650              	.LASF493:
 11651 0321 75736253 		.ascii	"usbStart\000"
 11651      74617274 
 11651      00
 11652              	.LASF211:
 11653 032a 72657376 		.ascii	"resvd824\000"
 11653      64383234 
 11653      00
 11654              	.LASF44:
 11655 0333 705F7761 		.ascii	"p_waiting\000"
ARM GAS  /tmp/ccLdaIGa.s 			page 209


 11655      6974696E 
 11655      6700
 11656              	.LASF269:
 11657 033d 696E6465 		.ascii	"index\000"
 11657      7800
 11658              	.LASF325:
 11659 0343 64697262 		.ascii	"dirbase\000"
 11659      61736500 
 11660              	.LASF85:
 11661 034b 715F7761 		.ascii	"q_waiting\000"
 11661      6974696E 
 11661      6700
 11662              	.LASF457:
 11663 0355 726C6973 		.ascii	"rlist\000"
 11663      7400
 11664              	.LASF472:
 11665 035b 66627566 		.ascii	"fbuff\000"
 11665      6600
 11666              	.LASF489:
 11667 0361 6D647553 		.ascii	"mduStart\000"
 11667      74617274 
 11667      00
 11668              	.LASF270:
 11669 036a 5045784D 		.ascii	"PExMessage\000"
 11669      65737361 
 11669      676500
 11670              	.LASF242:
 11671 0375 72787175 		.ascii	"rxqueued\000"
 11671      65756564 
 11671      00
 11672              	.LASF210:
 11673 037e 72657376 		.ascii	"resvd820\000"
 11673      64383230 
 11673      00
 11674              	.LASF385:
 11675 0387 66707472 		.ascii	"fptr_dsp_process\000"
 11675      5F647370 
 11675      5F70726F 
 11675      63657373 
 11675      00
 11676              	.LASF495:
 11677 0398 63687670 		.ascii	"chvprintf\000"
 11677      72696E74 
 11677      6600
 11678              	.LASF336:
 11679 03a2 6469725F 		.ascii	"dir_ptr\000"
 11679      70747200 
 11680              	.LASF374:
 11681 03aa 4D494449 		.ascii	"MIDI_DEVICE_INTERNAL\000"
 11681      5F444556 
 11681      4943455F 
 11681      494E5445 
 11681      524E414C 
 11682              	.LASF27:
 11683 03bf 74707269 		.ascii	"tprio_t\000"
 11683      6F5F7400 
 11684              	.LASF333:
ARM GAS  /tmp/ccLdaIGa.s 			page 210


 11685 03c7 636C7573 		.ascii	"clust\000"
 11685      7400
 11686              	.LASF214:
 11687 03cd 72657376 		.ascii	"resvd830\000"
 11687      64383330 
 11687      00
 11688              	.LASF216:
 11689 03d6 72657376 		.ascii	"resvd838\000"
 11689      64383338 
 11689      00
 11690              	.LASF217:
 11691 03df 72657376 		.ascii	"resvd83C\000"
 11691      64383343 
 11691      00
 11692              	.LASF213:
 11693 03e8 44564255 		.ascii	"DVBUSPULSE\000"
 11693      5350554C 
 11693      534500
 11694              	.LASF111:
 11695 03f3 73657475 		.ascii	"setup\000"
 11695      7000
 11696              	.LASF165:
 11697 03f9 44545846 		.ascii	"DTXFSTS\000"
 11697      53545300 
 11698              	.LASF174:
 11699 0401 47414842 		.ascii	"GAHBCFG\000"
 11699      43464700 
 11700              	.LASF481:
 11701 0409 7374726C 		.ascii	"strlen\000"
 11701      656E00
 11702              	.LASF461:
 11703 0410 456E6342 		.ascii	"EncBuffer\000"
 11703      75666665 
 11703      7200
 11704              	.LASF303:
 11705 041a 42746E5F 		.ascii	"Btn_Nav_States_struct\000"
 11705      4E61765F 
 11705      53746174 
 11705      65735F73 
 11705      74727563 
 11706              	.LASF218:
 11707 0430 72657376 		.ascii	"resvd840\000"
 11707      64383430 
 11707      00
 11708              	.LASF83:
 11709 0439 7466756E 		.ascii	"tfunc_t\000"
 11709      635F7400 
 11710              	.LASF7:
 11711 0441 5F5F7569 		.ascii	"__uint16_t\000"
 11711      6E743136 
 11711      5F7400
 11712              	.LASF234:
 11713 044c 74787175 		.ascii	"txqueued\000"
 11713      65756564 
 11713      00
 11714              	.LASF46:
 11715 0455 705F6D73 		.ascii	"p_msg\000"
ARM GAS  /tmp/ccLdaIGa.s 			page 211


 11715      6700
 11716              	.LASF511:
 11717 045b 666C6173 		.ascii	"flash_Erase_sector\000"
 11717      685F4572 
 11717      6173655F 
 11717      73656374 
 11717      6F7200
 11718              	.LASF180:
 11719 046e 47525853 		.ascii	"GRXSTSP\000"
 11719      54535000 
 11720              	.LASF179:
 11721 0476 47525853 		.ascii	"GRXSTSR\000"
 11721      54535200 
 11722              	.LASF307:
 11723 047e 574F5244 		.ascii	"WORD\000"
 11723      00
 11724              	.LASF150:
 11725 0483 75736267 		.ascii	"usbgetdescriptor_t\000"
 11725      65746465 
 11725      73637269 
 11725      70746F72 
 11725      5F7400
 11726              	.LASF392:
 11727 0496 70496E69 		.ascii	"pInitpreset\000"
 11727      74707265 
 11727      73657400 
 11728              	.LASF126:
 11729 04a2 5553425F 		.ascii	"USB_ACTIVE\000"
 11729      41435449 
 11729      564500
 11730              	.LASF167:
 11731 04ad 73746D33 		.ascii	"stm32_otg_in_ep_t\000"
 11731      325F6F74 
 11731      675F696E 
 11731      5F65705F 
 11731      7400
 11732              	.LASF237:
 11733 04bf 6D6F6465 		.ascii	"mode\000"
 11733      00
 11734              	.LASF425:
 11735 04c4 4D44555F 		.ascii	"MDU_UNINIT\000"
 11735      554E494E 
 11735      495400
 11736              	.LASF360:
 11737 04cf 46525F4E 		.ascii	"FR_NO_FILESYSTEM\000"
 11737      4F5F4649 
 11737      4C455359 
 11737      5354454D 
 11737      00
 11738              	.LASF262:
 11739 04e0 5F5F676E 		.ascii	"__gnuc_va_list\000"
 11739      75635F76 
 11739      615F6C69 
 11739      737400
 11740              	.LASF283:
 11741 04ef 62746E5F 		.ascii	"btn_nav_Back\000"
 11741      6E61765F 
ARM GAS  /tmp/ccLdaIGa.s 			page 212


 11741      4261636B 
 11741      00
 11742              	.LASF391:
 11743 04fc 696E6974 		.ascii	"initpreset_size\000"
 11743      70726573 
 11743      65745F73 
 11743      697A6500 
 11744              	.LASF362:
 11745 050c 46525F54 		.ascii	"FR_TIMEOUT\000"
 11745      494D454F 
 11745      555400
 11746              	.LASF468:
 11747 0517 75736263 		.ascii	"usbcfg\000"
 11747      666700
 11748              	.LASF53:
 11749 051e 73746B61 		.ascii	"stkalign_t\000"
 11749      6C69676E 
 11749      5F7400
 11750              	.LASF226:
 11751 0529 72785F66 		.ascii	"rx_fifo_size\000"
 11751      69666F5F 
 11751      73697A65 
 11751      00
 11752              	.LASF370:
 11753 0536 4D494449 		.ascii	"MIDI_DEVICE_USB_DEVICE\000"
 11753      5F444556 
 11753      4943455F 
 11753      5553425F 
 11753      44455649 
 11754              	.LASF490:
 11755 054d 6264754F 		.ascii	"bduObjectInit\000"
 11755      626A6563 
 11755      74496E69 
 11755      7400
 11756              	.LASF494:
 11757 055b 63685468 		.ascii	"chThdCreateStatic\000"
 11757      64437265 
 11757      61746553 
 11757      74617469 
 11757      6300
 11758              	.LASF247:
 11759 056d 73657475 		.ascii	"setup_cb\000"
 11759      705F6362 
 11759      00
 11760              	.LASF5:
 11761 0576 756E7369 		.ascii	"unsigned char\000"
 11761      676E6564 
 11761      20636861 
 11761      7200
 11762              	.LASF224:
 11763 0584 4649464F 		.ascii	"FIFO\000"
 11763      00
 11764              	.LASF231:
 11765 0589 74787175 		.ascii	"txqueue\000"
 11765      65756500 
 11766              	.LASF348:
 11767 0591 46525F44 		.ascii	"FR_DISK_ERR\000"
ARM GAS  /tmp/ccLdaIGa.s 			page 213


 11767      49534B5F 
 11767      45525200 
 11768              	.LASF66:
 11769 059d 735F636E 		.ascii	"s_cnt\000"
 11769      7400
 11770              	.LASF484:
 11771 05a3 665F6F70 		.ascii	"f_opendir\000"
 11771      656E6469 
 11771      7200
 11772              	.LASF304:
 11773 05ad 666C6F61 		.ascii	"float\000"
 11773      7400
 11774              	.LASF436:
 11775 05b3 50457854 		.ascii	"PExTransmit\000"
 11775      72616E73 
 11775      6D697400 
 11776              	.LASF37:
 11777 05bf 705F6374 		.ascii	"p_ctx\000"
 11777      7800
 11778              	.LASF420:
 11779 05c5 42756C6B 		.ascii	"BulkUSBDriverVMT\000"
 11779      55534244 
 11779      72697665 
 11779      72564D54 
 11779      00
 11780              	.LASF62:
 11781 05d6 725F6375 		.ascii	"r_current\000"
 11781      7272656E 
 11781      7400
 11782              	.LASF376:
 11783 05e0 66707472 		.ascii	"fptr_patch_init_t\000"
 11783      5F706174 
 11783      63685F69 
 11783      6E69745F 
 11783      7400
 11784              	.LASF369:
 11785 05f2 4D494449 		.ascii	"MIDI_DEVICE_DIN\000"
 11785      5F444556 
 11785      4943455F 
 11785      44494E00 
 11786              	.LASF483:
 11787 0602 5F5F6275 		.ascii	"__builtin_stpcpy\000"
 11787      696C7469 
 11787      6E5F7374 
 11787      70637079 
 11787      00
 11788              	.LASF353:
 11789 0613 46525F49 		.ascii	"FR_INVALID_NAME\000"
 11789      4E56414C 
 11789      49445F4E 
 11789      414D4500 
 11790              	.LASF21:
 11791 0623 75696E74 		.ascii	"uint64_t\000"
 11791      36345F74 
 11791      00
 11792              	.LASF439:
 11793 062c 4D616E69 		.ascii	"ManipulateFile\000"
ARM GAS  /tmp/ccLdaIGa.s 			page 214


 11793      70756C61 
 11793      74654669 
 11793      6C6500
 11794              	.LASF33:
 11795 063b 54687265 		.ascii	"Thread\000"
 11795      616400
 11796              	.LASF244:
 11797 0642 7278636E 		.ascii	"rxcnt\000"
 11797      7400
 11798              	.LASF63:
 11799 0648 52656164 		.ascii	"ReadyList\000"
 11799      794C6973 
 11799      7400
 11800              	.LASF236:
 11801 0652 7478636E 		.ascii	"txcnt\000"
 11801      7400
 11802              	.LASF148:
 11803 0658 75736265 		.ascii	"usbeventcb_t\000"
 11803      76656E74 
 11803      63625F74 
 11803      00
 11804              	.LASF320:
 11805 0665 6673695F 		.ascii	"fsi_sector\000"
 11805      73656374 
 11805      6F7200
 11806              	.LASF404:
 11807 0670 53544F50 		.ascii	"STOPPED\000"
 11807      50454400 
 11808              	.LASF227:
 11809 0678 6F74675F 		.ascii	"otg_ram_size\000"
 11809      72616D5F 
 11809      73697A65 
 11809      00
 11810              	.LASF322:
 11811 0685 6E5F6661 		.ascii	"n_fatent\000"
 11811      74656E74 
 11811      00
 11812              	.LASF229:
 11813 068e 73746D33 		.ascii	"stm32_otg_params_t\000"
 11813      325F6F74 
 11813      675F7061 
 11813      72616D73 
 11813      5F7400
 11814              	.LASF221:
 11815 06a1 72657376 		.ascii	"resvdD00\000"
 11815      64443030 
 11815      00
 11816              	.LASF240:
 11817 06aa 72786275 		.ascii	"rxbuf\000"
 11817      6600
 11818              	.LASF177:
 11819 06b0 47494E54 		.ascii	"GINTSTS\000"
 11819      53545300 
 11820              	.LASF330:
 11821 06b8 70616431 		.ascii	"pad1\000"
 11821      00
 11822              	.LASF356:
ARM GAS  /tmp/ccLdaIGa.s 			page 215


 11823 06bd 46525F49 		.ascii	"FR_INVALID_OBJECT\000"
 11823      4E56414C 
 11823      49445F4F 
 11823      424A4543 
 11823      5400
 11824              	.LASF67:
 11825 06cf 4D757465 		.ascii	"Mutex\000"
 11825      7800
 11826              	.LASF268:
 11827 06d5 76616C75 		.ascii	"value\000"
 11827      6500
 11828              	.LASF206:
 11829 06db 44494550 		.ascii	"DIEPMSK\000"
 11829      4D534B00 
 11830              	.LASF173:
 11831 06e3 474F5447 		.ascii	"GOTGINT\000"
 11831      494E5400 
 11832              	.LASF249:
 11833 06eb 6F75745F 		.ascii	"out_cb\000"
 11833      636200
 11834              	.LASF197:
 11835 06f2 4841494E 		.ascii	"HAINTMSK\000"
 11835      544D534B 
 11835      00
 11836              	.LASF106:
 11837 06fb 6F75745F 		.ascii	"out_params\000"
 11837      70617261 
 11837      6D7300
 11838              	.LASF265:
 11839 0706 76615F6C 		.ascii	"va_list\000"
 11839      69737400 
 11840              	.LASF504:
 11841 070e 665F6D6B 		.ascii	"f_mkdir\000"
 11841      64697200 
 11842              	.LASF59:
 11843 0716 725F6374 		.ascii	"r_ctx\000"
 11843      7800
 11844              	.LASF381:
 11845 071c 70657849 		.ascii	"pexIndex\000"
 11845      6E646578 
 11845      00
 11846              	.LASF45:
 11847 0725 705F6D73 		.ascii	"p_msgqueue\000"
 11847      67717565 
 11847      756500
 11848              	.LASF321:
 11849 0730 63646972 		.ascii	"cdir\000"
 11849      00
 11850              	.LASF450:
 11851 0735 6D696469 		.ascii	"midi_r\000"
 11851      5F7200
 11852              	.LASF117:
 11853 073c 74787065 		.ascii	"txpending\000"
 11853      6E64696E 
 11853      6700
 11854              	.LASF437:
 11855 0746 52656164 		.ascii	"ReadDirectoryListing\000"
ARM GAS  /tmp/ccLdaIGa.s 			page 216


 11855      44697265 
 11855      63746F72 
 11855      794C6973 
 11855      74696E67 
 11856              	.LASF340:
 11857 075b 66646174 		.ascii	"fdate\000"
 11857      6500
 11858              	.LASF444:
 11859 0761 7265706C 		.ascii	"reply\000"
 11859      7900
 11860              	.LASF1:
 11861 0767 73697A65 		.ascii	"size_t\000"
 11861      5F7400
 11862              	.LASF219:
 11863 076e 72657376 		.ascii	"resvd880\000"
 11863      64383830 
 11863      00
 11864              	.LASF378:
 11865 0777 66707472 		.ascii	"fptr_patch_dsp_process_t\000"
 11865      5F706174 
 11865      63685F64 
 11865      73705F70 
 11865      726F6365 
 11866              	.LASF50:
 11867 0790 54687265 		.ascii	"ThreadsQueue\000"
 11867      61647351 
 11867      75657565 
 11867      00
 11868              	.LASF17:
 11869 079d 75696E74 		.ascii	"uint8_t\000"
 11869      385F7400 
 11870              	.LASF479:
 11871 07a5 4D696469 		.ascii	"MidiInMsgHandler\000"
 11871      496E4D73 
 11871      6748616E 
 11871      646C6572 
 11871      00
 11872              	.LASF156:
 11873 07b6 72657376 		.ascii	"resvd14\000"
 11873      64313400 
 11874              	.LASF157:
 11875 07be 72657376 		.ascii	"resvd18\000"
 11875      64313800 
 11876              	.LASF372:
 11877 07c6 4D494449 		.ascii	"MIDI_DEVICE_DIGITAL_X1\000"
 11877      5F444556 
 11877      4943455F 
 11877      44494749 
 11877      54414C5F 
 11878              	.LASF373:
 11879 07dd 4D494449 		.ascii	"MIDI_DEVICE_DIGITAL_X2\000"
 11879      5F444556 
 11879      4943455F 
 11879      44494749 
 11879      54414C5F 
 11880              	.LASF441:
 11881 07f4 7372635F 		.ascii	"src_addr\000"
ARM GAS  /tmp/ccLdaIGa.s 			page 217


 11881      61646472 
 11881      00
 11882              	.LASF61:
 11883 07fd 725F6F6C 		.ascii	"r_older\000"
 11883      64657200 
 11884              	.LASF35:
 11885 0805 705F7072 		.ascii	"p_prev\000"
 11885      657600
 11886              	.LASF166:
 11887 080c 72657376 		.ascii	"resvd1C\000"
 11887      64314300 
 11888              	.LASF508:
 11889 0814 73646361 		.ascii	"sdcard_attemptMountIfUnmounted\000"
 11889      72645F61 
 11889      7474656D 
 11889      70744D6F 
 11889      756E7449 
 11890              	.LASF215:
 11891 0833 44494550 		.ascii	"DIEPEMPMSK\000"
 11891      454D504D 
 11891      534B00
 11892              	.LASF393:
 11893 083e 6E707265 		.ascii	"npresets\000"
 11893      73657473 
 11893      00
 11894              	.LASF284:
 11895 0847 756E7573 		.ascii	"unused\000"
 11895      656400
 11896              	.LASF160:
 11897 084e 44494550 		.ascii	"DIEPCTL\000"
 11897      43544C00 
 11898              	.LASF115:
 11899 0856 6F746770 		.ascii	"otgparams\000"
 11899      6172616D 
 11899      7300
 11900              	.LASF79:
 11901 0860 65786974 		.ascii	"exitcode\000"
 11901      636F6465 
 11901      00
 11902              	.LASF253:
 11903 0869 6F75745F 		.ascii	"out_state\000"
 11903      73746174 
 11903      6500
 11904              	.LASF466:
 11905 0873 4D445531 		.ascii	"MDU1\000"
 11905      00
 11906              	.LASF132:
 11907 0878 5553425F 		.ascii	"USB_EP0_RX\000"
 11907      4550305F 
 11907      525800
 11908              	.LASF452:
 11909 0883 62797465 		.ascii	"bytes_written\000"
 11909      735F7772 
 11909      69747465 
 11909      6E00
 11910              	.LASF512:
 11911 0891 666C6173 		.ascii	"flash_ProgramWord\000"
ARM GAS  /tmp/ccLdaIGa.s 			page 218


 11911      685F5072 
 11911      6F677261 
 11911      6D576F72 
 11911      6400
 11912              	.LASF76:
 11913 08a3 4576656E 		.ascii	"EventSource\000"
 11913      74536F75 
 11913      72636500 
 11914              	.LASF184:
 11915 08af 72657376 		.ascii	"resvd30\000"
 11915      64333000 
 11916              	.LASF185:
 11917 08b7 72657376 		.ascii	"resvd34\000"
 11917      64333400 
 11918              	.LASF134:
 11919 08bf 5553425F 		.ascii	"USB_EP0_ERROR\000"
 11919      4550305F 
 11919      4552524F 
 11919      5200
 11920              	.LASF400:
 11921 08cd 4C495645 		.ascii	"LIVE\000"
 11921      00
 11922              	.LASF223:
 11923 08d2 72657376 		.ascii	"resvdE04\000"
 11923      64453034 
 11923      00
 11924              	.LASF228:
 11925 08db 6E756D5F 		.ascii	"num_endpoints\000"
 11925      656E6470 
 11925      6F696E74 
 11925      7300
 11926              	.LASF486:
 11927 08e9 7265706F 		.ascii	"report_fatfs_error\000"
 11927      72745F66 
 11927      61746673 
 11927      5F657272 
 11927      6F7200
 11928              	.LASF460:
 11929 08fc 42746E5F 		.ascii	"Btn_Nav_And\000"
 11929      4E61765F 
 11929      416E6400 
 11930              	.LASF129:
 11931 0908 5553425F 		.ascii	"USB_EP0_TX\000"
 11931      4550305F 
 11931      545800
 11932              	.LASF107:
 11933 0913 65703073 		.ascii	"ep0state\000"
 11933      74617465 
 11933      00
 11934              	.LASF492:
 11935 091c 63685468 		.ascii	"chThdSleep\000"
 11935      64536C65 
 11935      657000
 11936              	.LASF251:
 11937 0927 6F75745F 		.ascii	"out_maxsize\000"
 11937      6D617873 
 11937      697A6500 
ARM GAS  /tmp/ccLdaIGa.s 			page 219


 11938              	.LASF417:
 11939 0933 62756C6B 		.ascii	"bulk_in\000"
 11939      5F696E00 
 11940              	.LASF78:
 11941 093b 7264796D 		.ascii	"rdymsg\000"
 11941      736700
 11942              	.LASF409:
 11943 0942 4244555F 		.ascii	"BDU_STOP\000"
 11943      53544F50 
 11943      00
 11944              	.LASF301:
 11945 094b 6669656C 		.ascii	"fields\000"
 11945      647300
 11946              	.LASF187:
 11947 0952 72657376 		.ascii	"resvd58\000"
 11947      64353800 
 11948              	.LASF239:
 11949 095a 55534249 		.ascii	"USBInEndpointState\000"
 11949      6E456E64 
 11949      706F696E 
 11949      74537461 
 11949      746500
 11950              	.LASF36:
 11951 096d 705F7072 		.ascii	"p_prio\000"
 11951      696F00
 11952              	.LASF328:
 11953 0974 46415446 		.ascii	"FATFS\000"
 11953      5300
 11954              	.LASF14:
 11955 097a 5F5F7569 		.ascii	"__uint64_t\000"
 11955      6E743634 
 11955      5F7400
 11956              	.LASF133:
 11957 0985 5553425F 		.ascii	"USB_EP0_SENDING_STS\000"
 11957      4550305F 
 11957      53454E44 
 11957      494E475F 
 11957      53545300 
 11958              	.LASF113:
 11959 0999 61646472 		.ascii	"address\000"
 11959      65737300 
 11960              	.LASF346:
 11961 09a1 46494C49 		.ascii	"FILINFO\000"
 11961      4E464F00 
 11962              	.LASF517:
 11963 09a9 65786365 		.ascii	"exception_initiate_dfu\000"
 11963      7074696F 
 11963      6E5F696E 
 11963      69746961 
 11963      74655F64 
 11964              	.LASF135:
 11965 09c0 75736265 		.ascii	"usbep0state_t\000"
 11965      70307374 
 11965      6174655F 
 11965      7400
 11966              	.LASF87:
 11967 09ce 715F6275 		.ascii	"q_buffer\000"
ARM GAS  /tmp/ccLdaIGa.s 			page 220


 11967      66666572 
 11967      00
 11968              	.LASF34:
 11969 09d7 705F6E65 		.ascii	"p_next\000"
 11969      787400
 11970              	.LASF161:
 11971 09de 72657376 		.ascii	"resvd4\000"
 11971      643400
 11972              	.LASF152:
 11973 09e5 72657376 		.ascii	"resvd8\000"
 11973      643800
 11974              	.LASF100:
 11975 09ec 55534244 		.ascii	"USBDriver\000"
 11975      72697665 
 11975      7200
 11976              	.LASF220:
 11977 09f6 72657376 		.ascii	"resvd8C0\000"
 11977      64384330 
 11977      00
 11978              	.LASF261:
 11979 09ff 55534243 		.ascii	"USBConfig\000"
 11979      6F6E6669 
 11979      6700
 11980              	.LASF163:
 11981 0a09 72657376 		.ascii	"resvdC\000"
 11981      644300
 11982              	.LASF324:
 11983 0a10 66617462 		.ascii	"fatbase\000"
 11983      61736500 
 11984              	.LASF323:
 11985 0a18 6673697A 		.ascii	"fsize\000"
 11985      6500
 11986              	.LASF273:
 11987 0a1e 66696E61 		.ascii	"finalvalue\000"
 11987      6C76616C 
 11987      756500
 11988              	.LASF415:
 11989 0a29 6F717565 		.ascii	"oqueue\000"
 11989      756500
 11990              	.LASF433:
 11991 0a30 496E6974 		.ascii	"InitPConnection\000"
 11991      50436F6E 
 11991      6E656374 
 11991      696F6E00 
 11992              	.LASF456:
 11993 0a40 5F666C61 		.ascii	"_flash_end\000"
 11993      73685F65 
 11993      6E6400
 11994              	.LASF254:
 11995 0a4b 696E5F6D 		.ascii	"in_multiplier\000"
 11995      756C7469 
 11995      706C6965 
 11995      7200
 11996              	.LASF24:
 11997 0a59 746D6F64 		.ascii	"tmode_t\000"
 11997      655F7400 
 11998              	.LASF308:
ARM GAS  /tmp/ccLdaIGa.s 			page 221


 11999 0a61 57434841 		.ascii	"WCHAR\000"
 11999      5200
 12000              	.LASF204:
 12001 0a67 44535453 		.ascii	"DSTS\000"
 12001      00
 12002              	.LASF259:
 12003 0a6c 72657175 		.ascii	"requests_hook_cb\000"
 12003      65737473 
 12003      5F686F6F 
 12003      6B5F6362 
 12003      00
 12004              	.LASF491:
 12005 0a7d 62647553 		.ascii	"bduStart\000"
 12005      74617274 
 12005      00
 12006              	.LASF235:
 12007 0a86 74787369 		.ascii	"txsize\000"
 12007      7A6500
 12008              	.LASF453:
 12009 0a8d 50457852 		.ascii	"PExReceive\000"
 12009      65636569 
 12009      766500
 12010              	.LASF513:
 12011 0a98 665F7772 		.ascii	"f_write\000"
 12011      69746500 
 12012              	.LASF279:
 12013 0aa0 62746E5F 		.ascii	"btn_nav_Left\000"
 12013      6E61765F 
 12013      4C656674 
 12013      00
 12014              	.LASF497:
 12015 0aad 7379736D 		.ascii	"sysmon_getVoltage10\000"
 12015      6F6E5F67 
 12015      6574566F 
 12015      6C746167 
 12015      65313000 
 12016              	.LASF124:
 12017 0ac1 5553425F 		.ascii	"USB_READY\000"
 12017      52454144 
 12017      5900
 12018              	.LASF424:
 12019 0acb 72656164 		.ascii	"readt\000"
 12019      7400
 12020              	.LASF176:
 12021 0ad1 47525354 		.ascii	"GRSTCTL\000"
 12021      43544C00 
 12022              	.LASF405:
 12023 0ad9 53544F50 		.ascii	"STOPPING\000"
 12023      50494E47 
 12023      00
 12024              	.LASF16:
 12025 0ae2 696E7438 		.ascii	"int8_t\000"
 12025      5F7400
 12026              	.LASF386:
 12027 0ae9 66707472 		.ascii	"fptr_MidiInHandler\000"
 12027      5F4D6964 
 12027      69496E48 
ARM GAS  /tmp/ccLdaIGa.s 			page 222


 12027      616E646C 
 12027      657200
 12028              	.LASF238:
 12029 0afc 746F7473 		.ascii	"totsize\000"
 12029      697A6500 
 12030              	.LASF60:
 12031 0b04 725F6E65 		.ascii	"r_newer\000"
 12031      77657200 
 12032              	.LASF276:
 12033 0b0c 50617261 		.ascii	"ParameterExchange_t\000"
 12033      6D657465 
 12033      72457863 
 12033      68616E67 
 12033      655F7400 
 12034              	.LASF141:
 12035 0b20 5553425F 		.ascii	"USB_EVENT_STALLED\000"
 12035      4556454E 
 12035      545F5354 
 12035      414C4C45 
 12035      4400
 12036              	.LASF329:
 12037 0b32 666C6167 		.ascii	"flag\000"
 12037      00
 12038              	.LASF312:
 12039 0b37 6373697A 		.ascii	"csize\000"
 12039      6500
 12040              	.LASF243:
 12041 0b3d 72787369 		.ascii	"rxsize\000"
 12041      7A6500
 12042              	.LASF500:
 12043 0b44 665F6F70 		.ascii	"f_open\000"
 12043      656E00
 12044              	.LASF155:
 12045 0b4b 48435453 		.ascii	"HCTSIZ\000"
 12045      495A00
 12046              	.LASF138:
 12047 0b52 5553425F 		.ascii	"USB_EVENT_CONFIGURED\000"
 12047      4556454E 
 12047      545F434F 
 12047      4E464947 
 12047      55524544 
 12048              	.LASF394:
 12049 0b67 6E707265 		.ascii	"npreset_entries\000"
 12049      7365745F 
 12049      656E7472 
 12049      69657300 
 12050              	.LASF478:
 12051 0b77 436C6F73 		.ascii	"CloseFile\000"
 12051      6546696C 
 12051      6500
 12052              	.LASF421:
 12053 0b81 70757474 		.ascii	"putt\000"
 12053      00
 12054              	.LASF26:
 12055 0b86 74736C69 		.ascii	"tslices_t\000"
 12055      6365735F 
 12055      7400
ARM GAS  /tmp/ccLdaIGa.s 			page 223


 12056              	.LASF282:
 12057 0b90 62746E5F 		.ascii	"btn_nav_Shift\000"
 12057      6E61765F 
 12057      53686966 
 12057      7400
 12058              	.LASF317:
 12059 0b9e 736F626A 		.ascii	"sobj\000"
 12059      00
 12060              	.LASF120:
 12061 0ba3 77615F70 		.ascii	"wa_pump\000"
 12061      756D7000 
 12062              	.LASF190:
 12063 0bab 72657376 		.ascii	"resvd140\000"
 12063      64313430 
 12063      00
 12064              	.LASF56:
 12065 0bb4 73697A65 		.ascii	"sizetype\000"
 12065      74797065 
 12065      00
 12066              	.LASF139:
 12067 0bbd 5553425F 		.ascii	"USB_EVENT_SUSPEND\000"
 12067      4556454E 
 12067      545F5355 
 12067      5350454E 
 12067      4400
 12068              	.LASF349:
 12069 0bcf 46525F49 		.ascii	"FR_INT_ERR\000"
 12069      4E545F45 
 12069      525200
 12070              	.LASF310:
 12071 0bda 54434841 		.ascii	"TCHAR\000"
 12071      5200
 12072              	.LASF71:
 12073 0be0 4576656E 		.ascii	"EventListener\000"
 12073      744C6973 
 12073      74656E65 
 12073      7200
 12074              	.LASF426:
 12075 0bee 4D44555F 		.ascii	"MDU_STOP\000"
 12075      53544F50 
 12075      00
 12076              	.LASF8:
 12077 0bf7 73686F72 		.ascii	"short unsigned int\000"
 12077      7420756E 
 12077      7369676E 
 12077      65642069 
 12077      6E7400
 12078              	.LASF3:
 12079 0c0a 7369676E 		.ascii	"signed char\000"
 12079      65642063 
 12079      68617200 
 12080              	.LASF43:
 12081 0c16 705F7072 		.ascii	"p_preempt\000"
 12081      65656D70 
 12081      7400
 12082              	.LASF112:
 12083 0c20 73746174 		.ascii	"status\000"
ARM GAS  /tmp/ccLdaIGa.s 			page 224


 12083      757300
 12084              	.LASF145:
 12085 0c27 55534244 		.ascii	"USBDescriptor\000"
 12085      65736372 
 12085      6970746F 
 12085      7200
 12086              	.LASF401:
 12087 0c35 554E494E 		.ascii	"UNINITIALIZED\000"
 12087      49544941 
 12087      4C495A45 
 12087      4400
 12088              	.LASF498:
 12089 0c43 7379736D 		.ascii	"sysmon_getVoltage50\000"
 12089      6F6E5F67 
 12089      6574566F 
 12089      6C746167 
 12089      65353000 
 12090              	.LASF69:
 12091 0c57 6D5F6F77 		.ascii	"m_owner\000"
 12091      6E657200 
 12092              	.LASF51:
 12093 0c5f 54687265 		.ascii	"ThreadsList\000"
 12093      6164734C 
 12093      69737400 
 12094              	.LASF357:
 12095 0c6b 46525F57 		.ascii	"FR_WRITE_PROTECTED\000"
 12095      52495445 
 12095      5F50524F 
 12095      54454354 
 12095      454400
 12096              	.LASF430:
 12097 0c7e 4D696469 		.ascii	"MidiUSBConfig\000"
 12097      55534243 
 12097      6F6E6669 
 12097      6700
 12098              	.LASF101:
 12099 0c8c 73746174 		.ascii	"state\000"
 12099      6500
 12100              	.LASF338:
 12101 0c92 73656374 		.ascii	"sect\000"
 12101      00
 12102              	.LASF131:
 12103 0c97 5553425F 		.ascii	"USB_EP0_WAITING_STS\000"
 12103      4550305F 
 12103      57414954 
 12103      494E475F 
 12103      53545300 
 12104              	.LASF449:
 12105 0cab 70617463 		.ascii	"patchid\000"
 12105      68696400 
 12106              	.LASF523:
 12107 0cb3 70617468 		.ascii	"path\000"
 12107      00
 12108              	.LASF94:
 12109 0cb8 496E7075 		.ascii	"InputQueue\000"
 12109      74517565 
 12109      756500
ARM GAS  /tmp/ccLdaIGa.s 			page 225


 12110              	.LASF274:
 12111 0cc3 7066756E 		.ascii	"pfunction\000"
 12111      6374696F 
 12111      6E00
 12112              	.LASF411:
 12113 0ccd 62647573 		.ascii	"bdustate_t\000"
 12113      74617465 
 12113      5F7400
 12114              	.LASF332:
 12115 0cd8 73636C75 		.ascii	"sclust\000"
 12115      737400
 12116              	.LASF515:
 12117 0cdf 4170706C 		.ascii	"ApplyPreset\000"
 12117      79507265 
 12117      73657400 
 12118              	.LASF164:
 12119 0ceb 44494550 		.ascii	"DIEPTSIZ\000"
 12119      5453495A 
 12119      00
 12120              	.LASF246:
 12121 0cf4 65705F6D 		.ascii	"ep_mode\000"
 12121      6F646500 
 12122              	.LASF171:
 12123 0cfc 73746D33 		.ascii	"stm32_otg_out_ep_t\000"
 12123      325F6F74 
 12123      675F6F75 
 12123      745F6570 
 12123      5F7400
 12124              	.LASF305:
 12125 0d0f 55494E54 		.ascii	"UINT\000"
 12125      00
 12126              	.LASF10:
 12127 0d14 6C6F6E67 		.ascii	"long int\000"
 12127      20696E74 
 12127      00
 12128              	.LASF342:
 12129 0d1d 66617474 		.ascii	"fattrib\000"
 12129      72696200 
 12130              	.LASF109:
 12131 0d25 6570306E 		.ascii	"ep0n\000"
 12131      00
 12132              	.LASF68:
 12133 0d2a 6D5F7175 		.ascii	"m_queue\000"
 12133      65756500 
 12134              	.LASF326:
 12135 0d32 64617461 		.ascii	"database\000"
 12135      62617365 
 12135      00
 12136              	.LASF435:
 12137 0d3b 666F726D 		.ascii	"format\000"
 12137      617400
 12138              	.LASF379:
 12139 0d42 66707472 		.ascii	"fptr_patch_midi_in_handler_t\000"
 12139      5F706174 
 12139      63685F6D 
 12139      6964695F 
 12139      696E5F68 
ARM GAS  /tmp/ccLdaIGa.s 			page 226


 12140              	.LASF469:
 12141 0d5f 6D696469 		.ascii	"midiusbcfg\000"
 12141      75736263 
 12141      666700
 12142              	.LASF318:
 12143 0d6a 6C617374 		.ascii	"last_clust\000"
 12143      5F636C75 
 12143      737400
 12144              	.LASF191:
 12145 0d75 48434647 		.ascii	"HCFG\000"
 12145      00
 12146              	.LASF442:
 12147 0d7a 666C6173 		.ascii	"flash_addr\000"
 12147      685F6164 
 12147      647200
 12148              	.LASF422:
 12149 0d85 67657474 		.ascii	"gett\000"
 12149      00
 12150              	.LASF446:
 12151 0d8a 50457852 		.ascii	"PExReceiveByte\000"
 12151      65636569 
 12151      76654279 
 12151      746500
 12152              	.LASF90:
 12153 0d99 715F7264 		.ascii	"q_rdptr\000"
 12153      70747200 
 12154              	.LASF55:
 12155 0da1 636F6E74 		.ascii	"context\000"
 12155      65787400 
 12156              	.LASF97:
 12157 0da9 77726974 		.ascii	"write\000"
 12157      6500
 12158              	.LASF414:
 12159 0daf 69717565 		.ascii	"iqueue\000"
 12159      756500
 12160              	.LASF248:
 12161 0db6 696E5F63 		.ascii	"in_cb\000"
 12161      6200
 12162              	.LASF169:
 12163 0dbc 444F4550 		.ascii	"DOEPINT\000"
 12163      494E5400 
 12164              	.LASF20:
 12165 0dc4 75696E74 		.ascii	"uint32_t\000"
 12165      33325F74 
 12165      00
 12166              	.LASF149:
 12167 0dcd 75736272 		.ascii	"usbreqhandler_t\000"
 12167      65716861 
 12167      6E646C65 
 12167      725F7400 
 12168              	.LASF475:
 12169 0ddd 46696C65 		.ascii	"FileName\000"
 12169      4E616D65 
 12169      00
 12170              	.LASF52:
 12171 0de6 72656761 		.ascii	"regarm_t\000"
 12171      726D5F74 
ARM GAS  /tmp/ccLdaIGa.s 			page 227


 12171      00
 12172              	.LASF476:
 12173 0def 7046696C 		.ascii	"pFile\000"
 12173      6500
 12174              	.LASF29:
 12175 0df5 6576656E 		.ascii	"eventmask_t\000"
 12175      746D6173 
 12175      6B5F7400 
 12176              	.LASF136:
 12177 0e01 5553425F 		.ascii	"USB_EVENT_RESET\000"
 12177      4556454E 
 12177      545F5245 
 12177      53455400 
 12178              	.LASF447:
 12179 0e11 706F7369 		.ascii	"position\000"
 12179      74696F6E 
 12179      00
 12180              	.LASF465:
 12181 0e1a 70617463 		.ascii	"patchStatus\000"
 12181      68537461 
 12181      74757300 
 12182              	.LASF118:
 12183 0e26 7468645F 		.ascii	"thd_ptr\000"
 12183      70747200 
 12184              	.LASF125:
 12185 0e2e 5553425F 		.ascii	"USB_SELECTED\000"
 12185      53454C45 
 12185      43544544 
 12185      00
 12186              	.LASF488:
 12187 0e3b 6D64754F 		.ascii	"mduObjectInit\000"
 12187      626A6563 
 12187      74496E69 
 12187      7400
 12188              	.LASF485:
 12189 0e49 665F7265 		.ascii	"f_readdir\000"
 12189      61646469 
 12189      7200
 12190              	.LASF12:
 12191 0e53 6C6F6E67 		.ascii	"long unsigned int\000"
 12191      20756E73 
 12191      69676E65 
 12191      6420696E 
 12191      7400
 12192              	.LASF22:
 12193 0e65 626F6F6C 		.ascii	"bool_t\000"
 12193      5F7400
 12194              	.LASF389:
 12195 0e6c 70504578 		.ascii	"pPExch\000"
 12195      636800
 12196              	.LASF137:
 12197 0e73 5553425F 		.ascii	"USB_EVENT_ADDRESS\000"
 12197      4556454E 
 12197      545F4144 
 12197      44524553 
 12197      5300
 12198              	.LASF463:
ARM GAS  /tmp/ccLdaIGa.s 			page 228


 12199 0e85 6473704C 		.ascii	"dspLoadPct\000"
 12199      6F616450 
 12199      637400
 12200              	.LASF142:
 12201 0e90 75736265 		.ascii	"usbevent_t\000"
 12201      76656E74 
 12201      5F7400
 12202              	.LASF82:
 12203 0e9b 63686172 		.ascii	"char\000"
 12203      00
 12204              	.LASF57:
 12205 0ea0 725F7175 		.ascii	"r_queue\000"
 12205      65756500 
 12206              	.LASF408:
 12207 0ea8 4244555F 		.ascii	"BDU_UNINIT\000"
 12207      554E494E 
 12207      495400
 12208              	.LASF181:
 12209 0eb3 47525846 		.ascii	"GRXFSIZ\000"
 12209      53495A00 
 12210              	.LASF440:
 12211 0ebb 436F7079 		.ascii	"CopyPatchToFlash\000"
 12211      50617463 
 12211      68546F46 
 12211      6C617368 
 12211      00
 12212              	.LASF92:
 12213 0ecc 715F6C69 		.ascii	"q_link\000"
 12213      6E6B00
 12214              	.LASF344:
 12215 0ed3 6C666E61 		.ascii	"lfname\000"
 12215      6D6500
 12216              	.LASF482:
 12217 0eda 5472616E 		.ascii	"TransmitDisplayPckt\000"
 12217      736D6974 
 12217      44697370 
 12217      6C617950 
 12217      636B7400 
 12218              	.LASF351:
 12219 0eee 46525F4E 		.ascii	"FR_NO_FILE\000"
 12219      4F5F4649 
 12219      4C4500
 12220              	.LASF202:
 12221 0ef9 44434647 		.ascii	"DCFG\000"
 12221      00
 12222              	.LASF455:
 12223 0efe 77615468 		.ascii	"waThreadUSBDMidi\000"
 12223      72656164 
 12223      55534244 
 12223      4D696469 
 12223      00
 12224              	.LASF178:
 12225 0f0f 47494E54 		.ascii	"GINTMSK\000"
 12225      4D534B00 
 12226              	.LASF406:
 12227 0f17 53544152 		.ascii	"STARTFAILED\000"
 12227      54464149 
ARM GAS  /tmp/ccLdaIGa.s 			page 229


 12227      4C454400 
 12228              	.LASF445:
 12229 0f23 66776964 		.ascii	"fwid\000"
 12229      00
 12230              	.LASF183:
 12231 0f28 484E5054 		.ascii	"HNPTXSTS\000"
 12231      58535453 
 12231      00
 12232              	.LASF114:
 12233 0f31 636F6E66 		.ascii	"configuration\000"
 12233      69677572 
 12233      6174696F 
 12233      6E00
 12234              	.LASF285:
 12235 0f3f 62746E5F 		.ascii	"btn_1\000"
 12235      3100
 12236              	.LASF286:
 12237 0f45 62746E5F 		.ascii	"btn_2\000"
 12237      3200
 12238              	.LASF287:
 12239 0f4b 62746E5F 		.ascii	"btn_3\000"
 12239      3300
 12240              	.LASF288:
 12241 0f51 62746E5F 		.ascii	"btn_4\000"
 12241      3400
 12242              	.LASF289:
 12243 0f57 62746E5F 		.ascii	"btn_5\000"
 12243      3500
 12244              	.LASF290:
 12245 0f5d 62746E5F 		.ascii	"btn_6\000"
 12245      3600
 12246              	.LASF291:
 12247 0f63 62746E5F 		.ascii	"btn_7\000"
 12247      3700
 12248              	.LASF292:
 12249 0f69 62746E5F 		.ascii	"btn_8\000"
 12249      3800
 12250              	.LASF293:
 12251 0f6f 62746E5F 		.ascii	"btn_9\000"
 12251      3900
 12252              	.LASF302:
 12253 0f75 776F7264 		.ascii	"word\000"
 12253      00
 12254              	.LASF505:
 12255 0f7a 665F7574 		.ascii	"f_utime\000"
 12255      696D6500 
 12256              	.LASF390:
 12257 0f82 70446973 		.ascii	"pDisplayVector\000"
 12257      706C6179 
 12257      56656374 
 12257      6F7200
 12258              	.LASF388:
 12259 0f91 6E756D50 		.ascii	"numPEx\000"
 12259      457800
 12260              	.LASF327:
 12261 0f98 77696E73 		.ascii	"winsect\000"
 12261      65637400 
ARM GAS  /tmp/ccLdaIGa.s 			page 230


 12262              	.LASF294:
 12263 0fa0 62746E5F 		.ascii	"btn_10\000"
 12263      313000
 12264              	.LASF295:
 12265 0fa7 62746E5F 		.ascii	"btn_11\000"
 12265      313100
 12266              	.LASF296:
 12267 0fae 62746E5F 		.ascii	"btn_12\000"
 12267      313200
 12268              	.LASF297:
 12269 0fb5 62746E5F 		.ascii	"btn_13\000"
 12269      313300
 12270              	.LASF298:
 12271 0fbc 62746E5F 		.ascii	"btn_14\000"
 12271      313400
 12272              	.LASF299:
 12273 0fc3 62746E5F 		.ascii	"btn_15\000"
 12273      313500
 12274              	.LASF300:
 12275 0fca 62746E5F 		.ascii	"btn_16\000"
 12275      313600
 12276              	.LASF427:
 12277 0fd1 4D44555F 		.ascii	"MDU_READY\000"
 12277      52454144 
 12277      5900
 12278              	.LASF397:
 12279 0fdb 53544152 		.ascii	"START_SD\000"
 12279      545F5344 
 12279      00
 12280              	.LASF341:
 12281 0fe4 6674696D 		.ascii	"ftime\000"
 12281      6500
 12282              	.LASF464:
 12283 0fea 6C6F6164 		.ascii	"loadPatchIndex\000"
 12283      50617463 
 12283      68496E64 
 12283      657800
 12284              	.LASF32:
 12285 0ff9 636E745F 		.ascii	"cnt_t\000"
 12285      7400
 12286              	.LASF313:
 12287 0fff 6E5F6661 		.ascii	"n_fats\000"
 12287      747300
 12288              	.LASF119:
 12289 1006 7468645F 		.ascii	"thd_wait\000"
 12289      77616974 
 12289      00
 12290              	.LASF130:
 12291 100f 5553425F 		.ascii	"USB_EP0_WAITING_TX0\000"
 12291      4550305F 
 12291      57414954 
 12291      494E475F 
 12291      54583000 
 12292              	.LASF108:
 12293 1023 6570306E 		.ascii	"ep0next\000"
 12293      65787400 
 12294              	.LASF159:
ARM GAS  /tmp/ccLdaIGa.s 			page 231


 12295 102b 73746D33 		.ascii	"stm32_otg_host_chn_t\000"
 12295      325F6F74 
 12295      675F686F 
 12295      73745F63 
 12295      686E5F74 
 12296              	.LASF339:
 12297 1040 6C666E5F 		.ascii	"lfn_idx\000"
 12297      69647800 
 12298              	.LASF503:
 12299 1048 665F6368 		.ascii	"f_chdir\000"
 12299      64697200 
 12300              	.LASF371:
 12301 1050 4D494449 		.ascii	"MIDI_DEVICE_USB_HOST\000"
 12301      5F444556 
 12301      4943455F 
 12301      5553425F 
 12301      484F5354 
 12302              	.LASF154:
 12303 1065 4843494E 		.ascii	"HCINTMSK\000"
 12303      544D534B 
 12303      00
 12304              	.LASF102:
 12305 106e 636F6E66 		.ascii	"config\000"
 12305      696700
 12306              	.LASF487:
 12307 1075 43616C63 		.ascii	"CalcCRC32\000"
 12307      43524333 
 12307      3200
 12308              	.LASF311:
 12309 107f 66735F74 		.ascii	"fs_type\000"
 12309      79706500 
 12310              	.LASF194:
 12311 1087 72657376 		.ascii	"resvd40C\000"
 12311      64343043 
 12311      00
 12312              	.LASF80:
 12313 1090 77746F62 		.ascii	"wtobjp\000"
 12313      6A7000
 12314              	.LASF368:
 12315 1097 4D494449 		.ascii	"MIDI_DEVICE_OMNI\000"
 12315      5F444556 
 12315      4943455F 
 12315      4F4D4E49 
 12315      00
 12316              	.LASF49:
 12317 10a8 705F7265 		.ascii	"p_realprio\000"
 12317      616C7072 
 12317      696F00
 12318              	.LASF91:
 12319 10b3 715F6E6F 		.ascii	"q_notify\000"
 12319      74696679 
 12319      00
 12320              	.LASF506:
 12321 10bc 665F7374 		.ascii	"f_stat\000"
 12321      617400
 12322              	.LASF403:
 12323 10c3 52554E4E 		.ascii	"RUNNING\000"
ARM GAS  /tmp/ccLdaIGa.s 			page 232


 12323      494E4700 
 12324              	.LASF245:
 12325 10cb 5553424F 		.ascii	"USBOutEndpointState\000"
 12325      7574456E 
 12325      64706F69 
 12325      6E745374 
 12325      61746500 
 12326              	.LASF198:
 12327 10df 72657376 		.ascii	"resvd41C\000"
 12327      64343143 
 12327      00
 12328              	.LASF402:
 12329 10e8 6C6F6164 		.ascii	"loadPatchIndex_t\000"
 12329      50617463 
 12329      68496E64 
 12329      65785F74 
 12329      00
 12330              	.LASF277:
 12331 10f9 62746E5F 		.ascii	"btn_nav_Up\000"
 12331      6E61765F 
 12331      557000
 12332              	.LASF520:
 12333 1104 70636F6E 		.ascii	"pconnection.c\000"
 12333      6E656374 
 12333      696F6E2E 
 12333      6300
 12334              	.LASF9:
 12335 1112 5F5F696E 		.ascii	"__int32_t\000"
 12335      7433325F 
 12335      7400
 12336              	.LASF11:
 12337 111c 5F5F7569 		.ascii	"__uint32_t\000"
 12337      6E743332 
 12337      5F7400
 12338              	.LASF271:
 12339 1127 5F506172 		.ascii	"_ParameterExchange\000"
 12339      616D6574 
 12339      65724578 
 12339      6368616E 
 12339      676500
 12340              	.LASF209:
 12341 113a 4441494E 		.ascii	"DAINTMSK\000"
 12341      544D534B 
 12341      00
 12342              	.LASF86:
 12343 1143 715F636F 		.ascii	"q_counter\000"
 12343      756E7465 
 12343      7200
 12344              	.LASF128:
 12345 114d 5553425F 		.ascii	"USB_EP0_WAITING_SETUP\000"
 12345      4550305F 
 12345      57414954 
 12345      494E475F 
 12345      53455455 
 12346              	.LASF233:
 12347 1163 71756575 		.ascii	"queue\000"
 12347      6500
ARM GAS  /tmp/ccLdaIGa.s 			page 233


 12348              	.LASF355:
 12349 1169 46525F45 		.ascii	"FR_EXIST\000"
 12349      58495354 
 12349      00
 12350              	.LASF47:
 12351 1172 705F6570 		.ascii	"p_epending\000"
 12351      656E6469 
 12351      6E6700
 12352              	.LASF337:
 12353 117d 636C7462 		.ascii	"cltbl\000"
 12353      6C00
 12354              	.LASF502:
 12355 1183 665F756E 		.ascii	"f_unlink\000"
 12355      6C696E6B 
 12355      00
 12356              	.LASF407:
 12357 118c 70617463 		.ascii	"patchStatus_t\000"
 12357      68537461 
 12357      7475735F 
 12357      7400
 12358              	.LASF410:
 12359 119a 4244555F 		.ascii	"BDU_READY\000"
 12359      52454144 
 12359      5900
 12360              	.LASF359:
 12361 11a4 46525F4E 		.ascii	"FR_NOT_ENABLED\000"
 12361      4F545F45 
 12361      4E41424C 
 12361      454400
 12362              	.LASF256:
 12363 11b3 55534245 		.ascii	"USBEndpointConfig\000"
 12363      6E64706F 
 12363      696E7443 
 12363      6F6E6669 
 12363      6700
 12364              	.LASF241:
 12365 11c5 72787175 		.ascii	"rxqueue\000"
 12365      65756500 
 12366              	.LASF200:
 12367 11cd 72657376 		.ascii	"resvd444\000"
 12367      64343434 
 12367      00
 12368              	.LASF73:
 12369 11d6 656C5F6C 		.ascii	"el_listener\000"
 12369      69737465 
 12369      6E657200 
 12370              	.LASF232:
 12371 11e2 6C696E65 		.ascii	"linear\000"
 12371      617200
 12372              	.LASF272:
 12373 11e9 6D6F6476 		.ascii	"modvalue\000"
 12373      616C7565 
 12373      00
 12374              	.LASF314:
 12375 11f2 77666C61 		.ascii	"wflag\000"
 12375      6700
 12376              	.LASF496:
ARM GAS  /tmp/ccLdaIGa.s 			page 234


 12377 11f8 47657446 		.ascii	"GetFirmwareID\000"
 12377      69726D77 
 12377      61726549 
 12377      4400
 12378              	.LASF58:
 12379 1206 725F7072 		.ascii	"r_prio\000"
 12379      696F00
 12380              	.LASF116:
 12381 120d 706D6E65 		.ascii	"pmnext\000"
 12381      787400
 12382              	.LASF519:
 12383 1214 474E5520 		.ascii	"GNU C 4.9.3 20150529 (release) [ARM/embedded-4_9-br"
 12383      4320342E 
 12383      392E3320 
 12383      32303135 
 12383      30353239 
 12384 1247 616E6368 		.ascii	"anch revision 224288] -mcpu=cortex-m4 -mfloat-abi=h"
 12384      20726576 
 12384      6973696F 
 12384      6E203232 
 12384      34323838 
 12385 127a 61726420 		.ascii	"ard -mfpu=fpv4-sp-d16 -mno-thumb-interwork -mthumb "
 12385      2D6D6670 
 12385      753D6670 
 12385      76342D73 
 12385      702D6431 
 12386 12ad 2D676764 		.ascii	"-ggdb -O2 -fomit-frame-pointer -falign-functions=16"
 12386      62202D4F 
 12386      32202D66 
 12386      6F6D6974 
 12386      2D667261 
 12387 12e0 202D666E 		.ascii	" -fno-math-errno -fsingle-precision-constant\000"
 12387      6F2D6D61 
 12387      74682D65 
 12387      72726E6F 
 12387      202D6673 
 12388              	.LASF458:
 12389 130d 49544D5F 		.ascii	"ITM_RxBuffer\000"
 12389      52784275 
 12389      66666572 
 12389      00
 12390              	.LASF347:
 12391 131a 46525F4F 		.ascii	"FR_OK\000"
 12391      4B00
 12392              	.LASF15:
 12393 1320 6C6F6E67 		.ascii	"long long unsigned int\000"
 12393      206C6F6E 
 12393      6720756E 
 12393      7369676E 
 12393      65642069 
 12394              	.LASF448:
 12395 1337 6F666673 		.ascii	"offset\000"
 12395      657400
 12396              	.LASF377:
 12397 133e 66707472 		.ascii	"fptr_patch_dispose_t\000"
 12397      5F706174 
 12397      63685F64 
ARM GAS  /tmp/ccLdaIGa.s 			page 235


 12397      6973706F 
 12397      73655F74 
 12398              	.LASF77:
 12399 1353 65735F6E 		.ascii	"es_next\000"
 12399      65787400 
 12400              	.LASF162:
 12401 135b 44494550 		.ascii	"DIEPINT\000"
 12401      494E5400 
 12402              	.LASF350:
 12403 1363 46525F4E 		.ascii	"FR_NOT_READY\000"
 12403      4F545F52 
 12403      45414459 
 12403      00
 12404              	.LASF451:
 12405 1370 72656164 		.ascii	"read_repy_header\000"
 12405      5F726570 
 12405      795F6865 
 12405      61646572 
 12405      00
 12406              	.LASF315:
 12407 1381 6673695F 		.ascii	"fsi_flag\000"
 12407      666C6167 
 12407      00
 12408              	.LASF42:
 12409 138a 705F666C 		.ascii	"p_flags\000"
 12409      61677300 
 12410              	.LASF380:
 12411 1392 66707472 		.ascii	"fptr_patch_applyPreset_t\000"
 12411      5F706174 
 12411      63685F61 
 12411      70706C79 
 12411      50726573 
 12412              	.LASF81:
 12413 13ab 65776D61 		.ascii	"ewmask\000"
 12413      736B00
 12414              	.LASF524:
 12415 13b2 54687265 		.ascii	"ThreadUSBDMidi\000"
 12415      61645553 
 12415      42444D69 
 12415      646900
 12416              	.LASF75:
 12417 13c1 656C5F66 		.ascii	"el_flags\000"
 12417      6C616773 
 12417      00
 12418              	.LASF48:
 12419 13ca 705F6D74 		.ascii	"p_mtxlist\000"
 12419      786C6973 
 12419      7400
 12420              	.LASF25:
 12421 13d4 74737461 		.ascii	"tstate_t\000"
 12421      74655F74 
 12421      00
 12422              	.LASF208:
 12423 13dd 4441494E 		.ascii	"DAINT\000"
 12423      5400
 12424              	.LASF103:
 12425 13e3 7472616E 		.ascii	"transmitting\000"
ARM GAS  /tmp/ccLdaIGa.s 			page 236


 12425      736D6974 
 12425      74696E67 
 12425      00
 12426              	.LASF352:
 12427 13f0 46525F4E 		.ascii	"FR_NO_PATH\000"
 12427      4F5F5041 
 12427      544800
 12428              	.LASF40:
 12429 13fb 705F6E61 		.ascii	"p_name\000"
 12429      6D6500
 12430              	.LASF416:
 12431 1402 75736270 		.ascii	"usbp\000"
 12431      00
 12432              	.LASF127:
 12433 1407 75736273 		.ascii	"usbstate_t\000"
 12433      74617465 
 12433      5F7400
 12434              	.LASF170:
 12435 1412 444F4550 		.ascii	"DOEPTSIZ\000"
 12435      5453495A 
 12435      00
 12436              	.LASF264:
 12437 141b 5F5F6170 		.ascii	"__ap\000"
 12437      00
 12438              	.LASF278:
 12439 1420 62746E5F 		.ascii	"btn_nav_Down\000"
 12439      6E61765F 
 12439      446F776E 
 12439      00
 12440              	.LASF266:
 12441 142d 68656164 		.ascii	"header\000"
 12441      657200
 12442              	.LASF363:
 12443 1434 46525F4C 		.ascii	"FR_LOCKED\000"
 12443      4F434B45 
 12443      4400
 12444              	.LASF65:
 12445 143e 735F7175 		.ascii	"s_queue\000"
 12445      65756500 
 12446              	.LASF501:
 12447 1446 665F6C73 		.ascii	"f_lseek\000"
 12447      65656B00 
 12448              	.LASF509:
 12449 144e 665F636C 		.ascii	"f_close\000"
 12449      6F736500 
 12450              	.LASF423:
 12451 1456 77726974 		.ascii	"writet\000"
 12451      657400
 12452              	.LASF13:
 12453 145d 6C6F6E67 		.ascii	"long long int\000"
 12453      206C6F6E 
 12453      6720696E 
 12453      7400
 12454              	.LASF188:
 12455 146b 48505458 		.ascii	"HPTXFSIZ\000"
 12455      4653495A 
 12455      00
ARM GAS  /tmp/ccLdaIGa.s 			page 237


 12456              	.LASF358:
 12457 1474 46525F49 		.ascii	"FR_INVALID_DRIVE\000"
 12457      4E56414C 
 12457      49445F44 
 12457      52495645 
 12457      00
 12458              	.LASF412:
 12459 1485 42756C6B 		.ascii	"BulkUSBDriver\000"
 12459      55534244 
 12459      72697665 
 12459      7200
 12460              	.LASF419:
 12461 1493 42756C6B 		.ascii	"BulkUSBConfig\000"
 12461      55534243 
 12461      6F6E6669 
 12461      6700
 12462              	.LASF30:
 12463 14a1 666C6167 		.ascii	"flagsmask_t\000"
 12463      736D6173 
 12463      6B5F7400 
 12464              	.LASF258:
 12465 14ad 6765745F 		.ascii	"get_descriptor_cb\000"
 12465      64657363 
 12465      72697074 
 12465      6F725F63 
 12465      6200
 12466              	.LASF84:
 12467 14bf 47656E65 		.ascii	"GenericQueue\000"
 12467      72696351 
 12467      75657565 
 12467      00
 12468              	.LASF203:
 12469 14cc 4443544C 		.ascii	"DCTL\000"
 12469      00
 12470              	.LASF230:
 12471 14d1 74786275 		.ascii	"txbuf\000"
 12471      6600
 12472              	.LASF222:
 12473 14d7 50434743 		.ascii	"PCGCCTL\000"
 12473      43544C00 
 12474              	.LASF140:
 12475 14df 5553425F 		.ascii	"USB_EVENT_WAKEUP\000"
 12475      4556454E 
 12475      545F5741 
 12475      4B455550 
 12475      00
 12476              	.LASF39:
 12477 14f0 705F6F6C 		.ascii	"p_older\000"
 12477      64657200 
 12478              	.LASF95:
 12479 14f8 4F757470 		.ascii	"OutputQueue\000"
 12479      75745175 
 12479      65756500 
 12480              	.LASF255:
 12481 1504 73657475 		.ascii	"setup_buf\000"
 12481      705F6275 
 12481      6600
ARM GAS  /tmp/ccLdaIGa.s 			page 238


 12482              	.LASF96:
 12483 150e 42617365 		.ascii	"BaseSequentialStreamVMT\000"
 12483      53657175 
 12483      656E7469 
 12483      616C5374 
 12483      7265616D 
 12484              	.LASF104:
 12485 1526 72656365 		.ascii	"receiving\000"
 12485      6976696E 
 12485      6700
 12486              	.LASF121:
 12487 1530 75736265 		.ascii	"usbep_t\000"
 12487      705F7400 
 12488              	.LASF364:
 12489 1538 46525F4E 		.ascii	"FR_NOT_ENOUGH_CORE\000"
 12489      4F545F45 
 12489      4E4F5547 
 12489      485F434F 
 12489      524500
 12490              	.LASF316:
 12491 154b 6E5F726F 		.ascii	"n_rootdir\000"
 12491      6F746469 
 12491      7200
 12492              	.LASF89:
 12493 1555 715F7772 		.ascii	"q_wrptr\000"
 12493      70747200 
 12494              	.LASF2:
 12495 155d 5F5F696E 		.ascii	"__int8_t\000"
 12495      74385F74 
 12495      00
 12496              	.LASF252:
 12497 1566 696E5F73 		.ascii	"in_state\000"
 12497      74617465 
 12497      00
 12498              	.LASF384:
 12499 156f 66707472 		.ascii	"fptr_patch_dispose\000"
 12499      5F706174 
 12499      63685F64 
 12499      6973706F 
 12499      736500
 12500              	.LASF510:
 12501 1582 666C6173 		.ascii	"flash_unlock\000"
 12501      685F756E 
 12501      6C6F636B 
 12501      00
 12502              	.LASF0:
 12503 158f 756E7369 		.ascii	"unsigned int\000"
 12503      676E6564 
 12503      20696E74 
 12503      00
 12504              	.LASF434:
 12505 159c 4C6F6754 		.ascii	"LogTextMessage\000"
 12505      6578744D 
 12505      65737361 
 12505      676500
 12506              	.LASF192:
 12507 15ab 48464952 		.ascii	"HFIR\000"
ARM GAS  /tmp/ccLdaIGa.s 			page 239


 12507      00
 12508              	.LASF122:
 12509 15b0 5553425F 		.ascii	"USB_UNINIT\000"
 12509      554E494E 
 12509      495400
 12510              	.LASF514:
 12511 15bb 50457850 		.ascii	"PExParameterChange\000"
 12511      6172616D 
 12511      65746572 
 12511      4368616E 
 12511      676500
 12512              	.LASF521:
 12513 15ce 2F686F6D 		.ascii	"/home/sbcu/Dropbox/pcb-layouts/axo-on-discovery-boa"
 12513      652F7362 
 12513      63752F44 
 12513      726F7062 
 12513      6F782F70 
 12514 1601 72642F61 		.ascii	"rd/axoloti/firmware\000"
 12514      786F6C6F 
 12514      74692F66 
 12514      69726D77 
 12514      61726500 
 12515              	.LASF6:
 12516 1615 73686F72 		.ascii	"short int\000"
 12516      7420696E 
 12516      7400
 12517              	.LASF146:
 12518 161f 75736263 		.ascii	"usbcallback_t\000"
 12518      616C6C62 
 12518      61636B5F 
 12518      7400
 12519              	.LASF454:
 12520 162d 72656365 		.ascii	"received\000"
 12520      69766564 
 12520      00
 12521              	.LASF473:
 12522 1636 41636B50 		.ascii	"AckPending\000"
 12522      656E6469 
 12522      6E6700
 12523              	.LASF175:
 12524 1641 47555342 		.ascii	"GUSBCFG\000"
 12524      43464700 
 12525              	.LASF507:
 12526 1649 65786365 		.ascii	"exception_checkandreport\000"
 12526      7074696F 
 12526      6E5F6368 
 12526      65636B61 
 12526      6E647265 
 12527              	.LASF225:
 12528 1662 73746D33 		.ascii	"stm32_otg_t\000"
 12528      325F6F74 
 12528      675F7400 
 12529              	.LASF143:
 12530 166e 75645F73 		.ascii	"ud_size\000"
 12530      697A6500 
 12531              	.LASF250:
 12532 1676 696E5F6D 		.ascii	"in_maxsize\000"
ARM GAS  /tmp/ccLdaIGa.s 			page 240


 12532      61787369 
 12532      7A6500
 12533              	.LASF263:
 12534 1681 5F5F7661 		.ascii	"__va_list\000"
 12534      5F6C6973 
 12534      7400
 12535              	.LASF41:
 12536 168b 705F7374 		.ascii	"p_state\000"
 12536      61746500 
 12537              	.LASF354:
 12538 1693 46525F44 		.ascii	"FR_DENIED\000"
 12538      454E4945 
 12538      4400
 12539              	.LASF431:
 12540 169d 4D696469 		.ascii	"MidiUSBDriverVMT\000"
 12540      55534244 
 12540      72697665 
 12540      72564D54 
 12540      00
 12541              		.ident	"GCC: (GNU Tools for ARM Embedded Processors) 4.9.3 20150529 (release) [ARM/embedded-4_9-br
ARM GAS  /tmp/ccLdaIGa.s 			page 241


DEFINED SYMBOLS
                            *ABS*:00000000 pconnection.c
     /tmp/ccLdaIGa.s:20     .text:00000000 $t
     /tmp/ccLdaIGa.s:25     .text:00000000 ThreadUSBDMidi
     /tmp/ccLdaIGa.s:73     .text:0000003c $d
     /tmp/ccLdaIGa.s:79     .text:00000048 $t
     /tmp/ccLdaIGa.s:84     .text:00000050 scan_files.constprop.1
     /tmp/ccLdaIGa.s:355    .text:000001b4 $d
                            *COM*:00000100 FileName
     /tmp/ccLdaIGa.s:363    .text:000001c8 $t
     /tmp/ccLdaIGa.s:369    .text:000001d0 InitPConnection
     /tmp/ccLdaIGa.s:460    .text:00000244 $d
                            *COM*:00000004 fwid
     /tmp/ccLdaIGa.s:472    .text:00000268 $t
     /tmp/ccLdaIGa.s:478    .text:00000270 GetFirmwareID
     /tmp/ccLdaIGa.s:493    .text:00000278 $d
     /tmp/ccLdaIGa.s:497    .text:0000027c $t
     /tmp/ccLdaIGa.s:503    .text:00000280 TransmitDisplayPckt
     /tmp/ccLdaIGa.s:536    .text:0000029c $d
     /tmp/ccLdaIGa.s:541    .text:000002a4 $t
     /tmp/ccLdaIGa.s:547    .text:000002b0 LogTextMessage
     /tmp/ccLdaIGa.s:647    .text:0000030c $d
     /tmp/ccLdaIGa.s:653    .text:00000318 $t
     /tmp/ccLdaIGa.s:659    .text:00000320 PExTransmit
     /tmp/ccLdaIGa.s:868    .text:00000428 $d
     /tmp/ccLdaIGa.s:882    .text:00000450 $t
     /tmp/ccLdaIGa.s:888    .text:00000450 ReadDirectoryListing
     /tmp/ccLdaIGa.s:1018   .text:000004f0 $d
     /tmp/ccLdaIGa.s:1024   .text:000004fc $t
     /tmp/ccLdaIGa.s:1030   .text:00000500 ManipulateFile
     /tmp/ccLdaIGa.s:1335   .text:0000065c $d
                            *COM*:00000028 pFile
                            *COM*:00000004 pFileSize
     /tmp/ccLdaIGa.s:1345   .text:00000674 $t
     /tmp/ccLdaIGa.s:1351   .text:00000680 CloseFile
     /tmp/ccLdaIGa.s:1438   .text:000006cc $d
     /tmp/ccLdaIGa.s:1443   .text:000006d4 $t
     /tmp/ccLdaIGa.s:1449   .text:000006e0 CopyPatchToFlash
     /tmp/ccLdaIGa.s:1519   .text:0000072c $d
     /tmp/ccLdaIGa.s:1528   .text:00000744 $t
     /tmp/ccLdaIGa.s:1534   .text:00000750 ReplyFWVersion
     /tmp/ccLdaIGa.s:1638   .text:000007cc $d
     /tmp/ccLdaIGa.s:1643   .text:000007d4 $t
     /tmp/ccLdaIGa.s:1649   .text:000007e0 PExReceiveByte
     /tmp/ccLdaIGa.s:1680   .text:000007fc $d
     /tmp/ccLdaIGa.s:1684   .text:00000800 $t
     /tmp/ccLdaIGa.s:1815   .text:000008d4 $d
     /tmp/ccLdaIGa.s:1825   .text:000008de $t
     /tmp/ccLdaIGa.s:1865   .text:00000916 $d
     /tmp/ccLdaIGa.s:1885   .text:0000092a $t
     /tmp/ccLdaIGa.s:1899   .text:00000942 $d
     /tmp/ccLdaIGa.s:1907   .text:0000094a $t
     /tmp/ccLdaIGa.s:1916   .text:00000958 $d
     /tmp/ccLdaIGa.s:1928   .text:00000970 $t
     /tmp/ccLdaIGa.s:2132   .text:00000aac $d
     /tmp/ccLdaIGa.s:2137   .text:00000ab8 $t
     /tmp/ccLdaIGa.s:2348   .text:00000bf6 $d
ARM GAS  /tmp/ccLdaIGa.s 			page 242


     /tmp/ccLdaIGa.s:2428   .text:00000c62 $d
     /tmp/ccLdaIGa.s:2432   .text:00000c66 $t
     /tmp/ccLdaIGa.s:2518   .text:00000cea $d
     /tmp/ccLdaIGa.s:2522   .text:00000cee $t
     /tmp/ccLdaIGa.s:2641   .text:00000da8 $d
     /tmp/ccLdaIGa.s:2653   .text:00000dc8 $d
     /tmp/ccLdaIGa.s:2664   .text:00000de8 $t
     /tmp/ccLdaIGa.s:2794   .text:00000eb4 $d
     /tmp/ccLdaIGa.s:2798   .text:00000ec4 $t
     /tmp/ccLdaIGa.s:3062   .text:00001044 $d
     /tmp/ccLdaIGa.s:3074   .text:00001068 $t
     /tmp/ccLdaIGa.s:3080   .text:00001070 PExReceive
     /tmp/ccLdaIGa.s:3133   .text:000010a4 $d
     /tmp/ccLdaIGa.s:3169   .bss:00000250 connected
     /tmp/ccLdaIGa.s:3174   .bss:00000254 AckPending
     /tmp/ccLdaIGa.s:3145   .rodata.str1.4:00000000 $d
     /tmp/ccLdaIGa.s:3161   .bss:00000000 $d
     /tmp/ccLdaIGa.s:3165   .bss:00000000 waThreadUSBDMidi
     /tmp/ccLdaIGa.s:3178   .bss:00000258 header.8716
     /tmp/ccLdaIGa.s:3183   .bss:0000025c state.8717
     /tmp/ccLdaIGa.s:3187   .bss:00000260 patchid.8725
     /tmp/ccLdaIGa.s:3191   .bss:00000264 value.8719
     /tmp/ccLdaIGa.s:3195   .bss:00000268 index.8718
     /tmp/ccLdaIGa.s:3199   .bss:0000026c offset.8721
     /tmp/ccLdaIGa.s:3203   .bss:00000270 length.8722
     /tmp/ccLdaIGa.s:3207   .bss:00000274 position.8720
     /tmp/ccLdaIGa.s:3211   .bss:00000278 midi_r.8777
     /tmp/ccLdaIGa.s:3216   .bss:0000027c a.8723
     /tmp/ccLdaIGa.s:3220   .bss:00000280 b.8724
                     .debug_frame:00000010 $d
     /tmp/ccLdaIGa.s:2353   .text:00000bfb $d
     /tmp/ccLdaIGa.s:2353   .text:00000bfc $t

UNDEFINED SYMBOLS
MidiInMsgHandler
rlist
MDU1
f_opendir
strlen
f_readdir
strcpy
stpcpy
report_fatfs_error
fbuff
BDU1
CalcCRC32
mduObjectInit
mduStart
bduObjectInit
bduStart
chThdSleep
usbStart
chThdCreateStatic
_flash_end
midiusbcfg
bulkusbcfg
usbcfg
ARM GAS  /tmp/ccLdaIGa.s 			page 243


patchMeta
chvprintf
sysmon_getVoltage10
sysmon_getVoltage50
exception_checkandreport
patchStatus
dspLoadPct
fs_ready
loadPatchIndex
f_getfree
sdcard_attemptMountIfUnmounted
f_open
f_lseek
f_unlink
f_mkdir
f_utime
f_stat
f_chdir
f_close
flash_unlock
flash_Erase_sector
flash_ProgramWord
PExParameterChange
ApplyPreset
EncBuffer
Btn_Nav_Or
Btn_Nav_And
f_write
StopPatch
exception_initiate_dfu
StartPatch
