ARM GAS  /tmp/ccLdaIGa.s 			page 1


   1              		.syntax unified
   2              		.cpu cortex-m4
   3              		.eabi_attribute 27, 1
   4              		.eabi_attribute 28, 1
   5              		.fpu fpv4-sp-d16
   6              		.eabi_attribute 20, 1
   7              		.eabi_attribute 21, 1
   8              		.eabi_attribute 23, 3
   9              		.eabi_attribute 24, 1
  10              		.eabi_attribute 25, 1
  11              		.eabi_attribute 26, 1
  12              		.eabi_attribute 30, 2
  13              		.eabi_attribute 34, 1
  14              		.eabi_attribute 18, 4
  15              		.thumb
  16              		.file	"pconnection.c"
  17              		.text
  18              	.Ltext0:
  19              		.cfi_sections	.debug_frame
  20              		.align	2
  21              		.p2align 4,,15
  22              		.thumb
  23              		.thumb_func
  24              		.type	ThreadUSBDMidi, %function
  25              	ThreadUSBDMidi:
  26              	.LFB131:
  27              		.file 1 "pconnection.c"
  28              		.loc 1 54 0
  29              		.cfi_startproc
  30              		@ Volatile: function does not return.
  31              		@ args = 0, pretend = 0, frame = 8
  32              		@ frame_needed = 0, uses_anonymous_args = 0
  33              	.LVL0:
  34 0000 00B5     		push	{lr}
  35              		.cfi_def_cfa_offset 4
  36              		.cfi_offset 14, -4
  37              		.loc 1 57 0
  38 0002 0E4B     		ldr	r3, .L5
  39 0004 0E4A     		ldr	r2, .L5+4
  40 0006 9B69     		ldr	r3, [r3, #24]
  41 0008 0E4D     		ldr	r5, .L5+8
  42 000a 9A61     		str	r2, [r3, #24]
  43              		.loc 1 54 0
  44 000c 85B0     		sub	sp, sp, #20
  45              		.cfi_def_cfa_offset 24
  46              	.LVL1:
  47              	.L2:
  48              		.loc 1 61 0 discriminator 1
  49 000e 2B68     		ldr	r3, [r5]
  50 0010 0C48     		ldr	r0, .L5+8
  51 0012 DC69     		ldr	r4, [r3, #28]
  52 0014 03A9     		add	r1, sp, #12
  53 0016 0422     		movs	r2, #4
  54 0018 4FF0FF33 		mov	r3, #-1
  55 001c A047     		blx	r4
  56              	.LVL2:
  57              		.loc 1 62 0 discriminator 1
ARM GAS  /tmp/ccLdaIGa.s 			page 2


  58 001e 9DF80C10 		ldrb	r1, [sp, #12]	@ zero_extendqisi2
  59 0022 9DF80F00 		ldrb	r0, [sp, #15]	@ zero_extendqisi2
  60 0026 0090     		str	r0, [sp]
  61 0028 0909     		lsrs	r1, r1, #4
  62 002a 9DF80D20 		ldrb	r2, [sp, #13]	@ zero_extendqisi2
  63 002e 9DF80E30 		ldrb	r3, [sp, #14]	@ zero_extendqisi2
  64 0032 0131     		adds	r1, r1, #1
  65 0034 0220     		movs	r0, #2
  66 0036 FFF7FEFF 		bl	MidiInMsgHandler
  67              	.LVL3:
  68              		.loc 1 64 0 discriminator 1
  69 003a E8E7     		b	.L2
  70              	.L6:
  71              		.align	2
  72              	.L5:
  73 003c 00000000 		.word	rlist
  74 0040 00000000 		.word	.LC0
  75 0044 00000000 		.word	MDU1
  76              		.cfi_endproc
  77              	.LFE131:
  78              		.size	ThreadUSBDMidi, .-ThreadUSBDMidi
  79              		.align	2
  80 0048 AFF30080 		.p2align 4,,15
  80      AFF30080 
  81              		.thumb
  82              		.thumb_func
  83              		.type	scan_files.constprop.1, %function
  84              	scan_files.constprop.1:
  85              	.LFB146:
  86              		.loc 1 181 0
  87              		.cfi_startproc
  88              		@ args = 0, pretend = 0, frame = 72
  89              		@ frame_needed = 0, uses_anonymous_args = 0
  90              	.LVL4:
  91 0050 2DE9F043 		push	{r4, r5, r6, r7, r8, r9, lr}
  92              		.cfi_def_cfa_offset 28
  93              		.cfi_offset 4, -28
  94              		.cfi_offset 5, -24
  95              		.cfi_offset 6, -20
  96              		.cfi_offset 7, -16
  97              		.cfi_offset 8, -12
  98              		.cfi_offset 9, -8
  99              		.cfi_offset 14, -4
 100              		.loc 1 190 0
 101 0054 574D     		ldr	r5, .L26
 102              		.loc 1 188 0
 103 0056 584B     		ldr	r3, .L26+4
 104              		.loc 1 181 0
 105 0058 93B0     		sub	sp, sp, #76
 106              		.cfi_def_cfa_offset 104
 107              		.loc 1 190 0
 108 005a 2946     		mov	r1, r5
 109              		.loc 1 188 0
 110 005c 0793     		str	r3, [sp, #28]
 111              		.loc 1 190 0
 112 005e 09A8     		add	r0, sp, #36
 113              		.loc 1 189 0
ARM GAS  /tmp/ccLdaIGa.s 			page 3


 114 0060 4FF48073 		mov	r3, #256
 115 0064 0893     		str	r3, [sp, #32]
 116              		.loc 1 190 0
 117 0066 FFF7FEFF 		bl	f_opendir
 118              	.LVL5:
 119              		.loc 1 191 0
 120 006a 0028     		cmp	r0, #0
 121 006c 40F09A80 		bne	.L8
 122              		.loc 1 192 0
 123 0070 2846     		mov	r0, r5
 124              	.LVL6:
 125 0072 FFF7FEFF 		bl	strlen
 126              	.LVL7:
 127              	.LBB7:
 128              		.loc 1 234 0
 129 0076 05F14B07 		add	r7, r5, #75
 130              	.LBE7:
 131              		.loc 1 192 0
 132 007a 0646     		mov	r6, r0
 133              	.LVL8:
 134              	.LBB8:
 135              		.loc 1 234 0
 136 007c 0744     		add	r7, r7, r0
 137              		.loc 1 233 0
 138 007e 05F14C08 		add	r8, r5, #76
 139              	.LVL9:
 140              	.L9:
 141              	.LBE8:
 142              		.loc 1 194 0
 143 0082 09A8     		add	r0, sp, #36
 144 0084 01A9     		add	r1, sp, #4
 145 0086 FFF7FEFF 		bl	f_readdir
 146              	.LVL10:
 147              		.loc 1 195 0
 148 008a 0446     		mov	r4, r0
 149 008c 0028     		cmp	r0, #0
 150 008e 4FD1     		bne	.L10
 151 0090 9DF80D30 		ldrb	r3, [sp, #13]	@ zero_extendqisi2
 152 0094 002B     		cmp	r3, #0
 153 0096 4BD0     		beq	.L10
 154              		.loc 1 197 0
 155 0098 2E2B     		cmp	r3, #46
 156 009a F2D0     		beq	.L9
 157              		.loc 1 200 0
 158 009c 079C     		ldr	r4, [sp, #28]
 159 009e 2378     		ldrb	r3, [r4]	@ zero_extendqisi2
 160 00a0 002B     		cmp	r3, #0
 161 00a2 49D0     		beq	.L15
 162              	.LVL11:
 163              		.loc 1 204 0
 164 00a4 2E2B     		cmp	r3, #46
 165 00a6 ECD0     		beq	.L9
 166              	.LVL12:
 167              	.L12:
 168              		.loc 1 206 0
 169 00a8 9DF80C20 		ldrb	r2, [sp, #12]	@ zero_extendqisi2
 170 00ac 02F00203 		and	r3, r2, #2
ARM GAS  /tmp/ccLdaIGa.s 			page 4


 171 00b0 03F0FF09 		and	r9, r3, #255
 172 00b4 002B     		cmp	r3, #0
 173 00b6 E4D1     		bne	.L9
 174              		.loc 1 208 0
 175 00b8 D306     		lsls	r3, r2, #27
 176 00ba 40D5     		bpl	.L13
 177              	.LBB9:
 178              		.loc 1 210 0
 179 00bc 701C     		adds	r0, r6, #1
 180              	.LVL13:
 181 00be 2146     		mov	r1, r4
 182 00c0 2844     		add	r0, r0, r5
 183              		.loc 1 209 0
 184 00c2 2F24     		movs	r4, #47
 185              	.LVL14:
 186 00c4 AC55     		strb	r4, [r5, r6]
 187              		.loc 1 210 0
 188 00c6 FFF7FEFF 		bl	strcpy
 189              	.LVL15:
 190              		.loc 1 216 0
 191 00ca BDF80A10 		ldrh	r1, [sp, #10]
 192 00ce BDF80830 		ldrh	r3, [sp, #8]
 193              		.loc 1 217 0
 194 00d2 3A48     		ldr	r0, .L26+8
 195              		.loc 1 215 0
 196 00d4 019A     		ldr	r2, [sp, #4]
 197 00d6 6A64     		str	r2, [r5, #68]
 198              		.loc 1 216 0
 199 00d8 03EB0143 		add	r3, r3, r1, lsl #16
 200              		.loc 1 211 0
 201 00dc 4FF0410C 		mov	ip, #65
 202              		.loc 1 212 0
 203 00e0 4FF0780E 		mov	lr, #120
 204              		.loc 1 213 0
 205 00e4 6F22     		movs	r2, #111
 206              		.loc 1 217 0
 207 00e6 A0F14B01 		sub	r1, r0, #75
 208              		.loc 1 216 0
 209 00ea AB64     		str	r3, [r5, #72]
 210              		.loc 1 214 0
 211 00ec 6623     		movs	r3, #102
 212              		.loc 1 211 0
 213 00ee 85F840C0 		strb	ip, [r5, #64]
 214              		.loc 1 212 0
 215 00f2 85F841E0 		strb	lr, [r5, #65]
 216              		.loc 1 213 0
 217 00f6 85F84220 		strb	r2, [r5, #66]
 218              		.loc 1 214 0
 219 00fa 85F84330 		strb	r3, [r5, #67]
 220              		.loc 1 217 0
 221 00fe FFF7FEFF 		bl	stpcpy
 222              	.LVL16:
 223              		.loc 1 221 0
 224 0102 DFF8C0E0 		ldr	lr, .L26+16
 225              		.loc 1 220 0
 226 0106 2E49     		ldr	r1, .L26+12
 227              		.loc 1 221 0
ARM GAS  /tmp/ccLdaIGa.s 			page 5


 228 0108 DEF80030 		ldr	r3, [lr]
 229              		.loc 1 217 0
 230 010c C8EB0002 		rsb	r2, r8, r0
 231              	.LVL17:
 232              		.loc 1 221 0
 233 0110 7046     		mov	r0, lr
 234              		.loc 1 219 0
 235 0112 02F80840 		strb	r4, [r2, r8]
 236              		.loc 1 220 0
 237 0116 02F80190 		strb	r9, [r2, r1]
 238              		.loc 1 221 0
 239 011a 0E32     		adds	r2, r2, #14
 240              	.LVL18:
 241 011c 0D39     		subs	r1, r1, #13
 242 011e 1B68     		ldr	r3, [r3]
 243 0120 9847     		blx	r3
 244              	.LVL19:
 245              		.loc 1 223 0
 246 0122 FFF795FF 		bl	scan_files.constprop.1
 247              	.LVL20:
 248              		.loc 1 224 0
 249 0126 05F80690 		strb	r9, [r5, r6]
 250              		.loc 1 225 0
 251 012a 0446     		mov	r4, r0
 252 012c 0028     		cmp	r0, #0
 253 012e A8D0     		beq	.L9
 254              	.L10:
 255              	.LVL21:
 256              	.LBE9:
 257              		.loc 1 245 0
 258 0130 2046     		mov	r0, r4
 259 0132 13B0     		add	sp, sp, #76
 260              		.cfi_remember_state
 261              		.cfi_def_cfa_offset 28
 262              		@ sp needed
 263 0134 BDE8F083 		pop	{r4, r5, r6, r7, r8, r9, pc}
 264              	.LVL22:
 265              	.L15:
 266              		.cfi_restore_state
 267              		.loc 1 200 0
 268 0138 0DF10D04 		add	r4, sp, #13
 269 013c B4E7     		b	.L12
 270              	.LVL23:
 271              	.L13:
 272              	.LBB10:
 273              		.loc 1 232 0
 274 013e BDF80A10 		ldrh	r1, [sp, #10]
 275 0142 BDF80830 		ldrh	r3, [sp, #8]
 276              		.loc 1 233 0
 277 0146 1D48     		ldr	r0, .L26+8
 278              	.LVL24:
 279              		.loc 1 231 0
 280 0148 019A     		ldr	r2, [sp, #4]
 281 014a 6A64     		str	r2, [r5, #68]
 282              		.loc 1 232 0
 283 014c 03EB0143 		add	r3, r3, r1, lsl #16
 284              		.loc 1 227 0
ARM GAS  /tmp/ccLdaIGa.s 			page 6


 285 0150 4FF0410C 		mov	ip, #65
 286              		.loc 1 228 0
 287 0154 4FF0780E 		mov	lr, #120
 288              		.loc 1 229 0
 289 0158 6F22     		movs	r2, #111
 290              		.loc 1 232 0
 291 015a AB64     		str	r3, [r5, #72]
 292              		.loc 1 233 0
 293 015c A0F14B01 		sub	r1, r0, #75
 294              		.loc 1 230 0
 295 0160 6623     		movs	r3, #102
 296              		.loc 1 235 0
 297 0162 A0F10C09 		sub	r9, r0, #12
 298              		.loc 1 229 0
 299 0166 85F84220 		strb	r2, [r5, #66]
 300              		.loc 1 227 0
 301 016a 85F840C0 		strb	ip, [r5, #64]
 302              		.loc 1 228 0
 303 016e 85F841E0 		strb	lr, [r5, #65]
 304              		.loc 1 230 0
 305 0172 85F84330 		strb	r3, [r5, #67]
 306              		.loc 1 233 0
 307 0176 FFF7FEFF 		bl	strcpy
 308              	.LVL25:
 309              		.loc 1 234 0
 310 017a 2F23     		movs	r3, #47
 311              		.loc 1 235 0
 312 017c 06F10C00 		add	r0, r6, #12
 313 0180 2146     		mov	r1, r4
 314              		.loc 1 234 0
 315 0182 3B70     		strb	r3, [r7]
 316              		.loc 1 235 0
 317 0184 4844     		add	r0, r0, r9
 318 0186 FFF7FEFF 		bl	strcpy
 319              	.LVL26:
 320              		.loc 1 237 0
 321 018a 0E4C     		ldr	r4, .L26+16
 322              	.LVL27:
 323              		.loc 1 236 0
 324 018c 09F10C00 		add	r0, r9, #12
 325 0190 FFF7FEFF 		bl	strlen
 326              	.LVL28:
 327              		.loc 1 237 0
 328 0194 2368     		ldr	r3, [r4]
 329 0196 00F10D02 		add	r2, r0, #13
 330 019a 4946     		mov	r1, r9
 331 019c 1B68     		ldr	r3, [r3]
 332 019e 2046     		mov	r0, r4
 333              	.LVL29:
 334 01a0 9847     		blx	r3
 335              	.LVL30:
 336 01a2 6EE7     		b	.L9
 337              	.LVL31:
 338              	.L8:
 339              	.LBE10:
 340              		.loc 1 242 0
 341 01a4 0021     		movs	r1, #0
ARM GAS  /tmp/ccLdaIGa.s 			page 7


 342 01a6 0446     		mov	r4, r0
 343 01a8 FFF7FEFF 		bl	report_fatfs_error
 344              	.LVL32:
 345              		.loc 1 245 0
 346 01ac 2046     		mov	r0, r4
 347 01ae 13B0     		add	sp, sp, #76
 348              		.cfi_def_cfa_offset 28
 349              		@ sp needed
 350 01b0 BDE8F083 		pop	{r4, r5, r6, r7, r8, r9, pc}
 351              	.LVL33:
 352              	.L27:
 353              		.align	2
 354              	.L26:
 355 01b4 00000000 		.word	fbuff
 356 01b8 00000000 		.word	FileName
 357 01bc 4C000000 		.word	fbuff+76
 358 01c0 4D000000 		.word	fbuff+77
 359 01c4 00000000 		.word	BDU1
 360              		.cfi_endproc
 361              	.LFE146:
 362              		.size	scan_files.constprop.1, .-scan_files.constprop.1
 363              		.align	2
 364 01c8 AFF30080 		.p2align 4,,15
 364      AFF30080 
 365              		.global	InitPConnection
 366              		.thumb
 367              		.thumb_func
 368              		.type	InitPConnection, %function
 369              	InitPConnection:
 370              	.LFB132:
 371              		.loc 1 67 0
 372              		.cfi_startproc
 373              		@ args = 0, pretend = 0, frame = 0
 374              		@ frame_needed = 0, uses_anonymous_args = 0
 375 01d0 70B5     		push	{r4, r5, r6, lr}
 376              		.cfi_def_cfa_offset 16
 377              		.cfi_offset 4, -16
 378              		.cfi_offset 5, -12
 379              		.cfi_offset 6, -8
 380              		.cfi_offset 14, -4
 381              		.loc 1 70 0
 382 01d2 1C49     		ldr	r1, .L30
 383              		.loc 1 76 0
 384 01d4 1C4E     		ldr	r6, .L30+4
 385              		.loc 1 77 0
 386 01d6 1D4C     		ldr	r4, .L30+8
 387              		.loc 1 78 0
 388 01d8 1D4D     		ldr	r5, .L30+12
 389              		.loc 1 67 0
 390 01da 82B0     		sub	sp, sp, #8
 391              		.cfi_def_cfa_offset 24
 392              		.loc 1 70 0
 393 01dc C1F31601 		ubfx	r1, r1, #0, #23
 394 01e0 4FF00060 		mov	r0, #134217728
 395 01e4 FFF7FEFF 		bl	CalcCRC32
 396              	.LVL34:
 397 01e8 1A4B     		ldr	r3, .L30+16
ARM GAS  /tmp/ccLdaIGa.s 			page 8


 398 01ea 1860     		str	r0, [r3]
 399              		.loc 1 76 0
 400 01ec 3046     		mov	r0, r6
 401 01ee FFF7FEFF 		bl	mduObjectInit
 402              	.LVL35:
 403              		.loc 1 77 0
 404 01f2 2146     		mov	r1, r4
 405 01f4 3046     		mov	r0, r6
 406 01f6 FFF7FEFF 		bl	mduStart
 407              	.LVL36:
 408              		.loc 1 78 0
 409 01fa 2846     		mov	r0, r5
 410 01fc FFF7FEFF 		bl	bduObjectInit
 411              	.LVL37:
 412              		.loc 1 79 0
 413 0200 2846     		mov	r0, r5
 414 0202 1549     		ldr	r1, .L30+20
 415 0204 FFF7FEFF 		bl	bduStart
 416              	.LVL38:
 417              		.loc 1 86 0
 418 0208 2468     		ldr	r4, [r4]
 419 020a 226D     		ldr	r2, [r4, #80]
 420 020c 936B     		ldr	r3, [r2, #56]
 421 020e 23F40023 		bic	r3, r3, #524288
 422 0212 9363     		str	r3, [r2, #56]
 423              		.loc 1 87 0
 424 0214 4FF47A70 		mov	r0, #1000
 425 0218 FFF7FEFF 		bl	chThdSleep
 426              	.LVL39:
 427              		.loc 1 88 0
 428 021c 2046     		mov	r0, r4
 429 021e 0F49     		ldr	r1, .L30+24
 430 0220 FFF7FEFF 		bl	usbStart
 431              	.LVL40:
 432              		.loc 1 89 0
 433 0224 216D     		ldr	r1, [r4, #80]
 434              		.loc 1 91 0
 435 0226 0E4B     		ldr	r3, .L30+28
 436              		.loc 1 89 0
 437 0228 8A6B     		ldr	r2, [r1, #56]
 438              		.loc 1 91 0
 439 022a 0E48     		ldr	r0, .L30+32
 440              		.loc 1 89 0
 441 022c 42F40022 		orr	r2, r2, #524288
 442              		.loc 1 91 0
 443 0230 0024     		movs	r4, #0
 444              		.loc 1 89 0
 445 0232 8A63     		str	r2, [r1, #56]
 446              		.loc 1 91 0
 447 0234 4FF41471 		mov	r1, #592
 448 0238 0094     		str	r4, [sp]
 449 023a 4022     		movs	r2, #64
 450 023c FFF7FEFF 		bl	chThdCreateStatic
 451              	.LVL41:
 452              		.loc 1 93 0
 453 0240 02B0     		add	sp, sp, #8
 454              		.cfi_def_cfa_offset 16
ARM GAS  /tmp/ccLdaIGa.s 			page 9


 455              		@ sp needed
 456 0242 70BD     		pop	{r4, r5, r6, pc}
 457              	.L31:
 458              		.align	2
 459              	.L30:
 460 0244 00000000 		.word	_flash_end
 461 0248 00000000 		.word	MDU1
 462 024c 00000000 		.word	midiusbcfg
 463 0250 00000000 		.word	BDU1
 464 0254 00000000 		.word	fwid
 465 0258 00000000 		.word	bulkusbcfg
 466 025c 00000000 		.word	usbcfg
 467 0260 00000000 		.word	ThreadUSBDMidi
 468 0264 00000000 		.word	.LANCHOR0
 469              		.cfi_endproc
 470              	.LFE132:
 471              		.size	InitPConnection, .-InitPConnection
 472              		.align	2
 473 0268 AFF30080 		.p2align 4,,15
 473      AFF30080 
 474              		.global	GetFirmwareID
 475              		.thumb
 476              		.thumb_func
 477              		.type	GetFirmwareID, %function
 478              	GetFirmwareID:
 479              	.LFB133:
 480              		.loc 1 98 0
 481              		.cfi_startproc
 482              		@ args = 0, pretend = 0, frame = 0
 483              		@ frame_needed = 0, uses_anonymous_args = 0
 484              		@ link register save eliminated.
 485              		.loc 1 99 0
 486 0270 014B     		ldr	r3, .L33
 487              		.loc 1 100 0
 488 0272 1868     		ldr	r0, [r3]
 489 0274 7047     		bx	lr
 490              	.L34:
 491 0276 00BF     		.align	2
 492              	.L33:
 493 0278 00000000 		.word	fwid
 494              		.cfi_endproc
 495              	.LFE133:
 496              		.size	GetFirmwareID, .-GetFirmwareID
 497              		.align	2
 498 027c AFF30080 		.p2align 4,,15
 499              		.global	TransmitDisplayPckt
 500              		.thumb
 501              		.thumb_func
 502              		.type	TransmitDisplayPckt, %function
 503              	TransmitDisplayPckt:
 504              	.LFB134:
 505              		.loc 1 102 0
 506              		.cfi_startproc
 507              		@ args = 0, pretend = 0, frame = 0
 508              		@ frame_needed = 0, uses_anonymous_args = 0
 509              		@ link register save eliminated.
 510              		.loc 1 103 0
ARM GAS  /tmp/ccLdaIGa.s 			page 10


 511 0280 064B     		ldr	r3, .L41
 512 0282 D969     		ldr	r1, [r3, #28]
 513 0284 29B1     		cbz	r1, .L35
 514              		.loc 1 105 0
 515 0286 8A68     		ldr	r2, [r1, #8]
 516 0288 0332     		adds	r2, r2, #3
 517 028a 9200     		lsls	r2, r2, #2
 518              	.LVL42:
 519              		.loc 1 106 0
 520 028c B2F5006F 		cmp	r2, #2048
 521 0290 00D9     		bls	.L40
 522              	.LVL43:
 523              	.L35:
 524 0292 7047     		bx	lr
 525              	.LVL44:
 526              	.L40:
 527              		.loc 1 108 0
 528 0294 0248     		ldr	r0, .L41+4
 529 0296 0368     		ldr	r3, [r0]
 530 0298 1B68     		ldr	r3, [r3]
 531 029a 1847     		bx	r3
 532              	.LVL45:
 533              	.L42:
 534              		.align	2
 535              	.L41:
 536 029c 00000000 		.word	patchMeta
 537 02a0 00000000 		.word	BDU1
 538              		.cfi_endproc
 539              	.LFE134:
 540              		.size	TransmitDisplayPckt, .-TransmitDisplayPckt
 541              		.align	2
 542 02a4 AFF30080 		.p2align 4,,15
 542      AFF30080 
 542      AFF30080 
 543              		.global	LogTextMessage
 544              		.thumb
 545              		.thumb_func
 546              		.type	LogTextMessage, %function
 547              	LogTextMessage:
 548              	.LFB135:
 549              		.loc 1 113 0
 550              		.cfi_startproc
 551              		@ args = 4, pretend = 16, frame = 8
 552              		@ frame_needed = 0, uses_anonymous_args = 1
 553              	.LVL46:
 554 02b0 0FB4     		push	{r0, r1, r2, r3}
 555              		.cfi_def_cfa_offset 16
 556              		.cfi_offset 0, -16
 557              		.cfi_offset 1, -12
 558              		.cfi_offset 2, -8
 559              		.cfi_offset 3, -4
 560 02b2 10B5     		push	{r4, lr}
 561              		.cfi_def_cfa_offset 24
 562              		.cfi_offset 4, -24
 563              		.cfi_offset 14, -20
 564              		.loc 1 114 0
 565 02b4 154C     		ldr	r4, .L50
ARM GAS  /tmp/ccLdaIGa.s 			page 11


 566 02b6 D4F85432 		ldr	r3, [r4, #596]
 567 02ba 1B68     		ldr	r3, [r3]
 568 02bc 1A78     		ldrb	r2, [r3]	@ zero_extendqisi2
 569 02be 042A     		cmp	r2, #4
 570              		.loc 1 113 0
 571 02c0 82B0     		sub	sp, sp, #8
 572              		.cfi_def_cfa_offset 32
 573              		.loc 1 114 0
 574 02c2 04D0     		beq	.L49
 575              	.L43:
 576              		.loc 1 125 0
 577 02c4 02B0     		add	sp, sp, #8
 578              		.cfi_remember_state
 579              		.cfi_def_cfa_offset 24
 580              		@ sp needed
 581 02c6 BDE81040 		pop	{r4, lr}
 582              		.cfi_restore 14
 583              		.cfi_restore 4
 584              		.cfi_def_cfa_offset 16
 585 02ca 04B0     		add	sp, sp, #16
 586              		.cfi_restore 3
 587              		.cfi_restore 2
 588              		.cfi_restore 1
 589              		.cfi_restore 0
 590              		.cfi_def_cfa_offset 0
 591 02cc 7047     		bx	lr
 592              	.L49:
 593              		.cfi_restore_state
 594              		.loc 1 114 0 discriminator 1
 595 02ce 104B     		ldr	r3, .L50+4
 596 02d0 93F85032 		ldrb	r3, [r3, #592]	@ zero_extendqisi2
 597 02d4 002B     		cmp	r3, #0
 598 02d6 F5D0     		beq	.L43
 599              	.LBB11:
 600              		.loc 1 115 0
 601 02d8 02A9     		add	r1, sp, #8
 602 02da 0E4B     		ldr	r3, .L50+8
 603 02dc 41F8083D 		str	r3, [r1, #-8]!
 604              		.loc 1 116 0
 605 02e0 2368     		ldr	r3, [r4]
 606 02e2 2046     		mov	r0, r4
 607 02e4 1B68     		ldr	r3, [r3]
 608 02e6 9847     		blx	r3
 609              	.LVL47:
 610              		.loc 1 120 0
 611 02e8 05AB     		add	r3, sp, #20
 612              		.loc 1 121 0
 613 02ea 1A46     		mov	r2, r3
 614 02ec 2046     		mov	r0, r4
 615 02ee 0499     		ldr	r1, [sp, #16]
 616              		.loc 1 120 0
 617 02f0 0193     		str	r3, [sp, #4]
 618              		.loc 1 121 0
 619 02f2 FFF7FEFF 		bl	chvprintf
 620              	.LVL48:
 621              		.loc 1 123 0
 622 02f6 2368     		ldr	r3, [r4]
ARM GAS  /tmp/ccLdaIGa.s 			page 12


 623 02f8 2046     		mov	r0, r4
 624 02fa 9B68     		ldr	r3, [r3, #8]
 625 02fc 0021     		movs	r1, #0
 626 02fe 9847     		blx	r3
 627              	.LVL49:
 628              	.LBE11:
 629              		.loc 1 125 0
 630 0300 02B0     		add	sp, sp, #8
 631              		.cfi_def_cfa_offset 24
 632              		@ sp needed
 633 0302 BDE81040 		pop	{r4, lr}
 634              		.cfi_restore 4
 635              		.cfi_restore 14
 636              		.cfi_def_cfa_offset 16
 637 0306 04B0     		add	sp, sp, #16
 638              		.cfi_restore 0
 639              		.cfi_restore 1
 640              		.cfi_restore 2
 641              		.cfi_restore 3
 642              		.cfi_def_cfa_offset 0
 643 0308 7047     		bx	lr
 644              	.L51:
 645 030a 00BF     		.align	2
 646              	.L50:
 647 030c 00000000 		.word	BDU1
 648 0310 00000000 		.word	.LANCHOR0
 649 0314 41786F54 		.word	1416591425
 650              		.cfi_endproc
 651              	.LFE135:
 652              		.size	LogTextMessage, .-LogTextMessage
 653              		.align	2
 654 0318 AFF30080 		.p2align 4,,15
 654      AFF30080 
 655              		.global	PExTransmit
 656              		.thumb
 657              		.thumb_func
 658              		.type	PExTransmit, %function
 659              	PExTransmit:
 660              	.LFB136:
 661              		.loc 1 127 0
 662              		.cfi_startproc
 663              		@ args = 0, pretend = 0, frame = 32
 664              		@ frame_needed = 0, uses_anonymous_args = 0
 665 0320 2DE9F047 		push	{r4, r5, r6, r7, r8, r9, r10, lr}
 666              		.cfi_def_cfa_offset 32
 667              		.cfi_offset 4, -32
 668              		.cfi_offset 5, -28
 669              		.cfi_offset 6, -24
 670              		.cfi_offset 7, -20
 671              		.cfi_offset 8, -16
 672              		.cfi_offset 9, -12
 673              		.cfi_offset 10, -8
 674              		.cfi_offset 14, -4
 675              		.loc 1 128 0
 676 0324 DFF81091 		ldr	r9, .L75+16
 677 0328 D9F84420 		ldr	r2, [r9, #68]
 678 032c D9F84830 		ldr	r3, [r9, #72]
ARM GAS  /tmp/ccLdaIGa.s 			page 13


 679 0330 9A42     		cmp	r2, r3
 680              		.loc 1 127 0
 681 0332 88B0     		sub	sp, sp, #32
 682              		.cfi_def_cfa_offset 64
 683              		.loc 1 128 0
 684 0334 09D0     		beq	.L73
 685              	.L53:
 686              		.loc 1 129 0
 687 0336 0120     		movs	r0, #1
 688 0338 FFF7FEFF 		bl	chThdSleep
 689              	.LVL50:
 690              		.loc 1 130 0
 691 033c D9F84C30 		ldr	r3, [r9, #76]
 692 0340 3948     		ldr	r0, .L75
 693 0342 9847     		blx	r3
 694              	.LVL51:
 695              	.L52:
 696              		.loc 1 177 0
 697 0344 08B0     		add	sp, sp, #32
 698              		.cfi_remember_state
 699              		.cfi_def_cfa_offset 32
 700              		@ sp needed
 701 0346 BDE8F087 		pop	{r4, r5, r6, r7, r8, r9, r10, pc}
 702              	.L73:
 703              		.cfi_restore_state
 704              		.loc 1 128 0 discriminator 1
 705 034a D9F83830 		ldr	r3, [r9, #56]
 706 034e 002B     		cmp	r3, #0
 707 0350 F1D0     		beq	.L53
 708              		.loc 1 133 0
 709 0352 364E     		ldr	r6, .L75+4
 710 0354 D6F85432 		ldr	r3, [r6, #596]
 711 0358 002B     		cmp	r3, #0
 712 035a 30D1     		bne	.L63
 713 035c 344C     		ldr	r4, .L75+8
 714              	.L64:
 715              		.loc 1 160 0
 716 035e 2378     		ldrb	r3, [r4]	@ zero_extendqisi2
 717 0360 03F0FF04 		and	r4, r3, #255
 718 0364 002B     		cmp	r3, #0
 719 0366 EDD1     		bne	.L52
 720              	.LVL52:
 721              	.LBB12:
 722              		.loc 1 162 0 discriminator 1
 723 0368 324E     		ldr	r6, .L75+12
 724 036a 7369     		ldr	r3, [r6, #20]
 725 036c 002B     		cmp	r3, #0
 726 036e E9D0     		beq	.L52
 727              	.LBB13:
 728              		.loc 1 167 0
 729 0370 DFF8D880 		ldr	r8, .L75+36
 730              	.LBE13:
 731              		.loc 1 162 0
 732 0374 2546     		mov	r5, r4
 733              		.loc 1 163 0
 734 0376 3746     		mov	r7, r6
 735 0378 05E0     		b	.L62
ARM GAS  /tmp/ccLdaIGa.s 			page 14


 736              	.LVL53:
 737              	.L61:
 738              		.loc 1 162 0 discriminator 2
 739 037a 7369     		ldr	r3, [r6, #20]
 740 037c 0135     		adds	r5, r5, #1
 741              	.LVL54:
 742 037e AB42     		cmp	r3, r5
 743 0380 04F11404 		add	r4, r4, #20
 744 0384 DED9     		bls	.L52
 745              	.LVL55:
 746              	.L62:
 747              		.loc 1 163 0
 748 0386 B069     		ldr	r0, [r6, #24]
 749 0388 0219     		adds	r2, r0, r4
 750 038a 1369     		ldr	r3, [r2, #16]
 751 038c D907     		lsls	r1, r3, #31
 752 038e F4D5     		bpl	.L61
 753              	.LBB14:
 754              		.loc 1 171 0
 755 0390 D9F80010 		ldr	r1, [r9]
 756              		.loc 1 164 0
 757 0394 50F804A0 		ldr	r10, [r0, r4]
 758              	.LVL56:
 759              		.loc 1 168 0
 760 0398 D7F820E0 		ldr	lr, [r7, #32]
 761              		.loc 1 171 0
 762 039c D1F800C0 		ldr	ip, [r1]
 763 03a0 2548     		ldr	r0, .L75+16
 764              		.loc 1 165 0
 765 03a2 23F00103 		bic	r3, r3, #1
 766 03a6 1361     		str	r3, [r2, #16]
 767              		.loc 1 171 0
 768 03a8 01A9     		add	r1, sp, #4
 769              		.loc 1 170 0
 770 03aa CDF80CA0 		str	r10, [sp, #12]
 771              		.loc 1 167 0
 772 03ae CDF80480 		str	r8, [sp, #4]
 773              		.loc 1 169 0
 774 03b2 0495     		str	r5, [sp, #16]
 775              		.loc 1 168 0
 776 03b4 CDF808E0 		str	lr, [sp, #8]
 777              		.loc 1 171 0
 778 03b8 1022     		movs	r2, #16
 779 03ba E047     		blx	ip
 780              	.LVL57:
 781 03bc DDE7     		b	.L61
 782              	.LVL58:
 783              	.L63:
 784              	.LBE14:
 785              	.LBE12:
 786              	.LBB15:
 787              		.loc 1 137 0
 788 03be 1F4B     		ldr	r3, .L75+20
 789              		.loc 1 138 0
 790 03c0 1C4A     		ldr	r2, .L75+12
 791              		.loc 1 137 0
 792 03c2 1B68     		ldr	r3, [r3]
ARM GAS  /tmp/ccLdaIGa.s 			page 15


 793              		.loc 1 138 0
 794 03c4 116A     		ldr	r1, [r2, #32]
 795              		.loc 1 137 0
 796 03c6 0393     		str	r3, [sp, #12]
 797              		.loc 1 135 0
 798 03c8 1D4A     		ldr	r2, .L75+24
 799              		.loc 1 138 0
 800 03ca 0491     		str	r1, [sp, #16]
 801              		.loc 1 136 0
 802 03cc 0023     		movs	r3, #0
 803 03ce 0293     		str	r3, [sp, #8]
 804              		.loc 1 135 0
 805 03d0 0192     		str	r2, [sp, #4]
 806              		.loc 1 139 0
 807 03d2 FFF7FEFF 		bl	sysmon_getVoltage10
 808              	.LVL59:
 809              		.loc 1 140 0
 810 03d6 164C     		ldr	r4, .L75+8
 811              		.loc 1 139 0
 812 03d8 0546     		mov	r5, r0
 813 03da FFF7FEFF 		bl	sysmon_getVoltage50
 814              	.LVL60:
 815              		.loc 1 140 0
 816 03de 2378     		ldrb	r3, [r4]	@ zero_extendqisi2
 817              		.loc 1 139 0
 818 03e0 05EB0040 		add	r0, r5, r0, lsl #16
 819 03e4 0590     		str	r0, [sp, #20]
 820              		.loc 1 140 0
 821 03e6 BBB1     		cbz	r3, .L55
 822              		.loc 1 141 0
 823 03e8 6FF00403 		mvn	r3, #4
 824 03ec 0693     		str	r3, [sp, #24]
 825              	.L56:
 826              		.loc 1 145 0
 827 03ee 154A     		ldr	r2, .L75+28
 828              		.loc 1 146 0
 829 03f0 D9F80030 		ldr	r3, [r9]
 830              		.loc 1 145 0
 831 03f4 1278     		ldrb	r2, [r2]	@ zero_extendqisi2
 832 03f6 0792     		str	r2, [sp, #28]
 833              		.loc 1 146 0
 834 03f8 1B68     		ldr	r3, [r3]
 835 03fa 0F48     		ldr	r0, .L75+16
 836 03fc 01A9     		add	r1, sp, #4
 837 03fe 1C22     		movs	r2, #28
 838 0400 9847     		blx	r3
 839              	.LVL61:
 840              		.loc 1 153 0
 841 0402 2378     		ldrb	r3, [r4]	@ zero_extendqisi2
 842 0404 6BB1     		cbz	r3, .L74
 843              	.L57:
 844              		.loc 1 156 0
 845 0406 0123     		movs	r3, #1
 846 0408 86F85032 		strb	r3, [r6, #592]
 847              		.loc 1 157 0
 848 040c FFF7FEFF 		bl	exception_checkandreport
 849              	.LVL62:
ARM GAS  /tmp/ccLdaIGa.s 			page 16


 850              		.loc 1 158 0
 851 0410 0023     		movs	r3, #0
 852 0412 C6F85432 		str	r3, [r6, #596]
 853 0416 A2E7     		b	.L64
 854              	.L55:
 855              		.loc 1 143 0
 856 0418 0B4B     		ldr	r3, .L75+32
 857 041a 93F90030 		ldrsb	r3, [r3]
 858 041e 0693     		str	r3, [sp, #24]
 859 0420 E5E7     		b	.L56
 860              	.L74:
 861              		.loc 1 154 0
 862 0422 FFF7FEFF 		bl	TransmitDisplayPckt
 863              	.LVL63:
 864 0426 EEE7     		b	.L57
 865              	.L76:
 866              		.align	2
 867              	.L75:
 868 0428 30000000 		.word	BDU1+48
 869 042c 00000000 		.word	.LANCHOR0
 870 0430 00000000 		.word	patchStatus
 871 0434 00000000 		.word	patchMeta
 872 0438 00000000 		.word	BDU1
 873 043c 00000000 		.word	dspLoadPct
 874 0440 41786F41 		.word	1097824321
 875 0444 00000000 		.word	fs_ready
 876 0448 00000000 		.word	loadPatchIndex
 877 044c 41786F51 		.word	1366259777
 878              	.LBE15:
 879              		.cfi_endproc
 880              	.LFE136:
 881              		.size	PExTransmit, .-PExTransmit
 882              		.align	2
 883              		.p2align 4,,15
 884              		.global	ReadDirectoryListing
 885              		.thumb
 886              		.thumb_func
 887              		.type	ReadDirectoryListing, %function
 888              	ReadDirectoryListing:
 889              	.LFB138:
 890              		.loc 1 247 0
 891              		.cfi_startproc
 892              		@ args = 0, pretend = 0, frame = 8
 893              		@ frame_needed = 0, uses_anonymous_args = 0
 894 0450 2DE9F047 		push	{r4, r5, r6, r7, r8, r9, r10, lr}
 895              		.cfi_def_cfa_offset 32
 896              		.cfi_offset 4, -32
 897              		.cfi_offset 5, -28
 898              		.cfi_offset 6, -24
 899              		.cfi_offset 7, -20
 900              		.cfi_offset 8, -16
 901              		.cfi_offset 9, -12
 902              		.cfi_offset 10, -8
 903              		.cfi_offset 14, -4
 904 0454 82B0     		sub	sp, sp, #8
 905              		.cfi_def_cfa_offset 40
 906              		.loc 1 252 0
ARM GAS  /tmp/ccLdaIGa.s 			page 17


 907 0456 2648     		ldr	r0, .L82
 908 0458 01A9     		add	r1, sp, #4
 909 045a 6A46     		mov	r2, sp
 910 045c FFF7FEFF 		bl	f_getfree
 911              	.LVL64:
 912              		.loc 1 253 0
 913 0460 0028     		cmp	r0, #0
 914 0462 3FD1     		bne	.L81
 915              		.loc 1 268 0
 916 0464 9DE80C00 		ldmia	sp, {r2, r3}
 917              		.loc 1 263 0
 918 0468 224C     		ldr	r4, .L82+4
 919              		.loc 1 270 0
 920 046a 234E     		ldr	r6, .L82+8
 921              		.loc 1 267 0
 922 046c 6360     		str	r3, [r4, #4]
 923              		.loc 1 265 0
 924 046e 4FF06F08 		mov	r8, #111
 925              		.loc 1 266 0
 926 0472 6423     		movs	r3, #100
 927 0474 E370     		strb	r3, [r4, #3]
 928              		.loc 1 265 0
 929 0476 84F80280 		strb	r8, [r4, #2]
 930              		.loc 1 263 0
 931 047a 4FF0410A 		mov	r10, #65
 932              		.loc 1 264 0
 933 047e 4FF07809 		mov	r9, #120
 934              		.loc 1 270 0
 935 0482 3368     		ldr	r3, [r6]
 936              		.loc 1 268 0
 937 0484 9178     		ldrb	r1, [r2, #2]	@ zero_extendqisi2
 938              		.loc 1 263 0
 939 0486 84F800A0 		strb	r10, [r4]
 940              		.loc 1 264 0
 941 048a 84F80190 		strb	r9, [r4, #1]
 942              		.loc 1 269 0
 943 048e 4FF40072 		mov	r2, #512
 944 0492 0546     		mov	r5, r0
 945              		.loc 1 270 0
 946 0494 1B68     		ldr	r3, [r3]
 947              		.loc 1 268 0
 948 0496 A160     		str	r1, [r4, #8]
 949              		.loc 1 269 0
 950 0498 E260     		str	r2, [r4, #12]
 951              		.loc 1 270 0
 952 049a 2146     		mov	r1, r4
 953 049c 1022     		movs	r2, #16
 954 049e 3046     		mov	r0, r6
 955              	.LVL65:
 956 04a0 9847     		blx	r3
 957              	.LVL66:
 958              		.loc 1 273 0
 959 04a2 2F27     		movs	r7, #47
 960              		.loc 1 272 0
 961 04a4 0A20     		movs	r0, #10
 962 04a6 FFF7FEFF 		bl	chThdSleep
 963              	.LVL67:
ARM GAS  /tmp/ccLdaIGa.s 			page 18


 964              		.loc 1 274 0
 965 04aa 6560     		str	r5, [r4, #4]
 966              		.loc 1 273 0
 967 04ac 2760     		str	r7, [r4]
 968              		.loc 1 275 0
 969 04ae FFF7CFFD 		bl	scan_files.constprop.1
 970              	.LVL68:
 971              		.loc 1 286 0
 972 04b2 3368     		ldr	r3, [r6]
 973              		.loc 1 278 0
 974 04b4 84F840A0 		strb	r10, [r4, #64]
 975              		.loc 1 281 0
 976 04b8 6622     		movs	r2, #102
 977 04ba 84F84320 		strb	r2, [r4, #67]
 978              		.loc 1 279 0
 979 04be 84F84190 		strb	r9, [r4, #65]
 980              		.loc 1 280 0
 981 04c2 84F84280 		strb	r8, [r4, #66]
 982              		.loc 1 284 0
 983 04c6 84F84C70 		strb	r7, [r4, #76]
 984              		.loc 1 285 0
 985 04ca 84F84D50 		strb	r5, [r4, #77]
 986              		.loc 1 282 0
 987 04ce 6564     		str	r5, [r4, #68]
 988              		.loc 1 283 0
 989 04d0 A564     		str	r5, [r4, #72]
 990              		.loc 1 286 0
 991 04d2 04F14001 		add	r1, r4, #64
 992 04d6 1B68     		ldr	r3, [r3]
 993 04d8 3046     		mov	r0, r6
 994 04da 0E22     		movs	r2, #14
 995 04dc 9847     		blx	r3
 996              	.LVL69:
 997              		.loc 1 288 0
 998 04de 02B0     		add	sp, sp, #8
 999              		.cfi_remember_state
 1000              		.cfi_def_cfa_offset 32
 1001              		@ sp needed
 1002 04e0 BDE8F087 		pop	{r4, r5, r6, r7, r8, r9, r10, pc}
 1003              	.LVL70:
 1004              	.L81:
 1005              		.cfi_restore_state
 1006              		.loc 1 254 0
 1007 04e4 0021     		movs	r1, #0
 1008 04e6 FFF7FEFF 		bl	report_fatfs_error
 1009              	.LVL71:
 1010              		.loc 1 288 0
 1011 04ea 02B0     		add	sp, sp, #8
 1012              		.cfi_def_cfa_offset 32
 1013              		@ sp needed
 1014 04ec BDE8F087 		pop	{r4, r5, r6, r7, r8, r9, r10, pc}
 1015              	.L83:
 1016              		.align	2
 1017              	.L82:
 1018 04f0 0C000000 		.word	.LC1
 1019 04f4 00000000 		.word	fbuff
 1020 04f8 00000000 		.word	BDU1
ARM GAS  /tmp/ccLdaIGa.s 			page 19


 1021              		.cfi_endproc
 1022              	.LFE138:
 1023              		.size	ReadDirectoryListing, .-ReadDirectoryListing
 1024              		.align	2
 1025 04fc AFF30080 		.p2align 4,,15
 1026              		.global	ManipulateFile
 1027              		.thumb
 1028              		.thumb_func
 1029              		.type	ManipulateFile, %function
 1030              	ManipulateFile:
 1031              	.LFB139:
 1032              		.loc 1 315 0
 1033              		.cfi_startproc
 1034              		@ args = 0, pretend = 0, frame = 32
 1035              		@ frame_needed = 0, uses_anonymous_args = 0
 1036 0500 F0B5     		push	{r4, r5, r6, r7, lr}
 1037              		.cfi_def_cfa_offset 20
 1038              		.cfi_offset 4, -20
 1039              		.cfi_offset 5, -16
 1040              		.cfi_offset 6, -12
 1041              		.cfi_offset 7, -8
 1042              		.cfi_offset 14, -4
 1043              		.loc 1 317 0
 1044 0502 564C     		ldr	r4, .L140
 1045              		.loc 1 315 0
 1046 0504 89B0     		sub	sp, sp, #36
 1047              		.cfi_def_cfa_offset 56
 1048              		.loc 1 316 0
 1049 0506 FFF7FEFF 		bl	sdcard_attemptMountIfUnmounted
 1050              	.LVL72:
 1051              		.loc 1 317 0
 1052 050a 2378     		ldrb	r3, [r4]	@ zero_extendqisi2
 1053 050c 6BB9     		cbnz	r3, .L130
 1054              		.loc 1 334 0
 1055 050e 6378     		ldrb	r3, [r4, #1]	@ zero_extendqisi2
 1056 0510 642B     		cmp	r3, #100
 1057 0512 2AD0     		beq	.L131
 1058              		.loc 1 349 0
 1059 0514 662B     		cmp	r3, #102
 1060 0516 4FD0     		beq	.L132
 1061              		.loc 1 364 0
 1062 0518 442B     		cmp	r3, #68
 1063 051a 1DD0     		beq	.L133
 1064              		.loc 1 371 0
 1065 051c 432B     		cmp	r3, #67
 1066 051e 00F08D80 		beq	.L134
 1067              		.loc 1 378 0
 1068 0522 492B     		cmp	r3, #73
 1069 0524 5DD0     		beq	.L135
 1070              	.L84:
 1071              		.loc 1 400 0
 1072 0526 09B0     		add	sp, sp, #36
 1073              		.cfi_remember_state
 1074              		.cfi_def_cfa_offset 20
 1075              		@ sp needed
 1076 0528 F0BD     		pop	{r4, r5, r6, r7, pc}
 1077              	.L130:
ARM GAS  /tmp/ccLdaIGa.s 			page 20


 1078              		.cfi_restore_state
 1079              	.LBB16:
 1080              		.loc 1 320 0
 1081 052a 4D48     		ldr	r0, .L140+4
 1082 052c 2146     		mov	r1, r4
 1083 052e 0A22     		movs	r2, #10
 1084 0530 FFF7FEFF 		bl	f_open
 1085              	.LVL73:
 1086              		.loc 1 321 0
 1087 0534 0028     		cmp	r0, #0
 1088 0536 3BD1     		bne	.L136
 1089              	.LVL74:
 1090              	.L86:
 1091              		.loc 1 324 0
 1092 0538 4A4B     		ldr	r3, .L140+8
 1093 053a 4948     		ldr	r0, .L140+4
 1094 053c 1968     		ldr	r1, [r3]
 1095 053e FFF7FEFF 		bl	f_lseek
 1096              	.LVL75:
 1097              		.loc 1 325 0
 1098 0542 88BB     		cbnz	r0, .L137
 1099              	.LVL76:
 1100              	.L87:
 1101              		.loc 1 328 0
 1102 0544 4648     		ldr	r0, .L140+4
 1103 0546 0021     		movs	r1, #0
 1104 0548 FFF7FEFF 		bl	f_lseek
 1105              	.LVL77:
 1106              		.loc 1 329 0
 1107 054c 0028     		cmp	r0, #0
 1108 054e EAD0     		beq	.L84
 1109              		.loc 1 330 0
 1110 0550 4249     		ldr	r1, .L140
 1111 0552 FFF7FEFF 		bl	report_fatfs_error
 1112              	.LVL78:
 1113 0556 E6E7     		b	.L84
 1114              	.L133:
 1115              	.LBE16:
 1116              	.LBB17:
 1117              		.loc 1 367 0
 1118 0558 A01D     		adds	r0, r4, #6
 1119 055a FFF7FEFF 		bl	f_unlink
 1120              	.LVL79:
 1121              		.loc 1 368 0
 1122 055e 0028     		cmp	r0, #0
 1123 0560 E1D0     		beq	.L84
 1124              	.LVL80:
 1125              	.L129:
 1126              	.LBE17:
 1127              	.LBB18:
 1128              		.loc 1 376 0
 1129 0562 A11D     		adds	r1, r4, #6
 1130 0564 FFF7FEFF 		bl	report_fatfs_error
 1131              	.LVL81:
 1132 0568 DDE7     		b	.L84
 1133              	.L131:
 1134              	.LBE18:
ARM GAS  /tmp/ccLdaIGa.s 			page 21


 1135              	.LBB19:
 1136              		.loc 1 337 0
 1137 056a A01D     		adds	r0, r4, #6
 1138 056c FFF7FEFF 		bl	f_mkdir
 1139              	.LVL82:
 1140              		.loc 1 338 0
 1141 0570 10F0F70F 		tst	r0, #247
 1142 0574 02D0     		beq	.L91
 1143              		.loc 1 339 0
 1144 0576 A11D     		adds	r1, r4, #6
 1145 0578 FFF7FEFF 		bl	report_fatfs_error
 1146              	.LVL83:
 1147              	.L91:
 1148              		.loc 1 344 0
 1149 057c 6179     		ldrb	r1, [r4, #5]	@ zero_extendqisi2
 1150              		.loc 1 343 0
 1151 057e E578     		ldrb	r5, [r4, #3]	@ zero_extendqisi2
 1152 0580 A278     		ldrb	r2, [r4, #2]	@ zero_extendqisi2
 1153              		.loc 1 344 0
 1154 0582 2379     		ldrb	r3, [r4, #4]	@ zero_extendqisi2
 1155              		.loc 1 345 0
 1156 0584 3848     		ldr	r0, .L140+12
 1157              		.loc 1 344 0
 1158 0586 03EB0123 		add	r3, r3, r1, lsl #8
 1159              		.loc 1 343 0
 1160 058a 02EB0522 		add	r2, r2, r5, lsl #8
 1161              		.loc 1 345 0
 1162 058e 6946     		mov	r1, sp
 1163              		.loc 1 343 0
 1164 0590 ADF80420 		strh	r2, [sp, #4]	@ movhi
 1165              		.loc 1 344 0
 1166 0594 ADF80630 		strh	r3, [sp, #6]	@ movhi
 1167              		.loc 1 345 0
 1168 0598 FFF7FEFF 		bl	f_utime
 1169              	.LVL84:
 1170              		.loc 1 346 0
 1171 059c 0028     		cmp	r0, #0
 1172 059e C2D0     		beq	.L84
 1173              	.LVL85:
 1174              	.L128:
 1175              	.LBE19:
 1176              	.LBB20:
 1177              		.loc 1 362 0
 1178 05a0 3149     		ldr	r1, .L140+12
 1179 05a2 FFF7FEFF 		bl	report_fatfs_error
 1180              	.LVL86:
 1181 05a6 BEE7     		b	.L84
 1182              	.LVL87:
 1183              	.L137:
 1184              	.LBE20:
 1185              	.LBB21:
 1186              		.loc 1 326 0
 1187 05a8 2C49     		ldr	r1, .L140
 1188 05aa FFF7FEFF 		bl	report_fatfs_error
 1189              	.LVL88:
 1190 05ae C9E7     		b	.L87
 1191              	.LVL89:
ARM GAS  /tmp/ccLdaIGa.s 			page 22


 1192              	.L136:
 1193              		.loc 1 322 0
 1194 05b0 2146     		mov	r1, r4
 1195 05b2 FFF7FEFF 		bl	report_fatfs_error
 1196              	.LVL90:
 1197 05b6 BFE7     		b	.L86
 1198              	.L132:
 1199              	.LBE21:
 1200              	.LBB22:
 1201              		.loc 1 352 0
 1202 05b8 2948     		ldr	r0, .L140+4
 1203 05ba A11D     		adds	r1, r4, #6
 1204 05bc 0A22     		movs	r2, #10
 1205 05be FFF7FEFF 		bl	f_open
 1206              	.LVL91:
 1207              		.loc 1 353 0
 1208 05c2 0028     		cmp	r0, #0
 1209 05c4 45D1     		bne	.L138
 1210              	.LVL92:
 1211              	.L94:
 1212              		.loc 1 356 0
 1213 05c6 274B     		ldr	r3, .L140+8
 1214 05c8 2548     		ldr	r0, .L140+4
 1215 05ca 1968     		ldr	r1, [r3]
 1216 05cc FFF7FEFF 		bl	f_lseek
 1217              	.LVL93:
 1218              		.loc 1 357 0
 1219 05d0 0028     		cmp	r0, #0
 1220 05d2 3AD1     		bne	.L139
 1221              	.LVL94:
 1222              	.L95:
 1223              		.loc 1 360 0
 1224 05d4 2248     		ldr	r0, .L140+4
 1225 05d6 0021     		movs	r1, #0
 1226 05d8 FFF7FEFF 		bl	f_lseek
 1227              	.LVL95:
 1228              		.loc 1 361 0
 1229 05dc 0028     		cmp	r0, #0
 1230 05de A2D0     		beq	.L84
 1231 05e0 DEE7     		b	.L128
 1232              	.LVL96:
 1233              	.L135:
 1234              	.LBE22:
 1235              	.LBB23:
 1236              		.loc 1 382 0
 1237 05e2 224D     		ldr	r5, .L140+16
 1238 05e4 0695     		str	r5, [sp, #24]
 1239              		.loc 1 383 0
 1240 05e6 4FF48073 		mov	r3, #256
 1241              		.loc 1 384 0
 1242 05ea A01D     		adds	r0, r4, #6
 1243 05ec 6946     		mov	r1, sp
 1244              		.loc 1 383 0
 1245 05ee 0793     		str	r3, [sp, #28]
 1246              		.loc 1 384 0
 1247 05f0 FFF7FEFF 		bl	f_stat
 1248              	.LVL97:
ARM GAS  /tmp/ccLdaIGa.s 			page 23


 1249              		.loc 1 385 0
 1250 05f4 0028     		cmp	r0, #0
 1251 05f6 96D1     		bne	.L84
 1252              	.LVL98:
 1253              	.LBB24:
 1254              		.loc 1 392 0
 1255 05f8 BDF80620 		ldrh	r2, [sp, #6]
 1256 05fc BDF80430 		ldrh	r3, [sp, #4]
 1257              		.loc 1 391 0
 1258 0600 0099     		ldr	r1, [sp]
 1259 0602 6960     		str	r1, [r5, #4]
 1260              		.loc 1 392 0
 1261 0604 03EB0243 		add	r3, r3, r2, lsl #16
 1262              		.loc 1 393 0
 1263 0608 05F10C06 		add	r6, r5, #12
 1264 060c A11D     		adds	r1, r4, #6
 1265              		.loc 1 387 0
 1266 060e 4FF0410E 		mov	lr, #65
 1267              		.loc 1 390 0
 1268 0612 6622     		movs	r2, #102
 1269              		.loc 1 388 0
 1270 0614 7827     		movs	r7, #120
 1271              		.loc 1 389 0
 1272 0616 6F24     		movs	r4, #111
 1273              		.loc 1 392 0
 1274 0618 AB60     		str	r3, [r5, #8]
 1275              		.loc 1 389 0
 1276 061a AC70     		strb	r4, [r5, #2]
 1277              		.loc 1 390 0
 1278 061c EA70     		strb	r2, [r5, #3]
 1279              		.loc 1 393 0
 1280 061e 3046     		mov	r0, r6
 1281              	.LVL99:
 1282              		.loc 1 387 0
 1283 0620 85F800E0 		strb	lr, [r5]
 1284              		.loc 1 388 0
 1285 0624 6F70     		strb	r7, [r5, #1]
 1286              		.loc 1 393 0
 1287 0626 FFF7FEFF 		bl	stpcpy
 1288              	.LVL100:
 1289              		.loc 1 395 0
 1290 062a 114B     		ldr	r3, .L140+20
 1291 062c 1C68     		ldr	r4, [r3]
 1292              		.loc 1 393 0
 1293 062e 821B     		subs	r2, r0, r6
 1294              		.loc 1 395 0
 1295 0630 0D32     		adds	r2, r2, #13
 1296 0632 2946     		mov	r1, r5
 1297 0634 2468     		ldr	r4, [r4]
 1298 0636 1846     		mov	r0, r3
 1299              	.LVL101:
 1300 0638 A047     		blx	r4
 1301              	.LVL102:
 1302 063a 74E7     		b	.L84
 1303              	.LVL103:
 1304              	.L134:
 1305              	.LBE24:
ARM GAS  /tmp/ccLdaIGa.s 			page 24


 1306              	.LBE23:
 1307              	.LBB25:
 1308              		.loc 1 374 0
 1309 063c A01D     		adds	r0, r4, #6
 1310 063e FFF7FEFF 		bl	f_chdir
 1311              	.LVL104:
 1312              		.loc 1 375 0
 1313 0642 0028     		cmp	r0, #0
 1314 0644 3FF46FAF 		beq	.L84
 1315 0648 8BE7     		b	.L129
 1316              	.LVL105:
 1317              	.L139:
 1318              	.LBE25:
 1319              	.LBB26:
 1320              		.loc 1 358 0
 1321 064a 0749     		ldr	r1, .L140+12
 1322 064c FFF7FEFF 		bl	report_fatfs_error
 1323              	.LVL106:
 1324 0650 C0E7     		b	.L95
 1325              	.LVL107:
 1326              	.L138:
 1327              		.loc 1 354 0
 1328 0652 A11D     		adds	r1, r4, #6
 1329 0654 FFF7FEFF 		bl	report_fatfs_error
 1330              	.LVL108:
 1331 0658 B5E7     		b	.L94
 1332              	.L141:
 1333 065a 00BF     		.align	2
 1334              	.L140:
 1335 065c 00000000 		.word	FileName
 1336 0660 00000000 		.word	pFile
 1337 0664 00000000 		.word	pFileSize
 1338 0668 06000000 		.word	FileName+6
 1339 066c 00000000 		.word	fbuff
 1340 0670 00000000 		.word	BDU1
 1341              	.LBE26:
 1342              		.cfi_endproc
 1343              	.LFE139:
 1344              		.size	ManipulateFile, .-ManipulateFile
 1345              		.align	2
 1346 0674 AFF30080 		.p2align 4,,15
 1346      AFF30080 
 1346      AFF30080 
 1347              		.global	CloseFile
 1348              		.thumb
 1349              		.thumb_func
 1350              		.type	CloseFile, %function
 1351              	CloseFile:
 1352              	.LFB140:
 1353              		.loc 1 402 0
 1354              		.cfi_startproc
 1355              		@ args = 0, pretend = 0, frame = 32
 1356              		@ frame_needed = 0, uses_anonymous_args = 0
 1357 0680 10B5     		push	{r4, lr}
 1358              		.cfi_def_cfa_offset 8
 1359              		.cfi_offset 4, -8
 1360              		.cfi_offset 14, -4
ARM GAS  /tmp/ccLdaIGa.s 			page 25


 1361              		.loc 1 404 0
 1362 0682 1248     		ldr	r0, .L155
 1363              		.loc 1 402 0
 1364 0684 88B0     		sub	sp, sp, #32
 1365              		.cfi_def_cfa_offset 40
 1366              		.loc 1 404 0
 1367 0686 FFF7FEFF 		bl	f_close
 1368              	.LVL109:
 1369              		.loc 1 405 0
 1370 068a D8B9     		cbnz	r0, .L153
 1371              	.LVL110:
 1372              	.L143:
 1373              		.loc 1 408 0
 1374 068c 104C     		ldr	r4, .L155+4
 1375 068e 2378     		ldrb	r3, [r4]	@ zero_extendqisi2
 1376 0690 0BB1     		cbz	r3, .L154
 1377              	.L142:
 1378              		.loc 1 418 0
 1379 0692 08B0     		add	sp, sp, #32
 1380              		.cfi_remember_state
 1381              		.cfi_def_cfa_offset 8
 1382              		@ sp needed
 1383 0694 10BD     		pop	{r4, pc}
 1384              	.L154:
 1385              		.cfi_restore_state
 1386              	.LBB30:
 1387              	.LBB31:
 1388              	.LBB32:
 1389              		.loc 1 411 0
 1390 0696 E078     		ldrb	r0, [r4, #3]	@ zero_extendqisi2
 1391              		.loc 1 412 0
 1392 0698 6179     		ldrb	r1, [r4, #5]	@ zero_extendqisi2
 1393              		.loc 1 411 0
 1394 069a A278     		ldrb	r2, [r4, #2]	@ zero_extendqisi2
 1395              		.loc 1 412 0
 1396 069c 2379     		ldrb	r3, [r4, #4]	@ zero_extendqisi2
 1397              		.loc 1 411 0
 1398 069e 02EB0022 		add	r2, r2, r0, lsl #8
 1399              		.loc 1 412 0
 1400 06a2 03EB0123 		add	r3, r3, r1, lsl #8
 1401              		.loc 1 413 0
 1402 06a6 A01D     		adds	r0, r4, #6
 1403 06a8 6946     		mov	r1, sp
 1404              		.loc 1 411 0
 1405 06aa ADF80420 		strh	r2, [sp, #4]	@ movhi
 1406              		.loc 1 412 0
 1407 06ae ADF80630 		strh	r3, [sp, #6]	@ movhi
 1408              		.loc 1 413 0
 1409 06b2 FFF7FEFF 		bl	f_utime
 1410              	.LVL111:
 1411              		.loc 1 414 0
 1412 06b6 0028     		cmp	r0, #0
 1413 06b8 EBD0     		beq	.L142
 1414              		.loc 1 415 0
 1415 06ba A11D     		adds	r1, r4, #6
 1416 06bc FFF7FEFF 		bl	report_fatfs_error
 1417              	.LVL112:
ARM GAS  /tmp/ccLdaIGa.s 			page 26


 1418              	.LBE32:
 1419              	.LBE31:
 1420              	.LBE30:
 1421              		.loc 1 418 0
 1422 06c0 08B0     		add	sp, sp, #32
 1423              		.cfi_remember_state
 1424              		.cfi_def_cfa_offset 8
 1425              		@ sp needed
 1426 06c2 10BD     		pop	{r4, pc}
 1427              	.LVL113:
 1428              	.L153:
 1429              		.cfi_restore_state
 1430              		.loc 1 406 0
 1431 06c4 0249     		ldr	r1, .L155+4
 1432 06c6 FFF7FEFF 		bl	report_fatfs_error
 1433              	.LVL114:
 1434 06ca DFE7     		b	.L143
 1435              	.L156:
 1436              		.align	2
 1437              	.L155:
 1438 06cc 00000000 		.word	pFile
 1439 06d0 00000000 		.word	FileName
 1440              		.cfi_endproc
 1441              	.LFE140:
 1442              		.size	CloseFile, .-CloseFile
 1443              		.align	2
 1444 06d4 AFF30080 		.p2align 4,,15
 1444      AFF30080 
 1444      AFF30080 
 1445              		.global	CopyPatchToFlash
 1446              		.thumb
 1447              		.thumb_func
 1448              		.type	CopyPatchToFlash, %function
 1449              	CopyPatchToFlash:
 1450              	.LFB141:
 1451              		.loc 1 420 0
 1452              		.cfi_startproc
 1453              		@ args = 0, pretend = 0, frame = 0
 1454              		@ frame_needed = 0, uses_anonymous_args = 0
 1455 06e0 38B5     		push	{r3, r4, r5, lr}
 1456              		.cfi_def_cfa_offset 16
 1457              		.cfi_offset 3, -16
 1458              		.cfi_offset 4, -12
 1459              		.cfi_offset 5, -8
 1460              		.cfi_offset 14, -4
 1461              		.loc 1 421 0
 1462 06e2 FFF7FEFF 		bl	flash_unlock
 1463              	.LVL115:
 1464              		.loc 1 422 0
 1465 06e6 0B20     		movs	r0, #11
 1466 06e8 FFF7FEFF 		bl	flash_Erase_sector
 1467              	.LVL116:
 1468              		.loc 1 423 0
 1469 06ec 0F4C     		ldr	r4, .L167
 1470              		.loc 1 426 0
 1471 06ee 104D     		ldr	r5, .L167+4
 1472              	.LVL117:
ARM GAS  /tmp/ccLdaIGa.s 			page 27


 1473              	.L158:
 1474 06f0 04F16840 		add	r0, r4, #-402653184
 1475              		.loc 1 427 0
 1476 06f4 54F8041B 		ldr	r1, [r4], #4
 1477              	.LVL118:
 1478 06f8 00F54F20 		add	r0, r0, #847872
 1479 06fc FFF7FEFF 		bl	flash_ProgramWord
 1480              	.LVL119:
 1481              		.loc 1 426 0
 1482 0700 AC42     		cmp	r4, r5
 1483 0702 F5D1     		bne	.L158
 1484 0704 0B4B     		ldr	r3, .L167+8
 1485 0706 0C4A     		ldr	r2, .L167+12
 1486              		.loc 1 436 0
 1487 0708 0C4D     		ldr	r5, .L167+16
 1488 070a 0024     		movs	r4, #0
 1489              	.LVL120:
 1490              	.L160:
 1491              		.loc 1 437 0
 1492 070c 53F8041F 		ldr	r1, [r3, #4]!
 1493 0710 52F8040F 		ldr	r0, [r2, #4]!
 1494              	.LVL121:
 1495 0714 8842     		cmp	r0, r1
 1496              		.loc 1 438 0
 1497 0716 18BF     		it	ne
 1498 0718 0134     		addne	r4, r4, #1
 1499              	.LVL122:
 1500              		.loc 1 436 0
 1501 071a AB42     		cmp	r3, r5
 1502 071c F6D1     		bne	.L160
 1503              		.loc 1 443 0
 1504 071e 04B1     		cbz	r4, .L161
 1505              	.L165:
 1506              		.loc 1 446 0 discriminator 1
 1507 0720 FEE7     		b	.L165
 1508              	.L161:
 1509              		.loc 1 448 0
 1510 0722 074B     		ldr	r3, .L167+20
 1511 0724 0122     		movs	r2, #1
 1512              	.LVL123:
 1513 0726 C3F85422 		str	r2, [r3, #596]
 1514 072a 38BD     		pop	{r3, r4, r5, pc}
 1515              	.LVL124:
 1516              	.L168:
 1517              		.align	2
 1518              	.L167:
 1519 072c 00100120 		.word	536940544
 1520 0730 00C00120 		.word	536985600
 1521 0734 FC0F0120 		.word	536940540
 1522 0738 FCFF0D08 		.word	135135228
 1523 073c FCBF0120 		.word	536985596
 1524 0740 00000000 		.word	.LANCHOR0
 1525              		.cfi_endproc
 1526              	.LFE141:
 1527              		.size	CopyPatchToFlash, .-CopyPatchToFlash
 1528              		.align	2
 1529 0744 AFF30080 		.p2align 4,,15
ARM GAS  /tmp/ccLdaIGa.s 			page 28


 1529      AFF30080 
 1529      AFF30080 
 1530              		.global	ReplyFWVersion
 1531              		.thumb
 1532              		.thumb_func
 1533              		.type	ReplyFWVersion, %function
 1534              	ReplyFWVersion:
 1535              	.LFB142:
 1536              		.loc 1 451 0
 1537              		.cfi_startproc
 1538              		@ args = 0, pretend = 0, frame = 16
 1539              		@ frame_needed = 0, uses_anonymous_args = 0
 1540 0750 2DE9F047 		push	{r4, r5, r6, r7, r8, r9, r10, lr}
 1541              		.cfi_def_cfa_offset 32
 1542              		.cfi_offset 4, -32
 1543              		.cfi_offset 5, -28
 1544              		.cfi_offset 6, -24
 1545              		.cfi_offset 7, -20
 1546              		.cfi_offset 8, -16
 1547              		.cfi_offset 9, -12
 1548              		.cfi_offset 10, -8
 1549              		.cfi_offset 14, -4
 1550              	.LBB33:
 1551              	.LBB34:
 1552              		.loc 1 99 0
 1553 0754 1D4B     		ldr	r3, .L171
 1554              	.LBE34:
 1555              	.LBE33:
 1556              		.loc 1 470 0
 1557 0756 1E48     		ldr	r0, .L171+4
 1558              	.LBB36:
 1559              	.LBB35:
 1560              		.loc 1 99 0
 1561 0758 1B68     		ldr	r3, [r3]
 1562              	.LVL125:
 1563              	.LBE35:
 1564              	.LBE36:
 1565              		.loc 1 470 0
 1566 075a 0568     		ldr	r5, [r0]
 1567              		.loc 1 451 0
 1568 075c 84B0     		sub	sp, sp, #16
 1569              		.cfi_def_cfa_offset 48
 1570              		.loc 1 457 0
 1571 075e 0124     		movs	r4, #1
 1572              		.loc 1 465 0
 1573 0760 8DF80B30 		strb	r3, [sp, #11]
 1574              		.loc 1 458 0
 1575 0764 0021     		movs	r1, #0
 1576              		.loc 1 462 0
 1577 0766 4FEA136A 		lsr	r10, r3, #24
 1578              		.loc 1 463 0
 1579 076a 4FEA1349 		lsr	r9, r3, #16
 1580              		.loc 1 454 0
 1581 076e 4FF0780C 		mov	ip, #120
 1582              		.loc 1 455 0
 1583 0772 4FF06F0E 		mov	lr, #111
 1584              		.loc 1 468 0
ARM GAS  /tmp/ccLdaIGa.s 			page 29


 1585 0776 1022     		movs	r2, #16
 1586              		.loc 1 464 0
 1587 0778 1B0A     		lsrs	r3, r3, #8
 1588              	.LVL126:
 1589              		.loc 1 453 0
 1590 077a 4FF04108 		mov	r8, #65
 1591              		.loc 1 456 0
 1592 077e 5627     		movs	r7, #86
 1593              		.loc 1 466 0
 1594 0780 2026     		movs	r6, #32
 1595              		.loc 1 458 0
 1596 0782 8DF80510 		strb	r1, [sp, #5]
 1597              		.loc 1 459 0
 1598 0786 8DF80610 		strb	r1, [sp, #6]
 1599              		.loc 1 469 0
 1600 078a 8DF80F10 		strb	r1, [sp, #15]
 1601              		.loc 1 462 0
 1602 078e 8DF808A0 		strb	r10, [sp, #8]
 1603              		.loc 1 463 0
 1604 0792 8DF80990 		strb	r9, [sp, #9]
 1605              		.loc 1 464 0
 1606 0796 8DF80A30 		strb	r3, [sp, #10]
 1607              		.loc 1 453 0
 1608 079a 8DF80080 		strb	r8, [sp]
 1609              		.loc 1 454 0
 1610 079e 8DF801C0 		strb	ip, [sp, #1]
 1611              		.loc 1 455 0
 1612 07a2 8DF802E0 		strb	lr, [sp, #2]
 1613              		.loc 1 456 0
 1614 07a6 8DF80370 		strb	r7, [sp, #3]
 1615              		.loc 1 457 0
 1616 07aa 8DF80440 		strb	r4, [sp, #4]
 1617              		.loc 1 460 0
 1618 07ae 8DF80740 		strb	r4, [sp, #7]
 1619              		.loc 1 467 0
 1620 07b2 8DF80D40 		strb	r4, [sp, #13]
 1621              		.loc 1 466 0
 1622 07b6 8DF80C60 		strb	r6, [sp, #12]
 1623              		.loc 1 468 0
 1624 07ba 8DF80E20 		strb	r2, [sp, #14]
 1625              		.loc 1 470 0
 1626 07be 2B68     		ldr	r3, [r5]
 1627 07c0 6946     		mov	r1, sp
 1628 07c2 9847     		blx	r3
 1629              	.LVL127:
 1630              		.loc 1 472 0
 1631 07c4 04B0     		add	sp, sp, #16
 1632              		.cfi_def_cfa_offset 32
 1633              		@ sp needed
 1634 07c6 BDE8F087 		pop	{r4, r5, r6, r7, r8, r9, r10, pc}
 1635              	.L172:
 1636 07ca 00BF     		.align	2
 1637              	.L171:
 1638 07cc 00000000 		.word	fwid
 1639 07d0 00000000 		.word	BDU1
 1640              		.cfi_endproc
 1641              	.LFE142:
ARM GAS  /tmp/ccLdaIGa.s 			page 30


 1642              		.size	ReplyFWVersion, .-ReplyFWVersion
 1643              		.align	2
 1644 07d4 AFF30080 		.p2align 4,,15
 1644      AFF30080 
 1644      AFF30080 
 1645              		.global	PExReceiveByte
 1646              		.thumb
 1647              		.thumb_func
 1648              		.type	PExReceiveByte, %function
 1649              	PExReceiveByte:
 1650              	.LFB143:
 1651              		.loc 1 474 0
 1652              		.cfi_startproc
 1653              		@ args = 0, pretend = 0, frame = 16
 1654              		@ frame_needed = 0, uses_anonymous_args = 0
 1655              	.LVL128:
 1656 07e0 F0B5     		push	{r4, r5, r6, r7, lr}
 1657              		.cfi_def_cfa_offset 20
 1658              		.cfi_offset 4, -20
 1659              		.cfi_offset 5, -16
 1660              		.cfi_offset 6, -12
 1661              		.cfi_offset 7, -8
 1662              		.cfi_offset 14, -4
 1663              		.loc 1 486 0
 1664 07e2 B24C     		ldr	r4, .L359
 1665 07e4 94F85832 		ldrb	r3, [r4, #600]	@ zero_extendqisi2
 1666              		.loc 1 474 0
 1667 07e8 87B0     		sub	sp, sp, #28
 1668              		.cfi_def_cfa_offset 48
 1669              		.loc 1 474 0
 1670 07ea 0546     		mov	r5, r0
 1671              		.loc 1 486 0
 1672 07ec 002B     		cmp	r3, #0
 1673 07ee 46D1     		bne	.L174
 1674              		.loc 1 487 0
 1675 07f0 D4F85C32 		ldr	r3, [r4, #604]
 1676 07f4 032B     		cmp	r3, #3
 1677 07f6 40D8     		bhi	.L173
 1678 07f8 DFE803F0 		tbb	[pc, r3]
 1679              	.L177:
 1680 07fc 71       		.byte	(.L176-.L177)/2
 1681 07fd 77       		.byte	(.L178-.L177)/2
 1682 07fe 7F       		.byte	(.L179-.L177)/2
 1683 07ff 02       		.byte	(.L180-.L177)/2
 1684              		.p2align 1
 1685              	.L180:
 1686              		.loc 1 506 0
 1687 0800 00F0FD03 		and	r3, r0, #253
 1688 0804 502B     		cmp	r3, #80
 1689              		.loc 1 505 0
 1690 0806 84F85802 		strb	r0, [r4, #600]
 1691 080a A84E     		ldr	r6, .L359
 1692              		.loc 1 506 0
 1693 080c 00F08D80 		beq	.L184
 1694              		.loc 1 512 0
 1695 0810 00F0DF03 		and	r3, r0, #223
 1696 0814 572B     		cmp	r3, #87
ARM GAS  /tmp/ccLdaIGa.s 			page 31


 1697 0816 00F08880 		beq	.L184
 1698              		.loc 1 518 0
 1699 081a 5428     		cmp	r0, #84
 1700 081c 00F08580 		beq	.L184
 1701              		.loc 1 521 0
 1702 0820 4D28     		cmp	r0, #77
 1703 0822 00F08280 		beq	.L184
 1704              		.loc 1 530 0
 1705 0826 A0F14103 		sub	r3, r0, #65
 1706 082a 022B     		cmp	r3, #2
 1707 082c 7DD9     		bls	.L184
 1708              		.loc 1 533 0
 1709 082e 7228     		cmp	r0, #114
 1710 0830 7BD0     		beq	.L184
 1711              		.loc 1 536 0
 1712 0832 7928     		cmp	r0, #121
 1713 0834 79D0     		beq	.L184
 1714              		.loc 1 539 0
 1715 0836 5328     		cmp	r0, #83
 1716 0838 00F0BA83 		beq	.L338
 1717              		.loc 1 545 0
 1718 083c 4428     		cmp	r0, #68
 1719 083e 00F0C283 		beq	.L339
 1720              		.loc 1 551 0
 1721 0842 4628     		cmp	r0, #70
 1722 0844 00F0C983 		beq	.L340
 1723              		.loc 1 557 0
 1724 0848 6428     		cmp	r0, #100
 1725 084a 00F0D883 		beq	.L341
 1726              		.loc 1 563 0
 1727 084e 7328     		cmp	r0, #115
 1728 0850 00F0E983 		beq	.L342
 1729              		.loc 1 570 0
 1730 0854 5628     		cmp	r0, #86
 1731              		.loc 1 571 0
 1732 0856 4FF00003 		mov	r3, #0
 1733              		.loc 1 570 0
 1734 085a 00F0DA83 		beq	.L343
 1735              		.loc 1 576 0
 1736 085e 7028     		cmp	r0, #112
 1737 0860 00F09E83 		beq	.L344
 1738              		.loc 1 584 0
 1739 0864 6328     		cmp	r0, #99
 1740              		.loc 1 585 0
 1741 0866 C4F85C32 		str	r3, [r4, #604]
 1742              		.loc 1 584 0
 1743 086a 06D1     		bne	.L173
 1744              		.loc 1 586 0
 1745 086c 84F85832 		strb	r3, [r4, #600]
 1746              		.loc 1 587 0
 1747 0870 FFF7FEFF 		bl	CloseFile
 1748              	.LVL129:
 1749              		.loc 1 588 0
 1750 0874 0123     		movs	r3, #1
 1751 0876 C4F85432 		str	r3, [r4, #596]
 1752              	.L173:
 1753              		.loc 1 1073 0
ARM GAS  /tmp/ccLdaIGa.s 			page 32


 1754 087a 07B0     		add	sp, sp, #28
 1755              		.cfi_remember_state
 1756              		.cfi_def_cfa_offset 20
 1757              		@ sp needed
 1758 087c F0BD     		pop	{r4, r5, r6, r7, pc}
 1759              	.LVL130:
 1760              	.L174:
 1761              		.cfi_restore_state
 1762              		.loc 1 595 0
 1763 087e 502B     		cmp	r3, #80
 1764 0880 20D0     		beq	.L345
 1765              		.loc 1 647 0
 1766 0882 572B     		cmp	r3, #87
 1767 0884 55D0     		beq	.L346
 1768              		.loc 1 699 0
 1769 0886 772B     		cmp	r3, #119
 1770 0888 3DD0     		beq	.L347
 1771              		.loc 1 782 0
 1772 088a 542B     		cmp	r3, #84
 1773 088c 00F01482 		beq	.L348
 1774              		.loc 1 788 0
 1775 0890 4D2B     		cmp	r3, #77
 1776 0892 00F09781 		beq	.L349
 1777              		.loc 1 811 0
 1778 0896 432B     		cmp	r3, #67
 1779 0898 00F0A581 		beq	.L350
 1780              		.loc 1 848 0
 1781 089c 412B     		cmp	r3, #65
 1782 089e 00F0D881 		beq	.L351
 1783              		.loc 1 892 0
 1784 08a2 422B     		cmp	r3, #66
 1785 08a4 51D0     		beq	.L352
 1786              		.loc 1 947 0
 1787 08a6 522B     		cmp	r3, #82
 1788 08a8 00F01782 		beq	.L353
 1789              		.loc 1 986 0
 1790 08ac 722B     		cmp	r3, #114
 1791 08ae 00F07282 		beq	.L354
 1792              		.loc 1 1037 0
 1793 08b2 792B     		cmp	r3, #121
 1794 08b4 00F0F582 		beq	.L355
 1795              	.LVL131:
 1796              	.L337:
 1797              	.LBB37:
 1798              		.loc 1 803 0
 1799 08b8 0023     		movs	r3, #0
 1800 08ba 84F85832 		strb	r3, [r4, #600]
 1801              		.loc 1 804 0
 1802 08be C4F85C32 		str	r3, [r4, #604]
 1803              		.loc 1 805 0
 1804 08c2 DAE7     		b	.L173
 1805              	.LVL132:
 1806              	.L345:
 1807              	.LBE37:
 1808              		.loc 1 596 0
 1809 08c4 D4F85C32 		ldr	r3, [r4, #604]
 1810 08c8 043B     		subs	r3, r3, #4
ARM GAS  /tmp/ccLdaIGa.s 			page 33


 1811 08ca 092B     		cmp	r3, #9
 1812 08cc 00F2FF81 		bhi	.L194
 1813 08d0 DFE803F0 		tbb	[pc, r3]
 1814              	.L196:
 1815 08d4 BA       		.byte	(.L195-.L196)/2
 1816 08d5 B0       		.byte	(.L197-.L196)/2
 1817 08d6 A6       		.byte	(.L198-.L196)/2
 1818 08d7 72       		.byte	(.L199-.L196)/2
 1819 08d8 62       		.byte	(.L287-.L196)/2
 1820 08d9 58       		.byte	(.L288-.L196)/2
 1821 08da 4E       		.byte	(.L289-.L196)/2
 1822 08db 68       		.byte	(.L217-.L196)/2
 1823 08dc 7C       		.byte	(.L204-.L196)/2
 1824 08dd 82       		.byte	(.L205-.L196)/2
 1825              		.p2align 1
 1826              	.L176:
 1827              		.loc 1 489 0
 1828 08de 4128     		cmp	r0, #65
 1829 08e0 CBD1     		bne	.L173
 1830              		.loc 1 490 0
 1831 08e2 0123     		movs	r3, #1
 1832 08e4 C4F85C32 		str	r3, [r4, #604]
 1833 08e8 C7E7     		b	.L173
 1834              	.L178:
 1835              		.loc 1 493 0
 1836 08ea 7828     		cmp	r0, #120
 1837 08ec 00F0AD81 		beq	.L356
 1838              	.L182:
 1839              		.loc 1 496 0
 1840 08f0 0023     		movs	r3, #0
 1841 08f2 C4F85C32 		str	r3, [r4, #604]
 1842              		.loc 1 1073 0
 1843 08f6 07B0     		add	sp, sp, #28
 1844              		.cfi_remember_state
 1845              		.cfi_def_cfa_offset 20
 1846              		@ sp needed
 1847 08f8 F0BD     		pop	{r4, r5, r6, r7, pc}
 1848              	.L179:
 1849              		.cfi_restore_state
 1850              		.loc 1 499 0
 1851 08fa 6F28     		cmp	r0, #111
 1852 08fc F8D1     		bne	.L182
 1853              		.loc 1 500 0
 1854 08fe 0323     		movs	r3, #3
 1855 0900 C4F85C32 		str	r3, [r4, #604]
 1856 0904 B9E7     		b	.L173
 1857              	.L347:
 1858              		.loc 1 700 0
 1859 0906 D4F85C22 		ldr	r2, [r4, #604]
 1860 090a 131F     		subs	r3, r2, #4
 1861 090c 132B     		cmp	r3, #19
 1862 090e 00F29282 		bhi	.L220
 1863 0912 DFE803F0 		tbb	[pc, r3]
 1864              	.L222:
 1865 0916 B3       		.byte	(.L292-.L222)/2
 1866 0917 A9       		.byte	(.L294-.L222)/2
 1867 0918 9F       		.byte	(.L295-.L222)/2
ARM GAS  /tmp/ccLdaIGa.s 			page 34


 1868 0919 B9       		.byte	(.L286-.L222)/2
 1869 091a 41       		.byte	(.L287-.L222)/2
 1870 091b 37       		.byte	(.L288-.L222)/2
 1871 091c 2D       		.byte	(.L289-.L222)/2
 1872 091d D1       		.byte	(.L229-.L222)/2
 1873 091e C3       		.byte	(.L230-.L222)/2
 1874 091f C3       		.byte	(.L230-.L222)/2
 1875 0920 C3       		.byte	(.L230-.L222)/2
 1876 0921 C3       		.byte	(.L230-.L222)/2
 1877 0922 C3       		.byte	(.L230-.L222)/2
 1878 0923 C3       		.byte	(.L230-.L222)/2
 1879 0924 C3       		.byte	(.L230-.L222)/2
 1880 0925 C3       		.byte	(.L230-.L222)/2
 1881 0926 C3       		.byte	(.L230-.L222)/2
 1882 0927 C3       		.byte	(.L230-.L222)/2
 1883 0928 C3       		.byte	(.L230-.L222)/2
 1884 0929 C3       		.byte	(.L230-.L222)/2
 1885              		.p2align 1
 1886              	.L184:
 1887              		.loc 1 507 0
 1888 092a 0423     		movs	r3, #4
 1889 092c C4F85C32 		str	r3, [r4, #604]
 1890 0930 A3E7     		b	.L173
 1891              	.L346:
 1892              		.loc 1 648 0
 1893 0932 D4F85C32 		ldr	r3, [r4, #604]
 1894 0936 043B     		subs	r3, r3, #4
 1895 0938 072B     		cmp	r3, #7
 1896 093a 00F21282 		bhi	.L208
 1897 093e DFE803F0 		tbb	[pc, r3]
 1898              	.L210:
 1899 0942 9D       		.byte	(.L292-.L210)/2
 1900 0943 93       		.byte	(.L294-.L210)/2
 1901 0944 89       		.byte	(.L295-.L210)/2
 1902 0945 A3       		.byte	(.L286-.L210)/2
 1903 0946 2B       		.byte	(.L287-.L210)/2
 1904 0947 21       		.byte	(.L288-.L210)/2
 1905 0948 17       		.byte	(.L289-.L210)/2
 1906 0949 31       		.byte	(.L217-.L210)/2
 1907              		.p2align 1
 1908              	.L352:
 1909              		.loc 1 893 0
 1910 094a D4F85C32 		ldr	r3, [r4, #604]
 1911 094e 043B     		subs	r3, r3, #4
 1912 0950 0B2B     		cmp	r3, #11
 1913 0952 92D8     		bhi	.L173
 1914 0954 DFE813F0 		tbh	[pc, r3, lsl #1]
 1915              	.L261:
 1916 0958 3001     		.2byte	(.L260-.L261)/2
 1917 095a 2601     		.2byte	(.L262-.L261)/2
 1918 095c 1C01     		.2byte	(.L263-.L261)/2
 1919 095e 1201     		.2byte	(.L264-.L261)/2
 1920 0960 0C01     		.2byte	(.L265-.L261)/2
 1921 0962 0201     		.2byte	(.L266-.L261)/2
 1922 0964 F800     		.2byte	(.L267-.L261)/2
 1923 0966 EE00     		.2byte	(.L268-.L261)/2
 1924 0968 E600     		.2byte	(.L269-.L261)/2
ARM GAS  /tmp/ccLdaIGa.s 			page 35


 1925 096a DE00     		.2byte	(.L270-.L261)/2
 1926 096c D600     		.2byte	(.L271-.L261)/2
 1927 096e C000     		.2byte	(.L272-.L261)/2
 1928              		.p2align 1
 1929              	.L289:
 1930              	.LBB38:
 1931              		.loc 1 1013 0
 1932 0970 D4F86432 		ldr	r3, [r4, #612]
 1933              		.loc 1 1014 0
 1934 0974 0B22     		movs	r2, #11
 1935              		.loc 1 1013 0
 1936 0976 03EB0543 		add	r3, r3, r5, lsl #16
 1937 097a C4F86432 		str	r3, [r4, #612]
 1938              		.loc 1 1014 0
 1939 097e C4F85C22 		str	r2, [r4, #604]
 1940              		.loc 1 1015 0
 1941 0982 7AE7     		b	.L173
 1942              	.L288:
 1943              		.loc 1 1009 0
 1944 0984 D4F86432 		ldr	r3, [r4, #612]
 1945              		.loc 1 1010 0
 1946 0988 0A22     		movs	r2, #10
 1947              		.loc 1 1009 0
 1948 098a 03EB0523 		add	r3, r3, r5, lsl #8
 1949 098e C4F86432 		str	r3, [r4, #612]
 1950              		.loc 1 1010 0
 1951 0992 C4F85C22 		str	r2, [r4, #604]
 1952              		.loc 1 1011 0
 1953 0996 70E7     		b	.L173
 1954              	.L287:
 1955              		.loc 1 1006 0
 1956 0998 0923     		movs	r3, #9
 1957              		.loc 1 1005 0
 1958 099a C4F86452 		str	r5, [r4, #612]
 1959              		.loc 1 1006 0
 1960 099e C4F85C32 		str	r3, [r4, #604]
 1961              		.loc 1 1007 0
 1962 09a2 6AE7     		b	.L173
 1963              	.L217:
 1964              	.LBE38:
 1965              		.loc 1 678 0
 1966 09a4 D4F86432 		ldr	r3, [r4, #612]
 1967              		.loc 1 679 0
 1968 09a8 0C22     		movs	r2, #12
 1969              		.loc 1 678 0
 1970 09aa 03EB0563 		add	r3, r3, r5, lsl #24
 1971 09ae C4F86432 		str	r3, [r4, #612]
 1972              		.loc 1 679 0
 1973 09b2 C4F85C22 		str	r2, [r4, #604]
 1974              		.loc 1 680 0
 1975 09b6 60E7     		b	.L173
 1976              	.L199:
 1977              		.loc 1 610 0
 1978 09b8 D4F86032 		ldr	r3, [r4, #608]
 1979              		.loc 1 611 0
 1980 09bc 0822     		movs	r2, #8
 1981              		.loc 1 610 0
ARM GAS  /tmp/ccLdaIGa.s 			page 36


 1982 09be 03EB0063 		add	r3, r3, r0, lsl #24
 1983 09c2 C4F86032 		str	r3, [r4, #608]
 1984              		.loc 1 611 0
 1985 09c6 C4F85C22 		str	r2, [r4, #604]
 1986              		.loc 1 612 0
 1987 09ca 56E7     		b	.L173
 1988              	.L204:
 1989              		.loc 1 631 0
 1990 09cc 0D23     		movs	r3, #13
 1991              		.loc 1 630 0
 1992 09ce C4F86802 		str	r0, [r4, #616]
 1993              		.loc 1 631 0
 1994 09d2 C4F85C32 		str	r3, [r4, #604]
 1995              		.loc 1 632 0
 1996 09d6 50E7     		b	.L173
 1997              	.L205:
 1998              		.loc 1 637 0
 1999 09d8 354A     		ldr	r2, .L359+4
 2000              		.loc 1 634 0
 2001 09da D4F86832 		ldr	r3, [r4, #616]
 2002              		.loc 1 637 0
 2003 09de 106A     		ldr	r0, [r2, #32]
 2004              	.LVL133:
 2005 09e0 D4F86012 		ldr	r1, [r4, #608]
 2006              		.loc 1 634 0
 2007 09e4 314E     		ldr	r6, .L359
 2008 09e6 03EB0525 		add	r5, r3, r5, lsl #8
 2009              		.loc 1 637 0
 2010 09ea 8842     		cmp	r0, r1
 2011              		.loc 1 635 0
 2012 09ec 4FF00003 		mov	r3, #0
 2013              		.loc 1 634 0
 2014 09f0 C4F86852 		str	r5, [r4, #616]
 2015              		.loc 1 635 0
 2016 09f4 C4F85C32 		str	r3, [r4, #604]
 2017              		.loc 1 636 0
 2018 09f8 84F85832 		strb	r3, [r4, #600]
 2019              		.loc 1 637 0
 2020 09fc 7FF43DAF 		bne	.L173
 2021              		.loc 1 637 0 is_stmt 0 discriminator 1
 2022 0a00 5369     		ldr	r3, [r2, #20]
 2023 0a02 9D42     		cmp	r5, r3
 2024 0a04 BFF439AF 		bcs	.L173
 2025              		.loc 1 639 0 is_stmt 1
 2026 0a08 9069     		ldr	r0, [r2, #24]
 2027 0a0a D6F86412 		ldr	r1, [r6, #612]
 2028 0a0e 05EB8505 		add	r5, r5, r5, lsl #2
 2029 0a12 00EB8500 		add	r0, r0, r5, lsl #2
 2030 0a16 6FF01102 		mvn	r2, #17
 2031 0a1a FFF7FEFF 		bl	PExParameterChange
 2032              	.LVL134:
 2033 0a1e 2CE7     		b	.L173
 2034              	.LVL135:
 2035              	.L198:
 2036              		.loc 1 606 0
 2037 0a20 D4F86032 		ldr	r3, [r4, #608]
 2038              		.loc 1 607 0
ARM GAS  /tmp/ccLdaIGa.s 			page 37


 2039 0a24 0722     		movs	r2, #7
 2040              		.loc 1 606 0
 2041 0a26 03EB0043 		add	r3, r3, r0, lsl #16
 2042 0a2a C4F86032 		str	r3, [r4, #608]
 2043              		.loc 1 607 0
 2044 0a2e C4F85C22 		str	r2, [r4, #604]
 2045              		.loc 1 608 0
 2046 0a32 22E7     		b	.L173
 2047              	.L197:
 2048              		.loc 1 602 0
 2049 0a34 D4F86032 		ldr	r3, [r4, #608]
 2050              		.loc 1 603 0
 2051 0a38 0622     		movs	r2, #6
 2052              		.loc 1 602 0
 2053 0a3a 03EB0023 		add	r3, r3, r0, lsl #8
 2054 0a3e C4F86032 		str	r3, [r4, #608]
 2055              		.loc 1 603 0
 2056 0a42 C4F85C22 		str	r2, [r4, #604]
 2057              		.loc 1 604 0
 2058 0a46 18E7     		b	.L173
 2059              	.L195:
 2060              		.loc 1 599 0
 2061 0a48 0523     		movs	r3, #5
 2062              		.loc 1 598 0
 2063 0a4a C4F86002 		str	r0, [r4, #608]
 2064              		.loc 1 599 0
 2065 0a4e C4F85C32 		str	r3, [r4, #604]
 2066              		.loc 1 600 0
 2067 0a52 12E7     		b	.L173
 2068              	.L295:
 2069              	.LBB39:
 2070              		.loc 1 1048 0
 2071 0a54 D4F86C32 		ldr	r3, [r4, #620]
 2072              		.loc 1 1049 0
 2073 0a58 0722     		movs	r2, #7
 2074              		.loc 1 1048 0
 2075 0a5a 03EB0543 		add	r3, r3, r5, lsl #16
 2076 0a5e C4F86C32 		str	r3, [r4, #620]
 2077              		.loc 1 1049 0
 2078 0a62 C4F85C22 		str	r2, [r4, #604]
 2079              		.loc 1 1050 0
 2080 0a66 08E7     		b	.L173
 2081              	.L294:
 2082              		.loc 1 1044 0
 2083 0a68 D4F86C32 		ldr	r3, [r4, #620]
 2084              		.loc 1 1045 0
 2085 0a6c 0622     		movs	r2, #6
 2086              		.loc 1 1044 0
 2087 0a6e 03EB0523 		add	r3, r3, r5, lsl #8
 2088 0a72 C4F86C32 		str	r3, [r4, #620]
 2089              		.loc 1 1045 0
 2090 0a76 C4F85C22 		str	r2, [r4, #604]
 2091              		.loc 1 1046 0
 2092 0a7a FEE6     		b	.L173
 2093              	.L292:
 2094              		.loc 1 1041 0
 2095 0a7c 0523     		movs	r3, #5
ARM GAS  /tmp/ccLdaIGa.s 			page 38


 2096              		.loc 1 1040 0
 2097 0a7e C4F86C52 		str	r5, [r4, #620]
 2098              		.loc 1 1041 0
 2099 0a82 C4F85C32 		str	r3, [r4, #604]
 2100              		.loc 1 1042 0
 2101 0a86 F8E6     		b	.L173
 2102              	.L286:
 2103              	.LBE39:
 2104              	.LBB40:
 2105              		.loc 1 1001 0
 2106 0a88 D4F86C32 		ldr	r3, [r4, #620]
 2107              		.loc 1 1002 0
 2108 0a8c 0822     		movs	r2, #8
 2109              		.loc 1 1001 0
 2110 0a8e 03EB0563 		add	r3, r3, r5, lsl #24
 2111 0a92 C4F86C32 		str	r3, [r4, #620]
 2112              		.loc 1 1002 0
 2113 0a96 C4F85C22 		str	r2, [r4, #604]
 2114              		.loc 1 1003 0
 2115 0a9a EEE6     		b	.L173
 2116              	.L230:
 2117              	.LBE40:
 2118              		.loc 1 747 0
 2119 0a9c 054B     		ldr	r3, .L359+8
 2120 0a9e 1344     		add	r3, r3, r2
 2121              		.loc 1 748 0
 2122 0aa0 0132     		adds	r2, r2, #1
 2123              		.loc 1 747 0
 2124 0aa2 03F80C0C 		strb	r0, [r3, #-12]
 2125              		.loc 1 748 0
 2126 0aa6 C4F85C22 		str	r2, [r4, #604]
 2127              		.loc 1 749 0
 2128 0aaa E6E6     		b	.L173
 2129              	.L360:
 2130              		.align	2
 2131              	.L359:
 2132 0aac 00000000 		.word	.LANCHOR0
 2133 0ab0 00000000 		.word	patchMeta
 2134 0ab4 00000000 		.word	FileName
 2135              	.L229:
 2136              		.loc 1 730 0
 2137 0ab8 D4F86432 		ldr	r3, [r4, #612]
 2138              		.loc 1 732 0
 2139 0abc D4F86C22 		ldr	r2, [r4, #620]
 2140 0ac0 C4F87422 		str	r2, [r4, #628]
 2141              		.loc 1 730 0
 2142 0ac4 03EB0065 		add	r5, r3, r0, lsl #24
 2143              		.loc 1 733 0
 2144 0ac8 0C23     		movs	r3, #12
 2145              		.loc 1 730 0
 2146 0aca C4F86452 		str	r5, [r4, #612]
 2147              		.loc 1 731 0
 2148 0ace C4F87052 		str	r5, [r4, #624]
 2149              		.loc 1 733 0
 2150 0ad2 C4F85C32 		str	r3, [r4, #604]
 2151              		.loc 1 734 0
 2152 0ad6 D0E6     		b	.L173
ARM GAS  /tmp/ccLdaIGa.s 			page 39


 2153              	.L272:
 2154              		.loc 1 939 0
 2155 0ad8 BB4E     		ldr	r6, .L361
 2156              		.loc 1 942 0
 2157 0ada BC48     		ldr	r0, .L361+4
 2158              	.LVL136:
 2159              		.loc 1 939 0
 2160 0adc F178     		ldrb	r1, [r6, #3]	@ zero_extendqisi2
 2161              		.loc 1 943 0
 2162 0ade BC4F     		ldr	r7, .L361+8
 2163              		.loc 1 942 0
 2164 0ae0 0268     		ldr	r2, [r0]
 2165              		.loc 1 943 0
 2166 0ae2 3B68     		ldr	r3, [r7]
 2167              		.loc 1 939 0
 2168 0ae4 0D44     		add	r5, r5, r1
 2169              		.loc 1 942 0
 2170 0ae6 D4F87C12 		ldr	r1, [r4, #636]
 2171              		.loc 1 939 0
 2172 0aea F570     		strb	r5, [r6, #3]
 2173              		.loc 1 942 0
 2174 0aec 0A43     		orrs	r2, r2, r1
 2175              		.loc 1 943 0
 2176 0aee D4F88012 		ldr	r1, [r4, #640]
 2177              		.loc 1 942 0
 2178 0af2 0260     		str	r2, [r0]
 2179              		.loc 1 943 0
 2180 0af4 0B40     		ands	r3, r3, r1
 2181              		.loc 1 940 0
 2182 0af6 0021     		movs	r1, #0
 2183              		.loc 1 943 0
 2184 0af8 3B60     		str	r3, [r7]
 2185              		.loc 1 940 0
 2186 0afa 84F85812 		strb	r1, [r4, #600]
 2187              		.loc 1 941 0
 2188 0afe C4F85C12 		str	r1, [r4, #604]
 2189              		.loc 1 944 0
 2190 0b02 BAE6     		b	.L173
 2191              	.LVL137:
 2192              	.L271:
 2193              		.loc 1 935 0
 2194 0b04 B04A     		ldr	r2, .L361
 2195 0b06 9378     		ldrb	r3, [r2, #2]	@ zero_extendqisi2
 2196              		.loc 1 936 0
 2197 0b08 0F21     		movs	r1, #15
 2198              		.loc 1 935 0
 2199 0b0a 1D44     		add	r5, r5, r3
 2200 0b0c 9570     		strb	r5, [r2, #2]
 2201              		.loc 1 936 0
 2202 0b0e C4F85C12 		str	r1, [r4, #604]
 2203              		.loc 1 937 0
 2204 0b12 B2E6     		b	.L173
 2205              	.L270:
 2206              		.loc 1 931 0
 2207 0b14 AC4A     		ldr	r2, .L361
 2208 0b16 5378     		ldrb	r3, [r2, #1]	@ zero_extendqisi2
 2209              		.loc 1 932 0
ARM GAS  /tmp/ccLdaIGa.s 			page 40


 2210 0b18 0E21     		movs	r1, #14
 2211              		.loc 1 931 0
 2212 0b1a 1D44     		add	r5, r5, r3
 2213 0b1c 5570     		strb	r5, [r2, #1]
 2214              		.loc 1 932 0
 2215 0b1e C4F85C12 		str	r1, [r4, #604]
 2216              		.loc 1 933 0
 2217 0b22 AAE6     		b	.L173
 2218              	.L269:
 2219              		.loc 1 927 0
 2220 0b24 A84A     		ldr	r2, .L361
 2221 0b26 1378     		ldrb	r3, [r2]	@ zero_extendqisi2
 2222              		.loc 1 928 0
 2223 0b28 0D21     		movs	r1, #13
 2224              		.loc 1 927 0
 2225 0b2a 1D44     		add	r5, r5, r3
 2226 0b2c 1570     		strb	r5, [r2]
 2227              		.loc 1 928 0
 2228 0b2e C4F85C12 		str	r1, [r4, #604]
 2229              		.loc 1 929 0
 2230 0b32 A2E6     		b	.L173
 2231              	.L268:
 2232              		.loc 1 923 0
 2233 0b34 D4F88032 		ldr	r3, [r4, #640]
 2234              		.loc 1 924 0
 2235 0b38 0C22     		movs	r2, #12
 2236              		.loc 1 923 0
 2237 0b3a 03EB0063 		add	r3, r3, r0, lsl #24
 2238 0b3e C4F88032 		str	r3, [r4, #640]
 2239              		.loc 1 924 0
 2240 0b42 C4F85C22 		str	r2, [r4, #604]
 2241              		.loc 1 925 0
 2242 0b46 98E6     		b	.L173
 2243              	.L267:
 2244              		.loc 1 919 0
 2245 0b48 D4F88032 		ldr	r3, [r4, #640]
 2246              		.loc 1 920 0
 2247 0b4c 0B22     		movs	r2, #11
 2248              		.loc 1 919 0
 2249 0b4e 03EB0043 		add	r3, r3, r0, lsl #16
 2250 0b52 C4F88032 		str	r3, [r4, #640]
 2251              		.loc 1 920 0
 2252 0b56 C4F85C22 		str	r2, [r4, #604]
 2253              		.loc 1 921 0
 2254 0b5a 8EE6     		b	.L173
 2255              	.L266:
 2256              		.loc 1 915 0
 2257 0b5c D4F88032 		ldr	r3, [r4, #640]
 2258              		.loc 1 916 0
 2259 0b60 0A22     		movs	r2, #10
 2260              		.loc 1 915 0
 2261 0b62 03EB0023 		add	r3, r3, r0, lsl #8
 2262 0b66 C4F88032 		str	r3, [r4, #640]
 2263              		.loc 1 916 0
 2264 0b6a C4F85C22 		str	r2, [r4, #604]
 2265              		.loc 1 917 0
 2266 0b6e 84E6     		b	.L173
ARM GAS  /tmp/ccLdaIGa.s 			page 41


 2267              	.L265:
 2268              		.loc 1 912 0
 2269 0b70 0923     		movs	r3, #9
 2270              		.loc 1 911 0
 2271 0b72 C4F88002 		str	r0, [r4, #640]
 2272              		.loc 1 912 0
 2273 0b76 C4F85C32 		str	r3, [r4, #604]
 2274              		.loc 1 913 0
 2275 0b7a 7EE6     		b	.L173
 2276              	.L264:
 2277              		.loc 1 907 0
 2278 0b7c D4F87C32 		ldr	r3, [r4, #636]
 2279              		.loc 1 908 0
 2280 0b80 0822     		movs	r2, #8
 2281              		.loc 1 907 0
 2282 0b82 03EB0063 		add	r3, r3, r0, lsl #24
 2283 0b86 C4F87C32 		str	r3, [r4, #636]
 2284              		.loc 1 908 0
 2285 0b8a C4F85C22 		str	r2, [r4, #604]
 2286              		.loc 1 909 0
 2287 0b8e 74E6     		b	.L173
 2288              	.L263:
 2289              		.loc 1 903 0
 2290 0b90 D4F87C32 		ldr	r3, [r4, #636]
 2291              		.loc 1 904 0
 2292 0b94 0722     		movs	r2, #7
 2293              		.loc 1 903 0
 2294 0b96 03EB0043 		add	r3, r3, r0, lsl #16
 2295 0b9a C4F87C32 		str	r3, [r4, #636]
 2296              		.loc 1 904 0
 2297 0b9e C4F85C22 		str	r2, [r4, #604]
 2298              		.loc 1 905 0
 2299 0ba2 6AE6     		b	.L173
 2300              	.L262:
 2301              		.loc 1 899 0
 2302 0ba4 D4F87C32 		ldr	r3, [r4, #636]
 2303              		.loc 1 900 0
 2304 0ba8 0622     		movs	r2, #6
 2305              		.loc 1 899 0
 2306 0baa 03EB0023 		add	r3, r3, r0, lsl #8
 2307 0bae C4F87C32 		str	r3, [r4, #636]
 2308              		.loc 1 900 0
 2309 0bb2 C4F85C22 		str	r2, [r4, #604]
 2310              		.loc 1 901 0
 2311 0bb6 60E6     		b	.L173
 2312              	.L260:
 2313              		.loc 1 896 0
 2314 0bb8 0523     		movs	r3, #5
 2315              		.loc 1 895 0
 2316 0bba C4F87C02 		str	r0, [r4, #636]
 2317              		.loc 1 896 0
 2318 0bbe C4F85C32 		str	r3, [r4, #604]
 2319              		.loc 1 897 0
 2320 0bc2 5AE6     		b	.L173
 2321              	.L349:
 2322              	.LBB41:
 2323              		.loc 1 790 0
ARM GAS  /tmp/ccLdaIGa.s 			page 42


 2324 0bc4 D4F85C32 		ldr	r3, [r4, #604]
 2325 0bc8 052B     		cmp	r3, #5
 2326 0bca 00F0C480 		beq	.L238
 2327 0bce 062B     		cmp	r3, #6
 2328 0bd0 00F0B580 		beq	.L239
 2329 0bd4 042B     		cmp	r3, #4
 2330 0bd6 7FF46FAE 		bne	.L337
 2331              		.loc 1 793 0
 2332 0bda 0523     		movs	r3, #5
 2333              		.loc 1 792 0
 2334 0bdc 84F87802 		strb	r0, [r4, #632]
 2335              		.loc 1 793 0
 2336 0be0 C4F85C32 		str	r3, [r4, #604]
 2337              		.loc 1 794 0
 2338 0be4 49E6     		b	.L173
 2339              	.L350:
 2340              	.LBE41:
 2341              		.loc 1 812 0
 2342 0be6 D4F85C22 		ldr	r2, [r4, #604]
 2343 0bea 131F     		subs	r3, r2, #4
 2344 0bec 042B     		cmp	r3, #4
 2345 0bee 00F28681 		bhi	.L242
 2346 0bf2 DFE803F0 		tbb	[pc, r3]
 2347              	.L244:
 2348 0bf6 24       		.byte	(.L243-.L244)/2
 2349 0bf7 1B       		.byte	(.L245-.L244)/2
 2350 0bf8 12       		.byte	(.L246-.L244)/2
 2351 0bf9 09       		.byte	(.L247-.L244)/2
 2352 0bfa 03       		.byte	(.L248-.L244)/2
 2353 0bfb 00       		.p2align 1
 2354              	.L248:
 2355              		.loc 1 830 0
 2356 0bfc 754A     		ldr	r2, .L361+12
 2357              		.loc 1 832 0
 2358 0bfe 0923     		movs	r3, #9
 2359              		.loc 1 830 0
 2360 0c00 1070     		strb	r0, [r2]
 2361              		.loc 1 832 0
 2362 0c02 C4F85C32 		str	r3, [r4, #604]
 2363              		.loc 1 833 0
 2364 0c06 38E6     		b	.L173
 2365              	.L247:
 2366              		.loc 1 826 0
 2367 0c08 734A     		ldr	r2, .L361+16
 2368 0c0a 1368     		ldr	r3, [r2]
 2369              		.loc 1 827 0
 2370 0c0c 0821     		movs	r1, #8
 2371              		.loc 1 826 0
 2372 0c0e 03EB0063 		add	r3, r3, r0, lsl #24
 2373 0c12 1360     		str	r3, [r2]
 2374              		.loc 1 827 0
 2375 0c14 C4F85C12 		str	r1, [r4, #604]
 2376              		.loc 1 828 0
 2377 0c18 2FE6     		b	.L173
 2378              	.L246:
 2379              		.loc 1 822 0
 2380 0c1a 6F4A     		ldr	r2, .L361+16
ARM GAS  /tmp/ccLdaIGa.s 			page 43


 2381 0c1c 1368     		ldr	r3, [r2]
 2382              		.loc 1 823 0
 2383 0c1e 0721     		movs	r1, #7
 2384              		.loc 1 822 0
 2385 0c20 03EB0043 		add	r3, r3, r0, lsl #16
 2386 0c24 1360     		str	r3, [r2]
 2387              		.loc 1 823 0
 2388 0c26 C4F85C12 		str	r1, [r4, #604]
 2389              		.loc 1 824 0
 2390 0c2a 26E6     		b	.L173
 2391              	.L245:
 2392              		.loc 1 818 0
 2393 0c2c 6A4A     		ldr	r2, .L361+16
 2394 0c2e 1368     		ldr	r3, [r2]
 2395              		.loc 1 819 0
 2396 0c30 0621     		movs	r1, #6
 2397              		.loc 1 818 0
 2398 0c32 03EB0023 		add	r3, r3, r0, lsl #8
 2399 0c36 1360     		str	r3, [r2]
 2400              		.loc 1 819 0
 2401 0c38 C4F85C12 		str	r1, [r4, #604]
 2402              		.loc 1 820 0
 2403 0c3c 1DE6     		b	.L173
 2404              	.L243:
 2405              		.loc 1 814 0
 2406 0c3e 664A     		ldr	r2, .L361+16
 2407              		.loc 1 815 0
 2408 0c40 0523     		movs	r3, #5
 2409              		.loc 1 814 0
 2410 0c42 1060     		str	r0, [r2]
 2411              		.loc 1 815 0
 2412 0c44 C4F85C32 		str	r3, [r4, #604]
 2413              		.loc 1 816 0
 2414 0c48 17E6     		b	.L173
 2415              	.L356:
 2416              		.loc 1 494 0
 2417 0c4a 0223     		movs	r3, #2
 2418 0c4c C4F85C32 		str	r3, [r4, #604]
 2419 0c50 13E6     		b	.L173
 2420              	.L351:
 2421              		.loc 1 849 0
 2422 0c52 D4F85C32 		ldr	r3, [r4, #604]
 2423 0c56 043B     		subs	r3, r3, #4
 2424 0c58 032B     		cmp	r3, #3
 2425 0c5a 00F26481 		bhi	.L252
 2426 0c5e DFE803F0 		tbb	[pc, r3]
 2427              	.L254:
 2428 0c62 25       		.byte	(.L253-.L254)/2
 2429 0c63 1B       		.byte	(.L255-.L254)/2
 2430 0c64 11       		.byte	(.L256-.L254)/2
 2431 0c65 02       		.byte	(.L257-.L254)/2
 2432              		.p2align 1
 2433              	.L257:
 2434              		.loc 1 863 0
 2435 0c66 D4F86432 		ldr	r3, [r4, #612]
 2436              		.loc 1 865 0
 2437 0c6a 5C4A     		ldr	r2, .L361+20
ARM GAS  /tmp/ccLdaIGa.s 			page 44


 2438 0c6c C4F87422 		str	r2, [r4, #628]
 2439              		.loc 1 863 0
 2440 0c70 03EB0065 		add	r5, r3, r0, lsl #24
 2441              		.loc 1 866 0
 2442 0c74 0823     		movs	r3, #8
 2443              		.loc 1 863 0
 2444 0c76 C4F86452 		str	r5, [r4, #612]
 2445              		.loc 1 864 0
 2446 0c7a C4F87052 		str	r5, [r4, #624]
 2447              		.loc 1 866 0
 2448 0c7e C4F85C32 		str	r3, [r4, #604]
 2449              		.loc 1 867 0
 2450 0c82 FAE5     		b	.L173
 2451              	.L256:
 2452              		.loc 1 859 0
 2453 0c84 D4F86432 		ldr	r3, [r4, #612]
 2454              		.loc 1 860 0
 2455 0c88 0722     		movs	r2, #7
 2456              		.loc 1 859 0
 2457 0c8a 03EB0043 		add	r3, r3, r0, lsl #16
 2458 0c8e C4F86432 		str	r3, [r4, #612]
 2459              		.loc 1 860 0
 2460 0c92 C4F85C22 		str	r2, [r4, #604]
 2461              		.loc 1 861 0
 2462 0c96 F0E5     		b	.L173
 2463              	.L255:
 2464              		.loc 1 855 0
 2465 0c98 D4F86432 		ldr	r3, [r4, #612]
 2466              		.loc 1 856 0
 2467 0c9c 0622     		movs	r2, #6
 2468              		.loc 1 855 0
 2469 0c9e 03EB0023 		add	r3, r3, r0, lsl #8
 2470 0ca2 C4F86432 		str	r3, [r4, #612]
 2471              		.loc 1 856 0
 2472 0ca6 C4F85C22 		str	r2, [r4, #604]
 2473              		.loc 1 857 0
 2474 0caa E6E5     		b	.L173
 2475              	.L253:
 2476              		.loc 1 852 0
 2477 0cac 0523     		movs	r3, #5
 2478              		.loc 1 851 0
 2479 0cae C4F86402 		str	r0, [r4, #612]
 2480              		.loc 1 852 0
 2481 0cb2 C4F85C32 		str	r3, [r4, #604]
 2482              		.loc 1 853 0
 2483 0cb6 E0E5     		b	.L173
 2484              	.L348:
 2485              		.loc 1 783 0
 2486 0cb8 FFF7FEFF 		bl	ApplyPreset
 2487              	.LVL138:
 2488              	.L336:
 2489              	.LBB42:
 2490              		.loc 1 1065 0
 2491 0cbc 0023     		movs	r3, #0
 2492              		.loc 1 1064 0
 2493 0cbe 0122     		movs	r2, #1
 2494 0cc0 C4F85422 		str	r2, [r4, #596]
ARM GAS  /tmp/ccLdaIGa.s 			page 45


 2495              		.loc 1 1065 0
 2496 0cc4 84F85832 		strb	r3, [r4, #600]
 2497              		.loc 1 1066 0
 2498 0cc8 C4F85C32 		str	r3, [r4, #604]
 2499              		.loc 1 1067 0
 2500 0ccc D5E5     		b	.L173
 2501              	.LVL139:
 2502              	.L194:
 2503              	.LBE42:
 2504              		.loc 1 643 0
 2505 0cce 0023     		movs	r3, #0
 2506 0cd0 C4F85C32 		str	r3, [r4, #604]
 2507              		.loc 1 644 0
 2508 0cd4 84F85832 		strb	r3, [r4, #600]
 2509 0cd8 CFE5     		b	.L173
 2510              	.L353:
 2511              		.loc 1 948 0
 2512 0cda D4F85C32 		ldr	r3, [r4, #604]
 2513 0cde 043B     		subs	r3, r3, #4
 2514 0ce0 032B     		cmp	r3, #3
 2515 0ce2 00F24A81 		bhi	.L274
 2516 0ce6 DFE803F0 		tbb	[pc, r3]
 2517              	.L276:
 2518 0cea 24       		.byte	(.L275-.L276)/2
 2519 0ceb 1A       		.byte	(.L277-.L276)/2
 2520 0cec 10       		.byte	(.L278-.L276)/2
 2521 0ced 02       		.byte	(.L279-.L276)/2
 2522              		.p2align 1
 2523              	.L279:
 2524              		.loc 1 962 0
 2525 0cee D4F87032 		ldr	r3, [r4, #624]
 2526              		.loc 1 964 0
 2527 0cf2 3B4A     		ldr	r2, .L361+24
 2528              		.loc 1 962 0
 2529 0cf4 03EB0063 		add	r3, r3, r0, lsl #24
 2530              		.loc 1 964 0
 2531 0cf8 526B     		ldr	r2, [r2, #52]
 2532              		.loc 1 962 0
 2533 0cfa C4F87032 		str	r3, [r4, #624]
 2534              		.loc 1 963 0
 2535 0cfe 0823     		movs	r3, #8
 2536              		.loc 1 964 0
 2537 0d00 C4F86C22 		str	r2, [r4, #620]
 2538              		.loc 1 963 0
 2539 0d04 C4F85C32 		str	r3, [r4, #604]
 2540              		.loc 1 965 0
 2541 0d08 B7E5     		b	.L173
 2542              	.L278:
 2543              		.loc 1 958 0
 2544 0d0a D4F87032 		ldr	r3, [r4, #624]
 2545              		.loc 1 959 0
 2546 0d0e 0722     		movs	r2, #7
 2547              		.loc 1 958 0
 2548 0d10 03EB0043 		add	r3, r3, r0, lsl #16
 2549 0d14 C4F87032 		str	r3, [r4, #624]
 2550              		.loc 1 959 0
 2551 0d18 C4F85C22 		str	r2, [r4, #604]
ARM GAS  /tmp/ccLdaIGa.s 			page 46


 2552              		.loc 1 960 0
 2553 0d1c ADE5     		b	.L173
 2554              	.L277:
 2555              		.loc 1 954 0
 2556 0d1e D4F87032 		ldr	r3, [r4, #624]
 2557              		.loc 1 955 0
 2558 0d22 0622     		movs	r2, #6
 2559              		.loc 1 954 0
 2560 0d24 03EB0023 		add	r3, r3, r0, lsl #8
 2561 0d28 C4F87032 		str	r3, [r4, #624]
 2562              		.loc 1 955 0
 2563 0d2c C4F85C22 		str	r2, [r4, #604]
 2564              		.loc 1 956 0
 2565 0d30 A3E5     		b	.L173
 2566              	.L275:
 2567              		.loc 1 951 0
 2568 0d32 0523     		movs	r3, #5
 2569              		.loc 1 950 0
 2570 0d34 C4F87002 		str	r0, [r4, #624]
 2571              		.loc 1 951 0
 2572 0d38 C4F85C32 		str	r3, [r4, #604]
 2573              		.loc 1 952 0
 2574 0d3c 9DE5     		b	.L173
 2575              	.L239:
 2576              	.LBB43:
 2577              		.loc 1 801 0
 2578 0d3e 0090     		str	r0, [sp]
 2579 0d40 94F87822 		ldrb	r2, [r4, #632]	@ zero_extendqisi2
 2580 0d44 94F87932 		ldrb	r3, [r4, #633]	@ zero_extendqisi2
 2581              		.loc 1 800 0
 2582 0d48 84F87A52 		strb	r5, [r4, #634]
 2583              		.loc 1 801 0
 2584 0d4c 0F20     		movs	r0, #15
 2585              	.LVL140:
 2586 0d4e 0121     		movs	r1, #1
 2587 0d50 FFF7FEFF 		bl	MidiInMsgHandler
 2588              	.LVL141:
 2589 0d54 B0E5     		b	.L337
 2590              	.LVL142:
 2591              	.L238:
 2592              		.loc 1 797 0
 2593 0d56 0623     		movs	r3, #6
 2594              		.loc 1 796 0
 2595 0d58 84F87902 		strb	r0, [r4, #633]
 2596              		.loc 1 797 0
 2597 0d5c C4F85C32 		str	r3, [r4, #604]
 2598              		.loc 1 798 0
 2599 0d60 8BE5     		b	.L173
 2600              	.L208:
 2601              	.LBE43:
 2602              		.loc 1 682 0
 2603 0d62 D4F86432 		ldr	r3, [r4, #612]
 2604 0d66 1F4A     		ldr	r2, .L361+28
 2605 0d68 002B     		cmp	r3, #0
 2606 0d6a 0BDD     		ble	.L218
 2607              		.loc 1 684 0
 2608 0d6c D2F86C12 		ldr	r1, [r2, #620]
ARM GAS  /tmp/ccLdaIGa.s 			page 47


 2609 0d70 01F8010B 		strb	r0, [r1], #1
 2610              		.loc 1 683 0
 2611 0d74 013B     		subs	r3, r3, #1
 2612 0d76 C2F86432 		str	r3, [r2, #612]
 2613              		.loc 1 685 0
 2614 0d7a C2F86C12 		str	r1, [r2, #620]
 2615              	.L335:
 2616              		.loc 1 686 0
 2617 0d7e 002B     		cmp	r3, #0
 2618 0d80 7FF47BAD 		bne	.L173
 2619              	.L218:
 2620              		.loc 1 687 0
 2621 0d84 0023     		movs	r3, #0
 2622              		.loc 1 689 0
 2623 0d86 0122     		movs	r2, #1
 2624              		.loc 1 687 0
 2625 0d88 84F85832 		strb	r3, [r4, #600]
 2626              		.loc 1 688 0
 2627 0d8c C4F85C32 		str	r3, [r4, #604]
 2628              		.loc 1 689 0
 2629 0d90 C4F85422 		str	r2, [r4, #596]
 2630 0d94 71E5     		b	.L173
 2631              	.L354:
 2632              		.loc 1 987 0
 2633 0d96 D4F85C32 		ldr	r3, [r4, #604]
 2634 0d9a 043B     		subs	r3, r3, #4
 2635 0d9c 072B     		cmp	r3, #7
 2636 0d9e 3FF66CAD 		bhi	.L173
 2637 0da2 01A2     		adr	r2, .L283
 2638 0da4 52F823F0 		ldr	pc, [r2, r3, lsl #2]
 2639              		.p2align 2
 2640              	.L283:
 2641 0da8 7D0A0000 		.word	.L292+1
 2642 0dac 690A0000 		.word	.L294+1
 2643 0db0 550A0000 		.word	.L295+1
 2644 0db4 890A0000 		.word	.L286+1
 2645 0db8 99090000 		.word	.L287+1
 2646 0dbc 85090000 		.word	.L288+1
 2647 0dc0 71090000 		.word	.L289+1
 2648 0dc4 E90D0000 		.word	.L290+1
 2649              		.p2align 1
 2650              	.L362:
 2651              		.align	2
 2652              	.L361:
 2653 0dc8 00000000 		.word	EncBuffer
 2654 0dcc 00000000 		.word	Btn_Nav_Or
 2655 0dd0 00000000 		.word	Btn_Nav_And
 2656 0dd4 00000000 		.word	FileName
 2657 0dd8 00000000 		.word	pFileSize
 2658 0ddc 00100120 		.word	536940544
 2659 0de0 00000000 		.word	patchMeta
 2660 0de4 00000000 		.word	.LANCHOR0
 2661              	.L290:
 2662              	.LBB44:
 2663              		.loc 1 1026 0
 2664 0de8 964E     		ldr	r6, .L363
 2665              		.loc 1 1017 0
ARM GAS  /tmp/ccLdaIGa.s 			page 48


 2666 0dea D4F86432 		ldr	r3, [r4, #612]
 2667              		.loc 1 1024 0
 2668 0dee D4F86C12 		ldr	r1, [r4, #620]
 2669              		.loc 1 1026 0
 2670 0df2 3268     		ldr	r2, [r6]
 2671              		.loc 1 1024 0
 2672 0df4 0491     		str	r1, [sp, #16]
 2673              		.loc 1 1020 0
 2674 0df6 4FF0410E 		mov	lr, #65
 2675              		.loc 1 1021 0
 2676 0dfa 7827     		movs	r7, #120
 2677              		.loc 1 1022 0
 2678 0dfc 6F20     		movs	r0, #111
 2679              	.LVL143:
 2680              		.loc 1 1023 0
 2681 0dfe 7221     		movs	r1, #114
 2682              		.loc 1 1022 0
 2683 0e00 8DF80E00 		strb	r0, [sp, #14]
 2684              		.loc 1 1023 0
 2685 0e04 8DF80F10 		strb	r1, [sp, #15]
 2686              		.loc 1 1017 0
 2687 0e08 03EB0565 		add	r5, r3, r5, lsl #24
 2688              		.loc 1 1020 0
 2689 0e0c 8DF80CE0 		strb	lr, [sp, #12]
 2690              		.loc 1 1021 0
 2691 0e10 8DF80D70 		strb	r7, [sp, #13]
 2692              		.loc 1 1026 0
 2693 0e14 1368     		ldr	r3, [r2]
 2694              		.loc 1 1025 0
 2695 0e16 0595     		str	r5, [sp, #20]
 2696              		.loc 1 1026 0
 2697 0e18 03A9     		add	r1, sp, #12
 2698 0e1a 3046     		mov	r0, r6
 2699 0e1c 0C22     		movs	r2, #12
 2700              		.loc 1 1017 0
 2701 0e1e C4F86452 		str	r5, [r4, #612]
 2702              		.loc 1 1026 0
 2703 0e22 9847     		blx	r3
 2704              	.LVL144:
 2705              		.loc 1 1028 0
 2706 0e24 3368     		ldr	r3, [r6]
 2707 0e26 D4F86C12 		ldr	r1, [r4, #620]
 2708 0e2a 1B68     		ldr	r3, [r3]
 2709 0e2c D4F86422 		ldr	r2, [r4, #612]
 2710 0e30 3046     		mov	r0, r6
 2711 0e32 9847     		blx	r3
 2712              	.LVL145:
 2713 0e34 42E7     		b	.L336
 2714              	.LVL146:
 2715              	.L220:
 2716              	.LBE44:
 2717              		.loc 1 751 0
 2718 0e36 D4F86432 		ldr	r3, [r4, #612]
 2719 0e3a 834A     		ldr	r2, .L363+4
 2720 0e3c 002B     		cmp	r3, #0
 2721 0e3e 7FF73BAD 		ble	.L337
 2722              		.loc 1 753 0
ARM GAS  /tmp/ccLdaIGa.s 			page 49


 2723 0e42 D2F87412 		ldr	r1, [r2, #628]
 2724 0e46 01F8010B 		strb	r0, [r1], #1
 2725              		.loc 1 752 0
 2726 0e4a 013B     		subs	r3, r3, #1
 2727 0e4c C2F86432 		str	r3, [r2, #612]
 2728              		.loc 1 754 0
 2729 0e50 C2F87412 		str	r1, [r2, #628]
 2730              		.loc 1 755 0
 2731 0e54 002B     		cmp	r3, #0
 2732 0e56 7FF410AD 		bne	.L173
 2733              	.LBB45:
 2734              		.loc 1 757 0
 2735 0e5a 82F85832 		strb	r3, [r2, #600]
 2736              		.loc 1 758 0
 2737 0e5e C2F85C32 		str	r3, [r2, #604]
 2738              		.loc 1 759 0
 2739 0e62 FFF7FEFF 		bl	sdcard_attemptMountIfUnmounted
 2740              	.LVL147:
 2741              		.loc 1 760 0
 2742 0e66 7948     		ldr	r0, .L363+8
 2743 0e68 7949     		ldr	r1, .L363+12
 2744 0e6a 0A22     		movs	r2, #10
 2745 0e6c FFF7FEFF 		bl	f_open
 2746              	.LVL148:
 2747              		.loc 1 761 0
 2748 0e70 0028     		cmp	r0, #0
 2749 0e72 40F0C080 		bne	.L357
 2750              	.LVL149:
 2751              	.L232:
 2752              		.loc 1 765 0
 2753 0e76 7548     		ldr	r0, .L363+8
 2754 0e78 D4F86C12 		ldr	r1, [r4, #620]
 2755 0e7c D4F87022 		ldr	r2, [r4, #624]
 2756 0e80 03AB     		add	r3, sp, #12
 2757 0e82 FFF7FEFF 		bl	f_write
 2758              	.LVL150:
 2759              		.loc 1 766 0
 2760 0e86 0028     		cmp	r0, #0
 2761 0e88 40F0B180 		bne	.L358
 2762              	.LVL151:
 2763              	.L233:
 2764              		.loc 1 769 0
 2765 0e8c 6F48     		ldr	r0, .L363+8
 2766 0e8e FFF7FEFF 		bl	f_close
 2767              	.LVL152:
 2768              		.loc 1 770 0
 2769 0e92 10B1     		cbz	r0, .L258
 2770              		.loc 1 771 0
 2771 0e94 6F48     		ldr	r0, .L363+16
 2772              	.LVL153:
 2773 0e96 FFF7FEFF 		bl	LogTextMessage
 2774              	.LVL154:
 2775              	.L258:
 2776              	.LBE45:
 2777              	.LBB46:
 2778              		.loc 1 883 0
 2779 0e9a 0123     		movs	r3, #1
ARM GAS  /tmp/ccLdaIGa.s 			page 50


 2780 0e9c C4F85432 		str	r3, [r4, #596]
 2781 0ea0 EBE4     		b	.L173
 2782              	.LVL155:
 2783              	.L355:
 2784              	.LBE46:
 2785              		.loc 1 1038 0
 2786 0ea2 D4F85C32 		ldr	r3, [r4, #604]
 2787 0ea6 043B     		subs	r3, r3, #4
 2788 0ea8 032B     		cmp	r3, #3
 2789 0eaa 3FF6E6AC 		bhi	.L173
 2790 0eae 01A2     		adr	r2, .L293
 2791 0eb0 52F823F0 		ldr	pc, [r2, r3, lsl #2]
 2792              		.p2align 2
 2793              	.L293:
 2794 0eb4 7D0A0000 		.word	.L292+1
 2795 0eb8 690A0000 		.word	.L294+1
 2796 0ebc 550A0000 		.word	.L295+1
 2797 0ec0 C50E0000 		.word	.L296+1
 2798              		.p2align 1
 2799              	.L296:
 2800              	.LBB47:
 2801              		.loc 1 1052 0
 2802 0ec4 D4F86C22 		ldr	r2, [r4, #620]
 2803              		.loc 1 1061 0
 2804 0ec8 5E48     		ldr	r0, .L363
 2805              	.LVL156:
 2806              		.loc 1 1052 0
 2807 0eca 2D06     		lsls	r5, r5, #24
 2808 0ecc AB18     		adds	r3, r5, r2
 2809              		.loc 1 1055 0
 2810 0ece 4FF0410E 		mov	lr, #65
 2811              		.loc 1 1056 0
 2812 0ed2 7827     		movs	r7, #120
 2813              		.loc 1 1057 0
 2814 0ed4 6F26     		movs	r6, #111
 2815              		.loc 1 1058 0
 2816 0ed6 7921     		movs	r1, #121
 2817 0ed8 8DF80F10 		strb	r1, [sp, #15]
 2818              		.loc 1 1055 0
 2819 0edc 8DF80CE0 		strb	lr, [sp, #12]
 2820              		.loc 1 1056 0
 2821 0ee0 8DF80D70 		strb	r7, [sp, #13]
 2822              		.loc 1 1057 0
 2823 0ee4 8DF80E60 		strb	r6, [sp, #14]
 2824              		.loc 1 1059 0
 2825 0ee8 0493     		str	r3, [sp, #16]
 2826              		.loc 1 1061 0
 2827 0eea 0168     		ldr	r1, [r0]
 2828              		.loc 1 1060 0
 2829 0eec AA58     		ldr	r2, [r5, r2]
 2830 0eee 0592     		str	r2, [sp, #20]
 2831              		.loc 1 1061 0
 2832 0ef0 0D68     		ldr	r5, [r1]
 2833              		.loc 1 1052 0
 2834 0ef2 C4F86C32 		str	r3, [r4, #620]
 2835              		.loc 1 1061 0
 2836 0ef6 03A9     		add	r1, sp, #12
ARM GAS  /tmp/ccLdaIGa.s 			page 51


 2837 0ef8 0C22     		movs	r2, #12
 2838 0efa A847     		blx	r5
 2839              	.LVL157:
 2840 0efc DEE6     		b	.L336
 2841              	.LVL158:
 2842              	.L242:
 2843 0efe 544B     		ldr	r3, .L363+12
 2844              	.LBE47:
 2845              		.loc 1 835 0
 2846 0f00 A0BB     		cbnz	r0, .L249
 2847              		.loc 1 835 0 is_stmt 0 discriminator 1
 2848 0f02 1978     		ldrb	r1, [r3]	@ zero_extendqisi2
 2849 0f04 09B9     		cbnz	r1, .L250
 2850              		.loc 1 835 0 discriminator 2
 2851 0f06 0D2A     		cmp	r2, #13
 2852 0f08 30DD     		ble	.L249
 2853              	.L250:
 2854              		.loc 1 840 0 is_stmt 1
 2855 0f0a 1A44     		add	r2, r2, r3
 2856 0f0c 0025     		movs	r5, #0
 2857 0f0e 02F8085C 		strb	r5, [r2, #-8]
 2858              		.loc 1 841 0
 2859 0f12 FFF7FEFF 		bl	ManipulateFile
 2860              	.LVL159:
 2861              		.loc 1 844 0
 2862 0f16 0123     		movs	r3, #1
 2863              		.loc 1 842 0
 2864 0f18 84F85852 		strb	r5, [r4, #600]
 2865              		.loc 1 843 0
 2866 0f1c C4F85C52 		str	r5, [r4, #604]
 2867              		.loc 1 844 0
 2868 0f20 C4F85432 		str	r3, [r4, #596]
 2869 0f24 A9E4     		b	.L173
 2870              	.LVL160:
 2871              	.L252:
 2872              		.loc 1 869 0
 2873 0f26 D4F86432 		ldr	r3, [r4, #612]
 2874 0f2a 474E     		ldr	r6, .L363+4
 2875 0f2c 002B     		cmp	r3, #0
 2876 0f2e 7FF7C3AC 		ble	.L337
 2877              		.loc 1 871 0
 2878 0f32 D6F87422 		ldr	r2, [r6, #628]
 2879 0f36 02F8010B 		strb	r0, [r2], #1
 2880              		.loc 1 870 0
 2881 0f3a 5D1E     		subs	r5, r3, #1
 2882 0f3c C6F86452 		str	r5, [r6, #612]
 2883              		.loc 1 872 0
 2884 0f40 C6F87422 		str	r2, [r6, #628]
 2885              		.loc 1 873 0
 2886 0f44 002D     		cmp	r5, #0
 2887 0f46 7FF498AC 		bne	.L173
 2888              	.LBB48:
 2889              		.loc 1 878 0
 2890 0f4a D6F87022 		ldr	r2, [r6, #624]
 2891 0f4e 3F48     		ldr	r0, .L363+8
 2892              	.LVL161:
 2893 0f50 4149     		ldr	r1, .L363+20
ARM GAS  /tmp/ccLdaIGa.s 			page 52


 2894              		.loc 1 875 0
 2895 0f52 86F85852 		strb	r5, [r6, #600]
 2896              		.loc 1 878 0
 2897 0f56 03AB     		add	r3, sp, #12
 2898              		.loc 1 876 0
 2899 0f58 C6F85C52 		str	r5, [r6, #604]
 2900              		.loc 1 878 0
 2901 0f5c FFF7FEFF 		bl	f_write
 2902              	.LVL162:
 2903              		.loc 1 880 0
 2904 0f60 0028     		cmp	r0, #0
 2905 0f62 9AD0     		beq	.L258
 2906              		.loc 1 881 0
 2907 0f64 2946     		mov	r1, r5
 2908 0f66 FFF7FEFF 		bl	report_fatfs_error
 2909              	.LVL163:
 2910 0f6a 96E7     		b	.L258
 2911              	.LVL164:
 2912              	.L249:
 2913              	.LBE48:
 2914              		.loc 1 836 0
 2915 0f6c 1344     		add	r3, r3, r2
 2916              		.loc 1 837 0
 2917 0f6e 0132     		adds	r2, r2, #1
 2918              		.loc 1 836 0
 2919 0f70 03F8085C 		strb	r5, [r3, #-8]
 2920              		.loc 1 837 0
 2921 0f74 C4F85C22 		str	r2, [r4, #604]
 2922 0f78 7FE4     		b	.L173
 2923              	.L274:
 2924              		.loc 1 967 0
 2925 0f7a D4F87032 		ldr	r3, [r4, #624]
 2926 0f7e 3249     		ldr	r1, .L363+4
 2927 0f80 002B     		cmp	r3, #0
 2928 0f82 7FF7FFAE 		ble	.L218
 2929              		.loc 1 969 0
 2930 0f86 D1F86C22 		ldr	r2, [r1, #620]
 2931              		.loc 1 968 0
 2932 0f8a 013B     		subs	r3, r3, #1
 2933 0f8c C1F87032 		str	r3, [r1, #624]
 2934              		.loc 1 969 0
 2935 0f90 002A     		cmp	r2, #0
 2936 0f92 3FF4F4AE 		beq	.L335
 2937              		.loc 1 970 0
 2938 0f96 02F8010B 		strb	r0, [r2], #1
 2939              		.loc 1 971 0
 2940 0f9a C1F86C22 		str	r2, [r1, #620]
 2941 0f9e EEE6     		b	.L335
 2942              	.L344:
 2943              		.loc 1 582 0
 2944 0fa0 0122     		movs	r2, #1
 2945              		.loc 1 577 0
 2946 0fa2 C4F85C32 		str	r3, [r4, #604]
 2947              		.loc 1 578 0
 2948 0fa6 84F85832 		strb	r3, [r4, #600]
 2949              		.loc 1 582 0
 2950 0faa C4F85422 		str	r2, [r4, #596]
ARM GAS  /tmp/ccLdaIGa.s 			page 53


 2951 0fae 64E4     		b	.L173
 2952              	.L338:
 2953              		.loc 1 540 0
 2954 0fb0 0023     		movs	r3, #0
 2955 0fb2 C6F85C32 		str	r3, [r6, #604]
 2956              		.loc 1 541 0
 2957 0fb6 86F85832 		strb	r3, [r6, #600]
 2958              		.loc 1 542 0
 2959 0fba FFF7FEFF 		bl	StopPatch
 2960              	.LVL165:
 2961              		.loc 1 543 0
 2962 0fbe 0123     		movs	r3, #1
 2963 0fc0 C6F85432 		str	r3, [r6, #596]
 2964 0fc4 59E4     		b	.L173
 2965              	.LVL166:
 2966              	.L339:
 2967              		.loc 1 546 0
 2968 0fc6 0023     		movs	r3, #0
 2969 0fc8 C6F85C32 		str	r3, [r6, #604]
 2970              		.loc 1 547 0
 2971 0fcc 86F85832 		strb	r3, [r6, #600]
 2972              		.loc 1 548 0
 2973 0fd0 FFF7FEFF 		bl	StopPatch
 2974              	.LVL167:
 2975              		.loc 1 549 0
 2976 0fd4 FFF7FEFF 		bl	exception_initiate_dfu
 2977              	.LVL168:
 2978 0fd8 4FE4     		b	.L173
 2979              	.LVL169:
 2980              	.L340:
 2981              		.loc 1 552 0
 2982 0fda 0023     		movs	r3, #0
 2983 0fdc C4F85C32 		str	r3, [r4, #604]
 2984              		.loc 1 553 0
 2985 0fe0 84F85832 		strb	r3, [r4, #600]
 2986              		.loc 1 554 0
 2987 0fe4 FFF7FEFF 		bl	StopPatch
 2988              	.LVL170:
 2989              		.loc 1 555 0
 2990 0fe8 FFF7FEFF 		bl	CopyPatchToFlash
 2991              	.LVL171:
 2992 0fec 45E4     		b	.L173
 2993              	.LVL172:
 2994              	.L358:
 2995              	.LBB49:
 2996              		.loc 1 767 0
 2997 0fee 1B48     		ldr	r0, .L363+24
 2998              	.LVL173:
 2999 0ff0 FFF7FEFF 		bl	LogTextMessage
 3000              	.LVL174:
 3001 0ff4 4AE7     		b	.L233
 3002              	.LVL175:
 3003              	.L357:
 3004              		.loc 1 762 0
 3005 0ff6 1A48     		ldr	r0, .L363+28
 3006              	.LVL176:
 3007 0ff8 FFF7FEFF 		bl	LogTextMessage
ARM GAS  /tmp/ccLdaIGa.s 			page 54


 3008              	.LVL177:
 3009 0ffc 3BE7     		b	.L232
 3010              	.LVL178:
 3011              	.L341:
 3012              	.LBE49:
 3013              		.loc 1 558 0
 3014 0ffe 0023     		movs	r3, #0
 3015 1000 C4F85C32 		str	r3, [r4, #604]
 3016              		.loc 1 559 0
 3017 1004 84F85832 		strb	r3, [r4, #600]
 3018              		.loc 1 560 0
 3019 1008 FFF7FEFF 		bl	StopPatch
 3020              	.LVL179:
 3021              		.loc 1 561 0
 3022 100c FFF7FEFF 		bl	ReadDirectoryListing
 3023              	.LVL180:
 3024 1010 33E4     		b	.L173
 3025              	.LVL181:
 3026              	.L343:
 3027              		.loc 1 571 0
 3028 1012 C4F85C32 		str	r3, [r4, #604]
 3029              		.loc 1 572 0
 3030 1016 84F85832 		strb	r3, [r4, #600]
 3031              		.loc 1 573 0
 3032 101a FFF7FEFF 		bl	ReplyFWVersion
 3033              	.LVL182:
 3034              		.loc 1 574 0
 3035 101e 0123     		movs	r3, #1
 3036 1020 C4F85432 		str	r3, [r4, #596]
 3037 1024 29E4     		b	.L173
 3038              	.LVL183:
 3039              	.L342:
 3040              		.loc 1 566 0
 3041 1026 0F4A     		ldr	r2, .L363+32
 3042              		.loc 1 564 0
 3043 1028 0023     		movs	r3, #0
 3044              		.loc 1 566 0
 3045 102a FC21     		movs	r1, #252
 3046              		.loc 1 564 0
 3047 102c C4F85C32 		str	r3, [r4, #604]
 3048              		.loc 1 565 0
 3049 1030 84F85832 		strb	r3, [r4, #600]
 3050              		.loc 1 566 0
 3051 1034 1170     		strb	r1, [r2]
 3052              		.loc 1 567 0
 3053 1036 FFF7FEFF 		bl	StartPatch
 3054              	.LVL184:
 3055              		.loc 1 568 0
 3056 103a 0123     		movs	r3, #1
 3057 103c C4F85432 		str	r3, [r4, #596]
 3058 1040 1BE4     		b	.L173
 3059              	.L364:
 3060 1042 00BF     		.align	2
 3061              	.L363:
 3062 1044 00000000 		.word	BDU1
 3063 1048 00000000 		.word	.LANCHOR0
 3064 104c 00000000 		.word	pFile
ARM GAS  /tmp/ccLdaIGa.s 			page 55


 3065 1050 00000000 		.word	FileName
 3066 1054 38000000 		.word	.LC4
 3067 1058 00100120 		.word	536940544
 3068 105c 24000000 		.word	.LC3
 3069 1060 10000000 		.word	.LC2
 3070 1064 00000000 		.word	loadPatchIndex
 3071              		.cfi_endproc
 3072              	.LFE143:
 3073              		.size	PExReceiveByte, .-PExReceiveByte
 3074              		.align	2
 3075 1068 AFF30080 		.p2align 4,,15
 3075      AFF30080 
 3076              		.global	PExReceive
 3077              		.thumb
 3078              		.thumb_func
 3079              		.type	PExReceive, %function
 3080              	PExReceive:
 3081              	.LFB144:
 3082              		.loc 1 1075 0
 3083              		.cfi_startproc
 3084              		@ args = 0, pretend = 0, frame = 8
 3085              		@ frame_needed = 0, uses_anonymous_args = 0
 3086              		.loc 1 1076 0
 3087 1070 0C4B     		ldr	r3, .L372
 3088 1072 D3F85432 		ldr	r3, [r3, #596]
 3089 1076 9BB9     		cbnz	r3, .L371
 3090              		.loc 1 1075 0
 3091 1078 30B5     		push	{r4, r5, lr}
 3092              		.cfi_def_cfa_offset 12
 3093              		.cfi_offset 4, -12
 3094              		.cfi_offset 5, -8
 3095              		.cfi_offset 14, -4
 3096 107a 0B4D     		ldr	r5, .L372+4
 3097 107c 83B0     		sub	sp, sp, #12
 3098              		.cfi_def_cfa_offset 24
 3099 107e 03E0     		b	.L366
 3100              	.L368:
 3101              	.LBB50:
 3102              		.loc 1 1079 0
 3103 1080 9DF80700 		ldrb	r0, [sp, #7]	@ zero_extendqisi2
 3104 1084 FFF7FEFF 		bl	PExReceiveByte
 3105              	.LVL185:
 3106              	.L366:
 3107              		.loc 1 1078 0
 3108 1088 2B68     		ldr	r3, [r5]
 3109 108a 0748     		ldr	r0, .L372+4
 3110 108c DC69     		ldr	r4, [r3, #28]
 3111 108e 0DF10701 		add	r1, sp, #7
 3112 1092 0122     		movs	r2, #1
 3113 1094 0023     		movs	r3, #0
 3114 1096 A047     		blx	r4
 3115              	.LVL186:
 3116 1098 0028     		cmp	r0, #0
 3117 109a F1D1     		bne	.L368
 3118              	.LBE50:
 3119              		.loc 1 1082 0
 3120 109c 03B0     		add	sp, sp, #12
ARM GAS  /tmp/ccLdaIGa.s 			page 56


 3121              		.cfi_def_cfa_offset 12
 3122              		@ sp needed
 3123 109e 30BD     		pop	{r4, r5, pc}
 3124              	.L371:
 3125              		.cfi_def_cfa_offset 0
 3126              		.cfi_restore 4
 3127              		.cfi_restore 5
 3128              		.cfi_restore 14
 3129 10a0 7047     		bx	lr
 3130              	.L373:
 3131 10a2 00BF     		.align	2
 3132              	.L372:
 3133 10a4 00000000 		.word	.LANCHOR0
 3134 10a8 00000000 		.word	BDU1
 3135              		.cfi_endproc
 3136              	.LFE144:
 3137              		.size	PExReceive, .-PExReceive
 3138              		.comm	pFileSize,4,4
 3139              		.comm	pFile,40,4
 3140              		.comm	FileName,256,4
 3141              		.global	connected
 3142              		.global	AckPending
 3143              		.comm	fwid,4,4
 3144              		.section	.rodata.str1.4,"aMS",%progbits,1
 3145              		.align	2
 3146              	.LC0:
 3147 0000 75736264 		.ascii	"usbdmidi\000"
 3147      6D696469 
 3147      00
 3148 0009 000000   		.space	3
 3149              	.LC1:
 3150 000c 2F00     		.ascii	"/\000"
 3151 000e 0000     		.space	2
 3152              	.LC2:
 3153 0010 46696C65 		.ascii	"File open failed\000"
 3153      206F7065 
 3153      6E206661 
 3153      696C6564 
 3153      00
 3154 0021 000000   		.space	3
 3155              	.LC3:
 3156 0024 46696C65 		.ascii	"File write failed\000"
 3156      20777269 
 3156      74652066 
 3156      61696C65 
 3156      6400
 3157 0036 0000     		.space	2
 3158              	.LC4:
 3159 0038 46696C65 		.ascii	"File close failed\000"
 3159      20636C6F 
 3159      73652066 
 3159      61696C65 
 3159      6400
 3160              		.bss
 3161              		.align	3
 3162              		.set	.LANCHOR0,. + 0
 3163              		.type	waThreadUSBDMidi, %object
ARM GAS  /tmp/ccLdaIGa.s 			page 57


 3164              		.size	waThreadUSBDMidi, 592
 3165              	waThreadUSBDMidi:
 3166 0000 00000000 		.space	592
 3166      00000000 
 3166      00000000 
 3166      00000000 
 3166      00000000 
 3167              		.type	connected, %object
 3168              		.size	connected, 1
 3169              	connected:
 3170 0250 00       		.space	1
 3171 0251 000000   		.space	3
 3172              		.type	AckPending, %object
 3173              		.size	AckPending, 4
 3174              	AckPending:
 3175 0254 00000000 		.space	4
 3176              		.type	header.8716, %object
 3177              		.size	header.8716, 1
 3178              	header.8716:
 3179 0258 00       		.space	1
 3180 0259 000000   		.space	3
 3181              		.type	state.8717, %object
 3182              		.size	state.8717, 4
 3183              	state.8717:
 3184 025c 00000000 		.space	4
 3185              		.type	patchid.8725, %object
 3186              		.size	patchid.8725, 4
 3187              	patchid.8725:
 3188 0260 00000000 		.space	4
 3189              		.type	value.8719, %object
 3190              		.size	value.8719, 4
 3191              	value.8719:
 3192 0264 00000000 		.space	4
 3193              		.type	index.8718, %object
 3194              		.size	index.8718, 4
 3195              	index.8718:
 3196 0268 00000000 		.space	4
 3197              		.type	offset.8721, %object
 3198              		.size	offset.8721, 4
 3199              	offset.8721:
 3200 026c 00000000 		.space	4
 3201              		.type	length.8722, %object
 3202              		.size	length.8722, 4
 3203              	length.8722:
 3204 0270 00000000 		.space	4
 3205              		.type	position.8720, %object
 3206              		.size	position.8720, 4
 3207              	position.8720:
 3208 0274 00000000 		.space	4
 3209              		.type	midi_r.8777, %object
 3210              		.size	midi_r.8777, 3
 3211              	midi_r.8777:
 3212 0278 000000   		.space	3
 3213 027b 00       		.space	1
 3214              		.type	a.8723, %object
 3215              		.size	a.8723, 4
 3216              	a.8723:
ARM GAS  /tmp/ccLdaIGa.s 			page 58


 3217 027c 00000000 		.space	4
 3218              		.type	b.8724, %object
 3219              		.size	b.8724, 4
 3220              	b.8724:
 3221 0280 00000000 		.space	4
 3222              		.text
 3223              	.Letext0:
 3224              		.file 2 "/home/sbcu/Dropbox/pcb-layouts/axo-on-discovery-board/axoloti/platform_linux/lib/gcc/arm-
 3225              		.file 3 "/home/sbcu/Dropbox/pcb-layouts/axo-on-discovery-board/axoloti/platform_linux/arm-none-eab
 3226              		.file 4 "/home/sbcu/Dropbox/pcb-layouts/axo-on-discovery-board/axoloti/platform_linux/arm-none-eab
 3227              		.file 5 "/home/sbcu/Dropbox/pcb-layouts/axo-on-discovery-board/axoloti/platform_linux/../chibios/o
 3228              		.file 6 "/home/sbcu/Dropbox/pcb-layouts/axo-on-discovery-board/axoloti/platform_linux/../chibios/o
 3229              		.file 7 "/home/sbcu/Dropbox/pcb-layouts/axo-on-discovery-board/axoloti/platform_linux/../chibios/o
 3230              		.file 8 "/home/sbcu/Dropbox/pcb-layouts/axo-on-discovery-board/axoloti/platform_linux/../chibios/o
 3231              		.file 9 "/home/sbcu/Dropbox/pcb-layouts/axo-on-discovery-board/axoloti/platform_linux/../chibios/o
 3232              		.file 10 "/home/sbcu/Dropbox/pcb-layouts/axo-on-discovery-board/axoloti/platform_linux/../chibios/
 3233              		.file 11 "/home/sbcu/Dropbox/pcb-layouts/axo-on-discovery-board/axoloti/platform_linux/../chibios/
 3234              		.file 12 "/home/sbcu/Dropbox/pcb-layouts/axo-on-discovery-board/axoloti/platform_linux/../chibios/
 3235              		.file 13 "/home/sbcu/Dropbox/pcb-layouts/axo-on-discovery-board/axoloti/platform_linux/../chibios/
 3236              		.file 14 "/home/sbcu/Dropbox/pcb-layouts/axo-on-discovery-board/axoloti/platform_linux/../chibios/
 3237              		.file 15 "/home/sbcu/Dropbox/pcb-layouts/axo-on-discovery-board/axoloti/platform_linux/../chibios/
 3238              		.file 16 "/home/sbcu/Dropbox/pcb-layouts/axo-on-discovery-board/axoloti/platform_linux/../chibios/
 3239              		.file 17 "/home/sbcu/Dropbox/pcb-layouts/axo-on-discovery-board/axoloti/platform_linux/../chibios/
 3240              		.file 18 "/home/sbcu/Dropbox/pcb-layouts/axo-on-discovery-board/axoloti/platform_linux/lib/gcc/arm
 3241              		.file 19 "<built-in>"
 3242              		.file 20 "parameters.h"
 3243              		.file 21 "ui.h"
 3244              		.file 22 "/home/sbcu/Dropbox/pcb-layouts/axo-on-discovery-board/axoloti/platform_linux/../chibios/
 3245              		.file 23 "/home/sbcu/Dropbox/pcb-layouts/axo-on-discovery-board/axoloti/platform_linux/../chibios/
 3246              		.file 24 "midi.h"
 3247              		.file 25 "patch.h"
 3248              		.file 26 "bulk_usb.h"
 3249              		.file 27 "midi_usb.h"
 3250              		.file 28 "/home/sbcu/Dropbox/pcb-layouts/axo-on-discovery-board/axoloti/platform_linux/../CMSIS//I
 3251              		.file 29 "usbcfg.h"
 3252              		.file 30 "sdcard.h"
 3253              		.file 31 "/home/sbcu/Dropbox/pcb-layouts/axo-on-discovery-board/axoloti/platform_linux/arm-none-ea
 3254              		.file 32 "exceptions.h"
 3255              		.file 33 "crc32.h"
 3256              		.file 34 "/home/sbcu/Dropbox/pcb-layouts/axo-on-discovery-board/axoloti/platform_linux/../chibios/
 3257              		.file 35 "sysmon.h"
 3258              		.file 36 "flash.h"