ARM GAS  /tmp/ccrf5Nqh.s 			page 1


   1              		.syntax unified
   2              		.cpu cortex-m4
   3              		.eabi_attribute 27, 1
   4              		.eabi_attribute 28, 1
   5              		.fpu fpv4-sp-d16
   6              		.eabi_attribute 20, 1
   7              		.eabi_attribute 21, 1
   8              		.eabi_attribute 23, 3
   9              		.eabi_attribute 24, 1
  10              		.eabi_attribute 25, 1
  11              		.eabi_attribute 26, 1
  12              		.eabi_attribute 30, 2
  13              		.eabi_attribute 34, 1
  14              		.eabi_attribute 18, 4
  15              		.thumb
  16              		.file	"phase_vocoder.cpp"
  17              		.text
  18              	.Ltext0:
  19              		.cfi_sections	.debug_frame
  20              		.align	2
  21              		.p2align 4,,15
  22              		.global	_ZN6clouds12PhaseVocoder4InitEPPvPjPKfjllf
  23              		.thumb
  24              		.thumb_func
  25              		.type	_ZN6clouds12PhaseVocoder4InitEPPvPjPKfjllf, %function
  26              	_ZN6clouds12PhaseVocoder4InitEPPvPjPKfjllf:
  27              		.fnstart
  28              	.LFB612:
  29              		.file 1 "./mutable_instruments/clouds/dsp/pvoc/phase_vocoder.cpp"
  30              		.loc 1 47 0
  31              		.cfi_startproc
  32              		@ args = 12, pretend = 0, frame = 64
  33              		@ frame_needed = 0, uses_anonymous_args = 0
  34              	.LVL0:
  35 0000 2DE9F04F 		push	{r4, r5, r6, r7, r8, r9, r10, fp, lr}
  36              		.save {r4, r5, r6, r7, r8, r9, r10, fp, lr}
  37              		.cfi_def_cfa_offset 36
  38              		.cfi_offset 4, -36
  39              		.cfi_offset 5, -32
  40              		.cfi_offset 6, -28
  41              		.cfi_offset 7, -24
  42              		.cfi_offset 8, -20
  43              		.cfi_offset 9, -16
  44              		.cfi_offset 10, -12
  45              		.cfi_offset 11, -8
  46              		.cfi_offset 14, -4
  47              		.pad #92
  48 0004 97B0     		sub	sp, sp, #92
  49              		.cfi_def_cfa_offset 128
  50              	.LBB68:
  51              		.loc 1 54 0
  52 0006 92E81040 		ldmia	r2, {r4, lr}
  53              	.LBE68:
  54              		.loc 1 47 0
  55 000a 209E     		ldr	r6, [sp, #128]
  56              	.LBB150:
  57              		.loc 1 54 0
ARM GAS  /tmp/ccrf5Nqh.s 			page 2


  58 000c 4D68     		ldr	r5, [r1, #4]
  59              		.loc 1 53 0
  60 000e 0F68     		ldr	r7, [r1]
  61              	.LBB69:
  62              	.LBB70:
  63              	.LBB71:
  64              		.file 2 "./mutable_instruments/stmlib/utils/buffer_allocator.h"
  65              		.loc 2 46 0
  66 0010 1395     		str	r5, [sp, #76]
  67              	.LBE71:
  68              	.LBE70:
  69              	.LBE69:
  70              	.LBB80:
  71              	.LBB81:
  72              		.loc 2 53 0
  73 0012 B200     		lsls	r2, r6, #2
  74              	.LVL1:
  75              	.LBE81:
  76              	.LBE80:
  77              	.LBE150:
  78              		.loc 1 47 0
  79 0014 2199     		ldr	r1, [sp, #132]
  80              	.LVL2:
  81              	.LBB151:
  82              	.LBB89:
  83              	.LBB78:
  84              	.LBB76:
  85              	.LBB72:
  86              	.LBB73:
  87              		.loc 2 65 0
  88 0016 1295     		str	r5, [sp, #72]
  89              	.LBE73:
  90              	.LBE72:
  91              	.LBE76:
  92              	.LBE78:
  93              	.LBE89:
  94              		.loc 1 55 0
  95 0018 0DF1480C 		add	ip, sp, #72
  96 001c 0EAD     		add	r5, sp, #56
  97              	.LBB90:
  98              	.LBB86:
  99              	.LBB82:
 100              		.loc 2 54 0
 101 001e 9442     		cmp	r4, r2
 102              	.LBE82:
 103              	.LBE86:
 104              	.LBE90:
 105              	.LBB91:
 106              	.LBB92:
 107              	.LBB93:
 108              		.loc 2 47 0
 109 0020 1194     		str	r4, [sp, #68]
 110              	.LBB94:
 111              	.LBB95:
 112              		.loc 2 66 0
 113 0022 1094     		str	r4, [sp, #64]
 114              	.LBE95:
ARM GAS  /tmp/ccrf5Nqh.s 			page 3


 115              	.LBE94:
 116              	.LBE93:
 117              	.LBE92:
 118              	.LBE91:
 119              	.LBB100:
 120              	.LBB79:
 121              	.LBB77:
 122              		.loc 2 47 0
 123 0024 CDF854E0 		str	lr, [sp, #84]
 124              	.LBB75:
 125              	.LBB74:
 126              		.loc 2 66 0
 127 0028 CDF850E0 		str	lr, [sp, #80]
 128              	.LBE74:
 129              	.LBE75:
 130              	.LBE77:
 131              	.LBE79:
 132              	.LBE100:
 133              	.LBB101:
 134              	.LBB99:
 135              	.LBB98:
 136              		.loc 2 46 0
 137 002c 0F97     		str	r7, [sp, #60]
 138              	.LBB97:
 139              	.LBB96:
 140              		.loc 2 65 0
 141 002e 0E97     		str	r7, [sp, #56]
 142              	.LBE96:
 143              	.LBE97:
 144              	.LBE98:
 145              	.LBE99:
 146              	.LBE101:
 147              		.loc 1 48 0
 148 0030 C0F86411 		str	r1, [r0, #356]
 149              	.LVL3:
 150              		.loc 1 55 0
 151 0034 0C95     		str	r5, [sp, #48]
 152 0036 CDF834C0 		str	ip, [sp, #52]
 153              	.LVL4:
 154              	.LBB102:
 155              	.LBB87:
 156              	.LBB84:
 157              		.loc 2 54 0
 158 003a C0F08E80 		bcc	.L11
 159              	.LVL5:
 160              	.LBB83:
 161              		.loc 2 57 0
 162 003e A41A     		subs	r4, r4, r2
 163              	.LVL6:
 164              		.loc 2 56 0
 165 0040 BD18     		adds	r5, r7, r2
 166              	.LVL7:
 167              		.loc 2 57 0
 168 0042 1094     		str	r4, [sp, #64]
 169              		.loc 2 56 0
 170 0044 0E95     		str	r5, [sp, #56]
 171              		.loc 2 58 0
ARM GAS  /tmp/ccrf5Nqh.s 			page 4


 172 0046 0897     		str	r7, [sp, #32]
 173              	.LVL8:
 174              	.L2:
 175              	.LBE83:
 176              	.LBE84:
 177              	.LBE87:
 178              	.LBE102:
 179              		.loc 1 57 0
 180 0048 16AC     		add	r4, sp, #88
 181 004a 04EB8104 		add	r4, r4, r1, lsl #2
 182 004e 54F82C4C 		ldr	r4, [r4, #-44]
 183              	.LVL9:
 184              	.LBB103:
 185              	.LBB104:
 186              	.LBB105:
 187              		.loc 2 54 0
 188 0052 A568     		ldr	r5, [r4, #8]
 189 0054 AA42     		cmp	r2, r5
 190 0056 7DD8     		bhi	.L12
 191              	.LBB106:
 192              		.loc 2 55 0
 193 0058 2768     		ldr	r7, [r4]
 194              	.LVL10:
 195              		.loc 2 58 0
 196 005a 0997     		str	r7, [sp, #36]
 197              		.loc 2 57 0
 198 005c AD1A     		subs	r5, r5, r2
 199              		.loc 2 56 0
 200 005e 3A44     		add	r2, r2, r7
 201              	.LVL11:
 202              		.loc 2 57 0
 203 0060 A560     		str	r5, [r4, #8]
 204              	.LVL12:
 205              		.loc 2 56 0
 206 0062 2260     		str	r2, [r4]
 207              	.LVL13:
 208              	.L3:
 209              	.LBE106:
 210              	.LBE105:
 211              	.LBE104:
 212              	.LBE103:
 213              	.LBB109:
 214              		.loc 1 61 0
 215 0064 0029     		cmp	r1, #0
 216 0066 4ADD     		ble	.L1
 217              	.LBE109:
 218              		.loc 1 60 0
 219 0068 7408     		lsrs	r4, r6, #1
 220              	.LVL14:
 221 006a 04EB060A 		add	r10, r4, r6
 222 006e 103C     		subs	r4, r4, #16
 223              	.LVL15:
 224 0070 0B93     		str	r3, [sp, #44]
 225 0072 A300     		lsls	r3, r4, #2
 226              	.LVL16:
 227 0074 0793     		str	r3, [sp, #28]
 228 0076 B308     		lsrs	r3, r6, #2
ARM GAS  /tmp/ccrf5Nqh.s 			page 5


 229 0078 0A93     		str	r3, [sp, #40]
 230 007a 0EAB     		add	r3, sp, #56
 231 007c 1946     		mov	r1, r3
 232              	.LVL17:
 233 007e 4FEA8A0A 		lsl	r10, r10, #2
 234              	.LBB129:
 235              	.LBB110:
 236              	.LBB111:
 237              	.LBB112:
 238              	.LBB113:
 239              		.loc 2 54 0
 240 0082 8A68     		ldr	r2, [r1, #8]
 241              	.LBE113:
 242              	.LBE112:
 243              	.LBE111:
 244              	.LBE110:
 245              	.LBE129:
 246              		.loc 1 60 0
 247 0084 2096     		str	r6, [sp, #128]
 248              	.LVL18:
 249 0086 00F1FC09 		add	r9, r0, #252
 250              	.LBB130:
 251              	.LBB126:
 252              	.LBB123:
 253              	.LBB120:
 254              	.LBB117:
 255              		.loc 2 54 0
 256 008a 9245     		cmp	r10, r2
 257 008c 0546     		mov	r5, r0
 258 008e 00F15C0B 		add	fp, r0, #92
 259              	.LBE117:
 260              	.LBE120:
 261              	.LBE123:
 262              	.LBE126:
 263              	.LBE130:
 264              		.loc 1 60 0
 265 0092 4C46     		mov	r4, r9
 266              	.LVL19:
 267 0094 4FF00708 		mov	r8, #7
 268 0098 4FF00007 		mov	r7, #0
 269              	.LVL20:
 270              	.LBB131:
 271              	.LBB127:
 272              	.LBB124:
 273              	.LBB121:
 274              	.LBB118:
 275              	.LBB114:
 276              		.loc 2 57 0
 277 009c CAEB0200 		rsb	r0, r10, r2
 278              	.LVL21:
 279              	.LBE114:
 280              		.loc 2 54 0
 281 00a0 2AD8     		bhi	.L13
 282              	.LVL22:
 283              	.L17:
 284              	.LBB115:
 285              		.loc 2 55 0
ARM GAS  /tmp/ccrf5Nqh.s 			page 6


 286 00a2 0B68     		ldr	r3, [r1]
 287              	.LVL23:
 288              		.loc 2 57 0
 289 00a4 8860     		str	r0, [r1, #8]
 290              		.loc 2 56 0
 291 00a6 03EB0A02 		add	r2, r3, r10
 292              		.loc 2 57 0
 293 00aa 8646     		mov	lr, r0
 294              		.loc 2 56 0
 295 00ac 0A60     		str	r2, [r1]
 296              	.LVL24:
 297              	.L5:
 298              	.LBE115:
 299              	.LBE118:
 300              	.LBE121:
 301              	.LBE124:
 302              		.loc 1 76 0
 303 00ae 089A     		ldr	r2, [sp, #32]
 304 00b0 0092     		str	r2, [sp]
 305 00b2 099A     		ldr	r2, [sp, #36]
 306 00b4 0192     		str	r2, [sp, #4]
 307 00b6 0B9A     		ldr	r2, [sp, #44]
 308 00b8 0292     		str	r2, [sp, #8]
 309 00ba 0393     		str	r3, [sp, #12]
 310 00bc 0494     		str	r4, [sp, #16]
 311 00be 5846     		mov	r0, fp
 312 00c0 0A9B     		ldr	r3, [sp, #40]
 313              		.loc 1 66 0
 314 00c2 079E     		ldr	r6, [sp, #28]
 315              		.loc 1 76 0
 316 00c4 209A     		ldr	r2, [sp, #128]
 317              		.loc 1 66 0
 318 00c6 BEFBF6FE 		udiv	lr, lr, r6
 319              	.LVL25:
 320              		.loc 1 76 0
 321 00ca 2946     		mov	r1, r5
 322 00cc F045     		cmp	r8, lr
 323 00ce 28BF     		it	cs
 324 00d0 F046     		movcs	r8, lr
 325              	.LVL26:
 326 00d2 FFF7FEFF 		bl	_ZN6clouds4STFT4InitEPN6stmlib6ShyFFTIfLj4096ENS1_14RotationPhasorEEEjjPfS6_PKfPsPNS_19FrameTra
 327              	.LVL27:
 328              	.LBE127:
 329              		.loc 1 61 0
 330 00d6 D5F86431 		ldr	r3, [r5, #356]
 331 00da 0137     		adds	r7, r7, #1
 332              	.LVL28:
 333 00dc BB42     		cmp	r3, r7
 334 00de 04F13404 		add	r4, r4, #52
 335 00e2 0BF1500B 		add	fp, fp, #80
 336 00e6 0DDD     		ble	.L6
 337 00e8 0CAB     		add	r3, sp, #48
 338 00ea 53F82710 		ldr	r1, [r3, r7, lsl #2]
 339              	.LVL29:
 340              	.LBB128:
 341              	.LBB125:
 342              	.LBB122:
ARM GAS  /tmp/ccrf5Nqh.s 			page 7


 343              	.LBB119:
 344              		.loc 2 54 0
 345 00ee 8A68     		ldr	r2, [r1, #8]
 346 00f0 9245     		cmp	r10, r2
 347              	.LBB116:
 348              		.loc 2 57 0
 349 00f2 CAEB0200 		rsb	r0, r10, r2
 350              	.LBE116:
 351              		.loc 2 54 0
 352 00f6 D4D9     		bls	.L17
 353              	.LVL30:
 354              	.L13:
 355 00f8 9646     		mov	lr, r2
 356              		.loc 2 60 0
 357 00fa 0023     		movs	r3, #0
 358 00fc D7E7     		b	.L5
 359              	.LVL31:
 360              	.L1:
 361              	.LBE119:
 362              	.LBE122:
 363              	.LBE125:
 364              	.LBE128:
 365              	.LBE131:
 366              	.LBE151:
 367              		.loc 1 83 0
 368 00fe 17B0     		add	sp, sp, #92
 369              		.cfi_remember_state
 370              		.cfi_def_cfa_offset 36
 371              		@ sp needed
 372 0100 BDE8F08F 		pop	{r4, r5, r6, r7, r8, r9, r10, fp, pc}
 373              	.LVL32:
 374              	.L6:
 375              		.cfi_restore_state
 376              	.LBB152:
 377              	.LBB132:
 378              		.loc 1 78 0
 379 0104 002B     		cmp	r3, #0
 380 0106 209E     		ldr	r6, [sp, #128]
 381              	.LVL33:
 382 0108 F9DD     		ble	.L1
 383 010a 079B     		ldr	r3, [sp, #28]
 384 010c 03FB08F4 		mul	r4, r3, r8
 385 0110 0EAB     		add	r3, sp, #56
 386              	.LVL34:
 387              	.LBB133:
 388              	.LBB134:
 389              	.LBB135:
 390              	.LBB136:
 391              		.loc 2 54 0
 392 0112 9A68     		ldr	r2, [r3, #8]
 393 0114 9442     		cmp	r4, r2
 394              	.LBE136:
 395              	.LBE135:
 396              	.LBE134:
 397              	.LBE133:
 398              		.loc 1 78 0
 399 0116 4FF00007 		mov	r7, #0
ARM GAS  /tmp/ccrf5Nqh.s 			page 8


 400              	.LVL35:
 401              	.LBB146:
 402              	.LBB144:
 403              	.LBB142:
 404              	.LBB140:
 405              	.LBB137:
 406              		.loc 2 57 0
 407 011a A2EB0402 		sub	r2, r2, r4
 408              	.LBE137:
 409              		.loc 2 54 0
 410 011e 17D8     		bhi	.L14
 411              	.LVL36:
 412              	.L18:
 413              	.LBB138:
 414              		.loc 2 55 0
 415 0120 1968     		ldr	r1, [r3]
 416              	.LVL37:
 417              		.loc 2 57 0
 418 0122 9A60     		str	r2, [r3, #8]
 419              		.loc 2 56 0
 420 0124 0A19     		adds	r2, r1, r4
 421 0126 1A60     		str	r2, [r3]
 422              	.LVL38:
 423              	.L9:
 424              	.LBE138:
 425              	.LBE140:
 426              	.LBE142:
 427              	.LBE144:
 428              		.loc 1 81 0
 429 0128 4846     		mov	r0, r9
 430 012a 4346     		mov	r3, r8
 431              	.LVL39:
 432 012c 3246     		mov	r2, r6
 433 012e FFF7FEFF 		bl	_ZN6clouds19FrameTransformation4InitEPfll
 434              	.LVL40:
 435              	.LBE146:
 436              		.loc 1 78 0
 437 0132 D5F86431 		ldr	r3, [r5, #356]
 438 0136 0137     		adds	r7, r7, #1
 439              	.LVL41:
 440 0138 BB42     		cmp	r3, r7
 441 013a 09F13409 		add	r9, r9, #52
 442 013e DEDD     		ble	.L1
 443 0140 0CAB     		add	r3, sp, #48
 444 0142 53F82730 		ldr	r3, [r3, r7, lsl #2]
 445              	.LVL42:
 446              	.LBB147:
 447              	.LBB145:
 448              	.LBB143:
 449              	.LBB141:
 450              		.loc 2 54 0
 451 0146 9A68     		ldr	r2, [r3, #8]
 452 0148 9442     		cmp	r4, r2
 453              	.LBB139:
 454              		.loc 2 57 0
 455 014a A2EB0402 		sub	r2, r2, r4
 456              	.LBE139:
ARM GAS  /tmp/ccrf5Nqh.s 			page 9


 457              		.loc 2 54 0
 458 014e E7D9     		bls	.L18
 459              	.L14:
 460              		.loc 2 60 0
 461 0150 0021     		movs	r1, #0
 462 0152 E9E7     		b	.L9
 463              	.LVL43:
 464              	.L12:
 465              	.LBE141:
 466              	.LBE143:
 467              	.LBE145:
 468              	.LBE147:
 469              	.LBE132:
 470              	.LBB148:
 471              	.LBB108:
 472              	.LBB107:
 473 0154 0022     		movs	r2, #0
 474              	.LVL44:
 475 0156 0992     		str	r2, [sp, #36]
 476 0158 84E7     		b	.L3
 477              	.LVL45:
 478              	.L11:
 479              	.LBE107:
 480              	.LBE108:
 481              	.LBE148:
 482              	.LBB149:
 483              	.LBB88:
 484              	.LBB85:
 485 015a 0024     		movs	r4, #0
 486              	.LVL46:
 487 015c 0894     		str	r4, [sp, #32]
 488 015e 73E7     		b	.L2
 489              	.LBE85:
 490              	.LBE88:
 491              	.LBE149:
 492              	.LBE152:
 493              		.cfi_endproc
 494              	.LFE612:
 495              		.fnend
 496              		.size	_ZN6clouds12PhaseVocoder4InitEPPvPjPKfjllf, .-_ZN6clouds12PhaseVocoder4InitEPPvPjPKfjllf
 497              		.align	2
 498              		.p2align 4,,15
 499              		.global	_ZN6clouds12PhaseVocoder7ProcessERKNS_10ParametersEPKNS_10FloatFrameEPS4_j
 500              		.thumb
 501              		.thumb_func
 502              		.type	_ZN6clouds12PhaseVocoder7ProcessERKNS_10ParametersEPKNS_10FloatFrameEPS4_j, %function
 503              	_ZN6clouds12PhaseVocoder7ProcessERKNS_10ParametersEPKNS_10FloatFrameEPS4_j:
 504              		.fnstart
 505              	.LFB613:
 506              		.loc 1 88 0
 507              		.cfi_startproc
 508              		@ args = 4, pretend = 0, frame = 0
 509              		@ frame_needed = 0, uses_anonymous_args = 0
 510              	.LVL47:
 511 0160 2DE9F04F 		push	{r4, r5, r6, r7, r8, r9, r10, fp, lr}
 512              		.save {r4, r5, r6, r7, r8, r9, r10, fp, lr}
 513              		.cfi_def_cfa_offset 36
ARM GAS  /tmp/ccrf5Nqh.s 			page 10


 514              		.cfi_offset 4, -36
 515              		.cfi_offset 5, -32
 516              		.cfi_offset 6, -28
 517              		.cfi_offset 7, -24
 518              		.cfi_offset 8, -20
 519              		.cfi_offset 9, -16
 520              		.cfi_offset 10, -12
 521              		.cfi_offset 11, -8
 522              		.cfi_offset 14, -4
 523              	.LBB153:
 524              	.LBB154:
 525              		.loc 1 91 0
 526 0164 D0F86441 		ldr	r4, [r0, #356]
 527              	.LBE154:
 528              	.LBE153:
 529              		.loc 1 88 0
 530              		.pad #12
 531 0168 83B0     		sub	sp, sp, #12
 532              		.cfi_def_cfa_offset 48
 533              	.LBB157:
 534              	.LBB155:
 535              		.loc 1 91 0
 536 016a 002C     		cmp	r4, #0
 537              	.LBE155:
 538              	.LBE157:
 539              		.loc 1 88 0
 540 016c DDF83090 		ldr	r9, [sp, #48]
 541              	.LVL48:
 542              	.LBB158:
 543              	.LBB156:
 544              		.loc 1 91 0
 545 0170 1BDD     		ble	.L19
 546 0172 8A46     		mov	r10, r1
 547 0174 8046     		mov	r8, r0
 548 0176 1546     		mov	r5, r2
 549 0178 1C46     		mov	r4, r3
 550 017a 00F15C07 		add	r7, r0, #92
 551 017e 0026     		movs	r6, #0
 552              		.loc 1 97 0
 553 0180 4FF0020B 		mov	fp, #2
 554              	.LVL49:
 555              	.L21:
 556              		.loc 1 97 0 is_stmt 0 discriminator 3
 557 0184 2346     		mov	r3, r4
 558 0186 3846     		mov	r0, r7
 559 0188 2A46     		mov	r2, r5
 560 018a 8DE8000A 		stmia	sp, {r9, fp}
 561 018e 5146     		mov	r1, r10
 562 0190 FFF7FEFF 		bl	_ZN6clouds4STFT7ProcessERKNS_10ParametersEPKfPfjj
 563              	.LVL50:
 564              		.loc 1 91 0 is_stmt 1 discriminator 3
 565 0194 D8F86431 		ldr	r3, [r8, #356]
 566 0198 0136     		adds	r6, r6, #1
 567              	.LVL51:
 568 019a B342     		cmp	r3, r6
 569 019c 07F15007 		add	r7, r7, #80
 570 01a0 05F10405 		add	r5, r5, #4
ARM GAS  /tmp/ccrf5Nqh.s 			page 11


 571 01a4 04F10404 		add	r4, r4, #4
 572 01a8 ECDC     		bgt	.L21
 573              	.LVL52:
 574              	.L19:
 575              	.LBE156:
 576              	.LBE158:
 577              		.loc 1 99 0
 578 01aa 03B0     		add	sp, sp, #12
 579              		.cfi_def_cfa_offset 36
 580              		@ sp needed
 581 01ac BDE8F08F 		pop	{r4, r5, r6, r7, r8, r9, r10, fp, pc}
 582              		.cfi_endproc
 583              	.LFE613:
 584              		.fnend
 585              		.size	_ZN6clouds12PhaseVocoder7ProcessERKNS_10ParametersEPKNS_10FloatFrameEPS4_j, .-_ZN6clouds12Ph
 586              		.align	2
 587              		.p2align 4,,15
 588              		.global	_ZN6clouds12PhaseVocoder6BufferEv
 589              		.thumb
 590              		.thumb_func
 591              		.type	_ZN6clouds12PhaseVocoder6BufferEv, %function
 592              	_ZN6clouds12PhaseVocoder6BufferEv:
 593              		.fnstart
 594              	.LFB614:
 595              		.loc 1 101 0
 596              		.cfi_startproc
 597              		@ args = 0, pretend = 0, frame = 0
 598              		@ frame_needed = 0, uses_anonymous_args = 0
 599              	.LVL53:
 600              	.LBB159:
 601              		.loc 1 102 0
 602 01b0 D0F86431 		ldr	r3, [r0, #356]
 603 01b4 002B     		cmp	r3, #0
 604 01b6 0FDD     		ble	.L31
 605              	.LBE159:
 606              		.loc 1 101 0
 607 01b8 70B5     		push	{r4, r5, r6, lr}
 608              		.save {r4, r5, r6, lr}
 609              		.cfi_def_cfa_offset 16
 610              		.cfi_offset 4, -16
 611              		.cfi_offset 5, -12
 612              		.cfi_offset 6, -8
 613              		.cfi_offset 14, -4
 614 01ba 0646     		mov	r6, r0
 615 01bc 00F15C05 		add	r5, r0, #92
 616              	.LBB160:
 617              		.loc 1 102 0
 618 01c0 0024     		movs	r4, #0
 619              	.LVL54:
 620              	.L27:
 621              		.loc 1 103 0 discriminator 3
 622 01c2 2846     		mov	r0, r5
 623 01c4 FFF7FEFF 		bl	_ZN6clouds4STFT6BufferEv
 624              	.LVL55:
 625              		.loc 1 102 0 discriminator 3
 626 01c8 D6F86431 		ldr	r3, [r6, #356]
 627 01cc 0134     		adds	r4, r4, #1
ARM GAS  /tmp/ccrf5Nqh.s 			page 12


 628              	.LVL56:
 629 01ce A342     		cmp	r3, r4
 630 01d0 05F15005 		add	r5, r5, #80
 631 01d4 F5DC     		bgt	.L27
 632 01d6 70BD     		pop	{r4, r5, r6, pc}
 633              	.LVL57:
 634              	.L31:
 635              		.cfi_def_cfa_offset 0
 636              		.cfi_restore 4
 637              		.cfi_restore 5
 638              		.cfi_restore 6
 639              		.cfi_restore 14
 640 01d8 7047     		bx	lr
 641              	.LBE160:
 642              		.cfi_endproc
 643              	.LFE614:
 644              		.fnend
 645              		.size	_ZN6clouds12PhaseVocoder6BufferEv, .-_ZN6clouds12PhaseVocoder6BufferEv
 646              	.Letext0:
 647              		.file 3 "/d_drive/axoloti/platform_linux/arm-none-eabi/include/machine/_default_types.h"
 648              		.file 4 "/d_drive/axoloti/platform_linux/arm-none-eabi/include/sys/_stdint.h"
 649              		.file 5 "/d_drive/axoloti/platform_linux/lib/gcc/arm-none-eabi/4.9.3/include/stddef.h"
 650              		.file 6 "./mutable_instruments/stmlib/fft/shy_fft.h"
 651              		.file 7 "./mutable_instruments/stmlib/stmlib.h"
 652              		.file 8 "/d_drive/axoloti/platform_linux/arm-none-eabi/include/c++/4.9.3/debug/debug.h"
 653              		.file 9 "/d_drive/axoloti/platform_linux/arm-none-eabi/include/c++/4.9.3/cstdlib"
 654              		.file 10 "/d_drive/axoloti/platform_linux/arm-none-eabi/include/c++/4.9.3/arm-none-eabi/armv7e-m/f
 655              		.file 11 "/d_drive/axoloti/platform_linux/arm-none-eabi/include/c++/4.9.3/bits/cpp_type_traits.h"
 656              		.file 12 "/d_drive/axoloti/platform_linux/arm-none-eabi/include/c++/4.9.3/bits/predefined_ops.h"
 657              		.file 13 "/d_drive/axoloti/platform_linux/arm-none-eabi/include/c++/4.9.3/ext/new_allocator.h"
 658              		.file 14 "/d_drive/axoloti/platform_linux/arm-none-eabi/include/c++/4.9.3/ext/numeric_traits.h"
 659              		.file 15 "/d_drive/axoloti/platform_linux/arm-none-eabi/include/stdlib.h"
 660              		.file 16 "/d_drive/axoloti/platform_linux/arm-none-eabi/include/c++/4.9.3/bits/stl_algobase.h"
 661              		.file 17 "./mutable_instruments/clouds/dsp/frame.h"
 662              		.file 18 "./mutable_instruments/clouds/dsp/pvoc/stft.h"
 663              		.file 19 "./mutable_instruments/clouds/dsp/pvoc/frame_transformation.h"
 664              		.file 20 "./mutable_instruments/clouds/dsp/pvoc/phase_vocoder.h"
 665              		.file 21 "/d_drive/axoloti/platform_linux/arm-none-eabi/include/c++/4.9.3/new"
 666              		.file 22 "./mutable_instruments/clouds/resources.h"
 667              		.file 23 "<built-in>"