ARM GAS  /tmp/ccaLh5bx.s 			page 1


   1              		.syntax unified
   2              		.cpu cortex-m4
   3              		.eabi_attribute 27, 1
   4              		.eabi_attribute 28, 1
   5              		.fpu fpv4-sp-d16
   6              		.eabi_attribute 20, 1
   7              		.eabi_attribute 21, 1
   8              		.eabi_attribute 23, 3
   9              		.eabi_attribute 24, 1
  10              		.eabi_attribute 25, 1
  11              		.eabi_attribute 26, 1
  12              		.eabi_attribute 30, 2
  13              		.eabi_attribute 34, 1
  14              		.eabi_attribute 18, 4
  15              		.thumb
  16              		.file	"processor.cpp"
  17              		.text
  18              	.Ltext0:
  19              		.cfi_sections	.debug_frame
  20              		.section	.text._ZN7streams9Processor19CompressorConfigureEbPlS1_,"axG",%progbits,_ZN7streams9Proce
  21              		.align	2
  22              		.p2align 4,,15
  23              		.weak	_ZN7streams9Processor19CompressorConfigureEbPlS1_
  24              		.thumb
  25              		.thumb_func
  26              		.type	_ZN7streams9Processor19CompressorConfigureEbPlS1_, %function
  27              	_ZN7streams9Processor19CompressorConfigureEbPlS1_:
  28              		.fnstart
  29              	.LFB101:
  30              		.file 1 "./mutable_instruments/streams/processor.h"
  31              		.loc 1 165 0
  32              		.cfi_startproc
  33              		@ args = 0, pretend = 0, frame = 0
  34              		@ frame_needed = 0, uses_anonymous_args = 0
  35              		@ link register save eliminated.
  36              	.LVL0:
  37 0000 F0B4     		push	{r4, r5, r6, r7}
  38              		.cfi_def_cfa_offset 16
  39              		.cfi_offset 4, -16
  40              		.cfi_offset 5, -12
  41              		.cfi_offset 6, -8
  42              		.cfi_offset 7, -4
  43              	.LBB49:
  44              	.LBB50:
  45              		.file 2 "./mutable_instruments/streams/compressor.h"
  46              		.loc 2 60 0
  47 0002 002B     		cmp	r3, #0
  48 0004 49D0     		beq	.L2
  49              		.loc 2 62 0
  50 0006 9D68     		ldr	r5, [r3, #8]
  51              		.loc 2 61 0
  52 0008 1E68     		ldr	r6, [r3]
  53              		.loc 2 63 0
  54 000a 9C88     		ldrh	r4, [r3, #4]
  55              		.loc 2 64 0
  56 000c 9A89     		ldrh	r2, [r3, #12]
  57              	.LVL1:
ARM GAS  /tmp/ccaLh5bx.s 			page 2


  58              		.loc 2 62 0
  59 000e 2D12     		asrs	r5, r5, #8
  60              		.loc 2 61 0
  61 0010 40F26313 		movw	r3, #355
  62              	.LVL2:
  63              		.loc 2 62 0
  64 0014 E335     		adds	r5, r5, #227
  65              		.loc 2 61 0
  66 0016 03FB06F6 		mul	r6, r3, r6
  67              	.LVL3:
  68 001a ADB2     		uxth	r5, r5
  69 001c 360C     		lsrs	r6, r6, #16
  70              	.LVL4:
  71              	.L3:
  72              		.loc 2 75 0
  73 001e 2312     		asrs	r3, r4, #8
  74              		.loc 2 72 0
  75 0020 284F     		ldr	r7, .L13
  76 0022 00F5D474 		add	r4, r0, #424
  77              	.LVL5:
  78              		.loc 2 75 0
  79 0026 03EB8303 		add	r3, r3, r3, lsl #2
  80              		.loc 2 72 0
  81 002a 57F82660 		ldr	r6, [r7, r6, lsl #2]
  82              		.loc 2 73 0
  83 002e 57F82570 		ldr	r7, [r7, r5, lsl #2]
  84 0032 A761     		str	r7, [r4, #24]
  85              		.loc 2 72 0
  86 0034 0025     		movs	r5, #0
  87              		.loc 2 75 0
  88 0036 A3F5A063 		sub	r3, r3, #1280
  89              		.loc 2 72 0
  90 003a 2661     		str	r6, [r4, #16]
  91 003c 6561     		str	r5, [r4, #20]
  92              		.loc 2 73 0
  93 003e E561     		str	r5, [r4, #28]
  94              		.loc 2 75 0
  95 0040 1B02     		lsls	r3, r3, #8
  96              		.loc 2 74 0
  97 0042 80F8B411 		strb	r1, [r0, #436]
  98              	.LBB51:
  99              		.loc 2 77 0
 100 0046 1104     		lsls	r1, r2, #16
 101              	.LVL6:
 102              	.LBE51:
 103              		.loc 2 75 0
 104 0048 C0F8AC31 		str	r3, [r0, #428]
 105              	.LBB55:
 106              		.loc 2 77 0
 107 004c 0CD4     		bmi	.L5
 108              		.loc 2 79 0
 109 004e C2F5FF42 		rsb	r2, r2, #32640
 110              	.LVL7:
 111 0052 7F32     		adds	r2, r2, #127
 112 0054 D211     		asrs	r2, r2, #7
 113 0056 1C4B     		ldr	r3, .L13+4
 114 0058 33F81230 		ldrh	r3, [r3, r2, lsl #1]
ARM GAS  /tmp/ccaLh5bx.s 			page 3


 115 005c C0F8A831 		str	r3, [r0, #424]
 116              		.loc 2 80 0
 117 0060 C0F8B051 		str	r5, [r0, #432]
 118              	.LBE55:
 119              	.LBE50:
 120              	.LBE49:
 121              		.loc 1 165 0
 122 0064 F0BC     		pop	{r4, r5, r6, r7}
 123              		.cfi_remember_state
 124              		.cfi_restore 7
 125              		.cfi_restore 6
 126              		.cfi_restore 5
 127              		.cfi_restore 4
 128              		.cfi_def_cfa_offset 0
 129 0066 7047     		bx	lr
 130              	.LVL8:
 131              	.L5:
 132              		.cfi_restore_state
 133              	.LBB62:
 134              	.LBB59:
 135              	.LBB56:
 136              	.LBB52:
 137              		.loc 2 87 0
 138 0068 82F40042 		eor	r2, r2, #32768
 139              	.LVL9:
 140 006c 40F25531 		movw	r1, #853
 141 0070 01FB02F2 		mul	r2, r1, r2
 142 0074 D211     		asrs	r2, r2, #7
 143              	.LVL10:
 144 0076 C0F8B021 		str	r2, [r0, #432]
 145              		.loc 2 89 0
 146 007a 9A18     		adds	r2, r3, r2
 147              	.LVL11:
 148 007c 17D4     		bmi	.L7
 149              		.loc 2 90 0
 150 007e 5B42     		negs	r3, r3
 151 0080 C0F8B031 		str	r3, [r0, #432]
 152              	.LVL12:
 153              	.L8:
 154              		.loc 2 97 0
 155 0084 0021     		movs	r1, #0
 156              		.loc 2 98 0
 157 0086 4FF0FF32 		mov	r2, #-1
 158 008a 4FF0FF33 		mov	r3, #-1
 159              		.loc 2 97 0
 160 008e C0F8A811 		str	r1, [r0, #424]
 161              		.loc 2 98 0
 162 0092 C4E90423 		strd	r2, [r4, #16]
 163              	.LBE52:
 164              	.LBE56:
 165              	.LBE59:
 166              	.LBE62:
 167              		.loc 1 165 0
 168 0096 F0BC     		pop	{r4, r5, r6, r7}
 169              		.cfi_remember_state
 170              		.cfi_restore 4
 171              		.cfi_restore 5
ARM GAS  /tmp/ccaLh5bx.s 			page 4


 172              		.cfi_restore 6
 173              		.cfi_restore 7
 174              		.cfi_def_cfa_offset 0
 175 0098 7047     		bx	lr
 176              	.LVL13:
 177              	.L2:
 178              		.cfi_restore_state
 179              	.LBB63:
 180              	.LBB60:
 181              		.loc 2 66 0
 182 009a 0029     		cmp	r1, #0
 183 009c 40F21715 		movw	r5, #279
 184              		.loc 2 68 0
 185 00a0 1488     		ldrh	r4, [r2]
 186              		.loc 2 69 0
 187 00a2 9288     		ldrh	r2, [r2, #4]
 188              	.LVL14:
 189              		.loc 2 66 0
 190 00a4 16BF     		itet	ne
 191 00a6 EC25     		movne	r5, #236
 192 00a8 0126     		moveq	r6, #1
 193 00aa 2826     		movne	r6, #40
 194              	.LVL15:
 195 00ac B7E7     		b	.L3
 196              	.LVL16:
 197              	.L7:
 198              	.LBB57:
 199              	.LBB53:
 200              		.loc 2 94 0
 201 00ae 12F5805F 		cmn	r2, #4096
 202 00b2 E7DC     		bgt	.L8
 203              		.loc 2 100 0
 204 00b4 1B12     		asrs	r3, r3, #8
 205              	.LBE53:
 206              	.LBE57:
 207              	.LBE60:
 208              	.LBE63:
 209              		.loc 1 165 0
 210 00b6 F0BC     		pop	{r4, r5, r6, r7}
 211              		.cfi_restore 4
 212              		.cfi_restore 5
 213              		.cfi_restore 6
 214              		.cfi_restore 7
 215              		.cfi_def_cfa_offset 0
 216              	.LBB64:
 217              	.LBB61:
 218              	.LBB58:
 219              	.LBB54:
 220              		.loc 2 100 0
 221 00b8 92FBF3F2 		sdiv	r2, r2, r3
 222              	.LVL17:
 223 00bc C0F8A821 		str	r2, [r0, #424]
 224              	.LBE54:
 225              	.LBE58:
 226              	.LBE61:
 227              	.LBE64:
 228              		.loc 1 165 0
ARM GAS  /tmp/ccaLh5bx.s 			page 5


 229 00c0 7047     		bx	lr
 230              	.L14:
 231 00c2 00BF     		.align	2
 232              	.L13:
 233 00c4 00000000 		.word	_ZN7streams19lut_lp_coefficientsE
 234 00c8 00000000 		.word	_ZN7streams20lut_compressor_ratioE
 235              		.cfi_endproc
 236              	.LFE101:
 237              		.cantunwind
 238              		.fnend
 239              		.size	_ZN7streams9Processor19CompressorConfigureEbPlS1_, .-_ZN7streams9Processor19CompressorConfig
 240              		.section	.text._ZN7streams9Processor20FilterControllerInitEv,"axG",%progbits,_ZN7streams9Processor
 241              		.align	2
 242              		.p2align 4,,15
 243              		.weak	_ZN7streams9Processor20FilterControllerInitEv
 244              		.thumb
 245              		.thumb_func
 246              		.type	_ZN7streams9Processor20FilterControllerInitEv, %function
 247              	_ZN7streams9Processor20FilterControllerInitEv:
 248              		.fnstart
 249              	.LFB102:
 250              		.loc 1 166 0
 251              		.cfi_startproc
 252              		@ args = 0, pretend = 0, frame = 0
 253              		@ frame_needed = 0, uses_anonymous_args = 0
 254              		@ link register save eliminated.
 255              	.LVL18:
 256              	.LBB65:
 257              	.LBB66:
 258              		.file 3 "./mutable_instruments/streams/filter_controller.h"
 259              		.loc 3 42 0
 260 0000 0023     		movs	r3, #0
 261 0002 C0F8EC31 		str	r3, [r0, #492]
 262              		.loc 3 43 0
 263 0006 C0F8E831 		str	r3, [r0, #488]
 264 000a 7047     		bx	lr
 265              	.LBE66:
 266              	.LBE65:
 267              		.cfi_endproc
 268              	.LFE102:
 269              		.cantunwind
 270              		.fnend
 271              		.size	_ZN7streams9Processor20FilterControllerInitEv, .-_ZN7streams9Processor20FilterControllerInit
 272              		.section	.text._ZN7streams9Processor25FilterControllerConfigureEbPlS1_,"axG",%progbits,_ZN7streams
 273              		.align	2
 274              		.p2align 4,,15
 275              		.weak	_ZN7streams9Processor25FilterControllerConfigureEbPlS1_
 276              		.thumb
 277              		.thumb_func
 278              		.type	_ZN7streams9Processor25FilterControllerConfigureEbPlS1_, %function
 279              	_ZN7streams9Processor25FilterControllerConfigureEbPlS1_:
 280              		.fnstart
 281              	.LFB104:
 282              		.loc 1 166 0
 283              		.cfi_startproc
 284              		@ args = 0, pretend = 0, frame = 0
 285              		@ frame_needed = 0, uses_anonymous_args = 0
ARM GAS  /tmp/ccaLh5bx.s 			page 6


 286              		@ link register save eliminated.
 287              	.LVL19:
 288              	.LBB67:
 289              	.LBB68:
 290              		.loc 3 66 0
 291 0000 5368     		ldr	r3, [r2, #4]
 292              	.LVL20:
 293 0002 B3F5004F 		cmp	r3, #32768
 294              		.loc 3 67 0
 295 0006 A3F50041 		sub	r1, r3, #32768
 296              	.LVL21:
 297 000a ACBF     		ite	ge
 298 000c 0023     		movge	r3, #0
 299 000e 0123     		movlt	r3, #1
 300              	.LBE68:
 301              	.LBE67:
 302              		.loc 1 166 0
 303 0010 10B4     		push	{r4}
 304              		.cfi_def_cfa_offset 4
 305              		.cfi_offset 4, -4
 306              	.LBB70:
 307              	.LBB69:
 308              		.loc 3 68 0
 309 0012 01FB01F1 		mul	r1, r1, r1
 310              	.LVL22:
 311 0016 5C42     		negs	r4, r3
 312 0018 84EAE131 		eor	r1, r4, r1, asr #15
 313              	.LVL23:
 314 001c 0B44     		add	r3, r3, r1
 315              		.loc 3 69 0
 316 001e C0F8E031 		str	r3, [r0, #480]
 317              	.LVL24:
 318              		.loc 3 70 0
 319 0022 1368     		ldr	r3, [r2]
 320 0024 C0F8E431 		str	r3, [r0, #484]
 321              	.LBE69:
 322              	.LBE70:
 323              		.loc 1 166 0
 324 0028 5DF8044B 		ldr	r4, [sp], #4
 325              		.cfi_restore 4
 326              		.cfi_def_cfa_offset 0
 327 002c 7047     		bx	lr
 328              		.cfi_endproc
 329              	.LFE104:
 330              		.cantunwind
 331              		.fnend
 332              		.size	_ZN7streams9Processor25FilterControllerConfigureEbPlS1_, .-_ZN7streams9Processor25FilterCont
 333 002e 00BF     		.section	.text._ZN7streams9Processor24LorenzGeneratorConfigureEbPlS1_,"axG",%progbits,_ZN7streams9
 334              		.align	2
 335              		.p2align 4,,15
 336              		.weak	_ZN7streams9Processor24LorenzGeneratorConfigureEbPlS1_
 337              		.thumb
 338              		.thumb_func
 339              		.type	_ZN7streams9Processor24LorenzGeneratorConfigureEbPlS1_, %function
 340              	_ZN7streams9Processor24LorenzGeneratorConfigureEbPlS1_:
 341              		.fnstart
 342              	.LFB107:
ARM GAS  /tmp/ccaLh5bx.s 			page 7


 343              		.loc 1 167 0
 344              		.cfi_startproc
 345              		@ args = 0, pretend = 0, frame = 0
 346              		@ frame_needed = 0, uses_anonymous_args = 0
 347              		@ link register save eliminated.
 348              	.LVL25:
 349              	.LBB71:
 350              	.LBB72:
 351              		.file 4 "./mutable_instruments/streams/lorenz_generator.h"
 352              		.loc 4 55 0
 353 0000 1368     		ldr	r3, [r2]
 354              	.LVL26:
 355 0002 1B12     		asrs	r3, r3, #8
 356 0004 C0F8FC31 		str	r3, [r0, #508]
 357              		.loc 4 56 0
 358 0008 5268     		ldr	r2, [r2, #4]
 359              	.LVL27:
 360 000a C2F57F43 		rsb	r3, r2, #65280
 361              		.loc 4 58 0
 362 000e 47F6FF71 		movw	r1, #32767
 363              	.LVL28:
 364              		.loc 4 56 0
 365 0012 FF33     		adds	r3, r3, #255
 366              	.LVL29:
 367              		.loc 4 58 0
 368 0014 8B42     		cmp	r3, r1
 369 0016 A8BF     		it	ge
 370 0018 0B46     		movge	r3, r1
 371              	.LVL30:
 372              		.loc 4 59 0
 373 001a 8A42     		cmp	r2, r1
 374 001c A8BF     		it	ge
 375 001e 0A46     		movge	r2, r1
 376              	.LVL31:
 377              		.loc 4 60 0
 378 0020 C0F80832 		str	r3, [r0, #520]
 379              		.loc 4 61 0
 380 0024 C0F80C22 		str	r2, [r0, #524]
 381 0028 7047     		bx	lr
 382              	.LBE72:
 383              	.LBE71:
 384              		.cfi_endproc
 385              	.LFE107:
 386              		.cantunwind
 387              		.fnend
 388              		.size	_ZN7streams9Processor24LorenzGeneratorConfigureEbPlS1_, .-_ZN7streams9Processor24LorenzGener
 389 002a 00BF     		.section	.text._ZN7streams9Processor22LorenzGeneratorProcessEssPtS1_,"axG",%progbits,_ZN7streams9P
 390              		.align	2
 391              		.p2align 4,,15
 392              		.weak	_ZN7streams9Processor22LorenzGeneratorProcessEssPtS1_
 393              		.thumb
 394              		.thumb_func
 395              		.type	_ZN7streams9Processor22LorenzGeneratorProcessEssPtS1_, %function
 396              	_ZN7streams9Processor22LorenzGeneratorProcessEssPtS1_:
 397              		.fnstart
 398              	.LFB106:
 399              		.loc 1 167 0
ARM GAS  /tmp/ccaLh5bx.s 			page 8


 400              		.cfi_startproc
 401              		@ args = 4, pretend = 0, frame = 0
 402              		@ frame_needed = 0, uses_anonymous_args = 0
 403              		@ link register save eliminated.
 404              	.LVL32:
 405              		.loc 1 167 0
 406 0000 00F5F870 		add	r0, r0, #496
 407              	.LVL33:
 408 0004 FFF7FEBF 		b	_ZN7streams15LorenzGenerator7ProcessEssPtS1_
 409              	.LVL34:
 410              		.cfi_endproc
 411              	.LFE106:
 412              		.cantunwind
 413              		.fnend
 414              		.size	_ZN7streams9Processor22LorenzGeneratorProcessEssPtS1_, .-_ZN7streams9Processor22LorenzGenera
 415              		.section	.text._ZN7streams9Processor19LorenzGeneratorInitEv,"axG",%progbits,_ZN7streams9Processor1
 416              		.align	2
 417              		.p2align 4,,15
 418              		.weak	_ZN7streams9Processor19LorenzGeneratorInitEv
 419              		.thumb
 420              		.thumb_func
 421              		.type	_ZN7streams9Processor19LorenzGeneratorInitEv, %function
 422              	_ZN7streams9Processor19LorenzGeneratorInitEv:
 423              		.fnstart
 424              	.LFB105:
 425              		.loc 1 167 0
 426              		.cfi_startproc
 427              		@ args = 0, pretend = 0, frame = 0
 428              		@ frame_needed = 0, uses_anonymous_args = 0
 429              		@ link register save eliminated.
 430              	.LVL35:
 431              		.loc 1 167 0
 432 0000 00F5F870 		add	r0, r0, #496
 433              	.LVL36:
 434 0004 FFF7FEBF 		b	_ZN7streams15LorenzGenerator4InitEv
 435              	.LVL37:
 436              		.cfi_endproc
 437              	.LFE105:
 438              		.cantunwind
 439              		.fnend
 440              		.size	_ZN7streams9Processor19LorenzGeneratorInitEv, .-_ZN7streams9Processor19LorenzGeneratorInitEv
 441              		.section	.text._ZN7streams9Processor17CompressorProcessEssPtS1_,"axG",%progbits,_ZN7streams9Proces
 442              		.align	2
 443              		.p2align 4,,15
 444              		.weak	_ZN7streams9Processor17CompressorProcessEssPtS1_
 445              		.thumb
 446              		.thumb_func
 447              		.type	_ZN7streams9Processor17CompressorProcessEssPtS1_, %function
 448              	_ZN7streams9Processor17CompressorProcessEssPtS1_:
 449              		.fnstart
 450              	.LFB100:
 451              		.loc 1 165 0
 452              		.cfi_startproc
 453              		@ args = 4, pretend = 0, frame = 0
 454              		@ frame_needed = 0, uses_anonymous_args = 0
 455              		@ link register save eliminated.
 456              	.LVL38:
ARM GAS  /tmp/ccaLh5bx.s 			page 9


 457              		.loc 1 165 0
 458 0000 00F5D470 		add	r0, r0, #424
 459              	.LVL39:
 460 0004 FFF7FEBF 		b	_ZN7streams10Compressor7ProcessEssPtS1_
 461              	.LVL40:
 462              		.cfi_endproc
 463              	.LFE100:
 464              		.cantunwind
 465              		.fnend
 466              		.size	_ZN7streams9Processor17CompressorProcessEssPtS1_, .-_ZN7streams9Processor17CompressorProcess
 467              		.section	.text._ZN7streams9Processor14CompressorInitEv,"axG",%progbits,_ZN7streams9Processor14Comp
 468              		.align	2
 469              		.p2align 4,,15
 470              		.weak	_ZN7streams9Processor14CompressorInitEv
 471              		.thumb
 472              		.thumb_func
 473              		.type	_ZN7streams9Processor14CompressorInitEv, %function
 474              	_ZN7streams9Processor14CompressorInitEv:
 475              		.fnstart
 476              	.LFB99:
 477              		.loc 1 165 0
 478              		.cfi_startproc
 479              		@ args = 0, pretend = 0, frame = 0
 480              		@ frame_needed = 0, uses_anonymous_args = 0
 481              		@ link register save eliminated.
 482              	.LVL41:
 483              		.loc 1 165 0
 484 0000 00F5D470 		add	r0, r0, #424
 485              	.LVL42:
 486 0004 FFF7FEBF 		b	_ZN7streams10Compressor4InitEv
 487              	.LVL43:
 488              		.cfi_endproc
 489              	.LFE99:
 490              		.cantunwind
 491              		.fnend
 492              		.size	_ZN7streams9Processor14CompressorInitEv, .-_ZN7streams9Processor14CompressorInitEv
 493              		.section	.text._ZN7streams9Processor15FollowerProcessEssPtS1_,"axG",%progbits,_ZN7streams9Processo
 494              		.align	2
 495              		.p2align 4,,15
 496              		.weak	_ZN7streams9Processor15FollowerProcessEssPtS1_
 497              		.thumb
 498              		.thumb_func
 499              		.type	_ZN7streams9Processor15FollowerProcessEssPtS1_, %function
 500              	_ZN7streams9Processor15FollowerProcessEssPtS1_:
 501              		.fnstart
 502              	.LFB97:
 503              		.loc 1 164 0
 504              		.cfi_startproc
 505              		@ args = 4, pretend = 0, frame = 0
 506              		@ frame_needed = 0, uses_anonymous_args = 0
 507              		@ link register save eliminated.
 508              	.LVL44:
 509              		.loc 1 164 0
 510 0000 D030     		adds	r0, r0, #208
 511              	.LVL45:
 512 0002 FFF7FEBF 		b	_ZN7streams8Follower7ProcessEssPtS1_
 513              	.LVL46:
ARM GAS  /tmp/ccaLh5bx.s 			page 10


 514              		.cfi_endproc
 515              	.LFE97:
 516              		.cantunwind
 517              		.fnend
 518              		.size	_ZN7streams9Processor15FollowerProcessEssPtS1_, .-_ZN7streams9Processor15FollowerProcessEssP
 519 0006 00BF     		.section	.text._ZN7streams9Processor12FollowerInitEv,"axG",%progbits,_ZN7streams9Processor12Follow
 520              		.align	2
 521              		.p2align 4,,15
 522              		.weak	_ZN7streams9Processor12FollowerInitEv
 523              		.thumb
 524              		.thumb_func
 525              		.type	_ZN7streams9Processor12FollowerInitEv, %function
 526              	_ZN7streams9Processor12FollowerInitEv:
 527              		.fnstart
 528              	.LFB96:
 529              		.loc 1 164 0
 530              		.cfi_startproc
 531              		@ args = 0, pretend = 0, frame = 0
 532              		@ frame_needed = 0, uses_anonymous_args = 0
 533              		@ link register save eliminated.
 534              	.LVL47:
 535              		.loc 1 164 0
 536 0000 D030     		adds	r0, r0, #208
 537              	.LVL48:
 538 0002 FFF7FEBF 		b	_ZN7streams8Follower4InitEv
 539              	.LVL49:
 540              		.cfi_endproc
 541              	.LFE96:
 542              		.cantunwind
 543              		.fnend
 544              		.size	_ZN7streams9Processor12FollowerInitEv, .-_ZN7streams9Processor12FollowerInitEv
 545 0006 00BF     		.section	.text._ZN7streams9Processor14VactrolProcessEssPtS1_,"axG",%progbits,_ZN7streams9Processor
 546              		.align	2
 547              		.p2align 4,,15
 548              		.weak	_ZN7streams9Processor14VactrolProcessEssPtS1_
 549              		.thumb
 550              		.thumb_func
 551              		.type	_ZN7streams9Processor14VactrolProcessEssPtS1_, %function
 552              	_ZN7streams9Processor14VactrolProcessEssPtS1_:
 553              		.fnstart
 554              	.LFB94:
 555              		.loc 1 163 0
 556              		.cfi_startproc
 557              		@ args = 4, pretend = 0, frame = 0
 558              		@ frame_needed = 0, uses_anonymous_args = 0
 559              		@ link register save eliminated.
 560              	.LVL50:
 561              		.loc 1 163 0
 562 0000 9830     		adds	r0, r0, #152
 563              	.LVL51:
 564 0002 FFF7FEBF 		b	_ZN7streams7Vactrol7ProcessEssPtS1_
 565              	.LVL52:
 566              		.cfi_endproc
 567              	.LFE94:
 568              		.cantunwind
 569              		.fnend
 570              		.size	_ZN7streams9Processor14VactrolProcessEssPtS1_, .-_ZN7streams9Processor14VactrolProcessEssPtS
ARM GAS  /tmp/ccaLh5bx.s 			page 11


 571 0006 00BF     		.section	.text._ZN7streams9Processor11VactrolInitEv,"axG",%progbits,_ZN7streams9Processor11Vactrol
 572              		.align	2
 573              		.p2align 4,,15
 574              		.weak	_ZN7streams9Processor11VactrolInitEv
 575              		.thumb
 576              		.thumb_func
 577              		.type	_ZN7streams9Processor11VactrolInitEv, %function
 578              	_ZN7streams9Processor11VactrolInitEv:
 579              		.fnstart
 580              	.LFB93:
 581              		.loc 1 163 0
 582              		.cfi_startproc
 583              		@ args = 0, pretend = 0, frame = 0
 584              		@ frame_needed = 0, uses_anonymous_args = 0
 585              		@ link register save eliminated.
 586              	.LVL53:
 587              		.loc 1 163 0
 588 0000 9830     		adds	r0, r0, #152
 589              	.LVL54:
 590 0002 FFF7FEBF 		b	_ZN7streams7Vactrol4InitEv
 591              	.LVL55:
 592              		.cfi_endproc
 593              	.LFE93:
 594              		.cantunwind
 595              		.fnend
 596              		.size	_ZN7streams9Processor11VactrolInitEv, .-_ZN7streams9Processor11VactrolInitEv
 597 0006 00BF     		.section	.text._ZN7streams9Processor15EnvelopeProcessEssPtS1_,"axG",%progbits,_ZN7streams9Processo
 598              		.align	2
 599              		.p2align 4,,15
 600              		.weak	_ZN7streams9Processor15EnvelopeProcessEssPtS1_
 601              		.thumb
 602              		.thumb_func
 603              		.type	_ZN7streams9Processor15EnvelopeProcessEssPtS1_, %function
 604              	_ZN7streams9Processor15EnvelopeProcessEssPtS1_:
 605              		.fnstart
 606              	.LFB91:
 607              		.loc 1 162 0
 608              		.cfi_startproc
 609              		@ args = 4, pretend = 0, frame = 0
 610              		@ frame_needed = 0, uses_anonymous_args = 0
 611              		@ link register save eliminated.
 612              	.LVL56:
 613              		.loc 1 162 0
 614 0000 3C30     		adds	r0, r0, #60
 615              	.LVL57:
 616 0002 FFF7FEBF 		b	_ZN7streams8Envelope7ProcessEssPtS1_
 617              	.LVL58:
 618              		.cfi_endproc
 619              	.LFE91:
 620              		.cantunwind
 621              		.fnend
 622              		.size	_ZN7streams9Processor15EnvelopeProcessEssPtS1_, .-_ZN7streams9Processor15EnvelopeProcessEssP
 623 0006 00BF     		.section	.text._ZN7streams9Processor12EnvelopeInitEv,"axG",%progbits,_ZN7streams9Processor12Envelo
 624              		.align	2
 625              		.p2align 4,,15
 626              		.weak	_ZN7streams9Processor12EnvelopeInitEv
 627              		.thumb
ARM GAS  /tmp/ccaLh5bx.s 			page 12


 628              		.thumb_func
 629              		.type	_ZN7streams9Processor12EnvelopeInitEv, %function
 630              	_ZN7streams9Processor12EnvelopeInitEv:
 631              		.fnstart
 632              	.LFB90:
 633              		.loc 1 162 0
 634              		.cfi_startproc
 635              		@ args = 0, pretend = 0, frame = 0
 636              		@ frame_needed = 0, uses_anonymous_args = 0
 637              		@ link register save eliminated.
 638              	.LVL59:
 639              		.loc 1 162 0
 640 0000 3C30     		adds	r0, r0, #60
 641              	.LVL60:
 642 0002 FFF7FEBF 		b	_ZN7streams8Envelope4InitEv
 643              	.LVL61:
 644              		.cfi_endproc
 645              	.LFE90:
 646              		.cantunwind
 647              		.fnend
 648              		.size	_ZN7streams9Processor12EnvelopeInitEv, .-_ZN7streams9Processor12EnvelopeInitEv
 649 0006 00BF     		.section	.text._ZN7streams9Processor23FilterControllerProcessEssPtS1_,"axG",%progbits,_ZN7streams9
 650              		.align	2
 651              		.p2align 4,,15
 652              		.weak	_ZN7streams9Processor23FilterControllerProcessEssPtS1_
 653              		.thumb
 654              		.thumb_func
 655              		.type	_ZN7streams9Processor23FilterControllerProcessEssPtS1_, %function
 656              	_ZN7streams9Processor23FilterControllerProcessEssPtS1_:
 657              		.fnstart
 658              	.LFB103:
 659              		.loc 1 166 0
 660              		.cfi_startproc
 661              		@ args = 4, pretend = 0, frame = 0
 662              		@ frame_needed = 0, uses_anonymous_args = 0
 663              		@ link register save eliminated.
 664              	.LVL62:
 665 0000 F0B4     		push	{r4, r5, r6, r7}
 666              		.cfi_def_cfa_offset 16
 667              		.cfi_offset 4, -16
 668              		.cfi_offset 5, -12
 669              		.cfi_offset 6, -8
 670              		.cfi_offset 7, -4
 671              	.LBB76:
 672              	.LBB77:
 673              		.loc 3 51 0
 674 0002 D0F8E861 		ldr	r6, [r0, #488]
 675 0006 D0F8E051 		ldr	r5, [r0, #480]
 676              		.loc 3 52 0
 677 000a D0F8EC11 		ldr	r1, [r0, #492]
 678              	.LVL63:
 679 000e D0F8E471 		ldr	r7, [r0, #484]
 680              	.LBE77:
 681              	.LBE76:
 682              		.loc 1 166 0
 683 0012 049C     		ldr	r4, [sp, #16]
 684              	.LVL64:
ARM GAS  /tmp/ccaLh5bx.s 			page 13


 685              	.LBB79:
 686              	.LBB78:
 687              		.loc 3 51 0
 688 0014 AD1B     		subs	r5, r5, r6
 689 0016 06EB2525 		add	r5, r6, r5, asr #8
 690              		.loc 3 52 0
 691 001a 7F1A     		subs	r7, r7, r1
 692 001c 01EB2721 		add	r1, r1, r7, asr #8
 693              		.loc 3 55 0
 694 0020 02FB05F2 		mul	r2, r2, r5
 695              	.LVL65:
 696 0024 01EBA232 		add	r2, r1, r2, asr #14
 697              	.LVL66:
 698              		.loc 3 61 0
 699 0028 0026     		movs	r6, #0
 700 002a 82F31002 		usat	r2, #16, r2
 701              	.LVL67:
 702              		.loc 3 51 0
 703 002e C0F8E851 		str	r5, [r0, #488]
 704              		.loc 3 52 0
 705 0032 C0F8EC11 		str	r1, [r0, #492]
 706              		.loc 3 61 0
 707 0036 1E80     		strh	r6, [r3]	@ movhi
 708              		.loc 3 62 0
 709 0038 2280     		strh	r2, [r4]	@ movhi
 710              	.LBE78:
 711              	.LBE79:
 712              		.loc 1 166 0
 713 003a F0BC     		pop	{r4, r5, r6, r7}
 714              		.cfi_restore 7
 715              		.cfi_restore 6
 716              		.cfi_restore 5
 717              		.cfi_restore 4
 718              		.cfi_def_cfa_offset 0
 719              	.LVL68:
 720 003c 7047     		bx	lr
 721              		.cfi_endproc
 722              	.LFE103:
 723              		.cantunwind
 724              		.fnend
 725              		.size	_ZN7streams9Processor23FilterControllerProcessEssPtS1_, .-_ZN7streams9Processor23FilterContr
 726 003e 00BF     		.section	.text._ZN7streams9Processor16VactrolConfigureEbPlS1_,"axG",%progbits,_ZN7streams9Processo
 727              		.align	2
 728              		.p2align 4,,15
 729              		.weak	_ZN7streams9Processor16VactrolConfigureEbPlS1_
 730              		.thumb
 731              		.thumb_func
 732              		.type	_ZN7streams9Processor16VactrolConfigureEbPlS1_, %function
 733              	_ZN7streams9Processor16VactrolConfigureEbPlS1_:
 734              		.fnstart
 735              	.LFB95:
 736              		.loc 1 163 0
 737              		.cfi_startproc
 738              		@ args = 0, pretend = 0, frame = 0
 739              		@ frame_needed = 0, uses_anonymous_args = 0
 740              	.LVL69:
 741 0000 F0B5     		push	{r4, r5, r6, r7, lr}
ARM GAS  /tmp/ccaLh5bx.s 			page 14


 742              		.cfi_def_cfa_offset 20
 743              		.cfi_offset 4, -20
 744              		.cfi_offset 5, -16
 745              		.cfi_offset 6, -12
 746              		.cfi_offset 7, -8
 747              		.cfi_offset 14, -4
 748              	.LBB93:
 749              	.LBB94:
 750              	.LBB95:
 751              		.file 5 "./mutable_instruments/streams/vactrol.h"
 752              		.loc 5 55 0
 753 0002 002B     		cmp	r3, #0
 754 0004 5CD0     		beq	.L34
 755              		.loc 5 59 0
 756 0006 9C68     		ldr	r4, [r3, #8]
 757              		.loc 5 57 0
 758 0008 1D68     		ldr	r5, [r3]
 759              		.loc 5 63 0
 760 000a 5368     		ldr	r3, [r2, #4]
 761              	.LVL70:
 762              		.loc 5 59 0
 763 000c 40F26312 		movw	r2, #355
 764              	.LVL71:
 765 0010 02FB04F4 		mul	r4, r2, r4
 766              		.loc 5 57 0
 767 0014 2D12     		asrs	r5, r5, #8
 768              		.loc 5 59 0
 769 0016 2414     		asrs	r4, r4, #16
 770              		.loc 5 57 0
 771 0018 8035     		adds	r5, r5, #128
 772              		.loc 5 59 0
 773 001a 8034     		adds	r4, r4, #128
 774              	.LBB96:
 775              	.LBB97:
 776              		.file 6 "./mutable_instruments/streams/meta_parameters.h"
 777              		.loc 6 40 0
 778 001c B3F5004F 		cmp	r3, #32768
 779              	.LBE97:
 780              	.LBE96:
 781              		.loc 5 57 0
 782 0020 ADB2     		uxth	r5, r5
 783              	.LVL72:
 784              		.loc 5 59 0
 785 0022 A4B2     		uxth	r4, r4
 786              	.LVL73:
 787              	.LBB102:
 788              	.LBB100:
 789              		.loc 6 40 0
 790 0024 38DB     		blt	.L46
 791              		.loc 6 46 0
 792 0026 A3F50043 		sub	r3, r3, #32768
 793              	.LVL74:
 794 002a 5B00     		lsls	r3, r3, #1
 795              	.LVL75:
 796 002c C3F57F42 		rsb	r2, r3, #65280
 797 0030 FF32     		adds	r2, r2, #255
 798              		.loc 6 47 0
ARM GAS  /tmp/ccaLh5bx.s 			page 15


 799 0032 C0F89C30 		str	r3, [r0, #156]
 800              	.LVL76:
 801              		.loc 6 46 0
 802 0036 C0F89820 		str	r2, [r0, #152]
 803              		.loc 6 47 0
 804 003a 1646     		mov	r6, r2
 805 003c A5F1800E 		sub	lr, r5, #128
 806              	.LVL77:
 807              	.L36:
 808              	.LBE100:
 809              	.LBE102:
 810              	.LBE95:
 811              		.loc 5 91 0
 812 0040 4A4F     		ldr	r7, .L48
 813 0042 57F82550 		ldr	r5, [r7, r5, lsl #2]
 814 0046 C0F8A850 		str	r5, [r0, #168]
 815              		.loc 5 92 0
 816 004a 57F82EE0 		ldr	lr, [r7, lr, lsl #2]
 817 004e C0F8B0E0 		str	lr, [r0, #176]
 818              		.loc 5 93 0
 819 0052 57F82450 		ldr	r5, [r7, r4, lsl #2]
 820 0056 C0F8AC50 		str	r5, [r0, #172]
 821              		.loc 5 94 0
 822 005a 803C     		subs	r4, r4, #128
 823              	.LVL78:
 824 005c 57F82440 		ldr	r4, [r7, r4, lsl #2]
 825 0060 C0F8B440 		str	r4, [r0, #180]
 826              		.loc 5 96 0
 827 0064 80F8CD10 		strb	r1, [r0, #205]
 828              		.loc 5 97 0
 829 0068 91B1     		cbz	r1, .L41
 830              		.loc 5 98 0
 831 006a 4FEA0E11 		lsl	r1, lr, #4
 832              	.LVL79:
 833 006e C0F8B010 		str	r1, [r0, #176]
 834              	.L42:
 835              	.LVL80:
 836              		.loc 5 103 0
 837 0072 B6F5005F 		cmp	r6, #8192
 838 0076 A8BF     		it	ge
 839 0078 4FF40056 		movge	r6, #8192
 840              	.LVL81:
 841 007c 9642     		cmp	r6, r2
 842 007e A8BF     		it	ge
 843 0080 1646     		movge	r6, r2
 844              	.LVL82:
 845              		.loc 5 112 0
 846 0082 3344     		add	r3, r3, r6
 847              		.loc 5 113 0
 848 0084 921B     		subs	r2, r2, r6
 849              		.loc 5 112 0
 850 0086 C0F89C30 		str	r3, [r0, #156]
 851              		.loc 5 113 0
 852 008a C0F89820 		str	r2, [r0, #152]
 853 008e F0BD     		pop	{r4, r5, r6, r7, pc}
 854              	.LVL83:
 855              	.L41:
ARM GAS  /tmp/ccaLh5bx.s 			page 16


 856              		.loc 5 100 0
 857 0090 6D10     		asrs	r5, r5, #1
 858 0092 C0F8AC50 		str	r5, [r0, #172]
 859 0096 ECE7     		b	.L42
 860              	.LVL84:
 861              	.L46:
 862              	.LBB111:
 863              	.LBB103:
 864              	.LBB101:
 865              	.LBB98:
 866              	.LBB99:
 867              		.loc 6 41 0
 868 0098 C3F5FF43 		rsb	r3, r3, #32640
 869              	.LVL85:
 870 009c 7F33     		adds	r3, r3, #127
 871              	.LVL86:
 872              		.loc 6 42 0
 873 009e 03FB03F3 		mul	r3, r3, r3
 874              	.LVL87:
 875 00a2 DA13     		asrs	r2, r3, #15
 876              	.LVL88:
 877              		.loc 6 43 0
 878 00a4 C2F5FF42 		rsb	r2, r2, #32640
 879              	.LVL89:
 880 00a8 7F32     		adds	r2, r2, #127
 881 00aa 5200     		lsls	r2, r2, #1
 882              		.loc 6 44 0
 883 00ac 0023     		movs	r3, #0
 884              	.LVL90:
 885              		.loc 6 43 0
 886 00ae C0F89820 		str	r2, [r0, #152]
 887              	.LVL91:
 888 00b2 A5F1800E 		sub	lr, r5, #128
 889              		.loc 6 44 0
 890 00b6 C0F89C30 		str	r3, [r0, #156]
 891 00ba 4FF6FF76 		movw	r6, #65535
 892 00be BFE7     		b	.L36
 893              	.LVL92:
 894              	.L34:
 895              	.LBE99:
 896              	.LBE98:
 897              	.LBE101:
 898              	.LBE103:
 899              	.LBB104:
 900              		.loc 5 69 0
 901 00c0 5468     		ldr	r4, [r2, #4]
 902              		.loc 5 65 0
 903 00c2 1568     		ldr	r5, [r2]
 904              	.LVL93:
 905              	.LBB105:
 906              	.LBB106:
 907              		.loc 6 40 0
 908 00c4 B4F5004F 		cmp	r4, #32768
 909 00c8 18DB     		blt	.L47
 910              		.loc 6 46 0
 911 00ca A4F50043 		sub	r3, r4, #32768
 912              	.LVL94:
ARM GAS  /tmp/ccaLh5bx.s 			page 17


 913 00ce 5B00     		lsls	r3, r3, #1
 914 00d0 C3F57F46 		rsb	r6, r3, #65280
 915 00d4 FF36     		adds	r6, r6, #255
 916              		.loc 6 47 0
 917 00d6 C0F89C30 		str	r3, [r0, #156]
 918              		.loc 6 46 0
 919 00da C0F89860 		str	r6, [r0, #152]
 920              		.loc 6 47 0
 921 00de 3246     		mov	r2, r6
 922              	.LVL95:
 923              	.L38:
 924              	.LBE106:
 925              	.LBE105:
 926              		.loc 5 71 0
 927 00e0 15F4004F 		tst	r5, #32768
 928              		.loc 5 75 0
 929 00e4 ADB2     		uxth	r5, r5
 930              		.loc 5 71 0
 931 00e6 1AD1     		bne	.L39
 932              	.LVL96:
 933              		.loc 5 75 0
 934 00e8 C424     		movs	r4, #196
 935 00ea 04FB05F4 		mul	r4, r4, r5
 936 00ee E413     		asrs	r4, r4, #15
 937 00f0 E334     		adds	r4, r4, #227
 938 00f2 A4B2     		uxth	r4, r4
 939              	.LVL97:
 940 00f4 4FF0000E 		mov	lr, #0
 941 00f8 8025     		movs	r5, #128
 942              	.LVL98:
 943 00fa A1E7     		b	.L36
 944              	.LVL99:
 945              	.L47:
 946              	.LBB110:
 947              	.LBB109:
 948              	.LBB107:
 949              	.LBB108:
 950              		.loc 6 41 0
 951 00fc C4F5FF44 		rsb	r4, r4, #32640
 952              	.LVL100:
 953 0100 7F34     		adds	r4, r4, #127
 954              	.LVL101:
 955              		.loc 6 42 0
 956 0102 04FB04F4 		mul	r4, r4, r4
 957              	.LVL102:
 958 0106 E213     		asrs	r2, r4, #15
 959              	.LVL103:
 960              		.loc 6 43 0
 961 0108 C2F5FF42 		rsb	r2, r2, #32640
 962              	.LVL104:
 963 010c 7F32     		adds	r2, r2, #127
 964 010e 5200     		lsls	r2, r2, #1
 965 0110 C0F89820 		str	r2, [r0, #152]
 966              	.LVL105:
 967              		.loc 6 44 0
 968 0114 C0F89C30 		str	r3, [r0, #156]
 969 0118 4FF6FF76 		movw	r6, #65535
ARM GAS  /tmp/ccaLh5bx.s 			page 18


 970 011c E0E7     		b	.L38
 971              	.LVL106:
 972              	.L39:
 973              	.LBE108:
 974              	.LBE107:
 975              	.LBE109:
 976              	.LBE110:
 977              		.loc 5 76 0
 978 011e 4CF26714 		movw	r4, #49511
 979 0122 A542     		cmp	r5, r4
 980 0124 12D8     		bhi	.L40
 981              	.LVL107:
 982              		.loc 5 79 0
 983 0126 85F40045 		eor	r5, r5, #32768
 984              	.LVL108:
 985 012a E324     		movs	r4, #227
 986              		.loc 5 81 0
 987 012c 5927     		movs	r7, #89
 988 012e 07FB05F7 		mul	r7, r7, r5
 989              		.loc 5 79 0
 990 0132 04FB05F5 		mul	r5, r4, r5
 991              	.LVL109:
 992 0136 ED13     		asrs	r5, r5, #15
 993              		.loc 5 81 0
 994 0138 FC13     		asrs	r4, r7, #15
 995 013a C4F5D374 		rsb	r4, r4, #422
 996              		.loc 5 79 0
 997 013e 8035     		adds	r5, r5, #128
 998              		.loc 5 81 0
 999 0140 0134     		adds	r4, r4, #1
 1000 0142 ADB2     		uxth	r5, r5
 1001 0144 A4B2     		uxth	r4, r4
 1002              	.LVL110:
 1003 0146 A5F1800E 		sub	lr, r5, #128
 1004 014a 79E7     		b	.L36
 1005              	.LVL111:
 1006              	.L40:
 1007              		.loc 5 83 0
 1008 014c 05F57A55 		add	r5, r5, #16000
 1009              	.LVL112:
 1010 0150 1835     		adds	r5, r5, #24
 1011              		.loc 5 85 0
 1012 0152 ACB2     		uxth	r4, r5
 1013              	.LVL113:
 1014 0154 E511     		asrs	r5, r4, #7
 1015 0156 C5F5B175 		rsb	r5, r5, #354
 1016 015a 0135     		adds	r5, r5, #1
 1017              		.loc 5 87 0
 1018 015c 240A     		lsrs	r4, r4, #8
 1019              	.LVL114:
 1020 015e ADB2     		uxth	r5, r5
 1021 0160 C4F5C074 		rsb	r4, r4, #384
 1022 0164 A4B2     		uxth	r4, r4
 1023              	.LVL115:
 1024 0166 A5F1800E 		sub	lr, r5, #128
 1025 016a 69E7     		b	.L36
 1026              	.L49:
ARM GAS  /tmp/ccaLh5bx.s 			page 19


 1027              		.align	2
 1028              	.L48:
 1029 016c 00000000 		.word	_ZN7streams19lut_lp_coefficientsE
 1030              	.LBE104:
 1031              	.LBE111:
 1032              	.LBE94:
 1033              	.LBE93:
 1034              		.cfi_endproc
 1035              	.LFE95:
 1036              		.cantunwind
 1037              		.fnend
 1038              		.size	_ZN7streams9Processor16VactrolConfigureEbPlS1_, .-_ZN7streams9Processor16VactrolConfigureEbP
 1039              		.section	.text._ZN7streams9Processor17FollowerConfigureEbPlS1_,"axG",%progbits,_ZN7streams9Process
 1040              		.align	2
 1041              		.p2align 4,,15
 1042              		.weak	_ZN7streams9Processor17FollowerConfigureEbPlS1_
 1043              		.thumb
 1044              		.thumb_func
 1045              		.type	_ZN7streams9Processor17FollowerConfigureEbPlS1_, %function
 1046              	_ZN7streams9Processor17FollowerConfigureEbPlS1_:
 1047              		.fnstart
 1048              	.LFB98:
 1049              		.loc 1 164 0
 1050              		.cfi_startproc
 1051              		@ args = 0, pretend = 0, frame = 0
 1052              		@ frame_needed = 0, uses_anonymous_args = 0
 1053              	.LVL116:
 1054 0000 2DE9F04F 		push	{r4, r5, r6, r7, r8, r9, r10, fp, lr}
 1055              		.cfi_def_cfa_offset 36
 1056              		.cfi_offset 4, -36
 1057              		.cfi_offset 5, -32
 1058              		.cfi_offset 6, -28
 1059              		.cfi_offset 7, -24
 1060              		.cfi_offset 8, -20
 1061              		.cfi_offset 9, -16
 1062              		.cfi_offset 10, -12
 1063              		.cfi_offset 11, -8
 1064              		.cfi_offset 14, -4
 1065              	.LBB125:
 1066              	.LBB126:
 1067              	.LBB127:
 1068              		.file 7 "./mutable_instruments/streams/follower.h"
 1069              		.loc 7 58 0
 1070 0004 002B     		cmp	r3, #0
 1071 0006 49D0     		beq	.L51
 1072              		.loc 7 63 0
 1073 0008 9D68     		ldr	r5, [r3, #8]
 1074              		.loc 7 68 0
 1075 000a 5268     		ldr	r2, [r2, #4]
 1076              	.LVL117:
 1077              		.loc 7 60 0
 1078 000c 1C68     		ldr	r4, [r3]
 1079              		.loc 7 63 0
 1080 000e 2B12     		asrs	r3, r5, #8
 1081              	.LVL118:
 1082 0010 8033     		adds	r3, r3, #128
 1083              	.LBB128:
ARM GAS  /tmp/ccaLh5bx.s 			page 20


 1084              	.LBB129:
 1085              		.loc 6 40 0
 1086 0012 B2F5004F 		cmp	r2, #32768
 1087              	.LBE129:
 1088              	.LBE128:
 1089              		.loc 7 63 0
 1090 0016 9BB2     		uxth	r3, r3
 1091              		.loc 7 60 0
 1092 0018 C4F30F24 		ubfx	r4, r4, #8, #16
 1093              	.LVL119:
 1094              	.LBB131:
 1095              	.LBB130:
 1096              		.loc 6 40 0
 1097 001c 4FDB     		blt	.L58
 1098              	.LVL120:
 1099              	.L56:
 1100              	.LBE130:
 1101              	.LBE131:
 1102              	.LBB132:
 1103              	.LBB133:
 1104              	.LBB134:
 1105              		.loc 6 46 0
 1106 001e A2F50042 		sub	r2, r2, #32768
 1107 0022 5200     		lsls	r2, r2, #1
 1108 0024 C2F57F45 		rsb	r5, r2, #65280
 1109 0028 FF35     		adds	r5, r5, #255
 1110              		.loc 6 47 0
 1111 002a C0F89821 		str	r2, [r0, #408]
 1112              		.loc 6 46 0
 1113 002e C0F89C51 		str	r5, [r0, #412]
 1114              	.L53:
 1115              	.LBE134:
 1116              	.LBE133:
 1117              	.LBE132:
 1118              	.LBE127:
 1119              		.loc 7 91 0
 1120 0032 314A     		ldr	r2, .L59
 1121 0034 04F12707 		add	r7, r4, #39
 1122              		.loc 7 92 0
 1123 0038 04F1130B 		add	fp, r4, #19
 1124              		.loc 7 96 0
 1125 003c 03F1270A 		add	r10, r3, #39
 1126              		.loc 7 97 0
 1127 0040 03F11309 		add	r9, r3, #19
 1128              		.loc 7 98 0
 1129 0044 6333     		adds	r3, r3, #99
 1130              	.LVL121:
 1131              		.loc 7 91 0
 1132 0046 52F82770 		ldr	r7, [r2, r7, lsl #2]
 1133              		.loc 7 92 0
 1134 004a 52F82BB0 		ldr	fp, [r2, fp, lsl #2]
 1135              		.loc 7 93 0
 1136 004e 52F82440 		ldr	r4, [r2, r4, lsl #2]
 1137              	.LVL122:
 1138              		.loc 7 96 0
 1139 0052 52F82AA0 		ldr	r10, [r2, r10, lsl #2]
 1140              		.loc 7 97 0
ARM GAS  /tmp/ccaLh5bx.s 			page 21


 1141 0056 52F82990 		ldr	r9, [r2, r9, lsl #2]
 1142              		.loc 7 98 0
 1143 005a 52F82320 		ldr	r2, [r2, r3, lsl #2]
 1144 005e C0F86021 		str	r2, [r0, #352]
 1145              		.loc 7 91 0
 1146 0062 0023     		movs	r3, #0
 1147              		.loc 7 93 0
 1148 0064 00F5A47E 		add	lr, r0, #328
 1149              		.loc 7 91 0
 1150 0068 C0F83871 		str	r7, [r0, #312]
 1151 006c C0F83C31 		str	r3, [r0, #316]
 1152              		.loc 7 92 0
 1153 0070 C0F840B1 		str	fp, [r0, #320]
 1154 0074 C0F84431 		str	r3, [r0, #324]
 1155              		.loc 7 93 0
 1156 0078 C0F84841 		str	r4, [r0, #328]
 1157 007c C0F84C31 		str	r3, [r0, #332]
 1158              		.loc 7 96 0
 1159 0080 C0F850A1 		str	r10, [r0, #336]
 1160 0084 C0F85431 		str	r3, [r0, #340]
 1161              		.loc 7 97 0
 1162 0088 C0F85891 		str	r9, [r0, #344]
 1163 008c C0F85C31 		str	r3, [r0, #348]
 1164              		.loc 7 98 0
 1165 0090 C0F86431 		str	r3, [r0, #356]
 1166              		.loc 7 100 0
 1167 0094 80F8A411 		strb	r1, [r0, #420]
 1168 0098 BDE8F08F 		pop	{r4, r5, r6, r7, r8, r9, r10, fp, pc}
 1169              	.LVL123:
 1170              	.L51:
 1171              	.LBB140:
 1172              	.LBB139:
 1173              		.loc 7 70 0
 1174 009c 1368     		ldr	r3, [r2]
 1175              	.LVL124:
 1176              		.loc 7 71 0
 1177 009e 13F4004F 		tst	r3, #32768
 1178              		.loc 7 73 0
 1179 00a2 9BB2     		uxth	r3, r3
 1180              		.loc 7 71 0
 1181 00a4 1BD1     		bne	.L54
 1182              		.loc 7 73 0
 1183 00a6 03EB8304 		add	r4, r3, r3, lsl #2
 1184 00aa C3EBC404 		rsb	r4, r3, r4, lsl #3
 1185              		.loc 7 75 0
 1186 00ae 1B0A     		lsrs	r3, r3, #8
 1187              	.LVL125:
 1188              		.loc 7 73 0
 1189 00b0 C4F3CF34 		ubfx	r4, r4, #15, #16
 1190              	.LVL126:
 1191              		.loc 7 75 0
 1192 00b4 8033     		adds	r3, r3, #128
 1193              	.LVL127:
 1194              	.L55:
 1195              		.loc 7 87 0
 1196 00b6 5268     		ldr	r2, [r2, #4]
 1197              	.LVL128:
ARM GAS  /tmp/ccaLh5bx.s 			page 22


 1198              	.LBB138:
 1199              	.LBB137:
 1200              		.loc 6 40 0
 1201 00b8 B2F5004F 		cmp	r2, #32768
 1202 00bc AFDA     		bge	.L56
 1203              	.LVL129:
 1204              	.L58:
 1205              	.LBB135:
 1206              	.LBB136:
 1207              		.loc 6 41 0
 1208 00be C2F5FF42 		rsb	r2, r2, #32640
 1209              	.LVL130:
 1210 00c2 7F32     		adds	r2, r2, #127
 1211              	.LVL131:
 1212              		.loc 6 42 0
 1213 00c4 02FB02F2 		mul	r2, r2, r2
 1214              	.LVL132:
 1215 00c8 D213     		asrs	r2, r2, #15
 1216              	.LVL133:
 1217              		.loc 6 43 0
 1218 00ca C2F5FF42 		rsb	r2, r2, #32640
 1219              	.LVL134:
 1220 00ce 7F32     		adds	r2, r2, #127
 1221 00d0 5200     		lsls	r2, r2, #1
 1222              		.loc 6 44 0
 1223 00d2 0025     		movs	r5, #0
 1224              		.loc 6 43 0
 1225 00d4 C0F89C21 		str	r2, [r0, #412]
 1226              		.loc 6 44 0
 1227 00d8 C0F89851 		str	r5, [r0, #408]
 1228 00dc A9E7     		b	.L53
 1229              	.LVL135:
 1230              	.L54:
 1231              	.LBE136:
 1232              	.LBE135:
 1233              	.LBE137:
 1234              	.LBE138:
 1235              		.loc 7 79 0
 1236 00de 83F40044 		eor	r4, r3, #32768
 1237              		.loc 7 81 0
 1238 00e2 04EB8403 		add	r3, r4, r4, lsl #2
 1239              	.LVL136:
 1240 00e6 C4EBC303 		rsb	r3, r4, r3, lsl #3
 1241 00ea DB13     		asrs	r3, r3, #15
 1242 00ec 03F58073 		add	r3, r3, #256
 1243              		.loc 7 79 0
 1244 00f0 240A     		lsrs	r4, r4, #8
 1245              		.loc 7 81 0
 1246 00f2 9BB2     		uxth	r3, r3
 1247              		.loc 7 79 0
 1248 00f4 2734     		adds	r4, r4, #39
 1249              	.LVL137:
 1250 00f6 DEE7     		b	.L55
 1251              	.L60:
 1252              		.align	2
 1253              	.L59:
 1254 00f8 00000000 		.word	_ZN7streams19lut_lp_coefficientsE
ARM GAS  /tmp/ccaLh5bx.s 			page 23


 1255              	.LBE139:
 1256              	.LBE140:
 1257              	.LBE126:
 1258              	.LBE125:
 1259              		.cfi_endproc
 1260              	.LFE98:
 1261              		.cantunwind
 1262              		.fnend
 1263              		.size	_ZN7streams9Processor17FollowerConfigureEbPlS1_, .-_ZN7streams9Processor17FollowerConfigureE
 1264              		.section	.text._ZN7streams9Processor17EnvelopeConfigureEbPlS1_,"axG",%progbits,_ZN7streams9Process
 1265              		.align	2
 1266              		.p2align 4,,15
 1267              		.weak	_ZN7streams9Processor17EnvelopeConfigureEbPlS1_
 1268              		.thumb
 1269              		.thumb_func
 1270              		.type	_ZN7streams9Processor17EnvelopeConfigureEbPlS1_, %function
 1271              	_ZN7streams9Processor17EnvelopeConfigureEbPlS1_:
 1272              		.fnstart
 1273              	.LFB92:
 1274              		.loc 1 162 0
 1275              		.cfi_startproc
 1276              		@ args = 0, pretend = 0, frame = 0
 1277              		@ frame_needed = 0, uses_anonymous_args = 0
 1278              		@ link register save eliminated.
 1279              	.LVL138:
 1280 0000 70B4     		push	{r4, r5, r6}
 1281              		.cfi_def_cfa_offset 12
 1282              		.cfi_offset 4, -12
 1283              		.cfi_offset 5, -8
 1284              		.cfi_offset 6, -4
 1285              	.LBB162:
 1286              	.LBB163:
 1287              		.file 8 "./mutable_instruments/streams/envelope.h"
 1288              		.loc 8 60 0
 1289 0002 002B     		cmp	r3, #0
 1290 0004 48D0     		beq	.L62
 1291              		.loc 8 66 0
 1292 0006 5268     		ldr	r2, [r2, #4]
 1293              	.LVL139:
 1294              		.loc 8 61 0
 1295 0008 1C88     		ldrh	r4, [r3]
 1296              	.LVL140:
 1297              		.loc 8 62 0
 1298 000a 1B89     		ldrh	r3, [r3, #8]
 1299              	.LVL141:
 1300              	.LBB164:
 1301              	.LBB165:
 1302              		.loc 6 40 0
 1303 000c B2F5004F 		cmp	r2, #32768
 1304 0010 5EDB     		blt	.L74
 1305              	.LVL142:
 1306              	.L68:
 1307              	.LBE165:
 1308              	.LBE164:
 1309              	.LBB166:
 1310              	.LBB167:
 1311              		.loc 6 46 0
ARM GAS  /tmp/ccaLh5bx.s 			page 24


 1312 0012 A2F50042 		sub	r2, r2, #32768
 1313 0016 5200     		lsls	r2, r2, #1
 1314 0018 C2F57F45 		rsb	r5, r2, #65280
 1315              		.loc 6 47 0
 1316 001c C267     		str	r2, [r0, #124]
 1317              	.LBE167:
 1318              	.LBE166:
 1319              		.loc 8 75 0
 1320 001e B0F88820 		ldrh	r2, [r0, #136]
 1321              	.LBB179:
 1322              	.LBB174:
 1323              		.loc 6 46 0
 1324 0022 FF35     		adds	r5, r5, #255
 1325              	.LBE174:
 1326              	.LBE179:
 1327              		.loc 8 75 0
 1328 0024 A242     		cmp	r2, r4
 1329              	.LBB180:
 1330              	.LBB175:
 1331              		.loc 6 46 0
 1332 0026 8567     		str	r5, [r0, #120]
 1333              	.LBE175:
 1334              	.LBE180:
 1335              		.loc 8 75 0
 1336 0028 63D0     		beq	.L75
 1337              	.L69:
 1338              		.loc 8 76 0
 1339 002a A0F88840 		strh	r4, [r0, #136]	@ movhi
 1340              		.loc 8 77 0
 1341 002e A0F88A30 		strh	r3, [r0, #138]	@ movhi
 1342              		.loc 8 78 0
 1343 0032 80F88C10 		strb	r1, [r0, #140]
 1344              	.LBB181:
 1345              	.LBB182:
 1346              		.loc 8 142 0
 1347 0036 0226     		movs	r6, #2
 1348              	.LBE182:
 1349              	.LBE181:
 1350              		.loc 8 79 0
 1351 0038 C1B9     		cbnz	r1, .L76
 1352              	.LVL143:
 1353              	.LBB184:
 1354              	.LBB185:
 1355              		.loc 8 109 0
 1356 003a 47F6FF75 		movw	r5, #32767
 1357              		.loc 8 116 0
 1358 003e 0122     		movs	r2, #1
 1359              		.loc 8 106 0
 1360 0040 A0F87610 		strh	r1, [r0, #118]	@ movhi
 1361              		.loc 8 108 0
 1362 0044 C187     		strh	r1, [r0, #62]	@ movhi
 1363              		.loc 8 110 0
 1364 0046 A0F84210 		strh	r1, [r0, #66]	@ movhi
 1365              		.loc 8 112 0
 1366 004a A0F84E40 		strh	r4, [r0, #78]	@ movhi
 1367              		.loc 8 113 0
 1368 004e A0F85030 		strh	r3, [r0, #80]	@ movhi
ARM GAS  /tmp/ccaLh5bx.s 			page 25


 1369              		.loc 8 115 0
 1370 0052 80F85E10 		strb	r1, [r0, #94]
 1371              		.loc 8 105 0
 1372 0056 A0F87460 		strh	r6, [r0, #116]	@ movhi
 1373              		.loc 8 109 0
 1374 005a A0F84050 		strh	r5, [r0, #64]	@ movhi
 1375              		.loc 8 116 0
 1376 005e 80F85F20 		strb	r2, [r0, #95]
 1377              	.LVL144:
 1378              	.L72:
 1379              	.LBE185:
 1380              	.LBE184:
 1381              	.LBB186:
 1382              	.LBB187:
 1383              		.loc 8 207 0
 1384 0062 0123     		movs	r3, #1
 1385              	.LVL145:
 1386 0064 80F88D30 		strb	r3, [r0, #141]
 1387              	.LVL146:
 1388              	.L61:
 1389              	.LBE187:
 1390              	.LBE186:
 1391              	.LBE163:
 1392              	.LBE162:
 1393              		.loc 1 162 0
 1394 0068 70BC     		pop	{r4, r5, r6}
 1395              		.cfi_remember_state
 1396              		.cfi_restore 6
 1397              		.cfi_restore 5
 1398              		.cfi_restore 4
 1399              		.cfi_def_cfa_offset 0
 1400              	.LVL147:
 1401 006a 7047     		bx	lr
 1402              	.LVL148:
 1403              	.L76:
 1404              		.cfi_restore_state
 1405              	.LBB199:
 1406              	.LBB198:
 1407              	.LBB188:
 1408              	.LBB183:
 1409              		.loc 8 145 0
 1410 006c 0022     		movs	r2, #0
 1411              		.loc 8 143 0
 1412 006e 0125     		movs	r5, #1
 1413              		.loc 8 146 0
 1414 0070 47F6FF71 		movw	r1, #32767
 1415              	.LVL149:
 1416              		.loc 8 149 0
 1417 0074 A0F84E40 		strh	r4, [r0, #78]	@ movhi
 1418              		.loc 8 150 0
 1419 0078 A0F85030 		strh	r3, [r0, #80]	@ movhi
 1420              		.loc 8 142 0
 1421 007c A0F87460 		strh	r6, [r0, #116]	@ movhi
 1422              		.loc 8 143 0
 1423 0080 A0F87650 		strh	r5, [r0, #118]	@ movhi
 1424              		.loc 8 145 0
 1425 0084 C287     		strh	r2, [r0, #62]	@ movhi
ARM GAS  /tmp/ccaLh5bx.s 			page 26


 1426              		.loc 8 147 0
 1427 0086 A0F84220 		strh	r2, [r0, #66]	@ movhi
 1428              		.loc 8 152 0
 1429 008a 80F85E20 		strb	r2, [r0, #94]
 1430              		.loc 8 153 0
 1431 008e 80F85F20 		strb	r2, [r0, #95]
 1432              		.loc 8 146 0
 1433 0092 A0F84010 		strh	r1, [r0, #64]	@ movhi
 1434 0096 E4E7     		b	.L72
 1435              	.LVL150:
 1436              	.L62:
 1437              	.LBE183:
 1438              	.LBE188:
 1439              		.loc 8 68 0
 1440 0098 1468     		ldr	r4, [r2]
 1441              	.LVL151:
 1442              	.LBB189:
 1443              	.LBB190:
 1444              		.loc 6 52 0
 1445 009a B4F5004F 		cmp	r4, #32768
 1446 009e 31DB     		blt	.L77
 1447              		.loc 6 55 0
 1448 00a0 B4F5404F 		cmp	r4, #49152
 1449 00a4 38DB     		blt	.L78
 1450              		.loc 6 59 0
 1451 00a6 A4F54043 		sub	r3, r4, #49152
 1452              	.LVL152:
 1453 00aa 9B10     		asrs	r3, r3, #2
 1454              		.loc 6 60 0
 1455 00ac A4F50044 		sub	r4, r4, #32768
 1456              	.LVL153:
 1457              		.loc 6 59 0
 1458 00b0 C3EB8335 		rsb	r5, r3, r3, lsl #14
 1459              		.loc 6 60 0
 1460 00b4 6410     		asrs	r4, r4, #1
 1461 00b6 A4EB8404 		sub	r4, r4, r4, lsl #2
 1462              		.loc 6 59 0
 1463 00ba C3EB8505 		rsb	r5, r3, r5, lsl #2
 1464              		.loc 6 60 0
 1465 00be 631E     		subs	r3, r4, #1
 1466              		.loc 6 59 0
 1467 00c0 A5F50044 		sub	r4, r5, #32768
 1468              		.loc 6 60 0
 1469 00c4 9BB2     		uxth	r3, r3
 1470              		.loc 6 59 0
 1471 00c6 A4B2     		uxth	r4, r4
 1472              	.LVL154:
 1473              	.L66:
 1474              	.LBE190:
 1475              	.LBE189:
 1476              		.loc 8 72 0
 1477 00c8 5268     		ldr	r2, [r2, #4]
 1478              	.LVL155:
 1479              	.LBB194:
 1480              	.LBB176:
 1481              		.loc 6 40 0
 1482 00ca B2F5004F 		cmp	r2, #32768
ARM GAS  /tmp/ccaLh5bx.s 			page 27


 1483 00ce A0DA     		bge	.L68
 1484              	.LVL156:
 1485              	.L74:
 1486              	.LBB168:
 1487              	.LBB169:
 1488              		.loc 6 41 0
 1489 00d0 C2F5FF42 		rsb	r2, r2, #32640
 1490              	.LVL157:
 1491 00d4 7F32     		adds	r2, r2, #127
 1492              	.LVL158:
 1493              		.loc 6 42 0
 1494 00d6 02FB02F2 		mul	r2, r2, r2
 1495              	.LVL159:
 1496 00da D213     		asrs	r2, r2, #15
 1497              	.LVL160:
 1498              		.loc 6 43 0
 1499 00dc C2F5FF42 		rsb	r2, r2, #32640
 1500              	.LVL161:
 1501 00e0 7F32     		adds	r2, r2, #127
 1502 00e2 5200     		lsls	r2, r2, #1
 1503 00e4 8267     		str	r2, [r0, #120]
 1504              	.LBE169:
 1505              	.LBE168:
 1506              	.LBE176:
 1507              	.LBE194:
 1508              		.loc 8 75 0
 1509 00e6 B0F88820 		ldrh	r2, [r0, #136]
 1510              	.LBB195:
 1511              	.LBB177:
 1512              	.LBB172:
 1513              	.LBB170:
 1514              		.loc 6 44 0
 1515 00ea 0025     		movs	r5, #0
 1516              	.LBE170:
 1517              	.LBE172:
 1518              	.LBE177:
 1519              	.LBE195:
 1520              		.loc 8 75 0
 1521 00ec A242     		cmp	r2, r4
 1522              	.LBB196:
 1523              	.LBB178:
 1524              	.LBB173:
 1525              	.LBB171:
 1526              		.loc 6 44 0
 1527 00ee C567     		str	r5, [r0, #124]
 1528              	.LBE171:
 1529              	.LBE173:
 1530              	.LBE178:
 1531              	.LBE196:
 1532              		.loc 8 75 0
 1533 00f0 9BD1     		bne	.L69
 1534              	.L75:
 1535 00f2 B0F88A20 		ldrh	r2, [r0, #138]
 1536 00f6 9A42     		cmp	r2, r3
 1537 00f8 97D1     		bne	.L69
 1538 00fa 90F88C20 		ldrb	r2, [r0, #140]	@ zero_extendqisi2
 1539 00fe 8A42     		cmp	r2, r1
ARM GAS  /tmp/ccaLh5bx.s 			page 28


 1540 0100 93D1     		bne	.L69
 1541 0102 B1E7     		b	.L61
 1542              	.LVL162:
 1543              	.L77:
 1544              	.LBB197:
 1545              	.LBB193:
 1546              		.loc 6 54 0
 1547 0104 E410     		asrs	r4, r4, #3
 1548              	.LVL163:
 1549 0106 04EB4405 		add	r5, r4, r4, lsl #1
 1550 010a 04EB8504 		add	r4, r4, r5, lsl #2
 1551 010e 04F54055 		add	r5, r4, #12288
 1552              		.loc 6 53 0
 1553 0112 1C46     		mov	r4, r3
 1554              		.loc 6 54 0
 1555 0114 ABB2     		uxth	r3, r5
 1556              	.LVL164:
 1557 0116 D7E7     		b	.L66
 1558              	.LVL165:
 1559              	.L78:
 1560              	.LBB191:
 1561              	.LBB192:
 1562              		.loc 6 56 0
 1563 0118 A4F50044 		sub	r4, r4, #32768
 1564              	.LVL166:
 1565              		.loc 6 57 0
 1566 011c 6310     		asrs	r3, r4, #1
 1567              	.LVL167:
 1568 011e A3EB8303 		sub	r3, r3, r3, lsl #2
 1569 0122 013B     		subs	r3, r3, #1
 1570              		.loc 6 56 0
 1571 0124 6400     		lsls	r4, r4, #1
 1572              		.loc 6 57 0
 1573 0126 9BB2     		uxth	r3, r3
 1574              		.loc 6 56 0
 1575 0128 A4B2     		uxth	r4, r4
 1576              	.LVL168:
 1577 012a CDE7     		b	.L66
 1578              	.LBE192:
 1579              	.LBE191:
 1580              	.LBE193:
 1581              	.LBE197:
 1582              	.LBE198:
 1583              	.LBE199:
 1584              		.cfi_endproc
 1585              	.LFE92:
 1586              		.cantunwind
 1587              		.fnend
 1588              		.size	_ZN7streams9Processor17EnvelopeConfigureEbPlS1_, .-_ZN7streams9Processor17EnvelopeConfigureE
 1589              		.text
 1590              		.align	2
 1591              		.p2align 4,,15
 1592              		.global	_ZN7streams9Processor4InitEh
 1593              		.thumb
 1594              		.thumb_func
 1595              		.type	_ZN7streams9Processor4InitEh, %function
 1596              	_ZN7streams9Processor4InitEh:
ARM GAS  /tmp/ccaLh5bx.s 			page 29


 1597              		.fnstart
 1598              	.LFB548:
 1599              		.file 9 "./mutable_instruments/streams/processor.cpp"
 1600              		.loc 9 54 0
 1601              		.cfi_startproc
 1602              		@ args = 0, pretend = 0, frame = 0
 1603              		@ frame_needed = 0, uses_anonymous_args = 0
 1604              	.LVL169:
 1605 0000 F8B5     		push	{r3, r4, r5, r6, r7, lr}
 1606              		.save {r3, r4, r5, r6, r7, lr}
 1607              		.cfi_def_cfa_offset 24
 1608              		.cfi_offset 3, -24
 1609              		.cfi_offset 4, -20
 1610              		.cfi_offset 5, -16
 1611              		.cfi_offset 6, -12
 1612              		.cfi_offset 7, -8
 1613              		.cfi_offset 14, -4
 1614 0002 294C     		ldr	r4, .L94
 1615              		.loc 9 54 0
 1616 0004 0546     		mov	r5, r0
 1617 0006 0E46     		mov	r6, r1
 1618 0008 04F19007 		add	r7, r4, #144
 1619 000c 07E0     		b	.L82
 1620              	.LVL170:
 1621              	.L92:
 1622              	.LBB212:
 1623              	.LBB213:
 1624              		.loc 9 56 0 discriminator 1
 1625 000e 54F8042C 		ldr	r2, [r4, #-4]
 1626 0012 05EB6000 		add	r0, r5, r0, asr #1
 1627 0016 1834     		adds	r4, r4, #24
 1628 0018 9047     		blx	r2
 1629              	.LVL171:
 1630              		.loc 9 55 0 discriminator 1
 1631 001a BC42     		cmp	r4, r7
 1632 001c 0DD0     		beq	.L91
 1633              	.L82:
 1634              		.loc 9 56 0
 1635 001e 2068     		ldr	r0, [r4]
 1636 0020 C207     		lsls	r2, r0, #31
 1637 0022 4FEA6003 		asr	r3, r0, #1
 1638 0026 F2D5     		bpl	.L92
 1639              		.loc 9 56 0 is_stmt 0 discriminator 2
 1640 0028 54F8042C 		ldr	r2, [r4, #-4]
 1641 002c E958     		ldr	r1, [r5, r3]
 1642 002e E818     		adds	r0, r5, r3
 1643 0030 8A58     		ldr	r2, [r1, r2]
 1644 0032 1834     		adds	r4, r4, #24
 1645 0034 9047     		blx	r2
 1646              	.LVL172:
 1647              		.loc 9 55 0 is_stmt 1 discriminator 2
 1648 0036 BC42     		cmp	r4, r7
 1649 0038 F1D1     		bne	.L82
 1650              	.L91:
 1651              	.LBE213:
 1652              		.loc 9 59 0
 1653 003a 0023     		movs	r3, #0
ARM GAS  /tmp/ccaLh5bx.s 			page 30


 1654              		.loc 9 58 0
 1655 003c 0122     		movs	r2, #1
 1656 003e 2A71     		strb	r2, [r5, #4]
 1657              		.loc 9 59 0
 1658 0040 EB70     		strb	r3, [r5, #3]
 1659              		.loc 9 60 0
 1660 0042 AB70     		strb	r3, [r5, #2]
 1661              		.loc 9 62 0
 1662 0044 05F10802 		add	r2, r5, #8
 1663 0048 05F11003 		add	r3, r5, #16
 1664              	.LVL173:
 1665              	.LBB214:
 1666              	.LBB215:
 1667              	.LBB216:
 1668              		.file 10 "/home/sbcu/Dropbox/pcb-layouts/axo-on-discovery-board/axoloti/platform_linux/arm-none-ea
 1669              		.loc 10 704 0
 1670 004c 4FF40041 		mov	r1, #32768
 1671              	.LVL174:
 1672              	.L83:
 1673 0050 42F8041B 		str	r1, [r2], #4
 1674              	.LVL175:
 1675              		.loc 10 703 0
 1676 0054 9342     		cmp	r3, r2
 1677 0056 FBD1     		bne	.L83
 1678              	.LBE216:
 1679              	.LBE215:
 1680              	.LBE214:
 1681              		.loc 9 63 0
 1682 0058 05F12001 		add	r1, r5, #32
 1683              	.LVL176:
 1684              	.LBB217:
 1685              	.LBB218:
 1686              	.LBB219:
 1687              		.loc 10 704 0
 1688 005c 4FF40042 		mov	r2, #32768
 1689              	.LVL177:
 1690              	.L84:
 1691 0060 43F8042B 		str	r2, [r3], #4
 1692              	.LVL178:
 1693              		.loc 10 703 0
 1694 0064 9942     		cmp	r1, r3
 1695 0066 FBD1     		bne	.L84
 1696              	.LVL179:
 1697              	.LBE219:
 1698              	.LBE218:
 1699              	.LBE217:
 1700              	.LBB220:
 1701              	.LBB221:
 1702              		.loc 1 95 0
 1703 0068 104F     		ldr	r7, .L94+4
 1704 006a 0FCF     		ldmia	r7!, {r0, r1, r2, r3}
 1705              	.LVL180:
 1706              		.loc 1 94 0
 1707 006c 4FF0000E 		mov	lr, #0
 1708              		.loc 1 95 0
 1709 0070 05F12404 		add	r4, r5, #36
 1710              		.loc 1 94 0
ARM GAS  /tmp/ccaLh5bx.s 			page 31


 1711 0074 85F801E0 		strb	lr, [r5, #1]
 1712              		.loc 1 95 0
 1713 0078 0FC4     		stmia	r4!, {r0, r1, r2, r3}
 1714 007a 97E80300 		ldmia	r7, {r0, r1}
 1715 007e 84E80300 		stmia	r4, {r0, r1}
 1716              		.loc 1 96 0
 1717 0082 A86A     		ldr	r0, [r5, #40]
 1718 0084 C307     		lsls	r3, r0, #31
 1719 0086 0AD5     		bpl	.L93
 1720 0088 4010     		asrs	r0, r0, #1
 1721 008a 6B6A     		ldr	r3, [r5, #36]
 1722 008c 2A58     		ldr	r2, [r5, r0]
 1723 008e D358     		ldr	r3, [r2, r3]
 1724 0090 2844     		add	r0, r0, r5
 1725              	.L86:
 1726 0092 9847     		blx	r3
 1727              	.LVL181:
 1728              		.loc 1 97 0
 1729 0094 0123     		movs	r3, #1
 1730              	.LBE221:
 1731              	.LBE220:
 1732              	.LBB223:
 1733              	.LBB224:
 1734              		.loc 4 51 0
 1735 0096 85F81062 		strb	r6, [r5, #528]
 1736              	.LBE224:
 1737              	.LBE223:
 1738              	.LBB225:
 1739              	.LBB222:
 1740              		.loc 1 97 0
 1741 009a 2B71     		strb	r3, [r5, #4]
 1742              	.LVL182:
 1743 009c F8BD     		pop	{r3, r4, r5, r6, r7, pc}
 1744              	.LVL183:
 1745              	.L93:
 1746 009e 05EB6000 		add	r0, r5, r0, asr #1
 1747              		.loc 1 96 0
 1748 00a2 6B6A     		ldr	r3, [r5, #36]
 1749 00a4 F5E7     		b	.L86
 1750              	.L95:
 1751 00a6 00BF     		.align	2
 1752              	.L94:
 1753 00a8 04000000 		.word	.LANCHOR0+4
 1754 00ac 00000000 		.word	.LANCHOR0
 1755              	.LBE222:
 1756              	.LBE225:
 1757              	.LBE212:
 1758              		.cfi_endproc
 1759              	.LFE548:
 1760              		.fnend
 1761              		.size	_ZN7streams9Processor4InitEh, .-_ZN7streams9Processor4InitEh
 1762              		.global	_ZN7streams9Processor16callbacks_table_E
 1763              		.section	.rodata
 1764              		.align	2
 1765              		.set	.LANCHOR0,. + 0
 1766              		.type	_ZN7streams9Processor16callbacks_table_E, %object
 1767              		.size	_ZN7streams9Processor16callbacks_table_E, 144
ARM GAS  /tmp/ccaLh5bx.s 			page 32


 1768              	_ZN7streams9Processor16callbacks_table_E:
 1769 0000 00000000 		.word	_ZN7streams9Processor12EnvelopeInitEv
 1770 0004 00000000 		.word	0
 1771 0008 00000000 		.word	_ZN7streams9Processor15EnvelopeProcessEssPtS1_
 1772 000c 00000000 		.word	0
 1773 0010 00000000 		.word	_ZN7streams9Processor17EnvelopeConfigureEbPlS1_
 1774 0014 00000000 		.word	0
 1775 0018 00000000 		.word	_ZN7streams9Processor11VactrolInitEv
 1776 001c 00000000 		.word	0
 1777 0020 00000000 		.word	_ZN7streams9Processor14VactrolProcessEssPtS1_
 1778 0024 00000000 		.word	0
 1779 0028 00000000 		.word	_ZN7streams9Processor16VactrolConfigureEbPlS1_
 1780 002c 00000000 		.word	0
 1781 0030 00000000 		.word	_ZN7streams9Processor12FollowerInitEv
 1782 0034 00000000 		.word	0
 1783 0038 00000000 		.word	_ZN7streams9Processor15FollowerProcessEssPtS1_
 1784 003c 00000000 		.word	0
 1785 0040 00000000 		.word	_ZN7streams9Processor17FollowerConfigureEbPlS1_
 1786 0044 00000000 		.word	0
 1787 0048 00000000 		.word	_ZN7streams9Processor14CompressorInitEv
 1788 004c 00000000 		.word	0
 1789 0050 00000000 		.word	_ZN7streams9Processor17CompressorProcessEssPtS1_
 1790 0054 00000000 		.word	0
 1791 0058 00000000 		.word	_ZN7streams9Processor19CompressorConfigureEbPlS1_
 1792 005c 00000000 		.word	0
 1793 0060 00000000 		.word	_ZN7streams9Processor20FilterControllerInitEv
 1794 0064 00000000 		.word	0
 1795 0068 00000000 		.word	_ZN7streams9Processor23FilterControllerProcessEssPtS1_
 1796 006c 00000000 		.word	0
 1797 0070 00000000 		.word	_ZN7streams9Processor25FilterControllerConfigureEbPlS1_
 1798 0074 00000000 		.word	0
 1799 0078 00000000 		.word	_ZN7streams9Processor19LorenzGeneratorInitEv
 1800 007c 00000000 		.word	0
 1801 0080 00000000 		.word	_ZN7streams9Processor22LorenzGeneratorProcessEssPtS1_
 1802 0084 00000000 		.word	0
 1803 0088 00000000 		.word	_ZN7streams9Processor24LorenzGeneratorConfigureEbPlS1_
 1804 008c 00000000 		.word	0
 1805              		.text
 1806              	.Letext0:
 1807              		.file 11 "/home/sbcu/Dropbox/pcb-layouts/axo-on-discovery-board/axoloti/platform_linux/arm-none-ea
 1808              		.file 12 "/home/sbcu/Dropbox/pcb-layouts/axo-on-discovery-board/axoloti/platform_linux/lib/gcc/arm
 1809              		.file 13 "/home/sbcu/Dropbox/pcb-layouts/axo-on-discovery-board/axoloti/platform_linux/arm-none-ea
 1810              		.file 14 "/home/sbcu/Dropbox/pcb-layouts/axo-on-discovery-board/axoloti/platform_linux/arm-none-ea
 1811              		.file 15 "/home/sbcu/Dropbox/pcb-layouts/axo-on-discovery-board/axoloti/platform_linux/arm-none-ea
 1812              		.file 16 "/home/sbcu/Dropbox/pcb-layouts/axo-on-discovery-board/axoloti/platform_linux/arm-none-ea
 1813              		.file 17 "/home/sbcu/Dropbox/pcb-layouts/axo-on-discovery-board/axoloti/platform_linux/arm-none-ea
 1814              		.file 18 "/home/sbcu/Dropbox/pcb-layouts/axo-on-discovery-board/axoloti/platform_linux/arm-none-ea
 1815              		.file 19 "/home/sbcu/Dropbox/pcb-layouts/axo-on-discovery-board/axoloti/platform_linux/arm-none-ea
 1816              		.file 20 "/home/sbcu/Dropbox/pcb-layouts/axo-on-discovery-board/axoloti/platform_linux/arm-none-ea
 1817              		.file 21 "/home/sbcu/Dropbox/pcb-layouts/axo-on-discovery-board/axoloti/platform_linux/arm-none-ea
 1818              		.file 22 "/home/sbcu/Dropbox/pcb-layouts/axo-on-discovery-board/axoloti/platform_linux/arm-none-ea
 1819              		.file 23 "./mutable_instruments/stmlib/stmlib.h"
 1820              		.file 24 "./mutable_instruments/streams/svf.h"
 1821              		.file 25 "./mutable_instruments/streams/gain.h"
 1822              		.file 26 "/home/sbcu/Dropbox/pcb-layouts/axo-on-discovery-board/axoloti/platform_linux/arm-none-ea
 1823              		.file 27 "./mutable_instruments/streams/resources.h"
 1824              		.file 28 "<built-in>"
ARM GAS  /tmp/ccaLh5bx.s 			page 33


 1825              		.file 29 "/home/sbcu/Dropbox/pcb-layouts/axo-on-discovery-board/axoloti/platform_linux/arm-none-ea
 1826              		.file 30 "/home/sbcu/Dropbox/pcb-layouts/axo-on-discovery-board/axoloti/platform_linux/arm-none-ea
 1827              		.file 31 "/home/sbcu/Dropbox/pcb-layouts/axo-on-discovery-board/axoloti/platform_linux/arm-none-ea
 1828              		.file 32 "/home/sbcu/Dropbox/pcb-layouts/axo-on-discovery-board/axoloti/platform_linux/arm-none-ea
 1829              		.file 33 "/home/sbcu/Dropbox/pcb-layouts/axo-on-discovery-board/axoloti/platform_linux/arm-none-ea