ARM GAS  /tmp/cc94jpXX.s 			page 1


   1              		.syntax unified
   2              		.cpu cortex-m4
   3              		.eabi_attribute 27, 1
   4              		.eabi_attribute 28, 1
   5              		.fpu fpv4-sp-d16
   6              		.eabi_attribute 20, 1
   7              		.eabi_attribute 21, 1
   8              		.eabi_attribute 23, 3
   9              		.eabi_attribute 24, 1
  10              		.eabi_attribute 25, 1
  11              		.eabi_attribute 26, 1
  12              		.eabi_attribute 30, 2
  13              		.eabi_attribute 34, 1
  14              		.eabi_attribute 18, 4
  15              		.thumb
  16              		.file	"pwm_lld.c"
  17              		.text
  18              	.Ltext0:
  19              		.cfi_sections	.debug_frame
  20              		.align	2
  21              		.p2align 4,,15
  22              		.thumb
  23              		.thumb_func
  24              		.type	pwm_lld_serve_interrupt, %function
  25              	pwm_lld_serve_interrupt:
  26              	.LFB130:
  27              		.file 1 "/home/sbcu/Dropbox/pcb-layouts/axo-on-discovery-board/axoloti/platform_linux/../chibios/o
  28              		.loc 1 112 0
  29              		.cfi_startproc
  30              		@ args = 0, pretend = 0, frame = 0
  31              		@ frame_needed = 0, uses_anonymous_args = 0
  32              	.LVL0:
  33              		.loc 1 115 0
  34 0000 0269     		ldr	r2, [r0, #16]
  35              		.loc 1 112 0
  36 0002 70B5     		push	{r4, r5, r6, lr}
  37              		.cfi_def_cfa_offset 16
  38              		.cfi_offset 4, -16
  39              		.cfi_offset 5, -12
  40              		.cfi_offset 6, -8
  41              		.cfi_offset 14, -4
  42              		.loc 1 115 0
  43 0004 1469     		ldr	r4, [r2, #16]
  44              	.LVL1:
  45              		.loc 1 116 0
  46 0006 D368     		ldr	r3, [r2, #12]
  47 0008 DBB2     		uxtb	r3, r3
  48 000a 1C40     		ands	r4, r4, r3
  49              	.LVL2:
  50              		.loc 1 117 0
  51 000c E343     		mvns	r3, r4
  52              		.loc 1 118 0
  53 000e A607     		lsls	r6, r4, #30
  54              		.loc 1 112 0
  55 0010 0546     		mov	r5, r0
  56              		.loc 1 117 0
  57 0012 1361     		str	r3, [r2, #16]
ARM GAS  /tmp/cc94jpXX.s 			page 2


  58              		.loc 1 118 0
  59 0014 1DD4     		bmi	.L21
  60              	.LVL3:
  61              	.L2:
  62              		.loc 1 120 0
  63 0016 6007     		lsls	r0, r4, #29
  64 0018 16D4     		bmi	.L22
  65              	.L3:
  66              		.loc 1 122 0
  67 001a 2107     		lsls	r1, r4, #28
  68 001c 0FD4     		bmi	.L23
  69              	.L4:
  70              		.loc 1 124 0
  71 001e E206     		lsls	r2, r4, #27
  72 0020 08D4     		bmi	.L24
  73              	.L5:
  74              		.loc 1 126 0
  75 0022 E307     		lsls	r3, r4, #31
  76 0024 00D4     		bmi	.L25
  77 0026 70BD     		pop	{r4, r5, r6, pc}
  78              	.LVL4:
  79              	.L25:
  80              		.loc 1 127 0
  81 0028 6B68     		ldr	r3, [r5, #4]
  82 002a 2846     		mov	r0, r5
  83 002c 9B68     		ldr	r3, [r3, #8]
  84              		.loc 1 128 0
  85 002e BDE87040 		pop	{r4, r5, r6, lr}
  86              		.cfi_remember_state
  87              		.cfi_restore 14
  88              		.cfi_restore 6
  89              		.cfi_restore 5
  90              		.cfi_restore 4
  91              		.cfi_def_cfa_offset 0
  92              	.LVL5:
  93              		.loc 1 127 0
  94 0032 1847     		bx	r3	@ indirect register sibling call
  95              	.LVL6:
  96              	.L24:
  97              		.cfi_restore_state
  98              		.loc 1 125 0
  99 0034 6B68     		ldr	r3, [r5, #4]
 100 0036 2846     		mov	r0, r5
 101 0038 9B6A     		ldr	r3, [r3, #40]
 102 003a 9847     		blx	r3
 103              	.LVL7:
 104 003c F1E7     		b	.L5
 105              	.L23:
 106              		.loc 1 123 0
 107 003e 6B68     		ldr	r3, [r5, #4]
 108 0040 2846     		mov	r0, r5
 109 0042 1B6A     		ldr	r3, [r3, #32]
 110 0044 9847     		blx	r3
 111              	.LVL8:
 112 0046 EAE7     		b	.L4
 113              	.L22:
 114              		.loc 1 121 0
ARM GAS  /tmp/cc94jpXX.s 			page 3


 115 0048 6B68     		ldr	r3, [r5, #4]
 116 004a 2846     		mov	r0, r5
 117 004c 9B69     		ldr	r3, [r3, #24]
 118 004e 9847     		blx	r3
 119              	.LVL9:
 120 0050 E3E7     		b	.L3
 121              	.LVL10:
 122              	.L21:
 123              		.loc 1 119 0
 124 0052 4368     		ldr	r3, [r0, #4]
 125 0054 1B69     		ldr	r3, [r3, #16]
 126 0056 9847     		blx	r3
 127              	.LVL11:
 128 0058 DDE7     		b	.L2
 129              		.cfi_endproc
 130              	.LFE130:
 131              		.size	pwm_lld_serve_interrupt, .-pwm_lld_serve_interrupt
 132 005a 00BF     		.align	2
 133 005c AFF30080 		.p2align 4,,15
 134              		.global	VectorA4
 135              		.thumb
 136              		.thumb_func
 137              		.type	VectorA4, %function
 138              	VectorA4:
 139              	.LFB131:
 140              		.loc 1 147 0
 141              		.cfi_startproc
 142              		@ args = 0, pretend = 0, frame = 0
 143              		@ frame_needed = 0, uses_anonymous_args = 0
 144 0060 08B5     		push	{r3, lr}
 145              		.cfi_def_cfa_offset 8
 146              		.cfi_offset 3, -8
 147              		.cfi_offset 14, -4
 148              		.loc 1 152 0
 149 0062 0648     		ldr	r0, .L28
 150              		.loc 1 151 0
 151 0064 064A     		ldr	r2, .L28+4
 152              		.loc 1 152 0
 153 0066 4368     		ldr	r3, [r0, #4]
 154              		.loc 1 151 0
 155 0068 6FF00101 		mvn	r1, #1
 156              		.loc 1 152 0
 157 006c 9B68     		ldr	r3, [r3, #8]
 158              		.loc 1 151 0
 159 006e 1161     		str	r1, [r2, #16]
 160              		.loc 1 152 0
 161 0070 9847     		blx	r3
 162              	.LVL12:
 163              		.loc 1 155 0
 164 0072 BDE80840 		pop	{r3, lr}
 165              		.cfi_restore 14
 166              		.cfi_restore 3
 167              		.cfi_def_cfa_offset 0
 168              		.loc 1 154 0
 169 0076 FFF7FEBF 		b	_port_irq_epilogue
 170              	.LVL13:
 171              	.L29:
ARM GAS  /tmp/cc94jpXX.s 			page 4


 172 007a 00BF     		.align	2
 173              	.L28:
 174 007c 00000000 		.word	PWMD1
 175 0080 00000140 		.word	1073807360
 176              		.cfi_endproc
 177              	.LFE131:
 178              		.size	VectorA4, .-VectorA4
 179              		.align	2
 180 0084 AFF30080 		.p2align 4,,15
 180      AFF30080 
 180      AFF30080 
 181              		.global	VectorAC
 182              		.thumb
 183              		.thumb_func
 184              		.type	VectorAC, %function
 185              	VectorAC:
 186              	.LFB132:
 187              		.loc 1 168 0
 188              		.cfi_startproc
 189              		@ args = 0, pretend = 0, frame = 0
 190              		@ frame_needed = 0, uses_anonymous_args = 0
 191              		.loc 1 173 0
 192 0090 134B     		ldr	r3, .L51
 193              		.loc 1 168 0
 194 0092 10B5     		push	{r4, lr}
 195              		.cfi_def_cfa_offset 8
 196              		.cfi_offset 4, -8
 197              		.cfi_offset 14, -4
 198              		.loc 1 173 0
 199 0094 1A69     		ldr	r2, [r3, #16]
 200 0096 DC68     		ldr	r4, [r3, #12]
 201 0098 1440     		ands	r4, r4, r2
 202 009a A4B2     		uxth	r4, r4
 203              	.LVL14:
 204              		.loc 1 174 0
 205 009c E2B2     		uxtb	r2, r4
 206 009e D243     		mvns	r2, r2
 207              		.loc 1 175 0
 208 00a0 A007     		lsls	r0, r4, #30
 209              		.loc 1 174 0
 210 00a2 1A61     		str	r2, [r3, #16]
 211              		.loc 1 175 0
 212 00a4 17D4     		bmi	.L48
 213              	.L31:
 214              		.loc 1 177 0
 215 00a6 6107     		lsls	r1, r4, #29
 216 00a8 10D4     		bmi	.L49
 217              	.L32:
 218              		.loc 1 179 0
 219 00aa 2207     		lsls	r2, r4, #28
 220 00ac 09D4     		bmi	.L50
 221              	.L33:
 222              		.loc 1 181 0
 223 00ae E306     		lsls	r3, r4, #27
 224 00b0 03D5     		bpl	.L34
 225              		.loc 1 182 0
 226 00b2 0C48     		ldr	r0, .L51+4
ARM GAS  /tmp/cc94jpXX.s 			page 5


 227 00b4 4368     		ldr	r3, [r0, #4]
 228 00b6 9B6A     		ldr	r3, [r3, #40]
 229 00b8 9847     		blx	r3
 230              	.LVL15:
 231              	.L34:
 232              		.loc 1 185 0
 233 00ba BDE81040 		pop	{r4, lr}
 234              		.cfi_remember_state
 235              		.cfi_restore 14
 236              		.cfi_restore 4
 237              		.cfi_def_cfa_offset 0
 238              	.LVL16:
 239              		.loc 1 184 0
 240 00be FFF7FEBF 		b	_port_irq_epilogue
 241              	.LVL17:
 242              	.L50:
 243              		.cfi_restore_state
 244              		.loc 1 180 0
 245 00c2 0848     		ldr	r0, .L51+4
 246 00c4 4368     		ldr	r3, [r0, #4]
 247 00c6 1B6A     		ldr	r3, [r3, #32]
 248 00c8 9847     		blx	r3
 249              	.LVL18:
 250 00ca F0E7     		b	.L33
 251              	.L49:
 252              		.loc 1 178 0
 253 00cc 0548     		ldr	r0, .L51+4
 254 00ce 4368     		ldr	r3, [r0, #4]
 255 00d0 9B69     		ldr	r3, [r3, #24]
 256 00d2 9847     		blx	r3
 257              	.LVL19:
 258 00d4 E9E7     		b	.L32
 259              	.L48:
 260              		.loc 1 176 0
 261 00d6 0348     		ldr	r0, .L51+4
 262 00d8 4368     		ldr	r3, [r0, #4]
 263 00da 1B69     		ldr	r3, [r3, #16]
 264 00dc 9847     		blx	r3
 265              	.LVL20:
 266 00de E2E7     		b	.L31
 267              	.L52:
 268              		.align	2
 269              	.L51:
 270 00e0 00000140 		.word	1073807360
 271 00e4 00000000 		.word	PWMD1
 272              		.cfi_endproc
 273              	.LFE132:
 274              		.size	VectorAC, .-VectorAC
 275              		.align	2
 276 00e8 AFF30080 		.p2align 4,,15
 276      AFF30080 
 277              		.global	VectorB4
 278              		.thumb
 279              		.thumb_func
 280              		.type	VectorB4, %function
 281              	VectorB4:
 282              	.LFB133:
ARM GAS  /tmp/cc94jpXX.s 			page 6


 283              		.loc 1 216 0
 284              		.cfi_startproc
 285              		@ args = 0, pretend = 0, frame = 0
 286              		@ frame_needed = 0, uses_anonymous_args = 0
 287 00f0 08B5     		push	{r3, lr}
 288              		.cfi_def_cfa_offset 8
 289              		.cfi_offset 3, -8
 290              		.cfi_offset 14, -4
 291              		.loc 1 220 0
 292 00f2 0348     		ldr	r0, .L55
 293 00f4 FFF784FF 		bl	pwm_lld_serve_interrupt
 294              	.LVL21:
 295              		.loc 1 223 0
 296 00f8 BDE80840 		pop	{r3, lr}
 297              		.cfi_restore 14
 298              		.cfi_restore 3
 299              		.cfi_def_cfa_offset 0
 300              		.loc 1 222 0
 301 00fc FFF7FEBF 		b	_port_irq_epilogue
 302              	.LVL22:
 303              	.L56:
 304              		.align	2
 305              	.L55:
 306 0100 00000000 		.word	PWMD3
 307              		.cfi_endproc
 308              	.LFE133:
 309              		.size	VectorB4, .-VectorB4
 310              		.align	2
 311 0104 AFF30080 		.p2align 4,,15
 311      AFF30080 
 311      AFF30080 
 312              		.global	VectorB8
 313              		.thumb
 314              		.thumb_func
 315              		.type	VectorB8, %function
 316              	VectorB8:
 317              	.LFB134:
 318              		.loc 1 235 0
 319              		.cfi_startproc
 320              		@ args = 0, pretend = 0, frame = 0
 321              		@ frame_needed = 0, uses_anonymous_args = 0
 322 0110 08B5     		push	{r3, lr}
 323              		.cfi_def_cfa_offset 8
 324              		.cfi_offset 3, -8
 325              		.cfi_offset 14, -4
 326              		.loc 1 239 0
 327 0112 0348     		ldr	r0, .L59
 328 0114 FFF774FF 		bl	pwm_lld_serve_interrupt
 329              	.LVL23:
 330              		.loc 1 242 0
 331 0118 BDE80840 		pop	{r3, lr}
 332              		.cfi_restore 14
 333              		.cfi_restore 3
 334              		.cfi_def_cfa_offset 0
 335              		.loc 1 241 0
 336 011c FFF7FEBF 		b	_port_irq_epilogue
 337              	.LVL24:
ARM GAS  /tmp/cc94jpXX.s 			page 7


 338              	.L60:
 339              		.align	2
 340              	.L59:
 341 0120 00000000 		.word	PWMD4
 342              		.cfi_endproc
 343              	.LFE134:
 344              		.size	VectorB8, .-VectorB8
 345              		.align	2
 346 0124 AFF30080 		.p2align 4,,15
 346      AFF30080 
 346      AFF30080 
 347              		.global	Vector108
 348              		.thumb
 349              		.thumb_func
 350              		.type	Vector108, %function
 351              	Vector108:
 352              	.LFB135:
 353              		.loc 1 254 0
 354              		.cfi_startproc
 355              		@ args = 0, pretend = 0, frame = 0
 356              		@ frame_needed = 0, uses_anonymous_args = 0
 357 0130 08B5     		push	{r3, lr}
 358              		.cfi_def_cfa_offset 8
 359              		.cfi_offset 3, -8
 360              		.cfi_offset 14, -4
 361              		.loc 1 258 0
 362 0132 0348     		ldr	r0, .L63
 363 0134 FFF764FF 		bl	pwm_lld_serve_interrupt
 364              	.LVL25:
 365              		.loc 1 261 0
 366 0138 BDE80840 		pop	{r3, lr}
 367              		.cfi_restore 14
 368              		.cfi_restore 3
 369              		.cfi_def_cfa_offset 0
 370              		.loc 1 260 0
 371 013c FFF7FEBF 		b	_port_irq_epilogue
 372              	.LVL26:
 373              	.L64:
 374              		.align	2
 375              	.L63:
 376 0140 00000000 		.word	PWMD5
 377              		.cfi_endproc
 378              	.LFE135:
 379              		.size	Vector108, .-Vector108
 380              		.align	2
 381 0144 AFF30080 		.p2align 4,,15
 381      AFF30080 
 381      AFF30080 
 382              		.global	VectorF0
 383              		.thumb
 384              		.thumb_func
 385              		.type	VectorF0, %function
 386              	VectorF0:
 387              	.LFB136:
 388              		.loc 1 276 0
 389              		.cfi_startproc
 390              		@ args = 0, pretend = 0, frame = 0
ARM GAS  /tmp/cc94jpXX.s 			page 8


 391              		@ frame_needed = 0, uses_anonymous_args = 0
 392 0150 08B5     		push	{r3, lr}
 393              		.cfi_def_cfa_offset 8
 394              		.cfi_offset 3, -8
 395              		.cfi_offset 14, -4
 396              		.loc 1 281 0
 397 0152 0648     		ldr	r0, .L67
 398              		.loc 1 280 0
 399 0154 064A     		ldr	r2, .L67+4
 400              		.loc 1 281 0
 401 0156 4368     		ldr	r3, [r0, #4]
 402              		.loc 1 280 0
 403 0158 6FF00101 		mvn	r1, #1
 404              		.loc 1 281 0
 405 015c 9B68     		ldr	r3, [r3, #8]
 406              		.loc 1 280 0
 407 015e 1161     		str	r1, [r2, #16]
 408              		.loc 1 281 0
 409 0160 9847     		blx	r3
 410              	.LVL27:
 411              		.loc 1 284 0
 412 0162 BDE80840 		pop	{r3, lr}
 413              		.cfi_restore 14
 414              		.cfi_restore 3
 415              		.cfi_def_cfa_offset 0
 416              		.loc 1 283 0
 417 0166 FFF7FEBF 		b	_port_irq_epilogue
 418              	.LVL28:
 419              	.L68:
 420 016a 00BF     		.align	2
 421              	.L67:
 422 016c 00000000 		.word	PWMD8
 423 0170 00040140 		.word	1073808384
 424              		.cfi_endproc
 425              	.LFE136:
 426              		.size	VectorF0, .-VectorF0
 427              		.align	2
 428 0174 AFF30080 		.p2align 4,,15
 428      AFF30080 
 428      AFF30080 
 429              		.global	VectorF8
 430              		.thumb
 431              		.thumb_func
 432              		.type	VectorF8, %function
 433              	VectorF8:
 434              	.LFB137:
 435              		.loc 1 297 0
 436              		.cfi_startproc
 437              		@ args = 0, pretend = 0, frame = 0
 438              		@ frame_needed = 0, uses_anonymous_args = 0
 439              		.loc 1 302 0
 440 0180 134B     		ldr	r3, .L90
 441              		.loc 1 297 0
 442 0182 10B5     		push	{r4, lr}
 443              		.cfi_def_cfa_offset 8
 444              		.cfi_offset 4, -8
 445              		.cfi_offset 14, -4
ARM GAS  /tmp/cc94jpXX.s 			page 9


 446              		.loc 1 302 0
 447 0184 1A69     		ldr	r2, [r3, #16]
 448 0186 DC68     		ldr	r4, [r3, #12]
 449 0188 1440     		ands	r4, r4, r2
 450 018a A4B2     		uxth	r4, r4
 451              	.LVL29:
 452              		.loc 1 303 0
 453 018c E2B2     		uxtb	r2, r4
 454 018e D243     		mvns	r2, r2
 455              		.loc 1 304 0
 456 0190 A007     		lsls	r0, r4, #30
 457              		.loc 1 303 0
 458 0192 1A61     		str	r2, [r3, #16]
 459              		.loc 1 304 0
 460 0194 17D4     		bmi	.L87
 461              	.L70:
 462              		.loc 1 306 0
 463 0196 6107     		lsls	r1, r4, #29
 464 0198 10D4     		bmi	.L88
 465              	.L71:
 466              		.loc 1 308 0
 467 019a 2207     		lsls	r2, r4, #28
 468 019c 09D4     		bmi	.L89
 469              	.L72:
 470              		.loc 1 310 0
 471 019e E306     		lsls	r3, r4, #27
 472 01a0 03D5     		bpl	.L73
 473              		.loc 1 311 0
 474 01a2 0C48     		ldr	r0, .L90+4
 475 01a4 4368     		ldr	r3, [r0, #4]
 476 01a6 9B6A     		ldr	r3, [r3, #40]
 477 01a8 9847     		blx	r3
 478              	.LVL30:
 479              	.L73:
 480              		.loc 1 314 0
 481 01aa BDE81040 		pop	{r4, lr}
 482              		.cfi_remember_state
 483              		.cfi_restore 14
 484              		.cfi_restore 4
 485              		.cfi_def_cfa_offset 0
 486              	.LVL31:
 487              		.loc 1 313 0
 488 01ae FFF7FEBF 		b	_port_irq_epilogue
 489              	.LVL32:
 490              	.L89:
 491              		.cfi_restore_state
 492              		.loc 1 309 0
 493 01b2 0848     		ldr	r0, .L90+4
 494 01b4 4368     		ldr	r3, [r0, #4]
 495 01b6 1B6A     		ldr	r3, [r3, #32]
 496 01b8 9847     		blx	r3
 497              	.LVL33:
 498 01ba F0E7     		b	.L72
 499              	.L88:
 500              		.loc 1 307 0
 501 01bc 0548     		ldr	r0, .L90+4
 502 01be 4368     		ldr	r3, [r0, #4]
ARM GAS  /tmp/cc94jpXX.s 			page 10


 503 01c0 9B69     		ldr	r3, [r3, #24]
 504 01c2 9847     		blx	r3
 505              	.LVL34:
 506 01c4 E9E7     		b	.L71
 507              	.L87:
 508              		.loc 1 305 0
 509 01c6 0348     		ldr	r0, .L90+4
 510 01c8 4368     		ldr	r3, [r0, #4]
 511 01ca 1B69     		ldr	r3, [r3, #16]
 512 01cc 9847     		blx	r3
 513              	.LVL35:
 514 01ce E2E7     		b	.L70
 515              	.L91:
 516              		.align	2
 517              	.L90:
 518 01d0 00040140 		.word	1073808384
 519 01d4 00000000 		.word	PWMD8
 520              		.cfi_endproc
 521              	.LFE137:
 522              		.size	VectorF8, .-VectorF8
 523              		.align	2
 524 01d8 AFF30080 		.p2align 4,,15
 524      AFF30080 
 525              		.global	pwm_lld_init
 526              		.thumb
 527              		.thumb_func
 528              		.type	pwm_lld_init, %function
 529              	pwm_lld_init:
 530              	.LFB138:
 531              		.loc 1 345 0
 532              		.cfi_startproc
 533              		@ args = 0, pretend = 0, frame = 0
 534              		@ frame_needed = 0, uses_anonymous_args = 0
 535 01e0 2DE9F041 		push	{r4, r5, r6, r7, r8, lr}
 536              		.cfi_def_cfa_offset 24
 537              		.cfi_offset 4, -24
 538              		.cfi_offset 5, -20
 539              		.cfi_offset 6, -16
 540              		.cfi_offset 7, -12
 541              		.cfi_offset 8, -8
 542              		.cfi_offset 14, -4
 543              		.loc 1 349 0
 544 01e4 DFF86480 		ldr	r8, .L94+36
 545              		.loc 1 361 0
 546 01e8 0F4F     		ldr	r7, .L94
 547              		.loc 1 367 0
 548 01ea 104E     		ldr	r6, .L94+4
 549              		.loc 1 373 0
 550 01ec 104D     		ldr	r5, .L94+8
 551              		.loc 1 379 0
 552 01ee 114C     		ldr	r4, .L94+12
 553              		.loc 1 349 0
 554 01f0 4046     		mov	r0, r8
 555 01f2 FFF7FEFF 		bl	pwmObjectInit
 556              	.LVL36:
 557              		.loc 1 350 0
 558 01f6 104B     		ldr	r3, .L94+16
ARM GAS  /tmp/cc94jpXX.s 			page 11


 559 01f8 C8F81030 		str	r3, [r8, #16]
 560              		.loc 1 361 0
 561 01fc 3846     		mov	r0, r7
 562 01fe FFF7FEFF 		bl	pwmObjectInit
 563              	.LVL37:
 564              		.loc 1 362 0
 565 0202 0E4B     		ldr	r3, .L94+20
 566 0204 3B61     		str	r3, [r7, #16]
 567              		.loc 1 367 0
 568 0206 3046     		mov	r0, r6
 569 0208 FFF7FEFF 		bl	pwmObjectInit
 570              	.LVL38:
 571              		.loc 1 368 0
 572 020c 0C4B     		ldr	r3, .L94+24
 573 020e 3361     		str	r3, [r6, #16]
 574              		.loc 1 373 0
 575 0210 2846     		mov	r0, r5
 576 0212 FFF7FEFF 		bl	pwmObjectInit
 577              	.LVL39:
 578              		.loc 1 374 0
 579 0216 0B4B     		ldr	r3, .L94+28
 580 0218 2B61     		str	r3, [r5, #16]
 581              		.loc 1 379 0
 582 021a 2046     		mov	r0, r4
 583 021c FFF7FEFF 		bl	pwmObjectInit
 584              	.LVL40:
 585              		.loc 1 380 0
 586 0220 094B     		ldr	r3, .L94+32
 587 0222 2361     		str	r3, [r4, #16]
 588 0224 BDE8F081 		pop	{r4, r5, r6, r7, r8, pc}
 589              	.L95:
 590              		.align	2
 591              	.L94:
 592 0228 00000000 		.word	PWMD3
 593 022c 00000000 		.word	PWMD4
 594 0230 00000000 		.word	PWMD5
 595 0234 00000000 		.word	PWMD8
 596 0238 00000140 		.word	1073807360
 597 023c 00040040 		.word	1073742848
 598 0240 00080040 		.word	1073743872
 599 0244 000C0040 		.word	1073744896
 600 0248 00040140 		.word	1073808384
 601 024c 00000000 		.word	PWMD1
 602              		.cfi_endproc
 603              	.LFE138:
 604              		.size	pwm_lld_init, .-pwm_lld_init
 605              		.align	2
 606              		.p2align 4,,15
 607              		.global	pwm_lld_start
 608              		.thumb
 609              		.thumb_func
 610              		.type	pwm_lld_start, %function
 611              	pwm_lld_start:
 612              	.LFB139:
 613              		.loc 1 399 0
 614              		.cfi_startproc
 615              		@ args = 0, pretend = 0, frame = 0
ARM GAS  /tmp/cc94jpXX.s 			page 12


 616              		@ frame_needed = 0, uses_anonymous_args = 0
 617              	.LVL41:
 618              		.loc 1 403 0
 619 0250 0378     		ldrb	r3, [r0]	@ zero_extendqisi2
 620 0252 012B     		cmp	r3, #1
 621              		.loc 1 399 0
 622 0254 70B5     		push	{r4, r5, r6, lr}
 623              		.cfi_def_cfa_offset 16
 624              		.cfi_offset 4, -16
 625              		.cfi_offset 5, -12
 626              		.cfi_offset 6, -8
 627              		.cfi_offset 14, -4
 628              		.loc 1 399 0
 629 0256 0446     		mov	r4, r0
 630              		.loc 1 403 0
 631 0258 55D0     		beq	.L129
 632              		.loc 1 491 0
 633 025a 0369     		ldr	r3, [r0, #16]
 634 025c 0022     		movs	r2, #0
 635 025e 1A60     		str	r2, [r3]
 636              		.loc 1 492 0
 637 0260 5A63     		str	r2, [r3, #52]
 638              		.loc 1 493 0
 639 0262 9A63     		str	r2, [r3, #56]
 640              		.loc 1 494 0
 641 0264 DA63     		str	r2, [r3, #60]
 642              		.loc 1 495 0
 643 0266 1A64     		str	r2, [r3, #64]
 644              		.loc 1 496 0
 645 0268 5A62     		str	r2, [r3, #36]
 646              	.LVL42:
 647              	.L103:
 648              		.loc 1 500 0
 649 026a 6168     		ldr	r1, [r4, #4]
 650              	.LVL43:
 651              		.loc 1 505 0
 652 026c 2589     		ldrh	r5, [r4, #8]
 653              		.loc 1 510 0
 654 026e CA68     		ldr	r2, [r1, #12]
 655              		.loc 1 500 0
 656 0270 E068     		ldr	r0, [r4, #12]
 657 0272 0E68     		ldr	r6, [r1]
 658 0274 B0FBF6F0 		udiv	r0, r0, r6
 659              		.loc 1 505 0
 660 0278 6C1E     		subs	r4, r5, #1
 661              	.LVL44:
 662              		.loc 1 500 0
 663 027a 0138     		subs	r0, r0, #1
 664              	.LVL45:
 665              		.loc 1 510 0
 666 027c 02F00F02 		and	r2, r2, #15
 667              		.loc 1 506 0
 668 0280 CD6A     		ldr	r5, [r1, #44]
 669              		.loc 1 504 0
 670 0282 80B2     		uxth	r0, r0
 671              	.LVL46:
 672              		.loc 1 505 0
ARM GAS  /tmp/cc94jpXX.s 			page 13


 673 0284 A4B2     		uxth	r4, r4
 674              		.loc 1 510 0
 675 0286 012A     		cmp	r2, #1
 676              		.loc 1 504 0
 677 0288 9862     		str	r0, [r3, #40]
 678              	.LVL47:
 679              		.loc 1 505 0
 680 028a DC62     		str	r4, [r3, #44]
 681              		.loc 1 506 0
 682 028c 5D60     		str	r5, [r3, #4]
 683              	.LVL48:
 684              		.loc 1 510 0
 685 028e 03D0     		beq	.L104
 686              		.loc 1 509 0
 687 0290 022A     		cmp	r2, #2
 688 0292 0CBF     		ite	eq
 689 0294 0322     		moveq	r2, #3
 690 0296 0022     		movne	r2, #0
 691              	.L104:
 692              	.LVL49:
 693              		.loc 1 518 0
 694 0298 4869     		ldr	r0, [r1, #20]
 695 029a 00F00F00 		and	r0, r0, #15
 696 029e 0128     		cmp	r0, #1
 697 02a0 2ED0     		beq	.L108
 698 02a2 0228     		cmp	r0, #2
 699 02a4 2AD0     		beq	.L130
 700              	.L107:
 701              		.loc 1 526 0
 702 02a6 C869     		ldr	r0, [r1, #28]
 703 02a8 00F00F00 		and	r0, r0, #15
 704 02ac 0128     		cmp	r0, #1
 705 02ae 22D0     		beq	.L111
 706 02b0 0228     		cmp	r0, #2
 707 02b2 1ED0     		beq	.L131
 708              	.L110:
 709              		.loc 1 534 0
 710 02b4 486A     		ldr	r0, [r1, #36]
 711 02b6 00F00F00 		and	r0, r0, #15
 712 02ba 0128     		cmp	r0, #1
 713 02bc 03D0     		beq	.L114
 714 02be 0228     		cmp	r0, #2
 715 02c0 03D1     		bne	.L113
 716              		.loc 1 536 0
 717 02c2 42F40052 		orr	r2, r2, #8192
 718              	.LVL50:
 719              	.L114:
 720              		.loc 1 538 0
 721 02c6 42F48052 		orr	r2, r2, #4096
 722              	.LVL51:
 723              	.L113:
 724              		.loc 1 583 0
 725 02ca 086B     		ldr	r0, [r1, #48]
 726              		.loc 1 582 0
 727 02cc 8968     		ldr	r1, [r1, #8]
 728              		.loc 1 579 0
 729 02ce 1A62     		str	r2, [r3, #32]
ARM GAS  /tmp/cc94jpXX.s 			page 14


 730              		.loc 1 583 0
 731 02d0 20F0FF02 		bic	r2, r0, #255
 732              	.LVL52:
 733              		.loc 1 582 0
 734 02d4 0029     		cmp	r1, #0
 735 02d6 18BF     		it	ne
 736 02d8 42F00102 		orrne	r2, r2, #1
 737              		.loc 1 580 0
 738 02dc 0125     		movs	r5, #1
 739              		.loc 1 581 0
 740 02de 0024     		movs	r4, #0
 741              		.loc 1 588 0
 742 02e0 4FF40040 		mov	r0, #32768
 743              		.loc 1 592 0
 744 02e4 8521     		movs	r1, #133
 745              		.loc 1 580 0
 746 02e6 5D61     		str	r5, [r3, #20]
 747              	.LVL53:
 748              		.loc 1 581 0
 749 02e8 1C61     		str	r4, [r3, #16]
 750              		.loc 1 582 0
 751 02ea DA60     		str	r2, [r3, #12]
 752              		.loc 1 588 0
 753 02ec 5864     		str	r0, [r3, #68]
 754              		.loc 1 592 0
 755 02ee 1960     		str	r1, [r3]
 756 02f0 70BD     		pop	{r4, r5, r6, pc}
 757              	.LVL54:
 758              	.L131:
 759              		.loc 1 528 0
 760 02f2 42F40072 		orr	r2, r2, #512
 761              	.LVL55:
 762              	.L111:
 763              		.loc 1 530 0
 764 02f6 42F48072 		orr	r2, r2, #256
 765              	.LVL56:
 766 02fa DBE7     		b	.L110
 767              	.L130:
 768              		.loc 1 520 0
 769 02fc 42F02002 		orr	r2, r2, #32
 770              	.LVL57:
 771              	.L108:
 772              		.loc 1 522 0
 773 0300 42F01002 		orr	r2, r2, #16
 774              	.LVL58:
 775 0304 CFE7     		b	.L107
 776              	.LVL59:
 777              	.L129:
 778              		.loc 1 406 0
 779 0306 354B     		ldr	r3, .L137
 780 0308 9842     		cmp	r0, r3
 781 030a 27D0     		beq	.L132
 782              		.loc 1 430 0
 783 030c 344B     		ldr	r3, .L137+4
 784 030e 9842     		cmp	r0, r3
 785 0310 3AD0     		beq	.L133
 786              		.loc 1 439 0
ARM GAS  /tmp/cc94jpXX.s 			page 15


 787 0312 344B     		ldr	r3, .L137+8
 788 0314 9842     		cmp	r0, r3
 789 0316 49D0     		beq	.L134
 790              		.loc 1 449 0
 791 0318 334B     		ldr	r3, .L137+12
 792 031a 9842     		cmp	r0, r3
 793 031c 52D0     		beq	.L135
 794              		.loc 1 458 0
 795 031e 334B     		ldr	r3, .L137+16
 796 0320 9842     		cmp	r0, r3
 797 0322 05D0     		beq	.L136
 798              	.LVL60:
 799              	.L99:
 800              		.loc 1 484 0
 801 0324 2369     		ldr	r3, [r4, #16]
 802 0326 46F66802 		movw	r2, #26728
 803 032a 9A61     		str	r2, [r3, #24]
 804              		.loc 1 486 0
 805 032c DA61     		str	r2, [r3, #28]
 806 032e 9CE7     		b	.L103
 807              	.LVL61:
 808              	.L136:
 809              		.loc 1 459 0
 810 0330 2F4B     		ldr	r3, .L137+20
 811 0332 5A6C     		ldr	r2, [r3, #68]
 812 0334 42F00202 		orr	r2, r2, #2
 813 0338 5A64     		str	r2, [r3, #68]
 814              		.loc 1 460 0
 815 033a 5A6A     		ldr	r2, [r3, #36]
 816 033c 0021     		movs	r1, #0
 817 033e 42F00202 		orr	r2, r2, #2
 818 0342 5A62     		str	r2, [r3, #36]
 819              		.loc 1 461 0
 820 0344 2C20     		movs	r0, #44
 821              	.LVL62:
 822              		.loc 1 460 0
 823 0346 5962     		str	r1, [r3, #36]
 824              		.loc 1 461 0
 825 0348 7021     		movs	r1, #112
 826 034a FFF7FEFF 		bl	nvicEnableVector
 827              	.LVL63:
 828              		.loc 1 463 0
 829 034e 2E20     		movs	r0, #46
 830 0350 7021     		movs	r1, #112
 831 0352 FFF7FEFF 		bl	nvicEnableVector
 832              	.LVL64:
 833              		.loc 1 468 0
 834 0356 274B     		ldr	r3, .L137+24
 835 0358 E360     		str	r3, [r4, #12]
 836 035a E3E7     		b	.L99
 837              	.LVL65:
 838              	.L132:
 839              		.loc 1 407 0
 840 035c 244B     		ldr	r3, .L137+20
 841 035e 5A6C     		ldr	r2, [r3, #68]
 842 0360 42F00102 		orr	r2, r2, #1
 843 0364 5A64     		str	r2, [r3, #68]
ARM GAS  /tmp/cc94jpXX.s 			page 16


 844              		.loc 1 408 0
 845 0366 5A6A     		ldr	r2, [r3, #36]
 846 0368 0021     		movs	r1, #0
 847 036a 42F00102 		orr	r2, r2, #1
 848 036e 5A62     		str	r2, [r3, #36]
 849              		.loc 1 409 0
 850 0370 1920     		movs	r0, #25
 851              	.LVL66:
 852              		.loc 1 408 0
 853 0372 5962     		str	r1, [r3, #36]
 854              		.loc 1 409 0
 855 0374 7021     		movs	r1, #112
 856 0376 FFF7FEFF 		bl	nvicEnableVector
 857              	.LVL67:
 858              		.loc 1 411 0
 859 037a 1B20     		movs	r0, #27
 860 037c 7021     		movs	r1, #112
 861 037e FFF7FEFF 		bl	nvicEnableVector
 862              	.LVL68:
 863              		.loc 1 416 0
 864 0382 1C4B     		ldr	r3, .L137+24
 865 0384 E360     		str	r3, [r4, #12]
 866 0386 CDE7     		b	.L99
 867              	.LVL69:
 868              	.L133:
 869              		.loc 1 431 0
 870 0388 194B     		ldr	r3, .L137+20
 871 038a 1A6C     		ldr	r2, [r3, #64]
 872 038c 42F00202 		orr	r2, r2, #2
 873 0390 1A64     		str	r2, [r3, #64]
 874              		.loc 1 432 0
 875 0392 1A6A     		ldr	r2, [r3, #32]
 876 0394 42F00202 		orr	r2, r2, #2
 877 0398 0021     		movs	r1, #0
 878 039a 1A62     		str	r2, [r3, #32]
 879              		.loc 1 433 0
 880 039c 1D20     		movs	r0, #29
 881              	.LVL70:
 882              	.L128:
 883              		.loc 1 451 0
 884 039e 1962     		str	r1, [r3, #32]
 885              		.loc 1 452 0
 886 03a0 7021     		movs	r1, #112
 887 03a2 FFF7FEFF 		bl	nvicEnableVector
 888              	.LVL71:
 889              		.loc 1 454 0
 890 03a6 144B     		ldr	r3, .L137+28
 891 03a8 E360     		str	r3, [r4, #12]
 892 03aa BBE7     		b	.L99
 893              	.LVL72:
 894              	.L134:
 895              		.loc 1 440 0
 896 03ac 104B     		ldr	r3, .L137+20
 897 03ae 1A6C     		ldr	r2, [r3, #64]
 898 03b0 42F00402 		orr	r2, r2, #4
 899 03b4 1A64     		str	r2, [r3, #64]
 900              		.loc 1 441 0
ARM GAS  /tmp/cc94jpXX.s 			page 17


 901 03b6 1A6A     		ldr	r2, [r3, #32]
 902 03b8 42F00402 		orr	r2, r2, #4
 903 03bc 0021     		movs	r1, #0
 904 03be 1A62     		str	r2, [r3, #32]
 905              		.loc 1 442 0
 906 03c0 1E20     		movs	r0, #30
 907              	.LVL73:
 908 03c2 ECE7     		b	.L128
 909              	.LVL74:
 910              	.L135:
 911              		.loc 1 450 0
 912 03c4 0A4B     		ldr	r3, .L137+20
 913 03c6 1A6C     		ldr	r2, [r3, #64]
 914 03c8 42F00802 		orr	r2, r2, #8
 915 03cc 1A64     		str	r2, [r3, #64]
 916              		.loc 1 451 0
 917 03ce 1A6A     		ldr	r2, [r3, #32]
 918 03d0 42F00802 		orr	r2, r2, #8
 919 03d4 0021     		movs	r1, #0
 920 03d6 1A62     		str	r2, [r3, #32]
 921              		.loc 1 452 0
 922 03d8 3220     		movs	r0, #50
 923              	.LVL75:
 924 03da E0E7     		b	.L128
 925              	.L138:
 926              		.align	2
 927              	.L137:
 928 03dc 00000000 		.word	PWMD1
 929 03e0 00000000 		.word	PWMD3
 930 03e4 00000000 		.word	PWMD4
 931 03e8 00000000 		.word	PWMD5
 932 03ec 00000000 		.word	PWMD8
 933 03f0 00380240 		.word	1073887232
 934 03f4 007A030A 		.word	168000000
 935 03f8 00BD0105 		.word	84000000
 936              		.cfi_endproc
 937              	.LFE139:
 938              		.size	pwm_lld_start, .-pwm_lld_start
 939              		.align	2
 940 03fc AFF30080 		.p2align 4,,15
 941              		.global	pwm_lld_stop
 942              		.thumb
 943              		.thumb_func
 944              		.type	pwm_lld_stop, %function
 945              	pwm_lld_stop:
 946              	.LFB140:
 947              		.loc 1 603 0
 948              		.cfi_startproc
 949              		@ args = 0, pretend = 0, frame = 0
 950              		@ frame_needed = 0, uses_anonymous_args = 0
 951              	.LVL76:
 952 0400 08B5     		push	{r3, lr}
 953              		.cfi_def_cfa_offset 8
 954              		.cfi_offset 3, -8
 955              		.cfi_offset 14, -4
 956              		.loc 1 606 0
 957 0402 0378     		ldrb	r3, [r0]	@ zero_extendqisi2
ARM GAS  /tmp/cc94jpXX.s 			page 18


 958 0404 022B     		cmp	r3, #2
 959 0406 00D0     		beq	.L148
 960              	.LVL77:
 961              	.L139:
 962 0408 08BD     		pop	{r3, pc}
 963              	.LVL78:
 964              	.L148:
 965              		.loc 1 615 0
 966 040a 2449     		ldr	r1, .L153
 967              		.loc 1 607 0
 968 040c 0369     		ldr	r3, [r0, #16]
 969 040e 0022     		movs	r2, #0
 970              		.loc 1 615 0
 971 0410 8842     		cmp	r0, r1
 972              		.loc 1 607 0
 973 0412 1A60     		str	r2, [r3]
 974              		.loc 1 608 0
 975 0414 DA60     		str	r2, [r3, #12]
 976              		.loc 1 609 0
 977 0416 1A61     		str	r2, [r3, #16]
 978              		.loc 1 611 0
 979 0418 5A64     		str	r2, [r3, #68]
 980              		.loc 1 615 0
 981 041a 17D0     		beq	.L149
 982              		.loc 1 628 0
 983 041c 204B     		ldr	r3, .L153+4
 984 041e 9842     		cmp	r0, r3
 985 0420 20D0     		beq	.L150
 986              		.loc 1 634 0
 987 0422 204B     		ldr	r3, .L153+8
 988 0424 9842     		cmp	r0, r3
 989 0426 26D0     		beq	.L151
 990              		.loc 1 640 0
 991 0428 1F4B     		ldr	r3, .L153+12
 992 042a 9842     		cmp	r0, r3
 993 042c 2CD0     		beq	.L152
 994              		.loc 1 646 0
 995 042e 1F4B     		ldr	r3, .L153+16
 996 0430 9842     		cmp	r0, r3
 997 0432 E9D1     		bne	.L139
 998              		.loc 1 647 0
 999 0434 2C20     		movs	r0, #44
 1000              	.LVL79:
 1001 0436 FFF7FEFF 		bl	nvicDisableVector
 1002              	.LVL80:
 1003              		.loc 1 648 0
 1004 043a 2E20     		movs	r0, #46
 1005 043c FFF7FEFF 		bl	nvicDisableVector
 1006              	.LVL81:
 1007              		.loc 1 649 0
 1008 0440 1B4A     		ldr	r2, .L153+20
 1009 0442 536C     		ldr	r3, [r2, #68]
 1010 0444 23F00203 		bic	r3, r3, #2
 1011 0448 5364     		str	r3, [r2, #68]
 1012 044a DDE7     		b	.L139
 1013              	.LVL82:
 1014              	.L149:
ARM GAS  /tmp/cc94jpXX.s 			page 19


 1015              		.loc 1 616 0
 1016 044c 1920     		movs	r0, #25
 1017              	.LVL83:
 1018 044e FFF7FEFF 		bl	nvicDisableVector
 1019              	.LVL84:
 1020              		.loc 1 617 0
 1021 0452 1B20     		movs	r0, #27
 1022 0454 FFF7FEFF 		bl	nvicDisableVector
 1023              	.LVL85:
 1024              		.loc 1 618 0
 1025 0458 154A     		ldr	r2, .L153+20
 1026 045a 536C     		ldr	r3, [r2, #68]
 1027 045c 23F00103 		bic	r3, r3, #1
 1028 0460 5364     		str	r3, [r2, #68]
 1029 0462 08BD     		pop	{r3, pc}
 1030              	.LVL86:
 1031              	.L150:
 1032              		.loc 1 629 0
 1033 0464 1D20     		movs	r0, #29
 1034              	.LVL87:
 1035 0466 FFF7FEFF 		bl	nvicDisableVector
 1036              	.LVL88:
 1037              		.loc 1 630 0
 1038 046a 114A     		ldr	r2, .L153+20
 1039 046c 136C     		ldr	r3, [r2, #64]
 1040 046e 23F00203 		bic	r3, r3, #2
 1041 0472 1364     		str	r3, [r2, #64]
 1042 0474 08BD     		pop	{r3, pc}
 1043              	.LVL89:
 1044              	.L151:
 1045              		.loc 1 635 0
 1046 0476 1E20     		movs	r0, #30
 1047              	.LVL90:
 1048 0478 FFF7FEFF 		bl	nvicDisableVector
 1049              	.LVL91:
 1050              		.loc 1 636 0
 1051 047c 0C4A     		ldr	r2, .L153+20
 1052 047e 136C     		ldr	r3, [r2, #64]
 1053 0480 23F00403 		bic	r3, r3, #4
 1054 0484 1364     		str	r3, [r2, #64]
 1055 0486 08BD     		pop	{r3, pc}
 1056              	.LVL92:
 1057              	.L152:
 1058              		.loc 1 641 0
 1059 0488 3220     		movs	r0, #50
 1060              	.LVL93:
 1061 048a FFF7FEFF 		bl	nvicDisableVector
 1062              	.LVL94:
 1063              		.loc 1 642 0
 1064 048e 084A     		ldr	r2, .L153+20
 1065 0490 136C     		ldr	r3, [r2, #64]
 1066 0492 23F00803 		bic	r3, r3, #8
 1067 0496 1364     		str	r3, [r2, #64]
 1068 0498 08BD     		pop	{r3, pc}
 1069              	.L154:
 1070 049a 00BF     		.align	2
 1071              	.L153:
ARM GAS  /tmp/cc94jpXX.s 			page 20


 1072 049c 00000000 		.word	PWMD1
 1073 04a0 00000000 		.word	PWMD3
 1074 04a4 00000000 		.word	PWMD4
 1075 04a8 00000000 		.word	PWMD5
 1076 04ac 00000000 		.word	PWMD8
 1077 04b0 00380240 		.word	1073887232
 1078              		.cfi_endproc
 1079              	.LFE140:
 1080              		.size	pwm_lld_stop, .-pwm_lld_stop
 1081              		.align	2
 1082 04b4 AFF30080 		.p2align 4,,15
 1082      AFF30080 
 1082      AFF30080 
 1083              		.global	pwm_lld_enable_channel
 1084              		.thumb
 1085              		.thumb_func
 1086              		.type	pwm_lld_enable_channel, %function
 1087              	pwm_lld_enable_channel:
 1088              	.LFB141:
 1089              		.loc 1 675 0
 1090              		.cfi_startproc
 1091              		@ args = 0, pretend = 0, frame = 0
 1092              		@ frame_needed = 0, uses_anonymous_args = 0
 1093              		@ link register save eliminated.
 1094              	.LVL95:
 1095              		.loc 1 680 0
 1096 04c0 4368     		ldr	r3, [r0, #4]
 1097              		.loc 1 675 0
 1098 04c2 10B4     		push	{r4}
 1099              		.cfi_def_cfa_offset 4
 1100              		.cfi_offset 4, -4
 1101              		.loc 1 677 0
 1102 04c4 0469     		ldr	r4, [r0, #16]
 1103              		.loc 1 680 0
 1104 04c6 03EBC100 		add	r0, r3, r1, lsl #3
 1105              	.LVL96:
 1106              		.loc 1 677 0
 1107 04ca 01F10C03 		add	r3, r1, #12
 1108              		.loc 1 680 0
 1109 04ce 0069     		ldr	r0, [r0, #16]
 1110              		.loc 1 677 0
 1111 04d0 04EB8303 		add	r3, r4, r3, lsl #2
 1112 04d4 5A60     		str	r2, [r3, #4]
 1113              		.loc 1 680 0
 1114 04d6 40B1     		cbz	r0, .L155
 1115              	.LBB2:
 1116              		.loc 1 684 0
 1117 04d8 0223     		movs	r3, #2
 1118              		.loc 1 681 0
 1119 04da E268     		ldr	r2, [r4, #12]
 1120              	.LVL97:
 1121              		.loc 1 684 0
 1122 04dc 8B40     		lsls	r3, r3, r1
 1123 04de 1342     		tst	r3, r2
 1124 04e0 03D1     		bne	.L155
 1125              		.loc 1 685 0
 1126 04e2 1A43     		orrs	r2, r2, r3
ARM GAS  /tmp/cc94jpXX.s 			page 21


 1127              	.LVL98:
 1128              		.loc 1 686 0
 1129 04e4 DB43     		mvns	r3, r3
 1130              		.loc 1 685 0
 1131 04e6 E260     		str	r2, [r4, #12]
 1132              		.loc 1 686 0
 1133 04e8 2361     		str	r3, [r4, #16]
 1134              	.L155:
 1135              	.LBE2:
 1136              		.loc 1 689 0
 1137 04ea 5DF8044B 		ldr	r4, [sp], #4
 1138              		.cfi_restore 4
 1139              		.cfi_def_cfa_offset 0
 1140 04ee 7047     		bx	lr
 1141              		.cfi_endproc
 1142              	.LFE141:
 1143              		.size	pwm_lld_enable_channel, .-pwm_lld_enable_channel
 1144              		.align	2
 1145              		.p2align 4,,15
 1146              		.global	pwm_lld_disable_channel
 1147              		.thumb
 1148              		.thumb_func
 1149              		.type	pwm_lld_disable_channel, %function
 1150              	pwm_lld_disable_channel:
 1151              	.LFB142:
 1152              		.loc 1 703 0
 1153              		.cfi_startproc
 1154              		@ args = 0, pretend = 0, frame = 0
 1155              		@ frame_needed = 0, uses_anonymous_args = 0
 1156              		@ link register save eliminated.
 1157              	.LVL99:
 1158              		.loc 1 705 0
 1159 04f0 0369     		ldr	r3, [r0, #16]
 1160 04f2 01F10C02 		add	r2, r1, #12
 1161 04f6 03EB8202 		add	r2, r3, r2, lsl #2
 1162 04fa 0020     		movs	r0, #0
 1163              	.LVL100:
 1164 04fc 5060     		str	r0, [r2, #4]
 1165              		.loc 1 706 0
 1166 04fe D868     		ldr	r0, [r3, #12]
 1167 0500 0222     		movs	r2, #2
 1168 0502 8A40     		lsls	r2, r2, r1
 1169 0504 20EA0202 		bic	r2, r0, r2
 1170 0508 DA60     		str	r2, [r3, #12]
 1171 050a 7047     		bx	lr
 1172              		.cfi_endproc
 1173              	.LFE142:
 1174              		.size	pwm_lld_disable_channel, .-pwm_lld_disable_channel
 1175              		.comm	PWMD8,20,4
 1176              		.comm	PWMD5,20,4
 1177              		.comm	PWMD4,20,4
 1178              		.comm	PWMD3,20,4
 1179              		.comm	PWMD1,20,4
 1180              	.Letext0:
 1181              		.file 2 "/home/sbcu/Dropbox/pcb-layouts/axo-on-discovery-board/axoloti/platform_linux/arm-none-eab
 1182              		.file 3 "/home/sbcu/Dropbox/pcb-layouts/axo-on-discovery-board/axoloti/platform_linux/arm-none-eab
 1183              		.file 4 "/home/sbcu/Dropbox/pcb-layouts/axo-on-discovery-board/axoloti/platform_linux/../chibios/o
ARM GAS  /tmp/cc94jpXX.s 			page 22


 1184              		.file 5 "/home/sbcu/Dropbox/pcb-layouts/axo-on-discovery-board/axoloti/platform_linux/../chibios/o
 1185              		.file 6 "/home/sbcu/Dropbox/pcb-layouts/axo-on-discovery-board/axoloti/platform_linux/../chibios/o
 1186              		.file 7 "/home/sbcu/Dropbox/pcb-layouts/axo-on-discovery-board/axoloti/platform_linux/../chibios/o
 1187              		.file 8 "/home/sbcu/Dropbox/pcb-layouts/axo-on-discovery-board/axoloti/platform_linux/../CMSIS//In
 1188              		.file 9 "/home/sbcu/Dropbox/pcb-layouts/axo-on-discovery-board/axoloti/platform_linux/../chibios/o
 1189              		.file 10 "/home/sbcu/Dropbox/pcb-layouts/axo-on-discovery-board/axoloti/platform_linux/../chibios/