ARM GAS  /tmp/ccleFYi7.s 			page 1


   1              		.syntax unified
   2              		.cpu cortex-m4
   3              		.eabi_attribute 27, 1
   4              		.eabi_attribute 28, 1
   5              		.fpu fpv4-sp-d16
   6              		.eabi_attribute 20, 1
   7              		.eabi_attribute 21, 1
   8              		.eabi_attribute 23, 3
   9              		.eabi_attribute 24, 1
  10              		.eabi_attribute 25, 1
  11              		.eabi_attribute 26, 1
  12              		.eabi_attribute 30, 2
  13              		.eabi_attribute 34, 1
  14              		.eabi_attribute 18, 4
  15              		.thumb
  16              		.file	"resonator.cpp"
  17              		.text
  18              	.Ltext0:
  19              		.cfi_sections	.debug_frame
  20              		.align	2
  21              		.p2align 4,,15
  22              		.global	_ZN8elements9Resonator4InitEv
  23              		.thumb
  24              		.thumb_func
  25              		.type	_ZN8elements9Resonator4InitEv, %function
  26              	_ZN8elements9Resonator4InitEv:
  27              		.fnstart
  28              	.LFB650:
  29              		.file 1 "./mutable_instruments/elements/dsp/resonator.cpp"
  30              		.loc 1 44 0
  31              		.cfi_startproc
  32              		@ args = 0, pretend = 0, frame = 0
  33              		@ frame_needed = 0, uses_anonymous_args = 0
  34              	.LVL0:
  35 0000 2DE9F84F 		push	{r3, r4, r5, r6, r7, r8, r9, r10, fp, lr}
  36              		.save {r3, r4, r5, r6, r7, r8, r9, r10, fp, lr}
  37              		.cfi_def_cfa_offset 40
  38              		.cfi_offset 3, -40
  39              		.cfi_offset 4, -36
  40              		.cfi_offset 5, -32
  41              		.cfi_offset 6, -28
  42              		.cfi_offset 7, -24
  43              		.cfi_offset 8, -20
  44              		.cfi_offset 9, -16
  45              		.cfi_offset 10, -12
  46              		.cfi_offset 11, -8
  47              		.cfi_offset 14, -4
  48              		.loc 1 44 0
  49 0004 0646     		mov	r6, r0
  50              	.LBB182:
  51              	.LBB183:
  52              	.LBB184:
  53              	.LBB185:
  54              	.LBB186:
  55              		.file 2 "./mutable_instruments/stmlib/dsp/filter.h"
  56              		.loc 2 220 0
  57 0006 264D     		ldr	r5, .L14
ARM GAS  /tmp/ccleFYi7.s 			page 2


  58              		.loc 2 221 0
  59 0008 264C     		ldr	r4, .L14+4
  60              		.loc 2 222 0
  61 000a 2748     		ldr	r0, .L14+8
  62              	.LVL1:
  63              	.LBE186:
  64              	.LBE185:
  65              	.LBB188:
  66              	.LBB189:
  67              		.loc 2 184 0
  68 000c 0022     		movs	r2, #0
  69 000e 3746     		mov	r7, r6
  70 0010 06F5A061 		add	r1, r6, #1280
  71              	.LBE189:
  72              	.LBE188:
  73              	.LBE184:
  74              	.LBE183:
  75              	.LBE182:
  76              		.loc 1 44 0
  77 0014 3346     		mov	r3, r6
  78              	.LVL2:
  79              	.L2:
  80              	.LBB236:
  81              	.LBB194:
  82              	.LBB193:
  83              	.LBB191:
  84              	.LBB187:
  85              		.loc 2 220 0 discriminator 3
  86 0016 DD62     		str	r5, [r3, #44]	@ float
  87              		.loc 2 221 0 discriminator 3
  88 0018 1C63     		str	r4, [r3, #48]	@ float
  89              		.loc 2 222 0 discriminator 3
  90 001a 5863     		str	r0, [r3, #52]	@ float
  91              	.LVL3:
  92              	.LBE187:
  93              	.LBE191:
  94              	.LBB192:
  95              	.LBB190:
  96              		.loc 2 184 0 discriminator 3
  97 001c DA63     		str	r2, [r3, #60]	@ float
  98 001e 9A63     		str	r2, [r3, #56]	@ float
  99 0020 1433     		adds	r3, r3, #20
 100              	.LVL4:
 101              	.LBE190:
 102              	.LBE192:
 103              	.LBE193:
 104              		.loc 1 45 0 discriminator 3
 105 0022 8B42     		cmp	r3, r1
 106 0024 F7D1     		bne	.L2
 107              	.LBE194:
 108              	.LBB195:
 109              	.LBB196:
 110              	.LBB197:
 111              	.LBB198:
 112              		.loc 2 220 0
 113 0026 DFF878B0 		ldr	fp, .L14
 114              		.loc 2 221 0
ARM GAS  /tmp/ccleFYi7.s 			page 3


 115 002a DFF878A0 		ldr	r10, .L14+4
 116              		.loc 2 222 0
 117 002e DFF87890 		ldr	r9, .L14+8
 118              	.LBE198:
 119              	.LBE197:
 120              	.LBB200:
 121              	.LBB201:
 122              		.loc 2 184 0
 123 0032 0024     		movs	r4, #0
 124 0034 06F22C55 		addw	r5, r6, #1324
 125 0038 06F2CC58 		addw	r8, r6, #1484
 126              	.LVL5:
 127              	.L5:
 128              	.LBE201:
 129              	.LBE200:
 130              	.LBB203:
 131              	.LBB199:
 132              		.loc 2 220 0 discriminator 3
 133 003c C5F800B0 		str	fp, [r5]	@ float
 134              		.loc 2 221 0 discriminator 3
 135 0040 C5F804A0 		str	r10, [r5, #4]	@ float
 136              		.loc 2 222 0 discriminator 3
 137 0044 C5F80890 		str	r9, [r5, #8]	@ float
 138              	.LVL6:
 139              	.LBE199:
 140              	.LBE203:
 141              	.LBB204:
 142              	.LBB202:
 143              		.loc 2 184 0 discriminator 3
 144 0048 2C61     		str	r4, [r5, #16]	@ float
 145 004a EC60     		str	r4, [r5, #12]	@ float
 146              	.LVL7:
 147              	.LBE202:
 148              	.LBE204:
 149              	.LBE196:
 150              	.LBB205:
 151              	.LBB206:
 152              		.file 3 "./mutable_instruments/stmlib/dsp/delay_line.h"
 153              		.loc 3 47 0 discriminator 3
 154 004c 4FF48050 		mov	r0, #4096
 155 0050 FFF7FEFF 		bl	sdram_malloc
 156              	.LVL8:
 157 0054 C7F8D405 		str	r0, [r7, #1492]
 158              		.loc 3 48 0 discriminator 3
 159 0058 58B1     		cbz	r0, .L3
 160              	.LVL9:
 161              	.LBB207:
 162              	.LBB208:
 163              		.loc 3 52 0
 164 005a 00F58053 		add	r3, r0, #4096
 165              	.LVL10:
 166              	.L4:
 167              	.LBB209:
 168              	.LBB210:
 169              	.LBB211:
 170              		.file 4 "/home/sbcu/Dropbox/pcb-layouts/axo-on-discovery-board/axoloti/platform_linux/arm-none-eab
 171              		.loc 4 704 0
ARM GAS  /tmp/ccleFYi7.s 			page 4


 172 005e 40F8044B 		str	r4, [r0], #4	@ float
 173              	.LVL11:
 174              		.loc 4 703 0
 175 0062 8342     		cmp	r3, r0
 176 0064 FBD1     		bne	.L4
 177              	.LBE211:
 178              	.LBE210:
 179              	.LBE209:
 180              		.loc 3 53 0
 181 0066 0122     		movs	r2, #1
 182              		.loc 3 54 0
 183 0068 0023     		movs	r3, #0
 184              	.LVL12:
 185              		.loc 3 53 0
 186 006a C7F8D025 		str	r2, [r7, #1488]
 187              		.loc 3 54 0
 188 006e C7F8CC35 		str	r3, [r7, #1484]
 189              	.LVL13:
 190              	.L3:
 191 0072 1435     		adds	r5, r5, #20
 192              	.LVL14:
 193              	.LBE208:
 194              	.LBE207:
 195              	.LBE206:
 196              	.LBE205:
 197              		.loc 1 49 0 discriminator 3
 198 0074 4545     		cmp	r5, r8
 199 0076 07F10C07 		add	r7, r7, #12
 200 007a DFD1     		bne	.L5
 201              	.LVL15:
 202              	.LBE195:
 203              	.LBB212:
 204              	.LBB213:
 205              		.file 5 "./mutable_instruments/elements/dsp/resonator.h"
 206              		.loc 5 61 0
 207 007c 0B4B     		ldr	r3, .L14+12
 208              	.LBE213:
 209              	.LBE212:
 210              	.LBB215:
 211              	.LBB216:
 212              		.loc 5 73 0
 213 007e 0C4D     		ldr	r5, .L14+16
 214              	.LVL16:
 215              	.LBE216:
 216              	.LBE215:
 217              	.LBB218:
 218              	.LBB219:
 219              		.loc 5 77 0
 220 0080 0C4C     		ldr	r4, .L14+20
 221              	.LBE219:
 222              	.LBE218:
 223              	.LBB221:
 224              	.LBB214:
 225              		.loc 5 61 0
 226 0082 3360     		str	r3, [r6]	@ float
 227              	.LVL17:
 228              	.LBE214:
ARM GAS  /tmp/ccleFYi7.s 			page 5


 229              	.LBE221:
 230              		.loc 1 61 0
 231 0084 0020     		movs	r0, #0
 232              	.LBB222:
 233              	.LBB223:
 234              		.loc 5 65 0
 235 0086 4FF07A51 		mov	r1, #1048576000
 236              	.LBE223:
 237              	.LBE222:
 238              	.LBB225:
 239              	.LBB226:
 240              		.loc 5 69 0
 241 008a 4FF07C52 		mov	r2, #1056964608
 242              	.LBE226:
 243              	.LBE225:
 244              	.LBB228:
 245              	.LBB229:
 246              		.loc 5 81 0
 247 008e 4023     		movs	r3, #64
 248              	.LBE229:
 249              	.LBE228:
 250              	.LBB231:
 251              	.LBB217:
 252              		.loc 5 73 0
 253 0090 7561     		str	r5, [r6, #20]	@ float
 254              	.LBE217:
 255              	.LBE231:
 256              	.LBB232:
 257              	.LBB220:
 258              		.loc 5 77 0
 259 0092 F460     		str	r4, [r6, #12]	@ float
 260              	.LBE220:
 261              	.LBE232:
 262              		.loc 1 61 0
 263 0094 7062     		str	r0, [r6, #36]	@ float
 264              	.LBB233:
 265              	.LBB224:
 266              		.loc 5 65 0
 267 0096 7160     		str	r1, [r6, #4]	@ float
 268              	.LVL18:
 269              	.LBE224:
 270              	.LBE233:
 271              	.LBB234:
 272              	.LBB227:
 273              		.loc 5 69 0
 274 0098 B260     		str	r2, [r6, #8]	@ float
 275              	.LVL19:
 276              	.LBE227:
 277              	.LBE234:
 278              	.LBB235:
 279              	.LBB230:
 280              		.loc 5 81 0
 281 009a B362     		str	r3, [r6, #40]
 282 009c BDE8F88F 		pop	{r3, r4, r5, r6, r7, r8, r9, r10, fp, pc}
 283              	.LVL20:
 284              	.L15:
 285              		.align	2
ARM GAS  /tmp/ccleFYi7.s 			page 6


 286              	.L14:
 287 00a0 22BA003D 		.word	1023457826
 288 00a4 0AD7233C 		.word	1008981770
 289 00a8 CAAA7F3F 		.word	1065331402
 290 00ac AE47E13B 		.word	1004619694
 291 00b0 9A99993E 		.word	1050253722
 292 00b4 77BE7F3F 		.word	1065336439
 293              	.LBE230:
 294              	.LBE235:
 295              	.LBE236:
 296              		.cfi_endproc
 297              	.LFE650:
 298              		.fnend
 299              		.size	_ZN8elements9Resonator4InitEv, .-_ZN8elements9Resonator4InitEv
 300              		.align	2
 301 00b8 AFF30080 		.p2align 4,,15
 301      AFF30080 
 302              		.global	_ZN8elements9Resonator14ComputeFiltersEv
 303              		.thumb
 304              		.thumb_func
 305              		.type	_ZN8elements9Resonator14ComputeFiltersEv, %function
 306              	_ZN8elements9Resonator14ComputeFiltersEv:
 307              		.fnstart
 308              	.LFB651:
 309              		.loc 1 64 0
 310              		.cfi_startproc
 311              		@ args = 0, pretend = 0, frame = 0
 312              		@ frame_needed = 0, uses_anonymous_args = 0
 313              	.LVL21:
 314              	.LBB237:
 315              		.loc 1 66 0
 316 00c0 D0ED014A 		flds	s9, [r0, #4]
 317              	.LVL22:
 318              		.loc 1 72 0
 319 00c4 DFED956A 		flds	s13, .L43
 320 00c8 90ED057A 		flds	s14, [r0, #20]
 321              	.LBB238:
 322              	.LBB239:
 323              		.file 6 "./mutable_instruments/stmlib/dsp/dsp.h"
 324              		.loc 6 44 0
 325 00cc DFED945A 		flds	s11, .L43+4
 326              	.LBE239:
 327              	.LBE238:
 328              		.loc 1 79 0
 329 00d0 9FED944A 		flds	s8, .L43+8
 330              	.LBB250:
 331              	.LBB251:
 332              		.loc 6 46 0
 333 00d4 944B     		ldr	r3, .L43+12
 334              	.LBE251:
 335              	.LBE250:
 336              		.loc 1 79 0
 337 00d6 D0ED023A 		flds	s7, [r0, #8]
 338              		.loc 1 65 0
 339 00da D0F82C16 		ldr	r1, [r0, #1580]
 340              		.loc 1 80 0
 341 00de 9FED936A 		flds	s12, .L43+16
ARM GAS  /tmp/ccleFYi7.s 			page 7


 342              		.loc 1 81 0
 343 00e2 9FED933A 		flds	s6, .L43+20
 344              		.loc 1 67 0
 345 00e6 D0ED002A 		flds	s5, [r0]
 346              	.LBB260:
 347              	.LBB261:
 348              		.loc 1 88 0
 349 00ea 9FED922A 		flds	s4, .L43+24
 350 00ee 9FED920A 		flds	s0, .L43+28
 351 00f2 DFED920A 		flds	s1, .L43+32
 352 00f6 9FED921A 		flds	s2, .L43+36
 353              		.loc 1 110 0
 354 00fa DFED921A 		flds	s3, .L43+40
 355              	.LBE261:
 356              	.LBE260:
 357              		.loc 1 73 0
 358 00fe B7EE005A 		fconsts	s10, #112
 359 0102 75EE647A 		fsubs	s15, s10, s9
 360              	.LBE237:
 361              		.loc 1 64 0
 362 0106 F0B5     		push	{r4, r5, r6, r7, lr}
 363              		.cfi_def_cfa_offset 20
 364              		.cfi_offset 4, -20
 365              		.cfi_offset 5, -16
 366              		.cfi_offset 6, -12
 367              		.cfi_offset 7, -8
 368              		.cfi_offset 14, -4
 369              	.LBB313:
 370              		.loc 1 76 0
 371 0108 67EEA77A 		fmuls	s15, s15, s15
 372              		.loc 1 72 0
 373 010c 27EE267A 		fmuls	s14, s14, s13
 374              		.loc 1 77 0
 375 0110 67EEA77A 		fmuls	s15, s15, s15
 376              	.LBB287:
 377              	.LBB252:
 378              		.loc 6 44 0
 379 0114 27EE257A 		fmuls	s14, s14, s11
 380 0118 67EEE77A 		fnmuls	s15, s15, s15
 381              	.LBE252:
 382              	.LBE287:
 383              	.LBE313:
 384              		.loc 1 64 0
 385 011c 2DED068B 		fstmfdd	sp!, {d8, d9, d10}
 386              		.cfi_def_cfa_offset 44
 387              		.cfi_offset 80, -44
 388              		.cfi_offset 81, -40
 389              		.cfi_offset 82, -36
 390              		.cfi_offset 83, -32
 391              		.cfi_offset 84, -28
 392              		.cfi_offset 85, -24
 393              	.LBB314:
 394              		.loc 1 79 0
 395 0120 B0EE45AA 		fcpys	s20, s10
 396              	.LBB288:
 397              	.LBB253:
 398              		.loc 6 45 0
ARM GAS  /tmp/ccleFYi7.s 			page 8


 399 0124 FDEEC76A 		ftosizs	s13, s14
 400              	.LBE253:
 401              	.LBE288:
 402              		.loc 1 79 0
 403 0128 A7EE84AA 		vfma.f32	s20, s15, s8
 404              	.LBB289:
 405              	.LBB240:
 406              		.loc 6 46 0
 407 012c 864C     		ldr	r4, .L43+44
 408 012e 866A     		ldr	r6, [r0, #40]
 409              	.LBE240:
 410              	.LBE289:
 411              		.loc 1 80 0
 412 0130 DFED869A 		flds	s19, .L43+48
 413              		.loc 1 72 0
 414 0134 9FED869A 		flds	s18, .L43+52
 415              	.LBB290:
 416              	.LBB277:
 417              	.LBB262:
 418              	.LBB263:
 419              	.LBB264:
 420              	.LBB265:
 421              		.loc 1 101 0
 422 0138 DFED868A 		flds	s17, .L43+56
 423              	.LBE265:
 424              	.LBE264:
 425              	.LBE263:
 426              	.LBE262:
 427              		.loc 1 107 0
 428 013c 9FED868A 		flds	s16, .L43+60
 429              	.LBE277:
 430              	.LBE290:
 431              	.LBB291:
 432              	.LBB241:
 433              		.loc 6 44 0
 434 0140 64EEA55A 		fmuls	s11, s9, s11
 435              	.LVL23:
 436              	.LBE241:
 437              	.LBE291:
 438              	.LBB292:
 439              	.LBB254:
 440              		.loc 6 46 0
 441 0144 16EE902A 		fmrs	r2, s13	@ int
 442              	.LBE254:
 443              	.LBE292:
 444              		.loc 1 79 0
 445 0148 F0EE4A7A 		fcpys	s15, s20
 446              	.LBB293:
 447              	.LBB255:
 448              		.loc 6 46 0
 449 014c 9200     		lsls	r2, r2, #2
 450              		.loc 6 45 0
 451 014e B8EEE6AA 		fsitos	s20, s13
 452              	.LBE255:
 453              	.LBE293:
 454              	.LBB294:
 455              	.LBB242:
ARM GAS  /tmp/ccleFYi7.s 			page 9


 456 0152 FDEEE56A 		ftosizs	s13, s11
 457              	.LBE242:
 458              	.LBE294:
 459              	.LBB295:
 460              	.LBB256:
 461              		.loc 6 46 0
 462 0156 D518     		adds	r5, r2, r3
 463              	.LVL24:
 464 0158 95ED004A 		flds	s8, [r5]
 465              		.loc 6 48 0
 466 015c D5ED01AA 		flds	s21, [r5, #4]
 467              	.LBE256:
 468              	.LBE295:
 469              	.LBB296:
 470              	.LBB243:
 471              		.loc 6 46 0
 472 0160 16EE903A 		fmrs	r3, s13	@ int
 473              	.LBE243:
 474              	.LBE296:
 475              		.loc 1 79 0
 476 0164 67EEA33A 		fmuls	s7, s15, s7
 477              	.LBB297:
 478              	.LBB257:
 479              		.loc 6 45 0
 480 0168 37EE4A7A 		fsubs	s14, s14, s20
 481              	.LBE257:
 482              	.LBE297:
 483              	.LBB298:
 484              	.LBB244:
 485              		.loc 6 46 0
 486 016c 9B00     		lsls	r3, r3, #2
 487              	.LBE244:
 488              	.LBE298:
 489              	.LBB299:
 490              	.LBB258:
 491              		.loc 6 48 0
 492 016e 3AEEC4AA 		fsubs	s20, s21, s8
 493              	.LBE258:
 494              	.LBE299:
 495              	.LBB300:
 496              	.LBB245:
 497              		.loc 6 46 0
 498 0172 1D19     		adds	r5, r3, r4
 499              	.LBE245:
 500              	.LBE300:
 501              		.loc 1 80 0
 502 0174 F0EE007A 		fconsts	s15, #0
 503              	.LBB301:
 504              	.LBB259:
 505              		.loc 6 48 0
 506 0178 A7EE0A4A 		vfma.f32	s8, s14, s20
 507              	.LBE259:
 508              	.LBE301:
 509              	.LBB302:
 510              	.LBB278:
 511              	.LBB279:
 512              		.loc 4 199 0
ARM GAS  /tmp/ccleFYi7.s 			page 10


 513 017c 3F2E     		cmp	r6, #63
 514              	.LBE279:
 515              	.LBE278:
 516              	.LBE302:
 517              	.LBB303:
 518              	.LBB246:
 519              		.loc 6 47 0
 520 017e 2B46     		mov	r3, r5
 521              		.loc 6 45 0
 522 0180 B8EEE67A 		fsitos	s14, s13
 523              		.loc 6 48 0
 524 0184 95ED01AA 		flds	s20, [r5, #4]
 525              		.loc 6 46 0
 526 0188 D5ED006A 		flds	s13, [r5]
 527              	.LVL25:
 528              	.LBE246:
 529              	.LBE303:
 530              		.loc 1 80 0
 531 018c 77EEE3AA 		fsubs	s21, s15, s7
 532              		.loc 1 81 0
 533 0190 77EEE47A 		fsubs	s15, s15, s9
 534              	.LVL26:
 535              	.LBB304:
 536              		.loc 1 83 0
 537 0194 4FF00002 		mov	r2, #0
 538              	.LBE304:
 539              		.loc 1 81 0
 540 0198 64EEA77A 		fmuls	s15, s9, s15
 541              	.LBB305:
 542              	.LBB247:
 543              		.loc 6 45 0
 544 019c 75EEC75A 		fsubs	s11, s11, s14
 545              	.LVL27:
 546              	.LBE247:
 547              	.LBE305:
 548              		.loc 1 80 0
 549 01a0 6AEEA33A 		fmuls	s7, s21, s7
 550              	.LBB306:
 551              	.LBB248:
 552              		.loc 6 48 0
 553 01a4 3AEE667A 		fsubs	s14, s20, s13
 554              	.LBE248:
 555              	.LBE306:
 556              	.LBB307:
 557              	.LBB282:
 558              	.LBB280:
 559              		.loc 4 199 0
 560 01a8 94BF     		ite	ls
 561 01aa 3346     		movls	r3, r6
 562              	.LVL28:
 563 01ac 4023     		movhi	r3, #64
 564              	.LBE280:
 565              	.LBE282:
 566              	.LBE307:
 567              		.loc 1 65 0
 568 01ae 0131     		adds	r1, r1, #1
 569              	.LBB308:
ARM GAS  /tmp/ccleFYi7.s 			page 11


 570              		.loc 1 83 0
 571 01b0 9A42     		cmp	r2, r3
 572              	.LBE308:
 573              		.loc 1 65 0
 574 01b2 C0F82C16 		str	r1, [r0, #1580]
 575              	.LVL29:
 576              		.loc 1 80 0
 577 01b6 A3EEA96A 		vfma.f32	s12, s7, s19
 578 01ba 0146     		mov	r1, r0
 579 01bc 00F22C54 		addw	r4, r0, #1324
 580              		.loc 1 81 0
 581 01c0 27EE833A 		fmuls	s6, s15, s6
 582              		.loc 1 72 0
 583 01c4 24EE094A 		fmuls	s8, s8, s18
 584              	.LBB309:
 585              	.LBB249:
 586              		.loc 6 48 0
 587 01c8 E5EE876A 		vfma.f32	s13, s11, s14
 588              	.LVL30:
 589              	.LBE249:
 590              	.LBE309:
 591              	.LBB310:
 592              		.loc 1 83 0
 593 01cc 0746     		mov	r7, r0
 594              	.LBE310:
 595              		.loc 1 82 0
 596 01ce 9646     		mov	lr, r2
 597              		.loc 1 67 0
 598 01d0 F0EE624A 		fcpys	s9, s5
 599              	.LVL31:
 600              	.LBB311:
 601              		.loc 1 83 0
 602 01d4 4FF00105 		mov	r5, #1
 603              	.LVL32:
 604 01d8 80F08A80 		bcs	.L42
 605              	.LVL33:
 606              	.L27:
 607              	.LBB283:
 608              		.loc 1 86 0
 609 01dc 182A     		cmp	r2, #24
 610 01de 40F28B80 		bls	.L18
 611              		.loc 1 86 0 is_stmt 0 discriminator 2
 612 01e2 D0F82C36 		ldr	r3, [r0, #1580]
 613              		.loc 1 87 0 is_stmt 1 discriminator 2
 614 01e6 24EE857A 		fmuls	s14, s9, s10
 615              		.loc 1 86 0 discriminator 2
 616 01ea 5340     		eors	r3, r3, r2
 617              		.loc 1 88 0 discriminator 2
 618 01ec B4EEC27A 		fcmpes	s14, s4
 619              		.loc 1 86 0 discriminator 2
 620 01f0 03F00103 		and	r3, r3, #1
 621              		.loc 1 88 0 discriminator 2
 622 01f4 F1EE10FA 		fmstat
 623              		.loc 1 86 0 discriminator 2
 624 01f8 83F00103 		eor	r3, r3, #1
 625              	.LVL34:
 626              		.loc 1 88 0 discriminator 2
ARM GAS  /tmp/ccleFYi7.s 			page 12


 627 01fc C0F28480 		blt	.L29
 628              		.loc 1 89 0
 629 0200 9FED4C7A 		flds	s14, .L43+24
 630              	.LVL35:
 631              	.L19:
 632              	.LBB276:
 633              		.loc 1 93 0
 634 0204 002B     		cmp	r3, #0
 635 0206 4DD0     		beq	.L20
 636 0208 67EE077A 		fmuls	s15, s14, s14
 637 020c F0EE605A 		fcpys	s11, s1
 638 0210 E7EE805A 		vfma.f32	s11, s15, s0
 639 0214 F0EE413A 		fcpys	s7, s2
 640 0218 E7EEA53A 		vfma.f32	s7, s15, s11
 641 021c 67EE235A 		fmuls	s11, s14, s7
 642 0220 25EEA59A 		fmuls	s18, s11, s11
 643              	.LVL36:
 644              	.L28:
 645              	.LBB275:
 646              		.loc 1 96 0
 647 0224 F7EE007A 		fconsts	s15, #112
 648 0228 F0EE673A 		fcpys	s7, s15
 649 022c E7EE043A 		vfma.f32	s7, s14, s8
 650              	.LVL37:
 651              	.LBB271:
 652              		.loc 1 97 0
 653 0230 072A     		cmp	r2, #7
 654              	.LBE271:
 655              	.LBB272:
 656              	.LBB273:
 657              		.loc 2 222 0
 658 0232 F0EE679A 		fcpys	s19, s15
 659              		.loc 2 221 0
 660 0236 C7EEA33A 		fdivs	s7, s15, s7
 661              	.LVL38:
 662              		.loc 2 220 0
 663 023a C1ED0B5A 		fsts	s11, [r1, #44]
 664              		.loc 2 222 0
 665 023e E3EEA59A 		vfma.f32	s19, s7, s11
 666              		.loc 2 221 0
 667 0242 C1ED0C3A 		fsts	s7, [r1, #48]
 668              		.loc 2 222 0
 669 0246 79EE895A 		fadds	s11, s19, s18
 670 024a C7EEA55A 		fdivs	s11, s15, s11
 671 024e C1ED0D5A 		fsts	s11, [r1, #52]
 672              	.LBE273:
 673              	.LBE272:
 674              	.LBB274:
 675              		.loc 1 97 0
 676 0252 27D8     		bhi	.L20
 677              	.LBB270:
 678              		.loc 1 98 0
 679 0254 C7EE877A 		fdivs	s15, s15, s14
 680 0258 FCEEE77A 		ftouizs	s15, s15
 681 025c 17EE903A 		fmrs	r3, s15	@ int
 682              	.LVL39:
 683              		.loc 1 99 0
ARM GAS  /tmp/ccleFYi7.s 			page 13


 684 0260 B3F5806F 		cmp	r3, #1024
 685 0264 03D3     		bcc	.L21
 686              	.L22:
 687              		.loc 1 99 0 is_stmt 0 discriminator 2
 688 0266 5B08     		lsrs	r3, r3, #1
 689              	.LVL40:
 690 0268 B3F5806F 		cmp	r3, #1024
 691 026c FBD2     		bcs	.L22
 692              	.L21:
 693              	.LVL41:
 694              		.loc 1 101 0 is_stmt 1
 695 026e F7EE007A 		fconsts	s15, #112
 696 0272 F0EE675A 		fcpys	s11, s15
 697 0276 E7EE285A 		vfma.f32	s11, s14, s17
 698              	.LBB266:
 699              	.LBB267:
 700              		.loc 3 58 0
 701 027a C7F8D035 		str	r3, [r7, #1488]
 702 027e 866A     		ldr	r6, [r0, #40]
 703 0280 91ED0B7A 		flds	s14, [r1, #44]
 704              	.LVL42:
 705              	.LBE267:
 706              	.LBE266:
 707              	.LBB268:
 708              	.LBB269:
 709              		.loc 2 212 0
 710 0284 C7EEA55A 		fdivs	s11, s15, s11
 711              		.loc 2 213 0
 712 0288 F0EE673A 		fcpys	s7, s15
 713 028c E5EE873A 		vfma.f32	s7, s11, s14
 714              		.loc 2 211 0
 715 0290 84ED007A 		fsts	s14, [r4]
 716              		.loc 2 213 0
 717 0294 E7EE073A 		vfma.f32	s7, s14, s14
 718              		.loc 2 212 0
 719 0298 C4ED015A 		fsts	s11, [r4, #4]
 720              		.loc 2 213 0
 721 029c C7EEA37A 		fdivs	s15, s15, s7
 722 02a0 C4ED027A 		fsts	s15, [r4, #8]
 723              	.LVL43:
 724              	.L20:
 725              	.LBE269:
 726              	.LBE268:
 727              	.LBE270:
 728              	.LBE274:
 729              	.LBE275:
 730              	.LBE276:
 731              		.loc 1 113 0
 732 02a4 F7EE007A 		fconsts	s15, #112
 733 02a8 77EEC67A 		fsubs	s15, s15, s12
 734              		.loc 1 105 0
 735 02ac F5EEC06A 		fcmpezs	s13
 736 02b0 F1EE10FA 		fmstat
 737              		.loc 1 113 0
 738 02b4 A7EE836A 		vfma.f32	s12, s15, s6
 739              	.LVL44:
 740 02b8 02F10102 		add	r2, r2, #1
ARM GAS  /tmp/ccleFYi7.s 			page 14


 741              	.LVL45:
 742 02bc 07F10C07 		add	r7, r7, #12
 743              		.loc 1 104 0
 744 02c0 35EE265A 		fadds	s10, s10, s13
 745              	.LVL46:
 746              		.loc 1 107 0
 747 02c4 4CBF     		ite	mi
 748 02c6 66EE886A 		fmulsmi	s13, s13, s16
 749              	.LVL47:
 750              		.loc 1 110 0
 751 02ca 66EEA16A 		fmulspl	s13, s13, s3
 752              	.LVL48:
 753              	.LBE283:
 754              	.LBB284:
 755              	.LBB281:
 756              		.loc 4 199 0
 757 02ce 3F2E     		cmp	r6, #63
 758 02d0 94BF     		ite	ls
 759 02d2 3346     		movls	r3, r6
 760 02d4 4023     		movhi	r3, #64
 761              	.LBE281:
 762              	.LBE284:
 763              		.loc 1 83 0
 764 02d6 9A42     		cmp	r2, r3
 765              	.LBB285:
 766              		.loc 1 114 0
 767 02d8 74EEA24A 		fadds	s9, s9, s5
 768              	.LVL49:
 769 02dc 01F11401 		add	r1, r1, #20
 770 02e0 04F11404 		add	r4, r4, #20
 771              		.loc 1 115 0
 772 02e4 24EE064A 		fmuls	s8, s8, s12
 773              	.LVL50:
 774 02e8 05F10105 		add	r5, r5, #1
 775              	.LVL51:
 776              	.LBE285:
 777              		.loc 1 83 0
 778 02ec FFF476AF 		bcc	.L27
 779              	.L42:
 780              	.LBE311:
 781              	.LBE314:
 782              		.loc 1 119 0
 783 02f0 BDEC068B 		fldmfdd	sp!, {d8-d10}
 784              		.cfi_remember_state
 785              		.cfi_restore 84
 786              		.cfi_restore 85
 787              		.cfi_restore 82
 788              		.cfi_restore 83
 789              		.cfi_restore 80
 790              		.cfi_restore 81
 791              		.cfi_def_cfa_offset 20
 792 02f4 7046     		mov	r0, lr
 793              	.LVL52:
 794 02f6 F0BD     		pop	{r4, r5, r6, r7, pc}
 795              	.LVL53:
 796              	.L18:
 797              		.cfi_restore_state
ARM GAS  /tmp/ccleFYi7.s 			page 15


 798              	.LBB315:
 799              	.LBB312:
 800              	.LBB286:
 801              		.loc 1 87 0
 802 02f8 24EE857A 		fmuls	s14, s9, s10
 803              	.LVL54:
 804              		.loc 1 88 0
 805 02fc B4EEC27A 		fcmpes	s14, s4
 806 0300 F1EE10FA 		fmstat
 807 0304 02DA     		bge	.L32
 808              		.loc 1 86 0
 809 0306 0123     		movs	r3, #1
 810              	.LVL55:
 811              	.L29:
 812              		.loc 1 91 0
 813 0308 AE46     		mov	lr, r5
 814 030a 7BE7     		b	.L19
 815              	.LVL56:
 816              	.L32:
 817              		.loc 1 88 0
 818 030c 9FED139A 		flds	s18, .L43+64
 819 0310 DFED135A 		flds	s11, .L43+68
 820              		.loc 1 89 0
 821 0314 9FED077A 		flds	s14, .L43+24
 822              	.LVL57:
 823 0318 84E7     		b	.L28
 824              	.L44:
 825 031a 00BF     		.align	2
 826              	.L43:
 827 031c CDCC4C3F 		.word	1061997773
 828 0320 00008043 		.word	1132462080
 829 0324 CDCC4C3E 		.word	1045220557
 830 0328 00000000 		.word	_ZN17mutable_resources13lut_4_decadesE
 831 032c 9A99193E 		.word	1041865114
 832 0330 CDCCCC3D 		.word	1036831949
 833 0334 48E1FA3E 		.word	1056629064
 834 0338 4B265F42 		.word	1113531979
 835 033c 8FBA2141 		.word	1092729487
 836 0340 DB0F4940 		.word	1078530011
 837 0344 48E17A3F 		.word	1065017672
 838 0348 00000000 		.word	_ZN17mutable_resources13lut_stiffnessE
 839 034c 9A99593F 		.word	1062836634
 840 0350 0000FA43 		.word	1140457472
 841 0354 0080BB44 		.word	1153138688
 842 0358 7B146E3F 		.word	1064178811
 843 035c BA399441 		.word	1100233146
 844 0360 F5BD8940 		.word	1082768885
 845              	.LBE286:
 846              	.LBE312:
 847              	.LBE315:
 848              		.cfi_endproc
 849              	.LFE651:
 850              		.cantunwind
 851              		.fnend
 852              		.size	_ZN8elements9Resonator14ComputeFiltersEv, .-_ZN8elements9Resonator14ComputeFiltersEv
 853              		.align	2
 854 0364 AFF30080 		.p2align 4,,15
ARM GAS  /tmp/ccleFYi7.s 			page 16


 854      AFF30080 
 854      AFF30080 
 855              		.global	_ZN8elements9Resonator7ProcessEPKfS2_PfS3_j
 856              		.thumb
 857              		.thumb_func
 858              		.type	_ZN8elements9Resonator7ProcessEPKfS2_PfS3_j, %function
 859              	_ZN8elements9Resonator7ProcessEPKfS2_PfS3_j:
 860              		.fnstart
 861              	.LFB652:
 862              		.loc 1 126 0
 863              		.cfi_startproc
 864              		@ args = 8, pretend = 0, frame = 8
 865              		@ frame_needed = 0, uses_anonymous_args = 0
 866              	.LVL58:
 867 0370 2DE9F04F 		push	{r4, r5, r6, r7, r8, r9, r10, fp, lr}
 868              		.cfi_def_cfa_offset 36
 869              		.cfi_offset 4, -36
 870              		.cfi_offset 5, -32
 871              		.cfi_offset 6, -28
 872              		.cfi_offset 7, -24
 873              		.cfi_offset 8, -20
 874              		.cfi_offset 9, -16
 875              		.cfi_offset 10, -12
 876              		.cfi_offset 11, -8
 877              		.cfi_offset 14, -4
 878 0374 2DED0A8B 		fstmfdd	sp!, {d8, d9, d10, d11, d12}
 879              		.cfi_def_cfa_offset 76
 880              		.cfi_offset 80, -76
 881              		.cfi_offset 81, -72
 882              		.cfi_offset 82, -68
 883              		.cfi_offset 83, -64
 884              		.cfi_offset 84, -60
 885              		.cfi_offset 85, -56
 886              		.cfi_offset 86, -52
 887              		.cfi_offset 87, -48
 888              		.cfi_offset 88, -44
 889              		.cfi_offset 89, -40
 890 0378 83B0     		sub	sp, sp, #12
 891              		.cfi_def_cfa_offset 88
 892              		.loc 1 126 0
 893 037a 8046     		mov	r8, r0
 894 037c 179C     		ldr	r4, [sp, #92]
 895 037e 9B46     		mov	fp, r3
 896 0380 169B     		ldr	r3, [sp, #88]
 897              	.LVL59:
 898 0382 0193     		str	r3, [sp, #4]
 899 0384 8946     		mov	r9, r1
 900 0386 9246     		mov	r10, r2
 901              	.LBB352:
 902              		.loc 1 127 0
 903 0388 FFF7FEFF 		bl	_ZN8elements9Resonator14ComputeFiltersEv
 904              	.LVL60:
 905              		.loc 1 131 0
 906 038c 98ED045A 		flds	s10, [r8, #16]
 907 0390 D8ED037A 		flds	s15, [r8, #12]
 908 0394 07EE104A 		fmsr	s14, r4	@ int
 909 0398 77EEC57A 		fsubs	s15, s15, s10
ARM GAS  /tmp/ccleFYi7.s 			page 17


 910 039c B8EE473A 		fuitos	s6, s14
 911              	.LBB353:
 912              	.LBB354:
 913              		.loc 4 199 0
 914 03a0 0728     		cmp	r0, #7
 915              	.LBE354:
 916              	.LBE353:
 917              		.loc 1 127 0
 918 03a2 8446     		mov	ip, r0
 919              	.LVL61:
 920              		.loc 1 131 0
 921 03a4 87EE833A 		fdivs	s6, s15, s6
 922              	.LBB356:
 923              	.LBB355:
 924              		.loc 4 199 0
 925 03a8 94BF     		ite	ls
 926 03aa 0546     		movls	r5, r0
 927 03ac 0825     		movhi	r5, #8
 928              	.LVL62:
 929              	.LBE355:
 930              	.LBE356:
 931              		.loc 1 132 0
 932 03ae 611E     		subs	r1, r4, #1
 933              	.LVL63:
 934 03b0 002C     		cmp	r4, #0
 935 03b2 00F08381 		beq	.L45
 936 03b6 00EB800E 		add	lr, r0, r0, lsl #2
 937 03ba 05EB4502 		add	r2, r5, r5, lsl #1
 938              	.LBB357:
 939              		.loc 1 141 0
 940 03be 2846     		mov	r0, r5
 941              	.LVL64:
 942 03c0 019B     		ldr	r3, [sp, #4]
 943 03c2 6546     		mov	r5, ip
 944 03c4 08EB8E0E 		add	lr, r8, lr, lsl #2
 945              	.LBB358:
 946              		.loc 1 177 0
 947 03c8 DFEDC03A 		flds	s7, .L92
 948              	.LBE358:
 949              	.LBB393:
 950              	.LBB394:
 951              		.loc 5 93 0
 952 03cc DFEDC01A 		flds	s3, .L92+4
 953              		.loc 5 100 0
 954 03d0 9FEDC02A 		flds	s4, .L92+8
 955              		.loc 5 101 0
 956 03d4 DFEDC02A 		flds	s5, .L92+12
 957 03d8 08EB8202 		add	r2, r8, r2, lsl #2
 958              	.LBE394:
 959              	.LBE393:
 960              		.loc 1 141 0
 961 03dc B6EE004A 		fconsts	s8, #96
 962 03e0 8446     		mov	ip, r0
 963              	.LVL65:
 964              	.L67:
 965              		.loc 1 136 0
 966 03e2 98ED087A 		flds	s14, [r8, #32]
ARM GAS  /tmp/ccleFYi7.s 			page 18


 967 03e6 D8ED067A 		flds	s15, [r8, #24]
 968 03ea 77EE277A 		fadds	s15, s14, s15
 969              		.loc 1 137 0
 970 03ee B7EE007A 		fconsts	s14, #112
 971 03f2 F4EEC77A 		fcmpes	s15, s14
 972 03f6 F1EE10FA 		fmstat
 973              		.loc 1 138 0
 974 03fa A9BF     		itett	ge
 975 03fc 37EEC77A 		fsubsge	s14, s15, s14
 976              		.loc 1 136 0
 977 0400 C8ED087A 		fstslt	s15, [r8, #32]
 978 0404 F0EE477A 		fcpysge	s15, s14
 979              		.loc 1 138 0
 980 0408 88ED087A 		fstsge	s14, [r8, #32]
 981              		.loc 1 140 0
 982 040c 33EE057A 		fadds	s14, s6, s10
 983              	.LBB397:
 984              	.LBB398:
 985              	.LBB399:
 986              		.file 7 "./mutable_instruments/stmlib/dsp/cosine_oscillator.h"
 987              		.loc 7 62 0
 988 0410 B5EE005A 		fconsts	s10, #80
 989              	.LBE399:
 990              	.LBE398:
 991              	.LBE397:
 992              		.loc 1 141 0
 993 0414 F4EEC47A 		fcmpes	s15, s8
 994              		.loc 1 140 0
 995 0418 88ED047A 		fsts	s14, [r8, #16]
 996              	.LBB418:
 997              	.LBB409:
 998              	.LBB400:
 999              		.loc 7 62 0
 1000 041c 37EE457A 		fsubs	s14, s14, s10
 1001              	.LBE400:
 1002              	.LBE409:
 1003              	.LBE418:
 1004              		.loc 1 141 0
 1005 0420 F1EE10FA 		fmstat
 1006 0424 C8BF     		it	gt
 1007 0426 F7EE006A 		fconstsgt	s13, #112
 1008              	.LBB419:
 1009              	.LBB410:
 1010              	.LBB401:
 1011              		.loc 7 63 0
 1012 042a B5EEC07A 		fcmpezs	s14
 1013              	.LBE401:
 1014              	.LBE410:
 1015              	.LBE419:
 1016              		.loc 1 141 0
 1017 042e C8BF     		it	gt
 1018 0430 76EEE77A 		fsubsgt	s15, s13, s15
 1019              	.LVL66:
 1020              	.LBB420:
 1021              	.LBB411:
 1022              	.LBB402:
 1023              		.loc 7 63 0
ARM GAS  /tmp/ccleFYi7.s 			page 19


 1024 0434 F1EE10FA 		fmstat
 1025 0438 00F13881 		bmi	.L90
 1026              		.loc 7 66 0
 1027 043c B4EEC47A 		fcmpes	s14, s8
 1028 0440 F1EE10FA 		fmstat
 1029              		.loc 7 67 0
 1030 0444 C6BF     		itte	gt
 1031 0446 37EE447A 		fsubsgt	s14, s14, s8
 1032              	.LVL67:
 1033              		.loc 7 61 0
 1034 044a F3EE006A 		fconstsgt	s13, #48
 1035              		.loc 7 69 0
 1036 044e FBEE006A 		fconstsle	s13, #176
 1037              	.L54:
 1038              	.LVL68:
 1039              	.LBE402:
 1040              	.LBE411:
 1041              	.LBE420:
 1042              		.loc 1 146 0
 1043 0452 D8ED070A 		flds	s1, [r8, #28]
 1044              	.LBB421:
 1045              	.LBB412:
 1046              	.LBB403:
 1047              		.loc 7 72 0
 1048 0456 B0EE006A 		fconsts	s12, #0
 1049 045a B7EE005A 		fconsts	s10, #112
 1050 045e A7EE465A 		vfms.f32	s10, s14, s12
 1051              	.LBE403:
 1052              	.LBE412:
 1053              	.LBE421:
 1054              		.loc 1 146 0
 1055 0462 77EEA07A 		fadds	s15, s15, s1
 1056              	.LVL69:
 1057              	.LBB422:
 1058              	.LBB413:
 1059              	.LBB404:
 1060              		.loc 7 73 0
 1061 0466 B5EE001A 		fconsts	s2, #80
 1062              	.LBE404:
 1063              	.LBE413:
 1064              	.LBE422:
 1065              	.LBB423:
 1066              	.LBB424:
 1067              	.LBB425:
 1068              		.loc 7 62 0
 1069 046a 77EEC17A 		fsubs	s15, s15, s2
 1070              	.LBE425:
 1071              	.LBE424:
 1072              	.LBE423:
 1073              	.LBB438:
 1074              	.LBB414:
 1075              	.LBB405:
 1076              		.loc 7 72 0
 1077 046e 26EE877A 		fmuls	s14, s13, s14
 1078              	.LVL70:
 1079              	.LBE405:
 1080              	.LBE414:
ARM GAS  /tmp/ccleFYi7.s 			page 20


 1081              	.LBE438:
 1082              	.LBB439:
 1083              	.LBB432:
 1084              	.LBB426:
 1085              		.loc 7 63 0
 1086 0472 F5EEC07A 		fcmpezs	s15
 1087              	.LBE426:
 1088              	.LBE432:
 1089              	.LBE439:
 1090              	.LBB440:
 1091              	.LBB415:
 1092              	.LBB406:
 1093              		.loc 7 72 0
 1094 0476 27EE055A 		fmuls	s10, s14, s10
 1095              	.LVL71:
 1096              	.LBE406:
 1097              	.LBE415:
 1098              	.LBE440:
 1099              	.LBB441:
 1100              	.LBB433:
 1101              	.LBB427:
 1102              		.loc 7 63 0
 1103 047a F1EE10FA 		fmstat
 1104              	.LBE427:
 1105              	.LBE433:
 1106              	.LBE441:
 1107              	.LBB442:
 1108              	.LBB416:
 1109              	.LBB407:
 1110              		.loc 7 73 0
 1111 047e 25EE011A 		fmuls	s2, s10, s2
 1112              	.LVL72:
 1113              	.LBE407:
 1114              	.LBE416:
 1115              	.LBE442:
 1116              	.LBB443:
 1117              	.LBB434:
 1118              	.LBB428:
 1119              		.loc 7 63 0
 1120 0482 00F10E81 		bmi	.L91
 1121              		.loc 7 66 0
 1122 0486 F4EEC47A 		fcmpes	s15, s8
 1123 048a F1EE10FA 		fmstat
 1124              		.loc 7 67 0
 1125 048e C6BF     		itte	gt
 1126 0490 77EEC47A 		fsubsgt	s15, s15, s8
 1127              	.LVL73:
 1128              		.loc 7 61 0
 1129 0494 B3EE007A 		fconstsgt	s14, #48
 1130              		.loc 7 69 0
 1131 0498 BBEE007A 		fconstsle	s14, #176
 1132              	.L58:
 1133              	.LVL74:
 1134              		.loc 7 72 0
 1135 049c F0EE006A 		fconsts	s13, #0
 1136              	.LVL75:
 1137 04a0 F7EE000A 		fconsts	s1, #112
ARM GAS  /tmp/ccleFYi7.s 			page 21


 1138 04a4 E7EEE60A 		vfms.f32	s1, s15, s13
 1139 04a8 67EE277A 		fmuls	s15, s14, s15
 1140              	.LVL76:
 1141              	.LBE428:
 1142              	.LBE434:
 1143              	.LBE443:
 1144              		.loc 1 149 0
 1145 04ac FAEC018A 		fldmias	r10!, {s17}
 1146              	.LVL77:
 1147              	.LBB444:
 1148              		.loc 1 164 0
 1149 04b0 9FED8A9A 		flds	s18, .L92+16
 1150              	.LBE444:
 1151              	.LBB471:
 1152              	.LBB435:
 1153              	.LBB429:
 1154              		.loc 7 72 0
 1155 04b4 67EEA00A 		fmuls	s1, s15, s1
 1156              	.LVL78:
 1157              		.loc 7 73 0
 1158 04b8 F5EE009A 		fconsts	s19, #80
 1159              	.LBE429:
 1160              	.LBE435:
 1161              	.LBE471:
 1162              		.loc 1 149 0
 1163 04bc F4EE007A 		fconsts	s15, #64
 1164              	.LBB472:
 1165              	.LBB436:
 1166              	.LBB430:
 1167              		.loc 7 73 0
 1168 04c0 60EEA99A 		fmuls	s19, s1, s19
 1169              	.LVL79:
 1170              	.LBE430:
 1171              	.LBE436:
 1172              	.LBE472:
 1173              		.loc 1 149 0
 1174 04c4 68EEA78A 		fmuls	s17, s17, s15
 1175              	.LVL80:
 1176              	.LBB473:
 1177              		.loc 1 164 0
 1178 04c8 002D     		cmp	r5, #0
 1179 04ca 00F0FC80 		beq	.L71
 1180 04ce B6EE000A 		fconsts	s0, #96
 1181 04d2 F0EE494A 		fcpys	s9, s18
 1182 04d6 B0EE408A 		fcpys	s16, s0
 1183 04da 4046     		mov	r0, r8
 1184 04dc B0EE41AA 		fcpys	s20, s2
 1185 04e0 03E0     		b	.L61
 1186              	.LVL81:
 1187              	.L72:
 1188              	.LBB445:
 1189              	.LBB446:
 1190              		.loc 7 87 0
 1191 04e2 B0EE4C0A 		fcpys	s0, s24
 1192              	.LVL82:
 1193              	.LBE446:
 1194              	.LBE445:
ARM GAS  /tmp/ccleFYi7.s 			page 22


 1195              	.LBB450:
 1196              	.LBB451:
 1197 04e6 B0EE6B8A 		fcpys	s16, s23
 1198              	.LVL83:
 1199              	.L61:
 1200              	.LBE451:
 1201              	.LBE450:
 1202              	.LBB455:
 1203              	.LBB456:
 1204              		.loc 2 228 0 discriminator 3
 1205 04ea D0ED0E6A 		flds	s13, [r0, #56]
 1206 04ee D0ED0C7A 		flds	s15, [r0, #48]
 1207 04f2 D0ED0B5A 		flds	s11, [r0, #44]
 1208 04f6 90ED0F6A 		flds	s12, [r0, #60]
 1209 04fa 90ED0D7A 		flds	s14, [r0, #52]
 1210 04fe F0EE68AA 		fcpys	s21, s17
 1211 0502 E7EEE6AA 		vfms.f32	s21, s15, s13
 1212 0506 1430     		adds	r0, r0, #20
 1213              	.LBE456:
 1214              	.LBE455:
 1215              	.LBB461:
 1216              	.LBB447:
 1217              		.loc 7 87 0 discriminator 3
 1218 0508 95EE00AA 		vfnms.f32	s20, s10, s0
 1219              	.LVL84:
 1220              	.LBE447:
 1221              	.LBE461:
 1222              	.LBB462:
 1223              	.LBB457:
 1224              		.loc 2 228 0 discriminator 3
 1225 050c F0EE6A7A 		fcpys	s15, s21
 1226 0510 E6EEE57A 		vfms.f32	s15, s13, s11
 1227              	.LBE457:
 1228              	.LBE462:
 1229              	.LBB463:
 1230              	.LBB452:
 1231              		.loc 7 87 0 discriminator 3
 1232 0514 D0EE889A 		vfnms.f32	s19, s1, s16
 1233              	.LVL85:
 1234              	.LBE452:
 1235              	.LBE463:
 1236              	.LBB464:
 1237              	.LBB458:
 1238              		.loc 2 228 0 discriminator 3
 1239 0518 77EEC67A 		fsubs	s15, s15, s12
 1240              	.LBE458:
 1241              	.LBE464:
 1242              	.LBB465:
 1243              	.LBB448:
 1244              		.loc 7 89 0 discriminator 3
 1245 051c 30EE04BA 		fadds	s22, s0, s8
 1246              	.LBE448:
 1247              	.LBE465:
 1248              	.LBB466:
 1249              	.LBB459:
 1250              		.loc 2 228 0 discriminator 3
 1251 0520 67EE877A 		fmuls	s15, s15, s14
ARM GAS  /tmp/ccleFYi7.s 			page 23


 1252              	.LVL86:
 1253              		.loc 2 229 0 discriminator 3
 1254 0524 B0EE667A 		fcpys	s14, s13
 1255 0528 A5EEA77A 		vfma.f32	s14, s11, s15
 1256              	.LVL87:
 1257              	.LBE459:
 1258              	.LBE466:
 1259              	.LBB467:
 1260              	.LBB453:
 1261              		.loc 7 89 0 discriminator 3
 1262 052c 78EE04AA 		fadds	s21, s16, s8
 1263              	.LBE453:
 1264              	.LBE467:
 1265              	.LBB468:
 1266              	.LBB460:
 1267              		.loc 2 231 0 discriminator 3
 1268 0530 A5EE876A 		vfma.f32	s12, s11, s14
 1269              		.loc 2 230 0 discriminator 3
 1270 0534 F0EE476A 		fcpys	s13, s14
 1271 0538 E5EEA76A 		vfma.f32	s13, s11, s15
 1272              		.loc 2 232 0 discriminator 3
 1273 053c A5EE876A 		vfma.f32	s12, s11, s14
 1274              		.loc 2 230 0 discriminator 3
 1275 0540 C0ED096A 		fsts	s13, [r0, #36]
 1276              		.loc 2 232 0 discriminator 3
 1277 0544 80ED0A6A 		fsts	s12, [r0, #40]
 1278              	.LBE460:
 1279              	.LBE468:
 1280              		.loc 1 164 0 discriminator 3
 1281 0548 7045     		cmp	r0, lr
 1282              	.LBB469:
 1283              	.LBB449:
 1284              		.loc 7 87 0 discriminator 3
 1285 054a B0EE4ACA 		fcpys	s24, s20
 1286              	.LBE449:
 1287              	.LBE469:
 1288              	.LBB470:
 1289              	.LBB454:
 1290 054e F0EE69BA 		fcpys	s23, s19
 1291 0552 B0EE40AA 		fcpys	s20, s0
 1292              	.LVL88:
 1293              	.LBE454:
 1294              	.LBE470:
 1295              		.loc 1 166 0 discriminator 3
 1296 0556 EBEE074A 		vfma.f32	s9, s22, s14
 1297              	.LVL89:
 1298              		.loc 1 167 0 discriminator 3
 1299 055a AAEE879A 		vfma.f32	s18, s21, s14
 1300              	.LVL90:
 1301 055e F0EE489A 		fcpys	s19, s16
 1302              	.LVL91:
 1303              		.loc 1 164 0 discriminator 3
 1304 0562 BED1     		bne	.L72
 1305 0564 39EE649A 		fsubs	s18, s18, s9
 1306              	.LVL92:
 1307              	.L60:
 1308              	.LBE473:
ARM GAS  /tmp/ccleFYi7.s 			page 24


 1309              		.loc 1 169 0
 1310 0568 A3EC019A 		fstmias	r3!, {s18}
 1311              	.LVL93:
 1312              		.loc 1 173 0
 1313 056c D8ED099A 		flds	s19, [r8, #36]
 1314              	.LVL94:
 1315 0570 78EEA99A 		fadds	s19, s17, s19
 1316              	.LVL95:
 1317              	.LBB474:
 1318              		.loc 1 175 0
 1319 0574 BCF1000F 		cmp	ip, #0
 1320 0578 00F09D80 		beq	.L73
 1321 057c 9FED570A 		flds	s0, .L92+16
 1322 0580 1693     		str	r3, [sp, #88]
 1323 0582 4746     		mov	r7, r8
 1324 0584 08F22C56 		addw	r6, r8, #1324
 1325 0588 B6EE008A 		fconsts	s16, #96
 1326              		.loc 1 180 0
 1327 058c F2EE00AA 		fconsts	s21, #32
 1328              	.LVL96:
 1329              	.L63:
 1330              	.LBB359:
 1331              	.LBB360:
 1332              		.loc 3 79 0 discriminator 3
 1333 0590 D7F8CC05 		ldr	r0, [r7, #1484]
 1334 0594 D7F8D035 		ldr	r3, [r7, #1488]
 1335 0598 D7F8D445 		ldr	r4, [r7, #1492]
 1336              	.LBE360:
 1337              	.LBE359:
 1338              	.LBB362:
 1339              	.LBB363:
 1340              		.loc 2 228 0 discriminator 3
 1341 059c D6ED037A 		flds	s15, [r6, #12]
 1342 05a0 96ED017A 		flds	s14, [r6, #4]
 1343 05a4 D6ED000A 		flds	s1, [r6]
 1344 05a8 D6ED045A 		flds	s11, [r6, #16]
 1345 05ac 96ED026A 		flds	s12, [r6, #8]
 1346              	.LBE363:
 1347              	.LBE362:
 1348              	.LBB370:
 1349              	.LBB361:
 1350              		.loc 3 79 0 discriminator 3
 1351 05b0 1844     		add	r0, r0, r3
 1352 05b2 C0F30900 		ubfx	r0, r0, #0, #10
 1353 05b6 04EB8000 		add	r0, r4, r0, lsl #2
 1354 05ba 90ED009A 		flds	s18, [r0]
 1355              	.LVL97:
 1356              	.LBE361:
 1357              	.LBE370:
 1358              	.LBB371:
 1359              	.LBB372:
 1360              		.loc 3 62 0 discriminator 3
 1361 05be D7F8CC45 		ldr	r4, [r7, #1484]
 1362 05c2 D7F8D405 		ldr	r0, [r7, #1492]
 1363              	.LBE372:
 1364              	.LBE371:
 1365              		.loc 1 178 0 discriminator 3
ARM GAS  /tmp/ccleFYi7.s 			page 25


 1366 05c6 F0EE696A 		fcpys	s13, s19
 1367 05ca E9EE236A 		vfma.f32	s13, s18, s7
 1368              	.LBB376:
 1369              	.LBB373:
 1370              		.loc 3 62 0 discriminator 3
 1371 05ce 00EB8400 		add	r0, r0, r4, lsl #2
 1372              		.loc 3 63 0 discriminator 3
 1373 05d2 04F2FF34 		addw	r4, r4, #1023
 1374              	.LBE373:
 1375              	.LBE376:
 1376              	.LBB377:
 1377              	.LBB378:
 1378              		.loc 7 87 0 discriminator 3
 1379 05d6 95EE081A 		vfnms.f32	s2, s10, s16
 1380              	.LVL98:
 1381              	.LBE378:
 1382              	.LBE377:
 1383              	.LBB382:
 1384              	.LBB374:
 1385              		.loc 3 63 0 discriminator 3
 1386 05da C4F30904 		ubfx	r4, r4, #0, #10
 1387 05de 0C37     		adds	r7, r7, #12
 1388              	.LBE374:
 1389              	.LBE382:
 1390              	.LBB383:
 1391              	.LBB364:
 1392              		.loc 2 228 0 discriminator 3
 1393 05e0 E7EE676A 		vfms.f32	s13, s14, s15
 1394 05e4 1436     		adds	r6, r6, #20
 1395              	.LBE364:
 1396              	.LBE383:
 1397              	.LBB384:
 1398              	.LBB379:
 1399              		.loc 7 89 0 discriminator 3
 1400 05e6 78EE048A 		fadds	s17, s16, s8
 1401              	.LBE379:
 1402              	.LBE384:
 1403              	.LBB385:
 1404              	.LBB365:
 1405              		.loc 2 228 0 discriminator 3
 1406 05ea E7EEE06A 		vfms.f32	s13, s15, s1
 1407              	.LBE365:
 1408              	.LBE385:
 1409              	.LBB386:
 1410              	.LBB380:
 1411              		.loc 7 87 0 discriminator 3
 1412 05ee B0EE41AA 		fcpys	s20, s2
 1413              	.LBE380:
 1414              	.LBE386:
 1415              	.LBB387:
 1416              	.LBB366:
 1417              		.loc 2 228 0 discriminator 3
 1418 05f2 76EEE56A 		fsubs	s13, s13, s11
 1419 05f6 B0EE481A 		fcpys	s2, s16
 1420 05fa 66EE866A 		fmuls	s13, s13, s12
 1421              	.LBE366:
 1422              	.LBE387:
ARM GAS  /tmp/ccleFYi7.s 			page 26


 1423              		.loc 1 177 0 discriminator 3
 1424 05fe A9EE230A 		vfma.f32	s0, s18, s7
 1425              	.LVL99:
 1426              	.LBB388:
 1427              	.LBB367:
 1428              		.loc 2 229 0 discriminator 3
 1429 0602 E0EEA67A 		vfma.f32	s15, s1, s13
 1430              	.LVL100:
 1431              	.LBE367:
 1432              	.LBE388:
 1433              	.LBB389:
 1434              	.LBB381:
 1435              		.loc 7 87 0 discriminator 3
 1436 0606 B0EE4A8A 		fcpys	s16, s20
 1437              	.LVL101:
 1438              	.LBE381:
 1439              	.LBE389:
 1440              	.LBB390:
 1441              	.LBB368:
 1442              		.loc 2 231 0 discriminator 3
 1443 060a E0EEA75A 		vfma.f32	s11, s1, s15
 1444              		.loc 2 230 0 discriminator 3
 1445 060e B0EE676A 		fcpys	s12, s15
 1446 0612 A0EEA66A 		vfma.f32	s12, s1, s13
 1447              		.loc 2 232 0 discriminator 3
 1448 0616 E0EEA75A 		vfma.f32	s11, s1, s15
 1449              		.loc 2 239 0 discriminator 3
 1450 061a 67EE277A 		fmuls	s15, s14, s15
 1451              	.LVL102:
 1452              		.loc 2 232 0 discriminator 3
 1453 061e 46ED015A 		fsts	s11, [r6, #-4]
 1454              		.loc 2 230 0 discriminator 3
 1455 0622 06ED026A 		fsts	s12, [r6, #-8]
 1456              	.LVL103:
 1457              	.LBE368:
 1458              	.LBE390:
 1459              		.loc 1 180 0 discriminator 3
 1460 0626 28EEA77A 		fmuls	s14, s17, s15
 1461              	.LBB391:
 1462              	.LBB375:
 1463              		.loc 3 62 0 discriminator 3
 1464 062a C0ED007A 		fsts	s15, [r0]
 1465              		.loc 3 63 0 discriminator 3
 1466 062e C7F8C045 		str	r4, [r7, #1472]
 1467              	.LBE375:
 1468              	.LBE391:
 1469              		.loc 1 175 0 discriminator 3
 1470 0632 9742     		cmp	r7, r2
 1471              	.LBB392:
 1472              	.LBB369:
 1473              		.loc 2 230 0 discriminator 3
 1474 0634 F0EE466A 		fcpys	s13, s12
 1475              	.LVL104:
 1476              	.LBE369:
 1477              	.LBE392:
 1478              		.loc 1 180 0 discriminator 3
 1479 0638 E7EE2A4A 		vfma.f32	s9, s14, s21
ARM GAS  /tmp/ccleFYi7.s 			page 27


 1480              	.LVL105:
 1481              		.loc 1 175 0 discriminator 3
 1482 063c A8D1     		bne	.L63
 1483 063e 169B     		ldr	r3, [sp, #88]
 1484              	.LVL106:
 1485              	.L62:
 1486              	.LBE474:
 1487              	.LBB475:
 1488              	.LBB395:
 1489              		.loc 5 93 0
 1490 0640 F9EC017A 		fldmias	r9!, {s15}
 1491              	.LVL107:
 1492 0644 97EEA10A 		vfnms.f32	s0, s15, s3
 1493              	.LVL108:
 1494              		.loc 5 95 0
 1495 0648 B1EE087A 		fconsts	s14, #24
 1496 064c 20EE077A 		fmuls	s14, s0, s14
 1497              	.LVL109:
 1498              		.loc 5 96 0
 1499 0650 F6EE087A 		fconsts	s15, #104
 1500 0654 B0EEC77A 		fabss	s14, s14
 1501              	.LVL110:
 1502 0658 37EE277A 		fadds	s14, s14, s15
 1503              	.LVL111:
 1504              		.loc 5 99 0
 1505 065c F5EE007A 		fconsts	s15, #80
 1506              	.LVL112:
 1507              		.loc 5 97 0
 1508 0660 27EE077A 		fmuls	s14, s14, s14
 1509              	.LVL113:
 1510              		.loc 5 98 0
 1511 0664 27EE077A 		fmuls	s14, s14, s14
 1512              	.LVL114:
 1513              		.loc 5 99 0
 1514 0668 C7EE877A 		fdivs	s15, s15, s14
 1515              	.LVL115:
 1516              		.loc 5 100 0
 1517 066c F4EEC27A 		fcmpes	s15, s4
 1518 0670 F1EE10FA 		fmstat
 1519 0674 12D4     		bmi	.L75
 1520              		.loc 5 101 0
 1521 0676 F4EE627A 		fcmps	s15, s5
 1522 067a F1EE10FA 		fmstat
 1523 067e C8BF     		it	gt
 1524 0680 F0EE627A 		fcpysgt	s15, s5
 1525              	.LVL116:
 1526              	.L64:
 1527              		.loc 5 102 0
 1528 0684 20EE270A 		fmuls	s0, s0, s15
 1529              	.LVL117:
 1530              	.LBE395:
 1531              	.LBE475:
 1532              	.LBE357:
 1533              		.loc 1 132 0
 1534 0688 0139     		subs	r1, r1, #1
 1535              	.LVL118:
 1536 068a 481C     		adds	r0, r1, #1
ARM GAS  /tmp/ccleFYi7.s 			page 28


 1537              	.LBB479:
 1538              		.loc 1 182 0
 1539 068c 88ED090A 		fsts	s0, [r8, #36]
 1540              	.LVL119:
 1541              		.loc 1 183 0
 1542 0690 EBEC014A 		fstmias	fp!, {s9}
 1543              	.LVL120:
 1544              	.LBE479:
 1545              		.loc 1 132 0
 1546 0694 12D0     		beq	.L45
 1547 0696 98ED045A 		flds	s10, [r8, #16]
 1548              	.LVL121:
 1549 069a A2E6     		b	.L67
 1550              	.LVL122:
 1551              	.L75:
 1552              	.LBB480:
 1553              	.LBB476:
 1554              	.LBB396:
 1555              		.loc 5 100 0
 1556 069c DFED0D7A 		flds	s15, .L92+8
 1557              	.LVL123:
 1558 06a0 F0E7     		b	.L64
 1559              	.LVL124:
 1560              	.L91:
 1561              	.LBE396:
 1562              	.LBE476:
 1563              	.LBB477:
 1564              	.LBB437:
 1565              	.LBB431:
 1566              		.loc 7 64 0
 1567 06a2 F1EE677A 		fnegs	s15, s15
 1568              	.LVL125:
 1569              		.loc 7 61 0
 1570 06a6 B3EE007A 		fconsts	s14, #48
 1571 06aa F7E6     		b	.L58
 1572              	.LVL126:
 1573              	.L90:
 1574              	.LBE431:
 1575              	.LBE437:
 1576              	.LBE477:
 1577              	.LBB478:
 1578              	.LBB417:
 1579              	.LBB408:
 1580              		.loc 7 64 0
 1581 06ac B1EE477A 		fnegs	s14, s14
 1582              	.LVL127:
 1583              		.loc 7 61 0
 1584 06b0 F3EE006A 		fconsts	s13, #48
 1585 06b4 CDE6     		b	.L54
 1586              	.LVL128:
 1587              	.L73:
 1588              	.LBE408:
 1589              	.LBE417:
 1590              	.LBE478:
 1591              		.loc 1 172 0
 1592 06b6 9FED090A 		flds	s0, .L92+16
 1593 06ba C1E7     		b	.L62
ARM GAS  /tmp/ccleFYi7.s 			page 29


 1594              	.LVL129:
 1595              	.L45:
 1596              	.LBE480:
 1597              	.LBE352:
 1598              		.loc 1 185 0
 1599 06bc 03B0     		add	sp, sp, #12
 1600              		.cfi_remember_state
 1601              		.cfi_def_cfa_offset 76
 1602              		@ sp needed
 1603 06be BDEC0A8B 		fldmfdd	sp!, {d8-d12}
 1604              		.cfi_restore 88
 1605              		.cfi_restore 89
 1606              		.cfi_restore 86
 1607              		.cfi_restore 87
 1608              		.cfi_restore 84
 1609              		.cfi_restore 85
 1610              		.cfi_restore 82
 1611              		.cfi_restore 83
 1612              		.cfi_restore 80
 1613              		.cfi_restore 81
 1614              		.cfi_def_cfa_offset 36
 1615 06c2 BDE8F08F 		pop	{r4, r5, r6, r7, r8, r9, r10, fp, pc}
 1616              	.LVL130:
 1617              	.L71:
 1618              		.cfi_restore_state
 1619              	.LBB482:
 1620              	.LBB481:
 1621              		.loc 1 150 0
 1622 06c6 F0EE494A 		fcpys	s9, s18
 1623 06ca 4DE7     		b	.L60
 1624              	.L93:
 1625              		.align	2
 1626              	.L92:
 1627 06cc A4707D3F 		.word	1065185444
 1628 06d0 B81E053E 		.word	1040522936
 1629 06d4 0AD7233B 		.word	992204554
 1630 06d8 48E17A3E 		.word	1048240456
 1631 06dc 00000000 		.word	0
 1632              	.LBE481:
 1633              	.LBE482:
 1634              		.cfi_endproc
 1635              	.LFE652:
 1636              		.cantunwind
 1637              		.fnend
 1638              		.size	_ZN8elements9Resonator7ProcessEPKfS2_PfS3_j, .-_ZN8elements9Resonator7ProcessEPKfS2_PfS3_j
 1639              	.Letext0:
 1640              		.file 8 "/home/sbcu/Dropbox/pcb-layouts/axo-on-discovery-board/axoloti/platform_linux/arm-none-eab
 1641              		.file 9 "/home/sbcu/Dropbox/pcb-layouts/axo-on-discovery-board/axoloti/platform_linux/arm-none-eab
 1642              		.file 10 "/home/sbcu/Dropbox/pcb-layouts/axo-on-discovery-board/axoloti/platform_linux/lib/gcc/arm
 1643              		.file 11 "./mutable_instruments/stmlib/stmlib.h"
 1644              		.file 12 "/home/sbcu/Dropbox/pcb-layouts/axo-on-discovery-board/axoloti/platform_linux/arm-none-ea
 1645              		.file 13 "/home/sbcu/Dropbox/pcb-layouts/axo-on-discovery-board/axoloti/platform_linux/arm-none-ea
 1646              		.file 14 "/home/sbcu/Dropbox/pcb-layouts/axo-on-discovery-board/axoloti/platform_linux/arm-none-ea
 1647              		.file 15 "/home/sbcu/Dropbox/pcb-layouts/axo-on-discovery-board/axoloti/platform_linux/arm-none-ea
 1648              		.file 16 "/home/sbcu/Dropbox/pcb-layouts/axo-on-discovery-board/axoloti/platform_linux/arm-none-ea
 1649              		.file 17 "/home/sbcu/Dropbox/pcb-layouts/axo-on-discovery-board/axoloti/platform_linux/arm-none-ea
 1650              		.file 18 "/home/sbcu/Dropbox/pcb-layouts/axo-on-discovery-board/axoloti/platform_linux/arm-none-ea
ARM GAS  /tmp/ccleFYi7.s 			page 30


 1651              		.file 19 "/home/sbcu/Dropbox/pcb-layouts/axo-on-discovery-board/axoloti/platform_linux/arm-none-ea
 1652              		.file 20 "/home/sbcu/Dropbox/pcb-layouts/axo-on-discovery-board/axoloti/platform_linux/arm-none-ea
 1653              		.file 21 "/home/sbcu/Dropbox/pcb-layouts/axo-on-discovery-board/axoloti/platform_linux/arm-none-ea
 1654              		.file 22 "/home/sbcu/Dropbox/pcb-layouts/axo-on-discovery-board/axoloti/platform_linux/arm-none-ea
 1655              		.file 23 "/home/sbcu/Dropbox/pcb-layouts/axo-on-discovery-board/axoloti/platform_linux/arm-none-ea
 1656              		.file 24 "/home/sbcu/Dropbox/pcb-layouts/axo-on-discovery-board/axoloti/platform_linux/arm-none-ea
 1657              		.file 25 "/home/sbcu/Dropbox/pcb-layouts/axo-on-discovery-board/axoloti/platform_linux/arm-none-ea
 1658              		.file 26 "./mutable_instruments/elements/dsp/dsp.h"
 1659              		.file 27 "./mutable_instruments/elements/resources.h"
 1660              		.file 28 "./mutable_instruments/elements/../mutable_resources.h"
 1661              		.file 29 "/home/sbcu/Dropbox/pcb-layouts/axo-on-discovery-board/axoloti/platform_linux/arm-none-ea
 1662              		.file 30 "./axoloti_memory.h"
 1663              		.file 31 "<built-in>"