ARM GAS  /tmp/ccgSxG3z.s 			page 1


   1              		.syntax unified
   2              		.cpu cortex-m4
   3              		.eabi_attribute 27, 1
   4              		.eabi_attribute 28, 1
   5              		.fpu fpv4-sp-d16
   6              		.eabi_attribute 20, 1
   7              		.eabi_attribute 21, 1
   8              		.eabi_attribute 23, 3
   9              		.eabi_attribute 24, 1
  10              		.eabi_attribute 25, 1
  11              		.eabi_attribute 26, 1
  12              		.eabi_attribute 30, 2
  13              		.eabi_attribute 34, 1
  14              		.eabi_attribute 18, 4
  15              		.thumb
  16              		.file	"sdc.c"
  17              		.text
  18              	.Ltext0:
  19              		.cfi_sections	.debug_frame
  20              		.align	2
  21              		.p2align 4,,15
  22              		.global	sdcGetInfo
  23              		.thumb
  24              		.thumb_func
  25              		.type	sdcGetInfo, %function
  26              	sdcGetInfo:
  27              	.LFB141:
  28              		.file 1 "/home/sbcu/Dropbox/pcb-layouts/axo-on-discovery-board/axoloti/platform_linux/../chibios/o
  29              		.loc 1 512 0
  30              		.cfi_startproc
  31              		@ args = 0, pretend = 0, frame = 0
  32              		@ frame_needed = 0, uses_anonymous_args = 0
  33              		@ link register save eliminated.
  34              	.LVL0:
  35              		.loc 1 516 0
  36 0000 0379     		ldrb	r3, [r0, #4]	@ zero_extendqisi2
  37 0002 052B     		cmp	r3, #5
  38 0004 01D0     		beq	.L5
  39              		.loc 1 517 0
  40 0006 0120     		movs	r0, #1
  41              	.LVL1:
  42              		.loc 1 523 0
  43 0008 7047     		bx	lr
  44              	.LVL2:
  45              	.L5:
  46              		.loc 1 519 0
  47 000a 836A     		ldr	r3, [r0, #40]
  48 000c 4B60     		str	r3, [r1, #4]
  49              		.loc 1 520 0
  50 000e 4FF40073 		mov	r3, #512
  51 0012 0B60     		str	r3, [r1]
  52              		.loc 1 522 0
  53 0014 0020     		movs	r0, #0
  54              	.LVL3:
  55 0016 7047     		bx	lr
  56              		.cfi_endproc
  57              	.LFE141:
ARM GAS  /tmp/ccgSxG3z.s 			page 2


  58              		.size	sdcGetInfo, .-sdcGetInfo
  59              		.align	2
  60 0018 AFF30080 		.p2align 4,,15
  60      AFF30080 
  61              		.global	sdcConnect
  62              		.thumb
  63              		.thumb_func
  64              		.type	sdcConnect, %function
  65              	sdcConnect:
  66              	.LFB135:
  67              		.loc 1 198 0
  68              		.cfi_startproc
  69              		@ args = 0, pretend = 0, frame = 8
  70              		@ frame_needed = 0, uses_anonymous_args = 0
  71              	.LVL4:
  72 0020 2DE9F041 		push	{r4, r5, r6, r7, r8, lr}
  73              		.cfi_def_cfa_offset 24
  74              		.cfi_offset 4, -24
  75              		.cfi_offset 5, -20
  76              		.cfi_offset 6, -16
  77              		.cfi_offset 7, -12
  78              		.cfi_offset 8, -8
  79              		.cfi_offset 14, -4
  80              		.loc 1 206 0
  81 0024 0323     		movs	r3, #3
  82              		.loc 1 198 0
  83 0026 82B0     		sub	sp, sp, #8
  84              		.cfi_def_cfa_offset 32
  85              		.loc 1 206 0
  86 0028 0371     		strb	r3, [r0, #4]
  87              		.loc 1 198 0
  88 002a 0446     		mov	r4, r0
  89              		.loc 1 209 0
  90 002c FFF7FEFF 		bl	sdc_lld_start_clk
  91              	.LVL5:
  92              		.loc 1 212 0
  93 0030 0021     		movs	r1, #0
  94 0032 0A46     		mov	r2, r1
  95 0034 2046     		mov	r0, r4
  96 0036 FFF7FEFF 		bl	sdc_lld_send_cmd_none
  97              	.LVL6:
  98              		.loc 1 215 0
  99 003a 2046     		mov	r0, r4
 100 003c 01AB     		add	r3, sp, #4
 101 003e 0821     		movs	r1, #8
 102 0040 4FF4D572 		mov	r2, #426
 103 0044 FFF7FEFF 		bl	sdc_lld_send_cmd_short_crc
 104              	.LVL7:
 105 0048 88B9     		cbnz	r0, .L7
 106              		.loc 1 219 0
 107 004a 019B     		ldr	r3, [sp, #4]
 108              		.loc 1 217 0
 109 004c 0122     		movs	r2, #1
 110              		.loc 1 219 0
 111 004e C3F30323 		ubfx	r3, r3, #8, #4
 112 0052 9342     		cmp	r3, r2
 113              		.loc 1 217 0
ARM GAS  /tmp/ccgSxG3z.s 			page 3


 114 0054 2263     		str	r2, [r4, #48]
 115              		.loc 1 219 0
 116 0056 00F0A680 		beq	.L28
 117              	.L8:
 118              	.LDL1:
 119              		.loc 1 330 0
 120 005a 2046     		mov	r0, r4
 121 005c FFF7FEFF 		bl	sdc_lld_stop_clk
 122              	.LVL8:
 123              		.loc 1 331 0
 124 0060 0223     		movs	r3, #2
 125 0062 2371     		strb	r3, [r4, #4]
 126              		.loc 1 332 0
 127 0064 0125     		movs	r5, #1
 128              	.L16:
 129              		.loc 1 333 0
 130 0066 2846     		mov	r0, r5
 131 0068 02B0     		add	sp, sp, #8
 132              		.cfi_remember_state
 133              		.cfi_def_cfa_offset 24
 134              		@ sp needed
 135 006a BDE8F081 		pop	{r4, r5, r6, r7, r8, pc}
 136              	.LVL9:
 137              	.L7:
 138              		.cfi_restore_state
 139              		.loc 1 234 0
 140 006e 0021     		movs	r1, #0
 141 0070 2163     		str	r1, [r4, #48]
 142              		.loc 1 237 0
 143 0072 0A46     		mov	r2, r1
 144 0074 2046     		mov	r0, r4
 145 0076 FFF7FEFF 		bl	sdc_lld_send_cmd_none
 146              	.LVL10:
 147              	.L9:
 148              	.LBB5:
 149              		.loc 1 253 0
 150 007a 226B     		ldr	r2, [r4, #48]
 151              		.loc 1 256 0
 152 007c 524B     		ldr	r3, .L29
 153 007e 5349     		ldr	r1, .L29+4
 154              		.loc 1 253 0
 155 0080 02F00F02 		and	r2, r2, #15
 156              		.loc 1 256 0
 157 0084 012A     		cmp	r2, #1
 158 0086 0CBF     		ite	eq
 159 0088 9846     		moveq	r8, r3
 160 008a 8846     		movne	r8, r1
 161              	.LVL11:
 162 008c 6426     		movs	r6, #100
 163 008e 03E0     		b	.L13
 164              	.LVL12:
 165              	.L11:
 166              		.loc 1 271 0
 167 0090 013E     		subs	r6, r6, #1
 168              	.LVL13:
 169 0092 E2D0     		beq	.L8
 170              		.loc 1 273 0
ARM GAS  /tmp/ccgSxG3z.s 			page 4


 171 0094 FFF7FEFF 		bl	chThdSleep
 172              	.LVL14:
 173              	.L13:
 174              		.loc 1 261 0
 175 0098 3721     		movs	r1, #55
 176 009a 0022     		movs	r2, #0
 177 009c 01AB     		add	r3, sp, #4
 178 009e 2046     		mov	r0, r4
 179 00a0 FFF7FEFF 		bl	sdc_lld_send_cmd_short_crc
 180              	.LVL15:
 181              		.loc 1 262 0
 182 00a4 4A4D     		ldr	r5, .L29+8
 183              		.loc 1 264 0
 184 00a6 2921     		movs	r1, #41
 185 00a8 4246     		mov	r2, r8
 186 00aa 01AB     		add	r3, sp, #4
 187              		.loc 1 261 0
 188 00ac 0028     		cmp	r0, #0
 189 00ae D4D1     		bne	.L8
 190              	.LVL16:
 191              		.loc 1 262 0 discriminator 1
 192 00b0 019F     		ldr	r7, [sp, #4]
 193 00b2 3D40     		ands	r5, r5, r7
 194              		.loc 1 264 0 discriminator 1
 195 00b4 2046     		mov	r0, r4
 196              		.loc 1 261 0 discriminator 1
 197 00b6 002D     		cmp	r5, #0
 198 00b8 CFD1     		bne	.L8
 199              	.LVL17:
 200              		.loc 1 264 0
 201 00ba FFF7FEFF 		bl	sdc_lld_send_cmd_short
 202              	.LVL18:
 203 00be 0028     		cmp	r0, #0
 204 00c0 CBD1     		bne	.L8
 205              		.loc 1 266 0
 206 00c2 019B     		ldr	r3, [sp, #4]
 207 00c4 002B     		cmp	r3, #0
 208              		.loc 1 273 0
 209 00c6 4FF00A00 		mov	r0, #10
 210              		.loc 1 266 0
 211 00ca E1DA     		bge	.L11
 212              		.loc 1 267 0
 213 00cc 5B00     		lsls	r3, r3, #1
 214 00ce 03D5     		bpl	.L12
 215              		.loc 1 268 0
 216 00d0 236B     		ldr	r3, [r4, #48]
 217 00d2 43F01003 		orr	r3, r3, #16
 218 00d6 2363     		str	r3, [r4, #48]
 219              	.L12:
 220              	.LBE5:
 221              		.loc 1 278 0
 222 00d8 2046     		mov	r0, r4
 223 00da 0221     		movs	r1, #2
 224 00dc 0022     		movs	r2, #0
 225 00de 04F10803 		add	r3, r4, #8
 226 00e2 FFF7FEFF 		bl	sdc_lld_send_cmd_long_crc
 227              	.LVL19:
ARM GAS  /tmp/ccgSxG3z.s 			page 5


 228 00e6 0028     		cmp	r0, #0
 229 00e8 B7D1     		bne	.L8
 230              		.loc 1 282 0
 231 00ea 0246     		mov	r2, r0
 232 00ec 0321     		movs	r1, #3
 233 00ee 2046     		mov	r0, r4
 234 00f0 04F13803 		add	r3, r4, #56
 235 00f4 FFF7FEFF 		bl	sdc_lld_send_cmd_short_crc
 236              	.LVL20:
 237 00f8 0028     		cmp	r0, #0
 238 00fa AED1     		bne	.L8
 239              		.loc 1 288 0
 240 00fc 04F11806 		add	r6, r4, #24
 241              	.LVL21:
 242              		.loc 1 287 0
 243 0100 3346     		mov	r3, r6
 244 0102 2046     		mov	r0, r4
 245 0104 0921     		movs	r1, #9
 246 0106 A26B     		ldr	r2, [r4, #56]
 247 0108 FFF7FEFF 		bl	sdc_lld_send_cmd_long_crc
 248              	.LVL22:
 249 010c 0028     		cmp	r0, #0
 250 010e A4D1     		bne	.L8
 251              		.loc 1 292 0
 252 0110 2046     		mov	r0, r4
 253 0112 FFF7FEFF 		bl	sdc_lld_set_data_clk
 254              	.LVL23:
 255              		.loc 1 295 0
 256 0116 2046     		mov	r0, r4
 257 0118 0721     		movs	r1, #7
 258 011a A26B     		ldr	r2, [r4, #56]
 259 011c 01AB     		add	r3, sp, #4
 260 011e FFF7FEFF 		bl	sdc_lld_send_cmd_short_crc
 261              	.LVL24:
 262 0122 0028     		cmp	r0, #0
 263 0124 99D1     		bne	.L8
 264              		.loc 1 300 0
 265 0126 2046     		mov	r0, r4
 266 0128 1021     		movs	r1, #16
 267 012a 4FF40072 		mov	r2, #512
 268 012e 01AB     		add	r3, sp, #4
 269 0130 FFF7FEFF 		bl	sdc_lld_send_cmd_short_crc
 270              	.LVL25:
 271 0134 0546     		mov	r5, r0
 272 0136 0028     		cmp	r0, #0
 273 0138 8FD1     		bne	.L8
 274              		.loc 1 302 0
 275 013a 019A     		ldr	r2, [sp, #4]
 276 013c 244B     		ldr	r3, .L29+8
 277 013e 1340     		ands	r3, r3, r2
 278              		.loc 1 301 0
 279 0140 002B     		cmp	r3, #0
 280 0142 8AD1     		bne	.L8
 281              		.loc 1 306 0
 282 0144 236B     		ldr	r3, [r4, #48]
 283 0146 03F00F03 		and	r3, r3, #15
 284 014a 012B     		cmp	r3, #1
ARM GAS  /tmp/ccgSxG3z.s 			page 6


 285 014c 21D8     		bhi	.L14
 286              		.loc 1 309 0
 287 014e 2046     		mov	r0, r4
 288 0150 0121     		movs	r1, #1
 289 0152 FFF7FEFF 		bl	sdc_lld_set_bus_mode
 290              	.LVL26:
 291              		.loc 1 310 0
 292 0156 2046     		mov	r0, r4
 293 0158 3721     		movs	r1, #55
 294 015a A26B     		ldr	r2, [r4, #56]
 295 015c 01AB     		add	r3, sp, #4
 296 015e FFF7FEFF 		bl	sdc_lld_send_cmd_short_crc
 297              	.LVL27:
 298 0162 0028     		cmp	r0, #0
 299 0164 7FF479AF 		bne	.L8
 300              		.loc 1 311 0 discriminator 1
 301 0168 019A     		ldr	r2, [sp, #4]
 302 016a 194B     		ldr	r3, .L29+8
 303 016c 1340     		ands	r3, r3, r2
 304              		.loc 1 310 0 discriminator 1
 305 016e 002B     		cmp	r3, #0
 306 0170 7FF473AF 		bne	.L8
 307              		.loc 1 313 0
 308 0174 01AB     		add	r3, sp, #4
 309 0176 2046     		mov	r0, r4
 310 0178 0621     		movs	r1, #6
 311 017a 0222     		movs	r2, #2
 312 017c FFF7FEFF 		bl	sdc_lld_send_cmd_short_crc
 313              	.LVL28:
 314 0180 0028     		cmp	r0, #0
 315 0182 7FF46AAF 		bne	.L8
 316              		.loc 1 314 0 discriminator 1
 317 0186 019A     		ldr	r2, [sp, #4]
 318 0188 114B     		ldr	r3, .L29+8
 319 018a 1340     		ands	r3, r3, r2
 320              		.loc 1 313 0 discriminator 1
 321 018c 002B     		cmp	r3, #0
 322 018e 7FF464AF 		bne	.L8
 323              	.L14:
 324              		.loc 1 320 0
 325 0192 3046     		mov	r0, r6
 326 0194 FFF7FEFF 		bl	mmcsdGetCapacity
 327              	.LVL29:
 328 0198 A062     		str	r0, [r4, #40]
 329              		.loc 1 321 0
 330 019a 0028     		cmp	r0, #0
 331 019c 3FF45DAF 		beq	.L8
 332              		.loc 1 325 0
 333 01a0 0523     		movs	r3, #5
 334 01a2 2371     		strb	r3, [r4, #4]
 335              		.loc 1 326 0
 336 01a4 5FE7     		b	.L16
 337              	.LVL30:
 338              	.L28:
 339              		.loc 1 221 0
 340 01a6 0246     		mov	r2, r0
 341 01a8 3721     		movs	r1, #55
ARM GAS  /tmp/ccgSxG3z.s 			page 7


 342 01aa 2046     		mov	r0, r4
 343 01ac 01AB     		add	r3, sp, #4
 344 01ae FFF7FEFF 		bl	sdc_lld_send_cmd_short_crc
 345              	.LVL31:
 346 01b2 0028     		cmp	r0, #0
 347 01b4 7FF451AF 		bne	.L8
 348              		.loc 1 222 0 discriminator 1
 349 01b8 019A     		ldr	r2, [sp, #4]
 350 01ba 054B     		ldr	r3, .L29+8
 351 01bc 1340     		ands	r3, r3, r2
 352              		.loc 1 221 0 discriminator 1
 353 01be 002B     		cmp	r3, #0
 354 01c0 7FF44BAF 		bne	.L8
 355 01c4 59E7     		b	.L9
 356              	.L30:
 357 01c6 00BF     		.align	2
 358              	.L29:
 359 01c8 000010C0 		.word	-1072693248
 360 01cc 00001080 		.word	-2146435072
 361 01d0 08E0FFFD 		.word	-33562616
 362              		.cfi_endproc
 363              	.LFE135:
 364              		.size	sdcConnect, .-sdcConnect
 365              		.align	2
 366 01d4 AFF30080 		.p2align 4,,15
 366      AFF30080 
 366      AFF30080 
 367              		.global	sdcRead
 368              		.thumb
 369              		.thumb_func
 370              		.type	sdcRead, %function
 371              	sdcRead:
 372              	.LFB137:
 373              		.loc 1 390 0
 374              		.cfi_startproc
 375              		@ args = 0, pretend = 0, frame = 0
 376              		@ frame_needed = 0, uses_anonymous_args = 0
 377              	.LVL32:
 378 01e0 70B5     		push	{r4, r5, r6, lr}
 379              		.cfi_def_cfa_offset 16
 380              		.cfi_offset 4, -16
 381              		.cfi_offset 5, -12
 382              		.cfi_offset 6, -8
 383              		.cfi_offset 14, -4
 384 01e2 4D1E     		subs	r5, r1, #1
 385              		.loc 1 396 0
 386 01e4 866A     		ldr	r6, [r0, #40]
 387 01e6 1D44     		add	r5, r5, r3
 388 01e8 B542     		cmp	r5, r6
 389              		.loc 1 390 0
 390 01ea 0446     		mov	r4, r0
 391              		.loc 1 396 0
 392 01ec 05D9     		bls	.L32
 393              		.loc 1 397 0
 394 01ee 436B     		ldr	r3, [r0, #52]
 395              	.LVL33:
 396 01f0 43F08003 		orr	r3, r3, #128
ARM GAS  /tmp/ccgSxG3z.s 			page 8


 397 01f4 4363     		str	r3, [r0, #52]
 398              		.loc 1 398 0
 399 01f6 0120     		movs	r0, #1
 400              	.LVL34:
 401 01f8 70BD     		pop	{r4, r5, r6, pc}
 402              	.LVL35:
 403              	.L32:
 404              	.LBB8:
 405              	.LBB9:
 406              		.loc 1 402 0
 407 01fa 0625     		movs	r5, #6
 408 01fc 0571     		strb	r5, [r0, #4]
 409              		.loc 1 404 0
 410 01fe FFF7FEFF 		bl	sdc_lld_read
 411              	.LVL36:
 412              		.loc 1 407 0
 413 0202 0523     		movs	r3, #5
 414 0204 2371     		strb	r3, [r4, #4]
 415              	.LBE9:
 416              	.LBE8:
 417              		.loc 1 409 0
 418 0206 70BD     		pop	{r4, r5, r6, pc}
 419              		.cfi_endproc
 420              	.LFE137:
 421              		.size	sdcRead, .-sdcRead
 422              		.align	2
 423 0208 AFF30080 		.p2align 4,,15
 423      AFF30080 
 424              		.global	sdcWrite
 425              		.thumb
 426              		.thumb_func
 427              		.type	sdcWrite, %function
 428              	sdcWrite:
 429              	.LFB138:
 430              		.loc 1 428 0
 431              		.cfi_startproc
 432              		@ args = 0, pretend = 0, frame = 0
 433              		@ frame_needed = 0, uses_anonymous_args = 0
 434              	.LVL37:
 435 0210 70B5     		push	{r4, r5, r6, lr}
 436              		.cfi_def_cfa_offset 16
 437              		.cfi_offset 4, -16
 438              		.cfi_offset 5, -12
 439              		.cfi_offset 6, -8
 440              		.cfi_offset 14, -4
 441 0212 4D1E     		subs	r5, r1, #1
 442              		.loc 1 434 0
 443 0214 866A     		ldr	r6, [r0, #40]
 444 0216 1D44     		add	r5, r5, r3
 445 0218 B542     		cmp	r5, r6
 446              		.loc 1 428 0
 447 021a 0446     		mov	r4, r0
 448              		.loc 1 434 0
 449 021c 05D9     		bls	.L36
 450              		.loc 1 435 0
 451 021e 436B     		ldr	r3, [r0, #52]
 452              	.LVL38:
ARM GAS  /tmp/ccgSxG3z.s 			page 9


 453 0220 43F08003 		orr	r3, r3, #128
 454 0224 4363     		str	r3, [r0, #52]
 455              		.loc 1 436 0
 456 0226 0120     		movs	r0, #1
 457              	.LVL39:
 458 0228 70BD     		pop	{r4, r5, r6, pc}
 459              	.LVL40:
 460              	.L36:
 461              	.LBB12:
 462              	.LBB13:
 463              		.loc 1 440 0
 464 022a 0725     		movs	r5, #7
 465 022c 0571     		strb	r5, [r0, #4]
 466              		.loc 1 442 0
 467 022e FFF7FEFF 		bl	sdc_lld_write
 468              	.LVL41:
 469              		.loc 1 445 0
 470 0232 0523     		movs	r3, #5
 471 0234 2371     		strb	r3, [r4, #4]
 472              	.LBE13:
 473              	.LBE12:
 474              		.loc 1 447 0
 475 0236 70BD     		pop	{r4, r5, r6, pc}
 476              		.cfi_endproc
 477              	.LFE138:
 478              		.size	sdcWrite, .-sdcWrite
 479              		.align	2
 480 0238 AFF30080 		.p2align 4,,15
 480      AFF30080 
 481              		.global	sdcSync
 482              		.thumb
 483              		.thumb_func
 484              		.type	sdcSync, %function
 485              	sdcSync:
 486              	.LFB140:
 487              		.loc 1 482 0
 488              		.cfi_startproc
 489              		@ args = 0, pretend = 0, frame = 0
 490              		@ frame_needed = 0, uses_anonymous_args = 0
 491              	.LVL42:
 492 0240 38B5     		push	{r3, r4, r5, lr}
 493              		.cfi_def_cfa_offset 16
 494              		.cfi_offset 3, -16
 495              		.cfi_offset 4, -12
 496              		.cfi_offset 5, -8
 497              		.cfi_offset 14, -4
 498              		.loc 1 487 0
 499 0242 0579     		ldrb	r5, [r0, #4]	@ zero_extendqisi2
 500 0244 052D     		cmp	r5, #5
 501 0246 01D0     		beq	.L43
 502              		.loc 1 488 0
 503 0248 0120     		movs	r0, #1
 504              	.LVL43:
 505              		.loc 1 498 0
 506 024a 38BD     		pop	{r3, r4, r5, pc}
 507              	.LVL44:
 508              	.L43:
ARM GAS  /tmp/ccgSxG3z.s 			page 10


 509 024c 0446     		mov	r4, r0
 510              	.LBB16:
 511              	.LBB17:
 512              		.loc 1 491 0
 513 024e 0823     		movs	r3, #8
 514 0250 0371     		strb	r3, [r0, #4]
 515              		.loc 1 493 0
 516 0252 FFF7FEFF 		bl	sdc_lld_sync
 517              	.LVL45:
 518              		.loc 1 496 0
 519 0256 2571     		strb	r5, [r4, #4]
 520 0258 38BD     		pop	{r3, r4, r5, pc}
 521              	.LBE17:
 522              	.LBE16:
 523              		.cfi_endproc
 524              	.LFE140:
 525              		.size	sdcSync, .-sdcSync
 526 025a 00BF     		.align	2
 527 025c AFF30080 		.p2align 4,,15
 528              		.global	_sdc_wait_for_transfer_state
 529              		.thumb
 530              		.thumb_func
 531              		.type	_sdc_wait_for_transfer_state, %function
 532              	_sdc_wait_for_transfer_state:
 533              	.LFB130:
 534              		.loc 1 82 0
 535              		.cfi_startproc
 536              		@ args = 0, pretend = 0, frame = 8
 537              		@ frame_needed = 0, uses_anonymous_args = 0
 538              	.LVL46:
 539 0260 10B5     		push	{r4, lr}
 540              		.cfi_def_cfa_offset 8
 541              		.cfi_offset 4, -8
 542              		.cfi_offset 14, -4
 543 0262 0446     		mov	r4, r0
 544 0264 82B0     		sub	sp, sp, #8
 545              		.cfi_def_cfa_offset 16
 546              	.LVL47:
 547              	.L48:
 548              		.loc 1 86 0
 549 0266 01AB     		add	r3, sp, #4
 550 0268 2046     		mov	r0, r4
 551 026a 0D21     		movs	r1, #13
 552 026c A26B     		ldr	r2, [r4, #56]
 553 026e FFF7FEFF 		bl	sdc_lld_send_cmd_short_crc
 554              	.LVL48:
 555              		.loc 1 88 0
 556 0272 0A4B     		ldr	r3, .L55
 557              		.loc 1 86 0
 558 0274 78B9     		cbnz	r0, .L45
 559              		.loc 1 88 0
 560 0276 019A     		ldr	r2, [sp, #4]
 561 0278 1340     		ands	r3, r3, r2
 562              		.loc 1 90 0
 563 027a C2F34321 		ubfx	r1, r2, #9, #4
 564              		.loc 1 87 0
 565 027e 4BB9     		cbnz	r3, .L49
ARM GAS  /tmp/ccgSxG3z.s 			page 11


 566              		.loc 1 90 0
 567 0280 0429     		cmp	r1, #4
 568 0282 08D0     		beq	.L45
 569              		.loc 1 97 0
 570 0284 4FF00100 		mov	r0, #1
 571              		.loc 1 90 0
 572 0288 04D3     		bcc	.L49
 573 028a 0729     		cmp	r1, #7
 574 028c 02D8     		bhi	.L49
 575              		.loc 1 97 0
 576 028e FFF7FEFF 		bl	chThdSleep
 577              	.LVL49:
 578              		.loc 1 105 0
 579 0292 E8E7     		b	.L48
 580              	.L49:
 581              		.loc 1 89 0
 582 0294 0120     		movs	r0, #1
 583              	.L45:
 584              		.loc 1 108 0
 585 0296 02B0     		add	sp, sp, #8
 586              		.cfi_def_cfa_offset 8
 587              		@ sp needed
 588 0298 10BD     		pop	{r4, pc}
 589              	.LVL50:
 590              	.L56:
 591 029a 00BF     		.align	2
 592              	.L55:
 593 029c 08E0FFFD 		.word	-33562616
 594              		.cfi_endproc
 595              	.LFE130:
 596              		.size	_sdc_wait_for_transfer_state, .-_sdc_wait_for_transfer_state
 597              		.align	2
 598              		.p2align 4,,15
 599              		.global	sdcDisconnect
 600              		.thumb
 601              		.thumb_func
 602              		.type	sdcDisconnect, %function
 603              	sdcDisconnect:
 604              	.LFB136:
 605              		.loc 1 346 0
 606              		.cfi_startproc
 607              		@ args = 0, pretend = 0, frame = 0
 608              		@ frame_needed = 0, uses_anonymous_args = 0
 609              	.LVL51:
 610 02a0 38B5     		push	{r3, r4, r5, lr}
 611              		.cfi_def_cfa_offset 16
 612              		.cfi_offset 3, -16
 613              		.cfi_offset 4, -12
 614              		.cfi_offset 5, -8
 615              		.cfi_offset 14, -4
 616              	.LBB25:
 617              		.loc 1 350 0
 618 02a2 2023     		movs	r3, #32
 619              	@ 350 "/home/sbcu/Dropbox/pcb-layouts/axo-on-discovery-board/axoloti/platform_linux/../chibios/os/h
 620 02a4 83F31188 		msr     BASEPRI, r3
 621              	@ 0 "" 2
 622              		.thumb
ARM GAS  /tmp/ccgSxG3z.s 			page 12


 623              	.LBE25:
 624              		.loc 1 353 0
 625 02a8 0379     		ldrb	r3, [r0, #4]	@ zero_extendqisi2
 626 02aa 022B     		cmp	r3, #2
 627 02ac 0FD0     		beq	.L62
 628              	.LVL52:
 629              	.LBB26:
 630              	.LBB27:
 631              		.loc 1 357 0
 632 02ae 0423     		movs	r3, #4
 633 02b0 0371     		strb	r3, [r0, #4]
 634 02b2 0446     		mov	r4, r0
 635              	.LBB28:
 636              		.loc 1 358 0
 637 02b4 0023     		movs	r3, #0
 638              	@ 358 "/home/sbcu/Dropbox/pcb-layouts/axo-on-discovery-board/axoloti/platform_linux/../chibios/os/h
 639 02b6 83F31188 		msr     BASEPRI, r3
 640              	@ 0 "" 2
 641              		.thumb
 642              	.LBE28:
 643              		.loc 1 361 0
 644 02ba FFF7FEFF 		bl	_sdc_wait_for_transfer_state
 645              	.LVL53:
 646 02be 0546     		mov	r5, r0
 647              		.loc 1 362 0
 648 02c0 2046     		mov	r0, r4
 649              		.loc 1 368 0
 650 02c2 FFF7FEFF 		bl	sdc_lld_stop_clk
 651              	.LVL54:
 652              		.loc 1 369 0
 653 02c6 0223     		movs	r3, #2
 654 02c8 2371     		strb	r3, [r4, #4]
 655              	.LBE27:
 656              	.LBE26:
 657              		.loc 1 371 0
 658 02ca 2846     		mov	r0, r5
 659 02cc 38BD     		pop	{r3, r4, r5, pc}
 660              	.LVL55:
 661              	.L62:
 662              	.LBB29:
 663              		.loc 1 354 0
 664 02ce 0023     		movs	r3, #0
 665              	@ 354 "/home/sbcu/Dropbox/pcb-layouts/axo-on-discovery-board/axoloti/platform_linux/../chibios/os/h
 666 02d0 83F31188 		msr     BASEPRI, r3
 667              	@ 0 "" 2
 668              		.thumb
 669              	.LBE29:
 670              		.loc 1 355 0
 671 02d4 1D46     		mov	r5, r3
 672              		.loc 1 371 0
 673 02d6 2846     		mov	r0, r5
 674              	.LVL56:
 675 02d8 38BD     		pop	{r3, r4, r5, pc}
 676              		.cfi_endproc
 677              	.LFE136:
 678              		.size	sdcDisconnect, .-sdcDisconnect
 679 02da 00BF     		.align	2
ARM GAS  /tmp/ccgSxG3z.s 			page 13


 680 02dc AFF30080 		.p2align 4,,15
 681              		.global	sdcInit
 682              		.thumb
 683              		.thumb_func
 684              		.type	sdcInit, %function
 685              	sdcInit:
 686              	.LFB131:
 687              		.loc 1 121 0
 688              		.cfi_startproc
 689              		@ args = 0, pretend = 0, frame = 0
 690              		@ frame_needed = 0, uses_anonymous_args = 0
 691              		@ link register save eliminated.
 692              		.loc 1 123 0
 693 02e0 FFF7FEBF 		b	sdc_lld_init
 694              	.LVL57:
 695              		.cfi_endproc
 696              	.LFE131:
 697              		.size	sdcInit, .-sdcInit
 698              		.align	2
 699 02e4 AFF30080 		.p2align 4,,15
 699      AFF30080 
 699      AFF30080 
 700              		.global	sdcObjectInit
 701              		.thumb
 702              		.thumb_func
 703              		.type	sdcObjectInit, %function
 704              	sdcObjectInit:
 705              	.LFB132:
 706              		.loc 1 133 0
 707              		.cfi_startproc
 708              		@ args = 0, pretend = 0, frame = 0
 709              		@ frame_needed = 0, uses_anonymous_args = 0
 710              		@ link register save eliminated.
 711              	.LVL58:
 712              		.loc 1 135 0
 713 02f0 044B     		ldr	r3, .L65
 714 02f2 0360     		str	r3, [r0]
 715              		.loc 1 136 0
 716 02f4 0122     		movs	r2, #1
 717              		.loc 1 137 0
 718 02f6 0023     		movs	r3, #0
 719              		.loc 1 136 0
 720 02f8 0271     		strb	r2, [r0, #4]
 721              		.loc 1 137 0
 722 02fa 4363     		str	r3, [r0, #52]
 723              		.loc 1 138 0
 724 02fc C362     		str	r3, [r0, #44]
 725              		.loc 1 139 0
 726 02fe 8362     		str	r3, [r0, #40]
 727 0300 7047     		bx	lr
 728              	.L66:
 729 0302 00BF     		.align	2
 730              	.L65:
 731 0304 00000000 		.word	.LANCHOR0
 732              		.cfi_endproc
 733              	.LFE132:
 734              		.size	sdcObjectInit, .-sdcObjectInit
ARM GAS  /tmp/ccgSxG3z.s 			page 14


 735              		.align	2
 736 0308 AFF30080 		.p2align 4,,15
 736      AFF30080 
 737              		.global	sdcStart
 738              		.thumb
 739              		.thumb_func
 740              		.type	sdcStart, %function
 741              	sdcStart:
 742              	.LFB133:
 743              		.loc 1 152 0
 744              		.cfi_startproc
 745              		@ args = 0, pretend = 0, frame = 0
 746              		@ frame_needed = 0, uses_anonymous_args = 0
 747              	.LVL59:
 748 0310 10B5     		push	{r4, lr}
 749              		.cfi_def_cfa_offset 8
 750              		.cfi_offset 4, -8
 751              		.cfi_offset 14, -4
 752              	.LBB30:
 753              		.loc 1 156 0
 754 0312 2023     		movs	r3, #32
 755              	.LBE30:
 756              		.loc 1 152 0
 757 0314 0446     		mov	r4, r0
 758              	.LBB31:
 759              		.loc 1 156 0
 760              	@ 156 "/home/sbcu/Dropbox/pcb-layouts/axo-on-discovery-board/axoloti/platform_linux/../chibios/os/h
 761 0316 83F31188 		msr     BASEPRI, r3
 762              	@ 0 "" 2
 763              		.thumb
 764              	.LBE31:
 765              		.loc 1 159 0
 766 031a C162     		str	r1, [r0, #44]
 767              		.loc 1 160 0
 768 031c FFF7FEFF 		bl	sdc_lld_start
 769              	.LVL60:
 770              		.loc 1 161 0
 771 0320 0223     		movs	r3, #2
 772 0322 2371     		strb	r3, [r4, #4]
 773              	.LBB32:
 774              		.loc 1 162 0
 775 0324 0023     		movs	r3, #0
 776              	@ 162 "/home/sbcu/Dropbox/pcb-layouts/axo-on-discovery-board/axoloti/platform_linux/../chibios/os/h
 777 0326 83F31188 		msr     BASEPRI, r3
 778              	@ 0 "" 2
 779              		.thumb
 780 032a 10BD     		pop	{r4, pc}
 781              	.LBE32:
 782              		.cfi_endproc
 783              	.LFE133:
 784              		.size	sdcStart, .-sdcStart
 785              		.align	2
 786 032c AFF30080 		.p2align 4,,15
 787              		.global	sdcStop
 788              		.thumb
 789              		.thumb_func
 790              		.type	sdcStop, %function
ARM GAS  /tmp/ccgSxG3z.s 			page 15


 791              	sdcStop:
 792              	.LFB134:
 793              		.loc 1 172 0
 794              		.cfi_startproc
 795              		@ args = 0, pretend = 0, frame = 0
 796              		@ frame_needed = 0, uses_anonymous_args = 0
 797              	.LVL61:
 798 0330 10B5     		push	{r4, lr}
 799              		.cfi_def_cfa_offset 8
 800              		.cfi_offset 4, -8
 801              		.cfi_offset 14, -4
 802              	.LBB33:
 803              		.loc 1 176 0
 804 0332 2023     		movs	r3, #32
 805              	.LBE33:
 806              		.loc 1 172 0
 807 0334 0446     		mov	r4, r0
 808              	.LBB34:
 809              		.loc 1 176 0
 810              	@ 176 "/home/sbcu/Dropbox/pcb-layouts/axo-on-discovery-board/axoloti/platform_linux/../chibios/os/h
 811 0336 83F31188 		msr     BASEPRI, r3
 812              	@ 0 "" 2
 813              		.thumb
 814              	.LBE34:
 815              		.loc 1 179 0
 816 033a FFF7FEFF 		bl	sdc_lld_stop
 817              	.LVL62:
 818              		.loc 1 180 0
 819 033e 0123     		movs	r3, #1
 820 0340 2371     		strb	r3, [r4, #4]
 821              	.LBB35:
 822              		.loc 1 181 0
 823 0342 0023     		movs	r3, #0
 824              	@ 181 "/home/sbcu/Dropbox/pcb-layouts/axo-on-discovery-board/axoloti/platform_linux/../chibios/os/h
 825 0344 83F31188 		msr     BASEPRI, r3
 826              	@ 0 "" 2
 827              		.thumb
 828 0348 10BD     		pop	{r4, pc}
 829              	.LBE35:
 830              		.cfi_endproc
 831              	.LFE134:
 832              		.size	sdcStop, .-sdcStop
 833 034a 00BF     		.align	2
 834 034c AFF30080 		.p2align 4,,15
 835              		.global	sdcGetAndClearErrors
 836              		.thumb
 837              		.thumb_func
 838              		.type	sdcGetAndClearErrors, %function
 839              	sdcGetAndClearErrors:
 840              	.LFB139:
 841              		.loc 1 457 0
 842              		.cfi_startproc
 843              		@ args = 0, pretend = 0, frame = 0
 844              		@ frame_needed = 0, uses_anonymous_args = 0
 845              		@ link register save eliminated.
 846              	.LVL63:
 847              		.loc 1 457 0
ARM GAS  /tmp/ccgSxG3z.s 			page 16


 848 0350 0246     		mov	r2, r0
 849              	.LBB36:
 850              		.loc 1 464 0
 851 0352 2023     		movs	r3, #32
 852              	@ 464 "/home/sbcu/Dropbox/pcb-layouts/axo-on-discovery-board/axoloti/platform_linux/../chibios/os/h
 853 0354 83F31188 		msr     BASEPRI, r3
 854              	@ 0 "" 2
 855              		.thumb
 856              	.LBE36:
 857              		.loc 1 466 0
 858 0358 0023     		movs	r3, #0
 859              		.loc 1 465 0
 860 035a 406B     		ldr	r0, [r0, #52]
 861              	.LVL64:
 862              		.loc 1 466 0
 863 035c 5363     		str	r3, [r2, #52]
 864              	.LBB37:
 865              		.loc 1 467 0
 866              	@ 467 "/home/sbcu/Dropbox/pcb-layouts/axo-on-discovery-board/axoloti/platform_linux/../chibios/os/h
 867 035e 83F31188 		msr     BASEPRI, r3
 868              	@ 0 "" 2
 869              		.thumb
 870              	.LBE37:
 871              		.loc 1 469 0
 872 0362 7047     		bx	lr
 873              		.cfi_endproc
 874              	.LFE139:
 875              		.size	sdcGetAndClearErrors, .-sdcGetAndClearErrors
 876              		.align	2
 877 0364 AFF30080 		.p2align 4,,15
 877      AFF30080 
 877      AFF30080 
 878              		.global	sdcErase
 879              		.thumb
 880              		.thumb_func
 881              		.type	sdcErase, %function
 882              	sdcErase:
 883              	.LFB142:
 884              		.loc 1 539 0
 885              		.cfi_startproc
 886              		@ args = 0, pretend = 0, frame = 8
 887              		@ frame_needed = 0, uses_anonymous_args = 0
 888              	.LVL65:
 889 0370 70B5     		push	{r4, r5, r6, lr}
 890              		.cfi_def_cfa_offset 16
 891              		.cfi_offset 4, -16
 892              		.cfi_offset 5, -12
 893              		.cfi_offset 6, -8
 894              		.cfi_offset 14, -4
 895 0372 0446     		mov	r4, r0
 896              		.loc 1 546 0
 897 0374 0720     		movs	r0, #7
 898              	.LVL66:
 899              		.loc 1 549 0
 900 0376 236B     		ldr	r3, [r4, #48]
 901              		.loc 1 546 0
 902 0378 2071     		strb	r0, [r4, #4]
ARM GAS  /tmp/ccgSxG3z.s 			page 17


 903              		.loc 1 549 0
 904 037a DB06     		lsls	r3, r3, #27
 905              		.loc 1 539 0
 906 037c 0D46     		mov	r5, r1
 907 037e 82B0     		sub	sp, sp, #8
 908              		.cfi_def_cfa_offset 24
 909              		.loc 1 550 0
 910 0380 58BF     		it	pl
 911 0382 4D02     		lslpl	r5, r1, #9
 912              	.LVL67:
 913              		.loc 1 554 0
 914 0384 2046     		mov	r0, r4
 915              		.loc 1 539 0
 916 0386 1646     		mov	r6, r2
 917              		.loc 1 551 0
 918 0388 58BF     		it	pl
 919 038a 5602     		lslpl	r6, r2, #9
 920              	.LVL68:
 921              		.loc 1 554 0
 922 038c FFF7FEFF 		bl	_sdc_wait_for_transfer_state
 923              	.LVL69:
 924              		.loc 1 556 0
 925 0390 2A46     		mov	r2, r5
 926 0392 01AB     		add	r3, sp, #4
 927 0394 2046     		mov	r0, r4
 928 0396 2021     		movs	r1, #32
 929 0398 FFF7FEFF 		bl	sdc_lld_send_cmd_short_crc
 930              	.LVL70:
 931 039c 18B9     		cbnz	r0, .L74
 932              		.loc 1 558 0
 933 039e 019A     		ldr	r2, [sp, #4]
 934 03a0 144B     		ldr	r3, .L78
 935 03a2 1340     		ands	r3, r3, r2
 936              		.loc 1 557 0
 937 03a4 2BB1     		cbz	r3, .L77
 938              	.LVL71:
 939              	.L74:
 940              	.LDL2:
 941              		.loc 1 581 0
 942 03a6 0523     		movs	r3, #5
 943 03a8 2371     		strb	r3, [r4, #4]
 944              		.loc 1 582 0
 945 03aa 0125     		movs	r5, #1
 946              	.L75:
 947              		.loc 1 583 0
 948 03ac 2846     		mov	r0, r5
 949 03ae 02B0     		add	sp, sp, #8
 950              		.cfi_remember_state
 951              		.cfi_def_cfa_offset 16
 952              		@ sp needed
 953 03b0 70BD     		pop	{r4, r5, r6, pc}
 954              	.LVL72:
 955              	.L77:
 956              		.cfi_restore_state
 957              		.loc 1 561 0
 958 03b2 3246     		mov	r2, r6
 959 03b4 2046     		mov	r0, r4
ARM GAS  /tmp/ccgSxG3z.s 			page 18


 960 03b6 2121     		movs	r1, #33
 961 03b8 01AB     		add	r3, sp, #4
 962 03ba FFF7FEFF 		bl	sdc_lld_send_cmd_short_crc
 963              	.LVL73:
 964 03be 0028     		cmp	r0, #0
 965 03c0 F1D1     		bne	.L74
 966              		.loc 1 563 0
 967 03c2 019B     		ldr	r3, [sp, #4]
 968 03c4 0B4A     		ldr	r2, .L78
 969 03c6 1A40     		ands	r2, r2, r3
 970              		.loc 1 562 0
 971 03c8 002A     		cmp	r2, #0
 972 03ca ECD1     		bne	.L74
 973              		.loc 1 566 0
 974 03cc 01AB     		add	r3, sp, #4
 975 03ce 2046     		mov	r0, r4
 976 03d0 2621     		movs	r1, #38
 977 03d2 FFF7FEFF 		bl	sdc_lld_send_cmd_short_crc
 978              	.LVL74:
 979 03d6 0546     		mov	r5, r0
 980              	.LVL75:
 981 03d8 0028     		cmp	r0, #0
 982 03da E4D1     		bne	.L74
 983              		.loc 1 568 0
 984 03dc 019A     		ldr	r2, [sp, #4]
 985 03de 054B     		ldr	r3, .L78
 986 03e0 1340     		ands	r3, r3, r2
 987              		.loc 1 567 0
 988 03e2 002B     		cmp	r3, #0
 989 03e4 DFD1     		bne	.L74
 990              		.loc 1 575 0
 991 03e6 2046     		mov	r0, r4
 992 03e8 FFF7FEFF 		bl	_sdc_wait_for_transfer_state
 993              	.LVL76:
 994              		.loc 1 577 0
 995 03ec 0523     		movs	r3, #5
 996 03ee 2371     		strb	r3, [r4, #4]
 997              		.loc 1 578 0
 998 03f0 DCE7     		b	.L75
 999              	.L79:
 1000 03f2 00BF     		.align	2
 1001              	.L78:
 1002 03f4 08E0FFFD 		.word	-33562616
 1003              		.cfi_endproc
 1004              	.LFE142:
 1005              		.size	sdcErase, .-sdcErase
 1006              		.section	.rodata
 1007              		.align	2
 1008              		.set	.LANCHOR0,. + 0
 1009              		.type	sdc_vmt, %object
 1010              		.size	sdc_vmt, 32
 1011              	sdc_vmt:
 1012 0000 00000000 		.word	sdc_lld_is_card_inserted
 1013 0004 00000000 		.word	sdc_lld_is_write_protected
 1014 0008 00000000 		.word	sdcConnect
 1015 000c 00000000 		.word	sdcDisconnect
 1016 0010 00000000 		.word	sdcRead
ARM GAS  /tmp/ccgSxG3z.s 			page 19


 1017 0014 00000000 		.word	sdcWrite
 1018 0018 00000000 		.word	sdcSync
 1019 001c 00000000 		.word	sdcGetInfo
 1020              		.text
 1021              	.Letext0:
 1022              		.file 2 "/home/sbcu/Dropbox/pcb-layouts/axo-on-discovery-board/axoloti/platform_linux/arm-none-eab
 1023              		.file 3 "/home/sbcu/Dropbox/pcb-layouts/axo-on-discovery-board/axoloti/platform_linux/arm-none-eab
 1024              		.file 4 "/home/sbcu/Dropbox/pcb-layouts/axo-on-discovery-board/axoloti/platform_linux/../chibios/o
 1025              		.file 5 "/home/sbcu/Dropbox/pcb-layouts/axo-on-discovery-board/axoloti/platform_linux/../chibios/o
 1026              		.file 6 "/home/sbcu/Dropbox/pcb-layouts/axo-on-discovery-board/axoloti/platform_linux/../chibios/o
 1027              		.file 7 "/home/sbcu/Dropbox/pcb-layouts/axo-on-discovery-board/axoloti/platform_linux/../chibios/o
 1028              		.file 8 "/home/sbcu/Dropbox/pcb-layouts/axo-on-discovery-board/axoloti/platform_linux/../chibios/o
 1029              		.file 9 "/home/sbcu/Dropbox/pcb-layouts/axo-on-discovery-board/axoloti/platform_linux/../chibios/o
 1030              		.file 10 "/home/sbcu/Dropbox/pcb-layouts/axo-on-discovery-board/axoloti/platform_linux/../chibios/
 1031              		.file 11 "/home/sbcu/Dropbox/pcb-layouts/axo-on-discovery-board/axoloti/platform_linux/../chibios/
 1032              		.file 12 "/home/sbcu/Dropbox/pcb-layouts/axo-on-discovery-board/axoloti/platform_linux/../chibios/
 1033              		.file 13 "/home/sbcu/Dropbox/pcb-layouts/axo-on-discovery-board/axoloti/platform_linux/../chibios/
 1034              		.file 14 "/home/sbcu/Dropbox/pcb-layouts/axo-on-discovery-board/axoloti/platform_linux/../CMSIS//I