ARM GAS  /tmp/ccBRp8EU.s 			page 1


   1              		.syntax unified
   2              		.cpu cortex-m4
   3              		.eabi_attribute 27, 1
   4              		.eabi_attribute 28, 1
   5              		.fpu fpv4-sp-d16
   6              		.eabi_attribute 20, 1
   7              		.eabi_attribute 21, 1
   8              		.eabi_attribute 23, 3
   9              		.eabi_attribute 24, 1
  10              		.eabi_attribute 25, 1
  11              		.eabi_attribute 26, 1
  12              		.eabi_attribute 30, 2
  13              		.eabi_attribute 34, 1
  14              		.eabi_attribute 18, 4
  15              		.thumb
  16              		.file	"sdc_lld.c"
  17              		.text
  18              	.Ltext0:
  19              		.cfi_sections	.debug_frame
  20              		.align	2
  21              		.p2align 4,,15
  22              		.thumb
  23              		.thumb_func
  24              		.type	sdc_lld_collect_errors.isra.0, %function
  25              	sdc_lld_collect_errors.isra.0:
  26              	.LFB152:
  27              		.file 1 "/home/sbcu/Dropbox/pcb-layouts/axo-on-discovery-board/axoloti/platform_linux/../chibios/o
  28              		.loc 1 215 0
  29              		.cfi_startproc
  30              		@ args = 0, pretend = 0, frame = 0
  31              		@ frame_needed = 0, uses_anonymous_args = 0
  32              		@ link register save eliminated.
  33              	.LVL0:
  34              		.loc 1 218 0
  35 0000 01F00103 		and	r3, r1, #1
  36              	.LVL1:
  37              		.loc 1 220 0
  38 0004 8A07     		lsls	r2, r1, #30
  39              		.loc 1 221 0
  40 0006 48BF     		it	mi
  41 0008 43F00203 		orrmi	r3, r3, #2
  42              	.LVL2:
  43              		.loc 1 222 0
  44 000c 4A07     		lsls	r2, r1, #29
  45              		.loc 1 223 0
  46 000e 48BF     		it	mi
  47 0010 43F00803 		orrmi	r3, r3, #8
  48              	.LVL3:
  49              		.loc 1 224 0
  50 0014 0A07     		lsls	r2, r1, #28
  51              		.loc 1 225 0
  52 0016 48BF     		it	mi
  53 0018 43F00403 		orrmi	r3, r3, #4
  54              	.LVL4:
  55              		.loc 1 226 0
  56 001c CA06     		lsls	r2, r1, #27
  57              		.loc 1 227 0
ARM GAS  /tmp/ccBRp8EU.s 			page 2


  58 001e 48BF     		it	mi
  59 0020 43F01003 		orrmi	r3, r3, #16
  60              	.LVL5:
  61              		.loc 1 228 0
  62 0024 8A06     		lsls	r2, r1, #26
  63              		.loc 1 229 0
  64 0026 48BF     		it	mi
  65 0028 43F02003 		orrmi	r3, r3, #32
  66              	.LVL6:
  67              		.loc 1 230 0
  68 002c 8A05     		lsls	r2, r1, #22
  69              		.loc 1 233 0
  70 002e 0268     		ldr	r2, [r0]
  71              		.loc 1 231 0
  72 0030 48BF     		it	mi
  73 0032 43F04003 		orrmi	r3, r3, #64
  74              	.LVL7:
  75              		.loc 1 233 0
  76 0036 1343     		orrs	r3, r3, r2
  77              	.LVL8:
  78 0038 0360     		str	r3, [r0]
  79 003a 7047     		bx	lr
  80              		.cfi_endproc
  81              	.LFE152:
  82              		.size	sdc_lld_collect_errors.isra.0, .-sdc_lld_collect_errors.isra.0
  83              		.align	2
  84 003c AFF30080 		.p2align 4,,15
  85              		.global	Vector104
  86              		.thumb
  87              		.thumb_func
  88              		.type	Vector104, %function
  89              	Vector104:
  90              	.LFB135:
  91              		.loc 1 274 0
  92              		.cfi_startproc
  93              		@ args = 0, pretend = 0, frame = 0
  94              		@ frame_needed = 0, uses_anonymous_args = 0
  95 0040 38B5     		push	{r3, r4, r5, lr}
  96              		.cfi_def_cfa_offset 16
  97              		.cfi_offset 3, -16
  98              		.cfi_offset 4, -12
  99              		.cfi_offset 5, -8
 100              		.cfi_offset 14, -4
 101              	.LBB5:
 102              		.loc 1 278 0
 103 0042 2023     		movs	r3, #32
 104              	@ 278 "/home/sbcu/Dropbox/pcb-layouts/axo-on-discovery-board/axoloti/platform_linux/../chibios/os/h
 105 0044 83F31188 		msr     BASEPRI, r3
 106              	@ 0 "" 2
 107              		.thumb
 108              	.LBE5:
 109              		.loc 1 284 0
 110 0048 074C     		ldr	r4, .L33
 111              		.loc 1 282 0
 112 004a 084B     		ldr	r3, .L33+4
 113              		.loc 1 284 0
 114 004c E06B     		ldr	r0, [r4, #60]
ARM GAS  /tmp/ccBRp8EU.s 			page 3


 115              		.loc 1 282 0
 116 004e 0025     		movs	r5, #0
 117 0050 DD63     		str	r5, [r3, #60]
 118              		.loc 1 284 0
 119 0052 10B1     		cbz	r0, .L27
 120              		.loc 1 285 0
 121 0054 FFF7FEFF 		bl	chSchReadyI
 122              	.LVL9:
 123              		.loc 1 286 0
 124 0058 E563     		str	r5, [r4, #60]
 125              	.L27:
 126              	.LBB6:
 127              		.loc 1 289 0
 128 005a 0023     		movs	r3, #0
 129              	@ 289 "/home/sbcu/Dropbox/pcb-layouts/axo-on-discovery-board/axoloti/platform_linux/../chibios/os/h
 130 005c 83F31188 		msr     BASEPRI, r3
 131              	@ 0 "" 2
 132              		.thumb
 133              	.LBE6:
 134              		.loc 1 292 0
 135 0060 BDE83840 		pop	{r3, r4, r5, lr}
 136              		.cfi_restore 14
 137              		.cfi_restore 5
 138              		.cfi_restore 4
 139              		.cfi_restore 3
 140              		.cfi_def_cfa_offset 0
 141              		.loc 1 291 0
 142 0064 FFF7FEBF 		b	_port_irq_epilogue
 143              	.LVL10:
 144              	.L34:
 145              		.align	2
 146              	.L33:
 147 0068 00000000 		.word	SDCD1
 148 006c 002C0140 		.word	1073818624
 149              		.cfi_endproc
 150              	.LFE135:
 151              		.size	Vector104, .-Vector104
 152              		.align	2
 153              		.p2align 4,,15
 154              		.global	sdc_lld_init
 155              		.thumb
 156              		.thumb_func
 157              		.type	sdc_lld_init, %function
 158              	sdc_lld_init:
 159              	.LFB136:
 160              		.loc 1 303 0
 161              		.cfi_startproc
 162              		@ args = 0, pretend = 0, frame = 0
 163              		@ frame_needed = 0, uses_anonymous_args = 0
 164 0070 10B5     		push	{r4, lr}
 165              		.cfi_def_cfa_offset 8
 166              		.cfi_offset 4, -8
 167              		.cfi_offset 14, -4
 168              		.loc 1 305 0
 169 0072 044C     		ldr	r4, .L37
 170 0074 2046     		mov	r0, r4
 171 0076 FFF7FEFF 		bl	sdcObjectInit
ARM GAS  /tmp/ccBRp8EU.s 			page 4


 172              	.LVL11:
 173              		.loc 1 306 0
 174 007a 0022     		movs	r2, #0
 175              		.loc 1 307 0
 176 007c 024B     		ldr	r3, .L37+4
 177              		.loc 1 306 0
 178 007e E263     		str	r2, [r4, #60]
 179              		.loc 1 307 0
 180 0080 6364     		str	r3, [r4, #68]
 181 0082 10BD     		pop	{r4, pc}
 182              	.L38:
 183              		.align	2
 184              	.L37:
 185 0084 00000000 		.word	SDCD1
 186 0088 A8000000 		.word	_stm32_dma_streams+168
 187              		.cfi_endproc
 188              	.LFE136:
 189              		.size	sdc_lld_init, .-sdc_lld_init
 190              		.align	2
 191 008c AFF30080 		.p2align 4,,15
 192              		.global	sdc_lld_start
 193              		.thumb
 194              		.thumb_func
 195              		.type	sdc_lld_start, %function
 196              	sdc_lld_start:
 197              	.LFB137:
 198              		.loc 1 320 0
 199              		.cfi_startproc
 200              		@ args = 0, pretend = 0, frame = 0
 201              		@ frame_needed = 0, uses_anonymous_args = 0
 202              	.LVL12:
 203              		.loc 1 334 0
 204 0090 0379     		ldrb	r3, [r0, #4]	@ zero_extendqisi2
 205              		.loc 1 329 0
 206 0092 114A     		ldr	r2, .L43
 207              		.loc 1 334 0
 208 0094 012B     		cmp	r3, #1
 209              		.loc 1 320 0
 210 0096 10B5     		push	{r4, lr}
 211              		.cfi_def_cfa_offset 8
 212              		.cfi_offset 4, -8
 213              		.cfi_offset 14, -4
 214              		.loc 1 329 0
 215 0098 0264     		str	r2, [r0, #64]
 216              		.loc 1 334 0
 217 009a 06D0     		beq	.L42
 218              	.LVL13:
 219              	.L40:
 220              		.loc 1 349 0
 221 009c 0F4B     		ldr	r3, .L43+4
 222 009e 0022     		movs	r2, #0
 223 00a0 1A60     		str	r2, [r3]
 224              		.loc 1 350 0
 225 00a2 5A60     		str	r2, [r3, #4]
 226              		.loc 1 351 0
 227 00a4 DA62     		str	r2, [r3, #44]
 228              		.loc 1 352 0
ARM GAS  /tmp/ccBRp8EU.s 			page 5


 229 00a6 5A62     		str	r2, [r3, #36]
 230 00a8 10BD     		pop	{r4, pc}
 231              	.LVL14:
 232              	.L42:
 233              	.LBB7:
 234              		.loc 1 337 0
 235 00aa 0022     		movs	r2, #0
 236 00ac 0446     		mov	r4, r0
 237 00ae 1346     		mov	r3, r2
 238 00b0 0921     		movs	r1, #9
 239 00b2 406C     		ldr	r0, [r0, #68]
 240              	.LVL15:
 241 00b4 FFF7FEFF 		bl	dmaStreamAllocate
 242              	.LVL16:
 243              		.loc 1 339 0
 244 00b8 636C     		ldr	r3, [r4, #68]
 245 00ba 0949     		ldr	r1, .L43+8
 246 00bc 1B68     		ldr	r3, [r3]
 247              		.loc 1 341 0
 248 00be 0722     		movs	r2, #7
 249              		.loc 1 339 0
 250 00c0 9960     		str	r1, [r3, #8]
 251              		.loc 1 343 0
 252 00c2 3120     		movs	r0, #49
 253              		.loc 1 341 0
 254 00c4 5A61     		str	r2, [r3, #20]
 255              		.loc 1 343 0
 256 00c6 9021     		movs	r1, #144
 257 00c8 FFF7FEFF 		bl	nvicEnableVector
 258              	.LVL17:
 259              		.loc 1 345 0
 260 00cc 054A     		ldr	r2, .L43+12
 261 00ce 536C     		ldr	r3, [r2, #68]
 262 00d0 43F40063 		orr	r3, r3, #2048
 263 00d4 5364     		str	r3, [r2, #68]
 264 00d6 E1E7     		b	.L40
 265              	.L44:
 266              		.align	2
 267              	.L43:
 268 00d8 2054A308 		.word	144921632
 269 00dc 002C0140 		.word	1073818624
 270 00e0 802C0140 		.word	1073818752
 271 00e4 00380240 		.word	1073887232
 272              	.LBE7:
 273              		.cfi_endproc
 274              	.LFE137:
 275              		.size	sdc_lld_start, .-sdc_lld_start
 276              		.align	2
 277 00e8 AFF30080 		.p2align 4,,15
 277      AFF30080 
 278              		.global	sdc_lld_stop
 279              		.thumb
 280              		.thumb_func
 281              		.type	sdc_lld_stop, %function
 282              	sdc_lld_stop:
 283              	.LFB138:
 284              		.loc 1 362 0
ARM GAS  /tmp/ccBRp8EU.s 			page 6


 285              		.cfi_startproc
 286              		@ args = 0, pretend = 0, frame = 0
 287              		@ frame_needed = 0, uses_anonymous_args = 0
 288              	.LVL18:
 289              		.loc 1 364 0
 290 00f0 0379     		ldrb	r3, [r0, #4]	@ zero_extendqisi2
 291 00f2 012B     		cmp	r3, #1
 292 00f4 13D0     		beq	.L51
 293              		.loc 1 367 0
 294 00f6 0A4B     		ldr	r3, .L52
 295              		.loc 1 362 0
 296 00f8 10B5     		push	{r4, lr}
 297              		.cfi_def_cfa_offset 8
 298              		.cfi_offset 4, -8
 299              		.cfi_offset 14, -4
 300              		.loc 1 367 0
 301 00fa 0022     		movs	r2, #0
 302 00fc 0446     		mov	r4, r0
 303 00fe 1A60     		str	r2, [r3]
 304              		.loc 1 373 0
 305 0100 3120     		movs	r0, #49
 306              	.LVL19:
 307              		.loc 1 368 0
 308 0102 5A60     		str	r2, [r3, #4]
 309              		.loc 1 369 0
 310 0104 DA62     		str	r2, [r3, #44]
 311              		.loc 1 370 0
 312 0106 5A62     		str	r2, [r3, #36]
 313              		.loc 1 373 0
 314 0108 FFF7FEFF 		bl	nvicDisableVector
 315              	.LVL20:
 316              		.loc 1 374 0
 317 010c 606C     		ldr	r0, [r4, #68]
 318 010e FFF7FEFF 		bl	dmaStreamRelease
 319              	.LVL21:
 320              		.loc 1 375 0
 321 0112 044A     		ldr	r2, .L52+4
 322 0114 536C     		ldr	r3, [r2, #68]
 323 0116 23F40063 		bic	r3, r3, #2048
 324 011a 5364     		str	r3, [r2, #68]
 325 011c 10BD     		pop	{r4, pc}
 326              	.LVL22:
 327              	.L51:
 328              		.cfi_def_cfa_offset 0
 329              		.cfi_restore 4
 330              		.cfi_restore 14
 331 011e 7047     		bx	lr
 332              	.L53:
 333              		.align	2
 334              	.L52:
 335 0120 002C0140 		.word	1073818624
 336 0124 00380240 		.word	1073887232
 337              		.cfi_endproc
 338              	.LFE138:
 339              		.size	sdc_lld_stop, .-sdc_lld_stop
 340              		.align	2
 341 0128 AFF30080 		.p2align 4,,15
ARM GAS  /tmp/ccBRp8EU.s 			page 7


 341      AFF30080 
 342              		.global	sdc_lld_start_clk
 343              		.thumb
 344              		.thumb_func
 345              		.type	sdc_lld_start_clk, %function
 346              	sdc_lld_start_clk:
 347              	.LFB139:
 348              		.loc 1 386 0
 349              		.cfi_startproc
 350              		@ args = 0, pretend = 0, frame = 0
 351              		@ frame_needed = 0, uses_anonymous_args = 0
 352              		@ link register save eliminated.
 353              	.LVL23:
 354              		.loc 1 391 0
 355 0130 064B     		ldr	r3, .L55
 356 0132 7822     		movs	r2, #120
 357 0134 5A60     		str	r2, [r3, #4]
 358              		.loc 1 392 0
 359 0136 1A68     		ldr	r2, [r3]
 360 0138 42F00302 		orr	r2, r2, #3
 361 013c 1A60     		str	r2, [r3]
 362              		.loc 1 393 0
 363 013e 5A68     		ldr	r2, [r3, #4]
 364 0140 42F48072 		orr	r2, r2, #256
 365 0144 5A60     		str	r2, [r3, #4]
 366              		.loc 1 396 0
 367 0146 0A20     		movs	r0, #10
 368              	.LVL24:
 369 0148 FFF7FEBF 		b	chThdSleep
 370              	.LVL25:
 371              	.L56:
 372              		.align	2
 373              	.L55:
 374 014c 002C0140 		.word	1073818624
 375              		.cfi_endproc
 376              	.LFE139:
 377              		.size	sdc_lld_start_clk, .-sdc_lld_start_clk
 378              		.align	2
 379              		.p2align 4,,15
 380              		.global	sdc_lld_set_data_clk
 381              		.thumb
 382              		.thumb_func
 383              		.type	sdc_lld_set_data_clk, %function
 384              	sdc_lld_set_data_clk:
 385              	.LFB140:
 386              		.loc 1 406 0
 387              		.cfi_startproc
 388              		@ args = 0, pretend = 0, frame = 0
 389              		@ frame_needed = 0, uses_anonymous_args = 0
 390              		@ link register save eliminated.
 391              	.LVL26:
 392              		.loc 1 410 0
 393 0150 024A     		ldr	r2, .L58
 394 0152 5368     		ldr	r3, [r2, #4]
 395 0154 23F0FF03 		bic	r3, r3, #255
 396 0158 5360     		str	r3, [r2, #4]
 397 015a 7047     		bx	lr
ARM GAS  /tmp/ccBRp8EU.s 			page 8


 398              	.L59:
 399              		.align	2
 400              	.L58:
 401 015c 002C0140 		.word	1073818624
 402              		.cfi_endproc
 403              	.LFE140:
 404              		.size	sdc_lld_set_data_clk, .-sdc_lld_set_data_clk
 405              		.align	2
 406              		.p2align 4,,15
 407              		.global	sdc_lld_stop_clk
 408              		.thumb
 409              		.thumb_func
 410              		.type	sdc_lld_stop_clk, %function
 411              	sdc_lld_stop_clk:
 412              	.LFB141:
 413              		.loc 1 420 0
 414              		.cfi_startproc
 415              		@ args = 0, pretend = 0, frame = 0
 416              		@ frame_needed = 0, uses_anonymous_args = 0
 417              		@ link register save eliminated.
 418              	.LVL27:
 419              		.loc 1 424 0
 420 0160 024B     		ldr	r3, .L61
 421 0162 0022     		movs	r2, #0
 422 0164 5A60     		str	r2, [r3, #4]
 423              		.loc 1 425 0
 424 0166 1A60     		str	r2, [r3]
 425 0168 7047     		bx	lr
 426              	.L62:
 427 016a 00BF     		.align	2
 428              	.L61:
 429 016c 002C0140 		.word	1073818624
 430              		.cfi_endproc
 431              	.LFE141:
 432              		.size	sdc_lld_stop_clk, .-sdc_lld_stop_clk
 433              		.align	2
 434              		.p2align 4,,15
 435              		.global	sdc_lld_set_bus_mode
 436              		.thumb
 437              		.thumb_func
 438              		.type	sdc_lld_set_bus_mode, %function
 439              	sdc_lld_set_bus_mode:
 440              	.LFB142:
 441              		.loc 1 436 0
 442              		.cfi_startproc
 443              		@ args = 0, pretend = 0, frame = 0
 444              		@ frame_needed = 0, uses_anonymous_args = 0
 445              		@ link register save eliminated.
 446              	.LVL28:
 447              		.loc 1 437 0
 448 0170 084A     		ldr	r2, .L70
 449 0172 5368     		ldr	r3, [r2, #4]
 450              		.loc 1 441 0
 451 0174 0129     		cmp	r1, #1
 452              		.loc 1 437 0
 453 0176 23F4C053 		bic	r3, r3, #6144
 454              	.LVL29:
ARM GAS  /tmp/ccBRp8EU.s 			page 9


 455              		.loc 1 441 0
 456 017a 07D0     		beq	.L65
 457 017c 03D3     		bcc	.L68
 458 017e 0229     		cmp	r1, #2
 459 0180 03D1     		bne	.L69
 460              		.loc 1 449 0
 461 0182 43F48053 		orr	r3, r3, #4096
 462              	.LVL30:
 463              	.L68:
 464 0186 5360     		str	r3, [r2, #4]
 465 0188 7047     		bx	lr
 466              	.LVL31:
 467              	.L69:
 468 018a 7047     		bx	lr
 469              	.L65:
 470              		.loc 1 446 0
 471 018c 43F40063 		orr	r3, r3, #2048
 472              	.LVL32:
 473 0190 5360     		str	r3, [r2, #4]
 474              		.loc 1 447 0
 475 0192 7047     		bx	lr
 476              	.L71:
 477              		.align	2
 478              	.L70:
 479 0194 002C0140 		.word	1073818624
 480              		.cfi_endproc
 481              	.LFE142:
 482              		.size	sdc_lld_set_bus_mode, .-sdc_lld_set_bus_mode
 483              		.align	2
 484 0198 AFF30080 		.p2align 4,,15
 484      AFF30080 
 485              		.global	sdc_lld_send_cmd_none
 486              		.thumb
 487              		.thumb_func
 488              		.type	sdc_lld_send_cmd_none, %function
 489              	sdc_lld_send_cmd_none:
 490              	.LFB143:
 491              		.loc 1 463 0
 492              		.cfi_startproc
 493              		@ args = 0, pretend = 0, frame = 0
 494              		@ frame_needed = 0, uses_anonymous_args = 0
 495              		@ link register save eliminated.
 496              	.LVL33:
 497              		.loc 1 467 0
 498 01a0 064B     		ldr	r3, .L76
 499              		.loc 1 468 0
 500 01a2 41F48061 		orr	r1, r1, #1024
 501              	.LVL34:
 502              		.loc 1 467 0
 503 01a6 9A60     		str	r2, [r3, #8]
 504              		.loc 1 469 0
 505 01a8 1846     		mov	r0, r3
 506              	.LVL35:
 507              		.loc 1 468 0
 508 01aa D960     		str	r1, [r3, #12]
 509              	.LVL36:
 510              	.L73:
ARM GAS  /tmp/ccBRp8EU.s 			page 10


 511              		.loc 1 469 0 discriminator 1
 512 01ac 436B     		ldr	r3, [r0, #52]
 513 01ae 034A     		ldr	r2, .L76
 514 01b0 1B06     		lsls	r3, r3, #24
 515 01b2 FBD5     		bpl	.L73
 516              		.loc 1 471 0
 517 01b4 8023     		movs	r3, #128
 518 01b6 9363     		str	r3, [r2, #56]
 519 01b8 7047     		bx	lr
 520              	.L77:
 521 01ba 00BF     		.align	2
 522              	.L76:
 523 01bc 002C0140 		.word	1073818624
 524              		.cfi_endproc
 525              	.LFE143:
 526              		.size	sdc_lld_send_cmd_none, .-sdc_lld_send_cmd_none
 527              		.align	2
 528              		.p2align 4,,15
 529              		.global	sdc_lld_send_cmd_short
 530              		.thumb
 531              		.thumb_func
 532              		.type	sdc_lld_send_cmd_short, %function
 533              	sdc_lld_send_cmd_short:
 534              	.LFB144:
 535              		.loc 1 490 0
 536              		.cfi_startproc
 537              		@ args = 0, pretend = 0, frame = 0
 538              		@ frame_needed = 0, uses_anonymous_args = 0
 539              	.LVL37:
 540 01c0 38B5     		push	{r3, r4, r5, lr}
 541              		.cfi_def_cfa_offset 16
 542              		.cfi_offset 3, -16
 543              		.cfi_offset 4, -12
 544              		.cfi_offset 5, -8
 545              		.cfi_offset 14, -4
 546              		.loc 1 495 0
 547 01c2 0C4C     		ldr	r4, .L86
 548              		.loc 1 496 0
 549 01c4 41F48861 		orr	r1, r1, #1088
 550              	.LVL38:
 551              		.loc 1 495 0
 552 01c8 A260     		str	r2, [r4, #8]
 553              		.loc 1 497 0
 554 01ca 2546     		mov	r5, r4
 555              		.loc 1 496 0
 556 01cc E160     		str	r1, [r4, #12]
 557              	.LVL39:
 558              	.L79:
 559              		.loc 1 497 0 discriminator 1
 560 01ce 696B     		ldr	r1, [r5, #52]
 561              	.LVL40:
 562 01d0 084A     		ldr	r2, .L86
 563 01d2 11F04504 		ands	r4, r1, #69
 564 01d6 FAD0     		beq	.L79
 565              		.loc 1 500 0
 566 01d8 9463     		str	r4, [r2, #56]
 567              		.loc 1 501 0
ARM GAS  /tmp/ccBRp8EU.s 			page 11


 568 01da 11F00404 		ands	r4, r1, #4
 569 01de 03D1     		bne	.L85
 570              		.loc 1 505 0
 571 01e0 5269     		ldr	r2, [r2, #20]
 572 01e2 1A60     		str	r2, [r3]
 573              		.loc 1 506 0
 574 01e4 2046     		mov	r0, r4
 575              	.LVL41:
 576              		.loc 1 507 0
 577 01e6 38BD     		pop	{r3, r4, r5, pc}
 578              	.LVL42:
 579              	.L85:
 580              		.loc 1 502 0
 581 01e8 3430     		adds	r0, r0, #52
 582              	.LVL43:
 583 01ea FFF709FF 		bl	sdc_lld_collect_errors.isra.0
 584              	.LVL44:
 585              		.loc 1 503 0
 586 01ee 0120     		movs	r0, #1
 587 01f0 38BD     		pop	{r3, r4, r5, pc}
 588              	.L87:
 589 01f2 00BF     		.align	2
 590              	.L86:
 591 01f4 002C0140 		.word	1073818624
 592              		.cfi_endproc
 593              	.LFE144:
 594              		.size	sdc_lld_send_cmd_short, .-sdc_lld_send_cmd_short
 595              		.align	2
 596 01f8 AFF30080 		.p2align 4,,15
 596      AFF30080 
 597              		.global	sdc_lld_send_cmd_short_crc
 598              		.thumb
 599              		.thumb_func
 600              		.type	sdc_lld_send_cmd_short_crc, %function
 601              	sdc_lld_send_cmd_short_crc:
 602              	.LFB145:
 603              		.loc 1 524 0
 604              		.cfi_startproc
 605              		@ args = 0, pretend = 0, frame = 0
 606              		@ frame_needed = 0, uses_anonymous_args = 0
 607              	.LVL45:
 608 0200 38B5     		push	{r3, r4, r5, lr}
 609              		.cfi_def_cfa_offset 16
 610              		.cfi_offset 3, -16
 611              		.cfi_offset 4, -12
 612              		.cfi_offset 5, -8
 613              		.cfi_offset 14, -4
 614              		.loc 1 529 0
 615 0202 0C4C     		ldr	r4, .L96
 616              		.loc 1 530 0
 617 0204 41F48861 		orr	r1, r1, #1088
 618              	.LVL46:
 619              		.loc 1 529 0
 620 0208 A260     		str	r2, [r4, #8]
 621              		.loc 1 531 0
 622 020a 2546     		mov	r5, r4
 623              		.loc 1 530 0
ARM GAS  /tmp/ccBRp8EU.s 			page 12


 624 020c E160     		str	r1, [r4, #12]
 625              	.LVL47:
 626              	.L89:
 627              		.loc 1 531 0 discriminator 1
 628 020e 696B     		ldr	r1, [r5, #52]
 629              	.LVL48:
 630 0210 084A     		ldr	r2, .L96
 631 0212 11F04504 		ands	r4, r1, #69
 632 0216 FAD0     		beq	.L89
 633              		.loc 1 534 0
 634 0218 9463     		str	r4, [r2, #56]
 635              		.loc 1 535 0
 636 021a 11F00504 		ands	r4, r1, #5
 637 021e 03D1     		bne	.L95
 638              		.loc 1 539 0
 639 0220 5269     		ldr	r2, [r2, #20]
 640 0222 1A60     		str	r2, [r3]
 641              		.loc 1 540 0
 642 0224 2046     		mov	r0, r4
 643              	.LVL49:
 644              		.loc 1 541 0
 645 0226 38BD     		pop	{r3, r4, r5, pc}
 646              	.LVL50:
 647              	.L95:
 648              		.loc 1 536 0
 649 0228 3430     		adds	r0, r0, #52
 650              	.LVL51:
 651 022a FFF7E9FE 		bl	sdc_lld_collect_errors.isra.0
 652              	.LVL52:
 653              		.loc 1 537 0
 654 022e 0120     		movs	r0, #1
 655 0230 38BD     		pop	{r3, r4, r5, pc}
 656              	.L97:
 657 0232 00BF     		.align	2
 658              	.L96:
 659 0234 002C0140 		.word	1073818624
 660              		.cfi_endproc
 661              	.LFE145:
 662              		.size	sdc_lld_send_cmd_short_crc, .-sdc_lld_send_cmd_short_crc
 663              		.align	2
 664 0238 AFF30080 		.p2align 4,,15
 664      AFF30080 
 665              		.thumb
 666              		.thumb_func
 667              		.type	sdc_lld_wait_transaction_end, %function
 668              	sdc_lld_wait_transaction_end:
 669              	.LFB132:
 670              		.loc 1 157 0
 671              		.cfi_startproc
 672              		@ args = 0, pretend = 0, frame = 0
 673              		@ frame_needed = 0, uses_anonymous_args = 0
 674              	.LVL53:
 675 0240 2DE9F041 		push	{r4, r5, r6, r7, r8, lr}
 676              		.cfi_def_cfa_offset 24
 677              		.cfi_offset 4, -24
 678              		.cfi_offset 5, -20
 679              		.cfi_offset 6, -16
ARM GAS  /tmp/ccBRp8EU.s 			page 13


 680              		.cfi_offset 7, -12
 681              		.cfi_offset 8, -8
 682              		.cfi_offset 14, -4
 683              	.LBB16:
 684              		.loc 1 161 0
 685 0244 2023     		movs	r3, #32
 686              	.LBE16:
 687              		.loc 1 157 0
 688 0246 0446     		mov	r4, r0
 689 0248 0D46     		mov	r5, r1
 690 024a 1646     		mov	r6, r2
 691              	.LBB17:
 692              		.loc 1 161 0
 693              	@ 161 "/home/sbcu/Dropbox/pcb-layouts/axo-on-discovery-board/axoloti/platform_linux/../chibios/os/h
 694 024c 83F31188 		msr     BASEPRI, r3
 695              	@ 0 "" 2
 696              		.thumb
 697              	.LBE17:
 698              		.loc 1 162 0
 699 0250 194B     		ldr	r3, .L111
 700 0252 DB6B     		ldr	r3, [r3, #60]
 701 0254 4BBB     		cbnz	r3, .L109
 702              	.LVL54:
 703              	.L99:
 704              		.loc 1 170 0
 705 0256 184B     		ldr	r3, .L111
 706 0258 5B6B     		ldr	r3, [r3, #52]
 707 025a 13F48073 		ands	r3, r3, #256
 708 025e 1FD0     		beq	.L110
 709 0260 616C     		ldr	r1, [r4, #68]
 710 0262 0B68     		ldr	r3, [r1]
 711              	.L102:
 712              		.loc 1 177 0 discriminator 1
 713 0264 1A68     		ldr	r2, [r3]
 714 0266 12F00102 		ands	r2, r2, #1
 715 026a FBD1     		bne	.L102
 716              		.loc 1 181 0
 717 026c 91F808E0 		ldrb	lr, [r1, #8]	@ zero_extendqisi2
 718 0270 4F68     		ldr	r7, [r1, #4]
 719              		.loc 1 183 0
 720 0272 1149     		ldr	r1, .L111
 721 0274 1148     		ldr	r0, .L111+4
 722              		.loc 1 181 0
 723 0276 3D23     		movs	r3, #61
 724 0278 03FA0EF3 		lsl	r3, r3, lr
 725 027c 3B60     		str	r3, [r7]
 726              		.loc 1 183 0
 727 027e 8863     		str	r0, [r1, #56]
 728              	.LBB18:
 729              		.loc 1 185 0
 730 0280 1346     		mov	r3, r2
 731              	.LBE18:
 732              		.loc 1 184 0
 733 0282 CA62     		str	r2, [r1, #44]
 734              	.LBB19:
 735              		.loc 1 185 0
 736              	@ 185 "/home/sbcu/Dropbox/pcb-layouts/axo-on-discovery-board/axoloti/platform_linux/../chibios/os/h
ARM GAS  /tmp/ccBRp8EU.s 			page 14


 737 0284 83F31188 		msr     BASEPRI, r3
 738              	@ 0 "" 2
 739              		.thumb
 740              	.LBE19:
 741              		.loc 1 201 0
 742 0288 012D     		cmp	r5, #1
 743 028a 06D9     		bls	.L103
 744              	.LVL55:
 745              	.LBB20:
 746              	.LBB21:
 747              		.loc 1 202 0
 748 028c 2046     		mov	r0, r4
 749 028e 3346     		mov	r3, r6
 750 0290 0C21     		movs	r1, #12
 751              	.LBE21:
 752              	.LBE20:
 753              		.loc 1 205 0
 754 0292 BDE8F041 		pop	{r4, r5, r6, r7, r8, lr}
 755              		.cfi_remember_state
 756              		.cfi_restore 14
 757              		.cfi_restore 8
 758              		.cfi_restore 7
 759              		.cfi_restore 6
 760              		.cfi_restore 5
 761              		.cfi_restore 4
 762              		.cfi_def_cfa_offset 0
 763              	.LVL56:
 764              	.LBB23:
 765              	.LBB22:
 766              		.loc 1 202 0
 767 0296 FFF7FEBF 		b	sdc_lld_send_cmd_short_crc
 768              	.LVL57:
 769              	.L103:
 770              		.cfi_restore_state
 771              	.LBE22:
 772              	.LBE23:
 773              		.loc 1 204 0
 774 029a 1046     		mov	r0, r2
 775              		.loc 1 205 0
 776 029c BDE8F081 		pop	{r4, r5, r6, r7, r8, pc}
 777              	.LVL58:
 778              	.L110:
 779              	.LBB24:
 780              		.loc 1 171 0
 781              	@ 171 "/home/sbcu/Dropbox/pcb-layouts/axo-on-discovery-board/axoloti/platform_linux/../chibios/os/h
 782 02a0 83F31188 		msr     BASEPRI, r3
 783              	@ 0 "" 2
 784              		.thumb
 785              	.LBE24:
 786              		.loc 1 172 0
 787 02a4 0120     		movs	r0, #1
 788 02a6 BDE8F081 		pop	{r4, r5, r6, r7, r8, pc}
 789              	.LVL59:
 790              	.L109:
 791              		.loc 1 165 0
 792 02aa 054B     		ldr	r3, .L111+8
 793 02ac 9B69     		ldr	r3, [r3, #24]
ARM GAS  /tmp/ccBRp8EU.s 			page 15


 794 02ae C363     		str	r3, [r0, #60]
 795              		.loc 1 166 0
 796 02b0 0220     		movs	r0, #2
 797              	.LVL60:
 798 02b2 FFF7FEFF 		bl	chSchGoSleepS
 799              	.LVL61:
 800 02b6 CEE7     		b	.L99
 801              	.L112:
 802              		.align	2
 803              	.L111:
 804 02b8 002C0140 		.word	1073818624
 805 02bc FF07C000 		.word	12584959
 806 02c0 00000000 		.word	rlist
 807              		.cfi_endproc
 808              	.LFE132:
 809              		.size	sdc_lld_wait_transaction_end, .-sdc_lld_wait_transaction_end
 810              		.align	2
 811 02c4 AFF30080 		.p2align 4,,15
 811      AFF30080 
 811      AFF30080 
 812              		.thumb
 813              		.thumb_func
 814              		.type	sdc_lld_error_cleanup, %function
 815              	sdc_lld_error_cleanup:
 816              	.LFB134:
 817              		.loc 1 247 0
 818              		.cfi_startproc
 819              		@ args = 0, pretend = 0, frame = 0
 820              		@ frame_needed = 0, uses_anonymous_args = 0
 821              	.LVL62:
 822 02d0 2DE9F041 		push	{r4, r5, r6, r7, r8, lr}
 823              		.cfi_def_cfa_offset 24
 824              		.cfi_offset 4, -24
 825              		.cfi_offset 5, -20
 826              		.cfi_offset 6, -16
 827              		.cfi_offset 7, -12
 828              		.cfi_offset 8, -8
 829              		.cfi_offset 14, -4
 830              		.loc 1 247 0
 831 02d4 0646     		mov	r6, r0
 832              		.loc 1 250 0
 833 02d6 406C     		ldr	r0, [r0, #68]
 834              	.LVL63:
 835              		.loc 1 248 0
 836 02d8 184F     		ldr	r7, .L118
 837              		.loc 1 250 0
 838 02da 057A     		ldrb	r5, [r0, #8]	@ zero_extendqisi2
 839              		.loc 1 248 0
 840 02dc D7F834C0 		ldr	ip, [r7, #52]
 841              	.LVL64:
 842              		.loc 1 251 0
 843 02e0 90E80840 		ldmia	r0, {r3, lr}
 844              		.loc 1 250 0
 845 02e4 3D24     		movs	r4, #61
 846 02e6 AC40     		lsls	r4, r4, r5
 847 02e8 CEF80040 		str	r4, [lr]
 848              		.loc 1 251 0
ARM GAS  /tmp/ccBRp8EU.s 			page 16


 849 02ec 1C68     		ldr	r4, [r3]
 850 02ee 24F01F04 		bic	r4, r4, #31
 851              		.loc 1 247 0
 852 02f2 0F46     		mov	r7, r1
 853 02f4 1546     		mov	r5, r2
 854              		.loc 1 251 0
 855 02f6 1C60     		str	r4, [r3]
 856              	.LVL65:
 857              	.L114:
 858              		.loc 1 251 0 is_stmt 0 discriminator 2
 859 02f8 1A68     		ldr	r2, [r3]
 860 02fa 12F00104 		ands	r4, r2, #1
 861 02fe FBD1     		bne	.L114
 862              		.loc 1 251 0 discriminator 3
 863 0300 017A     		ldrb	r1, [r0, #8]	@ zero_extendqisi2
 864              	.LVL66:
 865              		.loc 1 252 0 is_stmt 1 discriminator 3
 866 0302 0E4B     		ldr	r3, .L118
 867 0304 DFF83880 		ldr	r8, .L118+4
 868              		.loc 1 251 0 discriminator 3
 869 0308 3D22     		movs	r2, #61
 870 030a 8A40     		lsls	r2, r2, r1
 871 030c CEF80020 		str	r2, [lr]
 872              		.loc 1 255 0 discriminator 3
 873 0310 6146     		mov	r1, ip
 874              		.loc 1 252 0 discriminator 3
 875 0312 C3F83880 		str	r8, [r3, #56]
 876              		.loc 1 255 0 discriminator 3
 877 0316 06F13400 		add	r0, r6, #52
 878              		.loc 1 253 0 discriminator 3
 879 031a DC63     		str	r4, [r3, #60]
 880              		.loc 1 254 0 discriminator 3
 881 031c DC62     		str	r4, [r3, #44]
 882              		.loc 1 255 0 discriminator 3
 883 031e FFF76FFE 		bl	sdc_lld_collect_errors.isra.0
 884              	.LVL67:
 885              		.loc 1 256 0 discriminator 3
 886 0322 012F     		cmp	r7, #1
 887 0324 07D9     		bls	.L113
 888              	.LVL68:
 889              	.LBB27:
 890              	.LBB28:
 891              		.loc 1 257 0
 892 0326 3046     		mov	r0, r6
 893 0328 2246     		mov	r2, r4
 894 032a 2B46     		mov	r3, r5
 895 032c 0C21     		movs	r1, #12
 896              	.LBE28:
 897              	.LBE27:
 898              		.loc 1 258 0
 899 032e BDE8F041 		pop	{r4, r5, r6, r7, r8, lr}
 900              		.cfi_remember_state
 901              		.cfi_restore 14
 902              		.cfi_restore 8
 903              		.cfi_restore 7
 904              		.cfi_restore 6
 905              		.cfi_restore 5
ARM GAS  /tmp/ccBRp8EU.s 			page 17


 906              		.cfi_restore 4
 907              		.cfi_def_cfa_offset 0
 908              	.LVL69:
 909              	.LBB30:
 910              	.LBB29:
 911              		.loc 1 257 0
 912 0332 FFF7FEBF 		b	sdc_lld_send_cmd_short_crc
 913              	.LVL70:
 914              	.L113:
 915              		.cfi_restore_state
 916 0336 BDE8F081 		pop	{r4, r5, r6, r7, r8, pc}
 917              	.LVL71:
 918              	.L119:
 919 033a 00BF     		.align	2
 920              	.L118:
 921 033c 002C0140 		.word	1073818624
 922 0340 FF07C000 		.word	12584959
 923              	.LBE29:
 924              	.LBE30:
 925              		.cfi_endproc
 926              	.LFE134:
 927              		.size	sdc_lld_error_cleanup, .-sdc_lld_error_cleanup
 928              		.align	2
 929 0344 AFF30080 		.p2align 4,,15
 929      AFF30080 
 929      AFF30080 
 930              		.global	sdc_lld_send_cmd_long_crc
 931              		.thumb
 932              		.thumb_func
 933              		.type	sdc_lld_send_cmd_long_crc, %function
 934              	sdc_lld_send_cmd_long_crc:
 935              	.LFB146:
 936              		.loc 1 558 0
 937              		.cfi_startproc
 938              		@ args = 0, pretend = 0, frame = 0
 939              		@ frame_needed = 0, uses_anonymous_args = 0
 940              	.LVL72:
 941 0350 38B5     		push	{r3, r4, r5, lr}
 942              		.cfi_def_cfa_offset 16
 943              		.cfi_offset 3, -16
 944              		.cfi_offset 4, -12
 945              		.cfi_offset 5, -8
 946              		.cfi_offset 14, -4
 947              		.loc 1 563 0
 948 0352 0F4C     		ldr	r4, .L128
 949              		.loc 1 564 0
 950 0354 41F49861 		orr	r1, r1, #1216
 951              	.LVL73:
 952              		.loc 1 563 0
 953 0358 A260     		str	r2, [r4, #8]
 954              		.loc 1 566 0
 955 035a 2546     		mov	r5, r4
 956              		.loc 1 564 0
 957 035c E160     		str	r1, [r4, #12]
 958              	.LVL74:
 959              	.L121:
 960              		.loc 1 566 0 discriminator 1
ARM GAS  /tmp/ccBRp8EU.s 			page 18


 961 035e 696B     		ldr	r1, [r5, #52]
 962              	.LVL75:
 963 0360 0B4A     		ldr	r2, .L128
 964 0362 11F04504 		ands	r4, r1, #69
 965 0366 FAD0     		beq	.L121
 966              		.loc 1 569 0
 967 0368 9463     		str	r4, [r2, #56]
 968              		.loc 1 570 0
 969 036a 11F03F04 		ands	r4, r1, #63
 970 036e 09D1     		bne	.L127
 971              	.LVL76:
 972              		.loc 1 575 0
 973 0370 116A     		ldr	r1, [r2, #32]
 974              	.LVL77:
 975 0372 1960     		str	r1, [r3]
 976              	.LVL78:
 977              		.loc 1 576 0
 978 0374 D169     		ldr	r1, [r2, #28]
 979 0376 5960     		str	r1, [r3, #4]
 980              	.LVL79:
 981              		.loc 1 577 0
 982 0378 9169     		ldr	r1, [r2, #24]
 983 037a 9960     		str	r1, [r3, #8]
 984              		.loc 1 578 0
 985 037c 5269     		ldr	r2, [r2, #20]
 986 037e DA60     		str	r2, [r3, #12]
 987              		.loc 1 579 0
 988 0380 2046     		mov	r0, r4
 989              	.LVL80:
 990              		.loc 1 580 0
 991 0382 38BD     		pop	{r3, r4, r5, pc}
 992              	.LVL81:
 993              	.L127:
 994              		.loc 1 571 0
 995 0384 3430     		adds	r0, r0, #52
 996              	.LVL82:
 997 0386 FFF73BFE 		bl	sdc_lld_collect_errors.isra.0
 998              	.LVL83:
 999              		.loc 1 572 0
 1000 038a 0120     		movs	r0, #1
 1001 038c 38BD     		pop	{r3, r4, r5, pc}
 1002              	.L129:
 1003 038e 00BF     		.align	2
 1004              	.L128:
 1005 0390 002C0140 		.word	1073818624
 1006              		.cfi_endproc
 1007              	.LFE146:
 1008              		.size	sdc_lld_send_cmd_long_crc, .-sdc_lld_send_cmd_long_crc
 1009              		.align	2
 1010 0394 AFF30080 		.p2align 4,,15
 1010      AFF30080 
 1010      AFF30080 
 1011              		.global	sdc_lld_read_aligned
 1012              		.thumb
 1013              		.thumb_func
 1014              		.type	sdc_lld_read_aligned, %function
 1015              	sdc_lld_read_aligned:
ARM GAS  /tmp/ccBRp8EU.s 			page 19


 1016              	.LFB147:
 1017              		.loc 1 597 0
 1018              		.cfi_startproc
 1019              		@ args = 0, pretend = 0, frame = 8
 1020              		@ frame_needed = 0, uses_anonymous_args = 0
 1021              	.LVL84:
 1022 03a0 2DE9F041 		push	{r4, r5, r6, r7, r8, lr}
 1023              		.cfi_def_cfa_offset 24
 1024              		.cfi_offset 4, -24
 1025              		.cfi_offset 5, -20
 1026              		.cfi_offset 6, -16
 1027              		.cfi_offset 7, -12
 1028              		.cfi_offset 8, -8
 1029              		.cfi_offset 14, -4
 1030              		.loc 1 602 0
 1031 03a4 264C     		ldr	r4, .L142
 1032 03a6 274D     		ldr	r5, .L142+4
 1033 03a8 6562     		str	r5, [r4, #36]
 1034              		.loc 1 597 0
 1035 03aa 82B0     		sub	sp, sp, #8
 1036              		.cfi_def_cfa_offset 32
 1037              		.loc 1 597 0
 1038 03ac 0F46     		mov	r7, r1
 1039 03ae 9046     		mov	r8, r2
 1040 03b0 1E46     		mov	r6, r3
 1041 03b2 0546     		mov	r5, r0
 1042              		.loc 1 605 0
 1043 03b4 FFF7FEFF 		bl	_sdc_wait_for_transfer_state
 1044              	.LVL85:
 1045 03b8 10B1     		cbz	r0, .L141
 1046              	.LVL86:
 1047              	.L138:
 1048              		.loc 1 642 0
 1049 03ba 02B0     		add	sp, sp, #8
 1050              		.cfi_remember_state
 1051              		.cfi_def_cfa_offset 24
 1052              		@ sp needed
 1053 03bc BDE8F081 		pop	{r4, r5, r6, r7, r8, pc}
 1054              	.LVL87:
 1055              	.L141:
 1056              		.cfi_restore_state
 1057              	.LBB35:
 1058              	.LBB36:
 1059              		.loc 1 609 0
 1060 03c0 6B6C     		ldr	r3, [r5, #68]
 1061              		.loc 1 612 0
 1062 03c2 2A6C     		ldr	r2, [r5, #64]
 1063              		.loc 1 609 0
 1064 03c4 1B68     		ldr	r3, [r3]
 1065              		.loc 1 616 0
 1066 03c6 DFF884C0 		ldr	ip, .L142+12
 1067              		.loc 1 609 0
 1068 03ca C3F80C80 		str	r8, [r3, #12]
 1069              		.loc 1 610 0
 1070 03ce 7102     		lsls	r1, r6, #9
 1071 03d0 8808     		lsrs	r0, r1, #2
 1072 03d2 5860     		str	r0, [r3, #4]
ARM GAS  /tmp/ccBRp8EU.s 			page 20


 1073              		.loc 1 612 0
 1074 03d4 1A60     		str	r2, [r3]
 1075              		.loc 1 613 0
 1076 03d6 1A68     		ldr	r2, [r3]
 1077              		.loc 1 625 0
 1078 03d8 9B20     		movs	r0, #155
 1079              		.loc 1 613 0
 1080 03da 42F00102 		orr	r2, r2, #1
 1081              		.loc 1 617 0
 1082 03de 40F22A3E 		movw	lr, #810
 1083              		.loc 1 613 0
 1084 03e2 1A60     		str	r2, [r3]
 1085              		.loc 1 616 0
 1086 03e4 C4F838C0 		str	ip, [r4, #56]
 1087              		.loc 1 617 0
 1088 03e8 C4F83CE0 		str	lr, [r4, #60]
 1089              		.loc 1 622 0
 1090 03ec A162     		str	r1, [r4, #40]
 1091              		.loc 1 625 0
 1092 03ee E062     		str	r0, [r4, #44]
 1093              	.LVL88:
 1094              	.LBB37:
 1095              	.LBB38:
 1096              		.loc 1 88 0
 1097 03f0 2B6B     		ldr	r3, [r5, #48]
 1098 03f2 DB06     		lsls	r3, r3, #27
 1099              		.loc 1 89 0
 1100 03f4 58BF     		it	pl
 1101 03f6 7F02     		lslpl	r7, r7, #9
 1102              	.LVL89:
 1103              		.loc 1 93 0
 1104 03f8 01AC     		add	r4, sp, #4
 1105              	.LVL90:
 1106              		.loc 1 91 0
 1107 03fa 012E     		cmp	r6, #1
 1108              		.loc 1 93 0
 1109 03fc 3A46     		mov	r2, r7
 1110 03fe 2346     		mov	r3, r4
 1111 0400 2846     		mov	r0, r5
 1112              		.loc 1 91 0
 1113 0402 17D9     		bls	.L133
 1114              	.LVL91:
 1115              		.loc 1 93 0
 1116 0404 1221     		movs	r1, #18
 1117 0406 FFF7FEFF 		bl	sdc_lld_send_cmd_short_crc
 1118              	.LVL92:
 1119 040a 50B9     		cbnz	r0, .L136
 1120              	.L140:
 1121              		.loc 1 100 0
 1122 040c 019A     		ldr	r2, [sp, #4]
 1123 040e 0E4B     		ldr	r3, .L142+8
 1124 0410 1340     		ands	r3, r3, r2
 1125 0412 33B9     		cbnz	r3, .L136
 1126              	.LBE38:
 1127              	.LBE37:
 1128              		.loc 1 634 0
 1129 0414 2846     		mov	r0, r5
ARM GAS  /tmp/ccBRp8EU.s 			page 21


 1130 0416 3146     		mov	r1, r6
 1131 0418 2246     		mov	r2, r4
 1132 041a FFF711FF 		bl	sdc_lld_wait_transaction_end
 1133              	.LVL93:
 1134 041e 0028     		cmp	r0, #0
 1135 0420 CBD0     		beq	.L138
 1136              	.L136:
 1137              		.loc 1 640 0
 1138 0422 2846     		mov	r0, r5
 1139 0424 3146     		mov	r1, r6
 1140 0426 2246     		mov	r2, r4
 1141 0428 FFF752FF 		bl	sdc_lld_error_cleanup
 1142              	.LVL94:
 1143              		.loc 1 641 0
 1144 042c 0120     		movs	r0, #1
 1145              	.LBE36:
 1146              	.LBE35:
 1147              		.loc 1 642 0
 1148 042e 02B0     		add	sp, sp, #8
 1149              		.cfi_remember_state
 1150              		.cfi_def_cfa_offset 24
 1151              		@ sp needed
 1152 0430 BDE8F081 		pop	{r4, r5, r6, r7, r8, pc}
 1153              	.LVL95:
 1154              	.L133:
 1155              		.cfi_restore_state
 1156              	.LBB42:
 1157              	.LBB41:
 1158              	.LBB40:
 1159              	.LBB39:
 1160              		.loc 1 99 0
 1161 0434 1121     		movs	r1, #17
 1162 0436 FFF7FEFF 		bl	sdc_lld_send_cmd_short_crc
 1163              	.LVL96:
 1164 043a 0028     		cmp	r0, #0
 1165 043c E6D0     		beq	.L140
 1166 043e F0E7     		b	.L136
 1167              	.L143:
 1168              		.align	2
 1169              	.L142:
 1170 0440 002C0140 		.word	1073818624
 1171 0444 C0270900 		.word	600000
 1172 0448 08E0FFFD 		.word	-33562616
 1173 044c FF07C000 		.word	12584959
 1174              	.LBE39:
 1175              	.LBE40:
 1176              	.LBE41:
 1177              	.LBE42:
 1178              		.cfi_endproc
 1179              	.LFE147:
 1180              		.size	sdc_lld_read_aligned, .-sdc_lld_read_aligned
 1181              		.align	2
 1182              		.p2align 4,,15
 1183              		.global	sdc_lld_write_aligned
 1184              		.thumb
 1185              		.thumb_func
 1186              		.type	sdc_lld_write_aligned, %function
ARM GAS  /tmp/ccBRp8EU.s 			page 22


 1187              	sdc_lld_write_aligned:
 1188              	.LFB148:
 1189              		.loc 1 659 0
 1190              		.cfi_startproc
 1191              		@ args = 0, pretend = 0, frame = 8
 1192              		@ frame_needed = 0, uses_anonymous_args = 0
 1193              	.LVL97:
 1194 0450 2DE9F041 		push	{r4, r5, r6, r7, r8, lr}
 1195              		.cfi_def_cfa_offset 24
 1196              		.cfi_offset 4, -24
 1197              		.cfi_offset 5, -20
 1198              		.cfi_offset 6, -16
 1199              		.cfi_offset 7, -12
 1200              		.cfi_offset 8, -8
 1201              		.cfi_offset 14, -4
 1202              		.loc 1 664 0
 1203 0454 274C     		ldr	r4, .L156
 1204 0456 284D     		ldr	r5, .L156+4
 1205 0458 6562     		str	r5, [r4, #36]
 1206              		.loc 1 659 0
 1207 045a 82B0     		sub	sp, sp, #8
 1208              		.cfi_def_cfa_offset 32
 1209              		.loc 1 659 0
 1210 045c 0F46     		mov	r7, r1
 1211 045e 9046     		mov	r8, r2
 1212 0460 1E46     		mov	r6, r3
 1213 0462 0546     		mov	r5, r0
 1214              		.loc 1 667 0
 1215 0464 FFF7FEFF 		bl	_sdc_wait_for_transfer_state
 1216              	.LVL98:
 1217 0468 10B1     		cbz	r0, .L155
 1218              	.LVL99:
 1219              	.L152:
 1220              		.loc 1 703 0
 1221 046a 02B0     		add	sp, sp, #8
 1222              		.cfi_remember_state
 1223              		.cfi_def_cfa_offset 24
 1224              		@ sp needed
 1225 046c BDE8F081 		pop	{r4, r5, r6, r7, r8, pc}
 1226              	.LVL100:
 1227              	.L155:
 1228              		.cfi_restore_state
 1229              	.LBB47:
 1230              	.LBB48:
 1231              		.loc 1 671 0
 1232 0470 6B6C     		ldr	r3, [r5, #68]
 1233              		.loc 1 674 0
 1234 0472 2A6C     		ldr	r2, [r5, #64]
 1235              		.loc 1 671 0
 1236 0474 1B68     		ldr	r3, [r3]
 1237              		.loc 1 678 0
 1238 0476 DFF888E0 		ldr	lr, .L156+12
 1239              		.loc 1 671 0
 1240 047a C3F80C80 		str	r8, [r3, #12]
 1241              		.loc 1 672 0
 1242 047e 7102     		lsls	r1, r6, #9
 1243 0480 8808     		lsrs	r0, r1, #2
ARM GAS  /tmp/ccBRp8EU.s 			page 23


 1244              		.loc 1 674 0
 1245 0482 42F04002 		orr	r2, r2, #64
 1246              		.loc 1 672 0
 1247 0486 5860     		str	r0, [r3, #4]
 1248              		.loc 1 674 0
 1249 0488 1A60     		str	r2, [r3]
 1250              		.loc 1 675 0
 1251 048a 1A68     		ldr	r2, [r3]
 1252              		.loc 1 679 0
 1253 048c 40F21A30 		movw	r0, #794
 1254              		.loc 1 675 0
 1255 0490 42F00102 		orr	r2, r2, #1
 1256 0494 1A60     		str	r2, [r3]
 1257              		.loc 1 678 0
 1258 0496 C4F838E0 		str	lr, [r4, #56]
 1259              		.loc 1 679 0
 1260 049a E063     		str	r0, [r4, #60]
 1261              		.loc 1 684 0
 1262 049c A162     		str	r1, [r4, #40]
 1263              	.LVL101:
 1264              	.LBB49:
 1265              	.LBB50:
 1266              		.loc 1 126 0
 1267 049e 2B6B     		ldr	r3, [r5, #48]
 1268 04a0 DB06     		lsls	r3, r3, #27
 1269              		.loc 1 127 0
 1270 04a2 58BF     		it	pl
 1271 04a4 7F02     		lslpl	r7, r7, #9
 1272              	.LVL102:
 1273              		.loc 1 131 0
 1274 04a6 01AC     		add	r4, sp, #4
 1275              	.LVL103:
 1276              		.loc 1 129 0
 1277 04a8 012E     		cmp	r6, #1
 1278              		.loc 1 131 0
 1279 04aa 3A46     		mov	r2, r7
 1280 04ac 2346     		mov	r3, r4
 1281 04ae 2846     		mov	r0, r5
 1282              		.loc 1 129 0
 1283 04b0 1AD9     		bls	.L147
 1284              	.LVL104:
 1285              		.loc 1 131 0
 1286 04b2 1921     		movs	r1, #25
 1287 04b4 FFF7FEFF 		bl	sdc_lld_send_cmd_short_crc
 1288              	.LVL105:
 1289 04b8 68B9     		cbnz	r0, .L150
 1290              	.L154:
 1291              		.loc 1 138 0
 1292 04ba 019A     		ldr	r2, [sp, #4]
 1293 04bc 0F4B     		ldr	r3, .L156+8
 1294 04be 1340     		ands	r3, r3, r2
 1295 04c0 4BB9     		cbnz	r3, .L150
 1296              	.LBE50:
 1297              	.LBE49:
 1298              		.loc 1 691 0
 1299 04c2 0C4B     		ldr	r3, .L156
 1300 04c4 9922     		movs	r2, #153
ARM GAS  /tmp/ccBRp8EU.s 			page 24


 1301 04c6 DA62     		str	r2, [r3, #44]
 1302              		.loc 1 695 0
 1303 04c8 2846     		mov	r0, r5
 1304 04ca 3146     		mov	r1, r6
 1305 04cc 2246     		mov	r2, r4
 1306 04ce FFF7B7FE 		bl	sdc_lld_wait_transaction_end
 1307              	.LVL106:
 1308 04d2 0028     		cmp	r0, #0
 1309 04d4 C9D0     		beq	.L152
 1310              	.L150:
 1311              		.loc 1 701 0
 1312 04d6 2846     		mov	r0, r5
 1313 04d8 3146     		mov	r1, r6
 1314 04da 2246     		mov	r2, r4
 1315 04dc FFF7F8FE 		bl	sdc_lld_error_cleanup
 1316              	.LVL107:
 1317              		.loc 1 702 0
 1318 04e0 0120     		movs	r0, #1
 1319              	.LBE48:
 1320              	.LBE47:
 1321              		.loc 1 703 0
 1322 04e2 02B0     		add	sp, sp, #8
 1323              		.cfi_remember_state
 1324              		.cfi_def_cfa_offset 24
 1325              		@ sp needed
 1326 04e4 BDE8F081 		pop	{r4, r5, r6, r7, r8, pc}
 1327              	.LVL108:
 1328              	.L147:
 1329              		.cfi_restore_state
 1330              	.LBB54:
 1331              	.LBB53:
 1332              	.LBB52:
 1333              	.LBB51:
 1334              		.loc 1 137 0
 1335 04e8 1821     		movs	r1, #24
 1336 04ea FFF7FEFF 		bl	sdc_lld_send_cmd_short_crc
 1337              	.LVL109:
 1338 04ee 0028     		cmp	r0, #0
 1339 04f0 E3D0     		beq	.L154
 1340 04f2 F0E7     		b	.L150
 1341              	.L157:
 1342              		.align	2
 1343              	.L156:
 1344 04f4 002C0140 		.word	1073818624
 1345 04f8 808D5B00 		.word	6000000
 1346 04fc 08E0FFFD 		.word	-33562616
 1347 0500 FF07C000 		.word	12584959
 1348              	.LBE51:
 1349              	.LBE52:
 1350              	.LBE53:
 1351              	.LBE54:
 1352              		.cfi_endproc
 1353              	.LFE148:
 1354              		.size	sdc_lld_write_aligned, .-sdc_lld_write_aligned
 1355              		.align	2
 1356 0504 AFF30080 		.p2align 4,,15
 1356      AFF30080 
ARM GAS  /tmp/ccBRp8EU.s 			page 25


 1356      AFF30080 
 1357              		.global	sdc_lld_read
 1358              		.thumb
 1359              		.thumb_func
 1360              		.type	sdc_lld_read, %function
 1361              	sdc_lld_read:
 1362              	.LFB149:
 1363              		.loc 1 720 0
 1364              		.cfi_startproc
 1365              		@ args = 0, pretend = 0, frame = 0
 1366              		@ frame_needed = 0, uses_anonymous_args = 0
 1367              		@ link register save eliminated.
 1368              	.LVL110:
 1369              		.loc 1 735 0
 1370 0510 FFF7FEBF 		b	sdc_lld_read_aligned
 1371              	.LVL111:
 1372              		.cfi_endproc
 1373              	.LFE149:
 1374              		.size	sdc_lld_read, .-sdc_lld_read
 1375              		.align	2
 1376 0514 AFF30080 		.p2align 4,,15
 1376      AFF30080 
 1376      AFF30080 
 1377              		.global	sdc_lld_write
 1378              		.thumb
 1379              		.thumb_func
 1380              		.type	sdc_lld_write, %function
 1381              	sdc_lld_write:
 1382              	.LFB150:
 1383              		.loc 1 753 0
 1384              		.cfi_startproc
 1385              		@ args = 0, pretend = 0, frame = 0
 1386              		@ frame_needed = 0, uses_anonymous_args = 0
 1387              		@ link register save eliminated.
 1388              	.LVL112:
 1389              		.loc 1 768 0
 1390 0520 FFF7FEBF 		b	sdc_lld_write_aligned
 1391              	.LVL113:
 1392              		.cfi_endproc
 1393              	.LFE150:
 1394              		.size	sdc_lld_write, .-sdc_lld_write
 1395              		.align	2
 1396 0524 AFF30080 		.p2align 4,,15
 1396      AFF30080 
 1396      AFF30080 
 1397              		.global	sdc_lld_sync
 1398              		.thumb
 1399              		.thumb_func
 1400              		.type	sdc_lld_sync, %function
 1401              	sdc_lld_sync:
 1402              	.LFB151:
 1403              		.loc 1 782 0
 1404              		.cfi_startproc
 1405              		@ args = 0, pretend = 0, frame = 0
 1406              		@ frame_needed = 0, uses_anonymous_args = 0
 1407              		@ link register save eliminated.
 1408              	.LVL114:
ARM GAS  /tmp/ccBRp8EU.s 			page 26


 1409              		.loc 1 787 0
 1410 0530 0020     		movs	r0, #0
 1411              	.LVL115:
 1412 0532 7047     		bx	lr
 1413              		.cfi_endproc
 1414              	.LFE151:
 1415              		.size	sdc_lld_sync, .-sdc_lld_sync
 1416              		.comm	SDCD1,72,4
 1417              	.Letext0:
 1418              		.file 2 "/home/sbcu/Dropbox/pcb-layouts/axo-on-discovery-board/axoloti/platform_linux/arm-none-eab
 1419              		.file 3 "/home/sbcu/Dropbox/pcb-layouts/axo-on-discovery-board/axoloti/platform_linux/arm-none-eab
 1420              		.file 4 "/home/sbcu/Dropbox/pcb-layouts/axo-on-discovery-board/axoloti/platform_linux/../chibios/o
 1421              		.file 5 "/home/sbcu/Dropbox/pcb-layouts/axo-on-discovery-board/axoloti/platform_linux/../chibios/o
 1422              		.file 6 "/home/sbcu/Dropbox/pcb-layouts/axo-on-discovery-board/axoloti/platform_linux/../chibios/o
 1423              		.file 7 "/home/sbcu/Dropbox/pcb-layouts/axo-on-discovery-board/axoloti/platform_linux/../chibios/o
 1424              		.file 8 "/home/sbcu/Dropbox/pcb-layouts/axo-on-discovery-board/axoloti/platform_linux/../chibios/o
 1425              		.file 9 "/home/sbcu/Dropbox/pcb-layouts/axo-on-discovery-board/axoloti/platform_linux/../chibios/o
 1426              		.file 10 "/home/sbcu/Dropbox/pcb-layouts/axo-on-discovery-board/axoloti/platform_linux/../chibios/
 1427              		.file 11 "/home/sbcu/Dropbox/pcb-layouts/axo-on-discovery-board/axoloti/platform_linux/../chibios/
 1428              		.file 12 "/home/sbcu/Dropbox/pcb-layouts/axo-on-discovery-board/axoloti/platform_linux/../chibios/
 1429              		.file 13 "/home/sbcu/Dropbox/pcb-layouts/axo-on-discovery-board/axoloti/platform_linux/../chibios/
 1430              		.file 14 "/home/sbcu/Dropbox/pcb-layouts/axo-on-discovery-board/axoloti/platform_linux/../CMSIS//I
 1431              		.file 15 "/home/sbcu/Dropbox/pcb-layouts/axo-on-discovery-board/axoloti/platform_linux/../chibios/
 1432              		.file 16 "/home/sbcu/Dropbox/pcb-layouts/axo-on-discovery-board/axoloti/platform_linux/../chibios/