ARM GAS  /tmp/ccWjEWtc.s 			page 1


   1              		.syntax unified
   2              		.cpu cortex-m4
   3              		.eabi_attribute 27, 1
   4              		.eabi_attribute 28, 1
   5              		.fpu fpv4-sp-d16
   6              		.eabi_attribute 20, 1
   7              		.eabi_attribute 21, 1
   8              		.eabi_attribute 23, 3
   9              		.eabi_attribute 24, 1
  10              		.eabi_attribute 25, 1
  11              		.eabi_attribute 26, 1
  12              		.eabi_attribute 30, 2
  13              		.eabi_attribute 34, 1
  14              		.eabi_attribute 18, 4
  15              		.thumb
  16              		.file	"sdcard.c"
  17              		.text
  18              	.Ltext0:
  19              		.cfi_sections	.debug_frame
  20              		.align	2
  21              		.p2align 4,,15
  22              		.thumb
  23              		.thumb_func
  24              		.type	InsertHandler.isra.1, %function
  25              	InsertHandler.isra.1:
  26              	.LFB140:
  27              		.file 1 "sdcard.c"
  28              		.loc 1 111 0
  29              		.cfi_startproc
  30              		@ args = 0, pretend = 0, frame = 0
  31              		@ frame_needed = 0, uses_anonymous_args = 0
  32              	.LVL0:
  33 0000 10B5     		push	{r4, lr}
  34              		.cfi_def_cfa_offset 8
  35              		.cfi_offset 4, -8
  36              		.cfi_offset 14, -4
  37              		.loc 1 118 0
  38 0002 0D4C     		ldr	r4, .L13
  39 0004 2378     		ldrb	r3, [r4]	@ zero_extendqisi2
  40 0006 5BB9     		cbnz	r3, .L10
  41              	.L2:
  42              		.loc 1 123 0
  43 0008 0C48     		ldr	r0, .L13+4
  44 000a FFF7FEFF 		bl	sdcConnect
  45              	.LVL1:
  46 000e 00B1     		cbz	r0, .L11
  47 0010 10BD     		pop	{r4, pc}
  48              	.L11:
  49              	.LBB6:
  50              	.LBB7:
  51              		.loc 1 126 0
  52 0012 0B49     		ldr	r1, .L13+8
  53 0014 FFF7FEFF 		bl	f_mount
  54              	.LVL2:
  55              		.loc 1 127 0
  56 0018 40B9     		cbnz	r0, .L12
  57              		.loc 1 131 0
ARM GAS  /tmp/ccWjEWtc.s 			page 2


  58 001a 0123     		movs	r3, #1
  59 001c 2370     		strb	r3, [r4]
  60 001e 10BD     		pop	{r4, pc}
  61              	.LVL3:
  62              	.L10:
  63              	.LBE7:
  64              	.LBE6:
  65              		.loc 1 119 0
  66 0020 0648     		ldr	r0, .L13+4
  67 0022 FFF7FEFF 		bl	sdcDisconnect
  68              	.LVL4:
  69              		.loc 1 120 0
  70 0026 0023     		movs	r3, #0
  71 0028 2370     		strb	r3, [r4]
  72 002a EDE7     		b	.L2
  73              	.LVL5:
  74              	.L12:
  75              	.LBB10:
  76              	.LBB8:
  77              		.loc 1 128 0
  78 002c 0348     		ldr	r0, .L13+4
  79              	.LVL6:
  80              	.LBE8:
  81              	.LBE10:
  82              		.loc 1 132 0
  83 002e BDE81040 		pop	{r4, lr}
  84              		.cfi_restore 14
  85              		.cfi_restore 4
  86              		.cfi_def_cfa_offset 0
  87              	.LBB11:
  88              	.LBB9:
  89              		.loc 1 128 0
  90 0032 FFF7FEBF 		b	sdcDisconnect
  91              	.LVL7:
  92              	.L14:
  93 0036 00BF     		.align	2
  94              	.L13:
  95 0038 00000000 		.word	.LANCHOR0
  96 003c 00000000 		.word	SDCD1
  97 0040 00000000 		.word	SDC_FS
  98              	.LBE9:
  99              	.LBE11:
 100              		.cfi_endproc
 101              	.LFE140:
 102              		.size	InsertHandler.isra.1, .-InsertHandler.isra.1
 103              		.align	2
 104 0044 AFF30080 		.p2align 4,,15
 104      AFF30080 
 104      AFF30080 
 105              		.global	sdcard_init
 106              		.thumb
 107              		.thumb_func
 108              		.type	sdcard_init, %function
 109              	sdcard_init:
 110              	.LFB135:
 111              		.loc 1 145 0
 112              		.cfi_startproc
ARM GAS  /tmp/ccWjEWtc.s 			page 3


 113              		@ args = 0, pretend = 0, frame = 8
 114              		@ frame_needed = 0, uses_anonymous_args = 0
 115 0050 30B5     		push	{r4, r5, lr}
 116              		.cfi_def_cfa_offset 12
 117              		.cfi_offset 4, -12
 118              		.cfi_offset 5, -8
 119              		.cfi_offset 14, -4
 120              		.loc 1 153 0
 121 0052 3048     		ldr	r0, .L24
 122              		.loc 1 145 0
 123 0054 83B0     		sub	sp, sp, #12
 124              		.cfi_def_cfa_offset 24
 125              		.loc 1 153 0
 126 0056 4FF48071 		mov	r1, #256
 127 005a 40F21A62 		movw	r2, #1562
 128 005e FFF7FEFF 		bl	_pal_lld_setgroupmode
 129              	.LVL8:
 130              		.loc 1 154 0
 131 0062 2C48     		ldr	r0, .L24
 132 0064 4FF40071 		mov	r1, #512
 133 0068 40F21A62 		movw	r2, #1562
 134 006c FFF7FEFF 		bl	_pal_lld_setgroupmode
 135              	.LVL9:
 136              		.loc 1 155 0
 137 0070 2848     		ldr	r0, .L24
 138 0072 4FF48061 		mov	r1, #1024
 139 0076 40F21A62 		movw	r2, #1562
 140 007a FFF7FEFF 		bl	_pal_lld_setgroupmode
 141              	.LVL10:
 142              		.loc 1 156 0
 143 007e 2548     		ldr	r0, .L24
 144 0080 4FF40061 		mov	r1, #2048
 145 0084 40F21A62 		movw	r2, #1562
 146 0088 FFF7FEFF 		bl	_pal_lld_setgroupmode
 147              	.LVL11:
 148              		.loc 1 157 0
 149 008c 2148     		ldr	r0, .L24
 150 008e 4FF48051 		mov	r1, #4096
 151 0092 40F21A62 		movw	r2, #1562
 152 0096 FFF7FEFF 		bl	_pal_lld_setgroupmode
 153              	.LVL12:
 154              		.loc 1 158 0
 155 009a 40F21A62 		movw	r2, #1562
 156 009e 0421     		movs	r1, #4
 157 00a0 1D48     		ldr	r0, .L24+4
 158 00a2 FFF7FEFF 		bl	_pal_lld_setgroupmode
 159              	.LVL13:
 160              		.loc 1 159 0
 161 00a6 3220     		movs	r0, #50
 162 00a8 FFF7FEFF 		bl	chThdSleep
 163              	.LVL14:
 164              		.loc 1 160 0
 165 00ac 0021     		movs	r1, #0
 166 00ae 1B48     		ldr	r0, .L24+8
 167 00b0 FFF7FEFF 		bl	sdcStart
 168              	.LVL15:
 169              		.loc 1 161 0
ARM GAS  /tmp/ccWjEWtc.s 			page 4


 170 00b4 3220     		movs	r0, #50
 171 00b6 FFF7FEFF 		bl	chThdSleep
 172              	.LVL16:
 173              		.loc 1 163 0
 174 00ba FFF7A1FF 		bl	InsertHandler.isra.1
 175              	.LVL17:
 176              		.loc 1 169 0
 177 00be 6946     		mov	r1, sp
 178 00c0 01AA     		add	r2, sp, #4
 179 00c2 1748     		ldr	r0, .L24+12
 180 00c4 FFF7FEFF 		bl	f_getfree
 181              	.LVL18:
 182              		.loc 1 171 0
 183 00c8 08B3     		cbz	r0, .L15
 184              		.loc 1 172 0
 185 00ca FFF799FF 		bl	InsertHandler.isra.1
 186              	.LVL19:
 187              		.loc 1 173 0
 188 00ce 1420     		movs	r0, #20
 189 00d0 FFF7FEFF 		bl	chThdSleep
 190              	.LVL20:
 191              		.loc 1 174 0
 192 00d4 6946     		mov	r1, sp
 193 00d6 01AA     		add	r2, sp, #4
 194 00d8 1148     		ldr	r0, .L24+12
 195 00da FFF7FEFF 		bl	f_getfree
 196              	.LVL21:
 197 00de 0446     		mov	r4, r0
 198              	.LVL22:
 199              		.loc 1 175 0
 200 00e0 3220     		movs	r0, #50
 201 00e2 FFF7FEFF 		bl	chThdSleep
 202              	.LVL23:
 203 00e6 0225     		movs	r5, #2
 204              	.LVL24:
 205              	.L19:
 206              		.loc 1 171 0
 207 00e8 8CB1     		cbz	r4, .L15
 208              		.loc 1 172 0
 209 00ea FFF789FF 		bl	InsertHandler.isra.1
 210              	.LVL25:
 211              		.loc 1 173 0
 212 00ee 1420     		movs	r0, #20
 213 00f0 FFF7FEFF 		bl	chThdSleep
 214              	.LVL26:
 215              		.loc 1 174 0
 216 00f4 6946     		mov	r1, sp
 217 00f6 01AA     		add	r2, sp, #4
 218 00f8 0948     		ldr	r0, .L24+12
 219 00fa FFF7FEFF 		bl	f_getfree
 220              	.LVL27:
 221 00fe 0446     		mov	r4, r0
 222              	.LVL28:
 223              		.loc 1 175 0
 224 0100 3220     		movs	r0, #50
 225 0102 FFF7FEFF 		bl	chThdSleep
 226              	.LVL29:
ARM GAS  /tmp/ccWjEWtc.s 			page 5


 227              		.loc 1 177 0
 228 0106 012D     		cmp	r5, #1
 229 0108 01D0     		beq	.L15
 230 010a 0125     		movs	r5, #1
 231              	.LVL30:
 232 010c ECE7     		b	.L19
 233              	.LVL31:
 234              	.L15:
 235              		.loc 1 180 0
 236 010e 03B0     		add	sp, sp, #12
 237              		.cfi_def_cfa_offset 12
 238              		@ sp needed
 239 0110 30BD     		pop	{r4, r5, pc}
 240              	.L25:
 241 0112 00BF     		.align	2
 242              	.L24:
 243 0114 00080240 		.word	1073874944
 244 0118 000C0240 		.word	1073875968
 245 011c 00000000 		.word	SDCD1
 246 0120 00000000 		.word	.LC0
 247              		.cfi_endproc
 248              	.LFE135:
 249              		.size	sdcard_init, .-sdcard_init
 250              		.align	2
 251 0124 AFF30080 		.p2align 4,,15
 251      AFF30080 
 251      AFF30080 
 252              		.global	sdcard_attemptMountIfUnmounted
 253              		.thumb
 254              		.thumb_func
 255              		.type	sdcard_attemptMountIfUnmounted, %function
 256              	sdcard_attemptMountIfUnmounted:
 257              	.LFB136:
 258              		.loc 1 182 0
 259              		.cfi_startproc
 260              		@ args = 0, pretend = 0, frame = 0
 261              		@ frame_needed = 0, uses_anonymous_args = 0
 262              		@ link register save eliminated.
 263              		.loc 1 183 0
 264 0130 024B     		ldr	r3, .L29
 265 0132 1B78     		ldrb	r3, [r3]	@ zero_extendqisi2
 266 0134 03B1     		cbz	r3, .L28
 267 0136 7047     		bx	lr
 268              	.L28:
 269              		.loc 1 185 0
 270 0138 62E7     		b	InsertHandler.isra.1
 271              	.LVL32:
 272              	.L30:
 273 013a 00BF     		.align	2
 274              	.L29:
 275 013c 00000000 		.word	.LANCHOR0
 276              		.cfi_endproc
 277              	.LFE136:
 278              		.size	sdcard_attemptMountIfUnmounted, .-sdcard_attemptMountIfUnmounted
 279              		.align	2
 280              		.p2align 4,,15
 281              		.global	sdcard_unmount
ARM GAS  /tmp/ccWjEWtc.s 			page 6


 282              		.thumb
 283              		.thumb_func
 284              		.type	sdcard_unmount, %function
 285              	sdcard_unmount:
 286              	.LFB137:
 287              		.loc 1 188 0
 288              		.cfi_startproc
 289              		@ args = 0, pretend = 0, frame = 0
 290              		@ frame_needed = 0, uses_anonymous_args = 0
 291              	.LVL33:
 292 0140 08B5     		push	{r3, lr}
 293              		.cfi_def_cfa_offset 8
 294              		.cfi_offset 3, -8
 295              		.cfi_offset 14, -4
 296              	.LBB12:
 297              	.LBB13:
 298              		.loc 1 140 0
 299 0142 0348     		ldr	r0, .L33
 300 0144 FFF7FEFF 		bl	sdcDisconnect
 301              	.LVL34:
 302              		.loc 1 141 0
 303 0148 024B     		ldr	r3, .L33+4
 304 014a 0022     		movs	r2, #0
 305 014c 1A70     		strb	r2, [r3]
 306 014e 08BD     		pop	{r3, pc}
 307              	.L34:
 308              		.align	2
 309              	.L33:
 310 0150 00000000 		.word	SDCD1
 311 0154 00000000 		.word	.LANCHOR0
 312              	.LBE13:
 313              	.LBE12:
 314              		.cfi_endproc
 315              	.LFE137:
 316              		.size	sdcard_unmount, .-sdcard_unmount
 317              		.align	2
 318 0158 AFF30080 		.p2align 4,,15
 318      AFF30080 
 319              		.global	sdcard_loadPatch1
 320              		.thumb
 321              		.thumb_func
 322              		.type	sdcard_loadPatch1, %function
 323              	sdcard_loadPatch1:
 324              	.LFB138:
 325              		.loc 1 195 0
 326              		.cfi_startproc
 327              		@ args = 0, pretend = 0, frame = 48
 328              		@ frame_needed = 0, uses_anonymous_args = 0
 329              	.LVL35:
 330 0160 30B5     		push	{r4, r5, lr}
 331              		.cfi_def_cfa_offset 12
 332              		.cfi_offset 4, -12
 333              		.cfi_offset 5, -8
 334              		.cfi_offset 14, -4
 335 0162 0546     		mov	r5, r0
 336 0164 8DB0     		sub	sp, sp, #52
 337              		.cfi_def_cfa_offset 64
ARM GAS  /tmp/ccWjEWtc.s 			page 7


 338              		.loc 1 200 0
 339 0166 FFF7FEFF 		bl	StopPatch
 340              	.LVL36:
 341              		.loc 1 207 0
 342 016a 2846     		mov	r0, r5
 343 016c FFF7FEFF 		bl	strlen
 344              	.LVL37:
 345 0170 0446     		mov	r4, r0
 346 0172 58B1     		cbz	r0, .L36
 347              		.loc 1 208 0
 348 0174 2A5C     		ldrb	r2, [r5, r0]	@ zero_extendqisi2
 349 0176 2F2A     		cmp	r2, #47
 350 0178 05EB0003 		add	r3, r5, r0
 351 017c 04D1     		bne	.L38
 352 017e 25E0     		b	.L37
 353              	.LVL38:
 354              	.L39:
 355 0180 13F8012D 		ldrb	r2, [r3, #-1]!	@ zero_extendqisi2
 356 0184 2F2A     		cmp	r2, #47
 357 0186 21D0     		beq	.L37
 358              	.L38:
 359              	.LVL39:
 360              		.loc 1 207 0 discriminator 2
 361 0188 013C     		subs	r4, r4, #1
 362              	.LVL40:
 363 018a F9D1     		bne	.L39
 364              	.L36:
 365              		.loc 1 221 0
 366 018c 1948     		ldr	r0, .L58
 367 018e FFF7FEFF 		bl	f_chdir
 368              	.LVL41:
 369              	.L42:
 370              		.loc 1 224 0
 371 0192 02A8     		add	r0, sp, #8
 372 0194 2946     		mov	r1, r5
 373 0196 0122     		movs	r2, #1
 374 0198 FFF7FEFF 		bl	f_open
 375              	.LVL42:
 376 019c 0446     		mov	r4, r0
 377              	.LVL43:
 378              		.loc 1 225 0
 379 019e 0A20     		movs	r0, #10
 380 01a0 FFF7FEFF 		bl	chThdSleep
 381              	.LVL44:
 382              		.loc 1 226 0
 383 01a4 ECB9     		cbnz	r4, .L57
 384              		.loc 1 230 0
 385 01a6 02A8     		add	r0, sp, #8
 386 01a8 1349     		ldr	r1, .L58+4
 387 01aa 4FF46042 		mov	r2, #57344
 388 01ae 01AB     		add	r3, sp, #4
 389 01b0 FFF7FEFF 		bl	f_read
 390              	.LVL45:
 391              		.loc 1 232 0
 392 01b4 B0B9     		cbnz	r0, .L56
 393              		.loc 1 236 0
 394 01b6 02A8     		add	r0, sp, #8
ARM GAS  /tmp/ccWjEWtc.s 			page 8


 395              	.LVL46:
 396 01b8 FFF7FEFF 		bl	f_close
 397              	.LVL47:
 398              		.loc 1 237 0
 399 01bc 0446     		mov	r4, r0
 400 01be 88B9     		cbnz	r0, .L56
 401              		.loc 1 241 0
 402 01c0 0A20     		movs	r0, #10
 403              	.LVL48:
 404 01c2 FFF7FEFF 		bl	chThdSleep
 405              	.LVL49:
 406              		.loc 1 242 0
 407 01c6 2046     		mov	r0, r4
 408              		.loc 1 243 0
 409 01c8 0DB0     		add	sp, sp, #52
 410              		.cfi_remember_state
 411              		.cfi_def_cfa_offset 12
 412              		@ sp needed
 413 01ca 30BD     		pop	{r4, r5, pc}
 414              	.LVL50:
 415              	.L37:
 416              		.cfi_restore_state
 417              		.loc 1 211 0
 418 01cc 002C     		cmp	r4, #0
 419 01ce DDDD     		ble	.L36
 420              		.loc 1 212 0
 421 01d0 0023     		movs	r3, #0
 422 01d2 2B55     		strb	r3, [r5, r4]
 423              		.loc 1 214 0
 424 01d4 2846     		mov	r0, r5
 425 01d6 FFF7FEFF 		bl	f_chdir
 426              	.LVL51:
 427              		.loc 1 215 0
 428 01da 18B9     		cbnz	r0, .L56
 429              		.loc 1 219 0
 430 01dc 0134     		adds	r4, r4, #1
 431              	.LVL52:
 432 01de 2544     		add	r5, r5, r4
 433              	.LVL53:
 434 01e0 D7E7     		b	.L42
 435              	.LVL54:
 436              	.L57:
 437              		.loc 1 227 0
 438 01e2 2046     		mov	r0, r4
 439              	.LVL55:
 440              	.L56:
 441 01e4 2946     		mov	r1, r5
 442 01e6 FFF7FEFF 		bl	report_fatfs_error
 443              	.LVL56:
 444              		.loc 1 228 0
 445 01ea 4FF0FF30 		mov	r0, #-1
 446              		.loc 1 243 0
 447 01ee 0DB0     		add	sp, sp, #52
 448              		.cfi_def_cfa_offset 12
 449              		@ sp needed
 450 01f0 30BD     		pop	{r4, r5, pc}
 451              	.LVL57:
ARM GAS  /tmp/ccWjEWtc.s 			page 9


 452              	.L59:
 453 01f2 00BF     		.align	2
 454              	.L58:
 455 01f4 00000000 		.word	.LC0
 456 01f8 00100120 		.word	536940544
 457              		.cfi_endproc
 458              	.LFE138:
 459              		.size	sdcard_loadPatch1, .-sdcard_loadPatch1
 460              		.global	fbuff
 461              		.global	fs_ready
 462              		.comm	SDC_FS,568,4
 463              		.section	.rodata.str1.4,"aMS",%progbits,1
 464              		.align	2
 465              	.LC0:
 466 0000 2F00     		.ascii	"/\000"
 467              		.section	.sram2,"aw",%progbits
 468              		.align	2
 469              		.type	fbuff, %object
 470              		.size	fbuff, 1024
 471              	fbuff:
 472 0000 00000000 		.space	1024
 472      00000000 
 472      00000000 
 472      00000000 
 472      00000000 
 473              		.bss
 474              		.set	.LANCHOR0,. + 0
 475              		.type	fs_ready, %object
 476              		.size	fs_ready, 1
 477              	fs_ready:
 478 0000 00       		.space	1
 479              		.text
 480              	.Letext0:
 481              		.file 2 "/home/sbcu/Dropbox/pcb-layouts/axo-on-discovery-board/axoloti/platform_linux/lib/gcc/arm-
 482              		.file 3 "/home/sbcu/Dropbox/pcb-layouts/axo-on-discovery-board/axoloti/platform_linux/arm-none-eab
 483              		.file 4 "/home/sbcu/Dropbox/pcb-layouts/axo-on-discovery-board/axoloti/platform_linux/arm-none-eab
 484              		.file 5 "/home/sbcu/Dropbox/pcb-layouts/axo-on-discovery-board/axoloti/platform_linux/../chibios/o
 485              		.file 6 "/home/sbcu/Dropbox/pcb-layouts/axo-on-discovery-board/axoloti/platform_linux/../chibios/o
 486              		.file 7 "/home/sbcu/Dropbox/pcb-layouts/axo-on-discovery-board/axoloti/platform_linux/../chibios/o
 487              		.file 8 "/home/sbcu/Dropbox/pcb-layouts/axo-on-discovery-board/axoloti/platform_linux/../chibios/o
 488              		.file 9 "/home/sbcu/Dropbox/pcb-layouts/axo-on-discovery-board/axoloti/platform_linux/../chibios/o
 489              		.file 10 "/home/sbcu/Dropbox/pcb-layouts/axo-on-discovery-board/axoloti/platform_linux/../chibios/
 490              		.file 11 "/home/sbcu/Dropbox/pcb-layouts/axo-on-discovery-board/axoloti/platform_linux/../chibios/
 491              		.file 12 "/home/sbcu/Dropbox/pcb-layouts/axo-on-discovery-board/axoloti/platform_linux/../chibios/
 492              		.file 13 "/home/sbcu/Dropbox/pcb-layouts/axo-on-discovery-board/axoloti/platform_linux/../chibios/
 493              		.file 14 "/home/sbcu/Dropbox/pcb-layouts/axo-on-discovery-board/axoloti/platform_linux/../chibios/
 494              		.file 15 "/home/sbcu/Dropbox/pcb-layouts/axo-on-discovery-board/axoloti/platform_linux/../chibios/
 495              		.file 16 "/home/sbcu/Dropbox/pcb-layouts/axo-on-discovery-board/axoloti/platform_linux/../chibios/
 496              		.file 17 "/home/sbcu/Dropbox/pcb-layouts/axo-on-discovery-board/axoloti/platform_linux/../chibios/
 497              		.file 18 "/home/sbcu/Dropbox/pcb-layouts/axo-on-discovery-board/axoloti/platform_linux/../chibios/
 498              		.file 19 "/home/sbcu/Dropbox/pcb-layouts/axo-on-discovery-board/axoloti/platform_linux/../chibios/
 499              		.file 20 "/home/sbcu/Dropbox/pcb-layouts/axo-on-discovery-board/axoloti/platform_linux/../CMSIS//I
 500              		.file 21 "/home/sbcu/Dropbox/pcb-layouts/axo-on-discovery-board/axoloti/platform_linux/../chibios/
 501              		.file 22 "/home/sbcu/Dropbox/pcb-layouts/axo-on-discovery-board/axoloti/platform_linux/arm-none-ea
 502              		.file 23 "patch.h"
 503              		.file 24 "exceptions.h"