ARM GAS  /tmp/cc9sjCL2.s 			page 1


   1              		.syntax unified
   2              		.cpu cortex-m4
   3              		.eabi_attribute 27, 1
   4              		.eabi_attribute 28, 1
   5              		.fpu fpv4-sp-d16
   6              		.eabi_attribute 20, 1
   7              		.eabi_attribute 21, 1
   8              		.eabi_attribute 23, 3
   9              		.eabi_attribute 24, 1
  10              		.eabi_attribute 25, 1
  11              		.eabi_attribute 26, 1
  12              		.eabi_attribute 30, 2
  13              		.eabi_attribute 34, 1
  14              		.eabi_attribute 18, 4
  15              		.thumb
  16              		.file	"serial_lld.c"
  17              		.text
  18              	.Ltext0:
  19              		.cfi_sections	.debug_frame
  20              		.align	2
  21              		.p2align 4,,15
  22              		.thumb
  23              		.thumb_func
  24              		.type	notify1, %function
  25              	notify1:
  26              	.LFB134:
  27              		.file 1 "/home/sbcu/Dropbox/pcb-layouts/axo-on-discovery-board/axoloti/platform_linux/../chibios/o
  28              		.loc 1 209 0
  29              		.cfi_startproc
  30              		@ args = 0, pretend = 0, frame = 0
  31              		@ frame_needed = 0, uses_anonymous_args = 0
  32              		@ link register save eliminated.
  33              	.LVL0:
  34              		.loc 1 212 0
  35 0000 034A     		ldr	r2, .L2
  36 0002 9389     		ldrh	r3, [r2, #12]
  37 0004 9BB2     		uxth	r3, r3
  38 0006 43F08003 		orr	r3, r3, #128
  39 000a 9381     		strh	r3, [r2, #12]	@ movhi
  40 000c 7047     		bx	lr
  41              	.L3:
  42 000e 00BF     		.align	2
  43              	.L2:
  44 0010 00100140 		.word	1073811456
  45              		.cfi_endproc
  46              	.LFE134:
  47              		.size	notify1, .-notify1
  48              		.align	2
  49 0014 AFF30080 		.p2align 4,,15
  49      AFF30080 
  49      AFF30080 
  50              		.thumb
  51              		.thumb_func
  52              		.type	notify2, %function
  53              	notify2:
  54              	.LFB135:
  55              		.loc 1 217 0
ARM GAS  /tmp/cc9sjCL2.s 			page 2


  56              		.cfi_startproc
  57              		@ args = 0, pretend = 0, frame = 0
  58              		@ frame_needed = 0, uses_anonymous_args = 0
  59              		@ link register save eliminated.
  60              	.LVL1:
  61              		.loc 1 220 0
  62 0020 034A     		ldr	r2, .L5
  63 0022 9389     		ldrh	r3, [r2, #12]
  64 0024 9BB2     		uxth	r3, r3
  65 0026 43F08003 		orr	r3, r3, #128
  66 002a 9381     		strh	r3, [r2, #12]	@ movhi
  67 002c 7047     		bx	lr
  68              	.L6:
  69 002e 00BF     		.align	2
  70              	.L5:
  71 0030 00440040 		.word	1073759232
  72              		.cfi_endproc
  73              	.LFE135:
  74              		.size	notify2, .-notify2
  75              		.align	2
  76 0034 AFF30080 		.p2align 4,,15
  76      AFF30080 
  76      AFF30080 
  77              		.thumb
  78              		.thumb_func
  79              		.type	serve_interrupt, %function
  80              	serve_interrupt:
  81              	.LFB133:
  82              		.loc 1 154 0
  83              		.cfi_startproc
  84              		@ args = 0, pretend = 0, frame = 0
  85              		@ frame_needed = 0, uses_anonymous_args = 0
  86              	.LVL2:
  87 0040 2DE9F041 		push	{r4, r5, r6, r7, r8, lr}
  88              		.cfi_def_cfa_offset 24
  89              		.cfi_offset 4, -24
  90              		.cfi_offset 5, -20
  91              		.cfi_offset 6, -16
  92              		.cfi_offset 7, -12
  93              		.cfi_offset 8, -8
  94              		.cfi_offset 14, -4
  95              		.loc 1 155 0
  96 0044 D0F89450 		ldr	r5, [r0, #148]
  97              	.LVL3:
  98              		.loc 1 156 0
  99 0048 AF89     		ldrh	r7, [r5, #12]
 100              		.loc 1 157 0
 101 004a 2C88     		ldrh	r4, [r5]
 102 004c A4B2     		uxth	r4, r4
 103              		.loc 1 160 0
 104 004e E205     		lsls	r2, r4, #23
 105              		.loc 1 154 0
 106 0050 0646     		mov	r6, r0
 107              		.loc 1 156 0
 108 0052 BFB2     		uxth	r7, r7
 109              	.LVL4:
 110              		.loc 1 160 0
ARM GAS  /tmp/cc9sjCL2.s 			page 3


 111 0054 52D4     		bmi	.L57
 112              	.LVL5:
 113              	.L8:
 114              	.LBB16:
 115              		.loc 1 168 0
 116 0056 2023     		movs	r3, #32
 117              	@ 168 "/home/sbcu/Dropbox/pcb-layouts/axo-on-discovery-board/axoloti/platform_linux/../chibios/os/h
 118 0058 83F31188 		msr     BASEPRI, r3
 119              	@ 0 "" 2
 120              		.thumb
 121              	.LBE16:
 122              		.loc 1 169 0
 123 005c 14F02F0F 		tst	r4, #47
 124 0060 2ED0     		beq	.L9
 125              	.LBB17:
 126              	.LBB18:
 127              	.LBB19:
 128              		.loc 1 146 0
 129 0062 06F10408 		add	r8, r6, #4
 130 0066 08E0     		b	.L16
 131              	.L10:
 132              	.LBE19:
 133              	.LBE18:
 134              		.loc 1 176 0
 135 0068 A988     		ldrh	r1, [r5, #4]
 136              		.loc 1 177 0
 137 006a A006     		lsls	r0, r4, #26
 138              		.loc 1 176 0
 139 006c 89B2     		uxth	r1, r1
 140              	.LVL6:
 141              		.loc 1 177 0
 142 006e 1ED4     		bmi	.L58
 143              	.L15:
 144              		.loc 1 179 0
 145 0070 2C88     		ldrh	r4, [r5]
 146              	.LVL7:
 147 0072 A4B2     		uxth	r4, r4
 148              	.LVL8:
 149              	.LBE17:
 150              		.loc 1 169 0
 151 0074 14F02F0F 		tst	r4, #47
 152 0078 22D0     		beq	.L9
 153              	.LVL9:
 154              	.L16:
 155              	.LBB22:
 156              		.loc 1 174 0
 157 007a 2307     		lsls	r3, r4, #28
 158 007c F4D0     		beq	.L10
 159              	.LVL10:
 160              	.LBB21:
 161              	.LBB20:
 162              		.loc 1 139 0
 163 007e 14F0080F 		tst	r4, #8
 164 0082 0CBF     		ite	eq
 165 0084 0021     		moveq	r1, #0
 166 0086 8021     		movne	r1, #128
 167              	.LVL11:
ARM GAS  /tmp/cc9sjCL2.s 			page 4


 168              		.loc 1 140 0
 169 0088 E007     		lsls	r0, r4, #31
 170              		.loc 1 141 0
 171 008a 48BF     		it	mi
 172 008c 41F02001 		orrmi	r1, r1, #32
 173              	.LVL12:
 174              		.loc 1 142 0
 175 0090 A207     		lsls	r2, r4, #30
 176              		.loc 1 143 0
 177 0092 48BF     		it	mi
 178 0094 41F04001 		orrmi	r1, r1, #64
 179              	.LVL13:
 180              		.loc 1 144 0
 181 0098 6307     		lsls	r3, r4, #29
 182              		.loc 1 145 0
 183 009a 48BF     		it	mi
 184 009c 41F48071 		orrmi	r1, r1, #256
 185              	.LVL14:
 186              		.loc 1 146 0
 187 00a0 4046     		mov	r0, r8
 188 00a2 FFF7FEFF 		bl	chEvtBroadcastFlagsI
 189              	.LVL15:
 190              	.LBE20:
 191              	.LBE21:
 192              		.loc 1 176 0
 193 00a6 A988     		ldrh	r1, [r5, #4]
 194              		.loc 1 177 0
 195 00a8 A006     		lsls	r0, r4, #26
 196              		.loc 1 176 0
 197 00aa 89B2     		uxth	r1, r1
 198              	.LVL16:
 199              		.loc 1 177 0
 200 00ac E0D5     		bpl	.L15
 201              	.LVL17:
 202              	.L58:
 203              		.loc 1 178 0
 204 00ae C9B2     		uxtb	r1, r1
 205 00b0 3046     		mov	r0, r6
 206 00b2 FFF7FEFF 		bl	sdIncomingDataI
 207              	.LVL18:
 208              		.loc 1 179 0
 209 00b6 2C88     		ldrh	r4, [r5]
 210              	.LVL19:
 211 00b8 A4B2     		uxth	r4, r4
 212              	.LVL20:
 213              	.LBE22:
 214              		.loc 1 169 0
 215 00ba 14F02F0F 		tst	r4, #47
 216 00be DCD1     		bne	.L16
 217              	.L9:
 218              	.LBB23:
 219              		.loc 1 181 0
 220 00c0 0023     		movs	r3, #0
 221              	@ 181 "/home/sbcu/Dropbox/pcb-layouts/axo-on-discovery-board/axoloti/platform_linux/../chibios/os/h
 222 00c2 83F31188 		msr     BASEPRI, r3
 223              	@ 0 "" 2
 224              		.thumb
ARM GAS  /tmp/cc9sjCL2.s 			page 5


 225              	.LBE23:
 226              		.loc 1 184 0
 227 00c6 3906     		lsls	r1, r7, #24
 228 00c8 01D5     		bpl	.L17
 229              		.loc 1 184 0 is_stmt 0 discriminator 1
 230 00ca 2206     		lsls	r2, r4, #24
 231 00cc 25D4     		bmi	.L59
 232              	.L17:
 233              		.loc 1 198 0 is_stmt 1
 234 00ce 6306     		lsls	r3, r4, #25
 235 00d0 12D5     		bpl	.L7
 236              	.LBB24:
 237              		.loc 1 199 0
 238 00d2 2023     		movs	r3, #32
 239              	@ 199 "/home/sbcu/Dropbox/pcb-layouts/axo-on-discovery-board/axoloti/platform_linux/../chibios/os/h
 240 00d4 83F31188 		msr     BASEPRI, r3
 241              	@ 0 "" 2
 242              		.thumb
 243              	.LBE24:
 244              		.loc 1 200 0
 245 00d8 726C     		ldr	r2, [r6, #68]
 246 00da B36C     		ldr	r3, [r6, #72]
 247 00dc 9A42     		cmp	r2, r3
 248 00de 2BD0     		beq	.L60
 249              	.L21:
 250              		.loc 1 202 0
 251 00e0 27F04007 		bic	r7, r7, #64
 252              	.LVL21:
 253 00e4 BFB2     		uxth	r7, r7
 254              		.loc 1 203 0
 255 00e6 4FF6BF72 		movw	r2, #65471
 256              		.loc 1 202 0
 257 00ea AF81     		strh	r7, [r5, #12]	@ movhi
 258              	.LBB25:
 259              		.loc 1 204 0
 260 00ec 0023     		movs	r3, #0
 261              	.LBE25:
 262              		.loc 1 203 0
 263 00ee 2A80     		strh	r2, [r5]	@ movhi
 264              	.LBB26:
 265              		.loc 1 204 0
 266              	@ 204 "/home/sbcu/Dropbox/pcb-layouts/axo-on-discovery-board/axoloti/platform_linux/../chibios/os/h
 267 00f0 83F31188 		msr     BASEPRI, r3
 268              	@ 0 "" 2
 269              		.thumb
 270 00f4 BDE8F081 		pop	{r4, r5, r6, r7, r8, pc}
 271              	.LVL22:
 272              	.L7:
 273 00f8 BDE8F081 		pop	{r4, r5, r6, r7, r8, pc}
 274              	.LVL23:
 275              	.L57:
 276              	.LBE26:
 277              	.LBB27:
 278              		.loc 1 161 0
 279 00fc 2023     		movs	r3, #32
 280              	@ 161 "/home/sbcu/Dropbox/pcb-layouts/axo-on-discovery-board/axoloti/platform_linux/../chibios/os/h
 281 00fe 83F31188 		msr     BASEPRI, r3
ARM GAS  /tmp/cc9sjCL2.s 			page 6


 282              	@ 0 "" 2
 283              		.thumb
 284              	.LBE27:
 285              		.loc 1 162 0
 286 0102 4FF40071 		mov	r1, #512
 287 0106 0430     		adds	r0, r0, #4
 288              	.LVL24:
 289 0108 FFF7FEFF 		bl	chEvtBroadcastFlagsI
 290              	.LVL25:
 291              	.LBB28:
 292              		.loc 1 163 0
 293 010c 0023     		movs	r3, #0
 294              	@ 163 "/home/sbcu/Dropbox/pcb-layouts/axo-on-discovery-board/axoloti/platform_linux/../chibios/os/h
 295 010e 83F31188 		msr     BASEPRI, r3
 296              	@ 0 "" 2
 297              		.thumb
 298              	.LBE28:
 299              		.loc 1 164 0
 300 0112 4FF6FF63 		movw	r3, #65279
 301 0116 2B80     		strh	r3, [r5]	@ movhi
 302 0118 9DE7     		b	.L8
 303              	.L59:
 304              	.LBB29:
 305              	.LBB30:
 306              		.loc 1 186 0
 307 011a 2023     		movs	r3, #32
 308              	@ 186 "/home/sbcu/Dropbox/pcb-layouts/axo-on-discovery-board/axoloti/platform_linux/../chibios/os/h
 309 011c 83F31188 		msr     BASEPRI, r3
 310              	@ 0 "" 2
 311              		.thumb
 312              	.LBE30:
 313              		.loc 1 187 0
 314 0120 06F13000 		add	r0, r6, #48
 315 0124 FFF7FEFF 		bl	chOQGetI
 316              	.LVL26:
 317              		.loc 1 188 0
 318 0128 0028     		cmp	r0, #0
 319 012a 0DDB     		blt	.L61
 320              		.loc 1 193 0
 321 012c 80B2     		uxth	r0, r0
 322              	.LVL27:
 323 012e A880     		strh	r0, [r5, #4]	@ movhi
 324              	.L19:
 325              	.LBB31:
 326              		.loc 1 194 0
 327 0130 0023     		movs	r3, #0
 328              	@ 194 "/home/sbcu/Dropbox/pcb-layouts/axo-on-discovery-board/axoloti/platform_linux/../chibios/os/h
 329 0132 83F31188 		msr     BASEPRI, r3
 330              	@ 0 "" 2
 331              		.thumb
 332 0136 CAE7     		b	.L17
 333              	.L60:
 334              	.LBE31:
 335              	.LBE29:
 336              		.loc 1 200 0 discriminator 1
 337 0138 B36B     		ldr	r3, [r6, #56]
 338 013a 002B     		cmp	r3, #0
ARM GAS  /tmp/cc9sjCL2.s 			page 7


 339 013c D0D0     		beq	.L21
 340              		.loc 1 201 0
 341 013e 301D     		adds	r0, r6, #4
 342 0140 1021     		movs	r1, #16
 343 0142 FFF7FEFF 		bl	chEvtBroadcastFlagsI
 344              	.LVL28:
 345 0146 CBE7     		b	.L21
 346              	.LVL29:
 347              	.L61:
 348              	.LBB32:
 349              		.loc 1 189 0
 350 0148 301D     		adds	r0, r6, #4
 351              	.LVL30:
 352 014a 0821     		movs	r1, #8
 353 014c FFF7FEFF 		bl	chEvtBroadcastFlagsI
 354              	.LVL31:
 355              		.loc 1 190 0
 356 0150 27F0C003 		bic	r3, r7, #192
 357 0154 43F04003 		orr	r3, r3, #64
 358 0158 AB81     		strh	r3, [r5, #12]	@ movhi
 359 015a E9E7     		b	.L19
 360              	.LBE32:
 361              		.cfi_endproc
 362              	.LFE133:
 363              		.size	serve_interrupt, .-serve_interrupt
 364              		.align	2
 365 015c AFF30080 		.p2align 4,,15
 366              		.global	VectorD4
 367              		.thumb
 368              		.thumb_func
 369              		.type	VectorD4, %function
 370              	VectorD4:
 371              	.LFB136:
 372              		.loc 1 269 0
 373              		.cfi_startproc
 374              		@ args = 0, pretend = 0, frame = 0
 375              		@ frame_needed = 0, uses_anonymous_args = 0
 376 0160 08B5     		push	{r3, lr}
 377              		.cfi_def_cfa_offset 8
 378              		.cfi_offset 3, -8
 379              		.cfi_offset 14, -4
 380              		.loc 1 273 0
 381 0162 0348     		ldr	r0, .L64
 382 0164 FFF76CFF 		bl	serve_interrupt
 383              	.LVL32:
 384              		.loc 1 276 0
 385 0168 BDE80840 		pop	{r3, lr}
 386              		.cfi_restore 14
 387              		.cfi_restore 3
 388              		.cfi_def_cfa_offset 0
 389              		.loc 1 275 0
 390 016c FFF7FEBF 		b	_port_irq_epilogue
 391              	.LVL33:
 392              	.L65:
 393              		.align	2
 394              	.L64:
 395 0170 00000000 		.word	SD1
ARM GAS  /tmp/cc9sjCL2.s 			page 8


 396              		.cfi_endproc
 397              	.LFE136:
 398              		.size	VectorD4, .-VectorD4
 399              		.align	2
 400 0174 AFF30080 		.p2align 4,,15
 400      AFF30080 
 400      AFF30080 
 401              		.global	VectorD8
 402              		.thumb
 403              		.thumb_func
 404              		.type	VectorD8, %function
 405              	VectorD8:
 406              	.LFB137:
 407              		.loc 1 288 0
 408              		.cfi_startproc
 409              		@ args = 0, pretend = 0, frame = 0
 410              		@ frame_needed = 0, uses_anonymous_args = 0
 411 0180 08B5     		push	{r3, lr}
 412              		.cfi_def_cfa_offset 8
 413              		.cfi_offset 3, -8
 414              		.cfi_offset 14, -4
 415              		.loc 1 292 0
 416 0182 0348     		ldr	r0, .L68
 417 0184 FFF75CFF 		bl	serve_interrupt
 418              	.LVL34:
 419              		.loc 1 295 0
 420 0188 BDE80840 		pop	{r3, lr}
 421              		.cfi_restore 14
 422              		.cfi_restore 3
 423              		.cfi_def_cfa_offset 0
 424              		.loc 1 294 0
 425 018c FFF7FEBF 		b	_port_irq_epilogue
 426              	.LVL35:
 427              	.L69:
 428              		.align	2
 429              	.L68:
 430 0190 00000000 		.word	SD2
 431              		.cfi_endproc
 432              	.LFE137:
 433              		.size	VectorD8, .-VectorD8
 434              		.align	2
 435 0194 AFF30080 		.p2align 4,,15
 435      AFF30080 
 435      AFF30080 
 436              		.global	sd_lld_init
 437              		.thumb
 438              		.thumb_func
 439              		.type	sd_lld_init, %function
 440              	sd_lld_init:
 441              	.LFB138:
 442              		.loc 1 383 0
 443              		.cfi_startproc
 444              		@ args = 0, pretend = 0, frame = 0
 445              		@ frame_needed = 0, uses_anonymous_args = 0
 446 01a0 38B5     		push	{r3, r4, r5, lr}
 447              		.cfi_def_cfa_offset 16
 448              		.cfi_offset 3, -16
ARM GAS  /tmp/cc9sjCL2.s 			page 9


 449              		.cfi_offset 4, -12
 450              		.cfi_offset 5, -8
 451              		.cfi_offset 14, -4
 452              		.loc 1 386 0
 453 01a2 094D     		ldr	r5, .L72
 454              		.loc 1 391 0
 455 01a4 094C     		ldr	r4, .L72+4
 456              		.loc 1 386 0
 457 01a6 0A4A     		ldr	r2, .L72+8
 458 01a8 2846     		mov	r0, r5
 459 01aa 0021     		movs	r1, #0
 460 01ac FFF7FEFF 		bl	sdObjectInit
 461              	.LVL36:
 462              		.loc 1 387 0
 463 01b0 084B     		ldr	r3, .L72+12
 464              		.loc 1 391 0
 465 01b2 094A     		ldr	r2, .L72+16
 466              		.loc 1 387 0
 467 01b4 C5F89430 		str	r3, [r5, #148]
 468              		.loc 1 391 0
 469 01b8 2046     		mov	r0, r4
 470 01ba 0021     		movs	r1, #0
 471 01bc FFF7FEFF 		bl	sdObjectInit
 472              	.LVL37:
 473              		.loc 1 392 0
 474 01c0 064B     		ldr	r3, .L72+20
 475 01c2 C4F89430 		str	r3, [r4, #148]
 476 01c6 38BD     		pop	{r3, r4, r5, pc}
 477              	.L73:
 478              		.align	2
 479              	.L72:
 480 01c8 00000000 		.word	SD1
 481 01cc 00000000 		.word	SD2
 482 01d0 00000000 		.word	notify1
 483 01d4 00100140 		.word	1073811456
 484 01d8 00000000 		.word	notify2
 485 01dc 00440040 		.word	1073759232
 486              		.cfi_endproc
 487              	.LFE138:
 488              		.size	sd_lld_init, .-sd_lld_init
 489              		.align	2
 490              		.p2align 4,,15
 491              		.global	sd_lld_start
 492              		.thumb
 493              		.thumb_func
 494              		.type	sd_lld_start, %function
 495              	sd_lld_start:
 496              	.LFB139:
 497              		.loc 1 426 0
 498              		.cfi_startproc
 499              		@ args = 0, pretend = 0, frame = 0
 500              		@ frame_needed = 0, uses_anonymous_args = 0
 501              	.LVL38:
 502 01e0 38B5     		push	{r3, r4, r5, lr}
 503              		.cfi_def_cfa_offset 16
 504              		.cfi_offset 3, -16
 505              		.cfi_offset 4, -12
ARM GAS  /tmp/cc9sjCL2.s 			page 10


 506              		.cfi_offset 5, -8
 507              		.cfi_offset 14, -4
 508              		.loc 1 429 0
 509 01e2 274C     		ldr	r4, .L84
 510              		.loc 1 431 0
 511 01e4 037A     		ldrb	r3, [r0, #8]	@ zero_extendqisi2
 512              		.loc 1 429 0
 513 01e6 0029     		cmp	r1, #0
 514 01e8 18BF     		it	ne
 515 01ea 0C46     		movne	r4, r1
 516              	.LVL39:
 517              		.loc 1 431 0
 518 01ec 012B     		cmp	r3, #1
 519              		.loc 1 426 0
 520 01ee 0546     		mov	r5, r0
 521              		.loc 1 431 0
 522 01f0 24D0     		beq	.L82
 523              	.LVL40:
 524              	.L76:
 525 01f2 D5F89430 		ldr	r3, [r5, #148]
 526              	.LVL41:
 527              	.LBB35:
 528              	.LBB36:
 529              		.loc 1 97 0
 530 01f6 234A     		ldr	r2, .L84+4
 531 01f8 9342     		cmp	r3, r2
 532 01fa 2FD0     		beq	.L78
 533 01fc 02F58062 		add	r2, r2, #1024
 534 0200 9342     		cmp	r3, r2
 535 0202 2BD0     		beq	.L78
 536              		.loc 1 103 0
 537 0204 2168     		ldr	r1, [r4]
 538 0206 204A     		ldr	r2, .L84+8
 539 0208 B2FBF1F2 		udiv	r2, r2, r1
 540 020c 92B2     		uxth	r2, r2
 541 020e 1A81     		strh	r2, [r3, #8]	@ movhi
 542              	.L80:
 543              		.loc 1 108 0
 544 0210 A288     		ldrh	r2, [r4, #4]
 545              		.loc 1 106 0
 546 0212 E088     		ldrh	r0, [r4, #6]
 547              		.loc 1 107 0
 548 0214 2189     		ldrh	r1, [r4, #8]
 549              		.loc 1 108 0
 550 0216 42F40452 		orr	r2, r2, #8448
 551              		.loc 1 106 0
 552 021a 40F04000 		orr	r0, r0, #64
 553              		.loc 1 108 0
 554 021e 42F02C02 		orr	r2, r2, #44
 555              		.loc 1 107 0
 556 0222 41F00101 		orr	r1, r1, #1
 557              		.loc 1 108 0
 558 0226 92B2     		uxth	r2, r2
 559              		.loc 1 106 0
 560 0228 80B2     		uxth	r0, r0
 561              		.loc 1 107 0
 562 022a 89B2     		uxth	r1, r1
ARM GAS  /tmp/cc9sjCL2.s 			page 11


 563              		.loc 1 111 0
 564 022c 0024     		movs	r4, #0
 565              	.LVL42:
 566              		.loc 1 106 0
 567 022e 1882     		strh	r0, [r3, #16]	@ movhi
 568              		.loc 1 107 0
 569 0230 9982     		strh	r1, [r3, #20]	@ movhi
 570              		.loc 1 108 0
 571 0232 9A81     		strh	r2, [r3, #12]	@ movhi
 572              		.loc 1 111 0
 573 0234 1C80     		strh	r4, [r3]	@ movhi
 574              		.loc 1 112 0
 575 0236 1A88     		ldrh	r2, [r3]
 576              		.loc 1 113 0
 577 0238 9B88     		ldrh	r3, [r3, #4]
 578              	.LVL43:
 579 023a 38BD     		pop	{r3, r4, r5, pc}
 580              	.LVL44:
 581              	.L82:
 582              	.LBE36:
 583              	.LBE35:
 584              		.loc 1 433 0
 585 023c 134B     		ldr	r3, .L84+12
 586 023e 9842     		cmp	r0, r3
 587 0240 13D0     		beq	.L83
 588              		.loc 1 440 0
 589 0242 134B     		ldr	r3, .L84+16
 590 0244 9842     		cmp	r0, r3
 591 0246 D4D1     		bne	.L76
 592              		.loc 1 441 0
 593 0248 124A     		ldr	r2, .L84+20
 594 024a 136C     		ldr	r3, [r2, #64]
 595 024c 43F40033 		orr	r3, r3, #131072
 596 0250 1364     		str	r3, [r2, #64]
 597              		.loc 1 442 0
 598 0252 2620     		movs	r0, #38
 599              	.LVL45:
 600 0254 C021     		movs	r1, #192
 601 0256 FFF7FEFF 		bl	nvicEnableVector
 602              	.LVL46:
 603 025a CAE7     		b	.L76
 604              	.LVL47:
 605              	.L78:
 606              	.LBB38:
 607              	.LBB37:
 608              		.loc 1 101 0
 609 025c 2168     		ldr	r1, [r4]
 610 025e 0E4A     		ldr	r2, .L84+24
 611 0260 B2FBF1F2 		udiv	r2, r2, r1
 612 0264 92B2     		uxth	r2, r2
 613 0266 1A81     		strh	r2, [r3, #8]	@ movhi
 614 0268 D2E7     		b	.L80
 615              	.LVL48:
 616              	.L83:
 617              	.LBE37:
 618              	.LBE38:
 619              		.loc 1 434 0
ARM GAS  /tmp/cc9sjCL2.s 			page 12


 620 026a 0A4A     		ldr	r2, .L84+20
 621 026c 536C     		ldr	r3, [r2, #68]
 622 026e 43F01003 		orr	r3, r3, #16
 623 0272 5364     		str	r3, [r2, #68]
 624              		.loc 1 435 0
 625 0274 2520     		movs	r0, #37
 626              	.LVL49:
 627 0276 C021     		movs	r1, #192
 628 0278 FFF7FEFF 		bl	nvicEnableVector
 629              	.LVL50:
 630 027c B9E7     		b	.L76
 631              	.L85:
 632 027e 00BF     		.align	2
 633              	.L84:
 634 0280 00000000 		.word	.LANCHOR0
 635 0284 00100140 		.word	1073811456
 636 0288 80DE8002 		.word	42000000
 637 028c 00000000 		.word	SD1
 638 0290 00000000 		.word	SD2
 639 0294 00380240 		.word	1073887232
 640 0298 00BD0105 		.word	84000000
 641              		.cfi_endproc
 642              	.LFE139:
 643              		.size	sd_lld_start, .-sd_lld_start
 644              		.align	2
 645 029c AFF30080 		.p2align 4,,15
 646              		.global	sd_lld_stop
 647              		.thumb
 648              		.thumb_func
 649              		.type	sd_lld_stop, %function
 650              	sd_lld_stop:
 651              	.LFB140:
 652              		.loc 1 487 0
 653              		.cfi_startproc
 654              		@ args = 0, pretend = 0, frame = 0
 655              		@ frame_needed = 0, uses_anonymous_args = 0
 656              		@ link register save eliminated.
 657              	.LVL51:
 658              		.loc 1 489 0
 659 02a0 037A     		ldrb	r3, [r0, #8]	@ zero_extendqisi2
 660 02a2 022B     		cmp	r3, #2
 661 02a4 00D0     		beq	.L91
 662              	.L86:
 663 02a6 7047     		bx	lr
 664              	.L91:
 665              		.loc 1 492 0
 666 02a8 0D49     		ldr	r1, .L93
 667              		.loc 1 490 0
 668 02aa D0F89430 		ldr	r3, [r0, #148]
 669              	.LVL52:
 670              	.LBB39:
 671              	.LBB40:
 672              		.loc 1 124 0
 673 02ae 0022     		movs	r2, #0
 674              	.LBE40:
 675              	.LBE39:
 676              		.loc 1 492 0
ARM GAS  /tmp/cc9sjCL2.s 			page 13


 677 02b0 8842     		cmp	r0, r1
 678              	.LBB42:
 679              	.LBB41:
 680              		.loc 1 124 0
 681 02b2 9A81     		strh	r2, [r3, #12]	@ movhi
 682              		.loc 1 125 0
 683 02b4 1A82     		strh	r2, [r3, #16]	@ movhi
 684              		.loc 1 126 0
 685 02b6 9A82     		strh	r2, [r3, #20]	@ movhi
 686              	.LBE41:
 687              	.LBE42:
 688              		.loc 1 492 0
 689 02b8 0AD0     		beq	.L92
 690              		.loc 1 499 0
 691 02ba 0A4B     		ldr	r3, .L93+4
 692              	.LVL53:
 693 02bc 9842     		cmp	r0, r3
 694 02be F2D1     		bne	.L86
 695              		.loc 1 500 0
 696 02c0 094A     		ldr	r2, .L93+8
 697 02c2 136C     		ldr	r3, [r2, #64]
 698 02c4 23F40033 		bic	r3, r3, #131072
 699 02c8 1364     		str	r3, [r2, #64]
 700              		.loc 1 501 0
 701 02ca 2620     		movs	r0, #38
 702              	.LVL54:
 703 02cc FFF7FEBF 		b	nvicDisableVector
 704              	.LVL55:
 705              	.L92:
 706              		.loc 1 493 0
 707 02d0 054A     		ldr	r2, .L93+8
 708 02d2 536C     		ldr	r3, [r2, #68]
 709              	.LVL56:
 710 02d4 23F01003 		bic	r3, r3, #16
 711 02d8 5364     		str	r3, [r2, #68]
 712              		.loc 1 494 0
 713 02da 2520     		movs	r0, #37
 714              	.LVL57:
 715 02dc FFF7FEBF 		b	nvicDisableVector
 716              	.LVL58:
 717              	.L94:
 718              		.align	2
 719              	.L93:
 720 02e0 00000000 		.word	SD1
 721 02e4 00000000 		.word	SD2
 722 02e8 00380240 		.word	1073887232
 723              		.cfi_endproc
 724              	.LFE140:
 725              		.size	sd_lld_stop, .-sd_lld_stop
 726              		.comm	SD2,152,4
 727              		.comm	SD1,152,4
 728              		.section	.rodata
 729              		.align	2
 730              		.set	.LANCHOR0,. + 0
 731              		.type	default_config, %object
 732              		.size	default_config, 12
 733              	default_config:
ARM GAS  /tmp/cc9sjCL2.s 			page 14


 734 0000 00960000 		.word	38400
 735 0004 0000     		.short	0
 736 0006 0040     		.short	16384
 737 0008 0000     		.short	0
 738 000a 0000     		.space	2
 739              		.text
 740              	.Letext0:
 741              		.file 2 "/home/sbcu/Dropbox/pcb-layouts/axo-on-discovery-board/axoloti/platform_linux/lib/gcc/arm-
 742              		.file 3 "/home/sbcu/Dropbox/pcb-layouts/axo-on-discovery-board/axoloti/platform_linux/arm-none-eab
 743              		.file 4 "/home/sbcu/Dropbox/pcb-layouts/axo-on-discovery-board/axoloti/platform_linux/arm-none-eab
 744              		.file 5 "/home/sbcu/Dropbox/pcb-layouts/axo-on-discovery-board/axoloti/platform_linux/../chibios/o
 745              		.file 6 "/home/sbcu/Dropbox/pcb-layouts/axo-on-discovery-board/axoloti/platform_linux/../chibios/o
 746              		.file 7 "/home/sbcu/Dropbox/pcb-layouts/axo-on-discovery-board/axoloti/platform_linux/../chibios/o
 747              		.file 8 "/home/sbcu/Dropbox/pcb-layouts/axo-on-discovery-board/axoloti/platform_linux/../chibios/o
 748              		.file 9 "/home/sbcu/Dropbox/pcb-layouts/axo-on-discovery-board/axoloti/platform_linux/../chibios/o
 749              		.file 10 "/home/sbcu/Dropbox/pcb-layouts/axo-on-discovery-board/axoloti/platform_linux/../chibios/
 750              		.file 11 "/home/sbcu/Dropbox/pcb-layouts/axo-on-discovery-board/axoloti/platform_linux/../chibios/
 751              		.file 12 "/home/sbcu/Dropbox/pcb-layouts/axo-on-discovery-board/axoloti/platform_linux/../chibios/
 752              		.file 13 "/home/sbcu/Dropbox/pcb-layouts/axo-on-discovery-board/axoloti/platform_linux/../chibios/
 753              		.file 14 "/home/sbcu/Dropbox/pcb-layouts/axo-on-discovery-board/axoloti/platform_linux/../chibios/
 754              		.file 15 "/home/sbcu/Dropbox/pcb-layouts/axo-on-discovery-board/axoloti/platform_linux/../chibios/
 755              		.file 16 "/home/sbcu/Dropbox/pcb-layouts/axo-on-discovery-board/axoloti/platform_linux/../CMSIS//I