ARM GAS  /tmp/ccghdKPJ.s 			page 1


   1              		.syntax unified
   2              		.cpu cortex-m4
   3              		.eabi_attribute 27, 1
   4              		.eabi_attribute 28, 1
   5              		.fpu fpv4-sp-d16
   6              		.eabi_attribute 20, 1
   7              		.eabi_attribute 21, 1
   8              		.eabi_attribute 23, 3
   9              		.eabi_attribute 24, 1
  10              		.eabi_attribute 25, 1
  11              		.eabi_attribute 26, 1
  12              		.eabi_attribute 30, 2
  13              		.eabi_attribute 34, 1
  14              		.eabi_attribute 18, 4
  15              		.thumb
  16              		.file	"serial.c"
  17              		.text
  18              	.Ltext0:
  19              		.cfi_sections	.debug_frame
  20              		.align	2
  21              		.p2align 4,,15
  22              		.thumb
  23              		.thumb_func
  24              		.type	readt, %function
  25              	readt:
  26              	.LFB137:
  27              		.file 1 "/d_drive/axoloti/platform_linux/../chibios/os/hal/src/serial.c"
  28              		.loc 1 99 0
  29              		.cfi_startproc
  30              		@ args = 0, pretend = 0, frame = 0
  31              		@ frame_needed = 0, uses_anonymous_args = 0
  32              		@ link register save eliminated.
  33              	.LVL0:
  34              		.loc 1 101 0
  35 0000 0C30     		adds	r0, r0, #12
  36              	.LVL1:
  37 0002 FFF7FEBF 		b	chIQReadTimeout
  38              	.LVL2:
  39              		.cfi_endproc
  40              	.LFE137:
  41              		.size	readt, .-readt
  42 0006 00BF     		.align	2
  43 0008 AFF30080 		.p2align 4,,15
  43      AFF30080 
  44              		.thumb
  45              		.thumb_func
  46              		.type	read, %function
  47              	read:
  48              	.LFB131:
  49              		.loc 1 68 0
  50              		.cfi_startproc
  51              		@ args = 0, pretend = 0, frame = 0
  52              		@ frame_needed = 0, uses_anonymous_args = 0
  53              		@ link register save eliminated.
  54              	.LVL3:
  55              		.loc 1 70 0
  56 0010 0C30     		adds	r0, r0, #12
ARM GAS  /tmp/ccghdKPJ.s 			page 2


  57              	.LVL4:
  58 0012 4FF0FF33 		mov	r3, #-1
  59 0016 FFF7FEBF 		b	chIQReadTimeout
  60              	.LVL5:
  61              		.cfi_endproc
  62              	.LFE131:
  63              		.size	read, .-read
  64 001a 00BF     		.align	2
  65 001c AFF30080 		.p2align 4,,15
  66              		.thumb
  67              		.thumb_func
  68              		.type	writet, %function
  69              	writet:
  70              	.LFB136:
  71              		.loc 1 94 0
  72              		.cfi_startproc
  73              		@ args = 0, pretend = 0, frame = 0
  74              		@ frame_needed = 0, uses_anonymous_args = 0
  75              		@ link register save eliminated.
  76              	.LVL6:
  77              		.loc 1 96 0
  78 0020 3030     		adds	r0, r0, #48
  79              	.LVL7:
  80 0022 FFF7FEBF 		b	chOQWriteTimeout
  81              	.LVL8:
  82              		.cfi_endproc
  83              	.LFE136:
  84              		.size	writet, .-writet
  85 0026 00BF     		.align	2
  86 0028 AFF30080 		.p2align 4,,15
  86      AFF30080 
  87              		.thumb
  88              		.thumb_func
  89              		.type	write, %function
  90              	write:
  91              	.LFB130:
  92              		.loc 1 62 0
  93              		.cfi_startproc
  94              		@ args = 0, pretend = 0, frame = 0
  95              		@ frame_needed = 0, uses_anonymous_args = 0
  96              		@ link register save eliminated.
  97              	.LVL9:
  98              		.loc 1 64 0
  99 0030 3030     		adds	r0, r0, #48
 100              	.LVL10:
 101 0032 4FF0FF33 		mov	r3, #-1
 102 0036 FFF7FEBF 		b	chOQWriteTimeout
 103              	.LVL11:
 104              		.cfi_endproc
 105              	.LFE130:
 106              		.size	write, .-write
 107 003a 00BF     		.align	2
 108 003c AFF30080 		.p2align 4,,15
 109              		.thumb
 110              		.thumb_func
 111              		.type	gett, %function
 112              	gett:
ARM GAS  /tmp/ccghdKPJ.s 			page 3


 113              	.LFB135:
 114              		.loc 1 89 0
 115              		.cfi_startproc
 116              		@ args = 0, pretend = 0, frame = 0
 117              		@ frame_needed = 0, uses_anonymous_args = 0
 118              		@ link register save eliminated.
 119              	.LVL12:
 120              		.loc 1 91 0
 121 0040 0C30     		adds	r0, r0, #12
 122              	.LVL13:
 123 0042 FFF7FEBF 		b	chIQGetTimeout
 124              	.LVL14:
 125              		.cfi_endproc
 126              	.LFE135:
 127              		.size	gett, .-gett
 128 0046 00BF     		.align	2
 129 0048 AFF30080 		.p2align 4,,15
 129      AFF30080 
 130              		.thumb
 131              		.thumb_func
 132              		.type	get, %function
 133              	get:
 134              	.LFB133:
 135              		.loc 1 79 0
 136              		.cfi_startproc
 137              		@ args = 0, pretend = 0, frame = 0
 138              		@ frame_needed = 0, uses_anonymous_args = 0
 139              		@ link register save eliminated.
 140              	.LVL15:
 141              		.loc 1 81 0
 142 0050 0C30     		adds	r0, r0, #12
 143              	.LVL16:
 144 0052 4FF0FF31 		mov	r1, #-1
 145 0056 FFF7FEBF 		b	chIQGetTimeout
 146              	.LVL17:
 147              		.cfi_endproc
 148              	.LFE133:
 149              		.size	get, .-get
 150 005a 00BF     		.align	2
 151 005c AFF30080 		.p2align 4,,15
 152              		.thumb
 153              		.thumb_func
 154              		.type	putt, %function
 155              	putt:
 156              	.LFB134:
 157              		.loc 1 84 0
 158              		.cfi_startproc
 159              		@ args = 0, pretend = 0, frame = 0
 160              		@ frame_needed = 0, uses_anonymous_args = 0
 161              		@ link register save eliminated.
 162              	.LVL18:
 163              		.loc 1 86 0
 164 0060 3030     		adds	r0, r0, #48
 165              	.LVL19:
 166 0062 FFF7FEBF 		b	chOQPutTimeout
 167              	.LVL20:
 168              		.cfi_endproc
ARM GAS  /tmp/ccghdKPJ.s 			page 4


 169              	.LFE134:
 170              		.size	putt, .-putt
 171 0066 00BF     		.align	2
 172 0068 AFF30080 		.p2align 4,,15
 172      AFF30080 
 173              		.thumb
 174              		.thumb_func
 175              		.type	put, %function
 176              	put:
 177              	.LFB132:
 178              		.loc 1 74 0
 179              		.cfi_startproc
 180              		@ args = 0, pretend = 0, frame = 0
 181              		@ frame_needed = 0, uses_anonymous_args = 0
 182              		@ link register save eliminated.
 183              	.LVL21:
 184              		.loc 1 76 0
 185 0070 3030     		adds	r0, r0, #48
 186              	.LVL22:
 187 0072 4FF0FF32 		mov	r2, #-1
 188 0076 FFF7FEBF 		b	chOQPutTimeout
 189              	.LVL23:
 190              		.cfi_endproc
 191              	.LFE132:
 192              		.size	put, .-put
 193 007a 00BF     		.align	2
 194 007c AFF30080 		.p2align 4,,15
 195              		.global	sdInit
 196              		.thumb
 197              		.thumb_func
 198              		.type	sdInit, %function
 199              	sdInit:
 200              	.LFB138:
 201              		.loc 1 120 0
 202              		.cfi_startproc
 203              		@ args = 0, pretend = 0, frame = 0
 204              		@ frame_needed = 0, uses_anonymous_args = 0
 205              		@ link register save eliminated.
 206              		.loc 1 122 0
 207 0080 FFF7FEBF 		b	sd_lld_init
 208              	.LVL24:
 209              		.cfi_endproc
 210              	.LFE138:
 211              		.size	sdInit, .-sdInit
 212              		.align	2
 213 0084 AFF30080 		.p2align 4,,15
 213      AFF30080 
 213      AFF30080 
 214              		.global	sdObjectInit
 215              		.thumb
 216              		.thumb_func
 217              		.type	sdObjectInit, %function
 218              	sdObjectInit:
 219              	.LFB139:
 220              		.loc 1 140 0
 221              		.cfi_startproc
 222              		@ args = 0, pretend = 0, frame = 0
ARM GAS  /tmp/ccghdKPJ.s 			page 5


 223              		@ frame_needed = 0, uses_anonymous_args = 0
 224              	.LVL25:
 225 0090 70B5     		push	{r4, r5, r6, lr}
 226              		.cfi_def_cfa_offset 16
 227              		.cfi_offset 4, -16
 228              		.cfi_offset 5, -12
 229              		.cfi_offset 6, -8
 230              		.cfi_offset 14, -4
 231              		.loc 1 142 0
 232 0092 0E4B     		ldr	r3, .L12
 233              		.loc 1 140 0
 234 0094 0446     		mov	r4, r0
 235 0096 82B0     		sub	sp, sp, #8
 236              		.cfi_def_cfa_offset 24
 237              		.loc 1 142 0
 238 0098 40F8043B 		str	r3, [r0], #4
 239              	.LVL26:
 240              		.loc 1 144 0
 241 009c 0126     		movs	r6, #1
 242              		.loc 1 145 0
 243 009e 0094     		str	r4, [sp]
 244              		.loc 1 140 0
 245 00a0 0B46     		mov	r3, r1
 246 00a2 1546     		mov	r5, r2
 247              		.loc 1 143 0
 248 00a4 6060     		str	r0, [r4, #4]
 249              		.loc 1 145 0
 250 00a6 04F15401 		add	r1, r4, #84
 251              	.LVL27:
 252 00aa 04F10C00 		add	r0, r4, #12
 253              		.loc 1 144 0
 254 00ae 2672     		strb	r6, [r4, #8]
 255              		.loc 1 145 0
 256 00b0 2022     		movs	r2, #32
 257              	.LVL28:
 258 00b2 FFF7FEFF 		bl	chIQInit
 259              	.LVL29:
 260              		.loc 1 146 0
 261 00b6 0094     		str	r4, [sp]
 262 00b8 2B46     		mov	r3, r5
 263 00ba 04F13000 		add	r0, r4, #48
 264 00be 04F17401 		add	r1, r4, #116
 265 00c2 2022     		movs	r2, #32
 266 00c4 FFF7FEFF 		bl	chOQInit
 267              	.LVL30:
 268              		.loc 1 147 0
 269 00c8 02B0     		add	sp, sp, #8
 270              		.cfi_def_cfa_offset 16
 271              		@ sp needed
 272 00ca 70BD     		pop	{r4, r5, r6, pc}
 273              	.LVL31:
 274              	.L13:
 275              		.align	2
 276              	.L12:
 277 00cc 00000000 		.word	.LANCHOR0
 278              		.cfi_endproc
 279              	.LFE139:
ARM GAS  /tmp/ccghdKPJ.s 			page 6


 280              		.size	sdObjectInit, .-sdObjectInit
 281              		.align	2
 282              		.p2align 4,,15
 283              		.global	sdStart
 284              		.thumb
 285              		.thumb_func
 286              		.type	sdStart, %function
 287              	sdStart:
 288              	.LFB140:
 289              		.loc 1 159 0
 290              		.cfi_startproc
 291              		@ args = 0, pretend = 0, frame = 0
 292              		@ frame_needed = 0, uses_anonymous_args = 0
 293              	.LVL32:
 294 00d0 10B5     		push	{r4, lr}
 295              		.cfi_def_cfa_offset 8
 296              		.cfi_offset 4, -8
 297              		.cfi_offset 14, -4
 298              	.LBB2:
 299              		.loc 1 163 0
 300 00d2 2023     		movs	r3, #32
 301              	.LBE2:
 302              		.loc 1 159 0
 303 00d4 0446     		mov	r4, r0
 304              	.LBB3:
 305              		.loc 1 163 0
 306              	@ 163 "/d_drive/axoloti/platform_linux/../chibios/os/hal/src/serial.c" 1
 307 00d6 83F31188 		msr     BASEPRI, r3
 308              	@ 0 "" 2
 309              		.thumb
 310              	.LBE3:
 311              		.loc 1 167 0
 312 00da FFF7FEFF 		bl	sd_lld_start
 313              	.LVL33:
 314              		.loc 1 168 0
 315 00de 0223     		movs	r3, #2
 316 00e0 2372     		strb	r3, [r4, #8]
 317              	.LBB4:
 318              		.loc 1 169 0
 319 00e2 0023     		movs	r3, #0
 320              	@ 169 "/d_drive/axoloti/platform_linux/../chibios/os/hal/src/serial.c" 1
 321 00e4 83F31188 		msr     BASEPRI, r3
 322              	@ 0 "" 2
 323              		.thumb
 324 00e8 10BD     		pop	{r4, pc}
 325              	.LBE4:
 326              		.cfi_endproc
 327              	.LFE140:
 328              		.size	sdStart, .-sdStart
 329 00ea 00BF     		.align	2
 330 00ec AFF30080 		.p2align 4,,15
 331              		.global	sdStop
 332              		.thumb
 333              		.thumb_func
 334              		.type	sdStop, %function
 335              	sdStop:
 336              	.LFB141:
ARM GAS  /tmp/ccghdKPJ.s 			page 7


 337              		.loc 1 181 0
 338              		.cfi_startproc
 339              		@ args = 0, pretend = 0, frame = 0
 340              		@ frame_needed = 0, uses_anonymous_args = 0
 341              	.LVL34:
 342 00f0 10B5     		push	{r4, lr}
 343              		.cfi_def_cfa_offset 8
 344              		.cfi_offset 4, -8
 345              		.cfi_offset 14, -4
 346              	.LBB5:
 347              		.loc 1 185 0
 348 00f2 2023     		movs	r3, #32
 349              	.LBE5:
 350              		.loc 1 181 0
 351 00f4 0446     		mov	r4, r0
 352              	.LBB6:
 353              		.loc 1 185 0
 354              	@ 185 "/d_drive/axoloti/platform_linux/../chibios/os/hal/src/serial.c" 1
 355 00f6 83F31188 		msr     BASEPRI, r3
 356              	@ 0 "" 2
 357              		.thumb
 358              	.LBE6:
 359              		.loc 1 189 0
 360 00fa FFF7FEFF 		bl	sd_lld_stop
 361              	.LVL35:
 362              		.loc 1 190 0
 363 00fe 0123     		movs	r3, #1
 364 0100 2372     		strb	r3, [r4, #8]
 365              		.loc 1 191 0
 366 0102 04F13000 		add	r0, r4, #48
 367 0106 FFF7FEFF 		bl	chOQResetI
 368              	.LVL36:
 369              		.loc 1 192 0
 370 010a 04F10C00 		add	r0, r4, #12
 371 010e FFF7FEFF 		bl	chIQResetI
 372              	.LVL37:
 373              		.loc 1 193 0
 374 0112 FFF7FEFF 		bl	chSchRescheduleS
 375              	.LVL38:
 376              	.LBB7:
 377              		.loc 1 194 0
 378 0116 0023     		movs	r3, #0
 379              	@ 194 "/d_drive/axoloti/platform_linux/../chibios/os/hal/src/serial.c" 1
 380 0118 83F31188 		msr     BASEPRI, r3
 381              	@ 0 "" 2
 382              		.thumb
 383 011c 10BD     		pop	{r4, pc}
 384              	.LBE7:
 385              		.cfi_endproc
 386              	.LFE141:
 387              		.size	sdStop, .-sdStop
 388 011e 00BF     		.align	2
 389              		.p2align 4,,15
 390              		.global	sdIncomingDataI
 391              		.thumb
 392              		.thumb_func
 393              		.type	sdIncomingDataI, %function
ARM GAS  /tmp/ccghdKPJ.s 			page 8


 394              	sdIncomingDataI:
 395              	.LFB142:
 396              		.loc 1 213 0
 397              		.cfi_startproc
 398              		@ args = 0, pretend = 0, frame = 0
 399              		@ frame_needed = 0, uses_anonymous_args = 0
 400              	.LVL39:
 401 0120 38B5     		push	{r3, r4, r5, lr}
 402              		.cfi_def_cfa_offset 16
 403              		.cfi_offset 3, -16
 404              		.cfi_offset 4, -12
 405              		.cfi_offset 5, -8
 406              		.cfi_offset 14, -4
 407              		.loc 1 218 0
 408 0122 4369     		ldr	r3, [r0, #20]
 409              		.loc 1 213 0
 410 0124 0446     		mov	r4, r0
 411 0126 0D46     		mov	r5, r1
 412              		.loc 1 218 0
 413 0128 3BB1     		cbz	r3, .L23
 414              		.loc 1 220 0
 415 012a 2946     		mov	r1, r5
 416              	.LVL40:
 417 012c 04F10C00 		add	r0, r4, #12
 418              	.LVL41:
 419 0130 FFF7FEFF 		bl	chIQPutI
 420              	.LVL42:
 421 0134 0028     		cmp	r0, #0
 422 0136 0BDB     		blt	.L24
 423              	.L18:
 424 0138 38BD     		pop	{r3, r4, r5, pc}
 425              	.LVL43:
 426              	.L23:
 427              		.loc 1 219 0
 428 013a 0430     		adds	r0, r0, #4
 429              	.LVL44:
 430 013c 0421     		movs	r1, #4
 431              	.LVL45:
 432 013e FFF7FEFF 		bl	chEvtBroadcastFlagsI
 433              	.LVL46:
 434              		.loc 1 220 0
 435 0142 2946     		mov	r1, r5
 436 0144 04F10C00 		add	r0, r4, #12
 437 0148 FFF7FEFF 		bl	chIQPutI
 438              	.LVL47:
 439 014c 0028     		cmp	r0, #0
 440 014e F3DA     		bge	.L18
 441              	.L24:
 442              		.loc 1 221 0
 443 0150 201D     		adds	r0, r4, #4
 444 0152 8021     		movs	r1, #128
 445              		.loc 1 222 0
 446 0154 BDE83840 		pop	{r3, r4, r5, lr}
 447              		.cfi_restore 14
 448              		.cfi_restore 5
 449              		.cfi_restore 4
 450              		.cfi_restore 3
ARM GAS  /tmp/ccghdKPJ.s 			page 9


 451              		.cfi_def_cfa_offset 0
 452              	.LVL48:
 453              		.loc 1 221 0
 454 0158 FFF7FEBF 		b	chEvtBroadcastFlagsI
 455              	.LVL49:
 456              		.cfi_endproc
 457              	.LFE142:
 458              		.size	sdIncomingDataI, .-sdIncomingDataI
 459              		.align	2
 460 015c AFF30080 		.p2align 4,,15
 461              		.global	sdRequestDataI
 462              		.thumb
 463              		.thumb_func
 464              		.type	sdRequestDataI, %function
 465              	sdRequestDataI:
 466              	.LFB143:
 467              		.loc 1 239 0
 468              		.cfi_startproc
 469              		@ args = 0, pretend = 0, frame = 0
 470              		@ frame_needed = 0, uses_anonymous_args = 0
 471              	.LVL50:
 472 0160 38B5     		push	{r3, r4, r5, lr}
 473              		.cfi_def_cfa_offset 16
 474              		.cfi_offset 3, -16
 475              		.cfi_offset 4, -12
 476              		.cfi_offset 5, -8
 477              		.cfi_offset 14, -4
 478              		.loc 1 239 0
 479 0162 0446     		mov	r4, r0
 480              		.loc 1 245 0
 481 0164 3030     		adds	r0, r0, #48
 482              	.LVL51:
 483 0166 FFF7FEFF 		bl	chOQGetI
 484              	.LVL52:
 485              		.loc 1 246 0
 486 016a 051E     		subs	r5, r0, #0
 487 016c 01DB     		blt	.L28
 488              		.loc 1 249 0
 489 016e 2846     		mov	r0, r5
 490 0170 38BD     		pop	{r3, r4, r5, pc}
 491              	.LVL53:
 492              	.L28:
 493              		.loc 1 247 0
 494 0172 201D     		adds	r0, r4, #4
 495              	.LVL54:
 496 0174 0821     		movs	r1, #8
 497 0176 FFF7FEFF 		bl	chEvtBroadcastFlagsI
 498              	.LVL55:
 499              		.loc 1 249 0
 500 017a 2846     		mov	r0, r5
 501 017c 38BD     		pop	{r3, r4, r5, pc}
 502              		.cfi_endproc
 503              	.LFE143:
 504              		.size	sdRequestDataI, .-sdRequestDataI
 505              		.section	.rodata
 506              		.align	2
 507              		.set	.LANCHOR0,. + 0
ARM GAS  /tmp/ccghdKPJ.s 			page 10


 508              		.type	vmt, %object
 509              		.size	vmt, 32
 510              	vmt:
 511 0000 00000000 		.word	write
 512 0004 00000000 		.word	read
 513 0008 00000000 		.word	put
 514 000c 00000000 		.word	get
 515 0010 00000000 		.word	putt
 516 0014 00000000 		.word	gett
 517 0018 00000000 		.word	writet
 518 001c 00000000 		.word	readt
 519              		.text
 520              	.Letext0:
 521              		.file 2 "/d_drive/axoloti/platform_linux/lib/gcc/arm-none-eabi/4.9.3/include/stddef.h"
 522              		.file 3 "/d_drive/axoloti/platform_linux/arm-none-eabi/include/machine/_default_types.h"
 523              		.file 4 "/d_drive/axoloti/platform_linux/arm-none-eabi/include/sys/_stdint.h"
 524              		.file 5 "/d_drive/axoloti/platform_linux/../chibios/os/ports/GCC/ARMCMx/chtypes.h"
 525              		.file 6 "/d_drive/axoloti/platform_linux/../chibios/os/kernel/include/chlists.h"
 526              		.file 7 "/d_drive/axoloti/platform_linux/../chibios/os/kernel/include/chthreads.h"
 527              		.file 8 "/d_drive/axoloti/platform_linux/../chibios/os/ports/GCC/ARMCMx/chcore_v7m.h"
 528              		.file 9 "/d_drive/axoloti/platform_linux/../chibios/os/kernel/include/chmtx.h"
 529              		.file 10 "/d_drive/axoloti/platform_linux/../chibios/os/kernel/include/chevents.h"
 530              		.file 11 "/d_drive/axoloti/platform_linux/../chibios/os/kernel/include/chqueues.h"
 531              		.file 12 "/d_drive/axoloti/platform_linux/../chibios/os/hal/platforms/STM32F4xx/stm32f4xx.h"
 532              		.file 13 "/d_drive/axoloti/platform_linux/../chibios/os/hal/include/serial.h"
 533              		.file 14 "/d_drive/axoloti/platform_linux/../chibios/os/hal/platforms/STM32/USARTv1/serial_lld.h"
 534              		.file 15 "/d_drive/axoloti/platform_linux/../chibios/os/kernel/include/chschd.h"
 535              		.file 16 "/d_drive/axoloti/platform_linux/../CMSIS//Include/core_cm4.h"