ARM GAS  /tmp/cc43PxIh.s 			page 1


   1              		.syntax unified
   2              		.cpu cortex-m4
   3              		.eabi_attribute 27, 1
   4              		.eabi_attribute 28, 1
   5              		.fpu fpv4-sp-d16
   6              		.eabi_attribute 20, 1
   7              		.eabi_attribute 21, 1
   8              		.eabi_attribute 23, 3
   9              		.eabi_attribute 24, 1
  10              		.eabi_attribute 25, 1
  11              		.eabi_attribute 26, 1
  12              		.eabi_attribute 30, 2
  13              		.eabi_attribute 34, 1
  14              		.eabi_attribute 18, 4
  15              		.thumb
  16              		.file	"serial_midi.c"
  17              		.text
  18              	.Ltext0:
  19              		.cfi_sections	.debug_frame
  20              		.align	2
  21              		.p2align 4,,15
  22              		.global	serial_MidiInByteHandler
  23              		.thumb
  24              		.thumb_func
  25              		.type	serial_MidiInByteHandler, %function
  26              	serial_MidiInByteHandler:
  27              	.LFB130:
  28              		.file 1 "serial_midi.c"
  29              		.loc 1 63 0
  30              		.cfi_startproc
  31              		@ args = 0, pretend = 0, frame = 0
  32              		@ frame_needed = 0, uses_anonymous_args = 0
  33              	.LVL0:
  34 0000 30B5     		push	{r4, r5, lr}
  35              		.cfi_def_cfa_offset 12
  36              		.cfi_offset 4, -12
  37              		.cfi_offset 5, -8
  38              		.cfi_offset 14, -4
  39              		.loc 1 65 0
  40 0002 0306     		lsls	r3, r0, #24
  41              		.loc 1 63 0
  42 0004 83B0     		sub	sp, sp, #12
  43              		.cfi_def_cfa_offset 24
  44              		.loc 1 65 0
  45 0006 10D4     		bmi	.L12
  46              		.loc 1 86 0
  47 0008 234D     		ldr	r5, .L16
  48 000a 2C78     		ldrb	r4, [r5]	@ zero_extendqisi2
  49 000c 4CB9     		cbnz	r4, .L6
  50              		.loc 1 88 0
  51 000e 234A     		ldr	r2, .L16+4
  52              		.loc 1 87 0
  53 0010 234B     		ldr	r3, .L16+8
  54              		.loc 1 88 0
  55 0012 1178     		ldrb	r1, [r2]	@ zero_extendqisi2
  56              		.loc 1 87 0
  57 0014 1870     		strb	r0, [r3]
ARM GAS  /tmp/cc43PxIh.s 			page 2


  58              		.loc 1 88 0
  59 0016 0129     		cmp	r1, #1
  60 0018 35D0     		beq	.L13
  61              		.loc 1 94 0
  62 001a 0123     		movs	r3, #1
  63 001c 2B70     		strb	r3, [r5]
  64              		.loc 1 104 0
  65 001e 03B0     		add	sp, sp, #12
  66              		.cfi_remember_state
  67              		.cfi_def_cfa_offset 12
  68              		@ sp needed
  69 0020 30BD     		pop	{r4, r5, pc}
  70              	.L6:
  71              		.cfi_restore_state
  72              		.loc 1 96 0
  73 0022 012C     		cmp	r4, #1
  74 0024 1DD0     		beq	.L14
  75              	.LVL1:
  76              	.L1:
  77              		.loc 1 104 0
  78 0026 03B0     		add	sp, sp, #12
  79              		.cfi_remember_state
  80              		.cfi_def_cfa_offset 12
  81              		@ sp needed
  82 0028 30BD     		pop	{r4, r5, pc}
  83              	.LVL2:
  84              	.L12:
  85              		.cfi_restore_state
  86              	.LBB4:
  87              	.LBB5:
  88              		.loc 1 66 0
  89 002a 1E4A     		ldr	r2, .L16+12
  90 002c 0309     		lsrs	r3, r0, #4
  91 002e D35C     		ldrb	r3, [r2, r3]	@ zero_extendqisi2
  92              	.LVL3:
  93              		.loc 1 67 0
  94 0030 FF2B     		cmp	r3, #255
  95 0032 09D0     		beq	.L15
  96              	.L3:
  97              		.loc 1 79 0
  98 0034 1C49     		ldr	r1, .L16+16
  99              		.loc 1 80 0
 100 0036 194C     		ldr	r4, .L16+4
 101              		.loc 1 81 0
 102 0038 174A     		ldr	r2, .L16
 103              		.loc 1 79 0
 104 003a 0870     		strb	r0, [r1]
 105              		.loc 1 80 0
 106 003c 013B     		subs	r3, r3, #1
 107              	.LVL4:
 108              		.loc 1 81 0
 109 003e 0021     		movs	r1, #0
 110              		.loc 1 80 0
 111 0040 2370     		strb	r3, [r4]
 112              		.loc 1 81 0
 113 0042 1170     		strb	r1, [r2]
 114              	.LBE5:
ARM GAS  /tmp/cc43PxIh.s 			page 3


 115              	.LBE4:
 116              		.loc 1 104 0
 117 0044 03B0     		add	sp, sp, #12
 118              		.cfi_remember_state
 119              		.cfi_def_cfa_offset 12
 120              		@ sp needed
 121 0046 30BD     		pop	{r4, r5, pc}
 122              	.LVL5:
 123              	.L15:
 124              		.cfi_restore_state
 125              	.LBB7:
 126              	.LBB6:
 127              		.loc 1 68 0
 128 0048 0244     		add	r2, r2, r0
 129 004a 12F8E03C 		ldrb	r3, [r2, #-224]	@ zero_extendqisi2
 130              	.LVL6:
 131              		.loc 1 69 0
 132 004e 59B2     		sxtb	r1, r3
 133 0050 0129     		cmp	r1, #1
 134 0052 EFD1     		bne	.L3
 135              		.loc 1 70 0
 136 0054 0023     		movs	r3, #0
 137              	.LVL7:
 138 0056 0246     		mov	r2, r0
 139 0058 0093     		str	r3, [sp]
 140 005a 0846     		mov	r0, r1
 141              	.LVL8:
 142 005c FFF7FEFF 		bl	MidiInMsgHandler
 143              	.LVL9:
 144 0060 E1E7     		b	.L1
 145              	.LVL10:
 146              	.L14:
 147              	.LBE6:
 148              	.LBE7:
 149              		.loc 1 98 0
 150 0062 0E4B     		ldr	r3, .L16+4
 151              		.loc 1 97 0
 152 0064 114A     		ldr	r2, .L16+20
 153              		.loc 1 98 0
 154 0066 1B78     		ldrb	r3, [r3]	@ zero_extendqisi2
 155              		.loc 1 97 0
 156 0068 1070     		strb	r0, [r2]
 157              		.loc 1 98 0
 158 006a 022B     		cmp	r3, #2
 159 006c DBD1     		bne	.L1
 160              		.loc 1 99 0
 161 006e 0E4A     		ldr	r2, .L16+16
 162 0070 0B4B     		ldr	r3, .L16+8
 163 0072 1278     		ldrb	r2, [r2]	@ zero_extendqisi2
 164 0074 1B78     		ldrb	r3, [r3]	@ zero_extendqisi2
 165 0076 0090     		str	r0, [sp]
 166 0078 2146     		mov	r1, r4
 167 007a 2046     		mov	r0, r4
 168              	.LVL11:
 169 007c FFF7FEFF 		bl	MidiInMsgHandler
 170              	.LVL12:
 171              		.loc 1 100 0
ARM GAS  /tmp/cc43PxIh.s 			page 4


 172 0080 0023     		movs	r3, #0
 173 0082 2B70     		strb	r3, [r5]
 174 0084 CFE7     		b	.L1
 175              	.LVL13:
 176              	.L13:
 177              		.loc 1 90 0
 178 0086 084B     		ldr	r3, .L16+16
 179 0088 0094     		str	r4, [sp]
 180 008a 1A78     		ldrb	r2, [r3]	@ zero_extendqisi2
 181 008c 0346     		mov	r3, r0
 182 008e 0846     		mov	r0, r1
 183              	.LVL14:
 184 0090 FFF7FEFF 		bl	MidiInMsgHandler
 185              	.LVL15:
 186              		.loc 1 91 0
 187 0094 2C70     		strb	r4, [r5]
 188 0096 C6E7     		b	.L1
 189              	.L17:
 190              		.align	2
 191              	.L16:
 192 0098 00000000 		.word	MidiCurData
 193 009c 00000000 		.word	MidiNumData
 194 00a0 00000000 		.word	MidiByte1
 195 00a4 00000000 		.word	.LANCHOR0
 196 00a8 00000000 		.word	MidiByte0
 197 00ac 00000000 		.word	MidiByte2
 198              		.cfi_endproc
 199              	.LFE130:
 200              		.size	serial_MidiInByteHandler, .-serial_MidiInByteHandler
 201              		.align	2
 202              		.p2align 4,,15
 203              		.thumb
 204              		.thumb_func
 205              		.type	ThreadMidi, %function
 206              	ThreadMidi:
 207              	.LFB135:
 208              		.loc 1 138 0
 209              		.cfi_startproc
 210              		@ Volatile: function does not return.
 211              		@ args = 0, pretend = 0, frame = 0
 212              		@ frame_needed = 0, uses_anonymous_args = 0
 213              	.LVL16:
 214 00b0 08B5     		push	{r3, lr}
 215              		.cfi_def_cfa_offset 8
 216              		.cfi_offset 3, -8
 217              		.cfi_offset 14, -4
 218              		.loc 1 141 0
 219 00b2 064B     		ldr	r3, .L21
 220 00b4 064A     		ldr	r2, .L21+4
 221 00b6 9B69     		ldr	r3, [r3, #24]
 222 00b8 9A61     		str	r2, [r3, #24]
 223              	.LVL17:
 224              	.L19:
 225              	.LBB8:
 226              		.loc 1 145 0 discriminator 1
 227 00ba 4FF0FF31 		mov	r1, #-1
 228 00be 0548     		ldr	r0, .L21+8
ARM GAS  /tmp/cc43PxIh.s 			page 5


 229 00c0 FFF7FEFF 		bl	chIQGetTimeout
 230              	.LVL18:
 231              		.loc 1 146 0 discriminator 1
 232 00c4 C0B2     		uxtb	r0, r0
 233 00c6 FFF7FEFF 		bl	serial_MidiInByteHandler
 234              	.LVL19:
 235              	.LBE8:
 236              		.loc 1 147 0 discriminator 1
 237 00ca F6E7     		b	.L19
 238              	.L22:
 239              		.align	2
 240              	.L21:
 241 00cc 00000000 		.word	rlist
 242 00d0 00000000 		.word	.LC0
 243 00d4 0C000000 		.word	SD1+12
 244              		.cfi_endproc
 245              	.LFE135:
 246              		.size	ThreadMidi, .-ThreadMidi
 247              		.align	2
 248 00d8 AFF30080 		.p2align 4,,15
 248      AFF30080 
 249              		.global	serial_MidiSend1
 250              		.thumb
 251              		.thumb_func
 252              		.type	serial_MidiSend1, %function
 253              	serial_MidiSend1:
 254              	.LFB131:
 255              		.loc 1 108 0
 256              		.cfi_startproc
 257              		@ args = 0, pretend = 0, frame = 0
 258              		@ frame_needed = 0, uses_anonymous_args = 0
 259              		@ link register save eliminated.
 260              	.LVL20:
 261              		.loc 1 108 0
 262 00e0 0146     		mov	r1, r0
 263              		.loc 1 109 0
 264 00e2 4FF0FF32 		mov	r2, #-1
 265 00e6 0148     		ldr	r0, .L24
 266              	.LVL21:
 267 00e8 FFF7FEBF 		b	chOQPutTimeout
 268              	.LVL22:
 269              	.L25:
 270              		.align	2
 271              	.L24:
 272 00ec 30000000 		.word	SD1+48
 273              		.cfi_endproc
 274              	.LFE131:
 275              		.size	serial_MidiSend1, .-serial_MidiSend1
 276              		.align	2
 277              		.p2align 4,,15
 278              		.global	serial_MidiSend2
 279              		.thumb
 280              		.thumb_func
 281              		.type	serial_MidiSend2, %function
 282              	serial_MidiSend2:
 283              	.LFB132:
 284              		.loc 1 112 0
ARM GAS  /tmp/cc43PxIh.s 			page 6


 285              		.cfi_startproc
 286              		@ args = 0, pretend = 0, frame = 8
 287              		@ frame_needed = 0, uses_anonymous_args = 0
 288              	.LVL23:
 289 00f0 00B5     		push	{lr}
 290              		.cfi_def_cfa_offset 4
 291              		.cfi_offset 14, -4
 292 00f2 83B0     		sub	sp, sp, #12
 293              		.cfi_def_cfa_offset 16
 294              		.loc 1 116 0
 295 00f4 0222     		movs	r2, #2
 296              		.loc 1 114 0
 297 00f6 8DF80400 		strb	r0, [sp, #4]
 298              		.loc 1 115 0
 299 00fa 8DF80510 		strb	r1, [sp, #5]
 300              		.loc 1 116 0
 301 00fe 4FF0FF33 		mov	r3, #-1
 302 0102 01A9     		add	r1, sp, #4
 303              	.LVL24:
 304 0104 0248     		ldr	r0, .L28
 305              	.LVL25:
 306 0106 FFF7FEFF 		bl	chOQWriteTimeout
 307              	.LVL26:
 308              		.loc 1 117 0
 309 010a 03B0     		add	sp, sp, #12
 310              		.cfi_def_cfa_offset 4
 311              		@ sp needed
 312 010c 5DF804FB 		ldr	pc, [sp], #4
 313              	.L29:
 314              		.align	2
 315              	.L28:
 316 0110 30000000 		.word	SD1+48
 317              		.cfi_endproc
 318              	.LFE132:
 319              		.size	serial_MidiSend2, .-serial_MidiSend2
 320              		.align	2
 321 0114 AFF30080 		.p2align 4,,15
 321      AFF30080 
 321      AFF30080 
 322              		.global	serial_MidiSend3
 323              		.thumb
 324              		.thumb_func
 325              		.type	serial_MidiSend3, %function
 326              	serial_MidiSend3:
 327              	.LFB133:
 328              		.loc 1 119 0
 329              		.cfi_startproc
 330              		@ args = 0, pretend = 0, frame = 8
 331              		@ frame_needed = 0, uses_anonymous_args = 0
 332              	.LVL27:
 333 0120 00B5     		push	{lr}
 334              		.cfi_def_cfa_offset 4
 335              		.cfi_offset 14, -4
 336 0122 83B0     		sub	sp, sp, #12
 337              		.cfi_def_cfa_offset 16
 338              		.loc 1 124 0
 339 0124 4FF0FF33 		mov	r3, #-1
ARM GAS  /tmp/cc43PxIh.s 			page 7


 340              		.loc 1 121 0
 341 0128 8DF80400 		strb	r0, [sp, #4]
 342              		.loc 1 122 0
 343 012c 8DF80510 		strb	r1, [sp, #5]
 344              		.loc 1 123 0
 345 0130 8DF80620 		strb	r2, [sp, #6]
 346              		.loc 1 124 0
 347 0134 01A9     		add	r1, sp, #4
 348              	.LVL28:
 349 0136 0322     		movs	r2, #3
 350              	.LVL29:
 351 0138 0248     		ldr	r0, .L32
 352              	.LVL30:
 353 013a FFF7FEFF 		bl	chOQWriteTimeout
 354              	.LVL31:
 355              		.loc 1 125 0
 356 013e 03B0     		add	sp, sp, #12
 357              		.cfi_def_cfa_offset 4
 358              		@ sp needed
 359 0140 5DF804FB 		ldr	pc, [sp], #4
 360              	.L33:
 361              		.align	2
 362              	.L32:
 363 0144 30000000 		.word	SD1+48
 364              		.cfi_endproc
 365              	.LFE133:
 366              		.size	serial_MidiSend3, .-serial_MidiSend3
 367              		.align	2
 368 0148 AFF30080 		.p2align 4,,15
 368      AFF30080 
 369              		.global	serial_MidiGetOutputBufferPending
 370              		.thumb
 371              		.thumb_func
 372              		.type	serial_MidiGetOutputBufferPending, %function
 373              	serial_MidiGetOutputBufferPending:
 374              	.LFB134:
 375              		.loc 1 127 0
 376              		.cfi_startproc
 377              		@ args = 0, pretend = 0, frame = 0
 378              		@ frame_needed = 0, uses_anonymous_args = 0
 379              		@ link register save eliminated.
 380              		.loc 1 128 0
 381 0150 034A     		ldr	r2, .L35
 382 0152 02F13800 		add	r0, r2, #56
 383 0156 0BC8     		ldmia	r0, {r0, r1, r3}
 384 0158 5B1A     		subs	r3, r3, r1
 385              		.loc 1 129 0
 386 015a 181A     		subs	r0, r3, r0
 387 015c 7047     		bx	lr
 388              	.L36:
 389 015e 00BF     		.align	2
 390              	.L35:
 391 0160 00000000 		.word	SD1
 392              		.cfi_endproc
 393              	.LFE134:
 394              		.size	serial_MidiGetOutputBufferPending, .-serial_MidiGetOutputBufferPending
 395              		.align	2
ARM GAS  /tmp/cc43PxIh.s 			page 8


 396 0164 AFF30080 		.p2align 4,,15
 396      AFF30080 
 396      AFF30080 
 397              		.global	serial_midi_init
 398              		.thumb
 399              		.thumb_func
 400              		.type	serial_midi_init, %function
 401              	serial_midi_init:
 402              	.LFB136:
 403              		.loc 1 150 0
 404              		.cfi_startproc
 405              		@ args = 0, pretend = 0, frame = 0
 406              		@ frame_needed = 0, uses_anonymous_args = 0
 407 0170 10B5     		push	{r4, lr}
 408              		.cfi_def_cfa_offset 8
 409              		.cfi_offset 4, -8
 410              		.cfi_offset 14, -4
 411              		.loc 1 156 0
 412 0172 0E4C     		ldr	r4, .L39
 413              		.loc 1 150 0
 414 0174 82B0     		sub	sp, sp, #8
 415              		.cfi_def_cfa_offset 16
 416              		.loc 1 156 0
 417 0176 2046     		mov	r0, r4
 418 0178 8021     		movs	r1, #128
 419 017a 40F2A232 		movw	r2, #930
 420 017e FFF7FEFF 		bl	_pal_lld_setgroupmode
 421              	.LVL32:
 422              		.loc 1 159 0
 423 0182 2046     		mov	r0, r4
 424 0184 40F28632 		movw	r2, #902
 425 0188 4021     		movs	r1, #64
 426 018a FFF7FEFF 		bl	_pal_lld_setgroupmode
 427              	.LVL33:
 428              		.loc 1 161 0
 429 018e 0848     		ldr	r0, .L39+4
 430 0190 0849     		ldr	r1, .L39+8
 431 0192 FFF7FEFF 		bl	sdStart
 432              	.LVL34:
 433              		.loc 1 162 0
 434 0196 0023     		movs	r3, #0
 435 0198 0093     		str	r3, [sp]
 436 019a 4FF41471 		mov	r1, #592
 437 019e 064B     		ldr	r3, .L39+12
 438 01a0 0648     		ldr	r0, .L39+16
 439 01a2 4022     		movs	r2, #64
 440 01a4 FFF7FEFF 		bl	chThdCreateStatic
 441              	.LVL35:
 442              		.loc 1 164 0
 443 01a8 02B0     		add	sp, sp, #8
 444              		.cfi_def_cfa_offset 8
 445              		@ sp needed
 446 01aa 10BD     		pop	{r4, pc}
 447              	.L40:
 448              		.align	2
 449              	.L39:
 450 01ac 00040240 		.word	1073873920
ARM GAS  /tmp/cc43PxIh.s 			page 9


 451 01b0 00000000 		.word	SD1
 452 01b4 20000000 		.word	.LANCHOR0+32
 453 01b8 00000000 		.word	ThreadMidi
 454 01bc 00000000 		.word	.LANCHOR1
 455              		.cfi_endproc
 456              	.LFE136:
 457              		.size	serial_midi_init, .-serial_midi_init
 458              		.comm	MidiInChannel,1,1
 459              		.comm	MidiNumData,1,1
 460              		.comm	MidiCurData,1,1
 461              		.comm	MidiByte2,1,1
 462              		.comm	MidiByte1,1,1
 463              		.comm	MidiByte0,1,1
 464              		.global	SysMsgLengthLookup
 465              		.section	.rodata
 466              		.align	2
 467              		.set	.LANCHOR0,. + 0
 468              		.type	StatusLengthLookup, %object
 469              		.size	StatusLengthLookup, 16
 470              	StatusLengthLookup:
 471 0000 00       		.byte	0
 472 0001 00       		.byte	0
 473 0002 00       		.byte	0
 474 0003 00       		.byte	0
 475 0004 00       		.byte	0
 476 0005 00       		.byte	0
 477 0006 00       		.byte	0
 478 0007 00       		.byte	0
 479 0008 03       		.byte	3
 480 0009 03       		.byte	3
 481 000a 03       		.byte	3
 482 000b 03       		.byte	3
 483 000c 02       		.byte	2
 484 000d 02       		.byte	2
 485 000e 03       		.byte	3
 486 000f FF       		.byte	-1
 487              		.type	SysMsgLengthLookup, %object
 488              		.size	SysMsgLengthLookup, 16
 489              	SysMsgLengthLookup:
 490 0010 FF       		.byte	-1
 491 0011 02       		.byte	2
 492 0012 03       		.byte	3
 493 0013 02       		.byte	2
 494 0014 01       		.byte	1
 495 0015 01       		.byte	1
 496 0016 01       		.byte	1
 497 0017 01       		.byte	1
 498 0018 01       		.byte	1
 499 0019 01       		.byte	1
 500 001a 01       		.byte	1
 501 001b 01       		.byte	1
 502 001c 01       		.byte	1
 503 001d 01       		.byte	1
 504 001e 01       		.byte	1
 505 001f 03       		.byte	3
 506              		.type	sdMidiCfg, %object
 507              		.size	sdMidiCfg, 12
ARM GAS  /tmp/cc43PxIh.s 			page 10


 508              	sdMidiCfg:
 509 0020 127A0000 		.word	31250
 510 0024 0000     		.short	0
 511 0026 0000     		.short	0
 512 0028 0000     		.short	0
 513 002a 0000     		.space	2
 514              		.section	.rodata.str1.4,"aMS",%progbits,1
 515              		.align	2
 516              	.LC0:
 517 0000 6D696469 		.ascii	"midi\000"
 517      00
 518              		.section	.ccmramend,"aw",%progbits
 519              		.align	3
 520              		.set	.LANCHOR1,. + 0
 521              		.type	waThreadMidi, %object
 522              		.size	waThreadMidi, 592
 523              	waThreadMidi:
 524 0000 00000000 		.space	592
 524      00000000 
 524      00000000 
 524      00000000 
 524      00000000 
 525              		.text
 526              	.Letext0:
 527              		.file 2 "/home/sbcu/Dropbox/pcb-layouts/axo-on-discovery-board/axoloti/platform_linux/lib/gcc/arm-
 528              		.file 3 "/home/sbcu/Dropbox/pcb-layouts/axo-on-discovery-board/axoloti/platform_linux/arm-none-eab
 529              		.file 4 "/home/sbcu/Dropbox/pcb-layouts/axo-on-discovery-board/axoloti/platform_linux/arm-none-eab
 530              		.file 5 "/home/sbcu/Dropbox/pcb-layouts/axo-on-discovery-board/axoloti/platform_linux/../chibios/o
 531              		.file 6 "/home/sbcu/Dropbox/pcb-layouts/axo-on-discovery-board/axoloti/platform_linux/../chibios/o
 532              		.file 7 "/home/sbcu/Dropbox/pcb-layouts/axo-on-discovery-board/axoloti/platform_linux/../chibios/o
 533              		.file 8 "/home/sbcu/Dropbox/pcb-layouts/axo-on-discovery-board/axoloti/platform_linux/../chibios/o
 534              		.file 9 "/home/sbcu/Dropbox/pcb-layouts/axo-on-discovery-board/axoloti/platform_linux/../chibios/o
 535              		.file 10 "/home/sbcu/Dropbox/pcb-layouts/axo-on-discovery-board/axoloti/platform_linux/../chibios/
 536              		.file 11 "/home/sbcu/Dropbox/pcb-layouts/axo-on-discovery-board/axoloti/platform_linux/../chibios/
 537              		.file 12 "/home/sbcu/Dropbox/pcb-layouts/axo-on-discovery-board/axoloti/platform_linux/../chibios/
 538              		.file 13 "/home/sbcu/Dropbox/pcb-layouts/axo-on-discovery-board/axoloti/platform_linux/../chibios/
 539              		.file 14 "/home/sbcu/Dropbox/pcb-layouts/axo-on-discovery-board/axoloti/platform_linux/../chibios/
 540              		.file 15 "/home/sbcu/Dropbox/pcb-layouts/axo-on-discovery-board/axoloti/platform_linux/../chibios/
 541              		.file 16 "/home/sbcu/Dropbox/pcb-layouts/axo-on-discovery-board/axoloti/platform_linux/../chibios/
 542              		.file 17 "midi.h"
 543              		.file 18 "/home/sbcu/Dropbox/pcb-layouts/axo-on-discovery-board/axoloti/platform_linux/../CMSIS//I