ARM GAS  /tmp/cc8zT4AD.s 			page 1


   1              		.syntax unified
   2              		.cpu cortex-m4
   3              		.eabi_attribute 27, 1
   4              		.eabi_attribute 28, 1
   5              		.fpu fpv4-sp-d16
   6              		.eabi_attribute 20, 1
   7              		.eabi_attribute 21, 1
   8              		.eabi_attribute 23, 3
   9              		.eabi_attribute 24, 1
  10              		.eabi_attribute 25, 1
  11              		.eabi_attribute 26, 1
  12              		.eabi_attribute 30, 2
  13              		.eabi_attribute 34, 1
  14              		.eabi_attribute 18, 4
  15              		.thumb
  16              		.file	"serial_lld.c"
  17              		.text
  18              	.Ltext0:
  19              		.cfi_sections	.debug_frame
  20              		.align	2
  21              		.p2align 4,,15
  22              		.thumb
  23              		.thumb_func
  24              		.type	notify1, %function
  25              	notify1:
  26              	.LFB134:
  27              		.file 1 "/home/sbcu/Dropbox/pcb-layouts/axo-on-discovery-board/axoloti/platform_linux/../chibios/o
  28              		.loc 1 209 0
  29              		.cfi_startproc
  30              		@ args = 0, pretend = 0, frame = 0
  31              		@ frame_needed = 0, uses_anonymous_args = 0
  32              		@ link register save eliminated.
  33              	.LVL0:
  34              		.loc 1 212 0
  35 0000 034A     		ldr	r2, .L2
  36 0002 9389     		ldrh	r3, [r2, #12]
  37 0004 9BB2     		uxth	r3, r3
  38 0006 43F08003 		orr	r3, r3, #128
  39 000a 9381     		strh	r3, [r2, #12]	@ movhi
  40 000c 7047     		bx	lr
  41              	.L3:
  42 000e 00BF     		.align	2
  43              	.L2:
  44 0010 00100140 		.word	1073811456
  45              		.cfi_endproc
  46              	.LFE134:
  47              		.size	notify1, .-notify1
  48              		.align	2
  49 0014 AFF30080 		.p2align 4,,15
  49      AFF30080 
  49      AFF30080 
  50              		.thumb
  51              		.thumb_func
  52              		.type	notify2, %function
  53              	notify2:
  54              	.LFB135:
  55              		.loc 1 217 0
ARM GAS  /tmp/cc8zT4AD.s 			page 2


  56              		.cfi_startproc
  57              		@ args = 0, pretend = 0, frame = 0
  58              		@ frame_needed = 0, uses_anonymous_args = 0
  59              		@ link register save eliminated.
  60              	.LVL1:
  61              		.loc 1 220 0
  62 0020 034A     		ldr	r2, .L5
  63 0022 9389     		ldrh	r3, [r2, #12]
  64 0024 9BB2     		uxth	r3, r3
  65 0026 43F08003 		orr	r3, r3, #128
  66 002a 9381     		strh	r3, [r2, #12]	@ movhi
  67 002c 7047     		bx	lr
  68              	.L6:
  69 002e 00BF     		.align	2
  70              	.L5:
  71 0030 00440040 		.word	1073759232
  72              		.cfi_endproc
  73              	.LFE135:
  74              		.size	notify2, .-notify2
  75              		.align	2
  76 0034 AFF30080 		.p2align 4,,15
  76      AFF30080 
  76      AFF30080 
  77              		.thumb
  78              		.thumb_func
  79              		.type	notify3, %function
  80              	notify3:
  81              	.LFB136:
  82              		.loc 1 225 0
  83              		.cfi_startproc
  84              		@ args = 0, pretend = 0, frame = 0
  85              		@ frame_needed = 0, uses_anonymous_args = 0
  86              		@ link register save eliminated.
  87              	.LVL2:
  88              		.loc 1 228 0
  89 0040 034A     		ldr	r2, .L8
  90 0042 9389     		ldrh	r3, [r2, #12]
  91 0044 9BB2     		uxth	r3, r3
  92 0046 43F08003 		orr	r3, r3, #128
  93 004a 9381     		strh	r3, [r2, #12]	@ movhi
  94 004c 7047     		bx	lr
  95              	.L9:
  96 004e 00BF     		.align	2
  97              	.L8:
  98 0050 00480040 		.word	1073760256
  99              		.cfi_endproc
 100              	.LFE136:
 101              		.size	notify3, .-notify3
 102              		.align	2
 103 0054 AFF30080 		.p2align 4,,15
 103      AFF30080 
 103      AFF30080 
 104              		.thumb
 105              		.thumb_func
 106              		.type	serve_interrupt, %function
 107              	serve_interrupt:
 108              	.LFB133:
ARM GAS  /tmp/cc8zT4AD.s 			page 3


 109              		.loc 1 154 0
 110              		.cfi_startproc
 111              		@ args = 0, pretend = 0, frame = 0
 112              		@ frame_needed = 0, uses_anonymous_args = 0
 113              	.LVL3:
 114 0060 2DE9F041 		push	{r4, r5, r6, r7, r8, lr}
 115              		.cfi_def_cfa_offset 24
 116              		.cfi_offset 4, -24
 117              		.cfi_offset 5, -20
 118              		.cfi_offset 6, -16
 119              		.cfi_offset 7, -12
 120              		.cfi_offset 8, -8
 121              		.cfi_offset 14, -4
 122              		.loc 1 155 0
 123 0064 D0F89450 		ldr	r5, [r0, #148]
 124              	.LVL4:
 125              		.loc 1 156 0
 126 0068 AF89     		ldrh	r7, [r5, #12]
 127              		.loc 1 157 0
 128 006a 2C88     		ldrh	r4, [r5]
 129 006c A4B2     		uxth	r4, r4
 130              		.loc 1 160 0
 131 006e E205     		lsls	r2, r4, #23
 132              		.loc 1 154 0
 133 0070 0646     		mov	r6, r0
 134              		.loc 1 156 0
 135 0072 BFB2     		uxth	r7, r7
 136              	.LVL5:
 137              		.loc 1 160 0
 138 0074 52D4     		bmi	.L60
 139              	.LVL6:
 140              	.L11:
 141              	.LBB16:
 142              		.loc 1 168 0
 143 0076 2023     		movs	r3, #32
 144              	@ 168 "/home/sbcu/Dropbox/pcb-layouts/axo-on-discovery-board/axoloti/platform_linux/../chibios/os/h
 145 0078 83F31188 		msr     BASEPRI, r3
 146              	@ 0 "" 2
 147              		.thumb
 148              	.LBE16:
 149              		.loc 1 169 0
 150 007c 14F02F0F 		tst	r4, #47
 151 0080 2ED0     		beq	.L12
 152              	.LBB17:
 153              	.LBB18:
 154              	.LBB19:
 155              		.loc 1 146 0
 156 0082 06F10408 		add	r8, r6, #4
 157 0086 08E0     		b	.L19
 158              	.L13:
 159              	.LBE19:
 160              	.LBE18:
 161              		.loc 1 176 0
 162 0088 A988     		ldrh	r1, [r5, #4]
 163              		.loc 1 177 0
 164 008a A006     		lsls	r0, r4, #26
 165              		.loc 1 176 0
ARM GAS  /tmp/cc8zT4AD.s 			page 4


 166 008c 89B2     		uxth	r1, r1
 167              	.LVL7:
 168              		.loc 1 177 0
 169 008e 1ED4     		bmi	.L61
 170              	.L18:
 171              		.loc 1 179 0
 172 0090 2C88     		ldrh	r4, [r5]
 173              	.LVL8:
 174 0092 A4B2     		uxth	r4, r4
 175              	.LVL9:
 176              	.LBE17:
 177              		.loc 1 169 0
 178 0094 14F02F0F 		tst	r4, #47
 179 0098 22D0     		beq	.L12
 180              	.LVL10:
 181              	.L19:
 182              	.LBB22:
 183              		.loc 1 174 0
 184 009a 2307     		lsls	r3, r4, #28
 185 009c F4D0     		beq	.L13
 186              	.LVL11:
 187              	.LBB21:
 188              	.LBB20:
 189              		.loc 1 139 0
 190 009e 14F0080F 		tst	r4, #8
 191 00a2 0CBF     		ite	eq
 192 00a4 0021     		moveq	r1, #0
 193 00a6 8021     		movne	r1, #128
 194              	.LVL12:
 195              		.loc 1 140 0
 196 00a8 E007     		lsls	r0, r4, #31
 197              		.loc 1 141 0
 198 00aa 48BF     		it	mi
 199 00ac 41F02001 		orrmi	r1, r1, #32
 200              	.LVL13:
 201              		.loc 1 142 0
 202 00b0 A207     		lsls	r2, r4, #30
 203              		.loc 1 143 0
 204 00b2 48BF     		it	mi
 205 00b4 41F04001 		orrmi	r1, r1, #64
 206              	.LVL14:
 207              		.loc 1 144 0
 208 00b8 6307     		lsls	r3, r4, #29
 209              		.loc 1 145 0
 210 00ba 48BF     		it	mi
 211 00bc 41F48071 		orrmi	r1, r1, #256
 212              	.LVL15:
 213              		.loc 1 146 0
 214 00c0 4046     		mov	r0, r8
 215 00c2 FFF7FEFF 		bl	chEvtBroadcastFlagsI
 216              	.LVL16:
 217              	.LBE20:
 218              	.LBE21:
 219              		.loc 1 176 0
 220 00c6 A988     		ldrh	r1, [r5, #4]
 221              		.loc 1 177 0
 222 00c8 A006     		lsls	r0, r4, #26
ARM GAS  /tmp/cc8zT4AD.s 			page 5


 223              		.loc 1 176 0
 224 00ca 89B2     		uxth	r1, r1
 225              	.LVL17:
 226              		.loc 1 177 0
 227 00cc E0D5     		bpl	.L18
 228              	.LVL18:
 229              	.L61:
 230              		.loc 1 178 0
 231 00ce C9B2     		uxtb	r1, r1
 232 00d0 3046     		mov	r0, r6
 233 00d2 FFF7FEFF 		bl	sdIncomingDataI
 234              	.LVL19:
 235              		.loc 1 179 0
 236 00d6 2C88     		ldrh	r4, [r5]
 237              	.LVL20:
 238 00d8 A4B2     		uxth	r4, r4
 239              	.LVL21:
 240              	.LBE22:
 241              		.loc 1 169 0
 242 00da 14F02F0F 		tst	r4, #47
 243 00de DCD1     		bne	.L19
 244              	.L12:
 245              	.LBB23:
 246              		.loc 1 181 0
 247 00e0 0023     		movs	r3, #0
 248              	@ 181 "/home/sbcu/Dropbox/pcb-layouts/axo-on-discovery-board/axoloti/platform_linux/../chibios/os/h
 249 00e2 83F31188 		msr     BASEPRI, r3
 250              	@ 0 "" 2
 251              		.thumb
 252              	.LBE23:
 253              		.loc 1 184 0
 254 00e6 3906     		lsls	r1, r7, #24
 255 00e8 01D5     		bpl	.L20
 256              		.loc 1 184 0 is_stmt 0 discriminator 1
 257 00ea 2206     		lsls	r2, r4, #24
 258 00ec 25D4     		bmi	.L62
 259              	.L20:
 260              		.loc 1 198 0 is_stmt 1
 261 00ee 6306     		lsls	r3, r4, #25
 262 00f0 12D5     		bpl	.L10
 263              	.LBB24:
 264              		.loc 1 199 0
 265 00f2 2023     		movs	r3, #32
 266              	@ 199 "/home/sbcu/Dropbox/pcb-layouts/axo-on-discovery-board/axoloti/platform_linux/../chibios/os/h
 267 00f4 83F31188 		msr     BASEPRI, r3
 268              	@ 0 "" 2
 269              		.thumb
 270              	.LBE24:
 271              		.loc 1 200 0
 272 00f8 726C     		ldr	r2, [r6, #68]
 273 00fa B36C     		ldr	r3, [r6, #72]
 274 00fc 9A42     		cmp	r2, r3
 275 00fe 2BD0     		beq	.L63
 276              	.L24:
 277              		.loc 1 202 0
 278 0100 27F04007 		bic	r7, r7, #64
 279              	.LVL22:
ARM GAS  /tmp/cc8zT4AD.s 			page 6


 280 0104 BFB2     		uxth	r7, r7
 281              		.loc 1 203 0
 282 0106 4FF6BF72 		movw	r2, #65471
 283              		.loc 1 202 0
 284 010a AF81     		strh	r7, [r5, #12]	@ movhi
 285              	.LBB25:
 286              		.loc 1 204 0
 287 010c 0023     		movs	r3, #0
 288              	.LBE25:
 289              		.loc 1 203 0
 290 010e 2A80     		strh	r2, [r5]	@ movhi
 291              	.LBB26:
 292              		.loc 1 204 0
 293              	@ 204 "/home/sbcu/Dropbox/pcb-layouts/axo-on-discovery-board/axoloti/platform_linux/../chibios/os/h
 294 0110 83F31188 		msr     BASEPRI, r3
 295              	@ 0 "" 2
 296              		.thumb
 297 0114 BDE8F081 		pop	{r4, r5, r6, r7, r8, pc}
 298              	.LVL23:
 299              	.L10:
 300 0118 BDE8F081 		pop	{r4, r5, r6, r7, r8, pc}
 301              	.LVL24:
 302              	.L60:
 303              	.LBE26:
 304              	.LBB27:
 305              		.loc 1 161 0
 306 011c 2023     		movs	r3, #32
 307              	@ 161 "/home/sbcu/Dropbox/pcb-layouts/axo-on-discovery-board/axoloti/platform_linux/../chibios/os/h
 308 011e 83F31188 		msr     BASEPRI, r3
 309              	@ 0 "" 2
 310              		.thumb
 311              	.LBE27:
 312              		.loc 1 162 0
 313 0122 4FF40071 		mov	r1, #512
 314 0126 0430     		adds	r0, r0, #4
 315              	.LVL25:
 316 0128 FFF7FEFF 		bl	chEvtBroadcastFlagsI
 317              	.LVL26:
 318              	.LBB28:
 319              		.loc 1 163 0
 320 012c 0023     		movs	r3, #0
 321              	@ 163 "/home/sbcu/Dropbox/pcb-layouts/axo-on-discovery-board/axoloti/platform_linux/../chibios/os/h
 322 012e 83F31188 		msr     BASEPRI, r3
 323              	@ 0 "" 2
 324              		.thumb
 325              	.LBE28:
 326              		.loc 1 164 0
 327 0132 4FF6FF63 		movw	r3, #65279
 328 0136 2B80     		strh	r3, [r5]	@ movhi
 329 0138 9DE7     		b	.L11
 330              	.L62:
 331              	.LBB29:
 332              	.LBB30:
 333              		.loc 1 186 0
 334 013a 2023     		movs	r3, #32
 335              	@ 186 "/home/sbcu/Dropbox/pcb-layouts/axo-on-discovery-board/axoloti/platform_linux/../chibios/os/h
 336 013c 83F31188 		msr     BASEPRI, r3
ARM GAS  /tmp/cc8zT4AD.s 			page 7


 337              	@ 0 "" 2
 338              		.thumb
 339              	.LBE30:
 340              		.loc 1 187 0
 341 0140 06F13000 		add	r0, r6, #48
 342 0144 FFF7FEFF 		bl	chOQGetI
 343              	.LVL27:
 344              		.loc 1 188 0
 345 0148 0028     		cmp	r0, #0
 346 014a 0DDB     		blt	.L64
 347              		.loc 1 193 0
 348 014c 80B2     		uxth	r0, r0
 349              	.LVL28:
 350 014e A880     		strh	r0, [r5, #4]	@ movhi
 351              	.L22:
 352              	.LBB31:
 353              		.loc 1 194 0
 354 0150 0023     		movs	r3, #0
 355              	@ 194 "/home/sbcu/Dropbox/pcb-layouts/axo-on-discovery-board/axoloti/platform_linux/../chibios/os/h
 356 0152 83F31188 		msr     BASEPRI, r3
 357              	@ 0 "" 2
 358              		.thumb
 359 0156 CAE7     		b	.L20
 360              	.L63:
 361              	.LBE31:
 362              	.LBE29:
 363              		.loc 1 200 0 discriminator 1
 364 0158 B36B     		ldr	r3, [r6, #56]
 365 015a 002B     		cmp	r3, #0
 366 015c D0D0     		beq	.L24
 367              		.loc 1 201 0
 368 015e 301D     		adds	r0, r6, #4
 369 0160 1021     		movs	r1, #16
 370 0162 FFF7FEFF 		bl	chEvtBroadcastFlagsI
 371              	.LVL29:
 372 0166 CBE7     		b	.L24
 373              	.LVL30:
 374              	.L64:
 375              	.LBB32:
 376              		.loc 1 189 0
 377 0168 301D     		adds	r0, r6, #4
 378              	.LVL31:
 379 016a 0821     		movs	r1, #8
 380 016c FFF7FEFF 		bl	chEvtBroadcastFlagsI
 381              	.LVL32:
 382              		.loc 1 190 0
 383 0170 27F0C003 		bic	r3, r7, #192
 384 0174 43F04003 		orr	r3, r3, #64
 385 0178 AB81     		strh	r3, [r5, #12]	@ movhi
 386 017a E9E7     		b	.L22
 387              	.LBE32:
 388              		.cfi_endproc
 389              	.LFE133:
 390              		.size	serve_interrupt, .-serve_interrupt
 391              		.align	2
 392 017c AFF30080 		.p2align 4,,15
 393              		.global	VectorD4
ARM GAS  /tmp/cc8zT4AD.s 			page 8


 394              		.thumb
 395              		.thumb_func
 396              		.type	VectorD4, %function
 397              	VectorD4:
 398              	.LFB137:
 399              		.loc 1 269 0
 400              		.cfi_startproc
 401              		@ args = 0, pretend = 0, frame = 0
 402              		@ frame_needed = 0, uses_anonymous_args = 0
 403 0180 08B5     		push	{r3, lr}
 404              		.cfi_def_cfa_offset 8
 405              		.cfi_offset 3, -8
 406              		.cfi_offset 14, -4
 407              		.loc 1 273 0
 408 0182 0348     		ldr	r0, .L67
 409 0184 FFF76CFF 		bl	serve_interrupt
 410              	.LVL33:
 411              		.loc 1 276 0
 412 0188 BDE80840 		pop	{r3, lr}
 413              		.cfi_restore 14
 414              		.cfi_restore 3
 415              		.cfi_def_cfa_offset 0
 416              		.loc 1 275 0
 417 018c FFF7FEBF 		b	_port_irq_epilogue
 418              	.LVL34:
 419              	.L68:
 420              		.align	2
 421              	.L67:
 422 0190 00000000 		.word	SD1
 423              		.cfi_endproc
 424              	.LFE137:
 425              		.size	VectorD4, .-VectorD4
 426              		.align	2
 427 0194 AFF30080 		.p2align 4,,15
 427      AFF30080 
 427      AFF30080 
 428              		.global	VectorD8
 429              		.thumb
 430              		.thumb_func
 431              		.type	VectorD8, %function
 432              	VectorD8:
 433              	.LFB138:
 434              		.loc 1 288 0
 435              		.cfi_startproc
 436              		@ args = 0, pretend = 0, frame = 0
 437              		@ frame_needed = 0, uses_anonymous_args = 0
 438 01a0 08B5     		push	{r3, lr}
 439              		.cfi_def_cfa_offset 8
 440              		.cfi_offset 3, -8
 441              		.cfi_offset 14, -4
 442              		.loc 1 292 0
 443 01a2 0348     		ldr	r0, .L71
 444 01a4 FFF75CFF 		bl	serve_interrupt
 445              	.LVL35:
 446              		.loc 1 295 0
 447 01a8 BDE80840 		pop	{r3, lr}
 448              		.cfi_restore 14
ARM GAS  /tmp/cc8zT4AD.s 			page 9


 449              		.cfi_restore 3
 450              		.cfi_def_cfa_offset 0
 451              		.loc 1 294 0
 452 01ac FFF7FEBF 		b	_port_irq_epilogue
 453              	.LVL36:
 454              	.L72:
 455              		.align	2
 456              	.L71:
 457 01b0 00000000 		.word	SD2
 458              		.cfi_endproc
 459              	.LFE138:
 460              		.size	VectorD8, .-VectorD8
 461              		.align	2
 462 01b4 AFF30080 		.p2align 4,,15
 462      AFF30080 
 462      AFF30080 
 463              		.global	VectorDC
 464              		.thumb
 465              		.thumb_func
 466              		.type	VectorDC, %function
 467              	VectorDC:
 468              	.LFB139:
 469              		.loc 1 307 0
 470              		.cfi_startproc
 471              		@ args = 0, pretend = 0, frame = 0
 472              		@ frame_needed = 0, uses_anonymous_args = 0
 473 01c0 08B5     		push	{r3, lr}
 474              		.cfi_def_cfa_offset 8
 475              		.cfi_offset 3, -8
 476              		.cfi_offset 14, -4
 477              		.loc 1 311 0
 478 01c2 0348     		ldr	r0, .L75
 479 01c4 FFF74CFF 		bl	serve_interrupt
 480              	.LVL37:
 481              		.loc 1 314 0
 482 01c8 BDE80840 		pop	{r3, lr}
 483              		.cfi_restore 14
 484              		.cfi_restore 3
 485              		.cfi_def_cfa_offset 0
 486              		.loc 1 313 0
 487 01cc FFF7FEBF 		b	_port_irq_epilogue
 488              	.LVL38:
 489              	.L76:
 490              		.align	2
 491              	.L75:
 492 01d0 00000000 		.word	SD3
 493              		.cfi_endproc
 494              	.LFE139:
 495              		.size	VectorDC, .-VectorDC
 496              		.align	2
 497 01d4 AFF30080 		.p2align 4,,15
 497      AFF30080 
 497      AFF30080 
 498              		.global	sd_lld_init
 499              		.thumb
 500              		.thumb_func
 501              		.type	sd_lld_init, %function
ARM GAS  /tmp/cc8zT4AD.s 			page 10


 502              	sd_lld_init:
 503              	.LFB140:
 504              		.loc 1 383 0
 505              		.cfi_startproc
 506              		@ args = 0, pretend = 0, frame = 0
 507              		@ frame_needed = 0, uses_anonymous_args = 0
 508 01e0 70B5     		push	{r4, r5, r6, lr}
 509              		.cfi_def_cfa_offset 16
 510              		.cfi_offset 4, -16
 511              		.cfi_offset 5, -12
 512              		.cfi_offset 6, -8
 513              		.cfi_offset 14, -4
 514              		.loc 1 386 0
 515 01e2 0E4E     		ldr	r6, .L79
 516              		.loc 1 391 0
 517 01e4 0E4D     		ldr	r5, .L79+4
 518              		.loc 1 386 0
 519 01e6 0F4A     		ldr	r2, .L79+8
 520              		.loc 1 396 0
 521 01e8 0F4C     		ldr	r4, .L79+12
 522              		.loc 1 386 0
 523 01ea 3046     		mov	r0, r6
 524 01ec 0021     		movs	r1, #0
 525 01ee FFF7FEFF 		bl	sdObjectInit
 526              	.LVL39:
 527              		.loc 1 387 0
 528 01f2 0E4B     		ldr	r3, .L79+16
 529              		.loc 1 391 0
 530 01f4 0E4A     		ldr	r2, .L79+20
 531              		.loc 1 387 0
 532 01f6 C6F89430 		str	r3, [r6, #148]
 533              		.loc 1 391 0
 534 01fa 2846     		mov	r0, r5
 535 01fc 0021     		movs	r1, #0
 536 01fe FFF7FEFF 		bl	sdObjectInit
 537              	.LVL40:
 538              		.loc 1 392 0
 539 0202 0C4B     		ldr	r3, .L79+24
 540              		.loc 1 396 0
 541 0204 0C4A     		ldr	r2, .L79+28
 542              		.loc 1 392 0
 543 0206 C5F89430 		str	r3, [r5, #148]
 544              		.loc 1 396 0
 545 020a 2046     		mov	r0, r4
 546 020c 0021     		movs	r1, #0
 547 020e FFF7FEFF 		bl	sdObjectInit
 548              	.LVL41:
 549              		.loc 1 397 0
 550 0212 0A4B     		ldr	r3, .L79+32
 551 0214 C4F89430 		str	r3, [r4, #148]
 552 0218 70BD     		pop	{r4, r5, r6, pc}
 553              	.L80:
 554 021a 00BF     		.align	2
 555              	.L79:
 556 021c 00000000 		.word	SD1
 557 0220 00000000 		.word	SD2
 558 0224 00000000 		.word	notify1
ARM GAS  /tmp/cc8zT4AD.s 			page 11


 559 0228 00000000 		.word	SD3
 560 022c 00100140 		.word	1073811456
 561 0230 00000000 		.word	notify2
 562 0234 00440040 		.word	1073759232
 563 0238 00000000 		.word	notify3
 564 023c 00480040 		.word	1073760256
 565              		.cfi_endproc
 566              	.LFE140:
 567              		.size	sd_lld_init, .-sd_lld_init
 568              		.align	2
 569              		.p2align 4,,15
 570              		.global	sd_lld_start
 571              		.thumb
 572              		.thumb_func
 573              		.type	sd_lld_start, %function
 574              	sd_lld_start:
 575              	.LFB141:
 576              		.loc 1 426 0
 577              		.cfi_startproc
 578              		@ args = 0, pretend = 0, frame = 0
 579              		@ frame_needed = 0, uses_anonymous_args = 0
 580              	.LVL42:
 581 0240 38B5     		push	{r3, r4, r5, lr}
 582              		.cfi_def_cfa_offset 16
 583              		.cfi_offset 3, -16
 584              		.cfi_offset 4, -12
 585              		.cfi_offset 5, -8
 586              		.cfi_offset 14, -4
 587              		.loc 1 429 0
 588 0242 2D4C     		ldr	r4, .L93
 589              		.loc 1 431 0
 590 0244 037A     		ldrb	r3, [r0, #8]	@ zero_extendqisi2
 591              		.loc 1 429 0
 592 0246 0029     		cmp	r1, #0
 593 0248 18BF     		it	ne
 594 024a 0C46     		movne	r4, r1
 595              	.LVL43:
 596              		.loc 1 431 0
 597 024c 012B     		cmp	r3, #1
 598              		.loc 1 426 0
 599 024e 0546     		mov	r5, r0
 600              		.loc 1 431 0
 601 0250 24D0     		beq	.L90
 602              	.LVL44:
 603              	.L83:
 604 0252 D5F89430 		ldr	r3, [r5, #148]
 605              	.LVL45:
 606              	.LBB35:
 607              	.LBB36:
 608              		.loc 1 97 0
 609 0256 294A     		ldr	r2, .L93+4
 610 0258 9342     		cmp	r3, r2
 611 025a 32D0     		beq	.L86
 612 025c 02F58062 		add	r2, r2, #1024
 613 0260 9342     		cmp	r3, r2
 614 0262 2ED0     		beq	.L86
 615              		.loc 1 103 0
ARM GAS  /tmp/cc8zT4AD.s 			page 12


 616 0264 2168     		ldr	r1, [r4]
 617 0266 264A     		ldr	r2, .L93+8
 618 0268 B2FBF1F2 		udiv	r2, r2, r1
 619 026c 92B2     		uxth	r2, r2
 620 026e 1A81     		strh	r2, [r3, #8]	@ movhi
 621              	.L88:
 622              		.loc 1 108 0
 623 0270 A288     		ldrh	r2, [r4, #4]
 624              		.loc 1 106 0
 625 0272 E088     		ldrh	r0, [r4, #6]
 626              		.loc 1 107 0
 627 0274 2189     		ldrh	r1, [r4, #8]
 628              		.loc 1 108 0
 629 0276 42F40452 		orr	r2, r2, #8448
 630              		.loc 1 106 0
 631 027a 40F04000 		orr	r0, r0, #64
 632              		.loc 1 108 0
 633 027e 42F02C02 		orr	r2, r2, #44
 634              		.loc 1 107 0
 635 0282 41F00101 		orr	r1, r1, #1
 636              		.loc 1 108 0
 637 0286 92B2     		uxth	r2, r2
 638              		.loc 1 106 0
 639 0288 80B2     		uxth	r0, r0
 640              		.loc 1 107 0
 641 028a 89B2     		uxth	r1, r1
 642              		.loc 1 111 0
 643 028c 0024     		movs	r4, #0
 644              	.LVL46:
 645              		.loc 1 106 0
 646 028e 1882     		strh	r0, [r3, #16]	@ movhi
 647              		.loc 1 107 0
 648 0290 9982     		strh	r1, [r3, #20]	@ movhi
 649              		.loc 1 108 0
 650 0292 9A81     		strh	r2, [r3, #12]	@ movhi
 651              		.loc 1 111 0
 652 0294 1C80     		strh	r4, [r3]	@ movhi
 653              		.loc 1 112 0
 654 0296 1A88     		ldrh	r2, [r3]
 655              		.loc 1 113 0
 656 0298 9B88     		ldrh	r3, [r3, #4]
 657              	.LVL47:
 658 029a 38BD     		pop	{r3, r4, r5, pc}
 659              	.LVL48:
 660              	.L90:
 661              	.LBE36:
 662              	.LBE35:
 663              		.loc 1 433 0
 664 029c 194B     		ldr	r3, .L93+12
 665 029e 9842     		cmp	r0, r3
 666 02a0 16D0     		beq	.L91
 667              		.loc 1 440 0
 668 02a2 194B     		ldr	r3, .L93+16
 669 02a4 9842     		cmp	r0, r3
 670 02a6 1DD0     		beq	.L92
 671              		.loc 1 447 0
 672 02a8 184B     		ldr	r3, .L93+20
ARM GAS  /tmp/cc8zT4AD.s 			page 13


 673 02aa 9842     		cmp	r0, r3
 674 02ac D1D1     		bne	.L83
 675              		.loc 1 448 0
 676 02ae 184A     		ldr	r2, .L93+24
 677 02b0 136C     		ldr	r3, [r2, #64]
 678 02b2 43F48023 		orr	r3, r3, #262144
 679 02b6 1364     		str	r3, [r2, #64]
 680              		.loc 1 449 0
 681 02b8 2720     		movs	r0, #39
 682              	.LVL49:
 683 02ba C021     		movs	r1, #192
 684 02bc FFF7FEFF 		bl	nvicEnableVector
 685              	.LVL50:
 686 02c0 C7E7     		b	.L83
 687              	.LVL51:
 688              	.L86:
 689              	.LBB38:
 690              	.LBB37:
 691              		.loc 1 101 0
 692 02c2 2168     		ldr	r1, [r4]
 693 02c4 134A     		ldr	r2, .L93+28
 694 02c6 B2FBF1F2 		udiv	r2, r2, r1
 695 02ca 92B2     		uxth	r2, r2
 696 02cc 1A81     		strh	r2, [r3, #8]	@ movhi
 697 02ce CFE7     		b	.L88
 698              	.LVL52:
 699              	.L91:
 700              	.LBE37:
 701              	.LBE38:
 702              		.loc 1 434 0
 703 02d0 0F4A     		ldr	r2, .L93+24
 704 02d2 536C     		ldr	r3, [r2, #68]
 705 02d4 43F01003 		orr	r3, r3, #16
 706 02d8 5364     		str	r3, [r2, #68]
 707              		.loc 1 435 0
 708 02da 2520     		movs	r0, #37
 709              	.LVL53:
 710 02dc C021     		movs	r1, #192
 711 02de FFF7FEFF 		bl	nvicEnableVector
 712              	.LVL54:
 713 02e2 B6E7     		b	.L83
 714              	.LVL55:
 715              	.L92:
 716              		.loc 1 441 0
 717 02e4 0A4A     		ldr	r2, .L93+24
 718 02e6 136C     		ldr	r3, [r2, #64]
 719 02e8 43F40033 		orr	r3, r3, #131072
 720 02ec 1364     		str	r3, [r2, #64]
 721              		.loc 1 442 0
 722 02ee 2620     		movs	r0, #38
 723              	.LVL56:
 724 02f0 C021     		movs	r1, #192
 725 02f2 FFF7FEFF 		bl	nvicEnableVector
 726              	.LVL57:
 727 02f6 ACE7     		b	.L83
 728              	.L94:
 729              		.align	2
ARM GAS  /tmp/cc8zT4AD.s 			page 14


 730              	.L93:
 731 02f8 00000000 		.word	.LANCHOR0
 732 02fc 00100140 		.word	1073811456
 733 0300 80DE8002 		.word	42000000
 734 0304 00000000 		.word	SD1
 735 0308 00000000 		.word	SD2
 736 030c 00000000 		.word	SD3
 737 0310 00380240 		.word	1073887232
 738 0314 00BD0105 		.word	84000000
 739              		.cfi_endproc
 740              	.LFE141:
 741              		.size	sd_lld_start, .-sd_lld_start
 742              		.align	2
 743 0318 AFF30080 		.p2align 4,,15
 743      AFF30080 
 744              		.global	sd_lld_stop
 745              		.thumb
 746              		.thumb_func
 747              		.type	sd_lld_stop, %function
 748              	sd_lld_stop:
 749              	.LFB142:
 750              		.loc 1 487 0
 751              		.cfi_startproc
 752              		@ args = 0, pretend = 0, frame = 0
 753              		@ frame_needed = 0, uses_anonymous_args = 0
 754              		@ link register save eliminated.
 755              	.LVL58:
 756              		.loc 1 489 0
 757 0320 037A     		ldrb	r3, [r0, #8]	@ zero_extendqisi2
 758 0322 022B     		cmp	r3, #2
 759 0324 00D0     		beq	.L101
 760              	.L95:
 761 0326 7047     		bx	lr
 762              	.L101:
 763              		.loc 1 492 0
 764 0328 1349     		ldr	r1, .L104
 765              		.loc 1 490 0
 766 032a D0F89430 		ldr	r3, [r0, #148]
 767              	.LVL59:
 768              	.LBB39:
 769              	.LBB40:
 770              		.loc 1 124 0
 771 032e 0022     		movs	r2, #0
 772              	.LBE40:
 773              	.LBE39:
 774              		.loc 1 492 0
 775 0330 8842     		cmp	r0, r1
 776              	.LBB42:
 777              	.LBB41:
 778              		.loc 1 124 0
 779 0332 9A81     		strh	r2, [r3, #12]	@ movhi
 780              		.loc 1 125 0
 781 0334 1A82     		strh	r2, [r3, #16]	@ movhi
 782              		.loc 1 126 0
 783 0336 9A82     		strh	r2, [r3, #20]	@ movhi
 784              	.LBE41:
 785              	.LBE42:
ARM GAS  /tmp/cc8zT4AD.s 			page 15


 786              		.loc 1 492 0
 787 0338 0DD0     		beq	.L102
 788              		.loc 1 499 0
 789 033a 104B     		ldr	r3, .L104+4
 790              	.LVL60:
 791 033c 9842     		cmp	r0, r3
 792 033e 12D0     		beq	.L103
 793              		.loc 1 506 0
 794 0340 0F4B     		ldr	r3, .L104+8
 795 0342 9842     		cmp	r0, r3
 796 0344 EFD1     		bne	.L95
 797              		.loc 1 507 0
 798 0346 0F4A     		ldr	r2, .L104+12
 799 0348 136C     		ldr	r3, [r2, #64]
 800 034a 23F48023 		bic	r3, r3, #262144
 801 034e 1364     		str	r3, [r2, #64]
 802              		.loc 1 508 0
 803 0350 2720     		movs	r0, #39
 804              	.LVL61:
 805 0352 FFF7FEBF 		b	nvicDisableVector
 806              	.LVL62:
 807              	.L102:
 808              		.loc 1 493 0
 809 0356 0B4A     		ldr	r2, .L104+12
 810 0358 536C     		ldr	r3, [r2, #68]
 811              	.LVL63:
 812 035a 23F01003 		bic	r3, r3, #16
 813 035e 5364     		str	r3, [r2, #68]
 814              		.loc 1 494 0
 815 0360 2520     		movs	r0, #37
 816              	.LVL64:
 817 0362 FFF7FEBF 		b	nvicDisableVector
 818              	.LVL65:
 819              	.L103:
 820              		.loc 1 500 0
 821 0366 074A     		ldr	r2, .L104+12
 822 0368 136C     		ldr	r3, [r2, #64]
 823 036a 23F40033 		bic	r3, r3, #131072
 824 036e 1364     		str	r3, [r2, #64]
 825              		.loc 1 501 0
 826 0370 2620     		movs	r0, #38
 827              	.LVL66:
 828 0372 FFF7FEBF 		b	nvicDisableVector
 829              	.LVL67:
 830              	.L105:
 831 0376 00BF     		.align	2
 832              	.L104:
 833 0378 00000000 		.word	SD1
 834 037c 00000000 		.word	SD2
 835 0380 00000000 		.word	SD3
 836 0384 00380240 		.word	1073887232
 837              		.cfi_endproc
 838              	.LFE142:
 839              		.size	sd_lld_stop, .-sd_lld_stop
 840              		.comm	SD3,152,4
 841              		.comm	SD2,152,4
 842              		.comm	SD1,152,4
ARM GAS  /tmp/cc8zT4AD.s 			page 16


 843              		.section	.rodata
 844              		.align	2
 845              		.set	.LANCHOR0,. + 0
 846              		.type	default_config, %object
 847              		.size	default_config, 12
 848              	default_config:
 849 0000 00960000 		.word	38400
 850 0004 0000     		.short	0
 851 0006 0040     		.short	16384
 852 0008 0000     		.short	0
 853 000a 0000     		.space	2
 854              		.text
 855              	.Letext0:
 856              		.file 2 "/home/sbcu/Dropbox/pcb-layouts/axo-on-discovery-board/axoloti/platform_linux/lib/gcc/arm-
 857              		.file 3 "/home/sbcu/Dropbox/pcb-layouts/axo-on-discovery-board/axoloti/platform_linux/arm-none-eab
 858              		.file 4 "/home/sbcu/Dropbox/pcb-layouts/axo-on-discovery-board/axoloti/platform_linux/arm-none-eab
 859              		.file 5 "/home/sbcu/Dropbox/pcb-layouts/axo-on-discovery-board/axoloti/platform_linux/../chibios/o
 860              		.file 6 "/home/sbcu/Dropbox/pcb-layouts/axo-on-discovery-board/axoloti/platform_linux/../chibios/o
 861              		.file 7 "/home/sbcu/Dropbox/pcb-layouts/axo-on-discovery-board/axoloti/platform_linux/../chibios/o
 862              		.file 8 "/home/sbcu/Dropbox/pcb-layouts/axo-on-discovery-board/axoloti/platform_linux/../chibios/o
 863              		.file 9 "/home/sbcu/Dropbox/pcb-layouts/axo-on-discovery-board/axoloti/platform_linux/../chibios/o
 864              		.file 10 "/home/sbcu/Dropbox/pcb-layouts/axo-on-discovery-board/axoloti/platform_linux/../chibios/
 865              		.file 11 "/home/sbcu/Dropbox/pcb-layouts/axo-on-discovery-board/axoloti/platform_linux/../chibios/
 866              		.file 12 "/home/sbcu/Dropbox/pcb-layouts/axo-on-discovery-board/axoloti/platform_linux/../chibios/
 867              		.file 13 "/home/sbcu/Dropbox/pcb-layouts/axo-on-discovery-board/axoloti/platform_linux/../chibios/
 868              		.file 14 "/home/sbcu/Dropbox/pcb-layouts/axo-on-discovery-board/axoloti/platform_linux/../chibios/
 869              		.file 15 "/home/sbcu/Dropbox/pcb-layouts/axo-on-discovery-board/axoloti/platform_linux/../chibios/
 870              		.file 16 "/home/sbcu/Dropbox/pcb-layouts/axo-on-discovery-board/axoloti/platform_linux/../CMSIS//I
 871              		.section	.debug_info,"",%progbits
 872              	.Ldebug_info0:
 873 0000 C1100000 		.4byte	0x10c1
 874 0004 0400     		.2byte	0x4
 875 0006 00000000 		.4byte	.Ldebug_abbrev0
 876 000a 04       		.byte	0x4
 877 000b 01       		.uleb128 0x1
 878 000c 6E040000 		.4byte	.LASF150
 879 0010 01       		.byte	0x1
 880 0011 CB060000 		.4byte	.LASF151
 881 0015 6C000000 		.4byte	.LASF152
 882 0019 00000000 		.4byte	.Ltext0
 883 001d 88030000 		.4byte	.Letext0-.Ltext0
 884 0021 00000000 		.4byte	.Ldebug_line0
 885 0025 02       		.uleb128 0x2
 886 0026 04       		.byte	0x4
 887 0027 05       		.byte	0x5
 888 0028 696E7400 		.ascii	"int\000"
 889 002c 03       		.uleb128 0x3
 890 002d 11000000 		.4byte	.LASF2
 891 0031 02       		.byte	0x2
 892 0032 D4       		.byte	0xd4
 893 0033 37000000 		.4byte	0x37
 894 0037 04       		.uleb128 0x4
 895 0038 04       		.byte	0x4
 896 0039 07       		.byte	0x7
 897 003a EE010000 		.4byte	.LASF0
 898 003e 04       		.uleb128 0x4
 899 003f 01       		.byte	0x1
ARM GAS  /tmp/cc8zT4AD.s 			page 17


 900 0040 06       		.byte	0x6
 901 0041 F0000000 		.4byte	.LASF1
 902 0045 03       		.uleb128 0x3
 903 0046 2B000000 		.4byte	.LASF3
 904 004a 03       		.byte	0x3
 905 004b 1D       		.byte	0x1d
 906 004c 50000000 		.4byte	0x50
 907 0050 04       		.uleb128 0x4
 908 0051 01       		.byte	0x1
 909 0052 08       		.byte	0x8
 910 0053 DF030000 		.4byte	.LASF4
 911 0057 04       		.uleb128 0x4
 912 0058 02       		.byte	0x2
 913 0059 05       		.byte	0x5
 914 005a 21040000 		.4byte	.LASF5
 915 005e 03       		.uleb128 0x3
 916 005f F1050000 		.4byte	.LASF6
 917 0063 03       		.byte	0x3
 918 0064 2B       		.byte	0x2b
 919 0065 69000000 		.4byte	0x69
 920 0069 04       		.uleb128 0x4
 921 006a 02       		.byte	0x2
 922 006b 07       		.byte	0x7
 923 006c A8010000 		.4byte	.LASF7
 924 0070 03       		.uleb128 0x3
 925 0071 21060000 		.4byte	.LASF8
 926 0075 03       		.byte	0x3
 927 0076 3F       		.byte	0x3f
 928 0077 7B000000 		.4byte	0x7b
 929 007b 04       		.uleb128 0x4
 930 007c 04       		.byte	0x4
 931 007d 05       		.byte	0x5
 932 007e 4C010000 		.4byte	.LASF9
 933 0082 03       		.uleb128 0x3
 934 0083 BB010000 		.4byte	.LASF10
 935 0087 03       		.byte	0x3
 936 0088 41       		.byte	0x41
 937 0089 8D000000 		.4byte	0x8d
 938 008d 04       		.uleb128 0x4
 939 008e 04       		.byte	0x4
 940 008f 07       		.byte	0x7
 941 0090 BE050000 		.4byte	.LASF11
 942 0094 04       		.uleb128 0x4
 943 0095 08       		.byte	0x8
 944 0096 05       		.byte	0x5
 945 0097 E2000000 		.4byte	.LASF12
 946 009b 04       		.uleb128 0x4
 947 009c 08       		.byte	0x8
 948 009d 07       		.byte	0x7
 949 009e 3F000000 		.4byte	.LASF13
 950 00a2 03       		.uleb128 0x3
 951 00a3 88060000 		.4byte	.LASF14
 952 00a7 04       		.byte	0x4
 953 00a8 14       		.byte	0x14
 954 00a9 45000000 		.4byte	0x45
 955 00ad 03       		.uleb128 0x3
 956 00ae FB010000 		.4byte	.LASF15
ARM GAS  /tmp/cc8zT4AD.s 			page 18


 957 00b2 04       		.byte	0x4
 958 00b3 1A       		.byte	0x1a
 959 00b4 5E000000 		.4byte	0x5e
 960 00b8 03       		.uleb128 0x3
 961 00b9 D7030000 		.4byte	.LASF16
 962 00bd 04       		.byte	0x4
 963 00be 1F       		.byte	0x1f
 964 00bf 70000000 		.4byte	0x70
 965 00c3 03       		.uleb128 0x3
 966 00c4 96050000 		.4byte	.LASF17
 967 00c8 04       		.byte	0x4
 968 00c9 20       		.byte	0x20
 969 00ca 82000000 		.4byte	0x82
 970 00ce 03       		.uleb128 0x3
 971 00cf 12010000 		.4byte	.LASF18
 972 00d3 05       		.byte	0x5
 973 00d4 2B       		.byte	0x2b
 974 00d5 D9000000 		.4byte	0xd9
 975 00d9 04       		.uleb128 0x4
 976 00da 01       		.byte	0x1
 977 00db 02       		.byte	0x2
 978 00dc D1030000 		.4byte	.LASF19
 979 00e0 03       		.uleb128 0x3
 980 00e1 7E020000 		.4byte	.LASF20
 981 00e5 05       		.byte	0x5
 982 00e6 2C       		.byte	0x2c
 983 00e7 A2000000 		.4byte	0xa2
 984 00eb 03       		.uleb128 0x3
 985 00ec 68010000 		.4byte	.LASF21
 986 00f0 05       		.byte	0x5
 987 00f1 2D       		.byte	0x2d
 988 00f2 A2000000 		.4byte	0xa2
 989 00f6 03       		.uleb128 0x3
 990 00f7 21010000 		.4byte	.LASF22
 991 00fb 05       		.byte	0x5
 992 00fc 2F       		.byte	0x2f
 993 00fd A2000000 		.4byte	0xa2
 994 0101 03       		.uleb128 0x3
 995 0102 C1030000 		.4byte	.LASF23
 996 0106 05       		.byte	0x5
 997 0107 30       		.byte	0x30
 998 0108 C3000000 		.4byte	0xc3
 999 010c 03       		.uleb128 0x3
 1000 010d 49020000 		.4byte	.LASF24
 1001 0111 05       		.byte	0x5
 1002 0112 31       		.byte	0x31
 1003 0113 B8000000 		.4byte	0xb8
 1004 0117 03       		.uleb128 0x3
 1005 0118 9C020000 		.4byte	.LASF25
 1006 011c 05       		.byte	0x5
 1007 011d 33       		.byte	0x33
 1008 011e C3000000 		.4byte	0xc3
 1009 0122 03       		.uleb128 0x3
 1010 0123 53060000 		.4byte	.LASF26
 1011 0127 05       		.byte	0x5
 1012 0128 34       		.byte	0x34
 1013 0129 C3000000 		.4byte	0xc3
ARM GAS  /tmp/cc8zT4AD.s 			page 19


 1014 012d 03       		.uleb128 0x3
 1015 012e 0C060000 		.4byte	.LASF27
 1016 0132 05       		.byte	0x5
 1017 0133 35       		.byte	0x35
 1018 0134 C3000000 		.4byte	0xc3
 1019 0138 03       		.uleb128 0x3
 1020 0139 67040000 		.4byte	.LASF28
 1021 013d 06       		.byte	0x6
 1022 013e 2A       		.byte	0x2a
 1023 013f 43010000 		.4byte	0x143
 1024 0143 05       		.uleb128 0x5
 1025 0144 67040000 		.4byte	.LASF28
 1026 0148 40       		.byte	0x40
 1027 0149 07       		.byte	0x7
 1028 014a 5E       		.byte	0x5e
 1029 014b 1C020000 		.4byte	0x21c
 1030 014f 06       		.uleb128 0x6
 1031 0150 0F030000 		.4byte	.LASF29
 1032 0154 07       		.byte	0x7
 1033 0155 5F       		.byte	0x5f
 1034 0156 3D020000 		.4byte	0x23d
 1035 015a 00       		.byte	0
 1036 015b 06       		.uleb128 0x6
 1037 015c B0030000 		.4byte	.LASF30
 1038 0160 07       		.byte	0x7
 1039 0161 61       		.byte	0x61
 1040 0162 3D020000 		.4byte	0x23d
 1041 0166 04       		.byte	0x4
 1042 0167 06       		.uleb128 0x6
 1043 0168 9B060000 		.4byte	.LASF31
 1044 016c 07       		.byte	0x7
 1045 016d 63       		.byte	0x63
 1046 016e 01010000 		.4byte	0x101
 1047 0172 08       		.byte	0x8
 1048 0173 06       		.uleb128 0x6
 1049 0174 7A070000 		.4byte	.LASF32
 1050 0178 07       		.byte	0x7
 1051 0179 64       		.byte	0x64
 1052 017a C7030000 		.4byte	0x3c7
 1053 017e 0C       		.byte	0xc
 1054 017f 06       		.uleb128 0x6
 1055 0180 98010000 		.4byte	.LASF33
 1056 0184 07       		.byte	0x7
 1057 0185 66       		.byte	0x66
 1058 0186 3D020000 		.4byte	0x23d
 1059 018a 10       		.byte	0x10
 1060 018b 06       		.uleb128 0x6
 1061 018c 1E030000 		.4byte	.LASF34
 1062 0190 07       		.byte	0x7
 1063 0191 67       		.byte	0x67
 1064 0192 3D020000 		.4byte	0x23d
 1065 0196 14       		.byte	0x14
 1066 0197 06       		.uleb128 0x6
 1067 0198 6B060000 		.4byte	.LASF35
 1068 019c 07       		.byte	0x7
 1069 019d 6E       		.byte	0x6e
 1070 019e DD040000 		.4byte	0x4dd
ARM GAS  /tmp/cc8zT4AD.s 			page 20


 1071 01a2 18       		.byte	0x18
 1072 01a3 06       		.uleb128 0x6
 1073 01a4 0F040000 		.4byte	.LASF36
 1074 01a8 07       		.byte	0x7
 1075 01a9 79       		.byte	0x79
 1076 01aa EB000000 		.4byte	0xeb
 1077 01ae 1C       		.byte	0x1c
 1078 01af 06       		.uleb128 0x6
 1079 01b0 46040000 		.4byte	.LASF37
 1080 01b4 07       		.byte	0x7
 1081 01b5 7D       		.byte	0x7d
 1082 01b6 E0000000 		.4byte	0xe0
 1083 01ba 1D       		.byte	0x1d
 1084 01bb 06       		.uleb128 0x6
 1085 01bc 2B040000 		.4byte	.LASF38
 1086 01c0 07       		.byte	0x7
 1087 01c1 88       		.byte	0x88
 1088 01c2 F6000000 		.4byte	0xf6
 1089 01c6 1E       		.byte	0x1e
 1090 01c7 07       		.uleb128 0x7
 1091 01c8 705F7500 		.ascii	"p_u\000"
 1092 01cc 07       		.byte	0x7
 1093 01cd B4       		.byte	0xb4
 1094 01ce A8040000 		.4byte	0x4a8
 1095 01d2 20       		.byte	0x20
 1096 01d3 06       		.uleb128 0x6
 1097 01d4 80070000 		.4byte	.LASF39
 1098 01d8 07       		.byte	0x7
 1099 01d9 B9       		.byte	0xb9
 1100 01da 63020000 		.4byte	0x263
 1101 01de 24       		.byte	0x24
 1102 01df 06       		.uleb128 0x6
 1103 01e0 14020000 		.4byte	.LASF40
 1104 01e4 07       		.byte	0x7
 1105 01e5 BF       		.byte	0xbf
 1106 01e6 43020000 		.4byte	0x243
 1107 01ea 28       		.byte	0x28
 1108 01eb 06       		.uleb128 0x6
 1109 01ec 4F070000 		.4byte	.LASF41
 1110 01f0 07       		.byte	0x7
 1111 01f1 C3       		.byte	0xc3
 1112 01f2 0C010000 		.4byte	0x10c
 1113 01f6 30       		.byte	0x30
 1114 01f7 06       		.uleb128 0x6
 1115 01f8 77050000 		.4byte	.LASF42
 1116 01fc 07       		.byte	0x7
 1117 01fd C9       		.byte	0xc9
 1118 01fe 17010000 		.4byte	0x117
 1119 0202 34       		.byte	0x34
 1120 0203 06       		.uleb128 0x6
 1121 0204 17040000 		.4byte	.LASF43
 1122 0208 07       		.byte	0x7
 1123 0209 D0       		.byte	0xd0
 1124 020a EF040000 		.4byte	0x4ef
 1125 020e 38       		.byte	0x38
 1126 020f 06       		.uleb128 0x6
 1127 0210 16060000 		.4byte	.LASF44
ARM GAS  /tmp/cc8zT4AD.s 			page 21


 1128 0214 07       		.byte	0x7
 1129 0215 D4       		.byte	0xd4
 1130 0216 01010000 		.4byte	0x101
 1131 021a 3C       		.byte	0x3c
 1132 021b 00       		.byte	0
 1133 021c 08       		.uleb128 0x8
 1134 021d 08       		.byte	0x8
 1135 021e 06       		.byte	0x6
 1136 021f 61       		.byte	0x61
 1137 0220 3D020000 		.4byte	0x23d
 1138 0224 06       		.uleb128 0x6
 1139 0225 0F030000 		.4byte	.LASF29
 1140 0229 06       		.byte	0x6
 1141 022a 62       		.byte	0x62
 1142 022b 3D020000 		.4byte	0x23d
 1143 022f 00       		.byte	0
 1144 0230 06       		.uleb128 0x6
 1145 0231 B0030000 		.4byte	.LASF30
 1146 0235 06       		.byte	0x6
 1147 0236 64       		.byte	0x64
 1148 0237 3D020000 		.4byte	0x23d
 1149 023b 04       		.byte	0x4
 1150 023c 00       		.byte	0
 1151 023d 09       		.uleb128 0x9
 1152 023e 04       		.byte	0x4
 1153 023f 38010000 		.4byte	0x138
 1154 0243 03       		.uleb128 0x3
 1155 0244 26030000 		.4byte	.LASF45
 1156 0248 06       		.byte	0x6
 1157 0249 66       		.byte	0x66
 1158 024a 1C020000 		.4byte	0x21c
 1159 024e 08       		.uleb128 0x8
 1160 024f 04       		.byte	0x4
 1161 0250 06       		.byte	0x6
 1162 0251 6B       		.byte	0x6b
 1163 0252 63020000 		.4byte	0x263
 1164 0256 06       		.uleb128 0x6
 1165 0257 0F030000 		.4byte	.LASF29
 1166 025b 06       		.byte	0x6
 1167 025c 6D       		.byte	0x6d
 1168 025d 3D020000 		.4byte	0x23d
 1169 0261 00       		.byte	0
 1170 0262 00       		.byte	0
 1171 0263 03       		.uleb128 0x3
 1172 0264 90020000 		.4byte	.LASF46
 1173 0268 06       		.byte	0x6
 1174 0269 70       		.byte	0x70
 1175 026a 4E020000 		.4byte	0x24e
 1176 026e 03       		.uleb128 0x3
 1177 026f C6010000 		.4byte	.LASF47
 1178 0273 08       		.byte	0x8
 1179 0274 E5       		.byte	0xe5
 1180 0275 79020000 		.4byte	0x279
 1181 0279 0A       		.uleb128 0xa
 1182 027a 04       		.byte	0x4
 1183 027b 0B       		.uleb128 0xb
 1184 027c 43060000 		.4byte	.LASF48
ARM GAS  /tmp/cc8zT4AD.s 			page 22


 1185 0280 64       		.byte	0x64
 1186 0281 08       		.byte	0x8
 1187 0282 0C01     		.2byte	0x10c
 1188 0284 C7030000 		.4byte	0x3c7
 1189 0288 0C       		.uleb128 0xc
 1190 0289 73313600 		.ascii	"s16\000"
 1191 028d 08       		.byte	0x8
 1192 028e 0E01     		.2byte	0x10e
 1193 0290 6E020000 		.4byte	0x26e
 1194 0294 00       		.byte	0
 1195 0295 0C       		.uleb128 0xc
 1196 0296 73313700 		.ascii	"s17\000"
 1197 029a 08       		.byte	0x8
 1198 029b 0F01     		.2byte	0x10f
 1199 029d 6E020000 		.4byte	0x26e
 1200 02a1 04       		.byte	0x4
 1201 02a2 0C       		.uleb128 0xc
 1202 02a3 73313800 		.ascii	"s18\000"
 1203 02a7 08       		.byte	0x8
 1204 02a8 1001     		.2byte	0x110
 1205 02aa 6E020000 		.4byte	0x26e
 1206 02ae 08       		.byte	0x8
 1207 02af 0C       		.uleb128 0xc
 1208 02b0 73313900 		.ascii	"s19\000"
 1209 02b4 08       		.byte	0x8
 1210 02b5 1101     		.2byte	0x111
 1211 02b7 6E020000 		.4byte	0x26e
 1212 02bb 0C       		.byte	0xc
 1213 02bc 0C       		.uleb128 0xc
 1214 02bd 73323000 		.ascii	"s20\000"
 1215 02c1 08       		.byte	0x8
 1216 02c2 1201     		.2byte	0x112
 1217 02c4 6E020000 		.4byte	0x26e
 1218 02c8 10       		.byte	0x10
 1219 02c9 0C       		.uleb128 0xc
 1220 02ca 73323100 		.ascii	"s21\000"
 1221 02ce 08       		.byte	0x8
 1222 02cf 1301     		.2byte	0x113
 1223 02d1 6E020000 		.4byte	0x26e
 1224 02d5 14       		.byte	0x14
 1225 02d6 0C       		.uleb128 0xc
 1226 02d7 73323200 		.ascii	"s22\000"
 1227 02db 08       		.byte	0x8
 1228 02dc 1401     		.2byte	0x114
 1229 02de 6E020000 		.4byte	0x26e
 1230 02e2 18       		.byte	0x18
 1231 02e3 0C       		.uleb128 0xc
 1232 02e4 73323300 		.ascii	"s23\000"
 1233 02e8 08       		.byte	0x8
 1234 02e9 1501     		.2byte	0x115
 1235 02eb 6E020000 		.4byte	0x26e
 1236 02ef 1C       		.byte	0x1c
 1237 02f0 0C       		.uleb128 0xc
 1238 02f1 73323400 		.ascii	"s24\000"
 1239 02f5 08       		.byte	0x8
 1240 02f6 1601     		.2byte	0x116
 1241 02f8 6E020000 		.4byte	0x26e
ARM GAS  /tmp/cc8zT4AD.s 			page 23


 1242 02fc 20       		.byte	0x20
 1243 02fd 0C       		.uleb128 0xc
 1244 02fe 73323500 		.ascii	"s25\000"
 1245 0302 08       		.byte	0x8
 1246 0303 1701     		.2byte	0x117
 1247 0305 6E020000 		.4byte	0x26e
 1248 0309 24       		.byte	0x24
 1249 030a 0C       		.uleb128 0xc
 1250 030b 73323600 		.ascii	"s26\000"
 1251 030f 08       		.byte	0x8
 1252 0310 1801     		.2byte	0x118
 1253 0312 6E020000 		.4byte	0x26e
 1254 0316 28       		.byte	0x28
 1255 0317 0C       		.uleb128 0xc
 1256 0318 73323700 		.ascii	"s27\000"
 1257 031c 08       		.byte	0x8
 1258 031d 1901     		.2byte	0x119
 1259 031f 6E020000 		.4byte	0x26e
 1260 0323 2C       		.byte	0x2c
 1261 0324 0C       		.uleb128 0xc
 1262 0325 73323800 		.ascii	"s28\000"
 1263 0329 08       		.byte	0x8
 1264 032a 1A01     		.2byte	0x11a
 1265 032c 6E020000 		.4byte	0x26e
 1266 0330 30       		.byte	0x30
 1267 0331 0C       		.uleb128 0xc
 1268 0332 73323900 		.ascii	"s29\000"
 1269 0336 08       		.byte	0x8
 1270 0337 1B01     		.2byte	0x11b
 1271 0339 6E020000 		.4byte	0x26e
 1272 033d 34       		.byte	0x34
 1273 033e 0C       		.uleb128 0xc
 1274 033f 73333000 		.ascii	"s30\000"
 1275 0343 08       		.byte	0x8
 1276 0344 1C01     		.2byte	0x11c
 1277 0346 6E020000 		.4byte	0x26e
 1278 034a 38       		.byte	0x38
 1279 034b 0C       		.uleb128 0xc
 1280 034c 73333100 		.ascii	"s31\000"
 1281 0350 08       		.byte	0x8
 1282 0351 1D01     		.2byte	0x11d
 1283 0353 6E020000 		.4byte	0x26e
 1284 0357 3C       		.byte	0x3c
 1285 0358 0C       		.uleb128 0xc
 1286 0359 723400   		.ascii	"r4\000"
 1287 035c 08       		.byte	0x8
 1288 035d 1F01     		.2byte	0x11f
 1289 035f 6E020000 		.4byte	0x26e
 1290 0363 40       		.byte	0x40
 1291 0364 0C       		.uleb128 0xc
 1292 0365 723500   		.ascii	"r5\000"
 1293 0368 08       		.byte	0x8
 1294 0369 2001     		.2byte	0x120
 1295 036b 6E020000 		.4byte	0x26e
 1296 036f 44       		.byte	0x44
 1297 0370 0C       		.uleb128 0xc
 1298 0371 723600   		.ascii	"r6\000"
ARM GAS  /tmp/cc8zT4AD.s 			page 24


 1299 0374 08       		.byte	0x8
 1300 0375 2101     		.2byte	0x121
 1301 0377 6E020000 		.4byte	0x26e
 1302 037b 48       		.byte	0x48
 1303 037c 0C       		.uleb128 0xc
 1304 037d 723700   		.ascii	"r7\000"
 1305 0380 08       		.byte	0x8
 1306 0381 2201     		.2byte	0x122
 1307 0383 6E020000 		.4byte	0x26e
 1308 0387 4C       		.byte	0x4c
 1309 0388 0C       		.uleb128 0xc
 1310 0389 723800   		.ascii	"r8\000"
 1311 038c 08       		.byte	0x8
 1312 038d 2301     		.2byte	0x123
 1313 038f 6E020000 		.4byte	0x26e
 1314 0393 50       		.byte	0x50
 1315 0394 0C       		.uleb128 0xc
 1316 0395 723900   		.ascii	"r9\000"
 1317 0398 08       		.byte	0x8
 1318 0399 2401     		.2byte	0x124
 1319 039b 6E020000 		.4byte	0x26e
 1320 039f 54       		.byte	0x54
 1321 03a0 0C       		.uleb128 0xc
 1322 03a1 72313000 		.ascii	"r10\000"
 1323 03a5 08       		.byte	0x8
 1324 03a6 2501     		.2byte	0x125
 1325 03a8 6E020000 		.4byte	0x26e
 1326 03ac 58       		.byte	0x58
 1327 03ad 0C       		.uleb128 0xc
 1328 03ae 72313100 		.ascii	"r11\000"
 1329 03b2 08       		.byte	0x8
 1330 03b3 2601     		.2byte	0x126
 1331 03b5 6E020000 		.4byte	0x26e
 1332 03b9 5C       		.byte	0x5c
 1333 03ba 0C       		.uleb128 0xc
 1334 03bb 6C7200   		.ascii	"lr\000"
 1335 03be 08       		.byte	0x8
 1336 03bf 2701     		.2byte	0x127
 1337 03c1 6E020000 		.4byte	0x26e
 1338 03c5 60       		.byte	0x60
 1339 03c6 00       		.byte	0
 1340 03c7 0B       		.uleb128 0xb
 1341 03c8 3B060000 		.4byte	.LASF49
 1342 03cc 04       		.byte	0x4
 1343 03cd 08       		.byte	0x8
 1344 03ce 3101     		.2byte	0x131
 1345 03d0 E2030000 		.4byte	0x3e2
 1346 03d4 0C       		.uleb128 0xc
 1347 03d5 72313300 		.ascii	"r13\000"
 1348 03d9 08       		.byte	0x8
 1349 03da 3201     		.2byte	0x132
 1350 03dc E2030000 		.4byte	0x3e2
 1351 03e0 00       		.byte	0
 1352 03e1 00       		.byte	0
 1353 03e2 09       		.uleb128 0x9
 1354 03e3 04       		.byte	0x4
 1355 03e4 7B020000 		.4byte	0x27b
ARM GAS  /tmp/cc8zT4AD.s 			page 25


 1356 03e8 0D       		.uleb128 0xd
 1357 03e9 C3000000 		.4byte	0xc3
 1358 03ed 04       		.uleb128 0x4
 1359 03ee 04       		.byte	0x4
 1360 03ef 07       		.byte	0x7
 1361 03f0 F6020000 		.4byte	.LASF50
 1362 03f4 05       		.uleb128 0x5
 1363 03f5 09030000 		.4byte	.LASF51
 1364 03f9 10       		.byte	0x10
 1365 03fa 09       		.byte	0x9
 1366 03fb 2C       		.byte	0x2c
 1367 03fc 25040000 		.4byte	0x425
 1368 0400 06       		.uleb128 0x6
 1369 0401 19010000 		.4byte	.LASF52
 1370 0405 09       		.byte	0x9
 1371 0406 2D       		.byte	0x2d
 1372 0407 43020000 		.4byte	0x243
 1373 040b 00       		.byte	0
 1374 040c 06       		.uleb128 0x6
 1375 040d 68070000 		.4byte	.LASF53
 1376 0411 09       		.byte	0x9
 1377 0412 2F       		.byte	0x2f
 1378 0413 3D020000 		.4byte	0x23d
 1379 0417 08       		.byte	0x8
 1380 0418 06       		.uleb128 0x6
 1381 0419 05060000 		.4byte	.LASF54
 1382 041d 09       		.byte	0x9
 1383 041e 31       		.byte	0x31
 1384 041f 25040000 		.4byte	0x425
 1385 0423 0C       		.byte	0xc
 1386 0424 00       		.byte	0
 1387 0425 09       		.uleb128 0x9
 1388 0426 04       		.byte	0x4
 1389 0427 F4030000 		.4byte	0x3f4
 1390 042b 03       		.uleb128 0x3
 1391 042c 09030000 		.4byte	.LASF51
 1392 0430 09       		.byte	0x9
 1393 0431 33       		.byte	0x33
 1394 0432 F4030000 		.4byte	0x3f4
 1395 0436 03       		.uleb128 0x3
 1396 0437 A2060000 		.4byte	.LASF55
 1397 043b 0A       		.byte	0xa
 1398 043c 2C       		.byte	0x2c
 1399 043d 41040000 		.4byte	0x441
 1400 0441 05       		.uleb128 0x5
 1401 0442 A2060000 		.4byte	.LASF55
 1402 0446 10       		.byte	0x10
 1403 0447 0A       		.byte	0xa
 1404 0448 31       		.byte	0x31
 1405 0449 7E040000 		.4byte	0x47e
 1406 044d 06       		.uleb128 0x6
 1407 044e 4E040000 		.4byte	.LASF56
 1408 0452 0A       		.byte	0xa
 1409 0453 32       		.byte	0x32
 1410 0454 7E040000 		.4byte	0x47e
 1411 0458 00       		.byte	0
 1412 0459 06       		.uleb128 0x6
ARM GAS  /tmp/cc8zT4AD.s 			page 26


 1413 045a FA030000 		.4byte	.LASF57
 1414 045e 0A       		.byte	0xa
 1415 045f 35       		.byte	0x35
 1416 0460 3D020000 		.4byte	0x23d
 1417 0464 04       		.byte	0x4
 1418 0465 06       		.uleb128 0x6
 1419 0466 46030000 		.4byte	.LASF58
 1420 046a 0A       		.byte	0xa
 1421 046b 37       		.byte	0x37
 1422 046c 17010000 		.4byte	0x117
 1423 0470 08       		.byte	0x8
 1424 0471 06       		.uleb128 0x6
 1425 0472 06040000 		.4byte	.LASF59
 1426 0476 0A       		.byte	0xa
 1427 0477 3A       		.byte	0x3a
 1428 0478 22010000 		.4byte	0x122
 1429 047c 0C       		.byte	0xc
 1430 047d 00       		.byte	0
 1431 047e 09       		.uleb128 0x9
 1432 047f 04       		.byte	0x4
 1433 0480 36040000 		.4byte	0x436
 1434 0484 05       		.uleb128 0x5
 1435 0485 DC010000 		.4byte	.LASF60
 1436 0489 04       		.byte	0x4
 1437 048a 0A       		.byte	0xa
 1438 048b 41       		.byte	0x41
 1439 048c 9D040000 		.4byte	0x49d
 1440 0490 06       		.uleb128 0x6
 1441 0491 72060000 		.4byte	.LASF61
 1442 0495 0A       		.byte	0xa
 1443 0496 42       		.byte	0x42
 1444 0497 7E040000 		.4byte	0x47e
 1445 049b 00       		.byte	0
 1446 049c 00       		.byte	0
 1447 049d 03       		.uleb128 0x3
 1448 049e DC010000 		.4byte	.LASF60
 1449 04a2 0A       		.byte	0xa
 1450 04a3 45       		.byte	0x45
 1451 04a4 84040000 		.4byte	0x484
 1452 04a8 0E       		.uleb128 0xe
 1453 04a9 04       		.byte	0x4
 1454 04aa 07       		.byte	0x7
 1455 04ab 96       		.byte	0x96
 1456 04ac DD040000 		.4byte	0x4dd
 1457 04b0 0F       		.uleb128 0xf
 1458 04b1 18000000 		.4byte	.LASF62
 1459 04b5 07       		.byte	0x7
 1460 04b6 9D       		.byte	0x9d
 1461 04b7 0C010000 		.4byte	0x10c
 1462 04bb 0F       		.uleb128 0xf
 1463 04bc 56000000 		.4byte	.LASF63
 1464 04c0 07       		.byte	0x7
 1465 04c1 A4       		.byte	0xa4
 1466 04c2 0C010000 		.4byte	0x10c
 1467 04c6 0F       		.uleb128 0xf
 1468 04c7 B0060000 		.4byte	.LASF64
 1469 04cb 07       		.byte	0x7
ARM GAS  /tmp/cc8zT4AD.s 			page 27


 1470 04cc AB       		.byte	0xab
 1471 04cd 79020000 		.4byte	0x279
 1472 04d1 0F       		.uleb128 0xf
 1473 04d2 3F040000 		.4byte	.LASF65
 1474 04d6 07       		.byte	0x7
 1475 04d7 B2       		.byte	0xb2
 1476 04d8 17010000 		.4byte	0x117
 1477 04dc 00       		.byte	0
 1478 04dd 09       		.uleb128 0x9
 1479 04de 04       		.byte	0x4
 1480 04df E3040000 		.4byte	0x4e3
 1481 04e3 10       		.uleb128 0x10
 1482 04e4 E8040000 		.4byte	0x4e8
 1483 04e8 04       		.uleb128 0x4
 1484 04e9 01       		.byte	0x1
 1485 04ea 08       		.byte	0x8
 1486 04eb D5050000 		.4byte	.LASF66
 1487 04ef 09       		.uleb128 0x9
 1488 04f0 04       		.byte	0x4
 1489 04f1 2B040000 		.4byte	0x42b
 1490 04f5 09       		.uleb128 0x9
 1491 04f6 04       		.byte	0x4
 1492 04f7 FB040000 		.4byte	0x4fb
 1493 04fb 11       		.uleb128 0x11
 1494 04fc 0C010000 		.4byte	0x10c
 1495 0500 0A050000 		.4byte	0x50a
 1496 0504 12       		.uleb128 0x12
 1497 0505 79020000 		.4byte	0x279
 1498 0509 00       		.byte	0
 1499 050a 03       		.uleb128 0x3
 1500 050b CA020000 		.4byte	.LASF67
 1501 050f 0B       		.byte	0xb
 1502 0510 37       		.byte	0x37
 1503 0511 15050000 		.4byte	0x515
 1504 0515 05       		.uleb128 0x5
 1505 0516 CA020000 		.4byte	.LASF67
 1506 051a 24       		.byte	0x24
 1507 051b 0B       		.byte	0xb
 1508 051c 45       		.byte	0x45
 1509 051d 82050000 		.4byte	0x582
 1510 0521 06       		.uleb128 0x6
 1511 0522 D0000000 		.4byte	.LASF68
 1512 0526 0B       		.byte	0xb
 1513 0527 46       		.byte	0x46
 1514 0528 43020000 		.4byte	0x243
 1515 052c 00       		.byte	0
 1516 052d 06       		.uleb128 0x6
 1517 052e FF020000 		.4byte	.LASF69
 1518 0532 0B       		.byte	0xb
 1519 0533 47       		.byte	0x47
 1520 0534 2C000000 		.4byte	0x2c
 1521 0538 08       		.byte	0x8
 1522 0539 06       		.uleb128 0x6
 1523 053a 7A010000 		.4byte	.LASF70
 1524 053e 0B       		.byte	0xb
 1525 053f 48       		.byte	0x48
 1526 0540 A4050000 		.4byte	0x5a4
ARM GAS  /tmp/cc8zT4AD.s 			page 28


 1527 0544 0C       		.byte	0xc
 1528 0545 06       		.uleb128 0x6
 1529 0546 65060000 		.4byte	.LASF71
 1530 054a 0B       		.byte	0xb
 1531 054b 49       		.byte	0x49
 1532 054c A4050000 		.4byte	0x5a4
 1533 0550 10       		.byte	0x10
 1534 0551 06       		.uleb128 0x6
 1535 0552 36020000 		.4byte	.LASF72
 1536 0556 0B       		.byte	0xb
 1537 0557 4B       		.byte	0x4b
 1538 0558 A4050000 		.4byte	0x5a4
 1539 055c 14       		.byte	0x14
 1540 055d 06       		.uleb128 0x6
 1541 055e C9030000 		.4byte	.LASF73
 1542 0562 0B       		.byte	0xb
 1543 0563 4C       		.byte	0x4c
 1544 0564 A4050000 		.4byte	0x5a4
 1545 0568 18       		.byte	0x18
 1546 0569 06       		.uleb128 0x6
 1547 056a 7F060000 		.4byte	.LASF74
 1548 056e 0B       		.byte	0xb
 1549 056f 4D       		.byte	0x4d
 1550 0570 82050000 		.4byte	0x582
 1551 0574 1C       		.byte	0x1c
 1552 0575 06       		.uleb128 0x6
 1553 0576 61070000 		.4byte	.LASF75
 1554 057a 0B       		.byte	0xb
 1555 057b 4E       		.byte	0x4e
 1556 057c 79020000 		.4byte	0x279
 1557 0580 20       		.byte	0x20
 1558 0581 00       		.byte	0
 1559 0582 03       		.uleb128 0x3
 1560 0583 C0020000 		.4byte	.LASF76
 1561 0587 0B       		.byte	0xb
 1562 0588 3A       		.byte	0x3a
 1563 0589 8D050000 		.4byte	0x58d
 1564 058d 09       		.uleb128 0x9
 1565 058e 04       		.byte	0x4
 1566 058f 93050000 		.4byte	0x593
 1567 0593 13       		.uleb128 0x13
 1568 0594 9E050000 		.4byte	0x59e
 1569 0598 12       		.uleb128 0x12
 1570 0599 9E050000 		.4byte	0x59e
 1571 059d 00       		.byte	0
 1572 059e 09       		.uleb128 0x9
 1573 059f 04       		.byte	0x4
 1574 05a0 0A050000 		.4byte	0x50a
 1575 05a4 09       		.uleb128 0x9
 1576 05a5 04       		.byte	0x4
 1577 05a6 A2000000 		.4byte	0xa2
 1578 05aa 03       		.uleb128 0x3
 1579 05ab 90060000 		.4byte	.LASF77
 1580 05af 0B       		.byte	0xb
 1581 05b0 82       		.byte	0x82
 1582 05b1 0A050000 		.4byte	0x50a
 1583 05b5 03       		.uleb128 0x3
ARM GAS  /tmp/cc8zT4AD.s 			page 29


 1584 05b6 1F000000 		.4byte	.LASF78
 1585 05ba 0B       		.byte	0xb
 1586 05bb F5       		.byte	0xf5
 1587 05bc 0A050000 		.4byte	0x50a
 1588 05c0 11       		.uleb128 0x11
 1589 05c1 2C000000 		.4byte	0x2c
 1590 05c5 D9050000 		.4byte	0x5d9
 1591 05c9 12       		.uleb128 0x12
 1592 05ca 79020000 		.4byte	0x279
 1593 05ce 12       		.uleb128 0x12
 1594 05cf D9050000 		.4byte	0x5d9
 1595 05d3 12       		.uleb128 0x12
 1596 05d4 2C000000 		.4byte	0x2c
 1597 05d8 00       		.byte	0
 1598 05d9 09       		.uleb128 0x9
 1599 05da 04       		.byte	0x4
 1600 05db DF050000 		.4byte	0x5df
 1601 05df 10       		.uleb128 0x10
 1602 05e0 A2000000 		.4byte	0xa2
 1603 05e4 09       		.uleb128 0x9
 1604 05e5 04       		.byte	0x4
 1605 05e6 C0050000 		.4byte	0x5c0
 1606 05ea 11       		.uleb128 0x11
 1607 05eb 2C000000 		.4byte	0x2c
 1608 05ef 03060000 		.4byte	0x603
 1609 05f3 12       		.uleb128 0x12
 1610 05f4 79020000 		.4byte	0x279
 1611 05f8 12       		.uleb128 0x12
 1612 05f9 A4050000 		.4byte	0x5a4
 1613 05fd 12       		.uleb128 0x12
 1614 05fe 2C000000 		.4byte	0x2c
 1615 0602 00       		.byte	0
 1616 0603 09       		.uleb128 0x9
 1617 0604 04       		.byte	0x4
 1618 0605 EA050000 		.4byte	0x5ea
 1619 0609 11       		.uleb128 0x11
 1620 060a 0C010000 		.4byte	0x10c
 1621 060e 1D060000 		.4byte	0x61d
 1622 0612 12       		.uleb128 0x12
 1623 0613 79020000 		.4byte	0x279
 1624 0617 12       		.uleb128 0x12
 1625 0618 A2000000 		.4byte	0xa2
 1626 061c 00       		.byte	0
 1627 061d 09       		.uleb128 0x9
 1628 061e 04       		.byte	0x4
 1629 061f 09060000 		.4byte	0x609
 1630 0623 14       		.uleb128 0x14
 1631 0624 C3000000 		.4byte	0xc3
 1632 0628 33060000 		.4byte	0x633
 1633 062c 15       		.uleb128 0x15
 1634 062d ED030000 		.4byte	0x3ed
 1635 0631 01       		.byte	0x1
 1636 0632 00       		.byte	0
 1637 0633 0D       		.uleb128 0xd
 1638 0634 AD000000 		.4byte	0xad
 1639 0638 0D       		.uleb128 0xd
 1640 0639 B8000000 		.4byte	0xb8
ARM GAS  /tmp/cc8zT4AD.s 			page 30


 1641 063d 16       		.uleb128 0x16
 1642 063e 90       		.byte	0x90
 1643 063f 0C       		.byte	0xc
 1644 0640 5804     		.2byte	0x458
 1645 0642 E6070000 		.4byte	0x7e6
 1646 0646 0C       		.uleb128 0xc
 1647 0647 435200   		.ascii	"CR\000"
 1648 064a 0C       		.byte	0xc
 1649 064b 5A04     		.2byte	0x45a
 1650 064d E8030000 		.4byte	0x3e8
 1651 0651 00       		.byte	0
 1652 0652 17       		.uleb128 0x17
 1653 0653 A0010000 		.4byte	.LASF79
 1654 0657 0C       		.byte	0xc
 1655 0658 5B04     		.2byte	0x45b
 1656 065a E8030000 		.4byte	0x3e8
 1657 065e 04       		.byte	0x4
 1658 065f 17       		.uleb128 0x17
 1659 0660 C6060000 		.4byte	.LASF80
 1660 0664 0C       		.byte	0xc
 1661 0665 5C04     		.2byte	0x45c
 1662 0667 E8030000 		.4byte	0x3e8
 1663 066b 08       		.byte	0x8
 1664 066c 0C       		.uleb128 0xc
 1665 066d 43495200 		.ascii	"CIR\000"
 1666 0671 0C       		.byte	0xc
 1667 0672 5D04     		.2byte	0x45d
 1668 0674 E8030000 		.4byte	0x3e8
 1669 0678 0C       		.byte	0xc
 1670 0679 17       		.uleb128 0x17
 1671 067a FC000000 		.4byte	.LASF81
 1672 067e 0C       		.byte	0xc
 1673 067f 5E04     		.2byte	0x45e
 1674 0681 E8030000 		.4byte	0x3e8
 1675 0685 10       		.byte	0x10
 1676 0686 17       		.uleb128 0x17
 1677 0687 FC050000 		.4byte	.LASF82
 1678 068b 0C       		.byte	0xc
 1679 068c 5F04     		.2byte	0x45f
 1680 068e E8030000 		.4byte	0x3e8
 1681 0692 14       		.byte	0x14
 1682 0693 17       		.uleb128 0x17
 1683 0694 5E040000 		.4byte	.LASF83
 1684 0698 0C       		.byte	0xc
 1685 0699 6004     		.2byte	0x460
 1686 069b E8030000 		.4byte	0x3e8
 1687 069f 18       		.byte	0x18
 1688 06a0 17       		.uleb128 0x17
 1689 06a1 7E030000 		.4byte	.LASF84
 1690 06a5 0C       		.byte	0xc
 1691 06a6 6104     		.2byte	0x461
 1692 06a8 C3000000 		.4byte	0xc3
 1693 06ac 1C       		.byte	0x1c
 1694 06ad 17       		.uleb128 0x17
 1695 06ae 3D030000 		.4byte	.LASF85
 1696 06b2 0C       		.byte	0xc
 1697 06b3 6204     		.2byte	0x462
ARM GAS  /tmp/cc8zT4AD.s 			page 31


 1698 06b5 E8030000 		.4byte	0x3e8
 1699 06b9 20       		.byte	0x20
 1700 06ba 17       		.uleb128 0x17
 1701 06bb 55010000 		.4byte	.LASF86
 1702 06bf 0C       		.byte	0xc
 1703 06c0 6304     		.2byte	0x463
 1704 06c2 E8030000 		.4byte	0x3e8
 1705 06c6 24       		.byte	0x24
 1706 06c7 17       		.uleb128 0x17
 1707 06c8 88030000 		.4byte	.LASF87
 1708 06cc 0C       		.byte	0xc
 1709 06cd 6404     		.2byte	0x464
 1710 06cf 23060000 		.4byte	0x623
 1711 06d3 28       		.byte	0x28
 1712 06d4 17       		.uleb128 0x17
 1713 06d5 B7060000 		.4byte	.LASF88
 1714 06d9 0C       		.byte	0xc
 1715 06da 6504     		.2byte	0x465
 1716 06dc E8030000 		.4byte	0x3e8
 1717 06e0 30       		.byte	0x30
 1718 06e1 17       		.uleb128 0x17
 1719 06e2 33060000 		.4byte	.LASF89
 1720 06e6 0C       		.byte	0xc
 1721 06e7 6604     		.2byte	0x466
 1722 06e9 E8030000 		.4byte	0x3e8
 1723 06ed 34       		.byte	0x34
 1724 06ee 17       		.uleb128 0x17
 1725 06ef 16030000 		.4byte	.LASF90
 1726 06f3 0C       		.byte	0xc
 1727 06f4 6704     		.2byte	0x467
 1728 06f6 E8030000 		.4byte	0x3e8
 1729 06fa 38       		.byte	0x38
 1730 06fb 17       		.uleb128 0x17
 1731 06fc 92030000 		.4byte	.LASF91
 1732 0700 0C       		.byte	0xc
 1733 0701 6804     		.2byte	0x468
 1734 0703 C3000000 		.4byte	0xc3
 1735 0707 3C       		.byte	0x3c
 1736 0708 17       		.uleb128 0x17
 1737 0709 2B060000 		.4byte	.LASF92
 1738 070d 0C       		.byte	0xc
 1739 070e 6904     		.2byte	0x469
 1740 0710 E8030000 		.4byte	0x3e8
 1741 0714 40       		.byte	0x40
 1742 0715 17       		.uleb128 0x17
 1743 0716 56040000 		.4byte	.LASF93
 1744 071a 0C       		.byte	0xc
 1745 071b 6A04     		.2byte	0x46a
 1746 071d E8030000 		.4byte	0x3e8
 1747 0721 44       		.byte	0x44
 1748 0722 17       		.uleb128 0x17
 1749 0723 9C030000 		.4byte	.LASF94
 1750 0727 0C       		.byte	0xc
 1751 0728 6B04     		.2byte	0x46b
 1752 072a 23060000 		.4byte	0x623
 1753 072e 48       		.byte	0x48
 1754 072f 17       		.uleb128 0x17
ARM GAS  /tmp/cc8zT4AD.s 			page 32


 1755 0730 B3000000 		.4byte	.LASF95
 1756 0734 0C       		.byte	0xc
 1757 0735 6C04     		.2byte	0x46c
 1758 0737 E8030000 		.4byte	0x3e8
 1759 073b 50       		.byte	0x50
 1760 073c 17       		.uleb128 0x17
 1761 073d 33030000 		.4byte	.LASF96
 1762 0741 0C       		.byte	0xc
 1763 0742 6D04     		.2byte	0x46d
 1764 0744 E8030000 		.4byte	0x3e8
 1765 0748 54       		.byte	0x54
 1766 0749 17       		.uleb128 0x17
 1767 074a 35040000 		.4byte	.LASF97
 1768 074e 0C       		.byte	0xc
 1769 074f 6E04     		.2byte	0x46e
 1770 0751 E8030000 		.4byte	0x3e8
 1771 0755 58       		.byte	0x58
 1772 0756 17       		.uleb128 0x17
 1773 0757 A6030000 		.4byte	.LASF98
 1774 075b 0C       		.byte	0xc
 1775 075c 6F04     		.2byte	0x46f
 1776 075e C3000000 		.4byte	0xc3
 1777 0762 5C       		.byte	0x5c
 1778 0763 17       		.uleb128 0x17
 1779 0764 5E010000 		.4byte	.LASF99
 1780 0768 0C       		.byte	0xc
 1781 0769 7004     		.2byte	0x470
 1782 076b E8030000 		.4byte	0x3e8
 1783 076f 60       		.byte	0x60
 1784 0770 17       		.uleb128 0x17
 1785 0771 86020000 		.4byte	.LASF100
 1786 0775 0C       		.byte	0xc
 1787 0776 7104     		.2byte	0x471
 1788 0778 E8030000 		.4byte	0x3e8
 1789 077c 64       		.byte	0x64
 1790 077d 17       		.uleb128 0x17
 1791 077e 8C050000 		.4byte	.LASF101
 1792 0782 0C       		.byte	0xc
 1793 0783 7204     		.2byte	0x472
 1794 0785 23060000 		.4byte	0x623
 1795 0789 68       		.byte	0x68
 1796 078a 17       		.uleb128 0x17
 1797 078b 7A060000 		.4byte	.LASF102
 1798 078f 0C       		.byte	0xc
 1799 0790 7304     		.2byte	0x473
 1800 0792 E8030000 		.4byte	0x3e8
 1801 0796 70       		.byte	0x70
 1802 0797 0C       		.uleb128 0xc
 1803 0798 43535200 		.ascii	"CSR\000"
 1804 079c 0C       		.byte	0xc
 1805 079d 7404     		.2byte	0x474
 1806 079f E8030000 		.4byte	0x3e8
 1807 07a3 74       		.byte	0x74
 1808 07a4 17       		.uleb128 0x17
 1809 07a5 B7030000 		.4byte	.LASF103
 1810 07a9 0C       		.byte	0xc
 1811 07aa 7504     		.2byte	0x475
ARM GAS  /tmp/cc8zT4AD.s 			page 33


 1812 07ac 23060000 		.4byte	0x623
 1813 07b0 78       		.byte	0x78
 1814 07b1 17       		.uleb128 0x17
 1815 07b2 5F060000 		.4byte	.LASF104
 1816 07b6 0C       		.byte	0xc
 1817 07b7 7604     		.2byte	0x476
 1818 07b9 E8030000 		.4byte	0x3e8
 1819 07bd 80       		.byte	0x80
 1820 07be 17       		.uleb128 0x17
 1821 07bf 3E020000 		.4byte	.LASF105
 1822 07c3 0C       		.byte	0xc
 1823 07c4 7704     		.2byte	0x477
 1824 07c6 E8030000 		.4byte	0x3e8
 1825 07ca 84       		.byte	0x84
 1826 07cb 17       		.uleb128 0x17
 1827 07cc 73030000 		.4byte	.LASF106
 1828 07d0 0C       		.byte	0xc
 1829 07d1 7804     		.2byte	0x478
 1830 07d3 E8030000 		.4byte	0x3e8
 1831 07d7 88       		.byte	0x88
 1832 07d8 17       		.uleb128 0x17
 1833 07d9 DA000000 		.4byte	.LASF107
 1834 07dd 0C       		.byte	0xc
 1835 07de 7904     		.2byte	0x479
 1836 07e0 E8030000 		.4byte	0x3e8
 1837 07e4 8C       		.byte	0x8c
 1838 07e5 00       		.byte	0
 1839 07e6 18       		.uleb128 0x18
 1840 07e7 2B010000 		.4byte	.LASF108
 1841 07eb 0C       		.byte	0xc
 1842 07ec 7B04     		.2byte	0x47b
 1843 07ee 3D060000 		.4byte	0x63d
 1844 07f2 16       		.uleb128 0x16
 1845 07f3 1C       		.byte	0x1c
 1846 07f4 0C       		.byte	0xc
 1847 07f5 2905     		.2byte	0x529
 1848 07f7 B0080000 		.4byte	0x8b0
 1849 07fb 0C       		.uleb128 0xc
 1850 07fc 535200   		.ascii	"SR\000"
 1851 07ff 0C       		.byte	0xc
 1852 0800 2B05     		.2byte	0x52b
 1853 0802 33060000 		.4byte	0x633
 1854 0806 00       		.byte	0
 1855 0807 17       		.uleb128 0x17
 1856 0808 7E030000 		.4byte	.LASF84
 1857 080c 0C       		.byte	0xc
 1858 080d 2C05     		.2byte	0x52c
 1859 080f AD000000 		.4byte	0xad
 1860 0813 02       		.byte	0x2
 1861 0814 0C       		.uleb128 0xc
 1862 0815 445200   		.ascii	"DR\000"
 1863 0818 0C       		.byte	0xc
 1864 0819 2D05     		.2byte	0x52d
 1865 081b 33060000 		.4byte	0x633
 1866 081f 04       		.byte	0x4
 1867 0820 17       		.uleb128 0x17
 1868 0821 88030000 		.4byte	.LASF87
ARM GAS  /tmp/cc8zT4AD.s 			page 34


 1869 0825 0C       		.byte	0xc
 1870 0826 2E05     		.2byte	0x52e
 1871 0828 AD000000 		.4byte	0xad
 1872 082c 06       		.byte	0x6
 1873 082d 0C       		.uleb128 0xc
 1874 082e 42525200 		.ascii	"BRR\000"
 1875 0832 0C       		.byte	0xc
 1876 0833 2F05     		.2byte	0x52f
 1877 0835 33060000 		.4byte	0x633
 1878 0839 08       		.byte	0x8
 1879 083a 17       		.uleb128 0x17
 1880 083b 92030000 		.4byte	.LASF91
 1881 083f 0C       		.byte	0xc
 1882 0840 3005     		.2byte	0x530
 1883 0842 AD000000 		.4byte	0xad
 1884 0846 0A       		.byte	0xa
 1885 0847 0C       		.uleb128 0xc
 1886 0848 43523100 		.ascii	"CR1\000"
 1887 084c 0C       		.byte	0xc
 1888 084d 3105     		.2byte	0x531
 1889 084f 33060000 		.4byte	0x633
 1890 0853 0C       		.byte	0xc
 1891 0854 17       		.uleb128 0x17
 1892 0855 9C030000 		.4byte	.LASF94
 1893 0859 0C       		.byte	0xc
 1894 085a 3205     		.2byte	0x532
 1895 085c AD000000 		.4byte	0xad
 1896 0860 0E       		.byte	0xe
 1897 0861 0C       		.uleb128 0xc
 1898 0862 43523200 		.ascii	"CR2\000"
 1899 0866 0C       		.byte	0xc
 1900 0867 3305     		.2byte	0x533
 1901 0869 33060000 		.4byte	0x633
 1902 086d 10       		.byte	0x10
 1903 086e 17       		.uleb128 0x17
 1904 086f A6030000 		.4byte	.LASF98
 1905 0873 0C       		.byte	0xc
 1906 0874 3405     		.2byte	0x534
 1907 0876 AD000000 		.4byte	0xad
 1908 087a 12       		.byte	0x12
 1909 087b 0C       		.uleb128 0xc
 1910 087c 43523300 		.ascii	"CR3\000"
 1911 0880 0C       		.byte	0xc
 1912 0881 3505     		.2byte	0x535
 1913 0883 33060000 		.4byte	0x633
 1914 0887 14       		.byte	0x14
 1915 0888 17       		.uleb128 0x17
 1916 0889 8C050000 		.4byte	.LASF101
 1917 088d 0C       		.byte	0xc
 1918 088e 3605     		.2byte	0x536
 1919 0890 AD000000 		.4byte	0xad
 1920 0894 16       		.byte	0x16
 1921 0895 17       		.uleb128 0x17
 1922 0896 05010000 		.4byte	.LASF109
 1923 089a 0C       		.byte	0xc
 1924 089b 3705     		.2byte	0x537
 1925 089d 33060000 		.4byte	0x633
ARM GAS  /tmp/cc8zT4AD.s 			page 35


 1926 08a1 18       		.byte	0x18
 1927 08a2 17       		.uleb128 0x17
 1928 08a3 B7030000 		.4byte	.LASF103
 1929 08a7 0C       		.byte	0xc
 1930 08a8 3805     		.2byte	0x538
 1931 08aa AD000000 		.4byte	0xad
 1932 08ae 1A       		.byte	0x1a
 1933 08af 00       		.byte	0
 1934 08b0 18       		.uleb128 0x18
 1935 08b1 69020000 		.4byte	.LASF110
 1936 08b5 0C       		.byte	0xc
 1937 08b6 3905     		.2byte	0x539
 1938 08b8 F2070000 		.4byte	0x7f2
 1939 08bc 11       		.uleb128 0x11
 1940 08bd 0C010000 		.4byte	0x10c
 1941 08c1 D5080000 		.4byte	0x8d5
 1942 08c5 12       		.uleb128 0x12
 1943 08c6 79020000 		.4byte	0x279
 1944 08ca 12       		.uleb128 0x12
 1945 08cb A2000000 		.4byte	0xa2
 1946 08cf 12       		.uleb128 0x12
 1947 08d0 2D010000 		.4byte	0x12d
 1948 08d4 00       		.byte	0
 1949 08d5 09       		.uleb128 0x9
 1950 08d6 04       		.byte	0x4
 1951 08d7 BC080000 		.4byte	0x8bc
 1952 08db 11       		.uleb128 0x11
 1953 08dc 0C010000 		.4byte	0x10c
 1954 08e0 EF080000 		.4byte	0x8ef
 1955 08e4 12       		.uleb128 0x12
 1956 08e5 79020000 		.4byte	0x279
 1957 08e9 12       		.uleb128 0x12
 1958 08ea 2D010000 		.4byte	0x12d
 1959 08ee 00       		.byte	0
 1960 08ef 09       		.uleb128 0x9
 1961 08f0 04       		.byte	0x4
 1962 08f1 DB080000 		.4byte	0x8db
 1963 08f5 11       		.uleb128 0x11
 1964 08f6 2C000000 		.4byte	0x2c
 1965 08fa 13090000 		.4byte	0x913
 1966 08fe 12       		.uleb128 0x12
 1967 08ff 79020000 		.4byte	0x279
 1968 0903 12       		.uleb128 0x12
 1969 0904 D9050000 		.4byte	0x5d9
 1970 0908 12       		.uleb128 0x12
 1971 0909 2C000000 		.4byte	0x2c
 1972 090d 12       		.uleb128 0x12
 1973 090e 2D010000 		.4byte	0x12d
 1974 0912 00       		.byte	0
 1975 0913 09       		.uleb128 0x9
 1976 0914 04       		.byte	0x4
 1977 0915 F5080000 		.4byte	0x8f5
 1978 0919 11       		.uleb128 0x11
 1979 091a 2C000000 		.4byte	0x2c
 1980 091e 37090000 		.4byte	0x937
 1981 0922 12       		.uleb128 0x12
 1982 0923 79020000 		.4byte	0x279
ARM GAS  /tmp/cc8zT4AD.s 			page 36


 1983 0927 12       		.uleb128 0x12
 1984 0928 A4050000 		.4byte	0x5a4
 1985 092c 12       		.uleb128 0x12
 1986 092d 2C000000 		.4byte	0x2c
 1987 0931 12       		.uleb128 0x12
 1988 0932 2D010000 		.4byte	0x12d
 1989 0936 00       		.byte	0
 1990 0937 09       		.uleb128 0x9
 1991 0938 04       		.byte	0x4
 1992 0939 19090000 		.4byte	0x919
 1993 093d 19       		.uleb128 0x19
 1994 093e 01       		.byte	0x1
 1995 093f 0D       		.byte	0xd
 1996 0940 64       		.byte	0x64
 1997 0941 58090000 		.4byte	0x958
 1998 0945 1A       		.uleb128 0x1a
 1999 0946 82050000 		.4byte	.LASF111
 2000 094a 00       		.sleb128 0
 2001 094b 1A       		.uleb128 0x1a
 2002 094c 0A010000 		.4byte	.LASF112
 2003 0950 01       		.sleb128 1
 2004 0951 1A       		.uleb128 0x1a
 2005 0952 4A060000 		.4byte	.LASF113
 2006 0956 02       		.sleb128 2
 2007 0957 00       		.byte	0
 2008 0958 03       		.uleb128 0x3
 2009 0959 70070000 		.4byte	.LASF114
 2010 095d 0D       		.byte	0xd
 2011 095e 68       		.byte	0x68
 2012 095f 3D090000 		.4byte	0x93d
 2013 0963 03       		.uleb128 0x3
 2014 0964 9F050000 		.4byte	.LASF115
 2015 0968 0D       		.byte	0xd
 2016 0969 6D       		.byte	0x6d
 2017 096a 6E090000 		.4byte	0x96e
 2018 096e 05       		.uleb128 0x5
 2019 096f 9F050000 		.4byte	.LASF115
 2020 0973 98       		.byte	0x98
 2021 0974 0D       		.byte	0xd
 2022 0975 87       		.byte	0x87
 2023 0976 D9090000 		.4byte	0x9d9
 2024 097a 07       		.uleb128 0x7
 2025 097b 766D7400 		.ascii	"vmt\000"
 2026 097f 0D       		.byte	0xd
 2027 0980 89       		.byte	0x89
 2028 0981 8A0A0000 		.4byte	0xa8a
 2029 0985 00       		.byte	0
 2030 0986 06       		.uleb128 0x6
 2031 0987 30020000 		.4byte	.LASF116
 2032 098b 0D       		.byte	0xd
 2033 098c 8A       		.byte	0x8a
 2034 098d 9D040000 		.4byte	0x49d
 2035 0991 04       		.byte	0x4
 2036 0992 06       		.uleb128 0x6
 2037 0993 46010000 		.4byte	.LASF117
 2038 0997 0D       		.byte	0xd
 2039 0998 8A       		.byte	0x8a
ARM GAS  /tmp/cc8zT4AD.s 			page 37


 2040 0999 58090000 		.4byte	0x958
 2041 099d 08       		.byte	0x8
 2042 099e 06       		.uleb128 0x6
 2043 099f BF060000 		.4byte	.LASF118
 2044 09a3 0D       		.byte	0xd
 2045 09a4 8A       		.byte	0x8a
 2046 09a5 AA050000 		.4byte	0x5aa
 2047 09a9 0C       		.byte	0xc
 2048 09aa 06       		.uleb128 0x6
 2049 09ab 4F020000 		.4byte	.LASF119
 2050 09af 0D       		.byte	0xd
 2051 09b0 8A       		.byte	0x8a
 2052 09b1 B5050000 		.4byte	0x5b5
 2053 09b5 30       		.byte	0x30
 2054 09b6 07       		.uleb128 0x7
 2055 09b7 696200   		.ascii	"ib\000"
 2056 09ba 0D       		.byte	0xd
 2057 09bb 8A       		.byte	0x8a
 2058 09bc 950A0000 		.4byte	0xa95
 2059 09c0 54       		.byte	0x54
 2060 09c1 07       		.uleb128 0x7
 2061 09c2 6F6200   		.ascii	"ob\000"
 2062 09c5 0D       		.byte	0xd
 2063 09c6 8A       		.byte	0x8a
 2064 09c7 950A0000 		.4byte	0xa95
 2065 09cb 74       		.byte	0x74
 2066 09cc 06       		.uleb128 0x6
 2067 09cd E8010000 		.4byte	.LASF120
 2068 09d1 0D       		.byte	0xd
 2069 09d2 8A       		.byte	0x8a
 2070 09d3 A50A0000 		.4byte	0xaa5
 2071 09d7 94       		.byte	0x94
 2072 09d8 00       		.byte	0
 2073 09d9 08       		.uleb128 0x8
 2074 09da 0C       		.byte	0xc
 2075 09db 0E       		.byte	0xe
 2076 09dc D7       		.byte	0xd7
 2077 09dd 120A0000 		.4byte	0xa12
 2078 09e1 06       		.uleb128 0x6
 2079 09e2 B1020000 		.4byte	.LASF121
 2080 09e6 0E       		.byte	0xe
 2081 09e7 DB       		.byte	0xdb
 2082 09e8 C3000000 		.4byte	0xc3
 2083 09ec 00       		.byte	0
 2084 09ed 07       		.uleb128 0x7
 2085 09ee 63723100 		.ascii	"cr1\000"
 2086 09f2 0E       		.byte	0xe
 2087 09f3 E0       		.byte	0xe0
 2088 09f4 AD000000 		.4byte	0xad
 2089 09f8 04       		.byte	0x4
 2090 09f9 07       		.uleb128 0x7
 2091 09fa 63723200 		.ascii	"cr2\000"
 2092 09fe 0E       		.byte	0xe
 2093 09ff E4       		.byte	0xe4
 2094 0a00 AD000000 		.4byte	0xad
 2095 0a04 06       		.byte	0x6
 2096 0a05 07       		.uleb128 0x7
ARM GAS  /tmp/cc8zT4AD.s 			page 38


 2097 0a06 63723300 		.ascii	"cr3\000"
 2098 0a0a 0E       		.byte	0xe
 2099 0a0b E8       		.byte	0xe8
 2100 0a0c AD000000 		.4byte	0xad
 2101 0a10 08       		.byte	0x8
 2102 0a11 00       		.byte	0
 2103 0a12 03       		.uleb128 0x3
 2104 0a13 4E030000 		.4byte	.LASF122
 2105 0a17 0E       		.byte	0xe
 2106 0a18 E9       		.byte	0xe9
 2107 0a19 D9090000 		.4byte	0x9d9
 2108 0a1d 05       		.uleb128 0x5
 2109 0a1e 04020000 		.4byte	.LASF123
 2110 0a22 20       		.byte	0x20
 2111 0a23 0D       		.byte	0xd
 2112 0a24 7C       		.byte	0x7c
 2113 0a25 8A0A0000 		.4byte	0xa8a
 2114 0a29 06       		.uleb128 0x6
 2115 0a2a E0020000 		.4byte	.LASF124
 2116 0a2e 0D       		.byte	0xd
 2117 0a2f 7D       		.byte	0x7d
 2118 0a30 E4050000 		.4byte	0x5e4
 2119 0a34 00       		.byte	0
 2120 0a35 06       		.uleb128 0x6
 2121 0a36 D0050000 		.4byte	.LASF125
 2122 0a3a 0D       		.byte	0xd
 2123 0a3b 7D       		.byte	0x7d
 2124 0a3c 03060000 		.4byte	0x603
 2125 0a40 04       		.byte	0x4
 2126 0a41 07       		.uleb128 0x7
 2127 0a42 70757400 		.ascii	"put\000"
 2128 0a46 0D       		.byte	0xd
 2129 0a47 7D       		.byte	0x7d
 2130 0a48 1D060000 		.4byte	0x61d
 2131 0a4c 08       		.byte	0x8
 2132 0a4d 07       		.uleb128 0x7
 2133 0a4e 67657400 		.ascii	"get\000"
 2134 0a52 0D       		.byte	0xd
 2135 0a53 7D       		.byte	0x7d
 2136 0a54 F5040000 		.4byte	0x4f5
 2137 0a58 0C       		.byte	0xc
 2138 0a59 06       		.uleb128 0x6
 2139 0a5a E6020000 		.4byte	.LASF126
 2140 0a5e 0D       		.byte	0xd
 2141 0a5f 7D       		.byte	0x7d
 2142 0a60 D5080000 		.4byte	0x8d5
 2143 0a64 10       		.byte	0x10
 2144 0a65 06       		.uleb128 0x6
 2145 0a66 2B020000 		.4byte	.LASF127
 2146 0a6a 0D       		.byte	0xd
 2147 0a6b 7D       		.byte	0x7d
 2148 0a6c EF080000 		.4byte	0x8ef
 2149 0a70 14       		.byte	0x14
 2150 0a71 06       		.uleb128 0x6
 2151 0a72 77020000 		.4byte	.LASF128
 2152 0a76 0D       		.byte	0xd
 2153 0a77 7D       		.byte	0x7d
ARM GAS  /tmp/cc8zT4AD.s 			page 39


 2154 0a78 13090000 		.4byte	0x913
 2155 0a7c 18       		.byte	0x18
 2156 0a7d 06       		.uleb128 0x6
 2157 0a7e CA000000 		.4byte	.LASF129
 2158 0a82 0D       		.byte	0xd
 2159 0a83 7D       		.byte	0x7d
 2160 0a84 37090000 		.4byte	0x937
 2161 0a88 1C       		.byte	0x1c
 2162 0a89 00       		.byte	0
 2163 0a8a 09       		.uleb128 0x9
 2164 0a8b 04       		.byte	0x4
 2165 0a8c 900A0000 		.4byte	0xa90
 2166 0a90 10       		.uleb128 0x10
 2167 0a91 1D0A0000 		.4byte	0xa1d
 2168 0a95 14       		.uleb128 0x14
 2169 0a96 A2000000 		.4byte	0xa2
 2170 0a9a A50A0000 		.4byte	0xaa5
 2171 0a9e 15       		.uleb128 0x15
 2172 0a9f ED030000 		.4byte	0x3ed
 2173 0aa3 1F       		.byte	0x1f
 2174 0aa4 00       		.byte	0
 2175 0aa5 09       		.uleb128 0x9
 2176 0aa6 04       		.byte	0x4
 2177 0aa7 B0080000 		.4byte	0x8b0
 2178 0aab 09       		.uleb128 0x9
 2179 0aac 04       		.byte	0x4
 2180 0aad B5050000 		.4byte	0x5b5
 2181 0ab1 1B       		.uleb128 0x1b
 2182 0ab2 EB020000 		.4byte	.LASF131
 2183 0ab6 01       		.byte	0x1
 2184 0ab7 5C       		.byte	0x5c
 2185 0ab8 01       		.byte	0x1
 2186 0ab9 DD0A0000 		.4byte	0xadd
 2187 0abd 1C       		.uleb128 0x1c
 2188 0abe 73647000 		.ascii	"sdp\000"
 2189 0ac2 01       		.byte	0x1
 2190 0ac3 5C       		.byte	0x5c
 2191 0ac4 DD0A0000 		.4byte	0xadd
 2192 0ac8 1D       		.uleb128 0x1d
 2193 0ac9 EA050000 		.4byte	.LASF130
 2194 0acd 01       		.byte	0x1
 2195 0ace 5C       		.byte	0x5c
 2196 0acf E30A0000 		.4byte	0xae3
 2197 0ad3 1E       		.uleb128 0x1e
 2198 0ad4 7500     		.ascii	"u\000"
 2199 0ad6 01       		.byte	0x1
 2200 0ad7 5D       		.byte	0x5d
 2201 0ad8 A50A0000 		.4byte	0xaa5
 2202 0adc 00       		.byte	0
 2203 0add 09       		.uleb128 0x9
 2204 0ade 04       		.byte	0x4
 2205 0adf 63090000 		.4byte	0x963
 2206 0ae3 09       		.uleb128 0x9
 2207 0ae4 04       		.byte	0x4
 2208 0ae5 E90A0000 		.4byte	0xae9
 2209 0ae9 10       		.uleb128 0x10
 2210 0aea 120A0000 		.4byte	0xa12
ARM GAS  /tmp/cc8zT4AD.s 			page 40


 2211 0aee 1B       		.uleb128 0x1b
 2212 0aef CF010000 		.4byte	.LASF132
 2213 0af3 01       		.byte	0x1
 2214 0af4 7A       		.byte	0x7a
 2215 0af5 01       		.byte	0x1
 2216 0af6 040B0000 		.4byte	0xb04
 2217 0afa 1C       		.uleb128 0x1c
 2218 0afb 7500     		.ascii	"u\000"
 2219 0afd 01       		.byte	0x1
 2220 0afe 7A       		.byte	0x7a
 2221 0aff A50A0000 		.4byte	0xaa5
 2222 0b03 00       		.byte	0
 2223 0b04 1F       		.uleb128 0x1f
 2224 0b05 5B030000 		.4byte	.LASF133
 2225 0b09 01       		.byte	0x1
 2226 0b0a D1       		.byte	0xd1
 2227 0b0b 00000000 		.4byte	.LFB134
 2228 0b0f 14000000 		.4byte	.LFE134-.LFB134
 2229 0b13 01       		.uleb128 0x1
 2230 0b14 9C       		.byte	0x9c
 2231 0b15 260B0000 		.4byte	0xb26
 2232 0b19 20       		.uleb128 0x20
 2233 0b1a 717000   		.ascii	"qp\000"
 2234 0b1d 01       		.byte	0x1
 2235 0b1e D1       		.byte	0xd1
 2236 0b1f 9E050000 		.4byte	0x59e
 2237 0b23 01       		.uleb128 0x1
 2238 0b24 50       		.byte	0x50
 2239 0b25 00       		.byte	0
 2240 0b26 1F       		.uleb128 0x1f
 2241 0b27 63030000 		.4byte	.LASF134
 2242 0b2b 01       		.byte	0x1
 2243 0b2c D9       		.byte	0xd9
 2244 0b2d 20000000 		.4byte	.LFB135
 2245 0b31 14000000 		.4byte	.LFE135-.LFB135
 2246 0b35 01       		.uleb128 0x1
 2247 0b36 9C       		.byte	0x9c
 2248 0b37 480B0000 		.4byte	0xb48
 2249 0b3b 20       		.uleb128 0x20
 2250 0b3c 717000   		.ascii	"qp\000"
 2251 0b3f 01       		.byte	0x1
 2252 0b40 D9       		.byte	0xd9
 2253 0b41 9E050000 		.4byte	0x59e
 2254 0b45 01       		.uleb128 0x1
 2255 0b46 50       		.byte	0x50
 2256 0b47 00       		.byte	0
 2257 0b48 1F       		.uleb128 0x1f
 2258 0b49 6B030000 		.4byte	.LASF135
 2259 0b4d 01       		.byte	0x1
 2260 0b4e E1       		.byte	0xe1
 2261 0b4f 40000000 		.4byte	.LFB136
 2262 0b53 14000000 		.4byte	.LFE136-.LFB136
 2263 0b57 01       		.uleb128 0x1
 2264 0b58 9C       		.byte	0x9c
 2265 0b59 6A0B0000 		.4byte	0xb6a
 2266 0b5d 20       		.uleb128 0x20
 2267 0b5e 717000   		.ascii	"qp\000"
ARM GAS  /tmp/cc8zT4AD.s 			page 41


 2268 0b61 01       		.byte	0x1
 2269 0b62 E1       		.byte	0xe1
 2270 0b63 9E050000 		.4byte	0x59e
 2271 0b67 01       		.uleb128 0x1
 2272 0b68 50       		.byte	0x50
 2273 0b69 00       		.byte	0
 2274 0b6a 1B       		.uleb128 0x1b
 2275 0b6b 35000000 		.4byte	.LASF136
 2276 0b6f 01       		.byte	0x1
 2277 0b70 87       		.byte	0x87
 2278 0b71 01       		.byte	0x1
 2279 0b72 970B0000 		.4byte	0xb97
 2280 0b76 1C       		.uleb128 0x1c
 2281 0b77 73647000 		.ascii	"sdp\000"
 2282 0b7b 01       		.byte	0x1
 2283 0b7c 87       		.byte	0x87
 2284 0b7d DD0A0000 		.4byte	0xadd
 2285 0b81 1C       		.uleb128 0x1c
 2286 0b82 737200   		.ascii	"sr\000"
 2287 0b85 01       		.byte	0x1
 2288 0b86 87       		.byte	0x87
 2289 0b87 AD000000 		.4byte	0xad
 2290 0b8b 1E       		.uleb128 0x1e
 2291 0b8c 73747300 		.ascii	"sts\000"
 2292 0b90 01       		.byte	0x1
 2293 0b91 88       		.byte	0x88
 2294 0b92 22010000 		.4byte	0x122
 2295 0b96 00       		.byte	0
 2296 0b97 1F       		.uleb128 0x1f
 2297 0b98 67050000 		.4byte	.LASF137
 2298 0b9c 01       		.byte	0x1
 2299 0b9d 9A       		.byte	0x9a
 2300 0b9e 60000000 		.4byte	.LFB133
 2301 0ba2 1C010000 		.4byte	.LFE133-.LFB133
 2302 0ba6 01       		.uleb128 0x1
 2303 0ba7 9C       		.byte	0x9c
 2304 0ba8 900D0000 		.4byte	0xd90
 2305 0bac 21       		.uleb128 0x21
 2306 0bad 73647000 		.ascii	"sdp\000"
 2307 0bb1 01       		.byte	0x1
 2308 0bb2 9A       		.byte	0x9a
 2309 0bb3 DD0A0000 		.4byte	0xadd
 2310 0bb7 00000000 		.4byte	.LLST0
 2311 0bbb 22       		.uleb128 0x22
 2312 0bbc 7500     		.ascii	"u\000"
 2313 0bbe 01       		.byte	0x1
 2314 0bbf 9B       		.byte	0x9b
 2315 0bc0 A50A0000 		.4byte	0xaa5
 2316 0bc4 01       		.uleb128 0x1
 2317 0bc5 55       		.byte	0x55
 2318 0bc6 23       		.uleb128 0x23
 2319 0bc7 63723100 		.ascii	"cr1\000"
 2320 0bcb 01       		.byte	0x1
 2321 0bcc 9C       		.byte	0x9c
 2322 0bcd AD000000 		.4byte	0xad
 2323 0bd1 34000000 		.4byte	.LLST1
 2324 0bd5 23       		.uleb128 0x23
ARM GAS  /tmp/cc8zT4AD.s 			page 42


 2325 0bd6 737200   		.ascii	"sr\000"
 2326 0bd9 01       		.byte	0x1
 2327 0bda 9D       		.byte	0x9d
 2328 0bdb AD000000 		.4byte	0xad
 2329 0bdf 52000000 		.4byte	.LLST2
 2330 0be3 24       		.uleb128 0x24
 2331 0be4 76000000 		.4byte	.LBB16
 2332 0be8 06000000 		.4byte	.LBE16-.LBB16
 2333 0bec FE0B0000 		.4byte	0xbfe
 2334 0bf0 22       		.uleb128 0x22
 2335 0bf1 746D7000 		.ascii	"tmp\000"
 2336 0bf5 01       		.byte	0x1
 2337 0bf6 A8       		.byte	0xa8
 2338 0bf7 C3000000 		.4byte	0xc3
 2339 0bfb 01       		.uleb128 0x1
 2340 0bfc 53       		.byte	0x53
 2341 0bfd 00       		.byte	0
 2342 0bfe 25       		.uleb128 0x25
 2343 0bff 00000000 		.4byte	.Ldebug_ranges0+0
 2344 0c03 660C0000 		.4byte	0xc66
 2345 0c07 23       		.uleb128 0x23
 2346 0c08 6200     		.ascii	"b\000"
 2347 0c0a 01       		.byte	0x1
 2348 0c0b AB       		.byte	0xab
 2349 0c0c A2000000 		.4byte	0xa2
 2350 0c10 7B000000 		.4byte	.LLST3
 2351 0c14 26       		.uleb128 0x26
 2352 0c15 6A0B0000 		.4byte	0xb6a
 2353 0c19 82000000 		.4byte	.LBB18
 2354 0c1d 18000000 		.4byte	.Ldebug_ranges0+0x18
 2355 0c21 01       		.byte	0x1
 2356 0c22 AF       		.byte	0xaf
 2357 0c23 550C0000 		.4byte	0xc55
 2358 0c27 27       		.uleb128 0x27
 2359 0c28 810B0000 		.4byte	0xb81
 2360 0c2c 99000000 		.4byte	.LLST4
 2361 0c30 28       		.uleb128 0x28
 2362 0c31 760B0000 		.4byte	0xb76
 2363 0c35 29       		.uleb128 0x29
 2364 0c36 18000000 		.4byte	.Ldebug_ranges0+0x18
 2365 0c3a 2A       		.uleb128 0x2a
 2366 0c3b 8B0B0000 		.4byte	0xb8b
 2367 0c3f AC000000 		.4byte	.LLST5
 2368 0c43 2B       		.uleb128 0x2b
 2369 0c44 C6000000 		.4byte	.LVL16
 2370 0c48 32100000 		.4byte	0x1032
 2371 0c4c 2C       		.uleb128 0x2c
 2372 0c4d 01       		.uleb128 0x1
 2373 0c4e 50       		.byte	0x50
 2374 0c4f 02       		.uleb128 0x2
 2375 0c50 78       		.byte	0x78
 2376 0c51 00       		.sleb128 0
 2377 0c52 00       		.byte	0
 2378 0c53 00       		.byte	0
 2379 0c54 00       		.byte	0
 2380 0c55 2B       		.uleb128 0x2b
 2381 0c56 D6000000 		.4byte	.LVL19
ARM GAS  /tmp/cc8zT4AD.s 			page 43


 2382 0c5a 4E100000 		.4byte	0x104e
 2383 0c5e 2C       		.uleb128 0x2c
 2384 0c5f 01       		.uleb128 0x1
 2385 0c60 50       		.byte	0x50
 2386 0c61 02       		.uleb128 0x2
 2387 0c62 76       		.byte	0x76
 2388 0c63 00       		.sleb128 0
 2389 0c64 00       		.byte	0
 2390 0c65 00       		.byte	0
 2391 0c66 24       		.uleb128 0x24
 2392 0c67 E0000000 		.4byte	.LBB23
 2393 0c6b 06000000 		.4byte	.LBE23-.LBB23
 2394 0c6f 810C0000 		.4byte	0xc81
 2395 0c73 22       		.uleb128 0x22
 2396 0c74 746D7000 		.ascii	"tmp\000"
 2397 0c78 01       		.byte	0x1
 2398 0c79 B5       		.byte	0xb5
 2399 0c7a C3000000 		.4byte	0xc3
 2400 0c7e 01       		.uleb128 0x1
 2401 0c7f 53       		.byte	0x53
 2402 0c80 00       		.byte	0
 2403 0c81 24       		.uleb128 0x24
 2404 0c82 F2000000 		.4byte	.LBB24
 2405 0c86 06000000 		.4byte	.LBE24-.LBB24
 2406 0c8a 9C0C0000 		.4byte	0xc9c
 2407 0c8e 22       		.uleb128 0x22
 2408 0c8f 746D7000 		.ascii	"tmp\000"
 2409 0c93 01       		.byte	0x1
 2410 0c94 C7       		.byte	0xc7
 2411 0c95 C3000000 		.4byte	0xc3
 2412 0c99 01       		.uleb128 0x1
 2413 0c9a 53       		.byte	0x53
 2414 0c9b 00       		.byte	0
 2415 0c9c 25       		.uleb128 0x25
 2416 0c9d 30000000 		.4byte	.Ldebug_ranges0+0x30
 2417 0ca1 B30C0000 		.4byte	0xcb3
 2418 0ca5 22       		.uleb128 0x22
 2419 0ca6 746D7000 		.ascii	"tmp\000"
 2420 0caa 01       		.byte	0x1
 2421 0cab CC       		.byte	0xcc
 2422 0cac C3000000 		.4byte	0xc3
 2423 0cb0 01       		.uleb128 0x1
 2424 0cb1 53       		.byte	0x53
 2425 0cb2 00       		.byte	0
 2426 0cb3 24       		.uleb128 0x24
 2427 0cb4 1C010000 		.4byte	.LBB27
 2428 0cb8 06000000 		.4byte	.LBE27-.LBB27
 2429 0cbc CE0C0000 		.4byte	0xcce
 2430 0cc0 22       		.uleb128 0x22
 2431 0cc1 746D7000 		.ascii	"tmp\000"
 2432 0cc5 01       		.byte	0x1
 2433 0cc6 A1       		.byte	0xa1
 2434 0cc7 C3000000 		.4byte	0xc3
 2435 0ccb 01       		.uleb128 0x1
 2436 0ccc 53       		.byte	0x53
 2437 0ccd 00       		.byte	0
 2438 0cce 24       		.uleb128 0x24
ARM GAS  /tmp/cc8zT4AD.s 			page 44


 2439 0ccf 2C010000 		.4byte	.LBB28
 2440 0cd3 06000000 		.4byte	.LBE28-.LBB28
 2441 0cd7 E90C0000 		.4byte	0xce9
 2442 0cdb 22       		.uleb128 0x22
 2443 0cdc 746D7000 		.ascii	"tmp\000"
 2444 0ce0 01       		.byte	0x1
 2445 0ce1 A3       		.byte	0xa3
 2446 0ce2 C3000000 		.4byte	0xc3
 2447 0ce6 01       		.uleb128 0x1
 2448 0ce7 53       		.byte	0x53
 2449 0ce8 00       		.byte	0
 2450 0ce9 25       		.uleb128 0x25
 2451 0cea 48000000 		.4byte	.Ldebug_ranges0+0x48
 2452 0cee 5F0D0000 		.4byte	0xd5f
 2453 0cf2 23       		.uleb128 0x23
 2454 0cf3 6200     		.ascii	"b\000"
 2455 0cf5 01       		.byte	0x1
 2456 0cf6 B9       		.byte	0xb9
 2457 0cf7 0C010000 		.4byte	0x10c
 2458 0cfb CB000000 		.4byte	.LLST6
 2459 0cff 24       		.uleb128 0x24
 2460 0d00 3A010000 		.4byte	.LBB30
 2461 0d04 06000000 		.4byte	.LBE30-.LBB30
 2462 0d08 1A0D0000 		.4byte	0xd1a
 2463 0d0c 22       		.uleb128 0x22
 2464 0d0d 746D7000 		.ascii	"tmp\000"
 2465 0d11 01       		.byte	0x1
 2466 0d12 BA       		.byte	0xba
 2467 0d13 C3000000 		.4byte	0xc3
 2468 0d17 01       		.uleb128 0x1
 2469 0d18 53       		.byte	0x53
 2470 0d19 00       		.byte	0
 2471 0d1a 24       		.uleb128 0x24
 2472 0d1b 50010000 		.4byte	.LBB31
 2473 0d1f 08000000 		.4byte	.LBE31-.LBB31
 2474 0d23 350D0000 		.4byte	0xd35
 2475 0d27 22       		.uleb128 0x22
 2476 0d28 746D7000 		.ascii	"tmp\000"
 2477 0d2c 01       		.byte	0x1
 2478 0d2d C2       		.byte	0xc2
 2479 0d2e C3000000 		.4byte	0xc3
 2480 0d32 01       		.uleb128 0x1
 2481 0d33 53       		.byte	0x53
 2482 0d34 00       		.byte	0
 2483 0d35 2D       		.uleb128 0x2d
 2484 0d36 48010000 		.4byte	.LVL27
 2485 0d3a 65100000 		.4byte	0x1065
 2486 0d3e 490D0000 		.4byte	0xd49
 2487 0d42 2C       		.uleb128 0x2c
 2488 0d43 01       		.uleb128 0x1
 2489 0d44 50       		.byte	0x50
 2490 0d45 02       		.uleb128 0x2
 2491 0d46 76       		.byte	0x76
 2492 0d47 30       		.sleb128 48
 2493 0d48 00       		.byte	0
 2494 0d49 2B       		.uleb128 0x2b
 2495 0d4a 70010000 		.4byte	.LVL32
ARM GAS  /tmp/cc8zT4AD.s 			page 45


 2496 0d4e 32100000 		.4byte	0x1032
 2497 0d52 2C       		.uleb128 0x2c
 2498 0d53 01       		.uleb128 0x1
 2499 0d54 51       		.byte	0x51
 2500 0d55 01       		.uleb128 0x1
 2501 0d56 38       		.byte	0x38
 2502 0d57 2C       		.uleb128 0x2c
 2503 0d58 01       		.uleb128 0x1
 2504 0d59 50       		.byte	0x50
 2505 0d5a 02       		.uleb128 0x2
 2506 0d5b 76       		.byte	0x76
 2507 0d5c 04       		.sleb128 4
 2508 0d5d 00       		.byte	0
 2509 0d5e 00       		.byte	0
 2510 0d5f 2D       		.uleb128 0x2d
 2511 0d60 2C010000 		.4byte	.LVL26
 2512 0d64 32100000 		.4byte	0x1032
 2513 0d68 7A0D0000 		.4byte	0xd7a
 2514 0d6c 2C       		.uleb128 0x2c
 2515 0d6d 01       		.uleb128 0x1
 2516 0d6e 51       		.byte	0x51
 2517 0d6f 03       		.uleb128 0x3
 2518 0d70 0A       		.byte	0xa
 2519 0d71 0002     		.2byte	0x200
 2520 0d73 2C       		.uleb128 0x2c
 2521 0d74 01       		.uleb128 0x1
 2522 0d75 50       		.byte	0x50
 2523 0d76 02       		.uleb128 0x2
 2524 0d77 76       		.byte	0x76
 2525 0d78 04       		.sleb128 4
 2526 0d79 00       		.byte	0
 2527 0d7a 2B       		.uleb128 0x2b
 2528 0d7b 66010000 		.4byte	.LVL29
 2529 0d7f 32100000 		.4byte	0x1032
 2530 0d83 2C       		.uleb128 0x2c
 2531 0d84 01       		.uleb128 0x1
 2532 0d85 51       		.byte	0x51
 2533 0d86 01       		.uleb128 0x1
 2534 0d87 40       		.byte	0x40
 2535 0d88 2C       		.uleb128 0x2c
 2536 0d89 01       		.uleb128 0x1
 2537 0d8a 50       		.byte	0x50
 2538 0d8b 02       		.uleb128 0x2
 2539 0d8c 76       		.byte	0x76
 2540 0d8d 04       		.sleb128 4
 2541 0d8e 00       		.byte	0
 2542 0d8f 00       		.byte	0
 2543 0d90 2E       		.uleb128 0x2e
 2544 0d91 A8020000 		.4byte	.LASF138
 2545 0d95 01       		.byte	0x1
 2546 0d96 0D01     		.2byte	0x10d
 2547 0d98 80010000 		.4byte	.LFB137
 2548 0d9c 14000000 		.4byte	.LFE137-.LFB137
 2549 0da0 01       		.uleb128 0x1
 2550 0da1 9C       		.byte	0x9c
 2551 0da2 C70D0000 		.4byte	0xdc7
 2552 0da6 2D       		.uleb128 0x2d
ARM GAS  /tmp/cc8zT4AD.s 			page 46


 2553 0da7 88010000 		.4byte	.LVL33
 2554 0dab 970B0000 		.4byte	0xb97
 2555 0daf BD0D0000 		.4byte	0xdbd
 2556 0db3 2C       		.uleb128 0x2c
 2557 0db4 01       		.uleb128 0x1
 2558 0db5 50       		.byte	0x50
 2559 0db6 05       		.uleb128 0x5
 2560 0db7 03       		.byte	0x3
 2561 0db8 00000000 		.4byte	SD1
 2562 0dbc 00       		.byte	0
 2563 0dbd 2F       		.uleb128 0x2f
 2564 0dbe 90010000 		.4byte	.LVL34
 2565 0dc2 7B100000 		.4byte	0x107b
 2566 0dc6 00       		.byte	0
 2567 0dc7 2E       		.uleb128 0x2e
 2568 0dc8 B7020000 		.4byte	.LASF139
 2569 0dcc 01       		.byte	0x1
 2570 0dcd 2001     		.2byte	0x120
 2571 0dcf A0010000 		.4byte	.LFB138
 2572 0dd3 14000000 		.4byte	.LFE138-.LFB138
 2573 0dd7 01       		.uleb128 0x1
 2574 0dd8 9C       		.byte	0x9c
 2575 0dd9 FE0D0000 		.4byte	0xdfe
 2576 0ddd 2D       		.uleb128 0x2d
 2577 0dde A8010000 		.4byte	.LVL35
 2578 0de2 970B0000 		.4byte	0xb97
 2579 0de6 F40D0000 		.4byte	0xdf4
 2580 0dea 2C       		.uleb128 0x2c
 2581 0deb 01       		.uleb128 0x1
 2582 0dec 50       		.byte	0x50
 2583 0ded 05       		.uleb128 0x5
 2584 0dee 03       		.byte	0x3
 2585 0def 00000000 		.4byte	SD2
 2586 0df3 00       		.byte	0
 2587 0df4 2F       		.uleb128 0x2f
 2588 0df5 B0010000 		.4byte	.LVL36
 2589 0df9 7B100000 		.4byte	0x107b
 2590 0dfd 00       		.byte	0
 2591 0dfe 2E       		.uleb128 0x2e
 2592 0dff D7020000 		.4byte	.LASF140
 2593 0e03 01       		.byte	0x1
 2594 0e04 3301     		.2byte	0x133
 2595 0e06 C0010000 		.4byte	.LFB139
 2596 0e0a 14000000 		.4byte	.LFE139-.LFB139
 2597 0e0e 01       		.uleb128 0x1
 2598 0e0f 9C       		.byte	0x9c
 2599 0e10 350E0000 		.4byte	0xe35
 2600 0e14 2D       		.uleb128 0x2d
 2601 0e15 C8010000 		.4byte	.LVL37
 2602 0e19 970B0000 		.4byte	0xb97
 2603 0e1d 2B0E0000 		.4byte	0xe2b
 2604 0e21 2C       		.uleb128 0x2c
 2605 0e22 01       		.uleb128 0x1
 2606 0e23 50       		.byte	0x50
 2607 0e24 05       		.uleb128 0x5
 2608 0e25 03       		.byte	0x3
 2609 0e26 00000000 		.4byte	SD3
ARM GAS  /tmp/cc8zT4AD.s 			page 47


 2610 0e2a 00       		.byte	0
 2611 0e2b 2F       		.uleb128 0x2f
 2612 0e2c D0010000 		.4byte	.LVL38
 2613 0e30 7B100000 		.4byte	0x107b
 2614 0e34 00       		.byte	0
 2615 0e35 2E       		.uleb128 0x2e
 2616 0e36 1F020000 		.4byte	.LASF141
 2617 0e3a 01       		.byte	0x1
 2618 0e3b 7F01     		.2byte	0x17f
 2619 0e3d E0010000 		.4byte	.LFB140
 2620 0e41 60000000 		.4byte	.LFE140-.LFB140
 2621 0e45 01       		.uleb128 0x1
 2622 0e46 9C       		.byte	0x9c
 2623 0e47 AE0E0000 		.4byte	0xeae
 2624 0e4b 2D       		.uleb128 0x2d
 2625 0e4c F2010000 		.4byte	.LVL39
 2626 0e50 83100000 		.4byte	0x1083
 2627 0e54 6D0E0000 		.4byte	0xe6d
 2628 0e58 2C       		.uleb128 0x2c
 2629 0e59 01       		.uleb128 0x1
 2630 0e5a 52       		.byte	0x52
 2631 0e5b 05       		.uleb128 0x5
 2632 0e5c 03       		.byte	0x3
 2633 0e5d 00000000 		.4byte	notify1
 2634 0e61 2C       		.uleb128 0x2c
 2635 0e62 01       		.uleb128 0x1
 2636 0e63 51       		.byte	0x51
 2637 0e64 01       		.uleb128 0x1
 2638 0e65 30       		.byte	0x30
 2639 0e66 2C       		.uleb128 0x2c
 2640 0e67 01       		.uleb128 0x1
 2641 0e68 50       		.byte	0x50
 2642 0e69 02       		.uleb128 0x2
 2643 0e6a 76       		.byte	0x76
 2644 0e6b 00       		.sleb128 0
 2645 0e6c 00       		.byte	0
 2646 0e6d 2D       		.uleb128 0x2d
 2647 0e6e 02020000 		.4byte	.LVL40
 2648 0e72 83100000 		.4byte	0x1083
 2649 0e76 8F0E0000 		.4byte	0xe8f
 2650 0e7a 2C       		.uleb128 0x2c
 2651 0e7b 01       		.uleb128 0x1
 2652 0e7c 52       		.byte	0x52
 2653 0e7d 05       		.uleb128 0x5
 2654 0e7e 03       		.byte	0x3
 2655 0e7f 00000000 		.4byte	notify2
 2656 0e83 2C       		.uleb128 0x2c
 2657 0e84 01       		.uleb128 0x1
 2658 0e85 51       		.byte	0x51
 2659 0e86 01       		.uleb128 0x1
 2660 0e87 30       		.byte	0x30
 2661 0e88 2C       		.uleb128 0x2c
 2662 0e89 01       		.uleb128 0x1
 2663 0e8a 50       		.byte	0x50
 2664 0e8b 02       		.uleb128 0x2
 2665 0e8c 75       		.byte	0x75
 2666 0e8d 00       		.sleb128 0
ARM GAS  /tmp/cc8zT4AD.s 			page 48


 2667 0e8e 00       		.byte	0
 2668 0e8f 2B       		.uleb128 0x2b
 2669 0e90 12020000 		.4byte	.LVL41
 2670 0e94 83100000 		.4byte	0x1083
 2671 0e98 2C       		.uleb128 0x2c
 2672 0e99 01       		.uleb128 0x1
 2673 0e9a 52       		.byte	0x52
 2674 0e9b 05       		.uleb128 0x5
 2675 0e9c 03       		.byte	0x3
 2676 0e9d 00000000 		.4byte	notify3
 2677 0ea1 2C       		.uleb128 0x2c
 2678 0ea2 01       		.uleb128 0x1
 2679 0ea3 51       		.byte	0x51
 2680 0ea4 01       		.uleb128 0x1
 2681 0ea5 30       		.byte	0x30
 2682 0ea6 2C       		.uleb128 0x2c
 2683 0ea7 01       		.uleb128 0x1
 2684 0ea8 50       		.byte	0x50
 2685 0ea9 02       		.uleb128 0x2
 2686 0eaa 74       		.byte	0x74
 2687 0eab 00       		.sleb128 0
 2688 0eac 00       		.byte	0
 2689 0ead 00       		.byte	0
 2690 0eae 2E       		.uleb128 0x2e
 2691 0eaf ED030000 		.4byte	.LASF142
 2692 0eb3 01       		.byte	0x1
 2693 0eb4 AA01     		.2byte	0x1aa
 2694 0eb6 40020000 		.4byte	.LFB141
 2695 0eba D8000000 		.4byte	.LFE141-.LFB141
 2696 0ebe 01       		.uleb128 0x1
 2697 0ebf 9C       		.byte	0x9c
 2698 0ec0 650F0000 		.4byte	0xf65
 2699 0ec4 30       		.uleb128 0x30
 2700 0ec5 73647000 		.ascii	"sdp\000"
 2701 0ec9 01       		.byte	0x1
 2702 0eca AA01     		.2byte	0x1aa
 2703 0ecc DD0A0000 		.4byte	0xadd
 2704 0ed0 E9000000 		.4byte	.LLST7
 2705 0ed4 31       		.uleb128 0x31
 2706 0ed5 EA050000 		.4byte	.LASF130
 2707 0ed9 01       		.byte	0x1
 2708 0eda AA01     		.2byte	0x1aa
 2709 0edc E30A0000 		.4byte	0xae3
 2710 0ee0 49010000 		.4byte	.LLST8
 2711 0ee4 32       		.uleb128 0x32
 2712 0ee5 B10A0000 		.4byte	0xab1
 2713 0ee9 56020000 		.4byte	.LBB35
 2714 0eed 60000000 		.4byte	.Ldebug_ranges0+0x60
 2715 0ef1 01       		.byte	0x1
 2716 0ef2 DB01     		.2byte	0x1db
 2717 0ef4 1A0F0000 		.4byte	0xf1a
 2718 0ef8 27       		.uleb128 0x27
 2719 0ef9 BD0A0000 		.4byte	0xabd
 2720 0efd 8F010000 		.4byte	.LLST9
 2721 0f01 27       		.uleb128 0x27
 2722 0f02 C80A0000 		.4byte	0xac8
 2723 0f06 AD010000 		.4byte	.LLST10
ARM GAS  /tmp/cc8zT4AD.s 			page 49


 2724 0f0a 29       		.uleb128 0x29
 2725 0f0b 60000000 		.4byte	.Ldebug_ranges0+0x60
 2726 0f0f 2A       		.uleb128 0x2a
 2727 0f10 D30A0000 		.4byte	0xad3
 2728 0f14 E8010000 		.4byte	.LLST11
 2729 0f18 00       		.byte	0
 2730 0f19 00       		.byte	0
 2731 0f1a 2D       		.uleb128 0x2d
 2732 0f1b C0020000 		.4byte	.LVL50
 2733 0f1f 9F100000 		.4byte	0x109f
 2734 0f23 340F0000 		.4byte	0xf34
 2735 0f27 2C       		.uleb128 0x2c
 2736 0f28 01       		.uleb128 0x1
 2737 0f29 51       		.byte	0x51
 2738 0f2a 02       		.uleb128 0x2
 2739 0f2b 08       		.byte	0x8
 2740 0f2c C0       		.byte	0xc0
 2741 0f2d 2C       		.uleb128 0x2c
 2742 0f2e 01       		.uleb128 0x1
 2743 0f2f 50       		.byte	0x50
 2744 0f30 02       		.uleb128 0x2
 2745 0f31 08       		.byte	0x8
 2746 0f32 27       		.byte	0x27
 2747 0f33 00       		.byte	0
 2748 0f34 2D       		.uleb128 0x2d
 2749 0f35 E2020000 		.4byte	.LVL54
 2750 0f39 9F100000 		.4byte	0x109f
 2751 0f3d 4E0F0000 		.4byte	0xf4e
 2752 0f41 2C       		.uleb128 0x2c
 2753 0f42 01       		.uleb128 0x1
 2754 0f43 51       		.byte	0x51
 2755 0f44 02       		.uleb128 0x2
 2756 0f45 08       		.byte	0x8
 2757 0f46 C0       		.byte	0xc0
 2758 0f47 2C       		.uleb128 0x2c
 2759 0f48 01       		.uleb128 0x1
 2760 0f49 50       		.byte	0x50
 2761 0f4a 02       		.uleb128 0x2
 2762 0f4b 08       		.byte	0x8
 2763 0f4c 25       		.byte	0x25
 2764 0f4d 00       		.byte	0
 2765 0f4e 2B       		.uleb128 0x2b
 2766 0f4f F6020000 		.4byte	.LVL57
 2767 0f53 9F100000 		.4byte	0x109f
 2768 0f57 2C       		.uleb128 0x2c
 2769 0f58 01       		.uleb128 0x1
 2770 0f59 51       		.byte	0x51
 2771 0f5a 02       		.uleb128 0x2
 2772 0f5b 08       		.byte	0x8
 2773 0f5c C0       		.byte	0xc0
 2774 0f5d 2C       		.uleb128 0x2c
 2775 0f5e 01       		.uleb128 0x1
 2776 0f5f 50       		.byte	0x50
 2777 0f60 02       		.uleb128 0x2
 2778 0f61 08       		.byte	0x8
 2779 0f62 26       		.byte	0x26
 2780 0f63 00       		.byte	0
ARM GAS  /tmp/cc8zT4AD.s 			page 50


 2781 0f64 00       		.byte	0
 2782 0f65 2E       		.uleb128 0x2e
 2783 0f66 55070000 		.4byte	.LASF143
 2784 0f6a 01       		.byte	0x1
 2785 0f6b E701     		.2byte	0x1e7
 2786 0f6d 20030000 		.4byte	.LFB142
 2787 0f71 68000000 		.4byte	.LFE142-.LFB142
 2788 0f75 01       		.uleb128 0x1
 2789 0f76 9C       		.byte	0x9c
 2790 0f77 E20F0000 		.4byte	0xfe2
 2791 0f7b 30       		.uleb128 0x30
 2792 0f7c 73647000 		.ascii	"sdp\000"
 2793 0f80 01       		.byte	0x1
 2794 0f81 E701     		.2byte	0x1e7
 2795 0f83 DD0A0000 		.4byte	0xadd
 2796 0f87 13020000 		.4byte	.LLST12
 2797 0f8b 32       		.uleb128 0x32
 2798 0f8c EE0A0000 		.4byte	0xaee
 2799 0f90 2E030000 		.4byte	.LBB39
 2800 0f94 78000000 		.4byte	.Ldebug_ranges0+0x78
 2801 0f98 01       		.byte	0x1
 2802 0f99 EA01     		.2byte	0x1ea
 2803 0f9b A90F0000 		.4byte	0xfa9
 2804 0f9f 27       		.uleb128 0x27
 2805 0fa0 FA0A0000 		.4byte	0xafa
 2806 0fa4 66020000 		.4byte	.LLST13
 2807 0fa8 00       		.byte	0
 2808 0fa9 33       		.uleb128 0x33
 2809 0faa 56030000 		.4byte	.LVL62
 2810 0fae B6100000 		.4byte	0x10b6
 2811 0fb2 BD0F0000 		.4byte	0xfbd
 2812 0fb6 2C       		.uleb128 0x2c
 2813 0fb7 01       		.uleb128 0x1
 2814 0fb8 50       		.byte	0x50
 2815 0fb9 02       		.uleb128 0x2
 2816 0fba 08       		.byte	0x8
 2817 0fbb 27       		.byte	0x27
 2818 0fbc 00       		.byte	0
 2819 0fbd 33       		.uleb128 0x33
 2820 0fbe 66030000 		.4byte	.LVL65
 2821 0fc2 B6100000 		.4byte	0x10b6
 2822 0fc6 D10F0000 		.4byte	0xfd1
 2823 0fca 2C       		.uleb128 0x2c
 2824 0fcb 01       		.uleb128 0x1
 2825 0fcc 50       		.byte	0x50
 2826 0fcd 02       		.uleb128 0x2
 2827 0fce 08       		.byte	0x8
 2828 0fcf 25       		.byte	0x25
 2829 0fd0 00       		.byte	0
 2830 0fd1 34       		.uleb128 0x34
 2831 0fd2 76030000 		.4byte	.LVL67
 2832 0fd6 B6100000 		.4byte	0x10b6
 2833 0fda 2C       		.uleb128 0x2c
 2834 0fdb 01       		.uleb128 0x1
 2835 0fdc 50       		.byte	0x50
 2836 0fdd 02       		.uleb128 0x2
 2837 0fde 08       		.byte	0x8
ARM GAS  /tmp/cc8zT4AD.s 			page 51


 2838 0fdf 26       		.byte	0x26
 2839 0fe0 00       		.byte	0
 2840 0fe1 00       		.byte	0
 2841 0fe2 35       		.uleb128 0x35
 2842 0fe3 37010000 		.4byte	.LASF144
 2843 0fe7 01       		.byte	0x1
 2844 0fe8 49       		.byte	0x49
 2845 0fe9 E90A0000 		.4byte	0xae9
 2846 0fed 05       		.uleb128 0x5
 2847 0fee 03       		.byte	0x3
 2848 0fef 00000000 		.4byte	default_config
 2849 0ff3 36       		.uleb128 0x36
 2850 0ff4 5F000000 		.4byte	.LASF145
 2851 0ff8 10       		.byte	0x10
 2852 0ff9 DF07     		.2byte	0x7df
 2853 0ffb 38060000 		.4byte	0x638
 2854 0fff 37       		.uleb128 0x37
 2855 1000 53443100 		.ascii	"SD1\000"
 2856 1004 01       		.byte	0x1
 2857 1005 28       		.byte	0x28
 2858 1006 63090000 		.4byte	0x963
 2859 100a 05       		.uleb128 0x5
 2860 100b 03       		.byte	0x3
 2861 100c 00000000 		.4byte	SD1
 2862 1010 37       		.uleb128 0x37
 2863 1011 53443200 		.ascii	"SD2\000"
 2864 1015 01       		.byte	0x1
 2865 1016 2D       		.byte	0x2d
 2866 1017 63090000 		.4byte	0x963
 2867 101b 05       		.uleb128 0x5
 2868 101c 03       		.byte	0x3
 2869 101d 00000000 		.4byte	SD2
 2870 1021 37       		.uleb128 0x37
 2871 1022 53443300 		.ascii	"SD3\000"
 2872 1026 01       		.byte	0x1
 2873 1027 32       		.byte	0x32
 2874 1028 63090000 		.4byte	0x963
 2875 102c 05       		.uleb128 0x5
 2876 102d 03       		.byte	0x3
 2877 102e 00000000 		.4byte	SD3
 2878 1032 38       		.uleb128 0x38
 2879 1033 83010000 		.4byte	.LASF146
 2880 1037 0A       		.byte	0xa
 2881 1038 BA       		.byte	0xba
 2882 1039 48100000 		.4byte	0x1048
 2883 103d 12       		.uleb128 0x12
 2884 103e 48100000 		.4byte	0x1048
 2885 1042 12       		.uleb128 0x12
 2886 1043 22010000 		.4byte	0x122
 2887 1047 00       		.byte	0
 2888 1048 09       		.uleb128 0x9
 2889 1049 04       		.byte	0x4
 2890 104a 9D040000 		.4byte	0x49d
 2891 104e 39       		.uleb128 0x39
 2892 104f DA050000 		.4byte	.LASF147
 2893 1053 0D       		.byte	0xd
 2894 1054 3901     		.2byte	0x139
ARM GAS  /tmp/cc8zT4AD.s 			page 52


 2895 1056 65100000 		.4byte	0x1065
 2896 105a 12       		.uleb128 0x12
 2897 105b DD0A0000 		.4byte	0xadd
 2898 105f 12       		.uleb128 0x12
 2899 1060 A2000000 		.4byte	0xa2
 2900 1064 00       		.byte	0
 2901 1065 3A       		.uleb128 0x3a
 2902 1066 71010000 		.4byte	.LASF153
 2903 106a 0B       		.byte	0xb
 2904 106b 6E01     		.2byte	0x16e
 2905 106d 0C010000 		.4byte	0x10c
 2906 1071 7B100000 		.4byte	0x107b
 2907 1075 12       		.uleb128 0x12
 2908 1076 AB0A0000 		.4byte	0xaab
 2909 107a 00       		.byte	0
 2910 107b 3B       		.uleb128 0x3b
 2911 107c 56020000 		.4byte	.LASF154
 2912 1080 08       		.byte	0x8
 2913 1081 0302     		.2byte	0x203
 2914 1083 39       		.uleb128 0x39
 2915 1084 BD000000 		.4byte	.LASF148
 2916 1088 0D       		.byte	0xd
 2917 1089 3601     		.2byte	0x136
 2918 108b 9F100000 		.4byte	0x109f
 2919 108f 12       		.uleb128 0x12
 2920 1090 DD0A0000 		.4byte	0xadd
 2921 1094 12       		.uleb128 0x12
 2922 1095 82050000 		.4byte	0x582
 2923 1099 12       		.uleb128 0x12
 2924 109a 82050000 		.4byte	0x582
 2925 109e 00       		.byte	0
 2926 109f 39       		.uleb128 0x39
 2927 10a0 00000000 		.4byte	.LASF149
 2928 10a4 0F       		.byte	0xf
 2929 10a5 2301     		.2byte	0x123
 2930 10a7 B6100000 		.4byte	0x10b6
 2931 10ab 12       		.uleb128 0x12
 2932 10ac C3000000 		.4byte	0xc3
 2933 10b0 12       		.uleb128 0x12
 2934 10b1 C3000000 		.4byte	0xc3
 2935 10b5 00       		.byte	0
 2936 10b6 3C       		.uleb128 0x3c
 2937 10b7 AC050000 		.4byte	.LASF155
 2938 10bb 0F       		.byte	0xf
 2939 10bc 2401     		.2byte	0x124
 2940 10be 12       		.uleb128 0x12
 2941 10bf C3000000 		.4byte	0xc3
 2942 10c3 00       		.byte	0
 2943 10c4 00       		.byte	0
 2944              		.section	.debug_abbrev,"",%progbits
 2945              	.Ldebug_abbrev0:
 2946 0000 01       		.uleb128 0x1
 2947 0001 11       		.uleb128 0x11
 2948 0002 01       		.byte	0x1
 2949 0003 25       		.uleb128 0x25
 2950 0004 0E       		.uleb128 0xe
 2951 0005 13       		.uleb128 0x13
ARM GAS  /tmp/cc8zT4AD.s 			page 53


 2952 0006 0B       		.uleb128 0xb
 2953 0007 03       		.uleb128 0x3
 2954 0008 0E       		.uleb128 0xe
 2955 0009 1B       		.uleb128 0x1b
 2956 000a 0E       		.uleb128 0xe
 2957 000b 11       		.uleb128 0x11
 2958 000c 01       		.uleb128 0x1
 2959 000d 12       		.uleb128 0x12
 2960 000e 06       		.uleb128 0x6
 2961 000f 10       		.uleb128 0x10
 2962 0010 17       		.uleb128 0x17
 2963 0011 00       		.byte	0
 2964 0012 00       		.byte	0
 2965 0013 02       		.uleb128 0x2
 2966 0014 24       		.uleb128 0x24
 2967 0015 00       		.byte	0
 2968 0016 0B       		.uleb128 0xb
 2969 0017 0B       		.uleb128 0xb
 2970 0018 3E       		.uleb128 0x3e
 2971 0019 0B       		.uleb128 0xb
 2972 001a 03       		.uleb128 0x3
 2973 001b 08       		.uleb128 0x8
 2974 001c 00       		.byte	0
 2975 001d 00       		.byte	0
 2976 001e 03       		.uleb128 0x3
 2977 001f 16       		.uleb128 0x16
 2978 0020 00       		.byte	0
 2979 0021 03       		.uleb128 0x3
 2980 0022 0E       		.uleb128 0xe
 2981 0023 3A       		.uleb128 0x3a
 2982 0024 0B       		.uleb128 0xb
 2983 0025 3B       		.uleb128 0x3b
 2984 0026 0B       		.uleb128 0xb
 2985 0027 49       		.uleb128 0x49
 2986 0028 13       		.uleb128 0x13
 2987 0029 00       		.byte	0
 2988 002a 00       		.byte	0
 2989 002b 04       		.uleb128 0x4
 2990 002c 24       		.uleb128 0x24
 2991 002d 00       		.byte	0
 2992 002e 0B       		.uleb128 0xb
 2993 002f 0B       		.uleb128 0xb
 2994 0030 3E       		.uleb128 0x3e
 2995 0031 0B       		.uleb128 0xb
 2996 0032 03       		.uleb128 0x3
 2997 0033 0E       		.uleb128 0xe
 2998 0034 00       		.byte	0
 2999 0035 00       		.byte	0
 3000 0036 05       		.uleb128 0x5
 3001 0037 13       		.uleb128 0x13
 3002 0038 01       		.byte	0x1
 3003 0039 03       		.uleb128 0x3
 3004 003a 0E       		.uleb128 0xe
 3005 003b 0B       		.uleb128 0xb
 3006 003c 0B       		.uleb128 0xb
 3007 003d 3A       		.uleb128 0x3a
 3008 003e 0B       		.uleb128 0xb
ARM GAS  /tmp/cc8zT4AD.s 			page 54


 3009 003f 3B       		.uleb128 0x3b
 3010 0040 0B       		.uleb128 0xb
 3011 0041 01       		.uleb128 0x1
 3012 0042 13       		.uleb128 0x13
 3013 0043 00       		.byte	0
 3014 0044 00       		.byte	0
 3015 0045 06       		.uleb128 0x6
 3016 0046 0D       		.uleb128 0xd
 3017 0047 00       		.byte	0
 3018 0048 03       		.uleb128 0x3
 3019 0049 0E       		.uleb128 0xe
 3020 004a 3A       		.uleb128 0x3a
 3021 004b 0B       		.uleb128 0xb
 3022 004c 3B       		.uleb128 0x3b
 3023 004d 0B       		.uleb128 0xb
 3024 004e 49       		.uleb128 0x49
 3025 004f 13       		.uleb128 0x13
 3026 0050 38       		.uleb128 0x38
 3027 0051 0B       		.uleb128 0xb
 3028 0052 00       		.byte	0
 3029 0053 00       		.byte	0
 3030 0054 07       		.uleb128 0x7
 3031 0055 0D       		.uleb128 0xd
 3032 0056 00       		.byte	0
 3033 0057 03       		.uleb128 0x3
 3034 0058 08       		.uleb128 0x8
 3035 0059 3A       		.uleb128 0x3a
 3036 005a 0B       		.uleb128 0xb
 3037 005b 3B       		.uleb128 0x3b
 3038 005c 0B       		.uleb128 0xb
 3039 005d 49       		.uleb128 0x49
 3040 005e 13       		.uleb128 0x13
 3041 005f 38       		.uleb128 0x38
 3042 0060 0B       		.uleb128 0xb
 3043 0061 00       		.byte	0
 3044 0062 00       		.byte	0
 3045 0063 08       		.uleb128 0x8
 3046 0064 13       		.uleb128 0x13
 3047 0065 01       		.byte	0x1
 3048 0066 0B       		.uleb128 0xb
 3049 0067 0B       		.uleb128 0xb
 3050 0068 3A       		.uleb128 0x3a
 3051 0069 0B       		.uleb128 0xb
 3052 006a 3B       		.uleb128 0x3b
 3053 006b 0B       		.uleb128 0xb
 3054 006c 01       		.uleb128 0x1
 3055 006d 13       		.uleb128 0x13
 3056 006e 00       		.byte	0
 3057 006f 00       		.byte	0
 3058 0070 09       		.uleb128 0x9
 3059 0071 0F       		.uleb128 0xf
 3060 0072 00       		.byte	0
 3061 0073 0B       		.uleb128 0xb
 3062 0074 0B       		.uleb128 0xb
 3063 0075 49       		.uleb128 0x49
 3064 0076 13       		.uleb128 0x13
 3065 0077 00       		.byte	0
ARM GAS  /tmp/cc8zT4AD.s 			page 55


 3066 0078 00       		.byte	0
 3067 0079 0A       		.uleb128 0xa
 3068 007a 0F       		.uleb128 0xf
 3069 007b 00       		.byte	0
 3070 007c 0B       		.uleb128 0xb
 3071 007d 0B       		.uleb128 0xb
 3072 007e 00       		.byte	0
 3073 007f 00       		.byte	0
 3074 0080 0B       		.uleb128 0xb
 3075 0081 13       		.uleb128 0x13
 3076 0082 01       		.byte	0x1
 3077 0083 03       		.uleb128 0x3
 3078 0084 0E       		.uleb128 0xe
 3079 0085 0B       		.uleb128 0xb
 3080 0086 0B       		.uleb128 0xb
 3081 0087 3A       		.uleb128 0x3a
 3082 0088 0B       		.uleb128 0xb
 3083 0089 3B       		.uleb128 0x3b
 3084 008a 05       		.uleb128 0x5
 3085 008b 01       		.uleb128 0x1
 3086 008c 13       		.uleb128 0x13
 3087 008d 00       		.byte	0
 3088 008e 00       		.byte	0
 3089 008f 0C       		.uleb128 0xc
 3090 0090 0D       		.uleb128 0xd
 3091 0091 00       		.byte	0
 3092 0092 03       		.uleb128 0x3
 3093 0093 08       		.uleb128 0x8
 3094 0094 3A       		.uleb128 0x3a
 3095 0095 0B       		.uleb128 0xb
 3096 0096 3B       		.uleb128 0x3b
 3097 0097 05       		.uleb128 0x5
 3098 0098 49       		.uleb128 0x49
 3099 0099 13       		.uleb128 0x13
 3100 009a 38       		.uleb128 0x38
 3101 009b 0B       		.uleb128 0xb
 3102 009c 00       		.byte	0
 3103 009d 00       		.byte	0
 3104 009e 0D       		.uleb128 0xd
 3105 009f 35       		.uleb128 0x35
 3106 00a0 00       		.byte	0
 3107 00a1 49       		.uleb128 0x49
 3108 00a2 13       		.uleb128 0x13
 3109 00a3 00       		.byte	0
 3110 00a4 00       		.byte	0
 3111 00a5 0E       		.uleb128 0xe
 3112 00a6 17       		.uleb128 0x17
 3113 00a7 01       		.byte	0x1
 3114 00a8 0B       		.uleb128 0xb
 3115 00a9 0B       		.uleb128 0xb
 3116 00aa 3A       		.uleb128 0x3a
 3117 00ab 0B       		.uleb128 0xb
 3118 00ac 3B       		.uleb128 0x3b
 3119 00ad 0B       		.uleb128 0xb
 3120 00ae 01       		.uleb128 0x1
 3121 00af 13       		.uleb128 0x13
 3122 00b0 00       		.byte	0
ARM GAS  /tmp/cc8zT4AD.s 			page 56


 3123 00b1 00       		.byte	0
 3124 00b2 0F       		.uleb128 0xf
 3125 00b3 0D       		.uleb128 0xd
 3126 00b4 00       		.byte	0
 3127 00b5 03       		.uleb128 0x3
 3128 00b6 0E       		.uleb128 0xe
 3129 00b7 3A       		.uleb128 0x3a
 3130 00b8 0B       		.uleb128 0xb
 3131 00b9 3B       		.uleb128 0x3b
 3132 00ba 0B       		.uleb128 0xb
 3133 00bb 49       		.uleb128 0x49
 3134 00bc 13       		.uleb128 0x13
 3135 00bd 00       		.byte	0
 3136 00be 00       		.byte	0
 3137 00bf 10       		.uleb128 0x10
 3138 00c0 26       		.uleb128 0x26
 3139 00c1 00       		.byte	0
 3140 00c2 49       		.uleb128 0x49
 3141 00c3 13       		.uleb128 0x13
 3142 00c4 00       		.byte	0
 3143 00c5 00       		.byte	0
 3144 00c6 11       		.uleb128 0x11
 3145 00c7 15       		.uleb128 0x15
 3146 00c8 01       		.byte	0x1
 3147 00c9 27       		.uleb128 0x27
 3148 00ca 19       		.uleb128 0x19
 3149 00cb 49       		.uleb128 0x49
 3150 00cc 13       		.uleb128 0x13
 3151 00cd 01       		.uleb128 0x1
 3152 00ce 13       		.uleb128 0x13
 3153 00cf 00       		.byte	0
 3154 00d0 00       		.byte	0
 3155 00d1 12       		.uleb128 0x12
 3156 00d2 05       		.uleb128 0x5
 3157 00d3 00       		.byte	0
 3158 00d4 49       		.uleb128 0x49
 3159 00d5 13       		.uleb128 0x13
 3160 00d6 00       		.byte	0
 3161 00d7 00       		.byte	0
 3162 00d8 13       		.uleb128 0x13
 3163 00d9 15       		.uleb128 0x15
 3164 00da 01       		.byte	0x1
 3165 00db 27       		.uleb128 0x27
 3166 00dc 19       		.uleb128 0x19
 3167 00dd 01       		.uleb128 0x1
 3168 00de 13       		.uleb128 0x13
 3169 00df 00       		.byte	0
 3170 00e0 00       		.byte	0
 3171 00e1 14       		.uleb128 0x14
 3172 00e2 01       		.uleb128 0x1
 3173 00e3 01       		.byte	0x1
 3174 00e4 49       		.uleb128 0x49
 3175 00e5 13       		.uleb128 0x13
 3176 00e6 01       		.uleb128 0x1
 3177 00e7 13       		.uleb128 0x13
 3178 00e8 00       		.byte	0
 3179 00e9 00       		.byte	0
ARM GAS  /tmp/cc8zT4AD.s 			page 57


 3180 00ea 15       		.uleb128 0x15
 3181 00eb 21       		.uleb128 0x21
 3182 00ec 00       		.byte	0
 3183 00ed 49       		.uleb128 0x49
 3184 00ee 13       		.uleb128 0x13
 3185 00ef 2F       		.uleb128 0x2f
 3186 00f0 0B       		.uleb128 0xb
 3187 00f1 00       		.byte	0
 3188 00f2 00       		.byte	0
 3189 00f3 16       		.uleb128 0x16
 3190 00f4 13       		.uleb128 0x13
 3191 00f5 01       		.byte	0x1
 3192 00f6 0B       		.uleb128 0xb
 3193 00f7 0B       		.uleb128 0xb
 3194 00f8 3A       		.uleb128 0x3a
 3195 00f9 0B       		.uleb128 0xb
 3196 00fa 3B       		.uleb128 0x3b
 3197 00fb 05       		.uleb128 0x5
 3198 00fc 01       		.uleb128 0x1
 3199 00fd 13       		.uleb128 0x13
 3200 00fe 00       		.byte	0
 3201 00ff 00       		.byte	0
 3202 0100 17       		.uleb128 0x17
 3203 0101 0D       		.uleb128 0xd
 3204 0102 00       		.byte	0
 3205 0103 03       		.uleb128 0x3
 3206 0104 0E       		.uleb128 0xe
 3207 0105 3A       		.uleb128 0x3a
 3208 0106 0B       		.uleb128 0xb
 3209 0107 3B       		.uleb128 0x3b
 3210 0108 05       		.uleb128 0x5
 3211 0109 49       		.uleb128 0x49
 3212 010a 13       		.uleb128 0x13
 3213 010b 38       		.uleb128 0x38
 3214 010c 0B       		.uleb128 0xb
 3215 010d 00       		.byte	0
 3216 010e 00       		.byte	0
 3217 010f 18       		.uleb128 0x18
 3218 0110 16       		.uleb128 0x16
 3219 0111 00       		.byte	0
 3220 0112 03       		.uleb128 0x3
 3221 0113 0E       		.uleb128 0xe
 3222 0114 3A       		.uleb128 0x3a
 3223 0115 0B       		.uleb128 0xb
 3224 0116 3B       		.uleb128 0x3b
 3225 0117 05       		.uleb128 0x5
 3226 0118 49       		.uleb128 0x49
 3227 0119 13       		.uleb128 0x13
 3228 011a 00       		.byte	0
 3229 011b 00       		.byte	0
 3230 011c 19       		.uleb128 0x19
 3231 011d 04       		.uleb128 0x4
 3232 011e 01       		.byte	0x1
 3233 011f 0B       		.uleb128 0xb
 3234 0120 0B       		.uleb128 0xb
 3235 0121 3A       		.uleb128 0x3a
 3236 0122 0B       		.uleb128 0xb
ARM GAS  /tmp/cc8zT4AD.s 			page 58


 3237 0123 3B       		.uleb128 0x3b
 3238 0124 0B       		.uleb128 0xb
 3239 0125 01       		.uleb128 0x1
 3240 0126 13       		.uleb128 0x13
 3241 0127 00       		.byte	0
 3242 0128 00       		.byte	0
 3243 0129 1A       		.uleb128 0x1a
 3244 012a 28       		.uleb128 0x28
 3245 012b 00       		.byte	0
 3246 012c 03       		.uleb128 0x3
 3247 012d 0E       		.uleb128 0xe
 3248 012e 1C       		.uleb128 0x1c
 3249 012f 0D       		.uleb128 0xd
 3250 0130 00       		.byte	0
 3251 0131 00       		.byte	0
 3252 0132 1B       		.uleb128 0x1b
 3253 0133 2E       		.uleb128 0x2e
 3254 0134 01       		.byte	0x1
 3255 0135 03       		.uleb128 0x3
 3256 0136 0E       		.uleb128 0xe
 3257 0137 3A       		.uleb128 0x3a
 3258 0138 0B       		.uleb128 0xb
 3259 0139 3B       		.uleb128 0x3b
 3260 013a 0B       		.uleb128 0xb
 3261 013b 27       		.uleb128 0x27
 3262 013c 19       		.uleb128 0x19
 3263 013d 20       		.uleb128 0x20
 3264 013e 0B       		.uleb128 0xb
 3265 013f 01       		.uleb128 0x1
 3266 0140 13       		.uleb128 0x13
 3267 0141 00       		.byte	0
 3268 0142 00       		.byte	0
 3269 0143 1C       		.uleb128 0x1c
 3270 0144 05       		.uleb128 0x5
 3271 0145 00       		.byte	0
 3272 0146 03       		.uleb128 0x3
 3273 0147 08       		.uleb128 0x8
 3274 0148 3A       		.uleb128 0x3a
 3275 0149 0B       		.uleb128 0xb
 3276 014a 3B       		.uleb128 0x3b
 3277 014b 0B       		.uleb128 0xb
 3278 014c 49       		.uleb128 0x49
 3279 014d 13       		.uleb128 0x13
 3280 014e 00       		.byte	0
 3281 014f 00       		.byte	0
 3282 0150 1D       		.uleb128 0x1d
 3283 0151 05       		.uleb128 0x5
 3284 0152 00       		.byte	0
 3285 0153 03       		.uleb128 0x3
 3286 0154 0E       		.uleb128 0xe
 3287 0155 3A       		.uleb128 0x3a
 3288 0156 0B       		.uleb128 0xb
 3289 0157 3B       		.uleb128 0x3b
 3290 0158 0B       		.uleb128 0xb
 3291 0159 49       		.uleb128 0x49
 3292 015a 13       		.uleb128 0x13
 3293 015b 00       		.byte	0
ARM GAS  /tmp/cc8zT4AD.s 			page 59


 3294 015c 00       		.byte	0
 3295 015d 1E       		.uleb128 0x1e
 3296 015e 34       		.uleb128 0x34
 3297 015f 00       		.byte	0
 3298 0160 03       		.uleb128 0x3
 3299 0161 08       		.uleb128 0x8
 3300 0162 3A       		.uleb128 0x3a
 3301 0163 0B       		.uleb128 0xb
 3302 0164 3B       		.uleb128 0x3b
 3303 0165 0B       		.uleb128 0xb
 3304 0166 49       		.uleb128 0x49
 3305 0167 13       		.uleb128 0x13
 3306 0168 00       		.byte	0
 3307 0169 00       		.byte	0
 3308 016a 1F       		.uleb128 0x1f
 3309 016b 2E       		.uleb128 0x2e
 3310 016c 01       		.byte	0x1
 3311 016d 03       		.uleb128 0x3
 3312 016e 0E       		.uleb128 0xe
 3313 016f 3A       		.uleb128 0x3a
 3314 0170 0B       		.uleb128 0xb
 3315 0171 3B       		.uleb128 0x3b
 3316 0172 0B       		.uleb128 0xb
 3317 0173 27       		.uleb128 0x27
 3318 0174 19       		.uleb128 0x19
 3319 0175 11       		.uleb128 0x11
 3320 0176 01       		.uleb128 0x1
 3321 0177 12       		.uleb128 0x12
 3322 0178 06       		.uleb128 0x6
 3323 0179 40       		.uleb128 0x40
 3324 017a 18       		.uleb128 0x18
 3325 017b 9742     		.uleb128 0x2117
 3326 017d 19       		.uleb128 0x19
 3327 017e 01       		.uleb128 0x1
 3328 017f 13       		.uleb128 0x13
 3329 0180 00       		.byte	0
 3330 0181 00       		.byte	0
 3331 0182 20       		.uleb128 0x20
 3332 0183 05       		.uleb128 0x5
 3333 0184 00       		.byte	0
 3334 0185 03       		.uleb128 0x3
 3335 0186 08       		.uleb128 0x8
 3336 0187 3A       		.uleb128 0x3a
 3337 0188 0B       		.uleb128 0xb
 3338 0189 3B       		.uleb128 0x3b
 3339 018a 0B       		.uleb128 0xb
 3340 018b 49       		.uleb128 0x49
 3341 018c 13       		.uleb128 0x13
 3342 018d 02       		.uleb128 0x2
 3343 018e 18       		.uleb128 0x18
 3344 018f 00       		.byte	0
 3345 0190 00       		.byte	0
 3346 0191 21       		.uleb128 0x21
 3347 0192 05       		.uleb128 0x5
 3348 0193 00       		.byte	0
 3349 0194 03       		.uleb128 0x3
 3350 0195 08       		.uleb128 0x8
ARM GAS  /tmp/cc8zT4AD.s 			page 60


 3351 0196 3A       		.uleb128 0x3a
 3352 0197 0B       		.uleb128 0xb
 3353 0198 3B       		.uleb128 0x3b
 3354 0199 0B       		.uleb128 0xb
 3355 019a 49       		.uleb128 0x49
 3356 019b 13       		.uleb128 0x13
 3357 019c 02       		.uleb128 0x2
 3358 019d 17       		.uleb128 0x17
 3359 019e 00       		.byte	0
 3360 019f 00       		.byte	0
 3361 01a0 22       		.uleb128 0x22
 3362 01a1 34       		.uleb128 0x34
 3363 01a2 00       		.byte	0
 3364 01a3 03       		.uleb128 0x3
 3365 01a4 08       		.uleb128 0x8
 3366 01a5 3A       		.uleb128 0x3a
 3367 01a6 0B       		.uleb128 0xb
 3368 01a7 3B       		.uleb128 0x3b
 3369 01a8 0B       		.uleb128 0xb
 3370 01a9 49       		.uleb128 0x49
 3371 01aa 13       		.uleb128 0x13
 3372 01ab 02       		.uleb128 0x2
 3373 01ac 18       		.uleb128 0x18
 3374 01ad 00       		.byte	0
 3375 01ae 00       		.byte	0
 3376 01af 23       		.uleb128 0x23
 3377 01b0 34       		.uleb128 0x34
 3378 01b1 00       		.byte	0
 3379 01b2 03       		.uleb128 0x3
 3380 01b3 08       		.uleb128 0x8
 3381 01b4 3A       		.uleb128 0x3a
 3382 01b5 0B       		.uleb128 0xb
 3383 01b6 3B       		.uleb128 0x3b
 3384 01b7 0B       		.uleb128 0xb
 3385 01b8 49       		.uleb128 0x49
 3386 01b9 13       		.uleb128 0x13
 3387 01ba 02       		.uleb128 0x2
 3388 01bb 17       		.uleb128 0x17
 3389 01bc 00       		.byte	0
 3390 01bd 00       		.byte	0
 3391 01be 24       		.uleb128 0x24
 3392 01bf 0B       		.uleb128 0xb
 3393 01c0 01       		.byte	0x1
 3394 01c1 11       		.uleb128 0x11
 3395 01c2 01       		.uleb128 0x1
 3396 01c3 12       		.uleb128 0x12
 3397 01c4 06       		.uleb128 0x6
 3398 01c5 01       		.uleb128 0x1
 3399 01c6 13       		.uleb128 0x13
 3400 01c7 00       		.byte	0
 3401 01c8 00       		.byte	0
 3402 01c9 25       		.uleb128 0x25
 3403 01ca 0B       		.uleb128 0xb
 3404 01cb 01       		.byte	0x1
 3405 01cc 55       		.uleb128 0x55
 3406 01cd 17       		.uleb128 0x17
 3407 01ce 01       		.uleb128 0x1
ARM GAS  /tmp/cc8zT4AD.s 			page 61


 3408 01cf 13       		.uleb128 0x13
 3409 01d0 00       		.byte	0
 3410 01d1 00       		.byte	0
 3411 01d2 26       		.uleb128 0x26
 3412 01d3 1D       		.uleb128 0x1d
 3413 01d4 01       		.byte	0x1
 3414 01d5 31       		.uleb128 0x31
 3415 01d6 13       		.uleb128 0x13
 3416 01d7 52       		.uleb128 0x52
 3417 01d8 01       		.uleb128 0x1
 3418 01d9 55       		.uleb128 0x55
 3419 01da 17       		.uleb128 0x17
 3420 01db 58       		.uleb128 0x58
 3421 01dc 0B       		.uleb128 0xb
 3422 01dd 59       		.uleb128 0x59
 3423 01de 0B       		.uleb128 0xb
 3424 01df 01       		.uleb128 0x1
 3425 01e0 13       		.uleb128 0x13
 3426 01e1 00       		.byte	0
 3427 01e2 00       		.byte	0
 3428 01e3 27       		.uleb128 0x27
 3429 01e4 05       		.uleb128 0x5
 3430 01e5 00       		.byte	0
 3431 01e6 31       		.uleb128 0x31
 3432 01e7 13       		.uleb128 0x13
 3433 01e8 02       		.uleb128 0x2
 3434 01e9 17       		.uleb128 0x17
 3435 01ea 00       		.byte	0
 3436 01eb 00       		.byte	0
 3437 01ec 28       		.uleb128 0x28
 3438 01ed 05       		.uleb128 0x5
 3439 01ee 00       		.byte	0
 3440 01ef 31       		.uleb128 0x31
 3441 01f0 13       		.uleb128 0x13
 3442 01f1 00       		.byte	0
 3443 01f2 00       		.byte	0
 3444 01f3 29       		.uleb128 0x29
 3445 01f4 0B       		.uleb128 0xb
 3446 01f5 01       		.byte	0x1
 3447 01f6 55       		.uleb128 0x55
 3448 01f7 17       		.uleb128 0x17
 3449 01f8 00       		.byte	0
 3450 01f9 00       		.byte	0
 3451 01fa 2A       		.uleb128 0x2a
 3452 01fb 34       		.uleb128 0x34
 3453 01fc 00       		.byte	0
 3454 01fd 31       		.uleb128 0x31
 3455 01fe 13       		.uleb128 0x13
 3456 01ff 02       		.uleb128 0x2
 3457 0200 17       		.uleb128 0x17
 3458 0201 00       		.byte	0
 3459 0202 00       		.byte	0
 3460 0203 2B       		.uleb128 0x2b
 3461 0204 898201   		.uleb128 0x4109
 3462 0207 01       		.byte	0x1
 3463 0208 11       		.uleb128 0x11
 3464 0209 01       		.uleb128 0x1
ARM GAS  /tmp/cc8zT4AD.s 			page 62


 3465 020a 31       		.uleb128 0x31
 3466 020b 13       		.uleb128 0x13
 3467 020c 00       		.byte	0
 3468 020d 00       		.byte	0
 3469 020e 2C       		.uleb128 0x2c
 3470 020f 8A8201   		.uleb128 0x410a
 3471 0212 00       		.byte	0
 3472 0213 02       		.uleb128 0x2
 3473 0214 18       		.uleb128 0x18
 3474 0215 9142     		.uleb128 0x2111
 3475 0217 18       		.uleb128 0x18
 3476 0218 00       		.byte	0
 3477 0219 00       		.byte	0
 3478 021a 2D       		.uleb128 0x2d
 3479 021b 898201   		.uleb128 0x4109
 3480 021e 01       		.byte	0x1
 3481 021f 11       		.uleb128 0x11
 3482 0220 01       		.uleb128 0x1
 3483 0221 31       		.uleb128 0x31
 3484 0222 13       		.uleb128 0x13
 3485 0223 01       		.uleb128 0x1
 3486 0224 13       		.uleb128 0x13
 3487 0225 00       		.byte	0
 3488 0226 00       		.byte	0
 3489 0227 2E       		.uleb128 0x2e
 3490 0228 2E       		.uleb128 0x2e
 3491 0229 01       		.byte	0x1
 3492 022a 3F       		.uleb128 0x3f
 3493 022b 19       		.uleb128 0x19
 3494 022c 03       		.uleb128 0x3
 3495 022d 0E       		.uleb128 0xe
 3496 022e 3A       		.uleb128 0x3a
 3497 022f 0B       		.uleb128 0xb
 3498 0230 3B       		.uleb128 0x3b
 3499 0231 05       		.uleb128 0x5
 3500 0232 27       		.uleb128 0x27
 3501 0233 19       		.uleb128 0x19
 3502 0234 11       		.uleb128 0x11
 3503 0235 01       		.uleb128 0x1
 3504 0236 12       		.uleb128 0x12
 3505 0237 06       		.uleb128 0x6
 3506 0238 40       		.uleb128 0x40
 3507 0239 18       		.uleb128 0x18
 3508 023a 9742     		.uleb128 0x2117
 3509 023c 19       		.uleb128 0x19
 3510 023d 01       		.uleb128 0x1
 3511 023e 13       		.uleb128 0x13
 3512 023f 00       		.byte	0
 3513 0240 00       		.byte	0
 3514 0241 2F       		.uleb128 0x2f
 3515 0242 898201   		.uleb128 0x4109
 3516 0245 00       		.byte	0
 3517 0246 11       		.uleb128 0x11
 3518 0247 01       		.uleb128 0x1
 3519 0248 9542     		.uleb128 0x2115
 3520 024a 19       		.uleb128 0x19
 3521 024b 31       		.uleb128 0x31
ARM GAS  /tmp/cc8zT4AD.s 			page 63


 3522 024c 13       		.uleb128 0x13
 3523 024d 00       		.byte	0
 3524 024e 00       		.byte	0
 3525 024f 30       		.uleb128 0x30
 3526 0250 05       		.uleb128 0x5
 3527 0251 00       		.byte	0
 3528 0252 03       		.uleb128 0x3
 3529 0253 08       		.uleb128 0x8
 3530 0254 3A       		.uleb128 0x3a
 3531 0255 0B       		.uleb128 0xb
 3532 0256 3B       		.uleb128 0x3b
 3533 0257 05       		.uleb128 0x5
 3534 0258 49       		.uleb128 0x49
 3535 0259 13       		.uleb128 0x13
 3536 025a 02       		.uleb128 0x2
 3537 025b 17       		.uleb128 0x17
 3538 025c 00       		.byte	0
 3539 025d 00       		.byte	0
 3540 025e 31       		.uleb128 0x31
 3541 025f 05       		.uleb128 0x5
 3542 0260 00       		.byte	0
 3543 0261 03       		.uleb128 0x3
 3544 0262 0E       		.uleb128 0xe
 3545 0263 3A       		.uleb128 0x3a
 3546 0264 0B       		.uleb128 0xb
 3547 0265 3B       		.uleb128 0x3b
 3548 0266 05       		.uleb128 0x5
 3549 0267 49       		.uleb128 0x49
 3550 0268 13       		.uleb128 0x13
 3551 0269 02       		.uleb128 0x2
 3552 026a 17       		.uleb128 0x17
 3553 026b 00       		.byte	0
 3554 026c 00       		.byte	0
 3555 026d 32       		.uleb128 0x32
 3556 026e 1D       		.uleb128 0x1d
 3557 026f 01       		.byte	0x1
 3558 0270 31       		.uleb128 0x31
 3559 0271 13       		.uleb128 0x13
 3560 0272 52       		.uleb128 0x52
 3561 0273 01       		.uleb128 0x1
 3562 0274 55       		.uleb128 0x55
 3563 0275 17       		.uleb128 0x17
 3564 0276 58       		.uleb128 0x58
 3565 0277 0B       		.uleb128 0xb
 3566 0278 59       		.uleb128 0x59
 3567 0279 05       		.uleb128 0x5
 3568 027a 01       		.uleb128 0x1
 3569 027b 13       		.uleb128 0x13
 3570 027c 00       		.byte	0
 3571 027d 00       		.byte	0
 3572 027e 33       		.uleb128 0x33
 3573 027f 898201   		.uleb128 0x4109
 3574 0282 01       		.byte	0x1
 3575 0283 11       		.uleb128 0x11
 3576 0284 01       		.uleb128 0x1
 3577 0285 9542     		.uleb128 0x2115
 3578 0287 19       		.uleb128 0x19
ARM GAS  /tmp/cc8zT4AD.s 			page 64


 3579 0288 31       		.uleb128 0x31
 3580 0289 13       		.uleb128 0x13
 3581 028a 01       		.uleb128 0x1
 3582 028b 13       		.uleb128 0x13
 3583 028c 00       		.byte	0
 3584 028d 00       		.byte	0
 3585 028e 34       		.uleb128 0x34
 3586 028f 898201   		.uleb128 0x4109
 3587 0292 01       		.byte	0x1
 3588 0293 11       		.uleb128 0x11
 3589 0294 01       		.uleb128 0x1
 3590 0295 9542     		.uleb128 0x2115
 3591 0297 19       		.uleb128 0x19
 3592 0298 31       		.uleb128 0x31
 3593 0299 13       		.uleb128 0x13
 3594 029a 00       		.byte	0
 3595 029b 00       		.byte	0
 3596 029c 35       		.uleb128 0x35
 3597 029d 34       		.uleb128 0x34
 3598 029e 00       		.byte	0
 3599 029f 03       		.uleb128 0x3
 3600 02a0 0E       		.uleb128 0xe
 3601 02a1 3A       		.uleb128 0x3a
 3602 02a2 0B       		.uleb128 0xb
 3603 02a3 3B       		.uleb128 0x3b
 3604 02a4 0B       		.uleb128 0xb
 3605 02a5 49       		.uleb128 0x49
 3606 02a6 13       		.uleb128 0x13
 3607 02a7 02       		.uleb128 0x2
 3608 02a8 18       		.uleb128 0x18
 3609 02a9 00       		.byte	0
 3610 02aa 00       		.byte	0
 3611 02ab 36       		.uleb128 0x36
 3612 02ac 34       		.uleb128 0x34
 3613 02ad 00       		.byte	0
 3614 02ae 03       		.uleb128 0x3
 3615 02af 0E       		.uleb128 0xe
 3616 02b0 3A       		.uleb128 0x3a
 3617 02b1 0B       		.uleb128 0xb
 3618 02b2 3B       		.uleb128 0x3b
 3619 02b3 05       		.uleb128 0x5
 3620 02b4 49       		.uleb128 0x49
 3621 02b5 13       		.uleb128 0x13
 3622 02b6 3F       		.uleb128 0x3f
 3623 02b7 19       		.uleb128 0x19
 3624 02b8 3C       		.uleb128 0x3c
 3625 02b9 19       		.uleb128 0x19
 3626 02ba 00       		.byte	0
 3627 02bb 00       		.byte	0
 3628 02bc 37       		.uleb128 0x37
 3629 02bd 34       		.uleb128 0x34
 3630 02be 00       		.byte	0
 3631 02bf 03       		.uleb128 0x3
 3632 02c0 08       		.uleb128 0x8
 3633 02c1 3A       		.uleb128 0x3a
 3634 02c2 0B       		.uleb128 0xb
 3635 02c3 3B       		.uleb128 0x3b
ARM GAS  /tmp/cc8zT4AD.s 			page 65


 3636 02c4 0B       		.uleb128 0xb
 3637 02c5 49       		.uleb128 0x49
 3638 02c6 13       		.uleb128 0x13
 3639 02c7 3F       		.uleb128 0x3f
 3640 02c8 19       		.uleb128 0x19
 3641 02c9 02       		.uleb128 0x2
 3642 02ca 18       		.uleb128 0x18
 3643 02cb 00       		.byte	0
 3644 02cc 00       		.byte	0
 3645 02cd 38       		.uleb128 0x38
 3646 02ce 2E       		.uleb128 0x2e
 3647 02cf 01       		.byte	0x1
 3648 02d0 3F       		.uleb128 0x3f
 3649 02d1 19       		.uleb128 0x19
 3650 02d2 03       		.uleb128 0x3
 3651 02d3 0E       		.uleb128 0xe
 3652 02d4 3A       		.uleb128 0x3a
 3653 02d5 0B       		.uleb128 0xb
 3654 02d6 3B       		.uleb128 0x3b
 3655 02d7 0B       		.uleb128 0xb
 3656 02d8 27       		.uleb128 0x27
 3657 02d9 19       		.uleb128 0x19
 3658 02da 3C       		.uleb128 0x3c
 3659 02db 19       		.uleb128 0x19
 3660 02dc 01       		.uleb128 0x1
 3661 02dd 13       		.uleb128 0x13
 3662 02de 00       		.byte	0
 3663 02df 00       		.byte	0
 3664 02e0 39       		.uleb128 0x39
 3665 02e1 2E       		.uleb128 0x2e
 3666 02e2 01       		.byte	0x1
 3667 02e3 3F       		.uleb128 0x3f
 3668 02e4 19       		.uleb128 0x19
 3669 02e5 03       		.uleb128 0x3
 3670 02e6 0E       		.uleb128 0xe
 3671 02e7 3A       		.uleb128 0x3a
 3672 02e8 0B       		.uleb128 0xb
 3673 02e9 3B       		.uleb128 0x3b
 3674 02ea 05       		.uleb128 0x5
 3675 02eb 27       		.uleb128 0x27
 3676 02ec 19       		.uleb128 0x19
 3677 02ed 3C       		.uleb128 0x3c
 3678 02ee 19       		.uleb128 0x19
 3679 02ef 01       		.uleb128 0x1
 3680 02f0 13       		.uleb128 0x13
 3681 02f1 00       		.byte	0
 3682 02f2 00       		.byte	0
 3683 02f3 3A       		.uleb128 0x3a
 3684 02f4 2E       		.uleb128 0x2e
 3685 02f5 01       		.byte	0x1
 3686 02f6 3F       		.uleb128 0x3f
 3687 02f7 19       		.uleb128 0x19
 3688 02f8 03       		.uleb128 0x3
 3689 02f9 0E       		.uleb128 0xe
 3690 02fa 3A       		.uleb128 0x3a
 3691 02fb 0B       		.uleb128 0xb
 3692 02fc 3B       		.uleb128 0x3b
ARM GAS  /tmp/cc8zT4AD.s 			page 66


 3693 02fd 05       		.uleb128 0x5
 3694 02fe 27       		.uleb128 0x27
 3695 02ff 19       		.uleb128 0x19
 3696 0300 49       		.uleb128 0x49
 3697 0301 13       		.uleb128 0x13
 3698 0302 3C       		.uleb128 0x3c
 3699 0303 19       		.uleb128 0x19
 3700 0304 01       		.uleb128 0x1
 3701 0305 13       		.uleb128 0x13
 3702 0306 00       		.byte	0
 3703 0307 00       		.byte	0
 3704 0308 3B       		.uleb128 0x3b
 3705 0309 2E       		.uleb128 0x2e
 3706 030a 00       		.byte	0
 3707 030b 3F       		.uleb128 0x3f
 3708 030c 19       		.uleb128 0x19
 3709 030d 03       		.uleb128 0x3
 3710 030e 0E       		.uleb128 0xe
 3711 030f 3A       		.uleb128 0x3a
 3712 0310 0B       		.uleb128 0xb
 3713 0311 3B       		.uleb128 0x3b
 3714 0312 05       		.uleb128 0x5
 3715 0313 27       		.uleb128 0x27
 3716 0314 19       		.uleb128 0x19
 3717 0315 3C       		.uleb128 0x3c
 3718 0316 19       		.uleb128 0x19
 3719 0317 00       		.byte	0
 3720 0318 00       		.byte	0
 3721 0319 3C       		.uleb128 0x3c
 3722 031a 2E       		.uleb128 0x2e
 3723 031b 01       		.byte	0x1
 3724 031c 3F       		.uleb128 0x3f
 3725 031d 19       		.uleb128 0x19
 3726 031e 03       		.uleb128 0x3
 3727 031f 0E       		.uleb128 0xe
 3728 0320 3A       		.uleb128 0x3a
 3729 0321 0B       		.uleb128 0xb
 3730 0322 3B       		.uleb128 0x3b
 3731 0323 05       		.uleb128 0x5
 3732 0324 27       		.uleb128 0x27
 3733 0325 19       		.uleb128 0x19
 3734 0326 3C       		.uleb128 0x3c
 3735 0327 19       		.uleb128 0x19
 3736 0328 00       		.byte	0
 3737 0329 00       		.byte	0
 3738 032a 00       		.byte	0
 3739              		.section	.debug_loc,"",%progbits
 3740              	.Ldebug_loc0:
 3741              	.LLST0:
 3742 0000 60000000 		.4byte	.LVL3-.Ltext0
 3743 0004 76000000 		.4byte	.LVL6-.Ltext0
 3744 0008 0100     		.2byte	0x1
 3745 000a 50       		.byte	0x50
 3746 000b 76000000 		.4byte	.LVL6-.Ltext0
 3747 000f 1C010000 		.4byte	.LVL24-.Ltext0
 3748 0013 0100     		.2byte	0x1
 3749 0015 56       		.byte	0x56
ARM GAS  /tmp/cc8zT4AD.s 			page 67


 3750 0016 1C010000 		.4byte	.LVL24-.Ltext0
 3751 001a 28010000 		.4byte	.LVL25-.Ltext0
 3752 001e 0100     		.2byte	0x1
 3753 0020 50       		.byte	0x50
 3754 0021 28010000 		.4byte	.LVL25-.Ltext0
 3755 0025 7C010000 		.4byte	.LFE133-.Ltext0
 3756 0029 0100     		.2byte	0x1
 3757 002b 56       		.byte	0x56
 3758 002c 00000000 		.4byte	0
 3759 0030 00000000 		.4byte	0
 3760              	.LLST1:
 3761 0034 74000000 		.4byte	.LVL5-.Ltext0
 3762 0038 04010000 		.4byte	.LVL22-.Ltext0
 3763 003c 0100     		.2byte	0x1
 3764 003e 57       		.byte	0x57
 3765 003f 18010000 		.4byte	.LVL23-.Ltext0
 3766 0043 7C010000 		.4byte	.LFE133-.Ltext0
 3767 0047 0100     		.2byte	0x1
 3768 0049 57       		.byte	0x57
 3769 004a 00000000 		.4byte	0
 3770 004e 00000000 		.4byte	0
 3771              	.LLST2:
 3772 0052 74000000 		.4byte	.LVL5-.Ltext0
 3773 0056 92000000 		.4byte	.LVL8-.Ltext0
 3774 005a 0100     		.2byte	0x1
 3775 005c 54       		.byte	0x54
 3776 005d 94000000 		.4byte	.LVL9-.Ltext0
 3777 0061 D8000000 		.4byte	.LVL20-.Ltext0
 3778 0065 0100     		.2byte	0x1
 3779 0067 54       		.byte	0x54
 3780 0068 DA000000 		.4byte	.LVL21-.Ltext0
 3781 006c 7C010000 		.4byte	.LFE133-.Ltext0
 3782 0070 0100     		.2byte	0x1
 3783 0072 54       		.byte	0x54
 3784 0073 00000000 		.4byte	0
 3785 0077 00000000 		.4byte	0
 3786              	.LLST3:
 3787 007b 8E000000 		.4byte	.LVL7-.Ltext0
 3788 007f 9A000000 		.4byte	.LVL10-.Ltext0
 3789 0083 0100     		.2byte	0x1
 3790 0085 51       		.byte	0x51
 3791 0086 CC000000 		.4byte	.LVL17-.Ltext0
 3792 008a D5000000 		.4byte	.LVL19-1-.Ltext0
 3793 008e 0100     		.2byte	0x1
 3794 0090 51       		.byte	0x51
 3795 0091 00000000 		.4byte	0
 3796 0095 00000000 		.4byte	0
 3797              	.LLST4:
 3798 0099 9E000000 		.4byte	.LVL11-.Ltext0
 3799 009d CE000000 		.4byte	.LVL18-.Ltext0
 3800 00a1 0100     		.2byte	0x1
 3801 00a3 54       		.byte	0x54
 3802 00a4 00000000 		.4byte	0
 3803 00a8 00000000 		.4byte	0
 3804              	.LLST5:
 3805 00ac 9E000000 		.4byte	.LVL11-.Ltext0
 3806 00b0 A8000000 		.4byte	.LVL12-.Ltext0
ARM GAS  /tmp/cc8zT4AD.s 			page 68


 3807 00b4 0200     		.2byte	0x2
 3808 00b6 30       		.byte	0x30
 3809 00b7 9F       		.byte	0x9f
 3810 00b8 A8000000 		.4byte	.LVL12-.Ltext0
 3811 00bc C5000000 		.4byte	.LVL16-1-.Ltext0
 3812 00c0 0100     		.2byte	0x1
 3813 00c2 51       		.byte	0x51
 3814 00c3 00000000 		.4byte	0
 3815 00c7 00000000 		.4byte	0
 3816              	.LLST6:
 3817 00cb 48010000 		.4byte	.LVL27-.Ltext0
 3818 00cf 4E010000 		.4byte	.LVL28-.Ltext0
 3819 00d3 0100     		.2byte	0x1
 3820 00d5 50       		.byte	0x50
 3821 00d6 68010000 		.4byte	.LVL30-.Ltext0
 3822 00da 6A010000 		.4byte	.LVL31-.Ltext0
 3823 00de 0100     		.2byte	0x1
 3824 00e0 50       		.byte	0x50
 3825 00e1 00000000 		.4byte	0
 3826 00e5 00000000 		.4byte	0
 3827              	.LLST7:
 3828 00e9 40020000 		.4byte	.LVL42-.Ltext0
 3829 00ed 52020000 		.4byte	.LVL44-.Ltext0
 3830 00f1 0100     		.2byte	0x1
 3831 00f3 50       		.byte	0x50
 3832 00f4 52020000 		.4byte	.LVL44-.Ltext0
 3833 00f8 9C020000 		.4byte	.LVL48-.Ltext0
 3834 00fc 0100     		.2byte	0x1
 3835 00fe 55       		.byte	0x55
 3836 00ff 9C020000 		.4byte	.LVL48-.Ltext0
 3837 0103 BA020000 		.4byte	.LVL49-.Ltext0
 3838 0107 0100     		.2byte	0x1
 3839 0109 50       		.byte	0x50
 3840 010a BA020000 		.4byte	.LVL49-.Ltext0
 3841 010e D0020000 		.4byte	.LVL52-.Ltext0
 3842 0112 0100     		.2byte	0x1
 3843 0114 55       		.byte	0x55
 3844 0115 D0020000 		.4byte	.LVL52-.Ltext0
 3845 0119 DC020000 		.4byte	.LVL53-.Ltext0
 3846 011d 0100     		.2byte	0x1
 3847 011f 50       		.byte	0x50
 3848 0120 DC020000 		.4byte	.LVL53-.Ltext0
 3849 0124 E4020000 		.4byte	.LVL55-.Ltext0
 3850 0128 0100     		.2byte	0x1
 3851 012a 55       		.byte	0x55
 3852 012b E4020000 		.4byte	.LVL55-.Ltext0
 3853 012f F0020000 		.4byte	.LVL56-.Ltext0
 3854 0133 0100     		.2byte	0x1
 3855 0135 50       		.byte	0x50
 3856 0136 F0020000 		.4byte	.LVL56-.Ltext0
 3857 013a 18030000 		.4byte	.LFE141-.Ltext0
 3858 013e 0100     		.2byte	0x1
 3859 0140 55       		.byte	0x55
 3860 0141 00000000 		.4byte	0
 3861 0145 00000000 		.4byte	0
 3862              	.LLST8:
 3863 0149 40020000 		.4byte	.LVL42-.Ltext0
ARM GAS  /tmp/cc8zT4AD.s 			page 69


 3864 014d 4C020000 		.4byte	.LVL43-.Ltext0
 3865 0151 0100     		.2byte	0x1
 3866 0153 51       		.byte	0x51
 3867 0154 4C020000 		.4byte	.LVL43-.Ltext0
 3868 0158 8E020000 		.4byte	.LVL46-.Ltext0
 3869 015c 0100     		.2byte	0x1
 3870 015e 54       		.byte	0x54
 3871 015f 8E020000 		.4byte	.LVL46-.Ltext0
 3872 0163 9C020000 		.4byte	.LVL48-.Ltext0
 3873 0167 1300     		.2byte	0x13
 3874 0169 F3       		.byte	0xf3
 3875 016a 01       		.uleb128 0x1
 3876 016b 51       		.byte	0x51
 3877 016c 03       		.byte	0x3
 3878 016d 00000000 		.4byte	.LANCHOR0
 3879 0171 F3       		.byte	0xf3
 3880 0172 01       		.uleb128 0x1
 3881 0173 51       		.byte	0x51
 3882 0174 30       		.byte	0x30
 3883 0175 2E       		.byte	0x2e
 3884 0176 28       		.byte	0x28
 3885 0177 0100     		.2byte	0x1
 3886 0179 16       		.byte	0x16
 3887 017a 13       		.byte	0x13
 3888 017b 9F       		.byte	0x9f
 3889 017c 9C020000 		.4byte	.LVL48-.Ltext0
 3890 0180 18030000 		.4byte	.LFE141-.Ltext0
 3891 0184 0100     		.2byte	0x1
 3892 0186 54       		.byte	0x54
 3893 0187 00000000 		.4byte	0
 3894 018b 00000000 		.4byte	0
 3895              	.LLST9:
 3896 018f 56020000 		.4byte	.LVL45-.Ltext0
 3897 0193 9C020000 		.4byte	.LVL48-.Ltext0
 3898 0197 0100     		.2byte	0x1
 3899 0199 55       		.byte	0x55
 3900 019a C2020000 		.4byte	.LVL51-.Ltext0
 3901 019e D0020000 		.4byte	.LVL52-.Ltext0
 3902 01a2 0100     		.2byte	0x1
 3903 01a4 55       		.byte	0x55
 3904 01a5 00000000 		.4byte	0
 3905 01a9 00000000 		.4byte	0
 3906              	.LLST10:
 3907 01ad 56020000 		.4byte	.LVL45-.Ltext0
 3908 01b1 8E020000 		.4byte	.LVL46-.Ltext0
 3909 01b5 0100     		.2byte	0x1
 3910 01b7 54       		.byte	0x54
 3911 01b8 8E020000 		.4byte	.LVL46-.Ltext0
 3912 01bc 9C020000 		.4byte	.LVL48-.Ltext0
 3913 01c0 1300     		.2byte	0x13
 3914 01c2 F3       		.byte	0xf3
 3915 01c3 01       		.uleb128 0x1
 3916 01c4 51       		.byte	0x51
 3917 01c5 03       		.byte	0x3
 3918 01c6 00000000 		.4byte	.LANCHOR0
 3919 01ca F3       		.byte	0xf3
 3920 01cb 01       		.uleb128 0x1
ARM GAS  /tmp/cc8zT4AD.s 			page 70


 3921 01cc 51       		.byte	0x51
 3922 01cd 30       		.byte	0x30
 3923 01ce 2E       		.byte	0x2e
 3924 01cf 28       		.byte	0x28
 3925 01d0 0100     		.2byte	0x1
 3926 01d2 16       		.byte	0x16
 3927 01d3 13       		.byte	0x13
 3928 01d4 9F       		.byte	0x9f
 3929 01d5 C2020000 		.4byte	.LVL51-.Ltext0
 3930 01d9 D0020000 		.4byte	.LVL52-.Ltext0
 3931 01dd 0100     		.2byte	0x1
 3932 01df 54       		.byte	0x54
 3933 01e0 00000000 		.4byte	0
 3934 01e4 00000000 		.4byte	0
 3935              	.LLST11:
 3936 01e8 56020000 		.4byte	.LVL45-.Ltext0
 3937 01ec 9A020000 		.4byte	.LVL47-.Ltext0
 3938 01f0 0100     		.2byte	0x1
 3939 01f2 53       		.byte	0x53
 3940 01f3 9A020000 		.4byte	.LVL47-.Ltext0
 3941 01f7 9C020000 		.4byte	.LVL48-.Ltext0
 3942 01fb 0300     		.2byte	0x3
 3943 01fd 75       		.byte	0x75
 3944 01fe 9401     		.sleb128 148
 3945 0200 C2020000 		.4byte	.LVL51-.Ltext0
 3946 0204 D0020000 		.4byte	.LVL52-.Ltext0
 3947 0208 0100     		.2byte	0x1
 3948 020a 53       		.byte	0x53
 3949 020b 00000000 		.4byte	0
 3950 020f 00000000 		.4byte	0
 3951              	.LLST12:
 3952 0213 20030000 		.4byte	.LVL58-.Ltext0
 3953 0217 52030000 		.4byte	.LVL61-.Ltext0
 3954 021b 0100     		.2byte	0x1
 3955 021d 50       		.byte	0x50
 3956 021e 52030000 		.4byte	.LVL61-.Ltext0
 3957 0222 56030000 		.4byte	.LVL62-.Ltext0
 3958 0226 0400     		.2byte	0x4
 3959 0228 F3       		.byte	0xf3
 3960 0229 01       		.uleb128 0x1
 3961 022a 50       		.byte	0x50
 3962 022b 9F       		.byte	0x9f
 3963 022c 56030000 		.4byte	.LVL62-.Ltext0
 3964 0230 62030000 		.4byte	.LVL64-.Ltext0
 3965 0234 0100     		.2byte	0x1
 3966 0236 50       		.byte	0x50
 3967 0237 62030000 		.4byte	.LVL64-.Ltext0
 3968 023b 66030000 		.4byte	.LVL65-.Ltext0
 3969 023f 0400     		.2byte	0x4
 3970 0241 F3       		.byte	0xf3
 3971 0242 01       		.uleb128 0x1
 3972 0243 50       		.byte	0x50
 3973 0244 9F       		.byte	0x9f
 3974 0245 66030000 		.4byte	.LVL65-.Ltext0
 3975 0249 72030000 		.4byte	.LVL66-.Ltext0
 3976 024d 0100     		.2byte	0x1
 3977 024f 50       		.byte	0x50
ARM GAS  /tmp/cc8zT4AD.s 			page 71


 3978 0250 72030000 		.4byte	.LVL66-.Ltext0
 3979 0254 88030000 		.4byte	.LFE142-.Ltext0
 3980 0258 0400     		.2byte	0x4
 3981 025a F3       		.byte	0xf3
 3982 025b 01       		.uleb128 0x1
 3983 025c 50       		.byte	0x50
 3984 025d 9F       		.byte	0x9f
 3985 025e 00000000 		.4byte	0
 3986 0262 00000000 		.4byte	0
 3987              	.LLST13:
 3988 0266 2E030000 		.4byte	.LVL59-.Ltext0
 3989 026a 3C030000 		.4byte	.LVL60-.Ltext0
 3990 026e 0100     		.2byte	0x1
 3991 0270 53       		.byte	0x53
 3992 0271 3C030000 		.4byte	.LVL60-.Ltext0
 3993 0275 52030000 		.4byte	.LVL61-.Ltext0
 3994 0279 0300     		.2byte	0x3
 3995 027b 70       		.byte	0x70
 3996 027c 9401     		.sleb128 148
 3997 027e 52030000 		.4byte	.LVL61-.Ltext0
 3998 0282 55030000 		.4byte	.LVL62-1-.Ltext0
 3999 0286 0600     		.2byte	0x6
 4000 0288 F3       		.byte	0xf3
 4001 0289 01       		.uleb128 0x1
 4002 028a 50       		.byte	0x50
 4003 028b 23       		.byte	0x23
 4004 028c 9401     		.uleb128 0x94
 4005 028e 56030000 		.4byte	.LVL62-.Ltext0
 4006 0292 5A030000 		.4byte	.LVL63-.Ltext0
 4007 0296 0100     		.2byte	0x1
 4008 0298 53       		.byte	0x53
 4009 0299 5A030000 		.4byte	.LVL63-.Ltext0
 4010 029d 62030000 		.4byte	.LVL64-.Ltext0
 4011 02a1 0300     		.2byte	0x3
 4012 02a3 70       		.byte	0x70
 4013 02a4 9401     		.sleb128 148
 4014 02a6 62030000 		.4byte	.LVL64-.Ltext0
 4015 02aa 65030000 		.4byte	.LVL65-1-.Ltext0
 4016 02ae 0600     		.2byte	0x6
 4017 02b0 F3       		.byte	0xf3
 4018 02b1 01       		.uleb128 0x1
 4019 02b2 50       		.byte	0x50
 4020 02b3 23       		.byte	0x23
 4021 02b4 9401     		.uleb128 0x94
 4022 02b6 66030000 		.4byte	.LVL65-.Ltext0
 4023 02ba 72030000 		.4byte	.LVL66-.Ltext0
 4024 02be 0300     		.2byte	0x3
 4025 02c0 70       		.byte	0x70
 4026 02c1 9401     		.sleb128 148
 4027 02c3 72030000 		.4byte	.LVL66-.Ltext0
 4028 02c7 75030000 		.4byte	.LVL67-1-.Ltext0
 4029 02cb 0600     		.2byte	0x6
 4030 02cd F3       		.byte	0xf3
 4031 02ce 01       		.uleb128 0x1
 4032 02cf 50       		.byte	0x50
 4033 02d0 23       		.byte	0x23
 4034 02d1 9401     		.uleb128 0x94
ARM GAS  /tmp/cc8zT4AD.s 			page 72


 4035 02d3 00000000 		.4byte	0
 4036 02d7 00000000 		.4byte	0
 4037              		.section	.debug_aranges,"",%progbits
 4038 0000 1C000000 		.4byte	0x1c
 4039 0004 0200     		.2byte	0x2
 4040 0006 00000000 		.4byte	.Ldebug_info0
 4041 000a 04       		.byte	0x4
 4042 000b 00       		.byte	0
 4043 000c 0000     		.2byte	0
 4044 000e 0000     		.2byte	0
 4045 0010 00000000 		.4byte	.Ltext0
 4046 0014 88030000 		.4byte	.Letext0-.Ltext0
 4047 0018 00000000 		.4byte	0
 4048 001c 00000000 		.4byte	0
 4049              		.section	.debug_ranges,"",%progbits
 4050              	.Ldebug_ranges0:
 4051 0000 82000000 		.4byte	.LBB17-.Ltext0
 4052 0004 94000000 		.4byte	.LBE17-.Ltext0
 4053 0008 9A000000 		.4byte	.LBB22-.Ltext0
 4054 000c DA000000 		.4byte	.LBE22-.Ltext0
 4055 0010 00000000 		.4byte	0
 4056 0014 00000000 		.4byte	0
 4057 0018 82000000 		.4byte	.LBB18-.Ltext0
 4058 001c 88000000 		.4byte	.LBE18-.Ltext0
 4059 0020 9E000000 		.4byte	.LBB21-.Ltext0
 4060 0024 C6000000 		.4byte	.LBE21-.Ltext0
 4061 0028 00000000 		.4byte	0
 4062 002c 00000000 		.4byte	0
 4063 0030 0C010000 		.4byte	.LBB25-.Ltext0
 4064 0034 0E010000 		.4byte	.LBE25-.Ltext0
 4065 0038 10010000 		.4byte	.LBB26-.Ltext0
 4066 003c 1C010000 		.4byte	.LBE26-.Ltext0
 4067 0040 00000000 		.4byte	0
 4068 0044 00000000 		.4byte	0
 4069 0048 3A010000 		.4byte	.LBB29-.Ltext0
 4070 004c 58010000 		.4byte	.LBE29-.Ltext0
 4071 0050 68010000 		.4byte	.LBB32-.Ltext0
 4072 0054 7C010000 		.4byte	.LBE32-.Ltext0
 4073 0058 00000000 		.4byte	0
 4074 005c 00000000 		.4byte	0
 4075 0060 56020000 		.4byte	.LBB35-.Ltext0
 4076 0064 9C020000 		.4byte	.LBE35-.Ltext0
 4077 0068 C2020000 		.4byte	.LBB38-.Ltext0
 4078 006c D0020000 		.4byte	.LBE38-.Ltext0
 4079 0070 00000000 		.4byte	0
 4080 0074 00000000 		.4byte	0
 4081 0078 2E030000 		.4byte	.LBB39-.Ltext0
 4082 007c 30030000 		.4byte	.LBE39-.Ltext0
 4083 0080 32030000 		.4byte	.LBB42-.Ltext0
 4084 0084 38030000 		.4byte	.LBE42-.Ltext0
 4085 0088 00000000 		.4byte	0
 4086 008c 00000000 		.4byte	0
 4087              		.section	.debug_line,"",%progbits
 4088              	.Ldebug_line0:
 4089 0000 24060000 		.section	.debug_str,"MS",%progbits,1
 4089      02002B05 
 4089      00000201 
ARM GAS  /tmp/cc8zT4AD.s 			page 73


 4089      FB0E0D00 
 4089      01010101 
 4090              	.LASF149:
 4091 0000 6E766963 		.ascii	"nvicEnableVector\000"
 4091      456E6162 
 4091      6C655665 
 4091      63746F72 
 4091      00
 4092              	.LASF2:
 4093 0011 73697A65 		.ascii	"size_t\000"
 4093      5F7400
 4094              	.LASF62:
 4095 0018 7264796D 		.ascii	"rdymsg\000"
 4095      736700
 4096              	.LASF78:
 4097 001f 4F757470 		.ascii	"OutputQueue\000"
 4097      75745175 
 4097      65756500 
 4098              	.LASF3:
 4099 002b 5F5F7569 		.ascii	"__uint8_t\000"
 4099      6E74385F 
 4099      7400
 4100              	.LASF136:
 4101 0035 7365745F 		.ascii	"set_error\000"
 4101      6572726F 
 4101      7200
 4102              	.LASF13:
 4103 003f 6C6F6E67 		.ascii	"long long unsigned int\000"
 4103      206C6F6E 
 4103      6720756E 
 4103      7369676E 
 4103      65642069 
 4104              	.LASF63:
 4105 0056 65786974 		.ascii	"exitcode\000"
 4105      636F6465 
 4105      00
 4106              	.LASF145:
 4107 005f 49544D5F 		.ascii	"ITM_RxBuffer\000"
 4107      52784275 
 4107      66666572 
 4107      00
 4108              	.LASF152:
 4109 006c 2F686F6D 		.ascii	"/home/sbcu/Dropbox/pcb-layouts/axo-on-discovery-boa"
 4109      652F7362 
 4109      63752F44 
 4109      726F7062 
 4109      6F782F70 
 4110 009f 72642F61 		.ascii	"rd/axoloti/firmware\000"
 4110      786F6C6F 
 4110      74692F66 
 4110      69726D77 
 4110      61726500 
 4111              	.LASF95:
 4112 00b3 41484231 		.ascii	"AHB1LPENR\000"
 4112      4C50454E 
 4112      5200
 4113              	.LASF148:
ARM GAS  /tmp/cc8zT4AD.s 			page 74


 4114 00bd 73644F62 		.ascii	"sdObjectInit\000"
 4114      6A656374 
 4114      496E6974 
 4114      00
 4115              	.LASF129:
 4116 00ca 72656164 		.ascii	"readt\000"
 4116      7400
 4117              	.LASF68:
 4118 00d0 715F7761 		.ascii	"q_waiting\000"
 4118      6974696E 
 4118      6700
 4119              	.LASF107:
 4120 00da 44434B43 		.ascii	"DCKCFGR\000"
 4120      46475200 
 4121              	.LASF12:
 4122 00e2 6C6F6E67 		.ascii	"long long int\000"
 4122      206C6F6E 
 4122      6720696E 
 4122      7400
 4123              	.LASF1:
 4124 00f0 7369676E 		.ascii	"signed char\000"
 4124      65642063 
 4124      68617200 
 4125              	.LASF81:
 4126 00fc 41484231 		.ascii	"AHB1RSTR\000"
 4126      52535452 
 4126      00
 4127              	.LASF109:
 4128 0105 47545052 		.ascii	"GTPR\000"
 4128      00
 4129              	.LASF112:
 4130 010a 53445F53 		.ascii	"SD_STOP\000"
 4130      544F5000 
 4131              	.LASF18:
 4132 0112 626F6F6C 		.ascii	"bool_t\000"
 4132      5F7400
 4133              	.LASF52:
 4134 0119 6D5F7175 		.ascii	"m_queue\000"
 4134      65756500 
 4135              	.LASF22:
 4136 0121 74736C69 		.ascii	"tslices_t\000"
 4136      6365735F 
 4136      7400
 4137              	.LASF108:
 4138 012b 5243435F 		.ascii	"RCC_TypeDef\000"
 4138      54797065 
 4138      44656600 
 4139              	.LASF144:
 4140 0137 64656661 		.ascii	"default_config\000"
 4140      756C745F 
 4140      636F6E66 
 4140      696700
 4141              	.LASF117:
 4142 0146 73746174 		.ascii	"state\000"
 4142      6500
 4143              	.LASF9:
 4144 014c 6C6F6E67 		.ascii	"long int\000"
ARM GAS  /tmp/cc8zT4AD.s 			page 75


 4144      20696E74 
 4144      00
 4145              	.LASF86:
 4146 0155 41504232 		.ascii	"APB2RSTR\000"
 4146      52535452 
 4146      00
 4147              	.LASF99:
 4148 015e 41504231 		.ascii	"APB1LPENR\000"
 4148      4C50454E 
 4148      5200
 4149              	.LASF21:
 4150 0168 74737461 		.ascii	"tstate_t\000"
 4150      74655F74 
 4150      00
 4151              	.LASF153:
 4152 0171 63684F51 		.ascii	"chOQGetI\000"
 4152      47657449 
 4152      00
 4153              	.LASF70:
 4154 017a 715F6275 		.ascii	"q_buffer\000"
 4154      66666572 
 4154      00
 4155              	.LASF146:
 4156 0183 63684576 		.ascii	"chEvtBroadcastFlagsI\000"
 4156      7442726F 
 4156      61646361 
 4156      7374466C 
 4156      61677349 
 4157              	.LASF33:
 4158 0198 705F6E65 		.ascii	"p_newer\000"
 4158      77657200 
 4159              	.LASF79:
 4160 01a0 504C4C43 		.ascii	"PLLCFGR\000"
 4160      46475200 
 4161              	.LASF7:
 4162 01a8 73686F72 		.ascii	"short unsigned int\000"
 4162      7420756E 
 4162      7369676E 
 4162      65642069 
 4162      6E7400
 4163              	.LASF10:
 4164 01bb 5F5F7569 		.ascii	"__uint32_t\000"
 4164      6E743332 
 4164      5F7400
 4165              	.LASF47:
 4166 01c6 72656761 		.ascii	"regarm_t\000"
 4166      726D5F74 
 4166      00
 4167              	.LASF132:
 4168 01cf 75736172 		.ascii	"usart_deinit\000"
 4168      745F6465 
 4168      696E6974 
 4168      00
 4169              	.LASF60:
 4170 01dc 4576656E 		.ascii	"EventSource\000"
 4170      74536F75 
 4170      72636500 
ARM GAS  /tmp/cc8zT4AD.s 			page 76


 4171              	.LASF120:
 4172 01e8 75736172 		.ascii	"usart\000"
 4172      7400
 4173              	.LASF0:
 4174 01ee 756E7369 		.ascii	"unsigned int\000"
 4174      676E6564 
 4174      20696E74 
 4174      00
 4175              	.LASF15:
 4176 01fb 75696E74 		.ascii	"uint16_t\000"
 4176      31365F74 
 4176      00
 4177              	.LASF123:
 4178 0204 53657269 		.ascii	"SerialDriverVMT\000"
 4178      616C4472 
 4178      69766572 
 4178      564D5400 
 4179              	.LASF40:
 4180 0214 705F6D73 		.ascii	"p_msgqueue\000"
 4180      67717565 
 4180      756500
 4181              	.LASF141:
 4182 021f 73645F6C 		.ascii	"sd_lld_init\000"
 4182      6C645F69 
 4182      6E697400 
 4183              	.LASF127:
 4184 022b 67657474 		.ascii	"gett\000"
 4184      00
 4185              	.LASF116:
 4186 0230 6576656E 		.ascii	"event\000"
 4186      7400
 4187              	.LASF72:
 4188 0236 715F7772 		.ascii	"q_wrptr\000"
 4188      70747200 
 4189              	.LASF105:
 4190 023e 504C4C49 		.ascii	"PLLI2SCFGR\000"
 4190      32534346 
 4190      475200
 4191              	.LASF24:
 4192 0249 6D73675F 		.ascii	"msg_t\000"
 4192      7400
 4193              	.LASF119:
 4194 024f 6F717565 		.ascii	"oqueue\000"
 4194      756500
 4195              	.LASF154:
 4196 0256 5F706F72 		.ascii	"_port_irq_epilogue\000"
 4196      745F6972 
 4196      715F6570 
 4196      696C6F67 
 4196      756500
 4197              	.LASF110:
 4198 0269 55534152 		.ascii	"USART_TypeDef\000"
 4198      545F5479 
 4198      70654465 
 4198      6600
 4199              	.LASF128:
 4200 0277 77726974 		.ascii	"writet\000"
ARM GAS  /tmp/cc8zT4AD.s 			page 77


 4200      657400
 4201              	.LASF20:
 4202 027e 746D6F64 		.ascii	"tmode_t\000"
 4202      655F7400 
 4203              	.LASF100:
 4204 0286 41504232 		.ascii	"APB2LPENR\000"
 4204      4C50454E 
 4204      5200
 4205              	.LASF46:
 4206 0290 54687265 		.ascii	"ThreadsList\000"
 4206      6164734C 
 4206      69737400 
 4207              	.LASF25:
 4208 029c 6576656E 		.ascii	"eventmask_t\000"
 4208      746D6173 
 4208      6B5F7400 
 4209              	.LASF138:
 4210 02a8 56656374 		.ascii	"VectorD4\000"
 4210      6F724434 
 4210      00
 4211              	.LASF121:
 4212 02b1 73706565 		.ascii	"speed\000"
 4212      6400
 4213              	.LASF139:
 4214 02b7 56656374 		.ascii	"VectorD8\000"
 4214      6F724438 
 4214      00
 4215              	.LASF76:
 4216 02c0 716E6F74 		.ascii	"qnotify_t\000"
 4216      6966795F 
 4216      7400
 4217              	.LASF67:
 4218 02ca 47656E65 		.ascii	"GenericQueue\000"
 4218      72696351 
 4218      75657565 
 4218      00
 4219              	.LASF140:
 4220 02d7 56656374 		.ascii	"VectorDC\000"
 4220      6F724443 
 4220      00
 4221              	.LASF124:
 4222 02e0 77726974 		.ascii	"write\000"
 4222      6500
 4223              	.LASF126:
 4224 02e6 70757474 		.ascii	"putt\000"
 4224      00
 4225              	.LASF131:
 4226 02eb 75736172 		.ascii	"usart_init\000"
 4226      745F696E 
 4226      697400
 4227              	.LASF50:
 4228 02f6 73697A65 		.ascii	"sizetype\000"
 4228      74797065 
 4228      00
 4229              	.LASF69:
 4230 02ff 715F636F 		.ascii	"q_counter\000"
 4230      756E7465 
ARM GAS  /tmp/cc8zT4AD.s 			page 78


 4230      7200
 4231              	.LASF51:
 4232 0309 4D757465 		.ascii	"Mutex\000"
 4232      7800
 4233              	.LASF29:
 4234 030f 705F6E65 		.ascii	"p_next\000"
 4234      787400
 4235              	.LASF90:
 4236 0316 41484233 		.ascii	"AHB3ENR\000"
 4236      454E5200 
 4237              	.LASF34:
 4238 031e 705F6F6C 		.ascii	"p_older\000"
 4238      64657200 
 4239              	.LASF45:
 4240 0326 54687265 		.ascii	"ThreadsQueue\000"
 4240      61647351 
 4240      75657565 
 4240      00
 4241              	.LASF96:
 4242 0333 41484232 		.ascii	"AHB2LPENR\000"
 4242      4C50454E 
 4242      5200
 4243              	.LASF85:
 4244 033d 41504231 		.ascii	"APB1RSTR\000"
 4244      52535452 
 4244      00
 4245              	.LASF58:
 4246 0346 656C5F6D 		.ascii	"el_mask\000"
 4246      61736B00 
 4247              	.LASF122:
 4248 034e 53657269 		.ascii	"SerialConfig\000"
 4248      616C436F 
 4248      6E666967 
 4248      00
 4249              	.LASF133:
 4250 035b 6E6F7469 		.ascii	"notify1\000"
 4250      66793100 
 4251              	.LASF134:
 4252 0363 6E6F7469 		.ascii	"notify2\000"
 4252      66793200 
 4253              	.LASF135:
 4254 036b 6E6F7469 		.ascii	"notify3\000"
 4254      66793300 
 4255              	.LASF106:
 4256 0373 504C4C53 		.ascii	"PLLSAICFGR\000"
 4256      41494346 
 4256      475200
 4257              	.LASF84:
 4258 037e 52455345 		.ascii	"RESERVED0\000"
 4258      52564544 
 4258      3000
 4259              	.LASF87:
 4260 0388 52455345 		.ascii	"RESERVED1\000"
 4260      52564544 
 4260      3100
 4261              	.LASF91:
 4262 0392 52455345 		.ascii	"RESERVED2\000"
ARM GAS  /tmp/cc8zT4AD.s 			page 79


 4262      52564544 
 4262      3200
 4263              	.LASF94:
 4264 039c 52455345 		.ascii	"RESERVED3\000"
 4264      52564544 
 4264      3300
 4265              	.LASF98:
 4266 03a6 52455345 		.ascii	"RESERVED4\000"
 4266      52564544 
 4266      3400
 4267              	.LASF30:
 4268 03b0 705F7072 		.ascii	"p_prev\000"
 4268      657600
 4269              	.LASF103:
 4270 03b7 52455345 		.ascii	"RESERVED6\000"
 4270      52564544 
 4270      3600
 4271              	.LASF23:
 4272 03c1 74707269 		.ascii	"tprio_t\000"
 4272      6F5F7400 
 4273              	.LASF73:
 4274 03c9 715F7264 		.ascii	"q_rdptr\000"
 4274      70747200 
 4275              	.LASF19:
 4276 03d1 5F426F6F 		.ascii	"_Bool\000"
 4276      6C00
 4277              	.LASF16:
 4278 03d7 696E7433 		.ascii	"int32_t\000"
 4278      325F7400 
 4279              	.LASF4:
 4280 03df 756E7369 		.ascii	"unsigned char\000"
 4280      676E6564 
 4280      20636861 
 4280      7200
 4281              	.LASF142:
 4282 03ed 73645F6C 		.ascii	"sd_lld_start\000"
 4282      6C645F73 
 4282      74617274 
 4282      00
 4283              	.LASF57:
 4284 03fa 656C5F6C 		.ascii	"el_listener\000"
 4284      69737465 
 4284      6E657200 
 4285              	.LASF59:
 4286 0406 656C5F66 		.ascii	"el_flags\000"
 4286      6C616773 
 4286      00
 4287              	.LASF36:
 4288 040f 705F7374 		.ascii	"p_state\000"
 4288      61746500 
 4289              	.LASF43:
 4290 0417 705F6D74 		.ascii	"p_mtxlist\000"
 4290      786C6973 
 4290      7400
 4291              	.LASF5:
 4292 0421 73686F72 		.ascii	"short int\000"
 4292      7420696E 
ARM GAS  /tmp/cc8zT4AD.s 			page 80


 4292      7400
 4293              	.LASF38:
 4294 042b 705F7072 		.ascii	"p_preempt\000"
 4294      65656D70 
 4294      7400
 4295              	.LASF97:
 4296 0435 41484233 		.ascii	"AHB3LPENR\000"
 4296      4C50454E 
 4296      5200
 4297              	.LASF65:
 4298 043f 65776D61 		.ascii	"ewmask\000"
 4298      736B00
 4299              	.LASF37:
 4300 0446 705F666C 		.ascii	"p_flags\000"
 4300      61677300 
 4301              	.LASF56:
 4302 044e 656C5F6E 		.ascii	"el_next\000"
 4302      65787400 
 4303              	.LASF93:
 4304 0456 41504232 		.ascii	"APB2ENR\000"
 4304      454E5200 
 4305              	.LASF83:
 4306 045e 41484233 		.ascii	"AHB3RSTR\000"
 4306      52535452 
 4306      00
 4307              	.LASF28:
 4308 0467 54687265 		.ascii	"Thread\000"
 4308      616400
 4309              	.LASF150:
 4310 046e 474E5520 		.ascii	"GNU C 4.9.3 20150529 (release) [ARM/embedded-4_9-br"
 4310      4320342E 
 4310      392E3320 
 4310      32303135 
 4310      30353239 
 4311 04a1 616E6368 		.ascii	"anch revision 224288] -mcpu=cortex-m4 -mfloat-abi=h"
 4311      20726576 
 4311      6973696F 
 4311      6E203232 
 4311      34323838 
 4312 04d4 61726420 		.ascii	"ard -mfpu=fpv4-sp-d16 -mno-thumb-interwork -mthumb "
 4312      2D6D6670 
 4312      753D6670 
 4312      76342D73 
 4312      702D6431 
 4313 0507 2D676764 		.ascii	"-ggdb -O2 -fomit-frame-pointer -falign-functions=16"
 4313      62202D4F 
 4313      32202D66 
 4313      6F6D6974 
 4313      2D667261 
 4314 053a 202D666E 		.ascii	" -fno-math-errno -fsingle-precision-constant\000"
 4314      6F2D6D61 
 4314      74682D65 
 4314      72726E6F 
 4314      202D6673 
 4315              	.LASF137:
 4316 0567 73657276 		.ascii	"serve_interrupt\000"
 4316      655F696E 
ARM GAS  /tmp/cc8zT4AD.s 			page 81


 4316      74657272 
 4316      75707400 
 4317              	.LASF42:
 4318 0577 705F6570 		.ascii	"p_epending\000"
 4318      656E6469 
 4318      6E6700
 4319              	.LASF111:
 4320 0582 53445F55 		.ascii	"SD_UNINIT\000"
 4320      4E494E49 
 4320      5400
 4321              	.LASF101:
 4322 058c 52455345 		.ascii	"RESERVED5\000"
 4322      52564544 
 4322      3500
 4323              	.LASF17:
 4324 0596 75696E74 		.ascii	"uint32_t\000"
 4324      33325F74 
 4324      00
 4325              	.LASF115:
 4326 059f 53657269 		.ascii	"SerialDriver\000"
 4326      616C4472 
 4326      69766572 
 4326      00
 4327              	.LASF155:
 4328 05ac 6E766963 		.ascii	"nvicDisableVector\000"
 4328      44697361 
 4328      626C6556 
 4328      6563746F 
 4328      7200
 4329              	.LASF11:
 4330 05be 6C6F6E67 		.ascii	"long unsigned int\000"
 4330      20756E73 
 4330      69676E65 
 4330      6420696E 
 4330      7400
 4331              	.LASF125:
 4332 05d0 72656164 		.ascii	"read\000"
 4332      00
 4333              	.LASF66:
 4334 05d5 63686172 		.ascii	"char\000"
 4334      00
 4335              	.LASF147:
 4336 05da 7364496E 		.ascii	"sdIncomingDataI\000"
 4336      636F6D69 
 4336      6E674461 
 4336      74614900 
 4337              	.LASF130:
 4338 05ea 636F6E66 		.ascii	"config\000"
 4338      696700
 4339              	.LASF6:
 4340 05f1 5F5F7569 		.ascii	"__uint16_t\000"
 4340      6E743136 
 4340      5F7400
 4341              	.LASF82:
 4342 05fc 41484232 		.ascii	"AHB2RSTR\000"
 4342      52535452 
 4342      00
ARM GAS  /tmp/cc8zT4AD.s 			page 82


 4343              	.LASF54:
 4344 0605 6D5F6E65 		.ascii	"m_next\000"
 4344      787400
 4345              	.LASF27:
 4346 060c 73797374 		.ascii	"systime_t\000"
 4346      696D655F 
 4346      7400
 4347              	.LASF44:
 4348 0616 705F7265 		.ascii	"p_realprio\000"
 4348      616C7072 
 4348      696F00
 4349              	.LASF8:
 4350 0621 5F5F696E 		.ascii	"__int32_t\000"
 4350      7433325F 
 4350      7400
 4351              	.LASF92:
 4352 062b 41504231 		.ascii	"APB1ENR\000"
 4352      454E5200 
 4353              	.LASF89:
 4354 0633 41484232 		.ascii	"AHB2ENR\000"
 4354      454E5200 
 4355              	.LASF49:
 4356 063b 636F6E74 		.ascii	"context\000"
 4356      65787400 
 4357              	.LASF48:
 4358 0643 696E7463 		.ascii	"intctx\000"
 4358      747800
 4359              	.LASF113:
 4360 064a 53445F52 		.ascii	"SD_READY\000"
 4360      45414459 
 4360      00
 4361              	.LASF26:
 4362 0653 666C6167 		.ascii	"flagsmask_t\000"
 4362      736D6173 
 4362      6B5F7400 
 4363              	.LASF104:
 4364 065f 53534347 		.ascii	"SSCGR\000"
 4364      5200
 4365              	.LASF71:
 4366 0665 715F746F 		.ascii	"q_top\000"
 4366      7000
 4367              	.LASF35:
 4368 066b 705F6E61 		.ascii	"p_name\000"
 4368      6D6500
 4369              	.LASF61:
 4370 0672 65735F6E 		.ascii	"es_next\000"
 4370      65787400 
 4371              	.LASF102:
 4372 067a 42444352 		.ascii	"BDCR\000"
 4372      00
 4373              	.LASF74:
 4374 067f 715F6E6F 		.ascii	"q_notify\000"
 4374      74696679 
 4374      00
 4375              	.LASF14:
 4376 0688 75696E74 		.ascii	"uint8_t\000"
 4376      385F7400 
ARM GAS  /tmp/cc8zT4AD.s 			page 83


 4377              	.LASF77:
 4378 0690 496E7075 		.ascii	"InputQueue\000"
 4378      74517565 
 4378      756500
 4379              	.LASF31:
 4380 069b 705F7072 		.ascii	"p_prio\000"
 4380      696F00
 4381              	.LASF55:
 4382 06a2 4576656E 		.ascii	"EventListener\000"
 4382      744C6973 
 4382      74656E65 
 4382      7200
 4383              	.LASF64:
 4384 06b0 77746F62 		.ascii	"wtobjp\000"
 4384      6A7000
 4385              	.LASF88:
 4386 06b7 41484231 		.ascii	"AHB1ENR\000"
 4386      454E5200 
 4387              	.LASF118:
 4388 06bf 69717565 		.ascii	"iqueue\000"
 4388      756500
 4389              	.LASF80:
 4390 06c6 43464752 		.ascii	"CFGR\000"
 4390      00
 4391              	.LASF151:
 4392 06cb 2F686F6D 		.ascii	"/home/sbcu/Dropbox/pcb-layouts/axo-on-discovery-boa"
 4392      652F7362 
 4392      63752F44 
 4392      726F7062 
 4392      6F782F70 
 4393 06fe 72642F61 		.ascii	"rd/axoloti/platform_linux/../chibios/os/hal/platfor"
 4393      786F6C6F 
 4393      74692F70 
 4393      6C617466 
 4393      6F726D5F 
 4394 0731 6D732F53 		.ascii	"ms/STM32/USARTv1/serial_lld.c\000"
 4394      544D3332 
 4394      2F555341 
 4394      52547631 
 4394      2F736572 
 4395              	.LASF41:
 4396 074f 705F6D73 		.ascii	"p_msg\000"
 4396      6700
 4397              	.LASF143:
 4398 0755 73645F6C 		.ascii	"sd_lld_stop\000"
 4398      6C645F73 
 4398      746F7000 
 4399              	.LASF75:
 4400 0761 715F6C69 		.ascii	"q_link\000"
 4400      6E6B00
 4401              	.LASF53:
 4402 0768 6D5F6F77 		.ascii	"m_owner\000"
 4402      6E657200 
 4403              	.LASF114:
 4404 0770 73647374 		.ascii	"sdstate_t\000"
 4404      6174655F 
 4404      7400
ARM GAS  /tmp/cc8zT4AD.s 			page 84


 4405              	.LASF32:
 4406 077a 705F6374 		.ascii	"p_ctx\000"
 4406      7800
 4407              	.LASF39:
 4408 0780 705F7761 		.ascii	"p_waiting\000"
 4408      6974696E 
 4408      6700
 4409              		.ident	"GCC: (GNU Tools for ARM Embedded Processors) 4.9.3 20150529 (release) [ARM/embedded-4_9-br
ARM GAS  /tmp/cc8zT4AD.s 			page 85


DEFINED SYMBOLS
                            *ABS*:00000000 serial_lld.c
     /tmp/cc8zT4AD.s:20     .text:00000000 $t
     /tmp/cc8zT4AD.s:25     .text:00000000 notify1
     /tmp/cc8zT4AD.s:44     .text:00000010 $d
     /tmp/cc8zT4AD.s:48     .text:00000014 $t
     /tmp/cc8zT4AD.s:53     .text:00000020 notify2
     /tmp/cc8zT4AD.s:71     .text:00000030 $d
     /tmp/cc8zT4AD.s:75     .text:00000034 $t
     /tmp/cc8zT4AD.s:80     .text:00000040 notify3
     /tmp/cc8zT4AD.s:98     .text:00000050 $d
     /tmp/cc8zT4AD.s:102    .text:00000054 $t
     /tmp/cc8zT4AD.s:107    .text:00000060 serve_interrupt
     /tmp/cc8zT4AD.s:397    .text:00000180 VectorD4
     /tmp/cc8zT4AD.s:422    .text:00000190 $d
                            *COM*:00000098 SD1
     /tmp/cc8zT4AD.s:426    .text:00000194 $t
     /tmp/cc8zT4AD.s:432    .text:000001a0 VectorD8
     /tmp/cc8zT4AD.s:457    .text:000001b0 $d
                            *COM*:00000098 SD2
     /tmp/cc8zT4AD.s:461    .text:000001b4 $t
     /tmp/cc8zT4AD.s:467    .text:000001c0 VectorDC
     /tmp/cc8zT4AD.s:492    .text:000001d0 $d
                            *COM*:00000098 SD3
     /tmp/cc8zT4AD.s:496    .text:000001d4 $t
     /tmp/cc8zT4AD.s:502    .text:000001e0 sd_lld_init
     /tmp/cc8zT4AD.s:556    .text:0000021c $d
     /tmp/cc8zT4AD.s:568    .text:00000240 $t
     /tmp/cc8zT4AD.s:574    .text:00000240 sd_lld_start
     /tmp/cc8zT4AD.s:731    .text:000002f8 $d
     /tmp/cc8zT4AD.s:742    .text:00000318 $t
     /tmp/cc8zT4AD.s:748    .text:00000320 sd_lld_stop
     /tmp/cc8zT4AD.s:833    .text:00000378 $d
     /tmp/cc8zT4AD.s:844    .rodata:00000000 $d
     /tmp/cc8zT4AD.s:848    .rodata:00000000 default_config
                     .debug_frame:00000010 $d

UNDEFINED SYMBOLS
chEvtBroadcastFlagsI
sdIncomingDataI
chOQGetI
_port_irq_epilogue
sdObjectInit
nvicEnableVector
nvicDisableVector
