ARM GAS  /tmp/ccghdKPJ.s 			page 1


   1              		.syntax unified
   2              		.cpu cortex-m4
   3              		.eabi_attribute 27, 1
   4              		.eabi_attribute 28, 1
   5              		.fpu fpv4-sp-d16
   6              		.eabi_attribute 20, 1
   7              		.eabi_attribute 21, 1
   8              		.eabi_attribute 23, 3
   9              		.eabi_attribute 24, 1
  10              		.eabi_attribute 25, 1
  11              		.eabi_attribute 26, 1
  12              		.eabi_attribute 30, 2
  13              		.eabi_attribute 34, 1
  14              		.eabi_attribute 18, 4
  15              		.thumb
  16              		.file	"serial.c"
  17              		.text
  18              	.Ltext0:
  19              		.cfi_sections	.debug_frame
  20              		.align	2
  21              		.p2align 4,,15
  22              		.thumb
  23              		.thumb_func
  24              		.type	readt, %function
  25              	readt:
  26              	.LFB137:
  27              		.file 1 "/d_drive/axoloti/platform_linux/../chibios/os/hal/src/serial.c"
  28              		.loc 1 99 0
  29              		.cfi_startproc
  30              		@ args = 0, pretend = 0, frame = 0
  31              		@ frame_needed = 0, uses_anonymous_args = 0
  32              		@ link register save eliminated.
  33              	.LVL0:
  34              		.loc 1 101 0
  35 0000 0C30     		adds	r0, r0, #12
  36              	.LVL1:
  37 0002 FFF7FEBF 		b	chIQReadTimeout
  38              	.LVL2:
  39              		.cfi_endproc
  40              	.LFE137:
  41              		.size	readt, .-readt
  42 0006 00BF     		.align	2
  43 0008 AFF30080 		.p2align 4,,15
  43      AFF30080 
  44              		.thumb
  45              		.thumb_func
  46              		.type	read, %function
  47              	read:
  48              	.LFB131:
  49              		.loc 1 68 0
  50              		.cfi_startproc
  51              		@ args = 0, pretend = 0, frame = 0
  52              		@ frame_needed = 0, uses_anonymous_args = 0
  53              		@ link register save eliminated.
  54              	.LVL3:
  55              		.loc 1 70 0
  56 0010 0C30     		adds	r0, r0, #12
ARM GAS  /tmp/ccghdKPJ.s 			page 2


  57              	.LVL4:
  58 0012 4FF0FF33 		mov	r3, #-1
  59 0016 FFF7FEBF 		b	chIQReadTimeout
  60              	.LVL5:
  61              		.cfi_endproc
  62              	.LFE131:
  63              		.size	read, .-read
  64 001a 00BF     		.align	2
  65 001c AFF30080 		.p2align 4,,15
  66              		.thumb
  67              		.thumb_func
  68              		.type	writet, %function
  69              	writet:
  70              	.LFB136:
  71              		.loc 1 94 0
  72              		.cfi_startproc
  73              		@ args = 0, pretend = 0, frame = 0
  74              		@ frame_needed = 0, uses_anonymous_args = 0
  75              		@ link register save eliminated.
  76              	.LVL6:
  77              		.loc 1 96 0
  78 0020 3030     		adds	r0, r0, #48
  79              	.LVL7:
  80 0022 FFF7FEBF 		b	chOQWriteTimeout
  81              	.LVL8:
  82              		.cfi_endproc
  83              	.LFE136:
  84              		.size	writet, .-writet
  85 0026 00BF     		.align	2
  86 0028 AFF30080 		.p2align 4,,15
  86      AFF30080 
  87              		.thumb
  88              		.thumb_func
  89              		.type	write, %function
  90              	write:
  91              	.LFB130:
  92              		.loc 1 62 0
  93              		.cfi_startproc
  94              		@ args = 0, pretend = 0, frame = 0
  95              		@ frame_needed = 0, uses_anonymous_args = 0
  96              		@ link register save eliminated.
  97              	.LVL9:
  98              		.loc 1 64 0
  99 0030 3030     		adds	r0, r0, #48
 100              	.LVL10:
 101 0032 4FF0FF33 		mov	r3, #-1
 102 0036 FFF7FEBF 		b	chOQWriteTimeout
 103              	.LVL11:
 104              		.cfi_endproc
 105              	.LFE130:
 106              		.size	write, .-write
 107 003a 00BF     		.align	2
 108 003c AFF30080 		.p2align 4,,15
 109              		.thumb
 110              		.thumb_func
 111              		.type	gett, %function
 112              	gett:
ARM GAS  /tmp/ccghdKPJ.s 			page 3


 113              	.LFB135:
 114              		.loc 1 89 0
 115              		.cfi_startproc
 116              		@ args = 0, pretend = 0, frame = 0
 117              		@ frame_needed = 0, uses_anonymous_args = 0
 118              		@ link register save eliminated.
 119              	.LVL12:
 120              		.loc 1 91 0
 121 0040 0C30     		adds	r0, r0, #12
 122              	.LVL13:
 123 0042 FFF7FEBF 		b	chIQGetTimeout
 124              	.LVL14:
 125              		.cfi_endproc
 126              	.LFE135:
 127              		.size	gett, .-gett
 128 0046 00BF     		.align	2
 129 0048 AFF30080 		.p2align 4,,15
 129      AFF30080 
 130              		.thumb
 131              		.thumb_func
 132              		.type	get, %function
 133              	get:
 134              	.LFB133:
 135              		.loc 1 79 0
 136              		.cfi_startproc
 137              		@ args = 0, pretend = 0, frame = 0
 138              		@ frame_needed = 0, uses_anonymous_args = 0
 139              		@ link register save eliminated.
 140              	.LVL15:
 141              		.loc 1 81 0
 142 0050 0C30     		adds	r0, r0, #12
 143              	.LVL16:
 144 0052 4FF0FF31 		mov	r1, #-1
 145 0056 FFF7FEBF 		b	chIQGetTimeout
 146              	.LVL17:
 147              		.cfi_endproc
 148              	.LFE133:
 149              		.size	get, .-get
 150 005a 00BF     		.align	2
 151 005c AFF30080 		.p2align 4,,15
 152              		.thumb
 153              		.thumb_func
 154              		.type	putt, %function
 155              	putt:
 156              	.LFB134:
 157              		.loc 1 84 0
 158              		.cfi_startproc
 159              		@ args = 0, pretend = 0, frame = 0
 160              		@ frame_needed = 0, uses_anonymous_args = 0
 161              		@ link register save eliminated.
 162              	.LVL18:
 163              		.loc 1 86 0
 164 0060 3030     		adds	r0, r0, #48
 165              	.LVL19:
 166 0062 FFF7FEBF 		b	chOQPutTimeout
 167              	.LVL20:
 168              		.cfi_endproc
ARM GAS  /tmp/ccghdKPJ.s 			page 4


 169              	.LFE134:
 170              		.size	putt, .-putt
 171 0066 00BF     		.align	2
 172 0068 AFF30080 		.p2align 4,,15
 172      AFF30080 
 173              		.thumb
 174              		.thumb_func
 175              		.type	put, %function
 176              	put:
 177              	.LFB132:
 178              		.loc 1 74 0
 179              		.cfi_startproc
 180              		@ args = 0, pretend = 0, frame = 0
 181              		@ frame_needed = 0, uses_anonymous_args = 0
 182              		@ link register save eliminated.
 183              	.LVL21:
 184              		.loc 1 76 0
 185 0070 3030     		adds	r0, r0, #48
 186              	.LVL22:
 187 0072 4FF0FF32 		mov	r2, #-1
 188 0076 FFF7FEBF 		b	chOQPutTimeout
 189              	.LVL23:
 190              		.cfi_endproc
 191              	.LFE132:
 192              		.size	put, .-put
 193 007a 00BF     		.align	2
 194 007c AFF30080 		.p2align 4,,15
 195              		.global	sdInit
 196              		.thumb
 197              		.thumb_func
 198              		.type	sdInit, %function
 199              	sdInit:
 200              	.LFB138:
 201              		.loc 1 120 0
 202              		.cfi_startproc
 203              		@ args = 0, pretend = 0, frame = 0
 204              		@ frame_needed = 0, uses_anonymous_args = 0
 205              		@ link register save eliminated.
 206              		.loc 1 122 0
 207 0080 FFF7FEBF 		b	sd_lld_init
 208              	.LVL24:
 209              		.cfi_endproc
 210              	.LFE138:
 211              		.size	sdInit, .-sdInit
 212              		.align	2
 213 0084 AFF30080 		.p2align 4,,15
 213      AFF30080 
 213      AFF30080 
 214              		.global	sdObjectInit
 215              		.thumb
 216              		.thumb_func
 217              		.type	sdObjectInit, %function
 218              	sdObjectInit:
 219              	.LFB139:
 220              		.loc 1 140 0
 221              		.cfi_startproc
 222              		@ args = 0, pretend = 0, frame = 0
ARM GAS  /tmp/ccghdKPJ.s 			page 5


 223              		@ frame_needed = 0, uses_anonymous_args = 0
 224              	.LVL25:
 225 0090 70B5     		push	{r4, r5, r6, lr}
 226              		.cfi_def_cfa_offset 16
 227              		.cfi_offset 4, -16
 228              		.cfi_offset 5, -12
 229              		.cfi_offset 6, -8
 230              		.cfi_offset 14, -4
 231              		.loc 1 142 0
 232 0092 0E4B     		ldr	r3, .L12
 233              		.loc 1 140 0
 234 0094 0446     		mov	r4, r0
 235 0096 82B0     		sub	sp, sp, #8
 236              		.cfi_def_cfa_offset 24
 237              		.loc 1 142 0
 238 0098 40F8043B 		str	r3, [r0], #4
 239              	.LVL26:
 240              		.loc 1 144 0
 241 009c 0126     		movs	r6, #1
 242              		.loc 1 145 0
 243 009e 0094     		str	r4, [sp]
 244              		.loc 1 140 0
 245 00a0 0B46     		mov	r3, r1
 246 00a2 1546     		mov	r5, r2
 247              		.loc 1 143 0
 248 00a4 6060     		str	r0, [r4, #4]
 249              		.loc 1 145 0
 250 00a6 04F15401 		add	r1, r4, #84
 251              	.LVL27:
 252 00aa 04F10C00 		add	r0, r4, #12
 253              		.loc 1 144 0
 254 00ae 2672     		strb	r6, [r4, #8]
 255              		.loc 1 145 0
 256 00b0 2022     		movs	r2, #32
 257              	.LVL28:
 258 00b2 FFF7FEFF 		bl	chIQInit
 259              	.LVL29:
 260              		.loc 1 146 0
 261 00b6 0094     		str	r4, [sp]
 262 00b8 2B46     		mov	r3, r5
 263 00ba 04F13000 		add	r0, r4, #48
 264 00be 04F17401 		add	r1, r4, #116
 265 00c2 2022     		movs	r2, #32
 266 00c4 FFF7FEFF 		bl	chOQInit
 267              	.LVL30:
 268              		.loc 1 147 0
 269 00c8 02B0     		add	sp, sp, #8
 270              		.cfi_def_cfa_offset 16
 271              		@ sp needed
 272 00ca 70BD     		pop	{r4, r5, r6, pc}
 273              	.LVL31:
 274              	.L13:
 275              		.align	2
 276              	.L12:
 277 00cc 00000000 		.word	.LANCHOR0
 278              		.cfi_endproc
 279              	.LFE139:
ARM GAS  /tmp/ccghdKPJ.s 			page 6


 280              		.size	sdObjectInit, .-sdObjectInit
 281              		.align	2
 282              		.p2align 4,,15
 283              		.global	sdStart
 284              		.thumb
 285              		.thumb_func
 286              		.type	sdStart, %function
 287              	sdStart:
 288              	.LFB140:
 289              		.loc 1 159 0
 290              		.cfi_startproc
 291              		@ args = 0, pretend = 0, frame = 0
 292              		@ frame_needed = 0, uses_anonymous_args = 0
 293              	.LVL32:
 294 00d0 10B5     		push	{r4, lr}
 295              		.cfi_def_cfa_offset 8
 296              		.cfi_offset 4, -8
 297              		.cfi_offset 14, -4
 298              	.LBB2:
 299              		.loc 1 163 0
 300 00d2 2023     		movs	r3, #32
 301              	.LBE2:
 302              		.loc 1 159 0
 303 00d4 0446     		mov	r4, r0
 304              	.LBB3:
 305              		.loc 1 163 0
 306              	@ 163 "/d_drive/axoloti/platform_linux/../chibios/os/hal/src/serial.c" 1
 307 00d6 83F31188 		msr     BASEPRI, r3
 308              	@ 0 "" 2
 309              		.thumb
 310              	.LBE3:
 311              		.loc 1 167 0
 312 00da FFF7FEFF 		bl	sd_lld_start
 313              	.LVL33:
 314              		.loc 1 168 0
 315 00de 0223     		movs	r3, #2
 316 00e0 2372     		strb	r3, [r4, #8]
 317              	.LBB4:
 318              		.loc 1 169 0
 319 00e2 0023     		movs	r3, #0
 320              	@ 169 "/d_drive/axoloti/platform_linux/../chibios/os/hal/src/serial.c" 1
 321 00e4 83F31188 		msr     BASEPRI, r3
 322              	@ 0 "" 2
 323              		.thumb
 324 00e8 10BD     		pop	{r4, pc}
 325              	.LBE4:
 326              		.cfi_endproc
 327              	.LFE140:
 328              		.size	sdStart, .-sdStart
 329 00ea 00BF     		.align	2
 330 00ec AFF30080 		.p2align 4,,15
 331              		.global	sdStop
 332              		.thumb
 333              		.thumb_func
 334              		.type	sdStop, %function
 335              	sdStop:
 336              	.LFB141:
ARM GAS  /tmp/ccghdKPJ.s 			page 7


 337              		.loc 1 181 0
 338              		.cfi_startproc
 339              		@ args = 0, pretend = 0, frame = 0
 340              		@ frame_needed = 0, uses_anonymous_args = 0
 341              	.LVL34:
 342 00f0 10B5     		push	{r4, lr}
 343              		.cfi_def_cfa_offset 8
 344              		.cfi_offset 4, -8
 345              		.cfi_offset 14, -4
 346              	.LBB5:
 347              		.loc 1 185 0
 348 00f2 2023     		movs	r3, #32
 349              	.LBE5:
 350              		.loc 1 181 0
 351 00f4 0446     		mov	r4, r0
 352              	.LBB6:
 353              		.loc 1 185 0
 354              	@ 185 "/d_drive/axoloti/platform_linux/../chibios/os/hal/src/serial.c" 1
 355 00f6 83F31188 		msr     BASEPRI, r3
 356              	@ 0 "" 2
 357              		.thumb
 358              	.LBE6:
 359              		.loc 1 189 0
 360 00fa FFF7FEFF 		bl	sd_lld_stop
 361              	.LVL35:
 362              		.loc 1 190 0
 363 00fe 0123     		movs	r3, #1
 364 0100 2372     		strb	r3, [r4, #8]
 365              		.loc 1 191 0
 366 0102 04F13000 		add	r0, r4, #48
 367 0106 FFF7FEFF 		bl	chOQResetI
 368              	.LVL36:
 369              		.loc 1 192 0
 370 010a 04F10C00 		add	r0, r4, #12
 371 010e FFF7FEFF 		bl	chIQResetI
 372              	.LVL37:
 373              		.loc 1 193 0
 374 0112 FFF7FEFF 		bl	chSchRescheduleS
 375              	.LVL38:
 376              	.LBB7:
 377              		.loc 1 194 0
 378 0116 0023     		movs	r3, #0
 379              	@ 194 "/d_drive/axoloti/platform_linux/../chibios/os/hal/src/serial.c" 1
 380 0118 83F31188 		msr     BASEPRI, r3
 381              	@ 0 "" 2
 382              		.thumb
 383 011c 10BD     		pop	{r4, pc}
 384              	.LBE7:
 385              		.cfi_endproc
 386              	.LFE141:
 387              		.size	sdStop, .-sdStop
 388 011e 00BF     		.align	2
 389              		.p2align 4,,15
 390              		.global	sdIncomingDataI
 391              		.thumb
 392              		.thumb_func
 393              		.type	sdIncomingDataI, %function
ARM GAS  /tmp/ccghdKPJ.s 			page 8


 394              	sdIncomingDataI:
 395              	.LFB142:
 396              		.loc 1 213 0
 397              		.cfi_startproc
 398              		@ args = 0, pretend = 0, frame = 0
 399              		@ frame_needed = 0, uses_anonymous_args = 0
 400              	.LVL39:
 401 0120 38B5     		push	{r3, r4, r5, lr}
 402              		.cfi_def_cfa_offset 16
 403              		.cfi_offset 3, -16
 404              		.cfi_offset 4, -12
 405              		.cfi_offset 5, -8
 406              		.cfi_offset 14, -4
 407              		.loc 1 218 0
 408 0122 4369     		ldr	r3, [r0, #20]
 409              		.loc 1 213 0
 410 0124 0446     		mov	r4, r0
 411 0126 0D46     		mov	r5, r1
 412              		.loc 1 218 0
 413 0128 3BB1     		cbz	r3, .L23
 414              		.loc 1 220 0
 415 012a 2946     		mov	r1, r5
 416              	.LVL40:
 417 012c 04F10C00 		add	r0, r4, #12
 418              	.LVL41:
 419 0130 FFF7FEFF 		bl	chIQPutI
 420              	.LVL42:
 421 0134 0028     		cmp	r0, #0
 422 0136 0BDB     		blt	.L24
 423              	.L18:
 424 0138 38BD     		pop	{r3, r4, r5, pc}
 425              	.LVL43:
 426              	.L23:
 427              		.loc 1 219 0
 428 013a 0430     		adds	r0, r0, #4
 429              	.LVL44:
 430 013c 0421     		movs	r1, #4
 431              	.LVL45:
 432 013e FFF7FEFF 		bl	chEvtBroadcastFlagsI
 433              	.LVL46:
 434              		.loc 1 220 0
 435 0142 2946     		mov	r1, r5
 436 0144 04F10C00 		add	r0, r4, #12
 437 0148 FFF7FEFF 		bl	chIQPutI
 438              	.LVL47:
 439 014c 0028     		cmp	r0, #0
 440 014e F3DA     		bge	.L18
 441              	.L24:
 442              		.loc 1 221 0
 443 0150 201D     		adds	r0, r4, #4
 444 0152 8021     		movs	r1, #128
 445              		.loc 1 222 0
 446 0154 BDE83840 		pop	{r3, r4, r5, lr}
 447              		.cfi_restore 14
 448              		.cfi_restore 5
 449              		.cfi_restore 4
 450              		.cfi_restore 3
ARM GAS  /tmp/ccghdKPJ.s 			page 9


 451              		.cfi_def_cfa_offset 0
 452              	.LVL48:
 453              		.loc 1 221 0
 454 0158 FFF7FEBF 		b	chEvtBroadcastFlagsI
 455              	.LVL49:
 456              		.cfi_endproc
 457              	.LFE142:
 458              		.size	sdIncomingDataI, .-sdIncomingDataI
 459              		.align	2
 460 015c AFF30080 		.p2align 4,,15
 461              		.global	sdRequestDataI
 462              		.thumb
 463              		.thumb_func
 464              		.type	sdRequestDataI, %function
 465              	sdRequestDataI:
 466              	.LFB143:
 467              		.loc 1 239 0
 468              		.cfi_startproc
 469              		@ args = 0, pretend = 0, frame = 0
 470              		@ frame_needed = 0, uses_anonymous_args = 0
 471              	.LVL50:
 472 0160 38B5     		push	{r3, r4, r5, lr}
 473              		.cfi_def_cfa_offset 16
 474              		.cfi_offset 3, -16
 475              		.cfi_offset 4, -12
 476              		.cfi_offset 5, -8
 477              		.cfi_offset 14, -4
 478              		.loc 1 239 0
 479 0162 0446     		mov	r4, r0
 480              		.loc 1 245 0
 481 0164 3030     		adds	r0, r0, #48
 482              	.LVL51:
 483 0166 FFF7FEFF 		bl	chOQGetI
 484              	.LVL52:
 485              		.loc 1 246 0
 486 016a 051E     		subs	r5, r0, #0
 487 016c 01DB     		blt	.L28
 488              		.loc 1 249 0
 489 016e 2846     		mov	r0, r5
 490 0170 38BD     		pop	{r3, r4, r5, pc}
 491              	.LVL53:
 492              	.L28:
 493              		.loc 1 247 0
 494 0172 201D     		adds	r0, r4, #4
 495              	.LVL54:
 496 0174 0821     		movs	r1, #8
 497 0176 FFF7FEFF 		bl	chEvtBroadcastFlagsI
 498              	.LVL55:
 499              		.loc 1 249 0
 500 017a 2846     		mov	r0, r5
 501 017c 38BD     		pop	{r3, r4, r5, pc}
 502              		.cfi_endproc
 503              	.LFE143:
 504              		.size	sdRequestDataI, .-sdRequestDataI
 505              		.section	.rodata
 506              		.align	2
 507              		.set	.LANCHOR0,. + 0
ARM GAS  /tmp/ccghdKPJ.s 			page 10


 508              		.type	vmt, %object
 509              		.size	vmt, 32
 510              	vmt:
 511 0000 00000000 		.word	write
 512 0004 00000000 		.word	read
 513 0008 00000000 		.word	put
 514 000c 00000000 		.word	get
 515 0010 00000000 		.word	putt
 516 0014 00000000 		.word	gett
 517 0018 00000000 		.word	writet
 518 001c 00000000 		.word	readt
 519              		.text
 520              	.Letext0:
 521              		.file 2 "/d_drive/axoloti/platform_linux/lib/gcc/arm-none-eabi/4.9.3/include/stddef.h"
 522              		.file 3 "/d_drive/axoloti/platform_linux/arm-none-eabi/include/machine/_default_types.h"
 523              		.file 4 "/d_drive/axoloti/platform_linux/arm-none-eabi/include/sys/_stdint.h"
 524              		.file 5 "/d_drive/axoloti/platform_linux/../chibios/os/ports/GCC/ARMCMx/chtypes.h"
 525              		.file 6 "/d_drive/axoloti/platform_linux/../chibios/os/kernel/include/chlists.h"
 526              		.file 7 "/d_drive/axoloti/platform_linux/../chibios/os/kernel/include/chthreads.h"
 527              		.file 8 "/d_drive/axoloti/platform_linux/../chibios/os/ports/GCC/ARMCMx/chcore_v7m.h"
 528              		.file 9 "/d_drive/axoloti/platform_linux/../chibios/os/kernel/include/chmtx.h"
 529              		.file 10 "/d_drive/axoloti/platform_linux/../chibios/os/kernel/include/chevents.h"
 530              		.file 11 "/d_drive/axoloti/platform_linux/../chibios/os/kernel/include/chqueues.h"
 531              		.file 12 "/d_drive/axoloti/platform_linux/../chibios/os/hal/platforms/STM32F4xx/stm32f4xx.h"
 532              		.file 13 "/d_drive/axoloti/platform_linux/../chibios/os/hal/include/serial.h"
 533              		.file 14 "/d_drive/axoloti/platform_linux/../chibios/os/hal/platforms/STM32/USARTv1/serial_lld.h"
 534              		.file 15 "/d_drive/axoloti/platform_linux/../chibios/os/kernel/include/chschd.h"
 535              		.file 16 "/d_drive/axoloti/platform_linux/../CMSIS//Include/core_cm4.h"
 536 017e 00BF     		.section	.debug_info,"",%progbits
 537              	.Ldebug_info0:
 538 0000 58100000 		.4byte	0x1058
 539 0004 0400     		.2byte	0x4
 540 0006 00000000 		.4byte	.Ldebug_abbrev0
 541 000a 04       		.byte	0x4
 542 000b 01       		.uleb128 0x1
 543 000c EB030000 		.4byte	.LASF132
 544 0010 01       		.byte	0x1
 545 0011 B7020000 		.4byte	.LASF133
 546 0015 55020000 		.4byte	.LASF134
 547 0019 00000000 		.4byte	.Ltext0
 548 001d 7E010000 		.4byte	.Letext0-.Ltext0
 549 0021 00000000 		.4byte	.Ldebug_line0
 550 0025 02       		.uleb128 0x2
 551 0026 04       		.byte	0x4
 552 0027 05       		.byte	0x5
 553 0028 696E7400 		.ascii	"int\000"
 554 002c 03       		.uleb128 0x3
 555 002d 0F000000 		.4byte	.LASF2
 556 0031 02       		.byte	0x2
 557 0032 D4       		.byte	0xd4
 558 0033 37000000 		.4byte	0x37
 559 0037 04       		.uleb128 0x4
 560 0038 04       		.byte	0x4
 561 0039 07       		.byte	0x7
 562 003a 77010000 		.4byte	.LASF0
 563 003e 04       		.uleb128 0x4
 564 003f 01       		.byte	0x1
ARM GAS  /tmp/ccghdKPJ.s 			page 11


 565 0040 06       		.byte	0x6
 566 0041 9B000000 		.4byte	.LASF1
 567 0045 03       		.uleb128 0x3
 568 0046 29000000 		.4byte	.LASF3
 569 004a 03       		.byte	0x3
 570 004b 1D       		.byte	0x1d
 571 004c 50000000 		.4byte	0x50
 572 0050 04       		.uleb128 0x4
 573 0051 01       		.byte	0x1
 574 0052 08       		.byte	0x8
 575 0053 70030000 		.4byte	.LASF4
 576 0057 04       		.uleb128 0x4
 577 0058 02       		.byte	0x2
 578 0059 05       		.byte	0x5
 579 005a B2030000 		.4byte	.LASF5
 580 005e 03       		.uleb128 0x3
 581 005f 54050000 		.4byte	.LASF6
 582 0063 03       		.byte	0x3
 583 0064 2B       		.byte	0x2b
 584 0065 69000000 		.4byte	0x69
 585 0069 04       		.uleb128 0x4
 586 006a 02       		.byte	0x2
 587 006b 07       		.byte	0x7
 588 006c 24010000 		.4byte	.LASF7
 589 0070 03       		.uleb128 0x3
 590 0071 7B050000 		.4byte	.LASF8
 591 0075 03       		.byte	0x3
 592 0076 3F       		.byte	0x3f
 593 0077 7B000000 		.4byte	0x7b
 594 007b 04       		.uleb128 0x4
 595 007c 04       		.byte	0x4
 596 007d 05       		.byte	0x5
 597 007e DC000000 		.4byte	.LASF9
 598 0082 03       		.uleb128 0x3
 599 0083 48010000 		.4byte	.LASF10
 600 0087 03       		.byte	0x3
 601 0088 41       		.byte	0x41
 602 0089 8D000000 		.4byte	0x8d
 603 008d 04       		.uleb128 0x4
 604 008e 04       		.byte	0x4
 605 008f 07       		.byte	0x7
 606 0090 19050000 		.4byte	.LASF11
 607 0094 04       		.uleb128 0x4
 608 0095 08       		.byte	0x8
 609 0096 05       		.byte	0x5
 610 0097 8D000000 		.4byte	.LASF12
 611 009b 04       		.uleb128 0x4
 612 009c 08       		.byte	0x8
 613 009d 07       		.byte	0x7
 614 009e 43000000 		.4byte	.LASF13
 615 00a2 03       		.uleb128 0x3
 616 00a3 EB050000 		.4byte	.LASF14
 617 00a7 04       		.byte	0x4
 618 00a8 14       		.byte	0x14
 619 00a9 45000000 		.4byte	0x45
 620 00ad 03       		.uleb128 0x3
 621 00ae 84010000 		.4byte	.LASF15
ARM GAS  /tmp/ccghdKPJ.s 			page 12


 622 00b2 04       		.byte	0x4
 623 00b3 1A       		.byte	0x1a
 624 00b4 5E000000 		.4byte	0x5e
 625 00b8 03       		.uleb128 0x3
 626 00b9 68030000 		.4byte	.LASF16
 627 00bd 04       		.byte	0x4
 628 00be 1F       		.byte	0x1f
 629 00bf 70000000 		.4byte	0x70
 630 00c3 03       		.uleb128 0x3
 631 00c4 03050000 		.4byte	.LASF17
 632 00c8 04       		.byte	0x4
 633 00c9 20       		.byte	0x20
 634 00ca 82000000 		.4byte	0x82
 635 00ce 03       		.uleb128 0x3
 636 00cf B4000000 		.4byte	.LASF18
 637 00d3 05       		.byte	0x5
 638 00d4 2B       		.byte	0x2b
 639 00d5 D9000000 		.4byte	0xd9
 640 00d9 04       		.uleb128 0x4
 641 00da 01       		.byte	0x1
 642 00db 02       		.byte	0x2
 643 00dc 62030000 		.4byte	.LASF19
 644 00e0 03       		.uleb128 0x3
 645 00e1 FC010000 		.4byte	.LASF20
 646 00e5 05       		.byte	0x5
 647 00e6 2C       		.byte	0x2c
 648 00e7 A2000000 		.4byte	0xa2
 649 00eb 03       		.uleb128 0x3
 650 00ec E5000000 		.4byte	.LASF21
 651 00f0 05       		.byte	0x5
 652 00f1 2D       		.byte	0x2d
 653 00f2 A2000000 		.4byte	0xa2
 654 00f6 03       		.uleb128 0x3
 655 00f7 C3000000 		.4byte	.LASF22
 656 00fb 05       		.byte	0x5
 657 00fc 2F       		.byte	0x2f
 658 00fd A2000000 		.4byte	0xa2
 659 0101 03       		.uleb128 0x3
 660 0102 52030000 		.4byte	.LASF23
 661 0106 05       		.byte	0x5
 662 0107 30       		.byte	0x30
 663 0108 C3000000 		.4byte	0xc3
 664 010c 03       		.uleb128 0x3
 665 010d DA010000 		.4byte	.LASF24
 666 0111 05       		.byte	0x5
 667 0112 31       		.byte	0x31
 668 0113 B8000000 		.4byte	0xb8
 669 0117 03       		.uleb128 0x3
 670 0118 10020000 		.4byte	.LASF25
 671 011c 05       		.byte	0x5
 672 011d 33       		.byte	0x33
 673 011e C3000000 		.4byte	0xc3
 674 0122 03       		.uleb128 0x3
 675 0123 A8050000 		.4byte	.LASF26
 676 0127 05       		.byte	0x5
 677 0128 34       		.byte	0x34
 678 0129 C3000000 		.4byte	0xc3
ARM GAS  /tmp/ccghdKPJ.s 			page 13


 679 012d 03       		.uleb128 0x3
 680 012e 66050000 		.4byte	.LASF27
 681 0132 05       		.byte	0x5
 682 0133 35       		.byte	0x35
 683 0134 C3000000 		.4byte	0xc3
 684 0138 03       		.uleb128 0x3
 685 0139 E4030000 		.4byte	.LASF28
 686 013d 06       		.byte	0x6
 687 013e 2A       		.byte	0x2a
 688 013f 43010000 		.4byte	0x143
 689 0143 05       		.uleb128 0x5
 690 0144 E4030000 		.4byte	.LASF28
 691 0148 40       		.byte	0x40
 692 0149 07       		.byte	0x7
 693 014a 5E       		.byte	0x5e
 694 014b 1C020000 		.4byte	0x21c
 695 014f 06       		.uleb128 0x6
 696 0150 CD030000 		.4byte	.LASF29
 697 0154 07       		.byte	0x7
 698 0155 5F       		.byte	0x5f
 699 0156 3D020000 		.4byte	0x23d
 700 015a 00       		.byte	0
 701 015b 06       		.uleb128 0x6
 702 015c 41030000 		.4byte	.LASF30
 703 0160 07       		.byte	0x7
 704 0161 61       		.byte	0x61
 705 0162 3D020000 		.4byte	0x23d
 706 0166 04       		.byte	0x4
 707 0167 06       		.uleb128 0x6
 708 0168 93020000 		.4byte	.LASF31
 709 016c 07       		.byte	0x7
 710 016d 63       		.byte	0x63
 711 016e 01010000 		.4byte	0x101
 712 0172 08       		.byte	0x8
 713 0173 06       		.uleb128 0x6
 714 0174 49060000 		.4byte	.LASF32
 715 0178 07       		.byte	0x7
 716 0179 64       		.byte	0x64
 717 017a C7030000 		.4byte	0x3c7
 718 017e 0C       		.byte	0xc
 719 017f 06       		.uleb128 0x6
 720 0180 1C010000 		.4byte	.LASF33
 721 0184 07       		.byte	0x7
 722 0185 66       		.byte	0x66
 723 0186 3D020000 		.4byte	0x23d
 724 018a 10       		.byte	0x10
 725 018b 06       		.uleb128 0x6
 726 018c A2020000 		.4byte	.LASF34
 727 0190 07       		.byte	0x7
 728 0191 67       		.byte	0x67
 729 0192 3D020000 		.4byte	0x23d
 730 0196 14       		.byte	0x14
 731 0197 06       		.uleb128 0x6
 732 0198 C4050000 		.4byte	.LASF35
 733 019c 07       		.byte	0x7
 734 019d 6E       		.byte	0x6e
 735 019e D8040000 		.4byte	0x4d8
ARM GAS  /tmp/ccghdKPJ.s 			page 14


 736 01a2 18       		.byte	0x18
 737 01a3 06       		.uleb128 0x6
 738 01a4 A0030000 		.4byte	.LASF36
 739 01a8 07       		.byte	0x7
 740 01a9 79       		.byte	0x79
 741 01aa EB000000 		.4byte	0xeb
 742 01ae 1C       		.byte	0x1c
 743 01af 06       		.uleb128 0x6
 744 01b0 D4030000 		.4byte	.LASF37
 745 01b4 07       		.byte	0x7
 746 01b5 7D       		.byte	0x7d
 747 01b6 E0000000 		.4byte	0xe0
 748 01ba 1D       		.byte	0x1d
 749 01bb 06       		.uleb128 0x6
 750 01bc BC030000 		.4byte	.LASF38
 751 01c0 07       		.byte	0x7
 752 01c1 88       		.byte	0x88
 753 01c2 F6000000 		.4byte	0xf6
 754 01c6 1E       		.byte	0x1e
 755 01c7 07       		.uleb128 0x7
 756 01c8 705F7500 		.ascii	"p_u\000"
 757 01cc 07       		.byte	0x7
 758 01cd B4       		.byte	0xb4
 759 01ce A3040000 		.4byte	0x4a3
 760 01d2 20       		.byte	0x20
 761 01d3 06       		.uleb128 0x6
 762 01d4 4F060000 		.4byte	.LASF39
 763 01d8 07       		.byte	0x7
 764 01d9 B9       		.byte	0xb9
 765 01da 63020000 		.4byte	0x263
 766 01de 24       		.byte	0x24
 767 01df 06       		.uleb128 0x6
 768 01e0 B0010000 		.4byte	.LASF40
 769 01e4 07       		.byte	0x7
 770 01e5 BF       		.byte	0xbf
 771 01e6 43020000 		.4byte	0x243
 772 01ea 28       		.byte	0x28
 773 01eb 06       		.uleb128 0x6
 774 01ec 17060000 		.4byte	.LASF41
 775 01f0 07       		.byte	0x7
 776 01f1 C3       		.byte	0xc3
 777 01f2 0C010000 		.4byte	0x10c
 778 01f6 30       		.byte	0x30
 779 01f7 06       		.uleb128 0x6
 780 01f8 E4040000 		.4byte	.LASF42
 781 01fc 07       		.byte	0x7
 782 01fd C9       		.byte	0xc9
 783 01fe 17010000 		.4byte	0x117
 784 0202 34       		.byte	0x34
 785 0203 06       		.uleb128 0x6
 786 0204 A8030000 		.4byte	.LASF43
 787 0208 07       		.byte	0x7
 788 0209 D0       		.byte	0xd0
 789 020a EA040000 		.4byte	0x4ea
 790 020e 38       		.byte	0x38
 791 020f 06       		.uleb128 0x6
 792 0210 70050000 		.4byte	.LASF44
ARM GAS  /tmp/ccghdKPJ.s 			page 15


 793 0214 07       		.byte	0x7
 794 0215 D4       		.byte	0xd4
 795 0216 01010000 		.4byte	0x101
 796 021a 3C       		.byte	0x3c
 797 021b 00       		.byte	0
 798 021c 08       		.uleb128 0x8
 799 021d 08       		.byte	0x8
 800 021e 06       		.byte	0x6
 801 021f 61       		.byte	0x61
 802 0220 3D020000 		.4byte	0x23d
 803 0224 06       		.uleb128 0x6
 804 0225 CD030000 		.4byte	.LASF29
 805 0229 06       		.byte	0x6
 806 022a 62       		.byte	0x62
 807 022b 3D020000 		.4byte	0x23d
 808 022f 00       		.byte	0
 809 0230 06       		.uleb128 0x6
 810 0231 41030000 		.4byte	.LASF30
 811 0235 06       		.byte	0x6
 812 0236 64       		.byte	0x64
 813 0237 3D020000 		.4byte	0x23d
 814 023b 04       		.byte	0x4
 815 023c 00       		.byte	0
 816 023d 09       		.uleb128 0x9
 817 023e 04       		.byte	0x4
 818 023f 38010000 		.4byte	0x138
 819 0243 03       		.uleb128 0x3
 820 0244 AA020000 		.4byte	.LASF45
 821 0248 06       		.byte	0x6
 822 0249 66       		.byte	0x66
 823 024a 1C020000 		.4byte	0x21c
 824 024e 08       		.uleb128 0x8
 825 024f 04       		.byte	0x4
 826 0250 06       		.byte	0x6
 827 0251 6B       		.byte	0x6b
 828 0252 63020000 		.4byte	0x263
 829 0256 06       		.uleb128 0x6
 830 0257 CD030000 		.4byte	.LASF29
 831 025b 06       		.byte	0x6
 832 025c 6D       		.byte	0x6d
 833 025d 3D020000 		.4byte	0x23d
 834 0261 00       		.byte	0
 835 0262 00       		.byte	0
 836 0263 03       		.uleb128 0x3
 837 0264 04020000 		.4byte	.LASF46
 838 0268 06       		.byte	0x6
 839 0269 70       		.byte	0x70
 840 026a 4E020000 		.4byte	0x24e
 841 026e 03       		.uleb128 0x3
 842 026f 53010000 		.4byte	.LASF47
 843 0273 08       		.byte	0x8
 844 0274 E5       		.byte	0xe5
 845 0275 79020000 		.4byte	0x279
 846 0279 0A       		.uleb128 0xa
 847 027a 04       		.byte	0x4
 848 027b 0B       		.uleb128 0xb
 849 027c 98050000 		.4byte	.LASF48
ARM GAS  /tmp/ccghdKPJ.s 			page 16


 850 0280 64       		.byte	0x64
 851 0281 08       		.byte	0x8
 852 0282 0C01     		.2byte	0x10c
 853 0284 C7030000 		.4byte	0x3c7
 854 0288 0C       		.uleb128 0xc
 855 0289 73313600 		.ascii	"s16\000"
 856 028d 08       		.byte	0x8
 857 028e 0E01     		.2byte	0x10e
 858 0290 6E020000 		.4byte	0x26e
 859 0294 00       		.byte	0
 860 0295 0C       		.uleb128 0xc
 861 0296 73313700 		.ascii	"s17\000"
 862 029a 08       		.byte	0x8
 863 029b 0F01     		.2byte	0x10f
 864 029d 6E020000 		.4byte	0x26e
 865 02a1 04       		.byte	0x4
 866 02a2 0C       		.uleb128 0xc
 867 02a3 73313800 		.ascii	"s18\000"
 868 02a7 08       		.byte	0x8
 869 02a8 1001     		.2byte	0x110
 870 02aa 6E020000 		.4byte	0x26e
 871 02ae 08       		.byte	0x8
 872 02af 0C       		.uleb128 0xc
 873 02b0 73313900 		.ascii	"s19\000"
 874 02b4 08       		.byte	0x8
 875 02b5 1101     		.2byte	0x111
 876 02b7 6E020000 		.4byte	0x26e
 877 02bb 0C       		.byte	0xc
 878 02bc 0C       		.uleb128 0xc
 879 02bd 73323000 		.ascii	"s20\000"
 880 02c1 08       		.byte	0x8
 881 02c2 1201     		.2byte	0x112
 882 02c4 6E020000 		.4byte	0x26e
 883 02c8 10       		.byte	0x10
 884 02c9 0C       		.uleb128 0xc
 885 02ca 73323100 		.ascii	"s21\000"
 886 02ce 08       		.byte	0x8
 887 02cf 1301     		.2byte	0x113
 888 02d1 6E020000 		.4byte	0x26e
 889 02d5 14       		.byte	0x14
 890 02d6 0C       		.uleb128 0xc
 891 02d7 73323200 		.ascii	"s22\000"
 892 02db 08       		.byte	0x8
 893 02dc 1401     		.2byte	0x114
 894 02de 6E020000 		.4byte	0x26e
 895 02e2 18       		.byte	0x18
 896 02e3 0C       		.uleb128 0xc
 897 02e4 73323300 		.ascii	"s23\000"
 898 02e8 08       		.byte	0x8
 899 02e9 1501     		.2byte	0x115
 900 02eb 6E020000 		.4byte	0x26e
 901 02ef 1C       		.byte	0x1c
 902 02f0 0C       		.uleb128 0xc
 903 02f1 73323400 		.ascii	"s24\000"
 904 02f5 08       		.byte	0x8
 905 02f6 1601     		.2byte	0x116
 906 02f8 6E020000 		.4byte	0x26e
ARM GAS  /tmp/ccghdKPJ.s 			page 17


 907 02fc 20       		.byte	0x20
 908 02fd 0C       		.uleb128 0xc
 909 02fe 73323500 		.ascii	"s25\000"
 910 0302 08       		.byte	0x8
 911 0303 1701     		.2byte	0x117
 912 0305 6E020000 		.4byte	0x26e
 913 0309 24       		.byte	0x24
 914 030a 0C       		.uleb128 0xc
 915 030b 73323600 		.ascii	"s26\000"
 916 030f 08       		.byte	0x8
 917 0310 1801     		.2byte	0x118
 918 0312 6E020000 		.4byte	0x26e
 919 0316 28       		.byte	0x28
 920 0317 0C       		.uleb128 0xc
 921 0318 73323700 		.ascii	"s27\000"
 922 031c 08       		.byte	0x8
 923 031d 1901     		.2byte	0x119
 924 031f 6E020000 		.4byte	0x26e
 925 0323 2C       		.byte	0x2c
 926 0324 0C       		.uleb128 0xc
 927 0325 73323800 		.ascii	"s28\000"
 928 0329 08       		.byte	0x8
 929 032a 1A01     		.2byte	0x11a
 930 032c 6E020000 		.4byte	0x26e
 931 0330 30       		.byte	0x30
 932 0331 0C       		.uleb128 0xc
 933 0332 73323900 		.ascii	"s29\000"
 934 0336 08       		.byte	0x8
 935 0337 1B01     		.2byte	0x11b
 936 0339 6E020000 		.4byte	0x26e
 937 033d 34       		.byte	0x34
 938 033e 0C       		.uleb128 0xc
 939 033f 73333000 		.ascii	"s30\000"
 940 0343 08       		.byte	0x8
 941 0344 1C01     		.2byte	0x11c
 942 0346 6E020000 		.4byte	0x26e
 943 034a 38       		.byte	0x38
 944 034b 0C       		.uleb128 0xc
 945 034c 73333100 		.ascii	"s31\000"
 946 0350 08       		.byte	0x8
 947 0351 1D01     		.2byte	0x11d
 948 0353 6E020000 		.4byte	0x26e
 949 0357 3C       		.byte	0x3c
 950 0358 0C       		.uleb128 0xc
 951 0359 723400   		.ascii	"r4\000"
 952 035c 08       		.byte	0x8
 953 035d 1F01     		.2byte	0x11f
 954 035f 6E020000 		.4byte	0x26e
 955 0363 40       		.byte	0x40
 956 0364 0C       		.uleb128 0xc
 957 0365 723500   		.ascii	"r5\000"
 958 0368 08       		.byte	0x8
 959 0369 2001     		.2byte	0x120
 960 036b 6E020000 		.4byte	0x26e
 961 036f 44       		.byte	0x44
 962 0370 0C       		.uleb128 0xc
 963 0371 723600   		.ascii	"r6\000"
ARM GAS  /tmp/ccghdKPJ.s 			page 18


 964 0374 08       		.byte	0x8
 965 0375 2101     		.2byte	0x121
 966 0377 6E020000 		.4byte	0x26e
 967 037b 48       		.byte	0x48
 968 037c 0C       		.uleb128 0xc
 969 037d 723700   		.ascii	"r7\000"
 970 0380 08       		.byte	0x8
 971 0381 2201     		.2byte	0x122
 972 0383 6E020000 		.4byte	0x26e
 973 0387 4C       		.byte	0x4c
 974 0388 0C       		.uleb128 0xc
 975 0389 723800   		.ascii	"r8\000"
 976 038c 08       		.byte	0x8
 977 038d 2301     		.2byte	0x123
 978 038f 6E020000 		.4byte	0x26e
 979 0393 50       		.byte	0x50
 980 0394 0C       		.uleb128 0xc
 981 0395 723900   		.ascii	"r9\000"
 982 0398 08       		.byte	0x8
 983 0399 2401     		.2byte	0x124
 984 039b 6E020000 		.4byte	0x26e
 985 039f 54       		.byte	0x54
 986 03a0 0C       		.uleb128 0xc
 987 03a1 72313000 		.ascii	"r10\000"
 988 03a5 08       		.byte	0x8
 989 03a6 2501     		.2byte	0x125
 990 03a8 6E020000 		.4byte	0x26e
 991 03ac 58       		.byte	0x58
 992 03ad 0C       		.uleb128 0xc
 993 03ae 72313100 		.ascii	"r11\000"
 994 03b2 08       		.byte	0x8
 995 03b3 2601     		.2byte	0x126
 996 03b5 6E020000 		.4byte	0x26e
 997 03b9 5C       		.byte	0x5c
 998 03ba 0C       		.uleb128 0xc
 999 03bb 6C7200   		.ascii	"lr\000"
 1000 03be 08       		.byte	0x8
 1001 03bf 2701     		.2byte	0x127
 1002 03c1 6E020000 		.4byte	0x26e
 1003 03c5 60       		.byte	0x60
 1004 03c6 00       		.byte	0
 1005 03c7 0B       		.uleb128 0xb
 1006 03c8 90050000 		.4byte	.LASF49
 1007 03cc 04       		.byte	0x4
 1008 03cd 08       		.byte	0x8
 1009 03ce 3101     		.2byte	0x131
 1010 03d0 E2030000 		.4byte	0x3e2
 1011 03d4 0C       		.uleb128 0xc
 1012 03d5 72313300 		.ascii	"r13\000"
 1013 03d9 08       		.byte	0x8
 1014 03da 3201     		.2byte	0x132
 1015 03dc E2030000 		.4byte	0x3e2
 1016 03e0 00       		.byte	0
 1017 03e1 00       		.byte	0
 1018 03e2 09       		.uleb128 0x9
 1019 03e3 04       		.byte	0x4
 1020 03e4 7B020000 		.4byte	0x27b
ARM GAS  /tmp/ccghdKPJ.s 			page 19


 1021 03e8 04       		.uleb128 0x4
 1022 03e9 04       		.byte	0x4
 1023 03ea 07       		.byte	0x7
 1024 03eb 7A020000 		.4byte	.LASF50
 1025 03ef 05       		.uleb128 0x5
 1026 03f0 8D020000 		.4byte	.LASF51
 1027 03f4 10       		.byte	0x10
 1028 03f5 09       		.byte	0x9
 1029 03f6 2C       		.byte	0x2c
 1030 03f7 20040000 		.4byte	0x420
 1031 03fb 06       		.uleb128 0x6
 1032 03fc BB000000 		.4byte	.LASF52
 1033 0400 09       		.byte	0x9
 1034 0401 2D       		.byte	0x2d
 1035 0402 43020000 		.4byte	0x243
 1036 0406 00       		.byte	0
 1037 0407 06       		.uleb128 0x6
 1038 0408 41060000 		.4byte	.LASF53
 1039 040c 09       		.byte	0x9
 1040 040d 2F       		.byte	0x2f
 1041 040e 3D020000 		.4byte	0x23d
 1042 0412 08       		.byte	0x8
 1043 0413 06       		.uleb128 0x6
 1044 0414 5F050000 		.4byte	.LASF54
 1045 0418 09       		.byte	0x9
 1046 0419 31       		.byte	0x31
 1047 041a 20040000 		.4byte	0x420
 1048 041e 0C       		.byte	0xc
 1049 041f 00       		.byte	0
 1050 0420 09       		.uleb128 0x9
 1051 0421 04       		.byte	0x4
 1052 0422 EF030000 		.4byte	0x3ef
 1053 0426 03       		.uleb128 0x3
 1054 0427 8D020000 		.4byte	.LASF51
 1055 042b 09       		.byte	0x9
 1056 042c 33       		.byte	0x33
 1057 042d EF030000 		.4byte	0x3ef
 1058 0431 03       		.uleb128 0x3
 1059 0432 FB050000 		.4byte	.LASF55
 1060 0436 0A       		.byte	0xa
 1061 0437 2C       		.byte	0x2c
 1062 0438 3C040000 		.4byte	0x43c
 1063 043c 05       		.uleb128 0x5
 1064 043d FB050000 		.4byte	.LASF55
 1065 0441 10       		.byte	0x10
 1066 0442 0A       		.byte	0xa
 1067 0443 31       		.byte	0x31
 1068 0444 79040000 		.4byte	0x479
 1069 0448 06       		.uleb128 0x6
 1070 0449 DC030000 		.4byte	.LASF56
 1071 044d 0A       		.byte	0xa
 1072 044e 32       		.byte	0x32
 1073 044f 79040000 		.4byte	0x479
 1074 0453 00       		.byte	0
 1075 0454 06       		.uleb128 0x6
 1076 0455 8B030000 		.4byte	.LASF57
 1077 0459 0A       		.byte	0xa
ARM GAS  /tmp/ccghdKPJ.s 			page 20


 1078 045a 35       		.byte	0x35
 1079 045b 3D020000 		.4byte	0x23d
 1080 045f 04       		.byte	0x4
 1081 0460 06       		.uleb128 0x6
 1082 0461 9A020000 		.4byte	.LASF58
 1083 0465 0A       		.byte	0xa
 1084 0466 37       		.byte	0x37
 1085 0467 17010000 		.4byte	0x117
 1086 046b 08       		.byte	0x8
 1087 046c 06       		.uleb128 0x6
 1088 046d 97030000 		.4byte	.LASF59
 1089 0471 0A       		.byte	0xa
 1090 0472 3A       		.byte	0x3a
 1091 0473 22010000 		.4byte	0x122
 1092 0477 0C       		.byte	0xc
 1093 0478 00       		.byte	0
 1094 0479 09       		.uleb128 0x9
 1095 047a 04       		.byte	0x4
 1096 047b 31040000 		.4byte	0x431
 1097 047f 05       		.uleb128 0x5
 1098 0480 65010000 		.4byte	.LASF60
 1099 0484 04       		.byte	0x4
 1100 0485 0A       		.byte	0xa
 1101 0486 41       		.byte	0x41
 1102 0487 98040000 		.4byte	0x498
 1103 048b 06       		.uleb128 0x6
 1104 048c CB050000 		.4byte	.LASF61
 1105 0490 0A       		.byte	0xa
 1106 0491 42       		.byte	0x42
 1107 0492 79040000 		.4byte	0x479
 1108 0496 00       		.byte	0
 1109 0497 00       		.byte	0
 1110 0498 03       		.uleb128 0x3
 1111 0499 65010000 		.4byte	.LASF60
 1112 049d 0A       		.byte	0xa
 1113 049e 45       		.byte	0x45
 1114 049f 7F040000 		.4byte	0x47f
 1115 04a3 0D       		.uleb128 0xd
 1116 04a4 04       		.byte	0x4
 1117 04a5 07       		.byte	0x7
 1118 04a6 96       		.byte	0x96
 1119 04a7 D8040000 		.4byte	0x4d8
 1120 04ab 0E       		.uleb128 0xe
 1121 04ac 16000000 		.4byte	.LASF62
 1122 04b0 07       		.byte	0x7
 1123 04b1 9D       		.byte	0x9d
 1124 04b2 0C010000 		.4byte	0x10c
 1125 04b6 0E       		.uleb128 0xe
 1126 04b7 5A000000 		.4byte	.LASF63
 1127 04bb 07       		.byte	0x7
 1128 04bc A4       		.byte	0xa4
 1129 04bd 0C010000 		.4byte	0x10c
 1130 04c1 0E       		.uleb128 0xe
 1131 04c2 09060000 		.4byte	.LASF64
 1132 04c6 07       		.byte	0x7
 1133 04c7 AB       		.byte	0xab
 1134 04c8 79020000 		.4byte	0x279
ARM GAS  /tmp/ccghdKPJ.s 			page 21


 1135 04cc 0E       		.uleb128 0xe
 1136 04cd C6030000 		.4byte	.LASF65
 1137 04d1 07       		.byte	0x7
 1138 04d2 B2       		.byte	0xb2
 1139 04d3 17010000 		.4byte	0x117
 1140 04d7 00       		.byte	0
 1141 04d8 09       		.uleb128 0x9
 1142 04d9 04       		.byte	0x4
 1143 04da DE040000 		.4byte	0x4de
 1144 04de 0F       		.uleb128 0xf
 1145 04df E3040000 		.4byte	0x4e3
 1146 04e3 04       		.uleb128 0x4
 1147 04e4 01       		.byte	0x1
 1148 04e5 08       		.byte	0x8
 1149 04e6 30050000 		.4byte	.LASF66
 1150 04ea 09       		.uleb128 0x9
 1151 04eb 04       		.byte	0x4
 1152 04ec 26040000 		.4byte	0x426
 1153 04f0 09       		.uleb128 0x9
 1154 04f1 04       		.byte	0x4
 1155 04f2 F6040000 		.4byte	0x4f6
 1156 04f6 10       		.uleb128 0x10
 1157 04f7 0C010000 		.4byte	0x10c
 1158 04fb 05050000 		.4byte	0x505
 1159 04ff 11       		.uleb128 0x11
 1160 0500 79020000 		.4byte	0x279
 1161 0504 00       		.byte	0
 1162 0505 03       		.uleb128 0x3
 1163 0506 37020000 		.4byte	.LASF67
 1164 050a 0B       		.byte	0xb
 1165 050b 37       		.byte	0x37
 1166 050c 10050000 		.4byte	0x510
 1167 0510 05       		.uleb128 0x5
 1168 0511 37020000 		.4byte	.LASF67
 1169 0515 24       		.byte	0x24
 1170 0516 0B       		.byte	0xb
 1171 0517 45       		.byte	0x45
 1172 0518 7D050000 		.4byte	0x57d
 1173 051c 06       		.uleb128 0x6
 1174 051d 83000000 		.4byte	.LASF68
 1175 0521 0B       		.byte	0xb
 1176 0522 46       		.byte	0x46
 1177 0523 43020000 		.4byte	0x243
 1178 0527 00       		.byte	0
 1179 0528 06       		.uleb128 0x6
 1180 0529 83020000 		.4byte	.LASF69
 1181 052d 0B       		.byte	0xb
 1182 052e 47       		.byte	0x47
 1183 052f 2C000000 		.4byte	0x2c
 1184 0533 08       		.byte	0x8
 1185 0534 06       		.uleb128 0x6
 1186 0535 F7000000 		.4byte	.LASF70
 1187 0539 0B       		.byte	0xb
 1188 053a 48       		.byte	0x48
 1189 053b 9F050000 		.4byte	0x59f
 1190 053f 0C       		.byte	0xc
 1191 0540 06       		.uleb128 0x6
ARM GAS  /tmp/ccghdKPJ.s 			page 22


 1192 0541 BE050000 		.4byte	.LASF71
 1193 0545 0B       		.byte	0xb
 1194 0546 49       		.byte	0x49
 1195 0547 9F050000 		.4byte	0x59f
 1196 054b 10       		.byte	0x10
 1197 054c 06       		.uleb128 0x6
 1198 054d D2010000 		.4byte	.LASF72
 1199 0551 0B       		.byte	0xb
 1200 0552 4B       		.byte	0x4b
 1201 0553 9F050000 		.4byte	0x59f
 1202 0557 14       		.byte	0x14
 1203 0558 06       		.uleb128 0x6
 1204 0559 5A030000 		.4byte	.LASF73
 1205 055d 0B       		.byte	0xb
 1206 055e 4C       		.byte	0x4c
 1207 055f 9F050000 		.4byte	0x59f
 1208 0563 18       		.byte	0x18
 1209 0564 06       		.uleb128 0x6
 1210 0565 D3050000 		.4byte	.LASF74
 1211 0569 0B       		.byte	0xb
 1212 056a 4D       		.byte	0x4d
 1213 056b 7D050000 		.4byte	0x57d
 1214 056f 1C       		.byte	0x1c
 1215 0570 06       		.uleb128 0x6
 1216 0571 00010000 		.4byte	.LASF75
 1217 0575 0B       		.byte	0xb
 1218 0576 4E       		.byte	0x4e
 1219 0577 79020000 		.4byte	0x279
 1220 057b 20       		.byte	0x20
 1221 057c 00       		.byte	0
 1222 057d 03       		.uleb128 0x3
 1223 057e 2D020000 		.4byte	.LASF76
 1224 0582 0B       		.byte	0xb
 1225 0583 3A       		.byte	0x3a
 1226 0584 88050000 		.4byte	0x588
 1227 0588 09       		.uleb128 0x9
 1228 0589 04       		.byte	0x4
 1229 058a 8E050000 		.4byte	0x58e
 1230 058e 12       		.uleb128 0x12
 1231 058f 99050000 		.4byte	0x599
 1232 0593 11       		.uleb128 0x11
 1233 0594 99050000 		.4byte	0x599
 1234 0598 00       		.byte	0
 1235 0599 09       		.uleb128 0x9
 1236 059a 04       		.byte	0x4
 1237 059b 05050000 		.4byte	0x505
 1238 059f 09       		.uleb128 0x9
 1239 05a0 04       		.byte	0x4
 1240 05a1 A2000000 		.4byte	0xa2
 1241 05a5 03       		.uleb128 0x3
 1242 05a6 1C020000 		.4byte	.LASF77
 1243 05aa 0B       		.byte	0xb
 1244 05ab 82       		.byte	0x82
 1245 05ac 05050000 		.4byte	0x505
 1246 05b0 03       		.uleb128 0x3
 1247 05b1 1D000000 		.4byte	.LASF78
 1248 05b5 0B       		.byte	0xb
ARM GAS  /tmp/ccghdKPJ.s 			page 23


 1249 05b6 F5       		.byte	0xf5
 1250 05b7 05050000 		.4byte	0x505
 1251 05bb 10       		.uleb128 0x10
 1252 05bc 2C000000 		.4byte	0x2c
 1253 05c0 D4050000 		.4byte	0x5d4
 1254 05c4 11       		.uleb128 0x11
 1255 05c5 79020000 		.4byte	0x279
 1256 05c9 11       		.uleb128 0x11
 1257 05ca D4050000 		.4byte	0x5d4
 1258 05ce 11       		.uleb128 0x11
 1259 05cf 2C000000 		.4byte	0x2c
 1260 05d3 00       		.byte	0
 1261 05d4 09       		.uleb128 0x9
 1262 05d5 04       		.byte	0x4
 1263 05d6 DA050000 		.4byte	0x5da
 1264 05da 0F       		.uleb128 0xf
 1265 05db A2000000 		.4byte	0xa2
 1266 05df 09       		.uleb128 0x9
 1267 05e0 04       		.byte	0x4
 1268 05e1 BB050000 		.4byte	0x5bb
 1269 05e5 10       		.uleb128 0x10
 1270 05e6 2C000000 		.4byte	0x2c
 1271 05ea FE050000 		.4byte	0x5fe
 1272 05ee 11       		.uleb128 0x11
 1273 05ef 79020000 		.4byte	0x279
 1274 05f3 11       		.uleb128 0x11
 1275 05f4 9F050000 		.4byte	0x59f
 1276 05f8 11       		.uleb128 0x11
 1277 05f9 2C000000 		.4byte	0x2c
 1278 05fd 00       		.byte	0
 1279 05fe 09       		.uleb128 0x9
 1280 05ff 04       		.byte	0x4
 1281 0600 E5050000 		.4byte	0x5e5
 1282 0604 10       		.uleb128 0x10
 1283 0605 0C010000 		.4byte	0x10c
 1284 0609 18060000 		.4byte	0x618
 1285 060d 11       		.uleb128 0x11
 1286 060e 79020000 		.4byte	0x279
 1287 0612 11       		.uleb128 0x11
 1288 0613 A2000000 		.4byte	0xa2
 1289 0617 00       		.byte	0
 1290 0618 09       		.uleb128 0x9
 1291 0619 04       		.byte	0x4
 1292 061a 04060000 		.4byte	0x604
 1293 061e 13       		.uleb128 0x13
 1294 061f AD000000 		.4byte	0xad
 1295 0623 13       		.uleb128 0x13
 1296 0624 B8000000 		.4byte	0xb8
 1297 0628 14       		.uleb128 0x14
 1298 0629 1C       		.byte	0x1c
 1299 062a 0C       		.byte	0xc
 1300 062b 2905     		.2byte	0x529
 1301 062d E6060000 		.4byte	0x6e6
 1302 0631 0C       		.uleb128 0xc
 1303 0632 535200   		.ascii	"SR\000"
 1304 0635 0C       		.byte	0xc
 1305 0636 2B05     		.2byte	0x52b
ARM GAS  /tmp/ccghdKPJ.s 			page 24


 1306 0638 1E060000 		.4byte	0x61e
 1307 063c 00       		.byte	0
 1308 063d 15       		.uleb128 0x15
 1309 063e 0F030000 		.4byte	.LASF79
 1310 0642 0C       		.byte	0xc
 1311 0643 2C05     		.2byte	0x52c
 1312 0645 AD000000 		.4byte	0xad
 1313 0649 02       		.byte	0x2
 1314 064a 0C       		.uleb128 0xc
 1315 064b 445200   		.ascii	"DR\000"
 1316 064e 0C       		.byte	0xc
 1317 064f 2D05     		.2byte	0x52d
 1318 0651 1E060000 		.4byte	0x61e
 1319 0655 04       		.byte	0x4
 1320 0656 15       		.uleb128 0x15
 1321 0657 19030000 		.4byte	.LASF80
 1322 065b 0C       		.byte	0xc
 1323 065c 2E05     		.2byte	0x52e
 1324 065e AD000000 		.4byte	0xad
 1325 0662 06       		.byte	0x6
 1326 0663 0C       		.uleb128 0xc
 1327 0664 42525200 		.ascii	"BRR\000"
 1328 0668 0C       		.byte	0xc
 1329 0669 2F05     		.2byte	0x52f
 1330 066b 1E060000 		.4byte	0x61e
 1331 066f 08       		.byte	0x8
 1332 0670 15       		.uleb128 0x15
 1333 0671 23030000 		.4byte	.LASF81
 1334 0675 0C       		.byte	0xc
 1335 0676 3005     		.2byte	0x530
 1336 0678 AD000000 		.4byte	0xad
 1337 067c 0A       		.byte	0xa
 1338 067d 0C       		.uleb128 0xc
 1339 067e 43523100 		.ascii	"CR1\000"
 1340 0682 0C       		.byte	0xc
 1341 0683 3105     		.2byte	0x531
 1342 0685 1E060000 		.4byte	0x61e
 1343 0689 0C       		.byte	0xc
 1344 068a 15       		.uleb128 0x15
 1345 068b 2D030000 		.4byte	.LASF82
 1346 068f 0C       		.byte	0xc
 1347 0690 3205     		.2byte	0x532
 1348 0692 AD000000 		.4byte	0xad
 1349 0696 0E       		.byte	0xe
 1350 0697 0C       		.uleb128 0xc
 1351 0698 43523200 		.ascii	"CR2\000"
 1352 069c 0C       		.byte	0xc
 1353 069d 3305     		.2byte	0x533
 1354 069f 1E060000 		.4byte	0x61e
 1355 06a3 10       		.byte	0x10
 1356 06a4 15       		.uleb128 0x15
 1357 06a5 37030000 		.4byte	.LASF83
 1358 06a9 0C       		.byte	0xc
 1359 06aa 3405     		.2byte	0x534
 1360 06ac AD000000 		.4byte	0xad
 1361 06b0 12       		.byte	0x12
 1362 06b1 0C       		.uleb128 0xc
ARM GAS  /tmp/ccghdKPJ.s 			page 25


 1363 06b2 43523300 		.ascii	"CR3\000"
 1364 06b6 0C       		.byte	0xc
 1365 06b7 3505     		.2byte	0x535
 1366 06b9 1E060000 		.4byte	0x61e
 1367 06bd 14       		.byte	0x14
 1368 06be 15       		.uleb128 0x15
 1369 06bf F9040000 		.4byte	.LASF84
 1370 06c3 0C       		.byte	0xc
 1371 06c4 3605     		.2byte	0x536
 1372 06c6 AD000000 		.4byte	0xad
 1373 06ca 16       		.byte	0x16
 1374 06cb 15       		.uleb128 0x15
 1375 06cc A7000000 		.4byte	.LASF85
 1376 06d0 0C       		.byte	0xc
 1377 06d1 3705     		.2byte	0x537
 1378 06d3 1E060000 		.4byte	0x61e
 1379 06d7 18       		.byte	0x18
 1380 06d8 15       		.uleb128 0x15
 1381 06d9 48030000 		.4byte	.LASF86
 1382 06dd 0C       		.byte	0xc
 1383 06de 3805     		.2byte	0x538
 1384 06e0 AD000000 		.4byte	0xad
 1385 06e4 1A       		.byte	0x1a
 1386 06e5 00       		.byte	0
 1387 06e6 16       		.uleb128 0x16
 1388 06e7 E7010000 		.4byte	.LASF87
 1389 06eb 0C       		.byte	0xc
 1390 06ec 3905     		.2byte	0x539
 1391 06ee 28060000 		.4byte	0x628
 1392 06f2 10       		.uleb128 0x10
 1393 06f3 0C010000 		.4byte	0x10c
 1394 06f7 0B070000 		.4byte	0x70b
 1395 06fb 11       		.uleb128 0x11
 1396 06fc 79020000 		.4byte	0x279
 1397 0700 11       		.uleb128 0x11
 1398 0701 A2000000 		.4byte	0xa2
 1399 0705 11       		.uleb128 0x11
 1400 0706 2D010000 		.4byte	0x12d
 1401 070a 00       		.byte	0
 1402 070b 09       		.uleb128 0x9
 1403 070c 04       		.byte	0x4
 1404 070d F2060000 		.4byte	0x6f2
 1405 0711 10       		.uleb128 0x10
 1406 0712 0C010000 		.4byte	0x10c
 1407 0716 25070000 		.4byte	0x725
 1408 071a 11       		.uleb128 0x11
 1409 071b 79020000 		.4byte	0x279
 1410 071f 11       		.uleb128 0x11
 1411 0720 2D010000 		.4byte	0x12d
 1412 0724 00       		.byte	0
 1413 0725 09       		.uleb128 0x9
 1414 0726 04       		.byte	0x4
 1415 0727 11070000 		.4byte	0x711
 1416 072b 10       		.uleb128 0x10
 1417 072c 2C000000 		.4byte	0x2c
 1418 0730 49070000 		.4byte	0x749
 1419 0734 11       		.uleb128 0x11
ARM GAS  /tmp/ccghdKPJ.s 			page 26


 1420 0735 79020000 		.4byte	0x279
 1421 0739 11       		.uleb128 0x11
 1422 073a D4050000 		.4byte	0x5d4
 1423 073e 11       		.uleb128 0x11
 1424 073f 2C000000 		.4byte	0x2c
 1425 0743 11       		.uleb128 0x11
 1426 0744 2D010000 		.4byte	0x12d
 1427 0748 00       		.byte	0
 1428 0749 09       		.uleb128 0x9
 1429 074a 04       		.byte	0x4
 1430 074b 2B070000 		.4byte	0x72b
 1431 074f 10       		.uleb128 0x10
 1432 0750 2C000000 		.4byte	0x2c
 1433 0754 6D070000 		.4byte	0x76d
 1434 0758 11       		.uleb128 0x11
 1435 0759 79020000 		.4byte	0x279
 1436 075d 11       		.uleb128 0x11
 1437 075e 9F050000 		.4byte	0x59f
 1438 0762 11       		.uleb128 0x11
 1439 0763 2C000000 		.4byte	0x2c
 1440 0767 11       		.uleb128 0x11
 1441 0768 2D010000 		.4byte	0x12d
 1442 076c 00       		.byte	0
 1443 076d 09       		.uleb128 0x9
 1444 076e 04       		.byte	0x4
 1445 076f 4F070000 		.4byte	0x74f
 1446 0773 17       		.uleb128 0x17
 1447 0774 01       		.byte	0x1
 1448 0775 0D       		.byte	0xd
 1449 0776 64       		.byte	0x64
 1450 0777 8E070000 		.4byte	0x78e
 1451 077b 18       		.uleb128 0x18
 1452 077c EF040000 		.4byte	.LASF88
 1453 0780 00       		.sleb128 0
 1454 0781 18       		.uleb128 0x18
 1455 0782 AC000000 		.4byte	.LASF89
 1456 0786 01       		.sleb128 1
 1457 0787 18       		.uleb128 0x18
 1458 0788 9F050000 		.4byte	.LASF90
 1459 078c 02       		.sleb128 2
 1460 078d 00       		.byte	0
 1461 078e 03       		.uleb128 0x3
 1462 078f B4050000 		.4byte	.LASF91
 1463 0793 0D       		.byte	0xd
 1464 0794 68       		.byte	0x68
 1465 0795 73070000 		.4byte	0x773
 1466 0799 03       		.uleb128 0x3
 1467 079a 0C050000 		.4byte	.LASF92
 1468 079e 0D       		.byte	0xd
 1469 079f 6D       		.byte	0x6d
 1470 07a0 A4070000 		.4byte	0x7a4
 1471 07a4 05       		.uleb128 0x5
 1472 07a5 0C050000 		.4byte	.LASF92
 1473 07a9 98       		.byte	0x98
 1474 07aa 0D       		.byte	0xd
 1475 07ab 87       		.byte	0x87
 1476 07ac 0F080000 		.4byte	0x80f
ARM GAS  /tmp/ccghdKPJ.s 			page 27


 1477 07b0 07       		.uleb128 0x7
 1478 07b1 766D7400 		.ascii	"vmt\000"
 1479 07b5 0D       		.byte	0xd
 1480 07b6 89       		.byte	0x89
 1481 07b7 C0080000 		.4byte	0x8c0
 1482 07bb 00       		.byte	0
 1483 07bc 06       		.uleb128 0x6
 1484 07bd CC010000 		.4byte	.LASF93
 1485 07c1 0D       		.byte	0xd
 1486 07c2 8A       		.byte	0x8a
 1487 07c3 98040000 		.4byte	0x498
 1488 07c7 04       		.byte	0x4
 1489 07c8 06       		.uleb128 0x6
 1490 07c9 CD000000 		.4byte	.LASF94
 1491 07cd 0D       		.byte	0xd
 1492 07ce 8A       		.byte	0x8a
 1493 07cf 8E070000 		.4byte	0x78e
 1494 07d3 08       		.byte	0x8
 1495 07d4 06       		.uleb128 0x6
 1496 07d5 10060000 		.4byte	.LASF95
 1497 07d9 0D       		.byte	0xd
 1498 07da 8A       		.byte	0x8a
 1499 07db A5050000 		.4byte	0x5a5
 1500 07df 0C       		.byte	0xc
 1501 07e0 06       		.uleb128 0x6
 1502 07e1 E0010000 		.4byte	.LASF96
 1503 07e5 0D       		.byte	0xd
 1504 07e6 8A       		.byte	0x8a
 1505 07e7 B0050000 		.4byte	0x5b0
 1506 07eb 30       		.byte	0x30
 1507 07ec 07       		.uleb128 0x7
 1508 07ed 696200   		.ascii	"ib\000"
 1509 07f0 0D       		.byte	0xd
 1510 07f1 8A       		.byte	0x8a
 1511 07f2 CB080000 		.4byte	0x8cb
 1512 07f6 54       		.byte	0x54
 1513 07f7 07       		.uleb128 0x7
 1514 07f8 6F6200   		.ascii	"ob\000"
 1515 07fb 0D       		.byte	0xd
 1516 07fc 8A       		.byte	0x8a
 1517 07fd CB080000 		.4byte	0x8cb
 1518 0801 74       		.byte	0x74
 1519 0802 06       		.uleb128 0x6
 1520 0803 71010000 		.4byte	.LASF97
 1521 0807 0D       		.byte	0xd
 1522 0808 8A       		.byte	0x8a
 1523 0809 DB080000 		.4byte	0x8db
 1524 080d 94       		.byte	0x94
 1525 080e 00       		.byte	0
 1526 080f 08       		.uleb128 0x8
 1527 0810 0C       		.byte	0xc
 1528 0811 0E       		.byte	0xe
 1529 0812 D7       		.byte	0xd7
 1530 0813 48080000 		.4byte	0x848
 1531 0817 06       		.uleb128 0x6
 1532 0818 27020000 		.4byte	.LASF98
 1533 081c 0E       		.byte	0xe
ARM GAS  /tmp/ccghdKPJ.s 			page 28


 1534 081d DB       		.byte	0xdb
 1535 081e C3000000 		.4byte	0xc3
 1536 0822 00       		.byte	0
 1537 0823 07       		.uleb128 0x7
 1538 0824 63723100 		.ascii	"cr1\000"
 1539 0828 0E       		.byte	0xe
 1540 0829 E0       		.byte	0xe0
 1541 082a AD000000 		.4byte	0xad
 1542 082e 04       		.byte	0x4
 1543 082f 07       		.uleb128 0x7
 1544 0830 63723200 		.ascii	"cr2\000"
 1545 0834 0E       		.byte	0xe
 1546 0835 E4       		.byte	0xe4
 1547 0836 AD000000 		.4byte	0xad
 1548 083a 06       		.byte	0x6
 1549 083b 07       		.uleb128 0x7
 1550 083c 63723300 		.ascii	"cr3\000"
 1551 0840 0E       		.byte	0xe
 1552 0841 E8       		.byte	0xe8
 1553 0842 AD000000 		.4byte	0xad
 1554 0846 08       		.byte	0x8
 1555 0847 00       		.byte	0
 1556 0848 03       		.uleb128 0x3
 1557 0849 02030000 		.4byte	.LASF99
 1558 084d 0E       		.byte	0xe
 1559 084e E9       		.byte	0xe9
 1560 084f 0F080000 		.4byte	0x80f
 1561 0853 05       		.uleb128 0x5
 1562 0854 8D010000 		.4byte	.LASF100
 1563 0858 20       		.byte	0x20
 1564 0859 0D       		.byte	0xd
 1565 085a 7C       		.byte	0x7c
 1566 085b C0080000 		.4byte	0x8c0
 1567 085f 06       		.uleb128 0x6
 1568 0860 6F020000 		.4byte	.LASF101
 1569 0864 0D       		.byte	0xd
 1570 0865 7D       		.byte	0x7d
 1571 0866 DF050000 		.4byte	0x5df
 1572 086a 00       		.byte	0
 1573 086b 06       		.uleb128 0x6
 1574 086c 2B050000 		.4byte	.LASF102
 1575 0870 0D       		.byte	0xd
 1576 0871 7D       		.byte	0x7d
 1577 0872 FE050000 		.4byte	0x5fe
 1578 0876 04       		.byte	0x4
 1579 0877 07       		.uleb128 0x7
 1580 0878 70757400 		.ascii	"put\000"
 1581 087c 0D       		.byte	0xd
 1582 087d 7D       		.byte	0x7d
 1583 087e 18060000 		.4byte	0x618
 1584 0882 08       		.byte	0x8
 1585 0883 07       		.uleb128 0x7
 1586 0884 67657400 		.ascii	"get\000"
 1587 0888 0D       		.byte	0xd
 1588 0889 7D       		.byte	0x7d
 1589 088a F0040000 		.4byte	0x4f0
 1590 088e 0C       		.byte	0xc
ARM GAS  /tmp/ccghdKPJ.s 			page 29


 1591 088f 06       		.uleb128 0x6
 1592 0890 75020000 		.4byte	.LASF103
 1593 0894 0D       		.byte	0xd
 1594 0895 7D       		.byte	0x7d
 1595 0896 0B070000 		.4byte	0x70b
 1596 089a 10       		.byte	0x10
 1597 089b 06       		.uleb128 0x6
 1598 089c C7010000 		.4byte	.LASF104
 1599 08a0 0D       		.byte	0xd
 1600 08a1 7D       		.byte	0x7d
 1601 08a2 25070000 		.4byte	0x725
 1602 08a6 14       		.byte	0x14
 1603 08a7 06       		.uleb128 0x6
 1604 08a8 F5010000 		.4byte	.LASF105
 1605 08ac 0D       		.byte	0xd
 1606 08ad 7D       		.byte	0x7d
 1607 08ae 49070000 		.4byte	0x749
 1608 08b2 18       		.byte	0x18
 1609 08b3 06       		.uleb128 0x6
 1610 08b4 7D000000 		.4byte	.LASF106
 1611 08b8 0D       		.byte	0xd
 1612 08b9 7D       		.byte	0x7d
 1613 08ba 6D070000 		.4byte	0x76d
 1614 08be 1C       		.byte	0x1c
 1615 08bf 00       		.byte	0
 1616 08c0 09       		.uleb128 0x9
 1617 08c1 04       		.byte	0x4
 1618 08c2 C6080000 		.4byte	0x8c6
 1619 08c6 0F       		.uleb128 0xf
 1620 08c7 53080000 		.4byte	0x853
 1621 08cb 19       		.uleb128 0x19
 1622 08cc A2000000 		.4byte	0xa2
 1623 08d0 DB080000 		.4byte	0x8db
 1624 08d4 1A       		.uleb128 0x1a
 1625 08d5 E8030000 		.4byte	0x3e8
 1626 08d9 1F       		.byte	0x1f
 1627 08da 00       		.byte	0
 1628 08db 09       		.uleb128 0x9
 1629 08dc 04       		.byte	0x4
 1630 08dd E6060000 		.4byte	0x6e6
 1631 08e1 09       		.uleb128 0x9
 1632 08e2 04       		.byte	0x4
 1633 08e3 B0050000 		.4byte	0x5b0
 1634 08e7 09       		.uleb128 0x9
 1635 08e8 04       		.byte	0x4
 1636 08e9 A5050000 		.4byte	0x5a5
 1637 08ed 1B       		.uleb128 0x1b
 1638 08ee 7D000000 		.4byte	.LASF106
 1639 08f2 01       		.byte	0x1
 1640 08f3 63       		.byte	0x63
 1641 08f4 2C000000 		.4byte	0x2c
 1642 08f8 00000000 		.4byte	.LFB137
 1643 08fc 06000000 		.4byte	.LFE137-.LFB137
 1644 0900 01       		.uleb128 0x1
 1645 0901 9C       		.byte	0x9c
 1646 0902 67090000 		.4byte	0x967
 1647 0906 1C       		.uleb128 0x1c
ARM GAS  /tmp/ccghdKPJ.s 			page 30


 1648 0907 697000   		.ascii	"ip\000"
 1649 090a 01       		.byte	0x1
 1650 090b 63       		.byte	0x63
 1651 090c 79020000 		.4byte	0x279
 1652 0910 00000000 		.4byte	.LLST0
 1653 0914 1C       		.uleb128 0x1c
 1654 0915 627000   		.ascii	"bp\000"
 1655 0918 01       		.byte	0x1
 1656 0919 63       		.byte	0x63
 1657 091a 9F050000 		.4byte	0x59f
 1658 091e 2E000000 		.4byte	.LLST1
 1659 0922 1C       		.uleb128 0x1c
 1660 0923 6E00     		.ascii	"n\000"
 1661 0925 01       		.byte	0x1
 1662 0926 63       		.byte	0x63
 1663 0927 2C000000 		.4byte	0x2c
 1664 092b 4F000000 		.4byte	.LLST2
 1665 092f 1D       		.uleb128 0x1d
 1666 0930 FD020000 		.4byte	.LASF107
 1667 0934 01       		.byte	0x1
 1668 0935 63       		.byte	0x63
 1669 0936 2D010000 		.4byte	0x12d
 1670 093a 70000000 		.4byte	.LLST3
 1671 093e 1E       		.uleb128 0x1e
 1672 093f 06000000 		.4byte	.LVL2
 1673 0943 E50E0000 		.4byte	0xee5
 1674 0947 1F       		.uleb128 0x1f
 1675 0948 01       		.uleb128 0x1
 1676 0949 53       		.byte	0x53
 1677 094a 03       		.uleb128 0x3
 1678 094b F3       		.byte	0xf3
 1679 094c 01       		.uleb128 0x1
 1680 094d 53       		.byte	0x53
 1681 094e 1F       		.uleb128 0x1f
 1682 094f 01       		.uleb128 0x1
 1683 0950 52       		.byte	0x52
 1684 0951 03       		.uleb128 0x3
 1685 0952 F3       		.byte	0xf3
 1686 0953 01       		.uleb128 0x1
 1687 0954 52       		.byte	0x52
 1688 0955 1F       		.uleb128 0x1f
 1689 0956 01       		.uleb128 0x1
 1690 0957 51       		.byte	0x51
 1691 0958 03       		.uleb128 0x3
 1692 0959 F3       		.byte	0xf3
 1693 095a 01       		.uleb128 0x1
 1694 095b 51       		.byte	0x51
 1695 095c 1F       		.uleb128 0x1f
 1696 095d 01       		.uleb128 0x1
 1697 095e 50       		.byte	0x50
 1698 095f 05       		.uleb128 0x5
 1699 0960 F3       		.byte	0xf3
 1700 0961 01       		.uleb128 0x1
 1701 0962 50       		.byte	0x50
 1702 0963 23       		.byte	0x23
 1703 0964 0C       		.uleb128 0xc
 1704 0965 00       		.byte	0
ARM GAS  /tmp/ccghdKPJ.s 			page 31


 1705 0966 00       		.byte	0
 1706 0967 1B       		.uleb128 0x1b
 1707 0968 2B050000 		.4byte	.LASF102
 1708 096c 01       		.byte	0x1
 1709 096d 44       		.byte	0x44
 1710 096e 2C000000 		.4byte	0x2c
 1711 0972 10000000 		.4byte	.LFB131
 1712 0976 0A000000 		.4byte	.LFE131-.LFB131
 1713 097a 01       		.uleb128 0x1
 1714 097b 9C       		.byte	0x9c
 1715 097c D1090000 		.4byte	0x9d1
 1716 0980 1C       		.uleb128 0x1c
 1717 0981 697000   		.ascii	"ip\000"
 1718 0984 01       		.byte	0x1
 1719 0985 44       		.byte	0x44
 1720 0986 79020000 		.4byte	0x279
 1721 098a 91000000 		.4byte	.LLST4
 1722 098e 1C       		.uleb128 0x1c
 1723 098f 627000   		.ascii	"bp\000"
 1724 0992 01       		.byte	0x1
 1725 0993 44       		.byte	0x44
 1726 0994 9F050000 		.4byte	0x59f
 1727 0998 BF000000 		.4byte	.LLST5
 1728 099c 1C       		.uleb128 0x1c
 1729 099d 6E00     		.ascii	"n\000"
 1730 099f 01       		.byte	0x1
 1731 09a0 44       		.byte	0x44
 1732 09a1 2C000000 		.4byte	0x2c
 1733 09a5 E0000000 		.4byte	.LLST6
 1734 09a9 1E       		.uleb128 0x1e
 1735 09aa 1A000000 		.4byte	.LVL5
 1736 09ae E50E0000 		.4byte	0xee5
 1737 09b2 1F       		.uleb128 0x1f
 1738 09b3 01       		.uleb128 0x1
 1739 09b4 53       		.byte	0x53
 1740 09b5 02       		.uleb128 0x2
 1741 09b6 09       		.byte	0x9
 1742 09b7 FF       		.byte	0xff
 1743 09b8 1F       		.uleb128 0x1f
 1744 09b9 01       		.uleb128 0x1
 1745 09ba 52       		.byte	0x52
 1746 09bb 03       		.uleb128 0x3
 1747 09bc F3       		.byte	0xf3
 1748 09bd 01       		.uleb128 0x1
 1749 09be 52       		.byte	0x52
 1750 09bf 1F       		.uleb128 0x1f
 1751 09c0 01       		.uleb128 0x1
 1752 09c1 51       		.byte	0x51
 1753 09c2 03       		.uleb128 0x3
 1754 09c3 F3       		.byte	0xf3
 1755 09c4 01       		.uleb128 0x1
 1756 09c5 51       		.byte	0x51
 1757 09c6 1F       		.uleb128 0x1f
 1758 09c7 01       		.uleb128 0x1
 1759 09c8 50       		.byte	0x50
 1760 09c9 05       		.uleb128 0x5
 1761 09ca F3       		.byte	0xf3
ARM GAS  /tmp/ccghdKPJ.s 			page 32


 1762 09cb 01       		.uleb128 0x1
 1763 09cc 50       		.byte	0x50
 1764 09cd 23       		.byte	0x23
 1765 09ce 0C       		.uleb128 0xc
 1766 09cf 00       		.byte	0
 1767 09d0 00       		.byte	0
 1768 09d1 1B       		.uleb128 0x1b
 1769 09d2 F5010000 		.4byte	.LASF105
 1770 09d6 01       		.byte	0x1
 1771 09d7 5E       		.byte	0x5e
 1772 09d8 2C000000 		.4byte	0x2c
 1773 09dc 20000000 		.4byte	.LFB136
 1774 09e0 06000000 		.4byte	.LFE136-.LFB136
 1775 09e4 01       		.uleb128 0x1
 1776 09e5 9C       		.byte	0x9c
 1777 09e6 4B0A0000 		.4byte	0xa4b
 1778 09ea 1C       		.uleb128 0x1c
 1779 09eb 697000   		.ascii	"ip\000"
 1780 09ee 01       		.byte	0x1
 1781 09ef 5E       		.byte	0x5e
 1782 09f0 79020000 		.4byte	0x279
 1783 09f4 01010000 		.4byte	.LLST7
 1784 09f8 1C       		.uleb128 0x1c
 1785 09f9 627000   		.ascii	"bp\000"
 1786 09fc 01       		.byte	0x1
 1787 09fd 5E       		.byte	0x5e
 1788 09fe D4050000 		.4byte	0x5d4
 1789 0a02 2F010000 		.4byte	.LLST8
 1790 0a06 1C       		.uleb128 0x1c
 1791 0a07 6E00     		.ascii	"n\000"
 1792 0a09 01       		.byte	0x1
 1793 0a0a 5E       		.byte	0x5e
 1794 0a0b 2C000000 		.4byte	0x2c
 1795 0a0f 50010000 		.4byte	.LLST9
 1796 0a13 1D       		.uleb128 0x1d
 1797 0a14 FD020000 		.4byte	.LASF107
 1798 0a18 01       		.byte	0x1
 1799 0a19 5E       		.byte	0x5e
 1800 0a1a 2D010000 		.4byte	0x12d
 1801 0a1e 71010000 		.4byte	.LLST10
 1802 0a22 1E       		.uleb128 0x1e
 1803 0a23 26000000 		.4byte	.LVL8
 1804 0a27 0A0F0000 		.4byte	0xf0a
 1805 0a2b 1F       		.uleb128 0x1f
 1806 0a2c 01       		.uleb128 0x1
 1807 0a2d 53       		.byte	0x53
 1808 0a2e 03       		.uleb128 0x3
 1809 0a2f F3       		.byte	0xf3
 1810 0a30 01       		.uleb128 0x1
 1811 0a31 53       		.byte	0x53
 1812 0a32 1F       		.uleb128 0x1f
 1813 0a33 01       		.uleb128 0x1
 1814 0a34 52       		.byte	0x52
 1815 0a35 03       		.uleb128 0x3
 1816 0a36 F3       		.byte	0xf3
 1817 0a37 01       		.uleb128 0x1
 1818 0a38 52       		.byte	0x52
ARM GAS  /tmp/ccghdKPJ.s 			page 33


 1819 0a39 1F       		.uleb128 0x1f
 1820 0a3a 01       		.uleb128 0x1
 1821 0a3b 51       		.byte	0x51
 1822 0a3c 03       		.uleb128 0x3
 1823 0a3d F3       		.byte	0xf3
 1824 0a3e 01       		.uleb128 0x1
 1825 0a3f 51       		.byte	0x51
 1826 0a40 1F       		.uleb128 0x1f
 1827 0a41 01       		.uleb128 0x1
 1828 0a42 50       		.byte	0x50
 1829 0a43 05       		.uleb128 0x5
 1830 0a44 F3       		.byte	0xf3
 1831 0a45 01       		.uleb128 0x1
 1832 0a46 50       		.byte	0x50
 1833 0a47 23       		.byte	0x23
 1834 0a48 30       		.uleb128 0x30
 1835 0a49 00       		.byte	0
 1836 0a4a 00       		.byte	0
 1837 0a4b 1B       		.uleb128 0x1b
 1838 0a4c 6F020000 		.4byte	.LASF101
 1839 0a50 01       		.byte	0x1
 1840 0a51 3E       		.byte	0x3e
 1841 0a52 2C000000 		.4byte	0x2c
 1842 0a56 30000000 		.4byte	.LFB130
 1843 0a5a 0A000000 		.4byte	.LFE130-.LFB130
 1844 0a5e 01       		.uleb128 0x1
 1845 0a5f 9C       		.byte	0x9c
 1846 0a60 B50A0000 		.4byte	0xab5
 1847 0a64 1C       		.uleb128 0x1c
 1848 0a65 697000   		.ascii	"ip\000"
 1849 0a68 01       		.byte	0x1
 1850 0a69 3E       		.byte	0x3e
 1851 0a6a 79020000 		.4byte	0x279
 1852 0a6e 92010000 		.4byte	.LLST11
 1853 0a72 1C       		.uleb128 0x1c
 1854 0a73 627000   		.ascii	"bp\000"
 1855 0a76 01       		.byte	0x1
 1856 0a77 3E       		.byte	0x3e
 1857 0a78 D4050000 		.4byte	0x5d4
 1858 0a7c C0010000 		.4byte	.LLST12
 1859 0a80 1C       		.uleb128 0x1c
 1860 0a81 6E00     		.ascii	"n\000"
 1861 0a83 01       		.byte	0x1
 1862 0a84 3E       		.byte	0x3e
 1863 0a85 2C000000 		.4byte	0x2c
 1864 0a89 E1010000 		.4byte	.LLST13
 1865 0a8d 1E       		.uleb128 0x1e
 1866 0a8e 3A000000 		.4byte	.LVL11
 1867 0a92 0A0F0000 		.4byte	0xf0a
 1868 0a96 1F       		.uleb128 0x1f
 1869 0a97 01       		.uleb128 0x1
 1870 0a98 53       		.byte	0x53
 1871 0a99 02       		.uleb128 0x2
 1872 0a9a 09       		.byte	0x9
 1873 0a9b FF       		.byte	0xff
 1874 0a9c 1F       		.uleb128 0x1f
 1875 0a9d 01       		.uleb128 0x1
ARM GAS  /tmp/ccghdKPJ.s 			page 34


 1876 0a9e 52       		.byte	0x52
 1877 0a9f 03       		.uleb128 0x3
 1878 0aa0 F3       		.byte	0xf3
 1879 0aa1 01       		.uleb128 0x1
 1880 0aa2 52       		.byte	0x52
 1881 0aa3 1F       		.uleb128 0x1f
 1882 0aa4 01       		.uleb128 0x1
 1883 0aa5 51       		.byte	0x51
 1884 0aa6 03       		.uleb128 0x3
 1885 0aa7 F3       		.byte	0xf3
 1886 0aa8 01       		.uleb128 0x1
 1887 0aa9 51       		.byte	0x51
 1888 0aaa 1F       		.uleb128 0x1f
 1889 0aab 01       		.uleb128 0x1
 1890 0aac 50       		.byte	0x50
 1891 0aad 05       		.uleb128 0x5
 1892 0aae F3       		.byte	0xf3
 1893 0aaf 01       		.uleb128 0x1
 1894 0ab0 50       		.byte	0x50
 1895 0ab1 23       		.byte	0x23
 1896 0ab2 30       		.uleb128 0x30
 1897 0ab3 00       		.byte	0
 1898 0ab4 00       		.byte	0
 1899 0ab5 1B       		.uleb128 0x1b
 1900 0ab6 C7010000 		.4byte	.LASF104
 1901 0aba 01       		.byte	0x1
 1902 0abb 59       		.byte	0x59
 1903 0abc 0C010000 		.4byte	0x10c
 1904 0ac0 40000000 		.4byte	.LFB135
 1905 0ac4 06000000 		.4byte	.LFE135-.LFB135
 1906 0ac8 01       		.uleb128 0x1
 1907 0ac9 9C       		.byte	0x9c
 1908 0aca 060B0000 		.4byte	0xb06
 1909 0ace 1C       		.uleb128 0x1c
 1910 0acf 697000   		.ascii	"ip\000"
 1911 0ad2 01       		.byte	0x1
 1912 0ad3 59       		.byte	0x59
 1913 0ad4 79020000 		.4byte	0x279
 1914 0ad8 02020000 		.4byte	.LLST14
 1915 0adc 1D       		.uleb128 0x1d
 1916 0add 29060000 		.4byte	.LASF108
 1917 0ae1 01       		.byte	0x1
 1918 0ae2 59       		.byte	0x59
 1919 0ae3 2D010000 		.4byte	0x12d
 1920 0ae7 30020000 		.4byte	.LLST15
 1921 0aeb 1E       		.uleb128 0x1e
 1922 0aec 46000000 		.4byte	.LVL14
 1923 0af0 2F0F0000 		.4byte	0xf2f
 1924 0af4 1F       		.uleb128 0x1f
 1925 0af5 01       		.uleb128 0x1
 1926 0af6 51       		.byte	0x51
 1927 0af7 03       		.uleb128 0x3
 1928 0af8 F3       		.byte	0xf3
 1929 0af9 01       		.uleb128 0x1
 1930 0afa 51       		.byte	0x51
 1931 0afb 1F       		.uleb128 0x1f
 1932 0afc 01       		.uleb128 0x1
ARM GAS  /tmp/ccghdKPJ.s 			page 35


 1933 0afd 50       		.byte	0x50
 1934 0afe 05       		.uleb128 0x5
 1935 0aff F3       		.byte	0xf3
 1936 0b00 01       		.uleb128 0x1
 1937 0b01 50       		.byte	0x50
 1938 0b02 23       		.byte	0x23
 1939 0b03 0C       		.uleb128 0xc
 1940 0b04 00       		.byte	0
 1941 0b05 00       		.byte	0
 1942 0b06 20       		.uleb128 0x20
 1943 0b07 67657400 		.ascii	"get\000"
 1944 0b0b 01       		.byte	0x1
 1945 0b0c 4F       		.byte	0x4f
 1946 0b0d 0C010000 		.4byte	0x10c
 1947 0b11 50000000 		.4byte	.LFB133
 1948 0b15 0A000000 		.4byte	.LFE133-.LFB133
 1949 0b19 01       		.uleb128 0x1
 1950 0b1a 9C       		.byte	0x9c
 1951 0b1b 470B0000 		.4byte	0xb47
 1952 0b1f 1C       		.uleb128 0x1c
 1953 0b20 697000   		.ascii	"ip\000"
 1954 0b23 01       		.byte	0x1
 1955 0b24 4F       		.byte	0x4f
 1956 0b25 79020000 		.4byte	0x279
 1957 0b29 51020000 		.4byte	.LLST16
 1958 0b2d 1E       		.uleb128 0x1e
 1959 0b2e 5A000000 		.4byte	.LVL17
 1960 0b32 2F0F0000 		.4byte	0xf2f
 1961 0b36 1F       		.uleb128 0x1f
 1962 0b37 01       		.uleb128 0x1
 1963 0b38 51       		.byte	0x51
 1964 0b39 02       		.uleb128 0x2
 1965 0b3a 09       		.byte	0x9
 1966 0b3b FF       		.byte	0xff
 1967 0b3c 1F       		.uleb128 0x1f
 1968 0b3d 01       		.uleb128 0x1
 1969 0b3e 50       		.byte	0x50
 1970 0b3f 05       		.uleb128 0x5
 1971 0b40 F3       		.byte	0xf3
 1972 0b41 01       		.uleb128 0x1
 1973 0b42 50       		.byte	0x50
 1974 0b43 23       		.byte	0x23
 1975 0b44 0C       		.uleb128 0xc
 1976 0b45 00       		.byte	0
 1977 0b46 00       		.byte	0
 1978 0b47 1B       		.uleb128 0x1b
 1979 0b48 75020000 		.4byte	.LASF103
 1980 0b4c 01       		.byte	0x1
 1981 0b4d 54       		.byte	0x54
 1982 0b4e 0C010000 		.4byte	0x10c
 1983 0b52 60000000 		.4byte	.LFB134
 1984 0b56 06000000 		.4byte	.LFE134-.LFB134
 1985 0b5a 01       		.uleb128 0x1
 1986 0b5b 9C       		.byte	0x9c
 1987 0b5c A50B0000 		.4byte	0xba5
 1988 0b60 1C       		.uleb128 0x1c
 1989 0b61 697000   		.ascii	"ip\000"
ARM GAS  /tmp/ccghdKPJ.s 			page 36


 1990 0b64 01       		.byte	0x1
 1991 0b65 54       		.byte	0x54
 1992 0b66 79020000 		.4byte	0x279
 1993 0b6a 7F020000 		.4byte	.LLST17
 1994 0b6e 1C       		.uleb128 0x1c
 1995 0b6f 6200     		.ascii	"b\000"
 1996 0b71 01       		.byte	0x1
 1997 0b72 54       		.byte	0x54
 1998 0b73 A2000000 		.4byte	0xa2
 1999 0b77 AD020000 		.4byte	.LLST18
 2000 0b7b 1D       		.uleb128 0x1d
 2001 0b7c 29060000 		.4byte	.LASF108
 2002 0b80 01       		.byte	0x1
 2003 0b81 54       		.byte	0x54
 2004 0b82 2D010000 		.4byte	0x12d
 2005 0b86 CE020000 		.4byte	.LLST19
 2006 0b8a 1E       		.uleb128 0x1e
 2007 0b8b 66000000 		.4byte	.LVL20
 2008 0b8f 4A0F0000 		.4byte	0xf4a
 2009 0b93 1F       		.uleb128 0x1f
 2010 0b94 01       		.uleb128 0x1
 2011 0b95 52       		.byte	0x52
 2012 0b96 03       		.uleb128 0x3
 2013 0b97 F3       		.byte	0xf3
 2014 0b98 01       		.uleb128 0x1
 2015 0b99 52       		.byte	0x52
 2016 0b9a 1F       		.uleb128 0x1f
 2017 0b9b 01       		.uleb128 0x1
 2018 0b9c 50       		.byte	0x50
 2019 0b9d 05       		.uleb128 0x5
 2020 0b9e F3       		.byte	0xf3
 2021 0b9f 01       		.uleb128 0x1
 2022 0ba0 50       		.byte	0x50
 2023 0ba1 23       		.byte	0x23
 2024 0ba2 30       		.uleb128 0x30
 2025 0ba3 00       		.byte	0
 2026 0ba4 00       		.byte	0
 2027 0ba5 20       		.uleb128 0x20
 2028 0ba6 70757400 		.ascii	"put\000"
 2029 0baa 01       		.byte	0x1
 2030 0bab 4A       		.byte	0x4a
 2031 0bac 0C010000 		.4byte	0x10c
 2032 0bb0 70000000 		.4byte	.LFB132
 2033 0bb4 0A000000 		.4byte	.LFE132-.LFB132
 2034 0bb8 01       		.uleb128 0x1
 2035 0bb9 9C       		.byte	0x9c
 2036 0bba F30B0000 		.4byte	0xbf3
 2037 0bbe 1C       		.uleb128 0x1c
 2038 0bbf 697000   		.ascii	"ip\000"
 2039 0bc2 01       		.byte	0x1
 2040 0bc3 4A       		.byte	0x4a
 2041 0bc4 79020000 		.4byte	0x279
 2042 0bc8 EF020000 		.4byte	.LLST20
 2043 0bcc 1C       		.uleb128 0x1c
 2044 0bcd 6200     		.ascii	"b\000"
 2045 0bcf 01       		.byte	0x1
 2046 0bd0 4A       		.byte	0x4a
ARM GAS  /tmp/ccghdKPJ.s 			page 37


 2047 0bd1 A2000000 		.4byte	0xa2
 2048 0bd5 1D030000 		.4byte	.LLST21
 2049 0bd9 1E       		.uleb128 0x1e
 2050 0bda 7A000000 		.4byte	.LVL23
 2051 0bde 4A0F0000 		.4byte	0xf4a
 2052 0be2 1F       		.uleb128 0x1f
 2053 0be3 01       		.uleb128 0x1
 2054 0be4 52       		.byte	0x52
 2055 0be5 02       		.uleb128 0x2
 2056 0be6 09       		.byte	0x9
 2057 0be7 FF       		.byte	0xff
 2058 0be8 1F       		.uleb128 0x1f
 2059 0be9 01       		.uleb128 0x1
 2060 0bea 50       		.byte	0x50
 2061 0beb 05       		.uleb128 0x5
 2062 0bec F3       		.byte	0xf3
 2063 0bed 01       		.uleb128 0x1
 2064 0bee 50       		.byte	0x50
 2065 0bef 23       		.byte	0x23
 2066 0bf0 30       		.uleb128 0x30
 2067 0bf1 00       		.byte	0
 2068 0bf2 00       		.byte	0
 2069 0bf3 21       		.uleb128 0x21
 2070 0bf4 31060000 		.4byte	.LASF109
 2071 0bf8 01       		.byte	0x1
 2072 0bf9 78       		.byte	0x78
 2073 0bfa 80000000 		.4byte	.LFB138
 2074 0bfe 04000000 		.4byte	.LFE138-.LFB138
 2075 0c02 01       		.uleb128 0x1
 2076 0c03 9C       		.byte	0x9c
 2077 0c04 120C0000 		.4byte	0xc12
 2078 0c08 22       		.uleb128 0x22
 2079 0c09 84000000 		.4byte	.LVL24
 2080 0c0d 6A0F0000 		.4byte	0xf6a
 2081 0c11 00       		.byte	0
 2082 0c12 21       		.uleb128 0x21
 2083 0c13 70000000 		.4byte	.LASF110
 2084 0c17 01       		.byte	0x1
 2085 0c18 8C       		.byte	0x8c
 2086 0c19 90000000 		.4byte	.LFB139
 2087 0c1d 40000000 		.4byte	.LFE139-.LFB139
 2088 0c21 01       		.uleb128 0x1
 2089 0c22 9C       		.byte	0x9c
 2090 0c23 A70C0000 		.4byte	0xca7
 2091 0c27 1C       		.uleb128 0x1c
 2092 0c28 73647000 		.ascii	"sdp\000"
 2093 0c2c 01       		.byte	0x1
 2094 0c2d 8C       		.byte	0x8c
 2095 0c2e A70C0000 		.4byte	0xca7
 2096 0c32 3E030000 		.4byte	.LLST22
 2097 0c36 1D       		.uleb128 0x1d
 2098 0c37 A8010000 		.4byte	.LASF111
 2099 0c3b 01       		.byte	0x1
 2100 0c3c 8C       		.byte	0x8c
 2101 0c3d 7D050000 		.4byte	0x57d
 2102 0c41 6A030000 		.4byte	.LLST23
 2103 0c45 1D       		.uleb128 0x1d
ARM GAS  /tmp/ccghdKPJ.s 			page 38


 2104 0c46 F3050000 		.4byte	.LASF112
 2105 0c4a 01       		.byte	0x1
 2106 0c4b 8C       		.byte	0x8c
 2107 0c4c 7D050000 		.4byte	0x57d
 2108 0c50 96030000 		.4byte	.LLST24
 2109 0c54 23       		.uleb128 0x23
 2110 0c55 B6000000 		.4byte	.LVL29
 2111 0c59 720F0000 		.4byte	0xf72
 2112 0c5d 7C0C0000 		.4byte	0xc7c
 2113 0c61 1F       		.uleb128 0x1f
 2114 0c62 01       		.uleb128 0x1
 2115 0c63 53       		.byte	0x53
 2116 0c64 03       		.uleb128 0x3
 2117 0c65 F3       		.byte	0xf3
 2118 0c66 01       		.uleb128 0x1
 2119 0c67 51       		.byte	0x51
 2120 0c68 1F       		.uleb128 0x1f
 2121 0c69 01       		.uleb128 0x1
 2122 0c6a 52       		.byte	0x52
 2123 0c6b 02       		.uleb128 0x2
 2124 0c6c 08       		.byte	0x8
 2125 0c6d 20       		.byte	0x20
 2126 0c6e 1F       		.uleb128 0x1f
 2127 0c6f 01       		.uleb128 0x1
 2128 0c70 51       		.byte	0x51
 2129 0c71 03       		.uleb128 0x3
 2130 0c72 74       		.byte	0x74
 2131 0c73 D400     		.sleb128 84
 2132 0c75 1F       		.uleb128 0x1f
 2133 0c76 01       		.uleb128 0x1
 2134 0c77 50       		.byte	0x50
 2135 0c78 02       		.uleb128 0x2
 2136 0c79 74       		.byte	0x74
 2137 0c7a 0C       		.sleb128 12
 2138 0c7b 00       		.byte	0
 2139 0c7c 24       		.uleb128 0x24
 2140 0c7d C8000000 		.4byte	.LVL30
 2141 0c81 980F0000 		.4byte	0xf98
 2142 0c85 1F       		.uleb128 0x1f
 2143 0c86 01       		.uleb128 0x1
 2144 0c87 53       		.byte	0x53
 2145 0c88 02       		.uleb128 0x2
 2146 0c89 75       		.byte	0x75
 2147 0c8a 00       		.sleb128 0
 2148 0c8b 1F       		.uleb128 0x1f
 2149 0c8c 01       		.uleb128 0x1
 2150 0c8d 52       		.byte	0x52
 2151 0c8e 02       		.uleb128 0x2
 2152 0c8f 08       		.byte	0x8
 2153 0c90 20       		.byte	0x20
 2154 0c91 1F       		.uleb128 0x1f
 2155 0c92 01       		.uleb128 0x1
 2156 0c93 51       		.byte	0x51
 2157 0c94 03       		.uleb128 0x3
 2158 0c95 74       		.byte	0x74
 2159 0c96 F400     		.sleb128 116
 2160 0c98 1F       		.uleb128 0x1f
ARM GAS  /tmp/ccghdKPJ.s 			page 39


 2161 0c99 01       		.uleb128 0x1
 2162 0c9a 50       		.byte	0x50
 2163 0c9b 02       		.uleb128 0x2
 2164 0c9c 74       		.byte	0x74
 2165 0c9d 30       		.sleb128 48
 2166 0c9e 1F       		.uleb128 0x1f
 2167 0c9f 02       		.uleb128 0x2
 2168 0ca0 7D       		.byte	0x7d
 2169 0ca1 00       		.sleb128 0
 2170 0ca2 02       		.uleb128 0x2
 2171 0ca3 74       		.byte	0x74
 2172 0ca4 00       		.sleb128 0
 2173 0ca5 00       		.byte	0
 2174 0ca6 00       		.byte	0
 2175 0ca7 09       		.uleb128 0x9
 2176 0ca8 04       		.byte	0x4
 2177 0ca9 99070000 		.4byte	0x799
 2178 0cad 21       		.uleb128 0x21
 2179 0cae 4C050000 		.4byte	.LASF113
 2180 0cb2 01       		.byte	0x1
 2181 0cb3 9F       		.byte	0x9f
 2182 0cb4 D0000000 		.4byte	.LFB140
 2183 0cb8 1A000000 		.4byte	.LFE140-.LFB140
 2184 0cbc 01       		.uleb128 0x1
 2185 0cbd 9C       		.byte	0x9c
 2186 0cbe 2A0D0000 		.4byte	0xd2a
 2187 0cc2 1C       		.uleb128 0x1c
 2188 0cc3 73647000 		.ascii	"sdp\000"
 2189 0cc7 01       		.byte	0x1
 2190 0cc8 9F       		.byte	0x9f
 2191 0cc9 A70C0000 		.4byte	0xca7
 2192 0ccd C2030000 		.4byte	.LLST25
 2193 0cd1 1D       		.uleb128 0x1d
 2194 0cd2 45050000 		.4byte	.LASF114
 2195 0cd6 01       		.byte	0x1
 2196 0cd7 9F       		.byte	0x9f
 2197 0cd8 2A0D0000 		.4byte	0xd2a
 2198 0cdc E0030000 		.4byte	.LLST26
 2199 0ce0 25       		.uleb128 0x25
 2200 0ce1 00000000 		.4byte	.Ldebug_ranges0+0
 2201 0ce5 F70C0000 		.4byte	0xcf7
 2202 0ce9 26       		.uleb128 0x26
 2203 0cea 746D7000 		.ascii	"tmp\000"
 2204 0cee 01       		.byte	0x1
 2205 0cef A3       		.byte	0xa3
 2206 0cf0 C3000000 		.4byte	0xc3
 2207 0cf4 01       		.uleb128 0x1
 2208 0cf5 53       		.byte	0x53
 2209 0cf6 00       		.byte	0
 2210 0cf7 27       		.uleb128 0x27
 2211 0cf8 E2000000 		.4byte	.LBB4
 2212 0cfc 08000000 		.4byte	.LBE4-.LBB4
 2213 0d00 120D0000 		.4byte	0xd12
 2214 0d04 26       		.uleb128 0x26
 2215 0d05 746D7000 		.ascii	"tmp\000"
 2216 0d09 01       		.byte	0x1
 2217 0d0a A9       		.byte	0xa9
ARM GAS  /tmp/ccghdKPJ.s 			page 40


 2218 0d0b C3000000 		.4byte	0xc3
 2219 0d0f 01       		.uleb128 0x1
 2220 0d10 53       		.byte	0x53
 2221 0d11 00       		.byte	0
 2222 0d12 24       		.uleb128 0x24
 2223 0d13 DE000000 		.4byte	.LVL33
 2224 0d17 BE0F0000 		.4byte	0xfbe
 2225 0d1b 1F       		.uleb128 0x1f
 2226 0d1c 01       		.uleb128 0x1
 2227 0d1d 51       		.byte	0x51
 2228 0d1e 03       		.uleb128 0x3
 2229 0d1f F3       		.byte	0xf3
 2230 0d20 01       		.uleb128 0x1
 2231 0d21 51       		.byte	0x51
 2232 0d22 1F       		.uleb128 0x1f
 2233 0d23 01       		.uleb128 0x1
 2234 0d24 50       		.byte	0x50
 2235 0d25 02       		.uleb128 0x2
 2236 0d26 74       		.byte	0x74
 2237 0d27 00       		.sleb128 0
 2238 0d28 00       		.byte	0
 2239 0d29 00       		.byte	0
 2240 0d2a 09       		.uleb128 0x9
 2241 0d2b 04       		.byte	0x4
 2242 0d2c 300D0000 		.4byte	0xd30
 2243 0d30 0F       		.uleb128 0xf
 2244 0d31 48080000 		.4byte	0x848
 2245 0d35 21       		.uleb128 0x21
 2246 0d36 F6020000 		.4byte	.LASF115
 2247 0d3a 01       		.byte	0x1
 2248 0d3b B5       		.byte	0xb5
 2249 0d3c F0000000 		.4byte	.LFB141
 2250 0d40 2E000000 		.4byte	.LFE141-.LFB141
 2251 0d44 01       		.uleb128 0x1
 2252 0d45 9C       		.byte	0x9c
 2253 0d46 D10D0000 		.4byte	0xdd1
 2254 0d4a 1C       		.uleb128 0x1c
 2255 0d4b 73647000 		.ascii	"sdp\000"
 2256 0d4f 01       		.byte	0x1
 2257 0d50 B5       		.byte	0xb5
 2258 0d51 A70C0000 		.4byte	0xca7
 2259 0d55 01040000 		.4byte	.LLST27
 2260 0d59 25       		.uleb128 0x25
 2261 0d5a 18000000 		.4byte	.Ldebug_ranges0+0x18
 2262 0d5e 700D0000 		.4byte	0xd70
 2263 0d62 26       		.uleb128 0x26
 2264 0d63 746D7000 		.ascii	"tmp\000"
 2265 0d67 01       		.byte	0x1
 2266 0d68 B9       		.byte	0xb9
 2267 0d69 C3000000 		.4byte	0xc3
 2268 0d6d 01       		.uleb128 0x1
 2269 0d6e 53       		.byte	0x53
 2270 0d6f 00       		.byte	0
 2271 0d70 27       		.uleb128 0x27
 2272 0d71 16010000 		.4byte	.LBB7
 2273 0d75 08000000 		.4byte	.LBE7-.LBB7
 2274 0d79 8B0D0000 		.4byte	0xd8b
ARM GAS  /tmp/ccghdKPJ.s 			page 41


 2275 0d7d 26       		.uleb128 0x26
 2276 0d7e 746D7000 		.ascii	"tmp\000"
 2277 0d82 01       		.byte	0x1
 2278 0d83 C2       		.byte	0xc2
 2279 0d84 C3000000 		.4byte	0xc3
 2280 0d88 01       		.uleb128 0x1
 2281 0d89 53       		.byte	0x53
 2282 0d8a 00       		.byte	0
 2283 0d8b 23       		.uleb128 0x23
 2284 0d8c FE000000 		.4byte	.LVL35
 2285 0d90 D50F0000 		.4byte	0xfd5
 2286 0d94 9F0D0000 		.4byte	0xd9f
 2287 0d98 1F       		.uleb128 0x1f
 2288 0d99 01       		.uleb128 0x1
 2289 0d9a 50       		.byte	0x50
 2290 0d9b 02       		.uleb128 0x2
 2291 0d9c 74       		.byte	0x74
 2292 0d9d 00       		.sleb128 0
 2293 0d9e 00       		.byte	0
 2294 0d9f 23       		.uleb128 0x23
 2295 0da0 0A010000 		.4byte	.LVL36
 2296 0da4 E70F0000 		.4byte	0xfe7
 2297 0da8 B30D0000 		.4byte	0xdb3
 2298 0dac 1F       		.uleb128 0x1f
 2299 0dad 01       		.uleb128 0x1
 2300 0dae 50       		.byte	0x50
 2301 0daf 02       		.uleb128 0x2
 2302 0db0 74       		.byte	0x74
 2303 0db1 30       		.sleb128 48
 2304 0db2 00       		.byte	0
 2305 0db3 23       		.uleb128 0x23
 2306 0db4 12010000 		.4byte	.LVL37
 2307 0db8 F90F0000 		.4byte	0xff9
 2308 0dbc C70D0000 		.4byte	0xdc7
 2309 0dc0 1F       		.uleb128 0x1f
 2310 0dc1 01       		.uleb128 0x1
 2311 0dc2 50       		.byte	0x50
 2312 0dc3 02       		.uleb128 0x2
 2313 0dc4 74       		.byte	0x74
 2314 0dc5 0C       		.sleb128 12
 2315 0dc6 00       		.byte	0
 2316 0dc7 28       		.uleb128 0x28
 2317 0dc8 16010000 		.4byte	.LVL38
 2318 0dcc 0B100000 		.4byte	0x100b
 2319 0dd0 00       		.byte	0
 2320 0dd1 21       		.uleb128 0x21
 2321 0dd2 35050000 		.4byte	.LASF116
 2322 0dd6 01       		.byte	0x1
 2323 0dd7 D5       		.byte	0xd5
 2324 0dd8 20010000 		.4byte	.LFB142
 2325 0ddc 3C000000 		.4byte	.LFE142-.LFB142
 2326 0de0 01       		.uleb128 0x1
 2327 0de1 9C       		.byte	0x9c
 2328 0de2 690E0000 		.4byte	0xe69
 2329 0de6 1C       		.uleb128 0x1c
 2330 0de7 73647000 		.ascii	"sdp\000"
 2331 0deb 01       		.byte	0x1
ARM GAS  /tmp/ccghdKPJ.s 			page 42


 2332 0dec D5       		.byte	0xd5
 2333 0ded A70C0000 		.4byte	0xca7
 2334 0df1 1F040000 		.4byte	.LLST28
 2335 0df5 1C       		.uleb128 0x1c
 2336 0df6 6200     		.ascii	"b\000"
 2337 0df8 01       		.byte	0x1
 2338 0df9 D5       		.byte	0xd5
 2339 0dfa A2000000 		.4byte	0xa2
 2340 0dfe 6E040000 		.4byte	.LLST29
 2341 0e02 23       		.uleb128 0x23
 2342 0e03 34010000 		.4byte	.LVL42
 2343 0e07 12100000 		.4byte	0x1012
 2344 0e0b 1C0E0000 		.4byte	0xe1c
 2345 0e0f 1F       		.uleb128 0x1f
 2346 0e10 01       		.uleb128 0x1
 2347 0e11 51       		.byte	0x51
 2348 0e12 02       		.uleb128 0x2
 2349 0e13 75       		.byte	0x75
 2350 0e14 00       		.sleb128 0
 2351 0e15 1F       		.uleb128 0x1f
 2352 0e16 01       		.uleb128 0x1
 2353 0e17 50       		.byte	0x50
 2354 0e18 02       		.uleb128 0x2
 2355 0e19 74       		.byte	0x74
 2356 0e1a 0C       		.sleb128 12
 2357 0e1b 00       		.byte	0
 2358 0e1c 23       		.uleb128 0x23
 2359 0e1d 42010000 		.4byte	.LVL46
 2360 0e21 2D100000 		.4byte	0x102d
 2361 0e25 350E0000 		.4byte	0xe35
 2362 0e29 1F       		.uleb128 0x1f
 2363 0e2a 01       		.uleb128 0x1
 2364 0e2b 51       		.byte	0x51
 2365 0e2c 01       		.uleb128 0x1
 2366 0e2d 34       		.byte	0x34
 2367 0e2e 1F       		.uleb128 0x1f
 2368 0e2f 01       		.uleb128 0x1
 2369 0e30 50       		.byte	0x50
 2370 0e31 02       		.uleb128 0x2
 2371 0e32 74       		.byte	0x74
 2372 0e33 04       		.sleb128 4
 2373 0e34 00       		.byte	0
 2374 0e35 23       		.uleb128 0x23
 2375 0e36 4C010000 		.4byte	.LVL47
 2376 0e3a 12100000 		.4byte	0x1012
 2377 0e3e 4F0E0000 		.4byte	0xe4f
 2378 0e42 1F       		.uleb128 0x1f
 2379 0e43 01       		.uleb128 0x1
 2380 0e44 51       		.byte	0x51
 2381 0e45 02       		.uleb128 0x2
 2382 0e46 75       		.byte	0x75
 2383 0e47 00       		.sleb128 0
 2384 0e48 1F       		.uleb128 0x1f
 2385 0e49 01       		.uleb128 0x1
 2386 0e4a 50       		.byte	0x50
 2387 0e4b 02       		.uleb128 0x2
 2388 0e4c 74       		.byte	0x74
ARM GAS  /tmp/ccghdKPJ.s 			page 43


 2389 0e4d 0C       		.sleb128 12
 2390 0e4e 00       		.byte	0
 2391 0e4f 1E       		.uleb128 0x1e
 2392 0e50 5C010000 		.4byte	.LVL49
 2393 0e54 2D100000 		.4byte	0x102d
 2394 0e58 1F       		.uleb128 0x1f
 2395 0e59 01       		.uleb128 0x1
 2396 0e5a 51       		.byte	0x51
 2397 0e5b 02       		.uleb128 0x2
 2398 0e5c 08       		.byte	0x8
 2399 0e5d 80       		.byte	0x80
 2400 0e5e 1F       		.uleb128 0x1f
 2401 0e5f 01       		.uleb128 0x1
 2402 0e60 50       		.byte	0x50
 2403 0e61 05       		.uleb128 0x5
 2404 0e62 F3       		.byte	0xf3
 2405 0e63 01       		.uleb128 0x1
 2406 0e64 50       		.byte	0x50
 2407 0e65 23       		.byte	0x23
 2408 0e66 04       		.uleb128 0x4
 2409 0e67 00       		.byte	0
 2410 0e68 00       		.byte	0
 2411 0e69 29       		.uleb128 0x29
 2412 0e6a DC050000 		.4byte	.LASF135
 2413 0e6e 01       		.byte	0x1
 2414 0e6f EF       		.byte	0xef
 2415 0e70 0C010000 		.4byte	0x10c
 2416 0e74 60010000 		.4byte	.LFB143
 2417 0e78 1E000000 		.4byte	.LFE143-.LFB143
 2418 0e7c 01       		.uleb128 0x1
 2419 0e7d 9C       		.byte	0x9c
 2420 0e7e C80E0000 		.4byte	0xec8
 2421 0e82 1C       		.uleb128 0x1c
 2422 0e83 73647000 		.ascii	"sdp\000"
 2423 0e87 01       		.byte	0x1
 2424 0e88 EF       		.byte	0xef
 2425 0e89 A70C0000 		.4byte	0xca7
 2426 0e8d A8040000 		.4byte	.LLST30
 2427 0e91 2A       		.uleb128 0x2a
 2428 0e92 6200     		.ascii	"b\000"
 2429 0e94 01       		.byte	0x1
 2430 0e95 F0       		.byte	0xf0
 2431 0e96 0C010000 		.4byte	0x10c
 2432 0e9a C6040000 		.4byte	.LLST31
 2433 0e9e 23       		.uleb128 0x23
 2434 0e9f 6A010000 		.4byte	.LVL52
 2435 0ea3 49100000 		.4byte	0x1049
 2436 0ea7 B20E0000 		.4byte	0xeb2
 2437 0eab 1F       		.uleb128 0x1f
 2438 0eac 01       		.uleb128 0x1
 2439 0ead 50       		.byte	0x50
 2440 0eae 02       		.uleb128 0x2
 2441 0eaf 74       		.byte	0x74
 2442 0eb0 30       		.sleb128 48
 2443 0eb1 00       		.byte	0
 2444 0eb2 24       		.uleb128 0x24
 2445 0eb3 7A010000 		.4byte	.LVL55
ARM GAS  /tmp/ccghdKPJ.s 			page 44


 2446 0eb7 2D100000 		.4byte	0x102d
 2447 0ebb 1F       		.uleb128 0x1f
 2448 0ebc 01       		.uleb128 0x1
 2449 0ebd 51       		.byte	0x51
 2450 0ebe 01       		.uleb128 0x1
 2451 0ebf 38       		.byte	0x38
 2452 0ec0 1F       		.uleb128 0x1f
 2453 0ec1 01       		.uleb128 0x1
 2454 0ec2 50       		.byte	0x50
 2455 0ec3 02       		.uleb128 0x2
 2456 0ec4 74       		.byte	0x74
 2457 0ec5 04       		.sleb128 4
 2458 0ec6 00       		.byte	0
 2459 0ec7 00       		.byte	0
 2460 0ec8 26       		.uleb128 0x26
 2461 0ec9 766D7400 		.ascii	"vmt\000"
 2462 0ecd 01       		.byte	0x1
 2463 0ece 68       		.byte	0x68
 2464 0ecf C6080000 		.4byte	0x8c6
 2465 0ed3 05       		.uleb128 0x5
 2466 0ed4 03       		.byte	0x3
 2467 0ed5 00000000 		.4byte	vmt
 2468 0ed9 2B       		.uleb128 0x2b
 2469 0eda 63000000 		.4byte	.LASF136
 2470 0ede 10       		.byte	0x10
 2471 0edf DF07     		.2byte	0x7df
 2472 0ee1 23060000 		.4byte	0x623
 2473 0ee5 2C       		.uleb128 0x2c
 2474 0ee6 33000000 		.4byte	.LASF117
 2475 0eea 0B       		.byte	0xb
 2476 0eeb 6701     		.2byte	0x167
 2477 0eed 2C000000 		.4byte	0x2c
 2478 0ef1 0A0F0000 		.4byte	0xf0a
 2479 0ef5 11       		.uleb128 0x11
 2480 0ef6 E7080000 		.4byte	0x8e7
 2481 0efa 11       		.uleb128 0x11
 2482 0efb 9F050000 		.4byte	0x59f
 2483 0eff 11       		.uleb128 0x11
 2484 0f00 2C000000 		.4byte	0x2c
 2485 0f04 11       		.uleb128 0x11
 2486 0f05 2D010000 		.4byte	0x12d
 2487 0f09 00       		.byte	0
 2488 0f0a 2C       		.uleb128 0x2c
 2489 0f0b 44020000 		.4byte	.LASF118
 2490 0f0f 0B       		.byte	0xb
 2491 0f10 6F01     		.2byte	0x16f
 2492 0f12 2C000000 		.4byte	0x2c
 2493 0f16 2F0F0000 		.4byte	0xf2f
 2494 0f1a 11       		.uleb128 0x11
 2495 0f1b E1080000 		.4byte	0x8e1
 2496 0f1f 11       		.uleb128 0x11
 2497 0f20 D4050000 		.4byte	0x5d4
 2498 0f24 11       		.uleb128 0x11
 2499 0f25 2C000000 		.4byte	0x2c
 2500 0f29 11       		.uleb128 0x11
 2501 0f2a 2D010000 		.4byte	0x12d
 2502 0f2e 00       		.byte	0
ARM GAS  /tmp/ccghdKPJ.s 			page 45


 2503 0f2f 2C       		.uleb128 0x2c
 2504 0f30 59060000 		.4byte	.LASF119
 2505 0f34 0B       		.byte	0xb
 2506 0f35 6601     		.2byte	0x166
 2507 0f37 0C010000 		.4byte	0x10c
 2508 0f3b 4A0F0000 		.4byte	0xf4a
 2509 0f3f 11       		.uleb128 0x11
 2510 0f40 E7080000 		.4byte	0x8e7
 2511 0f44 11       		.uleb128 0x11
 2512 0f45 2D010000 		.4byte	0x12d
 2513 0f49 00       		.byte	0
 2514 0f4a 2C       		.uleb128 0x2c
 2515 0f4b 00000000 		.4byte	.LASF120
 2516 0f4f 0B       		.byte	0xb
 2517 0f50 6D01     		.2byte	0x16d
 2518 0f52 0C010000 		.4byte	0x10c
 2519 0f56 6A0F0000 		.4byte	0xf6a
 2520 0f5a 11       		.uleb128 0x11
 2521 0f5b E1080000 		.4byte	0x8e1
 2522 0f5f 11       		.uleb128 0x11
 2523 0f60 A2000000 		.4byte	0xa2
 2524 0f64 11       		.uleb128 0x11
 2525 0f65 2D010000 		.4byte	0x12d
 2526 0f69 00       		.byte	0
 2527 0f6a 2D       		.uleb128 0x2d
 2528 0f6b BB010000 		.4byte	.LASF127
 2529 0f6f 0E       		.byte	0xe
 2530 0f70 2401     		.2byte	0x124
 2531 0f72 2E       		.uleb128 0x2e
 2532 0f73 38060000 		.4byte	.LASF121
 2533 0f77 0B       		.byte	0xb
 2534 0f78 6201     		.2byte	0x162
 2535 0f7a 980F0000 		.4byte	0xf98
 2536 0f7e 11       		.uleb128 0x11
 2537 0f7f E7080000 		.4byte	0x8e7
 2538 0f83 11       		.uleb128 0x11
 2539 0f84 9F050000 		.4byte	0x59f
 2540 0f88 11       		.uleb128 0x11
 2541 0f89 2C000000 		.4byte	0x2c
 2542 0f8d 11       		.uleb128 0x11
 2543 0f8e 7D050000 		.4byte	0x57d
 2544 0f92 11       		.uleb128 0x11
 2545 0f93 79020000 		.4byte	0x279
 2546 0f97 00       		.byte	0
 2547 0f98 2E       		.uleb128 0x2e
 2548 0f99 D3000000 		.4byte	.LASF122
 2549 0f9d 0B       		.byte	0xb
 2550 0f9e 6A01     		.2byte	0x16a
 2551 0fa0 BE0F0000 		.4byte	0xfbe
 2552 0fa4 11       		.uleb128 0x11
 2553 0fa5 E1080000 		.4byte	0x8e1
 2554 0fa9 11       		.uleb128 0x11
 2555 0faa 9F050000 		.4byte	0x59f
 2556 0fae 11       		.uleb128 0x11
 2557 0faf 2C000000 		.4byte	0x2c
 2558 0fb3 11       		.uleb128 0x11
 2559 0fb4 7D050000 		.4byte	0x57d
ARM GAS  /tmp/ccghdKPJ.s 			page 46


 2560 0fb8 11       		.uleb128 0x11
 2561 0fb9 79020000 		.4byte	0x279
 2562 0fbd 00       		.byte	0
 2563 0fbe 2E       		.uleb128 0x2e
 2564 0fbf 7E030000 		.4byte	.LASF123
 2565 0fc3 0E       		.byte	0xe
 2566 0fc4 2501     		.2byte	0x125
 2567 0fc6 D50F0000 		.4byte	0xfd5
 2568 0fca 11       		.uleb128 0x11
 2569 0fcb A70C0000 		.4byte	0xca7
 2570 0fcf 11       		.uleb128 0x11
 2571 0fd0 2A0D0000 		.4byte	0xd2a
 2572 0fd4 00       		.byte	0
 2573 0fd5 2E       		.uleb128 0x2e
 2574 0fd6 1D060000 		.4byte	.LASF124
 2575 0fda 0E       		.byte	0xe
 2576 0fdb 2601     		.2byte	0x126
 2577 0fdd E70F0000 		.4byte	0xfe7
 2578 0fe1 11       		.uleb128 0x11
 2579 0fe2 A70C0000 		.4byte	0xca7
 2580 0fe6 00       		.byte	0
 2581 0fe7 2E       		.uleb128 0x2e
 2582 0fe8 85050000 		.4byte	.LASF125
 2583 0fec 0B       		.byte	0xb
 2584 0fed 6C01     		.2byte	0x16c
 2585 0fef F90F0000 		.4byte	0xff9
 2586 0ff3 11       		.uleb128 0x11
 2587 0ff4 E1080000 		.4byte	0x8e1
 2588 0ff8 00       		.byte	0
 2589 0ff9 2E       		.uleb128 0x2e
 2590 0ffa 9D010000 		.4byte	.LASF126
 2591 0ffe 0B       		.byte	0xb
 2592 0fff 6401     		.2byte	0x164
 2593 1001 0B100000 		.4byte	0x100b
 2594 1005 11       		.uleb128 0x11
 2595 1006 E7080000 		.4byte	0x8e7
 2596 100a 00       		.byte	0
 2597 100b 2F       		.uleb128 0x2f
 2598 100c 37010000 		.4byte	.LASF128
 2599 1010 0F       		.byte	0xf
 2600 1011 9C       		.byte	0x9c
 2601 1012 2C       		.uleb128 0x2c
 2602 1013 5C010000 		.4byte	.LASF129
 2603 1017 0B       		.byte	0xb
 2604 1018 6501     		.2byte	0x165
 2605 101a 0C010000 		.4byte	0x10c
 2606 101e 2D100000 		.4byte	0x102d
 2607 1022 11       		.uleb128 0x11
 2608 1023 E7080000 		.4byte	0x8e7
 2609 1027 11       		.uleb128 0x11
 2610 1028 A2000000 		.4byte	0xa2
 2611 102c 00       		.byte	0
 2612 102d 30       		.uleb128 0x30
 2613 102e 07010000 		.4byte	.LASF130
 2614 1032 0A       		.byte	0xa
 2615 1033 BA       		.byte	0xba
 2616 1034 43100000 		.4byte	0x1043
ARM GAS  /tmp/ccghdKPJ.s 			page 47


 2617 1038 11       		.uleb128 0x11
 2618 1039 43100000 		.4byte	0x1043
 2619 103d 11       		.uleb128 0x11
 2620 103e 22010000 		.4byte	0x122
 2621 1042 00       		.byte	0
 2622 1043 09       		.uleb128 0x9
 2623 1044 04       		.byte	0x4
 2624 1045 98040000 		.4byte	0x498
 2625 1049 31       		.uleb128 0x31
 2626 104a EE000000 		.4byte	.LASF131
 2627 104e 0B       		.byte	0xb
 2628 104f 6E01     		.2byte	0x16e
 2629 1051 0C010000 		.4byte	0x10c
 2630 1055 11       		.uleb128 0x11
 2631 1056 E1080000 		.4byte	0x8e1
 2632 105a 00       		.byte	0
 2633 105b 00       		.byte	0
 2634              		.section	.debug_abbrev,"",%progbits
 2635              	.Ldebug_abbrev0:
 2636 0000 01       		.uleb128 0x1
 2637 0001 11       		.uleb128 0x11
 2638 0002 01       		.byte	0x1
 2639 0003 25       		.uleb128 0x25
 2640 0004 0E       		.uleb128 0xe
 2641 0005 13       		.uleb128 0x13
 2642 0006 0B       		.uleb128 0xb
 2643 0007 03       		.uleb128 0x3
 2644 0008 0E       		.uleb128 0xe
 2645 0009 1B       		.uleb128 0x1b
 2646 000a 0E       		.uleb128 0xe
 2647 000b 11       		.uleb128 0x11
 2648 000c 01       		.uleb128 0x1
 2649 000d 12       		.uleb128 0x12
 2650 000e 06       		.uleb128 0x6
 2651 000f 10       		.uleb128 0x10
 2652 0010 17       		.uleb128 0x17
 2653 0011 00       		.byte	0
 2654 0012 00       		.byte	0
 2655 0013 02       		.uleb128 0x2
 2656 0014 24       		.uleb128 0x24
 2657 0015 00       		.byte	0
 2658 0016 0B       		.uleb128 0xb
 2659 0017 0B       		.uleb128 0xb
 2660 0018 3E       		.uleb128 0x3e
 2661 0019 0B       		.uleb128 0xb
 2662 001a 03       		.uleb128 0x3
 2663 001b 08       		.uleb128 0x8
 2664 001c 00       		.byte	0
 2665 001d 00       		.byte	0
 2666 001e 03       		.uleb128 0x3
 2667 001f 16       		.uleb128 0x16
 2668 0020 00       		.byte	0
 2669 0021 03       		.uleb128 0x3
 2670 0022 0E       		.uleb128 0xe
 2671 0023 3A       		.uleb128 0x3a
 2672 0024 0B       		.uleb128 0xb
 2673 0025 3B       		.uleb128 0x3b
ARM GAS  /tmp/ccghdKPJ.s 			page 48


 2674 0026 0B       		.uleb128 0xb
 2675 0027 49       		.uleb128 0x49
 2676 0028 13       		.uleb128 0x13
 2677 0029 00       		.byte	0
 2678 002a 00       		.byte	0
 2679 002b 04       		.uleb128 0x4
 2680 002c 24       		.uleb128 0x24
 2681 002d 00       		.byte	0
 2682 002e 0B       		.uleb128 0xb
 2683 002f 0B       		.uleb128 0xb
 2684 0030 3E       		.uleb128 0x3e
 2685 0031 0B       		.uleb128 0xb
 2686 0032 03       		.uleb128 0x3
 2687 0033 0E       		.uleb128 0xe
 2688 0034 00       		.byte	0
 2689 0035 00       		.byte	0
 2690 0036 05       		.uleb128 0x5
 2691 0037 13       		.uleb128 0x13
 2692 0038 01       		.byte	0x1
 2693 0039 03       		.uleb128 0x3
 2694 003a 0E       		.uleb128 0xe
 2695 003b 0B       		.uleb128 0xb
 2696 003c 0B       		.uleb128 0xb
 2697 003d 3A       		.uleb128 0x3a
 2698 003e 0B       		.uleb128 0xb
 2699 003f 3B       		.uleb128 0x3b
 2700 0040 0B       		.uleb128 0xb
 2701 0041 01       		.uleb128 0x1
 2702 0042 13       		.uleb128 0x13
 2703 0043 00       		.byte	0
 2704 0044 00       		.byte	0
 2705 0045 06       		.uleb128 0x6
 2706 0046 0D       		.uleb128 0xd
 2707 0047 00       		.byte	0
 2708 0048 03       		.uleb128 0x3
 2709 0049 0E       		.uleb128 0xe
 2710 004a 3A       		.uleb128 0x3a
 2711 004b 0B       		.uleb128 0xb
 2712 004c 3B       		.uleb128 0x3b
 2713 004d 0B       		.uleb128 0xb
 2714 004e 49       		.uleb128 0x49
 2715 004f 13       		.uleb128 0x13
 2716 0050 38       		.uleb128 0x38
 2717 0051 0B       		.uleb128 0xb
 2718 0052 00       		.byte	0
 2719 0053 00       		.byte	0
 2720 0054 07       		.uleb128 0x7
 2721 0055 0D       		.uleb128 0xd
 2722 0056 00       		.byte	0
 2723 0057 03       		.uleb128 0x3
 2724 0058 08       		.uleb128 0x8
 2725 0059 3A       		.uleb128 0x3a
 2726 005a 0B       		.uleb128 0xb
 2727 005b 3B       		.uleb128 0x3b
 2728 005c 0B       		.uleb128 0xb
 2729 005d 49       		.uleb128 0x49
 2730 005e 13       		.uleb128 0x13
ARM GAS  /tmp/ccghdKPJ.s 			page 49


 2731 005f 38       		.uleb128 0x38
 2732 0060 0B       		.uleb128 0xb
 2733 0061 00       		.byte	0
 2734 0062 00       		.byte	0
 2735 0063 08       		.uleb128 0x8
 2736 0064 13       		.uleb128 0x13
 2737 0065 01       		.byte	0x1
 2738 0066 0B       		.uleb128 0xb
 2739 0067 0B       		.uleb128 0xb
 2740 0068 3A       		.uleb128 0x3a
 2741 0069 0B       		.uleb128 0xb
 2742 006a 3B       		.uleb128 0x3b
 2743 006b 0B       		.uleb128 0xb
 2744 006c 01       		.uleb128 0x1
 2745 006d 13       		.uleb128 0x13
 2746 006e 00       		.byte	0
 2747 006f 00       		.byte	0
 2748 0070 09       		.uleb128 0x9
 2749 0071 0F       		.uleb128 0xf
 2750 0072 00       		.byte	0
 2751 0073 0B       		.uleb128 0xb
 2752 0074 0B       		.uleb128 0xb
 2753 0075 49       		.uleb128 0x49
 2754 0076 13       		.uleb128 0x13
 2755 0077 00       		.byte	0
 2756 0078 00       		.byte	0
 2757 0079 0A       		.uleb128 0xa
 2758 007a 0F       		.uleb128 0xf
 2759 007b 00       		.byte	0
 2760 007c 0B       		.uleb128 0xb
 2761 007d 0B       		.uleb128 0xb
 2762 007e 00       		.byte	0
 2763 007f 00       		.byte	0
 2764 0080 0B       		.uleb128 0xb
 2765 0081 13       		.uleb128 0x13
 2766 0082 01       		.byte	0x1
 2767 0083 03       		.uleb128 0x3
 2768 0084 0E       		.uleb128 0xe
 2769 0085 0B       		.uleb128 0xb
 2770 0086 0B       		.uleb128 0xb
 2771 0087 3A       		.uleb128 0x3a
 2772 0088 0B       		.uleb128 0xb
 2773 0089 3B       		.uleb128 0x3b
 2774 008a 05       		.uleb128 0x5
 2775 008b 01       		.uleb128 0x1
 2776 008c 13       		.uleb128 0x13
 2777 008d 00       		.byte	0
 2778 008e 00       		.byte	0
 2779 008f 0C       		.uleb128 0xc
 2780 0090 0D       		.uleb128 0xd
 2781 0091 00       		.byte	0
 2782 0092 03       		.uleb128 0x3
 2783 0093 08       		.uleb128 0x8
 2784 0094 3A       		.uleb128 0x3a
 2785 0095 0B       		.uleb128 0xb
 2786 0096 3B       		.uleb128 0x3b
 2787 0097 05       		.uleb128 0x5
ARM GAS  /tmp/ccghdKPJ.s 			page 50


 2788 0098 49       		.uleb128 0x49
 2789 0099 13       		.uleb128 0x13
 2790 009a 38       		.uleb128 0x38
 2791 009b 0B       		.uleb128 0xb
 2792 009c 00       		.byte	0
 2793 009d 00       		.byte	0
 2794 009e 0D       		.uleb128 0xd
 2795 009f 17       		.uleb128 0x17
 2796 00a0 01       		.byte	0x1
 2797 00a1 0B       		.uleb128 0xb
 2798 00a2 0B       		.uleb128 0xb
 2799 00a3 3A       		.uleb128 0x3a
 2800 00a4 0B       		.uleb128 0xb
 2801 00a5 3B       		.uleb128 0x3b
 2802 00a6 0B       		.uleb128 0xb
 2803 00a7 01       		.uleb128 0x1
 2804 00a8 13       		.uleb128 0x13
 2805 00a9 00       		.byte	0
 2806 00aa 00       		.byte	0
 2807 00ab 0E       		.uleb128 0xe
 2808 00ac 0D       		.uleb128 0xd
 2809 00ad 00       		.byte	0
 2810 00ae 03       		.uleb128 0x3
 2811 00af 0E       		.uleb128 0xe
 2812 00b0 3A       		.uleb128 0x3a
 2813 00b1 0B       		.uleb128 0xb
 2814 00b2 3B       		.uleb128 0x3b
 2815 00b3 0B       		.uleb128 0xb
 2816 00b4 49       		.uleb128 0x49
 2817 00b5 13       		.uleb128 0x13
 2818 00b6 00       		.byte	0
 2819 00b7 00       		.byte	0
 2820 00b8 0F       		.uleb128 0xf
 2821 00b9 26       		.uleb128 0x26
 2822 00ba 00       		.byte	0
 2823 00bb 49       		.uleb128 0x49
 2824 00bc 13       		.uleb128 0x13
 2825 00bd 00       		.byte	0
 2826 00be 00       		.byte	0
 2827 00bf 10       		.uleb128 0x10
 2828 00c0 15       		.uleb128 0x15
 2829 00c1 01       		.byte	0x1
 2830 00c2 27       		.uleb128 0x27
 2831 00c3 19       		.uleb128 0x19
 2832 00c4 49       		.uleb128 0x49
 2833 00c5 13       		.uleb128 0x13
 2834 00c6 01       		.uleb128 0x1
 2835 00c7 13       		.uleb128 0x13
 2836 00c8 00       		.byte	0
 2837 00c9 00       		.byte	0
 2838 00ca 11       		.uleb128 0x11
 2839 00cb 05       		.uleb128 0x5
 2840 00cc 00       		.byte	0
 2841 00cd 49       		.uleb128 0x49
 2842 00ce 13       		.uleb128 0x13
 2843 00cf 00       		.byte	0
 2844 00d0 00       		.byte	0
ARM GAS  /tmp/ccghdKPJ.s 			page 51


 2845 00d1 12       		.uleb128 0x12
 2846 00d2 15       		.uleb128 0x15
 2847 00d3 01       		.byte	0x1
 2848 00d4 27       		.uleb128 0x27
 2849 00d5 19       		.uleb128 0x19
 2850 00d6 01       		.uleb128 0x1
 2851 00d7 13       		.uleb128 0x13
 2852 00d8 00       		.byte	0
 2853 00d9 00       		.byte	0
 2854 00da 13       		.uleb128 0x13
 2855 00db 35       		.uleb128 0x35
 2856 00dc 00       		.byte	0
 2857 00dd 49       		.uleb128 0x49
 2858 00de 13       		.uleb128 0x13
 2859 00df 00       		.byte	0
 2860 00e0 00       		.byte	0
 2861 00e1 14       		.uleb128 0x14
 2862 00e2 13       		.uleb128 0x13
 2863 00e3 01       		.byte	0x1
 2864 00e4 0B       		.uleb128 0xb
 2865 00e5 0B       		.uleb128 0xb
 2866 00e6 3A       		.uleb128 0x3a
 2867 00e7 0B       		.uleb128 0xb
 2868 00e8 3B       		.uleb128 0x3b
 2869 00e9 05       		.uleb128 0x5
 2870 00ea 01       		.uleb128 0x1
 2871 00eb 13       		.uleb128 0x13
 2872 00ec 00       		.byte	0
 2873 00ed 00       		.byte	0
 2874 00ee 15       		.uleb128 0x15
 2875 00ef 0D       		.uleb128 0xd
 2876 00f0 00       		.byte	0
 2877 00f1 03       		.uleb128 0x3
 2878 00f2 0E       		.uleb128 0xe
 2879 00f3 3A       		.uleb128 0x3a
 2880 00f4 0B       		.uleb128 0xb
 2881 00f5 3B       		.uleb128 0x3b
 2882 00f6 05       		.uleb128 0x5
 2883 00f7 49       		.uleb128 0x49
 2884 00f8 13       		.uleb128 0x13
 2885 00f9 38       		.uleb128 0x38
 2886 00fa 0B       		.uleb128 0xb
 2887 00fb 00       		.byte	0
 2888 00fc 00       		.byte	0
 2889 00fd 16       		.uleb128 0x16
 2890 00fe 16       		.uleb128 0x16
 2891 00ff 00       		.byte	0
 2892 0100 03       		.uleb128 0x3
 2893 0101 0E       		.uleb128 0xe
 2894 0102 3A       		.uleb128 0x3a
 2895 0103 0B       		.uleb128 0xb
 2896 0104 3B       		.uleb128 0x3b
 2897 0105 05       		.uleb128 0x5
 2898 0106 49       		.uleb128 0x49
 2899 0107 13       		.uleb128 0x13
 2900 0108 00       		.byte	0
 2901 0109 00       		.byte	0
ARM GAS  /tmp/ccghdKPJ.s 			page 52


 2902 010a 17       		.uleb128 0x17
 2903 010b 04       		.uleb128 0x4
 2904 010c 01       		.byte	0x1
 2905 010d 0B       		.uleb128 0xb
 2906 010e 0B       		.uleb128 0xb
 2907 010f 3A       		.uleb128 0x3a
 2908 0110 0B       		.uleb128 0xb
 2909 0111 3B       		.uleb128 0x3b
 2910 0112 0B       		.uleb128 0xb
 2911 0113 01       		.uleb128 0x1
 2912 0114 13       		.uleb128 0x13
 2913 0115 00       		.byte	0
 2914 0116 00       		.byte	0
 2915 0117 18       		.uleb128 0x18
 2916 0118 28       		.uleb128 0x28
 2917 0119 00       		.byte	0
 2918 011a 03       		.uleb128 0x3
 2919 011b 0E       		.uleb128 0xe
 2920 011c 1C       		.uleb128 0x1c
 2921 011d 0D       		.uleb128 0xd
 2922 011e 00       		.byte	0
 2923 011f 00       		.byte	0
 2924 0120 19       		.uleb128 0x19
 2925 0121 01       		.uleb128 0x1
 2926 0122 01       		.byte	0x1
 2927 0123 49       		.uleb128 0x49
 2928 0124 13       		.uleb128 0x13
 2929 0125 01       		.uleb128 0x1
 2930 0126 13       		.uleb128 0x13
 2931 0127 00       		.byte	0
 2932 0128 00       		.byte	0
 2933 0129 1A       		.uleb128 0x1a
 2934 012a 21       		.uleb128 0x21
 2935 012b 00       		.byte	0
 2936 012c 49       		.uleb128 0x49
 2937 012d 13       		.uleb128 0x13
 2938 012e 2F       		.uleb128 0x2f
 2939 012f 0B       		.uleb128 0xb
 2940 0130 00       		.byte	0
 2941 0131 00       		.byte	0
 2942 0132 1B       		.uleb128 0x1b
 2943 0133 2E       		.uleb128 0x2e
 2944 0134 01       		.byte	0x1
 2945 0135 03       		.uleb128 0x3
 2946 0136 0E       		.uleb128 0xe
 2947 0137 3A       		.uleb128 0x3a
 2948 0138 0B       		.uleb128 0xb
 2949 0139 3B       		.uleb128 0x3b
 2950 013a 0B       		.uleb128 0xb
 2951 013b 27       		.uleb128 0x27
 2952 013c 19       		.uleb128 0x19
 2953 013d 49       		.uleb128 0x49
 2954 013e 13       		.uleb128 0x13
 2955 013f 11       		.uleb128 0x11
 2956 0140 01       		.uleb128 0x1
 2957 0141 12       		.uleb128 0x12
 2958 0142 06       		.uleb128 0x6
ARM GAS  /tmp/ccghdKPJ.s 			page 53


 2959 0143 40       		.uleb128 0x40
 2960 0144 18       		.uleb128 0x18
 2961 0145 9742     		.uleb128 0x2117
 2962 0147 19       		.uleb128 0x19
 2963 0148 01       		.uleb128 0x1
 2964 0149 13       		.uleb128 0x13
 2965 014a 00       		.byte	0
 2966 014b 00       		.byte	0
 2967 014c 1C       		.uleb128 0x1c
 2968 014d 05       		.uleb128 0x5
 2969 014e 00       		.byte	0
 2970 014f 03       		.uleb128 0x3
 2971 0150 08       		.uleb128 0x8
 2972 0151 3A       		.uleb128 0x3a
 2973 0152 0B       		.uleb128 0xb
 2974 0153 3B       		.uleb128 0x3b
 2975 0154 0B       		.uleb128 0xb
 2976 0155 49       		.uleb128 0x49
 2977 0156 13       		.uleb128 0x13
 2978 0157 02       		.uleb128 0x2
 2979 0158 17       		.uleb128 0x17
 2980 0159 00       		.byte	0
 2981 015a 00       		.byte	0
 2982 015b 1D       		.uleb128 0x1d
 2983 015c 05       		.uleb128 0x5
 2984 015d 00       		.byte	0
 2985 015e 03       		.uleb128 0x3
 2986 015f 0E       		.uleb128 0xe
 2987 0160 3A       		.uleb128 0x3a
 2988 0161 0B       		.uleb128 0xb
 2989 0162 3B       		.uleb128 0x3b
 2990 0163 0B       		.uleb128 0xb
 2991 0164 49       		.uleb128 0x49
 2992 0165 13       		.uleb128 0x13
 2993 0166 02       		.uleb128 0x2
 2994 0167 17       		.uleb128 0x17
 2995 0168 00       		.byte	0
 2996 0169 00       		.byte	0
 2997 016a 1E       		.uleb128 0x1e
 2998 016b 898201   		.uleb128 0x4109
 2999 016e 01       		.byte	0x1
 3000 016f 11       		.uleb128 0x11
 3001 0170 01       		.uleb128 0x1
 3002 0171 9542     		.uleb128 0x2115
 3003 0173 19       		.uleb128 0x19
 3004 0174 31       		.uleb128 0x31
 3005 0175 13       		.uleb128 0x13
 3006 0176 00       		.byte	0
 3007 0177 00       		.byte	0
 3008 0178 1F       		.uleb128 0x1f
 3009 0179 8A8201   		.uleb128 0x410a
 3010 017c 00       		.byte	0
 3011 017d 02       		.uleb128 0x2
 3012 017e 18       		.uleb128 0x18
 3013 017f 9142     		.uleb128 0x2111
 3014 0181 18       		.uleb128 0x18
 3015 0182 00       		.byte	0
ARM GAS  /tmp/ccghdKPJ.s 			page 54


 3016 0183 00       		.byte	0
 3017 0184 20       		.uleb128 0x20
 3018 0185 2E       		.uleb128 0x2e
 3019 0186 01       		.byte	0x1
 3020 0187 03       		.uleb128 0x3
 3021 0188 08       		.uleb128 0x8
 3022 0189 3A       		.uleb128 0x3a
 3023 018a 0B       		.uleb128 0xb
 3024 018b 3B       		.uleb128 0x3b
 3025 018c 0B       		.uleb128 0xb
 3026 018d 27       		.uleb128 0x27
 3027 018e 19       		.uleb128 0x19
 3028 018f 49       		.uleb128 0x49
 3029 0190 13       		.uleb128 0x13
 3030 0191 11       		.uleb128 0x11
 3031 0192 01       		.uleb128 0x1
 3032 0193 12       		.uleb128 0x12
 3033 0194 06       		.uleb128 0x6
 3034 0195 40       		.uleb128 0x40
 3035 0196 18       		.uleb128 0x18
 3036 0197 9742     		.uleb128 0x2117
 3037 0199 19       		.uleb128 0x19
 3038 019a 01       		.uleb128 0x1
 3039 019b 13       		.uleb128 0x13
 3040 019c 00       		.byte	0
 3041 019d 00       		.byte	0
 3042 019e 21       		.uleb128 0x21
 3043 019f 2E       		.uleb128 0x2e
 3044 01a0 01       		.byte	0x1
 3045 01a1 3F       		.uleb128 0x3f
 3046 01a2 19       		.uleb128 0x19
 3047 01a3 03       		.uleb128 0x3
 3048 01a4 0E       		.uleb128 0xe
 3049 01a5 3A       		.uleb128 0x3a
 3050 01a6 0B       		.uleb128 0xb
 3051 01a7 3B       		.uleb128 0x3b
 3052 01a8 0B       		.uleb128 0xb
 3053 01a9 27       		.uleb128 0x27
 3054 01aa 19       		.uleb128 0x19
 3055 01ab 11       		.uleb128 0x11
 3056 01ac 01       		.uleb128 0x1
 3057 01ad 12       		.uleb128 0x12
 3058 01ae 06       		.uleb128 0x6
 3059 01af 40       		.uleb128 0x40
 3060 01b0 18       		.uleb128 0x18
 3061 01b1 9742     		.uleb128 0x2117
 3062 01b3 19       		.uleb128 0x19
 3063 01b4 01       		.uleb128 0x1
 3064 01b5 13       		.uleb128 0x13
 3065 01b6 00       		.byte	0
 3066 01b7 00       		.byte	0
 3067 01b8 22       		.uleb128 0x22
 3068 01b9 898201   		.uleb128 0x4109
 3069 01bc 00       		.byte	0
 3070 01bd 11       		.uleb128 0x11
 3071 01be 01       		.uleb128 0x1
 3072 01bf 9542     		.uleb128 0x2115
ARM GAS  /tmp/ccghdKPJ.s 			page 55


 3073 01c1 19       		.uleb128 0x19
 3074 01c2 31       		.uleb128 0x31
 3075 01c3 13       		.uleb128 0x13
 3076 01c4 00       		.byte	0
 3077 01c5 00       		.byte	0
 3078 01c6 23       		.uleb128 0x23
 3079 01c7 898201   		.uleb128 0x4109
 3080 01ca 01       		.byte	0x1
 3081 01cb 11       		.uleb128 0x11
 3082 01cc 01       		.uleb128 0x1
 3083 01cd 31       		.uleb128 0x31
 3084 01ce 13       		.uleb128 0x13
 3085 01cf 01       		.uleb128 0x1
 3086 01d0 13       		.uleb128 0x13
 3087 01d1 00       		.byte	0
 3088 01d2 00       		.byte	0
 3089 01d3 24       		.uleb128 0x24
 3090 01d4 898201   		.uleb128 0x4109
 3091 01d7 01       		.byte	0x1
 3092 01d8 11       		.uleb128 0x11
 3093 01d9 01       		.uleb128 0x1
 3094 01da 31       		.uleb128 0x31
 3095 01db 13       		.uleb128 0x13
 3096 01dc 00       		.byte	0
 3097 01dd 00       		.byte	0
 3098 01de 25       		.uleb128 0x25
 3099 01df 0B       		.uleb128 0xb
 3100 01e0 01       		.byte	0x1
 3101 01e1 55       		.uleb128 0x55
 3102 01e2 17       		.uleb128 0x17
 3103 01e3 01       		.uleb128 0x1
 3104 01e4 13       		.uleb128 0x13
 3105 01e5 00       		.byte	0
 3106 01e6 00       		.byte	0
 3107 01e7 26       		.uleb128 0x26
 3108 01e8 34       		.uleb128 0x34
 3109 01e9 00       		.byte	0
 3110 01ea 03       		.uleb128 0x3
 3111 01eb 08       		.uleb128 0x8
 3112 01ec 3A       		.uleb128 0x3a
 3113 01ed 0B       		.uleb128 0xb
 3114 01ee 3B       		.uleb128 0x3b
 3115 01ef 0B       		.uleb128 0xb
 3116 01f0 49       		.uleb128 0x49
 3117 01f1 13       		.uleb128 0x13
 3118 01f2 02       		.uleb128 0x2
 3119 01f3 18       		.uleb128 0x18
 3120 01f4 00       		.byte	0
 3121 01f5 00       		.byte	0
 3122 01f6 27       		.uleb128 0x27
 3123 01f7 0B       		.uleb128 0xb
 3124 01f8 01       		.byte	0x1
 3125 01f9 11       		.uleb128 0x11
 3126 01fa 01       		.uleb128 0x1
 3127 01fb 12       		.uleb128 0x12
 3128 01fc 06       		.uleb128 0x6
 3129 01fd 01       		.uleb128 0x1
ARM GAS  /tmp/ccghdKPJ.s 			page 56


 3130 01fe 13       		.uleb128 0x13
 3131 01ff 00       		.byte	0
 3132 0200 00       		.byte	0
 3133 0201 28       		.uleb128 0x28
 3134 0202 898201   		.uleb128 0x4109
 3135 0205 00       		.byte	0
 3136 0206 11       		.uleb128 0x11
 3137 0207 01       		.uleb128 0x1
 3138 0208 31       		.uleb128 0x31
 3139 0209 13       		.uleb128 0x13
 3140 020a 00       		.byte	0
 3141 020b 00       		.byte	0
 3142 020c 29       		.uleb128 0x29
 3143 020d 2E       		.uleb128 0x2e
 3144 020e 01       		.byte	0x1
 3145 020f 3F       		.uleb128 0x3f
 3146 0210 19       		.uleb128 0x19
 3147 0211 03       		.uleb128 0x3
 3148 0212 0E       		.uleb128 0xe
 3149 0213 3A       		.uleb128 0x3a
 3150 0214 0B       		.uleb128 0xb
 3151 0215 3B       		.uleb128 0x3b
 3152 0216 0B       		.uleb128 0xb
 3153 0217 27       		.uleb128 0x27
 3154 0218 19       		.uleb128 0x19
 3155 0219 49       		.uleb128 0x49
 3156 021a 13       		.uleb128 0x13
 3157 021b 11       		.uleb128 0x11
 3158 021c 01       		.uleb128 0x1
 3159 021d 12       		.uleb128 0x12
 3160 021e 06       		.uleb128 0x6
 3161 021f 40       		.uleb128 0x40
 3162 0220 18       		.uleb128 0x18
 3163 0221 9742     		.uleb128 0x2117
 3164 0223 19       		.uleb128 0x19
 3165 0224 01       		.uleb128 0x1
 3166 0225 13       		.uleb128 0x13
 3167 0226 00       		.byte	0
 3168 0227 00       		.byte	0
 3169 0228 2A       		.uleb128 0x2a
 3170 0229 34       		.uleb128 0x34
 3171 022a 00       		.byte	0
 3172 022b 03       		.uleb128 0x3
 3173 022c 08       		.uleb128 0x8
 3174 022d 3A       		.uleb128 0x3a
 3175 022e 0B       		.uleb128 0xb
 3176 022f 3B       		.uleb128 0x3b
 3177 0230 0B       		.uleb128 0xb
 3178 0231 49       		.uleb128 0x49
 3179 0232 13       		.uleb128 0x13
 3180 0233 02       		.uleb128 0x2
 3181 0234 17       		.uleb128 0x17
 3182 0235 00       		.byte	0
 3183 0236 00       		.byte	0
 3184 0237 2B       		.uleb128 0x2b
 3185 0238 34       		.uleb128 0x34
 3186 0239 00       		.byte	0
ARM GAS  /tmp/ccghdKPJ.s 			page 57


 3187 023a 03       		.uleb128 0x3
 3188 023b 0E       		.uleb128 0xe
 3189 023c 3A       		.uleb128 0x3a
 3190 023d 0B       		.uleb128 0xb
 3191 023e 3B       		.uleb128 0x3b
 3192 023f 05       		.uleb128 0x5
 3193 0240 49       		.uleb128 0x49
 3194 0241 13       		.uleb128 0x13
 3195 0242 3F       		.uleb128 0x3f
 3196 0243 19       		.uleb128 0x19
 3197 0244 3C       		.uleb128 0x3c
 3198 0245 19       		.uleb128 0x19
 3199 0246 00       		.byte	0
 3200 0247 00       		.byte	0
 3201 0248 2C       		.uleb128 0x2c
 3202 0249 2E       		.uleb128 0x2e
 3203 024a 01       		.byte	0x1
 3204 024b 3F       		.uleb128 0x3f
 3205 024c 19       		.uleb128 0x19
 3206 024d 03       		.uleb128 0x3
 3207 024e 0E       		.uleb128 0xe
 3208 024f 3A       		.uleb128 0x3a
 3209 0250 0B       		.uleb128 0xb
 3210 0251 3B       		.uleb128 0x3b
 3211 0252 05       		.uleb128 0x5
 3212 0253 27       		.uleb128 0x27
 3213 0254 19       		.uleb128 0x19
 3214 0255 49       		.uleb128 0x49
 3215 0256 13       		.uleb128 0x13
 3216 0257 3C       		.uleb128 0x3c
 3217 0258 19       		.uleb128 0x19
 3218 0259 01       		.uleb128 0x1
 3219 025a 13       		.uleb128 0x13
 3220 025b 00       		.byte	0
 3221 025c 00       		.byte	0
 3222 025d 2D       		.uleb128 0x2d
 3223 025e 2E       		.uleb128 0x2e
 3224 025f 00       		.byte	0
 3225 0260 3F       		.uleb128 0x3f
 3226 0261 19       		.uleb128 0x19
 3227 0262 03       		.uleb128 0x3
 3228 0263 0E       		.uleb128 0xe
 3229 0264 3A       		.uleb128 0x3a
 3230 0265 0B       		.uleb128 0xb
 3231 0266 3B       		.uleb128 0x3b
 3232 0267 05       		.uleb128 0x5
 3233 0268 27       		.uleb128 0x27
 3234 0269 19       		.uleb128 0x19
 3235 026a 3C       		.uleb128 0x3c
 3236 026b 19       		.uleb128 0x19
 3237 026c 00       		.byte	0
 3238 026d 00       		.byte	0
 3239 026e 2E       		.uleb128 0x2e
 3240 026f 2E       		.uleb128 0x2e
 3241 0270 01       		.byte	0x1
 3242 0271 3F       		.uleb128 0x3f
 3243 0272 19       		.uleb128 0x19
ARM GAS  /tmp/ccghdKPJ.s 			page 58


 3244 0273 03       		.uleb128 0x3
 3245 0274 0E       		.uleb128 0xe
 3246 0275 3A       		.uleb128 0x3a
 3247 0276 0B       		.uleb128 0xb
 3248 0277 3B       		.uleb128 0x3b
 3249 0278 05       		.uleb128 0x5
 3250 0279 27       		.uleb128 0x27
 3251 027a 19       		.uleb128 0x19
 3252 027b 3C       		.uleb128 0x3c
 3253 027c 19       		.uleb128 0x19
 3254 027d 01       		.uleb128 0x1
 3255 027e 13       		.uleb128 0x13
 3256 027f 00       		.byte	0
 3257 0280 00       		.byte	0
 3258 0281 2F       		.uleb128 0x2f
 3259 0282 2E       		.uleb128 0x2e
 3260 0283 00       		.byte	0
 3261 0284 3F       		.uleb128 0x3f
 3262 0285 19       		.uleb128 0x19
 3263 0286 03       		.uleb128 0x3
 3264 0287 0E       		.uleb128 0xe
 3265 0288 3A       		.uleb128 0x3a
 3266 0289 0B       		.uleb128 0xb
 3267 028a 3B       		.uleb128 0x3b
 3268 028b 0B       		.uleb128 0xb
 3269 028c 27       		.uleb128 0x27
 3270 028d 19       		.uleb128 0x19
 3271 028e 3C       		.uleb128 0x3c
 3272 028f 19       		.uleb128 0x19
 3273 0290 00       		.byte	0
 3274 0291 00       		.byte	0
 3275 0292 30       		.uleb128 0x30
 3276 0293 2E       		.uleb128 0x2e
 3277 0294 01       		.byte	0x1
 3278 0295 3F       		.uleb128 0x3f
 3279 0296 19       		.uleb128 0x19
 3280 0297 03       		.uleb128 0x3
 3281 0298 0E       		.uleb128 0xe
 3282 0299 3A       		.uleb128 0x3a
 3283 029a 0B       		.uleb128 0xb
 3284 029b 3B       		.uleb128 0x3b
 3285 029c 0B       		.uleb128 0xb
 3286 029d 27       		.uleb128 0x27
 3287 029e 19       		.uleb128 0x19
 3288 029f 3C       		.uleb128 0x3c
 3289 02a0 19       		.uleb128 0x19
 3290 02a1 01       		.uleb128 0x1
 3291 02a2 13       		.uleb128 0x13
 3292 02a3 00       		.byte	0
 3293 02a4 00       		.byte	0
 3294 02a5 31       		.uleb128 0x31
 3295 02a6 2E       		.uleb128 0x2e
 3296 02a7 01       		.byte	0x1
 3297 02a8 3F       		.uleb128 0x3f
 3298 02a9 19       		.uleb128 0x19
 3299 02aa 03       		.uleb128 0x3
 3300 02ab 0E       		.uleb128 0xe
ARM GAS  /tmp/ccghdKPJ.s 			page 59


 3301 02ac 3A       		.uleb128 0x3a
 3302 02ad 0B       		.uleb128 0xb
 3303 02ae 3B       		.uleb128 0x3b
 3304 02af 05       		.uleb128 0x5
 3305 02b0 27       		.uleb128 0x27
 3306 02b1 19       		.uleb128 0x19
 3307 02b2 49       		.uleb128 0x49
 3308 02b3 13       		.uleb128 0x13
 3309 02b4 3C       		.uleb128 0x3c
 3310 02b5 19       		.uleb128 0x19
 3311 02b6 00       		.byte	0
 3312 02b7 00       		.byte	0
 3313 02b8 00       		.byte	0
 3314              		.section	.debug_loc,"",%progbits
 3315              	.Ldebug_loc0:
 3316              	.LLST0:
 3317 0000 00000000 		.4byte	.LVL0-.Ltext0
 3318 0004 02000000 		.4byte	.LVL1-.Ltext0
 3319 0008 0100     		.2byte	0x1
 3320 000a 50       		.byte	0x50
 3321 000b 02000000 		.4byte	.LVL1-.Ltext0
 3322 000f 05000000 		.4byte	.LVL2-1-.Ltext0
 3323 0013 0300     		.2byte	0x3
 3324 0015 70       		.byte	0x70
 3325 0016 74       		.sleb128 -12
 3326 0017 9F       		.byte	0x9f
 3327 0018 05000000 		.4byte	.LVL2-1-.Ltext0
 3328 001c 06000000 		.4byte	.LFE137-.Ltext0
 3329 0020 0400     		.2byte	0x4
 3330 0022 F3       		.byte	0xf3
 3331 0023 01       		.uleb128 0x1
 3332 0024 50       		.byte	0x50
 3333 0025 9F       		.byte	0x9f
 3334 0026 00000000 		.4byte	0
 3335 002a 00000000 		.4byte	0
 3336              	.LLST1:
 3337 002e 00000000 		.4byte	.LVL0-.Ltext0
 3338 0032 05000000 		.4byte	.LVL2-1-.Ltext0
 3339 0036 0100     		.2byte	0x1
 3340 0038 51       		.byte	0x51
 3341 0039 05000000 		.4byte	.LVL2-1-.Ltext0
 3342 003d 06000000 		.4byte	.LFE137-.Ltext0
 3343 0041 0400     		.2byte	0x4
 3344 0043 F3       		.byte	0xf3
 3345 0044 01       		.uleb128 0x1
 3346 0045 51       		.byte	0x51
 3347 0046 9F       		.byte	0x9f
 3348 0047 00000000 		.4byte	0
 3349 004b 00000000 		.4byte	0
 3350              	.LLST2:
 3351 004f 00000000 		.4byte	.LVL0-.Ltext0
 3352 0053 05000000 		.4byte	.LVL2-1-.Ltext0
 3353 0057 0100     		.2byte	0x1
 3354 0059 52       		.byte	0x52
 3355 005a 05000000 		.4byte	.LVL2-1-.Ltext0
 3356 005e 06000000 		.4byte	.LFE137-.Ltext0
 3357 0062 0400     		.2byte	0x4
ARM GAS  /tmp/ccghdKPJ.s 			page 60


 3358 0064 F3       		.byte	0xf3
 3359 0065 01       		.uleb128 0x1
 3360 0066 52       		.byte	0x52
 3361 0067 9F       		.byte	0x9f
 3362 0068 00000000 		.4byte	0
 3363 006c 00000000 		.4byte	0
 3364              	.LLST3:
 3365 0070 00000000 		.4byte	.LVL0-.Ltext0
 3366 0074 05000000 		.4byte	.LVL2-1-.Ltext0
 3367 0078 0100     		.2byte	0x1
 3368 007a 53       		.byte	0x53
 3369 007b 05000000 		.4byte	.LVL2-1-.Ltext0
 3370 007f 06000000 		.4byte	.LFE137-.Ltext0
 3371 0083 0400     		.2byte	0x4
 3372 0085 F3       		.byte	0xf3
 3373 0086 01       		.uleb128 0x1
 3374 0087 53       		.byte	0x53
 3375 0088 9F       		.byte	0x9f
 3376 0089 00000000 		.4byte	0
 3377 008d 00000000 		.4byte	0
 3378              	.LLST4:
 3379 0091 10000000 		.4byte	.LVL3-.Ltext0
 3380 0095 12000000 		.4byte	.LVL4-.Ltext0
 3381 0099 0100     		.2byte	0x1
 3382 009b 50       		.byte	0x50
 3383 009c 12000000 		.4byte	.LVL4-.Ltext0
 3384 00a0 19000000 		.4byte	.LVL5-1-.Ltext0
 3385 00a4 0300     		.2byte	0x3
 3386 00a6 70       		.byte	0x70
 3387 00a7 74       		.sleb128 -12
 3388 00a8 9F       		.byte	0x9f
 3389 00a9 19000000 		.4byte	.LVL5-1-.Ltext0
 3390 00ad 1A000000 		.4byte	.LFE131-.Ltext0
 3391 00b1 0400     		.2byte	0x4
 3392 00b3 F3       		.byte	0xf3
 3393 00b4 01       		.uleb128 0x1
 3394 00b5 50       		.byte	0x50
 3395 00b6 9F       		.byte	0x9f
 3396 00b7 00000000 		.4byte	0
 3397 00bb 00000000 		.4byte	0
 3398              	.LLST5:
 3399 00bf 10000000 		.4byte	.LVL3-.Ltext0
 3400 00c3 19000000 		.4byte	.LVL5-1-.Ltext0
 3401 00c7 0100     		.2byte	0x1
 3402 00c9 51       		.byte	0x51
 3403 00ca 19000000 		.4byte	.LVL5-1-.Ltext0
 3404 00ce 1A000000 		.4byte	.LFE131-.Ltext0
 3405 00d2 0400     		.2byte	0x4
 3406 00d4 F3       		.byte	0xf3
 3407 00d5 01       		.uleb128 0x1
 3408 00d6 51       		.byte	0x51
 3409 00d7 9F       		.byte	0x9f
 3410 00d8 00000000 		.4byte	0
 3411 00dc 00000000 		.4byte	0
 3412              	.LLST6:
 3413 00e0 10000000 		.4byte	.LVL3-.Ltext0
 3414 00e4 19000000 		.4byte	.LVL5-1-.Ltext0
ARM GAS  /tmp/ccghdKPJ.s 			page 61


 3415 00e8 0100     		.2byte	0x1
 3416 00ea 52       		.byte	0x52
 3417 00eb 19000000 		.4byte	.LVL5-1-.Ltext0
 3418 00ef 1A000000 		.4byte	.LFE131-.Ltext0
 3419 00f3 0400     		.2byte	0x4
 3420 00f5 F3       		.byte	0xf3
 3421 00f6 01       		.uleb128 0x1
 3422 00f7 52       		.byte	0x52
 3423 00f8 9F       		.byte	0x9f
 3424 00f9 00000000 		.4byte	0
 3425 00fd 00000000 		.4byte	0
 3426              	.LLST7:
 3427 0101 20000000 		.4byte	.LVL6-.Ltext0
 3428 0105 22000000 		.4byte	.LVL7-.Ltext0
 3429 0109 0100     		.2byte	0x1
 3430 010b 50       		.byte	0x50
 3431 010c 22000000 		.4byte	.LVL7-.Ltext0
 3432 0110 25000000 		.4byte	.LVL8-1-.Ltext0
 3433 0114 0300     		.2byte	0x3
 3434 0116 70       		.byte	0x70
 3435 0117 50       		.sleb128 -48
 3436 0118 9F       		.byte	0x9f
 3437 0119 25000000 		.4byte	.LVL8-1-.Ltext0
 3438 011d 26000000 		.4byte	.LFE136-.Ltext0
 3439 0121 0400     		.2byte	0x4
 3440 0123 F3       		.byte	0xf3
 3441 0124 01       		.uleb128 0x1
 3442 0125 50       		.byte	0x50
 3443 0126 9F       		.byte	0x9f
 3444 0127 00000000 		.4byte	0
 3445 012b 00000000 		.4byte	0
 3446              	.LLST8:
 3447 012f 20000000 		.4byte	.LVL6-.Ltext0
 3448 0133 25000000 		.4byte	.LVL8-1-.Ltext0
 3449 0137 0100     		.2byte	0x1
 3450 0139 51       		.byte	0x51
 3451 013a 25000000 		.4byte	.LVL8-1-.Ltext0
 3452 013e 26000000 		.4byte	.LFE136-.Ltext0
 3453 0142 0400     		.2byte	0x4
 3454 0144 F3       		.byte	0xf3
 3455 0145 01       		.uleb128 0x1
 3456 0146 51       		.byte	0x51
 3457 0147 9F       		.byte	0x9f
 3458 0148 00000000 		.4byte	0
 3459 014c 00000000 		.4byte	0
 3460              	.LLST9:
 3461 0150 20000000 		.4byte	.LVL6-.Ltext0
 3462 0154 25000000 		.4byte	.LVL8-1-.Ltext0
 3463 0158 0100     		.2byte	0x1
 3464 015a 52       		.byte	0x52
 3465 015b 25000000 		.4byte	.LVL8-1-.Ltext0
 3466 015f 26000000 		.4byte	.LFE136-.Ltext0
 3467 0163 0400     		.2byte	0x4
 3468 0165 F3       		.byte	0xf3
 3469 0166 01       		.uleb128 0x1
 3470 0167 52       		.byte	0x52
 3471 0168 9F       		.byte	0x9f
ARM GAS  /tmp/ccghdKPJ.s 			page 62


 3472 0169 00000000 		.4byte	0
 3473 016d 00000000 		.4byte	0
 3474              	.LLST10:
 3475 0171 20000000 		.4byte	.LVL6-.Ltext0
 3476 0175 25000000 		.4byte	.LVL8-1-.Ltext0
 3477 0179 0100     		.2byte	0x1
 3478 017b 53       		.byte	0x53
 3479 017c 25000000 		.4byte	.LVL8-1-.Ltext0
 3480 0180 26000000 		.4byte	.LFE136-.Ltext0
 3481 0184 0400     		.2byte	0x4
 3482 0186 F3       		.byte	0xf3
 3483 0187 01       		.uleb128 0x1
 3484 0188 53       		.byte	0x53
 3485 0189 9F       		.byte	0x9f
 3486 018a 00000000 		.4byte	0
 3487 018e 00000000 		.4byte	0
 3488              	.LLST11:
 3489 0192 30000000 		.4byte	.LVL9-.Ltext0
 3490 0196 32000000 		.4byte	.LVL10-.Ltext0
 3491 019a 0100     		.2byte	0x1
 3492 019c 50       		.byte	0x50
 3493 019d 32000000 		.4byte	.LVL10-.Ltext0
 3494 01a1 39000000 		.4byte	.LVL11-1-.Ltext0
 3495 01a5 0300     		.2byte	0x3
 3496 01a7 70       		.byte	0x70
 3497 01a8 50       		.sleb128 -48
 3498 01a9 9F       		.byte	0x9f
 3499 01aa 39000000 		.4byte	.LVL11-1-.Ltext0
 3500 01ae 3A000000 		.4byte	.LFE130-.Ltext0
 3501 01b2 0400     		.2byte	0x4
 3502 01b4 F3       		.byte	0xf3
 3503 01b5 01       		.uleb128 0x1
 3504 01b6 50       		.byte	0x50
 3505 01b7 9F       		.byte	0x9f
 3506 01b8 00000000 		.4byte	0
 3507 01bc 00000000 		.4byte	0
 3508              	.LLST12:
 3509 01c0 30000000 		.4byte	.LVL9-.Ltext0
 3510 01c4 39000000 		.4byte	.LVL11-1-.Ltext0
 3511 01c8 0100     		.2byte	0x1
 3512 01ca 51       		.byte	0x51
 3513 01cb 39000000 		.4byte	.LVL11-1-.Ltext0
 3514 01cf 3A000000 		.4byte	.LFE130-.Ltext0
 3515 01d3 0400     		.2byte	0x4
 3516 01d5 F3       		.byte	0xf3
 3517 01d6 01       		.uleb128 0x1
 3518 01d7 51       		.byte	0x51
 3519 01d8 9F       		.byte	0x9f
 3520 01d9 00000000 		.4byte	0
 3521 01dd 00000000 		.4byte	0
 3522              	.LLST13:
 3523 01e1 30000000 		.4byte	.LVL9-.Ltext0
 3524 01e5 39000000 		.4byte	.LVL11-1-.Ltext0
 3525 01e9 0100     		.2byte	0x1
 3526 01eb 52       		.byte	0x52
 3527 01ec 39000000 		.4byte	.LVL11-1-.Ltext0
 3528 01f0 3A000000 		.4byte	.LFE130-.Ltext0
ARM GAS  /tmp/ccghdKPJ.s 			page 63


 3529 01f4 0400     		.2byte	0x4
 3530 01f6 F3       		.byte	0xf3
 3531 01f7 01       		.uleb128 0x1
 3532 01f8 52       		.byte	0x52
 3533 01f9 9F       		.byte	0x9f
 3534 01fa 00000000 		.4byte	0
 3535 01fe 00000000 		.4byte	0
 3536              	.LLST14:
 3537 0202 40000000 		.4byte	.LVL12-.Ltext0
 3538 0206 42000000 		.4byte	.LVL13-.Ltext0
 3539 020a 0100     		.2byte	0x1
 3540 020c 50       		.byte	0x50
 3541 020d 42000000 		.4byte	.LVL13-.Ltext0
 3542 0211 45000000 		.4byte	.LVL14-1-.Ltext0
 3543 0215 0300     		.2byte	0x3
 3544 0217 70       		.byte	0x70
 3545 0218 74       		.sleb128 -12
 3546 0219 9F       		.byte	0x9f
 3547 021a 45000000 		.4byte	.LVL14-1-.Ltext0
 3548 021e 46000000 		.4byte	.LFE135-.Ltext0
 3549 0222 0400     		.2byte	0x4
 3550 0224 F3       		.byte	0xf3
 3551 0225 01       		.uleb128 0x1
 3552 0226 50       		.byte	0x50
 3553 0227 9F       		.byte	0x9f
 3554 0228 00000000 		.4byte	0
 3555 022c 00000000 		.4byte	0
 3556              	.LLST15:
 3557 0230 40000000 		.4byte	.LVL12-.Ltext0
 3558 0234 45000000 		.4byte	.LVL14-1-.Ltext0
 3559 0238 0100     		.2byte	0x1
 3560 023a 51       		.byte	0x51
 3561 023b 45000000 		.4byte	.LVL14-1-.Ltext0
 3562 023f 46000000 		.4byte	.LFE135-.Ltext0
 3563 0243 0400     		.2byte	0x4
 3564 0245 F3       		.byte	0xf3
 3565 0246 01       		.uleb128 0x1
 3566 0247 51       		.byte	0x51
 3567 0248 9F       		.byte	0x9f
 3568 0249 00000000 		.4byte	0
 3569 024d 00000000 		.4byte	0
 3570              	.LLST16:
 3571 0251 50000000 		.4byte	.LVL15-.Ltext0
 3572 0255 52000000 		.4byte	.LVL16-.Ltext0
 3573 0259 0100     		.2byte	0x1
 3574 025b 50       		.byte	0x50
 3575 025c 52000000 		.4byte	.LVL16-.Ltext0
 3576 0260 59000000 		.4byte	.LVL17-1-.Ltext0
 3577 0264 0300     		.2byte	0x3
 3578 0266 70       		.byte	0x70
 3579 0267 74       		.sleb128 -12
 3580 0268 9F       		.byte	0x9f
 3581 0269 59000000 		.4byte	.LVL17-1-.Ltext0
 3582 026d 5A000000 		.4byte	.LFE133-.Ltext0
 3583 0271 0400     		.2byte	0x4
 3584 0273 F3       		.byte	0xf3
 3585 0274 01       		.uleb128 0x1
ARM GAS  /tmp/ccghdKPJ.s 			page 64


 3586 0275 50       		.byte	0x50
 3587 0276 9F       		.byte	0x9f
 3588 0277 00000000 		.4byte	0
 3589 027b 00000000 		.4byte	0
 3590              	.LLST17:
 3591 027f 60000000 		.4byte	.LVL18-.Ltext0
 3592 0283 62000000 		.4byte	.LVL19-.Ltext0
 3593 0287 0100     		.2byte	0x1
 3594 0289 50       		.byte	0x50
 3595 028a 62000000 		.4byte	.LVL19-.Ltext0
 3596 028e 65000000 		.4byte	.LVL20-1-.Ltext0
 3597 0292 0300     		.2byte	0x3
 3598 0294 70       		.byte	0x70
 3599 0295 50       		.sleb128 -48
 3600 0296 9F       		.byte	0x9f
 3601 0297 65000000 		.4byte	.LVL20-1-.Ltext0
 3602 029b 66000000 		.4byte	.LFE134-.Ltext0
 3603 029f 0400     		.2byte	0x4
 3604 02a1 F3       		.byte	0xf3
 3605 02a2 01       		.uleb128 0x1
 3606 02a3 50       		.byte	0x50
 3607 02a4 9F       		.byte	0x9f
 3608 02a5 00000000 		.4byte	0
 3609 02a9 00000000 		.4byte	0
 3610              	.LLST18:
 3611 02ad 60000000 		.4byte	.LVL18-.Ltext0
 3612 02b1 65000000 		.4byte	.LVL20-1-.Ltext0
 3613 02b5 0100     		.2byte	0x1
 3614 02b7 51       		.byte	0x51
 3615 02b8 65000000 		.4byte	.LVL20-1-.Ltext0
 3616 02bc 66000000 		.4byte	.LFE134-.Ltext0
 3617 02c0 0400     		.2byte	0x4
 3618 02c2 F3       		.byte	0xf3
 3619 02c3 01       		.uleb128 0x1
 3620 02c4 51       		.byte	0x51
 3621 02c5 9F       		.byte	0x9f
 3622 02c6 00000000 		.4byte	0
 3623 02ca 00000000 		.4byte	0
 3624              	.LLST19:
 3625 02ce 60000000 		.4byte	.LVL18-.Ltext0
 3626 02d2 65000000 		.4byte	.LVL20-1-.Ltext0
 3627 02d6 0100     		.2byte	0x1
 3628 02d8 52       		.byte	0x52
 3629 02d9 65000000 		.4byte	.LVL20-1-.Ltext0
 3630 02dd 66000000 		.4byte	.LFE134-.Ltext0
 3631 02e1 0400     		.2byte	0x4
 3632 02e3 F3       		.byte	0xf3
 3633 02e4 01       		.uleb128 0x1
 3634 02e5 52       		.byte	0x52
 3635 02e6 9F       		.byte	0x9f
 3636 02e7 00000000 		.4byte	0
 3637 02eb 00000000 		.4byte	0
 3638              	.LLST20:
 3639 02ef 70000000 		.4byte	.LVL21-.Ltext0
 3640 02f3 72000000 		.4byte	.LVL22-.Ltext0
 3641 02f7 0100     		.2byte	0x1
 3642 02f9 50       		.byte	0x50
ARM GAS  /tmp/ccghdKPJ.s 			page 65


 3643 02fa 72000000 		.4byte	.LVL22-.Ltext0
 3644 02fe 79000000 		.4byte	.LVL23-1-.Ltext0
 3645 0302 0300     		.2byte	0x3
 3646 0304 70       		.byte	0x70
 3647 0305 50       		.sleb128 -48
 3648 0306 9F       		.byte	0x9f
 3649 0307 79000000 		.4byte	.LVL23-1-.Ltext0
 3650 030b 7A000000 		.4byte	.LFE132-.Ltext0
 3651 030f 0400     		.2byte	0x4
 3652 0311 F3       		.byte	0xf3
 3653 0312 01       		.uleb128 0x1
 3654 0313 50       		.byte	0x50
 3655 0314 9F       		.byte	0x9f
 3656 0315 00000000 		.4byte	0
 3657 0319 00000000 		.4byte	0
 3658              	.LLST21:
 3659 031d 70000000 		.4byte	.LVL21-.Ltext0
 3660 0321 79000000 		.4byte	.LVL23-1-.Ltext0
 3661 0325 0100     		.2byte	0x1
 3662 0327 51       		.byte	0x51
 3663 0328 79000000 		.4byte	.LVL23-1-.Ltext0
 3664 032c 7A000000 		.4byte	.LFE132-.Ltext0
 3665 0330 0400     		.2byte	0x4
 3666 0332 F3       		.byte	0xf3
 3667 0333 01       		.uleb128 0x1
 3668 0334 51       		.byte	0x51
 3669 0335 9F       		.byte	0x9f
 3670 0336 00000000 		.4byte	0
 3671 033a 00000000 		.4byte	0
 3672              	.LLST22:
 3673 033e 90000000 		.4byte	.LVL25-.Ltext0
 3674 0342 9C000000 		.4byte	.LVL26-.Ltext0
 3675 0346 0100     		.2byte	0x1
 3676 0348 50       		.byte	0x50
 3677 0349 9C000000 		.4byte	.LVL26-.Ltext0
 3678 034d CC000000 		.4byte	.LVL31-.Ltext0
 3679 0351 0100     		.2byte	0x1
 3680 0353 54       		.byte	0x54
 3681 0354 CC000000 		.4byte	.LVL31-.Ltext0
 3682 0358 D0000000 		.4byte	.LFE139-.Ltext0
 3683 035c 0400     		.2byte	0x4
 3684 035e F3       		.byte	0xf3
 3685 035f 01       		.uleb128 0x1
 3686 0360 50       		.byte	0x50
 3687 0361 9F       		.byte	0x9f
 3688 0362 00000000 		.4byte	0
 3689 0366 00000000 		.4byte	0
 3690              	.LLST23:
 3691 036a 90000000 		.4byte	.LVL25-.Ltext0
 3692 036e AA000000 		.4byte	.LVL27-.Ltext0
 3693 0372 0100     		.2byte	0x1
 3694 0374 51       		.byte	0x51
 3695 0375 AA000000 		.4byte	.LVL27-.Ltext0
 3696 0379 B5000000 		.4byte	.LVL29-1-.Ltext0
 3697 037d 0100     		.2byte	0x1
 3698 037f 53       		.byte	0x53
 3699 0380 B5000000 		.4byte	.LVL29-1-.Ltext0
ARM GAS  /tmp/ccghdKPJ.s 			page 66


 3700 0384 D0000000 		.4byte	.LFE139-.Ltext0
 3701 0388 0400     		.2byte	0x4
 3702 038a F3       		.byte	0xf3
 3703 038b 01       		.uleb128 0x1
 3704 038c 51       		.byte	0x51
 3705 038d 9F       		.byte	0x9f
 3706 038e 00000000 		.4byte	0
 3707 0392 00000000 		.4byte	0
 3708              	.LLST24:
 3709 0396 90000000 		.4byte	.LVL25-.Ltext0
 3710 039a B2000000 		.4byte	.LVL28-.Ltext0
 3711 039e 0100     		.2byte	0x1
 3712 03a0 52       		.byte	0x52
 3713 03a1 B2000000 		.4byte	.LVL28-.Ltext0
 3714 03a5 CC000000 		.4byte	.LVL31-.Ltext0
 3715 03a9 0100     		.2byte	0x1
 3716 03ab 55       		.byte	0x55
 3717 03ac CC000000 		.4byte	.LVL31-.Ltext0
 3718 03b0 D0000000 		.4byte	.LFE139-.Ltext0
 3719 03b4 0400     		.2byte	0x4
 3720 03b6 F3       		.byte	0xf3
 3721 03b7 01       		.uleb128 0x1
 3722 03b8 52       		.byte	0x52
 3723 03b9 9F       		.byte	0x9f
 3724 03ba 00000000 		.4byte	0
 3725 03be 00000000 		.4byte	0
 3726              	.LLST25:
 3727 03c2 D0000000 		.4byte	.LVL32-.Ltext0
 3728 03c6 DD000000 		.4byte	.LVL33-1-.Ltext0
 3729 03ca 0100     		.2byte	0x1
 3730 03cc 50       		.byte	0x50
 3731 03cd DD000000 		.4byte	.LVL33-1-.Ltext0
 3732 03d1 EA000000 		.4byte	.LFE140-.Ltext0
 3733 03d5 0100     		.2byte	0x1
 3734 03d7 54       		.byte	0x54
 3735 03d8 00000000 		.4byte	0
 3736 03dc 00000000 		.4byte	0
 3737              	.LLST26:
 3738 03e0 D0000000 		.4byte	.LVL32-.Ltext0
 3739 03e4 DD000000 		.4byte	.LVL33-1-.Ltext0
 3740 03e8 0100     		.2byte	0x1
 3741 03ea 51       		.byte	0x51
 3742 03eb DD000000 		.4byte	.LVL33-1-.Ltext0
 3743 03ef EA000000 		.4byte	.LFE140-.Ltext0
 3744 03f3 0400     		.2byte	0x4
 3745 03f5 F3       		.byte	0xf3
 3746 03f6 01       		.uleb128 0x1
 3747 03f7 51       		.byte	0x51
 3748 03f8 9F       		.byte	0x9f
 3749 03f9 00000000 		.4byte	0
 3750 03fd 00000000 		.4byte	0
 3751              	.LLST27:
 3752 0401 F0000000 		.4byte	.LVL34-.Ltext0
 3753 0405 FD000000 		.4byte	.LVL35-1-.Ltext0
 3754 0409 0100     		.2byte	0x1
 3755 040b 50       		.byte	0x50
 3756 040c FD000000 		.4byte	.LVL35-1-.Ltext0
ARM GAS  /tmp/ccghdKPJ.s 			page 67


 3757 0410 1E010000 		.4byte	.LFE141-.Ltext0
 3758 0414 0100     		.2byte	0x1
 3759 0416 54       		.byte	0x54
 3760 0417 00000000 		.4byte	0
 3761 041b 00000000 		.4byte	0
 3762              	.LLST28:
 3763 041f 20010000 		.4byte	.LVL39-.Ltext0
 3764 0423 30010000 		.4byte	.LVL41-.Ltext0
 3765 0427 0100     		.2byte	0x1
 3766 0429 50       		.byte	0x50
 3767 042a 30010000 		.4byte	.LVL41-.Ltext0
 3768 042e 3A010000 		.4byte	.LVL43-.Ltext0
 3769 0432 0100     		.2byte	0x1
 3770 0434 54       		.byte	0x54
 3771 0435 3A010000 		.4byte	.LVL43-.Ltext0
 3772 0439 3C010000 		.4byte	.LVL44-.Ltext0
 3773 043d 0100     		.2byte	0x1
 3774 043f 50       		.byte	0x50
 3775 0440 3C010000 		.4byte	.LVL44-.Ltext0
 3776 0444 58010000 		.4byte	.LVL48-.Ltext0
 3777 0448 0100     		.2byte	0x1
 3778 044a 54       		.byte	0x54
 3779 044b 58010000 		.4byte	.LVL48-.Ltext0
 3780 044f 5B010000 		.4byte	.LVL49-1-.Ltext0
 3781 0453 0300     		.2byte	0x3
 3782 0455 70       		.byte	0x70
 3783 0456 7C       		.sleb128 -4
 3784 0457 9F       		.byte	0x9f
 3785 0458 5B010000 		.4byte	.LVL49-1-.Ltext0
 3786 045c 5C010000 		.4byte	.LFE142-.Ltext0
 3787 0460 0400     		.2byte	0x4
 3788 0462 F3       		.byte	0xf3
 3789 0463 01       		.uleb128 0x1
 3790 0464 50       		.byte	0x50
 3791 0465 9F       		.byte	0x9f
 3792 0466 00000000 		.4byte	0
 3793 046a 00000000 		.4byte	0
 3794              	.LLST29:
 3795 046e 20010000 		.4byte	.LVL39-.Ltext0
 3796 0472 2C010000 		.4byte	.LVL40-.Ltext0
 3797 0476 0100     		.2byte	0x1
 3798 0478 51       		.byte	0x51
 3799 0479 2C010000 		.4byte	.LVL40-.Ltext0
 3800 047d 3A010000 		.4byte	.LVL43-.Ltext0
 3801 0481 0400     		.2byte	0x4
 3802 0483 F3       		.byte	0xf3
 3803 0484 01       		.uleb128 0x1
 3804 0485 51       		.byte	0x51
 3805 0486 9F       		.byte	0x9f
 3806 0487 3A010000 		.4byte	.LVL43-.Ltext0
 3807 048b 3E010000 		.4byte	.LVL45-.Ltext0
 3808 048f 0100     		.2byte	0x1
 3809 0491 51       		.byte	0x51
 3810 0492 3E010000 		.4byte	.LVL45-.Ltext0
 3811 0496 5C010000 		.4byte	.LFE142-.Ltext0
 3812 049a 0400     		.2byte	0x4
 3813 049c F3       		.byte	0xf3
ARM GAS  /tmp/ccghdKPJ.s 			page 68


 3814 049d 01       		.uleb128 0x1
 3815 049e 51       		.byte	0x51
 3816 049f 9F       		.byte	0x9f
 3817 04a0 00000000 		.4byte	0
 3818 04a4 00000000 		.4byte	0
 3819              	.LLST30:
 3820 04a8 60010000 		.4byte	.LVL50-.Ltext0
 3821 04ac 66010000 		.4byte	.LVL51-.Ltext0
 3822 04b0 0100     		.2byte	0x1
 3823 04b2 50       		.byte	0x50
 3824 04b3 66010000 		.4byte	.LVL51-.Ltext0
 3825 04b7 7E010000 		.4byte	.LFE143-.Ltext0
 3826 04bb 0100     		.2byte	0x1
 3827 04bd 54       		.byte	0x54
 3828 04be 00000000 		.4byte	0
 3829 04c2 00000000 		.4byte	0
 3830              	.LLST31:
 3831 04c6 6A010000 		.4byte	.LVL52-.Ltext0
 3832 04ca 74010000 		.4byte	.LVL54-.Ltext0
 3833 04ce 0100     		.2byte	0x1
 3834 04d0 50       		.byte	0x50
 3835 04d1 74010000 		.4byte	.LVL54-.Ltext0
 3836 04d5 7E010000 		.4byte	.LFE143-.Ltext0
 3837 04d9 0100     		.2byte	0x1
 3838 04db 55       		.byte	0x55
 3839 04dc 00000000 		.4byte	0
 3840 04e0 00000000 		.4byte	0
 3841              		.section	.debug_aranges,"",%progbits
 3842 0000 1C000000 		.4byte	0x1c
 3843 0004 0200     		.2byte	0x2
 3844 0006 00000000 		.4byte	.Ldebug_info0
 3845 000a 04       		.byte	0x4
 3846 000b 00       		.byte	0
 3847 000c 0000     		.2byte	0
 3848 000e 0000     		.2byte	0
 3849 0010 00000000 		.4byte	.Ltext0
 3850 0014 7E010000 		.4byte	.Letext0-.Ltext0
 3851 0018 00000000 		.4byte	0
 3852 001c 00000000 		.4byte	0
 3853              		.section	.debug_ranges,"",%progbits
 3854              	.Ldebug_ranges0:
 3855 0000 D2000000 		.4byte	.LBB2-.Ltext0
 3856 0004 D4000000 		.4byte	.LBE2-.Ltext0
 3857 0008 D6000000 		.4byte	.LBB3-.Ltext0
 3858 000c DA000000 		.4byte	.LBE3-.Ltext0
 3859 0010 00000000 		.4byte	0
 3860 0014 00000000 		.4byte	0
 3861 0018 F2000000 		.4byte	.LBB5-.Ltext0
 3862 001c F4000000 		.4byte	.LBE5-.Ltext0
 3863 0020 F6000000 		.4byte	.LBB6-.Ltext0
 3864 0024 FA000000 		.4byte	.LBE6-.Ltext0
 3865 0028 00000000 		.4byte	0
 3866 002c 00000000 		.4byte	0
 3867              		.section	.debug_line,"",%progbits
 3868              	.Ldebug_line0:
 3869 0000 C9030000 		.section	.debug_str,"MS",%progbits,1
 3869      02005B03 
ARM GAS  /tmp/ccghdKPJ.s 			page 69


 3869      00000201 
 3869      FB0E0D00 
 3869      01010101 
 3870              	.LASF120:
 3871 0000 63684F51 		.ascii	"chOQPutTimeout\000"
 3871      50757454 
 3871      696D656F 
 3871      757400
 3872              	.LASF2:
 3873 000f 73697A65 		.ascii	"size_t\000"
 3873      5F7400
 3874              	.LASF62:
 3875 0016 7264796D 		.ascii	"rdymsg\000"
 3875      736700
 3876              	.LASF78:
 3877 001d 4F757470 		.ascii	"OutputQueue\000"
 3877      75745175 
 3877      65756500 
 3878              	.LASF3:
 3879 0029 5F5F7569 		.ascii	"__uint8_t\000"
 3879      6E74385F 
 3879      7400
 3880              	.LASF117:
 3881 0033 63684951 		.ascii	"chIQReadTimeout\000"
 3881      52656164 
 3881      54696D65 
 3881      6F757400 
 3882              	.LASF13:
 3883 0043 6C6F6E67 		.ascii	"long long unsigned int\000"
 3883      206C6F6E 
 3883      6720756E 
 3883      7369676E 
 3883      65642069 
 3884              	.LASF63:
 3885 005a 65786974 		.ascii	"exitcode\000"
 3885      636F6465 
 3885      00
 3886              	.LASF136:
 3887 0063 49544D5F 		.ascii	"ITM_RxBuffer\000"
 3887      52784275 
 3887      66666572 
 3887      00
 3888              	.LASF110:
 3889 0070 73644F62 		.ascii	"sdObjectInit\000"
 3889      6A656374 
 3889      496E6974 
 3889      00
 3890              	.LASF106:
 3891 007d 72656164 		.ascii	"readt\000"
 3891      7400
 3892              	.LASF68:
 3893 0083 715F7761 		.ascii	"q_waiting\000"
 3893      6974696E 
 3893      6700
 3894              	.LASF12:
 3895 008d 6C6F6E67 		.ascii	"long long int\000"
 3895      206C6F6E 
ARM GAS  /tmp/ccghdKPJ.s 			page 70


 3895      6720696E 
 3895      7400
 3896              	.LASF1:
 3897 009b 7369676E 		.ascii	"signed char\000"
 3897      65642063 
 3897      68617200 
 3898              	.LASF85:
 3899 00a7 47545052 		.ascii	"GTPR\000"
 3899      00
 3900              	.LASF89:
 3901 00ac 53445F53 		.ascii	"SD_STOP\000"
 3901      544F5000 
 3902              	.LASF18:
 3903 00b4 626F6F6C 		.ascii	"bool_t\000"
 3903      5F7400
 3904              	.LASF52:
 3905 00bb 6D5F7175 		.ascii	"m_queue\000"
 3905      65756500 
 3906              	.LASF22:
 3907 00c3 74736C69 		.ascii	"tslices_t\000"
 3907      6365735F 
 3907      7400
 3908              	.LASF94:
 3909 00cd 73746174 		.ascii	"state\000"
 3909      6500
 3910              	.LASF122:
 3911 00d3 63684F51 		.ascii	"chOQInit\000"
 3911      496E6974 
 3911      00
 3912              	.LASF9:
 3913 00dc 6C6F6E67 		.ascii	"long int\000"
 3913      20696E74 
 3913      00
 3914              	.LASF21:
 3915 00e5 74737461 		.ascii	"tstate_t\000"
 3915      74655F74 
 3915      00
 3916              	.LASF131:
 3917 00ee 63684F51 		.ascii	"chOQGetI\000"
 3917      47657449 
 3917      00
 3918              	.LASF70:
 3919 00f7 715F6275 		.ascii	"q_buffer\000"
 3919      66666572 
 3919      00
 3920              	.LASF75:
 3921 0100 715F6C69 		.ascii	"q_link\000"
 3921      6E6B00
 3922              	.LASF130:
 3923 0107 63684576 		.ascii	"chEvtBroadcastFlagsI\000"
 3923      7442726F 
 3923      61646361 
 3923      7374466C 
 3923      61677349 
 3924              	.LASF33:
 3925 011c 705F6E65 		.ascii	"p_newer\000"
 3925      77657200 
ARM GAS  /tmp/ccghdKPJ.s 			page 71


 3926              	.LASF7:
 3927 0124 73686F72 		.ascii	"short unsigned int\000"
 3927      7420756E 
 3927      7369676E 
 3927      65642069 
 3927      6E7400
 3928              	.LASF128:
 3929 0137 63685363 		.ascii	"chSchRescheduleS\000"
 3929      68526573 
 3929      63686564 
 3929      756C6553 
 3929      00
 3930              	.LASF10:
 3931 0148 5F5F7569 		.ascii	"__uint32_t\000"
 3931      6E743332 
 3931      5F7400
 3932              	.LASF47:
 3933 0153 72656761 		.ascii	"regarm_t\000"
 3933      726D5F74 
 3933      00
 3934              	.LASF129:
 3935 015c 63684951 		.ascii	"chIQPutI\000"
 3935      50757449 
 3935      00
 3936              	.LASF60:
 3937 0165 4576656E 		.ascii	"EventSource\000"
 3937      74536F75 
 3937      72636500 
 3938              	.LASF97:
 3939 0171 75736172 		.ascii	"usart\000"
 3939      7400
 3940              	.LASF0:
 3941 0177 756E7369 		.ascii	"unsigned int\000"
 3941      676E6564 
 3941      20696E74 
 3941      00
 3942              	.LASF15:
 3943 0184 75696E74 		.ascii	"uint16_t\000"
 3943      31365F74 
 3943      00
 3944              	.LASF100:
 3945 018d 53657269 		.ascii	"SerialDriverVMT\000"
 3945      616C4472 
 3945      69766572 
 3945      564D5400 
 3946              	.LASF126:
 3947 019d 63684951 		.ascii	"chIQResetI\000"
 3947      52657365 
 3947      744900
 3948              	.LASF111:
 3949 01a8 696E6F74 		.ascii	"inotify\000"
 3949      69667900 
 3950              	.LASF40:
 3951 01b0 705F6D73 		.ascii	"p_msgqueue\000"
 3951      67717565 
 3951      756500
 3952              	.LASF127:
ARM GAS  /tmp/ccghdKPJ.s 			page 72


 3953 01bb 73645F6C 		.ascii	"sd_lld_init\000"
 3953      6C645F69 
 3953      6E697400 
 3954              	.LASF104:
 3955 01c7 67657474 		.ascii	"gett\000"
 3955      00
 3956              	.LASF93:
 3957 01cc 6576656E 		.ascii	"event\000"
 3957      7400
 3958              	.LASF72:
 3959 01d2 715F7772 		.ascii	"q_wrptr\000"
 3959      70747200 
 3960              	.LASF24:
 3961 01da 6D73675F 		.ascii	"msg_t\000"
 3961      7400
 3962              	.LASF96:
 3963 01e0 6F717565 		.ascii	"oqueue\000"
 3963      756500
 3964              	.LASF87:
 3965 01e7 55534152 		.ascii	"USART_TypeDef\000"
 3965      545F5479 
 3965      70654465 
 3965      6600
 3966              	.LASF105:
 3967 01f5 77726974 		.ascii	"writet\000"
 3967      657400
 3968              	.LASF20:
 3969 01fc 746D6F64 		.ascii	"tmode_t\000"
 3969      655F7400 
 3970              	.LASF46:
 3971 0204 54687265 		.ascii	"ThreadsList\000"
 3971      6164734C 
 3971      69737400 
 3972              	.LASF25:
 3973 0210 6576656E 		.ascii	"eventmask_t\000"
 3973      746D6173 
 3973      6B5F7400 
 3974              	.LASF77:
 3975 021c 496E7075 		.ascii	"InputQueue\000"
 3975      74517565 
 3975      756500
 3976              	.LASF98:
 3977 0227 73706565 		.ascii	"speed\000"
 3977      6400
 3978              	.LASF76:
 3979 022d 716E6F74 		.ascii	"qnotify_t\000"
 3979      6966795F 
 3979      7400
 3980              	.LASF67:
 3981 0237 47656E65 		.ascii	"GenericQueue\000"
 3981      72696351 
 3981      75657565 
 3981      00
 3982              	.LASF118:
 3983 0244 63684F51 		.ascii	"chOQWriteTimeout\000"
 3983      57726974 
 3983      6554696D 
ARM GAS  /tmp/ccghdKPJ.s 			page 73


 3983      656F7574 
 3983      00
 3984              	.LASF134:
 3985 0255 2F645F64 		.ascii	"/d_drive/axoloti/firmware\000"
 3985      72697665 
 3985      2F61786F 
 3985      6C6F7469 
 3985      2F666972 
 3986              	.LASF101:
 3987 026f 77726974 		.ascii	"write\000"
 3987      6500
 3988              	.LASF103:
 3989 0275 70757474 		.ascii	"putt\000"
 3989      00
 3990              	.LASF50:
 3991 027a 73697A65 		.ascii	"sizetype\000"
 3991      74797065 
 3991      00
 3992              	.LASF69:
 3993 0283 715F636F 		.ascii	"q_counter\000"
 3993      756E7465 
 3993      7200
 3994              	.LASF51:
 3995 028d 4D757465 		.ascii	"Mutex\000"
 3995      7800
 3996              	.LASF31:
 3997 0293 705F7072 		.ascii	"p_prio\000"
 3997      696F00
 3998              	.LASF58:
 3999 029a 656C5F6D 		.ascii	"el_mask\000"
 3999      61736B00 
 4000              	.LASF34:
 4001 02a2 705F6F6C 		.ascii	"p_older\000"
 4001      64657200 
 4002              	.LASF45:
 4003 02aa 54687265 		.ascii	"ThreadsQueue\000"
 4003      61647351 
 4003      75657565 
 4003      00
 4004              	.LASF133:
 4005 02b7 2F645F64 		.ascii	"/d_drive/axoloti/platform_linux/../chibios/os/hal/s"
 4005      72697665 
 4005      2F61786F 
 4005      6C6F7469 
 4005      2F706C61 
 4006 02ea 72632F73 		.ascii	"rc/serial.c\000"
 4006      65726961 
 4006      6C2E6300 
 4007              	.LASF115:
 4008 02f6 73645374 		.ascii	"sdStop\000"
 4008      6F7000
 4009              	.LASF107:
 4010 02fd 74696D65 		.ascii	"time\000"
 4010      00
 4011              	.LASF99:
 4012 0302 53657269 		.ascii	"SerialConfig\000"
 4012      616C436F 
ARM GAS  /tmp/ccghdKPJ.s 			page 74


 4012      6E666967 
 4012      00
 4013              	.LASF79:
 4014 030f 52455345 		.ascii	"RESERVED0\000"
 4014      52564544 
 4014      3000
 4015              	.LASF80:
 4016 0319 52455345 		.ascii	"RESERVED1\000"
 4016      52564544 
 4016      3100
 4017              	.LASF81:
 4018 0323 52455345 		.ascii	"RESERVED2\000"
 4018      52564544 
 4018      3200
 4019              	.LASF82:
 4020 032d 52455345 		.ascii	"RESERVED3\000"
 4020      52564544 
 4020      3300
 4021              	.LASF83:
 4022 0337 52455345 		.ascii	"RESERVED4\000"
 4022      52564544 
 4022      3400
 4023              	.LASF30:
 4024 0341 705F7072 		.ascii	"p_prev\000"
 4024      657600
 4025              	.LASF86:
 4026 0348 52455345 		.ascii	"RESERVED6\000"
 4026      52564544 
 4026      3600
 4027              	.LASF23:
 4028 0352 74707269 		.ascii	"tprio_t\000"
 4028      6F5F7400 
 4029              	.LASF73:
 4030 035a 715F7264 		.ascii	"q_rdptr\000"
 4030      70747200 
 4031              	.LASF19:
 4032 0362 5F426F6F 		.ascii	"_Bool\000"
 4032      6C00
 4033              	.LASF16:
 4034 0368 696E7433 		.ascii	"int32_t\000"
 4034      325F7400 
 4035              	.LASF4:
 4036 0370 756E7369 		.ascii	"unsigned char\000"
 4036      676E6564 
 4036      20636861 
 4036      7200
 4037              	.LASF123:
 4038 037e 73645F6C 		.ascii	"sd_lld_start\000"
 4038      6C645F73 
 4038      74617274 
 4038      00
 4039              	.LASF57:
 4040 038b 656C5F6C 		.ascii	"el_listener\000"
 4040      69737465 
 4040      6E657200 
 4041              	.LASF59:
 4042 0397 656C5F66 		.ascii	"el_flags\000"
ARM GAS  /tmp/ccghdKPJ.s 			page 75


 4042      6C616773 
 4042      00
 4043              	.LASF36:
 4044 03a0 705F7374 		.ascii	"p_state\000"
 4044      61746500 
 4045              	.LASF43:
 4046 03a8 705F6D74 		.ascii	"p_mtxlist\000"
 4046      786C6973 
 4046      7400
 4047              	.LASF5:
 4048 03b2 73686F72 		.ascii	"short int\000"
 4048      7420696E 
 4048      7400
 4049              	.LASF38:
 4050 03bc 705F7072 		.ascii	"p_preempt\000"
 4050      65656D70 
 4050      7400
 4051              	.LASF65:
 4052 03c6 65776D61 		.ascii	"ewmask\000"
 4052      736B00
 4053              	.LASF29:
 4054 03cd 705F6E65 		.ascii	"p_next\000"
 4054      787400
 4055              	.LASF37:
 4056 03d4 705F666C 		.ascii	"p_flags\000"
 4056      61677300 
 4057              	.LASF56:
 4058 03dc 656C5F6E 		.ascii	"el_next\000"
 4058      65787400 
 4059              	.LASF28:
 4060 03e4 54687265 		.ascii	"Thread\000"
 4060      616400
 4061              	.LASF132:
 4062 03eb 474E5520 		.ascii	"GNU C 4.9.3 20150529 (release) [ARM/embedded-4_9-br"
 4062      4320342E 
 4062      392E3320 
 4062      32303135 
 4062      30353239 
 4063 041e 616E6368 		.ascii	"anch revision 224288] -mcpu=cortex-m4 -mfloat-abi=h"
 4063      20726576 
 4063      6973696F 
 4063      6E203232 
 4063      34323838 
 4064 0451 61726420 		.ascii	"ard -mfpu=fpv4-sp-d16 -mno-thumb-interwork -mthumb "
 4064      2D6D6670 
 4064      753D6670 
 4064      76342D73 
 4064      702D6431 
 4065 0484 2D676764 		.ascii	"-ggdb -O2 -fomit-frame-pointer -falign-functions=16"
 4065      62202D4F 
 4065      32202D66 
 4065      6F6D6974 
 4065      2D667261 
 4066 04b7 202D666E 		.ascii	" -fno-math-errno -fsingle-precision-constant\000"
 4066      6F2D6D61 
 4066      74682D65 
 4066      72726E6F 
ARM GAS  /tmp/ccghdKPJ.s 			page 76


 4066      202D6673 
 4067              	.LASF42:
 4068 04e4 705F6570 		.ascii	"p_epending\000"
 4068      656E6469 
 4068      6E6700
 4069              	.LASF88:
 4070 04ef 53445F55 		.ascii	"SD_UNINIT\000"
 4070      4E494E49 
 4070      5400
 4071              	.LASF84:
 4072 04f9 52455345 		.ascii	"RESERVED5\000"
 4072      52564544 
 4072      3500
 4073              	.LASF17:
 4074 0503 75696E74 		.ascii	"uint32_t\000"
 4074      33325F74 
 4074      00
 4075              	.LASF92:
 4076 050c 53657269 		.ascii	"SerialDriver\000"
 4076      616C4472 
 4076      69766572 
 4076      00
 4077              	.LASF11:
 4078 0519 6C6F6E67 		.ascii	"long unsigned int\000"
 4078      20756E73 
 4078      69676E65 
 4078      6420696E 
 4078      7400
 4079              	.LASF102:
 4080 052b 72656164 		.ascii	"read\000"
 4080      00
 4081              	.LASF66:
 4082 0530 63686172 		.ascii	"char\000"
 4082      00
 4083              	.LASF116:
 4084 0535 7364496E 		.ascii	"sdIncomingDataI\000"
 4084      636F6D69 
 4084      6E674461 
 4084      74614900 
 4085              	.LASF114:
 4086 0545 636F6E66 		.ascii	"config\000"
 4086      696700
 4087              	.LASF113:
 4088 054c 73645374 		.ascii	"sdStart\000"
 4088      61727400 
 4089              	.LASF6:
 4090 0554 5F5F7569 		.ascii	"__uint16_t\000"
 4090      6E743136 
 4090      5F7400
 4091              	.LASF54:
 4092 055f 6D5F6E65 		.ascii	"m_next\000"
 4092      787400
 4093              	.LASF27:
 4094 0566 73797374 		.ascii	"systime_t\000"
 4094      696D655F 
 4094      7400
 4095              	.LASF44:
ARM GAS  /tmp/ccghdKPJ.s 			page 77


 4096 0570 705F7265 		.ascii	"p_realprio\000"
 4096      616C7072 
 4096      696F00
 4097              	.LASF8:
 4098 057b 5F5F696E 		.ascii	"__int32_t\000"
 4098      7433325F 
 4098      7400
 4099              	.LASF125:
 4100 0585 63684F51 		.ascii	"chOQResetI\000"
 4100      52657365 
 4100      744900
 4101              	.LASF49:
 4102 0590 636F6E74 		.ascii	"context\000"
 4102      65787400 
 4103              	.LASF48:
 4104 0598 696E7463 		.ascii	"intctx\000"
 4104      747800
 4105              	.LASF90:
 4106 059f 53445F52 		.ascii	"SD_READY\000"
 4106      45414459 
 4106      00
 4107              	.LASF26:
 4108 05a8 666C6167 		.ascii	"flagsmask_t\000"
 4108      736D6173 
 4108      6B5F7400 
 4109              	.LASF91:
 4110 05b4 73647374 		.ascii	"sdstate_t\000"
 4110      6174655F 
 4110      7400
 4111              	.LASF71:
 4112 05be 715F746F 		.ascii	"q_top\000"
 4112      7000
 4113              	.LASF35:
 4114 05c4 705F6E61 		.ascii	"p_name\000"
 4114      6D6500
 4115              	.LASF61:
 4116 05cb 65735F6E 		.ascii	"es_next\000"
 4116      65787400 
 4117              	.LASF74:
 4118 05d3 715F6E6F 		.ascii	"q_notify\000"
 4118      74696679 
 4118      00
 4119              	.LASF135:
 4120 05dc 73645265 		.ascii	"sdRequestDataI\000"
 4120      71756573 
 4120      74446174 
 4120      614900
 4121              	.LASF14:
 4122 05eb 75696E74 		.ascii	"uint8_t\000"
 4122      385F7400 
 4123              	.LASF112:
 4124 05f3 6F6E6F74 		.ascii	"onotify\000"
 4124      69667900 
 4125              	.LASF55:
 4126 05fb 4576656E 		.ascii	"EventListener\000"
 4126      744C6973 
 4126      74656E65 
ARM GAS  /tmp/ccghdKPJ.s 			page 78


 4126      7200
 4127              	.LASF64:
 4128 0609 77746F62 		.ascii	"wtobjp\000"
 4128      6A7000
 4129              	.LASF95:
 4130 0610 69717565 		.ascii	"iqueue\000"
 4130      756500
 4131              	.LASF41:
 4132 0617 705F6D73 		.ascii	"p_msg\000"
 4132      6700
 4133              	.LASF124:
 4134 061d 73645F6C 		.ascii	"sd_lld_stop\000"
 4134      6C645F73 
 4134      746F7000 
 4135              	.LASF108:
 4136 0629 74696D65 		.ascii	"timeout\000"
 4136      6F757400 
 4137              	.LASF109:
 4138 0631 7364496E 		.ascii	"sdInit\000"
 4138      697400
 4139              	.LASF121:
 4140 0638 63684951 		.ascii	"chIQInit\000"
 4140      496E6974 
 4140      00
 4141              	.LASF53:
 4142 0641 6D5F6F77 		.ascii	"m_owner\000"
 4142      6E657200 
 4143              	.LASF32:
 4144 0649 705F6374 		.ascii	"p_ctx\000"
 4144      7800
 4145              	.LASF39:
 4146 064f 705F7761 		.ascii	"p_waiting\000"
 4146      6974696E 
 4146      6700
 4147              	.LASF119:
 4148 0659 63684951 		.ascii	"chIQGetTimeout\000"
 4148      47657454 
 4148      696D656F 
 4148      757400
 4149              		.ident	"GCC: (GNU Tools for ARM Embedded Processors) 4.9.3 20150529 (release) [ARM/embedded-4_9-br
ARM GAS  /tmp/ccghdKPJ.s 			page 79


DEFINED SYMBOLS
                            *ABS*:00000000 serial.c
     /tmp/ccghdKPJ.s:20     .text:00000000 $t
     /tmp/ccghdKPJ.s:25     .text:00000000 readt
     /tmp/ccghdKPJ.s:47     .text:00000010 read
     /tmp/ccghdKPJ.s:69     .text:00000020 writet
     /tmp/ccghdKPJ.s:90     .text:00000030 write
     /tmp/ccghdKPJ.s:112    .text:00000040 gett
     /tmp/ccghdKPJ.s:133    .text:00000050 get
     /tmp/ccghdKPJ.s:155    .text:00000060 putt
     /tmp/ccghdKPJ.s:176    .text:00000070 put
     /tmp/ccghdKPJ.s:199    .text:00000080 sdInit
     /tmp/ccghdKPJ.s:218    .text:00000090 sdObjectInit
     /tmp/ccghdKPJ.s:277    .text:000000cc $d
     /tmp/ccghdKPJ.s:281    .text:000000d0 $t
     /tmp/ccghdKPJ.s:287    .text:000000d0 sdStart
     /tmp/ccghdKPJ.s:335    .text:000000f0 sdStop
     /tmp/ccghdKPJ.s:394    .text:00000120 sdIncomingDataI
     /tmp/ccghdKPJ.s:465    .text:00000160 sdRequestDataI
     /tmp/ccghdKPJ.s:506    .rodata:00000000 $d
     /tmp/ccghdKPJ.s:510    .rodata:00000000 vmt
                     .debug_frame:00000010 $d

UNDEFINED SYMBOLS
chIQReadTimeout
chOQWriteTimeout
chIQGetTimeout
chOQPutTimeout
sd_lld_init
chIQInit
chOQInit
sd_lld_start
sd_lld_stop
chOQResetI
chIQResetI
chSchRescheduleS
chIQPutI
chEvtBroadcastFlagsI
chOQGetI
