ARM GAS  /tmp/ccoPsvHO.s 			page 1


   1              		.syntax unified
   2              		.cpu cortex-m4
   3              		.eabi_attribute 27, 1
   4              		.eabi_attribute 28, 1
   5              		.fpu fpv4-sp-d16
   6              		.eabi_attribute 20, 1
   7              		.eabi_attribute 21, 1
   8              		.eabi_attribute 23, 3
   9              		.eabi_attribute 24, 1
  10              		.eabi_attribute 25, 1
  11              		.eabi_attribute 26, 1
  12              		.eabi_attribute 30, 2
  13              		.eabi_attribute 34, 1
  14              		.eabi_attribute 18, 4
  15              		.thumb
  16              		.file	"spi.c"
  17              		.text
  18              	.Ltext0:
  19              		.cfi_sections	.debug_frame
  20              		.align	2
  21              		.p2align 4,,15
  22              		.global	spiInit
  23              		.thumb
  24              		.thumb_func
  25              		.type	spiInit, %function
  26              	spiInit:
  27              	.LFB130:
  28              		.file 1 "/d_drive/axoloti/platform_linux/../chibios/os/hal/src/spi.c"
  29              		.loc 1 68 0
  30              		.cfi_startproc
  31              		@ args = 0, pretend = 0, frame = 0
  32              		@ frame_needed = 0, uses_anonymous_args = 0
  33              		@ link register save eliminated.
  34              		.loc 1 70 0
  35 0000 FFF7FEBF 		b	spi_lld_init
  36              	.LVL0:
  37              		.cfi_endproc
  38              	.LFE130:
  39              		.size	spiInit, .-spiInit
  40              		.align	2
  41 0004 AFF30080 		.p2align 4,,15
  41      AFF30080 
  41      AFF30080 
  42              		.global	spiObjectInit
  43              		.thumb
  44              		.thumb_func
  45              		.type	spiObjectInit, %function
  46              	spiObjectInit:
  47              	.LFB131:
  48              		.loc 1 80 0
  49              		.cfi_startproc
  50              		@ args = 0, pretend = 0, frame = 0
  51              		@ frame_needed = 0, uses_anonymous_args = 0
  52              		@ link register save eliminated.
  53              	.LVL1:
  54              		.loc 1 83 0
  55 0010 0023     		movs	r3, #0
ARM GAS  /tmp/ccoPsvHO.s 			page 2


  56              		.loc 1 82 0
  57 0012 0122     		movs	r2, #1
  58 0014 0270     		strb	r2, [r0]
  59              		.loc 1 83 0
  60 0016 4360     		str	r3, [r0, #4]
  61              		.loc 1 85 0
  62 0018 8360     		str	r3, [r0, #8]
  63              		.loc 1 89 0
  64 001a 0C30     		adds	r0, r0, #12
  65              	.LVL2:
  66 001c FFF7FEBF 		b	chMtxInit
  67              	.LVL3:
  68              		.cfi_endproc
  69              	.LFE131:
  70              		.size	spiObjectInit, .-spiObjectInit
  71              		.align	2
  72              		.p2align 4,,15
  73              		.global	spiStart
  74              		.thumb
  75              		.thumb_func
  76              		.type	spiStart, %function
  77              	spiStart:
  78              	.LFB132:
  79              		.loc 1 107 0
  80              		.cfi_startproc
  81              		@ args = 0, pretend = 0, frame = 0
  82              		@ frame_needed = 0, uses_anonymous_args = 0
  83              	.LVL4:
  84 0020 10B5     		push	{r4, lr}
  85              		.cfi_def_cfa_offset 8
  86              		.cfi_offset 4, -8
  87              		.cfi_offset 14, -4
  88              	.LBB2:
  89              		.loc 1 111 0
  90 0022 2023     		movs	r3, #32
  91              	.LBE2:
  92              		.loc 1 107 0
  93 0024 0446     		mov	r4, r0
  94              	.LBB3:
  95              		.loc 1 111 0
  96              	@ 111 "/d_drive/axoloti/platform_linux/../chibios/os/hal/src/spi.c" 1
  97 0026 83F31188 		msr     BASEPRI, r3
  98              	@ 0 "" 2
  99              		.thumb
 100              	.LBE3:
 101              		.loc 1 114 0
 102 002a 4160     		str	r1, [r0, #4]
 103              		.loc 1 115 0
 104 002c FFF7FEFF 		bl	spi_lld_start
 105              	.LVL5:
 106              		.loc 1 116 0
 107 0030 0223     		movs	r3, #2
 108 0032 2370     		strb	r3, [r4]
 109              	.LBB4:
 110              		.loc 1 117 0
 111 0034 0023     		movs	r3, #0
 112              	@ 117 "/d_drive/axoloti/platform_linux/../chibios/os/hal/src/spi.c" 1
ARM GAS  /tmp/ccoPsvHO.s 			page 3


 113 0036 83F31188 		msr     BASEPRI, r3
 114              	@ 0 "" 2
 115              		.thumb
 116 003a 10BD     		pop	{r4, pc}
 117              	.LBE4:
 118              		.cfi_endproc
 119              	.LFE132:
 120              		.size	spiStart, .-spiStart
 121              		.align	2
 122 003c AFF30080 		.p2align 4,,15
 123              		.global	spiStop
 124              		.thumb
 125              		.thumb_func
 126              		.type	spiStop, %function
 127              	spiStop:
 128              	.LFB133:
 129              		.loc 1 129 0
 130              		.cfi_startproc
 131              		@ args = 0, pretend = 0, frame = 0
 132              		@ frame_needed = 0, uses_anonymous_args = 0
 133              	.LVL6:
 134 0040 10B5     		push	{r4, lr}
 135              		.cfi_def_cfa_offset 8
 136              		.cfi_offset 4, -8
 137              		.cfi_offset 14, -4
 138              	.LBB5:
 139              		.loc 1 133 0
 140 0042 2023     		movs	r3, #32
 141              	.LBE5:
 142              		.loc 1 129 0
 143 0044 0446     		mov	r4, r0
 144              	.LBB6:
 145              		.loc 1 133 0
 146              	@ 133 "/d_drive/axoloti/platform_linux/../chibios/os/hal/src/spi.c" 1
 147 0046 83F31188 		msr     BASEPRI, r3
 148              	@ 0 "" 2
 149              		.thumb
 150              	.LBE6:
 151              		.loc 1 136 0
 152 004a FFF7FEFF 		bl	spi_lld_unselect
 153              	.LVL7:
 154              		.loc 1 137 0
 155 004e 2046     		mov	r0, r4
 156 0050 FFF7FEFF 		bl	spi_lld_stop
 157              	.LVL8:
 158              		.loc 1 138 0
 159 0054 0123     		movs	r3, #1
 160 0056 2370     		strb	r3, [r4]
 161              	.LBB7:
 162              		.loc 1 139 0
 163 0058 0023     		movs	r3, #0
 164              	@ 139 "/d_drive/axoloti/platform_linux/../chibios/os/hal/src/spi.c" 1
 165 005a 83F31188 		msr     BASEPRI, r3
 166              	@ 0 "" 2
 167              		.thumb
 168 005e 10BD     		pop	{r4, pc}
 169              	.LBE7:
ARM GAS  /tmp/ccoPsvHO.s 			page 4


 170              		.cfi_endproc
 171              	.LFE133:
 172              		.size	spiStop, .-spiStop
 173              		.align	2
 174              		.p2align 4,,15
 175              		.global	spiSelect
 176              		.thumb
 177              		.thumb_func
 178              		.type	spiSelect, %function
 179              	spiSelect:
 180              	.LFB134:
 181              		.loc 1 149 0
 182              		.cfi_startproc
 183              		@ args = 0, pretend = 0, frame = 0
 184              		@ frame_needed = 0, uses_anonymous_args = 0
 185              	.LVL9:
 186 0060 08B5     		push	{r3, lr}
 187              		.cfi_def_cfa_offset 8
 188              		.cfi_offset 3, -8
 189              		.cfi_offset 14, -4
 190              	.LBB8:
 191              		.loc 1 153 0
 192 0062 2023     		movs	r3, #32
 193              	@ 153 "/d_drive/axoloti/platform_linux/../chibios/os/hal/src/spi.c" 1
 194 0064 83F31188 		msr     BASEPRI, r3
 195              	@ 0 "" 2
 196              		.thumb
 197              	.LBE8:
 198              		.loc 1 155 0
 199 0068 FFF7FEFF 		bl	spi_lld_select
 200              	.LVL10:
 201              	.LBB9:
 202              		.loc 1 156 0
 203 006c 0023     		movs	r3, #0
 204              	@ 156 "/d_drive/axoloti/platform_linux/../chibios/os/hal/src/spi.c" 1
 205 006e 83F31188 		msr     BASEPRI, r3
 206              	@ 0 "" 2
 207              		.thumb
 208 0072 08BD     		pop	{r3, pc}
 209              	.LBE9:
 210              		.cfi_endproc
 211              	.LFE134:
 212              		.size	spiSelect, .-spiSelect
 213              		.align	2
 214 0074 AFF30080 		.p2align 4,,15
 214      AFF30080 
 214      AFF30080 
 215              		.global	spiUnselect
 216              		.thumb
 217              		.thumb_func
 218              		.type	spiUnselect, %function
 219              	spiUnselect:
 220              	.LFB135:
 221              		.loc 1 167 0
 222              		.cfi_startproc
 223              		@ args = 0, pretend = 0, frame = 0
 224              		@ frame_needed = 0, uses_anonymous_args = 0
ARM GAS  /tmp/ccoPsvHO.s 			page 5


 225              	.LVL11:
 226 0080 08B5     		push	{r3, lr}
 227              		.cfi_def_cfa_offset 8
 228              		.cfi_offset 3, -8
 229              		.cfi_offset 14, -4
 230              	.LBB10:
 231              		.loc 1 171 0
 232 0082 2023     		movs	r3, #32
 233              	@ 171 "/d_drive/axoloti/platform_linux/../chibios/os/hal/src/spi.c" 1
 234 0084 83F31188 		msr     BASEPRI, r3
 235              	@ 0 "" 2
 236              		.thumb
 237              	.LBE10:
 238              		.loc 1 173 0
 239 0088 FFF7FEFF 		bl	spi_lld_unselect
 240              	.LVL12:
 241              	.LBB11:
 242              		.loc 1 174 0
 243 008c 0023     		movs	r3, #0
 244              	@ 174 "/d_drive/axoloti/platform_linux/../chibios/os/hal/src/spi.c" 1
 245 008e 83F31188 		msr     BASEPRI, r3
 246              	@ 0 "" 2
 247              		.thumb
 248 0092 08BD     		pop	{r3, pc}
 249              	.LBE11:
 250              		.cfi_endproc
 251              	.LFE135:
 252              		.size	spiUnselect, .-spiUnselect
 253              		.align	2
 254 0094 AFF30080 		.p2align 4,,15
 254      AFF30080 
 254      AFF30080 
 255              		.global	spiStartIgnore
 256              		.thumb
 257              		.thumb_func
 258              		.type	spiStartIgnore, %function
 259              	spiStartIgnore:
 260              	.LFB136:
 261              		.loc 1 190 0
 262              		.cfi_startproc
 263              		@ args = 0, pretend = 0, frame = 0
 264              		@ frame_needed = 0, uses_anonymous_args = 0
 265              	.LVL13:
 266 00a0 08B5     		push	{r3, lr}
 267              		.cfi_def_cfa_offset 8
 268              		.cfi_offset 3, -8
 269              		.cfi_offset 14, -4
 270              	.LBB12:
 271              		.loc 1 194 0
 272 00a2 2023     		movs	r3, #32
 273              	@ 194 "/d_drive/axoloti/platform_linux/../chibios/os/hal/src/spi.c" 1
 274 00a4 83F31188 		msr     BASEPRI, r3
 275              	@ 0 "" 2
 276              		.thumb
 277              	.LBE12:
 278              		.loc 1 196 0
 279 00a8 0323     		movs	r3, #3
ARM GAS  /tmp/ccoPsvHO.s 			page 6


 280 00aa 0370     		strb	r3, [r0]
 281 00ac FFF7FEFF 		bl	spi_lld_ignore
 282              	.LVL14:
 283              	.LBB13:
 284              		.loc 1 197 0
 285 00b0 0023     		movs	r3, #0
 286              	@ 197 "/d_drive/axoloti/platform_linux/../chibios/os/hal/src/spi.c" 1
 287 00b2 83F31188 		msr     BASEPRI, r3
 288              	@ 0 "" 2
 289              		.thumb
 290 00b6 08BD     		pop	{r3, pc}
 291              	.LBE13:
 292              		.cfi_endproc
 293              	.LFE136:
 294              		.size	spiStartIgnore, .-spiStartIgnore
 295              		.align	2
 296 00b8 AFF30080 		.p2align 4,,15
 296      AFF30080 
 297              		.global	spiStartExchange
 298              		.thumb
 299              		.thumb_func
 300              		.type	spiStartExchange, %function
 301              	spiStartExchange:
 302              	.LFB137:
 303              		.loc 1 218 0
 304              		.cfi_startproc
 305              		@ args = 0, pretend = 0, frame = 0
 306              		@ frame_needed = 0, uses_anonymous_args = 0
 307              	.LVL15:
 308 00c0 70B5     		push	{r4, r5, r6, lr}
 309              		.cfi_def_cfa_offset 16
 310              		.cfi_offset 4, -16
 311              		.cfi_offset 5, -12
 312              		.cfi_offset 6, -8
 313              		.cfi_offset 14, -4
 314              		.loc 1 218 0
 315 00c2 1E46     		mov	r6, r3
 316              	.LBB14:
 317              		.loc 1 223 0
 318 00c4 2023     		movs	r3, #32
 319              	.LVL16:
 320              	@ 223 "/d_drive/axoloti/platform_linux/../chibios/os/hal/src/spi.c" 1
 321 00c6 83F31188 		msr     BASEPRI, r3
 322              	@ 0 "" 2
 323              		.thumb
 324              	.LBE14:
 325              		.loc 1 225 0
 326 00ca 0325     		movs	r5, #3
 327 00cc 3346     		mov	r3, r6
 328 00ce 0570     		strb	r5, [r0]
 329 00d0 FFF7FEFF 		bl	spi_lld_exchange
 330              	.LVL17:
 331              	.LBB15:
 332              		.loc 1 226 0
 333 00d4 0023     		movs	r3, #0
 334              	@ 226 "/d_drive/axoloti/platform_linux/../chibios/os/hal/src/spi.c" 1
 335 00d6 83F31188 		msr     BASEPRI, r3
ARM GAS  /tmp/ccoPsvHO.s 			page 7


 336              	@ 0 "" 2
 337              		.thumb
 338 00da 70BD     		pop	{r4, r5, r6, pc}
 339              	.LBE15:
 340              		.cfi_endproc
 341              	.LFE137:
 342              		.size	spiStartExchange, .-spiStartExchange
 343              		.align	2
 344 00dc AFF30080 		.p2align 4,,15
 345              		.global	spiStartSend
 346              		.thumb
 347              		.thumb_func
 348              		.type	spiStartSend, %function
 349              	spiStartSend:
 350              	.LFB138:
 351              		.loc 1 244 0
 352              		.cfi_startproc
 353              		@ args = 0, pretend = 0, frame = 0
 354              		@ frame_needed = 0, uses_anonymous_args = 0
 355              	.LVL18:
 356 00e0 10B5     		push	{r4, lr}
 357              		.cfi_def_cfa_offset 8
 358              		.cfi_offset 4, -8
 359              		.cfi_offset 14, -4
 360              	.LBB16:
 361              		.loc 1 249 0
 362 00e2 2023     		movs	r3, #32
 363              	@ 249 "/d_drive/axoloti/platform_linux/../chibios/os/hal/src/spi.c" 1
 364 00e4 83F31188 		msr     BASEPRI, r3
 365              	@ 0 "" 2
 366              		.thumb
 367              	.LBE16:
 368              		.loc 1 251 0
 369 00e8 0323     		movs	r3, #3
 370 00ea 0370     		strb	r3, [r0]
 371 00ec FFF7FEFF 		bl	spi_lld_send
 372              	.LVL19:
 373              	.LBB17:
 374              		.loc 1 252 0
 375 00f0 0023     		movs	r3, #0
 376              	@ 252 "/d_drive/axoloti/platform_linux/../chibios/os/hal/src/spi.c" 1
 377 00f2 83F31188 		msr     BASEPRI, r3
 378              	@ 0 "" 2
 379              		.thumb
 380 00f6 10BD     		pop	{r4, pc}
 381              	.LBE17:
 382              		.cfi_endproc
 383              	.LFE138:
 384              		.size	spiStartSend, .-spiStartSend
 385              		.align	2
 386 00f8 AFF30080 		.p2align 4,,15
 386      AFF30080 
 387              		.global	spiStartReceive
 388              		.thumb
 389              		.thumb_func
 390              		.type	spiStartReceive, %function
 391              	spiStartReceive:
ARM GAS  /tmp/ccoPsvHO.s 			page 8


 392              	.LFB139:
 393              		.loc 1 270 0
 394              		.cfi_startproc
 395              		@ args = 0, pretend = 0, frame = 0
 396              		@ frame_needed = 0, uses_anonymous_args = 0
 397              	.LVL20:
 398 0100 10B5     		push	{r4, lr}
 399              		.cfi_def_cfa_offset 8
 400              		.cfi_offset 4, -8
 401              		.cfi_offset 14, -4
 402              	.LBB18:
 403              		.loc 1 275 0
 404 0102 2023     		movs	r3, #32
 405              	@ 275 "/d_drive/axoloti/platform_linux/../chibios/os/hal/src/spi.c" 1
 406 0104 83F31188 		msr     BASEPRI, r3
 407              	@ 0 "" 2
 408              		.thumb
 409              	.LBE18:
 410              		.loc 1 277 0
 411 0108 0323     		movs	r3, #3
 412 010a 0370     		strb	r3, [r0]
 413 010c FFF7FEFF 		bl	spi_lld_receive
 414              	.LVL21:
 415              	.LBB19:
 416              		.loc 1 278 0
 417 0110 0023     		movs	r3, #0
 418              	@ 278 "/d_drive/axoloti/platform_linux/../chibios/os/hal/src/spi.c" 1
 419 0112 83F31188 		msr     BASEPRI, r3
 420              	@ 0 "" 2
 421              		.thumb
 422 0116 10BD     		pop	{r4, pc}
 423              	.LBE19:
 424              		.cfi_endproc
 425              	.LFE139:
 426              		.size	spiStartReceive, .-spiStartReceive
 427              		.align	2
 428 0118 AFF30080 		.p2align 4,,15
 428      AFF30080 
 429              		.global	spiIgnore
 430              		.thumb
 431              		.thumb_func
 432              		.type	spiIgnore, %function
 433              	spiIgnore:
 434              	.LFB140:
 435              		.loc 1 296 0
 436              		.cfi_startproc
 437              		@ args = 0, pretend = 0, frame = 0
 438              		@ frame_needed = 0, uses_anonymous_args = 0
 439              	.LVL22:
 440 0120 10B5     		push	{r4, lr}
 441              		.cfi_def_cfa_offset 8
 442              		.cfi_offset 4, -8
 443              		.cfi_offset 14, -4
 444              	.LBB20:
 445              		.loc 1 300 0
 446 0122 2023     		movs	r3, #32
 447              	.LBE20:
ARM GAS  /tmp/ccoPsvHO.s 			page 9


 448              		.loc 1 296 0
 449 0124 0446     		mov	r4, r0
 450              	.LBB21:
 451              		.loc 1 300 0
 452              	@ 300 "/d_drive/axoloti/platform_linux/../chibios/os/hal/src/spi.c" 1
 453 0126 83F31188 		msr     BASEPRI, r3
 454              	@ 0 "" 2
 455              		.thumb
 456              	.LBE21:
 457              		.loc 1 303 0
 458 012a 0323     		movs	r3, #3
 459 012c 0370     		strb	r3, [r0]
 460 012e FFF7FEFF 		bl	spi_lld_ignore
 461              	.LVL23:
 462              		.loc 1 304 0
 463 0132 054B     		ldr	r3, .L21
 464 0134 9B69     		ldr	r3, [r3, #24]
 465 0136 A360     		str	r3, [r4, #8]
 466 0138 0220     		movs	r0, #2
 467 013a FFF7FEFF 		bl	chSchGoSleepS
 468              	.LVL24:
 469              	.LBB22:
 470              		.loc 1 305 0
 471 013e 0023     		movs	r3, #0
 472              	@ 305 "/d_drive/axoloti/platform_linux/../chibios/os/hal/src/spi.c" 1
 473 0140 83F31188 		msr     BASEPRI, r3
 474              	@ 0 "" 2
 475              		.thumb
 476 0144 10BD     		pop	{r4, pc}
 477              	.LVL25:
 478              	.L22:
 479 0146 00BF     		.align	2
 480              	.L21:
 481 0148 00000000 		.word	rlist
 482              	.LBE22:
 483              		.cfi_endproc
 484              	.LFE140:
 485              		.size	spiIgnore, .-spiIgnore
 486              		.align	2
 487 014c AFF30080 		.p2align 4,,15
 488              		.global	spiExchange
 489              		.thumb
 490              		.thumb_func
 491              		.type	spiExchange, %function
 492              	spiExchange:
 493              	.LFB141:
 494              		.loc 1 327 0
 495              		.cfi_startproc
 496              		@ args = 0, pretend = 0, frame = 0
 497              		@ frame_needed = 0, uses_anonymous_args = 0
 498              	.LVL26:
 499 0150 70B5     		push	{r4, r5, r6, lr}
 500              		.cfi_def_cfa_offset 16
 501              		.cfi_offset 4, -16
 502              		.cfi_offset 5, -12
 503              		.cfi_offset 6, -8
 504              		.cfi_offset 14, -4
ARM GAS  /tmp/ccoPsvHO.s 			page 10


 505              		.loc 1 327 0
 506 0152 1E46     		mov	r6, r3
 507 0154 0446     		mov	r4, r0
 508              	.LBB23:
 509              		.loc 1 332 0
 510 0156 2023     		movs	r3, #32
 511              	.LVL27:
 512              	@ 332 "/d_drive/axoloti/platform_linux/../chibios/os/hal/src/spi.c" 1
 513 0158 83F31188 		msr     BASEPRI, r3
 514              	@ 0 "" 2
 515              		.thumb
 516              	.LBE23:
 517              		.loc 1 336 0
 518 015c 0325     		movs	r5, #3
 519 015e 3346     		mov	r3, r6
 520 0160 0570     		strb	r5, [r0]
 521 0162 FFF7FEFF 		bl	spi_lld_exchange
 522              	.LVL28:
 523              		.loc 1 337 0
 524 0166 054B     		ldr	r3, .L25
 525 0168 9B69     		ldr	r3, [r3, #24]
 526 016a A360     		str	r3, [r4, #8]
 527 016c 0220     		movs	r0, #2
 528 016e FFF7FEFF 		bl	chSchGoSleepS
 529              	.LVL29:
 530              	.LBB24:
 531              		.loc 1 338 0
 532 0172 0023     		movs	r3, #0
 533              	@ 338 "/d_drive/axoloti/platform_linux/../chibios/os/hal/src/spi.c" 1
 534 0174 83F31188 		msr     BASEPRI, r3
 535              	@ 0 "" 2
 536              		.thumb
 537 0178 70BD     		pop	{r4, r5, r6, pc}
 538              	.LVL30:
 539              	.L26:
 540 017a 00BF     		.align	2
 541              	.L25:
 542 017c 00000000 		.word	rlist
 543              	.LBE24:
 544              		.cfi_endproc
 545              	.LFE141:
 546              		.size	spiExchange, .-spiExchange
 547              		.align	2
 548              		.p2align 4,,15
 549              		.global	spiSend
 550              		.thumb
 551              		.thumb_func
 552              		.type	spiSend, %function
 553              	spiSend:
 554              	.LFB142:
 555              		.loc 1 357 0
 556              		.cfi_startproc
 557              		@ args = 0, pretend = 0, frame = 0
 558              		@ frame_needed = 0, uses_anonymous_args = 0
 559              	.LVL31:
 560 0180 10B5     		push	{r4, lr}
 561              		.cfi_def_cfa_offset 8
ARM GAS  /tmp/ccoPsvHO.s 			page 11


 562              		.cfi_offset 4, -8
 563              		.cfi_offset 14, -4
 564              	.LBB25:
 565              		.loc 1 361 0
 566 0182 2023     		movs	r3, #32
 567              	.LBE25:
 568              		.loc 1 357 0
 569 0184 0446     		mov	r4, r0
 570              	.LBB26:
 571              		.loc 1 361 0
 572              	@ 361 "/d_drive/axoloti/platform_linux/../chibios/os/hal/src/spi.c" 1
 573 0186 83F31188 		msr     BASEPRI, r3
 574              	@ 0 "" 2
 575              		.thumb
 576              	.LBE26:
 577              		.loc 1 364 0
 578 018a 0323     		movs	r3, #3
 579 018c 0370     		strb	r3, [r0]
 580 018e FFF7FEFF 		bl	spi_lld_send
 581              	.LVL32:
 582              		.loc 1 365 0
 583 0192 054B     		ldr	r3, .L29
 584 0194 9B69     		ldr	r3, [r3, #24]
 585 0196 A360     		str	r3, [r4, #8]
 586 0198 0220     		movs	r0, #2
 587 019a FFF7FEFF 		bl	chSchGoSleepS
 588              	.LVL33:
 589              	.LBB27:
 590              		.loc 1 366 0
 591 019e 0023     		movs	r3, #0
 592              	@ 366 "/d_drive/axoloti/platform_linux/../chibios/os/hal/src/spi.c" 1
 593 01a0 83F31188 		msr     BASEPRI, r3
 594              	@ 0 "" 2
 595              		.thumb
 596 01a4 10BD     		pop	{r4, pc}
 597              	.LVL34:
 598              	.L30:
 599 01a6 00BF     		.align	2
 600              	.L29:
 601 01a8 00000000 		.word	rlist
 602              	.LBE27:
 603              		.cfi_endproc
 604              	.LFE142:
 605              		.size	spiSend, .-spiSend
 606              		.align	2
 607 01ac AFF30080 		.p2align 4,,15
 608              		.global	spiReceive
 609              		.thumb
 610              		.thumb_func
 611              		.type	spiReceive, %function
 612              	spiReceive:
 613              	.LFB143:
 614              		.loc 1 385 0
 615              		.cfi_startproc
 616              		@ args = 0, pretend = 0, frame = 0
 617              		@ frame_needed = 0, uses_anonymous_args = 0
 618              	.LVL35:
ARM GAS  /tmp/ccoPsvHO.s 			page 12


 619 01b0 10B5     		push	{r4, lr}
 620              		.cfi_def_cfa_offset 8
 621              		.cfi_offset 4, -8
 622              		.cfi_offset 14, -4
 623              	.LBB28:
 624              		.loc 1 390 0
 625 01b2 2023     		movs	r3, #32
 626              	.LBE28:
 627              		.loc 1 385 0
 628 01b4 0446     		mov	r4, r0
 629              	.LBB29:
 630              		.loc 1 390 0
 631              	@ 390 "/d_drive/axoloti/platform_linux/../chibios/os/hal/src/spi.c" 1
 632 01b6 83F31188 		msr     BASEPRI, r3
 633              	@ 0 "" 2
 634              		.thumb
 635              	.LBE29:
 636              		.loc 1 394 0
 637 01ba 0323     		movs	r3, #3
 638 01bc 0370     		strb	r3, [r0]
 639 01be FFF7FEFF 		bl	spi_lld_receive
 640              	.LVL36:
 641              		.loc 1 395 0
 642 01c2 054B     		ldr	r3, .L33
 643 01c4 9B69     		ldr	r3, [r3, #24]
 644 01c6 A360     		str	r3, [r4, #8]
 645 01c8 0220     		movs	r0, #2
 646 01ca FFF7FEFF 		bl	chSchGoSleepS
 647              	.LVL37:
 648              	.LBB30:
 649              		.loc 1 396 0
 650 01ce 0023     		movs	r3, #0
 651              	@ 396 "/d_drive/axoloti/platform_linux/../chibios/os/hal/src/spi.c" 1
 652 01d0 83F31188 		msr     BASEPRI, r3
 653              	@ 0 "" 2
 654              		.thumb
 655 01d4 10BD     		pop	{r4, pc}
 656              	.LVL38:
 657              	.L34:
 658 01d6 00BF     		.align	2
 659              	.L33:
 660 01d8 00000000 		.word	rlist
 661              	.LBE30:
 662              		.cfi_endproc
 663              	.LFE143:
 664              		.size	spiReceive, .-spiReceive
 665              		.align	2
 666 01dc AFF30080 		.p2align 4,,15
 667              		.global	spiAcquireBus
 668              		.thumb
 669              		.thumb_func
 670              		.type	spiAcquireBus, %function
 671              	spiAcquireBus:
 672              	.LFB144:
 673              		.loc 1 412 0
 674              		.cfi_startproc
 675              		@ args = 0, pretend = 0, frame = 0
ARM GAS  /tmp/ccoPsvHO.s 			page 13


 676              		@ frame_needed = 0, uses_anonymous_args = 0
 677              		@ link register save eliminated.
 678              	.LVL39:
 679              		.loc 1 417 0
 680 01e0 0C30     		adds	r0, r0, #12
 681              	.LVL40:
 682 01e2 FFF7FEBF 		b	chMtxLock
 683              	.LVL41:
 684              		.cfi_endproc
 685              	.LFE144:
 686              		.size	spiAcquireBus, .-spiAcquireBus
 687 01e6 00BF     		.align	2
 688 01e8 AFF30080 		.p2align 4,,15
 688      AFF30080 
 689              		.global	spiReleaseBus
 690              		.thumb
 691              		.thumb_func
 692              		.type	spiReleaseBus, %function
 693              	spiReleaseBus:
 694              	.LFB145:
 695              		.loc 1 432 0
 696              		.cfi_startproc
 697              		@ args = 0, pretend = 0, frame = 0
 698              		@ frame_needed = 0, uses_anonymous_args = 0
 699              		@ link register save eliminated.
 700              	.LVL42:
 701              		.loc 1 438 0
 702 01f0 FFF7FEBF 		b	chMtxUnlock
 703              	.LVL43:
 704              		.cfi_endproc
 705              	.LFE145:
 706              		.size	spiReleaseBus, .-spiReleaseBus
 707              	.Letext0:
 708              		.file 2 "/d_drive/axoloti/platform_linux/lib/gcc/arm-none-eabi/4.9.3/include/stddef.h"
 709              		.file 3 "/d_drive/axoloti/platform_linux/arm-none-eabi/include/machine/_default_types.h"
 710              		.file 4 "/d_drive/axoloti/platform_linux/arm-none-eabi/include/sys/_stdint.h"
 711              		.file 5 "/d_drive/axoloti/platform_linux/../chibios/os/ports/GCC/ARMCMx/chtypes.h"
 712              		.file 6 "/d_drive/axoloti/platform_linux/../chibios/os/kernel/include/chlists.h"
 713              		.file 7 "/d_drive/axoloti/platform_linux/../chibios/os/kernel/include/chthreads.h"
 714              		.file 8 "/d_drive/axoloti/platform_linux/../chibios/os/ports/GCC/ARMCMx/chcore_v7m.h"
 715              		.file 9 "/d_drive/axoloti/platform_linux/../chibios/os/kernel/include/chschd.h"
 716              		.file 10 "/d_drive/axoloti/platform_linux/../chibios/os/kernel/include/chmtx.h"
 717              		.file 11 "/d_drive/axoloti/platform_linux/../chibios/os/hal/platforms/STM32F4xx/stm32f4xx.h"
 718              		.file 12 "/d_drive/axoloti/platform_linux/../chibios/os/hal/platforms/STM32F4xx/stm32_dma.h"
 719              		.file 13 "/d_drive/axoloti/platform_linux/../chibios/os/hal/platforms/STM32/GPIOv2/pal_lld.h"
 720              		.file 14 "/d_drive/axoloti/platform_linux/../chibios/os/hal/include/spi.h"
 721              		.file 15 "/d_drive/axoloti/platform_linux/../chibios/os/hal/platforms/STM32/SPIv1/spi_lld.h"
 722              		.file 16 "/d_drive/axoloti/platform_linux/../CMSIS//Include/core_cm4.h"