ARM GAS  /tmp/cc0AD0H2.s 			page 1


   1              		.syntax unified
   2              		.cpu cortex-m4
   3              		.eabi_attribute 27, 1
   4              		.eabi_attribute 28, 1
   5              		.fpu fpv4-sp-d16
   6              		.eabi_attribute 20, 1
   7              		.eabi_attribute 21, 1
   8              		.eabi_attribute 23, 3
   9              		.eabi_attribute 24, 1
  10              		.eabi_attribute 25, 1
  11              		.eabi_attribute 26, 1
  12              		.eabi_attribute 30, 2
  13              		.eabi_attribute 34, 1
  14              		.eabi_attribute 18, 4
  15              		.thumb
  16              		.file	"spi_lld.c"
  17              		.text
  18              	.Ltext0:
  19              		.cfi_sections	.debug_frame
  20              		.align	2
  21              		.p2align 4,,15
  22              		.thumb
  23              		.thumb_func
  24              		.type	spi_lld_serve_tx_interrupt, %function
  25              	spi_lld_serve_tx_interrupt:
  26              	.LFB131:
  27              		.file 1 "/home/sbcu/Dropbox/pcb-layouts/axo-on-discovery-board/axoloti/platform_linux/../chibios/o
  28              		.loc 1 159 0
  29              		.cfi_startproc
  30              		@ args = 0, pretend = 0, frame = 0
  31              		@ frame_needed = 0, uses_anonymous_args = 0
  32              		@ link register save eliminated.
  33              	.LVL0:
  34              		.loc 1 164 0
  35 0000 11F00C0F 		tst	r1, #12
  36 0004 00D1     		bne	.L4
  37 0006 7047     		bx	lr
  38              	.L4:
  39              		.loc 1 165 0
  40 0008 FFF7FEBF 		b	port_halt
  41              	.LVL1:
  42              		.cfi_endproc
  43              	.LFE131:
  44              		.size	spi_lld_serve_tx_interrupt, .-spi_lld_serve_tx_interrupt
  45              		.align	2
  46 000c AFF30080 		.p2align 4,,15
  47              		.thumb
  48              		.thumb_func
  49              		.type	spi_lld_serve_rx_interrupt, %function
  50              	spi_lld_serve_rx_interrupt:
  51              	.LFB130:
  52              		.loc 1 133 0
  53              		.cfi_startproc
  54              		@ args = 0, pretend = 0, frame = 0
  55              		@ frame_needed = 0, uses_anonymous_args = 0
  56              	.LVL2:
  57              		.loc 1 137 0
ARM GAS  /tmp/cc0AD0H2.s 			page 2


  58 0010 11F00C0F 		tst	r1, #12
  59              		.loc 1 133 0
  60 0014 38B5     		push	{r3, r4, r5, lr}
  61              		.cfi_def_cfa_offset 16
  62              		.cfi_offset 3, -16
  63              		.cfi_offset 4, -12
  64              		.cfi_offset 5, -8
  65              		.cfi_offset 14, -4
  66              		.loc 1 133 0
  67 0016 0446     		mov	r4, r0
  68              		.loc 1 137 0
  69 0018 37D1     		bne	.L24
  70              	.LVL3:
  71              	.L6:
  72              		.loc 1 145 0
  73 001a 606A     		ldr	r0, [r4, #36]
  74 001c 0268     		ldr	r2, [r0]
  75 001e 1368     		ldr	r3, [r2]
  76 0020 23F01F03 		bic	r3, r3, #31
  77 0024 1360     		str	r3, [r2]
  78              	.L7:
  79              		.loc 1 145 0 is_stmt 0 discriminator 2
  80 0026 1368     		ldr	r3, [r2]
  81 0028 D907     		lsls	r1, r3, #31
  82 002a FCD4     		bmi	.L7
  83              		.loc 1 145 0 discriminator 3
  84 002c 057A     		ldrb	r5, [r0, #8]	@ zero_extendqisi2
  85              		.loc 1 146 0 is_stmt 1 discriminator 3
  86 002e 216A     		ldr	r1, [r4, #32]
  87              		.loc 1 145 0 discriminator 3
  88 0030 4068     		ldr	r0, [r0, #4]
  89              		.loc 1 146 0 discriminator 3
  90 0032 0A68     		ldr	r2, [r1]
  91              		.loc 1 145 0 discriminator 3
  92 0034 3D23     		movs	r3, #61
  93 0036 AB40     		lsls	r3, r3, r5
  94 0038 0360     		str	r3, [r0]
  95              		.loc 1 146 0 discriminator 3
  96 003a 1368     		ldr	r3, [r2]
  97 003c 23F01F03 		bic	r3, r3, #31
  98 0040 1360     		str	r3, [r2]
  99              	.L8:
 100              		.loc 1 146 0 is_stmt 0 discriminator 2
 101 0042 1368     		ldr	r3, [r2]
 102 0044 DB07     		lsls	r3, r3, #31
 103 0046 FCD4     		bmi	.L8
 104              		.loc 1 150 0 is_stmt 1 discriminator 3
 105 0048 6368     		ldr	r3, [r4, #4]
 106              		.loc 1 146 0 discriminator 3
 107 004a 087A     		ldrb	r0, [r1, #8]	@ zero_extendqisi2
 108              		.loc 1 150 0 discriminator 3
 109 004c 1A68     		ldr	r2, [r3]
 110              		.loc 1 146 0 discriminator 3
 111 004e 4968     		ldr	r1, [r1, #4]
 112 0050 3D23     		movs	r3, #61
 113 0052 8340     		lsls	r3, r3, r0
 114 0054 0B60     		str	r3, [r1]
ARM GAS  /tmp/cc0AD0H2.s 			page 3


 115              		.loc 1 150 0 discriminator 3
 116 0056 AAB1     		cbz	r2, .L9
 117              		.loc 1 150 0 is_stmt 0 discriminator 1
 118 0058 0423     		movs	r3, #4
 119 005a 2370     		strb	r3, [r4]
 120 005c 2046     		mov	r0, r4
 121 005e 9047     		blx	r2
 122              	.LVL4:
 123 0060 2378     		ldrb	r3, [r4]	@ zero_extendqisi2
 124 0062 042B     		cmp	r3, #4
 125 0064 0ED0     		beq	.L9
 126              	.L10:
 127              	.LBB2:
 128              		.loc 1 150 0 discriminator 4
 129 0066 2023     		movs	r3, #32
 130              	@ 150 "/home/sbcu/Dropbox/pcb-layouts/axo-on-discovery-board/axoloti/platform_linux/../chibios/os/h
 131 0068 83F31188 		msr     BASEPRI, r3
 132              	@ 0 "" 2
 133              		.thumb
 134              	.LBE2:
 135 006c A368     		ldr	r3, [r4, #8]
 136 006e 2BB1     		cbz	r3, .L11
 137              	.LVL5:
 138              	.LBB3:
 139              		.loc 1 150 0 discriminator 5
 140 0070 0022     		movs	r2, #0
 141 0072 A260     		str	r2, [r4, #8]
 142 0074 1846     		mov	r0, r3
 143 0076 1A62     		str	r2, [r3, #32]
 144 0078 FFF7FEFF 		bl	chSchReadyI
 145              	.LVL6:
 146              	.L11:
 147              	.LBE3:
 148              	.LBB4:
 149              		.loc 1 150 0 discriminator 7
 150 007c 0023     		movs	r3, #0
 151              	@ 150 "/home/sbcu/Dropbox/pcb-layouts/axo-on-discovery-board/axoloti/platform_linux/../chibios/os/h
 152 007e 83F31188 		msr     BASEPRI, r3
 153              	@ 0 "" 2
 154              		.thumb
 155 0082 38BD     		pop	{r3, r4, r5, pc}
 156              	.LVL7:
 157              	.L9:
 158              	.LBE4:
 159              		.loc 1 150 0 discriminator 3
 160 0084 0223     		movs	r3, #2
 161 0086 2370     		strb	r3, [r4]
 162 0088 EDE7     		b	.L10
 163              	.LVL8:
 164              	.L24:
 165              		.loc 1 138 0 is_stmt 1
 166 008a FFF7FEFF 		bl	port_halt
 167              	.LVL9:
 168 008e C4E7     		b	.L6
 169              		.cfi_endproc
 170              	.LFE130:
 171              		.size	spi_lld_serve_rx_interrupt, .-spi_lld_serve_rx_interrupt
ARM GAS  /tmp/cc0AD0H2.s 			page 4


 172              		.align	2
 173              		.p2align 4,,15
 174              		.global	spi_lld_init
 175              		.thumb
 176              		.thumb_func
 177              		.type	spi_lld_init, %function
 178              	spi_lld_init:
 179              	.LFB132:
 180              		.loc 1 186 0
 181              		.cfi_startproc
 182              		@ args = 0, pretend = 0, frame = 0
 183              		@ frame_needed = 0, uses_anonymous_args = 0
 184 0090 F8B5     		push	{r3, r4, r5, r6, r7, lr}
 185              		.cfi_def_cfa_offset 24
 186              		.cfi_offset 3, -24
 187              		.cfi_offset 4, -20
 188              		.cfi_offset 5, -16
 189              		.cfi_offset 6, -12
 190              		.cfi_offset 7, -8
 191              		.cfi_offset 14, -4
 192              		.loc 1 191 0
 193 0092 194F     		ldr	r7, .L27
 194              		.loc 1 188 0
 195 0094 194B     		ldr	r3, .L27+4
 196              		.loc 1 193 0
 197 0096 1A4C     		ldr	r4, .L27+8
 198              		.loc 1 209 0
 199 0098 1A4E     		ldr	r6, .L27+12
 200              		.loc 1 227 0
 201 009a 1B4D     		ldr	r5, .L27+16
 202              		.loc 1 191 0
 203 009c 3846     		mov	r0, r7
 204              		.loc 1 188 0
 205 009e 4FF6FF72 		movw	r2, #65535
 206 00a2 1A80     		strh	r2, [r3]	@ movhi
 207              		.loc 1 191 0
 208 00a4 FFF7FEFF 		bl	spiObjectInit
 209              	.LVL10:
 210              		.loc 1 192 0
 211 00a8 1849     		ldr	r1, .L27+20
 212              		.loc 1 195 0
 213 00aa 194A     		ldr	r2, .L27+24
 214              		.loc 1 201 0
 215 00ac 194B     		ldr	r3, .L27+28
 216              		.loc 1 192 0
 217 00ae F961     		str	r1, [r7, #28]
 218              		.loc 1 209 0
 219 00b0 3046     		mov	r0, r6
 220              		.loc 1 194 0
 221 00b2 04F12401 		add	r1, r4, #36
 222              		.loc 1 193 0
 223 00b6 3C62     		str	r4, [r7, #32]
 224              		.loc 1 194 0
 225 00b8 7962     		str	r1, [r7, #36]
 226              		.loc 1 195 0
 227 00ba BA62     		str	r2, [r7, #40]
 228              		.loc 1 201 0
ARM GAS  /tmp/cc0AD0H2.s 			page 5


 229 00bc FB62     		str	r3, [r7, #44]
 230              		.loc 1 209 0
 231 00be FFF7FEFF 		bl	spiObjectInit
 232              	.LVL11:
 233              		.loc 1 210 0
 234 00c2 1549     		ldr	r1, .L27+32
 235              		.loc 1 213 0
 236 00c4 154A     		ldr	r2, .L27+36
 237              		.loc 1 219 0
 238 00c6 164B     		ldr	r3, .L27+40
 239              		.loc 1 210 0
 240 00c8 F161     		str	r1, [r6, #28]
 241              		.loc 1 211 0
 242 00ca A4F13C07 		sub	r7, r4, #60
 243              		.loc 1 212 0
 244 00ce A4F13001 		sub	r1, r4, #48
 245              		.loc 1 227 0
 246 00d2 2846     		mov	r0, r5
 247              		.loc 1 212 0
 248 00d4 7162     		str	r1, [r6, #36]
 249              		.loc 1 213 0
 250 00d6 B262     		str	r2, [r6, #40]
 251              		.loc 1 219 0
 252 00d8 F362     		str	r3, [r6, #44]
 253              		.loc 1 211 0
 254 00da 3762     		str	r7, [r6, #32]
 255              		.loc 1 227 0
 256 00dc FFF7FEFF 		bl	spiObjectInit
 257              	.LVL12:
 258              		.loc 1 228 0
 259 00e0 1049     		ldr	r1, .L27+44
 260              		.loc 1 231 0
 261 00e2 114A     		ldr	r2, .L27+48
 262              		.loc 1 237 0
 263 00e4 114B     		ldr	r3, .L27+52
 264              		.loc 1 228 0
 265 00e6 E961     		str	r1, [r5, #28]
 266              		.loc 1 229 0
 267 00e8 A4F16001 		sub	r1, r4, #96
 268              		.loc 1 230 0
 269 00ec 0C3C     		subs	r4, r4, #12
 270              		.loc 1 229 0
 271 00ee 2962     		str	r1, [r5, #32]
 272              		.loc 1 230 0
 273 00f0 6C62     		str	r4, [r5, #36]
 274              		.loc 1 231 0
 275 00f2 AA62     		str	r2, [r5, #40]
 276              		.loc 1 237 0
 277 00f4 EB62     		str	r3, [r5, #44]
 278 00f6 F8BD     		pop	{r3, r4, r5, r6, r7, pc}
 279              	.L28:
 280              		.align	2
 281              	.L27:
 282 00f8 00000000 		.word	SPID1
 283 00fc 00000000 		.word	.LANCHOR0
 284 0100 60000000 		.word	_stm32_dma_streams+96
 285 0104 00000000 		.word	SPID2
ARM GAS  /tmp/cc0AD0H2.s 			page 6


 286 0108 00000000 		.word	SPID3
 287 010c 00300140 		.word	1073819648
 288 0110 16000106 		.word	100728854
 289 0114 46000106 		.word	100728902
 290 0118 00380040 		.word	1073756160
 291 011c 16000100 		.word	65558
 292 0120 46000100 		.word	65606
 293 0124 003C0040 		.word	1073757184
 294 0128 16000300 		.word	196630
 295 012c 46000300 		.word	196678
 296              		.cfi_endproc
 297              	.LFE132:
 298              		.size	spi_lld_init, .-spi_lld_init
 299              		.align	2
 300              		.p2align 4,,15
 301              		.global	spi_lld_start
 302              		.thumb
 303              		.thumb_func
 304              		.type	spi_lld_start, %function
 305              	spi_lld_start:
 306              	.LFB133:
 307              		.loc 1 306 0
 308              		.cfi_startproc
 309              		@ args = 0, pretend = 0, frame = 0
 310              		@ frame_needed = 0, uses_anonymous_args = 0
 311              	.LVL13:
 312              		.loc 1 309 0
 313 0130 0378     		ldrb	r3, [r0]	@ zero_extendqisi2
 314 0132 012B     		cmp	r3, #1
 315              		.loc 1 306 0
 316 0134 10B5     		push	{r4, lr}
 317              		.cfi_def_cfa_offset 8
 318              		.cfi_offset 4, -8
 319              		.cfi_offset 14, -4
 320              		.loc 1 306 0
 321 0136 0446     		mov	r4, r0
 322              		.loc 1 309 0
 323 0138 1ED0     		beq	.L37
 324 013a C369     		ldr	r3, [r0, #28]
 325              	.LVL14:
 326              	.L30:
 327              		.loc 1 413 0
 328 013c 6268     		ldr	r2, [r4, #4]
 329              		.loc 1 416 0
 330 013e A06A     		ldr	r0, [r4, #40]
 331              		.loc 1 413 0
 332 0140 5289     		ldrh	r2, [r2, #10]
 333              		.loc 1 418 0
 334 0142 E16A     		ldr	r1, [r4, #44]
 335              		.loc 1 416 0
 336 0144 20F4F040 		bic	r0, r0, #30720
 337              		.loc 1 418 0
 338 0148 21F4F041 		bic	r1, r1, #30720
 339              		.loc 1 413 0
 340 014c 12F4006F 		tst	r2, #2048
 341              		.loc 1 423 0
 342 0150 1CBF     		itt	ne
ARM GAS  /tmp/cc0AD0H2.s 			page 7


 343 0152 40F42050 		orrne	r0, r0, #10240
 344              		.loc 1 425 0
 345 0156 41F42051 		orrne	r1, r1, #10240
 346              		.loc 1 422 0
 347 015a A062     		str	r0, [r4, #40]
 348              		.loc 1 424 0
 349 015c E162     		str	r1, [r4, #44]
 350              		.loc 1 429 0
 351 015e 42F44172 		orr	r2, r2, #772
 352              		.loc 1 428 0
 353 0162 0020     		movs	r0, #0
 354              		.loc 1 431 0
 355 0164 0721     		movs	r1, #7
 356              		.loc 1 428 0
 357 0166 1880     		strh	r0, [r3]	@ movhi
 358              		.loc 1 429 0
 359 0168 1A80     		strh	r2, [r3]	@ movhi
 360              		.loc 1 431 0
 361 016a 9980     		strh	r1, [r3, #4]	@ movhi
 362              		.loc 1 432 0
 363 016c 1A88     		ldrh	r2, [r3]
 364 016e 92B2     		uxth	r2, r2
 365 0170 42F04002 		orr	r2, r2, #64
 366 0174 1A80     		strh	r2, [r3]	@ movhi
 367 0176 10BD     		pop	{r4, pc}
 368              	.LVL15:
 369              	.L37:
 370              		.loc 1 311 0
 371 0178 244B     		ldr	r3, .L43
 372 017a 9842     		cmp	r0, r3
 373 017c 0FD0     		beq	.L40
 374              		.loc 1 327 0
 375 017e 244B     		ldr	r3, .L43+4
 376 0180 9842     		cmp	r0, r3
 377 0182 1ED0     		beq	.L41
 378              		.loc 1 343 0
 379 0184 234B     		ldr	r3, .L43+8
 380 0186 9842     		cmp	r0, r3
 381 0188 2DD0     		beq	.L42
 382              	.LVL16:
 383              	.L32:
 384              		.loc 1 408 0
 385 018a 216A     		ldr	r1, [r4, #32]
 386              		.loc 1 409 0
 387 018c 626A     		ldr	r2, [r4, #36]
 388              		.loc 1 408 0
 389 018e E369     		ldr	r3, [r4, #28]
 390 0190 0868     		ldr	r0, [r1]
 391              		.loc 1 409 0
 392 0192 1168     		ldr	r1, [r2]
 393              		.loc 1 408 0
 394 0194 03F10C02 		add	r2, r3, #12
 395 0198 8260     		str	r2, [r0, #8]
 396              		.loc 1 409 0
 397 019a 8A60     		str	r2, [r1, #8]
 398 019c CEE7     		b	.L30
 399              	.LVL17:
ARM GAS  /tmp/cc0AD0H2.s 			page 8


 400              	.L40:
 401              	.LBB5:
 402              		.loc 1 313 0
 403 019e 1E4A     		ldr	r2, .L43+12
 404 01a0 006A     		ldr	r0, [r0, #32]
 405              	.LVL18:
 406 01a2 0A21     		movs	r1, #10
 407 01a4 2346     		mov	r3, r4
 408 01a6 FFF7FEFF 		bl	dmaStreamAllocate
 409              	.LVL19:
 410              		.loc 1 318 0
 411 01aa 1C4A     		ldr	r2, .L43+16
 412 01ac 606A     		ldr	r0, [r4, #36]
 413 01ae 2346     		mov	r3, r4
 414 01b0 0A21     		movs	r1, #10
 415 01b2 FFF7FEFF 		bl	dmaStreamAllocate
 416              	.LVL20:
 417              		.loc 1 323 0
 418 01b6 1A4A     		ldr	r2, .L43+20
 419 01b8 536C     		ldr	r3, [r2, #68]
 420 01ba 43F48053 		orr	r3, r3, #4096
 421 01be 5364     		str	r3, [r2, #68]
 422 01c0 E3E7     		b	.L32
 423              	.LVL21:
 424              	.L41:
 425              	.LBE5:
 426              	.LBB6:
 427              		.loc 1 329 0
 428 01c2 154A     		ldr	r2, .L43+12
 429 01c4 006A     		ldr	r0, [r0, #32]
 430              	.LVL22:
 431 01c6 0221     		movs	r1, #2
 432 01c8 2346     		mov	r3, r4
 433 01ca FFF7FEFF 		bl	dmaStreamAllocate
 434              	.LVL23:
 435              		.loc 1 334 0
 436 01ce 134A     		ldr	r2, .L43+16
 437 01d0 606A     		ldr	r0, [r4, #36]
 438 01d2 2346     		mov	r3, r4
 439 01d4 0221     		movs	r1, #2
 440 01d6 FFF7FEFF 		bl	dmaStreamAllocate
 441              	.LVL24:
 442              		.loc 1 339 0
 443 01da 114A     		ldr	r2, .L43+20
 444 01dc 136C     		ldr	r3, [r2, #64]
 445 01de 43F48043 		orr	r3, r3, #16384
 446 01e2 1364     		str	r3, [r2, #64]
 447 01e4 D1E7     		b	.L32
 448              	.LVL25:
 449              	.L42:
 450              	.LBE6:
 451              	.LBB7:
 452              		.loc 1 345 0
 453 01e6 0C4A     		ldr	r2, .L43+12
 454 01e8 006A     		ldr	r0, [r0, #32]
 455              	.LVL26:
 456 01ea 0321     		movs	r1, #3
ARM GAS  /tmp/cc0AD0H2.s 			page 9


 457 01ec 2346     		mov	r3, r4
 458 01ee FFF7FEFF 		bl	dmaStreamAllocate
 459              	.LVL27:
 460              		.loc 1 350 0
 461 01f2 0A4A     		ldr	r2, .L43+16
 462 01f4 606A     		ldr	r0, [r4, #36]
 463 01f6 2346     		mov	r3, r4
 464 01f8 0321     		movs	r1, #3
 465 01fa FFF7FEFF 		bl	dmaStreamAllocate
 466              	.LVL28:
 467              		.loc 1 355 0
 468 01fe 084A     		ldr	r2, .L43+20
 469 0200 136C     		ldr	r3, [r2, #64]
 470 0202 43F40043 		orr	r3, r3, #32768
 471 0206 1364     		str	r3, [r2, #64]
 472 0208 BFE7     		b	.L32
 473              	.L44:
 474 020a 00BF     		.align	2
 475              	.L43:
 476 020c 00000000 		.word	SPID1
 477 0210 00000000 		.word	SPID2
 478 0214 00000000 		.word	SPID3
 479 0218 00000000 		.word	spi_lld_serve_rx_interrupt
 480 021c 00000000 		.word	spi_lld_serve_tx_interrupt
 481 0220 00380240 		.word	1073887232
 482              	.LBE7:
 483              		.cfi_endproc
 484              	.LFE133:
 485              		.size	spi_lld_start, .-spi_lld_start
 486              		.align	2
 487 0224 AFF30080 		.p2align 4,,15
 487      AFF30080 
 487      AFF30080 
 488              		.global	spi_lld_stop
 489              		.thumb
 490              		.thumb_func
 491              		.type	spi_lld_stop, %function
 492              	spi_lld_stop:
 493              	.LFB134:
 494              		.loc 1 442 0
 495              		.cfi_startproc
 496              		@ args = 0, pretend = 0, frame = 0
 497              		@ frame_needed = 0, uses_anonymous_args = 0
 498              	.LVL29:
 499              		.loc 1 445 0
 500 0230 0378     		ldrb	r3, [r0]	@ zero_extendqisi2
 501 0232 022B     		cmp	r3, #2
 502 0234 00D0     		beq	.L53
 503 0236 7047     		bx	lr
 504              	.L53:
 505              		.loc 1 448 0
 506 0238 C369     		ldr	r3, [r0, #28]
 507              		.loc 1 442 0
 508 023a 10B5     		push	{r4, lr}
 509              		.cfi_def_cfa_offset 8
 510              		.cfi_offset 4, -8
 511              		.cfi_offset 14, -4
ARM GAS  /tmp/cc0AD0H2.s 			page 10


 512              		.loc 1 448 0
 513 023c 0022     		movs	r2, #0
 514 023e 0446     		mov	r4, r0
 515              		.loc 1 450 0
 516 0240 006A     		ldr	r0, [r0, #32]
 517              	.LVL30:
 518              		.loc 1 448 0
 519 0242 1A80     		strh	r2, [r3]	@ movhi
 520              		.loc 1 449 0
 521 0244 9A80     		strh	r2, [r3, #4]	@ movhi
 522              		.loc 1 450 0
 523 0246 FFF7FEFF 		bl	dmaStreamRelease
 524              	.LVL31:
 525              		.loc 1 451 0
 526 024a 606A     		ldr	r0, [r4, #36]
 527 024c FFF7FEFF 		bl	dmaStreamRelease
 528              	.LVL32:
 529              		.loc 1 454 0
 530 0250 0D4B     		ldr	r3, .L57
 531 0252 9C42     		cmp	r4, r3
 532 0254 12D0     		beq	.L54
 533              		.loc 1 458 0
 534 0256 0D4B     		ldr	r3, .L57+4
 535 0258 9C42     		cmp	r4, r3
 536 025a 09D0     		beq	.L55
 537              		.loc 1 462 0
 538 025c 0C4B     		ldr	r3, .L57+8
 539 025e 9C42     		cmp	r4, r3
 540 0260 00D0     		beq	.L56
 541              	.L45:
 542 0262 10BD     		pop	{r4, pc}
 543              	.LVL33:
 544              	.L56:
 545              		.loc 1 463 0
 546 0264 0B4A     		ldr	r2, .L57+12
 547 0266 136C     		ldr	r3, [r2, #64]
 548 0268 23F40043 		bic	r3, r3, #32768
 549 026c 1364     		str	r3, [r2, #64]
 550 026e F8E7     		b	.L45
 551              	.L55:
 552              		.loc 1 459 0
 553 0270 084A     		ldr	r2, .L57+12
 554 0272 136C     		ldr	r3, [r2, #64]
 555 0274 23F48043 		bic	r3, r3, #16384
 556 0278 1364     		str	r3, [r2, #64]
 557 027a 10BD     		pop	{r4, pc}
 558              	.LVL34:
 559              	.L54:
 560              		.loc 1 455 0
 561 027c 054A     		ldr	r2, .L57+12
 562 027e 536C     		ldr	r3, [r2, #68]
 563 0280 23F48053 		bic	r3, r3, #4096
 564 0284 5364     		str	r3, [r2, #68]
 565 0286 10BD     		pop	{r4, pc}
 566              	.LVL35:
 567              	.L58:
 568              		.align	2
ARM GAS  /tmp/cc0AD0H2.s 			page 11


 569              	.L57:
 570 0288 00000000 		.word	SPID1
 571 028c 00000000 		.word	SPID2
 572 0290 00000000 		.word	SPID3
 573 0294 00380240 		.word	1073887232
 574              		.cfi_endproc
 575              	.LFE134:
 576              		.size	spi_lld_stop, .-spi_lld_stop
 577              		.align	2
 578 0298 AFF30080 		.p2align 4,,15
 578      AFF30080 
 579              		.global	spi_lld_select
 580              		.thumb
 581              		.thumb_func
 582              		.type	spi_lld_select, %function
 583              	spi_lld_select:
 584              	.LFB135:
 585              		.loc 1 487 0
 586              		.cfi_startproc
 587              		@ args = 0, pretend = 0, frame = 0
 588              		@ frame_needed = 0, uses_anonymous_args = 0
 589              		@ link register save eliminated.
 590              	.LVL36:
 591              		.loc 1 489 0
 592 02a0 4368     		ldr	r3, [r0, #4]
 593 02a2 1989     		ldrh	r1, [r3, #8]
 594 02a4 5A68     		ldr	r2, [r3, #4]
 595 02a6 0123     		movs	r3, #1
 596 02a8 8B40     		lsls	r3, r3, r1
 597 02aa 9BB2     		uxth	r3, r3
 598 02ac 5383     		strh	r3, [r2, #26]	@ movhi
 599 02ae 7047     		bx	lr
 600              		.cfi_endproc
 601              	.LFE135:
 602              		.size	spi_lld_select, .-spi_lld_select
 603              		.align	2
 604              		.p2align 4,,15
 605              		.global	spi_lld_unselect
 606              		.thumb
 607              		.thumb_func
 608              		.type	spi_lld_unselect, %function
 609              	spi_lld_unselect:
 610              	.LFB136:
 611              		.loc 1 500 0
 612              		.cfi_startproc
 613              		@ args = 0, pretend = 0, frame = 0
 614              		@ frame_needed = 0, uses_anonymous_args = 0
 615              		@ link register save eliminated.
 616              	.LVL37:
 617              		.loc 1 502 0
 618 02b0 4368     		ldr	r3, [r0, #4]
 619 02b2 1989     		ldrh	r1, [r3, #8]
 620 02b4 5A68     		ldr	r2, [r3, #4]
 621 02b6 0123     		movs	r3, #1
 622 02b8 8B40     		lsls	r3, r3, r1
 623 02ba 9BB2     		uxth	r3, r3
 624 02bc 1383     		strh	r3, [r2, #24]	@ movhi
ARM GAS  /tmp/cc0AD0H2.s 			page 12


 625 02be 7047     		bx	lr
 626              		.cfi_endproc
 627              	.LFE136:
 628              		.size	spi_lld_unselect, .-spi_lld_unselect
 629              		.align	2
 630              		.p2align 4,,15
 631              		.global	spi_lld_ignore
 632              		.thumb
 633              		.thumb_func
 634              		.type	spi_lld_ignore, %function
 635              	spi_lld_ignore:
 636              	.LFB137:
 637              		.loc 1 516 0
 638              		.cfi_startproc
 639              		@ args = 0, pretend = 0, frame = 0
 640              		@ frame_needed = 0, uses_anonymous_args = 0
 641              		@ link register save eliminated.
 642              	.LVL38:
 643              		.loc 1 518 0
 644 02c0 026A     		ldr	r2, [r0, #32]
 645              		.loc 1 522 0
 646 02c2 436A     		ldr	r3, [r0, #36]
 647              		.loc 1 518 0
 648 02c4 1268     		ldr	r2, [r2]
 649              		.loc 1 522 0
 650 02c6 1B68     		ldr	r3, [r3]
 651              		.loc 1 516 0
 652 02c8 70B4     		push	{r4, r5, r6}
 653              		.cfi_def_cfa_offset 12
 654              		.cfi_offset 4, -12
 655              		.cfi_offset 5, -8
 656              		.cfi_offset 6, -4
 657              		.loc 1 518 0
 658 02ca 0A4C     		ldr	r4, .L63
 659              		.loc 1 520 0
 660 02cc 856A     		ldr	r5, [r0, #40]
 661              		.loc 1 524 0
 662 02ce C06A     		ldr	r0, [r0, #44]
 663              	.LVL39:
 664              		.loc 1 518 0
 665 02d0 A61C     		adds	r6, r4, #2
 666 02d2 D660     		str	r6, [r2, #12]
 667              		.loc 1 519 0
 668 02d4 5160     		str	r1, [r2, #4]
 669              		.loc 1 520 0
 670 02d6 1560     		str	r5, [r2]
 671              		.loc 1 522 0
 672 02d8 DC60     		str	r4, [r3, #12]
 673              		.loc 1 523 0
 674 02da 5960     		str	r1, [r3, #4]
 675              		.loc 1 524 0
 676 02dc 1860     		str	r0, [r3]
 677              		.loc 1 526 0
 678 02de 1168     		ldr	r1, [r2]
 679              	.LVL40:
 680 02e0 41F00101 		orr	r1, r1, #1
 681 02e4 1160     		str	r1, [r2]
ARM GAS  /tmp/cc0AD0H2.s 			page 13


 682              		.loc 1 527 0
 683 02e6 1A68     		ldr	r2, [r3]
 684 02e8 42F00102 		orr	r2, r2, #1
 685 02ec 1A60     		str	r2, [r3]
 686              		.loc 1 528 0
 687 02ee 70BC     		pop	{r4, r5, r6}
 688              		.cfi_restore 6
 689              		.cfi_restore 5
 690              		.cfi_restore 4
 691              		.cfi_def_cfa_offset 0
 692 02f0 7047     		bx	lr
 693              	.L64:
 694 02f2 00BF     		.align	2
 695              	.L63:
 696 02f4 00000000 		.word	.LANCHOR0
 697              		.cfi_endproc
 698              	.LFE137:
 699              		.size	spi_lld_ignore, .-spi_lld_ignore
 700              		.align	2
 701 02f8 AFF30080 		.p2align 4,,15
 701      AFF30080 
 702              		.global	spi_lld_exchange
 703              		.thumb
 704              		.thumb_func
 705              		.type	spi_lld_exchange, %function
 706              	spi_lld_exchange:
 707              	.LFB138:
 708              		.loc 1 546 0
 709              		.cfi_startproc
 710              		@ args = 0, pretend = 0, frame = 0
 711              		@ frame_needed = 0, uses_anonymous_args = 0
 712              		@ link register save eliminated.
 713              	.LVL41:
 714 0300 F0B4     		push	{r4, r5, r6, r7}
 715              		.cfi_def_cfa_offset 16
 716              		.cfi_offset 4, -16
 717              		.cfi_offset 5, -12
 718              		.cfi_offset 6, -8
 719              		.cfi_offset 7, -4
 720              		.loc 1 548 0
 721 0302 046A     		ldr	r4, [r0, #32]
 722              		.loc 1 552 0
 723 0304 476A     		ldr	r7, [r0, #36]
 724              		.loc 1 550 0
 725 0306 866A     		ldr	r6, [r0, #40]
 726              		.loc 1 554 0
 727 0308 C56A     		ldr	r5, [r0, #44]
 728              		.loc 1 548 0
 729 030a 2468     		ldr	r4, [r4]
 730              		.loc 1 552 0
 731 030c 3868     		ldr	r0, [r7]
 732              	.LVL42:
 733              		.loc 1 548 0
 734 030e E360     		str	r3, [r4, #12]
 735              		.loc 1 550 0
 736 0310 46F48066 		orr	r6, r6, #1024
 737              		.loc 1 554 0
ARM GAS  /tmp/cc0AD0H2.s 			page 14


 738 0314 45F48065 		orr	r5, r5, #1024
 739              		.loc 1 549 0
 740 0318 6160     		str	r1, [r4, #4]
 741              		.loc 1 550 0
 742 031a 2660     		str	r6, [r4]
 743              		.loc 1 552 0
 744 031c C260     		str	r2, [r0, #12]
 745              		.loc 1 553 0
 746 031e 4160     		str	r1, [r0, #4]
 747              		.loc 1 554 0
 748 0320 0560     		str	r5, [r0]
 749              		.loc 1 556 0
 750 0322 2368     		ldr	r3, [r4]
 751              	.LVL43:
 752 0324 43F00103 		orr	r3, r3, #1
 753 0328 2360     		str	r3, [r4]
 754              		.loc 1 557 0
 755 032a 0368     		ldr	r3, [r0]
 756 032c 43F00103 		orr	r3, r3, #1
 757 0330 0360     		str	r3, [r0]
 758              		.loc 1 558 0
 759 0332 F0BC     		pop	{r4, r5, r6, r7}
 760              		.cfi_restore 7
 761              		.cfi_restore 6
 762              		.cfi_restore 5
 763              		.cfi_restore 4
 764              		.cfi_def_cfa_offset 0
 765 0334 7047     		bx	lr
 766              		.cfi_endproc
 767              	.LFE138:
 768              		.size	spi_lld_exchange, .-spi_lld_exchange
 769 0336 00BF     		.align	2
 770 0338 AFF30080 		.p2align 4,,15
 770      AFF30080 
 771              		.global	spi_lld_send
 772              		.thumb
 773              		.thumb_func
 774              		.type	spi_lld_send, %function
 775              	spi_lld_send:
 776              	.LFB139:
 777              		.loc 1 573 0
 778              		.cfi_startproc
 779              		@ args = 0, pretend = 0, frame = 0
 780              		@ frame_needed = 0, uses_anonymous_args = 0
 781              		@ link register save eliminated.
 782              	.LVL44:
 783 0340 70B4     		push	{r4, r5, r6}
 784              		.cfi_def_cfa_offset 12
 785              		.cfi_offset 4, -12
 786              		.cfi_offset 5, -8
 787              		.cfi_offset 6, -4
 788              		.loc 1 579 0
 789 0342 436A     		ldr	r3, [r0, #36]
 790              		.loc 1 575 0
 791 0344 046A     		ldr	r4, [r0, #32]
 792              		.loc 1 581 0
 793 0346 C56A     		ldr	r5, [r0, #44]
ARM GAS  /tmp/cc0AD0H2.s 			page 15


 794              		.loc 1 575 0
 795 0348 2468     		ldr	r4, [r4]
 796              		.loc 1 579 0
 797 034a 1B68     		ldr	r3, [r3]
 798              		.loc 1 577 0
 799 034c 806A     		ldr	r0, [r0, #40]
 800              	.LVL45:
 801              		.loc 1 575 0
 802 034e 094E     		ldr	r6, .L69
 803 0350 E660     		str	r6, [r4, #12]
 804              		.loc 1 581 0
 805 0352 45F48065 		orr	r5, r5, #1024
 806              		.loc 1 576 0
 807 0356 6160     		str	r1, [r4, #4]
 808              		.loc 1 577 0
 809 0358 2060     		str	r0, [r4]
 810              		.loc 1 579 0
 811 035a DA60     		str	r2, [r3, #12]
 812              		.loc 1 580 0
 813 035c 5960     		str	r1, [r3, #4]
 814              		.loc 1 581 0
 815 035e 1D60     		str	r5, [r3]
 816              		.loc 1 583 0
 817 0360 2268     		ldr	r2, [r4]
 818              	.LVL46:
 819 0362 42F00102 		orr	r2, r2, #1
 820 0366 2260     		str	r2, [r4]
 821              		.loc 1 584 0
 822 0368 1A68     		ldr	r2, [r3]
 823 036a 42F00102 		orr	r2, r2, #1
 824 036e 1A60     		str	r2, [r3]
 825              		.loc 1 585 0
 826 0370 70BC     		pop	{r4, r5, r6}
 827              		.cfi_restore 6
 828              		.cfi_restore 5
 829              		.cfi_restore 4
 830              		.cfi_def_cfa_offset 0
 831 0372 7047     		bx	lr
 832              	.L70:
 833              		.align	2
 834              	.L69:
 835 0374 02000000 		.word	.LANCHOR0+2
 836              		.cfi_endproc
 837              	.LFE139:
 838              		.size	spi_lld_send, .-spi_lld_send
 839              		.align	2
 840 0378 AFF30080 		.p2align 4,,15
 840      AFF30080 
 841              		.global	spi_lld_receive
 842              		.thumb
 843              		.thumb_func
 844              		.type	spi_lld_receive, %function
 845              	spi_lld_receive:
 846              	.LFB140:
 847              		.loc 1 600 0
 848              		.cfi_startproc
 849              		@ args = 0, pretend = 0, frame = 0
ARM GAS  /tmp/cc0AD0H2.s 			page 16


 850              		@ frame_needed = 0, uses_anonymous_args = 0
 851              		@ link register save eliminated.
 852              	.LVL47:
 853 0380 70B4     		push	{r4, r5, r6}
 854              		.cfi_def_cfa_offset 12
 855              		.cfi_offset 4, -12
 856              		.cfi_offset 5, -8
 857              		.cfi_offset 6, -4
 858              		.loc 1 606 0
 859 0382 436A     		ldr	r3, [r0, #36]
 860              		.loc 1 602 0
 861 0384 046A     		ldr	r4, [r0, #32]
 862              		.loc 1 604 0
 863 0386 856A     		ldr	r5, [r0, #40]
 864              		.loc 1 602 0
 865 0388 2468     		ldr	r4, [r4]
 866              		.loc 1 606 0
 867 038a 1B68     		ldr	r3, [r3]
 868              		.loc 1 608 0
 869 038c C06A     		ldr	r0, [r0, #44]
 870              	.LVL48:
 871              		.loc 1 606 0
 872 038e 094E     		ldr	r6, .L73
 873              		.loc 1 602 0
 874 0390 E260     		str	r2, [r4, #12]
 875              		.loc 1 604 0
 876 0392 45F48065 		orr	r5, r5, #1024
 877              		.loc 1 603 0
 878 0396 6160     		str	r1, [r4, #4]
 879              		.loc 1 604 0
 880 0398 2560     		str	r5, [r4]
 881              		.loc 1 606 0
 882 039a DE60     		str	r6, [r3, #12]
 883              		.loc 1 607 0
 884 039c 5960     		str	r1, [r3, #4]
 885              		.loc 1 608 0
 886 039e 1860     		str	r0, [r3]
 887              		.loc 1 610 0
 888 03a0 2268     		ldr	r2, [r4]
 889              	.LVL49:
 890 03a2 42F00102 		orr	r2, r2, #1
 891 03a6 2260     		str	r2, [r4]
 892              		.loc 1 611 0
 893 03a8 1A68     		ldr	r2, [r3]
 894 03aa 42F00102 		orr	r2, r2, #1
 895 03ae 1A60     		str	r2, [r3]
 896              		.loc 1 612 0
 897 03b0 70BC     		pop	{r4, r5, r6}
 898              		.cfi_restore 6
 899              		.cfi_restore 5
 900              		.cfi_restore 4
 901              		.cfi_def_cfa_offset 0
 902 03b2 7047     		bx	lr
 903              	.L74:
 904              		.align	2
 905              	.L73:
 906 03b4 00000000 		.word	.LANCHOR0
ARM GAS  /tmp/cc0AD0H2.s 			page 17


 907              		.cfi_endproc
 908              	.LFE140:
 909              		.size	spi_lld_receive, .-spi_lld_receive
 910              		.align	2
 911 03b8 AFF30080 		.p2align 4,,15
 911      AFF30080 
 912              		.global	spi_lld_polled_exchange
 913              		.thumb
 914              		.thumb_func
 915              		.type	spi_lld_polled_exchange, %function
 916              	spi_lld_polled_exchange:
 917              	.LFB141:
 918              		.loc 1 626 0
 919              		.cfi_startproc
 920              		@ args = 0, pretend = 0, frame = 0
 921              		@ frame_needed = 0, uses_anonymous_args = 0
 922              		@ link register save eliminated.
 923              	.LVL50:
 924              		.loc 1 628 0
 925 03c0 C269     		ldr	r2, [r0, #28]
 926 03c2 9181     		strh	r1, [r2, #12]	@ movhi
 927              	.L76:
 928              		.loc 1 629 0 discriminator 1
 929 03c4 1389     		ldrh	r3, [r2, #8]
 930 03c6 DB07     		lsls	r3, r3, #31
 931 03c8 FCD5     		bpl	.L76
 932              		.loc 1 631 0
 933 03ca 9089     		ldrh	r0, [r2, #12]
 934              	.LVL51:
 935              		.loc 1 632 0
 936 03cc 80B2     		uxth	r0, r0
 937 03ce 7047     		bx	lr
 938              		.cfi_endproc
 939              	.LFE141:
 940              		.size	spi_lld_polled_exchange, .-spi_lld_polled_exchange
 941              		.comm	SPID3,48,4
 942              		.comm	SPID2,48,4
 943              		.comm	SPID1,48,4
 944              		.bss
 945              		.align	1
 946              		.set	.LANCHOR0,. + 0
 947              		.type	dummytx, %object
 948              		.size	dummytx, 2
 949              	dummytx:
 950 0000 0000     		.space	2
 951              		.type	dummyrx, %object
 952              		.size	dummyrx, 2
 953              	dummyrx:
 954 0002 0000     		.space	2
 955              		.text
 956              	.Letext0:
 957              		.file 2 "/home/sbcu/Dropbox/pcb-layouts/axo-on-discovery-board/axoloti/platform_linux/lib/gcc/arm-
 958              		.file 3 "/home/sbcu/Dropbox/pcb-layouts/axo-on-discovery-board/axoloti/platform_linux/arm-none-eab
 959              		.file 4 "/home/sbcu/Dropbox/pcb-layouts/axo-on-discovery-board/axoloti/platform_linux/arm-none-eab
 960              		.file 5 "/home/sbcu/Dropbox/pcb-layouts/axo-on-discovery-board/axoloti/platform_linux/../chibios/o
 961              		.file 6 "/home/sbcu/Dropbox/pcb-layouts/axo-on-discovery-board/axoloti/platform_linux/../chibios/o
 962              		.file 7 "/home/sbcu/Dropbox/pcb-layouts/axo-on-discovery-board/axoloti/platform_linux/../chibios/o
ARM GAS  /tmp/cc0AD0H2.s 			page 18


 963              		.file 8 "/home/sbcu/Dropbox/pcb-layouts/axo-on-discovery-board/axoloti/platform_linux/../chibios/o
 964              		.file 9 "/home/sbcu/Dropbox/pcb-layouts/axo-on-discovery-board/axoloti/platform_linux/../chibios/o
 965              		.file 10 "/home/sbcu/Dropbox/pcb-layouts/axo-on-discovery-board/axoloti/platform_linux/../chibios/
 966              		.file 11 "/home/sbcu/Dropbox/pcb-layouts/axo-on-discovery-board/axoloti/platform_linux/../chibios/
 967              		.file 12 "/home/sbcu/Dropbox/pcb-layouts/axo-on-discovery-board/axoloti/platform_linux/../chibios/
 968              		.file 13 "/home/sbcu/Dropbox/pcb-layouts/axo-on-discovery-board/axoloti/platform_linux/../chibios/
 969              		.file 14 "/home/sbcu/Dropbox/pcb-layouts/axo-on-discovery-board/axoloti/platform_linux/../chibios/
 970              		.file 15 "/home/sbcu/Dropbox/pcb-layouts/axo-on-discovery-board/axoloti/platform_linux/../CMSIS//I
 971              		.file 16 "/home/sbcu/Dropbox/pcb-layouts/axo-on-discovery-board/axoloti/platform_linux/../chibios/