ARM GAS  /tmp/cck6DP7L.s 			page 1


   1              		.syntax unified
   2              		.cpu cortex-m4
   3              		.eabi_attribute 27, 1
   4              		.eabi_attribute 28, 1
   5              		.fpu fpv4-sp-d16
   6              		.eabi_attribute 20, 1
   7              		.eabi_attribute 21, 1
   8              		.eabi_attribute 23, 3
   9              		.eabi_attribute 24, 1
  10              		.eabi_attribute 25, 1
  11              		.eabi_attribute 26, 1
  12              		.eabi_attribute 30, 2
  13              		.eabi_attribute 34, 1
  14              		.eabi_attribute 18, 4
  15              		.thumb
  16              		.file	"stft.cpp"
  17              		.text
  18              	.Ltext0:
  19              		.cfi_sections	.debug_frame
  20              		.align	2
  21              		.p2align 4,,15
  22              		.global	_ZN6clouds4STFT5ResetEv
  23              		.thumb
  24              		.thumb_func
  25              		.type	_ZN6clouds4STFT5ResetEv, %function
  26              	_ZN6clouds4STFT5ResetEv:
  27              		.fnstart
  28              	.LFB604:
  29              		.file 1 "./mutable_instruments/clouds/dsp/pvoc/stft.cpp"
  30              		.loc 1 80 0
  31              		.cfi_startproc
  32              		@ args = 0, pretend = 0, frame = 0
  33              		@ frame_needed = 0, uses_anonymous_args = 0
  34              		@ link register save eliminated.
  35              	.LVL0:
  36 0000 F0B4     		push	{r4, r5, r6, r7}
  37              		.cfi_def_cfa_offset 16
  38              		.cfi_offset 4, -16
  39              		.cfi_offset 5, -12
  40              		.cfi_offset 6, -8
  41              		.cfi_offset 7, -4
  42              		.loc 1 82 0
  43 0002 0769     		ldr	r7, [r0, #16]
  44              		.loc 1 84 0
  45 0004 C36A     		ldr	r3, [r0, #44]
  46              		.loc 1 82 0
  47 0006 C568     		ldr	r5, [r0, #12]
  48              		.loc 1 84 0
  49 0008 7A00     		lsls	r2, r7, #1
  50              		.loc 1 82 0
  51 000a 6D00     		lsls	r5, r5, #1
  52              		.loc 1 84 0
  53 000c 9C18     		adds	r4, r3, r2
  54              	.LVL1:
  55              		.loc 1 81 0
  56 000e 0021     		movs	r1, #0
  57              		.loc 1 82 0
ARM GAS  /tmp/cck6DP7L.s 			page 2


  58 0010 B5FBF7F6 		udiv	r6, r5, r7
  59              	.LBB230:
  60              	.LBB231:
  61              	.LBB232:
  62              		.file 2 "/home/sbcu/Dropbox/pcb-layouts/axo-on-discovery-board/axoloti/platform_linux/arm-none-eab
  63              		.loc 2 703 0
  64 0014 A342     		cmp	r3, r4
  65              	.LBE232:
  66              	.LBE231:
  67              	.LBE230:
  68              		.loc 1 82 0
  69 0016 07FB1655 		mls	r5, r7, r6, r5
  70              		.loc 1 81 0
  71 001a 4163     		str	r1, [r0, #52]
  72              		.loc 1 82 0
  73 001c 8563     		str	r5, [r0, #56]
  74              		.loc 1 83 0
  75 001e C163     		str	r1, [r0, #60]
  76              	.LBB235:
  77              	.LBB234:
  78              	.LBB233:
  79              		.loc 2 703 0
  80 0020 03D0     		beq	.L6
  81              	.LVL2:
  82              	.L5:
  83              		.loc 2 704 0
  84 0022 23F8021B 		strh	r1, [r3], #2	@ movhi
  85              	.LVL3:
  86              		.loc 2 703 0
  87 0026 9C42     		cmp	r4, r3
  88 0028 FBD1     		bne	.L5
  89              	.L6:
  90              	.LBE233:
  91              	.LBE234:
  92              	.LBE235:
  93              		.loc 1 85 0
  94 002a 036B     		ldr	r3, [r0, #48]
  95              	.LVL4:
  96 002c 1A44     		add	r2, r2, r3
  97              	.LVL5:
  98              	.LBB236:
  99              	.LBB237:
 100              	.LBB238:
 101              		.loc 2 703 0
 102 002e 9342     		cmp	r3, r2
 103              		.loc 2 704 0
 104 0030 18BF     		it	ne
 105 0032 0021     		movne	r1, #0
 106              		.loc 2 703 0
 107 0034 03D0     		beq	.L4
 108              	.LVL6:
 109              	.L7:
 110              		.loc 2 704 0
 111 0036 23F8021B 		strh	r1, [r3], #2	@ movhi
 112              	.LVL7:
 113              		.loc 2 703 0
 114 003a 9A42     		cmp	r2, r3
ARM GAS  /tmp/cck6DP7L.s 			page 3


 115 003c FBD1     		bne	.L7
 116              	.L4:
 117              	.LBE238:
 118              	.LBE237:
 119              	.LBE236:
 120              		.loc 1 86 0
 121 003e 0023     		movs	r3, #0
 122              	.LVL8:
 123 0040 0364     		str	r3, [r0, #64]
 124              		.loc 1 87 0
 125 0042 4364     		str	r3, [r0, #68]
 126              		.loc 1 88 0
 127 0044 F0BC     		pop	{r4, r5, r6, r7}
 128              		.cfi_restore 7
 129              		.cfi_restore 6
 130              		.cfi_restore 5
 131              		.cfi_restore 4
 132              		.cfi_def_cfa_offset 0
 133              	.LVL9:
 134 0046 7047     		bx	lr
 135              		.cfi_endproc
 136              	.LFE604:
 137              		.cantunwind
 138              		.fnend
 139              		.size	_ZN6clouds4STFT5ResetEv, .-_ZN6clouds4STFT5ResetEv
 140              		.align	2
 141 0048 AFF30080 		.p2align 4,,15
 141      AFF30080 
 142              		.global	_ZN6clouds4STFT4InitEPN6stmlib6ShyFFTIfLj4096ENS1_14RotationPhasorEEEjjPfS6_PKfPsPNS_19Fra
 143              		.thumb
 144              		.thumb_func
 145              		.type	_ZN6clouds4STFT4InitEPN6stmlib6ShyFFTIfLj4096ENS1_14RotationPhasorEEEjjPfS6_PKfPsPNS_19Frame
 146              	_ZN6clouds4STFT4InitEPN6stmlib6ShyFFTIfLj4096ENS1_14RotationPhasorEEEjjPfS6_PKfPsPNS_19FrameTransfo
 147              		.fnstart
 148              	.LFB603:
 149              		.loc 1 49 0
 150              		.cfi_startproc
 151              		@ args = 20, pretend = 0, frame = 16
 152              		@ frame_needed = 0, uses_anonymous_args = 0
 153              	.LVL10:
 154 0050 2DE9F04F 		push	{r4, r5, r6, r7, r8, r9, r10, fp, lr}
 155              		.save {r4, r5, r6, r7, r8, r9, r10, fp, lr}
 156              		.cfi_def_cfa_offset 36
 157              		.cfi_offset 4, -36
 158              		.cfi_offset 5, -32
 159              		.cfi_offset 6, -28
 160              		.cfi_offset 7, -24
 161              		.cfi_offset 8, -20
 162              		.cfi_offset 9, -16
 163              		.cfi_offset 10, -12
 164              		.cfi_offset 11, -8
 165              		.cfi_offset 14, -4
 166 0054 2DED028B 		fstmfdd	sp!, {d8}
 167              		.vsave {d8}
 168              		.cfi_def_cfa_offset 44
 169              		.cfi_offset 80, -44
 170              		.cfi_offset 81, -40
ARM GAS  /tmp/cck6DP7L.s 			page 4


 171              		.pad #20
 172 0058 85B0     		sub	sp, sp, #20
 173              		.cfi_def_cfa_offset 64
 174              		.loc 1 49 0
 175 005a 1646     		mov	r6, r2
 176              	.LBB252:
 177              		.loc 1 52 0
 178 005c 0022     		movs	r2, #0
 179              	.LVL11:
 180 005e 8260     		str	r2, [r0, #8]
 181              	.LVL12:
 182              	.LBE252:
 183              		.loc 1 49 0
 184 0060 119A     		ldr	r2, [sp, #68]
 185 0062 0192     		str	r2, [sp, #4]
 186 0064 129A     		ldr	r2, [sp, #72]
 187 0066 0292     		str	r2, [sp, #8]
 188              	.LBB275:
 189              	.LBB253:
 190              		.loc 1 53 0
 191 0068 012E     		cmp	r6, #1
 192              	.LBE253:
 193              	.LBE275:
 194              		.loc 1 49 0
 195 006a 149A     		ldr	r2, [sp, #80]
 196              	.LBB276:
 197              		.loc 1 50 0
 198 006c 4660     		str	r6, [r0, #4]
 199              	.LBE276:
 200              		.loc 1 49 0
 201 006e 8246     		mov	r10, r0
 202              	.LBB277:
 203              		.loc 1 51 0
 204 0070 C360     		str	r3, [r0, #12]
 205              	.LBE277:
 206              		.loc 1 49 0
 207 0072 0C46     		mov	r4, r1
 208 0074 DDF84090 		ldr	r9, [sp, #64]
 209 0078 139F     		ldr	r7, [sp, #76]
 210 007a 0392     		str	r2, [sp, #12]
 211              	.LBB278:
 212              	.LBB254:
 213              		.loc 1 53 0
 214 007c 0AD9     		bls	.L17
 215              		.loc 1 53 0 is_stmt 0 discriminator 3
 216 007e 3246     		mov	r2, r6
 217 0080 0121     		movs	r1, #1
 218              	.LVL13:
 219 0082 00E0     		b	.L16
 220              	.LVL14:
 221              	.L18:
 222 0084 0146     		mov	r1, r0
 223              	.L16:
 224 0086 5208     		lsrs	r2, r2, #1
 225              	.LVL15:
 226 0088 012A     		cmp	r2, #1
 227 008a 01F10100 		add	r0, r1, #1
ARM GAS  /tmp/cck6DP7L.s 			page 5


 228 008e F9D1     		bne	.L18
 229 0090 CAF80810 		str	r1, [r10, #8]
 230              	.LVL16:
 231              	.L17:
 232              	.LBE254:
 233              		.loc 1 56 0 is_stmt 1
 234 0094 3344     		add	r3, r3, r6
 235              	.LVL17:
 236              	.LBB255:
 237              	.LBB256:
 238              		.file 3 "./mutable_instruments/stmlib/fft/shy_fft.h"
 239              		.loc 3 698 0
 240 0096 0022     		movs	r2, #0
 241              	.LBB257:
 242              	.LBB258:
 243              	.LBB259:
 244              	.LBB260:
 245              		.loc 3 165 0
 246 0098 DFED278A 		flds	s17, .L21
 247              	.LBE260:
 248              	.LBE259:
 249              	.LBE258:
 250              	.LBE257:
 251              	.LBE256:
 252              	.LBE255:
 253              		.loc 1 56 0
 254 009c CAF81030 		str	r3, [r10, #16]
 255              		.loc 1 58 0
 256 00a0 CAF80040 		str	r4, [r10]
 257              	.LVL18:
 258              	.LBB274:
 259              	.LBB273:
 260              	.LBB271:
 261              	.LBB269:
 262              	.LBB267:
 263              		.loc 3 163 0
 264 00a4 4FF0030B 		mov	fp, #3
 265              	.LBE267:
 266              	.LBE269:
 267              	.LBE271:
 268              		.loc 3 698 0
 269 00a8 84F85820 		strb	r2, [r4, #88]
 270              	.LVL19:
 271              	.LBB272:
 272              	.LBB270:
 273              	.LBB268:
 274              	.LBB265:
 275              		.loc 3 165 0
 276 00ac 0125     		movs	r5, #1
 277              	.LVL20:
 278              	.L15:
 279 00ae 05FA0BF3 		lsl	r3, r5, fp
 280 00b2 08EE103A 		fmsr	s16, r3	@ int
 281 00b6 B8EEC88A 		fsitos	s16, s16
 282 00ba 88EE888A 		fdivs	s16, s17, s16
 283              	.LVL21:
 284              	.LBB261:
ARM GAS  /tmp/cck6DP7L.s 			page 6


 285              	.LBB262:
 286              		.loc 3 83 0
 287 00be B0EE480A 		fcpys	s0, s16
 288 00c2 FFF7FEFF 		bl	cosf
 289              	.LVL22:
 290 00c6 ABF10302 		sub	r2, fp, #3
 291 00ca 04EBC208 		add	r8, r4, r2, lsl #3
 292              	.LBE262:
 293              	.LBE261:
 294              		.loc 3 166 0
 295 00ce 88ED000A 		fsts	s0, [r8]
 296              	.LVL23:
 297              	.LBB263:
 298              	.LBB264:
 299              		.loc 3 84 0
 300 00d2 B0EE480A 		fcpys	s0, s16
 301 00d6 FFF7FEFF 		bl	sinf
 302              	.LVL24:
 303              	.LBE264:
 304              	.LBE263:
 305              	.LBE265:
 306              		.loc 3 163 0
 307 00da 0BF1010B 		add	fp, fp, #1
 308              	.LVL25:
 309 00de BBF10C0F 		cmp	fp, #12
 310              	.LBB266:
 311              		.loc 3 167 0
 312 00e2 88ED010A 		fsts	s0, [r8, #4]
 313              	.LBE266:
 314              		.loc 3 163 0
 315 00e6 E2D1     		bne	.L15
 316              	.LBE268:
 317              	.LBE270:
 318              	.LBE272:
 319              	.LBE273:
 320              	.LBE274:
 321              		.loc 1 66 0
 322 00e8 DAF81030 		ldr	r3, [r10, #16]
 323              		.loc 1 65 0
 324 00ec CAF82C70 		str	r7, [r10, #44]
 325              		.loc 1 66 0
 326 00f0 07EB4307 		add	r7, r7, r3, lsl #1
 327              		.loc 1 69 0
 328 00f4 019B     		ldr	r3, [sp, #4]
 329 00f6 CAF81830 		str	r3, [r10, #24]
 330 00fa CAF81C30 		str	r3, [r10, #28]
 331              		.loc 1 71 0
 332 00fe 029B     		ldr	r3, [sp, #8]
 333 0100 CAF82430 		str	r3, [r10, #36]
 334              		.loc 1 73 0
 335 0104 039B     		ldr	r3, [sp, #12]
 336 0106 CAF84C30 		str	r3, [r10, #76]
 337              		.loc 1 75 0
 338 010a 0022     		movs	r2, #0
 339              		.loc 1 72 0
 340 010c 4FF48053 		mov	r3, #4096
 341              		.loc 1 77 0
ARM GAS  /tmp/cck6DP7L.s 			page 7


 342 0110 5046     		mov	r0, r10
 343              		.loc 1 72 0
 344 0112 B3FBF6F6 		udiv	r6, r3, r6
 345              	.LVL26:
 346              		.loc 1 68 0
 347 0116 CAF81490 		str	r9, [r10, #20]
 348 011a CAF82090 		str	r9, [r10, #32]
 349              		.loc 1 66 0
 350 011e CAF83070 		str	r7, [r10, #48]
 351              		.loc 1 75 0
 352 0122 CAF84820 		str	r2, [r10, #72]
 353              		.loc 1 72 0
 354 0126 CAF82860 		str	r6, [r10, #40]
 355              	.LBE278:
 356              		.loc 1 78 0
 357 012a 05B0     		add	sp, sp, #20
 358              		.cfi_def_cfa_offset 44
 359              		@ sp needed
 360 012c BDEC028B 		fldmfdd	sp!, {d8}
 361              		.cfi_restore 80
 362              		.cfi_restore 81
 363              		.cfi_def_cfa_offset 36
 364              	.LVL27:
 365 0130 BDE8F04F 		pop	{r4, r5, r6, r7, r8, r9, r10, fp, lr}
 366              		.cfi_restore 14
 367              		.cfi_restore 11
 368              		.cfi_restore 10
 369              		.cfi_restore 9
 370              		.cfi_restore 8
 371              		.cfi_restore 7
 372              		.cfi_restore 6
 373              		.cfi_restore 5
 374              		.cfi_restore 4
 375              		.cfi_def_cfa_offset 0
 376              	.LVL28:
 377              	.LBB279:
 378              		.loc 1 77 0
 379 0134 FFF7FEBF 		b	_ZN6clouds4STFT5ResetEv
 380              	.LVL29:
 381              	.L22:
 382              		.align	2
 383              	.L21:
 384 0138 DB0F4940 		.word	1078530011
 385              	.LBE279:
 386              		.cfi_endproc
 387              	.LFE603:
 388              		.fnend
 389              		.size	_ZN6clouds4STFT4InitEPN6stmlib6ShyFFTIfLj4096ENS1_14RotationPhasorEEEjjPfS6_PKfPsPNS_19Frame
 390              		.align	2
 391 013c AFF30080 		.p2align 4,,15
 392              		.global	_ZN6clouds4STFT7ProcessERKNS_10ParametersEPKfPfjj
 393              		.thumb
 394              		.thumb_func
 395              		.type	_ZN6clouds4STFT7ProcessERKNS_10ParametersEPKfPfjj, %function
 396              	_ZN6clouds4STFT7ProcessERKNS_10ParametersEPKfPfjj:
 397              		.fnstart
 398              	.LFB605:
ARM GAS  /tmp/cck6DP7L.s 			page 8


 399              		.loc 1 95 0
 400              		.cfi_startproc
 401              		@ args = 8, pretend = 0, frame = 0
 402              		@ frame_needed = 0, uses_anonymous_args = 0
 403              	.LVL30:
 404 0140 2DE9F047 		push	{r4, r5, r6, r7, r8, r9, r10, lr}
 405              		.cfi_def_cfa_offset 32
 406              		.cfi_offset 4, -32
 407              		.cfi_offset 5, -28
 408              		.cfi_offset 6, -24
 409              		.cfi_offset 7, -20
 410              		.cfi_offset 8, -16
 411              		.cfi_offset 9, -12
 412              		.cfi_offset 10, -8
 413              		.cfi_offset 14, -4
 414              		.loc 1 95 0
 415 0144 099D     		ldr	r5, [sp, #36]
 416 0146 089C     		ldr	r4, [sp, #32]
 417              	.LBB280:
 418              	.LBB281:
 419              	.LBB282:
 420              	.LBB283:
 421              		.loc 1 100 0
 422 0148 DFED2A6A 		flds	s13, .L39
 423              		.loc 1 102 0
 424 014c 9FED2A7A 		flds	s14, .L39+4
 425              	.LBE283:
 426              	.LBE282:
 427              	.LBE281:
 428              		.loc 1 96 0
 429 0150 8164     		str	r1, [r0, #72]
 430 0152 AD00     		lsls	r5, r5, #2
 431              	.LVL31:
 432              	.L24:
 433              		.loc 1 97 0
 434 0154 002C     		cmp	r4, #0
 435 0156 43D0     		beq	.L37
 436              	.L30:
 437              	.LBB297:
 438              		.loc 1 98 0
 439 0158 D0F80C80 		ldr	r8, [r0, #12]
 440 015c C76B     		ldr	r7, [r0, #60]
 441 015e C7EB0806 		rsb	r6, r7, r8
 442              	.LVL32:
 443              	.LBB289:
 444              	.LBB290:
 445              		.loc 2 199 0
 446 0162 A642     		cmp	r6, r4
 447 0164 3ED2     		bcs	.L31
 448              	.LVL33:
 449              	.LBE290:
 450              	.LBE289:
 451              	.LBB293:
 452              		.loc 1 99 0
 453 0166 002E     		cmp	r6, #0
 454 0168 40D0     		beq	.L38
 455 016a C6EB040C 		rsb	ip, r6, r4
ARM GAS  /tmp/cck6DP7L.s 			page 9


 456              	.LVL34:
 457              	.L25:
 458 016e 00F12C01 		add	r1, r0, #44
 459 0172 91E81240 		ldmia	r1, {r1, r4, lr}
 460              	.LVL35:
 461 0176 4FEA4E0A 		lsl	r10, lr, #1
 462 017a 01EB0A09 		add	r9, r1, r10
 463 017e A244     		add	r10, r10, r4
 464              	.LBE293:
 465              	.LBB294:
 466              	.LBB291:
 467              		.loc 2 199 0 discriminator 3
 468 0180 0024     		movs	r4, #0
 469              	.LVL36:
 470              	.L27:
 471              	.LBE291:
 472              	.LBE294:
 473              	.LBB295:
 474              	.LBB286:
 475              		.loc 1 100 0 discriminator 3
 476 0182 D2ED007A 		flds	s15, [r2]
 477 0186 67EEA67A 		fmuls	s15, s15, s13
 478              	.LBE286:
 479              		.loc 1 99 0 discriminator 3
 480 018a 0134     		adds	r4, r4, #1
 481              	.LVL37:
 482              	.LBB287:
 483              		.loc 1 100 0 discriminator 3
 484 018c FDEEE77A 		ftosizs	s15, s15
 485              	.LBE287:
 486              		.loc 1 99 0 discriminator 3
 487 0190 A642     		cmp	r6, r4
 488              	.LBB288:
 489              		.loc 1 100 0 discriminator 3
 490 0192 17EE901A 		fmrs	r1, s15	@ int
 491              	.LBB284:
 492              	.LBB285:
 493              		.file 4 "./mutable_instruments/stmlib/dsp/dsp.h"
 494              		.loc 4 133 0 discriminator 3
 495              	@ 133 "./mutable_instruments/stmlib/dsp/dsp.h" 1
 496 0196 01F30F01 		ssat r1, #16, r1
 497              	@ 0 "" 2
 498              	.LVL38:
 499              		.thumb
 500              	.LBE285:
 501              	.LBE284:
 502              		.loc 1 101 0 discriminator 3
 503 019a 29F8021B 		strh	r1, [r9], #2	@ movhi
 504              	.LVL39:
 505              		.loc 1 102 0 discriminator 3
 506 019e 3AF9021B 		ldrsh	r1, [r10], #2
 507              	.LVL40:
 508 01a2 07EE901A 		fmsr	s15, r1	@ int
 509 01a6 F8EEE77A 		fsitos	s15, s15
 510              		.loc 1 103 0 discriminator 3
 511 01aa 2A44     		add	r2, r2, r5
 512              	.LVL41:
ARM GAS  /tmp/cck6DP7L.s 			page 10


 513              		.loc 1 102 0 discriminator 3
 514 01ac 67EE877A 		fmuls	s15, s15, s14
 515 01b0 C3ED007A 		fsts	s15, [r3]
 516              		.loc 1 104 0 discriminator 3
 517 01b4 2B44     		add	r3, r3, r5
 518              	.LVL42:
 519              	.LBE288:
 520              		.loc 1 99 0 discriminator 3
 521 01b6 E4D8     		bhi	.L27
 522 01b8 6446     		mov	r4, ip
 523              	.LVL43:
 524              	.L26:
 525              	.LBE295:
 526              		.loc 1 110 0
 527 01ba 0169     		ldr	r1, [r0, #16]
 528              		.loc 1 107 0
 529 01bc 3744     		add	r7, r7, r6
 530              		.loc 1 109 0
 531 01be 7644     		add	r6, r6, lr
 532              		.loc 1 110 0
 533 01c0 8E42     		cmp	r6, r1
 534              		.loc 1 109 0
 535 01c2 4663     		str	r6, [r0, #52]
 536              		.loc 1 111 0
 537 01c4 24BF     		itt	cs
 538 01c6 761A     		subcs	r6, r6, r1
 539 01c8 4663     		strcs	r6, [r0, #52]
 540              		.loc 1 113 0
 541 01ca B845     		cmp	r8, r7
 542              		.loc 1 107 0
 543 01cc C763     		str	r7, [r0, #60]
 544              	.LVL44:
 545              		.loc 1 113 0
 546 01ce C1D8     		bhi	.L24
 547              		.loc 1 115 0
 548 01d0 016C     		ldr	r1, [r0, #64]
 549              		.loc 1 114 0
 550 01d2 C8EB0707 		rsb	r7, r8, r7
 551              		.loc 1 115 0
 552 01d6 0131     		adds	r1, r1, #1
 553              		.loc 1 114 0
 554 01d8 C763     		str	r7, [r0, #60]
 555              		.loc 1 115 0
 556 01da 0164     		str	r1, [r0, #64]
 557              	.LBE297:
 558              		.loc 1 97 0
 559 01dc 002C     		cmp	r4, #0
 560 01de BBD1     		bne	.L30
 561              	.LVL45:
 562              	.L37:
 563              	.LBE280:
 564              		.loc 1 118 0
 565 01e0 BDE8F087 		pop	{r4, r5, r6, r7, r8, r9, r10, pc}
 566              	.LVL46:
 567              	.L31:
 568              	.LBB299:
 569              	.LBB298:
ARM GAS  /tmp/cck6DP7L.s 			page 11


 570              	.LBB296:
 571              	.LBB292:
 572              		.loc 2 199 0
 573 01e4 2646     		mov	r6, r4
 574 01e6 4FF0000C 		mov	ip, #0
 575 01ea C0E7     		b	.L25
 576              	.LVL47:
 577              	.L38:
 578 01ec D0F834E0 		ldr	lr, [r0, #52]
 579 01f0 E3E7     		b	.L26
 580              	.L40:
 581 01f2 00BF     		.align	2
 582              	.L39:
 583 01f4 00000047 		.word	1191182336
 584 01f8 00008038 		.word	947912704
 585              	.LBE292:
 586              	.LBE296:
 587              	.LBE298:
 588              	.LBE299:
 589              		.cfi_endproc
 590              	.LFE605:
 591              		.cantunwind
 592              		.fnend
 593              		.size	_ZN6clouds4STFT7ProcessERKNS_10ParametersEPKfPfjj, .-_ZN6clouds4STFT7ProcessERKNS_10Paramete
 594              		.align	2
 595 01fc AFF30080 		.p2align 4,,15
 596              		.global	_ZN6clouds4STFT6BufferEv
 597              		.thumb
 598              		.thumb_func
 599              		.type	_ZN6clouds4STFT6BufferEv, %function
 600              	_ZN6clouds4STFT6BufferEv:
 601              		.fnstart
 602              	.LFB606:
 603              		.loc 1 120 0
 604              		.cfi_startproc
 605              		@ args = 0, pretend = 0, frame = 80
 606              		@ frame_needed = 0, uses_anonymous_args = 0
 607              	.LVL48:
 608              	.LBB414:
 609              		.loc 1 121 0
 610 0200 026C     		ldr	r2, [r0, #64]
 611 0202 436C     		ldr	r3, [r0, #68]
 612 0204 9A42     		cmp	r2, r3
 613 0206 00F09986 		beq	.L143
 614              	.LBE414:
 615              		.loc 1 120 0
 616 020a 2DE9F04F 		push	{r4, r5, r6, r7, r8, r9, r10, fp, lr}
 617              		.save {r4, r5, r6, r7, r8, r9, r10, fp, lr}
 618              		.cfi_def_cfa_offset 36
 619              		.cfi_offset 4, -36
 620              		.cfi_offset 5, -32
 621              		.cfi_offset 6, -28
 622              		.cfi_offset 7, -24
 623              		.cfi_offset 8, -20
 624              		.cfi_offset 9, -16
 625              		.cfi_offset 10, -12
 626              		.cfi_offset 11, -8
ARM GAS  /tmp/cck6DP7L.s 			page 12


 627              		.cfi_offset 14, -4
 628              	.LBB639:
 629              	.LBB415:
 630              		.loc 1 128 0
 631 020e D0F804E0 		ldr	lr, [r0, #4]
 632              	.LBE415:
 633              		.loc 1 126 0
 634 0212 836B     		ldr	r3, [r0, #56]
 635              	.LVL49:
 636              	.LBE639:
 637              		.loc 1 120 0
 638              		.pad #84
 639 0214 95B0     		sub	sp, sp, #84
 640              		.cfi_def_cfa_offset 120
 641 0216 0246     		mov	r2, r0
 642 0218 1090     		str	r0, [sp, #64]
 643              	.LBB640:
 644              		.loc 1 127 0
 645 021a 406A     		ldr	r0, [r0, #36]
 646              	.LVL50:
 647              	.LBB416:
 648              		.loc 1 128 0
 649 021c BEF1000F 		cmp	lr, #0
 650 0220 00F0BE86 		beq	.L145
 651 0224 1099     		ldr	r1, [sp, #64]
 652 0226 4A69     		ldr	r2, [r1, #20]
 653              	.LVL51:
 654 0228 8D6A     		ldr	r5, [r1, #40]
 655 022a 0A92     		str	r2, [sp, #40]
 656 022c 1646     		mov	r6, r2
 657 022e CF6A     		ldr	r7, [r1, #44]
 658 0230 0C69     		ldr	r4, [r1, #16]
 659 0232 3246     		mov	r2, r6
 660 0234 3146     		mov	r1, r6
 661              	.LVL52:
 662 0236 AD00     		lsls	r5, r5, #2
 663 0238 06EB8E06 		add	r6, r6, lr, lsl #2
 664              	.LVL53:
 665              	.L47:
 666              		.loc 1 129 0
 667 023c 37F913C0 		ldrsh	ip, [r7, r3, lsl #1]
 668 0240 90ED007A 		flds	s14, [r0]
 669 0244 07EE90CA 		fmsr	s15, ip	@ int
 670 0248 F8EEE77A 		fsitos	s15, s15
 671              		.loc 1 130 0
 672 024c 0133     		adds	r3, r3, #1
 673              	.LVL54:
 674              		.loc 1 129 0
 675 024e 67EE277A 		fmuls	s15, s14, s15
 676              		.loc 1 131 0
 677 0252 A342     		cmp	r3, r4
 678              		.loc 1 129 0
 679 0254 E2EC017A 		fstmias	r2!, {s15}
 680              		.loc 1 132 0
 681 0258 28BF     		it	cs
 682 025a 1B1B     		subcs	r3, r3, r4
 683              	.LVL55:
ARM GAS  /tmp/cck6DP7L.s 			page 13


 684              		.loc 1 128 0
 685 025c B242     		cmp	r2, r6
 686              		.loc 1 134 0
 687 025e 2844     		add	r0, r0, r5
 688              	.LVL56:
 689              		.loc 1 128 0
 690 0260 ECD1     		bne	.L47
 691              	.LBE416:
 692              		.loc 1 147 0
 693 0262 BEF5805F 		cmp	lr, #4096
 694 0266 00F01185 		beq	.L48
 695              	.LBB417:
 696              		.loc 1 129 0
 697 026a 0A9B     		ldr	r3, [sp, #40]
 698              	.LVL57:
 699 026c 0C93     		str	r3, [sp, #48]
 700              	.L45:
 701              	.LBE417:
 702              		.loc 1 148 0
 703 026e 109A     		ldr	r2, [sp, #64]
 704 0270 9368     		ldr	r3, [r2, #8]
 705 0272 0E93     		str	r3, [sp, #56]
 706 0274 1946     		mov	r1, r3
 707 0276 9369     		ldr	r3, [r2, #24]
 708 0278 0F93     		str	r3, [sp, #60]
 709              	.LBB418:
 710              	.LBB419:
 711              	.LBB420:
 712              	.LBB421:
 713              		.loc 3 325 0
 714 027a 0123     		movs	r3, #1
 715              	.LBB422:
 716              		.loc 3 328 0
 717 027c 8B40     		lsls	r3, r3, r1
 718              	.LBE422:
 719              	.LBE421:
 720              	.LBE420:
 721              	.LBE419:
 722              	.LBE418:
 723              		.loc 1 148 0
 724 027e D2F800A0 		ldr	r10, [r2]
 725              	.LVL58:
 726              	.LBB468:
 727              	.LBB465:
 728              	.LBB462:
 729              	.LBB459:
 730              	.LBB426:
 731              		.loc 3 328 0
 732 0282 0493     		str	r3, [sp, #16]
 733 0284 00F09480 		beq	.L54
 734 0288 0E9A     		ldr	r2, [sp, #56]
 735              	.LVL59:
 736 028a 049D     		ldr	r5, [sp, #16]
 737 028c B34B     		ldr	r3, .L155
 738 028e 0C99     		ldr	r1, [sp, #48]
 739              	.LVL60:
 740 0290 C2F1100E 		rsb	lr, r2, #16
ARM GAS  /tmp/cck6DP7L.s 			page 14


 741 0294 0F9A     		ldr	r2, [sp, #60]
 742              	.LVL61:
 743 0296 AF08     		lsrs	r7, r5, #2
 744 0298 4FEA470C 		lsl	ip, r7, #1
 745 029c 02F11000 		add	r0, r2, #16
 746              	.LVL62:
 747 02a0 0024     		movs	r4, #0
 748              	.LVL63:
 749              	.L52:
 750              	.LBB423:
 751              		.loc 3 331 0
 752 02a2 E6B2     		uxtb	r6, r4
 753 02a4 220A     		lsrs	r2, r4, #8
 754 02a6 9E5D     		ldrb	r6, [r3, r6]	@ zero_extendqisi2
 755 02a8 9A5C     		ldrb	r2, [r3, r2]	@ zero_extendqisi2
 756 02aa 42EA0622 		orr	r2, r2, r6, lsl #8
 757 02ae 42FA0EF2 		asr	r2, r2, lr
 758              	.LVL64:
 759              		.loc 3 332 0
 760 02b2 02EB0C09 		add	r9, r2, ip
 761              	.LVL65:
 762              		.loc 3 336 0
 763 02b6 01EB8906 		add	r6, r1, r9, lsl #2
 764 02ba 01EB8208 		add	r8, r1, r2, lsl #2
 765 02be 98ED007A 		flds	s14, [r8]
 766 02c2 D6ED007A 		flds	s15, [r6]
 767 02c6 77EE677A 		fsubs	s15, s14, s15
 768              		.loc 3 334 0
 769 02ca B944     		add	r9, r9, r7
 770              	.LVL66:
 771              		.loc 3 333 0
 772 02cc 3A44     		add	r2, r2, r7
 773              	.LVL67:
 774              		.loc 3 336 0
 775 02ce 40ED037A 		fsts	s15, [r0, #-12]
 776              	.LVL68:
 777              		.loc 3 337 0
 778 02d2 01EB8909 		add	r9, r1, r9, lsl #2
 779              	.LVL69:
 780 02d6 01EB8202 		add	r2, r1, r2, lsl #2
 781              	.LVL70:
 782 02da 92ED007A 		flds	s14, [r2]
 783 02de D9ED007A 		flds	s15, [r9]
 784 02e2 77EE677A 		fsubs	s15, s14, s15
 785              	.LBE423:
 786              		.loc 3 328 0
 787 02e6 0434     		adds	r4, r4, #4
 788              	.LVL71:
 789              	.LBB424:
 790              		.loc 3 337 0
 791 02e8 40ED017A 		fsts	s15, [r0, #-4]
 792              		.loc 3 339 0
 793 02ec D2ED006A 		flds	s13, [r2]
 794              		.loc 3 338 0
 795 02f0 98ED006A 		flds	s12, [r8]
 796 02f4 96ED007A 		flds	s14, [r6]
 797              		.loc 3 339 0
ARM GAS  /tmp/cck6DP7L.s 			page 15


 798 02f8 D9ED007A 		flds	s15, [r9]
 799              		.loc 3 338 0
 800 02fc 36EE077A 		fadds	s14, s12, s14
 801              	.LVL72:
 802              		.loc 3 339 0
 803 0300 76EEA77A 		fadds	s15, s13, s15
 804              	.LVL73:
 805              	.LBE424:
 806              		.loc 3 328 0
 807 0304 A542     		cmp	r5, r4
 808              	.LBB425:
 809              		.loc 3 340 0
 810 0306 77EE276A 		fadds	s13, s14, s15
 811              		.loc 3 341 0
 812 030a 77EE677A 		fsubs	s15, s14, s15
 813              	.LVL74:
 814              		.loc 3 340 0
 815 030e 40ED046A 		fsts	s13, [r0, #-16]
 816              	.LVL75:
 817              		.loc 3 341 0
 818 0312 40ED027A 		fsts	s15, [r0, #-8]
 819              	.LVL76:
 820 0316 00F11000 		add	r0, r0, #16
 821              	.LVL77:
 822              	.LBE425:
 823              		.loc 3 328 0
 824 031a C2D8     		bhi	.L52
 825              	.LVL78:
 826 031c 0F9B     		ldr	r3, [sp, #60]
 827              	.LBE426:
 828              	.LBB427:
 829              	.LBB428:
 830              		.loc 3 357 0
 831 031e DFED906A 		flds	s13, .L155+4
 832 0322 0C9A     		ldr	r2, [sp, #48]
 833              	.LBE428:
 834              	.LBE427:
 835              	.LBB432:
 836              		.loc 3 328 0
 837 0324 049C     		ldr	r4, [sp, #16]
 838              	.LVL79:
 839 0326 0833     		adds	r3, r3, #8
 840 0328 0021     		movs	r1, #0
 841              	.LVL80:
 842              	.L53:
 843              	.LBE432:
 844              	.LBB433:
 845              	.LBB429:
 846              		.loc 3 351 0
 847 032a 13ED027A 		flds	s14, [r3, #-8]
 848 032e D3ED027A 		flds	s15, [r3, #8]
 849 0332 77EE277A 		fadds	s15, s14, s15
 850              	.LBE429:
 851              		.loc 3 348 0
 852 0336 0831     		adds	r1, r1, #8
 853              	.LVL81:
 854              	.LBB430:
ARM GAS  /tmp/cck6DP7L.s 			page 16


 855              		.loc 3 351 0
 856 0338 C2ED007A 		fsts	s15, [r2]
 857              		.loc 3 352 0
 858 033c 13ED027A 		flds	s14, [r3, #-8]
 859 0340 D3ED027A 		flds	s15, [r3, #8]
 860 0344 77EE677A 		fsubs	s15, s14, s15
 861              	.LBE430:
 862              		.loc 3 348 0
 863 0348 8C42     		cmp	r4, r1
 864              	.LBB431:
 865              		.loc 3 352 0
 866 034a C2ED047A 		fsts	s15, [r2, #16]
 867              		.loc 3 353 0
 868 034e 1868     		ldr	r0, [r3]	@ float
 869 0350 9060     		str	r0, [r2, #8]	@ float
 870              		.loc 3 354 0
 871 0352 1869     		ldr	r0, [r3, #16]	@ float
 872 0354 9061     		str	r0, [r2, #24]	@ float
 873              		.loc 3 356 0
 874 0356 93ED037A 		flds	s14, [r3, #12]
 875 035a D3ED057A 		flds	s15, [r3, #20]
 876              		.loc 3 357 0
 877 035e 13ED016A 		flds	s12, [r3, #-4]
 878              		.loc 3 356 0
 879 0362 77EE677A 		fsubs	s15, s14, s15
 880              	.LVL82:
 881              		.loc 3 357 0
 882 0366 B0EE467A 		fcpys	s14, s12
 883 036a A7EEA67A 		vfma.f32	s14, s15, s13
 884 036e 03F12003 		add	r3, r3, #32
 885 0372 02F12002 		add	r2, r2, #32
 886 0376 02ED077A 		fsts	s14, [r2, #-28]
 887              		.loc 3 358 0
 888 037a 13ED097A 		flds	s14, [r3, #-36]
 889 037e A7EEE67A 		vfms.f32	s14, s15, s13
 890 0382 02ED057A 		fsts	s14, [r2, #-20]
 891              		.loc 3 360 0
 892 0386 13ED057A 		flds	s14, [r3, #-20]
 893 038a 53ED037A 		flds	s15, [r3, #-12]
 894              	.LVL83:
 895              		.loc 3 361 0
 896 038e 13ED076A 		flds	s12, [r3, #-28]
 897              		.loc 3 360 0
 898 0392 77EE277A 		fadds	s15, s14, s15
 899              	.LVL84:
 900              		.loc 3 361 0
 901 0396 B0EE467A 		fcpys	s14, s12
 902 039a A7EEA67A 		vfma.f32	s14, s15, s13
 903 039e 02ED037A 		fsts	s14, [r2, #-12]
 904 03a2 13ED077A 		flds	s14, [r3, #-28]
 905              		.loc 3 362 0
 906 03a6 97EEA67A 		vfnms.f32	s14, s15, s13
 907 03aa 02ED017A 		fsts	s14, [r2, #-4]
 908              	.LBE431:
 909              		.loc 3 348 0
 910 03ae BCD8     		bhi	.L53
 911              	.LVL85:
ARM GAS  /tmp/cck6DP7L.s 			page 17


 912              	.L54:
 913              	.LBE433:
 914              	.LBB434:
 915              		.loc 3 366 0
 916 03b0 0E9B     		ldr	r3, [sp, #56]
 917 03b2 032B     		cmp	r3, #3
 918 03b4 40F2D680 		bls	.L146
 919              	.LBE434:
 920              	.LBE459:
 921              	.LBE462:
 922              	.LBE465:
 923              	.LBE468:
 924              		.loc 1 148 0
 925 03b8 0F9B     		ldr	r3, [sp, #60]
 926 03ba 0D93     		str	r3, [sp, #52]
 927              	.LBB469:
 928              	.LBB466:
 929              	.LBB463:
 930              	.LBB460:
 931              	.LBB446:
 932              		.loc 3 366 0
 933 03bc 0323     		movs	r3, #3
 934 03be 0B93     		str	r3, [sp, #44]
 935              	.LVL86:
 936              	.L56:
 937              	.LBB435:
 938              		.loc 3 374 0
 939 03c0 0B9B     		ldr	r3, [sp, #44]
 940 03c2 0122     		movs	r2, #1
 941 03c4 02FA03F3 		lsl	r3, r2, r3
 942              	.LVL87:
 943              		.loc 3 375 0
 944 03c8 23FA02FC 		lsr	ip, r3, r2
 945              	.LVL88:
 946              	.LBB436:
 947              		.loc 3 377 0
 948 03cc 049A     		ldr	r2, [sp, #16]
 949 03ce 002A     		cmp	r2, #0
 950 03d0 00F0B980 		beq	.L59
 951 03d4 4FEA8C02 		lsl	r2, ip, #2
 952 03d8 1446     		mov	r4, r2
 953 03da 111D     		adds	r1, r2, #4
 954 03dc 0692     		str	r2, [sp, #24]
 955 03de 0B9A     		ldr	r2, [sp, #44]
 956 03e0 0C9D     		ldr	r5, [sp, #48]
 957 03e2 0D9E     		ldr	r6, [sp, #52]
 958 03e4 033A     		subs	r2, r2, #3
 959 03e6 0AEBC202 		add	r2, r10, r2, lsl #3
 960 03ea 9800     		lsls	r0, r3, #2
 961 03ec 0892     		str	r2, [sp, #32]
 962 03ee 5A00     		lsls	r2, r3, #1
 963 03f0 DB00     		lsls	r3, r3, #3
 964              	.LVL89:
 965 03f2 6918     		adds	r1, r5, r1
 966 03f4 0593     		str	r3, [sp, #20]
 967 03f6 331D     		adds	r3, r6, #4
 968 03f8 00F10408 		add	r8, r0, #4
ARM GAS  /tmp/cck6DP7L.s 			page 18


 969 03fc 0291     		str	r1, [sp, #8]
 970 03fe 0438     		subs	r0, r0, #4
 971 0400 211F     		subs	r1, r4, #4
 972 0402 0193     		str	r3, [sp, #4]
 973 0404 0023     		movs	r3, #0
 974 0406 05EB0809 		add	r9, r5, r8
 975 040a 0A90     		str	r0, [sp, #40]
 976 040c B044     		add	r8, r8, r6
 977 040e 0991     		str	r1, [sp, #36]
 978 0410 0792     		str	r2, [sp, #28]
 979 0412 05F1040B 		add	fp, r5, #4
 980 0416 0393     		str	r3, [sp, #12]
 981              	.LVL90:
 982              	.L58:
 983              	.LBB437:
 984              		.loc 3 383 0
 985 0418 1BED017A 		flds	s14, [fp, #-4]
 986 041c 59ED017A 		flds	s15, [r9, #-4]
 987 0420 0199     		ldr	r1, [sp, #4]
 988 0422 0698     		ldr	r0, [sp, #24]
 989 0424 77EE277A 		fadds	s15, s14, s15
 990 0428 0A46     		mov	r2, r1
 991 042a 41ED017A 		fsts	s15, [r1, #-4]
 992              		.loc 3 384 0
 993 042e 1BED017A 		flds	s14, [fp, #-4]
 994 0432 59ED017A 		flds	s15, [r9, #-4]
 995              		.loc 3 385 0
 996 0436 0299     		ldr	r1, [sp, #8]
 997              		.loc 3 384 0
 998 0438 77EE677A 		fsubs	s15, s14, s15
 999 043c 0244     		add	r2, r2, r0
 1000 043e 48ED017A 		fsts	s15, [r8, #-4]
 1001              		.loc 3 385 0
 1002 0442 51F8041C 		ldr	r1, [r1, #-4]	@ float
 1003 0446 42F8041C 		str	r1, [r2, #-4]	@ float
 1004 044a 09EB0003 		add	r3, r9, r0
 1005              	.LBB438:
 1006              		.loc 3 390 0
 1007 044e BCF1010F 		cmp	ip, #1
 1008              	.LBE438:
 1009              		.loc 3 386 0
 1010 0452 53F8042C 		ldr	r2, [r3, #-4]	@ float
 1011 0456 08EB0003 		add	r3, r8, r0
 1012 045a 43F8042C 		str	r2, [r3, #-4]	@ float
 1013              	.LVL91:
 1014              	.LBB443:
 1015              	.LBB444:
 1016              		.loc 3 173 0
 1017 045e 089A     		ldr	r2, [sp, #32]
 1018 0460 D2ED007A 		flds	s15, [r2]
 1019 0464 CAED147A 		fsts	s15, [r10, #80]
 1020 0468 CAED127A 		fsts	s15, [r10, #72]
 1021              		.loc 3 174 0
 1022 046c 92ED016A 		flds	s12, [r2, #4]
 1023 0470 8AED156A 		fsts	s12, [r10, #84]
 1024 0474 8AED136A 		fsts	s12, [r10, #76]
 1025              	.LVL92:
ARM GAS  /tmp/cck6DP7L.s 			page 19


 1026              	.LBE444:
 1027              	.LBE443:
 1028              	.LBB445:
 1029              		.loc 3 390 0
 1030 0478 4DD9     		bls	.L61
 1031 047a 099B     		ldr	r3, [sp, #36]
 1032 047c 0298     		ldr	r0, [sp, #8]
 1033              	.LVL93:
 1034 047e 019D     		ldr	r5, [sp, #4]
 1035 0480 03EB0904 		add	r4, r3, r9
 1036 0484 0A9B     		ldr	r3, [sp, #40]
 1037 0486 A8F1040E 		sub	lr, r8, #4
 1038 048a 03EB0807 		add	r7, r3, r8
 1039 048e 4646     		mov	r6, r8
 1040 0490 5946     		mov	r1, fp
 1041 0492 4A46     		mov	r2, r9
 1042 0494 0123     		movs	r3, #1
 1043              	.LVL94:
 1044              	.L60:
 1045              	.LBB439:
 1046              		.loc 3 395 0
 1047 0496 94ED017A 		flds	s14, [r4, #4]
 1048 049a D2ED005A 		flds	s11, [r2]
 1049              		.loc 3 396 0
 1050 049e D1ED006A 		flds	s13, [r1]
 1051 04a2 27EE467A 		fnmuls	s14, s14, s12
 1052              		.loc 3 399 0
 1053 04a6 0434     		adds	r4, r4, #4
 1054              		.loc 3 395 0
 1055 04a8 A5EEA77A 		vfma.f32	s14, s11, s15
 1056              	.LVL95:
 1057              	.LBE439:
 1058              		.loc 3 390 0
 1059 04ac 0133     		adds	r3, r3, #1
 1060              	.LVL96:
 1061 04ae 6345     		cmp	r3, ip
 1062              	.LBB442:
 1063              		.loc 3 396 0
 1064 04b0 77EE266A 		fadds	s13, s14, s13
 1065 04b4 E5EC016A 		fstmias	r5!, {s13}
 1066              		.loc 3 397 0
 1067 04b8 F1EC016A 		fldmias	r1!, {s13}
 1068 04bc 36EEC77A 		fsubs	s14, s13, s14
 1069              	.LVL97:
 1070 04c0 2EED017A 		fstmdbs	lr!, {s14}
 1071              		.loc 3 399 0
 1072 04c4 94ED007A 		flds	s14, [r4]
 1073 04c8 F2EC015A 		fldmias	r2!, {s11}
 1074              		.loc 3 400 0
 1075 04cc D0ED006A 		flds	s13, [r0]
 1076              		.loc 3 399 0
 1077 04d0 67EE877A 		fmuls	s15, s15, s14
 1078 04d4 E5EE867A 		vfma.f32	s15, s11, s12
 1079              	.LVL98:
 1080              		.loc 3 400 0
 1081 04d8 37EEA67A 		fadds	s14, s15, s13
 1082 04dc A6EC017A 		fstmias	r6!, {s14}
ARM GAS  /tmp/cck6DP7L.s 			page 20


 1083              		.loc 3 401 0
 1084 04e0 B0EC017A 		fldmias	r0!, {s14}
 1085 04e4 77EEC77A 		fsubs	s15, s15, s14
 1086              	.LVL99:
 1087 04e8 67ED017A 		fstmdbs	r7!, {s15}
 1088              	.LVL100:
 1089              	.LBB440:
 1090              	.LBB441:
 1091              		.loc 3 178 0
 1092 04ec DAED137A 		flds	s15, [r10, #76]
 1093 04f0 9AED147A 		flds	s14, [r10, #80]
 1094 04f4 DAED155A 		flds	s11, [r10, #84]
 1095 04f8 DAED126A 		flds	s13, [r10, #72]
 1096              		.loc 3 179 0
 1097 04fc 27EE276A 		fmuls	s12, s14, s15
 1098 0500 65EEE77A 		fnmuls	s15, s11, s15
 1099 0504 A6EEA56A 		vfma.f32	s12, s13, s11
 1100              		.loc 3 178 0
 1101 0508 E6EE877A 		vfma.f32	s15, s13, s14
 1102              	.LVL101:
 1103              		.loc 3 179 0
 1104 050c 8AED136A 		fsts	s12, [r10, #76]
 1105              		.loc 3 180 0
 1106 0510 CAED127A 		fsts	s15, [r10, #72]
 1107              	.LBE441:
 1108              	.LBE440:
 1109              	.LBE442:
 1110              		.loc 3 390 0
 1111 0514 BFD1     		bne	.L60
 1112              	.LVL102:
 1113              	.L61:
 1114              	.LBE445:
 1115              	.LBE437:
 1116              		.loc 3 377 0
 1117 0516 039B     		ldr	r3, [sp, #12]
 1118 0518 079A     		ldr	r2, [sp, #28]
 1119 051a 1344     		add	r3, r3, r2
 1120 051c 059A     		ldr	r2, [sp, #20]
 1121 051e 0393     		str	r3, [sp, #12]
 1122              	.LVL103:
 1123 0520 1846     		mov	r0, r3
 1124              	.LVL104:
 1125 0522 9144     		add	r9, r9, r2
 1126 0524 1346     		mov	r3, r2
 1127 0526 9344     		add	fp, fp, r2
 1128              	.LVL105:
 1129 0528 019A     		ldr	r2, [sp, #4]
 1130 052a 1446     		mov	r4, r2
 1131 052c 1C44     		add	r4, r4, r3
 1132 052e 1A46     		mov	r2, r3
 1133 0530 029B     		ldr	r3, [sp, #8]
 1134 0532 0194     		str	r4, [sp, #4]
 1135 0534 1C46     		mov	r4, r3
 1136 0536 049B     		ldr	r3, [sp, #16]
 1137 0538 1444     		add	r4, r4, r2
 1138 053a 9044     		add	r8, r8, r2
 1139 053c 1A46     		mov	r2, r3
ARM GAS  /tmp/cck6DP7L.s 			page 21


 1140 053e 8242     		cmp	r2, r0
 1141 0540 0294     		str	r4, [sp, #8]
 1142 0542 3FF669AF 		bhi	.L58
 1143              	.LVL106:
 1144              	.L59:
 1145              	.LBE436:
 1146              	.LBE435:
 1147              		.loc 3 366 0
 1148 0546 0B9B     		ldr	r3, [sp, #44]
 1149 0548 0E9A     		ldr	r2, [sp, #56]
 1150 054a 0133     		adds	r3, r3, #1
 1151 054c 9342     		cmp	r3, r2
 1152 054e 0B93     		str	r3, [sp, #44]
 1153              	.LVL107:
 1154 0550 0AD0     		beq	.L51
 1155 0552 0C9B     		ldr	r3, [sp, #48]
 1156              	.LVL108:
 1157 0554 0D9A     		ldr	r2, [sp, #52]
 1158 0556 0C92     		str	r2, [sp, #48]
 1159              	.LVL109:
 1160 0558 0D93     		str	r3, [sp, #52]
 1161              	.LVL110:
 1162 055a 31E7     		b	.L56
 1163              	.L156:
 1164              		.align	2
 1165              	.L155:
 1166 055c 00000000 		.word	_ZN6stmlib6ShyFFTIfLj4096ENS_14RotationPhasorEE16bit_rev_256_lut_E
 1167 0560 F304353F 		.word	1060439283
 1168              	.LVL111:
 1169              	.L146:
 1170 0564 0C9B     		ldr	r3, [sp, #48]
 1171 0566 0D93     		str	r3, [sp, #52]
 1172              	.LVL112:
 1173              	.L51:
 1174              	.LBE446:
 1175              		.loc 3 408 0
 1176 0568 0F9B     		ldr	r3, [sp, #60]
 1177 056a 0D9A     		ldr	r2, [sp, #52]
 1178 056c 9342     		cmp	r3, r2
 1179 056e 03D0     		beq	.L103
 1180              	.LVL113:
 1181              	.LBB447:
 1182              	.LBB448:
 1183              	.LBB449:
 1184              	.LBB450:
 1185              	.LBB451:
 1186              	.LBB452:
 1187              		.loc 2 377 0
 1188 0570 049B     		ldr	r3, [sp, #16]
 1189              	.LVL114:
 1190 0572 9A00     		lsls	r2, r3, #2
 1191              	.LVL115:
 1192 0574 40F00482 		bne	.L147
 1193              	.LVL116:
 1194              	.L103:
 1195 0578 0F9B     		ldr	r3, [sp, #60]
 1196              	.LVL117:
ARM GAS  /tmp/cck6DP7L.s 			page 22


 1197              	.L62:
 1198              	.LBE452:
 1199              	.LBE451:
 1200              	.LBE450:
 1201              	.LBE449:
 1202              	.LBE448:
 1203              	.LBE447:
 1204              	.LBE460:
 1205              	.LBE463:
 1206              	.LBE466:
 1207              	.LBE469:
 1208              		.loc 1 154 0
 1209 057a 109C     		ldr	r4, [sp, #64]
 1210 057c E06C     		ldr	r0, [r4, #76]
 1211 057e 0028     		cmp	r0, #0
 1212 0580 00F00982 		beq	.L68
 1213              	.L150:
 1214              		.loc 1 154 0 is_stmt 0 discriminator 1
 1215 0584 A16C     		ldr	r1, [r4, #72]
 1216 0586 0029     		cmp	r1, #0
 1217 0588 00F00582 		beq	.L68
 1218              		.loc 1 155 0 is_stmt 1
 1219 058c 1A46     		mov	r2, r3
 1220 058e 236A     		ldr	r3, [r4, #32]
 1221 0590 FFF7FEFF 		bl	_ZN6clouds19FrameTransformation7ProcessERKNS_10ParametersEPfS4_
 1222              	.LVL118:
 1223 0594 6368     		ldr	r3, [r4, #4]
 1224 0596 1293     		str	r3, [sp, #72]
 1225 0598 236A     		ldr	r3, [r4, #32]
 1226 059a 0F93     		str	r3, [sp, #60]
 1227              	.L69:
 1228              		.loc 1 170 0
 1229 059c 129B     		ldr	r3, [sp, #72]
 1230 059e B3F5805F 		cmp	r3, #4096
 1231 05a2 00F00582 		beq	.L70
 1232              	.L152:
 1233              		.loc 1 171 0
 1234 05a6 1099     		ldr	r1, [sp, #64]
 1235 05a8 8B68     		ldr	r3, [r1, #8]
 1236 05aa CA69     		ldr	r2, [r1, #28]
 1237 05ac 1393     		str	r3, [sp, #76]
 1238 05ae D1F800B0 		ldr	fp, [r1]
 1239              	.LVL119:
 1240 05b2 0E92     		str	r2, [sp, #56]
 1241 05b4 1146     		mov	r1, r2
 1242              	.LVL120:
 1243              	.LBB470:
 1244              	.LBB471:
 1245              	.LBB472:
 1246              	.LBB473:
 1247              	.LBB474:
 1248              		.loc 3 562 0
 1249 05b6 1A46     		mov	r2, r3
 1250 05b8 013B     		subs	r3, r3, #1
 1251              	.LVL121:
 1252 05ba 1846     		mov	r0, r3
 1253 05bc 0C93     		str	r3, [sp, #48]
ARM GAS  /tmp/cck6DP7L.s 			page 23


 1254              	.LBE474:
 1255              		.loc 3 559 0
 1256 05be 0123     		movs	r3, #1
 1257 05c0 03FA02F2 		lsl	r2, r3, r2
 1258              	.LVL122:
 1259              	.LBB489:
 1260              		.loc 3 562 0
 1261 05c4 0228     		cmp	r0, #2
 1262              	.LBE489:
 1263              		.loc 3 559 0
 1264 05c6 0592     		str	r2, [sp, #20]
 1265              	.LVL123:
 1266              	.LBB490:
 1267              		.loc 3 562 0
 1268 05c8 40F2DD84 		bls	.L108
 1269              	.LBE490:
 1270              	.LBE473:
 1271              	.LBE472:
 1272              	.LBE471:
 1273              	.LBE470:
 1274              		.loc 1 171 0
 1275 05cc 0D91     		str	r1, [sp, #52]
 1276              	.LBB520:
 1277              	.LBB517:
 1278              	.LBB514:
 1279              	.LBB511:
 1280              	.LBB491:
 1281              		.loc 3 562 0
 1282 05ce 0F99     		ldr	r1, [sp, #60]
 1283              	.LVL124:
 1284              	.LBB475:
 1285              		.loc 3 563 0
 1286 05d0 1193     		str	r3, [sp, #68]
 1287              	.LVL125:
 1288              	.L80:
 1289 05d2 0C9A     		ldr	r2, [sp, #48]
 1290 05d4 119B     		ldr	r3, [sp, #68]
 1291 05d6 9340     		lsls	r3, r3, r2
 1292              	.LVL126:
 1293              	.LBB476:
 1294              		.loc 3 566 0
 1295 05d8 059A     		ldr	r2, [sp, #20]
 1296              	.LBE476:
 1297              		.loc 3 564 0
 1298 05da 4FEA530C 		lsr	ip, r3, #1
 1299              	.LVL127:
 1300              	.LBB487:
 1301              		.loc 3 566 0
 1302 05de 002A     		cmp	r2, #0
 1303 05e0 00F0C380 		beq	.L77
 1304 05e4 4FEA8C02 		lsl	r2, ip, #2
 1305 05e8 1546     		mov	r5, r2
 1306 05ea 101D     		adds	r0, r2, #4
 1307 05ec 0792     		str	r2, [sp, #28]
 1308 05ee 0C9A     		ldr	r2, [sp, #48]
 1309 05f0 0D9E     		ldr	r6, [sp, #52]
 1310 05f2 033A     		subs	r2, r2, #3
ARM GAS  /tmp/cck6DP7L.s 			page 24


 1311 05f4 9C00     		lsls	r4, r3, #2
 1312 05f6 0BEBC202 		add	r2, fp, r2, lsl #3
 1313 05fa 04F1040A 		add	r10, r4, #4
 1314 05fe 0992     		str	r2, [sp, #36]
 1315 0600 5A00     		lsls	r2, r3, #1
 1316 0602 DB00     		lsls	r3, r3, #3
 1317              	.LVL128:
 1318 0604 01EB0A08 		add	r8, r1, r10
 1319 0608 01F10409 		add	r9, r1, #4
 1320 060c 0693     		str	r3, [sp, #24]
 1321 060e 3118     		adds	r1, r6, r0
 1322 0610 331D     		adds	r3, r6, #4
 1323 0612 043C     		subs	r4, r4, #4
 1324 0614 0291     		str	r1, [sp, #8]
 1325 0616 0193     		str	r3, [sp, #4]
 1326 0618 291F     		subs	r1, r5, #4
 1327 061a 0023     		movs	r3, #0
 1328 061c 0A94     		str	r4, [sp, #40]
 1329 061e B244     		add	r10, r10, r6
 1330 0620 0B91     		str	r1, [sp, #44]
 1331 0622 0892     		str	r2, [sp, #32]
 1332 0624 0393     		str	r3, [sp, #12]
 1333              	.LVL129:
 1334              	.L76:
 1335              	.LBB477:
 1336              		.loc 3 572 0
 1337 0626 19ED017A 		flds	s14, [r9, #-4]
 1338 062a 58ED017A 		flds	s15, [r8, #-4]
 1339 062e 019B     		ldr	r3, [sp, #4]
 1340 0630 0798     		ldr	r0, [sp, #28]
 1341              		.loc 3 574 0
 1342 0632 0299     		ldr	r1, [sp, #8]
 1343              		.loc 3 572 0
 1344 0634 77EE277A 		fadds	s15, s14, s15
 1345 0638 09EB0002 		add	r2, r9, r0
 1346 063c 43ED017A 		fsts	s15, [r3, #-4]
 1347              		.loc 3 573 0
 1348 0640 19ED017A 		flds	s14, [r9, #-4]
 1349 0644 58ED017A 		flds	s15, [r8, #-4]
 1350 0648 77EE677A 		fsubs	s15, s14, s15
 1351 064c 08EB0003 		add	r3, r8, r0
 1352 0650 4AED017A 		fsts	s15, [r10, #-4]
 1353              		.loc 3 574 0
 1354 0654 52ED017A 		flds	s15, [r2, #-4]
 1355 0658 77EEA77A 		fadds	s15, s15, s15
 1356 065c 0AEB0002 		add	r2, r10, r0
 1357 0660 41ED017A 		fsts	s15, [r1, #-4]
 1358              		.loc 3 575 0
 1359 0664 53ED017A 		flds	s15, [r3, #-4]
 1360 0668 77EEA77A 		fadds	s15, s15, s15
 1361              	.LBB478:
 1362              		.loc 3 580 0
 1363 066c BCF1010F 		cmp	ip, #1
 1364              	.LBE478:
 1365              		.loc 3 575 0
 1366 0670 42ED017A 		fsts	s15, [r2, #-4]
 1367              	.LVL130:
ARM GAS  /tmp/cck6DP7L.s 			page 25


 1368              	.LBB484:
 1369              	.LBB485:
 1370              		.loc 3 173 0
 1371 0674 099A     		ldr	r2, [sp, #36]
 1372 0676 1368     		ldr	r3, [r2]	@ float
 1373 0678 CBF85030 		str	r3, [fp, #80]	@ float
 1374 067c CBF84830 		str	r3, [fp, #72]	@ float
 1375              		.loc 3 174 0
 1376 0680 5368     		ldr	r3, [r2, #4]	@ float
 1377 0682 CBF85430 		str	r3, [fp, #84]	@ float
 1378 0686 CBF84C30 		str	r3, [fp, #76]	@ float
 1379              	.LVL131:
 1380              	.LBE485:
 1381              	.LBE484:
 1382              	.LBB486:
 1383              		.loc 3 580 0
 1384 068a 56D9     		bls	.L79
 1385 068c 0A9B     		ldr	r3, [sp, #40]
 1386 068e 029E     		ldr	r6, [sp, #8]
 1387 0690 019D     		ldr	r5, [sp, #4]
 1388 0692 CDF81080 		str	r8, [sp, #16]
 1389 0696 03EB0800 		add	r0, r3, r8
 1390 069a 0B9B     		ldr	r3, [sp, #44]
 1391 069c A8F10404 		sub	r4, r8, #4
 1392 06a0 03EB0A0E 		add	lr, r3, r10
 1393 06a4 5746     		mov	r7, r10
 1394 06a6 4146     		mov	r1, r8
 1395 06a8 4A46     		mov	r2, r9
 1396 06aa 0123     		movs	r3, #1
 1397              	.LVL132:
 1398              	.L78:
 1399              	.LBB479:
 1400              		.loc 3 581 0
 1401 06ac 92ED007A 		flds	s14, [r2]
 1402 06b0 54ED017A 		flds	s15, [r4, #-4]
 1403 06b4 77EE277A 		fadds	s15, s14, s15
 1404              	.LBE479:
 1405              		.loc 3 580 0
 1406 06b8 0133     		adds	r3, r3, #1
 1407              	.LVL133:
 1408              	.LBB482:
 1409              		.loc 3 581 0
 1410 06ba E5EC017A 		fstmias	r5!, {s15}
 1411              		.loc 3 582 0
 1412 06be 91ED007A 		flds	s14, [r1]
 1413 06c2 50ED017A 		flds	s15, [r0, #-4]
 1414 06c6 77EE677A 		fsubs	s15, s14, s15
 1415              	.LBE482:
 1416              		.loc 3 580 0
 1417 06ca 6345     		cmp	r3, ip
 1418              	.LBB483:
 1419              		.loc 3 582 0
 1420 06cc E6EC017A 		fstmias	r6!, {s15}
 1421              		.loc 3 587 0
 1422 06d0 F1EC016A 		fldmias	r1!, {s13}
 1423              		.loc 3 586 0
 1424 06d4 F2EC015A 		fldmias	r2!, {s11}
ARM GAS  /tmp/cck6DP7L.s 			page 26


 1425 06d8 34ED016A 		fldmdbs	r4!, {s12}
 1426              		.loc 3 587 0
 1427 06dc 30ED017A 		fldmdbs	r0!, {s14}
 1428 06e0 DBED137A 		flds	s15, [fp, #76]
 1429 06e4 9BED125A 		flds	s10, [fp, #72]
 1430              	.LVL134:
 1431 06e8 36EE877A 		fadds	s14, s13, s14
 1432              		.loc 3 586 0
 1433 06ec 75EEC66A 		fsubs	s13, s11, s12
 1434              	.LVL135:
 1435              		.loc 3 589 0
 1436 06f0 27EE876A 		fmuls	s12, s15, s14
 1437 06f4 66EEE77A 		fnmuls	s15, s13, s15
 1438 06f8 A5EE266A 		vfma.f32	s12, s10, s13
 1439              		.loc 3 590 0
 1440 06fc E5EE077A 		vfma.f32	s15, s10, s14
 1441              		.loc 3 589 0
 1442 0700 A7EC016A 		fstmias	r7!, {s12}
 1443              		.loc 3 590 0
 1444 0704 17EE908A 		fmrs	r8, s15
 1445 0708 4EF8048F 		str	r8, [lr, #4]!	@ float
 1446              	.LVL136:
 1447              	.LBB480:
 1448              	.LBB481:
 1449              		.loc 3 178 0
 1450 070c DBED137A 		flds	s15, [fp, #76]
 1451 0710 DBED146A 		flds	s13, [fp, #80]
 1452              	.LVL137:
 1453 0714 DBED155A 		flds	s11, [fp, #84]
 1454 0718 9BED126A 		flds	s12, [fp, #72]
 1455              	.LVL138:
 1456              		.loc 3 179 0
 1457 071c 26EEA77A 		fmuls	s14, s13, s15
 1458              	.LVL139:
 1459 0720 65EEE77A 		fnmuls	s15, s11, s15
 1460              	.LVL140:
 1461 0724 A6EE257A 		vfma.f32	s14, s12, s11
 1462              		.loc 3 178 0
 1463 0728 E6EE267A 		vfma.f32	s15, s12, s13
 1464              	.LVL141:
 1465              		.loc 3 179 0
 1466 072c 8BED137A 		fsts	s14, [fp, #76]
 1467              		.loc 3 180 0
 1468 0730 CBED127A 		fsts	s15, [fp, #72]
 1469              	.LBE481:
 1470              	.LBE480:
 1471              	.LBE483:
 1472              		.loc 3 580 0
 1473 0734 BAD1     		bne	.L78
 1474 0736 DDF81080 		ldr	r8, [sp, #16]
 1475              	.LVL142:
 1476              	.L79:
 1477              	.LBE486:
 1478              	.LBE477:
 1479              		.loc 3 566 0
 1480 073a 039B     		ldr	r3, [sp, #12]
 1481 073c 089A     		ldr	r2, [sp, #32]
ARM GAS  /tmp/cck6DP7L.s 			page 27


 1482 073e 1344     		add	r3, r3, r2
 1483 0740 1846     		mov	r0, r3
 1484 0742 069A     		ldr	r2, [sp, #24]
 1485 0744 0393     		str	r3, [sp, #12]
 1486              	.LVL143:
 1487 0746 019B     		ldr	r3, [sp, #4]
 1488 0748 1946     		mov	r1, r3
 1489 074a 1346     		mov	r3, r2
 1490 074c 1144     		add	r1, r1, r2
 1491 074e 9144     		add	r9, r9, r2
 1492              	.LVL144:
 1493 0750 9844     		add	r8, r8, r3
 1494 0752 1A46     		mov	r2, r3
 1495 0754 029B     		ldr	r3, [sp, #8]
 1496 0756 0191     		str	r1, [sp, #4]
 1497 0758 1C46     		mov	r4, r3
 1498 075a 059B     		ldr	r3, [sp, #20]
 1499 075c 1444     		add	r4, r4, r2
 1500 075e 9244     		add	r10, r10, r2
 1501 0760 1A46     		mov	r2, r3
 1502 0762 8242     		cmp	r2, r0
 1503 0764 0294     		str	r4, [sp, #8]
 1504 0766 3FF65EAF 		bhi	.L76
 1505              	.LVL145:
 1506              	.L77:
 1507              	.LBE487:
 1508              		.loc 3 596 0
 1509 076a 0E9B     		ldr	r3, [sp, #56]
 1510 076c 0D9A     		ldr	r2, [sp, #52]
 1511 076e 9342     		cmp	r3, r2
 1512 0770 00F08882 		beq	.L148
 1513 0774 0E9B     		ldr	r3, [sp, #56]
 1514              		.loc 3 600 0
 1515 0776 0F99     		ldr	r1, [sp, #60]
 1516              		.loc 3 596 0
 1517 0778 0D93     		str	r3, [sp, #52]
 1518              	.LVL146:
 1519              	.L73:
 1520              	.LBE475:
 1521              		.loc 3 562 0
 1522 077a 0C9B     		ldr	r3, [sp, #48]
 1523 077c 013B     		subs	r3, r3, #1
 1524 077e 022B     		cmp	r3, #2
 1525 0780 0C93     		str	r3, [sp, #48]
 1526              	.LVL147:
 1527 0782 7FF426AF 		bne	.L80
 1528              	.LBE491:
 1529              		.loc 3 606 0
 1530 0786 0E9B     		ldr	r3, [sp, #56]
 1531              	.LVL148:
 1532 0788 0D9A     		ldr	r2, [sp, #52]
 1533 078a 9342     		cmp	r3, r2
 1534 078c 00F0FC83 		beq	.L71
 1535              	.LVL149:
 1536              	.L81:
 1537              	.LBB492:
 1538              		.loc 3 612 0
ARM GAS  /tmp/cck6DP7L.s 			page 28


 1539 0790 0598     		ldr	r0, [sp, #20]
 1540 0792 0028     		cmp	r0, #0
 1541 0794 00F09A80 		beq	.L82
 1542 0798 0E9B     		ldr	r3, [sp, #56]
 1543              	.LBB493:
 1544              		.loc 3 622 0
 1545 079a 5FED8F5A 		flds	s11, .L155+4
 1546 079e 0F9A     		ldr	r2, [sp, #60]
 1547 07a0 0833     		adds	r3, r3, #8
 1548              	.LBE493:
 1549              		.loc 3 612 0
 1550 07a2 0021     		movs	r1, #0
 1551              	.LVL150:
 1552              	.L83:
 1553              	.LBB494:
 1554              		.loc 3 614 0
 1555 07a4 13ED027A 		flds	s14, [r3, #-8]
 1556 07a8 D3ED027A 		flds	s15, [r3, #8]
 1557 07ac 77EE277A 		fadds	s15, s14, s15
 1558              	.LBE494:
 1559              		.loc 3 612 0
 1560 07b0 0831     		adds	r1, r1, #8
 1561              	.LVL151:
 1562              	.LBB495:
 1563              		.loc 3 614 0
 1564 07b2 C2ED007A 		fsts	s15, [r2]
 1565              		.loc 3 615 0
 1566 07b6 13ED027A 		flds	s14, [r3, #-8]
 1567 07ba D3ED027A 		flds	s15, [r3, #8]
 1568 07be 77EE677A 		fsubs	s15, s14, s15
 1569              	.LBE495:
 1570              		.loc 3 612 0
 1571 07c2 8842     		cmp	r0, r1
 1572              	.LBB496:
 1573              		.loc 3 615 0
 1574 07c4 C2ED047A 		fsts	s15, [r2, #16]
 1575              		.loc 3 616 0
 1576 07c8 D3ED007A 		flds	s15, [r3]
 1577 07cc 77EEA77A 		fadds	s15, s15, s15
 1578 07d0 03F12003 		add	r3, r3, #32
 1579 07d4 C2ED027A 		fsts	s15, [r2, #8]
 1580              		.loc 3 617 0
 1581 07d8 53ED047A 		flds	s15, [r3, #-16]
 1582 07dc 77EEA77A 		fadds	s15, s15, s15
 1583 07e0 02F12002 		add	r2, r2, #32
 1584 07e4 42ED027A 		fsts	s15, [r2, #-8]
 1585              		.loc 3 618 0
 1586 07e8 13ED097A 		flds	s14, [r3, #-36]
 1587 07ec 53ED077A 		flds	s15, [r3, #-28]
 1588 07f0 77EE277A 		fadds	s15, s14, s15
 1589 07f4 42ED077A 		fsts	s15, [r2, #-28]
 1590              		.loc 3 619 0
 1591 07f8 13ED057A 		flds	s14, [r3, #-20]
 1592 07fc 53ED037A 		flds	s15, [r3, #-12]
 1593 0800 77EE677A 		fsubs	s15, s14, s15
 1594 0804 42ED057A 		fsts	s15, [r2, #-20]
 1595              		.loc 3 621 0
ARM GAS  /tmp/cck6DP7L.s 			page 29


 1596 0808 53ED056A 		flds	s13, [r3, #-20]
 1597              		.loc 3 620 0
 1598 080c 13ED096A 		flds	s12, [r3, #-36]
 1599 0810 53ED077A 		flds	s15, [r3, #-28]
 1600              		.loc 3 621 0
 1601 0814 13ED037A 		flds	s14, [r3, #-12]
 1602              		.loc 3 620 0
 1603 0818 76EE677A 		fsubs	s15, s12, s15
 1604              	.LVL152:
 1605              		.loc 3 621 0
 1606 081c 36EE877A 		fadds	s14, s13, s14
 1607              	.LVL153:
 1608              		.loc 3 622 0
 1609 0820 77EE876A 		fadds	s13, s15, s14
 1610              		.loc 3 623 0
 1611 0824 77EE677A 		fsubs	s15, s14, s15
 1612              	.LVL154:
 1613              		.loc 3 622 0
 1614 0828 26EEA57A 		fmuls	s14, s13, s11
 1615              	.LVL155:
 1616              		.loc 3 623 0
 1617 082c 67EEA57A 		fmuls	s15, s15, s11
 1618              		.loc 3 622 0
 1619 0830 02ED037A 		fsts	s14, [r2, #-12]
 1620              	.LVL156:
 1621              		.loc 3 623 0
 1622 0834 42ED017A 		fsts	s15, [r2, #-4]
 1623              	.LBE496:
 1624              		.loc 3 612 0
 1625 0838 B4D8     		bhi	.L83
 1626 083a 1399     		ldr	r1, [sp, #76]
 1627              	.LVL157:
 1628 083c 059A     		ldr	r2, [sp, #20]
 1629 083e 4E4B     		ldr	r3, .L157
 1630              	.LBE492:
 1631              	.LBB497:
 1632              	.LBB498:
 1633              		.loc 3 641 0
 1634 0840 0E9D     		ldr	r5, [sp, #56]
 1635 0842 C1F1100E 		rsb	lr, r1, #16
 1636 0846 0F99     		ldr	r1, [sp, #60]
 1637 0848 9708     		lsrs	r7, r2, #2
 1638 084a 1031     		adds	r1, r1, #16
 1639 084c 4FEA470C 		lsl	ip, r7, #1
 1640              	.LBE498:
 1641              	.LBE497:
 1642              	.LBB502:
 1643              		.loc 3 612 0
 1644 0850 0020     		movs	r0, #0
 1645              	.LBE502:
 1646              	.LBB503:
 1647              	.LBB499:
 1648              		.loc 3 641 0
 1649 0852 B0EE006A 		fconsts	s12, #0
 1650 0856 9046     		mov	r8, r2
 1651              	.L84:
 1652              	.LVL158:
ARM GAS  /tmp/cck6DP7L.s 			page 30


 1653              		.loc 3 636 0
 1654 0858 11ED047A 		flds	s14, [r1, #-16]
 1655 085c 51ED027A 		flds	s15, [r1, #-8]
 1656              		.loc 3 638 0
 1657 0860 11ED035A 		flds	s10, [r1, #-12]
 1658              		.loc 3 639 0
 1659 0864 51ED015A 		flds	s11, [r1, #-4]
 1660              		.loc 3 631 0
 1661 0868 C4B2     		uxtb	r4, r0
 1662 086a 020A     		lsrs	r2, r0, #8
 1663 086c 1C5D     		ldrb	r4, [r3, r4]	@ zero_extendqisi2
 1664 086e 9A5C     		ldrb	r2, [r3, r2]	@ zero_extendqisi2
 1665              		.loc 3 636 0
 1666 0870 77EE276A 		fadds	s13, s14, s15
 1667              		.loc 3 637 0
 1668 0874 77EE677A 		fsubs	s15, s14, s15
 1669              		.loc 3 631 0
 1670 0878 42EA0422 		orr	r2, r2, r4, lsl #8
 1671              		.loc 3 641 0
 1672 087c F0EE664A 		fcpys	s9, s13
 1673              		.loc 3 643 0
 1674 0880 B0EE677A 		fcpys	s14, s15
 1675              		.loc 3 631 0
 1676 0884 42FA0EF2 		asr	r2, r2, lr
 1677              	.LVL159:
 1678              		.loc 3 641 0
 1679 0888 E5EE064A 		vfma.f32	s9, s10, s12
 1680              		.loc 3 632 0
 1681 088c 02EB0C04 		add	r4, r2, ip
 1682              	.LVL160:
 1683              		.loc 3 644 0
 1684 0890 E619     		adds	r6, r4, r7
 1685              	.LVL161:
 1686              		.loc 3 642 0
 1687 0892 E5EE466A 		vfms.f32	s13, s10, s12
 1688              	.LVL162:
 1689              		.loc 3 643 0
 1690 0896 02EB0709 		add	r9, r2, r7
 1691              	.LVL163:
 1692              	.LBE499:
 1693              		.loc 3 629 0
 1694 089a 0430     		adds	r0, r0, #4
 1695              	.LVL164:
 1696              	.LBB500:
 1697              		.loc 3 643 0
 1698 089c A5EE867A 		vfma.f32	s14, s11, s12
 1699              	.LVL165:
 1700              		.loc 3 642 0
 1701 08a0 05EB8404 		add	r4, r5, r4, lsl #2
 1702              	.LVL166:
 1703              		.loc 3 644 0
 1704 08a4 05EB8606 		add	r6, r5, r6, lsl #2
 1705              	.LVL167:
 1706 08a8 E5EEC67A 		vfms.f32	s15, s11, s12
 1707              	.LVL168:
 1708              		.loc 3 641 0
 1709 08ac 05EB8202 		add	r2, r5, r2, lsl #2
ARM GAS  /tmp/cck6DP7L.s 			page 31


 1710              	.LVL169:
 1711              		.loc 3 643 0
 1712 08b0 05EB8909 		add	r9, r5, r9, lsl #2
 1713              	.LVL170:
 1714              	.LBE500:
 1715              		.loc 3 629 0
 1716 08b4 8045     		cmp	r8, r0
 1717              	.LBB501:
 1718              		.loc 3 641 0
 1719 08b6 C2ED004A 		fsts	s9, [r2]
 1720              	.LVL171:
 1721 08ba 01F11001 		add	r1, r1, #16
 1722              	.LVL172:
 1723              		.loc 3 642 0
 1724 08be C4ED006A 		fsts	s13, [r4]
 1725              		.loc 3 643 0
 1726 08c2 89ED007A 		fsts	s14, [r9]
 1727              		.loc 3 644 0
 1728 08c6 C6ED007A 		fsts	s15, [r6]
 1729              	.LVL173:
 1730              	.LBE501:
 1731              		.loc 3 629 0
 1732 08ca C5D8     		bhi	.L84
 1733              	.LVL174:
 1734              	.L82:
 1735              	.LBE503:
 1736              	.LBE511:
 1737              	.LBE514:
 1738              	.LBE517:
 1739              	.LBE520:
 1740              		.loc 1 183 0
 1741 08cc 109A     		ldr	r2, [sp, #64]
 1742 08ce D2F80C80 		ldr	r8, [r2, #12]
 1743              		.loc 1 177 0
 1744 08d2 D2F838C0 		ldr	ip, [r2, #56]
 1745              	.LVL175:
 1746              		.loc 1 186 0
 1747 08d6 506A     		ldr	r0, [r2, #36]
 1748              		.loc 1 183 0
 1749 08d8 129A     		ldr	r2, [sp, #72]
 1750 08da 1346     		mov	r3, r2
 1751 08dc 03FB02F3 		mul	r3, r3, r2
 1752 08e0 B3FBF8F3 		udiv	r3, r3, r8
 1753 08e4 5B08     		lsrs	r3, r3, #1
 1754 08e6 06EE903A 		fmsr	s13, r3	@ int
 1755              		.loc 1 182 0
 1756 08ea F8EEE66A 		fsitos	s13, s13
 1757              		.loc 1 183 0
 1758 08ee F7EE007A 		fconsts	s15, #112
 1759 08f2 C7EEA66A 		fdivs	s13, s15, s13
 1760              	.LVL176:
 1761              	.LBB521:
 1762              		.loc 1 187 0
 1763 08f6 002A     		cmp	r2, #0
 1764 08f8 00F04283 		beq	.L149
 1765 08fc 1099     		ldr	r1, [sp, #64]
 1766 08fe 129C     		ldr	r4, [sp, #72]
ARM GAS  /tmp/cck6DP7L.s 			page 32


 1767 0900 8B6A     		ldr	r3, [r1, #40]
 1768 0902 0E6B     		ldr	r6, [r1, #48]
 1769 0904 0F69     		ldr	r7, [r1, #16]
 1770 0906 CD69     		ldr	r5, [r1, #28]
 1771 0908 4FEA8309 		lsl	r9, r3, #2
 1772 090c C8EB040E 		rsb	lr, r8, r4
 1773 0910 6246     		mov	r2, ip
 1774 0912 0021     		movs	r1, #0
 1775 0914 A246     		mov	r10, r4
 1776              	.LVL177:
 1777              	.L97:
 1778              	.LBB522:
 1779              		.loc 1 188 0
 1780 0916 B5EC017A 		fldmias	r5!, {s14}
 1781              	.LVL178:
 1782 091a D0ED007A 		flds	s15, [r0]
 1783 091e 67EE277A 		fmuls	s15, s14, s15
 1784              		.loc 1 191 0
 1785 0922 7145     		cmp	r1, lr
 1786              		.loc 1 188 0
 1787 0924 67EEA67A 		fmuls	s15, s15, s13
 1788              	.LVL179:
 1789 0928 06EB4204 		add	r4, r6, r2, lsl #1
 1790              		.loc 1 190 0
 1791 092c FDEEE77A 		ftosizs	s15, s15
 1792              	.LVL180:
 1793 0930 17EE903A 		fmrs	r3, s15	@ int
 1794              	.LVL181:
 1795              		.loc 1 191 0
 1796 0934 04D2     		bcs	.L95
 1797              		.loc 1 193 0
 1798 0936 36F91240 		ldrsh	r4, [r6, r2, lsl #1]
 1799 093a 2344     		add	r3, r3, r4
 1800              	.LVL182:
 1801 093c 06EB4204 		add	r4, r6, r2, lsl #1
 1802              	.L95:
 1803              	.LVL183:
 1804              		.loc 1 196 0
 1805 0940 0132     		adds	r2, r2, #1
 1806              	.LVL184:
 1807              		.loc 1 197 0
 1808 0942 BA42     		cmp	r2, r7
 1809              	.LBE522:
 1810              		.loc 1 187 0
 1811 0944 01F10101 		add	r1, r1, #1
 1812              	.LVL185:
 1813              	.LBB525:
 1814              		.loc 1 198 0
 1815 0948 28BF     		it	cs
 1816 094a D21B     		subcs	r2, r2, r7
 1817              	.LVL186:
 1818              	.LBE525:
 1819              		.loc 1 187 0
 1820 094c 5145     		cmp	r1, r10
 1821              	.LBB526:
 1822              	.LBB523:
 1823              	.LBB524:
ARM GAS  /tmp/cck6DP7L.s 			page 33


 1824              		.loc 4 133 0
 1825              	@ 133 "./mutable_instruments/stmlib/dsp/dsp.h" 1
 1826 094e 03F30F03 		ssat r3, #16, r3
 1827              	@ 0 "" 2
 1828              	.LVL187:
 1829              		.thumb
 1830              	.LBE524:
 1831              	.LBE523:
 1832              		.loc 1 200 0
 1833 0952 4844     		add	r0, r0, r9
 1834              	.LVL188:
 1835              		.loc 1 195 0
 1836 0954 2380     		strh	r3, [r4]	@ movhi
 1837              	.LBE526:
 1838              		.loc 1 187 0
 1839 0956 DED1     		bne	.L97
 1840              	.LVL189:
 1841              	.L93:
 1842              	.LBE521:
 1843              		.loc 1 203 0
 1844 0958 1099     		ldr	r1, [sp, #64]
 1845 095a 4A6C     		ldr	r2, [r1, #68]
 1846              		.loc 1 204 0
 1847 095c 08EB0C03 		add	r3, r8, ip
 1848              		.loc 1 203 0
 1849 0960 0132     		adds	r2, r2, #1
 1850              		.loc 1 205 0
 1851 0962 BB42     		cmp	r3, r7
 1852              		.loc 1 203 0
 1853 0964 4A64     		str	r2, [r1, #68]
 1854              		.loc 1 204 0
 1855 0966 32BF     		itee	cc
 1856 0968 0A46     		movcc	r2, r1
 1857              		.loc 1 206 0
 1858 096a 109A     		ldrcs	r2, [sp, #64]
 1859 096c DB1B     		subcs	r3, r3, r7
 1860 096e 9363     		str	r3, [r2, #56]
 1861              	.LBE640:
 1862              		.loc 1 208 0
 1863 0970 15B0     		add	sp, sp, #84
 1864              		.cfi_remember_state
 1865              		.cfi_def_cfa_offset 36
 1866              		@ sp needed
 1867 0972 BDE8F08F 		pop	{r4, r5, r6, r7, r8, r9, r10, fp, pc}
 1868              	.LVL190:
 1869              	.L158:
 1870 0976 00BF     		.align	2
 1871              	.L157:
 1872 0978 00000000 		.word	_ZN6stmlib6ShyFFTIfLj4096ENS_14RotationPhasorEE16bit_rev_256_lut_E
 1873 097c F304353F 		.word	1060439283
 1874              	.LVL191:
 1875              	.L147:
 1876              		.cfi_restore_state
 1877              	.LBB641:
 1878              	.LBB527:
 1879              	.LBB467:
 1880              	.LBB464:
ARM GAS  /tmp/cck6DP7L.s 			page 34


 1881              	.LBB461:
 1882              	.LBB458:
 1883              	.LBB457:
 1884              	.LBB456:
 1885              	.LBB455:
 1886              	.LBB454:
 1887              	.LBB453:
 1888              		.loc 2 378 0
 1889 0980 0F98     		ldr	r0, [sp, #60]
 1890 0982 0D99     		ldr	r1, [sp, #52]
 1891 0984 FFF7FEFF 		bl	memmove
 1892              	.LVL192:
 1893              	.LBE453:
 1894              	.LBE454:
 1895              	.LBE455:
 1896              	.LBE456:
 1897              	.LBE457:
 1898              	.LBE458:
 1899              	.LBE461:
 1900              	.LBE464:
 1901              	.LBE467:
 1902              	.LBE527:
 1903              		.loc 1 154 0
 1904 0988 109C     		ldr	r4, [sp, #64]
 1905 098a 109B     		ldr	r3, [sp, #64]
 1906 098c E06C     		ldr	r0, [r4, #76]
 1907 098e 9B69     		ldr	r3, [r3, #24]
 1908 0990 0028     		cmp	r0, #0
 1909 0992 7FF4F7AD 		bne	.L150
 1910              	.LVL193:
 1911              	.L68:
 1912              		.loc 1 157 0
 1913 0996 1099     		ldr	r1, [sp, #64]
 1914 0998 4A68     		ldr	r2, [r1, #4]
 1915 099a 1292     		str	r2, [sp, #72]
 1916              	.LBB528:
 1917              	.LBB529:
 1918              	.LBB530:
 1919              	.LBB531:
 1920              	.LBB532:
 1921              	.LBB533:
 1922              		.loc 2 377 0
 1923 099c 9200     		lsls	r2, r2, #2
 1924              	.LBE533:
 1925              	.LBE532:
 1926              	.LBE531:
 1927              	.LBE530:
 1928              	.LBE529:
 1929              	.LBE528:
 1930              		.loc 1 157 0
 1931 099e 086A     		ldr	r0, [r1, #32]
 1932              	.LVL194:
 1933              	.LBB544:
 1934              	.LBB542:
 1935              	.LBB540:
 1936              	.LBB538:
 1937              	.LBB536:
ARM GAS  /tmp/cck6DP7L.s 			page 35


 1938              	.LBB534:
 1939              		.loc 2 377 0
 1940 09a0 40F0E482 		bne	.L151
 1941              	.LBE534:
 1942              	.LBE536:
 1943              	.LBE538:
 1944              	.LBE540:
 1945              	.LBE542:
 1946              	.LBE544:
 1947              		.loc 1 170 0
 1948 09a4 129B     		ldr	r3, [sp, #72]
 1949              	.LVL195:
 1950              		.loc 1 157 0
 1951 09a6 0F90     		str	r0, [sp, #60]
 1952              		.loc 1 170 0
 1953 09a8 B3F5805F 		cmp	r3, #4096
 1954 09ac 7FF4FBAD 		bne	.L152
 1955              	.LVL196:
 1956              	.L70:
 1957              		.loc 1 173 0
 1958 09b0 109A     		ldr	r2, [sp, #64]
 1959              	.LBB545:
 1960              	.LBB546:
 1961              	.LBB547:
 1962              	.LBB548:
 1963              		.loc 3 456 0
 1964 09b2 0F99     		ldr	r1, [sp, #60]
 1965              	.LBE548:
 1966              	.LBE547:
 1967              	.LBE546:
 1968              	.LBE545:
 1969              		.loc 1 173 0
 1970 09b4 D369     		ldr	r3, [r2, #28]
 1971 09b6 0D93     		str	r3, [sp, #52]
 1972 09b8 0B93     		str	r3, [sp, #44]
 1973 09ba D2F800B0 		ldr	fp, [r2]
 1974              	.LVL197:
 1975              	.LBB591:
 1976              	.LBB588:
 1977              	.LBB585:
 1978              	.LBB582:
 1979              	.LBB549:
 1980              		.loc 3 461 0
 1981 09be 0B23     		movs	r3, #11
 1982              	.LVL198:
 1983 09c0 0C93     		str	r3, [sp, #48]
 1984              	.LVL199:
 1985              	.L88:
 1986              	.LBB550:
 1987              		.loc 3 462 0
 1988 09c2 0C9E     		ldr	r6, [sp, #48]
 1989 09c4 0122     		movs	r2, #1
 1990 09c6 B240     		lsls	r2, r2, r6
 1991              	.LVL200:
 1992              		.loc 3 463 0
 1993 09c8 4FEA520C 		lsr	ip, r2, #1
 1994              	.LVL201:
ARM GAS  /tmp/cck6DP7L.s 			page 36


 1995 09cc 4FEA8C03 		lsl	r3, ip, #2
 1996 09d0 1D46     		mov	r5, r3
 1997 09d2 1C1D     		adds	r4, r3, #4
 1998 09d4 0693     		str	r3, [sp, #24]
 1999 09d6 F31E     		subs	r3, r6, #3
 2000 09d8 0B9E     		ldr	r6, [sp, #44]
 2001 09da 9000     		lsls	r0, r2, #2
 2002 09dc 0BEBC303 		add	r3, fp, r3, lsl #3
 2003 09e0 00F1040A 		add	r10, r0, #4
 2004 09e4 3419     		adds	r4, r6, r4
 2005 09e6 0A93     		str	r3, [sp, #40]
 2006 09e8 331D     		adds	r3, r6, #4
 2007 09ea 01EB0A08 		add	r8, r1, r10
 2008 09ee 0294     		str	r4, [sp, #8]
 2009 09f0 0438     		subs	r0, r0, #4
 2010 09f2 2C1F     		subs	r4, r5, #4
 2011 09f4 01F10409 		add	r9, r1, #4
 2012 09f8 0193     		str	r3, [sp, #4]
 2013 09fa 5100     		lsls	r1, r2, #1
 2014              	.LBB551:
 2015              		.loc 3 465 0
 2016 09fc 0023     		movs	r3, #0
 2017 09fe D200     		lsls	r2, r2, #3
 2018              	.LVL202:
 2019 0a00 0894     		str	r4, [sp, #32]
 2020 0a02 0990     		str	r0, [sp, #36]
 2021 0a04 B244     		add	r10, r10, r6
 2022 0a06 0791     		str	r1, [sp, #28]
 2023 0a08 0592     		str	r2, [sp, #20]
 2024 0a0a 0393     		str	r3, [sp, #12]
 2025              	.LVL203:
 2026              	.L86:
 2027              	.LBB552:
 2028              		.loc 3 471 0
 2029 0a0c 19ED017A 		flds	s14, [r9, #-4]
 2030 0a10 58ED017A 		flds	s15, [r8, #-4]
 2031 0a14 019D     		ldr	r5, [sp, #4]
 2032 0a16 0699     		ldr	r1, [sp, #24]
 2033              		.loc 3 473 0
 2034 0a18 029E     		ldr	r6, [sp, #8]
 2035              	.LBB553:
 2036              		.loc 3 479 0
 2037 0a1a CDF81080 		str	r8, [sp, #16]
 2038              	.LBE553:
 2039              		.loc 3 471 0
 2040 0a1e 77EE277A 		fadds	s15, s14, s15
 2041 0a22 09EB0103 		add	r3, r9, r1
 2042 0a26 45ED017A 		fsts	s15, [r5, #-4]
 2043              		.loc 3 472 0
 2044 0a2a 19ED017A 		flds	s14, [r9, #-4]
 2045 0a2e 58ED017A 		flds	s15, [r8, #-4]
 2046 0a32 77EE677A 		fsubs	s15, s14, s15
 2047 0a36 08EB0102 		add	r2, r8, r1
 2048 0a3a 4AED017A 		fsts	s15, [r10, #-4]
 2049              		.loc 3 473 0
 2050 0a3e 53ED017A 		flds	s15, [r3, #-4]
 2051 0a42 77EEA77A 		fadds	s15, s15, s15
ARM GAS  /tmp/cck6DP7L.s 			page 37


 2052 0a46 0AEB0103 		add	r3, r10, r1
 2053 0a4a 46ED017A 		fsts	s15, [r6, #-4]
 2054              		.loc 3 474 0
 2055 0a4e 52ED017A 		flds	s15, [r2, #-4]
 2056              	.LBB559:
 2057              	.LBB560:
 2058              		.loc 3 173 0
 2059 0a52 0A9A     		ldr	r2, [sp, #40]
 2060              	.LBE560:
 2061              	.LBE559:
 2062              		.loc 3 474 0
 2063 0a54 77EEA77A 		fadds	s15, s15, s15
 2064 0a58 A8F10404 		sub	r4, r8, #4
 2065 0a5c 43ED017A 		fsts	s15, [r3, #-4]
 2066              	.LVL204:
 2067              	.LBB562:
 2068              	.LBB561:
 2069              		.loc 3 173 0
 2070 0a60 1368     		ldr	r3, [r2]	@ float
 2071 0a62 CBF85030 		str	r3, [fp, #80]	@ float
 2072 0a66 CBF84830 		str	r3, [fp, #72]	@ float
 2073              		.loc 3 174 0
 2074 0a6a 5368     		ldr	r3, [r2, #4]	@ float
 2075 0a6c CBF85430 		str	r3, [fp, #84]	@ float
 2076 0a70 099A     		ldr	r2, [sp, #36]
 2077 0a72 CBF84C30 		str	r3, [fp, #76]	@ float
 2078              	.LVL205:
 2079 0a76 089B     		ldr	r3, [sp, #32]
 2080 0a78 02EB0800 		add	r0, r2, r8
 2081 0a7c 03EB0A0E 		add	lr, r3, r10
 2082 0a80 5746     		mov	r7, r10
 2083 0a82 4146     		mov	r1, r8
 2084 0a84 4A46     		mov	r2, r9
 2085              	.LBE561:
 2086              	.LBE562:
 2087              	.LBB563:
 2088              		.loc 3 479 0
 2089 0a86 0123     		movs	r3, #1
 2090              	.LVL206:
 2091              	.L85:
 2092              	.LBB554:
 2093              		.loc 3 480 0
 2094 0a88 92ED007A 		flds	s14, [r2]
 2095 0a8c 54ED017A 		flds	s15, [r4, #-4]
 2096 0a90 77EE277A 		fadds	s15, s14, s15
 2097              	.LBE554:
 2098              		.loc 3 479 0
 2099 0a94 0133     		adds	r3, r3, #1
 2100              	.LVL207:
 2101              	.LBB557:
 2102              		.loc 3 480 0
 2103 0a96 E5EC017A 		fstmias	r5!, {s15}
 2104              		.loc 3 481 0
 2105 0a9a 91ED007A 		flds	s14, [r1]
 2106 0a9e 50ED017A 		flds	s15, [r0, #-4]
 2107 0aa2 77EE677A 		fsubs	s15, s14, s15
 2108              	.LBE557:
ARM GAS  /tmp/cck6DP7L.s 			page 38


 2109              		.loc 3 479 0
 2110 0aa6 6345     		cmp	r3, ip
 2111              	.LBB558:
 2112              		.loc 3 481 0
 2113 0aa8 E6EC017A 		fstmias	r6!, {s15}
 2114              		.loc 3 486 0
 2115 0aac F1EC016A 		fldmias	r1!, {s13}
 2116              		.loc 3 485 0
 2117 0ab0 F2EC015A 		fldmias	r2!, {s11}
 2118 0ab4 34ED016A 		fldmdbs	r4!, {s12}
 2119              		.loc 3 486 0
 2120 0ab8 30ED017A 		fldmdbs	r0!, {s14}
 2121 0abc DBED137A 		flds	s15, [fp, #76]
 2122 0ac0 9BED125A 		flds	s10, [fp, #72]
 2123              	.LVL208:
 2124 0ac4 36EE877A 		fadds	s14, s13, s14
 2125              		.loc 3 485 0
 2126 0ac8 75EEC66A 		fsubs	s13, s11, s12
 2127              	.LVL209:
 2128              		.loc 3 488 0
 2129 0acc 27EE876A 		fmuls	s12, s15, s14
 2130 0ad0 66EEE77A 		fnmuls	s15, s13, s15
 2131 0ad4 A5EE266A 		vfma.f32	s12, s10, s13
 2132              		.loc 3 489 0
 2133 0ad8 E5EE077A 		vfma.f32	s15, s10, s14
 2134              		.loc 3 488 0
 2135 0adc A7EC016A 		fstmias	r7!, {s12}
 2136              		.loc 3 489 0
 2137 0ae0 17EE908A 		fmrs	r8, s15
 2138 0ae4 4EF8048F 		str	r8, [lr, #4]!	@ float
 2139              	.LVL210:
 2140              	.LBB555:
 2141              	.LBB556:
 2142              		.loc 3 178 0
 2143 0ae8 DBED137A 		flds	s15, [fp, #76]
 2144 0aec DBED146A 		flds	s13, [fp, #80]
 2145              	.LVL211:
 2146 0af0 DBED155A 		flds	s11, [fp, #84]
 2147 0af4 9BED126A 		flds	s12, [fp, #72]
 2148              	.LVL212:
 2149              		.loc 3 179 0
 2150 0af8 26EEA77A 		fmuls	s14, s13, s15
 2151              	.LVL213:
 2152 0afc 65EEE77A 		fnmuls	s15, s11, s15
 2153              	.LVL214:
 2154 0b00 A6EE257A 		vfma.f32	s14, s12, s11
 2155              		.loc 3 178 0
 2156 0b04 E6EE267A 		vfma.f32	s15, s12, s13
 2157              	.LVL215:
 2158              		.loc 3 179 0
 2159 0b08 8BED137A 		fsts	s14, [fp, #76]
 2160              		.loc 3 180 0
 2161 0b0c CBED127A 		fsts	s15, [fp, #72]
 2162              	.LBE556:
 2163              	.LBE555:
 2164              	.LBE558:
 2165              		.loc 3 479 0
ARM GAS  /tmp/cck6DP7L.s 			page 39


 2166 0b10 BAD1     		bne	.L85
 2167              	.LBE563:
 2168              	.LBE552:
 2169              		.loc 3 465 0
 2170 0b12 039B     		ldr	r3, [sp, #12]
 2171              	.LVL216:
 2172 0b14 079A     		ldr	r2, [sp, #28]
 2173 0b16 DDF81080 		ldr	r8, [sp, #16]
 2174 0b1a 1344     		add	r3, r3, r2
 2175 0b1c 1846     		mov	r0, r3
 2176 0b1e 059A     		ldr	r2, [sp, #20]
 2177 0b20 0393     		str	r3, [sp, #12]
 2178              	.LVL217:
 2179 0b22 019B     		ldr	r3, [sp, #4]
 2180 0b24 1946     		mov	r1, r3
 2181 0b26 1346     		mov	r3, r2
 2182 0b28 1144     		add	r1, r1, r2
 2183 0b2a 9144     		add	r9, r9, r2
 2184              	.LVL218:
 2185 0b2c 9844     		add	r8, r8, r3
 2186 0b2e 1A46     		mov	r2, r3
 2187 0b30 029B     		ldr	r3, [sp, #8]
 2188 0b32 0191     		str	r1, [sp, #4]
 2189 0b34 1C46     		mov	r4, r3
 2190 0b36 1444     		add	r4, r4, r2
 2191 0b38 B0F5805F 		cmp	r0, #4096
 2192 0b3c 0294     		str	r4, [sp, #8]
 2193 0b3e 9244     		add	r10, r10, r2
 2194 0b40 FFF464AF 		bcc	.L86
 2195              	.LBE551:
 2196              		.loc 3 495 0
 2197 0b44 0D9A     		ldr	r2, [sp, #52]
 2198 0b46 0B99     		ldr	r1, [sp, #44]
 2199 0b48 8A42     		cmp	r2, r1
 2200 0b4a 00F0F881 		beq	.L110
 2201              		.loc 3 499 0
 2202 0b4e 0F99     		ldr	r1, [sp, #60]
 2203              		.loc 3 495 0
 2204 0b50 0B92     		str	r2, [sp, #44]
 2205              	.LVL219:
 2206              	.L87:
 2207              	.LBE550:
 2208              		.loc 3 461 0
 2209 0b52 0C9B     		ldr	r3, [sp, #48]
 2210 0b54 013B     		subs	r3, r3, #1
 2211 0b56 022B     		cmp	r3, #2
 2212 0b58 0C93     		str	r3, [sp, #48]
 2213              	.LVL220:
 2214 0b5a 7FF432AF 		bne	.L88
 2215              	.LBE549:
 2216              		.loc 3 505 0
 2217 0b5e 0D9B     		ldr	r3, [sp, #52]
 2218              	.LVL221:
 2219 0b60 0B9A     		ldr	r2, [sp, #44]
 2220 0b62 9342     		cmp	r3, r2
 2221 0b64 00F02082 		beq	.L153
 2222              	.LVL222:
ARM GAS  /tmp/cck6DP7L.s 			page 40


 2223              	.L89:
 2224 0b68 0D98     		ldr	r0, [sp, #52]
 2225              	.LBB565:
 2226              	.LBB566:
 2227              		.loc 3 521 0
 2228 0b6a 5FED7C5A 		flds	s11, .L157+4
 2229 0b6e 0F9A     		ldr	r2, [sp, #60]
 2230 0b70 0346     		mov	r3, r0
 2231 0b72 00F58041 		add	r1, r0, #16384
 2232 0b76 0831     		adds	r1, r1, #8
 2233 0b78 0833     		adds	r3, r3, #8
 2234              	.LVL223:
 2235              	.L90:
 2236              		.loc 3 513 0
 2237 0b7a 13ED027A 		flds	s14, [r3, #-8]
 2238 0b7e D3ED027A 		flds	s15, [r3, #8]
 2239 0b82 77EE277A 		fadds	s15, s14, s15
 2240 0b86 2033     		adds	r3, r3, #32
 2241 0b88 C2ED007A 		fsts	s15, [r2]
 2242              		.loc 3 514 0
 2243 0b8c 13ED0A7A 		flds	s14, [r3, #-40]
 2244 0b90 53ED067A 		flds	s15, [r3, #-24]
 2245 0b94 77EE677A 		fsubs	s15, s14, s15
 2246 0b98 2032     		adds	r2, r2, #32
 2247 0b9a 42ED047A 		fsts	s15, [r2, #-16]
 2248              		.loc 3 515 0
 2249 0b9e 53ED087A 		flds	s15, [r3, #-32]
 2250 0ba2 77EEA77A 		fadds	s15, s15, s15
 2251 0ba6 42ED067A 		fsts	s15, [r2, #-24]
 2252              		.loc 3 516 0
 2253 0baa 53ED047A 		flds	s15, [r3, #-16]
 2254 0bae 77EEA77A 		fadds	s15, s15, s15
 2255 0bb2 42ED027A 		fsts	s15, [r2, #-8]
 2256              		.loc 3 517 0
 2257 0bb6 13ED097A 		flds	s14, [r3, #-36]
 2258 0bba 53ED077A 		flds	s15, [r3, #-28]
 2259 0bbe 77EE277A 		fadds	s15, s14, s15
 2260 0bc2 42ED077A 		fsts	s15, [r2, #-28]
 2261              		.loc 3 518 0
 2262 0bc6 13ED057A 		flds	s14, [r3, #-20]
 2263 0bca 53ED037A 		flds	s15, [r3, #-12]
 2264 0bce 77EE677A 		fsubs	s15, s14, s15
 2265 0bd2 42ED057A 		fsts	s15, [r2, #-20]
 2266              		.loc 3 520 0
 2267 0bd6 53ED056A 		flds	s13, [r3, #-20]
 2268              		.loc 3 519 0
 2269 0bda 13ED096A 		flds	s12, [r3, #-36]
 2270 0bde 53ED077A 		flds	s15, [r3, #-28]
 2271              		.loc 3 520 0
 2272 0be2 13ED037A 		flds	s14, [r3, #-12]
 2273              		.loc 3 519 0
 2274 0be6 76EE677A 		fsubs	s15, s12, s15
 2275              	.LVL224:
 2276              		.loc 3 520 0
 2277 0bea 36EE877A 		fadds	s14, s13, s14
 2278              	.LVL225:
 2279              	.LBE566:
ARM GAS  /tmp/cck6DP7L.s 			page 41


 2280              		.loc 3 511 0
 2281 0bee 8B42     		cmp	r3, r1
 2282              	.LBB567:
 2283              		.loc 3 521 0
 2284 0bf0 77EE876A 		fadds	s13, s15, s14
 2285              		.loc 3 522 0
 2286 0bf4 77EE677A 		fsubs	s15, s14, s15
 2287              	.LVL226:
 2288              		.loc 3 521 0
 2289 0bf8 26EEA57A 		fmuls	s14, s13, s11
 2290              	.LVL227:
 2291              		.loc 3 522 0
 2292 0bfc 67EEA57A 		fmuls	s15, s15, s11
 2293              		.loc 3 521 0
 2294 0c00 02ED037A 		fsts	s14, [r2, #-12]
 2295              	.LVL228:
 2296              		.loc 3 522 0
 2297 0c04 42ED017A 		fsts	s15, [r2, #-4]
 2298              	.LBE567:
 2299              		.loc 3 511 0
 2300 0c08 B7D1     		bne	.L90
 2301 0c0a 0F98     		ldr	r0, [sp, #60]
 2302 0c0c D54B     		ldr	r3, .L159
 2303              	.LBE565:
 2304              	.LBB568:
 2305              	.LBB569:
 2306              		.loc 3 541 0
 2307 0c0e 0D9F     		ldr	r7, [sp, #52]
 2308 0c10 1030     		adds	r0, r0, #16
 2309              	.LBE569:
 2310              	.LBE568:
 2311              	.LBB573:
 2312              		.loc 3 511 0
 2313 0c12 0024     		movs	r4, #0
 2314              	.LBE573:
 2315              	.LBB574:
 2316              	.LBB570:
 2317              		.loc 3 541 0
 2318 0c14 B0EE006A 		fconsts	s12, #0
 2319              	.L91:
 2320              	.LVL229:
 2321              		.loc 3 536 0
 2322 0c18 10ED047A 		flds	s14, [r0, #-16]
 2323 0c1c 50ED027A 		flds	s15, [r0, #-8]
 2324              		.loc 3 538 0
 2325 0c20 10ED035A 		flds	s10, [r0, #-12]
 2326              		.loc 3 539 0
 2327 0c24 50ED015A 		flds	s11, [r0, #-4]
 2328              		.loc 3 531 0
 2329 0c28 E1B2     		uxtb	r1, r4
 2330 0c2a 220A     		lsrs	r2, r4, #8
 2331              		.loc 3 536 0
 2332 0c2c 77EE276A 		fadds	s13, s14, s15
 2333              	.LVL230:
 2334              		.loc 3 537 0
 2335 0c30 77EE677A 		fsubs	s15, s14, s15
 2336              	.LVL231:
ARM GAS  /tmp/cck6DP7L.s 			page 42


 2337              		.loc 3 531 0
 2338 0c34 595C     		ldrb	r1, [r3, r1]	@ zero_extendqisi2
 2339 0c36 9A5C     		ldrb	r2, [r3, r2]	@ zero_extendqisi2
 2340              		.loc 3 541 0
 2341 0c38 F0EE664A 		fcpys	s9, s13
 2342              		.loc 3 543 0
 2343 0c3c B0EE677A 		fcpys	s14, s15
 2344              		.loc 3 531 0
 2345 0c40 42EA0122 		orr	r2, r2, r1, lsl #8
 2346              		.loc 3 541 0
 2347 0c44 E5EE064A 		vfma.f32	s9, s10, s12
 2348              		.loc 3 531 0
 2349 0c48 1211     		asrs	r2, r2, #4
 2350              		.loc 3 541 0
 2351 0c4a 07EB8202 		add	r2, r7, r2, lsl #2
 2352              		.loc 3 542 0
 2353 0c4e E5EE466A 		vfms.f32	s13, s10, s12
 2354              	.LVL232:
 2355              	.LBE570:
 2356              		.loc 3 528 0
 2357 0c52 0434     		adds	r4, r4, #4
 2358              	.LVL233:
 2359              	.LBB571:
 2360              		.loc 3 542 0
 2361 0c54 02F50056 		add	r6, r2, #8192
 2362              		.loc 3 543 0
 2363 0c58 A5EE867A 		vfma.f32	s14, s11, s12
 2364 0c5c 02F58055 		add	r5, r2, #4096
 2365              		.loc 3 544 0
 2366 0c60 02F54051 		add	r1, r2, #12288
 2367 0c64 E5EEC67A 		vfms.f32	s15, s11, s12
 2368              	.LVL234:
 2369              	.LBE571:
 2370              		.loc 3 528 0
 2371 0c68 B4F5805F 		cmp	r4, #4096
 2372 0c6c 00F11000 		add	r0, r0, #16
 2373              	.LVL235:
 2374              	.LBB572:
 2375              		.loc 3 541 0
 2376 0c70 C2ED004A 		fsts	s9, [r2]
 2377              	.LVL236:
 2378              		.loc 3 542 0
 2379 0c74 C6ED006A 		fsts	s13, [r6]
 2380              		.loc 3 543 0
 2381 0c78 85ED007A 		fsts	s14, [r5]
 2382              		.loc 3 544 0
 2383 0c7c C1ED007A 		fsts	s15, [r1]
 2384              	.LVL237:
 2385              	.LBE572:
 2386              		.loc 3 528 0
 2387 0c80 CAD1     		bne	.L91
 2388 0c82 23E6     		b	.L82
 2389              	.LVL238:
 2390              	.L148:
 2391              	.LBE574:
 2392              	.LBE582:
 2393              	.LBE585:
ARM GAS  /tmp/cck6DP7L.s 			page 43


 2394              	.LBE588:
 2395              	.LBE591:
 2396              	.LBB592:
 2397              	.LBB518:
 2398              	.LBB515:
 2399              	.LBB512:
 2400              	.LBB504:
 2401              	.LBB488:
 2402              		.loc 3 598 0
 2403 0c84 0F9B     		ldr	r3, [sp, #60]
 2404              		.loc 3 596 0
 2405 0c86 0E99     		ldr	r1, [sp, #56]
 2406              		.loc 3 598 0
 2407 0c88 0D93     		str	r3, [sp, #52]
 2408              	.LVL239:
 2409 0c8a 76E5     		b	.L73
 2410              	.LVL240:
 2411              	.L48:
 2412              	.LBE488:
 2413              	.LBE504:
 2414              	.LBE512:
 2415              	.LBE515:
 2416              	.LBE518:
 2417              	.LBE592:
 2418              		.loc 1 150 0
 2419 0c8c 1098     		ldr	r0, [sp, #64]
 2420              	.LVL241:
 2421              	.LBB593:
 2422              	.LBB594:
 2423              	.LBB595:
 2424              	.LBB596:
 2425              	.LBB597:
 2426              		.loc 3 229 0
 2427 0c8e 0A9E     		ldr	r6, [sp, #40]
 2428              	.LBE597:
 2429              	.LBE596:
 2430              	.LBE595:
 2431              	.LBE594:
 2432              	.LBE593:
 2433              		.loc 1 150 0
 2434 0c90 8369     		ldr	r3, [r0, #24]
 2435              	.LVL242:
 2436 0c92 0D93     		str	r3, [sp, #52]
 2437 0c94 1A46     		mov	r2, r3
 2438 0c96 B34B     		ldr	r3, .L159
 2439 0c98 D0F800B0 		ldr	fp, [r0]
 2440              	.LVL243:
 2441              	.LBB632:
 2442              	.LBB629:
 2443              	.LBB626:
 2444              	.LBB623:
 2445              	.LBB601:
 2446              		.loc 3 229 0
 2447 0c9c 0024     		movs	r4, #0
 2448 0c9e 02F11000 		add	r0, r2, #16
 2449              	.LVL244:
 2450              	.L63:
ARM GAS  /tmp/cck6DP7L.s 			page 44


 2451              	.LBB598:
 2452              		.loc 3 233 0
 2453 0ca2 E5B2     		uxtb	r5, r4
 2454 0ca4 220A     		lsrs	r2, r4, #8
 2455 0ca6 5D5D     		ldrb	r5, [r3, r5]	@ zero_extendqisi2
 2456 0ca8 9A5C     		ldrb	r2, [r3, r2]	@ zero_extendqisi2
 2457 0caa 42EA0522 		orr	r2, r2, r5, lsl #8
 2458 0cae 1211     		asrs	r2, r2, #4
 2459              		.loc 3 238 0
 2460 0cb0 9200     		lsls	r2, r2, #2
 2461 0cb2 02F50057 		add	r7, r2, #8192
 2462 0cb6 06EB020E 		add	lr, r6, r2
 2463 0cba 3744     		add	r7, r7, r6
 2464 0cbc 9EED007A 		flds	s14, [lr]
 2465 0cc0 D7ED007A 		flds	s15, [r7]
 2466 0cc4 77EE677A 		fsubs	s15, s14, s15
 2467              		.loc 3 239 0
 2468 0cc8 02F58055 		add	r5, r2, #4096
 2469 0ccc 02F54052 		add	r2, r2, #12288
 2470              		.loc 3 238 0
 2471 0cd0 40ED037A 		fsts	s15, [r0, #-12]
 2472              	.LVL245:
 2473              		.loc 3 239 0
 2474 0cd4 3544     		add	r5, r5, r6
 2475 0cd6 3244     		add	r2, r2, r6
 2476 0cd8 95ED007A 		flds	s14, [r5]
 2477 0cdc D2ED007A 		flds	s15, [r2]
 2478 0ce0 77EE677A 		fsubs	s15, s14, s15
 2479              	.LBE598:
 2480              		.loc 3 229 0
 2481 0ce4 0434     		adds	r4, r4, #4
 2482              	.LVL246:
 2483              	.LBB599:
 2484              		.loc 3 239 0
 2485 0ce6 40ED017A 		fsts	s15, [r0, #-4]
 2486              		.loc 3 241 0
 2487 0cea D2ED006A 		flds	s13, [r2]
 2488              		.loc 3 240 0
 2489 0cee 9EED006A 		flds	s12, [lr]
 2490 0cf2 97ED007A 		flds	s14, [r7]
 2491              		.loc 3 241 0
 2492 0cf6 D5ED007A 		flds	s15, [r5]
 2493              		.loc 3 240 0
 2494 0cfa 36EE077A 		fadds	s14, s12, s14
 2495              	.LVL247:
 2496              		.loc 3 241 0
 2497 0cfe 77EEA67A 		fadds	s15, s15, s13
 2498              	.LVL248:
 2499              	.LBE599:
 2500              		.loc 3 229 0
 2501 0d02 B4F5805F 		cmp	r4, #4096
 2502              	.LBB600:
 2503              		.loc 3 242 0
 2504 0d06 77EE276A 		fadds	s13, s14, s15
 2505              		.loc 3 243 0
 2506 0d0a 77EE677A 		fsubs	s15, s14, s15
 2507              	.LVL249:
ARM GAS  /tmp/cck6DP7L.s 			page 45


 2508              		.loc 3 242 0
 2509 0d0e 40ED046A 		fsts	s13, [r0, #-16]
 2510              	.LVL250:
 2511              		.loc 3 243 0
 2512 0d12 40ED027A 		fsts	s15, [r0, #-8]
 2513              	.LVL251:
 2514 0d16 00F11000 		add	r0, r0, #16
 2515              	.LVL252:
 2516              	.LBE600:
 2517              		.loc 3 229 0
 2518 0d1a C2D1     		bne	.L63
 2519 0d1c 0D9A     		ldr	r2, [sp, #52]
 2520              	.LBE601:
 2521              	.LBB602:
 2522              	.LBB603:
 2523              		.loc 3 259 0
 2524 0d1e DFED926A 		flds	s13, .L159+4
 2525 0d22 1346     		mov	r3, r2
 2526 0d24 02F58040 		add	r0, r2, #16384
 2527              	.LVL253:
 2528 0d28 0830     		adds	r0, r0, #8
 2529 0d2a 0833     		adds	r3, r3, #8
 2530              	.LVL254:
 2531              	.L64:
 2532              		.loc 3 253 0
 2533 0d2c 13ED027A 		flds	s14, [r3, #-8]
 2534 0d30 D3ED027A 		flds	s15, [r3, #8]
 2535 0d34 77EE277A 		fadds	s15, s14, s15
 2536 0d38 2033     		adds	r3, r3, #32
 2537 0d3a C1ED007A 		fsts	s15, [r1]
 2538              		.loc 3 254 0
 2539 0d3e 13ED0A7A 		flds	s14, [r3, #-40]
 2540 0d42 53ED067A 		flds	s15, [r3, #-24]
 2541 0d46 77EE677A 		fsubs	s15, s14, s15
 2542 0d4a 2031     		adds	r1, r1, #32
 2543 0d4c 41ED047A 		fsts	s15, [r1, #-16]
 2544              		.loc 3 255 0
 2545 0d50 53F8202C 		ldr	r2, [r3, #-32]	@ float
 2546 0d54 41F8182C 		str	r2, [r1, #-24]	@ float
 2547              		.loc 3 256 0
 2548 0d58 53F8102C 		ldr	r2, [r3, #-16]	@ float
 2549 0d5c 41F8082C 		str	r2, [r1, #-8]	@ float
 2550              		.loc 3 258 0
 2551 0d60 13ED057A 		flds	s14, [r3, #-20]
 2552 0d64 53ED037A 		flds	s15, [r3, #-12]
 2553              		.loc 3 259 0
 2554 0d68 13ED096A 		flds	s12, [r3, #-36]
 2555              		.loc 3 258 0
 2556 0d6c 77EE677A 		fsubs	s15, s14, s15
 2557              	.LVL255:
 2558              		.loc 3 259 0
 2559 0d70 B0EE467A 		fcpys	s14, s12
 2560 0d74 A7EEA67A 		vfma.f32	s14, s15, s13
 2561 0d78 01ED077A 		fsts	s14, [r1, #-28]
 2562              		.loc 3 260 0
 2563 0d7c 13ED097A 		flds	s14, [r3, #-36]
 2564 0d80 A7EEE67A 		vfms.f32	s14, s15, s13
ARM GAS  /tmp/cck6DP7L.s 			page 46


 2565 0d84 01ED057A 		fsts	s14, [r1, #-20]
 2566              		.loc 3 262 0
 2567 0d88 13ED057A 		flds	s14, [r3, #-20]
 2568 0d8c 53ED037A 		flds	s15, [r3, #-12]
 2569              	.LVL256:
 2570              		.loc 3 263 0
 2571 0d90 13ED076A 		flds	s12, [r3, #-28]
 2572              		.loc 3 262 0
 2573 0d94 77EE277A 		fadds	s15, s14, s15
 2574              	.LVL257:
 2575              		.loc 3 263 0
 2576 0d98 B0EE467A 		fcpys	s14, s12
 2577 0d9c A7EEA67A 		vfma.f32	s14, s15, s13
 2578 0da0 01ED037A 		fsts	s14, [r1, #-12]
 2579 0da4 13ED077A 		flds	s14, [r3, #-28]
 2580              		.loc 3 264 0
 2581 0da8 97EEA67A 		vfnms.f32	s14, s15, s13
 2582              	.LBE603:
 2583              		.loc 3 250 0
 2584 0dac 8342     		cmp	r3, r0
 2585              	.LBB604:
 2586              		.loc 3 264 0
 2587 0dae 01ED017A 		fsts	s14, [r1, #-4]
 2588              	.LVL258:
 2589              	.LBE604:
 2590              		.loc 3 250 0
 2591 0db2 BBD1     		bne	.L64
 2592              	.LBE602:
 2593              	.LBE623:
 2594              	.LBE626:
 2595              	.LBE629:
 2596              	.LBE632:
 2597              		.loc 1 150 0
 2598 0db4 0D9B     		ldr	r3, [sp, #52]
 2599 0db6 0C93     		str	r3, [sp, #48]
 2600              	.LBB633:
 2601              	.LBB630:
 2602              	.LBB627:
 2603              	.LBB624:
 2604              	.LBB605:
 2605              		.loc 3 250 0
 2606 0db8 0323     		movs	r3, #3
 2607 0dba 0B93     		str	r3, [sp, #44]
 2608              	.LVL259:
 2609              	.L67:
 2610              	.LBE605:
 2611              	.LBB606:
 2612              	.LBB607:
 2613              		.loc 3 276 0
 2614 0dbc 0B9D     		ldr	r5, [sp, #44]
 2615 0dbe 0122     		movs	r2, #1
 2616 0dc0 AA40     		lsls	r2, r2, r5
 2617              	.LVL260:
 2618              		.loc 3 277 0
 2619 0dc2 4FEA520C 		lsr	ip, r2, #1
 2620              	.LVL261:
 2621 0dc6 4FEA8C03 		lsl	r3, ip, #2
ARM GAS  /tmp/cck6DP7L.s 			page 47


 2622 0dca 1C46     		mov	r4, r3
 2623 0dcc 181D     		adds	r0, r3, #4
 2624 0dce 0593     		str	r3, [sp, #20]
 2625 0dd0 EB1E     		subs	r3, r5, #3
 2626 0dd2 0A9D     		ldr	r5, [sp, #40]
 2627 0dd4 2818     		adds	r0, r5, r0
 2628 0dd6 0290     		str	r0, [sp, #8]
 2629 0dd8 201F     		subs	r0, r4, #4
 2630 0dda 0890     		str	r0, [sp, #32]
 2631 0ddc 0C98     		ldr	r0, [sp, #48]
 2632 0dde 9100     		lsls	r1, r2, #2
 2633 0de0 0BEBC303 		add	r3, fp, r3, lsl #3
 2634 0de4 01F10408 		add	r8, r1, #4
 2635 0de8 0993     		str	r3, [sp, #36]
 2636 0dea 0439     		subs	r1, r1, #4
 2637 0dec 031D     		adds	r3, r0, #4
 2638 0dee 0791     		str	r1, [sp, #28]
 2639 0df0 0193     		str	r3, [sp, #4]
 2640 0df2 5100     		lsls	r1, r2, #1
 2641              	.LBB608:
 2642              		.loc 3 279 0
 2643 0df4 0023     		movs	r3, #0
 2644 0df6 D200     		lsls	r2, r2, #3
 2645              	.LVL262:
 2646 0df8 05EB0809 		add	r9, r5, r8
 2647 0dfc 0691     		str	r1, [sp, #24]
 2648 0dfe 8044     		add	r8, r8, r0
 2649 0e00 0492     		str	r2, [sp, #16]
 2650 0e02 05F1040A 		add	r10, r5, #4
 2651 0e06 0393     		str	r3, [sp, #12]
 2652              	.LVL263:
 2653              	.L66:
 2654              	.LBB609:
 2655              		.loc 3 285 0
 2656 0e08 1AED017A 		flds	s14, [r10, #-4]
 2657 0e0c 59ED017A 		flds	s15, [r9, #-4]
 2658 0e10 019D     		ldr	r5, [sp, #4]
 2659 0e12 059C     		ldr	r4, [sp, #20]
 2660              		.loc 3 287 0
 2661 0e14 0298     		ldr	r0, [sp, #8]
 2662              		.loc 3 285 0
 2663 0e16 77EE277A 		fadds	s15, s14, s15
 2664 0e1a 2A19     		adds	r2, r5, r4
 2665 0e1c 45ED017A 		fsts	s15, [r5, #-4]
 2666              		.loc 3 286 0
 2667 0e20 1AED017A 		flds	s14, [r10, #-4]
 2668 0e24 59ED017A 		flds	s15, [r9, #-4]
 2669 0e28 77EE677A 		fsubs	s15, s14, s15
 2670 0e2c 09EB0403 		add	r3, r9, r4
 2671 0e30 48ED017A 		fsts	s15, [r8, #-4]
 2672              		.loc 3 287 0
 2673 0e34 50F8041C 		ldr	r1, [r0, #-4]	@ float
 2674 0e38 42F8041C 		str	r1, [r2, #-4]	@ float
 2675              		.loc 3 288 0
 2676 0e3c 53F8042C 		ldr	r2, [r3, #-4]	@ float
 2677 0e40 08EB0403 		add	r3, r8, r4
 2678 0e44 A8F1040E 		sub	lr, r8, #4
ARM GAS  /tmp/cck6DP7L.s 			page 48


 2679 0e48 43F8042C 		str	r2, [r3, #-4]	@ float
 2680              	.LVL264:
 2681              	.LBB610:
 2682              	.LBB611:
 2683              		.loc 3 173 0
 2684 0e4c 099A     		ldr	r2, [sp, #36]
 2685 0e4e 089B     		ldr	r3, [sp, #32]
 2686 0e50 D2ED007A 		flds	s15, [r2]
 2687 0e54 CBED147A 		fsts	s15, [fp, #80]
 2688 0e58 CBED127A 		fsts	s15, [fp, #72]
 2689              		.loc 3 174 0
 2690 0e5c 92ED016A 		flds	s12, [r2, #4]
 2691 0e60 03EB0904 		add	r4, r3, r9
 2692              	.LVL265:
 2693 0e64 079B     		ldr	r3, [sp, #28]
 2694 0e66 8BED156A 		fsts	s12, [fp, #84]
 2695 0e6a 03EB0807 		add	r7, r3, r8
 2696 0e6e 8BED136A 		fsts	s12, [fp, #76]
 2697              	.LVL266:
 2698 0e72 4646     		mov	r6, r8
 2699 0e74 5146     		mov	r1, r10
 2700 0e76 4A46     		mov	r2, r9
 2701              	.LBE611:
 2702              	.LBE610:
 2703              	.LBB612:
 2704              		.loc 3 292 0
 2705 0e78 0123     		movs	r3, #1
 2706              	.LVL267:
 2707              	.L65:
 2708              	.LBB613:
 2709              		.loc 3 297 0
 2710 0e7a 94ED017A 		flds	s14, [r4, #4]
 2711 0e7e D2ED005A 		flds	s11, [r2]
 2712              		.loc 3 298 0
 2713 0e82 D1ED006A 		flds	s13, [r1]
 2714 0e86 27EE467A 		fnmuls	s14, s14, s12
 2715              		.loc 3 301 0
 2716 0e8a 0434     		adds	r4, r4, #4
 2717              		.loc 3 297 0
 2718 0e8c A5EEA77A 		vfma.f32	s14, s11, s15
 2719              	.LVL268:
 2720              	.LBE613:
 2721              		.loc 3 292 0
 2722 0e90 0133     		adds	r3, r3, #1
 2723              	.LVL269:
 2724 0e92 6345     		cmp	r3, ip
 2725              	.LBB616:
 2726              		.loc 3 298 0
 2727 0e94 77EE266A 		fadds	s13, s14, s13
 2728 0e98 E5EC016A 		fstmias	r5!, {s13}
 2729              		.loc 3 299 0
 2730 0e9c F1EC016A 		fldmias	r1!, {s13}
 2731 0ea0 36EEC77A 		fsubs	s14, s13, s14
 2732              	.LVL270:
 2733 0ea4 2EED017A 		fstmdbs	lr!, {s14}
 2734              		.loc 3 301 0
 2735 0ea8 94ED007A 		flds	s14, [r4]
ARM GAS  /tmp/cck6DP7L.s 			page 49


 2736 0eac F2EC015A 		fldmias	r2!, {s11}
 2737              		.loc 3 302 0
 2738 0eb0 D0ED006A 		flds	s13, [r0]
 2739              		.loc 3 301 0
 2740 0eb4 67EE877A 		fmuls	s15, s15, s14
 2741 0eb8 E5EE867A 		vfma.f32	s15, s11, s12
 2742              	.LVL271:
 2743              		.loc 3 302 0
 2744 0ebc 37EEA67A 		fadds	s14, s15, s13
 2745 0ec0 A6EC017A 		fstmias	r6!, {s14}
 2746              		.loc 3 303 0
 2747 0ec4 B0EC017A 		fldmias	r0!, {s14}
 2748 0ec8 77EEC77A 		fsubs	s15, s15, s14
 2749              	.LVL272:
 2750 0ecc 67ED017A 		fstmdbs	r7!, {s15}
 2751              	.LVL273:
 2752              	.LBB614:
 2753              	.LBB615:
 2754              		.loc 3 178 0
 2755 0ed0 DBED137A 		flds	s15, [fp, #76]
 2756 0ed4 9BED147A 		flds	s14, [fp, #80]
 2757 0ed8 DBED155A 		flds	s11, [fp, #84]
 2758 0edc DBED126A 		flds	s13, [fp, #72]
 2759              		.loc 3 179 0
 2760 0ee0 27EE276A 		fmuls	s12, s14, s15
 2761 0ee4 65EEE77A 		fnmuls	s15, s11, s15
 2762 0ee8 A6EEA56A 		vfma.f32	s12, s13, s11
 2763              		.loc 3 178 0
 2764 0eec E6EE877A 		vfma.f32	s15, s13, s14
 2765              	.LVL274:
 2766              		.loc 3 179 0
 2767 0ef0 8BED136A 		fsts	s12, [fp, #76]
 2768              		.loc 3 180 0
 2769 0ef4 CBED127A 		fsts	s15, [fp, #72]
 2770              	.LBE615:
 2771              	.LBE614:
 2772              	.LBE616:
 2773              		.loc 3 292 0
 2774 0ef8 BFD1     		bne	.L65
 2775              	.LBE612:
 2776              	.LBE609:
 2777              		.loc 3 279 0
 2778 0efa 039B     		ldr	r3, [sp, #12]
 2779              	.LVL275:
 2780 0efc 069A     		ldr	r2, [sp, #24]
 2781 0efe 1344     		add	r3, r3, r2
 2782 0f00 049A     		ldr	r2, [sp, #16]
 2783 0f02 0393     		str	r3, [sp, #12]
 2784              	.LVL276:
 2785 0f04 1846     		mov	r0, r3
 2786              	.LVL277:
 2787 0f06 9144     		add	r9, r9, r2
 2788 0f08 1346     		mov	r3, r2
 2789 0f0a 9244     		add	r10, r10, r2
 2790              	.LVL278:
 2791 0f0c 019A     		ldr	r2, [sp, #4]
 2792 0f0e 1446     		mov	r4, r2
ARM GAS  /tmp/cck6DP7L.s 			page 50


 2793 0f10 1C44     		add	r4, r4, r3
 2794 0f12 1A46     		mov	r2, r3
 2795 0f14 029B     		ldr	r3, [sp, #8]
 2796 0f16 0194     		str	r4, [sp, #4]
 2797 0f18 1C46     		mov	r4, r3
 2798 0f1a 1444     		add	r4, r4, r2
 2799 0f1c B0F5805F 		cmp	r0, #4096
 2800 0f20 0294     		str	r4, [sp, #8]
 2801 0f22 9044     		add	r8, r8, r2
 2802 0f24 FFF470AF 		bcc	.L66
 2803              	.LBE608:
 2804              	.LBE607:
 2805              		.loc 3 268 0
 2806 0f28 0B9B     		ldr	r3, [sp, #44]
 2807 0f2a 0133     		adds	r3, r3, #1
 2808 0f2c 0C2B     		cmp	r3, #12
 2809 0f2e 0B93     		str	r3, [sp, #44]
 2810              	.LVL279:
 2811 0f30 09D0     		beq	.L154
 2812 0f32 0A9B     		ldr	r3, [sp, #40]
 2813              	.LVL280:
 2814 0f34 0C9A     		ldr	r2, [sp, #48]
 2815 0f36 0A92     		str	r2, [sp, #40]
 2816              	.LVL281:
 2817 0f38 0C93     		str	r3, [sp, #48]
 2818              	.LVL282:
 2819 0f3a 3FE7     		b	.L67
 2820              	.LVL283:
 2821              	.L143:
 2822              		.cfi_def_cfa_offset 0
 2823              		.cfi_restore 4
 2824              		.cfi_restore 5
 2825              		.cfi_restore 6
 2826              		.cfi_restore 7
 2827              		.cfi_restore 8
 2828              		.cfi_restore 9
 2829              		.cfi_restore 10
 2830              		.cfi_restore 11
 2831              		.cfi_restore 14
 2832 0f3c 7047     		bx	lr
 2833              	.LVL284:
 2834              	.L110:
 2835              		.cfi_def_cfa_offset 120
 2836              		.cfi_offset 4, -36
 2837              		.cfi_offset 5, -32
 2838              		.cfi_offset 6, -28
 2839              		.cfi_offset 7, -24
 2840              		.cfi_offset 8, -20
 2841              		.cfi_offset 9, -16
 2842              		.cfi_offset 10, -12
 2843              		.cfi_offset 11, -8
 2844              		.cfi_offset 14, -4
 2845              	.LBE606:
 2846              	.LBE624:
 2847              	.LBE627:
 2848              	.LBE630:
 2849              	.LBE633:
ARM GAS  /tmp/cck6DP7L.s 			page 51


 2850              	.LBB634:
 2851              	.LBB589:
 2852              	.LBB586:
 2853              	.LBB583:
 2854              	.LBB575:
 2855              	.LBB564:
 2856              		.loc 3 497 0
 2857 0f3e 0F9B     		ldr	r3, [sp, #60]
 2858              		.loc 3 495 0
 2859 0f40 0D99     		ldr	r1, [sp, #52]
 2860              		.loc 3 497 0
 2861 0f42 0B93     		str	r3, [sp, #44]
 2862              	.LVL285:
 2863 0f44 05E6     		b	.L87
 2864              	.LVL286:
 2865              	.L154:
 2866              	.LBE564:
 2867              	.LBE575:
 2868              	.LBE583:
 2869              	.LBE586:
 2870              	.LBE589:
 2871              	.LBE634:
 2872              	.LBB635:
 2873              	.LBB631:
 2874              	.LBB628:
 2875              	.LBB625:
 2876              		.loc 3 310 0
 2877 0f46 0D98     		ldr	r0, [sp, #52]
 2878              	.LVL287:
 2879 0f48 0C99     		ldr	r1, [sp, #48]
 2880 0f4a 8842     		cmp	r0, r1
 2881 0f4c 07D0     		beq	.L106
 2882              	.LVL288:
 2883              	.LBB617:
 2884              	.LBB618:
 2885              	.LBB619:
 2886              	.LBB620:
 2887              	.LBB621:
 2888              	.LBB622:
 2889              		.loc 2 378 0
 2890 0f4e 4FF48042 		mov	r2, #16384
 2891 0f52 FFF7FEFF 		bl	memmove
 2892              	.LVL289:
 2893 0f56 109B     		ldr	r3, [sp, #64]
 2894 0f58 9B69     		ldr	r3, [r3, #24]
 2895 0f5a FFF70EBB 		b	.L62
 2896              	.LVL290:
 2897              	.L106:
 2898              	.LBE622:
 2899              	.LBE621:
 2900              	.LBE620:
 2901              	.LBE619:
 2902              	.LBE618:
 2903              	.LBE617:
 2904              		.loc 3 310 0
 2905 0f5e 0D9B     		ldr	r3, [sp, #52]
 2906              	.LVL291:
ARM GAS  /tmp/cck6DP7L.s 			page 52


 2907 0f60 FFF70BBB 		b	.L62
 2908              	.L160:
 2909              		.align	2
 2910              	.L159:
 2911 0f64 00000000 		.word	_ZN6stmlib6ShyFFTIfLj4096ENS_14RotationPhasorEE16bit_rev_256_lut_E
 2912 0f68 F304353F 		.word	1060439283
 2913              	.LVL292:
 2914              	.L151:
 2915              	.LBE625:
 2916              	.LBE628:
 2917              	.LBE631:
 2918              	.LBE635:
 2919              	.LBB636:
 2920              	.LBB543:
 2921              	.LBB541:
 2922              	.LBB539:
 2923              	.LBB537:
 2924              	.LBB535:
 2925              		.loc 2 378 0
 2926 0f6c 1946     		mov	r1, r3
 2927 0f6e FFF7FEFF 		bl	memmove
 2928              	.LVL293:
 2929 0f72 109A     		ldr	r2, [sp, #64]
 2930 0f74 5368     		ldr	r3, [r2, #4]
 2931 0f76 1293     		str	r3, [sp, #72]
 2932 0f78 136A     		ldr	r3, [r2, #32]
 2933 0f7a 0F93     		str	r3, [sp, #60]
 2934 0f7c FFF70EBB 		b	.L69
 2935              	.LVL294:
 2936              	.L149:
 2937 0f80 109B     		ldr	r3, [sp, #64]
 2938 0f82 1F69     		ldr	r7, [r3, #16]
 2939 0f84 E8E4     		b	.L93
 2940              	.LVL295:
 2941              	.L108:
 2942              	.LBE535:
 2943              	.LBE537:
 2944              	.LBE539:
 2945              	.LBE541:
 2946              	.LBE543:
 2947              	.LBE636:
 2948              	.LBB637:
 2949              	.LBB519:
 2950              	.LBB516:
 2951              	.LBB513:
 2952              		.loc 3 555 0
 2953 0f86 0F99     		ldr	r1, [sp, #60]
 2954              	.LVL296:
 2955              	.L71:
 2956              	.LBB505:
 2957              	.LBB506:
 2958              	.LBB507:
 2959              	.LBB508:
 2960              	.LBB509:
 2961              	.LBB510:
 2962              		.loc 2 377 0
 2963 0f88 059B     		ldr	r3, [sp, #20]
ARM GAS  /tmp/cck6DP7L.s 			page 53


 2964 0f8a 9A00     		lsls	r2, r3, #2
 2965 0f8c 3FF400AC 		beq	.L81
 2966              		.loc 2 378 0
 2967 0f90 0E98     		ldr	r0, [sp, #56]
 2968 0f92 FFF7FEFF 		bl	memmove
 2969              	.LVL297:
 2970 0f96 109B     		ldr	r3, [sp, #64]
 2971 0f98 5B68     		ldr	r3, [r3, #4]
 2972 0f9a 1293     		str	r3, [sp, #72]
 2973 0f9c FFF7F8BB 		b	.L81
 2974              	.LVL298:
 2975              	.L145:
 2976 0fa0 5369     		ldr	r3, [r2, #20]
 2977              	.LVL299:
 2978 0fa2 0C93     		str	r3, [sp, #48]
 2979 0fa4 FFF763B9 		b	.L45
 2980              	.LVL300:
 2981              	.L153:
 2982              	.LBE510:
 2983              	.LBE509:
 2984              	.LBE508:
 2985              	.LBE507:
 2986              	.LBE506:
 2987              	.LBE505:
 2988              	.LBE513:
 2989              	.LBE516:
 2990              	.LBE519:
 2991              	.LBE637:
 2992              	.LBB638:
 2993              	.LBB590:
 2994              	.LBB587:
 2995              	.LBB584:
 2996              	.LBB576:
 2997              	.LBB577:
 2998              	.LBB578:
 2999              	.LBB579:
 3000              	.LBB580:
 3001              	.LBB581:
 3002 0fa8 1846     		mov	r0, r3
 3003              	.LVL301:
 3004 0faa 4FF48042 		mov	r2, #16384
 3005              	.LVL302:
 3006 0fae FFF7FEFF 		bl	memmove
 3007              	.LVL303:
 3008 0fb2 109B     		ldr	r3, [sp, #64]
 3009 0fb4 5B68     		ldr	r3, [r3, #4]
 3010 0fb6 1293     		str	r3, [sp, #72]
 3011 0fb8 D6E5     		b	.L89
 3012              	.LBE581:
 3013              	.LBE580:
 3014              	.LBE579:
 3015              	.LBE578:
 3016              	.LBE577:
 3017              	.LBE576:
 3018              	.LBE584:
 3019              	.LBE587:
 3020              	.LBE590:
ARM GAS  /tmp/cck6DP7L.s 			page 54


 3021              	.LBE638:
 3022              	.LBE641:
 3023              		.cfi_endproc
 3024              	.LFE606:
 3025              		.fnend
 3026              		.size	_ZN6clouds4STFT6BufferEv, .-_ZN6clouds4STFT6BufferEv
 3027              		.weak	_ZN6stmlib6ShyFFTIfLj4096ENS_14RotationPhasorEE16bit_rev_256_lut_E
 3028              		.section	.rodata._ZN6stmlib6ShyFFTIfLj4096ENS_14RotationPhasorEE16bit_rev_256_lut_E,"aG",%progbits
 3029              		.align	2
 3030              		.type	_ZN6stmlib6ShyFFTIfLj4096ENS_14RotationPhasorEE16bit_rev_256_lut_E, %object
 3031              		.size	_ZN6stmlib6ShyFFTIfLj4096ENS_14RotationPhasorEE16bit_rev_256_lut_E, 256
 3032              	_ZN6stmlib6ShyFFTIfLj4096ENS_14RotationPhasorEE16bit_rev_256_lut_E:
 3033 0000 00       		.byte	0
 3034 0001 80       		.byte	-128
 3035 0002 40       		.byte	64
 3036 0003 C0       		.byte	-64
 3037 0004 20       		.byte	32
 3038 0005 A0       		.byte	-96
 3039 0006 60       		.byte	96
 3040 0007 E0       		.byte	-32
 3041 0008 10       		.byte	16
 3042 0009 90       		.byte	-112
 3043 000a 50       		.byte	80
 3044 000b D0       		.byte	-48
 3045 000c 30       		.byte	48
 3046 000d B0       		.byte	-80
 3047 000e 70       		.byte	112
 3048 000f F0       		.byte	-16
 3049 0010 08       		.byte	8
 3050 0011 88       		.byte	-120
 3051 0012 48       		.byte	72
 3052 0013 C8       		.byte	-56
 3053 0014 28       		.byte	40
 3054 0015 A8       		.byte	-88
 3055 0016 68       		.byte	104
 3056 0017 E8       		.byte	-24
 3057 0018 18       		.byte	24
 3058 0019 98       		.byte	-104
 3059 001a 58       		.byte	88
 3060 001b D8       		.byte	-40
 3061 001c 38       		.byte	56
 3062 001d B8       		.byte	-72
 3063 001e 78       		.byte	120
 3064 001f F8       		.byte	-8
 3065 0020 04       		.byte	4
 3066 0021 84       		.byte	-124
 3067 0022 44       		.byte	68
 3068 0023 C4       		.byte	-60
 3069 0024 24       		.byte	36
 3070 0025 A4       		.byte	-92
 3071 0026 64       		.byte	100
 3072 0027 E4       		.byte	-28
 3073 0028 14       		.byte	20
 3074 0029 94       		.byte	-108
 3075 002a 54       		.byte	84
 3076 002b D4       		.byte	-44
 3077 002c 34       		.byte	52
ARM GAS  /tmp/cck6DP7L.s 			page 55


 3078 002d B4       		.byte	-76
 3079 002e 74       		.byte	116
 3080 002f F4       		.byte	-12
 3081 0030 0C       		.byte	12
 3082 0031 8C       		.byte	-116
 3083 0032 4C       		.byte	76
 3084 0033 CC       		.byte	-52
 3085 0034 2C       		.byte	44
 3086 0035 AC       		.byte	-84
 3087 0036 6C       		.byte	108
 3088 0037 EC       		.byte	-20
 3089 0038 1C       		.byte	28
 3090 0039 9C       		.byte	-100
 3091 003a 5C       		.byte	92
 3092 003b DC       		.byte	-36
 3093 003c 3C       		.byte	60
 3094 003d BC       		.byte	-68
 3095 003e 7C       		.byte	124
 3096 003f FC       		.byte	-4
 3097 0040 02       		.byte	2
 3098 0041 82       		.byte	-126
 3099 0042 42       		.byte	66
 3100 0043 C2       		.byte	-62
 3101 0044 22       		.byte	34
 3102 0045 A2       		.byte	-94
 3103 0046 62       		.byte	98
 3104 0047 E2       		.byte	-30
 3105 0048 12       		.byte	18
 3106 0049 92       		.byte	-110
 3107 004a 52       		.byte	82
 3108 004b D2       		.byte	-46
 3109 004c 32       		.byte	50
 3110 004d B2       		.byte	-78
 3111 004e 72       		.byte	114
 3112 004f F2       		.byte	-14
 3113 0050 0A       		.byte	10
 3114 0051 8A       		.byte	-118
 3115 0052 4A       		.byte	74
 3116 0053 CA       		.byte	-54
 3117 0054 2A       		.byte	42
 3118 0055 AA       		.byte	-86
 3119 0056 6A       		.byte	106
 3120 0057 EA       		.byte	-22
 3121 0058 1A       		.byte	26
 3122 0059 9A       		.byte	-102
 3123 005a 5A       		.byte	90
 3124 005b DA       		.byte	-38
 3125 005c 3A       		.byte	58
 3126 005d BA       		.byte	-70
 3127 005e 7A       		.byte	122
 3128 005f FA       		.byte	-6
 3129 0060 06       		.byte	6
 3130 0061 86       		.byte	-122
 3131 0062 46       		.byte	70
 3132 0063 C6       		.byte	-58
 3133 0064 26       		.byte	38
 3134 0065 A6       		.byte	-90
ARM GAS  /tmp/cck6DP7L.s 			page 56


 3135 0066 66       		.byte	102
 3136 0067 E6       		.byte	-26
 3137 0068 16       		.byte	22
 3138 0069 96       		.byte	-106
 3139 006a 56       		.byte	86
 3140 006b D6       		.byte	-42
 3141 006c 36       		.byte	54
 3142 006d B6       		.byte	-74
 3143 006e 76       		.byte	118
 3144 006f F6       		.byte	-10
 3145 0070 0E       		.byte	14
 3146 0071 8E       		.byte	-114
 3147 0072 4E       		.byte	78
 3148 0073 CE       		.byte	-50
 3149 0074 2E       		.byte	46
 3150 0075 AE       		.byte	-82
 3151 0076 6E       		.byte	110
 3152 0077 EE       		.byte	-18
 3153 0078 1E       		.byte	30
 3154 0079 9E       		.byte	-98
 3155 007a 5E       		.byte	94
 3156 007b DE       		.byte	-34
 3157 007c 3E       		.byte	62
 3158 007d BE       		.byte	-66
 3159 007e 7E       		.byte	126
 3160 007f FE       		.byte	-2
 3161 0080 01       		.byte	1
 3162 0081 81       		.byte	-127
 3163 0082 41       		.byte	65
 3164 0083 C1       		.byte	-63
 3165 0084 21       		.byte	33
 3166 0085 A1       		.byte	-95
 3167 0086 61       		.byte	97
 3168 0087 E1       		.byte	-31
 3169 0088 11       		.byte	17
 3170 0089 91       		.byte	-111
 3171 008a 51       		.byte	81
 3172 008b D1       		.byte	-47
 3173 008c 31       		.byte	49
 3174 008d B1       		.byte	-79
 3175 008e 71       		.byte	113
 3176 008f F1       		.byte	-15
 3177 0090 09       		.byte	9
 3178 0091 89       		.byte	-119
 3179 0092 49       		.byte	73
 3180 0093 C9       		.byte	-55
 3181 0094 29       		.byte	41
 3182 0095 A9       		.byte	-87
 3183 0096 69       		.byte	105
 3184 0097 E9       		.byte	-23
 3185 0098 19       		.byte	25
 3186 0099 99       		.byte	-103
 3187 009a 59       		.byte	89
 3188 009b D9       		.byte	-39
 3189 009c 39       		.byte	57
 3190 009d B9       		.byte	-71
 3191 009e 79       		.byte	121
ARM GAS  /tmp/cck6DP7L.s 			page 57


 3192 009f F9       		.byte	-7
 3193 00a0 05       		.byte	5
 3194 00a1 85       		.byte	-123
 3195 00a2 45       		.byte	69
 3196 00a3 C5       		.byte	-59
 3197 00a4 25       		.byte	37
 3198 00a5 A5       		.byte	-91
 3199 00a6 65       		.byte	101
 3200 00a7 E5       		.byte	-27
 3201 00a8 15       		.byte	21
 3202 00a9 95       		.byte	-107
 3203 00aa 55       		.byte	85
 3204 00ab D5       		.byte	-43
 3205 00ac 35       		.byte	53
 3206 00ad B5       		.byte	-75
 3207 00ae 75       		.byte	117
 3208 00af F5       		.byte	-11
 3209 00b0 0D       		.byte	13
 3210 00b1 8D       		.byte	-115
 3211 00b2 4D       		.byte	77
 3212 00b3 CD       		.byte	-51
 3213 00b4 2D       		.byte	45
 3214 00b5 AD       		.byte	-83
 3215 00b6 6D       		.byte	109
 3216 00b7 ED       		.byte	-19
 3217 00b8 1D       		.byte	29
 3218 00b9 9D       		.byte	-99
 3219 00ba 5D       		.byte	93
 3220 00bb DD       		.byte	-35
 3221 00bc 3D       		.byte	61
 3222 00bd BD       		.byte	-67
 3223 00be 7D       		.byte	125
 3224 00bf FD       		.byte	-3
 3225 00c0 03       		.byte	3
 3226 00c1 83       		.byte	-125
 3227 00c2 43       		.byte	67
 3228 00c3 C3       		.byte	-61
 3229 00c4 23       		.byte	35
 3230 00c5 A3       		.byte	-93
 3231 00c6 63       		.byte	99
 3232 00c7 E3       		.byte	-29
 3233 00c8 13       		.byte	19
 3234 00c9 93       		.byte	-109
 3235 00ca 53       		.byte	83
 3236 00cb D3       		.byte	-45
 3237 00cc 33       		.byte	51
 3238 00cd B3       		.byte	-77
 3239 00ce 73       		.byte	115
 3240 00cf F3       		.byte	-13
 3241 00d0 0B       		.byte	11
 3242 00d1 8B       		.byte	-117
 3243 00d2 4B       		.byte	75
 3244 00d3 CB       		.byte	-53
 3245 00d4 2B       		.byte	43
 3246 00d5 AB       		.byte	-85
 3247 00d6 6B       		.byte	107
 3248 00d7 EB       		.byte	-21
ARM GAS  /tmp/cck6DP7L.s 			page 58


 3249 00d8 1B       		.byte	27
 3250 00d9 9B       		.byte	-101
 3251 00da 5B       		.byte	91
 3252 00db DB       		.byte	-37
 3253 00dc 3B       		.byte	59
 3254 00dd BB       		.byte	-69
 3255 00de 7B       		.byte	123
 3256 00df FB       		.byte	-5
 3257 00e0 07       		.byte	7
 3258 00e1 87       		.byte	-121
 3259 00e2 47       		.byte	71
 3260 00e3 C7       		.byte	-57
 3261 00e4 27       		.byte	39
 3262 00e5 A7       		.byte	-89
 3263 00e6 67       		.byte	103
 3264 00e7 E7       		.byte	-25
 3265 00e8 17       		.byte	23
 3266 00e9 97       		.byte	-105
 3267 00ea 57       		.byte	87
 3268 00eb D7       		.byte	-41
 3269 00ec 37       		.byte	55
 3270 00ed B7       		.byte	-73
 3271 00ee 77       		.byte	119
 3272 00ef F7       		.byte	-9
 3273 00f0 0F       		.byte	15
 3274 00f1 8F       		.byte	-113
 3275 00f2 4F       		.byte	79
 3276 00f3 CF       		.byte	-49
 3277 00f4 2F       		.byte	47
 3278 00f5 AF       		.byte	-81
 3279 00f6 6F       		.byte	111
 3280 00f7 EF       		.byte	-17
 3281 00f8 1F       		.byte	31
 3282 00f9 9F       		.byte	-97
 3283 00fa 5F       		.byte	95
 3284 00fb DF       		.byte	-33
 3285 00fc 3F       		.byte	63
 3286 00fd BF       		.byte	-65
 3287 00fe 7F       		.byte	127
 3288 00ff FF       		.byte	-1
 3289              		.text
 3290              	.Letext0:
 3291              		.file 5 "/home/sbcu/Dropbox/pcb-layouts/axo-on-discovery-board/axoloti/platform_linux/arm-none-eab
 3292              		.file 6 "/home/sbcu/Dropbox/pcb-layouts/axo-on-discovery-board/axoloti/platform_linux/arm-none-eab
 3293              		.file 7 "/home/sbcu/Dropbox/pcb-layouts/axo-on-discovery-board/axoloti/platform_linux/lib/gcc/arm-
 3294              		.file 8 "/home/sbcu/Dropbox/pcb-layouts/axo-on-discovery-board/axoloti/platform_linux/arm-none-eab
 3295              		.file 9 "./mutable_instruments/stmlib/stmlib.h"
 3296              		.file 10 "/home/sbcu/Dropbox/pcb-layouts/axo-on-discovery-board/axoloti/platform_linux/arm-none-ea
 3297              		.file 11 "/home/sbcu/Dropbox/pcb-layouts/axo-on-discovery-board/axoloti/platform_linux/arm-none-ea
 3298              		.file 12 "/home/sbcu/Dropbox/pcb-layouts/axo-on-discovery-board/axoloti/platform_linux/arm-none-ea
 3299              		.file 13 "/home/sbcu/Dropbox/pcb-layouts/axo-on-discovery-board/axoloti/platform_linux/arm-none-ea
 3300              		.file 14 "/home/sbcu/Dropbox/pcb-layouts/axo-on-discovery-board/axoloti/platform_linux/arm-none-ea
 3301              		.file 15 "/home/sbcu/Dropbox/pcb-layouts/axo-on-discovery-board/axoloti/platform_linux/arm-none-ea
 3302              		.file 16 "/home/sbcu/Dropbox/pcb-layouts/axo-on-discovery-board/axoloti/platform_linux/arm-none-ea
 3303              		.file 17 "/home/sbcu/Dropbox/pcb-layouts/axo-on-discovery-board/axoloti/platform_linux/arm-none-ea
 3304              		.file 18 "./mutable_instruments/clouds/dsp/pvoc/stft.h"
 3305              		.file 19 "./mutable_instruments/clouds/dsp/pvoc/frame_transformation.h"
ARM GAS  /tmp/cck6DP7L.s 			page 59


 3306              		.file 20 "/home/sbcu/Dropbox/pcb-layouts/axo-on-discovery-board/axoloti/platform_linux/arm-none-ea
 3307              		.file 21 "./mutable_instruments/clouds/resources.h"
 3308              		.file 22 "/home/sbcu/Dropbox/pcb-layouts/axo-on-discovery-board/axoloti/platform_linux/arm-none-ea
 3309              		.file 23 "<built-in>"