ARM GAS  /tmp/ccxWHGgL.s 			page 1


   1              		.syntax unified
   2              		.cpu cortex-m4
   3              		.eabi_attribute 27, 1
   4              		.eabi_attribute 28, 1
   5              		.fpu fpv4-sp-d16
   6              		.eabi_attribute 20, 1
   7              		.eabi_attribute 21, 1
   8              		.eabi_attribute 23, 3
   9              		.eabi_attribute 24, 1
  10              		.eabi_attribute 25, 1
  11              		.eabi_attribute 26, 1
  12              		.eabi_attribute 30, 2
  13              		.eabi_attribute 34, 1
  14              		.eabi_attribute 18, 4
  15              		.thumb
  16              		.file	"stm32f4xx_hal_hcd.c"
  17              		.text
  18              	.Ltext0:
  19              		.cfi_sections	.debug_frame
  20              		.align	2
  21              		.p2align 4,,15
  22              		.global	HAL_HCD_HC_Init
  23              		.thumb
  24              		.thumb_func
  25              		.type	HAL_HCD_HC_Init, %function
  26              	HAL_HCD_HC_Init:
  27              	.LFB124:
  28              		.file 1 "./STM32F4xx_HAL_Driver/Src/stm32f4xx_hal_hcd.c"
  29              		.loc 1 189 0
  30              		.cfi_startproc
  31              		@ args = 12, pretend = 0, frame = 0
  32              		@ frame_needed = 0, uses_anonymous_args = 0
  33              	.LVL0:
  34 0000 2DE9F04F 		push	{r4, r5, r6, r7, r8, r9, r10, fp, lr}
  35              		.cfi_def_cfa_offset 36
  36              		.cfi_offset 4, -36
  37              		.cfi_offset 5, -32
  38              		.cfi_offset 6, -28
  39              		.cfi_offset 7, -24
  40              		.cfi_offset 8, -20
  41              		.cfi_offset 9, -16
  42              		.cfi_offset 10, -12
  43              		.cfi_offset 11, -8
  44              		.cfi_offset 14, -4
  45 0004 0446     		mov	r4, r0
  46              		.loc 1 192 0
  47 0006 90F88C02 		ldrb	r0, [r0, #652]	@ zero_extendqisi2
  48              	.LVL1:
  49              		.loc 1 189 0
  50 000a 85B0     		sub	sp, sp, #20
  51              		.cfi_def_cfa_offset 56
  52              		.loc 1 192 0
  53 000c 0128     		cmp	r0, #1
  54              		.loc 1 189 0
  55 000e 9DF83880 		ldrb	r8, [sp, #56]	@ zero_extendqisi2
  56 0012 9DF83CC0 		ldrb	ip, [sp, #60]	@ zero_extendqisi2
  57 0016 BDF840E0 		ldrh	lr, [sp, #64]
ARM GAS  /tmp/ccxWHGgL.s 			page 2


  58              		.loc 1 192 0
  59 001a 03D1     		bne	.L6
  60 001c 0220     		movs	r0, #2
  61              		.loc 1 212 0
  62 001e 05B0     		add	sp, sp, #20
  63              		.cfi_remember_state
  64              		.cfi_def_cfa_offset 36
  65              		@ sp needed
  66 0020 BDE8F08F 		pop	{r4, r5, r6, r7, r8, r9, r10, fp, pc}
  67              	.LVL2:
  68              	.L6:
  69              		.cfi_restore_state
  70              		.loc 1 194 0 discriminator 2
  71 0024 01EB8107 		add	r7, r1, r1, lsl #2
  72 0028 04EBC707 		add	r7, r4, r7, lsl #3
  73              		.loc 1 198 0 discriminator 2
  74 002c 02F07F0A 		and	r10, r2, #127
  75              		.loc 1 199 0 discriminator 2
  76 0030 D509     		lsrs	r5, r2, #7
  77              		.loc 1 192 0 discriminator 2
  78 0032 4FF0010B 		mov	fp, #1
  79 0036 84F88CB2 		strb	fp, [r4, #652]
  80              		.loc 1 194 0 discriminator 2
  81 003a 87F83430 		strb	r3, [r7, #52]
  82              		.loc 1 196 0 discriminator 2
  83 003e 87F83510 		strb	r1, [r7, #53]
  84              		.loc 1 197 0 discriminator 2
  85 0042 87F83BC0 		strb	ip, [r7, #59]
  86              		.loc 1 200 0 discriminator 2
  87 0046 87F83880 		strb	r8, [r7, #56]
  88              		.loc 1 198 0 discriminator 2
  89 004a 87F836A0 		strb	r10, [r7, #54]
  90              		.loc 1 199 0 discriminator 2
  91 004e 87F83750 		strb	r5, [r7, #55]
  92              		.loc 1 195 0 discriminator 2
  93 0052 A7F83CE0 		strh	lr, [r7, #60]	@ movhi
  94              		.loc 1 202 0 discriminator 2
  95 0056 2068     		ldr	r0, [r4]
  96 0058 8DE80051 		stmia	sp, {r8, ip, lr}
  97 005c FFF7FEFF 		bl	USB_HC_Init
  98              	.LVL3:
  99              		.loc 1 209 0 discriminator 2
 100 0060 0023     		movs	r3, #0
 101 0062 84F88C32 		strb	r3, [r4, #652]
 102              		.loc 1 212 0 discriminator 2
 103 0066 05B0     		add	sp, sp, #20
 104              		.cfi_def_cfa_offset 36
 105              		@ sp needed
 106 0068 BDE8F08F 		pop	{r4, r5, r6, r7, r8, r9, r10, fp, pc}
 107              		.cfi_endproc
 108              	.LFE124:
 109              		.size	HAL_HCD_HC_Init, .-HAL_HCD_HC_Init
 110              		.align	2
 111 006c AFF30080 		.p2align 4,,15
 112              		.global	HAL_HCD_HC_Halt
 113              		.thumb
 114              		.thumb_func
ARM GAS  /tmp/ccxWHGgL.s 			page 3


 115              		.type	HAL_HCD_HC_Halt, %function
 116              	HAL_HCD_HC_Halt:
 117              	.LFB125:
 118              		.loc 1 222 0
 119              		.cfi_startproc
 120              		@ args = 0, pretend = 0, frame = 0
 121              		@ frame_needed = 0, uses_anonymous_args = 0
 122              	.LVL4:
 123              		.loc 1 225 0
 124 0070 90F88C32 		ldrb	r3, [r0, #652]	@ zero_extendqisi2
 125 0074 012B     		cmp	r3, #1
 126 0076 01D1     		bne	.L12
 127 0078 0220     		movs	r0, #2
 128              	.LVL5:
 129 007a 7047     		bx	lr
 130              	.LVL6:
 131              	.L12:
 132              		.loc 1 222 0 discriminator 2
 133 007c 10B5     		push	{r4, lr}
 134              		.cfi_def_cfa_offset 8
 135              		.cfi_offset 4, -8
 136              		.cfi_offset 14, -4
 137              		.loc 1 225 0 discriminator 2
 138 007e 0123     		movs	r3, #1
 139 0080 0446     		mov	r4, r0
 140 0082 80F88C32 		strb	r3, [r0, #652]
 141              		.loc 1 226 0 discriminator 2
 142 0086 0068     		ldr	r0, [r0]
 143              	.LVL7:
 144 0088 FFF7FEFF 		bl	USB_HC_Halt
 145              	.LVL8:
 146              		.loc 1 227 0 discriminator 2
 147 008c 0020     		movs	r0, #0
 148 008e 84F88C02 		strb	r0, [r4, #652]
 149              		.loc 1 229 0 discriminator 2
 150 0092 10BD     		pop	{r4, pc}
 151              		.cfi_endproc
 152              	.LFE125:
 153              		.size	HAL_HCD_HC_Halt, .-HAL_HCD_HC_Halt
 154              		.align	2
 155 0094 AFF30080 		.p2align 4,,15
 155      AFF30080 
 155      AFF30080 
 156              		.weak	HAL_HCD_MspInit
 157              		.thumb
 158              		.thumb_func
 159              		.type	HAL_HCD_MspInit, %function
 160              	HAL_HCD_MspInit:
 161              	.LFB127:
 162              		.loc 1 263 0
 163              		.cfi_startproc
 164              		@ args = 0, pretend = 0, frame = 0
 165              		@ frame_needed = 0, uses_anonymous_args = 0
 166              		@ link register save eliminated.
 167              	.LVL9:
 168 00a0 7047     		bx	lr
 169              		.cfi_endproc
ARM GAS  /tmp/ccxWHGgL.s 			page 4


 170              	.LFE127:
 171              		.size	HAL_HCD_MspInit, .-HAL_HCD_MspInit
 172 00a2 00BF     		.align	2
 173 00a4 AFF30080 		.p2align 4,,15
 173      AFF30080 
 173      AFF30080 
 174              		.global	HAL_HCD_Init
 175              		.thumb
 176              		.thumb_func
 177              		.type	HAL_HCD_Init, %function
 178              	HAL_HCD_Init:
 179              	.LFB123:
 180              		.loc 1 126 0
 181              		.cfi_startproc
 182              		@ args = 0, pretend = 0, frame = 0
 183              		@ frame_needed = 0, uses_anonymous_args = 0
 184              	.LVL10:
 185              		.loc 1 128 0
 186 00b0 0028     		cmp	r0, #0
 187 00b2 36D0     		beq	.L16
 188              		.loc 1 126 0
 189 00b4 2DE9F041 		push	{r4, r5, r6, r7, r8, lr}
 190              		.cfi_def_cfa_offset 24
 191              		.cfi_offset 4, -24
 192              		.cfi_offset 5, -20
 193              		.cfi_offset 6, -16
 194              		.cfi_offset 7, -12
 195              		.cfi_offset 8, -8
 196              		.cfi_offset 14, -4
 197              		.loc 1 136 0
 198 00b8 0323     		movs	r3, #3
 199 00ba 0746     		mov	r7, r0
 200              		.loc 1 126 0
 201 00bc 8AB0     		sub	sp, sp, #40
 202              		.cfi_def_cfa_offset 64
 203              		.loc 1 136 0
 204 00be 80F88D32 		strb	r3, [r0, #653]
 205              		.loc 1 145 0
 206 00c2 0446     		mov	r4, r0
 207              		.loc 1 139 0
 208 00c4 FFF7FEFF 		bl	HAL_HCD_MspInit
 209              	.LVL11:
 210              		.loc 1 142 0
 211 00c8 3868     		ldr	r0, [r7]
 212 00ca FFF7FEFF 		bl	USB_DisableGlobalInt
 213              	.LVL12:
 214              		.loc 1 145 0
 215 00ce 54F8106B 		ldr	r6, [r4], #16
 216              	.LVL13:
 217 00d2 0FCC     		ldmia	r4!, {r0, r1, r2, r3}
 218 00d4 6D46     		mov	r5, sp
 219 00d6 0FC5     		stmia	r5!, {r0, r1, r2, r3}
 220 00d8 0FCC     		ldmia	r4!, {r0, r1, r2, r3}
 221 00da 0FC5     		stmia	r5!, {r0, r1, r2, r3}
 222 00dc 2368     		ldr	r3, [r4]
 223 00de 2B60     		str	r3, [r5]
 224 00e0 07F10408 		add	r8, r7, #4
ARM GAS  /tmp/ccxWHGgL.s 			page 5


 225 00e4 98E80E00 		ldmia	r8, {r1, r2, r3}
 226              		.loc 1 151 0
 227 00e8 3D46     		mov	r5, r7
 228              		.loc 1 145 0
 229 00ea 3046     		mov	r0, r6
 230 00ec FFF7FEFF 		bl	USB_CoreInit
 231              	.LVL14:
 232              		.loc 1 148 0
 233 00f0 3868     		ldr	r0, [r7]
 234 00f2 0121     		movs	r1, #1
 235 00f4 FFF7FEFF 		bl	USB_SetCurrentMode
 236              	.LVL15:
 237              		.loc 1 151 0
 238 00f8 55F810EB 		ldr	lr, [r5], #16
 239 00fc 0FCD     		ldmia	r5!, {r0, r1, r2, r3}
 240 00fe 6E46     		mov	r6, sp
 241 0100 0FC6     		stmia	r6!, {r0, r1, r2, r3}
 242 0102 0FCD     		ldmia	r5!, {r0, r1, r2, r3}
 243 0104 0FC6     		stmia	r6!, {r0, r1, r2, r3}
 244 0106 2368     		ldr	r3, [r4]
 245 0108 3360     		str	r3, [r6]
 246 010a 98E80E00 		ldmia	r8, {r1, r2, r3}
 247 010e 7046     		mov	r0, lr
 248 0110 FFF7FEFF 		bl	USB_HostInit
 249              	.LVL16:
 250              		.loc 1 153 0
 251 0114 0123     		movs	r3, #1
 252              		.loc 1 155 0
 253 0116 0020     		movs	r0, #0
 254              		.loc 1 153 0
 255 0118 87F88D32 		strb	r3, [r7, #653]
 256              		.loc 1 156 0
 257 011c 0AB0     		add	sp, sp, #40
 258              		.cfi_def_cfa_offset 24
 259              		@ sp needed
 260 011e BDE8F081 		pop	{r4, r5, r6, r7, r8, pc}
 261              	.LVL17:
 262              	.L16:
 263              		.cfi_def_cfa_offset 0
 264              		.cfi_restore 4
 265              		.cfi_restore 5
 266              		.cfi_restore 6
 267              		.cfi_restore 7
 268              		.cfi_restore 8
 269              		.cfi_restore 14
 270              		.loc 1 130 0
 271 0122 0120     		movs	r0, #1
 272              	.LVL18:
 273 0124 7047     		bx	lr
 274              		.cfi_endproc
 275              	.LFE123:
 276              		.size	HAL_HCD_Init, .-HAL_HCD_Init
 277 0126 00BF     		.align	2
 278 0128 AFF30080 		.p2align 4,,15
 278      AFF30080 
 279              		.weak	HAL_HCD_MspDeInit
 280              		.thumb
ARM GAS  /tmp/ccxWHGgL.s 			page 6


 281              		.thumb_func
 282              		.type	HAL_HCD_MspDeInit, %function
 283              	HAL_HCD_MspDeInit:
 284              	.LFB128:
 285              		.loc 1 275 0
 286              		.cfi_startproc
 287              		@ args = 0, pretend = 0, frame = 0
 288              		@ frame_needed = 0, uses_anonymous_args = 0
 289              		@ link register save eliminated.
 290              	.LVL19:
 291 0130 7047     		bx	lr
 292              		.cfi_endproc
 293              	.LFE128:
 294              		.size	HAL_HCD_MspDeInit, .-HAL_HCD_MspDeInit
 295 0132 00BF     		.align	2
 296 0134 AFF30080 		.p2align 4,,15
 296      AFF30080 
 296      AFF30080 
 297              		.global	HAL_HCD_DeInit
 298              		.thumb
 299              		.thumb_func
 300              		.type	HAL_HCD_DeInit, %function
 301              	HAL_HCD_DeInit:
 302              	.LFB126:
 303              		.loc 1 238 0
 304              		.cfi_startproc
 305              		@ args = 0, pretend = 0, frame = 0
 306              		@ frame_needed = 0, uses_anonymous_args = 0
 307              	.LVL20:
 308              		.loc 1 240 0
 309 0140 68B1     		cbz	r0, .L22
 310              		.loc 1 238 0
 311 0142 10B5     		push	{r4, lr}
 312              		.cfi_def_cfa_offset 8
 313              		.cfi_offset 4, -8
 314              		.cfi_offset 14, -4
 315              		.loc 1 245 0
 316 0144 0323     		movs	r3, #3
 317 0146 0446     		mov	r4, r0
 318 0148 80F88D32 		strb	r3, [r0, #653]
 319              		.loc 1 248 0
 320 014c FFF7FEFF 		bl	HAL_HCD_MspDeInit
 321              	.LVL21:
 322              		.loc 1 250 0
 323 0150 2068     		ldr	r0, [r4]
 324 0152 FFF7FEFF 		bl	USB_DisableGlobalInt
 325              	.LVL22:
 326              		.loc 1 252 0
 327 0156 0020     		movs	r0, #0
 328 0158 84F88D02 		strb	r0, [r4, #653]
 329              		.loc 1 254 0
 330 015c 10BD     		pop	{r4, pc}
 331              	.LVL23:
 332              	.L22:
 333              		.cfi_def_cfa_offset 0
 334              		.cfi_restore 4
 335              		.cfi_restore 14
ARM GAS  /tmp/ccxWHGgL.s 			page 7


 336              		.loc 1 242 0
 337 015e 0120     		movs	r0, #1
 338              	.LVL24:
 339 0160 7047     		bx	lr
 340              		.cfi_endproc
 341              	.LFE126:
 342              		.size	HAL_HCD_DeInit, .-HAL_HCD_DeInit
 343 0162 00BF     		.align	2
 344 0164 AFF30080 		.p2align 4,,15
 344      AFF30080 
 344      AFF30080 
 345              		.global	HAL_HCD_HC_SubmitRequest
 346              		.thumb
 347              		.thumb_func
 348              		.type	HAL_HCD_HC_SubmitRequest, %function
 349              	HAL_HCD_HC_SubmitRequest:
 350              	.LFB129:
 351              		.loc 1 331 0
 352              		.cfi_startproc
 353              		@ args = 16, pretend = 0, frame = 0
 354              		@ frame_needed = 0, uses_anonymous_args = 0
 355              	.LVL25:
 356 0170 2DE9F041 		push	{r4, r5, r6, r7, r8, lr}
 357              		.cfi_def_cfa_offset 24
 358              		.cfi_offset 4, -24
 359              		.cfi_offset 5, -20
 360              		.cfi_offset 6, -16
 361              		.cfi_offset 7, -12
 362              		.cfi_offset 8, -8
 363              		.cfi_offset 14, -4
 364              		.loc 1 332 0
 365 0174 8C00     		lsls	r4, r1, #2
 366              		.loc 1 331 0
 367 0176 0546     		mov	r5, r0
 368              		.loc 1 332 0
 369 0178 6018     		adds	r0, r4, r1
 370              	.LVL26:
 371 017a 05EBC000 		add	r0, r5, r0, lsl #3
 372              		.loc 1 331 0
 373 017e 9DF818C0 		ldrb	ip, [sp, #24]	@ zero_extendqisi2
 374 0182 079F     		ldr	r7, [sp, #28]
 375 0184 BDF82060 		ldrh	r6, [sp, #32]
 376 0188 9DF82480 		ldrb	r8, [sp, #36]	@ zero_extendqisi2
 377              		.loc 1 332 0
 378 018c 80F83720 		strb	r2, [r0, #55]
 379              		.loc 1 333 0
 380 0190 80F83B30 		strb	r3, [r0, #59]
 381              		.loc 1 335 0
 382 0194 BCF1000F 		cmp	ip, #0
 383 0198 1ED1     		bne	.L26
 384              		.loc 1 337 0
 385 019a 4FF0030E 		mov	lr, #3
 386              		.loc 1 345 0
 387 019e 022B     		cmp	r3, #2
 388              		.loc 1 337 0
 389 01a0 80F83EE0 		strb	lr, [r0, #62]
 390              		.loc 1 345 0
ARM GAS  /tmp/ccxWHGgL.s 			page 8


 391 01a4 22D0     		beq	.L28
 392 01a6 7345     		cmp	r3, lr
 393 01a8 34D0     		beq	.L29
 394 01aa 012B     		cmp	r3, #1
 395 01ac 3BD0     		beq	.L30
 396              	.LVL27:
 397              	.L27:
 398              		.loc 1 432 0
 399 01ae 0C44     		add	r4, r4, r1
 400              	.LVL28:
 401 01b0 E400     		lsls	r4, r4, #3
 402 01b2 2B19     		adds	r3, r5, r4
 403              		.loc 1 434 0
 404 01b4 0022     		movs	r2, #0
 405              		.loc 1 436 0
 406 01b6 83F83510 		strb	r1, [r3, #53]
 407              		.loc 1 432 0
 408 01ba 1F64     		str	r7, [r3, #64]
 409              		.loc 1 433 0
 410 01bc 5E64     		str	r6, [r3, #68]
 411              		.loc 1 434 0
 412 01be 83F85820 		strb	r2, [r3, #88]
 413              		.loc 1 435 0
 414 01c2 9A64     		str	r2, [r3, #72]
 415              		.loc 1 437 0
 416 01c4 83F85920 		strb	r2, [r3, #89]
 417              		.loc 1 439 0
 418 01c8 2868     		ldr	r0, [r5]
 419 01ca 2A7C     		ldrb	r2, [r5, #16]	@ zero_extendqisi2
 420 01cc 03F13401 		add	r1, r3, #52
 421              	.LVL29:
 422              		.loc 1 440 0
 423 01d0 BDE8F041 		pop	{r4, r5, r6, r7, r8, lr}
 424              		.cfi_remember_state
 425              		.cfi_restore 14
 426              		.cfi_restore 8
 427              		.cfi_restore 7
 428              		.cfi_restore 6
 429              		.cfi_restore 5
 430              		.cfi_restore 4
 431              		.cfi_def_cfa_offset 0
 432              	.LVL30:
 433              		.loc 1 439 0
 434 01d4 FFF7FEBF 		b	USB_HC_StartXfer
 435              	.LVL31:
 436              	.L26:
 437              		.cfi_restore_state
 438              		.loc 1 341 0
 439 01d8 4FF0020E 		mov	lr, #2
 440 01dc 80F83EE0 		strb	lr, [r0, #62]
 441              		.loc 1 345 0
 442 01e0 032B     		cmp	r3, #3
 443 01e2 E4D8     		bhi	.L27
 444 01e4 DFE803F0 		tbb	[pc, r3]
 445              	.L32:
 446 01e8 26       		.byte	(.L31-.L32)/2
 447 01e9 1F       		.byte	(.L30-.L32)/2
ARM GAS  /tmp/ccxWHGgL.s 			page 9


 448 01ea 02       		.byte	(.L28-.L32)/2
 449 01eb 16       		.byte	(.L29-.L32)/2
 450              		.p2align 1
 451              	.L28:
 452              		.loc 1 375 0
 453 01ec 6318     		adds	r3, r4, r1
 454              	.LVL32:
 455 01ee 05EBC303 		add	r3, r5, r3, lsl #3
 456              		.loc 1 372 0
 457 01f2 7ABB     		cbnz	r2, .L42
 458              		.loc 1 375 0
 459 01f4 93F84D00 		ldrb	r0, [r3, #77]	@ zero_extendqisi2
 460 01f8 00B1     		cbz	r0, .L62
 461              		.loc 1 381 0
 462 01fa 0222     		movs	r2, #2
 463              	.LVL33:
 464              	.L62:
 465 01fc 83F83E20 		strb	r2, [r3, #62]
 466              		.loc 1 383 0
 467 0200 6318     		adds	r3, r4, r1
 468 0202 05EBC303 		add	r3, r5, r3, lsl #3
 469 0206 93F85820 		ldrb	r2, [r3, #88]	@ zero_extendqisi2
 470 020a 022A     		cmp	r2, #2
 471 020c CFD0     		beq	.L27
 472              		.loc 1 385 0
 473 020e 83F83980 		strb	r8, [r3, #57]
 474 0212 CCE7     		b	.L27
 475              	.LVL34:
 476              	.L29:
 477              		.loc 1 405 0
 478 0214 6318     		adds	r3, r4, r1
 479              	.LVL35:
 480 0216 05EBC303 		add	r3, r5, r3, lsl #3
 481              		.loc 1 402 0
 482 021a DAB9     		cbnz	r2, .L42
 483              		.loc 1 405 0
 484 021c 93F84D00 		ldrb	r0, [r3, #77]	@ zero_extendqisi2
 485 0220 28B1     		cbz	r0, .L67
 486              		.loc 1 422 0
 487 0222 0222     		movs	r2, #2
 488              	.LVL36:
 489 0224 03E0     		b	.L67
 490              	.LVL37:
 491              	.L30:
 492              		.loc 1 428 0
 493 0226 6318     		adds	r3, r4, r1
 494              	.LVL38:
 495 0228 05EBC303 		add	r3, r5, r3, lsl #3
 496 022c 0022     		movs	r2, #0
 497              	.LVL39:
 498              	.L67:
 499 022e 83F83E20 		strb	r2, [r3, #62]
 500              		.loc 1 429 0
 501 0232 BCE7     		b	.L27
 502              	.LVL40:
 503              	.L31:
 504              		.loc 1 348 0
ARM GAS  /tmp/ccxWHGgL.s 			page 10


 505 0234 BCF1010F 		cmp	ip, #1
 506 0238 B9D1     		bne	.L27
 507              		.loc 1 348 0 is_stmt 0 discriminator 1
 508 023a 002A     		cmp	r2, #0
 509 023c B7D1     		bne	.L27
 510              		.loc 1 352 0 is_stmt 1
 511 023e 6318     		adds	r3, r4, r1
 512              	.LVL41:
 513 0240 05EBC303 		add	r3, r5, r3, lsl #3
 514              		.loc 1 350 0
 515 0244 66B9     		cbnz	r6, .L35
 516              		.loc 1 352 0
 517 0246 83F84DC0 		strb	ip, [r3, #77]
 518              	.L36:
 519              		.loc 1 362 0
 520 024a 6318     		adds	r3, r4, r1
 521 024c 05EBC303 		add	r3, r5, r3, lsl #3
 522 0250 0222     		movs	r2, #2
 523              	.LVL42:
 524 0252 D3E7     		b	.L62
 525              	.LVL43:
 526              	.L42:
 527              		.loc 1 416 0
 528 0254 93F84C20 		ldrb	r2, [r3, #76]	@ zero_extendqisi2
 529              	.LVL44:
 530 0258 002A     		cmp	r2, #0
 531 025a E8D0     		beq	.L67
 532              		.loc 1 422 0
 533 025c 0222     		movs	r2, #2
 534 025e E6E7     		b	.L67
 535              	.LVL45:
 536              	.L35:
 537              		.loc 1 356 0
 538 0260 93F84D00 		ldrb	r0, [r3, #77]	@ zero_extendqisi2
 539 0264 0028     		cmp	r0, #0
 540 0266 C9D0     		beq	.L62
 541 0268 EFE7     		b	.L36
 542              		.cfi_endproc
 543              	.LFE129:
 544              		.size	HAL_HCD_HC_SubmitRequest, .-HAL_HCD_HC_SubmitRequest
 545 026a 00BF     		.align	2
 546 026c AFF30080 		.p2align 4,,15
 547              		.weak	HAL_HCD_SOF_Callback
 548              		.thumb
 549              		.thumb_func
 550              		.type	HAL_HCD_SOF_Callback, %function
 551              	HAL_HCD_SOF_Callback:
 552              	.LFB131:
 553              		.loc 1 554 0
 554              		.cfi_startproc
 555              		@ args = 0, pretend = 0, frame = 0
 556              		@ frame_needed = 0, uses_anonymous_args = 0
 557              		@ link register save eliminated.
 558              	.LVL46:
 559 0270 7047     		bx	lr
 560              		.cfi_endproc
 561              	.LFE131:
ARM GAS  /tmp/ccxWHGgL.s 			page 11


 562              		.size	HAL_HCD_SOF_Callback, .-HAL_HCD_SOF_Callback
 563 0272 00BF     		.align	2
 564 0274 AFF30080 		.p2align 4,,15
 564      AFF30080 
 564      AFF30080 
 565              		.weak	HAL_HCD_Connect_Callback
 566              		.thumb
 567              		.thumb_func
 568              		.type	HAL_HCD_Connect_Callback, %function
 569              	HAL_HCD_Connect_Callback:
 570              	.LFB132:
 571              		.loc 1 566 0
 572              		.cfi_startproc
 573              		@ args = 0, pretend = 0, frame = 0
 574              		@ frame_needed = 0, uses_anonymous_args = 0
 575              		@ link register save eliminated.
 576              	.LVL47:
 577 0280 7047     		bx	lr
 578              		.cfi_endproc
 579              	.LFE132:
 580              		.size	HAL_HCD_Connect_Callback, .-HAL_HCD_Connect_Callback
 581 0282 00BF     		.align	2
 582 0284 AFF30080 		.p2align 4,,15
 582      AFF30080 
 582      AFF30080 
 583              		.weak	HAL_HCD_Disconnect_Callback
 584              		.thumb
 585              		.thumb_func
 586              		.type	HAL_HCD_Disconnect_Callback, %function
 587              	HAL_HCD_Disconnect_Callback:
 588              	.LFB133:
 589              		.loc 1 578 0
 590              		.cfi_startproc
 591              		@ args = 0, pretend = 0, frame = 0
 592              		@ frame_needed = 0, uses_anonymous_args = 0
 593              		@ link register save eliminated.
 594              	.LVL48:
 595 0290 7047     		bx	lr
 596              		.cfi_endproc
 597              	.LFE133:
 598              		.size	HAL_HCD_Disconnect_Callback, .-HAL_HCD_Disconnect_Callback
 599 0292 00BF     		.align	2
 600 0294 AFF30080 		.p2align 4,,15
 600      AFF30080 
 600      AFF30080 
 601              		.weak	HAL_HCD_HC_NotifyURBChange_Callback
 602              		.thumb
 603              		.thumb_func
 604              		.type	HAL_HCD_HC_NotifyURBChange_Callback, %function
 605              	HAL_HCD_HC_NotifyURBChange_Callback:
 606              	.LFB134:
 607              		.loc 1 600 0
 608              		.cfi_startproc
 609              		@ args = 0, pretend = 0, frame = 0
 610              		@ frame_needed = 0, uses_anonymous_args = 0
 611              		@ link register save eliminated.
 612              	.LVL49:
ARM GAS  /tmp/ccxWHGgL.s 			page 12


 613 02a0 7047     		bx	lr
 614              		.cfi_endproc
 615              	.LFE134:
 616              		.size	HAL_HCD_HC_NotifyURBChange_Callback, .-HAL_HCD_HC_NotifyURBChange_Callback
 617 02a2 00BF     		.align	2
 618 02a4 AFF30080 		.p2align 4,,15
 618      AFF30080 
 618      AFF30080 
 619              		.global	HAL_HCD_IRQHandler
 620              		.thumb
 621              		.thumb_func
 622              		.type	HAL_HCD_IRQHandler, %function
 623              	HAL_HCD_IRQHandler:
 624              	.LFB130:
 625              		.loc 1 448 0
 626              		.cfi_startproc
 627              		@ args = 0, pretend = 0, frame = 16
 628              		@ frame_needed = 0, uses_anonymous_args = 0
 629              	.LVL50:
 630              		.loc 1 448 0
 631 02b0 2DE9F04F 		push	{r4, r5, r6, r7, r8, r9, r10, fp, lr}
 632              		.cfi_def_cfa_offset 36
 633              		.cfi_offset 4, -36
 634              		.cfi_offset 5, -32
 635              		.cfi_offset 6, -28
 636              		.cfi_offset 7, -24
 637              		.cfi_offset 8, -20
 638              		.cfi_offset 9, -16
 639              		.cfi_offset 10, -12
 640              		.cfi_offset 11, -8
 641              		.cfi_offset 14, -4
 642              		.loc 1 449 0
 643 02b4 0568     		ldr	r5, [r0]
 644              	.LVL51:
 645              		.loc 1 448 0
 646 02b6 85B0     		sub	sp, sp, #20
 647              		.cfi_def_cfa_offset 56
 648              		.loc 1 448 0
 649 02b8 0446     		mov	r4, r0
 650              		.loc 1 453 0
 651 02ba 2846     		mov	r0, r5
 652              	.LVL52:
 653 02bc FFF7FEFF 		bl	USB_GetMode
 654              	.LVL53:
 655 02c0 0128     		cmp	r0, #1
 656 02c2 02D0     		beq	.L201
 657              	.LVL54:
 658              	.L72:
 659              		.loc 1 546 0
 660 02c4 05B0     		add	sp, sp, #20
 661              		.cfi_remember_state
 662              		.cfi_def_cfa_offset 36
 663              		@ sp needed
 664 02c6 BDE8F08F 		pop	{r4, r5, r6, r7, r8, r9, r10, fp, pc}
 665              	.LVL55:
 666              	.L201:
 667              		.cfi_restore_state
ARM GAS  /tmp/ccxWHGgL.s 			page 13


 668              		.loc 1 456 0
 669 02ca 2068     		ldr	r0, [r4]
 670 02cc FFF7FEFF 		bl	USB_ReadInterrupts
 671              	.LVL56:
 672 02d0 0028     		cmp	r0, #0
 673 02d2 F7D0     		beq	.L72
 674              		.loc 1 461 0
 675 02d4 2068     		ldr	r0, [r4]
 676 02d6 FFF7FEFF 		bl	USB_ReadInterrupts
 677              	.LVL57:
 678 02da 10F4001F 		tst	r0, #2097152
 679              		.loc 1 464 0
 680 02de 2068     		ldr	r0, [r4]
 681 02e0 1CBF     		itt	ne
 682 02e2 4FF40013 		movne	r3, #2097152
 683 02e6 4361     		strne	r3, [r0, #20]
 684              		.loc 1 467 0
 685 02e8 FFF7FEFF 		bl	USB_ReadInterrupts
 686              	.LVL58:
 687 02ec 10F4801F 		tst	r0, #1048576
 688              		.loc 1 470 0
 689 02f0 2068     		ldr	r0, [r4]
 690 02f2 1CBF     		itt	ne
 691 02f4 4FF48013 		movne	r3, #1048576
 692 02f8 4361     		strne	r3, [r0, #20]
 693              		.loc 1 473 0
 694 02fa FFF7FEFF 		bl	USB_ReadInterrupts
 695              	.LVL59:
 696 02fe 10F0806F 		tst	r0, #67108864
 697              		.loc 1 476 0
 698 0302 2068     		ldr	r0, [r4]
 699 0304 1CBF     		itt	ne
 700 0306 4FF08063 		movne	r3, #67108864
 701 030a 4361     		strne	r3, [r0, #20]
 702              		.loc 1 479 0
 703 030c FFF7FEFF 		bl	USB_ReadInterrupts
 704              	.LVL60:
 705 0310 10F0020F 		tst	r0, #2
 706              		.loc 1 482 0
 707 0314 2068     		ldr	r0, [r4]
 708              		.loc 1 479 0
 709 0316 5CD1     		bne	.L202
 710              	.L83:
 711              		.loc 1 488 0
 712 0318 FFF7FEFF 		bl	USB_ReadInterrupts
 713              	.LVL61:
 714 031c 8100     		lsls	r1, r0, #2
 715 031e 00F11981 		bmi	.L84
 716 0322 2068     		ldr	r0, [r4]
 717              	.L85:
 718              		.loc 1 502 0
 719 0324 FFF7FEFF 		bl	USB_ReadInterrupts
 720              	.LVL62:
 721 0328 C201     		lsls	r2, r0, #7
 722              	.LBB10:
 723              	.LBB11:
 724              		.loc 1 1114 0
ARM GAS  /tmp/ccxWHGgL.s 			page 14


 725 032a 2668     		ldr	r6, [r4]
 726              	.LBE11:
 727              	.LBE10:
 728              		.loc 1 502 0
 729 032c 00F1EC80 		bmi	.L203
 730              	.L86:
 731              		.loc 1 508 0
 732 0330 3046     		mov	r0, r6
 733 0332 FFF7FEFF 		bl	USB_ReadInterrupts
 734              	.LVL63:
 735 0336 0007     		lsls	r0, r0, #28
 736 0338 00F11E81 		bmi	.L97
 737 033c 2068     		ldr	r0, [r4]
 738              	.L98:
 739              		.loc 1 515 0
 740 033e FFF7FEFF 		bl	USB_ReadInterrupts
 741              	.LVL64:
 742 0342 10F0007F 		tst	r0, #33554432
 743              		.loc 1 518 0
 744 0346 2068     		ldr	r0, [r4]
 745              		.loc 1 515 0
 746 0348 4AD1     		bne	.L204
 747              	.LVL65:
 748              	.L100:
 749              		.loc 1 537 0
 750 034a FFF7FEFF 		bl	USB_ReadInterrupts
 751              	.LVL66:
 752 034e C306     		lsls	r3, r0, #27
 753 0350 B8D5     		bpl	.L72
 754              		.loc 1 539 0
 755 0352 2568     		ldr	r5, [r4]
 756 0354 AB69     		ldr	r3, [r5, #24]
 757 0356 23F01003 		bic	r3, r3, #16
 758 035a AB61     		str	r3, [r5, #24]
 759              	.LVL67:
 760              	.LBB17:
 761              	.LBB18:
 762              		.loc 1 1070 0
 763 035c 2B6A     		ldr	r3, [r5, #32]
 764              	.LVL68:
 765              		.loc 1 1072 0
 766 035e C3F34342 		ubfx	r2, r3, #17, #4
 767              		.loc 1 1075 0
 768 0362 022A     		cmp	r2, #2
 769 0364 30D1     		bne	.L146
 770              		.loc 1 1073 0
 771 0366 C3F30A17 		ubfx	r7, r3, #4, #11
 772              		.loc 1 1079 0
 773 036a 6FB3     		cbz	r7, .L146
 774              		.loc 1 1071 0
 775 036c 03F00F06 		and	r6, r3, #15
 776              		.loc 1 1079 0
 777 0370 06EB8608 		add	r8, r6, r6, lsl #2
 778 0374 04EBC808 		add	r8, r4, r8, lsl #3
 779 0378 D8F84010 		ldr	r1, [r8, #64]
 780 037c 21B3     		cbz	r1, .L146
 781              		.loc 1 1082 0
ARM GAS  /tmp/ccxWHGgL.s 			page 15


 782 037e 3A46     		mov	r2, r7
 783 0380 2846     		mov	r0, r5
 784 0382 FFF7FEFF 		bl	USB_ReadPacket
 785              	.LVL69:
 786 0386 05F5A063 		add	r3, r5, #1280
 787              		.loc 1 1088 0
 788 038a 03EB4613 		add	r3, r3, r6, lsl #5
 789              		.loc 1 1086 0
 790 038e D8F84810 		ldr	r1, [r8, #72]
 791              		.loc 1 1088 0
 792 0392 1E69     		ldr	r6, [r3, #16]
 793              		.loc 1 1085 0
 794 0394 D8F84000 		ldr	r0, [r8, #64]
 795              		.loc 1 1088 0
 796 0398 C04A     		ldr	r2, .L226
 797              		.loc 1 1086 0
 798 039a 3944     		add	r1, r1, r7
 799              		.loc 1 1088 0
 800 039c 3240     		ands	r2, r2, r6
 801              		.loc 1 1085 0
 802 039e 0744     		add	r7, r7, r0
 803 03a0 C8F84070 		str	r7, [r8, #64]
 804              		.loc 1 1086 0
 805 03a4 C8F84810 		str	r1, [r8, #72]
 806              		.loc 1 1088 0
 807 03a8 6AB1     		cbz	r2, .L200
 808              		.loc 1 1091 0
 809 03aa 1A68     		ldr	r2, [r3]
 810 03ac 22F08042 		bic	r2, r2, #1073741824
 811 03b0 1A60     		str	r2, [r3]
 812              		.loc 1 1092 0
 813 03b2 1A68     		ldr	r2, [r3]
 814 03b4 42F00042 		orr	r2, r2, #-2147483648
 815 03b8 1A60     		str	r2, [r3]
 816              		.loc 1 1093 0
 817 03ba 98F84C30 		ldrb	r3, [r8, #76]	@ zero_extendqisi2
 818 03be 83F00103 		eor	r3, r3, #1
 819 03c2 88F84C30 		strb	r3, [r8, #76]
 820              	.L200:
 821 03c6 2568     		ldr	r5, [r4]
 822              	.LVL70:
 823              	.L146:
 824              	.LBE18:
 825              	.LBE17:
 826              		.loc 1 543 0
 827 03c8 AB69     		ldr	r3, [r5, #24]
 828 03ca 43F01003 		orr	r3, r3, #16
 829 03ce AB61     		str	r3, [r5, #24]
 830 03d0 78E7     		b	.L72
 831              	.LVL71:
 832              	.L202:
 833              		.loc 1 482 0
 834 03d2 8369     		ldr	r3, [r0, #24]
 835              		.loc 1 484 0
 836 03d4 0222     		movs	r2, #2
 837              		.loc 1 482 0
 838 03d6 23F00203 		bic	r3, r3, #2
ARM GAS  /tmp/ccxWHGgL.s 			page 16


 839 03da 8361     		str	r3, [r0, #24]
 840              		.loc 1 484 0
 841 03dc 4261     		str	r2, [r0, #20]
 842 03de 9BE7     		b	.L83
 843              	.L204:
 844              		.loc 1 518 0
 845 03e0 FFF7FEFF 		bl	USB_HC_ReadInterrupt
 846              	.LVL72:
 847              		.loc 1 519 0
 848 03e4 A268     		ldr	r2, [r4, #8]
 849              		.loc 1 518 0
 850 03e6 8246     		mov	r10, r0
 851              	.LVL73:
 852 03e8 2068     		ldr	r0, [r4]
 853              	.LVL74:
 854              		.loc 1 519 0
 855 03ea 002A     		cmp	r2, #0
 856 03ec 00F08880 		beq	.L102
 857 03f0 05F5A065 		add	r5, r5, #1280
 858              	.LVL75:
 859 03f4 0026     		movs	r6, #0
 860              		.loc 1 521 0
 861 03f6 4FF00109 		mov	r9, #1
 862              	.LBB19:
 863              	.LBB20:
 864              		.loc 1 1052 0
 865 03fa 4FF0020B 		mov	fp, #2
 866 03fe 42E0     		b	.L145
 867              	.LVL76:
 868              	.L208:
 869              	.LBE20:
 870              	.LBE19:
 871              	.LBB30:
 872              	.LBB31:
 873              		.loc 1 787 0
 874 0400 4FEA481C 		lsl	ip, r8, #5
 875 0404 00F5A062 		add	r2, r0, #1280
 876 0408 02EB0C07 		add	r7, r2, ip
 877 040c BB68     		ldr	r3, [r7, #8]
 878 040e 5B07     		lsls	r3, r3, #29
 879 0410 6FD5     		bpl	.L105
 880              		.loc 1 789 0
 881 0412 0423     		movs	r3, #4
 882 0414 BB60     		str	r3, [r7, #8]
 883              		.loc 1 790 0
 884 0416 FB68     		ldr	r3, [r7, #12]
 885 0418 43F00203 		orr	r3, r3, #2
 886 041c FB60     		str	r3, [r7, #12]
 887              	.LVL77:
 888              	.L106:
 889              		.loc 1 814 0
 890 041e BB68     		ldr	r3, [r7, #8]
 891 0420 9B05     		lsls	r3, r3, #22
 892 0422 00F15F81 		bmi	.L205
 893              		.loc 1 821 0
 894 0426 BB68     		ldr	r3, [r7, #8]
 895 0428 D807     		lsls	r0, r3, #31
ARM GAS  /tmp/ccxWHGgL.s 			page 17


 896 042a 40F1AC80 		bpl	.L110
 897              		.loc 1 824 0
 898 042e 2369     		ldr	r3, [r4, #16]
 899 0430 002B     		cmp	r3, #0
 900 0432 40F06581 		bne	.L111
 901 0436 4FEA8803 		lsl	r3, r8, #2
 902              	.L112:
 903              		.loc 1 830 0
 904 043a 03EB0801 		add	r1, r3, r8
 905 043e 04EBC101 		add	r1, r4, r1, lsl #3
 906 0442 01F1500E 		add	lr, r1, #80
 907              		.loc 1 831 0
 908 0446 0020     		movs	r0, #0
 909              		.loc 1 830 0
 910 0448 8EF80990 		strb	r9, [lr, #9]
 911              		.loc 1 831 0
 912 044c CEF80400 		str	r0, [lr, #4]
 913              		.loc 1 832 0
 914 0450 C7F80890 		str	r9, [r7, #8]
 915              		.loc 1 835 0
 916 0454 91F83B10 		ldrb	r1, [r1, #59]	@ zero_extendqisi2
 917 0458 11F0FD0F 		tst	r1, #253
 918 045c 00F0A981 		beq	.L206
 919              		.loc 1 843 0
 920 0460 0329     		cmp	r1, #3
 921 0462 00F03E82 		beq	.L207
 922              	.L114:
 923              		.loc 1 849 0
 924 0466 4344     		add	r3, r3, r8
 925 0468 04EBC303 		add	r3, r4, r3, lsl #3
 926 046c 93F84C20 		ldrb	r2, [r3, #76]	@ zero_extendqisi2
 927 0470 82F00102 		eor	r2, r2, #1
 928 0474 83F84C20 		strb	r2, [r3, #76]
 929 0478 2068     		ldr	r0, [r4]
 930 047a A268     		ldr	r2, [r4, #8]
 931              	.LVL78:
 932              	.L103:
 933              	.LBE31:
 934              	.LBE30:
 935              		.loc 1 519 0 discriminator 2
 936 047c 0136     		adds	r6, r6, #1
 937              	.LVL79:
 938 047e B242     		cmp	r2, r6
 939 0480 05F12005 		add	r5, r5, #32
 940 0484 3CD9     		bls	.L102
 941              	.LVL80:
 942              	.L145:
 943              		.loc 1 521 0
 944 0486 09FA06F3 		lsl	r3, r9, r6
 945 048a 13EA0A0F 		tst	r3, r10
 946 048e F5D0     		beq	.L103
 947              		.loc 1 523 0
 948 0490 2B68     		ldr	r3, [r5]
 949 0492 1904     		lsls	r1, r3, #16
 950              		.loc 1 525 0
 951 0494 5FFA86F8 		uxtb	r8, r6
 952              		.loc 1 523 0
ARM GAS  /tmp/ccxWHGgL.s 			page 18


 953 0498 B2D4     		bmi	.L208
 954              	.LVL81:
 955              	.LBB43:
 956              	.LBB21:
 957              		.loc 1 926 0
 958 049a 4FEA4813 		lsl	r3, r8, #5
 959 049e 00F5A06E 		add	lr, r0, #1280
 960 04a2 0EEB0307 		add	r7, lr, r3
 961 04a6 B968     		ldr	r1, [r7, #8]
 962 04a8 4907     		lsls	r1, r1, #29
 963 04aa 00F19580 		bmi	.L209
 964              		.loc 1 931 0
 965 04ae B968     		ldr	r1, [r7, #8]
 966 04b0 11F02001 		ands	r1, r1, #32
 967 04b4 00F09780 		beq	.L127
 968              		.loc 1 935 0
 969 04b8 08EB8803 		add	r3, r8, r8, lsl #2
 970              		.loc 1 933 0
 971 04bc 2021     		movs	r1, #32
 972              		.loc 1 935 0
 973 04be 04EBC303 		add	r3, r4, r3, lsl #3
 974              		.loc 1 933 0
 975 04c2 B960     		str	r1, [r7, #8]
 976              		.loc 1 935 0
 977 04c4 93F83910 		ldrb	r1, [r3, #57]	@ zero_extendqisi2
 978 04c8 0129     		cmp	r1, #1
 979 04ca D7D1     		bne	.L103
 980              		.loc 1 938 0
 981 04cc FA68     		ldr	r2, [r7, #12]
 982              		.loc 1 937 0
 983 04ce 4FF0040E 		mov	lr, #4
 984              		.loc 1 938 0
 985 04d2 42F00202 		orr	r2, r2, #2
 986              		.loc 1 937 0
 987 04d6 83F859E0 		strb	lr, [r3, #89]
 988              		.loc 1 939 0
 989 04da 4146     		mov	r1, r8
 990              		.loc 1 937 0
 991 04dc 5033     		adds	r3, r3, #80
 992              		.loc 1 938 0
 993 04de FA60     		str	r2, [r7, #12]
 994              		.loc 1 937 0
 995 04e0 0093     		str	r3, [sp]
 996              		.loc 1 939 0
 997 04e2 FFF7FEFF 		bl	USB_HC_Halt
 998              	.LVL82:
 999              		.loc 1 940 0
 1000 04e6 009B     		ldr	r3, [sp]
 1001 04e8 2068     		ldr	r0, [r4]
 1002 04ea 83F808B0 		strb	fp, [r3, #8]
 1003 04ee A268     		ldr	r2, [r4, #8]
 1004 04f0 C4E7     		b	.L103
 1005              	.LVL83:
 1006              	.L105:
 1007              	.LBE21:
 1008              	.LBE43:
 1009              	.LBB44:
ARM GAS  /tmp/ccxWHGgL.s 			page 19


 1010              	.LBB32:
 1011              		.loc 1 792 0
 1012 04f2 BB68     		ldr	r3, [r7, #8]
 1013 04f4 9906     		lsls	r1, r3, #26
 1014 04f6 40F1D380 		bpl	.L107
 1015              		.loc 1 794 0
 1016 04fa 2023     		movs	r3, #32
 1017 04fc BB60     		str	r3, [r7, #8]
 1018 04fe 8EE7     		b	.L106
 1019              	.LVL84:
 1020              	.L102:
 1021              	.LBE32:
 1022              	.LBE44:
 1023              		.loc 1 533 0
 1024 0500 4FF00073 		mov	r3, #33554432
 1025 0504 4361     		str	r3, [r0, #20]
 1026 0506 20E7     		b	.L100
 1027              	.LVL85:
 1028              	.L203:
 1029              	.LBB45:
 1030              	.LBB12:
 1031              		.loc 1 1118 0
 1032 0508 D6F84034 		ldr	r3, [r6, #1088]
 1033 050c 0293     		str	r3, [sp, #8]
 1034              		.loc 1 1119 0
 1035 050e D6F84034 		ldr	r3, [r6, #1088]
 1036 0512 0393     		str	r3, [sp, #12]
 1037              		.loc 1 1121 0
 1038 0514 039B     		ldr	r3, [sp, #12]
 1039 0516 23F02E03 		bic	r3, r3, #46
 1040 051a 0393     		str	r3, [sp, #12]
 1041              		.loc 1 1125 0
 1042 051c 029B     		ldr	r3, [sp, #8]
 1043 051e 9B07     		lsls	r3, r3, #30
 1044              		.loc 1 1114 0
 1045 0520 3746     		mov	r7, r6
 1046              		.loc 1 1125 0
 1047 0522 07D5     		bpl	.L87
 1048              		.loc 1 1127 0
 1049 0524 029B     		ldr	r3, [sp, #8]
 1050 0526 D807     		lsls	r0, r3, #31
 1051 0528 00F18781 		bmi	.L210
 1052              	.L88:
 1053              		.loc 1 1132 0
 1054 052c 039B     		ldr	r3, [sp, #12]
 1055 052e 43F00203 		orr	r3, r3, #2
 1056 0532 0393     		str	r3, [sp, #12]
 1057              	.L87:
 1058              		.loc 1 1137 0
 1059 0534 029B     		ldr	r3, [sp, #8]
 1060 0536 1907     		lsls	r1, r3, #28
 1061 0538 00F11C81 		bmi	.L89
 1062 053c 2668     		ldr	r6, [r4]
 1063              	.L90:
 1064              		.loc 1 1179 0
 1065 053e 029B     		ldr	r3, [sp, #8]
 1066 0540 9B06     		lsls	r3, r3, #26
ARM GAS  /tmp/ccxWHGgL.s 			page 20


 1067 0542 03D5     		bpl	.L96
 1068              		.loc 1 1181 0
 1069 0544 039B     		ldr	r3, [sp, #12]
 1070 0546 43F02003 		orr	r3, r3, #32
 1071 054a 0393     		str	r3, [sp, #12]
 1072              	.L96:
 1073              		.loc 1 1185 0
 1074 054c 039B     		ldr	r3, [sp, #12]
 1075 054e C7F84034 		str	r3, [r7, #1088]
 1076 0552 EDE6     		b	.L86
 1077              	.LVL86:
 1078              	.L84:
 1079              	.LBE12:
 1080              	.LBE45:
 1081              		.loc 1 492 0
 1082 0554 D5F84034 		ldr	r3, [r5, #1088]
 1083 0558 23F02E03 		bic	r3, r3, #46
 1084 055c C5F84034 		str	r3, [r5, #1088]
 1085              		.loc 1 496 0
 1086 0560 2046     		mov	r0, r4
 1087 0562 FFF7FEFF 		bl	HAL_HCD_Disconnect_Callback
 1088              	.LVL87:
 1089              		.loc 1 497 0
 1090 0566 2068     		ldr	r0, [r4]
 1091 0568 0121     		movs	r1, #1
 1092 056a FFF7FEFF 		bl	USB_InitFSLSPClkSel
 1093              	.LVL88:
 1094              		.loc 1 498 0
 1095 056e 2068     		ldr	r0, [r4]
 1096 0570 4FF00053 		mov	r3, #536870912
 1097 0574 4361     		str	r3, [r0, #20]
 1098 0576 D5E6     		b	.L85
 1099              	.L97:
 1100              		.loc 1 510 0
 1101 0578 2046     		mov	r0, r4
 1102 057a FFF7FEFF 		bl	HAL_HCD_SOF_Callback
 1103              	.LVL89:
 1104              		.loc 1 511 0
 1105 057e 2068     		ldr	r0, [r4]
 1106 0580 0823     		movs	r3, #8
 1107 0582 4361     		str	r3, [r0, #20]
 1108 0584 DBE6     		b	.L98
 1109              	.LVL90:
 1110              	.L110:
 1111              	.LBB46:
 1112              	.LBB33:
 1113              		.loc 1 852 0
 1114 0586 BB68     		ldr	r3, [r7, #8]
 1115 0588 9907     		lsls	r1, r3, #30
 1116 058a 40F1C780 		bpl	.L115
 1117              		.loc 1 856 0
 1118 058e 4FEA8803 		lsl	r3, r8, #2
 1119 0592 03EB0801 		add	r1, r3, r8
 1120 0596 04EBC101 		add	r1, r4, r1, lsl #3
 1121 059a 5031     		adds	r1, r1, #80
 1122              		.loc 1 854 0
 1123 059c D7F80CE0 		ldr	lr, [r7, #12]
ARM GAS  /tmp/ccxWHGgL.s 			page 21


 1124              		.loc 1 856 0
 1125 05a0 487A     		ldrb	r0, [r1, #9]	@ zero_extendqisi2
 1126              		.loc 1 854 0
 1127 05a2 2EF0020E 		bic	lr, lr, #2
 1128              		.loc 1 856 0
 1129 05a6 0128     		cmp	r0, #1
 1130              		.loc 1 854 0
 1131 05a8 C7F80CE0 		str	lr, [r7, #12]
 1132              		.loc 1 856 0
 1133 05ac 00F01681 		beq	.L197
 1134              		.loc 1 861 0
 1135 05b0 0528     		cmp	r0, #5
 1136 05b2 00F01381 		beq	.L197
 1137              		.loc 1 866 0
 1138 05b6 0628     		cmp	r0, #6
 1139 05b8 00F04781 		beq	.L119
 1140 05bc 0828     		cmp	r0, #8
 1141 05be 00F04481 		beq	.L119
 1142 05c2 087A     		ldrb	r0, [r1, #8]	@ zero_extendqisi2
 1143              	.L117:
 1144              		.loc 1 883 0
 1145 05c4 C7F808B0 		str	fp, [r7, #8]
 1146              		.loc 1 884 0
 1147 05c8 0246     		mov	r2, r0
 1148 05ca 4146     		mov	r1, r8
 1149 05cc 2046     		mov	r0, r4
 1150 05ce FFF7FEFF 		bl	HAL_HCD_HC_NotifyURBChange_Callback
 1151              	.LVL91:
 1152 05d2 2068     		ldr	r0, [r4]
 1153 05d4 A268     		ldr	r2, [r4, #8]
 1154 05d6 51E7     		b	.L103
 1155              	.LVL92:
 1156              	.L209:
 1157              	.LBE33:
 1158              	.LBE46:
 1159              	.LBB47:
 1160              	.LBB22:
 1161              		.loc 1 928 0
 1162 05d8 0423     		movs	r3, #4
 1163 05da BB60     		str	r3, [r7, #8]
 1164              		.loc 1 929 0
 1165 05dc FB68     		ldr	r3, [r7, #12]
 1166 05de 43F00203 		orr	r3, r3, #2
 1167 05e2 FB60     		str	r3, [r7, #12]
 1168 05e4 4AE7     		b	.L103
 1169              	.L127:
 1170              		.loc 1 944 0
 1171 05e6 D7F808C0 		ldr	ip, [r7, #8]
 1172 05ea 1CF0400F 		tst	ip, #64
 1173 05ee 40F00F81 		bne	.L211
 1174              		.loc 1 954 0
 1175 05f2 B968     		ldr	r1, [r7, #8]
 1176 05f4 11F40071 		ands	r1, r1, #512
 1177 05f8 40F04181 		bne	.L212
 1178              		.loc 1 961 0
 1179 05fc D7F808C0 		ldr	ip, [r7, #8]
 1180 0600 1CF0010F 		tst	ip, #1
ARM GAS  /tmp/ccxWHGgL.s 			page 22


 1181 0604 40F05781 		bne	.L213
 1182              		.loc 1 971 0
 1183 0608 B968     		ldr	r1, [r7, #8]
 1184 060a 11F00801 		ands	r1, r1, #8
 1185 060e 40F07881 		bne	.L214
 1186              		.loc 1 979 0
 1187 0612 D7F808C0 		ldr	ip, [r7, #8]
 1188 0616 1CF0100F 		tst	ip, #16
 1189 061a 40F09481 		bne	.L215
 1190              		.loc 1 988 0
 1191 061e B968     		ldr	r1, [r7, #8]
 1192 0620 0906     		lsls	r1, r1, #24
 1193 0622 00F1A681 		bmi	.L216
 1194              		.loc 1 996 0
 1195 0626 B968     		ldr	r1, [r7, #8]
 1196 0628 11F48061 		ands	r1, r1, #1024
 1197 062c 40F0B481 		bne	.L217
 1198              		.loc 1 1006 0
 1199 0630 D7F808C0 		ldr	ip, [r7, #8]
 1200 0634 1CF0020F 		tst	ip, #2
 1201 0638 3FF420AF 		beq	.L103
 1202              		.loc 1 1010 0
 1203 063c 4FEA8802 		lsl	r2, r8, #2
 1204 0640 02EB0800 		add	r0, r2, r8
 1205              	.LVL93:
 1206 0644 04EBC000 		add	r0, r4, r0, lsl #3
 1207              		.loc 1 1008 0
 1208 0648 D7F80CC0 		ldr	ip, [r7, #12]
 1209              		.loc 1 1010 0
 1210 064c 90F85900 		ldrb	r0, [r0, #89]	@ zero_extendqisi2
 1211              		.loc 1 1008 0
 1212 0650 2CF0020C 		bic	ip, ip, #2
 1213              		.loc 1 1010 0
 1214 0654 0128     		cmp	r0, #1
 1215              		.loc 1 1008 0
 1216 0656 C7F80CC0 		str	ip, [r7, #12]
 1217              		.loc 1 1010 0
 1218 065a 00F0BD81 		beq	.L218
 1219              		.loc 1 1018 0
 1220 065e 0328     		cmp	r0, #3
 1221 0660 00F0CB81 		beq	.L219
 1222              		.loc 1 1023 0
 1223 0664 0428     		cmp	r0, #4
 1224 0666 00F0CE81 		beq	.L220
 1225              		.loc 1 1029 0
 1226 066a 0528     		cmp	r0, #5
 1227 066c 00F0F181 		beq	.L221
 1228              		.loc 1 1034 0
 1229 0670 0628     		cmp	r0, #6
 1230 0672 00F0D081 		beq	.L141
 1231 0676 0828     		cmp	r0, #8
 1232 0678 00F0CD81 		beq	.L141
 1233              	.L137:
 1234              		.loc 1 1053 0
 1235 067c 02EB0803 		add	r3, r2, r8
 1236 0680 04EBC303 		add	r3, r4, r3, lsl #3
 1237              		.loc 1 1052 0
ARM GAS  /tmp/ccxWHGgL.s 			page 23


 1238 0684 C7F808B0 		str	fp, [r7, #8]
 1239              		.loc 1 1053 0
 1240 0688 93F85820 		ldrb	r2, [r3, #88]	@ zero_extendqisi2
 1241 068c 4146     		mov	r1, r8
 1242 068e 2046     		mov	r0, r4
 1243 0690 FFF7FEFF 		bl	HAL_HCD_HC_NotifyURBChange_Callback
 1244              	.LVL94:
 1245              	.L199:
 1246 0694 2068     		ldr	r0, [r4]
 1247 0696 A268     		ldr	r2, [r4, #8]
 1248 0698 F0E6     		b	.L103
 1249              	.L227:
 1250 069a 00BF     		.align	2
 1251              	.L226:
 1252 069c 0000F81F 		.word	536346624
 1253              	.LVL95:
 1254              	.L107:
 1255              	.LBE22:
 1256              	.LBE47:
 1257              	.LBB48:
 1258              	.LBB34:
 1259              		.loc 1 797 0
 1260 06a0 BB68     		ldr	r3, [r7, #8]
 1261 06a2 1B07     		lsls	r3, r3, #28
 1262 06a4 00F19C80 		bmi	.L222
 1263              		.loc 1 805 0
 1264 06a8 BB68     		ldr	r3, [r7, #8]
 1265 06aa 5905     		lsls	r1, r3, #21
 1266 06ac 7FF5B7AE 		bpl	.L106
 1267              		.loc 1 807 0
 1268 06b0 FB68     		ldr	r3, [r7, #12]
 1269 06b2 43F00203 		orr	r3, r3, #2
 1270 06b6 FB60     		str	r3, [r7, #12]
 1271              		.loc 1 808 0
 1272 06b8 4146     		mov	r1, r8
 1273 06ba 8DE80410 		stmia	sp, {r2, ip}
 1274 06be FFF7FEFF 		bl	USB_HC_Halt
 1275              	.LVL96:
 1276              		.loc 1 810 0
 1277 06c2 08EB8803 		add	r3, r8, r8, lsl #2
 1278 06c6 04EBC303 		add	r3, r4, r3, lsl #3
 1279              		.loc 1 809 0
 1280 06ca 4FF0100E 		mov	lr, #16
 1281              		.loc 1 810 0
 1282 06ce 0820     		movs	r0, #8
 1283              		.loc 1 811 0
 1284 06d0 4FF48061 		mov	r1, #1024
 1285              		.loc 1 809 0
 1286 06d4 C7F808E0 		str	lr, [r7, #8]
 1287              		.loc 1 811 0
 1288 06d8 9DE80410 		ldmia	sp, {r2, ip}
 1289              		.loc 1 810 0
 1290 06dc 83F85900 		strb	r0, [r3, #89]
 1291              		.loc 1 811 0
 1292 06e0 B960     		str	r1, [r7, #8]
 1293 06e2 9CE6     		b	.L106
 1294              	.LVL97:
ARM GAS  /tmp/ccxWHGgL.s 			page 24


 1295              	.L205:
 1296              		.loc 1 816 0
 1297 06e4 FB68     		ldr	r3, [r7, #12]
 1298              		.loc 1 817 0
 1299 06e6 2068     		ldr	r0, [r4]
 1300              	.LVL98:
 1301              	.L198:
 1302              	.LBE34:
 1303              	.LBE48:
 1304              	.LBB49:
 1305              	.LBB23:
 1306              		.loc 1 956 0
 1307 06e8 43F00203 		orr	r3, r3, #2
 1308 06ec FB60     		str	r3, [r7, #12]
 1309              		.loc 1 957 0
 1310 06ee 4146     		mov	r1, r8
 1311 06f0 FFF7FEFF 		bl	USB_HC_Halt
 1312              	.LVL99:
 1313              		.loc 1 958 0
 1314 06f4 4FF40073 		mov	r3, #512
 1315 06f8 BB60     		str	r3, [r7, #8]
 1316 06fa 2068     		ldr	r0, [r4]
 1317 06fc A268     		ldr	r2, [r4, #8]
 1318 06fe BDE6     		b	.L103
 1319              	.LVL100:
 1320              	.L111:
 1321              	.LBE23:
 1322              	.LBE49:
 1323              	.LBB50:
 1324              	.LBB35:
 1325              		.loc 1 826 0
 1326 0700 4FEA8803 		lsl	r3, r8, #2
 1327 0704 03EB0801 		add	r1, r3, r8
 1328              		.loc 1 827 0
 1329 0708 3869     		ldr	r0, [r7, #16]
 1330              		.loc 1 826 0
 1331 070a 04EBC101 		add	r1, r4, r1, lsl #3
 1332              		.loc 1 827 0
 1333 070e C0F3120E 		ubfx	lr, r0, #0, #19
 1334              		.loc 1 826 0
 1335 0712 486C     		ldr	r0, [r1, #68]
 1336 0714 CEEB0000 		rsb	r0, lr, r0
 1337 0718 8864     		str	r0, [r1, #72]
 1338 071a 8EE6     		b	.L112
 1339              	.L115:
 1340              		.loc 1 887 0
 1341 071c BB68     		ldr	r3, [r7, #8]
 1342 071e 1B06     		lsls	r3, r3, #24
 1343 0720 00F1AF80 		bmi	.L223
 1344              		.loc 1 895 0
 1345 0724 BB68     		ldr	r3, [r7, #8]
 1346 0726 D806     		lsls	r0, r3, #27
 1347 0728 B4D5     		bpl	.L199
 1348              		.loc 1 897 0
 1349 072a 4FEA8803 		lsl	r3, r8, #2
 1350 072e 03EB0801 		add	r1, r3, r8
 1351 0732 04EBC101 		add	r1, r4, r1, lsl #3
ARM GAS  /tmp/ccxWHGgL.s 			page 25


 1352 0736 91F83B10 		ldrb	r1, [r1, #59]	@ zero_extendqisi2
 1353 073a 0329     		cmp	r1, #3
 1354 073c 00F04181 		beq	.L224
 1355              		.loc 1 902 0
 1356 0740 11F0FD0F 		tst	r1, #253
 1357 0744 0BD1     		bne	.L125
 1358              		.loc 1 906 0
 1359 0746 52F80C10 		ldr	r1, [r2, ip]
 1360 074a 21F08041 		bic	r1, r1, #1073741824
 1361 074e 42F80C10 		str	r1, [r2, ip]
 1362              		.loc 1 907 0
 1363 0752 52F80C10 		ldr	r1, [r2, ip]
 1364 0756 41F00041 		orr	r1, r1, #-2147483648
 1365 075a 42F80C10 		str	r1, [r2, ip]
 1366              	.L125:
 1367              		.loc 1 910 0
 1368 075e 4344     		add	r3, r3, r8
 1369 0760 04EBC303 		add	r3, r4, r3, lsl #3
 1370              		.loc 1 911 0
 1371 0764 1022     		movs	r2, #16
 1372              		.loc 1 910 0
 1373 0766 0321     		movs	r1, #3
 1374 0768 83F85910 		strb	r1, [r3, #89]
 1375 076c 2068     		ldr	r0, [r4]
 1376              		.loc 1 911 0
 1377 076e BA60     		str	r2, [r7, #8]
 1378 0770 A268     		ldr	r2, [r4, #8]
 1379 0772 83E6     		b	.L103
 1380              	.LVL101:
 1381              	.L89:
 1382              	.LBE35:
 1383              	.LBE50:
 1384              	.LBB51:
 1385              	.LBB13:
 1386              		.loc 1 1139 0
 1387 0774 039B     		ldr	r3, [sp, #12]
 1388 0776 43F00803 		orr	r3, r3, #8
 1389 077a 0393     		str	r3, [sp, #12]
 1390              		.loc 1 1141 0
 1391 077c 029B     		ldr	r3, [sp, #8]
 1392 077e 5A07     		lsls	r2, r3, #29
 1393 0780 24D5     		bpl	.L91
 1394              		.loc 1 1143 0
 1395 0782 A169     		ldr	r1, [r4, #24]
 1396 0784 0229     		cmp	r1, #2
 1397 0786 00F0CF80 		beq	.L225
 1398              		.loc 1 1156 0
 1399 078a E368     		ldr	r3, [r4, #12]
 1400 078c 032B     		cmp	r3, #3
 1401              		.loc 1 1158 0
 1402 078e 04BF     		itt	eq
 1403 0790 4EF66023 		movweq	r3, #60000
 1404 0794 C6F80434 		streq	r3, [r6, #1028]
 1405              	.L94:
 1406              		.loc 1 1161 0
 1407 0798 2046     		mov	r0, r4
 1408 079a FFF7FEFF 		bl	HAL_HCD_Connect_Callback
ARM GAS  /tmp/ccxWHGgL.s 			page 26


 1409              	.LVL102:
 1410              		.loc 1 1163 0
 1411 079e E368     		ldr	r3, [r4, #12]
 1412              		.loc 1 1165 0
 1413 07a0 2668     		ldr	r6, [r4]
 1414              		.loc 1 1163 0
 1415 07a2 002B     		cmp	r3, #0
 1416 07a4 7FF4CBAE 		bne	.L90
 1417              	.L196:
 1418              		.loc 1 1174 0
 1419 07a8 B369     		ldr	r3, [r6, #24]
 1420 07aa 43F00053 		orr	r3, r3, #536870912
 1421 07ae B361     		str	r3, [r6, #24]
 1422 07b0 C5E6     		b	.L90
 1423              	.LVL103:
 1424              	.L206:
 1425              	.LBE13:
 1426              	.LBE51:
 1427              	.LBB52:
 1428              	.LBB36:
 1429              		.loc 1 838 0
 1430 07b2 FA68     		ldr	r2, [r7, #12]
 1431              		.loc 1 839 0
 1432 07b4 2068     		ldr	r0, [r4]
 1433 07b6 0093     		str	r3, [sp]
 1434              		.loc 1 838 0
 1435 07b8 42F00202 		orr	r2, r2, #2
 1436 07bc FA60     		str	r2, [r7, #12]
 1437              		.loc 1 839 0
 1438 07be 4146     		mov	r1, r8
 1439 07c0 FFF7FEFF 		bl	USB_HC_Halt
 1440              	.LVL104:
 1441              		.loc 1 840 0
 1442 07c4 1022     		movs	r2, #16
 1443 07c6 BA60     		str	r2, [r7, #8]
 1444 07c8 009B     		ldr	r3, [sp]
 1445 07ca 4CE6     		b	.L114
 1446              	.LVL105:
 1447              	.L91:
 1448              	.LBE36:
 1449              	.LBE52:
 1450              	.LBB53:
 1451              	.LBB14:
 1452              		.loc 1 1171 0
 1453 07cc D6F84034 		ldr	r3, [r6, #1088]
 1454 07d0 23F02E03 		bic	r3, r3, #46
 1455 07d4 C6F84034 		str	r3, [r6, #1088]
 1456              		.loc 1 1174 0
 1457 07d8 2668     		ldr	r6, [r4]
 1458 07da E5E7     		b	.L196
 1459              	.LVL106:
 1460              	.L197:
 1461              	.LBE14:
 1462              	.LBE53:
 1463              	.LBB54:
 1464              	.LBB37:
 1465              		.loc 1 863 0
ARM GAS  /tmp/ccxWHGgL.s 			page 27


 1466 07dc 0872     		strb	r0, [r1, #8]
 1467 07de F1E6     		b	.L117
 1468              	.LVL107:
 1469              	.L222:
 1470              		.loc 1 799 0
 1471 07e0 F968     		ldr	r1, [r7, #12]
 1472              		.loc 1 800 0
 1473 07e2 08EB8803 		add	r3, r8, r8, lsl #2
 1474 07e6 04EBC303 		add	r3, r4, r3, lsl #3
 1475              		.loc 1 799 0
 1476 07ea 41F00201 		orr	r1, r1, #2
 1477              		.loc 1 800 0
 1478 07ee 4FF0050E 		mov	lr, #5
 1479              		.loc 1 799 0
 1480 07f2 F960     		str	r1, [r7, #12]
 1481              		.loc 1 800 0
 1482 07f4 83F859E0 		strb	lr, [r3, #89]
 1483              		.loc 1 801 0
 1484 07f8 1021     		movs	r1, #16
 1485              		.loc 1 802 0
 1486 07fa 0823     		movs	r3, #8
 1487              		.loc 1 801 0
 1488 07fc B960     		str	r1, [r7, #8]
 1489              		.loc 1 803 0
 1490 07fe 4146     		mov	r1, r8
 1491              		.loc 1 802 0
 1492 0800 BB60     		str	r3, [r7, #8]
 1493 0802 8DE80410 		stmia	sp, {r2, ip}
 1494              		.loc 1 803 0
 1495 0806 FFF7FEFF 		bl	USB_HC_Halt
 1496              	.LVL108:
 1497 080a 9DE80410 		ldmia	sp, {r2, ip}
 1498 080e 06E6     		b	.L106
 1499              	.LVL109:
 1500              	.L211:
 1501              	.LBE37:
 1502              	.LBE54:
 1503              	.LBB55:
 1504              	.LBB24:
 1505              		.loc 1 948 0
 1506 0810 FA68     		ldr	r2, [r7, #12]
 1507              		.loc 1 946 0
 1508 0812 08EB8803 		add	r3, r8, r8, lsl #2
 1509 0816 04EBC303 		add	r3, r4, r3, lsl #3
 1510              		.loc 1 948 0
 1511 081a 42F00202 		orr	r2, r2, #2
 1512              		.loc 1 946 0
 1513 081e 4FF0040E 		mov	lr, #4
 1514              		.loc 1 947 0
 1515 0822 5965     		str	r1, [r3, #84]
 1516              		.loc 1 946 0
 1517 0824 83F859E0 		strb	lr, [r3, #89]
 1518              		.loc 1 949 0
 1519 0828 4146     		mov	r1, r8
 1520              		.loc 1 948 0
 1521 082a FA60     		str	r2, [r7, #12]
 1522              		.loc 1 949 0
ARM GAS  /tmp/ccxWHGgL.s 			page 28


 1523 082c FFF7FEFF 		bl	USB_HC_Halt
 1524              	.LVL110:
 1525              		.loc 1 950 0
 1526 0830 4023     		movs	r3, #64
 1527 0832 BB60     		str	r3, [r7, #8]
 1528 0834 2068     		ldr	r0, [r4]
 1529 0836 A268     		ldr	r2, [r4, #8]
 1530 0838 20E6     		b	.L103
 1531              	.LVL111:
 1532              	.L210:
 1533              	.LBE24:
 1534              	.LBE55:
 1535              	.LBB56:
 1536              	.LBB15:
 1537              		.loc 1 1129 0
 1538 083a B369     		ldr	r3, [r6, #24]
 1539 083c 23F00053 		bic	r3, r3, #536870912
 1540 0840 B361     		str	r3, [r6, #24]
 1541              		.loc 1 1130 0
 1542 0842 2046     		mov	r0, r4
 1543 0844 FFF7FEFF 		bl	HAL_HCD_Connect_Callback
 1544              	.LVL112:
 1545 0848 70E6     		b	.L88
 1546              	.LVL113:
 1547              	.L119:
 1548              	.LBE15:
 1549              	.LBE56:
 1550              	.LBB57:
 1551              	.LBB38:
 1552              		.loc 1 869 0
 1553 084a 4344     		add	r3, r3, r8
 1554 084c 04EBC303 		add	r3, r4, r3, lsl #3
 1555 0850 5033     		adds	r3, r3, #80
 1556 0852 5968     		ldr	r1, [r3, #4]
 1557 0854 481C     		adds	r0, r1, #1
 1558 0856 0329     		cmp	r1, #3
 1559 0858 5860     		str	r0, [r3, #4]
 1560 085a 70D9     		bls	.L120
 1561              		.loc 1 871 0
 1562 085c 0021     		movs	r1, #0
 1563              		.loc 1 872 0
 1564 085e 0420     		movs	r0, #4
 1565              		.loc 1 871 0
 1566 0860 5960     		str	r1, [r3, #4]
 1567              		.loc 1 872 0
 1568 0862 1872     		strb	r0, [r3, #8]
 1569              	.L121:
 1570              		.loc 1 880 0
 1571 0864 52F80C30 		ldr	r3, [r2, ip]
 1572 0868 23F08043 		bic	r3, r3, #1073741824
 1573 086c 42F80C30 		str	r3, [r2, ip]
 1574              		.loc 1 881 0
 1575 0870 52F80C30 		ldr	r3, [r2, ip]
 1576 0874 43F00043 		orr	r3, r3, #-2147483648
 1577 0878 42F80C30 		str	r3, [r2, ip]
 1578 087c A2E6     		b	.L117
 1579              	.LVL114:
ARM GAS  /tmp/ccxWHGgL.s 			page 29


 1580              	.L212:
 1581              	.LBE38:
 1582              	.LBE57:
 1583              	.LBB58:
 1584              	.LBB25:
 1585              		.loc 1 956 0
 1586 087e FB68     		ldr	r3, [r7, #12]
 1587 0880 32E7     		b	.L198
 1588              	.LVL115:
 1589              	.L223:
 1590              	.LBE25:
 1591              	.LBE58:
 1592              	.LBB59:
 1593              	.LBB39:
 1594              		.loc 1 890 0
 1595 0882 08EB8802 		add	r2, r8, r8, lsl #2
 1596 0886 04EBC202 		add	r2, r4, r2, lsl #3
 1597              		.loc 1 889 0
 1598 088a F968     		ldr	r1, [r7, #12]
 1599              		.loc 1 890 0
 1600 088c 536D     		ldr	r3, [r2, #84]
 1601              		.loc 1 892 0
 1602 088e 2068     		ldr	r0, [r4]
 1603              		.loc 1 890 0
 1604 0890 03F1010E 		add	lr, r3, #1
 1605              		.loc 1 891 0
 1606 0894 4FF0060C 		mov	ip, #6
 1607              		.loc 1 889 0
 1608 0898 41F00203 		orr	r3, r1, #2
 1609 089c FB60     		str	r3, [r7, #12]
 1610              		.loc 1 892 0
 1611 089e 4146     		mov	r1, r8
 1612              		.loc 1 890 0
 1613 08a0 C2F854E0 		str	lr, [r2, #84]
 1614              		.loc 1 891 0
 1615 08a4 82F859C0 		strb	ip, [r2, #89]
 1616              		.loc 1 892 0
 1617 08a8 FFF7FEFF 		bl	USB_HC_Halt
 1618              	.LVL116:
 1619              		.loc 1 893 0
 1620 08ac 8023     		movs	r3, #128
 1621 08ae BB60     		str	r3, [r7, #8]
 1622 08b0 2068     		ldr	r0, [r4]
 1623 08b2 A268     		ldr	r2, [r4, #8]
 1624 08b4 E2E5     		b	.L103
 1625              	.LVL117:
 1626              	.L213:
 1627              	.LBE39:
 1628              	.LBE59:
 1629              	.LBB60:
 1630              	.LBB26:
 1631              		.loc 1 964 0
 1632 08b6 FA68     		ldr	r2, [r7, #12]
 1633              		.loc 1 963 0
 1634 08b8 08EB8803 		add	r3, r8, r8, lsl #2
 1635 08bc 04EBC303 		add	r3, r4, r3, lsl #3
 1636              		.loc 1 964 0
ARM GAS  /tmp/ccxWHGgL.s 			page 30


 1637 08c0 42F00202 		orr	r2, r2, #2
 1638              		.loc 1 963 0
 1639 08c4 5965     		str	r1, [r3, #84]
 1640 08c6 5033     		adds	r3, r3, #80
 1641              		.loc 1 964 0
 1642 08c8 FA60     		str	r2, [r7, #12]
 1643              		.loc 1 965 0
 1644 08ca 4146     		mov	r1, r8
 1645              		.loc 1 963 0
 1646 08cc 0093     		str	r3, [sp]
 1647              		.loc 1 965 0
 1648 08ce FFF7FEFF 		bl	USB_HC_Halt
 1649              	.LVL118:
 1650              		.loc 1 967 0
 1651 08d2 009B     		ldr	r3, [sp]
 1652              		.loc 1 966 0
 1653 08d4 C7F80890 		str	r9, [r7, #8]
 1654 08d8 2068     		ldr	r0, [r4]
 1655 08da A268     		ldr	r2, [r4, #8]
 1656              		.loc 1 967 0
 1657 08dc 83F80990 		strb	r9, [r3, #9]
 1658 08e0 CCE5     		b	.L103
 1659              	.LVL119:
 1660              	.L207:
 1661              	.LBE26:
 1662              	.LBE60:
 1663              	.LBB61:
 1664              	.LBB40:
 1665              		.loc 1 845 0
 1666 08e2 52F80C10 		ldr	r1, [r2, ip]
 1667 08e6 0093     		str	r3, [sp]
 1668 08e8 41F00051 		orr	r1, r1, #536870912
 1669 08ec 42F80C10 		str	r1, [r2, ip]
 1670              		.loc 1 847 0
 1671 08f0 2046     		mov	r0, r4
 1672              		.loc 1 846 0
 1673 08f2 8EF80890 		strb	r9, [lr, #8]
 1674              		.loc 1 847 0
 1675 08f6 4146     		mov	r1, r8
 1676 08f8 0122     		movs	r2, #1
 1677 08fa FFF7FEFF 		bl	HAL_HCD_HC_NotifyURBChange_Callback
 1678              	.LVL120:
 1679 08fe 009B     		ldr	r3, [sp]
 1680 0900 B1E5     		b	.L114
 1681              	.LVL121:
 1682              	.L214:
 1683              	.LBE40:
 1684              	.LBE61:
 1685              	.LBB62:
 1686              	.LBB27:
 1687              		.loc 1 973 0
 1688 0902 0823     		movs	r3, #8
 1689 0904 BB60     		str	r3, [r7, #8]
 1690              		.loc 1 974 0
 1691 0906 FB68     		ldr	r3, [r7, #12]
 1692 0908 43F00203 		orr	r3, r3, #2
 1693 090c FB60     		str	r3, [r7, #12]
ARM GAS  /tmp/ccxWHGgL.s 			page 31


 1694              		.loc 1 975 0
 1695 090e 4146     		mov	r1, r8
 1696              		.loc 1 976 0
 1697 0910 08EB8808 		add	r8, r8, r8, lsl #2
 1698              		.loc 1 975 0
 1699 0914 FFF7FEFF 		bl	USB_HC_Halt
 1700              	.LVL122:
 1701              		.loc 1 976 0
 1702 0918 04EBC803 		add	r3, r4, r8, lsl #3
 1703 091c 0522     		movs	r2, #5
 1704 091e 83F85920 		strb	r2, [r3, #89]
 1705 0922 2068     		ldr	r0, [r4]
 1706 0924 A268     		ldr	r2, [r4, #8]
 1707 0926 A9E5     		b	.L103
 1708              	.LVL123:
 1709              	.L225:
 1710              	.LBE27:
 1711              	.LBE62:
 1712              	.LBB63:
 1713              	.LBB16:
 1714              		.loc 1 1145 0
 1715 0928 029B     		ldr	r3, [sp, #8]
 1716              		.loc 1 1147 0
 1717 092a 2068     		ldr	r0, [r4]
 1718              		.loc 1 1145 0
 1719 092c 03F4C023 		and	r3, r3, #393216
 1720 0930 B3F5802F 		cmp	r3, #262144
 1721              		.loc 1 1151 0
 1722 0934 18BF     		it	ne
 1723 0936 0121     		movne	r1, #1
 1724 0938 FFF7FEFF 		bl	USB_InitFSLSPClkSel
 1725              	.LVL124:
 1726 093c 2CE7     		b	.L94
 1727              	.LVL125:
 1728              	.L120:
 1729              	.LBE16:
 1730              	.LBE63:
 1731              	.LBB64:
 1732              	.LBB41:
 1733              		.loc 1 876 0
 1734 093e 83F808B0 		strb	fp, [r3, #8]
 1735 0942 0220     		movs	r0, #2
 1736 0944 8EE7     		b	.L121
 1737              	.LVL126:
 1738              	.L215:
 1739              	.LBE41:
 1740              	.LBE64:
 1741              	.LBB65:
 1742              	.LBB28:
 1743              		.loc 1 982 0
 1744 0946 FA68     		ldr	r2, [r7, #12]
 1745              		.loc 1 981 0
 1746 0948 08EB8803 		add	r3, r8, r8, lsl #2
 1747 094c 04EBC303 		add	r3, r4, r3, lsl #3
 1748              		.loc 1 982 0
 1749 0950 42F00202 		orr	r2, r2, #2
 1750              		.loc 1 981 0
ARM GAS  /tmp/ccxWHGgL.s 			page 32


 1751 0954 5965     		str	r1, [r3, #84]
 1752 0956 5033     		adds	r3, r3, #80
 1753              		.loc 1 983 0
 1754 0958 4146     		mov	r1, r8
 1755              		.loc 1 982 0
 1756 095a FA60     		str	r2, [r7, #12]
 1757              		.loc 1 981 0
 1758 095c 0093     		str	r3, [sp]
 1759              		.loc 1 983 0
 1760 095e FFF7FEFF 		bl	USB_HC_Halt
 1761              	.LVL127:
 1762              		.loc 1 984 0
 1763 0962 009B     		ldr	r3, [sp]
 1764 0964 2068     		ldr	r0, [r4]
 1765              		.loc 1 985 0
 1766 0966 1022     		movs	r2, #16
 1767              		.loc 1 984 0
 1768 0968 0321     		movs	r1, #3
 1769 096a 5972     		strb	r1, [r3, #9]
 1770              		.loc 1 985 0
 1771 096c BA60     		str	r2, [r7, #8]
 1772 096e A268     		ldr	r2, [r4, #8]
 1773 0970 84E5     		b	.L103
 1774              	.LVL128:
 1775              	.L216:
 1776              		.loc 1 990 0
 1777 0972 FB68     		ldr	r3, [r7, #12]
 1778 0974 43F00203 		orr	r3, r3, #2
 1779              		.loc 1 991 0
 1780 0978 4146     		mov	r1, r8
 1781              		.loc 1 990 0
 1782 097a FB60     		str	r3, [r7, #12]
 1783              		.loc 1 992 0
 1784 097c 08EB8808 		add	r8, r8, r8, lsl #2
 1785              		.loc 1 991 0
 1786 0980 FFF7FEFF 		bl	USB_HC_Halt
 1787              	.LVL129:
 1788              		.loc 1 992 0
 1789 0984 04EBC803 		add	r3, r4, r8, lsl #3
 1790              		.loc 1 993 0
 1791 0988 8022     		movs	r2, #128
 1792              		.loc 1 992 0
 1793 098a 0621     		movs	r1, #6
 1794 098c 83F85910 		strb	r1, [r3, #89]
 1795 0990 2068     		ldr	r0, [r4]
 1796              		.loc 1 993 0
 1797 0992 BA60     		str	r2, [r7, #8]
 1798 0994 A268     		ldr	r2, [r4, #8]
 1799 0996 71E5     		b	.L103
 1800              	.LVL130:
 1801              	.L217:
 1802              		.loc 1 998 0
 1803 0998 FB68     		ldr	r3, [r7, #12]
 1804 099a 43F00203 		orr	r3, r3, #2
 1805              		.loc 1 999 0
 1806 099e 4146     		mov	r1, r8
 1807              		.loc 1 998 0
ARM GAS  /tmp/ccxWHGgL.s 			page 33


 1808 09a0 FB60     		str	r3, [r7, #12]
 1809              		.loc 1 999 0
 1810 09a2 FFF7FEFF 		bl	USB_HC_Halt
 1811              	.LVL131:
 1812              		.loc 1 1002 0
 1813 09a6 2823     		movs	r3, #40
 1814 09a8 03FB0848 		mla	r8, r3, r8, r4
 1815              		.loc 1 1001 0
 1816 09ac 4FF48062 		mov	r2, #1024
 1817              		.loc 1 1000 0
 1818 09b0 1021     		movs	r1, #16
 1819              		.loc 1 1002 0
 1820 09b2 0823     		movs	r3, #8
 1821              		.loc 1 1000 0
 1822 09b4 B960     		str	r1, [r7, #8]
 1823 09b6 2068     		ldr	r0, [r4]
 1824              		.loc 1 1001 0
 1825 09b8 BA60     		str	r2, [r7, #8]
 1826 09ba A268     		ldr	r2, [r4, #8]
 1827              		.loc 1 1002 0
 1828 09bc 88F85930 		strb	r3, [r8, #89]
 1829 09c0 5CE5     		b	.L103
 1830              	.LVL132:
 1831              	.L224:
 1832              	.LBE28:
 1833              	.LBE65:
 1834              	.LBB66:
 1835              	.LBB42:
 1836              		.loc 1 899 0
 1837 09c2 FA68     		ldr	r2, [r7, #12]
 1838              		.loc 1 900 0
 1839 09c4 2068     		ldr	r0, [r4]
 1840 09c6 0093     		str	r3, [sp]
 1841              		.loc 1 899 0
 1842 09c8 42F00202 		orr	r2, r2, #2
 1843 09cc FA60     		str	r2, [r7, #12]
 1844              		.loc 1 900 0
 1845 09ce 4146     		mov	r1, r8
 1846 09d0 FFF7FEFF 		bl	USB_HC_Halt
 1847              	.LVL133:
 1848 09d4 009B     		ldr	r3, [sp]
 1849 09d6 C2E6     		b	.L125
 1850              	.LVL134:
 1851              	.L218:
 1852              	.LBE42:
 1853              	.LBE66:
 1854              	.LBB67:
 1855              	.LBB29:
 1856              		.loc 1 1012 0
 1857 09d8 2823     		movs	r3, #40
 1858 09da 03FB0843 		mla	r3, r3, r8, r4
 1859              		.loc 1 1013 0
 1860 09de 93F83B10 		ldrb	r1, [r3, #59]	@ zero_extendqisi2
 1861              		.loc 1 1012 0
 1862 09e2 83F85800 		strb	r0, [r3, #88]
 1863              		.loc 1 1013 0
 1864 09e6 0229     		cmp	r1, #2
ARM GAS  /tmp/ccxWHGgL.s 			page 34


 1865 09e8 7FF448AE 		bne	.L137
 1866              		.loc 1 1015 0
 1867 09ec 93F84D10 		ldrb	r1, [r3, #77]	@ zero_extendqisi2
 1868 09f0 81F00101 		eor	r1, r1, #1
 1869 09f4 83F84D10 		strb	r1, [r3, #77]
 1870 09f8 40E6     		b	.L137
 1871              	.L219:
 1872              		.loc 1 1020 0
 1873 09fa 2823     		movs	r3, #40
 1874 09fc 03FB0843 		mla	r3, r3, r8, r4
 1875 0a00 83F858B0 		strb	fp, [r3, #88]
 1876 0a04 3AE6     		b	.L137
 1877              	.L220:
 1878              		.loc 1 1025 0
 1879 0a06 2823     		movs	r3, #40
 1880 0a08 03FB0843 		mla	r3, r3, r8, r4
 1881 0a0c 83F858B0 		strb	fp, [r3, #88]
 1882              		.loc 1 1026 0
 1883 0a10 83F83910 		strb	r1, [r3, #57]
 1884 0a14 32E6     		b	.L137
 1885              	.L141:
 1886              		.loc 1 1037 0
 1887 0a16 2821     		movs	r1, #40
 1888 0a18 01FB0841 		mla	r1, r1, r8, r4
 1889 0a1c 5031     		adds	r1, r1, #80
 1890 0a1e 4868     		ldr	r0, [r1, #4]
 1891 0a20 00F1010C 		add	ip, r0, #1
 1892 0a24 0328     		cmp	r0, #3
 1893 0a26 C1F804C0 		str	ip, [r1, #4]
 1894 0a2a 18D9     		bls	.L143
 1895              		.loc 1 1039 0
 1896 0a2c 4FF0000C 		mov	ip, #0
 1897              		.loc 1 1040 0
 1898 0a30 0420     		movs	r0, #4
 1899              		.loc 1 1039 0
 1900 0a32 C1F804C0 		str	ip, [r1, #4]
 1901              		.loc 1 1040 0
 1902 0a36 0872     		strb	r0, [r1, #8]
 1903              	.L144:
 1904              		.loc 1 1048 0
 1905 0a38 5EF80310 		ldr	r1, [lr, r3]
 1906 0a3c 21F08041 		bic	r1, r1, #1073741824
 1907 0a40 4EF80310 		str	r1, [lr, r3]
 1908              		.loc 1 1049 0
 1909 0a44 5EF80310 		ldr	r1, [lr, r3]
 1910 0a48 41F00041 		orr	r1, r1, #-2147483648
 1911 0a4c 4EF80310 		str	r1, [lr, r3]
 1912 0a50 14E6     		b	.L137
 1913              	.L221:
 1914              		.loc 1 1031 0
 1915 0a52 2823     		movs	r3, #40
 1916 0a54 03FB0843 		mla	r3, r3, r8, r4
 1917 0a58 83F85800 		strb	r0, [r3, #88]
 1918 0a5c 0EE6     		b	.L137
 1919              	.L143:
 1920              		.loc 1 1044 0
 1921 0a5e 81F808B0 		strb	fp, [r1, #8]
ARM GAS  /tmp/ccxWHGgL.s 			page 35


 1922 0a62 E9E7     		b	.L144
 1923              	.LBE29:
 1924              	.LBE67:
 1925              		.cfi_endproc
 1926              	.LFE130:
 1927              		.size	HAL_HCD_IRQHandler, .-HAL_HCD_IRQHandler
 1928              		.align	2
 1929 0a64 AFF30080 		.p2align 4,,15
 1929      AFF30080 
 1929      AFF30080 
 1930              		.global	HAL_HCD_Start
 1931              		.thumb
 1932              		.thumb_func
 1933              		.type	HAL_HCD_Start, %function
 1934              	HAL_HCD_Start:
 1935              	.LFB135:
 1936              		.loc 1 631 0
 1937              		.cfi_startproc
 1938              		@ args = 0, pretend = 0, frame = 0
 1939              		@ frame_needed = 0, uses_anonymous_args = 0
 1940              	.LVL135:
 1941 0a70 38B5     		push	{r3, r4, r5, lr}
 1942              		.cfi_def_cfa_offset 16
 1943              		.cfi_offset 3, -16
 1944              		.cfi_offset 4, -12
 1945              		.cfi_offset 5, -8
 1946              		.cfi_offset 14, -4
 1947              		.loc 1 632 0
 1948 0a72 90F88C32 		ldrb	r3, [r0, #652]	@ zero_extendqisi2
 1949 0a76 012B     		cmp	r3, #1
 1950 0a78 01D1     		bne	.L232
 1951 0a7a 0220     		movs	r0, #2
 1952              	.LVL136:
 1953              		.loc 1 637 0
 1954 0a7c 38BD     		pop	{r3, r4, r5, pc}
 1955              	.LVL137:
 1956              	.L232:
 1957 0a7e 0446     		mov	r4, r0
 1958              		.loc 1 632 0 discriminator 2
 1959 0a80 0125     		movs	r5, #1
 1960 0a82 80F88C52 		strb	r5, [r0, #652]
 1961              		.loc 1 633 0 discriminator 2
 1962 0a86 0068     		ldr	r0, [r0]
 1963              	.LVL138:
 1964 0a88 FFF7FEFF 		bl	USB_EnableGlobalInt
 1965              	.LVL139:
 1966              		.loc 1 634 0 discriminator 2
 1967 0a8c 2946     		mov	r1, r5
 1968 0a8e 2068     		ldr	r0, [r4]
 1969 0a90 FFF7FEFF 		bl	USB_DriveVbus
 1970              	.LVL140:
 1971              		.loc 1 635 0 discriminator 2
 1972 0a94 0020     		movs	r0, #0
 1973 0a96 84F88C02 		strb	r0, [r4, #652]
 1974              		.loc 1 636 0 discriminator 2
 1975 0a9a 38BD     		pop	{r3, r4, r5, pc}
 1976              		.cfi_endproc
ARM GAS  /tmp/ccxWHGgL.s 			page 36


 1977              	.LFE135:
 1978              		.size	HAL_HCD_Start, .-HAL_HCD_Start
 1979              		.align	2
 1980 0a9c AFF30080 		.p2align 4,,15
 1981              		.global	HAL_HCD_Stop
 1982              		.thumb
 1983              		.thumb_func
 1984              		.type	HAL_HCD_Stop, %function
 1985              	HAL_HCD_Stop:
 1986              	.LFB136:
 1987              		.loc 1 646 0
 1988              		.cfi_startproc
 1989              		@ args = 0, pretend = 0, frame = 0
 1990              		@ frame_needed = 0, uses_anonymous_args = 0
 1991              	.LVL141:
 1992              		.loc 1 647 0
 1993 0aa0 90F88C32 		ldrb	r3, [r0, #652]	@ zero_extendqisi2
 1994 0aa4 012B     		cmp	r3, #1
 1995 0aa6 01D1     		bne	.L238
 1996 0aa8 0220     		movs	r0, #2
 1997              	.LVL142:
 1998 0aaa 7047     		bx	lr
 1999              	.LVL143:
 2000              	.L238:
 2001              		.loc 1 646 0 discriminator 2
 2002 0aac 10B5     		push	{r4, lr}
 2003              		.cfi_def_cfa_offset 8
 2004              		.cfi_offset 4, -8
 2005              		.cfi_offset 14, -4
 2006              		.loc 1 647 0 discriminator 2
 2007 0aae 0123     		movs	r3, #1
 2008 0ab0 0446     		mov	r4, r0
 2009 0ab2 80F88C32 		strb	r3, [r0, #652]
 2010              		.loc 1 648 0 discriminator 2
 2011 0ab6 0068     		ldr	r0, [r0]
 2012              	.LVL144:
 2013 0ab8 FFF7FEFF 		bl	USB_StopHost
 2014              	.LVL145:
 2015              		.loc 1 649 0 discriminator 2
 2016 0abc 0020     		movs	r0, #0
 2017 0abe 84F88C02 		strb	r0, [r4, #652]
 2018              		.loc 1 650 0 discriminator 2
 2019 0ac2 10BD     		pop	{r4, pc}
 2020              		.cfi_endproc
 2021              	.LFE136:
 2022              		.size	HAL_HCD_Stop, .-HAL_HCD_Stop
 2023              		.align	2
 2024 0ac4 AFF30080 		.p2align 4,,15
 2024      AFF30080 
 2024      AFF30080 
 2025              		.global	HAL_HCD_ResetPort
 2026              		.thumb
 2027              		.thumb_func
 2028              		.type	HAL_HCD_ResetPort, %function
 2029              	HAL_HCD_ResetPort:
 2030              	.LFB137:
 2031              		.loc 1 659 0
ARM GAS  /tmp/ccxWHGgL.s 			page 37


 2032              		.cfi_startproc
 2033              		@ args = 0, pretend = 0, frame = 0
 2034              		@ frame_needed = 0, uses_anonymous_args = 0
 2035              		@ link register save eliminated.
 2036              	.LVL146:
 2037              		.loc 1 660 0
 2038 0ad0 0068     		ldr	r0, [r0]
 2039              	.LVL147:
 2040 0ad2 FFF7FEBF 		b	USB_ResetPort
 2041              	.LVL148:
 2042              		.cfi_endproc
 2043              	.LFE137:
 2044              		.size	HAL_HCD_ResetPort, .-HAL_HCD_ResetPort
 2045 0ad6 00BF     		.align	2
 2046 0ad8 AFF30080 		.p2align 4,,15
 2046      AFF30080 
 2047              		.global	HAL_HCD_GetState
 2048              		.thumb
 2049              		.thumb_func
 2050              		.type	HAL_HCD_GetState, %function
 2051              	HAL_HCD_GetState:
 2052              	.LFB138:
 2053              		.loc 1 688 0
 2054              		.cfi_startproc
 2055              		@ args = 0, pretend = 0, frame = 0
 2056              		@ frame_needed = 0, uses_anonymous_args = 0
 2057              		@ link register save eliminated.
 2058              	.LVL149:
 2059              		.loc 1 689 0
 2060 0ae0 90F88D02 		ldrb	r0, [r0, #653]	@ zero_extendqisi2
 2061              	.LVL150:
 2062              		.loc 1 690 0
 2063 0ae4 7047     		bx	lr
 2064              		.cfi_endproc
 2065              	.LFE138:
 2066              		.size	HAL_HCD_GetState, .-HAL_HCD_GetState
 2067 0ae6 00BF     		.align	2
 2068 0ae8 AFF30080 		.p2align 4,,15
 2068      AFF30080 
 2069              		.global	HAL_HCD_HC_GetURBState
 2070              		.thumb
 2071              		.thumb_func
 2072              		.type	HAL_HCD_HC_GetURBState, %function
 2073              	HAL_HCD_HC_GetURBState:
 2074              	.LFB139:
 2075              		.loc 1 707 0
 2076              		.cfi_startproc
 2077              		@ args = 0, pretend = 0, frame = 0
 2078              		@ frame_needed = 0, uses_anonymous_args = 0
 2079              		@ link register save eliminated.
 2080              	.LVL151:
 2081              		.loc 1 708 0
 2082 0af0 01EB8101 		add	r1, r1, r1, lsl #2
 2083              	.LVL152:
 2084 0af4 00EBC100 		add	r0, r0, r1, lsl #3
 2085              	.LVL153:
 2086              		.loc 1 709 0
ARM GAS  /tmp/ccxWHGgL.s 			page 38


 2087 0af8 90F85800 		ldrb	r0, [r0, #88]	@ zero_extendqisi2
 2088 0afc 7047     		bx	lr
 2089              		.cfi_endproc
 2090              	.LFE139:
 2091              		.size	HAL_HCD_HC_GetURBState, .-HAL_HCD_HC_GetURBState
 2092 0afe 00BF     		.align	2
 2093              		.p2align 4,,15
 2094              		.global	HAL_HCD_HC_GetXferCount
 2095              		.thumb
 2096              		.thumb_func
 2097              		.type	HAL_HCD_HC_GetXferCount, %function
 2098              	HAL_HCD_HC_GetXferCount:
 2099              	.LFB140:
 2100              		.loc 1 720 0
 2101              		.cfi_startproc
 2102              		@ args = 0, pretend = 0, frame = 0
 2103              		@ frame_needed = 0, uses_anonymous_args = 0
 2104              		@ link register save eliminated.
 2105              	.LVL154:
 2106              		.loc 1 721 0
 2107 0b00 01EB8101 		add	r1, r1, r1, lsl #2
 2108              	.LVL155:
 2109 0b04 00EBC100 		add	r0, r0, r1, lsl #3
 2110              	.LVL156:
 2111              		.loc 1 722 0
 2112 0b08 806C     		ldr	r0, [r0, #72]
 2113 0b0a 7047     		bx	lr
 2114              		.cfi_endproc
 2115              	.LFE140:
 2116              		.size	HAL_HCD_HC_GetXferCount, .-HAL_HCD_HC_GetXferCount
 2117              		.align	2
 2118 0b0c AFF30080 		.p2align 4,,15
 2119              		.global	HAL_HCD_HC_GetState
 2120              		.thumb
 2121              		.thumb_func
 2122              		.type	HAL_HCD_HC_GetState, %function
 2123              	HAL_HCD_HC_GetState:
 2124              	.LFB141:
 2125              		.loc 1 742 0
 2126              		.cfi_startproc
 2127              		@ args = 0, pretend = 0, frame = 0
 2128              		@ frame_needed = 0, uses_anonymous_args = 0
 2129              		@ link register save eliminated.
 2130              	.LVL157:
 2131              		.loc 1 743 0
 2132 0b10 01EB8101 		add	r1, r1, r1, lsl #2
 2133              	.LVL158:
 2134 0b14 00EBC100 		add	r0, r0, r1, lsl #3
 2135              	.LVL159:
 2136              		.loc 1 744 0
 2137 0b18 90F85900 		ldrb	r0, [r0, #89]	@ zero_extendqisi2
 2138 0b1c 7047     		bx	lr
 2139              		.cfi_endproc
 2140              	.LFE141:
 2141              		.size	HAL_HCD_HC_GetState, .-HAL_HCD_HC_GetState
 2142 0b1e 00BF     		.align	2
 2143              		.p2align 4,,15
ARM GAS  /tmp/ccxWHGgL.s 			page 39


 2144              		.global	HAL_HCD_GetCurrentFrame
 2145              		.thumb
 2146              		.thumb_func
 2147              		.type	HAL_HCD_GetCurrentFrame, %function
 2148              	HAL_HCD_GetCurrentFrame:
 2149              	.LFB142:
 2150              		.loc 1 752 0
 2151              		.cfi_startproc
 2152              		@ args = 0, pretend = 0, frame = 0
 2153              		@ frame_needed = 0, uses_anonymous_args = 0
 2154              		@ link register save eliminated.
 2155              	.LVL160:
 2156              		.loc 1 753 0
 2157 0b20 0068     		ldr	r0, [r0]
 2158              	.LVL161:
 2159 0b22 FFF7FEBF 		b	USB_GetCurrentFrame
 2160              	.LVL162:
 2161              		.cfi_endproc
 2162              	.LFE142:
 2163              		.size	HAL_HCD_GetCurrentFrame, .-HAL_HCD_GetCurrentFrame
 2164 0b26 00BF     		.align	2
 2165 0b28 AFF30080 		.p2align 4,,15
 2165      AFF30080 
 2166              		.global	HAL_HCD_GetCurrentSpeed
 2167              		.thumb
 2168              		.thumb_func
 2169              		.type	HAL_HCD_GetCurrentSpeed, %function
 2170              	HAL_HCD_GetCurrentSpeed:
 2171              	.LFB143:
 2172              		.loc 1 762 0
 2173              		.cfi_startproc
 2174              		@ args = 0, pretend = 0, frame = 0
 2175              		@ frame_needed = 0, uses_anonymous_args = 0
 2176              		@ link register save eliminated.
 2177              	.LVL163:
 2178              		.loc 1 763 0
 2179 0b30 0068     		ldr	r0, [r0]
 2180              	.LVL164:
 2181 0b32 FFF7FEBF 		b	USB_GetHostSpeed
 2182              	.LVL165:
 2183              		.cfi_endproc
 2184              	.LFE143:
 2185              		.size	HAL_HCD_GetCurrentSpeed, .-HAL_HCD_GetCurrentSpeed
 2186              	.Letext0:
 2187              		.file 2 "/d_drive/axoloti/platform_linux/arm-none-eabi/include/machine/_default_types.h"
 2188              		.file 3 "/d_drive/axoloti/platform_linux/arm-none-eabi/include/sys/_stdint.h"
 2189              		.file 4 "./stm32f427xx.h"
 2190              		.file 5 "./STM32F4xx_HAL_Driver/Inc/stm32f4xx_hal_def.h"
 2191              		.file 6 "./STM32F4xx_HAL_Driver/Inc/stm32f4xx_ll_usb.h"
 2192              		.file 7 "./STM32F4xx_HAL_Driver/Inc/stm32f4xx_hal_hcd.h"
 2193              		.file 8 "/d_drive/axoloti/platform_linux/../CMSIS//Include/core_cm4.h"