ARM GAS  /tmp/ccIU2uub.s 			page 1


   1              		.syntax unified
   2              		.cpu cortex-m4
   3              		.eabi_attribute 27, 1
   4              		.eabi_attribute 28, 1
   5              		.fpu fpv4-sp-d16
   6              		.eabi_attribute 20, 1
   7              		.eabi_attribute 21, 1
   8              		.eabi_attribute 23, 3
   9              		.eabi_attribute 24, 1
  10              		.eabi_attribute 25, 1
  11              		.eabi_attribute 26, 1
  12              		.eabi_attribute 30, 2
  13              		.eabi_attribute 34, 1
  14              		.eabi_attribute 18, 4
  15              		.thumb
  16              		.file	"stm32f4xx_hal_gpio.c"
  17              		.text
  18              	.Ltext0:
  19              		.cfi_sections	.debug_frame
  20              		.align	2
  21              		.p2align 4,,15
  22              		.global	HAL_GPIO_Init
  23              		.thumb
  24              		.thumb_func
  25              		.type	HAL_GPIO_Init, %function
  26              	HAL_GPIO_Init:
  27              	.LFB123:
  28              		.file 1 "./STM32F4xx_HAL_Driver/Src/stm32f4xx_hal_gpio.c"
  29              		.loc 1 190 0
  30              		.cfi_startproc
  31              		@ args = 0, pretend = 0, frame = 16
  32              		@ frame_needed = 0, uses_anonymous_args = 0
  33              	.LVL0:
  34 0000 2DE9F04F 		push	{r4, r5, r6, r7, r8, r9, r10, fp, lr}
  35              		.cfi_def_cfa_offset 36
  36              		.cfi_offset 4, -36
  37              		.cfi_offset 5, -32
  38              		.cfi_offset 6, -28
  39              		.cfi_offset 7, -24
  40              		.cfi_offset 8, -20
  41              		.cfi_offset 9, -16
  42              		.cfi_offset 10, -12
  43              		.cfi_offset 11, -8
  44              		.cfi_offset 14, -4
  45              		.loc 1 265 0
  46 0004 DFF858C2 		ldr	ip, .L44+40
  47              	.LBB2:
  48              		.loc 1 261 0
  49 0008 DFF858E2 		ldr	lr, .L44+44
  50 000c 0F68     		ldr	r7, [r1]
  51              	.LBE2:
  52              		.loc 1 269 0
  53 000e 8A4E     		ldr	r6, .L44
  54              		.loc 1 190 0
  55 0010 85B0     		sub	sp, sp, #20
  56              		.cfi_def_cfa_offset 56
  57              		.loc 1 203 0
ARM GAS  /tmp/ccIU2uub.s 			page 2


  58 0012 0023     		movs	r3, #0
  59 0014 03E0     		b	.L26
  60              	.LVL1:
  61              	.L3:
  62              		.loc 1 203 0 is_stmt 0 discriminator 2
  63 0016 0133     		adds	r3, r3, #1
  64              	.LVL2:
  65 0018 102B     		cmp	r3, #16
  66 001a 00F0A480 		beq	.L34
  67              	.LVL3:
  68              	.L26:
  69              		.loc 1 206 0 is_stmt 1
  70 001e 0122     		movs	r2, #1
  71 0020 9A40     		lsls	r2, r2, r3
  72              	.LVL4:
  73              		.loc 1 208 0
  74 0022 02EA0704 		and	r4, r2, r7
  75              	.LVL5:
  76              		.loc 1 210 0
  77 0026 9442     		cmp	r4, r2
  78 0028 F5D1     		bne	.L3
  79              		.loc 1 214 0
  80 002a 4D68     		ldr	r5, [r1, #4]
  81 002c 25F0100A 		bic	r10, r5, #16
  82 0030 BAF1020F 		cmp	r10, #2
  83 0034 00F09A80 		beq	.L35
  84 0038 4FEA4309 		lsl	r9, r3, #1
  85              		.loc 1 227 0
  86 003c 0322     		movs	r2, #3
  87              	.LVL6:
  88              		.loc 1 226 0
  89 003e D0F800B0 		ldr	fp, [r0]
  90              	.LVL7:
  91              		.loc 1 227 0
  92 0042 02FA09F2 		lsl	r2, r2, r9
  93 0046 D243     		mvns	r2, r2
  94              		.loc 1 228 0
  95 0048 05F00308 		and	r8, r5, #3
  96              		.loc 1 227 0
  97 004c 02EA0B0B 		and	fp, r2, fp
  98              	.LVL8:
  99              		.loc 1 228 0
 100 0050 08FA09F8 		lsl	r8, r8, r9
 101              		.loc 1 232 0
 102 0054 0AF1FF3A 		add	r10, r10, #-1
 103              		.loc 1 228 0
 104 0058 4BEA0808 		orr	r8, fp, r8
 105              	.LVL9:
 106              		.loc 1 232 0
 107 005c BAF1010F 		cmp	r10, #1
 108              		.loc 1 227 0
 109 0060 0192     		str	r2, [sp, #4]
 110              		.loc 1 229 0
 111 0062 C0F80080 		str	r8, [r0]
 112              		.loc 1 232 0
 113 0066 40F2AB80 		bls	.L5
 114              	.L6:
ARM GAS  /tmp/ccIU2uub.s 			page 3


 115              		.loc 1 251 0
 116 006a D0F80C80 		ldr	r8, [r0, #12]
 117              	.LVL10:
 118              		.loc 1 252 0
 119 006e 019A     		ldr	r2, [sp, #4]
 120 0070 02EA080A 		and	r10, r2, r8
 121              	.LVL11:
 122              		.loc 1 253 0
 123 0074 8A68     		ldr	r2, [r1, #8]
 124 0076 02FA09F8 		lsl	r8, r2, r9
 125 007a 4AEA0802 		orr	r2, r10, r8
 126              	.LVL12:
 127              		.loc 1 254 0
 128 007e C260     		str	r2, [r0, #12]
 129              		.loc 1 258 0
 130 0080 EA00     		lsls	r2, r5, #3
 131              	.LVL13:
 132 0082 C8D5     		bpl	.L3
 133              	.LBB3:
 134              		.loc 1 261 0
 135 0084 DEF84420 		ldr	r2, [lr, #68]
 136 0088 42F48042 		orr	r2, r2, #16384
 137 008c CEF84420 		str	r2, [lr, #68]
 138              	.LVL14:
 139 0090 DEF84420 		ldr	r2, [lr, #68]
 140 0094 23F00309 		bic	r9, r3, #3
 141 0098 09F18049 		add	r9, r9, #1073741824
 142 009c 02F48042 		and	r2, r2, #16384
 143 00a0 09F59C39 		add	r9, r9, #79872
 144 00a4 0392     		str	r2, [sp, #12]
 145              	.LBE3:
 146              		.loc 1 264 0
 147 00a6 03F0030A 		and	r10, r3, #3
 148              	.LVL15:
 149              	.LBB4:
 150              		.loc 1 261 0
 151 00aa 039A     		ldr	r2, [sp, #12]
 152              	.LBE4:
 153              		.loc 1 263 0
 154 00ac D9F80880 		ldr	r8, [r9, #8]
 155              	.LVL16:
 156              		.loc 1 264 0
 157 00b0 4FEA8A0A 		lsl	r10, r10, #2
 158 00b4 0F22     		movs	r2, #15
 159 00b6 02FA0AF2 		lsl	r2, r2, r10
 160              		.loc 1 265 0
 161 00ba 6045     		cmp	r0, ip
 162              		.loc 1 264 0
 163 00bc 28EA0208 		bic	r8, r8, r2
 164              	.LVL17:
 165              		.loc 1 265 0
 166 00c0 00F09780 		beq	.L27
 167              		.loc 1 265 0 is_stmt 0 discriminator 1
 168 00c4 5D4A     		ldr	r2, .L44+4
 169 00c6 9042     		cmp	r0, r2
 170 00c8 00F09580 		beq	.L36
 171              		.loc 1 265 0 discriminator 3
ARM GAS  /tmp/ccIU2uub.s 			page 4


 172 00cc 5C4A     		ldr	r2, .L44+8
 173 00ce 9042     		cmp	r0, r2
 174 00d0 00F09580 		beq	.L37
 175              		.loc 1 265 0 discriminator 5
 176 00d4 5B4A     		ldr	r2, .L44+12
 177 00d6 9042     		cmp	r0, r2
 178 00d8 00F09580 		beq	.L38
 179              		.loc 1 265 0 discriminator 7
 180 00dc 5A4A     		ldr	r2, .L44+16
 181 00de 9042     		cmp	r0, r2
 182 00e0 00F09580 		beq	.L39
 183              		.loc 1 265 0 discriminator 9
 184 00e4 594A     		ldr	r2, .L44+20
 185 00e6 9042     		cmp	r0, r2
 186 00e8 00F09580 		beq	.L40
 187              		.loc 1 265 0 discriminator 11
 188 00ec 584A     		ldr	r2, .L44+24
 189 00ee 9042     		cmp	r0, r2
 190 00f0 00F09580 		beq	.L41
 191              		.loc 1 265 0 discriminator 13
 192 00f4 574A     		ldr	r2, .L44+28
 193 00f6 9042     		cmp	r0, r2
 194 00f8 00F09580 		beq	.L42
 195              		.loc 1 265 0 discriminator 15
 196 00fc 564A     		ldr	r2, .L44+32
 197 00fe 9042     		cmp	r0, r2
 198 0100 00F09580 		beq	.L43
 199              		.loc 1 265 0 discriminator 17
 200 0104 554A     		ldr	r2, .L44+36
 201 0106 9042     		cmp	r0, r2
 202 0108 0CBF     		ite	eq
 203 010a 0922     		moveq	r2, #9
 204 010c 0A22     		movne	r2, #10
 205 010e 02FA0AF2 		lsl	r2, r2, r10
 206              	.L8:
 207              		.loc 1 265 0 discriminator 40
 208 0112 42EA0802 		orr	r2, r2, r8
 209              	.LVL18:
 210              		.loc 1 266 0 is_stmt 1 discriminator 40
 211 0116 C9F80820 		str	r2, [r9, #8]
 212              		.loc 1 269 0 discriminator 40
 213 011a 3268     		ldr	r2, [r6]
 214              	.LVL19:
 215              		.loc 1 270 0 discriminator 40
 216 011c 6FEA0408 		mvn	r8, r4
 217              	.LVL20:
 218              		.loc 1 271 0 discriminator 40
 219 0120 15F4803F 		tst	r5, #65536
 220              		.loc 1 273 0 discriminator 40
 221 0124 14BF     		ite	ne
 222 0126 2243     		orrne	r2, r2, r4
 223              	.LVL21:
 224              		.loc 1 270 0 discriminator 40
 225 0128 08EA0202 		andeq	r2, r8, r2
 226              	.LVL22:
 227              		.loc 1 275 0 discriminator 40
 228 012c 3260     		str	r2, [r6]
ARM GAS  /tmp/ccIU2uub.s 			page 5


 229              		.loc 1 277 0 discriminator 40
 230 012e 7268     		ldr	r2, [r6, #4]
 231              	.LVL23:
 232              		.loc 1 279 0 discriminator 40
 233 0130 15F4003F 		tst	r5, #131072
 234              		.loc 1 281 0 discriminator 40
 235 0134 14BF     		ite	ne
 236 0136 2243     		orrne	r2, r2, r4
 237              	.LVL24:
 238              		.loc 1 278 0 discriminator 40
 239 0138 08EA0202 		andeq	r2, r8, r2
 240              	.LVL25:
 241              		.loc 1 283 0 discriminator 40
 242 013c 7260     		str	r2, [r6, #4]
 243              		.loc 1 286 0 discriminator 40
 244 013e B268     		ldr	r2, [r6, #8]
 245              	.LVL26:
 246              		.loc 1 288 0 discriminator 40
 247 0140 15F4801F 		tst	r5, #1048576
 248              		.loc 1 290 0 discriminator 40
 249 0144 14BF     		ite	ne
 250 0146 2243     		orrne	r2, r2, r4
 251              	.LVL27:
 252              		.loc 1 287 0 discriminator 40
 253 0148 08EA0202 		andeq	r2, r8, r2
 254              	.LVL28:
 255              		.loc 1 292 0 discriminator 40
 256 014c B260     		str	r2, [r6, #8]
 257              		.loc 1 294 0 discriminator 40
 258 014e F268     		ldr	r2, [r6, #12]
 259              	.LVL29:
 260              		.loc 1 296 0 discriminator 40
 261 0150 AD02     		lsls	r5, r5, #10
 262              		.loc 1 203 0 discriminator 40
 263 0152 03F10103 		add	r3, r3, #1
 264              	.LVL30:
 265              		.loc 1 295 0 discriminator 40
 266 0156 54BF     		ite	pl
 267 0158 08EA0204 		andpl	r4, r8, r2
 268              	.LVL31:
 269              		.loc 1 298 0 discriminator 40
 270 015c 1443     		orrmi	r4, r4, r2
 271              	.LVL32:
 272              		.loc 1 203 0 discriminator 40
 273 015e 102B     		cmp	r3, #16
 274              		.loc 1 300 0 discriminator 40
 275 0160 F460     		str	r4, [r6, #12]
 276              		.loc 1 203 0 discriminator 40
 277 0162 7FF45CAF 		bne	.L26
 278              	.LVL33:
 279              	.L34:
 280              		.loc 1 304 0
 281 0166 05B0     		add	sp, sp, #20
 282              		.cfi_remember_state
 283              		.cfi_def_cfa_offset 36
 284              		@ sp needed
 285 0168 BDE8F08F 		pop	{r4, r5, r6, r7, r8, r9, r10, fp, pc}
ARM GAS  /tmp/ccIU2uub.s 			page 6


 286              	.LVL34:
 287              	.L35:
 288              		.cfi_restore_state
 289              		.loc 1 219 0
 290 016c 4FEAD309 		lsr	r9, r3, #3
 291 0170 00EB8909 		add	r9, r0, r9, lsl #2
 292              		.loc 1 220 0
 293 0174 03F00708 		and	r8, r3, #7
 294              		.loc 1 219 0
 295 0178 D9F82020 		ldr	r2, [r9, #32]
 296              	.LVL35:
 297              		.loc 1 220 0
 298 017c 4FEA8808 		lsl	r8, r8, #2
 299 0180 4FF00F0A 		mov	r10, #15
 300 0184 0AFA08FA 		lsl	r10, r10, r8
 301 0188 22EA0A0A 		bic	r10, r2, r10
 302              	.LVL36:
 303              		.loc 1 221 0
 304 018c 0A69     		ldr	r2, [r1, #16]
 305 018e 02FA08F2 		lsl	r2, r2, r8
 306 0192 4AEA0202 		orr	r2, r10, r2
 307              	.LVL37:
 308              		.loc 1 222 0
 309 0196 C9F82020 		str	r2, [r9, #32]
 310 019a 4FEA4309 		lsl	r9, r3, #1
 311              		.loc 1 227 0
 312 019e 0322     		movs	r2, #3
 313              	.LVL38:
 314              		.loc 1 226 0
 315 01a0 D0F800A0 		ldr	r10, [r0]
 316              	.LVL39:
 317              		.loc 1 227 0
 318 01a4 02FA09F2 		lsl	r2, r2, r9
 319 01a8 D243     		mvns	r2, r2
 320              		.loc 1 228 0
 321 01aa 05F00308 		and	r8, r5, #3
 322              		.loc 1 227 0
 323 01ae 02EA0A0A 		and	r10, r2, r10
 324              	.LVL40:
 325              		.loc 1 228 0
 326 01b2 08FA09F8 		lsl	r8, r8, r9
 327 01b6 4AEA0808 		orr	r8, r10, r8
 328              	.LVL41:
 329              		.loc 1 227 0
 330 01ba 0192     		str	r2, [sp, #4]
 331              		.loc 1 229 0
 332 01bc C0F80080 		str	r8, [r0]
 333              	.L5:
 334              	.LVL42:
 335              		.loc 1 238 0
 336 01c0 D0F80880 		ldr	r8, [r0, #8]
 337              	.LVL43:
 338              		.loc 1 239 0
 339 01c4 019A     		ldr	r2, [sp, #4]
 340 01c6 02EA080A 		and	r10, r2, r8
 341              	.LVL44:
 342              		.loc 1 240 0
ARM GAS  /tmp/ccIU2uub.s 			page 7


 343 01ca CA68     		ldr	r2, [r1, #12]
 344 01cc 02FA09F8 		lsl	r8, r2, r9
 345 01d0 4AEA0808 		orr	r8, r10, r8
 346              	.LVL45:
 347              		.loc 1 241 0
 348 01d4 C0F80880 		str	r8, [r0, #8]
 349              		.loc 1 244 0
 350 01d8 D0F804A0 		ldr	r10, [r0, #4]
 351              	.LVL46:
 352              		.loc 1 246 0
 353 01dc C5F30018 		ubfx	r8, r5, #4, #1
 354              		.loc 1 245 0
 355 01e0 2AEA040A 		bic	r10, r10, r4
 356              	.LVL47:
 357              		.loc 1 246 0
 358 01e4 08FA03F8 		lsl	r8, r8, r3
 359 01e8 4AEA0808 		orr	r8, r10, r8
 360              	.LVL48:
 361              		.loc 1 247 0
 362 01ec C0F80480 		str	r8, [r0, #4]
 363 01f0 3BE7     		b	.L6
 364              	.L27:
 365 01f2 0022     		movs	r2, #0
 366 01f4 8DE7     		b	.L8
 367              	.L36:
 368 01f6 0122     		movs	r2, #1
 369              	.LVL49:
 370 01f8 02FA0AF2 		lsl	r2, r2, r10
 371              	.LVL50:
 372 01fc 89E7     		b	.L8
 373              	.L37:
 374 01fe 0222     		movs	r2, #2
 375 0200 02FA0AF2 		lsl	r2, r2, r10
 376 0204 85E7     		b	.L8
 377              	.L38:
 378 0206 0322     		movs	r2, #3
 379 0208 02FA0AF2 		lsl	r2, r2, r10
 380 020c 81E7     		b	.L8
 381              	.L39:
 382 020e 0422     		movs	r2, #4
 383 0210 02FA0AF2 		lsl	r2, r2, r10
 384 0214 7DE7     		b	.L8
 385              	.L40:
 386 0216 0522     		movs	r2, #5
 387 0218 02FA0AF2 		lsl	r2, r2, r10
 388 021c 79E7     		b	.L8
 389              	.L41:
 390 021e 0622     		movs	r2, #6
 391 0220 02FA0AF2 		lsl	r2, r2, r10
 392 0224 75E7     		b	.L8
 393              	.L42:
 394 0226 0722     		movs	r2, #7
 395 0228 02FA0AF2 		lsl	r2, r2, r10
 396 022c 71E7     		b	.L8
 397              	.L43:
 398 022e 0822     		movs	r2, #8
 399 0230 02FA0AF2 		lsl	r2, r2, r10
ARM GAS  /tmp/ccIU2uub.s 			page 8


 400 0234 6DE7     		b	.L8
 401              	.L45:
 402 0236 00BF     		.align	2
 403              	.L44:
 404 0238 003C0140 		.word	1073822720
 405 023c 00040240 		.word	1073873920
 406 0240 00080240 		.word	1073874944
 407 0244 000C0240 		.word	1073875968
 408 0248 00100240 		.word	1073876992
 409 024c 00140240 		.word	1073878016
 410 0250 00180240 		.word	1073879040
 411 0254 001C0240 		.word	1073880064
 412 0258 00200240 		.word	1073881088
 413 025c 00240240 		.word	1073882112
 414 0260 00000240 		.word	1073872896
 415 0264 00380240 		.word	1073887232
 416              		.cfi_endproc
 417              	.LFE123:
 418              		.size	HAL_GPIO_Init, .-HAL_GPIO_Init
 419              		.align	2
 420 0268 AFF30080 		.p2align 4,,15
 420      AFF30080 
 421              		.global	HAL_GPIO_DeInit
 422              		.thumb
 423              		.thumb_func
 424              		.type	HAL_GPIO_DeInit, %function
 425              	HAL_GPIO_DeInit:
 426              	.LFB124:
 427              		.loc 1 315 0
 428              		.cfi_startproc
 429              		@ args = 0, pretend = 0, frame = 0
 430              		@ frame_needed = 0, uses_anonymous_args = 0
 431              	.LVL51:
 432 0270 2DE9F04F 		push	{r4, r5, r6, r7, r8, r9, r10, fp, lr}
 433              		.cfi_def_cfa_offset 36
 434              		.cfi_offset 4, -36
 435              		.cfi_offset 5, -32
 436              		.cfi_offset 6, -28
 437              		.cfi_offset 7, -24
 438              		.cfi_offset 8, -20
 439              		.cfi_offset 9, -16
 440              		.cfi_offset 10, -12
 441              		.cfi_offset 11, -8
 442              		.cfi_offset 14, -4
 443              		.loc 1 360 0
 444 0274 DFF850C1 		ldr	ip, .L74+32
 445              		.loc 1 353 0
 446 0278 DFF85081 		ldr	r8, .L74+36
 447 027c DFF85091 		ldr	r9, .L74+40
 448              		.loc 1 315 0
 449 0280 8B46     		mov	fp, r1
 450              		.loc 1 325 0
 451 0282 0023     		movs	r3, #0
 452 0284 02E0     		b	.L60
 453              	.LVL52:
 454              	.L48:
 455              		.loc 1 325 0 is_stmt 0 discriminator 2
ARM GAS  /tmp/ccIU2uub.s 			page 9


 456 0286 0133     		adds	r3, r3, #1
 457              	.LVL53:
 458 0288 102B     		cmp	r3, #16
 459 028a 71D0     		beq	.L65
 460              	.LVL54:
 461              	.L60:
 462              		.loc 1 328 0 is_stmt 1
 463 028c 0124     		movs	r4, #1
 464 028e 04FA03F1 		lsl	r1, r4, r3
 465              	.LVL55:
 466              		.loc 1 330 0
 467 0292 01EA0B02 		and	r2, r1, fp
 468              	.LVL56:
 469              		.loc 1 332 0
 470 0296 8A42     		cmp	r2, r1
 471 0298 F5D1     		bne	.L48
 472              		.loc 1 336 0
 473 029a 4FF0030E 		mov	lr, #3
 474 029e 03FA04F1 		lsl	r1, r3, r4
 475              	.LVL57:
 476 02a2 0568     		ldr	r5, [r0]
 477 02a4 0EFA01F6 		lsl	r6, lr, r1
 478 02a8 F643     		mvns	r6, r6
 479              		.loc 1 339 0
 480 02aa 23FA0EF1 		lsr	r1, r3, lr
 481              		.loc 1 336 0
 482 02ae 3540     		ands	r5, r5, r6
 483 02b0 00EB8101 		add	r1, r0, r1, lsl #2
 484 02b4 0560     		str	r5, [r0]
 485              		.loc 1 339 0
 486 02b6 03F00707 		and	r7, r3, #7
 487 02ba D1F820A0 		ldr	r10, [r1, #32]
 488 02be 0F25     		movs	r5, #15
 489 02c0 BF00     		lsls	r7, r7, #2
 490 02c2 05FA07F7 		lsl	r7, r5, r7
 491 02c6 2AEA0707 		bic	r7, r10, r7
 492 02ca 0F62     		str	r7, [r1, #32]
 493              		.loc 1 342 0
 494 02cc 8168     		ldr	r1, [r0, #8]
 495 02ce 3140     		ands	r1, r1, r6
 496 02d0 8160     		str	r1, [r0, #8]
 497              		.loc 1 345 0
 498 02d2 4168     		ldr	r1, [r0, #4]
 499 02d4 D243     		mvns	r2, r2
 500              	.LVL58:
 501 02d6 1140     		ands	r1, r1, r2
 502 02d8 4160     		str	r1, [r0, #4]
 503              		.loc 1 348 0
 504 02da C768     		ldr	r7, [r0, #12]
 505 02dc 23F00301 		bic	r1, r3, #3
 506 02e0 01F18041 		add	r1, r1, #1073741824
 507 02e4 3E40     		ands	r6, r6, r7
 508 02e6 01F59C31 		add	r1, r1, #79872
 509 02ea C660     		str	r6, [r0, #12]
 510              		.loc 1 352 0
 511 02ec 03EA0E07 		and	r7, r3, lr
 512              		.loc 1 351 0
ARM GAS  /tmp/ccIU2uub.s 			page 10


 513 02f0 8E68     		ldr	r6, [r1, #8]
 514              	.LVL59:
 515              		.loc 1 352 0
 516 02f2 BF00     		lsls	r7, r7, #2
 517 02f4 BD40     		lsls	r5, r5, r7
 518              		.loc 1 353 0
 519 02f6 4045     		cmp	r0, r8
 520              		.loc 1 352 0
 521 02f8 06EA0506 		and	r6, r6, r5
 522              	.LVL60:
 523              		.loc 1 353 0
 524 02fc 3DD0     		beq	.L61
 525              		.loc 1 353 0 is_stmt 0 discriminator 1
 526 02fe 4845     		cmp	r0, r9
 527 0300 39D0     		beq	.L64
 528              		.loc 1 353 0 discriminator 3
 529 0302 294C     		ldr	r4, .L74
 530              	.LVL61:
 531 0304 A042     		cmp	r0, r4
 532 0306 3AD0     		beq	.L66
 533              		.loc 1 353 0 discriminator 5
 534 0308 284C     		ldr	r4, .L74+4
 535 030a A042     		cmp	r0, r4
 536 030c 3AD0     		beq	.L67
 537              		.loc 1 353 0 discriminator 7
 538 030e 284C     		ldr	r4, .L74+8
 539 0310 A042     		cmp	r0, r4
 540 0312 3AD0     		beq	.L68
 541              		.loc 1 353 0 discriminator 9
 542 0314 274C     		ldr	r4, .L74+12
 543 0316 A042     		cmp	r0, r4
 544 0318 3AD0     		beq	.L69
 545              		.loc 1 353 0 discriminator 11
 546 031a 274C     		ldr	r4, .L74+16
 547 031c A042     		cmp	r0, r4
 548 031e 3AD0     		beq	.L70
 549              		.loc 1 353 0 discriminator 13
 550 0320 264C     		ldr	r4, .L74+20
 551 0322 A042     		cmp	r0, r4
 552 0324 3AD0     		beq	.L71
 553              		.loc 1 353 0 discriminator 15
 554 0326 264C     		ldr	r4, .L74+24
 555 0328 A042     		cmp	r0, r4
 556 032a 3AD0     		beq	.L72
 557              		.loc 1 353 0 discriminator 17
 558 032c 254C     		ldr	r4, .L74+28
 559 032e A042     		cmp	r0, r4
 560 0330 20D0     		beq	.L73
 561 0332 0A24     		movs	r4, #10
 562 0334 BC40     		lsls	r4, r4, r7
 563              	.L49:
 564              		.loc 1 353 0 discriminator 40
 565 0336 A642     		cmp	r6, r4
 566 0338 A5D1     		bne	.L48
 567              	.LVL62:
 568              		.loc 1 357 0 is_stmt 1
 569 033a 8C68     		ldr	r4, [r1, #8]
ARM GAS  /tmp/ccIU2uub.s 			page 11


 570 033c 24EA0505 		bic	r5, r4, r5
 571              	.LVL63:
 572 0340 8D60     		str	r5, [r1, #8]
 573              		.loc 1 360 0
 574 0342 DCF80010 		ldr	r1, [ip]
 575 0346 1140     		ands	r1, r1, r2
 576 0348 CCF80010 		str	r1, [ip]
 577              		.loc 1 361 0
 578 034c DCF80410 		ldr	r1, [ip, #4]
 579 0350 1140     		ands	r1, r1, r2
 580 0352 CCF80410 		str	r1, [ip, #4]
 581              		.loc 1 364 0
 582 0356 DCF80810 		ldr	r1, [ip, #8]
 583 035a 1140     		ands	r1, r1, r2
 584 035c CCF80810 		str	r1, [ip, #8]
 585              		.loc 1 365 0
 586 0360 DCF80C10 		ldr	r1, [ip, #12]
 587              		.loc 1 325 0
 588 0364 0133     		adds	r3, r3, #1
 589              	.LVL64:
 590              		.loc 1 365 0
 591 0366 0A40     		ands	r2, r2, r1
 592              	.LVL65:
 593              		.loc 1 325 0
 594 0368 102B     		cmp	r3, #16
 595              		.loc 1 365 0
 596 036a CCF80C20 		str	r2, [ip, #12]
 597              		.loc 1 325 0
 598 036e 8DD1     		bne	.L60
 599              	.LVL66:
 600              	.L65:
 601              		.loc 1 369 0
 602 0370 BDE8F08F 		pop	{r4, r5, r6, r7, r8, r9, r10, fp, pc}
 603              	.LVL67:
 604              	.L73:
 605 0374 0924     		movs	r4, #9
 606              	.L64:
 607 0376 BC40     		lsls	r4, r4, r7
 608 0378 DDE7     		b	.L49
 609              	.LVL68:
 610              	.L61:
 611 037a 0024     		movs	r4, #0
 612              	.LVL69:
 613 037c DBE7     		b	.L49
 614              	.L66:
 615 037e 0224     		movs	r4, #2
 616 0380 BC40     		lsls	r4, r4, r7
 617 0382 D8E7     		b	.L49
 618              	.L67:
 619 0384 0EFA07F4 		lsl	r4, lr, r7
 620 0388 D5E7     		b	.L49
 621              	.L68:
 622 038a 0424     		movs	r4, #4
 623 038c BC40     		lsls	r4, r4, r7
 624 038e D2E7     		b	.L49
 625              	.L69:
 626 0390 0524     		movs	r4, #5
ARM GAS  /tmp/ccIU2uub.s 			page 12


 627 0392 BC40     		lsls	r4, r4, r7
 628 0394 CFE7     		b	.L49
 629              	.L70:
 630 0396 0624     		movs	r4, #6
 631 0398 BC40     		lsls	r4, r4, r7
 632 039a CCE7     		b	.L49
 633              	.L71:
 634 039c 0724     		movs	r4, #7
 635 039e BC40     		lsls	r4, r4, r7
 636 03a0 C9E7     		b	.L49
 637              	.L72:
 638 03a2 0824     		movs	r4, #8
 639 03a4 BC40     		lsls	r4, r4, r7
 640 03a6 C6E7     		b	.L49
 641              	.L75:
 642              		.align	2
 643              	.L74:
 644 03a8 00080240 		.word	1073874944
 645 03ac 000C0240 		.word	1073875968
 646 03b0 00100240 		.word	1073876992
 647 03b4 00140240 		.word	1073878016
 648 03b8 00180240 		.word	1073879040
 649 03bc 001C0240 		.word	1073880064
 650 03c0 00200240 		.word	1073881088
 651 03c4 00240240 		.word	1073882112
 652 03c8 003C0140 		.word	1073822720
 653 03cc 00000240 		.word	1073872896
 654 03d0 00040240 		.word	1073873920
 655              		.cfi_endproc
 656              	.LFE124:
 657              		.size	HAL_GPIO_DeInit, .-HAL_GPIO_DeInit
 658              		.align	2
 659 03d4 AFF30080 		.p2align 4,,15
 659      AFF30080 
 659      AFF30080 
 660              		.global	HAL_GPIO_ReadPin
 661              		.thumb
 662              		.thumb_func
 663              		.type	HAL_GPIO_ReadPin, %function
 664              	HAL_GPIO_ReadPin:
 665              	.LFB125:
 666              		.loc 1 396 0
 667              		.cfi_startproc
 668              		@ args = 0, pretend = 0, frame = 0
 669              		@ frame_needed = 0, uses_anonymous_args = 0
 670              		@ link register save eliminated.
 671              	.LVL70:
 672              		.loc 1 402 0
 673 03e0 0369     		ldr	r3, [r0, #16]
 674              	.LVL71:
 675 03e2 1942     		tst	r1, r3
 676              		.loc 1 411 0
 677 03e4 14BF     		ite	ne
 678 03e6 0120     		movne	r0, #1
 679              	.LVL72:
 680 03e8 0020     		moveq	r0, #0
 681 03ea 7047     		bx	lr
ARM GAS  /tmp/ccIU2uub.s 			page 13


 682              		.cfi_endproc
 683              	.LFE125:
 684              		.size	HAL_GPIO_ReadPin, .-HAL_GPIO_ReadPin
 685              		.align	2
 686 03ec AFF30080 		.p2align 4,,15
 687              		.global	HAL_GPIO_WritePin
 688              		.thumb
 689              		.thumb_func
 690              		.type	HAL_GPIO_WritePin, %function
 691              	HAL_GPIO_WritePin:
 692              	.LFB126:
 693              		.loc 1 431 0
 694              		.cfi_startproc
 695              		@ args = 0, pretend = 0, frame = 0
 696              		@ frame_needed = 0, uses_anonymous_args = 0
 697              		@ link register save eliminated.
 698              	.LVL73:
 699              		.loc 1 436 0
 700 03f0 02B9     		cbnz	r2, .L80
 701              		.loc 1 442 0
 702 03f2 0904     		lsls	r1, r1, #16
 703              	.LVL74:
 704              	.L80:
 705 03f4 8161     		str	r1, [r0, #24]
 706 03f6 7047     		bx	lr
 707              		.cfi_endproc
 708              	.LFE126:
 709              		.size	HAL_GPIO_WritePin, .-HAL_GPIO_WritePin
 710              		.align	2
 711 03f8 AFF30080 		.p2align 4,,15
 711      AFF30080 
 712              		.global	HAL_GPIO_TogglePin
 713              		.thumb
 714              		.thumb_func
 715              		.type	HAL_GPIO_TogglePin, %function
 716              	HAL_GPIO_TogglePin:
 717              	.LFB127:
 718              		.loc 1 454 0
 719              		.cfi_startproc
 720              		@ args = 0, pretend = 0, frame = 0
 721              		@ frame_needed = 0, uses_anonymous_args = 0
 722              		@ link register save eliminated.
 723              	.LVL75:
 724              		.loc 1 458 0
 725 0400 4369     		ldr	r3, [r0, #20]
 726 0402 5940     		eors	r1, r1, r3
 727              	.LVL76:
 728 0404 4161     		str	r1, [r0, #20]
 729 0406 7047     		bx	lr
 730              		.cfi_endproc
 731              	.LFE127:
 732              		.size	HAL_GPIO_TogglePin, .-HAL_GPIO_TogglePin
 733              		.align	2
 734 0408 AFF30080 		.p2align 4,,15
 734      AFF30080 
 735              		.global	HAL_GPIO_LockPin
 736              		.thumb
ARM GAS  /tmp/ccIU2uub.s 			page 14


 737              		.thumb_func
 738              		.type	HAL_GPIO_LockPin, %function
 739              	HAL_GPIO_LockPin:
 740              	.LFB128:
 741              		.loc 1 473 0
 742              		.cfi_startproc
 743              		@ args = 0, pretend = 0, frame = 8
 744              		@ frame_needed = 0, uses_anonymous_args = 0
 745              		@ link register save eliminated.
 746              	.LVL77:
 747 0410 82B0     		sub	sp, sp, #8
 748              		.cfi_def_cfa_offset 8
 749              		.loc 1 474 0
 750 0412 4FF48033 		mov	r3, #65536
 751 0416 0193     		str	r3, [sp, #4]
 752              		.loc 1 480 0
 753 0418 019B     		ldr	r3, [sp, #4]
 754 041a 0B43     		orrs	r3, r3, r1
 755 041c 0193     		str	r3, [sp, #4]
 756              		.loc 1 482 0
 757 041e 019B     		ldr	r3, [sp, #4]
 758 0420 C361     		str	r3, [r0, #28]
 759              		.loc 1 484 0
 760 0422 C161     		str	r1, [r0, #28]
 761              		.loc 1 486 0
 762 0424 019B     		ldr	r3, [sp, #4]
 763 0426 C361     		str	r3, [r0, #28]
 764              		.loc 1 488 0
 765 0428 C369     		ldr	r3, [r0, #28]
 766 042a 0193     		str	r3, [sp, #4]
 767              		.loc 1 490 0
 768 042c C069     		ldr	r0, [r0, #28]
 769              	.LVL78:
 770 042e 80F48030 		eor	r0, r0, #65536
 771              		.loc 1 498 0
 772 0432 C0F30040 		ubfx	r0, r0, #16, #1
 773 0436 02B0     		add	sp, sp, #8
 774              		.cfi_def_cfa_offset 0
 775              		@ sp needed
 776 0438 7047     		bx	lr
 777              		.cfi_endproc
 778              	.LFE128:
 779              		.size	HAL_GPIO_LockPin, .-HAL_GPIO_LockPin
 780 043a 00BF     		.align	2
 781 043c AFF30080 		.p2align 4,,15
 782              		.weak	HAL_GPIO_EXTI_Callback
 783              		.thumb
 784              		.thumb_func
 785              		.type	HAL_GPIO_EXTI_Callback, %function
 786              	HAL_GPIO_EXTI_Callback:
 787              	.LFB130:
 788              		.loc 1 521 0
 789              		.cfi_startproc
 790              		@ args = 0, pretend = 0, frame = 0
 791              		@ frame_needed = 0, uses_anonymous_args = 0
 792              		@ link register save eliminated.
 793              	.LVL79:
ARM GAS  /tmp/ccIU2uub.s 			page 15


 794 0440 7047     		bx	lr
 795              		.cfi_endproc
 796              	.LFE130:
 797              		.size	HAL_GPIO_EXTI_Callback, .-HAL_GPIO_EXTI_Callback
 798 0442 00BF     		.align	2
 799 0444 AFF30080 		.p2align 4,,15
 799      AFF30080 
 799      AFF30080 
 800              		.global	HAL_GPIO_EXTI_IRQHandler
 801              		.thumb
 802              		.thumb_func
 803              		.type	HAL_GPIO_EXTI_IRQHandler, %function
 804              	HAL_GPIO_EXTI_IRQHandler:
 805              	.LFB129:
 806              		.loc 1 506 0
 807              		.cfi_startproc
 808              		@ args = 0, pretend = 0, frame = 0
 809              		@ frame_needed = 0, uses_anonymous_args = 0
 810              	.LVL80:
 811              		.loc 1 508 0
 812 0450 044A     		ldr	r2, .L91
 813 0452 5169     		ldr	r1, [r2, #20]
 814 0454 0842     		tst	r0, r1
 815              		.loc 1 506 0
 816 0456 08B5     		push	{r3, lr}
 817              		.cfi_def_cfa_offset 8
 818              		.cfi_offset 3, -8
 819              		.cfi_offset 14, -4
 820              		.loc 1 508 0
 821 0458 02D0     		beq	.L85
 822              		.loc 1 510 0
 823 045a 5061     		str	r0, [r2, #20]
 824              		.loc 1 511 0
 825 045c FFF7FEFF 		bl	HAL_GPIO_EXTI_Callback
 826              	.LVL81:
 827              	.L85:
 828 0460 08BD     		pop	{r3, pc}
 829              	.L92:
 830 0462 00BF     		.align	2
 831              	.L91:
 832 0464 003C0140 		.word	1073822720
 833              		.cfi_endproc
 834              	.LFE129:
 835              		.size	HAL_GPIO_EXTI_IRQHandler, .-HAL_GPIO_EXTI_IRQHandler
 836              	.Letext0:
 837              		.file 2 "/home/sbcu/Dropbox/pcb-layouts/axo-on-discovery-board/axoloti/platform_linux/arm-none-eab
 838              		.file 3 "/home/sbcu/Dropbox/pcb-layouts/axo-on-discovery-board/axoloti/platform_linux/arm-none-eab
 839              		.file 4 "./stm32f427xx.h"
 840              		.file 5 "./stm32f4xxc.h"
 841              		.file 6 "./STM32F4xx_HAL_Driver/Inc/stm32f4xx_hal_def.h"
 842              		.file 7 "./STM32F4xx_HAL_Driver/Inc/stm32f4xx_hal_gpio.h"
 843              		.file 8 "/home/sbcu/Dropbox/pcb-layouts/axo-on-discovery-board/axoloti/platform_linux/../CMSIS//In
 844              		.section	.debug_info,"",%progbits
 845              	.Ldebug_info0:
 846 0000 22070000 		.4byte	0x722
 847 0004 0400     		.2byte	0x4
 848 0006 00000000 		.4byte	.Ldebug_abbrev0
ARM GAS  /tmp/ccIU2uub.s 			page 16


 849 000a 04       		.byte	0x4
 850 000b 01       		.uleb128 0x1
 851 000c 19020000 		.4byte	.LASF97
 852 0010 01       		.byte	0x1
 853 0011 E3030000 		.4byte	.LASF98
 854 0015 87000000 		.4byte	.LASF99
 855 0019 00000000 		.4byte	.Ltext0
 856 001d 68040000 		.4byte	.Letext0-.Ltext0
 857 0021 00000000 		.4byte	.Ldebug_line0
 858 0025 02       		.uleb128 0x2
 859 0026 01       		.byte	0x1
 860 0027 06       		.byte	0x6
 861 0028 53030000 		.4byte	.LASF0
 862 002c 03       		.uleb128 0x3
 863 002d ED010000 		.4byte	.LASF3
 864 0031 02       		.byte	0x2
 865 0032 1D       		.byte	0x1d
 866 0033 37000000 		.4byte	0x37
 867 0037 02       		.uleb128 0x2
 868 0038 01       		.byte	0x1
 869 0039 08       		.byte	0x8
 870 003a 3D030000 		.4byte	.LASF1
 871 003e 02       		.uleb128 0x2
 872 003f 02       		.byte	0x2
 873 0040 05       		.byte	0x5
 874 0041 06010000 		.4byte	.LASF2
 875 0045 03       		.uleb128 0x3
 876 0046 F0000000 		.4byte	.LASF4
 877 004a 02       		.byte	0x2
 878 004b 2B       		.byte	0x2b
 879 004c 50000000 		.4byte	0x50
 880 0050 02       		.uleb128 0x2
 881 0051 02       		.byte	0x2
 882 0052 07       		.byte	0x7
 883 0053 4C040000 		.4byte	.LASF5
 884 0057 03       		.uleb128 0x3
 885 0058 CB040000 		.4byte	.LASF6
 886 005c 02       		.byte	0x2
 887 005d 3F       		.byte	0x3f
 888 005e 62000000 		.4byte	0x62
 889 0062 02       		.uleb128 0x2
 890 0063 04       		.byte	0x4
 891 0064 05       		.byte	0x5
 892 0065 B8010000 		.4byte	.LASF7
 893 0069 03       		.uleb128 0x3
 894 006a DC000000 		.4byte	.LASF8
 895 006e 02       		.byte	0x2
 896 006f 41       		.byte	0x41
 897 0070 74000000 		.4byte	0x74
 898 0074 02       		.uleb128 0x2
 899 0075 04       		.byte	0x4
 900 0076 07       		.byte	0x7
 901 0077 A6030000 		.4byte	.LASF9
 902 007b 02       		.uleb128 0x2
 903 007c 08       		.byte	0x8
 904 007d 05       		.byte	0x5
 905 007e CE000000 		.4byte	.LASF10
ARM GAS  /tmp/ccIU2uub.s 			page 17


 906 0082 02       		.uleb128 0x2
 907 0083 08       		.byte	0x8
 908 0084 07       		.byte	0x7
 909 0085 8E010000 		.4byte	.LASF11
 910 0089 04       		.uleb128 0x4
 911 008a 04       		.byte	0x4
 912 008b 05       		.byte	0x5
 913 008c 696E7400 		.ascii	"int\000"
 914 0090 02       		.uleb128 0x2
 915 0091 04       		.byte	0x4
 916 0092 07       		.byte	0x7
 917 0093 90030000 		.4byte	.LASF12
 918 0097 03       		.uleb128 0x3
 919 0098 3B010000 		.4byte	.LASF13
 920 009c 03       		.byte	0x3
 921 009d 14       		.byte	0x14
 922 009e 2C000000 		.4byte	0x2c
 923 00a2 03       		.uleb128 0x3
 924 00a3 3B040000 		.4byte	.LASF14
 925 00a7 03       		.byte	0x3
 926 00a8 1A       		.byte	0x1a
 927 00a9 45000000 		.4byte	0x45
 928 00ad 03       		.uleb128 0x3
 929 00ae 44040000 		.4byte	.LASF15
 930 00b2 03       		.byte	0x3
 931 00b3 1F       		.byte	0x1f
 932 00b4 57000000 		.4byte	0x57
 933 00b8 03       		.uleb128 0x3
 934 00b9 76030000 		.4byte	.LASF16
 935 00bd 03       		.byte	0x3
 936 00be 20       		.byte	0x20
 937 00bf 69000000 		.4byte	0x69
 938 00c3 02       		.uleb128 0x2
 939 00c4 04       		.byte	0x4
 940 00c5 07       		.byte	0x7
 941 00c6 5E000000 		.4byte	.LASF17
 942 00ca 05       		.uleb128 0x5
 943 00cb B8000000 		.4byte	0xb8
 944 00cf 06       		.uleb128 0x6
 945 00d0 B8000000 		.4byte	0xb8
 946 00d4 DF000000 		.4byte	0xdf
 947 00d8 07       		.uleb128 0x7
 948 00d9 C3000000 		.4byte	0xc3
 949 00dd 01       		.byte	0x1
 950 00de 00       		.byte	0
 951 00df 06       		.uleb128 0x6
 952 00e0 B8000000 		.4byte	0xb8
 953 00e4 EF000000 		.4byte	0xef
 954 00e8 07       		.uleb128 0x7
 955 00e9 C3000000 		.4byte	0xc3
 956 00ed 03       		.byte	0x3
 957 00ee 00       		.byte	0
 958 00ef 08       		.uleb128 0x8
 959 00f0 18       		.byte	0x18
 960 00f1 04       		.byte	0x4
 961 00f2 F001     		.2byte	0x1f0
 962 00f4 46010000 		.4byte	0x146
ARM GAS  /tmp/ccIU2uub.s 			page 18


 963 00f8 09       		.uleb128 0x9
 964 00f9 494D5200 		.ascii	"IMR\000"
 965 00fd 04       		.byte	0x4
 966 00fe F201     		.2byte	0x1f2
 967 0100 CA000000 		.4byte	0xca
 968 0104 00       		.byte	0
 969 0105 09       		.uleb128 0x9
 970 0106 454D5200 		.ascii	"EMR\000"
 971 010a 04       		.byte	0x4
 972 010b F301     		.2byte	0x1f3
 973 010d CA000000 		.4byte	0xca
 974 0111 04       		.byte	0x4
 975 0112 0A       		.uleb128 0xa
 976 0113 5F040000 		.4byte	.LASF18
 977 0117 04       		.byte	0x4
 978 0118 F401     		.2byte	0x1f4
 979 011a CA000000 		.4byte	0xca
 980 011e 08       		.byte	0x8
 981 011f 0A       		.uleb128 0xa
 982 0120 B8030000 		.4byte	.LASF19
 983 0124 04       		.byte	0x4
 984 0125 F501     		.2byte	0x1f5
 985 0127 CA000000 		.4byte	0xca
 986 012b 0C       		.byte	0xc
 987 012c 0A       		.uleb128 0xa
 988 012d 5D050000 		.4byte	.LASF20
 989 0131 04       		.byte	0x4
 990 0132 F601     		.2byte	0x1f6
 991 0134 CA000000 		.4byte	0xca
 992 0138 10       		.byte	0x10
 993 0139 09       		.uleb128 0x9
 994 013a 505200   		.ascii	"PR\000"
 995 013d 04       		.byte	0x4
 996 013e F701     		.2byte	0x1f7
 997 0140 CA000000 		.4byte	0xca
 998 0144 14       		.byte	0x14
 999 0145 00       		.byte	0
 1000 0146 0B       		.uleb128 0xb
 1001 0147 AB010000 		.4byte	.LASF21
 1002 014b 04       		.byte	0x4
 1003 014c F801     		.2byte	0x1f8
 1004 014e EF000000 		.4byte	0xef
 1005 0152 08       		.uleb128 0x8
 1006 0153 28       		.byte	0x28
 1007 0154 04       		.byte	0x4
 1008 0155 4F02     		.2byte	0x24f
 1009 0157 D1010000 		.4byte	0x1d1
 1010 015b 0A       		.uleb128 0xa
 1011 015c DE010000 		.4byte	.LASF22
 1012 0160 04       		.byte	0x4
 1013 0161 5102     		.2byte	0x251
 1014 0163 CA000000 		.4byte	0xca
 1015 0167 00       		.byte	0
 1016 0168 0A       		.uleb128 0xa
 1017 0169 65010000 		.4byte	.LASF23
 1018 016d 04       		.byte	0x4
 1019 016e 5202     		.2byte	0x252
ARM GAS  /tmp/ccIU2uub.s 			page 19


 1020 0170 CA000000 		.4byte	0xca
 1021 0174 04       		.byte	0x4
 1022 0175 0A       		.uleb128 0xa
 1023 0176 2D000000 		.4byte	.LASF24
 1024 017a 04       		.byte	0x4
 1025 017b 5302     		.2byte	0x253
 1026 017d CA000000 		.4byte	0xca
 1027 0181 08       		.byte	0x8
 1028 0182 0A       		.uleb128 0xa
 1029 0183 A5010000 		.4byte	.LASF25
 1030 0187 04       		.byte	0x4
 1031 0188 5402     		.2byte	0x254
 1032 018a CA000000 		.4byte	0xca
 1033 018e 0C       		.byte	0xc
 1034 018f 09       		.uleb128 0x9
 1035 0190 49445200 		.ascii	"IDR\000"
 1036 0194 04       		.byte	0x4
 1037 0195 5502     		.2byte	0x255
 1038 0197 CA000000 		.4byte	0xca
 1039 019b 10       		.byte	0x10
 1040 019c 09       		.uleb128 0x9
 1041 019d 4F445200 		.ascii	"ODR\000"
 1042 01a1 04       		.byte	0x4
 1043 01a2 5602     		.2byte	0x256
 1044 01a4 CA000000 		.4byte	0xca
 1045 01a8 14       		.byte	0x14
 1046 01a9 0A       		.uleb128 0xa
 1047 01aa 01010000 		.4byte	.LASF26
 1048 01ae 04       		.byte	0x4
 1049 01af 5702     		.2byte	0x257
 1050 01b1 CA000000 		.4byte	0xca
 1051 01b5 18       		.byte	0x18
 1052 01b6 0A       		.uleb128 0xa
 1053 01b7 45050000 		.4byte	.LASF27
 1054 01bb 04       		.byte	0x4
 1055 01bc 5802     		.2byte	0x258
 1056 01be CA000000 		.4byte	0xca
 1057 01c2 1C       		.byte	0x1c
 1058 01c3 09       		.uleb128 0x9
 1059 01c4 41465200 		.ascii	"AFR\000"
 1060 01c8 04       		.byte	0x4
 1061 01c9 5902     		.2byte	0x259
 1062 01cb D1010000 		.4byte	0x1d1
 1063 01cf 20       		.byte	0x20
 1064 01d0 00       		.byte	0
 1065 01d1 05       		.uleb128 0x5
 1066 01d2 CF000000 		.4byte	0xcf
 1067 01d6 0B       		.uleb128 0xb
 1068 01d7 E6040000 		.4byte	.LASF28
 1069 01db 04       		.byte	0x4
 1070 01dc 5A02     		.2byte	0x25a
 1071 01de 52010000 		.4byte	0x152
 1072 01e2 08       		.uleb128 0x8
 1073 01e3 24       		.byte	0x24
 1074 01e4 04       		.byte	0x4
 1075 01e5 6002     		.2byte	0x260
 1076 01e7 2D020000 		.4byte	0x22d
ARM GAS  /tmp/ccIU2uub.s 			page 20


 1077 01eb 0A       		.uleb128 0xa
 1078 01ec 34010000 		.4byte	.LASF29
 1079 01f0 04       		.byte	0x4
 1080 01f1 6202     		.2byte	0x262
 1081 01f3 CA000000 		.4byte	0xca
 1082 01f7 00       		.byte	0
 1083 01f8 09       		.uleb128 0x9
 1084 01f9 504D4300 		.ascii	"PMC\000"
 1085 01fd 04       		.byte	0x4
 1086 01fe 6302     		.2byte	0x263
 1087 0200 CA000000 		.4byte	0xca
 1088 0204 04       		.byte	0x4
 1089 0205 0A       		.uleb128 0xa
 1090 0206 43010000 		.4byte	.LASF30
 1091 020a 04       		.byte	0x4
 1092 020b 6402     		.2byte	0x264
 1093 020d 2D020000 		.4byte	0x22d
 1094 0211 08       		.byte	0x8
 1095 0212 0A       		.uleb128 0xa
 1096 0213 FC040000 		.4byte	.LASF31
 1097 0217 04       		.byte	0x4
 1098 0218 6502     		.2byte	0x265
 1099 021a CF000000 		.4byte	0xcf
 1100 021e 18       		.byte	0x18
 1101 021f 0A       		.uleb128 0xa
 1102 0220 09020000 		.4byte	.LASF32
 1103 0224 04       		.byte	0x4
 1104 0225 6602     		.2byte	0x266
 1105 0227 CA000000 		.4byte	0xca
 1106 022b 20       		.byte	0x20
 1107 022c 00       		.byte	0
 1108 022d 05       		.uleb128 0x5
 1109 022e DF000000 		.4byte	0xdf
 1110 0232 0B       		.uleb128 0xb
 1111 0233 27040000 		.4byte	.LASF33
 1112 0237 04       		.byte	0x4
 1113 0238 6702     		.2byte	0x267
 1114 023a E2010000 		.4byte	0x1e2
 1115 023e 08       		.uleb128 0x8
 1116 023f 90       		.byte	0x90
 1117 0240 04       		.byte	0x4
 1118 0241 9502     		.2byte	0x295
 1119 0243 E7030000 		.4byte	0x3e7
 1120 0247 09       		.uleb128 0x9
 1121 0248 435200   		.ascii	"CR\000"
 1122 024b 04       		.byte	0x4
 1123 024c 9702     		.2byte	0x297
 1124 024e CA000000 		.4byte	0xca
 1125 0252 00       		.byte	0
 1126 0253 0A       		.uleb128 0xa
 1127 0254 DB030000 		.4byte	.LASF34
 1128 0258 04       		.byte	0x4
 1129 0259 9802     		.2byte	0x298
 1130 025b CA000000 		.4byte	0xca
 1131 025f 04       		.byte	0x4
 1132 0260 0A       		.uleb128 0xa
 1133 0261 BD030000 		.4byte	.LASF35
ARM GAS  /tmp/ccIU2uub.s 			page 21


 1134 0265 04       		.byte	0x4
 1135 0266 9902     		.2byte	0x299
 1136 0268 CA000000 		.4byte	0xca
 1137 026c 08       		.byte	0x8
 1138 026d 09       		.uleb128 0x9
 1139 026e 43495200 		.ascii	"CIR\000"
 1140 0272 04       		.byte	0x4
 1141 0273 9A02     		.2byte	0x29a
 1142 0275 CA000000 		.4byte	0xca
 1143 0279 0C       		.byte	0xc
 1144 027a 0A       		.uleb128 0xa
 1145 027b 10010000 		.4byte	.LASF36
 1146 027f 04       		.byte	0x4
 1147 0280 9B02     		.2byte	0x29b
 1148 0282 CA000000 		.4byte	0xca
 1149 0286 10       		.byte	0x10
 1150 0287 0A       		.uleb128 0xa
 1151 0288 9D030000 		.4byte	.LASF37
 1152 028c 04       		.byte	0x4
 1153 028d 9C02     		.2byte	0x29c
 1154 028f CA000000 		.4byte	0xca
 1155 0293 14       		.byte	0x14
 1156 0294 0A       		.uleb128 0xa
 1157 0295 54050000 		.4byte	.LASF38
 1158 0299 04       		.byte	0x4
 1159 029a 9D02     		.2byte	0x29d
 1160 029c CA000000 		.4byte	0xca
 1161 02a0 18       		.byte	0x18
 1162 02a1 0A       		.uleb128 0xa
 1163 02a2 77040000 		.4byte	.LASF39
 1164 02a6 04       		.byte	0x4
 1165 02a7 9E02     		.2byte	0x29e
 1166 02a9 B8000000 		.4byte	0xb8
 1167 02ad 1C       		.byte	0x1c
 1168 02ae 0A       		.uleb128 0xa
 1169 02af E7000000 		.4byte	.LASF40
 1170 02b3 04       		.byte	0x4
 1171 02b4 9F02     		.2byte	0x29f
 1172 02b6 CA000000 		.4byte	0xca
 1173 02ba 20       		.byte	0x20
 1174 02bb 0A       		.uleb128 0xa
 1175 02bc E4010000 		.4byte	.LASF41
 1176 02c0 04       		.byte	0x4
 1177 02c1 A002     		.2byte	0x2a0
 1178 02c3 CA000000 		.4byte	0xca
 1179 02c7 24       		.byte	0x24
 1180 02c8 0A       		.uleb128 0xa
 1181 02c9 81040000 		.4byte	.LASF42
 1182 02cd 04       		.byte	0x4
 1183 02ce A102     		.2byte	0x2a1
 1184 02d0 CF000000 		.4byte	0xcf
 1185 02d4 28       		.byte	0x28
 1186 02d5 0A       		.uleb128 0xa
 1187 02d6 C3040000 		.4byte	.LASF43
 1188 02da 04       		.byte	0x4
 1189 02db A202     		.2byte	0x2a2
 1190 02dd CA000000 		.4byte	0xca
ARM GAS  /tmp/ccIU2uub.s 			page 22


 1191 02e1 30       		.byte	0x30
 1192 02e2 0A       		.uleb128 0xa
 1193 02e3 3E000000 		.4byte	.LASF44
 1194 02e7 04       		.byte	0x4
 1195 02e8 A302     		.2byte	0x2a3
 1196 02ea CA000000 		.4byte	0xca
 1197 02ee 34       		.byte	0x34
 1198 02ef 0A       		.uleb128 0xa
 1199 02f0 74010000 		.4byte	.LASF45
 1200 02f4 04       		.byte	0x4
 1201 02f5 A402     		.2byte	0x2a4
 1202 02f7 CA000000 		.4byte	0xca
 1203 02fb 38       		.byte	0x38
 1204 02fc 0A       		.uleb128 0xa
 1205 02fd 8B040000 		.4byte	.LASF46
 1206 0301 04       		.byte	0x4
 1207 0302 A502     		.2byte	0x2a5
 1208 0304 B8000000 		.4byte	0xb8
 1209 0308 3C       		.byte	0x3c
 1210 0309 0A       		.uleb128 0xa
 1211 030a 4A010000 		.4byte	.LASF47
 1212 030e 04       		.byte	0x4
 1213 030f A602     		.2byte	0x2a6
 1214 0311 CA000000 		.4byte	0xca
 1215 0315 40       		.byte	0x40
 1216 0316 0A       		.uleb128 0xa
 1217 0317 4B030000 		.4byte	.LASF48
 1218 031b 04       		.byte	0x4
 1219 031c A702     		.2byte	0x2a7
 1220 031e CA000000 		.4byte	0xca
 1221 0322 44       		.byte	0x44
 1222 0323 0A       		.uleb128 0xa
 1223 0324 95040000 		.4byte	.LASF49
 1224 0328 04       		.byte	0x4
 1225 0329 A802     		.2byte	0x2a8
 1226 032b CF000000 		.4byte	0xcf
 1227 032f 48       		.byte	0x48
 1228 0330 0A       		.uleb128 0xa
 1229 0331 00000000 		.4byte	.LASF50
 1230 0335 04       		.byte	0x4
 1231 0336 A902     		.2byte	0x2a9
 1232 0338 CA000000 		.4byte	0xca
 1233 033c 50       		.byte	0x50
 1234 033d 0A       		.uleb128 0xa
 1235 033e 6D040000 		.4byte	.LASF51
 1236 0342 04       		.byte	0x4
 1237 0343 AA02     		.2byte	0x2aa
 1238 0345 CA000000 		.4byte	0xca
 1239 0349 54       		.byte	0x54
 1240 034a 0A       		.uleb128 0xa
 1241 034b 20010000 		.4byte	.LASF52
 1242 034f 04       		.byte	0x4
 1243 0350 AB02     		.2byte	0x2ab
 1244 0352 CA000000 		.4byte	0xca
 1245 0356 58       		.byte	0x58
 1246 0357 0A       		.uleb128 0xa
 1247 0358 9F040000 		.4byte	.LASF53
ARM GAS  /tmp/ccIU2uub.s 			page 23


 1248 035c 04       		.byte	0x4
 1249 035d AC02     		.2byte	0x2ac
 1250 035f B8000000 		.4byte	0xb8
 1251 0363 5C       		.byte	0x5c
 1252 0364 0A       		.uleb128 0xa
 1253 0365 1D040000 		.4byte	.LASF54
 1254 0369 04       		.byte	0x4
 1255 036a AD02     		.2byte	0x2ad
 1256 036c CA000000 		.4byte	0xca
 1257 0370 60       		.byte	0x60
 1258 0371 0A       		.uleb128 0xa
 1259 0372 4A050000 		.4byte	.LASF55
 1260 0376 04       		.byte	0x4
 1261 0377 AE02     		.2byte	0x2ae
 1262 0379 CA000000 		.4byte	0xca
 1263 037d 64       		.byte	0x64
 1264 037e 0A       		.uleb128 0xa
 1265 037f A9040000 		.4byte	.LASF56
 1266 0383 04       		.byte	0x4
 1267 0384 AF02     		.2byte	0x2af
 1268 0386 CF000000 		.4byte	0xcf
 1269 038a 68       		.byte	0x68
 1270 038b 0A       		.uleb128 0xa
 1271 038c 67000000 		.4byte	.LASF57
 1272 0390 04       		.byte	0x4
 1273 0391 B002     		.2byte	0x2b0
 1274 0393 CA000000 		.4byte	0xca
 1275 0397 70       		.byte	0x70
 1276 0398 09       		.uleb128 0x9
 1277 0399 43535200 		.ascii	"CSR\000"
 1278 039d 04       		.byte	0x4
 1279 039e B102     		.2byte	0x2b1
 1280 03a0 CA000000 		.4byte	0xca
 1281 03a4 74       		.byte	0x74
 1282 03a5 0A       		.uleb128 0xa
 1283 03a6 B3040000 		.4byte	.LASF58
 1284 03aa 04       		.byte	0x4
 1285 03ab B202     		.2byte	0x2b2
 1286 03ad CF000000 		.4byte	0xcf
 1287 03b1 78       		.byte	0x78
 1288 03b2 0A       		.uleb128 0xa
 1289 03b3 FB000000 		.4byte	.LASF59
 1290 03b7 04       		.byte	0x4
 1291 03b8 B302     		.2byte	0x2b3
 1292 03ba CA000000 		.4byte	0xca
 1293 03be 80       		.byte	0x80
 1294 03bf 0A       		.uleb128 0xa
 1295 03c0 7C000000 		.4byte	.LASF60
 1296 03c4 04       		.byte	0x4
 1297 03c5 B402     		.2byte	0x2b4
 1298 03c7 CA000000 		.4byte	0xca
 1299 03cb 84       		.byte	0x84
 1300 03cc 0A       		.uleb128 0xa
 1301 03cd 3A050000 		.4byte	.LASF61
 1302 03d1 04       		.byte	0x4
 1303 03d2 B502     		.2byte	0x2b5
 1304 03d4 CA000000 		.4byte	0xca
ARM GAS  /tmp/ccIU2uub.s 			page 24


 1305 03d8 88       		.byte	0x88
 1306 03d9 0A       		.uleb128 0xa
 1307 03da 6C010000 		.4byte	.LASF62
 1308 03de 04       		.byte	0x4
 1309 03df B602     		.2byte	0x2b6
 1310 03e1 CA000000 		.4byte	0xca
 1311 03e5 8C       		.byte	0x8c
 1312 03e6 00       		.byte	0
 1313 03e7 0B       		.uleb128 0xb
 1314 03e8 C1010000 		.4byte	.LASF63
 1315 03ec 04       		.byte	0x4
 1316 03ed B802     		.2byte	0x2b8
 1317 03ef 3E020000 		.4byte	0x23e
 1318 03f3 0C       		.uleb128 0xc
 1319 03f4 01       		.byte	0x1
 1320 03f5 05       		.byte	0x5
 1321 03f6 A5       		.byte	0xa5
 1322 03f7 08040000 		.4byte	0x408
 1323 03fb 0D       		.uleb128 0xd
 1324 03fc D5040000 		.4byte	.LASF64
 1325 0400 00       		.sleb128 0
 1326 0401 0E       		.uleb128 0xe
 1327 0402 53455400 		.ascii	"SET\000"
 1328 0406 01       		.sleb128 1
 1329 0407 00       		.byte	0
 1330 0408 02       		.uleb128 0x2
 1331 0409 01       		.byte	0x1
 1332 040a 08       		.byte	0x8
 1333 040b 36040000 		.4byte	.LASF65
 1334 040f 0C       		.uleb128 0xc
 1335 0410 01       		.byte	0x1
 1336 0411 06       		.byte	0x6
 1337 0412 3A       		.byte	0x3a
 1338 0413 30040000 		.4byte	0x430
 1339 0417 0D       		.uleb128 0xd
 1340 0418 19010000 		.4byte	.LASF66
 1341 041c 00       		.sleb128 0
 1342 041d 0D       		.uleb128 0xd
 1343 041e 21030000 		.4byte	.LASF67
 1344 0422 01       		.sleb128 1
 1345 0423 0D       		.uleb128 0xd
 1346 0424 35000000 		.4byte	.LASF68
 1347 0428 02       		.sleb128 2
 1348 0429 0D       		.uleb128 0xd
 1349 042a 13000000 		.4byte	.LASF69
 1350 042e 03       		.sleb128 3
 1351 042f 00       		.byte	0
 1352 0430 03       		.uleb128 0x3
 1353 0431 F7010000 		.4byte	.LASF70
 1354 0435 06       		.byte	0x6
 1355 0436 3F       		.byte	0x3f
 1356 0437 0F040000 		.4byte	0x40f
 1357 043b 0F       		.uleb128 0xf
 1358 043c 14       		.byte	0x14
 1359 043d 07       		.byte	0x7
 1360 043e 41       		.byte	0x41
 1361 043f 80040000 		.4byte	0x480
ARM GAS  /tmp/ccIU2uub.s 			page 25


 1362 0443 10       		.uleb128 0x10
 1363 0444 50696E00 		.ascii	"Pin\000"
 1364 0448 07       		.byte	0x7
 1365 0449 43       		.byte	0x43
 1366 044a B8000000 		.4byte	0xb8
 1367 044e 00       		.byte	0
 1368 044f 11       		.uleb128 0x11
 1369 0450 E1040000 		.4byte	.LASF71
 1370 0454 07       		.byte	0x7
 1371 0455 46       		.byte	0x46
 1372 0456 B8000000 		.4byte	0xb8
 1373 045a 04       		.byte	0x4
 1374 045b 11       		.uleb128 0x11
 1375 045c 77000000 		.4byte	.LASF72
 1376 0460 07       		.byte	0x7
 1377 0461 49       		.byte	0x49
 1378 0462 B8000000 		.4byte	0xb8
 1379 0466 08       		.byte	0x8
 1380 0467 11       		.uleb128 0x11
 1381 0468 DB040000 		.4byte	.LASF73
 1382 046c 07       		.byte	0x7
 1383 046d 4C       		.byte	0x4c
 1384 046e B8000000 		.4byte	0xb8
 1385 0472 0C       		.byte	0xc
 1386 0473 11       		.uleb128 0x11
 1387 0474 22050000 		.4byte	.LASF74
 1388 0478 07       		.byte	0x7
 1389 0479 4F       		.byte	0x4f
 1390 047a B8000000 		.4byte	0xb8
 1391 047e 10       		.byte	0x10
 1392 047f 00       		.byte	0
 1393 0480 03       		.uleb128 0x3
 1394 0481 7F030000 		.4byte	.LASF75
 1395 0485 07       		.byte	0x7
 1396 0486 51       		.byte	0x51
 1397 0487 3B040000 		.4byte	0x43b
 1398 048b 0C       		.uleb128 0xc
 1399 048c 01       		.byte	0x1
 1400 048d 07       		.byte	0x7
 1401 048e 57       		.byte	0x57
 1402 048f A0040000 		.4byte	0x4a0
 1403 0493 0D       		.uleb128 0xd
 1404 0494 12030000 		.4byte	.LASF76
 1405 0498 00       		.sleb128 0
 1406 0499 0D       		.uleb128 0xd
 1407 049a 81010000 		.4byte	.LASF77
 1408 049e 01       		.sleb128 1
 1409 049f 00       		.byte	0
 1410 04a0 03       		.uleb128 0x3
 1411 04a1 2C050000 		.4byte	.LASF78
 1412 04a5 07       		.byte	0x7
 1413 04a6 5A       		.byte	0x5a
 1414 04a7 8B040000 		.4byte	0x48b
 1415 04ab 12       		.uleb128 0x12
 1416 04ac 1F000000 		.4byte	.LASF86
 1417 04b0 01       		.byte	0x1
 1418 04b1 BD       		.byte	0xbd
ARM GAS  /tmp/ccIU2uub.s 			page 26


 1419 04b2 00000000 		.4byte	.LFB123
 1420 04b6 68020000 		.4byte	.LFE123-.LFB123
 1421 04ba 01       		.uleb128 0x1
 1422 04bb 9C       		.byte	0x9c
 1423 04bc 2C050000 		.4byte	0x52c
 1424 04c0 13       		.uleb128 0x13
 1425 04c1 BD040000 		.4byte	.LASF79
 1426 04c5 01       		.byte	0x1
 1427 04c6 BD       		.byte	0xbd
 1428 04c7 2C050000 		.4byte	0x52c
 1429 04cb 01       		.uleb128 0x1
 1430 04cc 50       		.byte	0x50
 1431 04cd 13       		.uleb128 0x13
 1432 04ce 2A010000 		.4byte	.LASF80
 1433 04d2 01       		.byte	0x1
 1434 04d3 BD       		.byte	0xbd
 1435 04d4 32050000 		.4byte	0x532
 1436 04d8 01       		.uleb128 0x1
 1437 04d9 51       		.byte	0x51
 1438 04da 14       		.uleb128 0x14
 1439 04db F3040000 		.4byte	.LASF81
 1440 04df 01       		.byte	0x1
 1441 04e0 BF       		.byte	0xbf
 1442 04e1 B8000000 		.4byte	0xb8
 1443 04e5 00000000 		.4byte	.LLST0
 1444 04e9 14       		.uleb128 0x14
 1445 04ea 6C000000 		.4byte	.LASF82
 1446 04ee 01       		.byte	0x1
 1447 04ef C0       		.byte	0xc0
 1448 04f0 B8000000 		.4byte	0xb8
 1449 04f4 37000000 		.4byte	.LLST1
 1450 04f8 14       		.uleb128 0x14
 1451 04f9 13040000 		.4byte	.LASF83
 1452 04fd 01       		.byte	0x1
 1453 04fe C1       		.byte	0xc1
 1454 04ff B8000000 		.4byte	0xb8
 1455 0503 CB000000 		.4byte	.LLST2
 1456 0507 14       		.uleb128 0x14
 1457 0508 7C010000 		.4byte	.LASF84
 1458 050c 01       		.byte	0x1
 1459 050d C2       		.byte	0xc2
 1460 050e B8000000 		.4byte	0xb8
 1461 0512 0E010000 		.4byte	.LLST3
 1462 0516 15       		.uleb128 0x15
 1463 0517 00000000 		.4byte	.Ldebug_ranges0+0
 1464 051b 16       		.uleb128 0x16
 1465 051c 57000000 		.4byte	.LASF85
 1466 0520 01       		.byte	0x1
 1467 0521 0501     		.2byte	0x105
 1468 0523 CA000000 		.4byte	0xca
 1469 0527 02       		.uleb128 0x2
 1470 0528 91       		.byte	0x91
 1471 0529 54       		.sleb128 -44
 1472 052a 00       		.byte	0
 1473 052b 00       		.byte	0
 1474 052c 17       		.uleb128 0x17
 1475 052d 04       		.byte	0x4
ARM GAS  /tmp/ccIU2uub.s 			page 27


 1476 052e D6010000 		.4byte	0x1d6
 1477 0532 17       		.uleb128 0x17
 1478 0533 04       		.byte	0x4
 1479 0534 80040000 		.4byte	0x480
 1480 0538 18       		.uleb128 0x18
 1481 0539 05050000 		.4byte	.LASF87
 1482 053d 01       		.byte	0x1
 1483 053e 3A01     		.2byte	0x13a
 1484 0540 70020000 		.4byte	.LFB124
 1485 0544 64010000 		.4byte	.LFE124-.LFB124
 1486 0548 01       		.uleb128 0x1
 1487 0549 9C       		.byte	0x9c
 1488 054a AD050000 		.4byte	0x5ad
 1489 054e 19       		.uleb128 0x19
 1490 054f BD040000 		.4byte	.LASF79
 1491 0553 01       		.byte	0x1
 1492 0554 3A01     		.2byte	0x13a
 1493 0556 2C050000 		.4byte	0x52c
 1494 055a 01       		.uleb128 0x1
 1495 055b 50       		.byte	0x50
 1496 055c 1A       		.uleb128 0x1a
 1497 055d 0A000000 		.4byte	.LASF88
 1498 0561 01       		.byte	0x1
 1499 0562 3A01     		.2byte	0x13a
 1500 0564 B8000000 		.4byte	0xb8
 1501 0568 6F020000 		.4byte	.LLST4
 1502 056c 1B       		.uleb128 0x1b
 1503 056d F3040000 		.4byte	.LASF81
 1504 0571 01       		.byte	0x1
 1505 0572 3C01     		.2byte	0x13c
 1506 0574 B8000000 		.4byte	0xb8
 1507 0578 8D020000 		.4byte	.LLST5
 1508 057c 1B       		.uleb128 0x1b
 1509 057d 6C000000 		.4byte	.LASF82
 1510 0581 01       		.byte	0x1
 1511 0582 3D01     		.2byte	0x13d
 1512 0584 B8000000 		.4byte	0xb8
 1513 0588 AC020000 		.4byte	.LLST6
 1514 058c 1B       		.uleb128 0x1b
 1515 058d 13040000 		.4byte	.LASF83
 1516 0591 01       		.byte	0x1
 1517 0592 3E01     		.2byte	0x13e
 1518 0594 B8000000 		.4byte	0xb8
 1519 0598 45030000 		.4byte	.LLST7
 1520 059c 1C       		.uleb128 0x1c
 1521 059d 746D7000 		.ascii	"tmp\000"
 1522 05a1 01       		.byte	0x1
 1523 05a2 3F01     		.2byte	0x13f
 1524 05a4 B8000000 		.4byte	0xb8
 1525 05a8 B6030000 		.4byte	.LLST8
 1526 05ac 00       		.byte	0
 1527 05ad 1D       		.uleb128 0x1d
 1528 05ae CD010000 		.4byte	.LASF93
 1529 05b2 01       		.byte	0x1
 1530 05b3 8B01     		.2byte	0x18b
 1531 05b5 A0040000 		.4byte	0x4a0
 1532 05b9 E0030000 		.4byte	.LFB125
ARM GAS  /tmp/ccIU2uub.s 			page 28


 1533 05bd 0C000000 		.4byte	.LFE125-.LFB125
 1534 05c1 01       		.uleb128 0x1
 1535 05c2 9C       		.byte	0x9c
 1536 05c3 FF050000 		.4byte	0x5ff
 1537 05c7 1A       		.uleb128 0x1a
 1538 05c8 BD040000 		.4byte	.LASF79
 1539 05cc 01       		.byte	0x1
 1540 05cd 8B01     		.2byte	0x18b
 1541 05cf 2C050000 		.4byte	0x52c
 1542 05d3 FA030000 		.4byte	.LLST9
 1543 05d7 19       		.uleb128 0x19
 1544 05d8 0A000000 		.4byte	.LASF88
 1545 05dc 01       		.byte	0x1
 1546 05dd 8B01     		.2byte	0x18b
 1547 05df A2000000 		.4byte	0xa2
 1548 05e3 01       		.uleb128 0x1
 1549 05e4 51       		.byte	0x51
 1550 05e5 16       		.uleb128 0x16
 1551 05e6 0F020000 		.4byte	.LASF89
 1552 05ea 01       		.byte	0x1
 1553 05eb 8D01     		.2byte	0x18d
 1554 05ed A0040000 		.4byte	0x4a0
 1555 05f1 0C       		.uleb128 0xc
 1556 05f2 71       		.byte	0x71
 1557 05f3 00       		.sleb128 0
 1558 05f4 0A       		.byte	0xa
 1559 05f5 FFFF     		.2byte	0xffff
 1560 05f7 1A       		.byte	0x1a
 1561 05f8 73       		.byte	0x73
 1562 05f9 00       		.sleb128 0
 1563 05fa 1A       		.byte	0x1a
 1564 05fb 30       		.byte	0x30
 1565 05fc 2E       		.byte	0x2e
 1566 05fd 9F       		.byte	0x9f
 1567 05fe 00       		.byte	0
 1568 05ff 18       		.uleb128 0x18
 1569 0600 2B030000 		.4byte	.LASF90
 1570 0604 01       		.byte	0x1
 1571 0605 AE01     		.2byte	0x1ae
 1572 0607 F0030000 		.4byte	.LFB126
 1573 060b 08000000 		.4byte	.LFE126-.LFB126
 1574 060f 01       		.uleb128 0x1
 1575 0610 9C       		.byte	0x9c
 1576 0611 42060000 		.4byte	0x642
 1577 0615 19       		.uleb128 0x19
 1578 0616 BD040000 		.4byte	.LASF79
 1579 061a 01       		.byte	0x1
 1580 061b AE01     		.2byte	0x1ae
 1581 061d 2C050000 		.4byte	0x52c
 1582 0621 01       		.uleb128 0x1
 1583 0622 50       		.byte	0x50
 1584 0623 1A       		.uleb128 0x1a
 1585 0624 0A000000 		.4byte	.LASF88
 1586 0628 01       		.byte	0x1
 1587 0629 AE01     		.2byte	0x1ae
 1588 062b A2000000 		.4byte	0xa2
 1589 062f 1B040000 		.4byte	.LLST10
ARM GAS  /tmp/ccIU2uub.s 			page 29


 1590 0633 19       		.uleb128 0x19
 1591 0634 64040000 		.4byte	.LASF91
 1592 0638 01       		.byte	0x1
 1593 0639 AE01     		.2byte	0x1ae
 1594 063b A0040000 		.4byte	0x4a0
 1595 063f 01       		.uleb128 0x1
 1596 0640 52       		.byte	0x52
 1597 0641 00       		.byte	0
 1598 0642 18       		.uleb128 0x18
 1599 0643 52010000 		.4byte	.LASF92
 1600 0647 01       		.byte	0x1
 1601 0648 C501     		.2byte	0x1c5
 1602 064a 00040000 		.4byte	.LFB127
 1603 064e 08000000 		.4byte	.LFE127-.LFB127
 1604 0652 01       		.uleb128 0x1
 1605 0653 9C       		.byte	0x9c
 1606 0654 77060000 		.4byte	0x677
 1607 0658 19       		.uleb128 0x19
 1608 0659 BD040000 		.4byte	.LASF79
 1609 065d 01       		.byte	0x1
 1610 065e C501     		.2byte	0x1c5
 1611 0660 2C050000 		.4byte	0x52c
 1612 0664 01       		.uleb128 0x1
 1613 0665 50       		.byte	0x50
 1614 0666 1A       		.uleb128 0x1a
 1615 0667 0A000000 		.4byte	.LASF88
 1616 066b 01       		.byte	0x1
 1617 066c C501     		.2byte	0x1c5
 1618 066e A2000000 		.4byte	0xa2
 1619 0672 3C040000 		.4byte	.LLST11
 1620 0676 00       		.byte	0
 1621 0677 1D       		.uleb128 0x1d
 1622 0678 46000000 		.4byte	.LASF94
 1623 067c 01       		.byte	0x1
 1624 067d D801     		.2byte	0x1d8
 1625 067f 30040000 		.4byte	0x430
 1626 0683 10040000 		.4byte	.LFB128
 1627 0687 2A000000 		.4byte	.LFE128-.LFB128
 1628 068b 01       		.uleb128 0x1
 1629 068c 9C       		.byte	0x9c
 1630 068d BF060000 		.4byte	0x6bf
 1631 0691 1A       		.uleb128 0x1a
 1632 0692 BD040000 		.4byte	.LASF79
 1633 0696 01       		.byte	0x1
 1634 0697 D801     		.2byte	0x1d8
 1635 0699 2C050000 		.4byte	0x52c
 1636 069d 5D040000 		.4byte	.LLST12
 1637 06a1 19       		.uleb128 0x19
 1638 06a2 0A000000 		.4byte	.LASF88
 1639 06a6 01       		.byte	0x1
 1640 06a7 D801     		.2byte	0x1d8
 1641 06a9 A2000000 		.4byte	0xa2
 1642 06ad 01       		.uleb128 0x1
 1643 06ae 51       		.byte	0x51
 1644 06af 1E       		.uleb128 0x1e
 1645 06b0 746D7000 		.ascii	"tmp\000"
 1646 06b4 01       		.byte	0x1
ARM GAS  /tmp/ccIU2uub.s 			page 30


 1647 06b5 DA01     		.2byte	0x1da
 1648 06b7 CA000000 		.4byte	0xca
 1649 06bb 02       		.uleb128 0x2
 1650 06bc 91       		.byte	0x91
 1651 06bd 7C       		.sleb128 -4
 1652 06be 00       		.byte	0
 1653 06bf 18       		.uleb128 0x18
 1654 06c0 5F030000 		.4byte	.LASF95
 1655 06c4 01       		.byte	0x1
 1656 06c5 0802     		.2byte	0x208
 1657 06c7 40040000 		.4byte	.LFB130
 1658 06cb 02000000 		.4byte	.LFE130-.LFB130
 1659 06cf 01       		.uleb128 0x1
 1660 06d0 9C       		.byte	0x9c
 1661 06d1 E4060000 		.4byte	0x6e4
 1662 06d5 19       		.uleb128 0x19
 1663 06d6 0A000000 		.4byte	.LASF88
 1664 06da 01       		.byte	0x1
 1665 06db 0802     		.2byte	0x208
 1666 06dd A2000000 		.4byte	0xa2
 1667 06e1 01       		.uleb128 0x1
 1668 06e2 50       		.byte	0x50
 1669 06e3 00       		.byte	0
 1670 06e4 18       		.uleb128 0x18
 1671 06e5 C2030000 		.4byte	.LASF96
 1672 06e9 01       		.byte	0x1
 1673 06ea F901     		.2byte	0x1f9
 1674 06ec 50040000 		.4byte	.LFB129
 1675 06f0 18000000 		.4byte	.LFE129-.LFB129
 1676 06f4 01       		.uleb128 0x1
 1677 06f5 9C       		.byte	0x9c
 1678 06f6 14070000 		.4byte	0x714
 1679 06fa 1A       		.uleb128 0x1a
 1680 06fb 0A000000 		.4byte	.LASF88
 1681 06ff 01       		.byte	0x1
 1682 0700 F901     		.2byte	0x1f9
 1683 0702 A2000000 		.4byte	0xa2
 1684 0706 7E040000 		.4byte	.LLST13
 1685 070a 1F       		.uleb128 0x1f
 1686 070b 60040000 		.4byte	.LVL81
 1687 070f BF060000 		.4byte	0x6bf
 1688 0713 00       		.byte	0
 1689 0714 20       		.uleb128 0x20
 1690 0715 15050000 		.4byte	.LASF100
 1691 0719 08       		.byte	0x8
 1692 071a DF07     		.2byte	0x7df
 1693 071c 20070000 		.4byte	0x720
 1694 0720 05       		.uleb128 0x5
 1695 0721 AD000000 		.4byte	0xad
 1696 0725 00       		.byte	0
 1697              		.section	.debug_abbrev,"",%progbits
 1698              	.Ldebug_abbrev0:
 1699 0000 01       		.uleb128 0x1
 1700 0001 11       		.uleb128 0x11
 1701 0002 01       		.byte	0x1
 1702 0003 25       		.uleb128 0x25
 1703 0004 0E       		.uleb128 0xe
ARM GAS  /tmp/ccIU2uub.s 			page 31


 1704 0005 13       		.uleb128 0x13
 1705 0006 0B       		.uleb128 0xb
 1706 0007 03       		.uleb128 0x3
 1707 0008 0E       		.uleb128 0xe
 1708 0009 1B       		.uleb128 0x1b
 1709 000a 0E       		.uleb128 0xe
 1710 000b 11       		.uleb128 0x11
 1711 000c 01       		.uleb128 0x1
 1712 000d 12       		.uleb128 0x12
 1713 000e 06       		.uleb128 0x6
 1714 000f 10       		.uleb128 0x10
 1715 0010 17       		.uleb128 0x17
 1716 0011 00       		.byte	0
 1717 0012 00       		.byte	0
 1718 0013 02       		.uleb128 0x2
 1719 0014 24       		.uleb128 0x24
 1720 0015 00       		.byte	0
 1721 0016 0B       		.uleb128 0xb
 1722 0017 0B       		.uleb128 0xb
 1723 0018 3E       		.uleb128 0x3e
 1724 0019 0B       		.uleb128 0xb
 1725 001a 03       		.uleb128 0x3
 1726 001b 0E       		.uleb128 0xe
 1727 001c 00       		.byte	0
 1728 001d 00       		.byte	0
 1729 001e 03       		.uleb128 0x3
 1730 001f 16       		.uleb128 0x16
 1731 0020 00       		.byte	0
 1732 0021 03       		.uleb128 0x3
 1733 0022 0E       		.uleb128 0xe
 1734 0023 3A       		.uleb128 0x3a
 1735 0024 0B       		.uleb128 0xb
 1736 0025 3B       		.uleb128 0x3b
 1737 0026 0B       		.uleb128 0xb
 1738 0027 49       		.uleb128 0x49
 1739 0028 13       		.uleb128 0x13
 1740 0029 00       		.byte	0
 1741 002a 00       		.byte	0
 1742 002b 04       		.uleb128 0x4
 1743 002c 24       		.uleb128 0x24
 1744 002d 00       		.byte	0
 1745 002e 0B       		.uleb128 0xb
 1746 002f 0B       		.uleb128 0xb
 1747 0030 3E       		.uleb128 0x3e
 1748 0031 0B       		.uleb128 0xb
 1749 0032 03       		.uleb128 0x3
 1750 0033 08       		.uleb128 0x8
 1751 0034 00       		.byte	0
 1752 0035 00       		.byte	0
 1753 0036 05       		.uleb128 0x5
 1754 0037 35       		.uleb128 0x35
 1755 0038 00       		.byte	0
 1756 0039 49       		.uleb128 0x49
 1757 003a 13       		.uleb128 0x13
 1758 003b 00       		.byte	0
 1759 003c 00       		.byte	0
 1760 003d 06       		.uleb128 0x6
ARM GAS  /tmp/ccIU2uub.s 			page 32


 1761 003e 01       		.uleb128 0x1
 1762 003f 01       		.byte	0x1
 1763 0040 49       		.uleb128 0x49
 1764 0041 13       		.uleb128 0x13
 1765 0042 01       		.uleb128 0x1
 1766 0043 13       		.uleb128 0x13
 1767 0044 00       		.byte	0
 1768 0045 00       		.byte	0
 1769 0046 07       		.uleb128 0x7
 1770 0047 21       		.uleb128 0x21
 1771 0048 00       		.byte	0
 1772 0049 49       		.uleb128 0x49
 1773 004a 13       		.uleb128 0x13
 1774 004b 2F       		.uleb128 0x2f
 1775 004c 0B       		.uleb128 0xb
 1776 004d 00       		.byte	0
 1777 004e 00       		.byte	0
 1778 004f 08       		.uleb128 0x8
 1779 0050 13       		.uleb128 0x13
 1780 0051 01       		.byte	0x1
 1781 0052 0B       		.uleb128 0xb
 1782 0053 0B       		.uleb128 0xb
 1783 0054 3A       		.uleb128 0x3a
 1784 0055 0B       		.uleb128 0xb
 1785 0056 3B       		.uleb128 0x3b
 1786 0057 05       		.uleb128 0x5
 1787 0058 01       		.uleb128 0x1
 1788 0059 13       		.uleb128 0x13
 1789 005a 00       		.byte	0
 1790 005b 00       		.byte	0
 1791 005c 09       		.uleb128 0x9
 1792 005d 0D       		.uleb128 0xd
 1793 005e 00       		.byte	0
 1794 005f 03       		.uleb128 0x3
 1795 0060 08       		.uleb128 0x8
 1796 0061 3A       		.uleb128 0x3a
 1797 0062 0B       		.uleb128 0xb
 1798 0063 3B       		.uleb128 0x3b
 1799 0064 05       		.uleb128 0x5
 1800 0065 49       		.uleb128 0x49
 1801 0066 13       		.uleb128 0x13
 1802 0067 38       		.uleb128 0x38
 1803 0068 0B       		.uleb128 0xb
 1804 0069 00       		.byte	0
 1805 006a 00       		.byte	0
 1806 006b 0A       		.uleb128 0xa
 1807 006c 0D       		.uleb128 0xd
 1808 006d 00       		.byte	0
 1809 006e 03       		.uleb128 0x3
 1810 006f 0E       		.uleb128 0xe
 1811 0070 3A       		.uleb128 0x3a
 1812 0071 0B       		.uleb128 0xb
 1813 0072 3B       		.uleb128 0x3b
 1814 0073 05       		.uleb128 0x5
 1815 0074 49       		.uleb128 0x49
 1816 0075 13       		.uleb128 0x13
 1817 0076 38       		.uleb128 0x38
ARM GAS  /tmp/ccIU2uub.s 			page 33


 1818 0077 0B       		.uleb128 0xb
 1819 0078 00       		.byte	0
 1820 0079 00       		.byte	0
 1821 007a 0B       		.uleb128 0xb
 1822 007b 16       		.uleb128 0x16
 1823 007c 00       		.byte	0
 1824 007d 03       		.uleb128 0x3
 1825 007e 0E       		.uleb128 0xe
 1826 007f 3A       		.uleb128 0x3a
 1827 0080 0B       		.uleb128 0xb
 1828 0081 3B       		.uleb128 0x3b
 1829 0082 05       		.uleb128 0x5
 1830 0083 49       		.uleb128 0x49
 1831 0084 13       		.uleb128 0x13
 1832 0085 00       		.byte	0
 1833 0086 00       		.byte	0
 1834 0087 0C       		.uleb128 0xc
 1835 0088 04       		.uleb128 0x4
 1836 0089 01       		.byte	0x1
 1837 008a 0B       		.uleb128 0xb
 1838 008b 0B       		.uleb128 0xb
 1839 008c 3A       		.uleb128 0x3a
 1840 008d 0B       		.uleb128 0xb
 1841 008e 3B       		.uleb128 0x3b
 1842 008f 0B       		.uleb128 0xb
 1843 0090 01       		.uleb128 0x1
 1844 0091 13       		.uleb128 0x13
 1845 0092 00       		.byte	0
 1846 0093 00       		.byte	0
 1847 0094 0D       		.uleb128 0xd
 1848 0095 28       		.uleb128 0x28
 1849 0096 00       		.byte	0
 1850 0097 03       		.uleb128 0x3
 1851 0098 0E       		.uleb128 0xe
 1852 0099 1C       		.uleb128 0x1c
 1853 009a 0D       		.uleb128 0xd
 1854 009b 00       		.byte	0
 1855 009c 00       		.byte	0
 1856 009d 0E       		.uleb128 0xe
 1857 009e 28       		.uleb128 0x28
 1858 009f 00       		.byte	0
 1859 00a0 03       		.uleb128 0x3
 1860 00a1 08       		.uleb128 0x8
 1861 00a2 1C       		.uleb128 0x1c
 1862 00a3 0D       		.uleb128 0xd
 1863 00a4 00       		.byte	0
 1864 00a5 00       		.byte	0
 1865 00a6 0F       		.uleb128 0xf
 1866 00a7 13       		.uleb128 0x13
 1867 00a8 01       		.byte	0x1
 1868 00a9 0B       		.uleb128 0xb
 1869 00aa 0B       		.uleb128 0xb
 1870 00ab 3A       		.uleb128 0x3a
 1871 00ac 0B       		.uleb128 0xb
 1872 00ad 3B       		.uleb128 0x3b
 1873 00ae 0B       		.uleb128 0xb
 1874 00af 01       		.uleb128 0x1
ARM GAS  /tmp/ccIU2uub.s 			page 34


 1875 00b0 13       		.uleb128 0x13
 1876 00b1 00       		.byte	0
 1877 00b2 00       		.byte	0
 1878 00b3 10       		.uleb128 0x10
 1879 00b4 0D       		.uleb128 0xd
 1880 00b5 00       		.byte	0
 1881 00b6 03       		.uleb128 0x3
 1882 00b7 08       		.uleb128 0x8
 1883 00b8 3A       		.uleb128 0x3a
 1884 00b9 0B       		.uleb128 0xb
 1885 00ba 3B       		.uleb128 0x3b
 1886 00bb 0B       		.uleb128 0xb
 1887 00bc 49       		.uleb128 0x49
 1888 00bd 13       		.uleb128 0x13
 1889 00be 38       		.uleb128 0x38
 1890 00bf 0B       		.uleb128 0xb
 1891 00c0 00       		.byte	0
 1892 00c1 00       		.byte	0
 1893 00c2 11       		.uleb128 0x11
 1894 00c3 0D       		.uleb128 0xd
 1895 00c4 00       		.byte	0
 1896 00c5 03       		.uleb128 0x3
 1897 00c6 0E       		.uleb128 0xe
 1898 00c7 3A       		.uleb128 0x3a
 1899 00c8 0B       		.uleb128 0xb
 1900 00c9 3B       		.uleb128 0x3b
 1901 00ca 0B       		.uleb128 0xb
 1902 00cb 49       		.uleb128 0x49
 1903 00cc 13       		.uleb128 0x13
 1904 00cd 38       		.uleb128 0x38
 1905 00ce 0B       		.uleb128 0xb
 1906 00cf 00       		.byte	0
 1907 00d0 00       		.byte	0
 1908 00d1 12       		.uleb128 0x12
 1909 00d2 2E       		.uleb128 0x2e
 1910 00d3 01       		.byte	0x1
 1911 00d4 3F       		.uleb128 0x3f
 1912 00d5 19       		.uleb128 0x19
 1913 00d6 03       		.uleb128 0x3
 1914 00d7 0E       		.uleb128 0xe
 1915 00d8 3A       		.uleb128 0x3a
 1916 00d9 0B       		.uleb128 0xb
 1917 00da 3B       		.uleb128 0x3b
 1918 00db 0B       		.uleb128 0xb
 1919 00dc 27       		.uleb128 0x27
 1920 00dd 19       		.uleb128 0x19
 1921 00de 11       		.uleb128 0x11
 1922 00df 01       		.uleb128 0x1
 1923 00e0 12       		.uleb128 0x12
 1924 00e1 06       		.uleb128 0x6
 1925 00e2 40       		.uleb128 0x40
 1926 00e3 18       		.uleb128 0x18
 1927 00e4 9742     		.uleb128 0x2117
 1928 00e6 19       		.uleb128 0x19
 1929 00e7 01       		.uleb128 0x1
 1930 00e8 13       		.uleb128 0x13
 1931 00e9 00       		.byte	0
ARM GAS  /tmp/ccIU2uub.s 			page 35


 1932 00ea 00       		.byte	0
 1933 00eb 13       		.uleb128 0x13
 1934 00ec 05       		.uleb128 0x5
 1935 00ed 00       		.byte	0
 1936 00ee 03       		.uleb128 0x3
 1937 00ef 0E       		.uleb128 0xe
 1938 00f0 3A       		.uleb128 0x3a
 1939 00f1 0B       		.uleb128 0xb
 1940 00f2 3B       		.uleb128 0x3b
 1941 00f3 0B       		.uleb128 0xb
 1942 00f4 49       		.uleb128 0x49
 1943 00f5 13       		.uleb128 0x13
 1944 00f6 02       		.uleb128 0x2
 1945 00f7 18       		.uleb128 0x18
 1946 00f8 00       		.byte	0
 1947 00f9 00       		.byte	0
 1948 00fa 14       		.uleb128 0x14
 1949 00fb 34       		.uleb128 0x34
 1950 00fc 00       		.byte	0
 1951 00fd 03       		.uleb128 0x3
 1952 00fe 0E       		.uleb128 0xe
 1953 00ff 3A       		.uleb128 0x3a
 1954 0100 0B       		.uleb128 0xb
 1955 0101 3B       		.uleb128 0x3b
 1956 0102 0B       		.uleb128 0xb
 1957 0103 49       		.uleb128 0x49
 1958 0104 13       		.uleb128 0x13
 1959 0105 02       		.uleb128 0x2
 1960 0106 17       		.uleb128 0x17
 1961 0107 00       		.byte	0
 1962 0108 00       		.byte	0
 1963 0109 15       		.uleb128 0x15
 1964 010a 0B       		.uleb128 0xb
 1965 010b 01       		.byte	0x1
 1966 010c 55       		.uleb128 0x55
 1967 010d 17       		.uleb128 0x17
 1968 010e 00       		.byte	0
 1969 010f 00       		.byte	0
 1970 0110 16       		.uleb128 0x16
 1971 0111 34       		.uleb128 0x34
 1972 0112 00       		.byte	0
 1973 0113 03       		.uleb128 0x3
 1974 0114 0E       		.uleb128 0xe
 1975 0115 3A       		.uleb128 0x3a
 1976 0116 0B       		.uleb128 0xb
 1977 0117 3B       		.uleb128 0x3b
 1978 0118 05       		.uleb128 0x5
 1979 0119 49       		.uleb128 0x49
 1980 011a 13       		.uleb128 0x13
 1981 011b 02       		.uleb128 0x2
 1982 011c 18       		.uleb128 0x18
 1983 011d 00       		.byte	0
 1984 011e 00       		.byte	0
 1985 011f 17       		.uleb128 0x17
 1986 0120 0F       		.uleb128 0xf
 1987 0121 00       		.byte	0
 1988 0122 0B       		.uleb128 0xb
ARM GAS  /tmp/ccIU2uub.s 			page 36


 1989 0123 0B       		.uleb128 0xb
 1990 0124 49       		.uleb128 0x49
 1991 0125 13       		.uleb128 0x13
 1992 0126 00       		.byte	0
 1993 0127 00       		.byte	0
 1994 0128 18       		.uleb128 0x18
 1995 0129 2E       		.uleb128 0x2e
 1996 012a 01       		.byte	0x1
 1997 012b 3F       		.uleb128 0x3f
 1998 012c 19       		.uleb128 0x19
 1999 012d 03       		.uleb128 0x3
 2000 012e 0E       		.uleb128 0xe
 2001 012f 3A       		.uleb128 0x3a
 2002 0130 0B       		.uleb128 0xb
 2003 0131 3B       		.uleb128 0x3b
 2004 0132 05       		.uleb128 0x5
 2005 0133 27       		.uleb128 0x27
 2006 0134 19       		.uleb128 0x19
 2007 0135 11       		.uleb128 0x11
 2008 0136 01       		.uleb128 0x1
 2009 0137 12       		.uleb128 0x12
 2010 0138 06       		.uleb128 0x6
 2011 0139 40       		.uleb128 0x40
 2012 013a 18       		.uleb128 0x18
 2013 013b 9742     		.uleb128 0x2117
 2014 013d 19       		.uleb128 0x19
 2015 013e 01       		.uleb128 0x1
 2016 013f 13       		.uleb128 0x13
 2017 0140 00       		.byte	0
 2018 0141 00       		.byte	0
 2019 0142 19       		.uleb128 0x19
 2020 0143 05       		.uleb128 0x5
 2021 0144 00       		.byte	0
 2022 0145 03       		.uleb128 0x3
 2023 0146 0E       		.uleb128 0xe
 2024 0147 3A       		.uleb128 0x3a
 2025 0148 0B       		.uleb128 0xb
 2026 0149 3B       		.uleb128 0x3b
 2027 014a 05       		.uleb128 0x5
 2028 014b 49       		.uleb128 0x49
 2029 014c 13       		.uleb128 0x13
 2030 014d 02       		.uleb128 0x2
 2031 014e 18       		.uleb128 0x18
 2032 014f 00       		.byte	0
 2033 0150 00       		.byte	0
 2034 0151 1A       		.uleb128 0x1a
 2035 0152 05       		.uleb128 0x5
 2036 0153 00       		.byte	0
 2037 0154 03       		.uleb128 0x3
 2038 0155 0E       		.uleb128 0xe
 2039 0156 3A       		.uleb128 0x3a
 2040 0157 0B       		.uleb128 0xb
 2041 0158 3B       		.uleb128 0x3b
 2042 0159 05       		.uleb128 0x5
 2043 015a 49       		.uleb128 0x49
 2044 015b 13       		.uleb128 0x13
 2045 015c 02       		.uleb128 0x2
ARM GAS  /tmp/ccIU2uub.s 			page 37


 2046 015d 17       		.uleb128 0x17
 2047 015e 00       		.byte	0
 2048 015f 00       		.byte	0
 2049 0160 1B       		.uleb128 0x1b
 2050 0161 34       		.uleb128 0x34
 2051 0162 00       		.byte	0
 2052 0163 03       		.uleb128 0x3
 2053 0164 0E       		.uleb128 0xe
 2054 0165 3A       		.uleb128 0x3a
 2055 0166 0B       		.uleb128 0xb
 2056 0167 3B       		.uleb128 0x3b
 2057 0168 05       		.uleb128 0x5
 2058 0169 49       		.uleb128 0x49
 2059 016a 13       		.uleb128 0x13
 2060 016b 02       		.uleb128 0x2
 2061 016c 17       		.uleb128 0x17
 2062 016d 00       		.byte	0
 2063 016e 00       		.byte	0
 2064 016f 1C       		.uleb128 0x1c
 2065 0170 34       		.uleb128 0x34
 2066 0171 00       		.byte	0
 2067 0172 03       		.uleb128 0x3
 2068 0173 08       		.uleb128 0x8
 2069 0174 3A       		.uleb128 0x3a
 2070 0175 0B       		.uleb128 0xb
 2071 0176 3B       		.uleb128 0x3b
 2072 0177 05       		.uleb128 0x5
 2073 0178 49       		.uleb128 0x49
 2074 0179 13       		.uleb128 0x13
 2075 017a 02       		.uleb128 0x2
 2076 017b 17       		.uleb128 0x17
 2077 017c 00       		.byte	0
 2078 017d 00       		.byte	0
 2079 017e 1D       		.uleb128 0x1d
 2080 017f 2E       		.uleb128 0x2e
 2081 0180 01       		.byte	0x1
 2082 0181 3F       		.uleb128 0x3f
 2083 0182 19       		.uleb128 0x19
 2084 0183 03       		.uleb128 0x3
 2085 0184 0E       		.uleb128 0xe
 2086 0185 3A       		.uleb128 0x3a
 2087 0186 0B       		.uleb128 0xb
 2088 0187 3B       		.uleb128 0x3b
 2089 0188 05       		.uleb128 0x5
 2090 0189 27       		.uleb128 0x27
 2091 018a 19       		.uleb128 0x19
 2092 018b 49       		.uleb128 0x49
 2093 018c 13       		.uleb128 0x13
 2094 018d 11       		.uleb128 0x11
 2095 018e 01       		.uleb128 0x1
 2096 018f 12       		.uleb128 0x12
 2097 0190 06       		.uleb128 0x6
 2098 0191 40       		.uleb128 0x40
 2099 0192 18       		.uleb128 0x18
 2100 0193 9742     		.uleb128 0x2117
 2101 0195 19       		.uleb128 0x19
 2102 0196 01       		.uleb128 0x1
ARM GAS  /tmp/ccIU2uub.s 			page 38


 2103 0197 13       		.uleb128 0x13
 2104 0198 00       		.byte	0
 2105 0199 00       		.byte	0
 2106 019a 1E       		.uleb128 0x1e
 2107 019b 34       		.uleb128 0x34
 2108 019c 00       		.byte	0
 2109 019d 03       		.uleb128 0x3
 2110 019e 08       		.uleb128 0x8
 2111 019f 3A       		.uleb128 0x3a
 2112 01a0 0B       		.uleb128 0xb
 2113 01a1 3B       		.uleb128 0x3b
 2114 01a2 05       		.uleb128 0x5
 2115 01a3 49       		.uleb128 0x49
 2116 01a4 13       		.uleb128 0x13
 2117 01a5 02       		.uleb128 0x2
 2118 01a6 18       		.uleb128 0x18
 2119 01a7 00       		.byte	0
 2120 01a8 00       		.byte	0
 2121 01a9 1F       		.uleb128 0x1f
 2122 01aa 898201   		.uleb128 0x4109
 2123 01ad 00       		.byte	0
 2124 01ae 11       		.uleb128 0x11
 2125 01af 01       		.uleb128 0x1
 2126 01b0 31       		.uleb128 0x31
 2127 01b1 13       		.uleb128 0x13
 2128 01b2 00       		.byte	0
 2129 01b3 00       		.byte	0
 2130 01b4 20       		.uleb128 0x20
 2131 01b5 34       		.uleb128 0x34
 2132 01b6 00       		.byte	0
 2133 01b7 03       		.uleb128 0x3
 2134 01b8 0E       		.uleb128 0xe
 2135 01b9 3A       		.uleb128 0x3a
 2136 01ba 0B       		.uleb128 0xb
 2137 01bb 3B       		.uleb128 0x3b
 2138 01bc 05       		.uleb128 0x5
 2139 01bd 49       		.uleb128 0x49
 2140 01be 13       		.uleb128 0x13
 2141 01bf 3F       		.uleb128 0x3f
 2142 01c0 19       		.uleb128 0x19
 2143 01c1 3C       		.uleb128 0x3c
 2144 01c2 19       		.uleb128 0x19
 2145 01c3 00       		.byte	0
 2146 01c4 00       		.byte	0
 2147 01c5 00       		.byte	0
 2148              		.section	.debug_loc,"",%progbits
 2149              	.Ldebug_loc0:
 2150              	.LLST0:
 2151 0000 00000000 		.4byte	.LVL0-.Ltext0
 2152 0004 16000000 		.4byte	.LVL1-.Ltext0
 2153 0008 0200     		.2byte	0x2
 2154 000a 30       		.byte	0x30
 2155 000b 9F       		.byte	0x9f
 2156 000c 16000000 		.4byte	.LVL1-.Ltext0
 2157 0010 56010000 		.4byte	.LVL30-.Ltext0
 2158 0014 0100     		.2byte	0x1
 2159 0016 53       		.byte	0x53
ARM GAS  /tmp/ccIU2uub.s 			page 39


 2160 0017 56010000 		.4byte	.LVL30-.Ltext0
 2161 001b 5E010000 		.4byte	.LVL32-.Ltext0
 2162 001f 0300     		.2byte	0x3
 2163 0021 73       		.byte	0x73
 2164 0022 7F       		.sleb128 -1
 2165 0023 9F       		.byte	0x9f
 2166 0024 5E010000 		.4byte	.LVL32-.Ltext0
 2167 0028 68020000 		.4byte	.LFE123-.Ltext0
 2168 002c 0100     		.2byte	0x1
 2169 002e 53       		.byte	0x53
 2170 002f 00000000 		.4byte	0
 2171 0033 00000000 		.4byte	0
 2172              	.LLST1:
 2173 0037 00000000 		.4byte	.LVL0-.Ltext0
 2174 003b 16000000 		.4byte	.LVL1-.Ltext0
 2175 003f 0200     		.2byte	0x2
 2176 0041 30       		.byte	0x30
 2177 0042 9F       		.byte	0x9f
 2178 0043 16000000 		.4byte	.LVL1-.Ltext0
 2179 0047 18000000 		.4byte	.LVL2-.Ltext0
 2180 004b 0500     		.2byte	0x5
 2181 004d 31       		.byte	0x31
 2182 004e 73       		.byte	0x73
 2183 004f 00       		.sleb128 0
 2184 0050 24       		.byte	0x24
 2185 0051 9F       		.byte	0x9f
 2186 0052 18000000 		.4byte	.LVL2-.Ltext0
 2187 0056 1E000000 		.4byte	.LVL3-.Ltext0
 2188 005a 0500     		.2byte	0x5
 2189 005c 31       		.byte	0x31
 2190 005d 73       		.byte	0x73
 2191 005e 7F       		.sleb128 -1
 2192 005f 24       		.byte	0x24
 2193 0060 9F       		.byte	0x9f
 2194 0061 22000000 		.4byte	.LVL4-.Ltext0
 2195 0065 3E000000 		.4byte	.LVL6-.Ltext0
 2196 0069 0100     		.2byte	0x1
 2197 006b 52       		.byte	0x52
 2198 006c 3E000000 		.4byte	.LVL6-.Ltext0
 2199 0070 56010000 		.4byte	.LVL30-.Ltext0
 2200 0074 0500     		.2byte	0x5
 2201 0076 31       		.byte	0x31
 2202 0077 73       		.byte	0x73
 2203 0078 00       		.sleb128 0
 2204 0079 24       		.byte	0x24
 2205 007a 9F       		.byte	0x9f
 2206 007b 56010000 		.4byte	.LVL30-.Ltext0
 2207 007f 66010000 		.4byte	.LVL33-.Ltext0
 2208 0083 0500     		.2byte	0x5
 2209 0085 31       		.byte	0x31
 2210 0086 73       		.byte	0x73
 2211 0087 7F       		.sleb128 -1
 2212 0088 24       		.byte	0x24
 2213 0089 9F       		.byte	0x9f
 2214 008a 6C010000 		.4byte	.LVL34-.Ltext0
 2215 008e 7C010000 		.4byte	.LVL35-.Ltext0
 2216 0092 0100     		.2byte	0x1
ARM GAS  /tmp/ccIU2uub.s 			page 40


 2217 0094 52       		.byte	0x52
 2218 0095 7C010000 		.4byte	.LVL35-.Ltext0
 2219 0099 F8010000 		.4byte	.LVL49-.Ltext0
 2220 009d 0500     		.2byte	0x5
 2221 009f 31       		.byte	0x31
 2222 00a0 73       		.byte	0x73
 2223 00a1 00       		.sleb128 0
 2224 00a2 24       		.byte	0x24
 2225 00a3 9F       		.byte	0x9f
 2226 00a4 F8010000 		.4byte	.LVL49-.Ltext0
 2227 00a8 FC010000 		.4byte	.LVL50-.Ltext0
 2228 00ac 0600     		.2byte	0x6
 2229 00ae 72       		.byte	0x72
 2230 00af 00       		.sleb128 0
 2231 00b0 73       		.byte	0x73
 2232 00b1 00       		.sleb128 0
 2233 00b2 24       		.byte	0x24
 2234 00b3 9F       		.byte	0x9f
 2235 00b4 FC010000 		.4byte	.LVL50-.Ltext0
 2236 00b8 68020000 		.4byte	.LFE123-.Ltext0
 2237 00bc 0500     		.2byte	0x5
 2238 00be 31       		.byte	0x31
 2239 00bf 73       		.byte	0x73
 2240 00c0 00       		.sleb128 0
 2241 00c1 24       		.byte	0x24
 2242 00c2 9F       		.byte	0x9f
 2243 00c3 00000000 		.4byte	0
 2244 00c7 00000000 		.4byte	0
 2245              	.LLST2:
 2246 00cb 00000000 		.4byte	.LVL0-.Ltext0
 2247 00cf 16000000 		.4byte	.LVL1-.Ltext0
 2248 00d3 0200     		.2byte	0x2
 2249 00d5 30       		.byte	0x30
 2250 00d6 9F       		.byte	0x9f
 2251 00d7 16000000 		.4byte	.LVL1-.Ltext0
 2252 00db 1E000000 		.4byte	.LVL3-.Ltext0
 2253 00df 0100     		.2byte	0x1
 2254 00e1 54       		.byte	0x54
 2255 00e2 26000000 		.4byte	.LVL5-.Ltext0
 2256 00e6 5C010000 		.4byte	.LVL31-.Ltext0
 2257 00ea 0100     		.2byte	0x1
 2258 00ec 54       		.byte	0x54
 2259 00ed 5C010000 		.4byte	.LVL31-.Ltext0
 2260 00f1 66010000 		.4byte	.LVL33-.Ltext0
 2261 00f5 0400     		.2byte	0x4
 2262 00f7 78       		.byte	0x78
 2263 00f8 00       		.sleb128 0
 2264 00f9 20       		.byte	0x20
 2265 00fa 9F       		.byte	0x9f
 2266 00fb 6C010000 		.4byte	.LVL34-.Ltext0
 2267 00ff 68020000 		.4byte	.LFE123-.Ltext0
 2268 0103 0100     		.2byte	0x1
 2269 0105 54       		.byte	0x54
 2270 0106 00000000 		.4byte	0
 2271 010a 00000000 		.4byte	0
 2272              	.LLST3:
 2273 010e 00000000 		.4byte	.LVL0-.Ltext0
ARM GAS  /tmp/ccIU2uub.s 			page 41


 2274 0112 16000000 		.4byte	.LVL1-.Ltext0
 2275 0116 0200     		.2byte	0x2
 2276 0118 30       		.byte	0x30
 2277 0119 9F       		.byte	0x9f
 2278 011a 42000000 		.4byte	.LVL7-.Ltext0
 2279 011e 5C000000 		.4byte	.LVL9-.Ltext0
 2280 0122 0100     		.2byte	0x1
 2281 0124 5B       		.byte	0x5b
 2282 0125 5C000000 		.4byte	.LVL9-.Ltext0
 2283 0129 74000000 		.4byte	.LVL11-.Ltext0
 2284 012d 0100     		.2byte	0x1
 2285 012f 58       		.byte	0x58
 2286 0130 74000000 		.4byte	.LVL11-.Ltext0
 2287 0134 7E000000 		.4byte	.LVL12-.Ltext0
 2288 0138 0100     		.2byte	0x1
 2289 013a 5A       		.byte	0x5a
 2290 013b 7E000000 		.4byte	.LVL12-.Ltext0
 2291 013f 82000000 		.4byte	.LVL13-.Ltext0
 2292 0143 0100     		.2byte	0x1
 2293 0145 52       		.byte	0x52
 2294 0146 82000000 		.4byte	.LVL13-.Ltext0
 2295 014a 90000000 		.4byte	.LVL14-.Ltext0
 2296 014e 0200     		.2byte	0x2
 2297 0150 70       		.byte	0x70
 2298 0151 0C       		.sleb128 12
 2299 0152 90000000 		.4byte	.LVL14-.Ltext0
 2300 0156 AA000000 		.4byte	.LVL15-.Ltext0
 2301 015a 0600     		.2byte	0x6
 2302 015c 7A       		.byte	0x7a
 2303 015d 00       		.sleb128 0
 2304 015e 78       		.byte	0x78
 2305 015f 00       		.sleb128 0
 2306 0160 21       		.byte	0x21
 2307 0161 9F       		.byte	0x9f
 2308 0162 B0000000 		.4byte	.LVL16-.Ltext0
 2309 0166 16010000 		.4byte	.LVL18-.Ltext0
 2310 016a 0100     		.2byte	0x1
 2311 016c 58       		.byte	0x58
 2312 016d 16010000 		.4byte	.LVL18-.Ltext0
 2313 0171 20010000 		.4byte	.LVL20-.Ltext0
 2314 0175 0100     		.2byte	0x1
 2315 0177 52       		.byte	0x52
 2316 0178 20010000 		.4byte	.LVL20-.Ltext0
 2317 017c 28010000 		.4byte	.LVL21-.Ltext0
 2318 0180 0600     		.2byte	0x6
 2319 0182 78       		.byte	0x78
 2320 0183 00       		.sleb128 0
 2321 0184 72       		.byte	0x72
 2322 0185 00       		.sleb128 0
 2323 0186 1A       		.byte	0x1a
 2324 0187 9F       		.byte	0x9f
 2325 0188 2C010000 		.4byte	.LVL22-.Ltext0
 2326 018c 30010000 		.4byte	.LVL23-.Ltext0
 2327 0190 0100     		.2byte	0x1
 2328 0192 52       		.byte	0x52
 2329 0193 30010000 		.4byte	.LVL23-.Ltext0
 2330 0197 38010000 		.4byte	.LVL24-.Ltext0
ARM GAS  /tmp/ccIU2uub.s 			page 42


 2331 019b 0600     		.2byte	0x6
 2332 019d 78       		.byte	0x78
 2333 019e 00       		.sleb128 0
 2334 019f 72       		.byte	0x72
 2335 01a0 00       		.sleb128 0
 2336 01a1 1A       		.byte	0x1a
 2337 01a2 9F       		.byte	0x9f
 2338 01a3 3C010000 		.4byte	.LVL25-.Ltext0
 2339 01a7 40010000 		.4byte	.LVL26-.Ltext0
 2340 01ab 0100     		.2byte	0x1
 2341 01ad 52       		.byte	0x52
 2342 01ae 40010000 		.4byte	.LVL26-.Ltext0
 2343 01b2 48010000 		.4byte	.LVL27-.Ltext0
 2344 01b6 0600     		.2byte	0x6
 2345 01b8 78       		.byte	0x78
 2346 01b9 00       		.sleb128 0
 2347 01ba 72       		.byte	0x72
 2348 01bb 00       		.sleb128 0
 2349 01bc 1A       		.byte	0x1a
 2350 01bd 9F       		.byte	0x9f
 2351 01be 4C010000 		.4byte	.LVL28-.Ltext0
 2352 01c2 50010000 		.4byte	.LVL29-.Ltext0
 2353 01c6 0100     		.2byte	0x1
 2354 01c8 52       		.byte	0x52
 2355 01c9 50010000 		.4byte	.LVL29-.Ltext0
 2356 01cd 5E010000 		.4byte	.LVL32-.Ltext0
 2357 01d1 0600     		.2byte	0x6
 2358 01d3 78       		.byte	0x78
 2359 01d4 00       		.sleb128 0
 2360 01d5 72       		.byte	0x72
 2361 01d6 00       		.sleb128 0
 2362 01d7 1A       		.byte	0x1a
 2363 01d8 9F       		.byte	0x9f
 2364 01d9 5E010000 		.4byte	.LVL32-.Ltext0
 2365 01dd 66010000 		.4byte	.LVL33-.Ltext0
 2366 01e1 0100     		.2byte	0x1
 2367 01e3 54       		.byte	0x54
 2368 01e4 7C010000 		.4byte	.LVL35-.Ltext0
 2369 01e8 8C010000 		.4byte	.LVL36-.Ltext0
 2370 01ec 0100     		.2byte	0x1
 2371 01ee 52       		.byte	0x52
 2372 01ef 8C010000 		.4byte	.LVL36-.Ltext0
 2373 01f3 96010000 		.4byte	.LVL37-.Ltext0
 2374 01f7 0100     		.2byte	0x1
 2375 01f9 5A       		.byte	0x5a
 2376 01fa 96010000 		.4byte	.LVL37-.Ltext0
 2377 01fe A0010000 		.4byte	.LVL38-.Ltext0
 2378 0202 0100     		.2byte	0x1
 2379 0204 52       		.byte	0x52
 2380 0205 A0010000 		.4byte	.LVL38-.Ltext0
 2381 0209 A4010000 		.4byte	.LVL39-.Ltext0
 2382 020d 0B00     		.2byte	0xb
 2383 020f 73       		.byte	0x73
 2384 0210 00       		.sleb128 0
 2385 0211 33       		.byte	0x33
 2386 0212 25       		.byte	0x25
 2387 0213 32       		.byte	0x32
ARM GAS  /tmp/ccIU2uub.s 			page 43


 2388 0214 24       		.byte	0x24
 2389 0215 70       		.byte	0x70
 2390 0216 00       		.sleb128 0
 2391 0217 22       		.byte	0x22
 2392 0218 23       		.byte	0x23
 2393 0219 20       		.uleb128 0x20
 2394 021a A4010000 		.4byte	.LVL39-.Ltext0
 2395 021e BA010000 		.4byte	.LVL41-.Ltext0
 2396 0222 0100     		.2byte	0x1
 2397 0224 5A       		.byte	0x5a
 2398 0225 BA010000 		.4byte	.LVL41-.Ltext0
 2399 0229 C0010000 		.4byte	.LVL42-.Ltext0
 2400 022d 0100     		.2byte	0x1
 2401 022f 58       		.byte	0x58
 2402 0230 C4010000 		.4byte	.LVL43-.Ltext0
 2403 0234 CA010000 		.4byte	.LVL44-.Ltext0
 2404 0238 0100     		.2byte	0x1
 2405 023a 58       		.byte	0x58
 2406 023b CA010000 		.4byte	.LVL44-.Ltext0
 2407 023f D4010000 		.4byte	.LVL45-.Ltext0
 2408 0243 0100     		.2byte	0x1
 2409 0245 5A       		.byte	0x5a
 2410 0246 D4010000 		.4byte	.LVL45-.Ltext0
 2411 024a DC010000 		.4byte	.LVL46-.Ltext0
 2412 024e 0100     		.2byte	0x1
 2413 0250 58       		.byte	0x58
 2414 0251 DC010000 		.4byte	.LVL46-.Ltext0
 2415 0255 EC010000 		.4byte	.LVL48-.Ltext0
 2416 0259 0100     		.2byte	0x1
 2417 025b 5A       		.byte	0x5a
 2418 025c EC010000 		.4byte	.LVL48-.Ltext0
 2419 0260 68020000 		.4byte	.LFE123-.Ltext0
 2420 0264 0100     		.2byte	0x1
 2421 0266 58       		.byte	0x58
 2422 0267 00000000 		.4byte	0
 2423 026b 00000000 		.4byte	0
 2424              	.LLST4:
 2425 026f 70020000 		.4byte	.LVL51-.Ltext0
 2426 0273 86020000 		.4byte	.LVL52-.Ltext0
 2427 0277 0100     		.2byte	0x1
 2428 0279 51       		.byte	0x51
 2429 027a 86020000 		.4byte	.LVL52-.Ltext0
 2430 027e D4030000 		.4byte	.LFE124-.Ltext0
 2431 0282 0100     		.2byte	0x1
 2432 0284 5B       		.byte	0x5b
 2433 0285 00000000 		.4byte	0
 2434 0289 00000000 		.4byte	0
 2435              	.LLST5:
 2436 028d 70020000 		.4byte	.LVL51-.Ltext0
 2437 0291 86020000 		.4byte	.LVL52-.Ltext0
 2438 0295 0200     		.2byte	0x2
 2439 0297 30       		.byte	0x30
 2440 0298 9F       		.byte	0x9f
 2441 0299 86020000 		.4byte	.LVL52-.Ltext0
 2442 029d D4030000 		.4byte	.LFE124-.Ltext0
 2443 02a1 0100     		.2byte	0x1
 2444 02a3 53       		.byte	0x53
ARM GAS  /tmp/ccIU2uub.s 			page 44


 2445 02a4 00000000 		.4byte	0
 2446 02a8 00000000 		.4byte	0
 2447              	.LLST6:
 2448 02ac 70020000 		.4byte	.LVL51-.Ltext0
 2449 02b0 86020000 		.4byte	.LVL52-.Ltext0
 2450 02b4 0200     		.2byte	0x2
 2451 02b6 30       		.byte	0x30
 2452 02b7 9F       		.byte	0x9f
 2453 02b8 86020000 		.4byte	.LVL52-.Ltext0
 2454 02bc 88020000 		.4byte	.LVL53-.Ltext0
 2455 02c0 0500     		.2byte	0x5
 2456 02c2 31       		.byte	0x31
 2457 02c3 73       		.byte	0x73
 2458 02c4 00       		.sleb128 0
 2459 02c5 24       		.byte	0x24
 2460 02c6 9F       		.byte	0x9f
 2461 02c7 88020000 		.4byte	.LVL53-.Ltext0
 2462 02cb 8C020000 		.4byte	.LVL54-.Ltext0
 2463 02cf 0500     		.2byte	0x5
 2464 02d1 31       		.byte	0x31
 2465 02d2 73       		.byte	0x73
 2466 02d3 7F       		.sleb128 -1
 2467 02d4 24       		.byte	0x24
 2468 02d5 9F       		.byte	0x9f
 2469 02d6 92020000 		.4byte	.LVL55-.Ltext0
 2470 02da A2020000 		.4byte	.LVL57-.Ltext0
 2471 02de 0100     		.2byte	0x1
 2472 02e0 51       		.byte	0x51
 2473 02e1 A2020000 		.4byte	.LVL57-.Ltext0
 2474 02e5 04030000 		.4byte	.LVL61-.Ltext0
 2475 02e9 0600     		.2byte	0x6
 2476 02eb 74       		.byte	0x74
 2477 02ec 00       		.sleb128 0
 2478 02ed 73       		.byte	0x73
 2479 02ee 00       		.sleb128 0
 2480 02ef 24       		.byte	0x24
 2481 02f0 9F       		.byte	0x9f
 2482 02f1 04030000 		.4byte	.LVL61-.Ltext0
 2483 02f5 66030000 		.4byte	.LVL64-.Ltext0
 2484 02f9 0500     		.2byte	0x5
 2485 02fb 31       		.byte	0x31
 2486 02fc 73       		.byte	0x73
 2487 02fd 00       		.sleb128 0
 2488 02fe 24       		.byte	0x24
 2489 02ff 9F       		.byte	0x9f
 2490 0300 66030000 		.4byte	.LVL64-.Ltext0
 2491 0304 70030000 		.4byte	.LVL66-.Ltext0
 2492 0308 0500     		.2byte	0x5
 2493 030a 31       		.byte	0x31
 2494 030b 73       		.byte	0x73
 2495 030c 7F       		.sleb128 -1
 2496 030d 24       		.byte	0x24
 2497 030e 9F       		.byte	0x9f
 2498 030f 74030000 		.4byte	.LVL67-.Ltext0
 2499 0313 7A030000 		.4byte	.LVL68-.Ltext0
 2500 0317 0500     		.2byte	0x5
 2501 0319 31       		.byte	0x31
ARM GAS  /tmp/ccIU2uub.s 			page 45


 2502 031a 73       		.byte	0x73
 2503 031b 00       		.sleb128 0
 2504 031c 24       		.byte	0x24
 2505 031d 9F       		.byte	0x9f
 2506 031e 7A030000 		.4byte	.LVL68-.Ltext0
 2507 0322 7C030000 		.4byte	.LVL69-.Ltext0
 2508 0326 0600     		.2byte	0x6
 2509 0328 74       		.byte	0x74
 2510 0329 00       		.sleb128 0
 2511 032a 73       		.byte	0x73
 2512 032b 00       		.sleb128 0
 2513 032c 24       		.byte	0x24
 2514 032d 9F       		.byte	0x9f
 2515 032e 7C030000 		.4byte	.LVL69-.Ltext0
 2516 0332 D4030000 		.4byte	.LFE124-.Ltext0
 2517 0336 0500     		.2byte	0x5
 2518 0338 31       		.byte	0x31
 2519 0339 73       		.byte	0x73
 2520 033a 00       		.sleb128 0
 2521 033b 24       		.byte	0x24
 2522 033c 9F       		.byte	0x9f
 2523 033d 00000000 		.4byte	0
 2524 0341 00000000 		.4byte	0
 2525              	.LLST7:
 2526 0345 70020000 		.4byte	.LVL51-.Ltext0
 2527 0349 86020000 		.4byte	.LVL52-.Ltext0
 2528 034d 0200     		.2byte	0x2
 2529 034f 30       		.byte	0x30
 2530 0350 9F       		.byte	0x9f
 2531 0351 86020000 		.4byte	.LVL52-.Ltext0
 2532 0355 88020000 		.4byte	.LVL53-.Ltext0
 2533 0359 0800     		.2byte	0x8
 2534 035b 31       		.byte	0x31
 2535 035c 73       		.byte	0x73
 2536 035d 00       		.sleb128 0
 2537 035e 24       		.byte	0x24
 2538 035f 7B       		.byte	0x7b
 2539 0360 00       		.sleb128 0
 2540 0361 1A       		.byte	0x1a
 2541 0362 9F       		.byte	0x9f
 2542 0363 88020000 		.4byte	.LVL53-.Ltext0
 2543 0367 8C020000 		.4byte	.LVL54-.Ltext0
 2544 036b 0800     		.2byte	0x8
 2545 036d 31       		.byte	0x31
 2546 036e 73       		.byte	0x73
 2547 036f 7F       		.sleb128 -1
 2548 0370 24       		.byte	0x24
 2549 0371 7B       		.byte	0x7b
 2550 0372 00       		.sleb128 0
 2551 0373 1A       		.byte	0x1a
 2552 0374 9F       		.byte	0x9f
 2553 0375 96020000 		.4byte	.LVL56-.Ltext0
 2554 0379 D6020000 		.4byte	.LVL58-.Ltext0
 2555 037d 0100     		.2byte	0x1
 2556 037f 52       		.byte	0x52
 2557 0380 D6020000 		.4byte	.LVL58-.Ltext0
 2558 0384 68030000 		.4byte	.LVL65-.Ltext0
ARM GAS  /tmp/ccIU2uub.s 			page 46


 2559 0388 0400     		.2byte	0x4
 2560 038a 72       		.byte	0x72
 2561 038b 00       		.sleb128 0
 2562 038c 20       		.byte	0x20
 2563 038d 9F       		.byte	0x9f
 2564 038e 68030000 		.4byte	.LVL65-.Ltext0
 2565 0392 70030000 		.4byte	.LVL66-.Ltext0
 2566 0396 0800     		.2byte	0x8
 2567 0398 31       		.byte	0x31
 2568 0399 73       		.byte	0x73
 2569 039a 7F       		.sleb128 -1
 2570 039b 24       		.byte	0x24
 2571 039c 7B       		.byte	0x7b
 2572 039d 00       		.sleb128 0
 2573 039e 1A       		.byte	0x1a
 2574 039f 9F       		.byte	0x9f
 2575 03a0 74030000 		.4byte	.LVL67-.Ltext0
 2576 03a4 D4030000 		.4byte	.LFE124-.Ltext0
 2577 03a8 0400     		.2byte	0x4
 2578 03aa 72       		.byte	0x72
 2579 03ab 00       		.sleb128 0
 2580 03ac 20       		.byte	0x20
 2581 03ad 9F       		.byte	0x9f
 2582 03ae 00000000 		.4byte	0
 2583 03b2 00000000 		.4byte	0
 2584              	.LLST8:
 2585 03b6 70020000 		.4byte	.LVL51-.Ltext0
 2586 03ba 86020000 		.4byte	.LVL52-.Ltext0
 2587 03be 0200     		.2byte	0x2
 2588 03c0 30       		.byte	0x30
 2589 03c1 9F       		.byte	0x9f
 2590 03c2 F2020000 		.4byte	.LVL59-.Ltext0
 2591 03c6 3A030000 		.4byte	.LVL62-.Ltext0
 2592 03ca 0100     		.2byte	0x1
 2593 03cc 56       		.byte	0x56
 2594 03cd 3A030000 		.4byte	.LVL62-.Ltext0
 2595 03d1 40030000 		.4byte	.LVL63-.Ltext0
 2596 03d5 0100     		.2byte	0x1
 2597 03d7 55       		.byte	0x55
 2598 03d8 40030000 		.4byte	.LVL63-.Ltext0
 2599 03dc 70030000 		.4byte	.LVL66-.Ltext0
 2600 03e0 0500     		.2byte	0x5
 2601 03e2 3F       		.byte	0x3f
 2602 03e3 77       		.byte	0x77
 2603 03e4 00       		.sleb128 0
 2604 03e5 24       		.byte	0x24
 2605 03e6 9F       		.byte	0x9f
 2606 03e7 74030000 		.4byte	.LVL67-.Ltext0
 2607 03eb D4030000 		.4byte	.LFE124-.Ltext0
 2608 03ef 0100     		.2byte	0x1
 2609 03f1 56       		.byte	0x56
 2610 03f2 00000000 		.4byte	0
 2611 03f6 00000000 		.4byte	0
 2612              	.LLST9:
 2613 03fa E0030000 		.4byte	.LVL70-.Ltext0
 2614 03fe E8030000 		.4byte	.LVL72-.Ltext0
 2615 0402 0100     		.2byte	0x1
ARM GAS  /tmp/ccIU2uub.s 			page 47


 2616 0404 50       		.byte	0x50
 2617 0405 E8030000 		.4byte	.LVL72-.Ltext0
 2618 0409 EC030000 		.4byte	.LFE125-.Ltext0
 2619 040d 0400     		.2byte	0x4
 2620 040f F3       		.byte	0xf3
 2621 0410 01       		.uleb128 0x1
 2622 0411 50       		.byte	0x50
 2623 0412 9F       		.byte	0x9f
 2624 0413 00000000 		.4byte	0
 2625 0417 00000000 		.4byte	0
 2626              	.LLST10:
 2627 041b F0030000 		.4byte	.LVL73-.Ltext0
 2628 041f F4030000 		.4byte	.LVL74-.Ltext0
 2629 0423 0100     		.2byte	0x1
 2630 0425 51       		.byte	0x51
 2631 0426 F4030000 		.4byte	.LVL74-.Ltext0
 2632 042a F8030000 		.4byte	.LFE126-.Ltext0
 2633 042e 0400     		.2byte	0x4
 2634 0430 F3       		.byte	0xf3
 2635 0431 01       		.uleb128 0x1
 2636 0432 51       		.byte	0x51
 2637 0433 9F       		.byte	0x9f
 2638 0434 00000000 		.4byte	0
 2639 0438 00000000 		.4byte	0
 2640              	.LLST11:
 2641 043c 00040000 		.4byte	.LVL75-.Ltext0
 2642 0440 04040000 		.4byte	.LVL76-.Ltext0
 2643 0444 0100     		.2byte	0x1
 2644 0446 51       		.byte	0x51
 2645 0447 04040000 		.4byte	.LVL76-.Ltext0
 2646 044b 08040000 		.4byte	.LFE127-.Ltext0
 2647 044f 0400     		.2byte	0x4
 2648 0451 F3       		.byte	0xf3
 2649 0452 01       		.uleb128 0x1
 2650 0453 51       		.byte	0x51
 2651 0454 9F       		.byte	0x9f
 2652 0455 00000000 		.4byte	0
 2653 0459 00000000 		.4byte	0
 2654              	.LLST12:
 2655 045d 10040000 		.4byte	.LVL77-.Ltext0
 2656 0461 2E040000 		.4byte	.LVL78-.Ltext0
 2657 0465 0100     		.2byte	0x1
 2658 0467 50       		.byte	0x50
 2659 0468 2E040000 		.4byte	.LVL78-.Ltext0
 2660 046c 3A040000 		.4byte	.LFE128-.Ltext0
 2661 0470 0400     		.2byte	0x4
 2662 0472 F3       		.byte	0xf3
 2663 0473 01       		.uleb128 0x1
 2664 0474 50       		.byte	0x50
 2665 0475 9F       		.byte	0x9f
 2666 0476 00000000 		.4byte	0
 2667 047a 00000000 		.4byte	0
 2668              	.LLST13:
 2669 047e 50040000 		.4byte	.LVL80-.Ltext0
 2670 0482 5F040000 		.4byte	.LVL81-1-.Ltext0
 2671 0486 0100     		.2byte	0x1
 2672 0488 50       		.byte	0x50
ARM GAS  /tmp/ccIU2uub.s 			page 48


 2673 0489 5F040000 		.4byte	.LVL81-1-.Ltext0
 2674 048d 68040000 		.4byte	.LFE129-.Ltext0
 2675 0491 0400     		.2byte	0x4
 2676 0493 F3       		.byte	0xf3
 2677 0494 01       		.uleb128 0x1
 2678 0495 50       		.byte	0x50
 2679 0496 9F       		.byte	0x9f
 2680 0497 00000000 		.4byte	0
 2681 049b 00000000 		.4byte	0
 2682              		.section	.debug_aranges,"",%progbits
 2683 0000 1C000000 		.4byte	0x1c
 2684 0004 0200     		.2byte	0x2
 2685 0006 00000000 		.4byte	.Ldebug_info0
 2686 000a 04       		.byte	0x4
 2687 000b 00       		.byte	0
 2688 000c 0000     		.2byte	0
 2689 000e 0000     		.2byte	0
 2690 0010 00000000 		.4byte	.Ltext0
 2691 0014 68040000 		.4byte	.Letext0-.Ltext0
 2692 0018 00000000 		.4byte	0
 2693 001c 00000000 		.4byte	0
 2694              		.section	.debug_ranges,"",%progbits
 2695              	.Ldebug_ranges0:
 2696 0000 08000000 		.4byte	.LBB2-.Ltext0
 2697 0004 0E000000 		.4byte	.LBE2-.Ltext0
 2698 0008 84000000 		.4byte	.LBB3-.Ltext0
 2699 000c A6000000 		.4byte	.LBE3-.Ltext0
 2700 0010 AA000000 		.4byte	.LBB4-.Ltext0
 2701 0014 AC000000 		.4byte	.LBE4-.Ltext0
 2702 0018 00000000 		.4byte	0
 2703 001c 00000000 		.4byte	0
 2704              		.section	.debug_line,"",%progbits
 2705              	.Ldebug_line0:
 2706 0000 DB030000 		.section	.debug_str,"MS",%progbits,1
 2706      02001302 
 2706      00000201 
 2706      FB0E0D00 
 2706      01010101 
 2707              	.LASF50:
 2708 0000 41484231 		.ascii	"AHB1LPENR\000"
 2708      4C50454E 
 2708      5200
 2709              	.LASF88:
 2710 000a 4750494F 		.ascii	"GPIO_Pin\000"
 2710      5F50696E 
 2710      00
 2711              	.LASF69:
 2712 0013 48414C5F 		.ascii	"HAL_TIMEOUT\000"
 2712      54494D45 
 2712      4F555400 
 2713              	.LASF86:
 2714 001f 48414C5F 		.ascii	"HAL_GPIO_Init\000"
 2714      4750494F 
 2714      5F496E69 
 2714      7400
 2715              	.LASF24:
 2716 002d 4F535045 		.ascii	"OSPEEDR\000"
ARM GAS  /tmp/ccIU2uub.s 			page 49


 2716      45445200 
 2717              	.LASF68:
 2718 0035 48414C5F 		.ascii	"HAL_BUSY\000"
 2718      42555359 
 2718      00
 2719              	.LASF44:
 2720 003e 41484232 		.ascii	"AHB2ENR\000"
 2720      454E5200 
 2721              	.LASF94:
 2722 0046 48414C5F 		.ascii	"HAL_GPIO_LockPin\000"
 2722      4750494F 
 2722      5F4C6F63 
 2722      6B50696E 
 2722      00
 2723              	.LASF85:
 2724 0057 746D7072 		.ascii	"tmpreg\000"
 2724      656700
 2725              	.LASF17:
 2726 005e 73697A65 		.ascii	"sizetype\000"
 2726      74797065 
 2726      00
 2727              	.LASF57:
 2728 0067 42444352 		.ascii	"BDCR\000"
 2728      00
 2729              	.LASF82:
 2730 006c 696F706F 		.ascii	"ioposition\000"
 2730      73697469 
 2730      6F6E00
 2731              	.LASF72:
 2732 0077 50756C6C 		.ascii	"Pull\000"
 2732      00
 2733              	.LASF60:
 2734 007c 504C4C49 		.ascii	"PLLI2SCFGR\000"
 2734      32534346 
 2734      475200
 2735              	.LASF99:
 2736 0087 2F686F6D 		.ascii	"/home/sbcu/Dropbox/pcb-layouts/axo-on-discovery-boa"
 2736      652F7362 
 2736      63752F44 
 2736      726F7062 
 2736      6F782F70 
 2737 00ba 72642F61 		.ascii	"rd/axoloti/firmware\000"
 2737      786F6C6F 
 2737      74692F66 
 2737      69726D77 
 2737      61726500 
 2738              	.LASF10:
 2739 00ce 6C6F6E67 		.ascii	"long long int\000"
 2739      206C6F6E 
 2739      6720696E 
 2739      7400
 2740              	.LASF8:
 2741 00dc 5F5F7569 		.ascii	"__uint32_t\000"
 2741      6E743332 
 2741      5F7400
 2742              	.LASF40:
 2743 00e7 41504231 		.ascii	"APB1RSTR\000"
ARM GAS  /tmp/ccIU2uub.s 			page 50


 2743      52535452 
 2743      00
 2744              	.LASF4:
 2745 00f0 5F5F7569 		.ascii	"__uint16_t\000"
 2745      6E743136 
 2745      5F7400
 2746              	.LASF59:
 2747 00fb 53534347 		.ascii	"SSCGR\000"
 2747      5200
 2748              	.LASF26:
 2749 0101 42535252 		.ascii	"BSRR\000"
 2749      00
 2750              	.LASF2:
 2751 0106 73686F72 		.ascii	"short int\000"
 2751      7420696E 
 2751      7400
 2752              	.LASF36:
 2753 0110 41484231 		.ascii	"AHB1RSTR\000"
 2753      52535452 
 2753      00
 2754              	.LASF66:
 2755 0119 48414C5F 		.ascii	"HAL_OK\000"
 2755      4F4B00
 2756              	.LASF52:
 2757 0120 41484233 		.ascii	"AHB3LPENR\000"
 2757      4C50454E 
 2757      5200
 2758              	.LASF80:
 2759 012a 4750494F 		.ascii	"GPIO_Init\000"
 2759      5F496E69 
 2759      7400
 2760              	.LASF29:
 2761 0134 4D454D52 		.ascii	"MEMRMP\000"
 2761      4D5000
 2762              	.LASF13:
 2763 013b 75696E74 		.ascii	"uint8_t\000"
 2763      385F7400 
 2764              	.LASF30:
 2765 0143 45585449 		.ascii	"EXTICR\000"
 2765      435200
 2766              	.LASF47:
 2767 014a 41504231 		.ascii	"APB1ENR\000"
 2767      454E5200 
 2768              	.LASF92:
 2769 0152 48414C5F 		.ascii	"HAL_GPIO_TogglePin\000"
 2769      4750494F 
 2769      5F546F67 
 2769      676C6550 
 2769      696E00
 2770              	.LASF23:
 2771 0165 4F545950 		.ascii	"OTYPER\000"
 2771      455200
 2772              	.LASF62:
 2773 016c 44434B43 		.ascii	"DCKCFGR\000"
 2773      46475200 
 2774              	.LASF45:
 2775 0174 41484233 		.ascii	"AHB3ENR\000"
ARM GAS  /tmp/ccIU2uub.s 			page 51


 2775      454E5200 
 2776              	.LASF84:
 2777 017c 74656D70 		.ascii	"temp\000"
 2777      00
 2778              	.LASF77:
 2779 0181 4750494F 		.ascii	"GPIO_PIN_SET\000"
 2779      5F50494E 
 2779      5F534554 
 2779      00
 2780              	.LASF11:
 2781 018e 6C6F6E67 		.ascii	"long long unsigned int\000"
 2781      206C6F6E 
 2781      6720756E 
 2781      7369676E 
 2781      65642069 
 2782              	.LASF25:
 2783 01a5 50555044 		.ascii	"PUPDR\000"
 2783      5200
 2784              	.LASF21:
 2785 01ab 45585449 		.ascii	"EXTI_TypeDef\000"
 2785      5F547970 
 2785      65446566 
 2785      00
 2786              	.LASF7:
 2787 01b8 6C6F6E67 		.ascii	"long int\000"
 2787      20696E74 
 2787      00
 2788              	.LASF63:
 2789 01c1 5243435F 		.ascii	"RCC_TypeDef\000"
 2789      54797065 
 2789      44656600 
 2790              	.LASF93:
 2791 01cd 48414C5F 		.ascii	"HAL_GPIO_ReadPin\000"
 2791      4750494F 
 2791      5F526561 
 2791      6450696E 
 2791      00
 2792              	.LASF22:
 2793 01de 4D4F4445 		.ascii	"MODER\000"
 2793      5200
 2794              	.LASF41:
 2795 01e4 41504232 		.ascii	"APB2RSTR\000"
 2795      52535452 
 2795      00
 2796              	.LASF3:
 2797 01ed 5F5F7569 		.ascii	"__uint8_t\000"
 2797      6E74385F 
 2797      7400
 2798              	.LASF70:
 2799 01f7 48414C5F 		.ascii	"HAL_StatusTypeDef\000"
 2799      53746174 
 2799      75735479 
 2799      70654465 
 2799      6600
 2800              	.LASF32:
 2801 0209 434D5043 		.ascii	"CMPCR\000"
 2801      5200
ARM GAS  /tmp/ccIU2uub.s 			page 52


 2802              	.LASF89:
 2803 020f 62697473 		.ascii	"bitstatus\000"
 2803      74617475 
 2803      7300
 2804              	.LASF97:
 2805 0219 474E5520 		.ascii	"GNU C 4.9.3 20150529 (release) [ARM/embedded-4_9-br"
 2805      4320342E 
 2805      392E3320 
 2805      32303135 
 2805      30353239 
 2806 024c 616E6368 		.ascii	"anch revision 224288] -mcpu=cortex-m4 -mfloat-abi=h"
 2806      20726576 
 2806      6973696F 
 2806      6E203232 
 2806      34323838 
 2807 027f 61726420 		.ascii	"ard -mfpu=fpv4-sp-d16 -mno-thumb-interwork -mthumb "
 2807      2D6D6670 
 2807      753D6670 
 2807      76342D73 
 2807      702D6431 
 2808 02b2 2D676764 		.ascii	"-ggdb -O2 -fomit-frame-pointer -falign-functions=16"
 2808      62202D4F 
 2808      32202D66 
 2808      6F6D6974 
 2808      2D667261 
 2809 02e5 202D666E 		.ascii	" -fno-math-errno -fsingle-precision-constant\000"
 2809      6F2D6D61 
 2809      74682D65 
 2809      72726E6F 
 2809      202D6673 
 2810              	.LASF76:
 2811 0312 4750494F 		.ascii	"GPIO_PIN_RESET\000"
 2811      5F50494E 
 2811      5F524553 
 2811      455400
 2812              	.LASF67:
 2813 0321 48414C5F 		.ascii	"HAL_ERROR\000"
 2813      4552524F 
 2813      5200
 2814              	.LASF90:
 2815 032b 48414C5F 		.ascii	"HAL_GPIO_WritePin\000"
 2815      4750494F 
 2815      5F577269 
 2815      74655069 
 2815      6E00
 2816              	.LASF1:
 2817 033d 756E7369 		.ascii	"unsigned char\000"
 2817      676E6564 
 2817      20636861 
 2817      7200
 2818              	.LASF48:
 2819 034b 41504232 		.ascii	"APB2ENR\000"
 2819      454E5200 
 2820              	.LASF0:
 2821 0353 7369676E 		.ascii	"signed char\000"
 2821      65642063 
 2821      68617200 
ARM GAS  /tmp/ccIU2uub.s 			page 53


 2822              	.LASF95:
 2823 035f 48414C5F 		.ascii	"HAL_GPIO_EXTI_Callback\000"
 2823      4750494F 
 2823      5F455854 
 2823      495F4361 
 2823      6C6C6261 
 2824              	.LASF16:
 2825 0376 75696E74 		.ascii	"uint32_t\000"
 2825      33325F74 
 2825      00
 2826              	.LASF75:
 2827 037f 4750494F 		.ascii	"GPIO_InitTypeDef\000"
 2827      5F496E69 
 2827      74547970 
 2827      65446566 
 2827      00
 2828              	.LASF12:
 2829 0390 756E7369 		.ascii	"unsigned int\000"
 2829      676E6564 
 2829      20696E74 
 2829      00
 2830              	.LASF37:
 2831 039d 41484232 		.ascii	"AHB2RSTR\000"
 2831      52535452 
 2831      00
 2832              	.LASF9:
 2833 03a6 6C6F6E67 		.ascii	"long unsigned int\000"
 2833      20756E73 
 2833      69676E65 
 2833      6420696E 
 2833      7400
 2834              	.LASF19:
 2835 03b8 46545352 		.ascii	"FTSR\000"
 2835      00
 2836              	.LASF35:
 2837 03bd 43464752 		.ascii	"CFGR\000"
 2837      00
 2838              	.LASF96:
 2839 03c2 48414C5F 		.ascii	"HAL_GPIO_EXTI_IRQHandler\000"
 2839      4750494F 
 2839      5F455854 
 2839      495F4952 
 2839      5148616E 
 2840              	.LASF34:
 2841 03db 504C4C43 		.ascii	"PLLCFGR\000"
 2841      46475200 
 2842              	.LASF98:
 2843 03e3 2E2F5354 		.ascii	"./STM32F4xx_HAL_Driver/Src/stm32f4xx_hal_gpio.c\000"
 2843      4D333246 
 2843      3478785F 
 2843      48414C5F 
 2843      44726976 
 2844              	.LASF83:
 2845 0413 696F6375 		.ascii	"iocurrent\000"
 2845      7272656E 
 2845      7400
 2846              	.LASF54:
ARM GAS  /tmp/ccIU2uub.s 			page 54


 2847 041d 41504231 		.ascii	"APB1LPENR\000"
 2847      4C50454E 
 2847      5200
 2848              	.LASF33:
 2849 0427 53595343 		.ascii	"SYSCFG_TypeDef\000"
 2849      46475F54 
 2849      79706544 
 2849      656600
 2850              	.LASF65:
 2851 0436 63686172 		.ascii	"char\000"
 2851      00
 2852              	.LASF14:
 2853 043b 75696E74 		.ascii	"uint16_t\000"
 2853      31365F74 
 2853      00
 2854              	.LASF15:
 2855 0444 696E7433 		.ascii	"int32_t\000"
 2855      325F7400 
 2856              	.LASF5:
 2857 044c 73686F72 		.ascii	"short unsigned int\000"
 2857      7420756E 
 2857      7369676E 
 2857      65642069 
 2857      6E7400
 2858              	.LASF18:
 2859 045f 52545352 		.ascii	"RTSR\000"
 2859      00
 2860              	.LASF91:
 2861 0464 50696E53 		.ascii	"PinState\000"
 2861      74617465 
 2861      00
 2862              	.LASF51:
 2863 046d 41484232 		.ascii	"AHB2LPENR\000"
 2863      4C50454E 
 2863      5200
 2864              	.LASF39:
 2865 0477 52455345 		.ascii	"RESERVED0\000"
 2865      52564544 
 2865      3000
 2866              	.LASF42:
 2867 0481 52455345 		.ascii	"RESERVED1\000"
 2867      52564544 
 2867      3100
 2868              	.LASF46:
 2869 048b 52455345 		.ascii	"RESERVED2\000"
 2869      52564544 
 2869      3200
 2870              	.LASF49:
 2871 0495 52455345 		.ascii	"RESERVED3\000"
 2871      52564544 
 2871      3300
 2872              	.LASF53:
 2873 049f 52455345 		.ascii	"RESERVED4\000"
 2873      52564544 
 2873      3400
 2874              	.LASF56:
 2875 04a9 52455345 		.ascii	"RESERVED5\000"
ARM GAS  /tmp/ccIU2uub.s 			page 55


 2875      52564544 
 2875      3500
 2876              	.LASF58:
 2877 04b3 52455345 		.ascii	"RESERVED6\000"
 2877      52564544 
 2877      3600
 2878              	.LASF79:
 2879 04bd 4750494F 		.ascii	"GPIOx\000"
 2879      7800
 2880              	.LASF43:
 2881 04c3 41484231 		.ascii	"AHB1ENR\000"
 2881      454E5200 
 2882              	.LASF6:
 2883 04cb 5F5F696E 		.ascii	"__int32_t\000"
 2883      7433325F 
 2883      7400
 2884              	.LASF64:
 2885 04d5 52455345 		.ascii	"RESET\000"
 2885      5400
 2886              	.LASF73:
 2887 04db 53706565 		.ascii	"Speed\000"
 2887      6400
 2888              	.LASF71:
 2889 04e1 4D6F6465 		.ascii	"Mode\000"
 2889      00
 2890              	.LASF28:
 2891 04e6 4750494F 		.ascii	"GPIO_TypeDef\000"
 2891      5F547970 
 2891      65446566 
 2891      00
 2892              	.LASF81:
 2893 04f3 706F7369 		.ascii	"position\000"
 2893      74696F6E 
 2893      00
 2894              	.LASF31:
 2895 04fc 52455345 		.ascii	"RESERVED\000"
 2895      52564544 
 2895      00
 2896              	.LASF87:
 2897 0505 48414C5F 		.ascii	"HAL_GPIO_DeInit\000"
 2897      4750494F 
 2897      5F446549 
 2897      6E697400 
 2898              	.LASF100:
 2899 0515 49544D5F 		.ascii	"ITM_RxBuffer\000"
 2899      52784275 
 2899      66666572 
 2899      00
 2900              	.LASF74:
 2901 0522 416C7465 		.ascii	"Alternate\000"
 2901      726E6174 
 2901      6500
 2902              	.LASF78:
 2903 052c 4750494F 		.ascii	"GPIO_PinState\000"
 2903      5F50696E 
 2903      53746174 
 2903      6500
ARM GAS  /tmp/ccIU2uub.s 			page 56


 2904              	.LASF61:
 2905 053a 504C4C53 		.ascii	"PLLSAICFGR\000"
 2905      41494346 
 2905      475200
 2906              	.LASF27:
 2907 0545 4C434B52 		.ascii	"LCKR\000"
 2907      00
 2908              	.LASF55:
 2909 054a 41504232 		.ascii	"APB2LPENR\000"
 2909      4C50454E 
 2909      5200
 2910              	.LASF38:
 2911 0554 41484233 		.ascii	"AHB3RSTR\000"
 2911      52535452 
 2911      00
 2912              	.LASF20:
 2913 055d 53574945 		.ascii	"SWIER\000"
 2913      5200
 2914              		.ident	"GCC: (GNU Tools for ARM Embedded Processors) 4.9.3 20150529 (release) [ARM/embedded-4_9-br
ARM GAS  /tmp/ccIU2uub.s 			page 57


DEFINED SYMBOLS
                            *ABS*:00000000 stm32f4xx_hal_gpio.c
     /tmp/ccIU2uub.s:20     .text:00000000 $t
     /tmp/ccIU2uub.s:26     .text:00000000 HAL_GPIO_Init
     /tmp/ccIU2uub.s:404    .text:00000238 $d
     /tmp/ccIU2uub.s:419    .text:00000268 $t
     /tmp/ccIU2uub.s:425    .text:00000270 HAL_GPIO_DeInit
     /tmp/ccIU2uub.s:644    .text:000003a8 $d
     /tmp/ccIU2uub.s:658    .text:000003d4 $t
     /tmp/ccIU2uub.s:664    .text:000003e0 HAL_GPIO_ReadPin
     /tmp/ccIU2uub.s:691    .text:000003f0 HAL_GPIO_WritePin
     /tmp/ccIU2uub.s:716    .text:00000400 HAL_GPIO_TogglePin
     /tmp/ccIU2uub.s:739    .text:00000410 HAL_GPIO_LockPin
     /tmp/ccIU2uub.s:786    .text:00000440 HAL_GPIO_EXTI_Callback
     /tmp/ccIU2uub.s:804    .text:00000450 HAL_GPIO_EXTI_IRQHandler
     /tmp/ccIU2uub.s:832    .text:00000464 $d
                     .debug_frame:00000010 $d

NO UNDEFINED SYMBOLS
