ARM GAS  /tmp/cclsZlw8.s 			page 1


   1              		.syntax unified
   2              		.cpu cortex-m4
   3              		.eabi_attribute 27, 1
   4              		.eabi_attribute 28, 1
   5              		.fpu fpv4-sp-d16
   6              		.eabi_attribute 20, 1
   7              		.eabi_attribute 21, 1
   8              		.eabi_attribute 23, 3
   9              		.eabi_attribute 24, 1
  10              		.eabi_attribute 25, 1
  11              		.eabi_attribute 26, 1
  12              		.eabi_attribute 30, 2
  13              		.eabi_attribute 34, 1
  14              		.eabi_attribute 18, 4
  15              		.thumb
  16              		.file	"stm32f4xx_ll_usb.c"
  17              		.text
  18              	.Ltext0:
  19              		.cfi_sections	.debug_frame
  20              		.align	2
  21              		.p2align 4,,15
  22              		.thumb
  23              		.thumb_func
  24              		.type	USB_CoreReset, %function
  25              	USB_CoreReset:
  26              	.LFB155:
  27              		.file 1 "./STM32F4xx_HAL_Driver/Src/stm32f4xx_ll_usb.c"
  28              		.loc 1 1093 0
  29              		.cfi_startproc
  30              		@ args = 0, pretend = 0, frame = 0
  31              		@ frame_needed = 0, uses_anonymous_args = 0
  32              		@ link register save eliminated.
  33              	.LVL0:
  34              		.loc 1 1093 0
  35 0000 0B4B     		ldr	r3, .L14
  36 0002 01E0     		b	.L2
  37              	.LVL1:
  38              	.L4:
  39              		.loc 1 1099 0
  40 0004 013B     		subs	r3, r3, #1
  41              	.LVL2:
  42 0006 10D0     		beq	.L6
  43              	.LVL3:
  44              	.L2:
  45              		.loc 1 1104 0
  46 0008 0269     		ldr	r2, [r0, #16]
  47 000a 002A     		cmp	r2, #0
  48 000c FADA     		bge	.L4
  49              	.LVL4:
  50              		.loc 1 1108 0
  51 000e 0369     		ldr	r3, [r0, #16]
  52 0010 074A     		ldr	r2, .L14
  53 0012 43F00103 		orr	r3, r3, #1
  54 0016 0361     		str	r3, [r0, #16]
  55              	.LVL5:
  56 0018 01E0     		b	.L5
  57              	.LVL6:
ARM GAS  /tmp/cclsZlw8.s 			page 2


  58              	.L7:
  59              	.LBB36:
  60              	.LBB37:
  61              		.loc 1 1112 0
  62 001a 013A     		subs	r2, r2, #1
  63              	.LVL7:
  64 001c 05D0     		beq	.L6
  65              	.LVL8:
  66              	.L5:
  67              		.loc 1 1117 0
  68 001e 0369     		ldr	r3, [r0, #16]
  69 0020 13F00103 		ands	r3, r3, #1
  70 0024 F9D1     		bne	.L7
  71              		.loc 1 1119 0
  72 0026 1846     		mov	r0, r3
  73              	.LVL9:
  74              	.LBE37:
  75              	.LBE36:
  76              		.loc 1 1120 0
  77 0028 7047     		bx	lr
  78              	.LVL10:
  79              	.L6:
  80              		.loc 1 1101 0
  81 002a 0320     		movs	r0, #3
  82              	.LVL11:
  83 002c 7047     		bx	lr
  84              	.L15:
  85 002e 00BF     		.align	2
  86              	.L14:
  87 0030 400D0300 		.word	200000
  88              		.cfi_endproc
  89              	.LFE155:
  90              		.size	USB_CoreReset, .-USB_CoreReset
  91              		.align	2
  92 0034 AFF30080 		.p2align 4,,15
  92      AFF30080 
  92      AFF30080 
  93              		.thumb
  94              		.thumb_func
  95              		.type	USB_WritePacket.part.1, %function
  96              	USB_WritePacket.part.1:
  97              	.LFB169:
  98              		.loc 1 775 0
  99              		.cfi_startproc
 100              		@ args = 0, pretend = 0, frame = 0
 101              		@ frame_needed = 0, uses_anonymous_args = 0
 102              		@ link register save eliminated.
 103              	.LVL12:
 104              		.loc 1 781 0
 105 0040 0333     		adds	r3, r3, #3
 106              	.LVL13:
 107              		.loc 1 782 0
 108 0042 9B10     		asrs	r3, r3, #2
 109              	.LVL14:
 110 0044 0ED0     		beq	.L23
 111 0046 00F58050 		add	r0, r0, #4096
 112              	.LVL15:
ARM GAS  /tmp/cclsZlw8.s 			page 3


 113              		.loc 1 775 0
 114 004a 30B4     		push	{r4, r5}
 115              		.cfi_def_cfa_offset 8
 116              		.cfi_offset 4, -8
 117              		.cfi_offset 5, -4
 118 004c 00EB0232 		add	r2, r0, r2, lsl #12
 119              	.LVL16:
 120              		.loc 1 782 0
 121 0050 0024     		movs	r4, #0
 122              	.LVL17:
 123              	.L18:
 124 0052 0134     		adds	r4, r4, #1
 125              	.LVL18:
 126              		.loc 1 784 0
 127 0054 51F8045B 		ldr	r5, [r1], #4
 128              	.LVL19:
 129 0058 1560     		str	r5, [r2]
 130              		.loc 1 782 0
 131 005a A342     		cmp	r3, r4
 132 005c F9D1     		bne	.L18
 133              		.loc 1 788 0
 134 005e 0020     		movs	r0, #0
 135              	.LVL20:
 136 0060 30BC     		pop	{r4, r5}
 137              		.cfi_restore 5
 138              		.cfi_restore 4
 139              		.cfi_def_cfa_offset 0
 140              	.LVL21:
 141 0062 7047     		bx	lr
 142              	.LVL22:
 143              	.L23:
 144 0064 0020     		movs	r0, #0
 145              	.LVL23:
 146 0066 7047     		bx	lr
 147              		.cfi_endproc
 148              	.LFE169:
 149              		.size	USB_WritePacket.part.1, .-USB_WritePacket.part.1
 150              		.align	2
 151 0068 AFF30080 		.p2align 4,,15
 151      AFF30080 
 152              		.global	USB_CoreInit
 153              		.thumb
 154              		.thumb_func
 155              		.type	USB_CoreInit, %function
 156              	USB_CoreInit:
 157              	.LFB123:
 158              		.loc 1 100 0
 159              		.cfi_startproc
 160              		@ args = 52, pretend = 16, frame = 0
 161              		@ frame_needed = 0, uses_anonymous_args = 0
 162              	.LVL24:
 163 0070 84B0     		sub	sp, sp, #16
 164              		.cfi_def_cfa_offset 16
 165 0072 38B5     		push	{r3, r4, r5, lr}
 166              		.cfi_def_cfa_offset 32
 167              		.cfi_offset 3, -32
 168              		.cfi_offset 4, -28
ARM GAS  /tmp/cclsZlw8.s 			page 4


 169              		.cfi_offset 5, -24
 170              		.cfi_offset 14, -20
 171              		.loc 1 101 0
 172 0074 0A9D     		ldr	r5, [sp, #40]
 173              		.loc 1 100 0
 174 0076 05AC     		add	r4, sp, #20
 175              		.loc 1 101 0
 176 0078 012D     		cmp	r5, #1
 177              		.loc 1 100 0
 178 007a 84E80E00 		stmia	r4, {r1, r2, r3}
 179 007e 0446     		mov	r4, r0
 180              		.loc 1 101 0
 181 0080 18D0     		beq	.L30
 182              		.loc 1 122 0
 183 0082 C368     		ldr	r3, [r0, #12]
 184 0084 43F04003 		orr	r3, r3, #64
 185 0088 C360     		str	r3, [r0, #12]
 186              		.loc 1 125 0
 187 008a FFF7B9FF 		bl	USB_CoreReset
 188              	.LVL25:
 189              		.loc 1 128 0
 190 008e 4FF48033 		mov	r3, #65536
 191 0092 A363     		str	r3, [r4, #56]
 192              	.L27:
 193              		.loc 1 131 0
 194 0094 089B     		ldr	r3, [sp, #32]
 195 0096 012B     		cmp	r3, #1
 196 0098 07D1     		bne	.L28
 197              		.loc 1 133 0
 198 009a A368     		ldr	r3, [r4, #8]
 199 009c 43F00C03 		orr	r3, r3, #12
 200 00a0 A360     		str	r3, [r4, #8]
 201              		.loc 1 134 0
 202 00a2 A368     		ldr	r3, [r4, #8]
 203 00a4 43F02003 		orr	r3, r3, #32
 204 00a8 A360     		str	r3, [r4, #8]
 205              	.L28:
 206              		.loc 1 138 0
 207 00aa BDE83840 		pop	{r3, r4, r5, lr}
 208              		.cfi_remember_state
 209              		.cfi_restore 14
 210              		.cfi_restore 5
 211              		.cfi_restore 4
 212              		.cfi_restore 3
 213              		.cfi_def_cfa_offset 16
 214              	.LVL26:
 215 00ae 0020     		movs	r0, #0
 216 00b0 04B0     		add	sp, sp, #16
 217              		.cfi_def_cfa_offset 0
 218 00b2 7047     		bx	lr
 219              	.LVL27:
 220              	.L30:
 221              		.cfi_restore_state
 222              		.loc 1 104 0
 223 00b4 836B     		ldr	r3, [r0, #56]
 224              		.loc 1 111 0
 225 00b6 109A     		ldr	r2, [sp, #64]
ARM GAS  /tmp/cclsZlw8.s 			page 5


 226              		.loc 1 104 0
 227 00b8 23F48033 		bic	r3, r3, #65536
 228 00bc 8363     		str	r3, [r0, #56]
 229              		.loc 1 107 0
 230 00be C368     		ldr	r3, [r0, #12]
 231 00c0 23F48403 		bic	r3, r3, #4325376
 232 00c4 23F04003 		bic	r3, r3, #64
 233 00c8 C360     		str	r3, [r0, #12]
 234              		.loc 1 110 0
 235 00ca C368     		ldr	r3, [r0, #12]
 236              		.loc 1 111 0
 237 00cc 012A     		cmp	r2, #1
 238              		.loc 1 110 0
 239 00ce 23F44013 		bic	r3, r3, #3145728
 240 00d2 C360     		str	r3, [r0, #12]
 241              		.loc 1 111 0
 242 00d4 03D0     		beq	.L31
 243              	.L26:
 244              		.loc 1 116 0
 245 00d6 2046     		mov	r0, r4
 246              	.LVL28:
 247 00d8 FFF792FF 		bl	USB_CoreReset
 248              	.LVL29:
 249 00dc DAE7     		b	.L27
 250              	.LVL30:
 251              	.L31:
 252              		.loc 1 113 0
 253 00de C368     		ldr	r3, [r0, #12]
 254 00e0 43F48013 		orr	r3, r3, #1048576
 255 00e4 C360     		str	r3, [r0, #12]
 256 00e6 F6E7     		b	.L26
 257              		.cfi_endproc
 258              	.LFE123:
 259              		.size	USB_CoreInit, .-USB_CoreInit
 260              		.align	2
 261 00e8 AFF30080 		.p2align 4,,15
 261      AFF30080 
 262              		.global	USB_EnableGlobalInt
 263              		.thumb
 264              		.thumb_func
 265              		.type	USB_EnableGlobalInt, %function
 266              	USB_EnableGlobalInt:
 267              	.LFB124:
 268              		.loc 1 147 0
 269              		.cfi_startproc
 270              		@ args = 0, pretend = 0, frame = 0
 271              		@ frame_needed = 0, uses_anonymous_args = 0
 272              		@ link register save eliminated.
 273              	.LVL31:
 274              		.loc 1 147 0
 275 00f0 0246     		mov	r2, r0
 276              		.loc 1 150 0
 277 00f2 0020     		movs	r0, #0
 278              	.LVL32:
 279              		.loc 1 148 0
 280 00f4 9368     		ldr	r3, [r2, #8]
 281 00f6 43F00103 		orr	r3, r3, #1
ARM GAS  /tmp/cclsZlw8.s 			page 6


 282 00fa 9360     		str	r3, [r2, #8]
 283              		.loc 1 150 0
 284 00fc 7047     		bx	lr
 285              		.cfi_endproc
 286              	.LFE124:
 287              		.size	USB_EnableGlobalInt, .-USB_EnableGlobalInt
 288 00fe 00BF     		.align	2
 289              		.p2align 4,,15
 290              		.global	USB_DisableGlobalInt
 291              		.thumb
 292              		.thumb_func
 293              		.type	USB_DisableGlobalInt, %function
 294              	USB_DisableGlobalInt:
 295              	.LFB125:
 296              		.loc 1 160 0
 297              		.cfi_startproc
 298              		@ args = 0, pretend = 0, frame = 0
 299              		@ frame_needed = 0, uses_anonymous_args = 0
 300              		@ link register save eliminated.
 301              	.LVL33:
 302              		.loc 1 160 0
 303 0100 0246     		mov	r2, r0
 304              		.loc 1 163 0
 305 0102 0020     		movs	r0, #0
 306              	.LVL34:
 307              		.loc 1 161 0
 308 0104 9368     		ldr	r3, [r2, #8]
 309 0106 23F00103 		bic	r3, r3, #1
 310 010a 9360     		str	r3, [r2, #8]
 311              		.loc 1 163 0
 312 010c 7047     		bx	lr
 313              		.cfi_endproc
 314              	.LFE125:
 315              		.size	USB_DisableGlobalInt, .-USB_DisableGlobalInt
 316 010e 00BF     		.align	2
 317              		.p2align 4,,15
 318              		.global	USB_SetCurrentMode
 319              		.thumb
 320              		.thumb_func
 321              		.type	USB_SetCurrentMode, %function
 322              	USB_SetCurrentMode:
 323              	.LFB126:
 324              		.loc 1 176 0
 325              		.cfi_startproc
 326              		@ args = 0, pretend = 0, frame = 0
 327              		@ frame_needed = 0, uses_anonymous_args = 0
 328              	.LVL35:
 329 0110 08B5     		push	{r3, lr}
 330              		.cfi_def_cfa_offset 8
 331              		.cfi_offset 3, -8
 332              		.cfi_offset 14, -4
 333              		.loc 1 177 0
 334 0112 C368     		ldr	r3, [r0, #12]
 335              		.loc 1 179 0
 336 0114 0129     		cmp	r1, #1
 337              		.loc 1 177 0
 338 0116 23F0C043 		bic	r3, r3, #1610612736
ARM GAS  /tmp/cclsZlw8.s 			page 7


 339 011a C360     		str	r3, [r0, #12]
 340              		.loc 1 179 0
 341 011c 09D0     		beq	.L38
 342              		.loc 1 183 0
 343 011e 19B9     		cbnz	r1, .L36
 344              		.loc 1 185 0
 345 0120 C368     		ldr	r3, [r0, #12]
 346 0122 43F08043 		orr	r3, r3, #1073741824
 347 0126 C360     		str	r3, [r0, #12]
 348              	.L36:
 349              		.loc 1 187 0
 350 0128 3220     		movs	r0, #50
 351              	.LVL36:
 352 012a FFF7FEFF 		bl	HAL_Delay
 353              	.LVL37:
 354              		.loc 1 190 0
 355 012e 0020     		movs	r0, #0
 356 0130 08BD     		pop	{r3, pc}
 357              	.LVL38:
 358              	.L38:
 359              		.loc 1 181 0
 360 0132 C368     		ldr	r3, [r0, #12]
 361 0134 43F00053 		orr	r3, r3, #536870912
 362 0138 C360     		str	r3, [r0, #12]
 363              		.loc 1 187 0
 364 013a 3220     		movs	r0, #50
 365              	.LVL39:
 366 013c FFF7FEFF 		bl	HAL_Delay
 367              	.LVL40:
 368              		.loc 1 190 0
 369 0140 0020     		movs	r0, #0
 370 0142 08BD     		pop	{r3, pc}
 371              		.cfi_endproc
 372              	.LFE126:
 373              		.size	USB_SetCurrentMode, .-USB_SetCurrentMode
 374              		.align	2
 375 0144 AFF30080 		.p2align 4,,15
 375      AFF30080 
 375      AFF30080 
 376              		.global	USB_DevInit
 377              		.thumb
 378              		.thumb_func
 379              		.type	USB_DevInit, %function
 380              	USB_DevInit:
 381              	.LFB127:
 382              		.loc 1 201 0
 383              		.cfi_startproc
 384              		@ args = 52, pretend = 16, frame = 0
 385              		@ frame_needed = 0, uses_anonymous_args = 0
 386              	.LVL41:
 387 0150 84B0     		sub	sp, sp, #16
 388              		.cfi_def_cfa_offset 16
 389 0152 2DE9F043 		push	{r4, r5, r6, r7, r8, r9, lr}
 390              		.cfi_def_cfa_offset 44
 391              		.cfi_offset 4, -44
 392              		.cfi_offset 5, -40
 393              		.cfi_offset 6, -36
ARM GAS  /tmp/cclsZlw8.s 			page 8


 394              		.cfi_offset 7, -32
 395              		.cfi_offset 8, -28
 396              		.cfi_offset 9, -24
 397              		.cfi_offset 14, -20
 398              		.loc 1 201 0
 399 0156 08AC     		add	r4, sp, #32
 400 0158 84E80E00 		stmia	r4, {r1, r2, r3}
 401              		.loc 1 218 0
 402 015c 836B     		ldr	r3, [r0, #56]
 403 015e DDF84490 		ldr	r9, [sp, #68]
 404              	.LVL42:
 405 0162 DDF82CE0 		ldr	lr, [sp, #44]
 406              	.LVL43:
 407 0166 43F40023 		orr	r3, r3, #524288
 408 016a 8363     		str	r3, [r0, #56]
 409              		.loc 1 220 0
 410 016c B9F1000F 		cmp	r9, #0
 411 0170 03D1     		bne	.L40
 412              		.loc 1 222 0
 413 0172 836B     		ldr	r3, [r0, #56]
 414 0174 43F40013 		orr	r3, r3, #2097152
 415 0178 8363     		str	r3, [r0, #56]
 416              	.L40:
 417              		.loc 1 227 0
 418 017a 0023     		movs	r3, #0
 419 017c C0F8003E 		str	r3, [r0, #3584]
 420              		.loc 1 232 0
 421 0180 0D9B     		ldr	r3, [sp, #52]
 422              		.loc 1 230 0
 423 0182 D0F80028 		ldr	r2, [r0, #2048]
 424 0186 C0F80028 		str	r2, [r0, #2048]
 425              		.loc 1 232 0
 426 018a 012B     		cmp	r3, #1
 427              		.loc 1 230 0
 428 018c 00F50064 		add	r4, r0, #2048
 429              		.loc 1 232 0
 430 0190 00F08480 		beq	.L79
 431              	.LVL44:
 432              	.LBB38:
 433              	.LBB39:
 434              		.loc 1 399 0
 435 0194 D0F80038 		ldr	r3, [r0, #2048]
 436 0198 43F00303 		orr	r3, r3, #3
 437 019c C0F80038 		str	r3, [r0, #2048]
 438              	.LVL45:
 439              	.L43:
 440              	.LBE39:
 441              	.LBE38:
 442              	.LBB40:
 443              	.LBB41:
 444              		.loc 1 347 0
 445 01a0 4FF40873 		mov	r3, #544
 446 01a4 0361     		str	r3, [r0, #16]
 447              	.LVL46:
 448 01a6 444B     		ldr	r3, .L81
 449 01a8 01E0     		b	.L44
 450              	.LVL47:
ARM GAS  /tmp/cclsZlw8.s 			page 9


 451              	.L46:
 452              		.loc 1 351 0
 453 01aa 013B     		subs	r3, r3, #1
 454              	.LVL48:
 455 01ac 02D0     		beq	.L45
 456              	.LVL49:
 457              	.L44:
 458              		.loc 1 356 0
 459 01ae 0269     		ldr	r2, [r0, #16]
 460 01b0 9506     		lsls	r5, r2, #26
 461 01b2 FAD4     		bmi	.L46
 462              	.LVL50:
 463              	.L45:
 464              	.LBE41:
 465              	.LBE40:
 466              	.LBB42:
 467              	.LBB43:
 468              		.loc 1 371 0
 469 01b4 1023     		movs	r3, #16
 470 01b6 0361     		str	r3, [r0, #16]
 471              	.LVL51:
 472 01b8 3F4B     		ldr	r3, .L81
 473 01ba 01E0     		b	.L47
 474              	.LVL52:
 475              	.L49:
 476              		.loc 1 375 0
 477 01bc 013B     		subs	r3, r3, #1
 478              	.LVL53:
 479 01be 02D0     		beq	.L48
 480              	.LVL54:
 481              	.L47:
 482              		.loc 1 380 0
 483 01c0 0269     		ldr	r2, [r0, #16]
 484 01c2 D206     		lsls	r2, r2, #27
 485 01c4 FAD4     		bmi	.L49
 486              	.LVL55:
 487              	.L48:
 488              	.LBE43:
 489              	.LBE42:
 490              		.loc 1 257 0
 491 01c6 0022     		movs	r2, #0
 492              		.loc 1 259 0
 493 01c8 4FF0FF33 		mov	r3, #-1
 494              		.loc 1 257 0
 495 01cc 2261     		str	r2, [r4, #16]
 496              		.loc 1 258 0
 497 01ce 6261     		str	r2, [r4, #20]
 498              		.loc 1 259 0
 499 01d0 A361     		str	r3, [r4, #24]
 500              		.loc 1 260 0
 501 01d2 E261     		str	r2, [r4, #28]
 502              		.loc 1 262 0
 503 01d4 41B3     		cbz	r1, .L59
 504              		.loc 1 270 0
 505 01d6 1546     		mov	r5, r2
 506 01d8 00F51063 		add	r3, r0, #2304
 507              		.loc 1 266 0
ARM GAS  /tmp/cclsZlw8.s 			page 10


 508 01dc 4FF09048 		mov	r8, #1207959552
 509              		.loc 1 274 0
 510 01e0 FF26     		movs	r6, #255
 511              	.LVL56:
 512              	.L55:
 513              		.loc 1 264 0
 514 01e2 1F68     		ldr	r7, [r3]
 515              		.loc 1 262 0
 516 01e4 0132     		adds	r2, r2, #1
 517              	.LVL57:
 518              		.loc 1 264 0
 519 01e6 002F     		cmp	r7, #0
 520              		.loc 1 266 0
 521 01e8 B4BF     		ite	lt
 522 01ea C3F80080 		strlt	r8, [r3]
 523              		.loc 1 270 0
 524 01ee 1D60     		strge	r5, [r3]
 525              		.loc 1 262 0
 526 01f0 8A42     		cmp	r2, r1
 527              		.loc 1 273 0
 528 01f2 1D61     		str	r5, [r3, #16]
 529              		.loc 1 274 0
 530 01f4 9E60     		str	r6, [r3, #8]
 531 01f6 03F12003 		add	r3, r3, #32
 532              		.loc 1 262 0
 533 01fa F2D1     		bne	.L55
 534              	.LVL58:
 535 01fc 0022     		movs	r2, #0
 536              		.loc 1 285 0
 537 01fe 1646     		mov	r6, r2
 538 0200 00F53063 		add	r3, r0, #2816
 539              		.loc 1 281 0
 540 0204 4FF09048 		mov	r8, #1207959552
 541              		.loc 1 289 0
 542 0208 4FF0FF0C 		mov	ip, #255
 543              	.LVL59:
 544              	.L58:
 545              		.loc 1 279 0
 546 020c 1F68     		ldr	r7, [r3]
 547              		.loc 1 277 0
 548 020e 0132     		adds	r2, r2, #1
 549              	.LVL60:
 550              		.loc 1 279 0
 551 0210 002F     		cmp	r7, #0
 552              		.loc 1 281 0
 553 0212 B4BF     		ite	lt
 554 0214 C3F80080 		strlt	r8, [r3]
 555              		.loc 1 285 0
 556 0218 1E60     		strge	r6, [r3]
 557              		.loc 1 277 0
 558 021a 8A42     		cmp	r2, r1
 559              		.loc 1 288 0
 560 021c 1E61     		str	r6, [r3, #16]
 561              		.loc 1 289 0
 562 021e C3F808C0 		str	ip, [r3, #8]
 563 0222 03F12003 		add	r3, r3, #32
 564              		.loc 1 277 0
ARM GAS  /tmp/cclsZlw8.s 			page 11


 565 0226 F1D1     		bne	.L58
 566              	.LVL61:
 567              	.L59:
 568              		.loc 1 292 0
 569 0228 2369     		ldr	r3, [r4, #16]
 570              		.loc 1 294 0
 571 022a BEF1010F 		cmp	lr, #1
 572              		.loc 1 292 0
 573 022e 23F48073 		bic	r3, r3, #256
 574 0232 2361     		str	r3, [r4, #16]
 575              		.loc 1 294 0
 576 0234 23D0     		beq	.L80
 577              		.loc 1 304 0
 578 0236 0022     		movs	r2, #0
 579              		.loc 1 307 0
 580 0238 6FF08043 		mvn	r3, #1073741824
 581              		.loc 1 304 0
 582 023c 8261     		str	r2, [r0, #24]
 583              		.loc 1 307 0
 584 023e 4361     		str	r3, [r0, #20]
 585              		.loc 1 310 0
 586 0240 BEF1000F 		cmp	lr, #0
 587 0244 03D1     		bne	.L60
 588              		.loc 1 312 0
 589 0246 8369     		ldr	r3, [r0, #24]
 590 0248 43F01003 		orr	r3, r3, #16
 591 024c 8361     		str	r3, [r0, #24]
 592              	.LVL62:
 593              	.L60:
 594              		.loc 1 316 0
 595 024e 8169     		ldr	r1, [r0, #24]
 596 0250 1A4B     		ldr	r3, .L81+4
 597              		.loc 1 321 0
 598 0252 0E9A     		ldr	r2, [sp, #56]
 599              		.loc 1 316 0
 600 0254 0B43     		orrs	r3, r3, r1
 601 0256 8361     		str	r3, [r0, #24]
 602              		.loc 1 321 0
 603 0258 1AB1     		cbz	r2, .L61
 604              		.loc 1 323 0
 605 025a 8369     		ldr	r3, [r0, #24]
 606 025c 43F00803 		orr	r3, r3, #8
 607 0260 8361     		str	r3, [r0, #24]
 608              	.L61:
 609              		.loc 1 326 0
 610 0262 B9F1010F 		cmp	r9, #1
 611 0266 05D1     		bne	.L62
 612              		.loc 1 328 0
 613 0268 8369     		ldr	r3, [r0, #24]
 614 026a 43F08043 		orr	r3, r3, #1073741824
 615 026e 43F00403 		orr	r3, r3, #4
 616 0272 8361     		str	r3, [r0, #24]
 617              	.L62:
 618              		.loc 1 332 0
 619 0274 BDE8F043 		pop	{r4, r5, r6, r7, r8, r9, lr}
 620              		.cfi_remember_state
 621              		.cfi_restore 14
ARM GAS  /tmp/cclsZlw8.s 			page 12


 622              		.cfi_restore 9
 623              		.cfi_restore 8
 624              		.cfi_restore 7
 625              		.cfi_restore 6
 626              		.cfi_restore 5
 627              		.cfi_restore 4
 628              		.cfi_def_cfa_offset 16
 629              	.LVL63:
 630 0278 0020     		movs	r0, #0
 631              	.LVL64:
 632 027a 04B0     		add	sp, sp, #16
 633              		.cfi_def_cfa_offset 0
 634 027c 7047     		bx	lr
 635              	.LVL65:
 636              	.L80:
 637              		.cfi_restore_state
 638              		.loc 1 297 0
 639 027e 104B     		ldr	r3, .L81+8
 640 0280 2363     		str	r3, [r4, #48]
 641              		.loc 1 298 0
 642 0282 236B     		ldr	r3, [r4, #48]
 643 0284 43F48033 		orr	r3, r3, #65536
 644 0288 43F00303 		orr	r3, r3, #3
 645 028c 2363     		str	r3, [r4, #48]
 646              		.loc 1 304 0
 647 028e 0022     		movs	r2, #0
 648              		.loc 1 307 0
 649 0290 6FF08043 		mvn	r3, #1073741824
 650              		.loc 1 300 0
 651 0294 216B     		ldr	r1, [r4, #48]
 652              	.LVL66:
 653              		.loc 1 304 0
 654 0296 8261     		str	r2, [r0, #24]
 655              		.loc 1 307 0
 656 0298 4361     		str	r3, [r0, #20]
 657 029a D8E7     		b	.L60
 658              	.LVL67:
 659              	.L79:
 660              		.loc 1 234 0
 661 029c 0A9B     		ldr	r3, [sp, #40]
 662 029e 23B9     		cbnz	r3, .L42
 663              	.LVL68:
 664              	.LBB44:
 665              	.LBB45:
 666              		.loc 1 399 0
 667 02a0 D0F80038 		ldr	r3, [r0, #2048]
 668 02a4 C0F80038 		str	r3, [r0, #2048]
 669 02a8 7AE7     		b	.L43
 670              	.LVL69:
 671              	.L42:
 672              	.LBE45:
 673              	.LBE44:
 674              	.LBB46:
 675              	.LBB47:
 676 02aa D0F80038 		ldr	r3, [r0, #2048]
 677 02ae 43F00103 		orr	r3, r3, #1
 678 02b2 C0F80038 		str	r3, [r0, #2048]
ARM GAS  /tmp/cclsZlw8.s 			page 13


 679 02b6 73E7     		b	.L43
 680              	.L82:
 681              		.align	2
 682              	.L81:
 683 02b8 400D0300 		.word	200000
 684 02bc 00383C80 		.word	-2143537152
 685 02c0 00018000 		.word	8388864
 686              	.LBE47:
 687              	.LBE46:
 688              		.cfi_endproc
 689              	.LFE127:
 690              		.size	USB_DevInit, .-USB_DevInit
 691              		.align	2
 692 02c4 AFF30080 		.p2align 4,,15
 692      AFF30080 
 692      AFF30080 
 693              		.global	USB_FlushTxFifo
 694              		.thumb
 695              		.thumb_func
 696              		.type	USB_FlushTxFifo, %function
 697              	USB_FlushTxFifo:
 698              	.LFB128:
 699              		.loc 1 344 0
 700              		.cfi_startproc
 701              		@ args = 0, pretend = 0, frame = 0
 702              		@ frame_needed = 0, uses_anonymous_args = 0
 703              		@ link register save eliminated.
 704              	.LVL70:
 705              		.loc 1 347 0
 706 02d0 4901     		lsls	r1, r1, #5
 707              	.LVL71:
 708 02d2 41F02001 		orr	r1, r1, #32
 709 02d6 0161     		str	r1, [r0, #16]
 710              	.LVL72:
 711 02d8 054A     		ldr	r2, .L89
 712 02da 01E0     		b	.L84
 713              	.LVL73:
 714              	.L86:
 715              		.loc 1 351 0
 716 02dc 013A     		subs	r2, r2, #1
 717              	.LVL74:
 718 02de 05D0     		beq	.L87
 719              	.LVL75:
 720              	.L84:
 721              		.loc 1 356 0
 722 02e0 0369     		ldr	r3, [r0, #16]
 723 02e2 13F02003 		ands	r3, r3, #32
 724 02e6 F9D1     		bne	.L86
 725              		.loc 1 358 0
 726 02e8 1846     		mov	r0, r3
 727              	.LVL76:
 728 02ea 7047     		bx	lr
 729              	.LVL77:
 730              	.L87:
 731              		.loc 1 353 0
 732 02ec 0320     		movs	r0, #3
 733              	.LVL78:
ARM GAS  /tmp/cclsZlw8.s 			page 14


 734              		.loc 1 359 0
 735 02ee 7047     		bx	lr
 736              	.L90:
 737              		.align	2
 738              	.L89:
 739 02f0 400D0300 		.word	200000
 740              		.cfi_endproc
 741              	.LFE128:
 742              		.size	USB_FlushTxFifo, .-USB_FlushTxFifo
 743              		.align	2
 744 02f4 AFF30080 		.p2align 4,,15
 744      AFF30080 
 744      AFF30080 
 745              		.global	USB_FlushRxFifo
 746              		.thumb
 747              		.thumb_func
 748              		.type	USB_FlushRxFifo, %function
 749              	USB_FlushRxFifo:
 750              	.LFB129:
 751              		.loc 1 368 0
 752              		.cfi_startproc
 753              		@ args = 0, pretend = 0, frame = 0
 754              		@ frame_needed = 0, uses_anonymous_args = 0
 755              		@ link register save eliminated.
 756              	.LVL79:
 757              		.loc 1 371 0
 758 0300 1023     		movs	r3, #16
 759 0302 0361     		str	r3, [r0, #16]
 760              	.LVL80:
 761 0304 054A     		ldr	r2, .L97
 762 0306 01E0     		b	.L92
 763              	.LVL81:
 764              	.L94:
 765              		.loc 1 375 0
 766 0308 013A     		subs	r2, r2, #1
 767              	.LVL82:
 768 030a 05D0     		beq	.L95
 769              	.LVL83:
 770              	.L92:
 771              		.loc 1 380 0
 772 030c 0369     		ldr	r3, [r0, #16]
 773 030e 13F01003 		ands	r3, r3, #16
 774 0312 F9D1     		bne	.L94
 775              		.loc 1 382 0
 776 0314 1846     		mov	r0, r3
 777              	.LVL84:
 778 0316 7047     		bx	lr
 779              	.LVL85:
 780              	.L95:
 781              		.loc 1 377 0
 782 0318 0320     		movs	r0, #3
 783              	.LVL86:
 784              		.loc 1 383 0
 785 031a 7047     		bx	lr
 786              	.L98:
 787              		.align	2
 788              	.L97:
ARM GAS  /tmp/cclsZlw8.s 			page 15


 789 031c 400D0300 		.word	200000
 790              		.cfi_endproc
 791              	.LFE129:
 792              		.size	USB_FlushRxFifo, .-USB_FlushRxFifo
 793              		.align	2
 794              		.p2align 4,,15
 795              		.global	USB_SetDevSpeed
 796              		.thumb
 797              		.thumb_func
 798              		.type	USB_SetDevSpeed, %function
 799              	USB_SetDevSpeed:
 800              	.LFB130:
 801              		.loc 1 398 0
 802              		.cfi_startproc
 803              		@ args = 0, pretend = 0, frame = 0
 804              		@ frame_needed = 0, uses_anonymous_args = 0
 805              		@ link register save eliminated.
 806              	.LVL87:
 807              		.loc 1 398 0
 808 0320 0246     		mov	r2, r0
 809              		.loc 1 401 0
 810 0322 0020     		movs	r0, #0
 811              	.LVL88:
 812              		.loc 1 399 0
 813 0324 D2F80038 		ldr	r3, [r2, #2048]
 814 0328 1943     		orrs	r1, r1, r3
 815              	.LVL89:
 816 032a C2F80018 		str	r1, [r2, #2048]
 817              		.loc 1 401 0
 818 032e 7047     		bx	lr
 819              		.cfi_endproc
 820              	.LFE130:
 821              		.size	USB_SetDevSpeed, .-USB_SetDevSpeed
 822              		.align	2
 823              		.p2align 4,,15
 824              		.global	USB_GetDevSpeed
 825              		.thumb
 826              		.thumb_func
 827              		.type	USB_GetDevSpeed, %function
 828              	USB_GetDevSpeed:
 829              	.LFB131:
 830              		.loc 1 413 0
 831              		.cfi_startproc
 832              		@ args = 0, pretend = 0, frame = 0
 833              		@ frame_needed = 0, uses_anonymous_args = 0
 834              		@ link register save eliminated.
 835              	.LVL90:
 836              		.loc 1 416 0
 837 0330 D0F80838 		ldr	r3, [r0, #2056]
 838 0334 00F50062 		add	r2, r0, #2048
 839 0338 13F00600 		ands	r0, r3, #6
 840              	.LVL91:
 841 033c 12D0     		beq	.L101
 842              		.loc 1 420 0
 843 033e 9368     		ldr	r3, [r2, #8]
 844 0340 03F00603 		and	r3, r3, #6
 845 0344 022B     		cmp	r3, #2
ARM GAS  /tmp/cclsZlw8.s 			page 16


 846 0346 0CD0     		beq	.L104
 847              		.loc 1 421 0 discriminator 1
 848 0348 9368     		ldr	r3, [r2, #8]
 849 034a 03F00603 		and	r3, r3, #6
 850              		.loc 1 420 0 discriminator 1
 851 034e 062B     		cmp	r3, #6
 852 0350 07D0     		beq	.L104
 853              		.loc 1 425 0
 854 0352 9368     		ldr	r3, [r2, #8]
 855 0354 03F00603 		and	r3, r3, #6
 856 0358 042B     		cmp	r3, #4
 857              		.loc 1 427 0
 858 035a 14BF     		ite	ne
 859 035c 0020     		movne	r0, #0
 860 035e 0220     		moveq	r0, #2
 861 0360 7047     		bx	lr
 862              	.L104:
 863              		.loc 1 423 0
 864 0362 0320     		movs	r0, #3
 865              	.L101:
 866              	.LVL92:
 867              		.loc 1 431 0
 868 0364 7047     		bx	lr
 869              		.cfi_endproc
 870              	.LFE131:
 871              		.size	USB_GetDevSpeed, .-USB_GetDevSpeed
 872 0366 00BF     		.align	2
 873 0368 AFF30080 		.p2align 4,,15
 873      AFF30080 
 874              		.global	USB_ActivateEndpoint
 875              		.thumb
 876              		.thumb_func
 877              		.type	USB_ActivateEndpoint, %function
 878              	USB_ActivateEndpoint:
 879              	.LFB132:
 880              		.loc 1 440 0
 881              		.cfi_startproc
 882              		@ args = 0, pretend = 0, frame = 0
 883              		@ frame_needed = 0, uses_anonymous_args = 0
 884              		@ link register save eliminated.
 885              	.LVL93:
 886 0370 70B4     		push	{r4, r5, r6}
 887              		.cfi_def_cfa_offset 12
 888              		.cfi_offset 4, -12
 889              		.cfi_offset 5, -8
 890              		.cfi_offset 6, -4
 891              		.loc 1 441 0
 892 0372 4B78     		ldrb	r3, [r1, #1]	@ zero_extendqisi2
 893 0374 012B     		cmp	r3, #1
 894 0376 20D0     		beq	.L112
 895              		.loc 1 454 0
 896 0378 0D78     		ldrb	r5, [r1]	@ zero_extendqisi2
 897 037a D0F81C48 		ldr	r4, [r0, #2076]
 898 037e 4FF48032 		mov	r2, #65536
 899 0382 AA40     		lsls	r2, r2, r5
 900 0384 2243     		orrs	r2, r2, r4
 901 0386 C0F81C28 		str	r2, [r0, #2076]
ARM GAS  /tmp/cclsZlw8.s 			page 17


 902              		.loc 1 456 0
 903 038a 0A78     		ldrb	r2, [r1]	@ zero_extendqisi2
 904 038c 4FF43063 		mov	r3, #2816
 905 0390 03EB4213 		add	r3, r3, r2, lsl #5
 906 0394 1A58     		ldr	r2, [r3, r0]
 907 0396 1204     		lsls	r2, r2, #16
 908 0398 0CD4     		bmi	.L109
 909              		.loc 1 458 0
 910 039a 1A58     		ldr	r2, [r3, r0]
 911 039c 8C68     		ldr	r4, [r1, #8]
 912 039e CD78     		ldrb	r5, [r1, #3]	@ zero_extendqisi2
 913 03a0 42F08052 		orr	r2, r2, #268435456
 914 03a4 42F40042 		orr	r2, r2, #32768
 915 03a8 C4F30A01 		ubfx	r1, r4, #0, #11
 916              	.LVL94:
 917 03ac 0A43     		orrs	r2, r2, r1
 918 03ae 42EA8542 		orr	r2, r2, r5, lsl #18
 919 03b2 1A50     		str	r2, [r3, r0]
 920              	.L109:
 921              		.loc 1 463 0
 922 03b4 0020     		movs	r0, #0
 923              	.LVL95:
 924 03b6 70BC     		pop	{r4, r5, r6}
 925              		.cfi_remember_state
 926              		.cfi_restore 6
 927              		.cfi_restore 5
 928              		.cfi_restore 4
 929              		.cfi_def_cfa_offset 0
 930 03b8 7047     		bx	lr
 931              	.LVL96:
 932              	.L112:
 933              		.cfi_restore_state
 934              		.loc 1 443 0
 935 03ba 0C78     		ldrb	r4, [r1]	@ zero_extendqisi2
 936 03bc A340     		lsls	r3, r3, r4
 937 03be D0F81C48 		ldr	r4, [r0, #2076]
 938 03c2 9BB2     		uxth	r3, r3
 939 03c4 2343     		orrs	r3, r3, r4
 940 03c6 C0F81C38 		str	r3, [r0, #2076]
 941              		.loc 1 445 0
 942 03ca 0E78     		ldrb	r6, [r1]	@ zero_extendqisi2
 943 03cc 4FF41063 		mov	r3, #2304
 944 03d0 03EB4613 		add	r3, r3, r6, lsl #5
 945 03d4 1A58     		ldr	r2, [r3, r0]
 946 03d6 1404     		lsls	r4, r2, #16
 947 03d8 ECD4     		bmi	.L109
 948              		.loc 1 447 0
 949 03da 1D58     		ldr	r5, [r3, r0]
 950 03dc 8C68     		ldr	r4, [r1, #8]
 951 03de CA78     		ldrb	r2, [r1, #3]	@ zero_extendqisi2
 952 03e0 45F08055 		orr	r5, r5, #268435456
 953 03e4 45F40045 		orr	r5, r5, #32768
 954 03e8 C4F30A01 		ubfx	r1, r4, #0, #11
 955              	.LVL97:
 956 03ec 2943     		orrs	r1, r1, r5
 957 03ee 41EA8242 		orr	r2, r1, r2, lsl #18
 958 03f2 42EA8652 		orr	r2, r2, r6, lsl #22
ARM GAS  /tmp/cclsZlw8.s 			page 18


 959 03f6 1A50     		str	r2, [r3, r0]
 960              		.loc 1 463 0
 961 03f8 70BC     		pop	{r4, r5, r6}
 962              		.cfi_restore 4
 963              		.cfi_restore 5
 964              		.cfi_restore 6
 965              		.cfi_def_cfa_offset 0
 966 03fa 0020     		movs	r0, #0
 967              	.LVL98:
 968 03fc 7047     		bx	lr
 969              		.cfi_endproc
 970              	.LFE132:
 971              		.size	USB_ActivateEndpoint, .-USB_ActivateEndpoint
 972 03fe 00BF     		.align	2
 973              		.p2align 4,,15
 974              		.global	USB_ActivateDedicatedEndpoint
 975              		.thumb
 976              		.thumb_func
 977              		.type	USB_ActivateDedicatedEndpoint, %function
 978              	USB_ActivateDedicatedEndpoint:
 979              	.LFB133:
 980              		.loc 1 471 0
 981              		.cfi_startproc
 982              		@ args = 0, pretend = 0, frame = 0
 983              		@ frame_needed = 0, uses_anonymous_args = 0
 984              	.LVL99:
 985 0400 F0B5     		push	{r4, r5, r6, r7, lr}
 986              		.cfi_def_cfa_offset 20
 987              		.cfi_offset 4, -20
 988              		.cfi_offset 5, -16
 989              		.cfi_offset 6, -12
 990              		.cfi_offset 7, -8
 991              		.cfi_offset 14, -4
 992              		.loc 1 475 0
 993 0402 4B78     		ldrb	r3, [r1, #1]	@ zero_extendqisi2
 994 0404 012B     		cmp	r3, #1
 995 0406 37D0     		beq	.L121
 996              		.loc 1 491 0
 997 0408 0B78     		ldrb	r3, [r1]	@ zero_extendqisi2
 998 040a 2026     		movs	r6, #32
 999 040c 4FF43067 		mov	r7, #2816
 1000 0410 16FB037E 		smlabb	lr, r6, r3, r7
 1001 0414 50F80E20 		ldr	r2, [r0, lr]
 1002 0418 1204     		lsls	r2, r2, #16
 1003 041a 0AD5     		bpl	.L122
 1004              	.LVL100:
 1005              	.L119:
 1006              		.loc 1 502 0
 1007 041c D0F83C28 		ldr	r2, [r0, #2108]
 1008 0420 4FF48031 		mov	r1, #65536
 1009 0424 01FA03F3 		lsl	r3, r1, r3
 1010 0428 1343     		orrs	r3, r3, r2
 1011 042a C0F83C38 		str	r3, [r0, #2108]
 1012              		.loc 1 506 0
 1013 042e 0020     		movs	r0, #0
 1014              	.LVL101:
 1015 0430 F0BD     		pop	{r4, r5, r6, r7, pc}
ARM GAS  /tmp/cclsZlw8.s 			page 19


 1016              	.LVL102:
 1017              	.L122:
 1018              		.loc 1 493 0
 1019 0432 50F80E20 		ldr	r2, [r0, lr]
 1020 0436 8C68     		ldr	r4, [r1, #8]
 1021 0438 91F803C0 		ldrb	ip, [r1, #3]	@ zero_extendqisi2
 1022              		.loc 1 496 0
 1023 043c 284D     		ldr	r5, .L124
 1024              		.loc 1 493 0
 1025 043e C4F30A04 		ubfx	r4, r4, #0, #11
 1026 0442 42F40042 		orr	r2, r2, #32768
 1027 0446 2243     		orrs	r2, r2, r4
 1028 0448 42EA8C42 		orr	r2, r2, ip, lsl #18
 1029 044c 42EA8353 		orr	r3, r2, r3, lsl #22
 1030 0450 40F80E30 		str	r3, [r0, lr]
 1031              		.loc 1 497 0
 1032 0454 0B78     		ldrb	r3, [r1]	@ zero_extendqisi2
 1033              		.loc 1 498 0
 1034 0456 C978     		ldrb	r1, [r1, #3]	@ zero_extendqisi2
 1035              	.LVL103:
 1036 0458 16FB0376 		smlabb	r6, r6, r3, r7
 1037              		.loc 1 496 0
 1038 045c C219     		adds	r2, r0, r7
 1039              		.loc 1 497 0
 1040 045e 0644     		add	r6, r6, r0
 1041              		.loc 1 496 0
 1042 0460 2A60     		str	r2, [r5]
 1043              		.loc 1 497 0
 1044 0462 2E60     		str	r6, [r5]
 1045              		.loc 1 498 0
 1046 0464 2A68     		ldr	r2, [r5]
 1047 0466 42F40042 		orr	r2, r2, #32768
 1048 046a 1443     		orrs	r4, r4, r2
 1049 046c 44EA8144 		orr	r4, r4, r1, lsl #18
 1050 0470 44EA8354 		orr	r4, r4, r3, lsl #22
 1051 0474 2C60     		str	r4, [r5]
 1052 0476 D1E7     		b	.L119
 1053              	.LVL104:
 1054              	.L121:
 1055              		.loc 1 477 0
 1056 0478 0D78     		ldrb	r5, [r1]	@ zero_extendqisi2
 1057 047a 4FF41066 		mov	r6, #2304
 1058 047e 06EB4516 		add	r6, r6, r5, lsl #5
 1059 0482 8359     		ldr	r3, [r0, r6]
 1060 0484 1C04     		lsls	r4, r3, #16
 1061 0486 27D4     		bmi	.L123
 1062              		.loc 1 479 0
 1063 0488 8459     		ldr	r4, [r0, r6]
 1064 048a 8B68     		ldr	r3, [r1, #8]
 1065 048c CF78     		ldrb	r7, [r1, #3]	@ zero_extendqisi2
 1066 048e 44F08052 		orr	r2, r4, #268435456
 1067 0492 42F40042 		orr	r2, r2, #32768
 1068 0496 C3F30A03 		ubfx	r3, r3, #0, #11
 1069 049a 42EA0304 		orr	r4, r2, r3
 1070 049e 44EA8742 		orr	r2, r4, r7, lsl #18
 1071 04a2 42EA8552 		orr	r2, r2, r5, lsl #22
 1072 04a6 8251     		str	r2, [r0, r6]
ARM GAS  /tmp/cclsZlw8.s 			page 20


 1073 04a8 0D78     		ldrb	r5, [r1]	@ zero_extendqisi2
 1074              	.L116:
 1075              		.loc 1 484 0
 1076 04aa 0D4C     		ldr	r4, .L124
 1077 04ac CE78     		ldrb	r6, [r1, #3]	@ zero_extendqisi2
 1078 04ae 2168     		ldr	r1, [r4]
 1079              	.LVL105:
 1080 04b0 41F08052 		orr	r2, r1, #268435456
 1081 04b4 42F40042 		orr	r2, r2, #32768
 1082 04b8 42EA8642 		orr	r2, r2, r6, lsl #18
 1083 04bc 1343     		orrs	r3, r3, r2
 1084 04be 43EA8553 		orr	r3, r3, r5, lsl #22
 1085 04c2 2360     		str	r3, [r4]
 1086              		.loc 1 487 0
 1087 04c4 0123     		movs	r3, #1
 1088 04c6 D0F83C28 		ldr	r2, [r0, #2108]
 1089 04ca AB40     		lsls	r3, r3, r5
 1090 04cc 9BB2     		uxth	r3, r3
 1091 04ce 1343     		orrs	r3, r3, r2
 1092 04d0 C0F83C38 		str	r3, [r0, #2108]
 1093              		.loc 1 506 0
 1094 04d4 0020     		movs	r0, #0
 1095              	.LVL106:
 1096 04d6 F0BD     		pop	{r4, r5, r6, r7, pc}
 1097              	.LVL107:
 1098              	.L123:
 1099 04d8 8B68     		ldr	r3, [r1, #8]
 1100 04da C3F30A03 		ubfx	r3, r3, #0, #11
 1101 04de E4E7     		b	.L116
 1102              	.L125:
 1103              		.align	2
 1104              	.L124:
 1105 04e0 00000000 		.word	.LANCHOR0
 1106              		.cfi_endproc
 1107              	.LFE133:
 1108              		.size	USB_ActivateDedicatedEndpoint, .-USB_ActivateDedicatedEndpoint
 1109              		.align	2
 1110 04e4 AFF30080 		.p2align 4,,15
 1110      AFF30080 
 1110      AFF30080 
 1111              		.global	USB_DeactivateEndpoint
 1112              		.thumb
 1113              		.thumb_func
 1114              		.type	USB_DeactivateEndpoint, %function
 1115              	USB_DeactivateEndpoint:
 1116              	.LFB134:
 1117              		.loc 1 514 0
 1118              		.cfi_startproc
 1119              		@ args = 0, pretend = 0, frame = 0
 1120              		@ frame_needed = 0, uses_anonymous_args = 0
 1121              		@ link register save eliminated.
 1122              	.LVL108:
 1123              		.loc 1 516 0
 1124 04f0 4B78     		ldrb	r3, [r1, #1]	@ zero_extendqisi2
 1125 04f2 012B     		cmp	r3, #1
 1126              		.loc 1 514 0
 1127 04f4 30B4     		push	{r4, r5}
ARM GAS  /tmp/cclsZlw8.s 			page 21


 1128              		.cfi_def_cfa_offset 8
 1129              		.cfi_offset 4, -8
 1130              		.cfi_offset 5, -4
 1131              		.loc 1 516 0
 1132 04f6 1DD0     		beq	.L130
 1133              		.loc 1 525 0
 1134 04f8 0D78     		ldrb	r5, [r1]	@ zero_extendqisi2
 1135 04fa D0F83C48 		ldr	r4, [r0, #2108]
 1136 04fe 0122     		movs	r2, #1
 1137 0500 02FA05F5 		lsl	r5, r2, r5
 1138 0504 24EA0544 		bic	r4, r4, r5, lsl #16
 1139 0508 C0F83C48 		str	r4, [r0, #2108]
 1140              		.loc 1 526 0
 1141 050c 0D78     		ldrb	r5, [r1]	@ zero_extendqisi2
 1142 050e D0F81C48 		ldr	r4, [r0, #2076]
 1143 0512 AA40     		lsls	r2, r2, r5
 1144 0514 24EA0242 		bic	r2, r4, r2, lsl #16
 1145 0518 C0F81C28 		str	r2, [r0, #2076]
 1146              		.loc 1 527 0
 1147 051c 0A78     		ldrb	r2, [r1]	@ zero_extendqisi2
 1148 051e 4FF43063 		mov	r3, #2816
 1149 0522 03EB4213 		add	r3, r3, r2, lsl #5
 1150              		.loc 1 530 0
 1151 0526 30BC     		pop	{r4, r5}
 1152              		.cfi_remember_state
 1153              		.cfi_restore 5
 1154              		.cfi_restore 4
 1155              		.cfi_def_cfa_offset 0
 1156              		.loc 1 527 0
 1157 0528 1A58     		ldr	r2, [r3, r0]
 1158 052a 22F40042 		bic	r2, r2, #32768
 1159 052e 1A50     		str	r2, [r3, r0]
 1160              		.loc 1 530 0
 1161 0530 0020     		movs	r0, #0
 1162              	.LVL109:
 1163 0532 7047     		bx	lr
 1164              	.LVL110:
 1165              	.L130:
 1166              		.cfi_restore_state
 1167              		.loc 1 518 0
 1168 0534 0C78     		ldrb	r4, [r1]	@ zero_extendqisi2
 1169 0536 D0F83C58 		ldr	r5, [r0, #2108]
 1170 053a 03FA04F4 		lsl	r4, r3, r4
 1171 053e A4B2     		uxth	r4, r4
 1172 0540 25EA0404 		bic	r4, r5, r4
 1173 0544 C0F83C48 		str	r4, [r0, #2108]
 1174              		.loc 1 519 0
 1175 0548 0D78     		ldrb	r5, [r1]	@ zero_extendqisi2
 1176 054a D0F81C48 		ldr	r4, [r0, #2076]
 1177 054e AB40     		lsls	r3, r3, r5
 1178 0550 9BB2     		uxth	r3, r3
 1179 0552 24EA0303 		bic	r3, r4, r3
 1180 0556 C0F81C38 		str	r3, [r0, #2076]
 1181              		.loc 1 520 0
 1182 055a 0A78     		ldrb	r2, [r1]	@ zero_extendqisi2
 1183 055c 4FF41063 		mov	r3, #2304
 1184 0560 03EB4213 		add	r3, r3, r2, lsl #5
ARM GAS  /tmp/cclsZlw8.s 			page 22


 1185              		.loc 1 530 0
 1186 0564 30BC     		pop	{r4, r5}
 1187              		.cfi_restore 4
 1188              		.cfi_restore 5
 1189              		.cfi_def_cfa_offset 0
 1190              		.loc 1 520 0
 1191 0566 1A58     		ldr	r2, [r3, r0]
 1192 0568 22F40042 		bic	r2, r2, #32768
 1193 056c 1A50     		str	r2, [r3, r0]
 1194              		.loc 1 530 0
 1195 056e 0020     		movs	r0, #0
 1196              	.LVL111:
 1197 0570 7047     		bx	lr
 1198              		.cfi_endproc
 1199              	.LFE134:
 1200              		.size	USB_DeactivateEndpoint, .-USB_DeactivateEndpoint
 1201 0572 00BF     		.align	2
 1202 0574 AFF30080 		.p2align 4,,15
 1202      AFF30080 
 1202      AFF30080 
 1203              		.global	USB_DeactivateDedicatedEndpoint
 1204              		.thumb
 1205              		.thumb_func
 1206              		.type	USB_DeactivateDedicatedEndpoint, %function
 1207              	USB_DeactivateDedicatedEndpoint:
 1208              	.LFB135:
 1209              		.loc 1 539 0
 1210              		.cfi_startproc
 1211              		@ args = 0, pretend = 0, frame = 0
 1212              		@ frame_needed = 0, uses_anonymous_args = 0
 1213              		@ link register save eliminated.
 1214              	.LVL112:
 1215 0580 30B4     		push	{r4, r5}
 1216              		.cfi_def_cfa_offset 8
 1217              		.cfi_offset 4, -8
 1218              		.cfi_offset 5, -4
 1219              		.loc 1 541 0
 1220 0582 4B78     		ldrb	r3, [r1, #1]	@ zero_extendqisi2
 1221 0584 012B     		cmp	r3, #1
 1222 0586 15D0     		beq	.L135
 1223              		.loc 1 548 0
 1224 0588 0A78     		ldrb	r2, [r1]	@ zero_extendqisi2
 1225 058a 4FF43063 		mov	r3, #2816
 1226 058e 03EB4213 		add	r3, r3, r2, lsl #5
 1227              		.loc 1 552 0
 1228 0592 30BC     		pop	{r4, r5}
 1229              		.cfi_remember_state
 1230              		.cfi_restore 5
 1231              		.cfi_restore 4
 1232              		.cfi_def_cfa_offset 0
 1233              		.loc 1 548 0
 1234 0594 1A58     		ldr	r2, [r3, r0]
 1235 0596 22F40042 		bic	r2, r2, #32768
 1236 059a 1A50     		str	r2, [r3, r0]
 1237              		.loc 1 549 0
 1238 059c 0978     		ldrb	r1, [r1]	@ zero_extendqisi2
 1239              	.LVL113:
ARM GAS  /tmp/cclsZlw8.s 			page 23


 1240 059e D0F81C28 		ldr	r2, [r0, #2076]
 1241 05a2 4FF48033 		mov	r3, #65536
 1242 05a6 8B40     		lsls	r3, r3, r1
 1243 05a8 22EA0303 		bic	r3, r2, r3
 1244 05ac C0F81C38 		str	r3, [r0, #2076]
 1245              		.loc 1 552 0
 1246 05b0 0020     		movs	r0, #0
 1247              	.LVL114:
 1248 05b2 7047     		bx	lr
 1249              	.LVL115:
 1250              	.L135:
 1251              		.cfi_restore_state
 1252              		.loc 1 543 0
 1253 05b4 0C78     		ldrb	r4, [r1]	@ zero_extendqisi2
 1254 05b6 4FF41062 		mov	r2, #2304
 1255 05ba 02EB4412 		add	r2, r2, r4, lsl #5
 1256 05be 1458     		ldr	r4, [r2, r0]
 1257 05c0 24F40044 		bic	r4, r4, #32768
 1258 05c4 1450     		str	r4, [r2, r0]
 1259              		.loc 1 544 0
 1260 05c6 0978     		ldrb	r1, [r1]	@ zero_extendqisi2
 1261              	.LVL116:
 1262 05c8 D0F81C28 		ldr	r2, [r0, #2076]
 1263 05cc 8B40     		lsls	r3, r3, r1
 1264 05ce 9BB2     		uxth	r3, r3
 1265 05d0 22EA0303 		bic	r3, r2, r3
 1266 05d4 C0F81C38 		str	r3, [r0, #2076]
 1267              		.loc 1 552 0
 1268 05d8 30BC     		pop	{r4, r5}
 1269              		.cfi_restore 4
 1270              		.cfi_restore 5
 1271              		.cfi_def_cfa_offset 0
 1272 05da 0020     		movs	r0, #0
 1273              	.LVL117:
 1274 05dc 7047     		bx	lr
 1275              		.cfi_endproc
 1276              	.LFE135:
 1277              		.size	USB_DeactivateDedicatedEndpoint, .-USB_DeactivateDedicatedEndpoint
 1278 05de 00BF     		.align	2
 1279              		.p2align 4,,15
 1280              		.global	USB_EPStartXfer
 1281              		.thumb
 1282              		.thumb_func
 1283              		.type	USB_EPStartXfer, %function
 1284              	USB_EPStartXfer:
 1285              	.LFB136:
 1286              		.loc 1 565 0
 1287              		.cfi_startproc
 1288              		@ args = 0, pretend = 0, frame = 0
 1289              		@ frame_needed = 0, uses_anonymous_args = 0
 1290              	.LVL118:
 1291 05e0 2DE9F041 		push	{r4, r5, r6, r7, r8, lr}
 1292              		.cfi_def_cfa_offset 24
 1293              		.cfi_offset 4, -24
 1294              		.cfi_offset 5, -20
 1295              		.cfi_offset 6, -16
 1296              		.cfi_offset 7, -12
ARM GAS  /tmp/cclsZlw8.s 			page 24


 1297              		.cfi_offset 8, -8
 1298              		.cfi_offset 14, -4
 1299              		.loc 1 569 0
 1300 05e4 4B78     		ldrb	r3, [r1, #1]	@ zero_extendqisi2
 1301 05e6 012B     		cmp	r3, #1
 1302 05e8 76D0     		beq	.L165
 1303              		.loc 1 639 0
 1304 05ea 0D78     		ldrb	r5, [r1]	@ zero_extendqisi2
 1305              		.loc 1 642 0
 1306 05ec 4C69     		ldr	r4, [r1, #20]
 1307              		.loc 1 639 0
 1308 05ee 2023     		movs	r3, #32
 1309 05f0 4FF43067 		mov	r7, #2816
 1310 05f4 13FB0575 		smlabb	r5, r3, r5, r7
 1311 05f8 0544     		add	r5, r5, r0
 1312 05fa 2E69     		ldr	r6, [r5, #16]
 1313 05fc F60C     		lsrs	r6, r6, #19
 1314 05fe F604     		lsls	r6, r6, #19
 1315 0600 2E61     		str	r6, [r5, #16]
 1316              		.loc 1 640 0
 1317 0602 0D78     		ldrb	r5, [r1]	@ zero_extendqisi2
 1318 0604 13FB0575 		smlabb	r5, r3, r5, r7
 1319 0608 0544     		add	r5, r5, r0
 1320 060a 2E69     		ldr	r6, [r5, #16]
 1321 060c 26F0FF56 		bic	r6, r6, #534773760
 1322 0610 26F4C016 		bic	r6, r6, #1572864
 1323 0614 2E61     		str	r6, [r5, #16]
 1324              		.loc 1 642 0
 1325 0616 8CB3     		cbz	r4, .L166
 1326              		.loc 1 650 0
 1327 0618 0E78     		ldrb	r6, [r1]	@ zero_extendqisi2
 1328              		.loc 1 649 0
 1329 061a 8D68     		ldr	r5, [r1, #8]
 1330              	.LVL119:
 1331              		.loc 1 650 0
 1332 061c DFF814C2 		ldr	ip, .L170
 1333 0620 13FB0676 		smlabb	r6, r3, r6, r7
 1334 0624 0644     		add	r6, r6, r0
 1335              		.loc 1 649 0
 1336 0626 2C44     		add	r4, r4, r5
 1337              	.LVL120:
 1338 0628 013C     		subs	r4, r4, #1
 1339 062a B4FBF5F4 		udiv	r4, r4, r5
 1340 062e A4B2     		uxth	r4, r4
 1341              		.loc 1 650 0
 1342 0630 D6F810E0 		ldr	lr, [r6, #16]
 1343 0634 4FEAC448 		lsl	r8, r4, #19
 1344 0638 08EA0C0C 		and	ip, r8, ip
 1345 063c 4CEA0E0E 		orr	lr, ip, lr
 1346 0640 C6F810E0 		str	lr, [r6, #16]
 1347              		.loc 1 651 0
 1348 0644 0E78     		ldrb	r6, [r1]	@ zero_extendqisi2
 1349 0646 13FB0673 		smlabb	r3, r3, r6, r7
 1350 064a 0344     		add	r3, r3, r0
 1351 064c 05FB04F4 		mul	r4, r5, r4
 1352 0650 1D69     		ldr	r5, [r3, #16]
 1353              	.LVL121:
ARM GAS  /tmp/cclsZlw8.s 			page 25


 1354 0652 C4F31204 		ubfx	r4, r4, #0, #19
 1355 0656 2C43     		orrs	r4, r4, r5
 1356              		.loc 1 654 0
 1357 0658 012A     		cmp	r2, #1
 1358              		.loc 1 651 0
 1359 065a 1C61     		str	r4, [r3, #16]
 1360              	.LVL122:
 1361              		.loc 1 654 0
 1362 065c 22D0     		beq	.L167
 1363              	.L149:
 1364              		.loc 1 659 0
 1365 065e CB78     		ldrb	r3, [r1, #3]	@ zero_extendqisi2
 1366 0660 012B     		cmp	r3, #1
 1367 0662 28D0     		beq	.L168
 1368              	.LVL123:
 1369              	.L150:
 1370              		.loc 1 671 0
 1371 0664 0A78     		ldrb	r2, [r1]	@ zero_extendqisi2
 1372 0666 4FF43063 		mov	r3, #2816
 1373 066a 03EB4213 		add	r3, r3, r2, lsl #5
 1374 066e C258     		ldr	r2, [r0, r3]
 1375 0670 42F00442 		orr	r2, r2, #-2080374784
 1376 0674 C250     		str	r2, [r0, r3]
 1377              	.LVL124:
 1378              	.L160:
 1379              		.loc 1 674 0
 1380 0676 0020     		movs	r0, #0
 1381 0678 BDE8F081 		pop	{r4, r5, r6, r7, r8, pc}
 1382              	.LVL125:
 1383              	.L166:
 1384              		.loc 1 644 0
 1385 067c 0C78     		ldrb	r4, [r1]	@ zero_extendqisi2
 1386 067e 8D68     		ldr	r5, [r1, #8]
 1387 0680 13FB0474 		smlabb	r4, r3, r4, r7
 1388 0684 0444     		add	r4, r4, r0
 1389 0686 C5F31205 		ubfx	r5, r5, #0, #19
 1390 068a 2669     		ldr	r6, [r4, #16]
 1391 068c 3543     		orrs	r5, r5, r6
 1392 068e 2561     		str	r5, [r4, #16]
 1393              		.loc 1 645 0
 1394 0690 0C78     		ldrb	r4, [r1]	@ zero_extendqisi2
 1395 0692 13FB0473 		smlabb	r3, r3, r4, r7
 1396 0696 0344     		add	r3, r3, r0
 1397              		.loc 1 654 0
 1398 0698 012A     		cmp	r2, #1
 1399              		.loc 1 645 0
 1400 069a 1C69     		ldr	r4, [r3, #16]
 1401 069c 44F40024 		orr	r4, r4, #524288
 1402 06a0 1C61     		str	r4, [r3, #16]
 1403              		.loc 1 654 0
 1404 06a2 DCD1     		bne	.L149
 1405              	.LVL126:
 1406              	.L167:
 1407              		.loc 1 656 0
 1408 06a4 0B78     		ldrb	r3, [r1]	@ zero_extendqisi2
 1409 06a6 CA68     		ldr	r2, [r1, #12]
 1410              	.LVL127:
ARM GAS  /tmp/cclsZlw8.s 			page 26


 1411 06a8 00EB4313 		add	r3, r0, r3, lsl #5
 1412 06ac C3F8142B 		str	r2, [r3, #2836]
 1413              		.loc 1 659 0
 1414 06b0 CB78     		ldrb	r3, [r1, #3]	@ zero_extendqisi2
 1415 06b2 012B     		cmp	r3, #1
 1416 06b4 D6D1     		bne	.L150
 1417              	.L168:
 1418              		.loc 1 661 0
 1419 06b6 D0F80838 		ldr	r3, [r0, #2056]
 1420              		.loc 1 663 0
 1421 06ba 0A78     		ldrb	r2, [r1]	@ zero_extendqisi2
 1422              		.loc 1 661 0
 1423 06bc 13F4807F 		tst	r3, #256
 1424 06c0 4FF43063 		mov	r3, #2816
 1425 06c4 03EB4213 		add	r3, r3, r2, lsl #5
 1426              		.loc 1 663 0
 1427 06c8 C258     		ldr	r2, [r0, r3]
 1428 06ca 0CBF     		ite	eq
 1429 06cc 42F00052 		orreq	r2, r2, #536870912
 1430              		.loc 1 667 0
 1431 06d0 42F08052 		orrne	r2, r2, #268435456
 1432 06d4 C250     		str	r2, [r0, r3]
 1433 06d6 C5E7     		b	.L150
 1434              	.LVL128:
 1435              	.L165:
 1436              		.loc 1 572 0
 1437 06d8 4B69     		ldr	r3, [r1, #20]
 1438              		.loc 1 574 0
 1439 06da 0D78     		ldrb	r5, [r1]	@ zero_extendqisi2
 1440              		.loc 1 572 0
 1441 06dc 002B     		cmp	r3, #0
 1442 06de 42D1     		bne	.L138
 1443              		.loc 1 574 0
 1444 06e0 2024     		movs	r4, #32
 1445 06e2 4FF41067 		mov	r7, #2304
 1446 06e6 14FB0575 		smlabb	r5, r4, r5, r7
 1447 06ea 0544     		add	r5, r5, r0
 1448 06ec 2E69     		ldr	r6, [r5, #16]
 1449 06ee 26F0FF56 		bic	r6, r6, #534773760
 1450 06f2 26F4C016 		bic	r6, r6, #1572864
 1451 06f6 2E61     		str	r6, [r5, #16]
 1452              		.loc 1 575 0
 1453 06f8 0D78     		ldrb	r5, [r1]	@ zero_extendqisi2
 1454 06fa 14FB0575 		smlabb	r5, r4, r5, r7
 1455 06fe 0544     		add	r5, r5, r0
 1456 0700 2E69     		ldr	r6, [r5, #16]
 1457 0702 46F40026 		orr	r6, r6, #524288
 1458 0706 2E61     		str	r6, [r5, #16]
 1459              		.loc 1 576 0
 1460 0708 0D78     		ldrb	r5, [r1]	@ zero_extendqisi2
 1461 070a 14FB0574 		smlabb	r4, r4, r5, r7
 1462 070e 0444     		add	r4, r4, r0
 1463 0710 2569     		ldr	r5, [r4, #16]
 1464 0712 ED0C     		lsrs	r5, r5, #19
 1465 0714 ED04     		lsls	r5, r5, #19
 1466 0716 2561     		str	r5, [r4, #16]
 1467              	.L139:
ARM GAS  /tmp/cclsZlw8.s 			page 27


 1468              		.loc 1 597 0
 1469 0718 012A     		cmp	r2, #1
 1470 071a 62D0     		beq	.L152
 1471              		.loc 1 603 0
 1472 071c CC78     		ldrb	r4, [r1, #3]	@ zero_extendqisi2
 1473 071e 012C     		cmp	r4, #1
 1474 0720 66D0     		beq	.L143
 1475              	.L153:
 1476              		.loc 1 606 0
 1477 0722 53B1     		cbz	r3, .L144
 1478              		.loc 1 608 0
 1479 0724 0F78     		ldrb	r7, [r1]	@ zero_extendqisi2
 1480 0726 D0F83468 		ldr	r6, [r0, #2100]
 1481 072a 0125     		movs	r5, #1
 1482 072c BD40     		lsls	r5, r5, r7
 1483 072e 3543     		orrs	r5, r5, r6
 1484 0730 C0F83458 		str	r5, [r0, #2100]
 1485              	.L142:
 1486              		.loc 1 613 0
 1487 0734 CC78     		ldrb	r4, [r1, #3]	@ zero_extendqisi2
 1488 0736 012C     		cmp	r4, #1
 1489 0738 5AD0     		beq	.L143
 1490              	.L144:
 1491              		.loc 1 626 0
 1492 073a 0D78     		ldrb	r5, [r1]	@ zero_extendqisi2
 1493 073c 4FF41064 		mov	r4, #2304
 1494 0740 04EB4514 		add	r4, r4, r5, lsl #5
 1495 0744 0559     		ldr	r5, [r0, r4]
 1496 0746 45F00445 		orr	r5, r5, #-2080374784
 1497 074a 0551     		str	r5, [r0, r4]
 1498              		.loc 1 628 0
 1499 074c CC78     		ldrb	r4, [r1, #3]	@ zero_extendqisi2
 1500 074e 012C     		cmp	r4, #1
 1501 0750 91D1     		bne	.L160
 1502              		.loc 1 630 0
 1503 0752 CD68     		ldr	r5, [r1, #12]
 1504 0754 0C78     		ldrb	r4, [r1]	@ zero_extendqisi2
 1505              	.LVL129:
 1506              	.LBB48:
 1507              	.LBB49:
 1508              		.loc 1 779 0
 1509 0756 002A     		cmp	r2, #0
 1510 0758 8DD1     		bne	.L160
 1511 075a 2946     		mov	r1, r5
 1512              	.LVL130:
 1513 075c 2246     		mov	r2, r4
 1514              	.LVL131:
 1515 075e 9BB2     		uxth	r3, r3
 1516              	.LVL132:
 1517 0760 FFF76EFC 		bl	USB_WritePacket.part.1
 1518              	.LVL133:
 1519 0764 87E7     		b	.L160
 1520              	.LVL134:
 1521              	.L138:
 1522              	.LBE49:
 1523              	.LBE48:
 1524              		.loc 1 585 0
ARM GAS  /tmp/cclsZlw8.s 			page 28


 1525 0766 2026     		movs	r6, #32
 1526 0768 4FF41067 		mov	r7, #2304
 1527 076c 16FB0575 		smlabb	r5, r6, r5, r7
 1528 0770 0544     		add	r5, r5, r0
 1529              		.loc 1 587 0
 1530 0772 D1F808C0 		ldr	ip, [r1, #8]
 1531              		.loc 1 585 0
 1532 0776 D5F81080 		ldr	r8, [r5, #16]
 1533              		.loc 1 587 0
 1534 077a DFF8B8E0 		ldr	lr, .L170
 1535              		.loc 1 585 0
 1536 077e 4FEAD848 		lsr	r8, r8, #19
 1537 0782 4FEAC848 		lsl	r8, r8, #19
 1538 0786 C5F81080 		str	r8, [r5, #16]
 1539              		.loc 1 586 0
 1540 078a 0D78     		ldrb	r5, [r1]	@ zero_extendqisi2
 1541 078c 16FB0575 		smlabb	r5, r6, r5, r7
 1542 0790 0544     		add	r5, r5, r0
 1543              		.loc 1 587 0
 1544 0792 03EB0C04 		add	r4, r3, ip
 1545              		.loc 1 586 0
 1546 0796 D5F81080 		ldr	r8, [r5, #16]
 1547              		.loc 1 587 0
 1548 079a 013C     		subs	r4, r4, #1
 1549 079c B4FBFCF4 		udiv	r4, r4, ip
 1550              		.loc 1 586 0
 1551 07a0 28F0FF5C 		bic	ip, r8, #534773760
 1552 07a4 2CF4C01C 		bic	ip, ip, #1572864
 1553 07a8 C5F810C0 		str	ip, [r5, #16]
 1554              		.loc 1 587 0
 1555 07ac 0D78     		ldrb	r5, [r1]	@ zero_extendqisi2
 1556 07ae 16FB0575 		smlabb	r5, r6, r5, r7
 1557 07b2 0544     		add	r5, r5, r0
 1558 07b4 E404     		lsls	r4, r4, #19
 1559 07b6 D5F810C0 		ldr	ip, [r5, #16]
 1560 07ba 04EA0E0E 		and	lr, r4, lr
 1561 07be 4EEA0C04 		orr	r4, lr, ip
 1562 07c2 2C61     		str	r4, [r5, #16]
 1563              		.loc 1 588 0
 1564 07c4 0C78     		ldrb	r4, [r1]	@ zero_extendqisi2
 1565 07c6 16FB0474 		smlabb	r4, r6, r4, r7
 1566 07ca 0444     		add	r4, r4, r0
 1567 07cc C3F3120E 		ubfx	lr, r3, #0, #19
 1568 07d0 2569     		ldr	r5, [r4, #16]
 1569 07d2 4EEA0505 		orr	r5, lr, r5
 1570 07d6 2561     		str	r5, [r4, #16]
 1571              		.loc 1 590 0
 1572 07d8 CC78     		ldrb	r4, [r1, #3]	@ zero_extendqisi2
 1573 07da 012C     		cmp	r4, #1
 1574 07dc 19D0     		beq	.L169
 1575              		.loc 1 597 0
 1576 07de 012A     		cmp	r2, #1
 1577 07e0 9FD1     		bne	.L153
 1578              	.L152:
 1579              		.loc 1 599 0
 1580 07e2 0C78     		ldrb	r4, [r1]	@ zero_extendqisi2
 1581 07e4 0D69     		ldr	r5, [r1, #16]
ARM GAS  /tmp/cclsZlw8.s 			page 29


 1582 07e6 00EB4414 		add	r4, r0, r4, lsl #5
 1583 07ea C4F81459 		str	r5, [r4, #2324]
 1584 07ee A1E7     		b	.L142
 1585              	.L143:
 1586              		.loc 1 615 0
 1587 07f0 D0F80848 		ldr	r4, [r0, #2056]
 1588              		.loc 1 617 0
 1589 07f4 0D78     		ldrb	r5, [r1]	@ zero_extendqisi2
 1590              		.loc 1 615 0
 1591 07f6 14F4807F 		tst	r4, #256
 1592 07fa 4FF41064 		mov	r4, #2304
 1593 07fe 04EB4514 		add	r4, r4, r5, lsl #5
 1594              		.loc 1 617 0
 1595 0802 0559     		ldr	r5, [r0, r4]
 1596 0804 0CBF     		ite	eq
 1597 0806 45F00055 		orreq	r5, r5, #536870912
 1598              		.loc 1 621 0
 1599 080a 45F08055 		orrne	r5, r5, #268435456
 1600 080e 0551     		str	r5, [r0, r4]
 1601 0810 93E7     		b	.L144
 1602              	.L169:
 1603              		.loc 1 592 0
 1604 0812 0C78     		ldrb	r4, [r1]	@ zero_extendqisi2
 1605 0814 16FB0474 		smlabb	r4, r6, r4, r7
 1606 0818 0444     		add	r4, r4, r0
 1607 081a 2569     		ldr	r5, [r4, #16]
 1608 081c 25F0C045 		bic	r5, r5, #1610612736
 1609 0820 2561     		str	r5, [r4, #16]
 1610              		.loc 1 593 0
 1611 0822 0C78     		ldrb	r4, [r1]	@ zero_extendqisi2
 1612 0824 16FB0476 		smlabb	r6, r6, r4, r7
 1613 0828 0644     		add	r6, r6, r0
 1614 082a 3469     		ldr	r4, [r6, #16]
 1615 082c 44F00054 		orr	r4, r4, #536870912
 1616 0830 3461     		str	r4, [r6, #16]
 1617 0832 71E7     		b	.L139
 1618              	.L171:
 1619              		.align	2
 1620              	.L170:
 1621 0834 0000F81F 		.word	536346624
 1622              		.cfi_endproc
 1623              	.LFE136:
 1624              		.size	USB_EPStartXfer, .-USB_EPStartXfer
 1625              		.align	2
 1626 0838 AFF30080 		.p2align 4,,15
 1626      AFF30080 
 1627              		.global	USB_EP0StartXfer
 1628              		.thumb
 1629              		.thumb_func
 1630              		.type	USB_EP0StartXfer, %function
 1631              	USB_EP0StartXfer:
 1632              	.LFB137:
 1633              		.loc 1 687 0
 1634              		.cfi_startproc
 1635              		@ args = 0, pretend = 0, frame = 0
 1636              		@ frame_needed = 0, uses_anonymous_args = 0
 1637              	.LVL135:
ARM GAS  /tmp/cclsZlw8.s 			page 30


 1638              		.loc 1 689 0
 1639 0840 4B78     		ldrb	r3, [r1, #1]	@ zero_extendqisi2
 1640 0842 012B     		cmp	r3, #1
 1641              		.loc 1 687 0
 1642 0844 F0B5     		push	{r4, r5, r6, r7, lr}
 1643              		.cfi_def_cfa_offset 20
 1644              		.cfi_offset 4, -20
 1645              		.cfi_offset 5, -16
 1646              		.cfi_offset 6, -12
 1647              		.cfi_offset 7, -8
 1648              		.cfi_offset 14, -4
 1649              		.loc 1 689 0
 1650 0846 3BD0     		beq	.L188
 1651              		.loc 1 739 0
 1652 0848 0D78     		ldrb	r5, [r1]	@ zero_extendqisi2
 1653              		.loc 1 742 0
 1654 084a 4F69     		ldr	r7, [r1, #20]
 1655              		.loc 1 739 0
 1656 084c 2024     		movs	r4, #32
 1657 084e 4FF43063 		mov	r3, #2816
 1658 0852 14FB0535 		smlabb	r5, r4, r5, r3
 1659 0856 0544     		add	r5, r5, r0
 1660 0858 2E69     		ldr	r6, [r5, #16]
 1661 085a F60C     		lsrs	r6, r6, #19
 1662 085c F604     		lsls	r6, r6, #19
 1663 085e 2E61     		str	r6, [r5, #16]
 1664              		.loc 1 740 0
 1665 0860 0D78     		ldrb	r5, [r1]	@ zero_extendqisi2
 1666 0862 14FB0533 		smlabb	r3, r4, r5, r3
 1667 0866 0344     		add	r3, r3, r0
 1668 0868 1C69     		ldr	r4, [r3, #16]
 1669 086a 24F0FF54 		bic	r4, r4, #534773760
 1670 086e 24F4C014 		bic	r4, r4, #1572864
 1671 0872 1C61     		str	r4, [r3, #16]
 1672              		.loc 1 744 0
 1673 0874 8C68     		ldr	r4, [r1, #8]
 1674              		.loc 1 742 0
 1675 0876 0FBB     		cbnz	r7, .L189
 1676              	.L182:
 1677              		.loc 1 747 0
 1678 0878 0B78     		ldrb	r3, [r1]	@ zero_extendqisi2
 1679 087a 2025     		movs	r5, #32
 1680 087c 4FF43066 		mov	r6, #2816
 1681 0880 15FB0363 		smlabb	r3, r5, r3, r6
 1682 0884 0344     		add	r3, r3, r0
 1683              		.loc 1 748 0
 1684 0886 C4F31204 		ubfx	r4, r4, #0, #19
 1685              		.loc 1 747 0
 1686 088a 1F69     		ldr	r7, [r3, #16]
 1687 088c 47F40027 		orr	r7, r7, #524288
 1688 0890 1F61     		str	r7, [r3, #16]
 1689              		.loc 1 748 0
 1690 0892 0B78     		ldrb	r3, [r1]	@ zero_extendqisi2
 1691 0894 15FB0363 		smlabb	r3, r5, r3, r6
 1692 0898 0344     		add	r3, r3, r0
 1693              		.loc 1 751 0
 1694 089a 012A     		cmp	r2, #1
ARM GAS  /tmp/cclsZlw8.s 			page 31


 1695              		.loc 1 748 0
 1696 089c 1F69     		ldr	r7, [r3, #16]
 1697 089e 44EA0704 		orr	r4, r4, r7
 1698 08a2 1C61     		str	r4, [r3, #16]
 1699              		.loc 1 751 0
 1700 08a4 59D0     		beq	.L190
 1701              	.LVL136:
 1702              	.L183:
 1703              		.loc 1 757 0
 1704 08a6 0A78     		ldrb	r2, [r1]	@ zero_extendqisi2
 1705 08a8 4FF43063 		mov	r3, #2816
 1706 08ac 03EB4213 		add	r3, r3, r2, lsl #5
 1707 08b0 C258     		ldr	r2, [r0, r3]
 1708 08b2 42F00442 		orr	r2, r2, #-2080374784
 1709 08b6 C250     		str	r2, [r0, r3]
 1710              		.loc 1 760 0
 1711 08b8 0020     		movs	r0, #0
 1712              	.LVL137:
 1713 08ba F0BD     		pop	{r4, r5, r6, r7, pc}
 1714              	.LVL138:
 1715              	.L189:
 1716              		.loc 1 744 0
 1717 08bc 4C61     		str	r4, [r1, #20]
 1718 08be DBE7     		b	.L182
 1719              	.L188:
 1720              		.loc 1 692 0
 1721 08c0 D1F814E0 		ldr	lr, [r1, #20]
 1722 08c4 BEF1000F 		cmp	lr, #0
 1723 08c8 4ED0     		beq	.L191
 1724              		.loc 1 705 0
 1725 08ca 0D78     		ldrb	r5, [r1]	@ zero_extendqisi2
 1726              		.loc 1 708 0
 1727 08cc 8E68     		ldr	r6, [r1, #8]
 1728              		.loc 1 705 0
 1729 08ce 2024     		movs	r4, #32
 1730 08d0 4FF41063 		mov	r3, #2304
 1731 08d4 14FB0535 		smlabb	r5, r4, r5, r3
 1732 08d8 0544     		add	r5, r5, r0
 1733              		.loc 1 708 0
 1734 08da B645     		cmp	lr, r6
 1735              		.loc 1 705 0
 1736 08dc 2F69     		ldr	r7, [r5, #16]
 1737 08de 4FEAD747 		lsr	r7, r7, #19
 1738 08e2 4FEAC747 		lsl	r7, r7, #19
 1739 08e6 2F61     		str	r7, [r5, #16]
 1740              		.loc 1 706 0
 1741 08e8 0D78     		ldrb	r5, [r1]	@ zero_extendqisi2
 1742 08ea 14FB0533 		smlabb	r3, r4, r5, r3
 1743 08ee 0344     		add	r3, r3, r0
 1744 08f0 98BF     		it	ls
 1745 08f2 7646     		movls	r6, lr
 1746 08f4 1C69     		ldr	r4, [r3, #16]
 1747 08f6 24F0FF54 		bic	r4, r4, #534773760
 1748 08fa 24F4C014 		bic	r4, r4, #1572864
 1749 08fe 1C61     		str	r4, [r3, #16]
 1750              		.loc 1 712 0
 1751 0900 0D78     		ldrb	r5, [r1]	@ zero_extendqisi2
ARM GAS  /tmp/cclsZlw8.s 			page 32


 1752              		.loc 1 710 0
 1753 0902 88BF     		it	hi
 1754 0904 4E61     		strhi	r6, [r1, #20]
 1755              		.loc 1 712 0
 1756 0906 2024     		movs	r4, #32
 1757 0908 4FF41063 		mov	r3, #2304
 1758 090c 14FB0535 		smlabb	r5, r4, r5, r3
 1759 0910 0544     		add	r5, r5, r0
 1760              		.loc 1 713 0
 1761 0912 C6F31206 		ubfx	r6, r6, #0, #19
 1762              		.loc 1 712 0
 1763 0916 2F69     		ldr	r7, [r5, #16]
 1764 0918 47F40027 		orr	r7, r7, #524288
 1765 091c 2F61     		str	r7, [r5, #16]
 1766              		.loc 1 713 0
 1767 091e 0D78     		ldrb	r5, [r1]	@ zero_extendqisi2
 1768 0920 14FB0533 		smlabb	r3, r4, r5, r3
 1769 0924 0344     		add	r3, r3, r0
 1770 0926 1C69     		ldr	r4, [r3, #16]
 1771 0928 2643     		orrs	r6, r6, r4
 1772 092a 1E61     		str	r6, [r3, #16]
 1773              	.L175:
 1774              		.loc 1 717 0
 1775 092c 012A     		cmp	r2, #1
 1776 092e 39D0     		beq	.L192
 1777              		.loc 1 724 0
 1778 0930 4B69     		ldr	r3, [r1, #20]
 1779 0932 3BB1     		cbz	r3, .L179
 1780              		.loc 1 726 0
 1781 0934 0D78     		ldrb	r5, [r1]	@ zero_extendqisi2
 1782 0936 D0F83448 		ldr	r4, [r0, #2100]
 1783 093a 0122     		movs	r2, #1
 1784              	.LVL139:
 1785 093c AA40     		lsls	r2, r2, r5
 1786 093e 2243     		orrs	r2, r2, r4
 1787 0940 C0F83428 		str	r2, [r0, #2100]
 1788              	.L179:
 1789              		.loc 1 731 0
 1790 0944 0A78     		ldrb	r2, [r1]	@ zero_extendqisi2
 1791 0946 4FF41063 		mov	r3, #2304
 1792 094a 03EB4213 		add	r3, r3, r2, lsl #5
 1793 094e C258     		ldr	r2, [r0, r3]
 1794 0950 42F00442 		orr	r2, r2, #-2080374784
 1795 0954 C250     		str	r2, [r0, r3]
 1796              		.loc 1 760 0
 1797 0956 0020     		movs	r0, #0
 1798              	.LVL140:
 1799 0958 F0BD     		pop	{r4, r5, r6, r7, pc}
 1800              	.LVL141:
 1801              	.L190:
 1802              		.loc 1 753 0
 1803 095a 0A78     		ldrb	r2, [r1]	@ zero_extendqisi2
 1804              	.LVL142:
 1805 095c CB68     		ldr	r3, [r1, #12]
 1806 095e 15FB0265 		smlabb	r5, r5, r2, r6
 1807 0962 0544     		add	r5, r5, r0
 1808 0964 6B61     		str	r3, [r5, #20]
ARM GAS  /tmp/cclsZlw8.s 			page 33


 1809 0966 9EE7     		b	.L183
 1810              	.LVL143:
 1811              	.L191:
 1812              		.loc 1 694 0
 1813 0968 0C78     		ldrb	r4, [r1]	@ zero_extendqisi2
 1814 096a 2023     		movs	r3, #32
 1815 096c 4FF41066 		mov	r6, #2304
 1816 0970 13FB0464 		smlabb	r4, r3, r4, r6
 1817 0974 0444     		add	r4, r4, r0
 1818 0976 2569     		ldr	r5, [r4, #16]
 1819 0978 25F0FF55 		bic	r5, r5, #534773760
 1820 097c 25F4C015 		bic	r5, r5, #1572864
 1821 0980 2561     		str	r5, [r4, #16]
 1822              		.loc 1 695 0
 1823 0982 0C78     		ldrb	r4, [r1]	@ zero_extendqisi2
 1824 0984 13FB0464 		smlabb	r4, r3, r4, r6
 1825 0988 0444     		add	r4, r4, r0
 1826 098a 2569     		ldr	r5, [r4, #16]
 1827 098c 45F40025 		orr	r5, r5, #524288
 1828 0990 2561     		str	r5, [r4, #16]
 1829              		.loc 1 696 0
 1830 0992 0C78     		ldrb	r4, [r1]	@ zero_extendqisi2
 1831 0994 13FB0463 		smlabb	r3, r3, r4, r6
 1832 0998 0344     		add	r3, r3, r0
 1833 099a 1C69     		ldr	r4, [r3, #16]
 1834 099c E40C     		lsrs	r4, r4, #19
 1835 099e E404     		lsls	r4, r4, #19
 1836 09a0 1C61     		str	r4, [r3, #16]
 1837 09a2 C3E7     		b	.L175
 1838              	.L192:
 1839              		.loc 1 719 0
 1840 09a4 0B78     		ldrb	r3, [r1]	@ zero_extendqisi2
 1841 09a6 0A69     		ldr	r2, [r1, #16]
 1842              	.LVL144:
 1843 09a8 00EB4313 		add	r3, r0, r3, lsl #5
 1844 09ac C3F81429 		str	r2, [r3, #2324]
 1845 09b0 C8E7     		b	.L179
 1846              		.cfi_endproc
 1847              	.LFE137:
 1848              		.size	USB_EP0StartXfer, .-USB_EP0StartXfer
 1849 09b2 00BF     		.align	2
 1850 09b4 AFF30080 		.p2align 4,,15
 1850      AFF30080 
 1850      AFF30080 
 1851              		.global	USB_WritePacket
 1852              		.thumb
 1853              		.thumb_func
 1854              		.type	USB_WritePacket, %function
 1855              	USB_WritePacket:
 1856              	.LFB138:
 1857              		.loc 1 776 0
 1858              		.cfi_startproc
 1859              		@ args = 4, pretend = 0, frame = 0
 1860              		@ frame_needed = 0, uses_anonymous_args = 0
 1861              	.LVL145:
 1862 09c0 10B5     		push	{r4, lr}
 1863              		.cfi_def_cfa_offset 8
ARM GAS  /tmp/cclsZlw8.s 			page 34


 1864              		.cfi_offset 4, -8
 1865              		.cfi_offset 14, -4
 1866              		.loc 1 776 0
 1867 09c2 9DF80840 		ldrb	r4, [sp, #8]	@ zero_extendqisi2
 1868              		.loc 1 779 0
 1869 09c6 0CB9     		cbnz	r4, .L194
 1870 09c8 FFF73AFB 		bl	USB_WritePacket.part.1
 1871              	.LVL146:
 1872              	.L194:
 1873              		.loc 1 788 0
 1874 09cc 0020     		movs	r0, #0
 1875 09ce 10BD     		pop	{r4, pc}
 1876              		.cfi_endproc
 1877              	.LFE138:
 1878              		.size	USB_WritePacket, .-USB_WritePacket
 1879              		.align	2
 1880              		.p2align 4,,15
 1881              		.global	USB_ReadPacket
 1882              		.thumb
 1883              		.thumb_func
 1884              		.type	USB_ReadPacket, %function
 1885              	USB_ReadPacket:
 1886              	.LFB139:
 1887              		.loc 1 804 0
 1888              		.cfi_startproc
 1889              		@ args = 0, pretend = 0, frame = 0
 1890              		@ frame_needed = 0, uses_anonymous_args = 0
 1891              		@ link register save eliminated.
 1892              	.LVL147:
 1893              		.loc 1 806 0
 1894 09d0 0332     		adds	r2, r2, #3
 1895              	.LVL148:
 1896              		.loc 1 808 0
 1897 09d2 9210     		asrs	r2, r2, #2
 1898              	.LVL149:
 1899 09d4 0FD0     		beq	.L204
 1900              		.loc 1 804 0
 1901 09d6 70B4     		push	{r4, r5, r6}
 1902              		.cfi_def_cfa_offset 12
 1903              		.cfi_offset 4, -12
 1904              		.cfi_offset 5, -8
 1905              		.cfi_offset 6, -4
 1906              		.loc 1 808 0
 1907 09d8 0023     		movs	r3, #0
 1908 09da 00F58056 		add	r6, r0, #4096
 1909 09de 0C46     		mov	r4, r1
 1910              	.LVL150:
 1911              	.L198:
 1912              		.loc 1 808 0 is_stmt 0 discriminator 3
 1913 09e0 0133     		adds	r3, r3, #1
 1914              	.LVL151:
 1915              		.loc 1 810 0 is_stmt 1 discriminator 3
 1916 09e2 3568     		ldr	r5, [r6]
 1917 09e4 44F8045B 		str	r5, [r4], #4
 1918              	.LVL152:
 1919              		.loc 1 808 0 discriminator 3
 1920 09e8 9A42     		cmp	r2, r3
ARM GAS  /tmp/cclsZlw8.s 			page 35


 1921 09ea F9D1     		bne	.L198
 1922 09ec 01EB8201 		add	r1, r1, r2, lsl #2
 1923              		.loc 1 814 0
 1924 09f0 0846     		mov	r0, r1
 1925              	.LVL153:
 1926 09f2 70BC     		pop	{r4, r5, r6}
 1927              		.cfi_restore 6
 1928              		.cfi_restore 5
 1929              		.cfi_restore 4
 1930              		.cfi_def_cfa_offset 0
 1931              	.LVL154:
 1932 09f4 7047     		bx	lr
 1933              	.LVL155:
 1934              	.L204:
 1935 09f6 0846     		mov	r0, r1
 1936              	.LVL156:
 1937 09f8 7047     		bx	lr
 1938              		.cfi_endproc
 1939              	.LFE139:
 1940              		.size	USB_ReadPacket, .-USB_ReadPacket
 1941 09fa 00BF     		.align	2
 1942 09fc AFF30080 		.p2align 4,,15
 1943              		.global	USB_EPSetStall
 1944              		.thumb
 1945              		.thumb_func
 1946              		.type	USB_EPSetStall, %function
 1947              	USB_EPSetStall:
 1948              	.LFB140:
 1949              		.loc 1 823 0
 1950              		.cfi_startproc
 1951              		@ args = 0, pretend = 0, frame = 0
 1952              		@ frame_needed = 0, uses_anonymous_args = 0
 1953              		@ link register save eliminated.
 1954              	.LVL157:
 1955              		.loc 1 824 0
 1956 0a00 4B78     		ldrb	r3, [r1, #1]	@ zero_extendqisi2
 1957 0a02 012B     		cmp	r3, #1
 1958              		.loc 1 826 0
 1959 0a04 0B78     		ldrb	r3, [r1]	@ zero_extendqisi2
 1960              		.loc 1 823 0
 1961 0a06 70B4     		push	{r4, r5, r6}
 1962              		.cfi_def_cfa_offset 12
 1963              		.cfi_offset 4, -12
 1964              		.cfi_offset 5, -8
 1965              		.cfi_offset 6, -4
 1966              		.loc 1 826 0
 1967 0a08 4FF02002 		mov	r2, #32
 1968 0a0c 0CBF     		ite	eq
 1969 0a0e 4FF41065 		moveq	r5, #2304
 1970 0a12 4FF43065 		movne	r5, #2816
 1971 0a16 12FB0353 		smlabb	r3, r2, r3, r5
 1972              		.loc 1 834 0
 1973 0a1a 1C18     		adds	r4, r3, r0
 1974 0a1c 1E58     		ldr	r6, [r3, r0]
 1975 0a1e 002E     		cmp	r6, #0
 1976 0a20 07DB     		blt	.L209
 1977              		.loc 1 836 0
ARM GAS  /tmp/cclsZlw8.s 			page 36


 1978 0a22 1C58     		ldr	r4, [r3, r0]
 1979 0a24 24F08044 		bic	r4, r4, #1073741824
 1980 0a28 1C50     		str	r4, [r3, r0]
 1981 0a2a 0B78     		ldrb	r3, [r1]	@ zero_extendqisi2
 1982 0a2c 12FB0352 		smlabb	r2, r2, r3, r5
 1983 0a30 1418     		adds	r4, r2, r0
 1984              	.L209:
 1985              		.loc 1 838 0
 1986 0a32 2368     		ldr	r3, [r4]
 1987 0a34 43F40013 		orr	r3, r3, #2097152
 1988 0a38 2360     		str	r3, [r4]
 1989              		.loc 1 841 0
 1990 0a3a 0020     		movs	r0, #0
 1991              	.LVL158:
 1992 0a3c 70BC     		pop	{r4, r5, r6}
 1993              		.cfi_restore 6
 1994              		.cfi_restore 5
 1995              		.cfi_restore 4
 1996              		.cfi_def_cfa_offset 0
 1997 0a3e 7047     		bx	lr
 1998              		.cfi_endproc
 1999              	.LFE140:
 2000              		.size	USB_EPSetStall, .-USB_EPSetStall
 2001              		.align	2
 2002              		.p2align 4,,15
 2003              		.global	USB_EPClearStall
 2004              		.thumb
 2005              		.thumb_func
 2006              		.type	USB_EPClearStall, %function
 2007              	USB_EPClearStall:
 2008              	.LFB141:
 2009              		.loc 1 851 0
 2010              		.cfi_startproc
 2011              		@ args = 0, pretend = 0, frame = 0
 2012              		@ frame_needed = 0, uses_anonymous_args = 0
 2013              		@ link register save eliminated.
 2014              	.LVL159:
 2015              		.loc 1 852 0
 2016 0a40 4B78     		ldrb	r3, [r1, #1]	@ zero_extendqisi2
 2017 0a42 012B     		cmp	r3, #1
 2018              		.loc 1 854 0
 2019 0a44 0B78     		ldrb	r3, [r1]	@ zero_extendqisi2
 2020              		.loc 1 851 0
 2021 0a46 30B4     		push	{r4, r5}
 2022              		.cfi_def_cfa_offset 8
 2023              		.cfi_offset 4, -8
 2024              		.cfi_offset 5, -4
 2025 0a48 0CBF     		ite	eq
 2026 0a4a 4FF41065 		moveq	r5, #2304
 2027 0a4e 4FF43065 		movne	r5, #2816
 2028              		.loc 1 854 0
 2029 0a52 2024     		movs	r4, #32
 2030 0a54 14FB0353 		smlabb	r3, r4, r3, r5
 2031              		.loc 1 862 0
 2032 0a58 1A58     		ldr	r2, [r3, r0]
 2033 0a5a 22F40012 		bic	r2, r2, #2097152
 2034 0a5e 1A50     		str	r2, [r3, r0]
ARM GAS  /tmp/cclsZlw8.s 			page 37


 2035              		.loc 1 863 0
 2036 0a60 CB78     		ldrb	r3, [r1, #3]	@ zero_extendqisi2
 2037 0a62 023B     		subs	r3, r3, #2
 2038 0a64 012B     		cmp	r3, #1
 2039 0a66 06D8     		bhi	.L217
 2040              		.loc 1 865 0
 2041 0a68 0B78     		ldrb	r3, [r1]	@ zero_extendqisi2
 2042 0a6a 14FB0354 		smlabb	r4, r4, r3, r5
 2043 0a6e 2358     		ldr	r3, [r4, r0]
 2044 0a70 43F08053 		orr	r3, r3, #268435456
 2045 0a74 2350     		str	r3, [r4, r0]
 2046              	.L217:
 2047              		.loc 1 869 0
 2048 0a76 0020     		movs	r0, #0
 2049              	.LVL160:
 2050 0a78 30BC     		pop	{r4, r5}
 2051              		.cfi_restore 5
 2052              		.cfi_restore 4
 2053              		.cfi_def_cfa_offset 0
 2054 0a7a 7047     		bx	lr
 2055              		.cfi_endproc
 2056              	.LFE141:
 2057              		.size	USB_EPClearStall, .-USB_EPClearStall
 2058              		.align	2
 2059 0a7c AFF30080 		.p2align 4,,15
 2060              		.global	USB_StopDevice
 2061              		.thumb
 2062              		.thumb_func
 2063              		.type	USB_StopDevice, %function
 2064              	USB_StopDevice:
 2065              	.LFB142:
 2066              		.loc 1 877 0
 2067              		.cfi_startproc
 2068              		@ args = 0, pretend = 0, frame = 0
 2069              		@ frame_needed = 0, uses_anonymous_args = 0
 2070              		@ link register save eliminated.
 2071              	.LVL161:
 2072 0a80 10B4     		push	{r4}
 2073              		.cfi_def_cfa_offset 4
 2074              		.cfi_offset 4, -4
 2075 0a82 00F51063 		add	r3, r0, #2304
 2076 0a86 00F52E64 		add	r4, r0, #2784
 2077              		.loc 1 883 0
 2078 0a8a FF22     		movs	r2, #255
 2079              	.LVL162:
 2080              	.L224:
 2081              		.loc 1 883 0 is_stmt 0 discriminator 3
 2082 0a8c 9A60     		str	r2, [r3, #8]
 2083 0a8e 03F50071 		add	r1, r3, #512
 2084 0a92 2033     		adds	r3, r3, #32
 2085              		.loc 1 881 0 is_stmt 1 discriminator 3
 2086 0a94 A342     		cmp	r3, r4
 2087              		.loc 1 884 0 discriminator 3
 2088 0a96 8A60     		str	r2, [r1, #8]
 2089              		.loc 1 881 0 discriminator 3
 2090 0a98 F8D1     		bne	.L224
 2091              		.loc 1 889 0
ARM GAS  /tmp/cclsZlw8.s 			page 38


 2092 0a9a 0021     		movs	r1, #0
 2093              		.loc 1 886 0
 2094 0a9c 4FF0FF33 		mov	r3, #-1
 2095              	.LBB50:
 2096              	.LBB51:
 2097              		.loc 1 371 0
 2098 0aa0 1024     		movs	r4, #16
 2099              	.LBE51:
 2100              	.LBE50:
 2101              		.loc 1 886 0
 2102 0aa2 C0F81838 		str	r3, [r0, #2072]
 2103              		.loc 1 889 0
 2104 0aa6 C0F81018 		str	r1, [r0, #2064]
 2105              	.LBB54:
 2106              	.LBB52:
 2107              		.loc 1 371 0
 2108 0aaa 0D4B     		ldr	r3, .L241
 2109              	.LBE52:
 2110              	.LBE54:
 2111              		.loc 1 890 0
 2112 0aac C0F81418 		str	r1, [r0, #2068]
 2113              		.loc 1 891 0
 2114 0ab0 C0F81C18 		str	r1, [r0, #2076]
 2115              	.LVL163:
 2116              	.LBB55:
 2117              	.LBB53:
 2118              		.loc 1 371 0
 2119 0ab4 0461     		str	r4, [r0, #16]
 2120              	.LVL164:
 2121 0ab6 01E0     		b	.L225
 2122              	.LVL165:
 2123              	.L227:
 2124              		.loc 1 375 0
 2125 0ab8 013B     		subs	r3, r3, #1
 2126              	.LVL166:
 2127 0aba 02D0     		beq	.L226
 2128              	.LVL167:
 2129              	.L225:
 2130              		.loc 1 380 0
 2131 0abc 0269     		ldr	r2, [r0, #16]
 2132 0abe D106     		lsls	r1, r2, #27
 2133 0ac0 FAD4     		bmi	.L227
 2134              	.LVL168:
 2135              	.L226:
 2136              	.LBE53:
 2137              	.LBE55:
 2138              	.LBB56:
 2139              	.LBB57:
 2140              		.loc 1 347 0
 2141 0ac2 4FF40873 		mov	r3, #544
 2142 0ac6 0361     		str	r3, [r0, #16]
 2143              	.LVL169:
 2144 0ac8 054B     		ldr	r3, .L241
 2145 0aca 01E0     		b	.L228
 2146              	.LVL170:
 2147              	.L230:
 2148              		.loc 1 351 0
ARM GAS  /tmp/cclsZlw8.s 			page 39


 2149 0acc 013B     		subs	r3, r3, #1
 2150              	.LVL171:
 2151 0ace 02D0     		beq	.L229
 2152              	.LVL172:
 2153              	.L228:
 2154              		.loc 1 356 0
 2155 0ad0 0269     		ldr	r2, [r0, #16]
 2156 0ad2 9206     		lsls	r2, r2, #26
 2157 0ad4 FAD4     		bmi	.L230
 2158              	.LVL173:
 2159              	.L229:
 2160              	.LBE57:
 2161              	.LBE56:
 2162              		.loc 1 898 0
 2163 0ad6 0020     		movs	r0, #0
 2164              	.LVL174:
 2165 0ad8 5DF8044B 		ldr	r4, [sp], #4
 2166              		.cfi_restore 4
 2167              		.cfi_def_cfa_offset 0
 2168 0adc 7047     		bx	lr
 2169              	.L242:
 2170 0ade 00BF     		.align	2
 2171              	.L241:
 2172 0ae0 400D0300 		.word	200000
 2173              		.cfi_endproc
 2174              	.LFE142:
 2175              		.size	USB_StopDevice, .-USB_StopDevice
 2176              		.align	2
 2177 0ae4 AFF30080 		.p2align 4,,15
 2177      AFF30080 
 2177      AFF30080 
 2178              		.global	USB_SetDevAddress
 2179              		.thumb
 2180              		.thumb_func
 2181              		.type	USB_SetDevAddress, %function
 2182              	USB_SetDevAddress:
 2183              	.LFB143:
 2184              		.loc 1 908 0
 2185              		.cfi_startproc
 2186              		@ args = 0, pretend = 0, frame = 0
 2187              		@ frame_needed = 0, uses_anonymous_args = 0
 2188              		@ link register save eliminated.
 2189              	.LVL175:
 2190              		.loc 1 909 0
 2191 0af0 D0F80038 		ldr	r3, [r0, #2048]
 2192 0af4 23F4FE63 		bic	r3, r3, #2032
 2193 0af8 C0F80038 		str	r3, [r0, #2048]
 2194              		.loc 1 910 0
 2195 0afc D0F80038 		ldr	r3, [r0, #2048]
 2196 0b00 0901     		lsls	r1, r1, #4
 2197              	.LVL176:
 2198 0b02 01F4FE61 		and	r1, r1, #2032
 2199 0b06 1943     		orrs	r1, r1, r3
 2200 0b08 C0F80018 		str	r1, [r0, #2048]
 2201              		.loc 1 913 0
 2202 0b0c 0020     		movs	r0, #0
 2203              	.LVL177:
ARM GAS  /tmp/cclsZlw8.s 			page 40


 2204 0b0e 7047     		bx	lr
 2205              		.cfi_endproc
 2206              	.LFE143:
 2207              		.size	USB_SetDevAddress, .-USB_SetDevAddress
 2208              		.align	2
 2209              		.p2align 4,,15
 2210              		.global	USB_DevConnect
 2211              		.thumb
 2212              		.thumb_func
 2213              		.type	USB_DevConnect, %function
 2214              	USB_DevConnect:
 2215              	.LFB144:
 2216              		.loc 1 921 0
 2217              		.cfi_startproc
 2218              		@ args = 0, pretend = 0, frame = 0
 2219              		@ frame_needed = 0, uses_anonymous_args = 0
 2220              	.LVL178:
 2221              		.loc 1 922 0
 2222 0b10 00F50062 		add	r2, r0, #2048
 2223              		.loc 1 921 0
 2224 0b14 08B5     		push	{r3, lr}
 2225              		.cfi_def_cfa_offset 8
 2226              		.cfi_offset 3, -8
 2227              		.cfi_offset 14, -4
 2228              		.loc 1 922 0
 2229 0b16 5368     		ldr	r3, [r2, #4]
 2230 0b18 23F00203 		bic	r3, r3, #2
 2231              		.loc 1 923 0
 2232 0b1c 0320     		movs	r0, #3
 2233              	.LVL179:
 2234              		.loc 1 922 0
 2235 0b1e 5360     		str	r3, [r2, #4]
 2236              		.loc 1 923 0
 2237 0b20 FFF7FEFF 		bl	HAL_Delay
 2238              	.LVL180:
 2239              		.loc 1 926 0
 2240 0b24 0020     		movs	r0, #0
 2241 0b26 08BD     		pop	{r3, pc}
 2242              		.cfi_endproc
 2243              	.LFE144:
 2244              		.size	USB_DevConnect, .-USB_DevConnect
 2245              		.align	2
 2246 0b28 AFF30080 		.p2align 4,,15
 2246      AFF30080 
 2247              		.global	USB_DevDisconnect
 2248              		.thumb
 2249              		.thumb_func
 2250              		.type	USB_DevDisconnect, %function
 2251              	USB_DevDisconnect:
 2252              	.LFB145:
 2253              		.loc 1 934 0
 2254              		.cfi_startproc
 2255              		@ args = 0, pretend = 0, frame = 0
 2256              		@ frame_needed = 0, uses_anonymous_args = 0
 2257              	.LVL181:
 2258              		.loc 1 935 0
 2259 0b30 00F50062 		add	r2, r0, #2048
ARM GAS  /tmp/cclsZlw8.s 			page 41


 2260              		.loc 1 934 0
 2261 0b34 08B5     		push	{r3, lr}
 2262              		.cfi_def_cfa_offset 8
 2263              		.cfi_offset 3, -8
 2264              		.cfi_offset 14, -4
 2265              		.loc 1 935 0
 2266 0b36 5368     		ldr	r3, [r2, #4]
 2267 0b38 43F00203 		orr	r3, r3, #2
 2268              		.loc 1 936 0
 2269 0b3c 0320     		movs	r0, #3
 2270              	.LVL182:
 2271              		.loc 1 935 0
 2272 0b3e 5360     		str	r3, [r2, #4]
 2273              		.loc 1 936 0
 2274 0b40 FFF7FEFF 		bl	HAL_Delay
 2275              	.LVL183:
 2276              		.loc 1 939 0
 2277 0b44 0020     		movs	r0, #0
 2278 0b46 08BD     		pop	{r3, pc}
 2279              		.cfi_endproc
 2280              	.LFE145:
 2281              		.size	USB_DevDisconnect, .-USB_DevDisconnect
 2282              		.align	2
 2283 0b48 AFF30080 		.p2align 4,,15
 2283      AFF30080 
 2284              		.global	USB_ReadInterrupts
 2285              		.thumb
 2286              		.thumb_func
 2287              		.type	USB_ReadInterrupts, %function
 2288              	USB_ReadInterrupts:
 2289              	.LFB146:
 2290              		.loc 1 947 0
 2291              		.cfi_startproc
 2292              		@ args = 0, pretend = 0, frame = 0
 2293              		@ frame_needed = 0, uses_anonymous_args = 0
 2294              		@ link register save eliminated.
 2295              	.LVL184:
 2296              		.loc 1 950 0
 2297 0b50 4369     		ldr	r3, [r0, #20]
 2298              	.LVL185:
 2299              		.loc 1 951 0
 2300 0b52 8069     		ldr	r0, [r0, #24]
 2301              	.LVL186:
 2302              		.loc 1 953 0
 2303 0b54 1840     		ands	r0, r0, r3
 2304              	.LVL187:
 2305 0b56 7047     		bx	lr
 2306              		.cfi_endproc
 2307              	.LFE146:
 2308              		.size	USB_ReadInterrupts, .-USB_ReadInterrupts
 2309              		.align	2
 2310 0b58 AFF30080 		.p2align 4,,15
 2310      AFF30080 
 2311              		.global	USB_ReadDevAllOutEpInterrupt
 2312              		.thumb
 2313              		.thumb_func
 2314              		.type	USB_ReadDevAllOutEpInterrupt, %function
ARM GAS  /tmp/cclsZlw8.s 			page 42


 2315              	USB_ReadDevAllOutEpInterrupt:
 2316              	.LFB147:
 2317              		.loc 1 961 0
 2318              		.cfi_startproc
 2319              		@ args = 0, pretend = 0, frame = 0
 2320              		@ frame_needed = 0, uses_anonymous_args = 0
 2321              		@ link register save eliminated.
 2322              	.LVL188:
 2323              		.loc 1 963 0
 2324 0b60 D0F81838 		ldr	r3, [r0, #2072]
 2325 0b64 00F50060 		add	r0, r0, #2048
 2326              	.LVL189:
 2327              		.loc 1 964 0
 2328 0b68 C069     		ldr	r0, [r0, #28]
 2329              	.LVL190:
 2330 0b6a 1840     		ands	r0, r0, r3
 2331              	.LVL191:
 2332              		.loc 1 966 0
 2333 0b6c 000C     		lsrs	r0, r0, #16
 2334              	.LVL192:
 2335 0b6e 7047     		bx	lr
 2336              		.cfi_endproc
 2337              	.LFE147:
 2338              		.size	USB_ReadDevAllOutEpInterrupt, .-USB_ReadDevAllOutEpInterrupt
 2339              		.align	2
 2340              		.p2align 4,,15
 2341              		.global	USB_ReadDevAllInEpInterrupt
 2342              		.thumb
 2343              		.thumb_func
 2344              		.type	USB_ReadDevAllInEpInterrupt, %function
 2345              	USB_ReadDevAllInEpInterrupt:
 2346              	.LFB148:
 2347              		.loc 1 974 0
 2348              		.cfi_startproc
 2349              		@ args = 0, pretend = 0, frame = 0
 2350              		@ frame_needed = 0, uses_anonymous_args = 0
 2351              		@ link register save eliminated.
 2352              	.LVL193:
 2353              		.loc 1 976 0
 2354 0b70 00F50063 		add	r3, r0, #2048
 2355 0b74 D0F81808 		ldr	r0, [r0, #2072]
 2356              	.LVL194:
 2357              		.loc 1 977 0
 2358 0b78 DB69     		ldr	r3, [r3, #28]
 2359              	.LVL195:
 2360 0b7a 1840     		ands	r0, r0, r3
 2361              	.LVL196:
 2362              		.loc 1 979 0
 2363 0b7c 80B2     		uxth	r0, r0
 2364              	.LVL197:
 2365 0b7e 7047     		bx	lr
 2366              		.cfi_endproc
 2367              	.LFE148:
 2368              		.size	USB_ReadDevAllInEpInterrupt, .-USB_ReadDevAllInEpInterrupt
 2369              		.align	2
 2370              		.p2align 4,,15
 2371              		.global	USB_ReadDevOutEPInterrupt
ARM GAS  /tmp/cclsZlw8.s 			page 43


 2372              		.thumb
 2373              		.thumb_func
 2374              		.type	USB_ReadDevOutEPInterrupt, %function
 2375              	USB_ReadDevOutEPInterrupt:
 2376              	.LFB149:
 2377              		.loc 1 989 0
 2378              		.cfi_startproc
 2379              		@ args = 0, pretend = 0, frame = 0
 2380              		@ frame_needed = 0, uses_anonymous_args = 0
 2381              		@ link register save eliminated.
 2382              	.LVL198:
 2383 0b80 00F53063 		add	r3, r0, #2816
 2384              		.loc 1 991 0
 2385 0b84 03EB4111 		add	r1, r3, r1, lsl #5
 2386              	.LVL199:
 2387              		.loc 1 992 0
 2388 0b88 00F50060 		add	r0, r0, #2048
 2389              	.LVL200:
 2390              		.loc 1 991 0
 2391 0b8c 8B68     		ldr	r3, [r1, #8]
 2392              	.LVL201:
 2393              		.loc 1 992 0
 2394 0b8e 4069     		ldr	r0, [r0, #20]
 2395              	.LVL202:
 2396              		.loc 1 994 0
 2397 0b90 1840     		ands	r0, r0, r3
 2398              	.LVL203:
 2399 0b92 7047     		bx	lr
 2400              		.cfi_endproc
 2401              	.LFE149:
 2402              		.size	USB_ReadDevOutEPInterrupt, .-USB_ReadDevOutEPInterrupt
 2403              		.align	2
 2404 0b94 AFF30080 		.p2align 4,,15
 2404      AFF30080 
 2404      AFF30080 
 2405              		.global	USB_ReadDevInEPInterrupt
 2406              		.thumb
 2407              		.thumb_func
 2408              		.type	USB_ReadDevInEPInterrupt, %function
 2409              	USB_ReadDevInEPInterrupt:
 2410              	.LFB150:
 2411              		.loc 1 1004 0
 2412              		.cfi_startproc
 2413              		@ args = 0, pretend = 0, frame = 0
 2414              		@ frame_needed = 0, uses_anonymous_args = 0
 2415              		@ link register save eliminated.
 2416              	.LVL204:
 2417 0ba0 10B4     		push	{r4}
 2418              		.cfi_def_cfa_offset 4
 2419              		.cfi_offset 4, -4
 2420              		.loc 1 1007 0
 2421 0ba2 D0F81048 		ldr	r4, [r0, #2064]
 2422              	.LVL205:
 2423              		.loc 1 1008 0
 2424 0ba6 D0F83438 		ldr	r3, [r0, #2100]
 2425              	.LVL206:
 2426 0baa 00EB4110 		add	r0, r0, r1, lsl #5
ARM GAS  /tmp/cclsZlw8.s 			page 44


 2427              	.LVL207:
 2428              		.loc 1 1009 0
 2429 0bae CB40     		lsrs	r3, r3, r1
 2430              	.LVL208:
 2431 0bb0 DB01     		lsls	r3, r3, #7
 2432 0bb2 DBB2     		uxtb	r3, r3
 2433              		.loc 1 1010 0
 2434 0bb4 D0F80809 		ldr	r0, [r0, #2312]
 2435              	.LVL209:
 2436              		.loc 1 1009 0
 2437 0bb8 2343     		orrs	r3, r3, r4
 2438              		.loc 1 1012 0
 2439 0bba 1840     		ands	r0, r0, r3
 2440 0bbc 5DF8044B 		ldr	r4, [sp], #4
 2441              		.cfi_restore 4
 2442              		.cfi_def_cfa_offset 0
 2443 0bc0 7047     		bx	lr
 2444              		.cfi_endproc
 2445              	.LFE150:
 2446              		.size	USB_ReadDevInEPInterrupt, .-USB_ReadDevInEPInterrupt
 2447 0bc2 00BF     		.align	2
 2448 0bc4 AFF30080 		.p2align 4,,15
 2448      AFF30080 
 2448      AFF30080 
 2449              		.global	USB_ClearInterrupts
 2450              		.thumb
 2451              		.thumb_func
 2452              		.type	USB_ClearInterrupts, %function
 2453              	USB_ClearInterrupts:
 2454              	.LFB151:
 2455              		.loc 1 1021 0
 2456              		.cfi_startproc
 2457              		@ args = 0, pretend = 0, frame = 0
 2458              		@ frame_needed = 0, uses_anonymous_args = 0
 2459              		@ link register save eliminated.
 2460              	.LVL210:
 2461              		.loc 1 1022 0
 2462 0bd0 4369     		ldr	r3, [r0, #20]
 2463 0bd2 1943     		orrs	r1, r1, r3
 2464              	.LVL211:
 2465 0bd4 4161     		str	r1, [r0, #20]
 2466 0bd6 7047     		bx	lr
 2467              		.cfi_endproc
 2468              	.LFE151:
 2469              		.size	USB_ClearInterrupts, .-USB_ClearInterrupts
 2470              		.align	2
 2471 0bd8 AFF30080 		.p2align 4,,15
 2471      AFF30080 
 2472              		.global	USB_GetMode
 2473              		.thumb
 2474              		.thumb_func
 2475              		.type	USB_GetMode, %function
 2476              	USB_GetMode:
 2477              	.LFB152:
 2478              		.loc 1 1034 0
 2479              		.cfi_startproc
 2480              		@ args = 0, pretend = 0, frame = 0
ARM GAS  /tmp/cclsZlw8.s 			page 45


 2481              		@ frame_needed = 0, uses_anonymous_args = 0
 2482              		@ link register save eliminated.
 2483              	.LVL212:
 2484              		.loc 1 1035 0
 2485 0be0 4069     		ldr	r0, [r0, #20]
 2486              	.LVL213:
 2487              		.loc 1 1036 0
 2488 0be2 00F00100 		and	r0, r0, #1
 2489 0be6 7047     		bx	lr
 2490              		.cfi_endproc
 2491              	.LFE152:
 2492              		.size	USB_GetMode, .-USB_GetMode
 2493              		.align	2
 2494 0be8 AFF30080 		.p2align 4,,15
 2494      AFF30080 
 2495              		.global	USB_ActivateSetup
 2496              		.thumb
 2497              		.thumb_func
 2498              		.type	USB_ActivateSetup, %function
 2499              	USB_ActivateSetup:
 2500              	.LFB153:
 2501              		.loc 1 1045 0
 2502              		.cfi_startproc
 2503              		@ args = 0, pretend = 0, frame = 0
 2504              		@ frame_needed = 0, uses_anonymous_args = 0
 2505              		@ link register save eliminated.
 2506              	.LVL214:
 2507              		.loc 1 1047 0
 2508 0bf0 D0F80039 		ldr	r3, [r0, #2304]
 2509 0bf4 23F4FF63 		bic	r3, r3, #2040
 2510 0bf8 23F00703 		bic	r3, r3, #7
 2511              		.loc 1 1049 0
 2512 0bfc 00F50062 		add	r2, r0, #2048
 2513              		.loc 1 1047 0
 2514 0c00 C0F80039 		str	r3, [r0, #2304]
 2515              		.loc 1 1049 0
 2516 0c04 9368     		ldr	r3, [r2, #8]
 2517 0c06 03F00603 		and	r3, r3, #6
 2518 0c0a 042B     		cmp	r3, #4
 2519 0c0c 05D1     		bne	.L257
 2520              		.loc 1 1051 0
 2521 0c0e D0F80039 		ldr	r3, [r0, #2304]
 2522 0c12 43F00303 		orr	r3, r3, #3
 2523 0c16 C0F80039 		str	r3, [r0, #2304]
 2524              	.L257:
 2525              		.loc 1 1053 0
 2526 0c1a 5368     		ldr	r3, [r2, #4]
 2527 0c1c 43F48073 		orr	r3, r3, #256
 2528 0c20 5360     		str	r3, [r2, #4]
 2529              		.loc 1 1056 0
 2530 0c22 0020     		movs	r0, #0
 2531              	.LVL215:
 2532 0c24 7047     		bx	lr
 2533              		.cfi_endproc
 2534              	.LFE153:
 2535              		.size	USB_ActivateSetup, .-USB_ActivateSetup
 2536 0c26 00BF     		.align	2
ARM GAS  /tmp/cclsZlw8.s 			page 46


 2537 0c28 AFF30080 		.p2align 4,,15
 2537      AFF30080 
 2538              		.global	USB_EP0_OutStart
 2539              		.thumb
 2540              		.thumb_func
 2541              		.type	USB_EP0_OutStart, %function
 2542              	USB_EP0_OutStart:
 2543              	.LFB154:
 2544              		.loc 1 1070 0
 2545              		.cfi_startproc
 2546              		@ args = 0, pretend = 0, frame = 0
 2547              		@ frame_needed = 0, uses_anonymous_args = 0
 2548              		@ link register save eliminated.
 2549              	.LVL216:
 2550 0c30 10B4     		push	{r4}
 2551              		.cfi_def_cfa_offset 4
 2552              		.cfi_offset 4, -4
 2553              		.loc 1 1071 0
 2554 0c32 0024     		movs	r4, #0
 2555 0c34 C0F8104B 		str	r4, [r0, #2832]
 2556              		.loc 1 1072 0
 2557 0c38 D0F8104B 		ldr	r4, [r0, #2832]
 2558 0c3c 44F40024 		orr	r4, r4, #524288
 2559 0c40 C0F8104B 		str	r4, [r0, #2832]
 2560              		.loc 1 1073 0
 2561 0c44 D0F8104B 		ldr	r4, [r0, #2832]
 2562 0c48 44F01804 		orr	r4, r4, #24
 2563 0c4c C0F8104B 		str	r4, [r0, #2832]
 2564              		.loc 1 1074 0
 2565 0c50 D0F8104B 		ldr	r4, [r0, #2832]
 2566              		.loc 1 1076 0
 2567 0c54 0129     		cmp	r1, #1
 2568              		.loc 1 1074 0
 2569 0c56 44F0C044 		orr	r4, r4, #1610612736
 2570 0c5a C0F8104B 		str	r4, [r0, #2832]
 2571              		.loc 1 1076 0
 2572 0c5e 05D1     		bne	.L259
 2573              		.loc 1 1080 0
 2574 0c60 4FF08021 		mov	r1, #-2147450880
 2575              	.LVL217:
 2576              		.loc 1 1078 0
 2577 0c64 C0F8142B 		str	r2, [r0, #2836]
 2578              		.loc 1 1080 0
 2579 0c68 C0F8001B 		str	r1, [r0, #2816]
 2580              	.L259:
 2581              		.loc 1 1084 0
 2582 0c6c 0020     		movs	r0, #0
 2583              	.LVL218:
 2584 0c6e 5DF8044B 		ldr	r4, [sp], #4
 2585              		.cfi_restore 4
 2586              		.cfi_def_cfa_offset 0
 2587 0c72 7047     		bx	lr
 2588              		.cfi_endproc
 2589              	.LFE154:
 2590              		.size	USB_EP0_OutStart, .-USB_EP0_OutStart
 2591              		.align	2
 2592 0c74 AFF30080 		.p2align 4,,15
ARM GAS  /tmp/cclsZlw8.s 			page 47


 2592      AFF30080 
 2592      AFF30080 
 2593              		.global	USB_InitFSLSPClkSel
 2594              		.thumb
 2595              		.thumb_func
 2596              		.type	USB_InitFSLSPClkSel, %function
 2597              	USB_InitFSLSPClkSel:
 2598              	.LFB157:
 2599              		.loc 1 1223 0
 2600              		.cfi_startproc
 2601              		@ args = 0, pretend = 0, frame = 0
 2602              		@ frame_needed = 0, uses_anonymous_args = 0
 2603              		@ link register save eliminated.
 2604              	.LVL219:
 2605              		.loc 1 1224 0
 2606 0c80 D0F80034 		ldr	r3, [r0, #1024]
 2607 0c84 23F00303 		bic	r3, r3, #3
 2608 0c88 C0F80034 		str	r3, [r0, #1024]
 2609              		.loc 1 1225 0
 2610 0c8c D0F80034 		ldr	r3, [r0, #1024]
 2611 0c90 01F00302 		and	r2, r1, #3
 2612 0c94 1343     		orrs	r3, r3, r2
 2613              		.loc 1 1227 0
 2614 0c96 0129     		cmp	r1, #1
 2615              		.loc 1 1225 0
 2616 0c98 C0F80034 		str	r3, [r0, #1024]
 2617              		.loc 1 1224 0
 2618 0c9c 00F58060 		add	r0, r0, #1024
 2619              	.LVL220:
 2620              		.loc 1 1227 0
 2621 0ca0 06D0     		beq	.L264
 2622              		.loc 1 1231 0
 2623 0ca2 0229     		cmp	r1, #2
 2624              		.loc 1 1233 0
 2625 0ca4 04BF     		itt	eq
 2626 0ca6 41F27073 		movweq	r3, #6000
 2627 0caa 4360     		streq	r3, [r0, #4]
 2628              		.loc 1 1236 0
 2629 0cac 0020     		movs	r0, #0
 2630              	.LVL221:
 2631 0cae 7047     		bx	lr
 2632              	.L264:
 2633              		.loc 1 1229 0
 2634 0cb0 4BF68033 		movw	r3, #48000
 2635 0cb4 4360     		str	r3, [r0, #4]
 2636              		.loc 1 1236 0
 2637 0cb6 0020     		movs	r0, #0
 2638 0cb8 7047     		bx	lr
 2639              		.cfi_endproc
 2640              	.LFE157:
 2641              		.size	USB_InitFSLSPClkSel, .-USB_InitFSLSPClkSel
 2642 0cba 00BF     		.align	2
 2643 0cbc AFF30080 		.p2align 4,,15
 2644              		.global	USB_ResetPort
 2645              		.thumb
 2646              		.thumb_func
 2647              		.type	USB_ResetPort, %function
ARM GAS  /tmp/cclsZlw8.s 			page 48


 2648              	USB_ResetPort:
 2649              	.LFB158:
 2650              		.loc 1 1246 0
 2651              		.cfi_startproc
 2652              		@ args = 0, pretend = 0, frame = 8
 2653              		@ frame_needed = 0, uses_anonymous_args = 0
 2654              	.LVL222:
 2655 0cc0 10B5     		push	{r4, lr}
 2656              		.cfi_def_cfa_offset 8
 2657              		.cfi_offset 4, -8
 2658              		.cfi_offset 14, -4
 2659 0cc2 0446     		mov	r4, r0
 2660 0cc4 82B0     		sub	sp, sp, #8
 2661              		.cfi_def_cfa_offset 16
 2662              		.loc 1 1249 0
 2663 0cc6 D4F84034 		ldr	r3, [r4, #1088]
 2664 0cca 0193     		str	r3, [sp, #4]
 2665              		.loc 1 1251 0
 2666 0ccc 019B     		ldr	r3, [sp, #4]
 2667 0cce 23F02E03 		bic	r3, r3, #46
 2668 0cd2 0193     		str	r3, [sp, #4]
 2669              		.loc 1 1254 0
 2670 0cd4 019B     		ldr	r3, [sp, #4]
 2671 0cd6 43F48073 		orr	r3, r3, #256
 2672 0cda C4F84034 		str	r3, [r4, #1088]
 2673              		.loc 1 1255 0
 2674 0cde 0A20     		movs	r0, #10
 2675              	.LVL223:
 2676 0ce0 FFF7FEFF 		bl	HAL_Delay
 2677              	.LVL224:
 2678              		.loc 1 1256 0
 2679 0ce4 019B     		ldr	r3, [sp, #4]
 2680              		.loc 1 1258 0
 2681 0ce6 0020     		movs	r0, #0
 2682              		.loc 1 1256 0
 2683 0ce8 23F48073 		bic	r3, r3, #256
 2684 0cec C4F84034 		str	r3, [r4, #1088]
 2685              		.loc 1 1258 0
 2686 0cf0 02B0     		add	sp, sp, #8
 2687              		.cfi_def_cfa_offset 8
 2688              		@ sp needed
 2689 0cf2 10BD     		pop	{r4, pc}
 2690              		.cfi_endproc
 2691              	.LFE158:
 2692              		.size	USB_ResetPort, .-USB_ResetPort
 2693              		.align	2
 2694 0cf4 AFF30080 		.p2align 4,,15
 2694      AFF30080 
 2694      AFF30080 
 2695              		.global	USB_DriveVbus
 2696              		.thumb
 2697              		.thumb_func
 2698              		.type	USB_DriveVbus, %function
 2699              	USB_DriveVbus:
 2700              	.LFB159:
 2701              		.loc 1 1269 0
 2702              		.cfi_startproc
ARM GAS  /tmp/cclsZlw8.s 			page 49


 2703              		@ args = 0, pretend = 0, frame = 8
 2704              		@ frame_needed = 0, uses_anonymous_args = 0
 2705              		@ link register save eliminated.
 2706              	.LVL225:
 2707 0d00 82B0     		sub	sp, sp, #8
 2708              		.cfi_def_cfa_offset 8
 2709              		.loc 1 1272 0
 2710 0d02 D0F84034 		ldr	r3, [r0, #1088]
 2711 0d06 0193     		str	r3, [sp, #4]
 2712              		.loc 1 1273 0
 2713 0d08 019B     		ldr	r3, [sp, #4]
 2714 0d0a 23F02E03 		bic	r3, r3, #46
 2715 0d0e 0193     		str	r3, [sp, #4]
 2716              		.loc 1 1276 0
 2717 0d10 019B     		ldr	r3, [sp, #4]
 2718 0d12 13F4805F 		tst	r3, #4096
 2719              		.loc 1 1278 0
 2720 0d16 019B     		ldr	r3, [sp, #4]
 2721              		.loc 1 1276 0
 2722 0d18 01D1     		bne	.L268
 2723              		.loc 1 1276 0 is_stmt 0 discriminator 1
 2724 0d1a 0129     		cmp	r1, #1
 2725 0d1c 0AD0     		beq	.L274
 2726              	.L268:
 2727              		.loc 1 1280 0 is_stmt 1
 2728 0d1e DB04     		lsls	r3, r3, #19
 2729 0d20 05D5     		bpl	.L269
 2730              		.loc 1 1280 0 is_stmt 0 discriminator 1
 2731 0d22 21B9     		cbnz	r1, .L269
 2732              		.loc 1 1282 0 is_stmt 1
 2733 0d24 019B     		ldr	r3, [sp, #4]
 2734 0d26 23F48053 		bic	r3, r3, #4096
 2735 0d2a C0F84034 		str	r3, [r0, #1088]
 2736              	.L269:
 2737              		.loc 1 1285 0
 2738 0d2e 0020     		movs	r0, #0
 2739              	.LVL226:
 2740 0d30 02B0     		add	sp, sp, #8
 2741              		.cfi_remember_state
 2742              		.cfi_def_cfa_offset 0
 2743              		@ sp needed
 2744 0d32 7047     		bx	lr
 2745              	.LVL227:
 2746              	.L274:
 2747              		.cfi_restore_state
 2748              		.loc 1 1278 0
 2749 0d34 43F48053 		orr	r3, r3, #4096
 2750 0d38 C0F84034 		str	r3, [r0, #1088]
 2751              		.loc 1 1280 0
 2752 0d3c 019B     		ldr	r3, [sp, #4]
 2753              		.loc 1 1285 0
 2754 0d3e 0020     		movs	r0, #0
 2755              	.LVL228:
 2756 0d40 02B0     		add	sp, sp, #8
 2757              		.cfi_def_cfa_offset 0
 2758              		@ sp needed
 2759 0d42 7047     		bx	lr
ARM GAS  /tmp/cclsZlw8.s 			page 50


 2760              		.cfi_endproc
 2761              	.LFE159:
 2762              		.size	USB_DriveVbus, .-USB_DriveVbus
 2763              		.align	2
 2764 0d44 AFF30080 		.p2align 4,,15
 2764      AFF30080 
 2764      AFF30080 
 2765              		.global	USB_HostInit
 2766              		.thumb
 2767              		.thumb_func
 2768              		.type	USB_HostInit, %function
 2769              	USB_HostInit:
 2770              	.LFB156:
 2771              		.loc 1 1132 0
 2772              		.cfi_startproc
 2773              		@ args = 52, pretend = 16, frame = 0
 2774              		@ frame_needed = 0, uses_anonymous_args = 0
 2775              	.LVL229:
 2776 0d50 84B0     		sub	sp, sp, #16
 2777              		.cfi_def_cfa_offset 16
 2778 0d52 38B5     		push	{r3, r4, r5, lr}
 2779              		.cfi_def_cfa_offset 32
 2780              		.cfi_offset 3, -32
 2781              		.cfi_offset 4, -28
 2782              		.cfi_offset 5, -24
 2783              		.cfi_offset 14, -20
 2784              		.loc 1 1132 0
 2785 0d54 0446     		mov	r4, r0
 2786              		.loc 1 1136 0
 2787 0d56 0020     		movs	r0, #0
 2788              	.LVL230:
 2789 0d58 C4F8000E 		str	r0, [r4, #3584]
 2790              		.loc 1 1142 0
 2791 0d5c A06B     		ldr	r0, [r4, #56]
 2792 0d5e 20F48020 		bic	r0, r0, #262144
 2793 0d62 A063     		str	r0, [r4, #56]
 2794              		.loc 1 1143 0
 2795 0d64 A06B     		ldr	r0, [r4, #56]
 2796              		.loc 1 1132 0
 2797 0d66 05AD     		add	r5, sp, #20
 2798 0d68 85E80E00 		stmia	r5, {r1, r2, r3}
 2799              		.loc 1 1143 0
 2800 0d6c 20F40020 		bic	r0, r0, #524288
 2801 0d70 A063     		str	r0, [r4, #56]
 2802              		.loc 1 1144 0
 2803 0d72 A36B     		ldr	r3, [r4, #56]
 2804              		.loc 1 1148 0
 2805 0d74 079A     		ldr	r2, [sp, #28]
 2806 0d76 0699     		ldr	r1, [sp, #24]
 2807              	.LVL231:
 2808              		.loc 1 1144 0
 2809 0d78 43F40013 		orr	r3, r3, #2097152
 2810 0d7c A363     		str	r3, [r4, #56]
 2811              		.loc 1 1148 0
 2812 0d7e 032A     		cmp	r2, #3
 2813              		.loc 1 1151 0
 2814 0d80 D4F80034 		ldr	r3, [r4, #1024]
ARM GAS  /tmp/cclsZlw8.s 			page 51


 2815              		.loc 1 1148 0
 2816 0d84 4AD0     		beq	.L306
 2817              	.L276:
 2818              		.loc 1 1155 0
 2819 0d86 23F00403 		bic	r3, r3, #4
 2820 0d8a C4F80034 		str	r3, [r4, #1024]
 2821              	.L277:
 2822              	.LVL232:
 2823              	.LBB58:
 2824              	.LBB59:
 2825              		.loc 1 347 0
 2826 0d8e 4FF40873 		mov	r3, #544
 2827 0d92 2361     		str	r3, [r4, #16]
 2828              	.LVL233:
 2829 0d94 294B     		ldr	r3, .L308
 2830 0d96 01E0     		b	.L278
 2831              	.LVL234:
 2832              	.L280:
 2833              		.loc 1 351 0
 2834 0d98 013B     		subs	r3, r3, #1
 2835              	.LVL235:
 2836 0d9a 02D0     		beq	.L279
 2837              	.LVL236:
 2838              	.L278:
 2839              		.loc 1 356 0
 2840 0d9c 2269     		ldr	r2, [r4, #16]
 2841 0d9e 9006     		lsls	r0, r2, #26
 2842 0da0 FAD4     		bmi	.L280
 2843              	.LVL237:
 2844              	.L279:
 2845              	.LBE59:
 2846              	.LBE58:
 2847              	.LBB60:
 2848              	.LBB61:
 2849              		.loc 1 371 0
 2850 0da2 1023     		movs	r3, #16
 2851 0da4 2361     		str	r3, [r4, #16]
 2852              	.LVL238:
 2853 0da6 254B     		ldr	r3, .L308
 2854 0da8 01E0     		b	.L281
 2855              	.LVL239:
 2856              	.L283:
 2857              		.loc 1 375 0
 2858 0daa 013B     		subs	r3, r3, #1
 2859              	.LVL240:
 2860 0dac 02D0     		beq	.L282
 2861              	.LVL241:
 2862              	.L281:
 2863              		.loc 1 380 0
 2864 0dae 2269     		ldr	r2, [r4, #16]
 2865 0db0 D206     		lsls	r2, r2, #27
 2866 0db2 FAD4     		bmi	.L283
 2867              	.LVL242:
 2868              	.L282:
 2869              	.LBE61:
 2870              	.LBE60:
 2871              		.loc 1 1163 0 discriminator 1
ARM GAS  /tmp/cclsZlw8.s 			page 52


 2872 0db4 61B1     		cbz	r1, .L288
 2873              		.loc 1 1163 0 is_stmt 0
 2874 0db6 0022     		movs	r2, #0
 2875              		.loc 1 1166 0 is_stmt 1
 2876 0db8 1546     		mov	r5, r2
 2877 0dba 04F5A063 		add	r3, r4, #1280
 2878              		.loc 1 1165 0
 2879 0dbe 4FF0FF30 		mov	r0, #-1
 2880              	.LVL243:
 2881              	.L287:
 2882              		.loc 1 1163 0 discriminator 3
 2883 0dc2 0132     		adds	r2, r2, #1
 2884              	.LVL244:
 2885 0dc4 8A42     		cmp	r2, r1
 2886              		.loc 1 1165 0 discriminator 3
 2887 0dc6 9860     		str	r0, [r3, #8]
 2888              		.loc 1 1166 0 discriminator 3
 2889 0dc8 DD60     		str	r5, [r3, #12]
 2890 0dca 03F12003 		add	r3, r3, #32
 2891              		.loc 1 1163 0 discriminator 3
 2892 0dce F8D1     		bne	.L287
 2893              	.LVL245:
 2894              	.L288:
 2895              		.loc 1 1170 0
 2896 0dd0 0121     		movs	r1, #1
 2897              	.LVL246:
 2898 0dd2 2046     		mov	r0, r4
 2899 0dd4 FFF7FEFF 		bl	USB_DriveVbus
 2900              	.LVL247:
 2901              		.loc 1 1172 0
 2902 0dd8 C820     		movs	r0, #200
 2903 0dda FFF7FEFF 		bl	HAL_Delay
 2904              	.LVL248:
 2905              		.loc 1 1175 0
 2906 0dde 0022     		movs	r2, #0
 2907              		.loc 1 1178 0
 2908 0de0 4FF0FF33 		mov	r3, #-1
 2909              		.loc 1 1181 0
 2910 0de4 B4F1A04F 		cmp	r4, #1342177280
 2911              		.loc 1 1175 0
 2912 0de8 A261     		str	r2, [r4, #24]
 2913              		.loc 1 1178 0
 2914 0dea 6361     		str	r3, [r4, #20]
 2915              		.loc 1 1181 0
 2916 0dec 1ED0     		beq	.L307
 2917              		.loc 1 1193 0
 2918 0dee 4FF40071 		mov	r1, #512
 2919              		.loc 1 1194 0
 2920 0df2 134A     		ldr	r2, .L308+4
 2921              		.loc 1 1195 0
 2922 0df4 134B     		ldr	r3, .L308+8
 2923              		.loc 1 1193 0
 2924 0df6 6162     		str	r1, [r4, #36]
 2925              		.loc 1 1194 0
 2926 0df8 A262     		str	r2, [r4, #40]
 2927              		.loc 1 1195 0
 2928 0dfa C4F80031 		str	r3, [r4, #256]
ARM GAS  /tmp/cclsZlw8.s 			page 53


 2929              	.L289:
 2930              		.loc 1 1199 0
 2931 0dfe 089B     		ldr	r3, [sp, #32]
 2932 0e00 1BB9     		cbnz	r3, .L290
 2933              		.loc 1 1201 0
 2934 0e02 A369     		ldr	r3, [r4, #24]
 2935 0e04 43F01003 		orr	r3, r3, #16
 2936 0e08 A361     		str	r3, [r4, #24]
 2937              	.L290:
 2938              		.loc 1 1205 0
 2939 0e0a A269     		ldr	r2, [r4, #24]
 2940 0e0c 0E4B     		ldr	r3, .L308+12
 2941 0e0e 1343     		orrs	r3, r3, r2
 2942 0e10 A361     		str	r3, [r4, #24]
 2943              		.loc 1 1210 0
 2944 0e12 BDE83840 		pop	{r3, r4, r5, lr}
 2945              		.cfi_remember_state
 2946              		.cfi_restore 14
 2947              		.cfi_restore 5
 2948              		.cfi_restore 4
 2949              		.cfi_restore 3
 2950              		.cfi_def_cfa_offset 16
 2951              	.LVL249:
 2952 0e16 0020     		movs	r0, #0
 2953 0e18 04B0     		add	sp, sp, #16
 2954              		.cfi_def_cfa_offset 0
 2955 0e1a 7047     		bx	lr
 2956              	.LVL250:
 2957              	.L306:
 2958              		.cfi_restore_state
 2959              		.loc 1 1148 0 discriminator 1
 2960 0e1c B4F1A04F 		cmp	r4, #1342177280
 2961 0e20 B1D0     		beq	.L276
 2962              		.loc 1 1151 0
 2963 0e22 43F00403 		orr	r3, r3, #4
 2964 0e26 C4F80034 		str	r3, [r4, #1024]
 2965 0e2a B0E7     		b	.L277
 2966              	.LVL251:
 2967              	.L307:
 2968              		.loc 1 1184 0
 2969 0e2c 8021     		movs	r1, #128
 2970              		.loc 1 1185 0
 2971 0e2e 074A     		ldr	r2, .L308+16
 2972              		.loc 1 1186 0
 2973 0e30 074B     		ldr	r3, .L308+20
 2974              		.loc 1 1184 0
 2975 0e32 6162     		str	r1, [r4, #36]
 2976              		.loc 1 1185 0
 2977 0e34 A262     		str	r2, [r4, #40]
 2978              		.loc 1 1186 0
 2979 0e36 C4F80031 		str	r3, [r4, #256]
 2980 0e3a E0E7     		b	.L289
 2981              	.L309:
 2982              		.align	2
 2983              	.L308:
 2984 0e3c 400D0300 		.word	200000
 2985 0e40 00020001 		.word	16777728
ARM GAS  /tmp/cclsZlw8.s 			page 54


 2986 0e44 0003E000 		.word	14680832
 2987 0e48 080020A3 		.word	-1558183928
 2988 0e4c 80006000 		.word	6291584
 2989 0e50 E0004000 		.word	4194528
 2990              		.cfi_endproc
 2991              	.LFE156:
 2992              		.size	USB_HostInit, .-USB_HostInit
 2993              		.align	2
 2994 0e54 AFF30080 		.p2align 4,,15
 2994      AFF30080 
 2994      AFF30080 
 2995              		.global	USB_GetHostSpeed
 2996              		.thumb
 2997              		.thumb_func
 2998              		.type	USB_GetHostSpeed, %function
 2999              	USB_GetHostSpeed:
 3000              	.LFB160:
 3001              		.loc 1 1297 0
 3002              		.cfi_startproc
 3003              		@ args = 0, pretend = 0, frame = 8
 3004              		@ frame_needed = 0, uses_anonymous_args = 0
 3005              		@ link register save eliminated.
 3006              	.LVL252:
 3007 0e60 82B0     		sub	sp, sp, #8
 3008              		.cfi_def_cfa_offset 8
 3009              		.loc 1 1300 0
 3010 0e62 D0F84034 		ldr	r3, [r0, #1088]
 3011 0e66 0193     		str	r3, [sp, #4]
 3012              		.loc 1 1301 0
 3013 0e68 0198     		ldr	r0, [sp, #4]
 3014              	.LVL253:
 3015              		.loc 1 1302 0
 3016 0e6a C0F34140 		ubfx	r0, r0, #17, #2
 3017 0e6e 02B0     		add	sp, sp, #8
 3018              		.cfi_def_cfa_offset 0
 3019              		@ sp needed
 3020 0e70 7047     		bx	lr
 3021              		.cfi_endproc
 3022              	.LFE160:
 3023              		.size	USB_GetHostSpeed, .-USB_GetHostSpeed
 3024 0e72 00BF     		.align	2
 3025 0e74 AFF30080 		.p2align 4,,15
 3025      AFF30080 
 3025      AFF30080 
 3026              		.global	USB_GetCurrentFrame
 3027              		.thumb
 3028              		.thumb_func
 3029              		.type	USB_GetCurrentFrame, %function
 3030              	USB_GetCurrentFrame:
 3031              	.LFB161:
 3032              		.loc 1 1310 0
 3033              		.cfi_startproc
 3034              		@ args = 0, pretend = 0, frame = 0
 3035              		@ frame_needed = 0, uses_anonymous_args = 0
 3036              		@ link register save eliminated.
 3037              	.LVL254:
 3038              		.loc 1 1311 0
ARM GAS  /tmp/cclsZlw8.s 			page 55


 3039 0e80 00F58060 		add	r0, r0, #1024
 3040              	.LVL255:
 3041 0e84 8068     		ldr	r0, [r0, #8]
 3042              	.LVL256:
 3043              		.loc 1 1312 0
 3044 0e86 80B2     		uxth	r0, r0
 3045 0e88 7047     		bx	lr
 3046              		.cfi_endproc
 3047              	.LFE161:
 3048              		.size	USB_GetCurrentFrame, .-USB_GetCurrentFrame
 3049 0e8a 00BF     		.align	2
 3050 0e8c AFF30080 		.p2align 4,,15
 3051              		.global	USB_HC_Init
 3052              		.thumb
 3053              		.thumb_func
 3054              		.type	USB_HC_Init, %function
 3055              	USB_HC_Init:
 3056              	.LFB162:
 3057              		.loc 1 1345 0
 3058              		.cfi_startproc
 3059              		@ args = 12, pretend = 0, frame = 0
 3060              		@ frame_needed = 0, uses_anonymous_args = 0
 3061              	.LVL257:
 3062 0e90 2DE9F043 		push	{r4, r5, r6, r7, r8, r9, lr}
 3063              		.cfi_def_cfa_offset 28
 3064              		.cfi_offset 4, -28
 3065              		.cfi_offset 5, -24
 3066              		.cfi_offset 6, -20
 3067              		.cfi_offset 7, -16
 3068              		.cfi_offset 8, -12
 3069              		.cfi_offset 9, -8
 3070              		.cfi_offset 14, -4
 3071 0e94 00F5A064 		add	r4, r0, #1280
 3072              		.loc 1 1348 0
 3073 0e98 04EB4114 		add	r4, r4, r1, lsl #5
 3074              		.loc 1 1345 0
 3075 0e9c 9DF82060 		ldrb	r6, [sp, #32]	@ zero_extendqisi2
 3076 0ea0 9DF81C70 		ldrb	r7, [sp, #28]	@ zero_extendqisi2
 3077 0ea4 BDF82450 		ldrh	r5, [sp, #36]
 3078              		.loc 1 1348 0
 3079 0ea8 4FF0FF3E 		mov	lr, #-1
 3080 0eac C4F808E0 		str	lr, [r4, #8]
 3081              		.loc 1 1351 0
 3082 0eb0 032E     		cmp	r6, #3
 3083 0eb2 78D8     		bhi	.L314
 3084 0eb4 DFE806F0 		tbb	[pc, r6]
 3085              	.L316:
 3086 0eb8 57       		.byte	(.L315-.L316)/2
 3087 0eb9 67       		.byte	(.L317-.L316)/2
 3088 0eba 44       		.byte	(.L318-.L316)/2
 3089 0ebb 02       		.byte	(.L319-.L316)/2
 3090              		.p2align 1
 3091              	.L319:
 3092              		.loc 1 1411 0
 3093 0ebc 4FFA82FC 		sxtb	ip, r2
 3094              		.loc 1 1403 0
 3095 0ec0 40F29D6E 		movw	lr, #1693
ARM GAS  /tmp/cclsZlw8.s 			page 56


 3096              		.loc 1 1411 0
 3097 0ec4 BCF1000F 		cmp	ip, #0
 3098              		.loc 1 1403 0
 3099 0ec8 C4F80CE0 		str	lr, [r4, #12]
 3100              		.loc 1 1411 0
 3101 0ecc 54DB     		blt	.L337
 3102              	.LVL258:
 3103              	.L320:
 3104              		.loc 1 1432 0
 3105 0ece D0F81884 		ldr	r8, [r0, #1048]
 3106              		.loc 1 1438 0
 3107 0ed2 9B05     		lsls	r3, r3, #22
 3108              	.LVL259:
 3109              		.loc 1 1432 0
 3110 0ed4 4FF00109 		mov	r9, #1
 3111              		.loc 1 1438 0
 3112 0ed8 03F0FE53 		and	r3, r3, #532676608
 3113              		.loc 1 1439 0
 3114 0edc D202     		lsls	r2, r2, #11
 3115              	.LVL260:
 3116              		.loc 1 1443 0
 3117 0ede C5F30A05 		ubfx	r5, r5, #0, #11
 3118              		.loc 1 1432 0
 3119 0ee2 09FA01F9 		lsl	r9, r9, r1
 3120              		.loc 1 1439 0
 3121 0ee6 02F4F041 		and	r1, r2, #30720
 3122              	.LVL261:
 3123 0eea 43EA0502 		orr	r2, r3, r5
 3124              		.loc 1 1442 0
 3125 0eee B304     		lsls	r3, r6, #18
 3126              		.loc 1 1432 0
 3127 0ef0 49EA0805 		orr	r5, r9, r8
 3128              		.loc 1 1442 0
 3129 0ef4 03F44023 		and	r3, r3, #786432
 3130              		.loc 1 1440 0
 3131 0ef8 BCF1000F 		cmp	ip, #0
 3132              		.loc 1 1432 0
 3133 0efc C0F81854 		str	r5, [r0, #1048]
 3134 0f00 42EA0102 		orr	r2, r2, r1
 3135 0f04 42EA0302 		orr	r2, r2, r3
 3136              		.loc 1 1435 0
 3137 0f08 8169     		ldr	r1, [r0, #24]
 3138              		.loc 1 1440 0
 3139 0f0a B4BF     		ite	lt
 3140 0f0c 4FF40043 		movlt	r3, #32768
 3141 0f10 0023     		movge	r3, #0
 3142              		.loc 1 1441 0
 3143 0f12 022F     		cmp	r7, #2
 3144 0f14 42EA0302 		orr	r2, r2, r3
 3145 0f18 0CBF     		ite	eq
 3146 0f1a 4FF40033 		moveq	r3, #131072
 3147 0f1e 0023     		movne	r3, #0
 3148              		.loc 1 1442 0
 3149 0f20 1A43     		orrs	r2, r2, r3
 3150              		.loc 1 1445 0
 3151 0f22 032E     		cmp	r6, #3
 3152              		.loc 1 1435 0
ARM GAS  /tmp/cclsZlw8.s 			page 57


 3153 0f24 41F00073 		orr	r3, r1, #33554432
 3154 0f28 8361     		str	r3, [r0, #24]
 3155              		.loc 1 1432 0
 3156 0f2a 00F5806E 		add	lr, r0, #1024
 3157              		.loc 1 1438 0
 3158 0f2e 2260     		str	r2, [r4]
 3159              		.loc 1 1445 0
 3160 0f30 03D1     		bne	.L325
 3161              		.loc 1 1447 0
 3162 0f32 2368     		ldr	r3, [r4]
 3163 0f34 43F00053 		orr	r3, r3, #536870912
 3164 0f38 2360     		str	r3, [r4]
 3165              	.L325:
 3166              		.loc 1 1451 0
 3167 0f3a 0020     		movs	r0, #0
 3168              	.LVL262:
 3169 0f3c BDE8F083 		pop	{r4, r5, r6, r7, r8, r9, pc}
 3170              	.LVL263:
 3171              	.L318:
 3172              		.loc 1 1389 0
 3173 0f40 4FFA82FC 		sxtb	ip, r2
 3174              		.loc 1 1382 0
 3175 0f44 40F28D4E 		movw	lr, #1165
 3176              		.loc 1 1389 0
 3177 0f48 BCF1000F 		cmp	ip, #0
 3178              		.loc 1 1382 0
 3179 0f4c C4F80CE0 		str	lr, [r4, #12]
 3180              	.LVL264:
 3181              		.loc 1 1389 0
 3182 0f50 12DB     		blt	.L337
 3183              	.L322:
 3184              		.loc 1 1395 0
 3185 0f52 B0F1A04F 		cmp	r0, #1342177280
 3186 0f56 BAD0     		beq	.L320
 3187              		.loc 1 1397 0
 3188 0f58 D4F80CE0 		ldr	lr, [r4, #12]
 3189 0f5c 4EF0600E 		orr	lr, lr, #96
 3190 0f60 C4F80CE0 		str	lr, [r4, #12]
 3191 0f64 B3E7     		b	.L320
 3192              	.LVL265:
 3193              	.L315:
 3194              		.loc 1 1360 0
 3195 0f66 4FFA82FC 		sxtb	ip, r2
 3196              		.loc 1 1354 0
 3197 0f6a 40F29D4E 		movw	lr, #1181
 3198              		.loc 1 1360 0
 3199 0f6e BCF1000F 		cmp	ip, #0
 3200              		.loc 1 1354 0
 3201 0f72 C4F80CE0 		str	lr, [r4, #12]
 3202              	.LVL266:
 3203              		.loc 1 1360 0
 3204 0f76 ECDA     		bge	.L322
 3205              	.L337:
 3206              		.loc 1 1413 0
 3207 0f78 D4F80CE0 		ldr	lr, [r4, #12]
 3208 0f7c 4EF4807E 		orr	lr, lr, #256
 3209 0f80 C4F80CE0 		str	lr, [r4, #12]
ARM GAS  /tmp/cclsZlw8.s 			page 58


 3210 0f84 A3E7     		b	.L320
 3211              	.LVL267:
 3212              	.L317:
 3213              		.loc 1 1424 0
 3214 0f86 4FFA82FC 		sxtb	ip, r2
 3215              		.loc 1 1419 0
 3216 0f8a 40F2252E 		movw	lr, #549
 3217              		.loc 1 1424 0
 3218 0f8e BCF1000F 		cmp	ip, #0
 3219              		.loc 1 1419 0
 3220 0f92 C4F80CE0 		str	lr, [r4, #12]
 3221              		.loc 1 1424 0
 3222 0f96 9ADA     		bge	.L320
 3223              		.loc 1 1426 0
 3224 0f98 D4F80CE0 		ldr	lr, [r4, #12]
 3225 0f9c 4EF4C07E 		orr	lr, lr, #384
 3226 0fa0 C4F80CE0 		str	lr, [r4, #12]
 3227              	.LVL268:
 3228 0fa4 93E7     		b	.L320
 3229              	.LVL269:
 3230              	.L314:
 3231 0fa6 4FFA82FC 		sxtb	ip, r2
 3232 0faa 90E7     		b	.L320
 3233              		.cfi_endproc
 3234              	.LFE162:
 3235              		.size	USB_HC_Init, .-USB_HC_Init
 3236              		.align	2
 3237 0fac AFF30080 		.p2align 4,,-1
 3238              		.global	USB_HC_StartXfer
 3239              		.thumb
 3240              		.thumb_func
 3241              		.type	USB_HC_StartXfer, %function
 3242              	USB_HC_StartXfer:
 3243              	.LFB163:
 3244              		.loc 1 1469 0
 3245              		.cfi_startproc
 3246              		@ args = 0, pretend = 0, frame = 0
 3247              		@ frame_needed = 0, uses_anonymous_args = 0
 3248              	.LVL270:
 3249              		.loc 1 1475 0
 3250 0fb0 B0F1A04F 		cmp	r0, #1342177280
 3251              		.loc 1 1469 0
 3252 0fb4 F8B5     		push	{r3, r4, r5, r6, r7, lr}
 3253              		.cfi_def_cfa_offset 24
 3254              		.cfi_offset 3, -24
 3255              		.cfi_offset 4, -20
 3256              		.cfi_offset 5, -16
 3257              		.cfi_offset 6, -12
 3258              		.cfi_offset 7, -8
 3259              		.cfi_offset 14, -4
 3260              		.loc 1 1475 0
 3261 0fb6 08D0     		beq	.L341
 3262              		.loc 1 1475 0 is_stmt 0 discriminator 1
 3263 0fb8 0B79     		ldrb	r3, [r1, #4]	@ zero_extendqisi2
 3264 0fba 33B9     		cbnz	r3, .L341
 3265              		.loc 1 1477 0 is_stmt 1
 3266 0fbc 002A     		cmp	r2, #0
ARM GAS  /tmp/cclsZlw8.s 			page 59


 3267 0fbe 40F08B80 		bne	.L343
 3268              		.loc 1 1477 0 is_stmt 0 discriminator 1
 3269 0fc2 4B79     		ldrb	r3, [r1, #5]	@ zero_extendqisi2
 3270 0fc4 012B     		cmp	r3, #1
 3271 0fc6 00F0A580 		beq	.L362
 3272              	.L341:
 3273              		.loc 1 1490 0 is_stmt 1
 3274 0fca 0B69     		ldr	r3, [r1, #16]
 3275 0fcc 002B     		cmp	r3, #0
 3276 0fce 54D1     		bne	.L363
 3277              	.L354:
 3278 0fd0 4FF40026 		mov	r6, #524288
 3279 0fd4 0123     		movs	r3, #1
 3280              	.LVL271:
 3281              	.L345:
 3282              		.loc 1 1504 0
 3283 0fd6 CC78     		ldrb	r4, [r1, #3]	@ zero_extendqisi2
 3284 0fd8 002C     		cmp	r4, #0
 3285 0fda 5DD1     		bne	.L347
 3286              	.L364:
 3287 0fdc 0B69     		ldr	r3, [r1, #16]
 3288              	.L348:
 3289              		.loc 1 1514 0
 3290 0fde 8C7A     		ldrb	r4, [r1, #10]	@ zero_extendqisi2
 3291              		.loc 1 1512 0
 3292 0fe0 4D78     		ldrb	r5, [r1, #1]	@ zero_extendqisi2
 3293              		.loc 1 1514 0
 3294 0fe2 6407     		lsls	r4, r4, #29
 3295              		.loc 1 1512 0
 3296 0fe4 2027     		movs	r7, #32
 3297 0fe6 4FF4A06E 		mov	lr, #1280
 3298              		.loc 1 1514 0
 3299 0fea 04F0C044 		and	r4, r4, #1610612736
 3300 0fee 17FB05E5 		smlabb	r5, r7, r5, lr
 3301 0ff2 3443     		orrs	r4, r4, r6
 3302              		.loc 1 1512 0
 3303 0ff4 0544     		add	r5, r5, r0
 3304 0ff6 C3F31206 		ubfx	r6, r3, #0, #19
 3305              		.loc 1 1513 0
 3306 0ffa 3443     		orrs	r4, r4, r6
 3307              		.loc 1 1512 0
 3308 0ffc 2C61     		str	r4, [r5, #16]
 3309              		.loc 1 1516 0
 3310 0ffe 2AB1     		cbz	r2, .L349
 3311              		.loc 1 1519 0
 3312 1000 4D78     		ldrb	r5, [r1, #1]	@ zero_extendqisi2
 3313 1002 CC68     		ldr	r4, [r1, #12]
 3314 1004 17FB05E7 		smlabb	r7, r7, r5, lr
 3315 1008 0744     		add	r7, r7, r0
 3316 100a 7C61     		str	r4, [r7, #20]
 3317              	.L349:
 3318              		.loc 1 1523 0
 3319 100c 4F78     		ldrb	r7, [r1, #1]	@ zero_extendqisi2
 3320              		.loc 1 1522 0
 3321 100e D0F80854 		ldr	r5, [r0, #1032]
 3322              	.LVL272:
 3323              		.loc 1 1523 0
ARM GAS  /tmp/cclsZlw8.s 			page 60


 3324 1012 2024     		movs	r4, #32
 3325 1014 4FF4A066 		mov	r6, #1280
 3326 1018 14FB0767 		smlabb	r7, r4, r7, r6
 3327              		.loc 1 1522 0
 3328 101c 00F5806E 		add	lr, r0, #1024
 3329              		.loc 1 1523 0
 3330 1020 50F807C0 		ldr	ip, [r0, r7]
 3331 1024 2CF0005C 		bic	ip, ip, #536870912
 3332 1028 40F807C0 		str	ip, [r0, r7]
 3333              		.loc 1 1524 0
 3334 102c 4F78     		ldrb	r7, [r1, #1]	@ zero_extendqisi2
 3335 102e 14FB0767 		smlabb	r7, r4, r7, r6
 3336              		.loc 1 1522 0
 3337 1032 05F00105 		and	r5, r5, #1
 3338              	.LVL273:
 3339              		.loc 1 1524 0
 3340 1036 50F807C0 		ldr	ip, [r0, r7]
 3341 103a 85F00105 		eor	r5, r5, #1
 3342 103e 4CEA4575 		orr	r5, ip, r5, lsl #29
 3343 1042 C551     		str	r5, [r0, r7]
 3344              		.loc 1 1527 0
 3345 1044 4D78     		ldrb	r5, [r1, #1]	@ zero_extendqisi2
 3346 1046 14FB0565 		smlabb	r5, r4, r5, r6
 3347 104a 4759     		ldr	r7, [r0, r5]
 3348 104c 27F08047 		bic	r7, r7, #1073741824
 3349 1050 4751     		str	r7, [r0, r5]
 3350              		.loc 1 1528 0
 3351 1052 4D78     		ldrb	r5, [r1, #1]	@ zero_extendqisi2
 3352 1054 14FB0564 		smlabb	r4, r4, r5, r6
 3353 1058 0559     		ldr	r5, [r0, r4]
 3354 105a 45F00045 		orr	r5, r5, #-2147483648
 3355 105e 0551     		str	r5, [r0, r4]
 3356              		.loc 1 1530 0
 3357 1060 002A     		cmp	r2, #0
 3358 1062 30D1     		bne	.L344
 3359              		.loc 1 1532 0
 3360 1064 CA78     		ldrb	r2, [r1, #3]	@ zero_extendqisi2
 3361              	.LVL274:
 3362 1066 002A     		cmp	r2, #0
 3363 1068 2DD1     		bne	.L344
 3364              		.loc 1 1532 0 is_stmt 0 discriminator 1
 3365 106a 63B3     		cbz	r3, .L344
 3366              		.loc 1 1534 0 is_stmt 1
 3367 106c CA79     		ldrb	r2, [r1, #7]	@ zero_extendqisi2
 3368 106e 032A     		cmp	r2, #3
 3369 1070 23D8     		bhi	.L350
 3370 1072 DFE802F0 		tbb	[pc, r2]
 3371              	.L352:
 3372 1076 43       		.byte	(.L351-.L352)/2
 3373 1077 16       		.byte	(.L353-.L352)/2
 3374 1078 43       		.byte	(.L351-.L352)/2
 3375 1079 16       		.byte	(.L353-.L352)/2
 3376              	.LVL275:
 3377              		.p2align 1
 3378              	.L363:
 3379              		.loc 1 1492 0
 3380 107a 0C89     		ldrh	r4, [r1, #8]
ARM GAS  /tmp/cclsZlw8.s 			page 61


 3381 107c 013B     		subs	r3, r3, #1
 3382 107e 2344     		add	r3, r3, r4
 3383 1080 B3FBF4F3 		udiv	r3, r3, r4
 3384              	.LVL276:
 3385              		.loc 1 1494 0
 3386 1084 9BB2     		uxth	r3, r3
 3387 1086 B3F5807F 		cmp	r3, #256
 3388 108a 1ED8     		bhi	.L346
 3389 108c 2A4E     		ldr	r6, .L365
 3390 108e DC04     		lsls	r4, r3, #19
 3391 1090 2640     		ands	r6, r6, r4
 3392              	.LVL277:
 3393              		.loc 1 1504 0
 3394 1092 CC78     		ldrb	r4, [r1, #3]	@ zero_extendqisi2
 3395 1094 002C     		cmp	r4, #0
 3396 1096 A1D0     		beq	.L364
 3397              	.L347:
 3398              		.loc 1 1506 0
 3399 1098 0C89     		ldrh	r4, [r1, #8]
 3400 109a 03FB04F3 		mul	r3, r3, r4
 3401 109e 0B61     		str	r3, [r1, #16]
 3402 10a0 9DE7     		b	.L348
 3403              	.LVL278:
 3404              	.L353:
 3405              		.loc 1 1554 0
 3406 10a2 DEF81040 		ldr	r4, [lr, #16]
 3407              		.loc 1 1552 0
 3408 10a6 DA1C     		adds	r2, r3, #3
 3409              		.loc 1 1554 0
 3410 10a8 A4B2     		uxth	r4, r4
 3411 10aa C2F38F02 		ubfx	r2, r2, #2, #16
 3412 10ae A242     		cmp	r2, r4
 3413 10b0 03D9     		bls	.L350
 3414              		.loc 1 1557 0
 3415 10b2 8269     		ldr	r2, [r0, #24]
 3416 10b4 42F08062 		orr	r2, r2, #67108864
 3417 10b8 8261     		str	r2, [r0, #24]
 3418              	.LVL279:
 3419              	.L350:
 3420 10ba 0A46     		mov	r2, r1
 3421              	.LBB62:
 3422              	.LBB63:
 3423 10bc 9BB2     		uxth	r3, r3
 3424 10be C968     		ldr	r1, [r1, #12]
 3425              	.LVL280:
 3426 10c0 5278     		ldrb	r2, [r2, #1]	@ zero_extendqisi2
 3427              	.LVL281:
 3428 10c2 FEF7BDFF 		bl	USB_WritePacket.part.1
 3429              	.LVL282:
 3430              	.L344:
 3431              	.LBE63:
 3432              	.LBE62:
 3433              		.loc 1 1571 0
 3434 10c6 0020     		movs	r0, #0
 3435 10c8 F8BD     		pop	{r3, r4, r5, r6, r7, pc}
 3436              	.LVL283:
 3437              	.L346:
ARM GAS  /tmp/cclsZlw8.s 			page 62


 3438              		.loc 1 1497 0
 3439 10ca 2402     		lsls	r4, r4, #8
 3440 10cc 0C61     		str	r4, [r1, #16]
 3441 10ce 4FF00066 		mov	r6, #134217728
 3442 10d2 4FF48073 		mov	r3, #256
 3443 10d6 7EE7     		b	.L345
 3444              	.LVL284:
 3445              	.L343:
 3446              		.loc 1 1482 0
 3447 10d8 012A     		cmp	r2, #1
 3448 10da 7FF476AF 		bne	.L341
 3449              		.loc 1 1484 0
 3450 10de 4C78     		ldrb	r4, [r1, #1]	@ zero_extendqisi2
 3451 10e0 00EB4414 		add	r4, r0, r4, lsl #5
 3452 10e4 D4F80C55 		ldr	r5, [r4, #1292]
 3453 10e8 25F06005 		bic	r5, r5, #96
 3454 10ec C4F80C55 		str	r5, [r4, #1292]
 3455              		.loc 1 1485 0
 3456 10f0 4B71     		strb	r3, [r1, #5]
 3457              		.loc 1 1490 0
 3458 10f2 0B69     		ldr	r3, [r1, #16]
 3459 10f4 002B     		cmp	r3, #0
 3460 10f6 3FF46BAF 		beq	.L354
 3461 10fa BEE7     		b	.L363
 3462              	.LVL285:
 3463              	.L351:
 3464              		.loc 1 1543 0
 3465 10fc C46A     		ldr	r4, [r0, #44]
 3466              		.loc 1 1540 0
 3467 10fe DA1C     		adds	r2, r3, #3
 3468              		.loc 1 1543 0
 3469 1100 A4B2     		uxth	r4, r4
 3470 1102 C2F38F02 		ubfx	r2, r2, #2, #16
 3471 1106 A242     		cmp	r2, r4
 3472 1108 D7D9     		bls	.L350
 3473              		.loc 1 1546 0
 3474 110a 8269     		ldr	r2, [r0, #24]
 3475 110c 42F02002 		orr	r2, r2, #32
 3476 1110 8261     		str	r2, [r0, #24]
 3477 1112 D2E7     		b	.L350
 3478              	.LVL286:
 3479              	.L362:
 3480              		.loc 1 1479 0
 3481 1114 4A78     		ldrb	r2, [r1, #1]	@ zero_extendqisi2
 3482              	.LVL287:
 3483              	.LBB64:
 3484              	.LBB65:
 3485              		.loc 1 1656 0
 3486 1116 0949     		ldr	r1, .L365+4
 3487              	.LVL288:
 3488 1118 4FF4A063 		mov	r3, #1280
 3489 111c 03EB4213 		add	r3, r3, r2, lsl #5
 3490 1120 C218     		adds	r2, r0, r3
 3491              	.LVL289:
 3492 1122 1161     		str	r1, [r2, #16]
 3493              	.LVL290:
 3494              		.loc 1 1660 0
ARM GAS  /tmp/cclsZlw8.s 			page 63


 3495 1124 C258     		ldr	r2, [r0, r3]
 3496 1126 22F08042 		bic	r2, r2, #1073741824
 3497 112a C250     		str	r2, [r0, r3]
 3498              		.loc 1 1661 0
 3499 112c C258     		ldr	r2, [r0, r3]
 3500 112e 42F00042 		orr	r2, r2, #-2147483648
 3501 1132 C250     		str	r2, [r0, r3]
 3502              	.LBE65:
 3503              	.LBE64:
 3504              		.loc 1 1480 0
 3505 1134 C7E7     		b	.L344
 3506              	.L366:
 3507 1136 00BF     		.align	2
 3508              	.L365:
 3509 1138 0000F81F 		.word	536346624
 3510 113c 00000880 		.word	-2146959360
 3511              		.cfi_endproc
 3512              	.LFE163:
 3513              		.size	USB_HC_StartXfer, .-USB_HC_StartXfer
 3514              		.align	2
 3515              		.p2align 4,,-1
 3516              		.global	USB_HC_ReadInterrupt
 3517              		.thumb
 3518              		.thumb_func
 3519              		.type	USB_HC_ReadInterrupt, %function
 3520              	USB_HC_ReadInterrupt:
 3521              	.LFB164:
 3522              		.loc 1 1579 0
 3523              		.cfi_startproc
 3524              		@ args = 0, pretend = 0, frame = 0
 3525              		@ frame_needed = 0, uses_anonymous_args = 0
 3526              		@ link register save eliminated.
 3527              	.LVL291:
 3528              		.loc 1 1580 0
 3529 1140 00F58060 		add	r0, r0, #1024
 3530              	.LVL292:
 3531 1144 4069     		ldr	r0, [r0, #20]
 3532              	.LVL293:
 3533              		.loc 1 1581 0
 3534 1146 80B2     		uxth	r0, r0
 3535 1148 7047     		bx	lr
 3536              		.cfi_endproc
 3537              	.LFE164:
 3538              		.size	USB_HC_ReadInterrupt, .-USB_HC_ReadInterrupt
 3539 114a 00BF     		.align	2
 3540 114c AFF30080 		.p2align 4,,-1
 3541              		.global	USB_HC_Halt
 3542              		.thumb
 3543              		.thumb_func
 3544              		.type	USB_HC_Halt, %function
 3545              	USB_HC_Halt:
 3546              	.LFB165:
 3547              		.loc 1 1591 0
 3548              		.cfi_startproc
 3549              		@ args = 0, pretend = 0, frame = 0
 3550              		@ frame_needed = 0, uses_anonymous_args = 0
 3551              		@ link register save eliminated.
ARM GAS  /tmp/cclsZlw8.s 			page 64


 3552              	.LVL294:
 3553 1150 00F5A063 		add	r3, r0, #1280
 3554              		.loc 1 1595 0
 3555 1154 03EB4111 		add	r1, r3, r1, lsl #5
 3556              	.LVL295:
 3557 1158 0B68     		ldr	r3, [r1]
 3558 115a 0B68     		ldr	r3, [r1]
 3559 115c 13F4002F 		tst	r3, #524288
 3560              		.loc 1 1597 0
 3561 1160 0B68     		ldr	r3, [r1]
 3562 1162 43F08043 		orr	r3, r3, #1073741824
 3563 1166 0B60     		str	r3, [r1]
 3564              		.loc 1 1595 0
 3565 1168 19D0     		beq	.L369
 3566              		.loc 1 1599 0
 3567 116a C36A     		ldr	r3, [r0, #44]
 3568 116c 9BB2     		uxth	r3, r3
 3569 116e 002B     		cmp	r3, #0
 3570 1170 2FD1     		bne	.L375
 3571              		.loc 1 1601 0
 3572 1172 0B68     		ldr	r3, [r1]
 3573 1174 23F00043 		bic	r3, r3, #-2147483648
 3574 1178 0B60     		str	r3, [r1]
 3575              		.loc 1 1602 0
 3576 117a 0B68     		ldr	r3, [r1]
 3577 117c 43F00043 		orr	r3, r3, #-2147483648
 3578 1180 0B60     		str	r3, [r1]
 3579              		.loc 1 1603 0
 3580 1182 0B68     		ldr	r3, [r1]
 3581 1184 23F40043 		bic	r3, r3, #32768
 3582 1188 0B60     		str	r3, [r1]
 3583              	.LVL296:
 3584 118a 4FF47A73 		mov	r3, #1000
 3585 118e 01E0     		b	.L371
 3586              	.LVL297:
 3587              	.L373:
 3588              		.loc 1 1606 0
 3589 1190 013B     		subs	r3, r3, #1
 3590              	.LVL298:
 3591 1192 02D0     		beq	.L372
 3592              	.LVL299:
 3593              	.L371:
 3594              		.loc 1 1611 0
 3595 1194 0A68     		ldr	r2, [r1]
 3596 1196 002A     		cmp	r2, #0
 3597 1198 FADB     		blt	.L373
 3598              	.LVL300:
 3599              	.L372:
 3600              		.loc 1 1643 0
 3601 119a 0020     		movs	r0, #0
 3602              	.LVL301:
 3603 119c 7047     		bx	lr
 3604              	.LVL302:
 3605              	.L369:
 3606              		.loc 1 1622 0
 3607 119e D0F81034 		ldr	r3, [r0, #1040]
 3608 11a2 9BB2     		uxth	r3, r3
ARM GAS  /tmp/cclsZlw8.s 			page 65


 3609 11a4 ABB9     		cbnz	r3, .L375
 3610              		.loc 1 1624 0
 3611 11a6 0B68     		ldr	r3, [r1]
 3612 11a8 23F00043 		bic	r3, r3, #-2147483648
 3613 11ac 0B60     		str	r3, [r1]
 3614              		.loc 1 1625 0
 3615 11ae 0B68     		ldr	r3, [r1]
 3616 11b0 43F00043 		orr	r3, r3, #-2147483648
 3617 11b4 0B60     		str	r3, [r1]
 3618              		.loc 1 1626 0
 3619 11b6 0B68     		ldr	r3, [r1]
 3620 11b8 23F40043 		bic	r3, r3, #32768
 3621 11bc 0B60     		str	r3, [r1]
 3622              	.LVL303:
 3623 11be 4FF47A73 		mov	r3, #1000
 3624 11c2 01E0     		b	.L376
 3625              	.LVL304:
 3626              	.L377:
 3627              		.loc 1 1629 0
 3628 11c4 013B     		subs	r3, r3, #1
 3629              	.LVL305:
 3630 11c6 E8D0     		beq	.L372
 3631              	.LVL306:
 3632              	.L376:
 3633              		.loc 1 1634 0
 3634 11c8 0A68     		ldr	r2, [r1]
 3635 11ca 002A     		cmp	r2, #0
 3636 11cc FADB     		blt	.L377
 3637              		.loc 1 1643 0
 3638 11ce 0020     		movs	r0, #0
 3639              	.LVL307:
 3640 11d0 7047     		bx	lr
 3641              	.LVL308:
 3642              	.L375:
 3643              		.loc 1 1638 0
 3644 11d2 0B68     		ldr	r3, [r1]
 3645 11d4 43F00043 		orr	r3, r3, #-2147483648
 3646 11d8 0B60     		str	r3, [r1]
 3647              		.loc 1 1643 0
 3648 11da 0020     		movs	r0, #0
 3649              	.LVL309:
 3650 11dc 7047     		bx	lr
 3651              		.cfi_endproc
 3652              	.LFE165:
 3653              		.size	USB_HC_Halt, .-USB_HC_Halt
 3654 11de 00BF     		.align	2
 3655              		.p2align 4,,-1
 3656              		.global	USB_DoPing
 3657              		.thumb
 3658              		.thumb_func
 3659              		.type	USB_DoPing, %function
 3660              	USB_DoPing:
 3661              	.LFB166:
 3662              		.loc 1 1653 0
 3663              		.cfi_startproc
 3664              		@ args = 0, pretend = 0, frame = 0
 3665              		@ frame_needed = 0, uses_anonymous_args = 0
ARM GAS  /tmp/cclsZlw8.s 			page 66


 3666              		@ link register save eliminated.
 3667              	.LVL310:
 3668 11e0 00F5A060 		add	r0, r0, #1280
 3669              	.LVL311:
 3670              		.loc 1 1656 0
 3671 11e4 00EB4111 		add	r1, r0, r1, lsl #5
 3672              	.LVL312:
 3673 11e8 054B     		ldr	r3, .L384
 3674 11ea 0B61     		str	r3, [r1, #16]
 3675              		.loc 1 1660 0
 3676 11ec 0B68     		ldr	r3, [r1]
 3677 11ee 23F08043 		bic	r3, r3, #1073741824
 3678 11f2 0B60     		str	r3, [r1]
 3679              		.loc 1 1661 0
 3680 11f4 0B68     		ldr	r3, [r1]
 3681 11f6 43F00043 		orr	r3, r3, #-2147483648
 3682 11fa 0B60     		str	r3, [r1]
 3683              		.loc 1 1664 0
 3684 11fc 0020     		movs	r0, #0
 3685              	.LVL313:
 3686 11fe 7047     		bx	lr
 3687              	.L385:
 3688              		.align	2
 3689              	.L384:
 3690 1200 00000880 		.word	-2146959360
 3691              		.cfi_endproc
 3692              	.LFE166:
 3693              		.size	USB_DoPing, .-USB_DoPing
 3694              		.align	2
 3695 1204 AFF30080 		.p2align 4,,-1
 3695      AFF30080 
 3695      AFF30080 
 3696              		.global	USB_StopHost
 3697              		.thumb
 3698              		.thumb_func
 3699              		.type	USB_StopHost, %function
 3700              	USB_StopHost:
 3701              	.LFB167:
 3702              		.loc 1 1672 0
 3703              		.cfi_startproc
 3704              		@ args = 0, pretend = 0, frame = 0
 3705              		@ frame_needed = 0, uses_anonymous_args = 0
 3706              		@ link register save eliminated.
 3707              	.LVL314:
 3708              	.LBB66:
 3709              	.LBB67:
 3710              		.loc 1 161 0
 3711 1210 8268     		ldr	r2, [r0, #8]
 3712              	.LBE67:
 3713              	.LBE66:
 3714              	.LBB70:
 3715              	.LBB71:
 3716              		.loc 1 347 0
 3717 1212 224B     		ldr	r3, .L413
 3718 1214 4FF40871 		mov	r1, #544
 3719              	.LBE71:
 3720              	.LBE70:
ARM GAS  /tmp/cclsZlw8.s 			page 67


 3721              	.LBB73:
 3722              	.LBB68:
 3723              		.loc 1 161 0
 3724 1218 22F00102 		bic	r2, r2, #1
 3725              	.LBE68:
 3726              	.LBE73:
 3727              		.loc 1 1672 0
 3728 121c 10B4     		push	{r4}
 3729              		.cfi_def_cfa_offset 4
 3730              		.cfi_offset 4, -4
 3731              	.LBB74:
 3732              	.LBB69:
 3733              		.loc 1 161 0
 3734 121e 8260     		str	r2, [r0, #8]
 3735              	.LVL315:
 3736              	.LBE69:
 3737              	.LBE74:
 3738              	.LBB75:
 3739              	.LBB72:
 3740              		.loc 1 347 0
 3741 1220 0161     		str	r1, [r0, #16]
 3742              	.LVL316:
 3743 1222 01E0     		b	.L387
 3744              	.LVL317:
 3745              	.L389:
 3746              		.loc 1 351 0
 3747 1224 013B     		subs	r3, r3, #1
 3748              	.LVL318:
 3749 1226 02D0     		beq	.L388
 3750              	.LVL319:
 3751              	.L387:
 3752              		.loc 1 356 0
 3753 1228 0269     		ldr	r2, [r0, #16]
 3754 122a 9106     		lsls	r1, r2, #26
 3755 122c FAD4     		bmi	.L389
 3756              	.LVL320:
 3757              	.L388:
 3758              	.LBE72:
 3759              	.LBE75:
 3760              	.LBB76:
 3761              	.LBB77:
 3762              		.loc 1 371 0
 3763 122e 1023     		movs	r3, #16
 3764 1230 0361     		str	r3, [r0, #16]
 3765              	.LVL321:
 3766 1232 1A4B     		ldr	r3, .L413
 3767 1234 01E0     		b	.L390
 3768              	.LVL322:
 3769              	.L392:
 3770              		.loc 1 375 0
 3771 1236 013B     		subs	r3, r3, #1
 3772              	.LVL323:
 3773 1238 02D0     		beq	.L391
 3774              	.LVL324:
 3775              	.L390:
 3776              		.loc 1 380 0
 3777 123a 0269     		ldr	r2, [r0, #16]
ARM GAS  /tmp/cclsZlw8.s 			page 68


 3778 123c D206     		lsls	r2, r2, #27
 3779 123e FAD4     		bmi	.L392
 3780              	.LVL325:
 3781              	.L391:
 3782 1240 00F5A061 		add	r1, r0, #1280
 3783              		.loc 1 371 0 discriminator 3
 3784 1244 0A46     		mov	r2, r1
 3785 1246 00F5E064 		add	r4, r0, #1792
 3786              	.L393:
 3787              	.LBE77:
 3788              	.LBE76:
 3789              		.loc 1 1687 0 discriminator 3
 3790 124a 1368     		ldr	r3, [r2]
 3791              	.LVL326:
 3792              		.loc 1 1690 0 discriminator 3
 3793 124c 23F08023 		bic	r3, r3, #-2147450880
 3794              	.LVL327:
 3795 1250 43F08043 		orr	r3, r3, #1073741824
 3796              	.LVL328:
 3797              		.loc 1 1691 0 discriminator 3
 3798 1254 42F8203B 		str	r3, [r2], #32
 3799              	.LVL329:
 3800              		.loc 1 1684 0 discriminator 3
 3801 1258 A242     		cmp	r2, r4
 3802 125a F6D1     		bne	.L393
 3803 125c 0023     		movs	r3, #0
 3804              	.LVL330:
 3805              	.L395:
 3806              		.loc 1 1698 0
 3807 125e 0A68     		ldr	r2, [r1]
 3808              	.LVL331:
 3809              		.loc 1 1702 0
 3810 1260 22F40042 		bic	r2, r2, #32768
 3811              	.LVL332:
 3812 1264 42F04042 		orr	r2, r2, #-1073741824
 3813              	.LVL333:
 3814              		.loc 1 1704 0
 3815 1268 0A60     		str	r2, [r1]
 3816 126a 02E0     		b	.L397
 3817              	.LVL334:
 3818              	.L394:
 3819              		.loc 1 1712 0
 3820 126c 0A68     		ldr	r2, [r1]
 3821 126e 002A     		cmp	r2, #0
 3822 1270 03DA     		bge	.L398
 3823              	.L397:
 3824              		.loc 1 1707 0
 3825 1272 0133     		adds	r3, r3, #1
 3826              	.LVL335:
 3827 1274 B3F57A7F 		cmp	r3, #1000
 3828 1278 F8D9     		bls	.L394
 3829              	.L398:
 3830 127a 2031     		adds	r1, r1, #32
 3831              	.LVL336:
 3832              		.loc 1 1695 0
 3833 127c A142     		cmp	r1, r4
 3834 127e EED1     		bne	.L395
ARM GAS  /tmp/cclsZlw8.s 			page 69


 3835              		.loc 1 1716 0
 3836 1280 4FF0FF33 		mov	r3, #-1
 3837              	.LVL337:
 3838 1284 C0F81434 		str	r3, [r0, #1044]
 3839              	.LVL338:
 3840              		.loc 1 1717 0
 3841 1288 4361     		str	r3, [r0, #20]
 3842              	.LVL339:
 3843              	.LBB78:
 3844              	.LBB79:
 3845              		.loc 1 148 0
 3846 128a 8368     		ldr	r3, [r0, #8]
 3847              	.LBE79:
 3848              	.LBE78:
 3849              		.loc 1 1720 0
 3850 128c 5DF8044B 		ldr	r4, [sp], #4
 3851              		.cfi_restore 4
 3852              		.cfi_def_cfa_offset 0
 3853              	.LBB81:
 3854              	.LBB80:
 3855              		.loc 1 148 0
 3856 1290 43F00103 		orr	r3, r3, #1
 3857 1294 8360     		str	r3, [r0, #8]
 3858              	.LBE80:
 3859              	.LBE81:
 3860              		.loc 1 1720 0
 3861 1296 0020     		movs	r0, #0
 3862              	.LVL340:
 3863 1298 7047     		bx	lr
 3864              	.L414:
 3865 129a 00BF     		.align	2
 3866              	.L413:
 3867 129c 400D0300 		.word	200000
 3868              		.cfi_endproc
 3869              	.LFE167:
 3870              		.size	USB_StopHost, .-USB_StopHost
 3871              		.bss
 3872              		.align	2
 3873              		.set	.LANCHOR0,. + 0
 3874              		.type	debug.7035, %object
 3875              		.size	debug.7035, 4
 3876              	debug.7035:
 3877 0000 00000000 		.space	4
 3878              		.text
 3879              	.Letext0:
 3880              		.file 2 "/home/sbcu/Dropbox/pcb-layouts/axo-on-discovery-board/axoloti/platform_linux/arm-none-eab
 3881              		.file 3 "/home/sbcu/Dropbox/pcb-layouts/axo-on-discovery-board/axoloti/platform_linux/arm-none-eab
 3882              		.file 4 "./stm32f427xx.h"
 3883              		.file 5 "./stm32f4xxc.h"
 3884              		.file 6 "./STM32F4xx_HAL_Driver/Inc/stm32f4xx_hal_def.h"
 3885              		.file 7 "./STM32F4xx_HAL_Driver/Inc/stm32f4xx_ll_usb.h"
 3886              		.file 8 "/home/sbcu/Dropbox/pcb-layouts/axo-on-discovery-board/axoloti/platform_linux/../CMSIS//In
 3887              		.file 9 "./STM32F4xx_HAL_Driver/Inc/stm32f4xx_hal.h"