ARM GAS  /tmp/cclsZlw8.s 			page 1


   1              		.syntax unified
   2              		.cpu cortex-m4
   3              		.eabi_attribute 27, 1
   4              		.eabi_attribute 28, 1
   5              		.fpu fpv4-sp-d16
   6              		.eabi_attribute 20, 1
   7              		.eabi_attribute 21, 1
   8              		.eabi_attribute 23, 3
   9              		.eabi_attribute 24, 1
  10              		.eabi_attribute 25, 1
  11              		.eabi_attribute 26, 1
  12              		.eabi_attribute 30, 2
  13              		.eabi_attribute 34, 1
  14              		.eabi_attribute 18, 4
  15              		.thumb
  16              		.file	"stm32f4xx_ll_usb.c"
  17              		.text
  18              	.Ltext0:
  19              		.cfi_sections	.debug_frame
  20              		.align	2
  21              		.p2align 4,,15
  22              		.thumb
  23              		.thumb_func
  24              		.type	USB_CoreReset, %function
  25              	USB_CoreReset:
  26              	.LFB155:
  27              		.file 1 "./STM32F4xx_HAL_Driver/Src/stm32f4xx_ll_usb.c"
  28              		.loc 1 1093 0
  29              		.cfi_startproc
  30              		@ args = 0, pretend = 0, frame = 0
  31              		@ frame_needed = 0, uses_anonymous_args = 0
  32              		@ link register save eliminated.
  33              	.LVL0:
  34              		.loc 1 1093 0
  35 0000 0B4B     		ldr	r3, .L14
  36 0002 01E0     		b	.L2
  37              	.LVL1:
  38              	.L4:
  39              		.loc 1 1099 0
  40 0004 013B     		subs	r3, r3, #1
  41              	.LVL2:
  42 0006 10D0     		beq	.L6
  43              	.LVL3:
  44              	.L2:
  45              		.loc 1 1104 0
  46 0008 0269     		ldr	r2, [r0, #16]
  47 000a 002A     		cmp	r2, #0
  48 000c FADA     		bge	.L4
  49              	.LVL4:
  50              		.loc 1 1108 0
  51 000e 0369     		ldr	r3, [r0, #16]
  52 0010 074A     		ldr	r2, .L14
  53 0012 43F00103 		orr	r3, r3, #1
  54 0016 0361     		str	r3, [r0, #16]
  55              	.LVL5:
  56 0018 01E0     		b	.L5
  57              	.LVL6:
ARM GAS  /tmp/cclsZlw8.s 			page 2


  58              	.L7:
  59              	.LBB36:
  60              	.LBB37:
  61              		.loc 1 1112 0
  62 001a 013A     		subs	r2, r2, #1
  63              	.LVL7:
  64 001c 05D0     		beq	.L6
  65              	.LVL8:
  66              	.L5:
  67              		.loc 1 1117 0
  68 001e 0369     		ldr	r3, [r0, #16]
  69 0020 13F00103 		ands	r3, r3, #1
  70 0024 F9D1     		bne	.L7
  71              		.loc 1 1119 0
  72 0026 1846     		mov	r0, r3
  73              	.LVL9:
  74              	.LBE37:
  75              	.LBE36:
  76              		.loc 1 1120 0
  77 0028 7047     		bx	lr
  78              	.LVL10:
  79              	.L6:
  80              		.loc 1 1101 0
  81 002a 0320     		movs	r0, #3
  82              	.LVL11:
  83 002c 7047     		bx	lr
  84              	.L15:
  85 002e 00BF     		.align	2
  86              	.L14:
  87 0030 400D0300 		.word	200000
  88              		.cfi_endproc
  89              	.LFE155:
  90              		.size	USB_CoreReset, .-USB_CoreReset
  91              		.align	2
  92 0034 AFF30080 		.p2align 4,,15
  92      AFF30080 
  92      AFF30080 
  93              		.thumb
  94              		.thumb_func
  95              		.type	USB_WritePacket.part.1, %function
  96              	USB_WritePacket.part.1:
  97              	.LFB169:
  98              		.loc 1 775 0
  99              		.cfi_startproc
 100              		@ args = 0, pretend = 0, frame = 0
 101              		@ frame_needed = 0, uses_anonymous_args = 0
 102              		@ link register save eliminated.
 103              	.LVL12:
 104              		.loc 1 781 0
 105 0040 0333     		adds	r3, r3, #3
 106              	.LVL13:
 107              		.loc 1 782 0
 108 0042 9B10     		asrs	r3, r3, #2
 109              	.LVL14:
 110 0044 0ED0     		beq	.L23
 111 0046 00F58050 		add	r0, r0, #4096
 112              	.LVL15:
ARM GAS  /tmp/cclsZlw8.s 			page 3


 113              		.loc 1 775 0
 114 004a 30B4     		push	{r4, r5}
 115              		.cfi_def_cfa_offset 8
 116              		.cfi_offset 4, -8
 117              		.cfi_offset 5, -4
 118 004c 00EB0232 		add	r2, r0, r2, lsl #12
 119              	.LVL16:
 120              		.loc 1 782 0
 121 0050 0024     		movs	r4, #0
 122              	.LVL17:
 123              	.L18:
 124 0052 0134     		adds	r4, r4, #1
 125              	.LVL18:
 126              		.loc 1 784 0
 127 0054 51F8045B 		ldr	r5, [r1], #4
 128              	.LVL19:
 129 0058 1560     		str	r5, [r2]
 130              		.loc 1 782 0
 131 005a A342     		cmp	r3, r4
 132 005c F9D1     		bne	.L18
 133              		.loc 1 788 0
 134 005e 0020     		movs	r0, #0
 135              	.LVL20:
 136 0060 30BC     		pop	{r4, r5}
 137              		.cfi_restore 5
 138              		.cfi_restore 4
 139              		.cfi_def_cfa_offset 0
 140              	.LVL21:
 141 0062 7047     		bx	lr
 142              	.LVL22:
 143              	.L23:
 144 0064 0020     		movs	r0, #0
 145              	.LVL23:
 146 0066 7047     		bx	lr
 147              		.cfi_endproc
 148              	.LFE169:
 149              		.size	USB_WritePacket.part.1, .-USB_WritePacket.part.1
 150              		.align	2
 151 0068 AFF30080 		.p2align 4,,15
 151      AFF30080 
 152              		.global	USB_CoreInit
 153              		.thumb
 154              		.thumb_func
 155              		.type	USB_CoreInit, %function
 156              	USB_CoreInit:
 157              	.LFB123:
 158              		.loc 1 100 0
 159              		.cfi_startproc
 160              		@ args = 52, pretend = 16, frame = 0
 161              		@ frame_needed = 0, uses_anonymous_args = 0
 162              	.LVL24:
 163 0070 84B0     		sub	sp, sp, #16
 164              		.cfi_def_cfa_offset 16
 165 0072 38B5     		push	{r3, r4, r5, lr}
 166              		.cfi_def_cfa_offset 32
 167              		.cfi_offset 3, -32
 168              		.cfi_offset 4, -28
ARM GAS  /tmp/cclsZlw8.s 			page 4


 169              		.cfi_offset 5, -24
 170              		.cfi_offset 14, -20
 171              		.loc 1 101 0
 172 0074 0A9D     		ldr	r5, [sp, #40]
 173              		.loc 1 100 0
 174 0076 05AC     		add	r4, sp, #20
 175              		.loc 1 101 0
 176 0078 012D     		cmp	r5, #1
 177              		.loc 1 100 0
 178 007a 84E80E00 		stmia	r4, {r1, r2, r3}
 179 007e 0446     		mov	r4, r0
 180              		.loc 1 101 0
 181 0080 18D0     		beq	.L30
 182              		.loc 1 122 0
 183 0082 C368     		ldr	r3, [r0, #12]
 184 0084 43F04003 		orr	r3, r3, #64
 185 0088 C360     		str	r3, [r0, #12]
 186              		.loc 1 125 0
 187 008a FFF7B9FF 		bl	USB_CoreReset
 188              	.LVL25:
 189              		.loc 1 128 0
 190 008e 4FF48033 		mov	r3, #65536
 191 0092 A363     		str	r3, [r4, #56]
 192              	.L27:
 193              		.loc 1 131 0
 194 0094 089B     		ldr	r3, [sp, #32]
 195 0096 012B     		cmp	r3, #1
 196 0098 07D1     		bne	.L28
 197              		.loc 1 133 0
 198 009a A368     		ldr	r3, [r4, #8]
 199 009c 43F00C03 		orr	r3, r3, #12
 200 00a0 A360     		str	r3, [r4, #8]
 201              		.loc 1 134 0
 202 00a2 A368     		ldr	r3, [r4, #8]
 203 00a4 43F02003 		orr	r3, r3, #32
 204 00a8 A360     		str	r3, [r4, #8]
 205              	.L28:
 206              		.loc 1 138 0
 207 00aa BDE83840 		pop	{r3, r4, r5, lr}
 208              		.cfi_remember_state
 209              		.cfi_restore 14
 210              		.cfi_restore 5
 211              		.cfi_restore 4
 212              		.cfi_restore 3
 213              		.cfi_def_cfa_offset 16
 214              	.LVL26:
 215 00ae 0020     		movs	r0, #0
 216 00b0 04B0     		add	sp, sp, #16
 217              		.cfi_def_cfa_offset 0
 218 00b2 7047     		bx	lr
 219              	.LVL27:
 220              	.L30:
 221              		.cfi_restore_state
 222              		.loc 1 104 0
 223 00b4 836B     		ldr	r3, [r0, #56]
 224              		.loc 1 111 0
 225 00b6 109A     		ldr	r2, [sp, #64]
ARM GAS  /tmp/cclsZlw8.s 			page 5


 226              		.loc 1 104 0
 227 00b8 23F48033 		bic	r3, r3, #65536
 228 00bc 8363     		str	r3, [r0, #56]
 229              		.loc 1 107 0
 230 00be C368     		ldr	r3, [r0, #12]
 231 00c0 23F48403 		bic	r3, r3, #4325376
 232 00c4 23F04003 		bic	r3, r3, #64
 233 00c8 C360     		str	r3, [r0, #12]
 234              		.loc 1 110 0
 235 00ca C368     		ldr	r3, [r0, #12]
 236              		.loc 1 111 0
 237 00cc 012A     		cmp	r2, #1
 238              		.loc 1 110 0
 239 00ce 23F44013 		bic	r3, r3, #3145728
 240 00d2 C360     		str	r3, [r0, #12]
 241              		.loc 1 111 0
 242 00d4 03D0     		beq	.L31
 243              	.L26:
 244              		.loc 1 116 0
 245 00d6 2046     		mov	r0, r4
 246              	.LVL28:
 247 00d8 FFF792FF 		bl	USB_CoreReset
 248              	.LVL29:
 249 00dc DAE7     		b	.L27
 250              	.LVL30:
 251              	.L31:
 252              		.loc 1 113 0
 253 00de C368     		ldr	r3, [r0, #12]
 254 00e0 43F48013 		orr	r3, r3, #1048576
 255 00e4 C360     		str	r3, [r0, #12]
 256 00e6 F6E7     		b	.L26
 257              		.cfi_endproc
 258              	.LFE123:
 259              		.size	USB_CoreInit, .-USB_CoreInit
 260              		.align	2
 261 00e8 AFF30080 		.p2align 4,,15
 261      AFF30080 
 262              		.global	USB_EnableGlobalInt
 263              		.thumb
 264              		.thumb_func
 265              		.type	USB_EnableGlobalInt, %function
 266              	USB_EnableGlobalInt:
 267              	.LFB124:
 268              		.loc 1 147 0
 269              		.cfi_startproc
 270              		@ args = 0, pretend = 0, frame = 0
 271              		@ frame_needed = 0, uses_anonymous_args = 0
 272              		@ link register save eliminated.
 273              	.LVL31:
 274              		.loc 1 147 0
 275 00f0 0246     		mov	r2, r0
 276              		.loc 1 150 0
 277 00f2 0020     		movs	r0, #0
 278              	.LVL32:
 279              		.loc 1 148 0
 280 00f4 9368     		ldr	r3, [r2, #8]
 281 00f6 43F00103 		orr	r3, r3, #1
ARM GAS  /tmp/cclsZlw8.s 			page 6


 282 00fa 9360     		str	r3, [r2, #8]
 283              		.loc 1 150 0
 284 00fc 7047     		bx	lr
 285              		.cfi_endproc
 286              	.LFE124:
 287              		.size	USB_EnableGlobalInt, .-USB_EnableGlobalInt
 288 00fe 00BF     		.align	2
 289              		.p2align 4,,15
 290              		.global	USB_DisableGlobalInt
 291              		.thumb
 292              		.thumb_func
 293              		.type	USB_DisableGlobalInt, %function
 294              	USB_DisableGlobalInt:
 295              	.LFB125:
 296              		.loc 1 160 0
 297              		.cfi_startproc
 298              		@ args = 0, pretend = 0, frame = 0
 299              		@ frame_needed = 0, uses_anonymous_args = 0
 300              		@ link register save eliminated.
 301              	.LVL33:
 302              		.loc 1 160 0
 303 0100 0246     		mov	r2, r0
 304              		.loc 1 163 0
 305 0102 0020     		movs	r0, #0
 306              	.LVL34:
 307              		.loc 1 161 0
 308 0104 9368     		ldr	r3, [r2, #8]
 309 0106 23F00103 		bic	r3, r3, #1
 310 010a 9360     		str	r3, [r2, #8]
 311              		.loc 1 163 0
 312 010c 7047     		bx	lr
 313              		.cfi_endproc
 314              	.LFE125:
 315              		.size	USB_DisableGlobalInt, .-USB_DisableGlobalInt
 316 010e 00BF     		.align	2
 317              		.p2align 4,,15
 318              		.global	USB_SetCurrentMode
 319              		.thumb
 320              		.thumb_func
 321              		.type	USB_SetCurrentMode, %function
 322              	USB_SetCurrentMode:
 323              	.LFB126:
 324              		.loc 1 176 0
 325              		.cfi_startproc
 326              		@ args = 0, pretend = 0, frame = 0
 327              		@ frame_needed = 0, uses_anonymous_args = 0
 328              	.LVL35:
 329 0110 08B5     		push	{r3, lr}
 330              		.cfi_def_cfa_offset 8
 331              		.cfi_offset 3, -8
 332              		.cfi_offset 14, -4
 333              		.loc 1 177 0
 334 0112 C368     		ldr	r3, [r0, #12]
 335              		.loc 1 179 0
 336 0114 0129     		cmp	r1, #1
 337              		.loc 1 177 0
 338 0116 23F0C043 		bic	r3, r3, #1610612736
ARM GAS  /tmp/cclsZlw8.s 			page 7


 339 011a C360     		str	r3, [r0, #12]
 340              		.loc 1 179 0
 341 011c 09D0     		beq	.L38
 342              		.loc 1 183 0
 343 011e 19B9     		cbnz	r1, .L36
 344              		.loc 1 185 0
 345 0120 C368     		ldr	r3, [r0, #12]
 346 0122 43F08043 		orr	r3, r3, #1073741824
 347 0126 C360     		str	r3, [r0, #12]
 348              	.L36:
 349              		.loc 1 187 0
 350 0128 3220     		movs	r0, #50
 351              	.LVL36:
 352 012a FFF7FEFF 		bl	HAL_Delay
 353              	.LVL37:
 354              		.loc 1 190 0
 355 012e 0020     		movs	r0, #0
 356 0130 08BD     		pop	{r3, pc}
 357              	.LVL38:
 358              	.L38:
 359              		.loc 1 181 0
 360 0132 C368     		ldr	r3, [r0, #12]
 361 0134 43F00053 		orr	r3, r3, #536870912
 362 0138 C360     		str	r3, [r0, #12]
 363              		.loc 1 187 0
 364 013a 3220     		movs	r0, #50
 365              	.LVL39:
 366 013c FFF7FEFF 		bl	HAL_Delay
 367              	.LVL40:
 368              		.loc 1 190 0
 369 0140 0020     		movs	r0, #0
 370 0142 08BD     		pop	{r3, pc}
 371              		.cfi_endproc
 372              	.LFE126:
 373              		.size	USB_SetCurrentMode, .-USB_SetCurrentMode
 374              		.align	2
 375 0144 AFF30080 		.p2align 4,,15
 375      AFF30080 
 375      AFF30080 
 376              		.global	USB_DevInit
 377              		.thumb
 378              		.thumb_func
 379              		.type	USB_DevInit, %function
 380              	USB_DevInit:
 381              	.LFB127:
 382              		.loc 1 201 0
 383              		.cfi_startproc
 384              		@ args = 52, pretend = 16, frame = 0
 385              		@ frame_needed = 0, uses_anonymous_args = 0
 386              	.LVL41:
 387 0150 84B0     		sub	sp, sp, #16
 388              		.cfi_def_cfa_offset 16
 389 0152 2DE9F043 		push	{r4, r5, r6, r7, r8, r9, lr}
 390              		.cfi_def_cfa_offset 44
 391              		.cfi_offset 4, -44
 392              		.cfi_offset 5, -40
 393              		.cfi_offset 6, -36
ARM GAS  /tmp/cclsZlw8.s 			page 8


 394              		.cfi_offset 7, -32
 395              		.cfi_offset 8, -28
 396              		.cfi_offset 9, -24
 397              		.cfi_offset 14, -20
 398              		.loc 1 201 0
 399 0156 08AC     		add	r4, sp, #32
 400 0158 84E80E00 		stmia	r4, {r1, r2, r3}
 401              		.loc 1 218 0
 402 015c 836B     		ldr	r3, [r0, #56]
 403 015e DDF84490 		ldr	r9, [sp, #68]
 404              	.LVL42:
 405 0162 DDF82CE0 		ldr	lr, [sp, #44]
 406              	.LVL43:
 407 0166 43F40023 		orr	r3, r3, #524288
 408 016a 8363     		str	r3, [r0, #56]
 409              		.loc 1 220 0
 410 016c B9F1000F 		cmp	r9, #0
 411 0170 03D1     		bne	.L40
 412              		.loc 1 222 0
 413 0172 836B     		ldr	r3, [r0, #56]
 414 0174 43F40013 		orr	r3, r3, #2097152
 415 0178 8363     		str	r3, [r0, #56]
 416              	.L40:
 417              		.loc 1 227 0
 418 017a 0023     		movs	r3, #0
 419 017c C0F8003E 		str	r3, [r0, #3584]
 420              		.loc 1 232 0
 421 0180 0D9B     		ldr	r3, [sp, #52]
 422              		.loc 1 230 0
 423 0182 D0F80028 		ldr	r2, [r0, #2048]
 424 0186 C0F80028 		str	r2, [r0, #2048]
 425              		.loc 1 232 0
 426 018a 012B     		cmp	r3, #1
 427              		.loc 1 230 0
 428 018c 00F50064 		add	r4, r0, #2048
 429              		.loc 1 232 0
 430 0190 00F08480 		beq	.L79
 431              	.LVL44:
 432              	.LBB38:
 433              	.LBB39:
 434              		.loc 1 399 0
 435 0194 D0F80038 		ldr	r3, [r0, #2048]
 436 0198 43F00303 		orr	r3, r3, #3
 437 019c C0F80038 		str	r3, [r0, #2048]
 438              	.LVL45:
 439              	.L43:
 440              	.LBE39:
 441              	.LBE38:
 442              	.LBB40:
 443              	.LBB41:
 444              		.loc 1 347 0
 445 01a0 4FF40873 		mov	r3, #544
 446 01a4 0361     		str	r3, [r0, #16]
 447              	.LVL46:
 448 01a6 444B     		ldr	r3, .L81
 449 01a8 01E0     		b	.L44
 450              	.LVL47:
ARM GAS  /tmp/cclsZlw8.s 			page 9


 451              	.L46:
 452              		.loc 1 351 0
 453 01aa 013B     		subs	r3, r3, #1
 454              	.LVL48:
 455 01ac 02D0     		beq	.L45
 456              	.LVL49:
 457              	.L44:
 458              		.loc 1 356 0
 459 01ae 0269     		ldr	r2, [r0, #16]
 460 01b0 9506     		lsls	r5, r2, #26
 461 01b2 FAD4     		bmi	.L46
 462              	.LVL50:
 463              	.L45:
 464              	.LBE41:
 465              	.LBE40:
 466              	.LBB42:
 467              	.LBB43:
 468              		.loc 1 371 0
 469 01b4 1023     		movs	r3, #16
 470 01b6 0361     		str	r3, [r0, #16]
 471              	.LVL51:
 472 01b8 3F4B     		ldr	r3, .L81
 473 01ba 01E0     		b	.L47
 474              	.LVL52:
 475              	.L49:
 476              		.loc 1 375 0
 477 01bc 013B     		subs	r3, r3, #1
 478              	.LVL53:
 479 01be 02D0     		beq	.L48
 480              	.LVL54:
 481              	.L47:
 482              		.loc 1 380 0
 483 01c0 0269     		ldr	r2, [r0, #16]
 484 01c2 D206     		lsls	r2, r2, #27
 485 01c4 FAD4     		bmi	.L49
 486              	.LVL55:
 487              	.L48:
 488              	.LBE43:
 489              	.LBE42:
 490              		.loc 1 257 0
 491 01c6 0022     		movs	r2, #0
 492              		.loc 1 259 0
 493 01c8 4FF0FF33 		mov	r3, #-1
 494              		.loc 1 257 0
 495 01cc 2261     		str	r2, [r4, #16]
 496              		.loc 1 258 0
 497 01ce 6261     		str	r2, [r4, #20]
 498              		.loc 1 259 0
 499 01d0 A361     		str	r3, [r4, #24]
 500              		.loc 1 260 0
 501 01d2 E261     		str	r2, [r4, #28]
 502              		.loc 1 262 0
 503 01d4 41B3     		cbz	r1, .L59
 504              		.loc 1 270 0
 505 01d6 1546     		mov	r5, r2
 506 01d8 00F51063 		add	r3, r0, #2304
 507              		.loc 1 266 0
ARM GAS  /tmp/cclsZlw8.s 			page 10


 508 01dc 4FF09048 		mov	r8, #1207959552
 509              		.loc 1 274 0
 510 01e0 FF26     		movs	r6, #255
 511              	.LVL56:
 512              	.L55:
 513              		.loc 1 264 0
 514 01e2 1F68     		ldr	r7, [r3]
 515              		.loc 1 262 0
 516 01e4 0132     		adds	r2, r2, #1
 517              	.LVL57:
 518              		.loc 1 264 0
 519 01e6 002F     		cmp	r7, #0
 520              		.loc 1 266 0
 521 01e8 B4BF     		ite	lt
 522 01ea C3F80080 		strlt	r8, [r3]
 523              		.loc 1 270 0
 524 01ee 1D60     		strge	r5, [r3]
 525              		.loc 1 262 0
 526 01f0 8A42     		cmp	r2, r1
 527              		.loc 1 273 0
 528 01f2 1D61     		str	r5, [r3, #16]
 529              		.loc 1 274 0
 530 01f4 9E60     		str	r6, [r3, #8]
 531 01f6 03F12003 		add	r3, r3, #32
 532              		.loc 1 262 0
 533 01fa F2D1     		bne	.L55
 534              	.LVL58:
 535 01fc 0022     		movs	r2, #0
 536              		.loc 1 285 0
 537 01fe 1646     		mov	r6, r2
 538 0200 00F53063 		add	r3, r0, #2816
 539              		.loc 1 281 0
 540 0204 4FF09048 		mov	r8, #1207959552
 541              		.loc 1 289 0
 542 0208 4FF0FF0C 		mov	ip, #255
 543              	.LVL59:
 544              	.L58:
 545              		.loc 1 279 0
 546 020c 1F68     		ldr	r7, [r3]
 547              		.loc 1 277 0
 548 020e 0132     		adds	r2, r2, #1
 549              	.LVL60:
 550              		.loc 1 279 0
 551 0210 002F     		cmp	r7, #0
 552              		.loc 1 281 0
 553 0212 B4BF     		ite	lt
 554 0214 C3F80080 		strlt	r8, [r3]
 555              		.loc 1 285 0
 556 0218 1E60     		strge	r6, [r3]
 557              		.loc 1 277 0
 558 021a 8A42     		cmp	r2, r1
 559              		.loc 1 288 0
 560 021c 1E61     		str	r6, [r3, #16]
 561              		.loc 1 289 0
 562 021e C3F808C0 		str	ip, [r3, #8]
 563 0222 03F12003 		add	r3, r3, #32
 564              		.loc 1 277 0
ARM GAS  /tmp/cclsZlw8.s 			page 11


 565 0226 F1D1     		bne	.L58
 566              	.LVL61:
 567              	.L59:
 568              		.loc 1 292 0
 569 0228 2369     		ldr	r3, [r4, #16]
 570              		.loc 1 294 0
 571 022a BEF1010F 		cmp	lr, #1
 572              		.loc 1 292 0
 573 022e 23F48073 		bic	r3, r3, #256
 574 0232 2361     		str	r3, [r4, #16]
 575              		.loc 1 294 0
 576 0234 23D0     		beq	.L80
 577              		.loc 1 304 0
 578 0236 0022     		movs	r2, #0
 579              		.loc 1 307 0
 580 0238 6FF08043 		mvn	r3, #1073741824
 581              		.loc 1 304 0
 582 023c 8261     		str	r2, [r0, #24]
 583              		.loc 1 307 0
 584 023e 4361     		str	r3, [r0, #20]
 585              		.loc 1 310 0
 586 0240 BEF1000F 		cmp	lr, #0
 587 0244 03D1     		bne	.L60
 588              		.loc 1 312 0
 589 0246 8369     		ldr	r3, [r0, #24]
 590 0248 43F01003 		orr	r3, r3, #16
 591 024c 8361     		str	r3, [r0, #24]
 592              	.LVL62:
 593              	.L60:
 594              		.loc 1 316 0
 595 024e 8169     		ldr	r1, [r0, #24]
 596 0250 1A4B     		ldr	r3, .L81+4
 597              		.loc 1 321 0
 598 0252 0E9A     		ldr	r2, [sp, #56]
 599              		.loc 1 316 0
 600 0254 0B43     		orrs	r3, r3, r1
 601 0256 8361     		str	r3, [r0, #24]
 602              		.loc 1 321 0
 603 0258 1AB1     		cbz	r2, .L61
 604              		.loc 1 323 0
 605 025a 8369     		ldr	r3, [r0, #24]
 606 025c 43F00803 		orr	r3, r3, #8
 607 0260 8361     		str	r3, [r0, #24]
 608              	.L61:
 609              		.loc 1 326 0
 610 0262 B9F1010F 		cmp	r9, #1
 611 0266 05D1     		bne	.L62
 612              		.loc 1 328 0
 613 0268 8369     		ldr	r3, [r0, #24]
 614 026a 43F08043 		orr	r3, r3, #1073741824
 615 026e 43F00403 		orr	r3, r3, #4
 616 0272 8361     		str	r3, [r0, #24]
 617              	.L62:
 618              		.loc 1 332 0
 619 0274 BDE8F043 		pop	{r4, r5, r6, r7, r8, r9, lr}
 620              		.cfi_remember_state
 621              		.cfi_restore 14
ARM GAS  /tmp/cclsZlw8.s 			page 12


 622              		.cfi_restore 9
 623              		.cfi_restore 8
 624              		.cfi_restore 7
 625              		.cfi_restore 6
 626              		.cfi_restore 5
 627              		.cfi_restore 4
 628              		.cfi_def_cfa_offset 16
 629              	.LVL63:
 630 0278 0020     		movs	r0, #0
 631              	.LVL64:
 632 027a 04B0     		add	sp, sp, #16
 633              		.cfi_def_cfa_offset 0
 634 027c 7047     		bx	lr
 635              	.LVL65:
 636              	.L80:
 637              		.cfi_restore_state
 638              		.loc 1 297 0
 639 027e 104B     		ldr	r3, .L81+8
 640 0280 2363     		str	r3, [r4, #48]
 641              		.loc 1 298 0
 642 0282 236B     		ldr	r3, [r4, #48]
 643 0284 43F48033 		orr	r3, r3, #65536
 644 0288 43F00303 		orr	r3, r3, #3
 645 028c 2363     		str	r3, [r4, #48]
 646              		.loc 1 304 0
 647 028e 0022     		movs	r2, #0
 648              		.loc 1 307 0
 649 0290 6FF08043 		mvn	r3, #1073741824
 650              		.loc 1 300 0
 651 0294 216B     		ldr	r1, [r4, #48]
 652              	.LVL66:
 653              		.loc 1 304 0
 654 0296 8261     		str	r2, [r0, #24]
 655              		.loc 1 307 0
 656 0298 4361     		str	r3, [r0, #20]
 657 029a D8E7     		b	.L60
 658              	.LVL67:
 659              	.L79:
 660              		.loc 1 234 0
 661 029c 0A9B     		ldr	r3, [sp, #40]
 662 029e 23B9     		cbnz	r3, .L42
 663              	.LVL68:
 664              	.LBB44:
 665              	.LBB45:
 666              		.loc 1 399 0
 667 02a0 D0F80038 		ldr	r3, [r0, #2048]
 668 02a4 C0F80038 		str	r3, [r0, #2048]
 669 02a8 7AE7     		b	.L43
 670              	.LVL69:
 671              	.L42:
 672              	.LBE45:
 673              	.LBE44:
 674              	.LBB46:
 675              	.LBB47:
 676 02aa D0F80038 		ldr	r3, [r0, #2048]
 677 02ae 43F00103 		orr	r3, r3, #1
 678 02b2 C0F80038 		str	r3, [r0, #2048]
ARM GAS  /tmp/cclsZlw8.s 			page 13


 679 02b6 73E7     		b	.L43
 680              	.L82:
 681              		.align	2
 682              	.L81:
 683 02b8 400D0300 		.word	200000
 684 02bc 00383C80 		.word	-2143537152
 685 02c0 00018000 		.word	8388864
 686              	.LBE47:
 687              	.LBE46:
 688              		.cfi_endproc
 689              	.LFE127:
 690              		.size	USB_DevInit, .-USB_DevInit
 691              		.align	2
 692 02c4 AFF30080 		.p2align 4,,15
 692      AFF30080 
 692      AFF30080 
 693              		.global	USB_FlushTxFifo
 694              		.thumb
 695              		.thumb_func
 696              		.type	USB_FlushTxFifo, %function
 697              	USB_FlushTxFifo:
 698              	.LFB128:
 699              		.loc 1 344 0
 700              		.cfi_startproc
 701              		@ args = 0, pretend = 0, frame = 0
 702              		@ frame_needed = 0, uses_anonymous_args = 0
 703              		@ link register save eliminated.
 704              	.LVL70:
 705              		.loc 1 347 0
 706 02d0 4901     		lsls	r1, r1, #5
 707              	.LVL71:
 708 02d2 41F02001 		orr	r1, r1, #32
 709 02d6 0161     		str	r1, [r0, #16]
 710              	.LVL72:
 711 02d8 054A     		ldr	r2, .L89
 712 02da 01E0     		b	.L84
 713              	.LVL73:
 714              	.L86:
 715              		.loc 1 351 0
 716 02dc 013A     		subs	r2, r2, #1
 717              	.LVL74:
 718 02de 05D0     		beq	.L87
 719              	.LVL75:
 720              	.L84:
 721              		.loc 1 356 0
 722 02e0 0369     		ldr	r3, [r0, #16]
 723 02e2 13F02003 		ands	r3, r3, #32
 724 02e6 F9D1     		bne	.L86
 725              		.loc 1 358 0
 726 02e8 1846     		mov	r0, r3
 727              	.LVL76:
 728 02ea 7047     		bx	lr
 729              	.LVL77:
 730              	.L87:
 731              		.loc 1 353 0
 732 02ec 0320     		movs	r0, #3
 733              	.LVL78:
ARM GAS  /tmp/cclsZlw8.s 			page 14


 734              		.loc 1 359 0
 735 02ee 7047     		bx	lr
 736              	.L90:
 737              		.align	2
 738              	.L89:
 739 02f0 400D0300 		.word	200000
 740              		.cfi_endproc
 741              	.LFE128:
 742              		.size	USB_FlushTxFifo, .-USB_FlushTxFifo
 743              		.align	2
 744 02f4 AFF30080 		.p2align 4,,15
 744      AFF30080 
 744      AFF30080 
 745              		.global	USB_FlushRxFifo
 746              		.thumb
 747              		.thumb_func
 748              		.type	USB_FlushRxFifo, %function
 749              	USB_FlushRxFifo:
 750              	.LFB129:
 751              		.loc 1 368 0
 752              		.cfi_startproc
 753              		@ args = 0, pretend = 0, frame = 0
 754              		@ frame_needed = 0, uses_anonymous_args = 0
 755              		@ link register save eliminated.
 756              	.LVL79:
 757              		.loc 1 371 0
 758 0300 1023     		movs	r3, #16
 759 0302 0361     		str	r3, [r0, #16]
 760              	.LVL80:
 761 0304 054A     		ldr	r2, .L97
 762 0306 01E0     		b	.L92
 763              	.LVL81:
 764              	.L94:
 765              		.loc 1 375 0
 766 0308 013A     		subs	r2, r2, #1
 767              	.LVL82:
 768 030a 05D0     		beq	.L95
 769              	.LVL83:
 770              	.L92:
 771              		.loc 1 380 0
 772 030c 0369     		ldr	r3, [r0, #16]
 773 030e 13F01003 		ands	r3, r3, #16
 774 0312 F9D1     		bne	.L94
 775              		.loc 1 382 0
 776 0314 1846     		mov	r0, r3
 777              	.LVL84:
 778 0316 7047     		bx	lr
 779              	.LVL85:
 780              	.L95:
 781              		.loc 1 377 0
 782 0318 0320     		movs	r0, #3
 783              	.LVL86:
 784              		.loc 1 383 0
 785 031a 7047     		bx	lr
 786              	.L98:
 787              		.align	2
 788              	.L97:
ARM GAS  /tmp/cclsZlw8.s 			page 15


 789 031c 400D0300 		.word	200000
 790              		.cfi_endproc
 791              	.LFE129:
 792              		.size	USB_FlushRxFifo, .-USB_FlushRxFifo
 793              		.align	2
 794              		.p2align 4,,15
 795              		.global	USB_SetDevSpeed
 796              		.thumb
 797              		.thumb_func
 798              		.type	USB_SetDevSpeed, %function
 799              	USB_SetDevSpeed:
 800              	.LFB130:
 801              		.loc 1 398 0
 802              		.cfi_startproc
 803              		@ args = 0, pretend = 0, frame = 0
 804              		@ frame_needed = 0, uses_anonymous_args = 0
 805              		@ link register save eliminated.
 806              	.LVL87:
 807              		.loc 1 398 0
 808 0320 0246     		mov	r2, r0
 809              		.loc 1 401 0
 810 0322 0020     		movs	r0, #0
 811              	.LVL88:
 812              		.loc 1 399 0
 813 0324 D2F80038 		ldr	r3, [r2, #2048]
 814 0328 1943     		orrs	r1, r1, r3
 815              	.LVL89:
 816 032a C2F80018 		str	r1, [r2, #2048]
 817              		.loc 1 401 0
 818 032e 7047     		bx	lr
 819              		.cfi_endproc
 820              	.LFE130:
 821              		.size	USB_SetDevSpeed, .-USB_SetDevSpeed
 822              		.align	2
 823              		.p2align 4,,15
 824              		.global	USB_GetDevSpeed
 825              		.thumb
 826              		.thumb_func
 827              		.type	USB_GetDevSpeed, %function
 828              	USB_GetDevSpeed:
 829              	.LFB131:
 830              		.loc 1 413 0
 831              		.cfi_startproc
 832              		@ args = 0, pretend = 0, frame = 0
 833              		@ frame_needed = 0, uses_anonymous_args = 0
 834              		@ link register save eliminated.
 835              	.LVL90:
 836              		.loc 1 416 0
 837 0330 D0F80838 		ldr	r3, [r0, #2056]
 838 0334 00F50062 		add	r2, r0, #2048
 839 0338 13F00600 		ands	r0, r3, #6
 840              	.LVL91:
 841 033c 12D0     		beq	.L101
 842              		.loc 1 420 0
 843 033e 9368     		ldr	r3, [r2, #8]
 844 0340 03F00603 		and	r3, r3, #6
 845 0344 022B     		cmp	r3, #2
ARM GAS  /tmp/cclsZlw8.s 			page 16


 846 0346 0CD0     		beq	.L104
 847              		.loc 1 421 0 discriminator 1
 848 0348 9368     		ldr	r3, [r2, #8]
 849 034a 03F00603 		and	r3, r3, #6
 850              		.loc 1 420 0 discriminator 1
 851 034e 062B     		cmp	r3, #6
 852 0350 07D0     		beq	.L104
 853              		.loc 1 425 0
 854 0352 9368     		ldr	r3, [r2, #8]
 855 0354 03F00603 		and	r3, r3, #6
 856 0358 042B     		cmp	r3, #4
 857              		.loc 1 427 0
 858 035a 14BF     		ite	ne
 859 035c 0020     		movne	r0, #0
 860 035e 0220     		moveq	r0, #2
 861 0360 7047     		bx	lr
 862              	.L104:
 863              		.loc 1 423 0
 864 0362 0320     		movs	r0, #3
 865              	.L101:
 866              	.LVL92:
 867              		.loc 1 431 0
 868 0364 7047     		bx	lr
 869              		.cfi_endproc
 870              	.LFE131:
 871              		.size	USB_GetDevSpeed, .-USB_GetDevSpeed
 872 0366 00BF     		.align	2
 873 0368 AFF30080 		.p2align 4,,15
 873      AFF30080 
 874              		.global	USB_ActivateEndpoint
 875              		.thumb
 876              		.thumb_func
 877              		.type	USB_ActivateEndpoint, %function
 878              	USB_ActivateEndpoint:
 879              	.LFB132:
 880              		.loc 1 440 0
 881              		.cfi_startproc
 882              		@ args = 0, pretend = 0, frame = 0
 883              		@ frame_needed = 0, uses_anonymous_args = 0
 884              		@ link register save eliminated.
 885              	.LVL93:
 886 0370 70B4     		push	{r4, r5, r6}
 887              		.cfi_def_cfa_offset 12
 888              		.cfi_offset 4, -12
 889              		.cfi_offset 5, -8
 890              		.cfi_offset 6, -4
 891              		.loc 1 441 0
 892 0372 4B78     		ldrb	r3, [r1, #1]	@ zero_extendqisi2
 893 0374 012B     		cmp	r3, #1
 894 0376 20D0     		beq	.L112
 895              		.loc 1 454 0
 896 0378 0D78     		ldrb	r5, [r1]	@ zero_extendqisi2
 897 037a D0F81C48 		ldr	r4, [r0, #2076]
 898 037e 4FF48032 		mov	r2, #65536
 899 0382 AA40     		lsls	r2, r2, r5
 900 0384 2243     		orrs	r2, r2, r4
 901 0386 C0F81C28 		str	r2, [r0, #2076]
ARM GAS  /tmp/cclsZlw8.s 			page 17


 902              		.loc 1 456 0
 903 038a 0A78     		ldrb	r2, [r1]	@ zero_extendqisi2
 904 038c 4FF43063 		mov	r3, #2816
 905 0390 03EB4213 		add	r3, r3, r2, lsl #5
 906 0394 1A58     		ldr	r2, [r3, r0]
 907 0396 1204     		lsls	r2, r2, #16
 908 0398 0CD4     		bmi	.L109
 909              		.loc 1 458 0
 910 039a 1A58     		ldr	r2, [r3, r0]
 911 039c 8C68     		ldr	r4, [r1, #8]
 912 039e CD78     		ldrb	r5, [r1, #3]	@ zero_extendqisi2
 913 03a0 42F08052 		orr	r2, r2, #268435456
 914 03a4 42F40042 		orr	r2, r2, #32768
 915 03a8 C4F30A01 		ubfx	r1, r4, #0, #11
 916              	.LVL94:
 917 03ac 0A43     		orrs	r2, r2, r1
 918 03ae 42EA8542 		orr	r2, r2, r5, lsl #18
 919 03b2 1A50     		str	r2, [r3, r0]
 920              	.L109:
 921              		.loc 1 463 0
 922 03b4 0020     		movs	r0, #0
 923              	.LVL95:
 924 03b6 70BC     		pop	{r4, r5, r6}
 925              		.cfi_remember_state
 926              		.cfi_restore 6
 927              		.cfi_restore 5
 928              		.cfi_restore 4
 929              		.cfi_def_cfa_offset 0
 930 03b8 7047     		bx	lr
 931              	.LVL96:
 932              	.L112:
 933              		.cfi_restore_state
 934              		.loc 1 443 0
 935 03ba 0C78     		ldrb	r4, [r1]	@ zero_extendqisi2
 936 03bc A340     		lsls	r3, r3, r4
 937 03be D0F81C48 		ldr	r4, [r0, #2076]
 938 03c2 9BB2     		uxth	r3, r3
 939 03c4 2343     		orrs	r3, r3, r4
 940 03c6 C0F81C38 		str	r3, [r0, #2076]
 941              		.loc 1 445 0
 942 03ca 0E78     		ldrb	r6, [r1]	@ zero_extendqisi2
 943 03cc 4FF41063 		mov	r3, #2304
 944 03d0 03EB4613 		add	r3, r3, r6, lsl #5
 945 03d4 1A58     		ldr	r2, [r3, r0]
 946 03d6 1404     		lsls	r4, r2, #16
 947 03d8 ECD4     		bmi	.L109
 948              		.loc 1 447 0
 949 03da 1D58     		ldr	r5, [r3, r0]
 950 03dc 8C68     		ldr	r4, [r1, #8]
 951 03de CA78     		ldrb	r2, [r1, #3]	@ zero_extendqisi2
 952 03e0 45F08055 		orr	r5, r5, #268435456
 953 03e4 45F40045 		orr	r5, r5, #32768
 954 03e8 C4F30A01 		ubfx	r1, r4, #0, #11
 955              	.LVL97:
 956 03ec 2943     		orrs	r1, r1, r5
 957 03ee 41EA8242 		orr	r2, r1, r2, lsl #18
 958 03f2 42EA8652 		orr	r2, r2, r6, lsl #22
ARM GAS  /tmp/cclsZlw8.s 			page 18


 959 03f6 1A50     		str	r2, [r3, r0]
 960              		.loc 1 463 0
 961 03f8 70BC     		pop	{r4, r5, r6}
 962              		.cfi_restore 4
 963              		.cfi_restore 5
 964              		.cfi_restore 6
 965              		.cfi_def_cfa_offset 0
 966 03fa 0020     		movs	r0, #0
 967              	.LVL98:
 968 03fc 7047     		bx	lr
 969              		.cfi_endproc
 970              	.LFE132:
 971              		.size	USB_ActivateEndpoint, .-USB_ActivateEndpoint
 972 03fe 00BF     		.align	2
 973              		.p2align 4,,15
 974              		.global	USB_ActivateDedicatedEndpoint
 975              		.thumb
 976              		.thumb_func
 977              		.type	USB_ActivateDedicatedEndpoint, %function
 978              	USB_ActivateDedicatedEndpoint:
 979              	.LFB133:
 980              		.loc 1 471 0
 981              		.cfi_startproc
 982              		@ args = 0, pretend = 0, frame = 0
 983              		@ frame_needed = 0, uses_anonymous_args = 0
 984              	.LVL99:
 985 0400 F0B5     		push	{r4, r5, r6, r7, lr}
 986              		.cfi_def_cfa_offset 20
 987              		.cfi_offset 4, -20
 988              		.cfi_offset 5, -16
 989              		.cfi_offset 6, -12
 990              		.cfi_offset 7, -8
 991              		.cfi_offset 14, -4
 992              		.loc 1 475 0
 993 0402 4B78     		ldrb	r3, [r1, #1]	@ zero_extendqisi2
 994 0404 012B     		cmp	r3, #1
 995 0406 37D0     		beq	.L121
 996              		.loc 1 491 0
 997 0408 0B78     		ldrb	r3, [r1]	@ zero_extendqisi2
 998 040a 2026     		movs	r6, #32
 999 040c 4FF43067 		mov	r7, #2816
 1000 0410 16FB037E 		smlabb	lr, r6, r3, r7
 1001 0414 50F80E20 		ldr	r2, [r0, lr]
 1002 0418 1204     		lsls	r2, r2, #16
 1003 041a 0AD5     		bpl	.L122
 1004              	.LVL100:
 1005              	.L119:
 1006              		.loc 1 502 0
 1007 041c D0F83C28 		ldr	r2, [r0, #2108]
 1008 0420 4FF48031 		mov	r1, #65536
 1009 0424 01FA03F3 		lsl	r3, r1, r3
 1010 0428 1343     		orrs	r3, r3, r2
 1011 042a C0F83C38 		str	r3, [r0, #2108]
 1012              		.loc 1 506 0
 1013 042e 0020     		movs	r0, #0
 1014              	.LVL101:
 1015 0430 F0BD     		pop	{r4, r5, r6, r7, pc}
ARM GAS  /tmp/cclsZlw8.s 			page 19


 1016              	.LVL102:
 1017              	.L122:
 1018              		.loc 1 493 0
 1019 0432 50F80E20 		ldr	r2, [r0, lr]
 1020 0436 8C68     		ldr	r4, [r1, #8]
 1021 0438 91F803C0 		ldrb	ip, [r1, #3]	@ zero_extendqisi2
 1022              		.loc 1 496 0
 1023 043c 284D     		ldr	r5, .L124
 1024              		.loc 1 493 0
 1025 043e C4F30A04 		ubfx	r4, r4, #0, #11
 1026 0442 42F40042 		orr	r2, r2, #32768
 1027 0446 2243     		orrs	r2, r2, r4
 1028 0448 42EA8C42 		orr	r2, r2, ip, lsl #18
 1029 044c 42EA8353 		orr	r3, r2, r3, lsl #22
 1030 0450 40F80E30 		str	r3, [r0, lr]
 1031              		.loc 1 497 0
 1032 0454 0B78     		ldrb	r3, [r1]	@ zero_extendqisi2
 1033              		.loc 1 498 0
 1034 0456 C978     		ldrb	r1, [r1, #3]	@ zero_extendqisi2
 1035              	.LVL103:
 1036 0458 16FB0376 		smlabb	r6, r6, r3, r7
 1037              		.loc 1 496 0
 1038 045c C219     		adds	r2, r0, r7
 1039              		.loc 1 497 0
 1040 045e 0644     		add	r6, r6, r0
 1041              		.loc 1 496 0
 1042 0460 2A60     		str	r2, [r5]
 1043              		.loc 1 497 0
 1044 0462 2E60     		str	r6, [r5]
 1045              		.loc 1 498 0
 1046 0464 2A68     		ldr	r2, [r5]
 1047 0466 42F40042 		orr	r2, r2, #32768
 1048 046a 1443     		orrs	r4, r4, r2
 1049 046c 44EA8144 		orr	r4, r4, r1, lsl #18
 1050 0470 44EA8354 		orr	r4, r4, r3, lsl #22
 1051 0474 2C60     		str	r4, [r5]
 1052 0476 D1E7     		b	.L119
 1053              	.LVL104:
 1054              	.L121:
 1055              		.loc 1 477 0
 1056 0478 0D78     		ldrb	r5, [r1]	@ zero_extendqisi2
 1057 047a 4FF41066 		mov	r6, #2304
 1058 047e 06EB4516 		add	r6, r6, r5, lsl #5
 1059 0482 8359     		ldr	r3, [r0, r6]
 1060 0484 1C04     		lsls	r4, r3, #16
 1061 0486 27D4     		bmi	.L123
 1062              		.loc 1 479 0
 1063 0488 8459     		ldr	r4, [r0, r6]
 1064 048a 8B68     		ldr	r3, [r1, #8]
 1065 048c CF78     		ldrb	r7, [r1, #3]	@ zero_extendqisi2
 1066 048e 44F08052 		orr	r2, r4, #268435456
 1067 0492 42F40042 		orr	r2, r2, #32768
 1068 0496 C3F30A03 		ubfx	r3, r3, #0, #11
 1069 049a 42EA0304 		orr	r4, r2, r3
 1070 049e 44EA8742 		orr	r2, r4, r7, lsl #18
 1071 04a2 42EA8552 		orr	r2, r2, r5, lsl #22
 1072 04a6 8251     		str	r2, [r0, r6]
ARM GAS  /tmp/cclsZlw8.s 			page 20


 1073 04a8 0D78     		ldrb	r5, [r1]	@ zero_extendqisi2
 1074              	.L116:
 1075              		.loc 1 484 0
 1076 04aa 0D4C     		ldr	r4, .L124
 1077 04ac CE78     		ldrb	r6, [r1, #3]	@ zero_extendqisi2
 1078 04ae 2168     		ldr	r1, [r4]
 1079              	.LVL105:
 1080 04b0 41F08052 		orr	r2, r1, #268435456
 1081 04b4 42F40042 		orr	r2, r2, #32768
 1082 04b8 42EA8642 		orr	r2, r2, r6, lsl #18
 1083 04bc 1343     		orrs	r3, r3, r2
 1084 04be 43EA8553 		orr	r3, r3, r5, lsl #22
 1085 04c2 2360     		str	r3, [r4]
 1086              		.loc 1 487 0
 1087 04c4 0123     		movs	r3, #1
 1088 04c6 D0F83C28 		ldr	r2, [r0, #2108]
 1089 04ca AB40     		lsls	r3, r3, r5
 1090 04cc 9BB2     		uxth	r3, r3
 1091 04ce 1343     		orrs	r3, r3, r2
 1092 04d0 C0F83C38 		str	r3, [r0, #2108]
 1093              		.loc 1 506 0
 1094 04d4 0020     		movs	r0, #0
 1095              	.LVL106:
 1096 04d6 F0BD     		pop	{r4, r5, r6, r7, pc}
 1097              	.LVL107:
 1098              	.L123:
 1099 04d8 8B68     		ldr	r3, [r1, #8]
 1100 04da C3F30A03 		ubfx	r3, r3, #0, #11
 1101 04de E4E7     		b	.L116
 1102              	.L125:
 1103              		.align	2
 1104              	.L124:
 1105 04e0 00000000 		.word	.LANCHOR0
 1106              		.cfi_endproc
 1107              	.LFE133:
 1108              		.size	USB_ActivateDedicatedEndpoint, .-USB_ActivateDedicatedEndpoint
 1109              		.align	2
 1110 04e4 AFF30080 		.p2align 4,,15
 1110      AFF30080 
 1110      AFF30080 
 1111              		.global	USB_DeactivateEndpoint
 1112              		.thumb
 1113              		.thumb_func
 1114              		.type	USB_DeactivateEndpoint, %function
 1115              	USB_DeactivateEndpoint:
 1116              	.LFB134:
 1117              		.loc 1 514 0
 1118              		.cfi_startproc
 1119              		@ args = 0, pretend = 0, frame = 0
 1120              		@ frame_needed = 0, uses_anonymous_args = 0
 1121              		@ link register save eliminated.
 1122              	.LVL108:
 1123              		.loc 1 516 0
 1124 04f0 4B78     		ldrb	r3, [r1, #1]	@ zero_extendqisi2
 1125 04f2 012B     		cmp	r3, #1
 1126              		.loc 1 514 0
 1127 04f4 30B4     		push	{r4, r5}
ARM GAS  /tmp/cclsZlw8.s 			page 21


 1128              		.cfi_def_cfa_offset 8
 1129              		.cfi_offset 4, -8
 1130              		.cfi_offset 5, -4
 1131              		.loc 1 516 0
 1132 04f6 1DD0     		beq	.L130
 1133              		.loc 1 525 0
 1134 04f8 0D78     		ldrb	r5, [r1]	@ zero_extendqisi2
 1135 04fa D0F83C48 		ldr	r4, [r0, #2108]
 1136 04fe 0122     		movs	r2, #1
 1137 0500 02FA05F5 		lsl	r5, r2, r5
 1138 0504 24EA0544 		bic	r4, r4, r5, lsl #16
 1139 0508 C0F83C48 		str	r4, [r0, #2108]
 1140              		.loc 1 526 0
 1141 050c 0D78     		ldrb	r5, [r1]	@ zero_extendqisi2
 1142 050e D0F81C48 		ldr	r4, [r0, #2076]
 1143 0512 AA40     		lsls	r2, r2, r5
 1144 0514 24EA0242 		bic	r2, r4, r2, lsl #16
 1145 0518 C0F81C28 		str	r2, [r0, #2076]
 1146              		.loc 1 527 0
 1147 051c 0A78     		ldrb	r2, [r1]	@ zero_extendqisi2
 1148 051e 4FF43063 		mov	r3, #2816
 1149 0522 03EB4213 		add	r3, r3, r2, lsl #5
 1150              		.loc 1 530 0
 1151 0526 30BC     		pop	{r4, r5}
 1152              		.cfi_remember_state
 1153              		.cfi_restore 5
 1154              		.cfi_restore 4
 1155              		.cfi_def_cfa_offset 0
 1156              		.loc 1 527 0
 1157 0528 1A58     		ldr	r2, [r3, r0]
 1158 052a 22F40042 		bic	r2, r2, #32768
 1159 052e 1A50     		str	r2, [r3, r0]
 1160              		.loc 1 530 0
 1161 0530 0020     		movs	r0, #0
 1162              	.LVL109:
 1163 0532 7047     		bx	lr
 1164              	.LVL110:
 1165              	.L130:
 1166              		.cfi_restore_state
 1167              		.loc 1 518 0
 1168 0534 0C78     		ldrb	r4, [r1]	@ zero_extendqisi2
 1169 0536 D0F83C58 		ldr	r5, [r0, #2108]
 1170 053a 03FA04F4 		lsl	r4, r3, r4
 1171 053e A4B2     		uxth	r4, r4
 1172 0540 25EA0404 		bic	r4, r5, r4
 1173 0544 C0F83C48 		str	r4, [r0, #2108]
 1174              		.loc 1 519 0
 1175 0548 0D78     		ldrb	r5, [r1]	@ zero_extendqisi2
 1176 054a D0F81C48 		ldr	r4, [r0, #2076]
 1177 054e AB40     		lsls	r3, r3, r5
 1178 0550 9BB2     		uxth	r3, r3
 1179 0552 24EA0303 		bic	r3, r4, r3
 1180 0556 C0F81C38 		str	r3, [r0, #2076]
 1181              		.loc 1 520 0
 1182 055a 0A78     		ldrb	r2, [r1]	@ zero_extendqisi2
 1183 055c 4FF41063 		mov	r3, #2304
 1184 0560 03EB4213 		add	r3, r3, r2, lsl #5
ARM GAS  /tmp/cclsZlw8.s 			page 22


 1185              		.loc 1 530 0
 1186 0564 30BC     		pop	{r4, r5}
 1187              		.cfi_restore 4
 1188              		.cfi_restore 5
 1189              		.cfi_def_cfa_offset 0
 1190              		.loc 1 520 0
 1191 0566 1A58     		ldr	r2, [r3, r0]
 1192 0568 22F40042 		bic	r2, r2, #32768
 1193 056c 1A50     		str	r2, [r3, r0]
 1194              		.loc 1 530 0
 1195 056e 0020     		movs	r0, #0
 1196              	.LVL111:
 1197 0570 7047     		bx	lr
 1198              		.cfi_endproc
 1199              	.LFE134:
 1200              		.size	USB_DeactivateEndpoint, .-USB_DeactivateEndpoint
 1201 0572 00BF     		.align	2
 1202 0574 AFF30080 		.p2align 4,,15
 1202      AFF30080 
 1202      AFF30080 
 1203              		.global	USB_DeactivateDedicatedEndpoint
 1204              		.thumb
 1205              		.thumb_func
 1206              		.type	USB_DeactivateDedicatedEndpoint, %function
 1207              	USB_DeactivateDedicatedEndpoint:
 1208              	.LFB135:
 1209              		.loc 1 539 0
 1210              		.cfi_startproc
 1211              		@ args = 0, pretend = 0, frame = 0
 1212              		@ frame_needed = 0, uses_anonymous_args = 0
 1213              		@ link register save eliminated.
 1214              	.LVL112:
 1215 0580 30B4     		push	{r4, r5}
 1216              		.cfi_def_cfa_offset 8
 1217              		.cfi_offset 4, -8
 1218              		.cfi_offset 5, -4
 1219              		.loc 1 541 0
 1220 0582 4B78     		ldrb	r3, [r1, #1]	@ zero_extendqisi2
 1221 0584 012B     		cmp	r3, #1
 1222 0586 15D0     		beq	.L135
 1223              		.loc 1 548 0
 1224 0588 0A78     		ldrb	r2, [r1]	@ zero_extendqisi2
 1225 058a 4FF43063 		mov	r3, #2816
 1226 058e 03EB4213 		add	r3, r3, r2, lsl #5
 1227              		.loc 1 552 0
 1228 0592 30BC     		pop	{r4, r5}
 1229              		.cfi_remember_state
 1230              		.cfi_restore 5
 1231              		.cfi_restore 4
 1232              		.cfi_def_cfa_offset 0
 1233              		.loc 1 548 0
 1234 0594 1A58     		ldr	r2, [r3, r0]
 1235 0596 22F40042 		bic	r2, r2, #32768
 1236 059a 1A50     		str	r2, [r3, r0]
 1237              		.loc 1 549 0
 1238 059c 0978     		ldrb	r1, [r1]	@ zero_extendqisi2
 1239              	.LVL113:
ARM GAS  /tmp/cclsZlw8.s 			page 23


 1240 059e D0F81C28 		ldr	r2, [r0, #2076]
 1241 05a2 4FF48033 		mov	r3, #65536
 1242 05a6 8B40     		lsls	r3, r3, r1
 1243 05a8 22EA0303 		bic	r3, r2, r3
 1244 05ac C0F81C38 		str	r3, [r0, #2076]
 1245              		.loc 1 552 0
 1246 05b0 0020     		movs	r0, #0
 1247              	.LVL114:
 1248 05b2 7047     		bx	lr
 1249              	.LVL115:
 1250              	.L135:
 1251              		.cfi_restore_state
 1252              		.loc 1 543 0
 1253 05b4 0C78     		ldrb	r4, [r1]	@ zero_extendqisi2
 1254 05b6 4FF41062 		mov	r2, #2304
 1255 05ba 02EB4412 		add	r2, r2, r4, lsl #5
 1256 05be 1458     		ldr	r4, [r2, r0]
 1257 05c0 24F40044 		bic	r4, r4, #32768
 1258 05c4 1450     		str	r4, [r2, r0]
 1259              		.loc 1 544 0
 1260 05c6 0978     		ldrb	r1, [r1]	@ zero_extendqisi2
 1261              	.LVL116:
 1262 05c8 D0F81C28 		ldr	r2, [r0, #2076]
 1263 05cc 8B40     		lsls	r3, r3, r1
 1264 05ce 9BB2     		uxth	r3, r3
 1265 05d0 22EA0303 		bic	r3, r2, r3
 1266 05d4 C0F81C38 		str	r3, [r0, #2076]
 1267              		.loc 1 552 0
 1268 05d8 30BC     		pop	{r4, r5}
 1269              		.cfi_restore 4
 1270              		.cfi_restore 5
 1271              		.cfi_def_cfa_offset 0
 1272 05da 0020     		movs	r0, #0
 1273              	.LVL117:
 1274 05dc 7047     		bx	lr
 1275              		.cfi_endproc
 1276              	.LFE135:
 1277              		.size	USB_DeactivateDedicatedEndpoint, .-USB_DeactivateDedicatedEndpoint
 1278 05de 00BF     		.align	2
 1279              		.p2align 4,,15
 1280              		.global	USB_EPStartXfer
 1281              		.thumb
 1282              		.thumb_func
 1283              		.type	USB_EPStartXfer, %function
 1284              	USB_EPStartXfer:
 1285              	.LFB136:
 1286              		.loc 1 565 0
 1287              		.cfi_startproc
 1288              		@ args = 0, pretend = 0, frame = 0
 1289              		@ frame_needed = 0, uses_anonymous_args = 0
 1290              	.LVL118:
 1291 05e0 2DE9F041 		push	{r4, r5, r6, r7, r8, lr}
 1292              		.cfi_def_cfa_offset 24
 1293              		.cfi_offset 4, -24
 1294              		.cfi_offset 5, -20
 1295              		.cfi_offset 6, -16
 1296              		.cfi_offset 7, -12
ARM GAS  /tmp/cclsZlw8.s 			page 24


 1297              		.cfi_offset 8, -8
 1298              		.cfi_offset 14, -4
 1299              		.loc 1 569 0
 1300 05e4 4B78     		ldrb	r3, [r1, #1]	@ zero_extendqisi2
 1301 05e6 012B     		cmp	r3, #1
 1302 05e8 76D0     		beq	.L165
 1303              		.loc 1 639 0
 1304 05ea 0D78     		ldrb	r5, [r1]	@ zero_extendqisi2
 1305              		.loc 1 642 0
 1306 05ec 4C69     		ldr	r4, [r1, #20]
 1307              		.loc 1 639 0
 1308 05ee 2023     		movs	r3, #32
 1309 05f0 4FF43067 		mov	r7, #2816
 1310 05f4 13FB0575 		smlabb	r5, r3, r5, r7
 1311 05f8 0544     		add	r5, r5, r0
 1312 05fa 2E69     		ldr	r6, [r5, #16]
 1313 05fc F60C     		lsrs	r6, r6, #19
 1314 05fe F604     		lsls	r6, r6, #19
 1315 0600 2E61     		str	r6, [r5, #16]
 1316              		.loc 1 640 0
 1317 0602 0D78     		ldrb	r5, [r1]	@ zero_extendqisi2
 1318 0604 13FB0575 		smlabb	r5, r3, r5, r7
 1319 0608 0544     		add	r5, r5, r0
 1320 060a 2E69     		ldr	r6, [r5, #16]
 1321 060c 26F0FF56 		bic	r6, r6, #534773760
 1322 0610 26F4C016 		bic	r6, r6, #1572864
 1323 0614 2E61     		str	r6, [r5, #16]
 1324              		.loc 1 642 0
 1325 0616 8CB3     		cbz	r4, .L166
 1326              		.loc 1 650 0
 1327 0618 0E78     		ldrb	r6, [r1]	@ zero_extendqisi2
 1328              		.loc 1 649 0
 1329 061a 8D68     		ldr	r5, [r1, #8]
 1330              	.LVL119:
 1331              		.loc 1 650 0
 1332 061c DFF814C2 		ldr	ip, .L170
 1333 0620 13FB0676 		smlabb	r6, r3, r6, r7
 1334 0624 0644     		add	r6, r6, r0
 1335              		.loc 1 649 0
 1336 0626 2C44     		add	r4, r4, r5
 1337              	.LVL120:
 1338 0628 013C     		subs	r4, r4, #1
 1339 062a B4FBF5F4 		udiv	r4, r4, r5
 1340 062e A4B2     		uxth	r4, r4
 1341              		.loc 1 650 0
 1342 0630 D6F810E0 		ldr	lr, [r6, #16]
 1343 0634 4FEAC448 		lsl	r8, r4, #19
 1344 0638 08EA0C0C 		and	ip, r8, ip
 1345 063c 4CEA0E0E 		orr	lr, ip, lr
 1346 0640 C6F810E0 		str	lr, [r6, #16]
 1347              		.loc 1 651 0
 1348 0644 0E78     		ldrb	r6, [r1]	@ zero_extendqisi2
 1349 0646 13FB0673 		smlabb	r3, r3, r6, r7
 1350 064a 0344     		add	r3, r3, r0
 1351 064c 05FB04F4 		mul	r4, r5, r4
 1352 0650 1D69     		ldr	r5, [r3, #16]
 1353              	.LVL121:
ARM GAS  /tmp/cclsZlw8.s 			page 25


 1354 0652 C4F31204 		ubfx	r4, r4, #0, #19
 1355 0656 2C43     		orrs	r4, r4, r5
 1356              		.loc 1 654 0
 1357 0658 012A     		cmp	r2, #1
 1358              		.loc 1 651 0
 1359 065a 1C61     		str	r4, [r3, #16]
 1360              	.LVL122:
 1361              		.loc 1 654 0
 1362 065c 22D0     		beq	.L167
 1363              	.L149:
 1364              		.loc 1 659 0
 1365 065e CB78     		ldrb	r3, [r1, #3]	@ zero_extendqisi2
 1366 0660 012B     		cmp	r3, #1
 1367 0662 28D0     		beq	.L168
 1368              	.LVL123:
 1369              	.L150:
 1370              		.loc 1 671 0
 1371 0664 0A78     		ldrb	r2, [r1]	@ zero_extendqisi2
 1372 0666 4FF43063 		mov	r3, #2816
 1373 066a 03EB4213 		add	r3, r3, r2, lsl #5
 1374 066e C258     		ldr	r2, [r0, r3]
 1375 0670 42F00442 		orr	r2, r2, #-2080374784
 1376 0674 C250     		str	r2, [r0, r3]
 1377              	.LVL124:
 1378              	.L160:
 1379              		.loc 1 674 0
 1380 0676 0020     		movs	r0, #0
 1381 0678 BDE8F081 		pop	{r4, r5, r6, r7, r8, pc}
 1382              	.LVL125:
 1383              	.L166:
 1384              		.loc 1 644 0
 1385 067c 0C78     		ldrb	r4, [r1]	@ zero_extendqisi2
 1386 067e 8D68     		ldr	r5, [r1, #8]
 1387 0680 13FB0474 		smlabb	r4, r3, r4, r7
 1388 0684 0444     		add	r4, r4, r0
 1389 0686 C5F31205 		ubfx	r5, r5, #0, #19
 1390 068a 2669     		ldr	r6, [r4, #16]
 1391 068c 3543     		orrs	r5, r5, r6
 1392 068e 2561     		str	r5, [r4, #16]
 1393              		.loc 1 645 0
 1394 0690 0C78     		ldrb	r4, [r1]	@ zero_extendqisi2
 1395 0692 13FB0473 		smlabb	r3, r3, r4, r7
 1396 0696 0344     		add	r3, r3, r0
 1397              		.loc 1 654 0
 1398 0698 012A     		cmp	r2, #1
 1399              		.loc 1 645 0
 1400 069a 1C69     		ldr	r4, [r3, #16]
 1401 069c 44F40024 		orr	r4, r4, #524288
 1402 06a0 1C61     		str	r4, [r3, #16]
 1403              		.loc 1 654 0
 1404 06a2 DCD1     		bne	.L149
 1405              	.LVL126:
 1406              	.L167:
 1407              		.loc 1 656 0
 1408 06a4 0B78     		ldrb	r3, [r1]	@ zero_extendqisi2
 1409 06a6 CA68     		ldr	r2, [r1, #12]
 1410              	.LVL127:
ARM GAS  /tmp/cclsZlw8.s 			page 26


 1411 06a8 00EB4313 		add	r3, r0, r3, lsl #5
 1412 06ac C3F8142B 		str	r2, [r3, #2836]
 1413              		.loc 1 659 0
 1414 06b0 CB78     		ldrb	r3, [r1, #3]	@ zero_extendqisi2
 1415 06b2 012B     		cmp	r3, #1
 1416 06b4 D6D1     		bne	.L150
 1417              	.L168:
 1418              		.loc 1 661 0
 1419 06b6 D0F80838 		ldr	r3, [r0, #2056]
 1420              		.loc 1 663 0
 1421 06ba 0A78     		ldrb	r2, [r1]	@ zero_extendqisi2
 1422              		.loc 1 661 0
 1423 06bc 13F4807F 		tst	r3, #256
 1424 06c0 4FF43063 		mov	r3, #2816
 1425 06c4 03EB4213 		add	r3, r3, r2, lsl #5
 1426              		.loc 1 663 0
 1427 06c8 C258     		ldr	r2, [r0, r3]
 1428 06ca 0CBF     		ite	eq
 1429 06cc 42F00052 		orreq	r2, r2, #536870912
 1430              		.loc 1 667 0
 1431 06d0 42F08052 		orrne	r2, r2, #268435456
 1432 06d4 C250     		str	r2, [r0, r3]
 1433 06d6 C5E7     		b	.L150
 1434              	.LVL128:
 1435              	.L165:
 1436              		.loc 1 572 0
 1437 06d8 4B69     		ldr	r3, [r1, #20]
 1438              		.loc 1 574 0
 1439 06da 0D78     		ldrb	r5, [r1]	@ zero_extendqisi2
 1440              		.loc 1 572 0
 1441 06dc 002B     		cmp	r3, #0
 1442 06de 42D1     		bne	.L138
 1443              		.loc 1 574 0
 1444 06e0 2024     		movs	r4, #32
 1445 06e2 4FF41067 		mov	r7, #2304
 1446 06e6 14FB0575 		smlabb	r5, r4, r5, r7
 1447 06ea 0544     		add	r5, r5, r0
 1448 06ec 2E69     		ldr	r6, [r5, #16]
 1449 06ee 26F0FF56 		bic	r6, r6, #534773760
 1450 06f2 26F4C016 		bic	r6, r6, #1572864
 1451 06f6 2E61     		str	r6, [r5, #16]
 1452              		.loc 1 575 0
 1453 06f8 0D78     		ldrb	r5, [r1]	@ zero_extendqisi2
 1454 06fa 14FB0575 		smlabb	r5, r4, r5, r7
 1455 06fe 0544     		add	r5, r5, r0
 1456 0700 2E69     		ldr	r6, [r5, #16]
 1457 0702 46F40026 		orr	r6, r6, #524288
 1458 0706 2E61     		str	r6, [r5, #16]
 1459              		.loc 1 576 0
 1460 0708 0D78     		ldrb	r5, [r1]	@ zero_extendqisi2
 1461 070a 14FB0574 		smlabb	r4, r4, r5, r7
 1462 070e 0444     		add	r4, r4, r0
 1463 0710 2569     		ldr	r5, [r4, #16]
 1464 0712 ED0C     		lsrs	r5, r5, #19
 1465 0714 ED04     		lsls	r5, r5, #19
 1466 0716 2561     		str	r5, [r4, #16]
 1467              	.L139:
ARM GAS  /tmp/cclsZlw8.s 			page 27


 1468              		.loc 1 597 0
 1469 0718 012A     		cmp	r2, #1
 1470 071a 62D0     		beq	.L152
 1471              		.loc 1 603 0
 1472 071c CC78     		ldrb	r4, [r1, #3]	@ zero_extendqisi2
 1473 071e 012C     		cmp	r4, #1
 1474 0720 66D0     		beq	.L143
 1475              	.L153:
 1476              		.loc 1 606 0
 1477 0722 53B1     		cbz	r3, .L144
 1478              		.loc 1 608 0
 1479 0724 0F78     		ldrb	r7, [r1]	@ zero_extendqisi2
 1480 0726 D0F83468 		ldr	r6, [r0, #2100]
 1481 072a 0125     		movs	r5, #1
 1482 072c BD40     		lsls	r5, r5, r7
 1483 072e 3543     		orrs	r5, r5, r6
 1484 0730 C0F83458 		str	r5, [r0, #2100]
 1485              	.L142:
 1486              		.loc 1 613 0
 1487 0734 CC78     		ldrb	r4, [r1, #3]	@ zero_extendqisi2
 1488 0736 012C     		cmp	r4, #1
 1489 0738 5AD0     		beq	.L143
 1490              	.L144:
 1491              		.loc 1 626 0
 1492 073a 0D78     		ldrb	r5, [r1]	@ zero_extendqisi2
 1493 073c 4FF41064 		mov	r4, #2304
 1494 0740 04EB4514 		add	r4, r4, r5, lsl #5
 1495 0744 0559     		ldr	r5, [r0, r4]
 1496 0746 45F00445 		orr	r5, r5, #-2080374784
 1497 074a 0551     		str	r5, [r0, r4]
 1498              		.loc 1 628 0
 1499 074c CC78     		ldrb	r4, [r1, #3]	@ zero_extendqisi2
 1500 074e 012C     		cmp	r4, #1
 1501 0750 91D1     		bne	.L160
 1502              		.loc 1 630 0
 1503 0752 CD68     		ldr	r5, [r1, #12]
 1504 0754 0C78     		ldrb	r4, [r1]	@ zero_extendqisi2
 1505              	.LVL129:
 1506              	.LBB48:
 1507              	.LBB49:
 1508              		.loc 1 779 0
 1509 0756 002A     		cmp	r2, #0
 1510 0758 8DD1     		bne	.L160
 1511 075a 2946     		mov	r1, r5
 1512              	.LVL130:
 1513 075c 2246     		mov	r2, r4
 1514              	.LVL131:
 1515 075e 9BB2     		uxth	r3, r3
 1516              	.LVL132:
 1517 0760 FFF76EFC 		bl	USB_WritePacket.part.1
 1518              	.LVL133:
 1519 0764 87E7     		b	.L160
 1520              	.LVL134:
 1521              	.L138:
 1522              	.LBE49:
 1523              	.LBE48:
 1524              		.loc 1 585 0
ARM GAS  /tmp/cclsZlw8.s 			page 28


 1525 0766 2026     		movs	r6, #32
 1526 0768 4FF41067 		mov	r7, #2304
 1527 076c 16FB0575 		smlabb	r5, r6, r5, r7
 1528 0770 0544     		add	r5, r5, r0
 1529              		.loc 1 587 0
 1530 0772 D1F808C0 		ldr	ip, [r1, #8]
 1531              		.loc 1 585 0
 1532 0776 D5F81080 		ldr	r8, [r5, #16]
 1533              		.loc 1 587 0
 1534 077a DFF8B8E0 		ldr	lr, .L170
 1535              		.loc 1 585 0
 1536 077e 4FEAD848 		lsr	r8, r8, #19
 1537 0782 4FEAC848 		lsl	r8, r8, #19
 1538 0786 C5F81080 		str	r8, [r5, #16]
 1539              		.loc 1 586 0
 1540 078a 0D78     		ldrb	r5, [r1]	@ zero_extendqisi2
 1541 078c 16FB0575 		smlabb	r5, r6, r5, r7
 1542 0790 0544     		add	r5, r5, r0
 1543              		.loc 1 587 0
 1544 0792 03EB0C04 		add	r4, r3, ip
 1545              		.loc 1 586 0
 1546 0796 D5F81080 		ldr	r8, [r5, #16]
 1547              		.loc 1 587 0
 1548 079a 013C     		subs	r4, r4, #1
 1549 079c B4FBFCF4 		udiv	r4, r4, ip
 1550              		.loc 1 586 0
 1551 07a0 28F0FF5C 		bic	ip, r8, #534773760
 1552 07a4 2CF4C01C 		bic	ip, ip, #1572864
 1553 07a8 C5F810C0 		str	ip, [r5, #16]
 1554              		.loc 1 587 0
 1555 07ac 0D78     		ldrb	r5, [r1]	@ zero_extendqisi2
 1556 07ae 16FB0575 		smlabb	r5, r6, r5, r7
 1557 07b2 0544     		add	r5, r5, r0
 1558 07b4 E404     		lsls	r4, r4, #19
 1559 07b6 D5F810C0 		ldr	ip, [r5, #16]
 1560 07ba 04EA0E0E 		and	lr, r4, lr
 1561 07be 4EEA0C04 		orr	r4, lr, ip
 1562 07c2 2C61     		str	r4, [r5, #16]
 1563              		.loc 1 588 0
 1564 07c4 0C78     		ldrb	r4, [r1]	@ zero_extendqisi2
 1565 07c6 16FB0474 		smlabb	r4, r6, r4, r7
 1566 07ca 0444     		add	r4, r4, r0
 1567 07cc C3F3120E 		ubfx	lr, r3, #0, #19
 1568 07d0 2569     		ldr	r5, [r4, #16]
 1569 07d2 4EEA0505 		orr	r5, lr, r5
 1570 07d6 2561     		str	r5, [r4, #16]
 1571              		.loc 1 590 0
 1572 07d8 CC78     		ldrb	r4, [r1, #3]	@ zero_extendqisi2
 1573 07da 012C     		cmp	r4, #1
 1574 07dc 19D0     		beq	.L169
 1575              		.loc 1 597 0
 1576 07de 012A     		cmp	r2, #1
 1577 07e0 9FD1     		bne	.L153
 1578              	.L152:
 1579              		.loc 1 599 0
 1580 07e2 0C78     		ldrb	r4, [r1]	@ zero_extendqisi2
 1581 07e4 0D69     		ldr	r5, [r1, #16]
ARM GAS  /tmp/cclsZlw8.s 			page 29


 1582 07e6 00EB4414 		add	r4, r0, r4, lsl #5
 1583 07ea C4F81459 		str	r5, [r4, #2324]
 1584 07ee A1E7     		b	.L142
 1585              	.L143:
 1586              		.loc 1 615 0
 1587 07f0 D0F80848 		ldr	r4, [r0, #2056]
 1588              		.loc 1 617 0
 1589 07f4 0D78     		ldrb	r5, [r1]	@ zero_extendqisi2
 1590              		.loc 1 615 0
 1591 07f6 14F4807F 		tst	r4, #256
 1592 07fa 4FF41064 		mov	r4, #2304
 1593 07fe 04EB4514 		add	r4, r4, r5, lsl #5
 1594              		.loc 1 617 0
 1595 0802 0559     		ldr	r5, [r0, r4]
 1596 0804 0CBF     		ite	eq
 1597 0806 45F00055 		orreq	r5, r5, #536870912
 1598              		.loc 1 621 0
 1599 080a 45F08055 		orrne	r5, r5, #268435456
 1600 080e 0551     		str	r5, [r0, r4]
 1601 0810 93E7     		b	.L144
 1602              	.L169:
 1603              		.loc 1 592 0
 1604 0812 0C78     		ldrb	r4, [r1]	@ zero_extendqisi2
 1605 0814 16FB0474 		smlabb	r4, r6, r4, r7
 1606 0818 0444     		add	r4, r4, r0
 1607 081a 2569     		ldr	r5, [r4, #16]
 1608 081c 25F0C045 		bic	r5, r5, #1610612736
 1609 0820 2561     		str	r5, [r4, #16]
 1610              		.loc 1 593 0
 1611 0822 0C78     		ldrb	r4, [r1]	@ zero_extendqisi2
 1612 0824 16FB0476 		smlabb	r6, r6, r4, r7
 1613 0828 0644     		add	r6, r6, r0
 1614 082a 3469     		ldr	r4, [r6, #16]
 1615 082c 44F00054 		orr	r4, r4, #536870912
 1616 0830 3461     		str	r4, [r6, #16]
 1617 0832 71E7     		b	.L139
 1618              	.L171:
 1619              		.align	2
 1620              	.L170:
 1621 0834 0000F81F 		.word	536346624
 1622              		.cfi_endproc
 1623              	.LFE136:
 1624              		.size	USB_EPStartXfer, .-USB_EPStartXfer
 1625              		.align	2
 1626 0838 AFF30080 		.p2align 4,,15
 1626      AFF30080 
 1627              		.global	USB_EP0StartXfer
 1628              		.thumb
 1629              		.thumb_func
 1630              		.type	USB_EP0StartXfer, %function
 1631              	USB_EP0StartXfer:
 1632              	.LFB137:
 1633              		.loc 1 687 0
 1634              		.cfi_startproc
 1635              		@ args = 0, pretend = 0, frame = 0
 1636              		@ frame_needed = 0, uses_anonymous_args = 0
 1637              	.LVL135:
ARM GAS  /tmp/cclsZlw8.s 			page 30


 1638              		.loc 1 689 0
 1639 0840 4B78     		ldrb	r3, [r1, #1]	@ zero_extendqisi2
 1640 0842 012B     		cmp	r3, #1
 1641              		.loc 1 687 0
 1642 0844 F0B5     		push	{r4, r5, r6, r7, lr}
 1643              		.cfi_def_cfa_offset 20
 1644              		.cfi_offset 4, -20
 1645              		.cfi_offset 5, -16
 1646              		.cfi_offset 6, -12
 1647              		.cfi_offset 7, -8
 1648              		.cfi_offset 14, -4
 1649              		.loc 1 689 0
 1650 0846 3BD0     		beq	.L188
 1651              		.loc 1 739 0
 1652 0848 0D78     		ldrb	r5, [r1]	@ zero_extendqisi2
 1653              		.loc 1 742 0
 1654 084a 4F69     		ldr	r7, [r1, #20]
 1655              		.loc 1 739 0
 1656 084c 2024     		movs	r4, #32
 1657 084e 4FF43063 		mov	r3, #2816
 1658 0852 14FB0535 		smlabb	r5, r4, r5, r3
 1659 0856 0544     		add	r5, r5, r0
 1660 0858 2E69     		ldr	r6, [r5, #16]
 1661 085a F60C     		lsrs	r6, r6, #19
 1662 085c F604     		lsls	r6, r6, #19
 1663 085e 2E61     		str	r6, [r5, #16]
 1664              		.loc 1 740 0
 1665 0860 0D78     		ldrb	r5, [r1]	@ zero_extendqisi2
 1666 0862 14FB0533 		smlabb	r3, r4, r5, r3
 1667 0866 0344     		add	r3, r3, r0
 1668 0868 1C69     		ldr	r4, [r3, #16]
 1669 086a 24F0FF54 		bic	r4, r4, #534773760
 1670 086e 24F4C014 		bic	r4, r4, #1572864
 1671 0872 1C61     		str	r4, [r3, #16]
 1672              		.loc 1 744 0
 1673 0874 8C68     		ldr	r4, [r1, #8]
 1674              		.loc 1 742 0
 1675 0876 0FBB     		cbnz	r7, .L189
 1676              	.L182:
 1677              		.loc 1 747 0
 1678 0878 0B78     		ldrb	r3, [r1]	@ zero_extendqisi2
 1679 087a 2025     		movs	r5, #32
 1680 087c 4FF43066 		mov	r6, #2816
 1681 0880 15FB0363 		smlabb	r3, r5, r3, r6
 1682 0884 0344     		add	r3, r3, r0
 1683              		.loc 1 748 0
 1684 0886 C4F31204 		ubfx	r4, r4, #0, #19
 1685              		.loc 1 747 0
 1686 088a 1F69     		ldr	r7, [r3, #16]
 1687 088c 47F40027 		orr	r7, r7, #524288
 1688 0890 1F61     		str	r7, [r3, #16]
 1689              		.loc 1 748 0
 1690 0892 0B78     		ldrb	r3, [r1]	@ zero_extendqisi2
 1691 0894 15FB0363 		smlabb	r3, r5, r3, r6
 1692 0898 0344     		add	r3, r3, r0
 1693              		.loc 1 751 0
 1694 089a 012A     		cmp	r2, #1
ARM GAS  /tmp/cclsZlw8.s 			page 31


 1695              		.loc 1 748 0
 1696 089c 1F69     		ldr	r7, [r3, #16]
 1697 089e 44EA0704 		orr	r4, r4, r7
 1698 08a2 1C61     		str	r4, [r3, #16]
 1699              		.loc 1 751 0
 1700 08a4 59D0     		beq	.L190
 1701              	.LVL136:
 1702              	.L183:
 1703              		.loc 1 757 0
 1704 08a6 0A78     		ldrb	r2, [r1]	@ zero_extendqisi2
 1705 08a8 4FF43063 		mov	r3, #2816
 1706 08ac 03EB4213 		add	r3, r3, r2, lsl #5
 1707 08b0 C258     		ldr	r2, [r0, r3]
 1708 08b2 42F00442 		orr	r2, r2, #-2080374784
 1709 08b6 C250     		str	r2, [r0, r3]
 1710              		.loc 1 760 0
 1711 08b8 0020     		movs	r0, #0
 1712              	.LVL137:
 1713 08ba F0BD     		pop	{r4, r5, r6, r7, pc}
 1714              	.LVL138:
 1715              	.L189:
 1716              		.loc 1 744 0
 1717 08bc 4C61     		str	r4, [r1, #20]
 1718 08be DBE7     		b	.L182
 1719              	.L188:
 1720              		.loc 1 692 0
 1721 08c0 D1F814E0 		ldr	lr, [r1, #20]
 1722 08c4 BEF1000F 		cmp	lr, #0
 1723 08c8 4ED0     		beq	.L191
 1724              		.loc 1 705 0
 1725 08ca 0D78     		ldrb	r5, [r1]	@ zero_extendqisi2
 1726              		.loc 1 708 0
 1727 08cc 8E68     		ldr	r6, [r1, #8]
 1728              		.loc 1 705 0
 1729 08ce 2024     		movs	r4, #32
 1730 08d0 4FF41063 		mov	r3, #2304
 1731 08d4 14FB0535 		smlabb	r5, r4, r5, r3
 1732 08d8 0544     		add	r5, r5, r0
 1733              		.loc 1 708 0
 1734 08da B645     		cmp	lr, r6
 1735              		.loc 1 705 0
 1736 08dc 2F69     		ldr	r7, [r5, #16]
 1737 08de 4FEAD747 		lsr	r7, r7, #19
 1738 08e2 4FEAC747 		lsl	r7, r7, #19
 1739 08e6 2F61     		str	r7, [r5, #16]
 1740              		.loc 1 706 0
 1741 08e8 0D78     		ldrb	r5, [r1]	@ zero_extendqisi2
 1742 08ea 14FB0533 		smlabb	r3, r4, r5, r3
 1743 08ee 0344     		add	r3, r3, r0
 1744 08f0 98BF     		it	ls
 1745 08f2 7646     		movls	r6, lr
 1746 08f4 1C69     		ldr	r4, [r3, #16]
 1747 08f6 24F0FF54 		bic	r4, r4, #534773760
 1748 08fa 24F4C014 		bic	r4, r4, #1572864
 1749 08fe 1C61     		str	r4, [r3, #16]
 1750              		.loc 1 712 0
 1751 0900 0D78     		ldrb	r5, [r1]	@ zero_extendqisi2
ARM GAS  /tmp/cclsZlw8.s 			page 32


 1752              		.loc 1 710 0
 1753 0902 88BF     		it	hi
 1754 0904 4E61     		strhi	r6, [r1, #20]
 1755              		.loc 1 712 0
 1756 0906 2024     		movs	r4, #32
 1757 0908 4FF41063 		mov	r3, #2304
 1758 090c 14FB0535 		smlabb	r5, r4, r5, r3
 1759 0910 0544     		add	r5, r5, r0
 1760              		.loc 1 713 0
 1761 0912 C6F31206 		ubfx	r6, r6, #0, #19
 1762              		.loc 1 712 0
 1763 0916 2F69     		ldr	r7, [r5, #16]
 1764 0918 47F40027 		orr	r7, r7, #524288
 1765 091c 2F61     		str	r7, [r5, #16]
 1766              		.loc 1 713 0
 1767 091e 0D78     		ldrb	r5, [r1]	@ zero_extendqisi2
 1768 0920 14FB0533 		smlabb	r3, r4, r5, r3
 1769 0924 0344     		add	r3, r3, r0
 1770 0926 1C69     		ldr	r4, [r3, #16]
 1771 0928 2643     		orrs	r6, r6, r4
 1772 092a 1E61     		str	r6, [r3, #16]
 1773              	.L175:
 1774              		.loc 1 717 0
 1775 092c 012A     		cmp	r2, #1
 1776 092e 39D0     		beq	.L192
 1777              		.loc 1 724 0
 1778 0930 4B69     		ldr	r3, [r1, #20]
 1779 0932 3BB1     		cbz	r3, .L179
 1780              		.loc 1 726 0
 1781 0934 0D78     		ldrb	r5, [r1]	@ zero_extendqisi2
 1782 0936 D0F83448 		ldr	r4, [r0, #2100]
 1783 093a 0122     		movs	r2, #1
 1784              	.LVL139:
 1785 093c AA40     		lsls	r2, r2, r5
 1786 093e 2243     		orrs	r2, r2, r4
 1787 0940 C0F83428 		str	r2, [r0, #2100]
 1788              	.L179:
 1789              		.loc 1 731 0
 1790 0944 0A78     		ldrb	r2, [r1]	@ zero_extendqisi2
 1791 0946 4FF41063 		mov	r3, #2304
 1792 094a 03EB4213 		add	r3, r3, r2, lsl #5
 1793 094e C258     		ldr	r2, [r0, r3]
 1794 0950 42F00442 		orr	r2, r2, #-2080374784
 1795 0954 C250     		str	r2, [r0, r3]
 1796              		.loc 1 760 0
 1797 0956 0020     		movs	r0, #0
 1798              	.LVL140:
 1799 0958 F0BD     		pop	{r4, r5, r6, r7, pc}
 1800              	.LVL141:
 1801              	.L190:
 1802              		.loc 1 753 0
 1803 095a 0A78     		ldrb	r2, [r1]	@ zero_extendqisi2
 1804              	.LVL142:
 1805 095c CB68     		ldr	r3, [r1, #12]
 1806 095e 15FB0265 		smlabb	r5, r5, r2, r6
 1807 0962 0544     		add	r5, r5, r0
 1808 0964 6B61     		str	r3, [r5, #20]
ARM GAS  /tmp/cclsZlw8.s 			page 33


 1809 0966 9EE7     		b	.L183
 1810              	.LVL143:
 1811              	.L191:
 1812              		.loc 1 694 0
 1813 0968 0C78     		ldrb	r4, [r1]	@ zero_extendqisi2
 1814 096a 2023     		movs	r3, #32
 1815 096c 4FF41066 		mov	r6, #2304
 1816 0970 13FB0464 		smlabb	r4, r3, r4, r6
 1817 0974 0444     		add	r4, r4, r0
 1818 0976 2569     		ldr	r5, [r4, #16]
 1819 0978 25F0FF55 		bic	r5, r5, #534773760
 1820 097c 25F4C015 		bic	r5, r5, #1572864
 1821 0980 2561     		str	r5, [r4, #16]
 1822              		.loc 1 695 0
 1823 0982 0C78     		ldrb	r4, [r1]	@ zero_extendqisi2
 1824 0984 13FB0464 		smlabb	r4, r3, r4, r6
 1825 0988 0444     		add	r4, r4, r0
 1826 098a 2569     		ldr	r5, [r4, #16]
 1827 098c 45F40025 		orr	r5, r5, #524288
 1828 0990 2561     		str	r5, [r4, #16]
 1829              		.loc 1 696 0
 1830 0992 0C78     		ldrb	r4, [r1]	@ zero_extendqisi2
 1831 0994 13FB0463 		smlabb	r3, r3, r4, r6
 1832 0998 0344     		add	r3, r3, r0
 1833 099a 1C69     		ldr	r4, [r3, #16]
 1834 099c E40C     		lsrs	r4, r4, #19
 1835 099e E404     		lsls	r4, r4, #19
 1836 09a0 1C61     		str	r4, [r3, #16]
 1837 09a2 C3E7     		b	.L175
 1838              	.L192:
 1839              		.loc 1 719 0
 1840 09a4 0B78     		ldrb	r3, [r1]	@ zero_extendqisi2
 1841 09a6 0A69     		ldr	r2, [r1, #16]
 1842              	.LVL144:
 1843 09a8 00EB4313 		add	r3, r0, r3, lsl #5
 1844 09ac C3F81429 		str	r2, [r3, #2324]
 1845 09b0 C8E7     		b	.L179
 1846              		.cfi_endproc
 1847              	.LFE137:
 1848              		.size	USB_EP0StartXfer, .-USB_EP0StartXfer
 1849 09b2 00BF     		.align	2
 1850 09b4 AFF30080 		.p2align 4,,15
 1850      AFF30080 
 1850      AFF30080 
 1851              		.global	USB_WritePacket
 1852              		.thumb
 1853              		.thumb_func
 1854              		.type	USB_WritePacket, %function
 1855              	USB_WritePacket:
 1856              	.LFB138:
 1857              		.loc 1 776 0
 1858              		.cfi_startproc
 1859              		@ args = 4, pretend = 0, frame = 0
 1860              		@ frame_needed = 0, uses_anonymous_args = 0
 1861              	.LVL145:
 1862 09c0 10B5     		push	{r4, lr}
 1863              		.cfi_def_cfa_offset 8
ARM GAS  /tmp/cclsZlw8.s 			page 34


 1864              		.cfi_offset 4, -8
 1865              		.cfi_offset 14, -4
 1866              		.loc 1 776 0
 1867 09c2 9DF80840 		ldrb	r4, [sp, #8]	@ zero_extendqisi2
 1868              		.loc 1 779 0
 1869 09c6 0CB9     		cbnz	r4, .L194
 1870 09c8 FFF73AFB 		bl	USB_WritePacket.part.1
 1871              	.LVL146:
 1872              	.L194:
 1873              		.loc 1 788 0
 1874 09cc 0020     		movs	r0, #0
 1875 09ce 10BD     		pop	{r4, pc}
 1876              		.cfi_endproc
 1877              	.LFE138:
 1878              		.size	USB_WritePacket, .-USB_WritePacket
 1879              		.align	2
 1880              		.p2align 4,,15
 1881              		.global	USB_ReadPacket
 1882              		.thumb
 1883              		.thumb_func
 1884              		.type	USB_ReadPacket, %function
 1885              	USB_ReadPacket:
 1886              	.LFB139:
 1887              		.loc 1 804 0
 1888              		.cfi_startproc
 1889              		@ args = 0, pretend = 0, frame = 0
 1890              		@ frame_needed = 0, uses_anonymous_args = 0
 1891              		@ link register save eliminated.
 1892              	.LVL147:
 1893              		.loc 1 806 0
 1894 09d0 0332     		adds	r2, r2, #3
 1895              	.LVL148:
 1896              		.loc 1 808 0
 1897 09d2 9210     		asrs	r2, r2, #2
 1898              	.LVL149:
 1899 09d4 0FD0     		beq	.L204
 1900              		.loc 1 804 0
 1901 09d6 70B4     		push	{r4, r5, r6}
 1902              		.cfi_def_cfa_offset 12
 1903              		.cfi_offset 4, -12
 1904              		.cfi_offset 5, -8
 1905              		.cfi_offset 6, -4
 1906              		.loc 1 808 0
 1907 09d8 0023     		movs	r3, #0
 1908 09da 00F58056 		add	r6, r0, #4096
 1909 09de 0C46     		mov	r4, r1
 1910              	.LVL150:
 1911              	.L198:
 1912              		.loc 1 808 0 is_stmt 0 discriminator 3
 1913 09e0 0133     		adds	r3, r3, #1
 1914              	.LVL151:
 1915              		.loc 1 810 0 is_stmt 1 discriminator 3
 1916 09e2 3568     		ldr	r5, [r6]
 1917 09e4 44F8045B 		str	r5, [r4], #4
 1918              	.LVL152:
 1919              		.loc 1 808 0 discriminator 3
 1920 09e8 9A42     		cmp	r2, r3
ARM GAS  /tmp/cclsZlw8.s 			page 35


 1921 09ea F9D1     		bne	.L198
 1922 09ec 01EB8201 		add	r1, r1, r2, lsl #2
 1923              		.loc 1 814 0
 1924 09f0 0846     		mov	r0, r1
 1925              	.LVL153:
 1926 09f2 70BC     		pop	{r4, r5, r6}
 1927              		.cfi_restore 6
 1928              		.cfi_restore 5
 1929              		.cfi_restore 4
 1930              		.cfi_def_cfa_offset 0
 1931              	.LVL154:
 1932 09f4 7047     		bx	lr
 1933              	.LVL155:
 1934              	.L204:
 1935 09f6 0846     		mov	r0, r1
 1936              	.LVL156:
 1937 09f8 7047     		bx	lr
 1938              		.cfi_endproc
 1939              	.LFE139:
 1940              		.size	USB_ReadPacket, .-USB_ReadPacket
 1941 09fa 00BF     		.align	2
 1942 09fc AFF30080 		.p2align 4,,15
 1943              		.global	USB_EPSetStall
 1944              		.thumb
 1945              		.thumb_func
 1946              		.type	USB_EPSetStall, %function
 1947              	USB_EPSetStall:
 1948              	.LFB140:
 1949              		.loc 1 823 0
 1950              		.cfi_startproc
 1951              		@ args = 0, pretend = 0, frame = 0
 1952              		@ frame_needed = 0, uses_anonymous_args = 0
 1953              		@ link register save eliminated.
 1954              	.LVL157:
 1955              		.loc 1 824 0
 1956 0a00 4B78     		ldrb	r3, [r1, #1]	@ zero_extendqisi2
 1957 0a02 012B     		cmp	r3, #1
 1958              		.loc 1 826 0
 1959 0a04 0B78     		ldrb	r3, [r1]	@ zero_extendqisi2
 1960              		.loc 1 823 0
 1961 0a06 70B4     		push	{r4, r5, r6}
 1962              		.cfi_def_cfa_offset 12
 1963              		.cfi_offset 4, -12
 1964              		.cfi_offset 5, -8
 1965              		.cfi_offset 6, -4
 1966              		.loc 1 826 0
 1967 0a08 4FF02002 		mov	r2, #32
 1968 0a0c 0CBF     		ite	eq
 1969 0a0e 4FF41065 		moveq	r5, #2304
 1970 0a12 4FF43065 		movne	r5, #2816
 1971 0a16 12FB0353 		smlabb	r3, r2, r3, r5
 1972              		.loc 1 834 0
 1973 0a1a 1C18     		adds	r4, r3, r0
 1974 0a1c 1E58     		ldr	r6, [r3, r0]
 1975 0a1e 002E     		cmp	r6, #0
 1976 0a20 07DB     		blt	.L209
 1977              		.loc 1 836 0
ARM GAS  /tmp/cclsZlw8.s 			page 36


 1978 0a22 1C58     		ldr	r4, [r3, r0]
 1979 0a24 24F08044 		bic	r4, r4, #1073741824
 1980 0a28 1C50     		str	r4, [r3, r0]
 1981 0a2a 0B78     		ldrb	r3, [r1]	@ zero_extendqisi2
 1982 0a2c 12FB0352 		smlabb	r2, r2, r3, r5
 1983 0a30 1418     		adds	r4, r2, r0
 1984              	.L209:
 1985              		.loc 1 838 0
 1986 0a32 2368     		ldr	r3, [r4]
 1987 0a34 43F40013 		orr	r3, r3, #2097152
 1988 0a38 2360     		str	r3, [r4]
 1989              		.loc 1 841 0
 1990 0a3a 0020     		movs	r0, #0
 1991              	.LVL158:
 1992 0a3c 70BC     		pop	{r4, r5, r6}
 1993              		.cfi_restore 6
 1994              		.cfi_restore 5
 1995              		.cfi_restore 4
 1996              		.cfi_def_cfa_offset 0
 1997 0a3e 7047     		bx	lr
 1998              		.cfi_endproc
 1999              	.LFE140:
 2000              		.size	USB_EPSetStall, .-USB_EPSetStall
 2001              		.align	2
 2002              		.p2align 4,,15
 2003              		.global	USB_EPClearStall
 2004              		.thumb
 2005              		.thumb_func
 2006              		.type	USB_EPClearStall, %function
 2007              	USB_EPClearStall:
 2008              	.LFB141:
 2009              		.loc 1 851 0
 2010              		.cfi_startproc
 2011              		@ args = 0, pretend = 0, frame = 0
 2012              		@ frame_needed = 0, uses_anonymous_args = 0
 2013              		@ link register save eliminated.
 2014              	.LVL159:
 2015              		.loc 1 852 0
 2016 0a40 4B78     		ldrb	r3, [r1, #1]	@ zero_extendqisi2
 2017 0a42 012B     		cmp	r3, #1
 2018              		.loc 1 854 0
 2019 0a44 0B78     		ldrb	r3, [r1]	@ zero_extendqisi2
 2020              		.loc 1 851 0
 2021 0a46 30B4     		push	{r4, r5}
 2022              		.cfi_def_cfa_offset 8
 2023              		.cfi_offset 4, -8
 2024              		.cfi_offset 5, -4
 2025 0a48 0CBF     		ite	eq
 2026 0a4a 4FF41065 		moveq	r5, #2304
 2027 0a4e 4FF43065 		movne	r5, #2816
 2028              		.loc 1 854 0
 2029 0a52 2024     		movs	r4, #32
 2030 0a54 14FB0353 		smlabb	r3, r4, r3, r5
 2031              		.loc 1 862 0
 2032 0a58 1A58     		ldr	r2, [r3, r0]
 2033 0a5a 22F40012 		bic	r2, r2, #2097152
 2034 0a5e 1A50     		str	r2, [r3, r0]
ARM GAS  /tmp/cclsZlw8.s 			page 37


 2035              		.loc 1 863 0
 2036 0a60 CB78     		ldrb	r3, [r1, #3]	@ zero_extendqisi2
 2037 0a62 023B     		subs	r3, r3, #2
 2038 0a64 012B     		cmp	r3, #1
 2039 0a66 06D8     		bhi	.L217
 2040              		.loc 1 865 0
 2041 0a68 0B78     		ldrb	r3, [r1]	@ zero_extendqisi2
 2042 0a6a 14FB0354 		smlabb	r4, r4, r3, r5
 2043 0a6e 2358     		ldr	r3, [r4, r0]
 2044 0a70 43F08053 		orr	r3, r3, #268435456
 2045 0a74 2350     		str	r3, [r4, r0]
 2046              	.L217:
 2047              		.loc 1 869 0
 2048 0a76 0020     		movs	r0, #0
 2049              	.LVL160:
 2050 0a78 30BC     		pop	{r4, r5}
 2051              		.cfi_restore 5
 2052              		.cfi_restore 4
 2053              		.cfi_def_cfa_offset 0
 2054 0a7a 7047     		bx	lr
 2055              		.cfi_endproc
 2056              	.LFE141:
 2057              		.size	USB_EPClearStall, .-USB_EPClearStall
 2058              		.align	2
 2059 0a7c AFF30080 		.p2align 4,,15
 2060              		.global	USB_StopDevice
 2061              		.thumb
 2062              		.thumb_func
 2063              		.type	USB_StopDevice, %function
 2064              	USB_StopDevice:
 2065              	.LFB142:
 2066              		.loc 1 877 0
 2067              		.cfi_startproc
 2068              		@ args = 0, pretend = 0, frame = 0
 2069              		@ frame_needed = 0, uses_anonymous_args = 0
 2070              		@ link register save eliminated.
 2071              	.LVL161:
 2072 0a80 10B4     		push	{r4}
 2073              		.cfi_def_cfa_offset 4
 2074              		.cfi_offset 4, -4
 2075 0a82 00F51063 		add	r3, r0, #2304
 2076 0a86 00F52E64 		add	r4, r0, #2784
 2077              		.loc 1 883 0
 2078 0a8a FF22     		movs	r2, #255
 2079              	.LVL162:
 2080              	.L224:
 2081              		.loc 1 883 0 is_stmt 0 discriminator 3
 2082 0a8c 9A60     		str	r2, [r3, #8]
 2083 0a8e 03F50071 		add	r1, r3, #512
 2084 0a92 2033     		adds	r3, r3, #32
 2085              		.loc 1 881 0 is_stmt 1 discriminator 3
 2086 0a94 A342     		cmp	r3, r4
 2087              		.loc 1 884 0 discriminator 3
 2088 0a96 8A60     		str	r2, [r1, #8]
 2089              		.loc 1 881 0 discriminator 3
 2090 0a98 F8D1     		bne	.L224
 2091              		.loc 1 889 0
ARM GAS  /tmp/cclsZlw8.s 			page 38


 2092 0a9a 0021     		movs	r1, #0
 2093              		.loc 1 886 0
 2094 0a9c 4FF0FF33 		mov	r3, #-1
 2095              	.LBB50:
 2096              	.LBB51:
 2097              		.loc 1 371 0
 2098 0aa0 1024     		movs	r4, #16
 2099              	.LBE51:
 2100              	.LBE50:
 2101              		.loc 1 886 0
 2102 0aa2 C0F81838 		str	r3, [r0, #2072]
 2103              		.loc 1 889 0
 2104 0aa6 C0F81018 		str	r1, [r0, #2064]
 2105              	.LBB54:
 2106              	.LBB52:
 2107              		.loc 1 371 0
 2108 0aaa 0D4B     		ldr	r3, .L241
 2109              	.LBE52:
 2110              	.LBE54:
 2111              		.loc 1 890 0
 2112 0aac C0F81418 		str	r1, [r0, #2068]
 2113              		.loc 1 891 0
 2114 0ab0 C0F81C18 		str	r1, [r0, #2076]
 2115              	.LVL163:
 2116              	.LBB55:
 2117              	.LBB53:
 2118              		.loc 1 371 0
 2119 0ab4 0461     		str	r4, [r0, #16]
 2120              	.LVL164:
 2121 0ab6 01E0     		b	.L225
 2122              	.LVL165:
 2123              	.L227:
 2124              		.loc 1 375 0
 2125 0ab8 013B     		subs	r3, r3, #1
 2126              	.LVL166:
 2127 0aba 02D0     		beq	.L226
 2128              	.LVL167:
 2129              	.L225:
 2130              		.loc 1 380 0
 2131 0abc 0269     		ldr	r2, [r0, #16]
 2132 0abe D106     		lsls	r1, r2, #27
 2133 0ac0 FAD4     		bmi	.L227
 2134              	.LVL168:
 2135              	.L226:
 2136              	.LBE53:
 2137              	.LBE55:
 2138              	.LBB56:
 2139              	.LBB57:
 2140              		.loc 1 347 0
 2141 0ac2 4FF40873 		mov	r3, #544
 2142 0ac6 0361     		str	r3, [r0, #16]
 2143              	.LVL169:
 2144 0ac8 054B     		ldr	r3, .L241
 2145 0aca 01E0     		b	.L228
 2146              	.LVL170:
 2147              	.L230:
 2148              		.loc 1 351 0
ARM GAS  /tmp/cclsZlw8.s 			page 39


 2149 0acc 013B     		subs	r3, r3, #1
 2150              	.LVL171:
 2151 0ace 02D0     		beq	.L229
 2152              	.LVL172:
 2153              	.L228:
 2154              		.loc 1 356 0
 2155 0ad0 0269     		ldr	r2, [r0, #16]
 2156 0ad2 9206     		lsls	r2, r2, #26
 2157 0ad4 FAD4     		bmi	.L230
 2158              	.LVL173:
 2159              	.L229:
 2160              	.LBE57:
 2161              	.LBE56:
 2162              		.loc 1 898 0
 2163 0ad6 0020     		movs	r0, #0
 2164              	.LVL174:
 2165 0ad8 5DF8044B 		ldr	r4, [sp], #4
 2166              		.cfi_restore 4
 2167              		.cfi_def_cfa_offset 0
 2168 0adc 7047     		bx	lr
 2169              	.L242:
 2170 0ade 00BF     		.align	2
 2171              	.L241:
 2172 0ae0 400D0300 		.word	200000
 2173              		.cfi_endproc
 2174              	.LFE142:
 2175              		.size	USB_StopDevice, .-USB_StopDevice
 2176              		.align	2
 2177 0ae4 AFF30080 		.p2align 4,,15
 2177      AFF30080 
 2177      AFF30080 
 2178              		.global	USB_SetDevAddress
 2179              		.thumb
 2180              		.thumb_func
 2181              		.type	USB_SetDevAddress, %function
 2182              	USB_SetDevAddress:
 2183              	.LFB143:
 2184              		.loc 1 908 0
 2185              		.cfi_startproc
 2186              		@ args = 0, pretend = 0, frame = 0
 2187              		@ frame_needed = 0, uses_anonymous_args = 0
 2188              		@ link register save eliminated.
 2189              	.LVL175:
 2190              		.loc 1 909 0
 2191 0af0 D0F80038 		ldr	r3, [r0, #2048]
 2192 0af4 23F4FE63 		bic	r3, r3, #2032
 2193 0af8 C0F80038 		str	r3, [r0, #2048]
 2194              		.loc 1 910 0
 2195 0afc D0F80038 		ldr	r3, [r0, #2048]
 2196 0b00 0901     		lsls	r1, r1, #4
 2197              	.LVL176:
 2198 0b02 01F4FE61 		and	r1, r1, #2032
 2199 0b06 1943     		orrs	r1, r1, r3
 2200 0b08 C0F80018 		str	r1, [r0, #2048]
 2201              		.loc 1 913 0
 2202 0b0c 0020     		movs	r0, #0
 2203              	.LVL177:
ARM GAS  /tmp/cclsZlw8.s 			page 40


 2204 0b0e 7047     		bx	lr
 2205              		.cfi_endproc
 2206              	.LFE143:
 2207              		.size	USB_SetDevAddress, .-USB_SetDevAddress
 2208              		.align	2
 2209              		.p2align 4,,15
 2210              		.global	USB_DevConnect
 2211              		.thumb
 2212              		.thumb_func
 2213              		.type	USB_DevConnect, %function
 2214              	USB_DevConnect:
 2215              	.LFB144:
 2216              		.loc 1 921 0
 2217              		.cfi_startproc
 2218              		@ args = 0, pretend = 0, frame = 0
 2219              		@ frame_needed = 0, uses_anonymous_args = 0
 2220              	.LVL178:
 2221              		.loc 1 922 0
 2222 0b10 00F50062 		add	r2, r0, #2048
 2223              		.loc 1 921 0
 2224 0b14 08B5     		push	{r3, lr}
 2225              		.cfi_def_cfa_offset 8
 2226              		.cfi_offset 3, -8
 2227              		.cfi_offset 14, -4
 2228              		.loc 1 922 0
 2229 0b16 5368     		ldr	r3, [r2, #4]
 2230 0b18 23F00203 		bic	r3, r3, #2
 2231              		.loc 1 923 0
 2232 0b1c 0320     		movs	r0, #3
 2233              	.LVL179:
 2234              		.loc 1 922 0
 2235 0b1e 5360     		str	r3, [r2, #4]
 2236              		.loc 1 923 0
 2237 0b20 FFF7FEFF 		bl	HAL_Delay
 2238              	.LVL180:
 2239              		.loc 1 926 0
 2240 0b24 0020     		movs	r0, #0
 2241 0b26 08BD     		pop	{r3, pc}
 2242              		.cfi_endproc
 2243              	.LFE144:
 2244              		.size	USB_DevConnect, .-USB_DevConnect
 2245              		.align	2
 2246 0b28 AFF30080 		.p2align 4,,15
 2246      AFF30080 
 2247              		.global	USB_DevDisconnect
 2248              		.thumb
 2249              		.thumb_func
 2250              		.type	USB_DevDisconnect, %function
 2251              	USB_DevDisconnect:
 2252              	.LFB145:
 2253              		.loc 1 934 0
 2254              		.cfi_startproc
 2255              		@ args = 0, pretend = 0, frame = 0
 2256              		@ frame_needed = 0, uses_anonymous_args = 0
 2257              	.LVL181:
 2258              		.loc 1 935 0
 2259 0b30 00F50062 		add	r2, r0, #2048
ARM GAS  /tmp/cclsZlw8.s 			page 41


 2260              		.loc 1 934 0
 2261 0b34 08B5     		push	{r3, lr}
 2262              		.cfi_def_cfa_offset 8
 2263              		.cfi_offset 3, -8
 2264              		.cfi_offset 14, -4
 2265              		.loc 1 935 0
 2266 0b36 5368     		ldr	r3, [r2, #4]
 2267 0b38 43F00203 		orr	r3, r3, #2
 2268              		.loc 1 936 0
 2269 0b3c 0320     		movs	r0, #3
 2270              	.LVL182:
 2271              		.loc 1 935 0
 2272 0b3e 5360     		str	r3, [r2, #4]
 2273              		.loc 1 936 0
 2274 0b40 FFF7FEFF 		bl	HAL_Delay
 2275              	.LVL183:
 2276              		.loc 1 939 0
 2277 0b44 0020     		movs	r0, #0
 2278 0b46 08BD     		pop	{r3, pc}
 2279              		.cfi_endproc
 2280              	.LFE145:
 2281              		.size	USB_DevDisconnect, .-USB_DevDisconnect
 2282              		.align	2
 2283 0b48 AFF30080 		.p2align 4,,15
 2283      AFF30080 
 2284              		.global	USB_ReadInterrupts
 2285              		.thumb
 2286              		.thumb_func
 2287              		.type	USB_ReadInterrupts, %function
 2288              	USB_ReadInterrupts:
 2289              	.LFB146:
 2290              		.loc 1 947 0
 2291              		.cfi_startproc
 2292              		@ args = 0, pretend = 0, frame = 0
 2293              		@ frame_needed = 0, uses_anonymous_args = 0
 2294              		@ link register save eliminated.
 2295              	.LVL184:
 2296              		.loc 1 950 0
 2297 0b50 4369     		ldr	r3, [r0, #20]
 2298              	.LVL185:
 2299              		.loc 1 951 0
 2300 0b52 8069     		ldr	r0, [r0, #24]
 2301              	.LVL186:
 2302              		.loc 1 953 0
 2303 0b54 1840     		ands	r0, r0, r3
 2304              	.LVL187:
 2305 0b56 7047     		bx	lr
 2306              		.cfi_endproc
 2307              	.LFE146:
 2308              		.size	USB_ReadInterrupts, .-USB_ReadInterrupts
 2309              		.align	2
 2310 0b58 AFF30080 		.p2align 4,,15
 2310      AFF30080 
 2311              		.global	USB_ReadDevAllOutEpInterrupt
 2312              		.thumb
 2313              		.thumb_func
 2314              		.type	USB_ReadDevAllOutEpInterrupt, %function
ARM GAS  /tmp/cclsZlw8.s 			page 42


 2315              	USB_ReadDevAllOutEpInterrupt:
 2316              	.LFB147:
 2317              		.loc 1 961 0
 2318              		.cfi_startproc
 2319              		@ args = 0, pretend = 0, frame = 0
 2320              		@ frame_needed = 0, uses_anonymous_args = 0
 2321              		@ link register save eliminated.
 2322              	.LVL188:
 2323              		.loc 1 963 0
 2324 0b60 D0F81838 		ldr	r3, [r0, #2072]
 2325 0b64 00F50060 		add	r0, r0, #2048
 2326              	.LVL189:
 2327              		.loc 1 964 0
 2328 0b68 C069     		ldr	r0, [r0, #28]
 2329              	.LVL190:
 2330 0b6a 1840     		ands	r0, r0, r3
 2331              	.LVL191:
 2332              		.loc 1 966 0
 2333 0b6c 000C     		lsrs	r0, r0, #16
 2334              	.LVL192:
 2335 0b6e 7047     		bx	lr
 2336              		.cfi_endproc
 2337              	.LFE147:
 2338              		.size	USB_ReadDevAllOutEpInterrupt, .-USB_ReadDevAllOutEpInterrupt
 2339              		.align	2
 2340              		.p2align 4,,15
 2341              		.global	USB_ReadDevAllInEpInterrupt
 2342              		.thumb
 2343              		.thumb_func
 2344              		.type	USB_ReadDevAllInEpInterrupt, %function
 2345              	USB_ReadDevAllInEpInterrupt:
 2346              	.LFB148:
 2347              		.loc 1 974 0
 2348              		.cfi_startproc
 2349              		@ args = 0, pretend = 0, frame = 0
 2350              		@ frame_needed = 0, uses_anonymous_args = 0
 2351              		@ link register save eliminated.
 2352              	.LVL193:
 2353              		.loc 1 976 0
 2354 0b70 00F50063 		add	r3, r0, #2048
 2355 0b74 D0F81808 		ldr	r0, [r0, #2072]
 2356              	.LVL194:
 2357              		.loc 1 977 0
 2358 0b78 DB69     		ldr	r3, [r3, #28]
 2359              	.LVL195:
 2360 0b7a 1840     		ands	r0, r0, r3
 2361              	.LVL196:
 2362              		.loc 1 979 0
 2363 0b7c 80B2     		uxth	r0, r0
 2364              	.LVL197:
 2365 0b7e 7047     		bx	lr
 2366              		.cfi_endproc
 2367              	.LFE148:
 2368              		.size	USB_ReadDevAllInEpInterrupt, .-USB_ReadDevAllInEpInterrupt
 2369              		.align	2
 2370              		.p2align 4,,15
 2371              		.global	USB_ReadDevOutEPInterrupt
ARM GAS  /tmp/cclsZlw8.s 			page 43


 2372              		.thumb
 2373              		.thumb_func
 2374              		.type	USB_ReadDevOutEPInterrupt, %function
 2375              	USB_ReadDevOutEPInterrupt:
 2376              	.LFB149:
 2377              		.loc 1 989 0
 2378              		.cfi_startproc
 2379              		@ args = 0, pretend = 0, frame = 0
 2380              		@ frame_needed = 0, uses_anonymous_args = 0
 2381              		@ link register save eliminated.
 2382              	.LVL198:
 2383 0b80 00F53063 		add	r3, r0, #2816
 2384              		.loc 1 991 0
 2385 0b84 03EB4111 		add	r1, r3, r1, lsl #5
 2386              	.LVL199:
 2387              		.loc 1 992 0
 2388 0b88 00F50060 		add	r0, r0, #2048
 2389              	.LVL200:
 2390              		.loc 1 991 0
 2391 0b8c 8B68     		ldr	r3, [r1, #8]
 2392              	.LVL201:
 2393              		.loc 1 992 0
 2394 0b8e 4069     		ldr	r0, [r0, #20]
 2395              	.LVL202:
 2396              		.loc 1 994 0
 2397 0b90 1840     		ands	r0, r0, r3
 2398              	.LVL203:
 2399 0b92 7047     		bx	lr
 2400              		.cfi_endproc
 2401              	.LFE149:
 2402              		.size	USB_ReadDevOutEPInterrupt, .-USB_ReadDevOutEPInterrupt
 2403              		.align	2
 2404 0b94 AFF30080 		.p2align 4,,15
 2404      AFF30080 
 2404      AFF30080 
 2405              		.global	USB_ReadDevInEPInterrupt
 2406              		.thumb
 2407              		.thumb_func
 2408              		.type	USB_ReadDevInEPInterrupt, %function
 2409              	USB_ReadDevInEPInterrupt:
 2410              	.LFB150:
 2411              		.loc 1 1004 0
 2412              		.cfi_startproc
 2413              		@ args = 0, pretend = 0, frame = 0
 2414              		@ frame_needed = 0, uses_anonymous_args = 0
 2415              		@ link register save eliminated.
 2416              	.LVL204:
 2417 0ba0 10B4     		push	{r4}
 2418              		.cfi_def_cfa_offset 4
 2419              		.cfi_offset 4, -4
 2420              		.loc 1 1007 0
 2421 0ba2 D0F81048 		ldr	r4, [r0, #2064]
 2422              	.LVL205:
 2423              		.loc 1 1008 0
 2424 0ba6 D0F83438 		ldr	r3, [r0, #2100]
 2425              	.LVL206:
 2426 0baa 00EB4110 		add	r0, r0, r1, lsl #5
ARM GAS  /tmp/cclsZlw8.s 			page 44


 2427              	.LVL207:
 2428              		.loc 1 1009 0
 2429 0bae CB40     		lsrs	r3, r3, r1
 2430              	.LVL208:
 2431 0bb0 DB01     		lsls	r3, r3, #7
 2432 0bb2 DBB2     		uxtb	r3, r3
 2433              		.loc 1 1010 0
 2434 0bb4 D0F80809 		ldr	r0, [r0, #2312]
 2435              	.LVL209:
 2436              		.loc 1 1009 0
 2437 0bb8 2343     		orrs	r3, r3, r4
 2438              		.loc 1 1012 0
 2439 0bba 1840     		ands	r0, r0, r3
 2440 0bbc 5DF8044B 		ldr	r4, [sp], #4
 2441              		.cfi_restore 4
 2442              		.cfi_def_cfa_offset 0
 2443 0bc0 7047     		bx	lr
 2444              		.cfi_endproc
 2445              	.LFE150:
 2446              		.size	USB_ReadDevInEPInterrupt, .-USB_ReadDevInEPInterrupt
 2447 0bc2 00BF     		.align	2
 2448 0bc4 AFF30080 		.p2align 4,,15
 2448      AFF30080 
 2448      AFF30080 
 2449              		.global	USB_ClearInterrupts
 2450              		.thumb
 2451              		.thumb_func
 2452              		.type	USB_ClearInterrupts, %function
 2453              	USB_ClearInterrupts:
 2454              	.LFB151:
 2455              		.loc 1 1021 0
 2456              		.cfi_startproc
 2457              		@ args = 0, pretend = 0, frame = 0
 2458              		@ frame_needed = 0, uses_anonymous_args = 0
 2459              		@ link register save eliminated.
 2460              	.LVL210:
 2461              		.loc 1 1022 0
 2462 0bd0 4369     		ldr	r3, [r0, #20]
 2463 0bd2 1943     		orrs	r1, r1, r3
 2464              	.LVL211:
 2465 0bd4 4161     		str	r1, [r0, #20]
 2466 0bd6 7047     		bx	lr
 2467              		.cfi_endproc
 2468              	.LFE151:
 2469              		.size	USB_ClearInterrupts, .-USB_ClearInterrupts
 2470              		.align	2
 2471 0bd8 AFF30080 		.p2align 4,,15
 2471      AFF30080 
 2472              		.global	USB_GetMode
 2473              		.thumb
 2474              		.thumb_func
 2475              		.type	USB_GetMode, %function
 2476              	USB_GetMode:
 2477              	.LFB152:
 2478              		.loc 1 1034 0
 2479              		.cfi_startproc
 2480              		@ args = 0, pretend = 0, frame = 0
ARM GAS  /tmp/cclsZlw8.s 			page 45


 2481              		@ frame_needed = 0, uses_anonymous_args = 0
 2482              		@ link register save eliminated.
 2483              	.LVL212:
 2484              		.loc 1 1035 0
 2485 0be0 4069     		ldr	r0, [r0, #20]
 2486              	.LVL213:
 2487              		.loc 1 1036 0
 2488 0be2 00F00100 		and	r0, r0, #1
 2489 0be6 7047     		bx	lr
 2490              		.cfi_endproc
 2491              	.LFE152:
 2492              		.size	USB_GetMode, .-USB_GetMode
 2493              		.align	2
 2494 0be8 AFF30080 		.p2align 4,,15
 2494      AFF30080 
 2495              		.global	USB_ActivateSetup
 2496              		.thumb
 2497              		.thumb_func
 2498              		.type	USB_ActivateSetup, %function
 2499              	USB_ActivateSetup:
 2500              	.LFB153:
 2501              		.loc 1 1045 0
 2502              		.cfi_startproc
 2503              		@ args = 0, pretend = 0, frame = 0
 2504              		@ frame_needed = 0, uses_anonymous_args = 0
 2505              		@ link register save eliminated.
 2506              	.LVL214:
 2507              		.loc 1 1047 0
 2508 0bf0 D0F80039 		ldr	r3, [r0, #2304]
 2509 0bf4 23F4FF63 		bic	r3, r3, #2040
 2510 0bf8 23F00703 		bic	r3, r3, #7
 2511              		.loc 1 1049 0
 2512 0bfc 00F50062 		add	r2, r0, #2048
 2513              		.loc 1 1047 0
 2514 0c00 C0F80039 		str	r3, [r0, #2304]
 2515              		.loc 1 1049 0
 2516 0c04 9368     		ldr	r3, [r2, #8]
 2517 0c06 03F00603 		and	r3, r3, #6
 2518 0c0a 042B     		cmp	r3, #4
 2519 0c0c 05D1     		bne	.L257
 2520              		.loc 1 1051 0
 2521 0c0e D0F80039 		ldr	r3, [r0, #2304]
 2522 0c12 43F00303 		orr	r3, r3, #3
 2523 0c16 C0F80039 		str	r3, [r0, #2304]
 2524              	.L257:
 2525              		.loc 1 1053 0
 2526 0c1a 5368     		ldr	r3, [r2, #4]
 2527 0c1c 43F48073 		orr	r3, r3, #256
 2528 0c20 5360     		str	r3, [r2, #4]
 2529              		.loc 1 1056 0
 2530 0c22 0020     		movs	r0, #0
 2531              	.LVL215:
 2532 0c24 7047     		bx	lr
 2533              		.cfi_endproc
 2534              	.LFE153:
 2535              		.size	USB_ActivateSetup, .-USB_ActivateSetup
 2536 0c26 00BF     		.align	2
ARM GAS  /tmp/cclsZlw8.s 			page 46


 2537 0c28 AFF30080 		.p2align 4,,15
 2537      AFF30080 
 2538              		.global	USB_EP0_OutStart
 2539              		.thumb
 2540              		.thumb_func
 2541              		.type	USB_EP0_OutStart, %function
 2542              	USB_EP0_OutStart:
 2543              	.LFB154:
 2544              		.loc 1 1070 0
 2545              		.cfi_startproc
 2546              		@ args = 0, pretend = 0, frame = 0
 2547              		@ frame_needed = 0, uses_anonymous_args = 0
 2548              		@ link register save eliminated.
 2549              	.LVL216:
 2550 0c30 10B4     		push	{r4}
 2551              		.cfi_def_cfa_offset 4
 2552              		.cfi_offset 4, -4
 2553              		.loc 1 1071 0
 2554 0c32 0024     		movs	r4, #0
 2555 0c34 C0F8104B 		str	r4, [r0, #2832]
 2556              		.loc 1 1072 0
 2557 0c38 D0F8104B 		ldr	r4, [r0, #2832]
 2558 0c3c 44F40024 		orr	r4, r4, #524288
 2559 0c40 C0F8104B 		str	r4, [r0, #2832]
 2560              		.loc 1 1073 0
 2561 0c44 D0F8104B 		ldr	r4, [r0, #2832]
 2562 0c48 44F01804 		orr	r4, r4, #24
 2563 0c4c C0F8104B 		str	r4, [r0, #2832]
 2564              		.loc 1 1074 0
 2565 0c50 D0F8104B 		ldr	r4, [r0, #2832]
 2566              		.loc 1 1076 0
 2567 0c54 0129     		cmp	r1, #1
 2568              		.loc 1 1074 0
 2569 0c56 44F0C044 		orr	r4, r4, #1610612736
 2570 0c5a C0F8104B 		str	r4, [r0, #2832]
 2571              		.loc 1 1076 0
 2572 0c5e 05D1     		bne	.L259
 2573              		.loc 1 1080 0
 2574 0c60 4FF08021 		mov	r1, #-2147450880
 2575              	.LVL217:
 2576              		.loc 1 1078 0
 2577 0c64 C0F8142B 		str	r2, [r0, #2836]
 2578              		.loc 1 1080 0
 2579 0c68 C0F8001B 		str	r1, [r0, #2816]
 2580              	.L259:
 2581              		.loc 1 1084 0
 2582 0c6c 0020     		movs	r0, #0
 2583              	.LVL218:
 2584 0c6e 5DF8044B 		ldr	r4, [sp], #4
 2585              		.cfi_restore 4
 2586              		.cfi_def_cfa_offset 0
 2587 0c72 7047     		bx	lr
 2588              		.cfi_endproc
 2589              	.LFE154:
 2590              		.size	USB_EP0_OutStart, .-USB_EP0_OutStart
 2591              		.align	2
 2592 0c74 AFF30080 		.p2align 4,,15
ARM GAS  /tmp/cclsZlw8.s 			page 47


 2592      AFF30080 
 2592      AFF30080 
 2593              		.global	USB_InitFSLSPClkSel
 2594              		.thumb
 2595              		.thumb_func
 2596              		.type	USB_InitFSLSPClkSel, %function
 2597              	USB_InitFSLSPClkSel:
 2598              	.LFB157:
 2599              		.loc 1 1223 0
 2600              		.cfi_startproc
 2601              		@ args = 0, pretend = 0, frame = 0
 2602              		@ frame_needed = 0, uses_anonymous_args = 0
 2603              		@ link register save eliminated.
 2604              	.LVL219:
 2605              		.loc 1 1224 0
 2606 0c80 D0F80034 		ldr	r3, [r0, #1024]
 2607 0c84 23F00303 		bic	r3, r3, #3
 2608 0c88 C0F80034 		str	r3, [r0, #1024]
 2609              		.loc 1 1225 0
 2610 0c8c D0F80034 		ldr	r3, [r0, #1024]
 2611 0c90 01F00302 		and	r2, r1, #3
 2612 0c94 1343     		orrs	r3, r3, r2
 2613              		.loc 1 1227 0
 2614 0c96 0129     		cmp	r1, #1
 2615              		.loc 1 1225 0
 2616 0c98 C0F80034 		str	r3, [r0, #1024]
 2617              		.loc 1 1224 0
 2618 0c9c 00F58060 		add	r0, r0, #1024
 2619              	.LVL220:
 2620              		.loc 1 1227 0
 2621 0ca0 06D0     		beq	.L264
 2622              		.loc 1 1231 0
 2623 0ca2 0229     		cmp	r1, #2
 2624              		.loc 1 1233 0
 2625 0ca4 04BF     		itt	eq
 2626 0ca6 41F27073 		movweq	r3, #6000
 2627 0caa 4360     		streq	r3, [r0, #4]
 2628              		.loc 1 1236 0
 2629 0cac 0020     		movs	r0, #0
 2630              	.LVL221:
 2631 0cae 7047     		bx	lr
 2632              	.L264:
 2633              		.loc 1 1229 0
 2634 0cb0 4BF68033 		movw	r3, #48000
 2635 0cb4 4360     		str	r3, [r0, #4]
 2636              		.loc 1 1236 0
 2637 0cb6 0020     		movs	r0, #0
 2638 0cb8 7047     		bx	lr
 2639              		.cfi_endproc
 2640              	.LFE157:
 2641              		.size	USB_InitFSLSPClkSel, .-USB_InitFSLSPClkSel
 2642 0cba 00BF     		.align	2
 2643 0cbc AFF30080 		.p2align 4,,15
 2644              		.global	USB_ResetPort
 2645              		.thumb
 2646              		.thumb_func
 2647              		.type	USB_ResetPort, %function
ARM GAS  /tmp/cclsZlw8.s 			page 48


 2648              	USB_ResetPort:
 2649              	.LFB158:
 2650              		.loc 1 1246 0
 2651              		.cfi_startproc
 2652              		@ args = 0, pretend = 0, frame = 8
 2653              		@ frame_needed = 0, uses_anonymous_args = 0
 2654              	.LVL222:
 2655 0cc0 10B5     		push	{r4, lr}
 2656              		.cfi_def_cfa_offset 8
 2657              		.cfi_offset 4, -8
 2658              		.cfi_offset 14, -4
 2659 0cc2 0446     		mov	r4, r0
 2660 0cc4 82B0     		sub	sp, sp, #8
 2661              		.cfi_def_cfa_offset 16
 2662              		.loc 1 1249 0
 2663 0cc6 D4F84034 		ldr	r3, [r4, #1088]
 2664 0cca 0193     		str	r3, [sp, #4]
 2665              		.loc 1 1251 0
 2666 0ccc 019B     		ldr	r3, [sp, #4]
 2667 0cce 23F02E03 		bic	r3, r3, #46
 2668 0cd2 0193     		str	r3, [sp, #4]
 2669              		.loc 1 1254 0
 2670 0cd4 019B     		ldr	r3, [sp, #4]
 2671 0cd6 43F48073 		orr	r3, r3, #256
 2672 0cda C4F84034 		str	r3, [r4, #1088]
 2673              		.loc 1 1255 0
 2674 0cde 0A20     		movs	r0, #10
 2675              	.LVL223:
 2676 0ce0 FFF7FEFF 		bl	HAL_Delay
 2677              	.LVL224:
 2678              		.loc 1 1256 0
 2679 0ce4 019B     		ldr	r3, [sp, #4]
 2680              		.loc 1 1258 0
 2681 0ce6 0020     		movs	r0, #0
 2682              		.loc 1 1256 0
 2683 0ce8 23F48073 		bic	r3, r3, #256
 2684 0cec C4F84034 		str	r3, [r4, #1088]
 2685              		.loc 1 1258 0
 2686 0cf0 02B0     		add	sp, sp, #8
 2687              		.cfi_def_cfa_offset 8
 2688              		@ sp needed
 2689 0cf2 10BD     		pop	{r4, pc}
 2690              		.cfi_endproc
 2691              	.LFE158:
 2692              		.size	USB_ResetPort, .-USB_ResetPort
 2693              		.align	2
 2694 0cf4 AFF30080 		.p2align 4,,15
 2694      AFF30080 
 2694      AFF30080 
 2695              		.global	USB_DriveVbus
 2696              		.thumb
 2697              		.thumb_func
 2698              		.type	USB_DriveVbus, %function
 2699              	USB_DriveVbus:
 2700              	.LFB159:
 2701              		.loc 1 1269 0
 2702              		.cfi_startproc
ARM GAS  /tmp/cclsZlw8.s 			page 49


 2703              		@ args = 0, pretend = 0, frame = 8
 2704              		@ frame_needed = 0, uses_anonymous_args = 0
 2705              		@ link register save eliminated.
 2706              	.LVL225:
 2707 0d00 82B0     		sub	sp, sp, #8
 2708              		.cfi_def_cfa_offset 8
 2709              		.loc 1 1272 0
 2710 0d02 D0F84034 		ldr	r3, [r0, #1088]
 2711 0d06 0193     		str	r3, [sp, #4]
 2712              		.loc 1 1273 0
 2713 0d08 019B     		ldr	r3, [sp, #4]
 2714 0d0a 23F02E03 		bic	r3, r3, #46
 2715 0d0e 0193     		str	r3, [sp, #4]
 2716              		.loc 1 1276 0
 2717 0d10 019B     		ldr	r3, [sp, #4]
 2718 0d12 13F4805F 		tst	r3, #4096
 2719              		.loc 1 1278 0
 2720 0d16 019B     		ldr	r3, [sp, #4]
 2721              		.loc 1 1276 0
 2722 0d18 01D1     		bne	.L268
 2723              		.loc 1 1276 0 is_stmt 0 discriminator 1
 2724 0d1a 0129     		cmp	r1, #1
 2725 0d1c 0AD0     		beq	.L274
 2726              	.L268:
 2727              		.loc 1 1280 0 is_stmt 1
 2728 0d1e DB04     		lsls	r3, r3, #19
 2729 0d20 05D5     		bpl	.L269
 2730              		.loc 1 1280 0 is_stmt 0 discriminator 1
 2731 0d22 21B9     		cbnz	r1, .L269
 2732              		.loc 1 1282 0 is_stmt 1
 2733 0d24 019B     		ldr	r3, [sp, #4]
 2734 0d26 23F48053 		bic	r3, r3, #4096
 2735 0d2a C0F84034 		str	r3, [r0, #1088]
 2736              	.L269:
 2737              		.loc 1 1285 0
 2738 0d2e 0020     		movs	r0, #0
 2739              	.LVL226:
 2740 0d30 02B0     		add	sp, sp, #8
 2741              		.cfi_remember_state
 2742              		.cfi_def_cfa_offset 0
 2743              		@ sp needed
 2744 0d32 7047     		bx	lr
 2745              	.LVL227:
 2746              	.L274:
 2747              		.cfi_restore_state
 2748              		.loc 1 1278 0
 2749 0d34 43F48053 		orr	r3, r3, #4096
 2750 0d38 C0F84034 		str	r3, [r0, #1088]
 2751              		.loc 1 1280 0
 2752 0d3c 019B     		ldr	r3, [sp, #4]
 2753              		.loc 1 1285 0
 2754 0d3e 0020     		movs	r0, #0
 2755              	.LVL228:
 2756 0d40 02B0     		add	sp, sp, #8
 2757              		.cfi_def_cfa_offset 0
 2758              		@ sp needed
 2759 0d42 7047     		bx	lr
ARM GAS  /tmp/cclsZlw8.s 			page 50


 2760              		.cfi_endproc
 2761              	.LFE159:
 2762              		.size	USB_DriveVbus, .-USB_DriveVbus
 2763              		.align	2
 2764 0d44 AFF30080 		.p2align 4,,15
 2764      AFF30080 
 2764      AFF30080 
 2765              		.global	USB_HostInit
 2766              		.thumb
 2767              		.thumb_func
 2768              		.type	USB_HostInit, %function
 2769              	USB_HostInit:
 2770              	.LFB156:
 2771              		.loc 1 1132 0
 2772              		.cfi_startproc
 2773              		@ args = 52, pretend = 16, frame = 0
 2774              		@ frame_needed = 0, uses_anonymous_args = 0
 2775              	.LVL229:
 2776 0d50 84B0     		sub	sp, sp, #16
 2777              		.cfi_def_cfa_offset 16
 2778 0d52 38B5     		push	{r3, r4, r5, lr}
 2779              		.cfi_def_cfa_offset 32
 2780              		.cfi_offset 3, -32
 2781              		.cfi_offset 4, -28
 2782              		.cfi_offset 5, -24
 2783              		.cfi_offset 14, -20
 2784              		.loc 1 1132 0
 2785 0d54 0446     		mov	r4, r0
 2786              		.loc 1 1136 0
 2787 0d56 0020     		movs	r0, #0
 2788              	.LVL230:
 2789 0d58 C4F8000E 		str	r0, [r4, #3584]
 2790              		.loc 1 1142 0
 2791 0d5c A06B     		ldr	r0, [r4, #56]
 2792 0d5e 20F48020 		bic	r0, r0, #262144
 2793 0d62 A063     		str	r0, [r4, #56]
 2794              		.loc 1 1143 0
 2795 0d64 A06B     		ldr	r0, [r4, #56]
 2796              		.loc 1 1132 0
 2797 0d66 05AD     		add	r5, sp, #20
 2798 0d68 85E80E00 		stmia	r5, {r1, r2, r3}
 2799              		.loc 1 1143 0
 2800 0d6c 20F40020 		bic	r0, r0, #524288
 2801 0d70 A063     		str	r0, [r4, #56]
 2802              		.loc 1 1144 0
 2803 0d72 A36B     		ldr	r3, [r4, #56]
 2804              		.loc 1 1148 0
 2805 0d74 079A     		ldr	r2, [sp, #28]
 2806 0d76 0699     		ldr	r1, [sp, #24]
 2807              	.LVL231:
 2808              		.loc 1 1144 0
 2809 0d78 43F40013 		orr	r3, r3, #2097152
 2810 0d7c A363     		str	r3, [r4, #56]
 2811              		.loc 1 1148 0
 2812 0d7e 032A     		cmp	r2, #3
 2813              		.loc 1 1151 0
 2814 0d80 D4F80034 		ldr	r3, [r4, #1024]
ARM GAS  /tmp/cclsZlw8.s 			page 51


 2815              		.loc 1 1148 0
 2816 0d84 4AD0     		beq	.L306
 2817              	.L276:
 2818              		.loc 1 1155 0
 2819 0d86 23F00403 		bic	r3, r3, #4
 2820 0d8a C4F80034 		str	r3, [r4, #1024]
 2821              	.L277:
 2822              	.LVL232:
 2823              	.LBB58:
 2824              	.LBB59:
 2825              		.loc 1 347 0
 2826 0d8e 4FF40873 		mov	r3, #544
 2827 0d92 2361     		str	r3, [r4, #16]
 2828              	.LVL233:
 2829 0d94 294B     		ldr	r3, .L308
 2830 0d96 01E0     		b	.L278
 2831              	.LVL234:
 2832              	.L280:
 2833              		.loc 1 351 0
 2834 0d98 013B     		subs	r3, r3, #1
 2835              	.LVL235:
 2836 0d9a 02D0     		beq	.L279
 2837              	.LVL236:
 2838              	.L278:
 2839              		.loc 1 356 0
 2840 0d9c 2269     		ldr	r2, [r4, #16]
 2841 0d9e 9006     		lsls	r0, r2, #26
 2842 0da0 FAD4     		bmi	.L280
 2843              	.LVL237:
 2844              	.L279:
 2845              	.LBE59:
 2846              	.LBE58:
 2847              	.LBB60:
 2848              	.LBB61:
 2849              		.loc 1 371 0
 2850 0da2 1023     		movs	r3, #16
 2851 0da4 2361     		str	r3, [r4, #16]
 2852              	.LVL238:
 2853 0da6 254B     		ldr	r3, .L308
 2854 0da8 01E0     		b	.L281
 2855              	.LVL239:
 2856              	.L283:
 2857              		.loc 1 375 0
 2858 0daa 013B     		subs	r3, r3, #1
 2859              	.LVL240:
 2860 0dac 02D0     		beq	.L282
 2861              	.LVL241:
 2862              	.L281:
 2863              		.loc 1 380 0
 2864 0dae 2269     		ldr	r2, [r4, #16]
 2865 0db0 D206     		lsls	r2, r2, #27
 2866 0db2 FAD4     		bmi	.L283
 2867              	.LVL242:
 2868              	.L282:
 2869              	.LBE61:
 2870              	.LBE60:
 2871              		.loc 1 1163 0 discriminator 1
ARM GAS  /tmp/cclsZlw8.s 			page 52


 2872 0db4 61B1     		cbz	r1, .L288
 2873              		.loc 1 1163 0 is_stmt 0
 2874 0db6 0022     		movs	r2, #0
 2875              		.loc 1 1166 0 is_stmt 1
 2876 0db8 1546     		mov	r5, r2
 2877 0dba 04F5A063 		add	r3, r4, #1280
 2878              		.loc 1 1165 0
 2879 0dbe 4FF0FF30 		mov	r0, #-1
 2880              	.LVL243:
 2881              	.L287:
 2882              		.loc 1 1163 0 discriminator 3
 2883 0dc2 0132     		adds	r2, r2, #1
 2884              	.LVL244:
 2885 0dc4 8A42     		cmp	r2, r1
 2886              		.loc 1 1165 0 discriminator 3
 2887 0dc6 9860     		str	r0, [r3, #8]
 2888              		.loc 1 1166 0 discriminator 3
 2889 0dc8 DD60     		str	r5, [r3, #12]
 2890 0dca 03F12003 		add	r3, r3, #32
 2891              		.loc 1 1163 0 discriminator 3
 2892 0dce F8D1     		bne	.L287
 2893              	.LVL245:
 2894              	.L288:
 2895              		.loc 1 1170 0
 2896 0dd0 0121     		movs	r1, #1
 2897              	.LVL246:
 2898 0dd2 2046     		mov	r0, r4
 2899 0dd4 FFF7FEFF 		bl	USB_DriveVbus
 2900              	.LVL247:
 2901              		.loc 1 1172 0
 2902 0dd8 C820     		movs	r0, #200
 2903 0dda FFF7FEFF 		bl	HAL_Delay
 2904              	.LVL248:
 2905              		.loc 1 1175 0
 2906 0dde 0022     		movs	r2, #0
 2907              		.loc 1 1178 0
 2908 0de0 4FF0FF33 		mov	r3, #-1
 2909              		.loc 1 1181 0
 2910 0de4 B4F1A04F 		cmp	r4, #1342177280
 2911              		.loc 1 1175 0
 2912 0de8 A261     		str	r2, [r4, #24]
 2913              		.loc 1 1178 0
 2914 0dea 6361     		str	r3, [r4, #20]
 2915              		.loc 1 1181 0
 2916 0dec 1ED0     		beq	.L307
 2917              		.loc 1 1193 0
 2918 0dee 4FF40071 		mov	r1, #512
 2919              		.loc 1 1194 0
 2920 0df2 134A     		ldr	r2, .L308+4
 2921              		.loc 1 1195 0
 2922 0df4 134B     		ldr	r3, .L308+8
 2923              		.loc 1 1193 0
 2924 0df6 6162     		str	r1, [r4, #36]
 2925              		.loc 1 1194 0
 2926 0df8 A262     		str	r2, [r4, #40]
 2927              		.loc 1 1195 0
 2928 0dfa C4F80031 		str	r3, [r4, #256]
ARM GAS  /tmp/cclsZlw8.s 			page 53


 2929              	.L289:
 2930              		.loc 1 1199 0
 2931 0dfe 089B     		ldr	r3, [sp, #32]
 2932 0e00 1BB9     		cbnz	r3, .L290
 2933              		.loc 1 1201 0
 2934 0e02 A369     		ldr	r3, [r4, #24]
 2935 0e04 43F01003 		orr	r3, r3, #16
 2936 0e08 A361     		str	r3, [r4, #24]
 2937              	.L290:
 2938              		.loc 1 1205 0
 2939 0e0a A269     		ldr	r2, [r4, #24]
 2940 0e0c 0E4B     		ldr	r3, .L308+12
 2941 0e0e 1343     		orrs	r3, r3, r2
 2942 0e10 A361     		str	r3, [r4, #24]
 2943              		.loc 1 1210 0
 2944 0e12 BDE83840 		pop	{r3, r4, r5, lr}
 2945              		.cfi_remember_state
 2946              		.cfi_restore 14
 2947              		.cfi_restore 5
 2948              		.cfi_restore 4
 2949              		.cfi_restore 3
 2950              		.cfi_def_cfa_offset 16
 2951              	.LVL249:
 2952 0e16 0020     		movs	r0, #0
 2953 0e18 04B0     		add	sp, sp, #16
 2954              		.cfi_def_cfa_offset 0
 2955 0e1a 7047     		bx	lr
 2956              	.LVL250:
 2957              	.L306:
 2958              		.cfi_restore_state
 2959              		.loc 1 1148 0 discriminator 1
 2960 0e1c B4F1A04F 		cmp	r4, #1342177280
 2961 0e20 B1D0     		beq	.L276
 2962              		.loc 1 1151 0
 2963 0e22 43F00403 		orr	r3, r3, #4
 2964 0e26 C4F80034 		str	r3, [r4, #1024]
 2965 0e2a B0E7     		b	.L277
 2966              	.LVL251:
 2967              	.L307:
 2968              		.loc 1 1184 0
 2969 0e2c 8021     		movs	r1, #128
 2970              		.loc 1 1185 0
 2971 0e2e 074A     		ldr	r2, .L308+16
 2972              		.loc 1 1186 0
 2973 0e30 074B     		ldr	r3, .L308+20
 2974              		.loc 1 1184 0
 2975 0e32 6162     		str	r1, [r4, #36]
 2976              		.loc 1 1185 0
 2977 0e34 A262     		str	r2, [r4, #40]
 2978              		.loc 1 1186 0
 2979 0e36 C4F80031 		str	r3, [r4, #256]
 2980 0e3a E0E7     		b	.L289
 2981              	.L309:
 2982              		.align	2
 2983              	.L308:
 2984 0e3c 400D0300 		.word	200000
 2985 0e40 00020001 		.word	16777728
ARM GAS  /tmp/cclsZlw8.s 			page 54


 2986 0e44 0003E000 		.word	14680832
 2987 0e48 080020A3 		.word	-1558183928
 2988 0e4c 80006000 		.word	6291584
 2989 0e50 E0004000 		.word	4194528
 2990              		.cfi_endproc
 2991              	.LFE156:
 2992              		.size	USB_HostInit, .-USB_HostInit
 2993              		.align	2
 2994 0e54 AFF30080 		.p2align 4,,15
 2994      AFF30080 
 2994      AFF30080 
 2995              		.global	USB_GetHostSpeed
 2996              		.thumb
 2997              		.thumb_func
 2998              		.type	USB_GetHostSpeed, %function
 2999              	USB_GetHostSpeed:
 3000              	.LFB160:
 3001              		.loc 1 1297 0
 3002              		.cfi_startproc
 3003              		@ args = 0, pretend = 0, frame = 8
 3004              		@ frame_needed = 0, uses_anonymous_args = 0
 3005              		@ link register save eliminated.
 3006              	.LVL252:
 3007 0e60 82B0     		sub	sp, sp, #8
 3008              		.cfi_def_cfa_offset 8
 3009              		.loc 1 1300 0
 3010 0e62 D0F84034 		ldr	r3, [r0, #1088]
 3011 0e66 0193     		str	r3, [sp, #4]
 3012              		.loc 1 1301 0
 3013 0e68 0198     		ldr	r0, [sp, #4]
 3014              	.LVL253:
 3015              		.loc 1 1302 0
 3016 0e6a C0F34140 		ubfx	r0, r0, #17, #2
 3017 0e6e 02B0     		add	sp, sp, #8
 3018              		.cfi_def_cfa_offset 0
 3019              		@ sp needed
 3020 0e70 7047     		bx	lr
 3021              		.cfi_endproc
 3022              	.LFE160:
 3023              		.size	USB_GetHostSpeed, .-USB_GetHostSpeed
 3024 0e72 00BF     		.align	2
 3025 0e74 AFF30080 		.p2align 4,,15
 3025      AFF30080 
 3025      AFF30080 
 3026              		.global	USB_GetCurrentFrame
 3027              		.thumb
 3028              		.thumb_func
 3029              		.type	USB_GetCurrentFrame, %function
 3030              	USB_GetCurrentFrame:
 3031              	.LFB161:
 3032              		.loc 1 1310 0
 3033              		.cfi_startproc
 3034              		@ args = 0, pretend = 0, frame = 0
 3035              		@ frame_needed = 0, uses_anonymous_args = 0
 3036              		@ link register save eliminated.
 3037              	.LVL254:
 3038              		.loc 1 1311 0
ARM GAS  /tmp/cclsZlw8.s 			page 55


 3039 0e80 00F58060 		add	r0, r0, #1024
 3040              	.LVL255:
 3041 0e84 8068     		ldr	r0, [r0, #8]
 3042              	.LVL256:
 3043              		.loc 1 1312 0
 3044 0e86 80B2     		uxth	r0, r0
 3045 0e88 7047     		bx	lr
 3046              		.cfi_endproc
 3047              	.LFE161:
 3048              		.size	USB_GetCurrentFrame, .-USB_GetCurrentFrame
 3049 0e8a 00BF     		.align	2
 3050 0e8c AFF30080 		.p2align 4,,15
 3051              		.global	USB_HC_Init
 3052              		.thumb
 3053              		.thumb_func
 3054              		.type	USB_HC_Init, %function
 3055              	USB_HC_Init:
 3056              	.LFB162:
 3057              		.loc 1 1345 0
 3058              		.cfi_startproc
 3059              		@ args = 12, pretend = 0, frame = 0
 3060              		@ frame_needed = 0, uses_anonymous_args = 0
 3061              	.LVL257:
 3062 0e90 2DE9F043 		push	{r4, r5, r6, r7, r8, r9, lr}
 3063              		.cfi_def_cfa_offset 28
 3064              		.cfi_offset 4, -28
 3065              		.cfi_offset 5, -24
 3066              		.cfi_offset 6, -20
 3067              		.cfi_offset 7, -16
 3068              		.cfi_offset 8, -12
 3069              		.cfi_offset 9, -8
 3070              		.cfi_offset 14, -4
 3071 0e94 00F5A064 		add	r4, r0, #1280
 3072              		.loc 1 1348 0
 3073 0e98 04EB4114 		add	r4, r4, r1, lsl #5
 3074              		.loc 1 1345 0
 3075 0e9c 9DF82060 		ldrb	r6, [sp, #32]	@ zero_extendqisi2
 3076 0ea0 9DF81C70 		ldrb	r7, [sp, #28]	@ zero_extendqisi2
 3077 0ea4 BDF82450 		ldrh	r5, [sp, #36]
 3078              		.loc 1 1348 0
 3079 0ea8 4FF0FF3E 		mov	lr, #-1
 3080 0eac C4F808E0 		str	lr, [r4, #8]
 3081              		.loc 1 1351 0
 3082 0eb0 032E     		cmp	r6, #3
 3083 0eb2 78D8     		bhi	.L314
 3084 0eb4 DFE806F0 		tbb	[pc, r6]
 3085              	.L316:
 3086 0eb8 57       		.byte	(.L315-.L316)/2
 3087 0eb9 67       		.byte	(.L317-.L316)/2
 3088 0eba 44       		.byte	(.L318-.L316)/2
 3089 0ebb 02       		.byte	(.L319-.L316)/2
 3090              		.p2align 1
 3091              	.L319:
 3092              		.loc 1 1411 0
 3093 0ebc 4FFA82FC 		sxtb	ip, r2
 3094              		.loc 1 1403 0
 3095 0ec0 40F29D6E 		movw	lr, #1693
ARM GAS  /tmp/cclsZlw8.s 			page 56


 3096              		.loc 1 1411 0
 3097 0ec4 BCF1000F 		cmp	ip, #0
 3098              		.loc 1 1403 0
 3099 0ec8 C4F80CE0 		str	lr, [r4, #12]
 3100              		.loc 1 1411 0
 3101 0ecc 54DB     		blt	.L337
 3102              	.LVL258:
 3103              	.L320:
 3104              		.loc 1 1432 0
 3105 0ece D0F81884 		ldr	r8, [r0, #1048]
 3106              		.loc 1 1438 0
 3107 0ed2 9B05     		lsls	r3, r3, #22
 3108              	.LVL259:
 3109              		.loc 1 1432 0
 3110 0ed4 4FF00109 		mov	r9, #1
 3111              		.loc 1 1438 0
 3112 0ed8 03F0FE53 		and	r3, r3, #532676608
 3113              		.loc 1 1439 0
 3114 0edc D202     		lsls	r2, r2, #11
 3115              	.LVL260:
 3116              		.loc 1 1443 0
 3117 0ede C5F30A05 		ubfx	r5, r5, #0, #11
 3118              		.loc 1 1432 0
 3119 0ee2 09FA01F9 		lsl	r9, r9, r1
 3120              		.loc 1 1439 0
 3121 0ee6 02F4F041 		and	r1, r2, #30720
 3122              	.LVL261:
 3123 0eea 43EA0502 		orr	r2, r3, r5
 3124              		.loc 1 1442 0
 3125 0eee B304     		lsls	r3, r6, #18
 3126              		.loc 1 1432 0
 3127 0ef0 49EA0805 		orr	r5, r9, r8
 3128              		.loc 1 1442 0
 3129 0ef4 03F44023 		and	r3, r3, #786432
 3130              		.loc 1 1440 0
 3131 0ef8 BCF1000F 		cmp	ip, #0
 3132              		.loc 1 1432 0
 3133 0efc C0F81854 		str	r5, [r0, #1048]
 3134 0f00 42EA0102 		orr	r2, r2, r1
 3135 0f04 42EA0302 		orr	r2, r2, r3
 3136              		.loc 1 1435 0
 3137 0f08 8169     		ldr	r1, [r0, #24]
 3138              		.loc 1 1440 0
 3139 0f0a B4BF     		ite	lt
 3140 0f0c 4FF40043 		movlt	r3, #32768
 3141 0f10 0023     		movge	r3, #0
 3142              		.loc 1 1441 0
 3143 0f12 022F     		cmp	r7, #2
 3144 0f14 42EA0302 		orr	r2, r2, r3
 3145 0f18 0CBF     		ite	eq
 3146 0f1a 4FF40033 		moveq	r3, #131072
 3147 0f1e 0023     		movne	r3, #0
 3148              		.loc 1 1442 0
 3149 0f20 1A43     		orrs	r2, r2, r3
 3150              		.loc 1 1445 0
 3151 0f22 032E     		cmp	r6, #3
 3152              		.loc 1 1435 0
ARM GAS  /tmp/cclsZlw8.s 			page 57


 3153 0f24 41F00073 		orr	r3, r1, #33554432
 3154 0f28 8361     		str	r3, [r0, #24]
 3155              		.loc 1 1432 0
 3156 0f2a 00F5806E 		add	lr, r0, #1024
 3157              		.loc 1 1438 0
 3158 0f2e 2260     		str	r2, [r4]
 3159              		.loc 1 1445 0
 3160 0f30 03D1     		bne	.L325
 3161              		.loc 1 1447 0
 3162 0f32 2368     		ldr	r3, [r4]
 3163 0f34 43F00053 		orr	r3, r3, #536870912
 3164 0f38 2360     		str	r3, [r4]
 3165              	.L325:
 3166              		.loc 1 1451 0
 3167 0f3a 0020     		movs	r0, #0
 3168              	.LVL262:
 3169 0f3c BDE8F083 		pop	{r4, r5, r6, r7, r8, r9, pc}
 3170              	.LVL263:
 3171              	.L318:
 3172              		.loc 1 1389 0
 3173 0f40 4FFA82FC 		sxtb	ip, r2
 3174              		.loc 1 1382 0
 3175 0f44 40F28D4E 		movw	lr, #1165
 3176              		.loc 1 1389 0
 3177 0f48 BCF1000F 		cmp	ip, #0
 3178              		.loc 1 1382 0
 3179 0f4c C4F80CE0 		str	lr, [r4, #12]
 3180              	.LVL264:
 3181              		.loc 1 1389 0
 3182 0f50 12DB     		blt	.L337
 3183              	.L322:
 3184              		.loc 1 1395 0
 3185 0f52 B0F1A04F 		cmp	r0, #1342177280
 3186 0f56 BAD0     		beq	.L320
 3187              		.loc 1 1397 0
 3188 0f58 D4F80CE0 		ldr	lr, [r4, #12]
 3189 0f5c 4EF0600E 		orr	lr, lr, #96
 3190 0f60 C4F80CE0 		str	lr, [r4, #12]
 3191 0f64 B3E7     		b	.L320
 3192              	.LVL265:
 3193              	.L315:
 3194              		.loc 1 1360 0
 3195 0f66 4FFA82FC 		sxtb	ip, r2
 3196              		.loc 1 1354 0
 3197 0f6a 40F29D4E 		movw	lr, #1181
 3198              		.loc 1 1360 0
 3199 0f6e BCF1000F 		cmp	ip, #0
 3200              		.loc 1 1354 0
 3201 0f72 C4F80CE0 		str	lr, [r4, #12]
 3202              	.LVL266:
 3203              		.loc 1 1360 0
 3204 0f76 ECDA     		bge	.L322
 3205              	.L337:
 3206              		.loc 1 1413 0
 3207 0f78 D4F80CE0 		ldr	lr, [r4, #12]
 3208 0f7c 4EF4807E 		orr	lr, lr, #256
 3209 0f80 C4F80CE0 		str	lr, [r4, #12]
ARM GAS  /tmp/cclsZlw8.s 			page 58


 3210 0f84 A3E7     		b	.L320
 3211              	.LVL267:
 3212              	.L317:
 3213              		.loc 1 1424 0
 3214 0f86 4FFA82FC 		sxtb	ip, r2
 3215              		.loc 1 1419 0
 3216 0f8a 40F2252E 		movw	lr, #549
 3217              		.loc 1 1424 0
 3218 0f8e BCF1000F 		cmp	ip, #0
 3219              		.loc 1 1419 0
 3220 0f92 C4F80CE0 		str	lr, [r4, #12]
 3221              		.loc 1 1424 0
 3222 0f96 9ADA     		bge	.L320
 3223              		.loc 1 1426 0
 3224 0f98 D4F80CE0 		ldr	lr, [r4, #12]
 3225 0f9c 4EF4C07E 		orr	lr, lr, #384
 3226 0fa0 C4F80CE0 		str	lr, [r4, #12]
 3227              	.LVL268:
 3228 0fa4 93E7     		b	.L320
 3229              	.LVL269:
 3230              	.L314:
 3231 0fa6 4FFA82FC 		sxtb	ip, r2
 3232 0faa 90E7     		b	.L320
 3233              		.cfi_endproc
 3234              	.LFE162:
 3235              		.size	USB_HC_Init, .-USB_HC_Init
 3236              		.align	2
 3237 0fac AFF30080 		.p2align 4,,-1
 3238              		.global	USB_HC_StartXfer
 3239              		.thumb
 3240              		.thumb_func
 3241              		.type	USB_HC_StartXfer, %function
 3242              	USB_HC_StartXfer:
 3243              	.LFB163:
 3244              		.loc 1 1469 0
 3245              		.cfi_startproc
 3246              		@ args = 0, pretend = 0, frame = 0
 3247              		@ frame_needed = 0, uses_anonymous_args = 0
 3248              	.LVL270:
 3249              		.loc 1 1475 0
 3250 0fb0 B0F1A04F 		cmp	r0, #1342177280
 3251              		.loc 1 1469 0
 3252 0fb4 F8B5     		push	{r3, r4, r5, r6, r7, lr}
 3253              		.cfi_def_cfa_offset 24
 3254              		.cfi_offset 3, -24
 3255              		.cfi_offset 4, -20
 3256              		.cfi_offset 5, -16
 3257              		.cfi_offset 6, -12
 3258              		.cfi_offset 7, -8
 3259              		.cfi_offset 14, -4
 3260              		.loc 1 1475 0
 3261 0fb6 08D0     		beq	.L341
 3262              		.loc 1 1475 0 is_stmt 0 discriminator 1
 3263 0fb8 0B79     		ldrb	r3, [r1, #4]	@ zero_extendqisi2
 3264 0fba 33B9     		cbnz	r3, .L341
 3265              		.loc 1 1477 0 is_stmt 1
 3266 0fbc 002A     		cmp	r2, #0
ARM GAS  /tmp/cclsZlw8.s 			page 59


 3267 0fbe 40F08B80 		bne	.L343
 3268              		.loc 1 1477 0 is_stmt 0 discriminator 1
 3269 0fc2 4B79     		ldrb	r3, [r1, #5]	@ zero_extendqisi2
 3270 0fc4 012B     		cmp	r3, #1
 3271 0fc6 00F0A580 		beq	.L362
 3272              	.L341:
 3273              		.loc 1 1490 0 is_stmt 1
 3274 0fca 0B69     		ldr	r3, [r1, #16]
 3275 0fcc 002B     		cmp	r3, #0
 3276 0fce 54D1     		bne	.L363
 3277              	.L354:
 3278 0fd0 4FF40026 		mov	r6, #524288
 3279 0fd4 0123     		movs	r3, #1
 3280              	.LVL271:
 3281              	.L345:
 3282              		.loc 1 1504 0
 3283 0fd6 CC78     		ldrb	r4, [r1, #3]	@ zero_extendqisi2
 3284 0fd8 002C     		cmp	r4, #0
 3285 0fda 5DD1     		bne	.L347
 3286              	.L364:
 3287 0fdc 0B69     		ldr	r3, [r1, #16]
 3288              	.L348:
 3289              		.loc 1 1514 0
 3290 0fde 8C7A     		ldrb	r4, [r1, #10]	@ zero_extendqisi2
 3291              		.loc 1 1512 0
 3292 0fe0 4D78     		ldrb	r5, [r1, #1]	@ zero_extendqisi2
 3293              		.loc 1 1514 0
 3294 0fe2 6407     		lsls	r4, r4, #29
 3295              		.loc 1 1512 0
 3296 0fe4 2027     		movs	r7, #32
 3297 0fe6 4FF4A06E 		mov	lr, #1280
 3298              		.loc 1 1514 0
 3299 0fea 04F0C044 		and	r4, r4, #1610612736
 3300 0fee 17FB05E5 		smlabb	r5, r7, r5, lr
 3301 0ff2 3443     		orrs	r4, r4, r6
 3302              		.loc 1 1512 0
 3303 0ff4 0544     		add	r5, r5, r0
 3304 0ff6 C3F31206 		ubfx	r6, r3, #0, #19
 3305              		.loc 1 1513 0
 3306 0ffa 3443     		orrs	r4, r4, r6
 3307              		.loc 1 1512 0
 3308 0ffc 2C61     		str	r4, [r5, #16]
 3309              		.loc 1 1516 0
 3310 0ffe 2AB1     		cbz	r2, .L349
 3311              		.loc 1 1519 0
 3312 1000 4D78     		ldrb	r5, [r1, #1]	@ zero_extendqisi2
 3313 1002 CC68     		ldr	r4, [r1, #12]
 3314 1004 17FB05E7 		smlabb	r7, r7, r5, lr
 3315 1008 0744     		add	r7, r7, r0
 3316 100a 7C61     		str	r4, [r7, #20]
 3317              	.L349:
 3318              		.loc 1 1523 0
 3319 100c 4F78     		ldrb	r7, [r1, #1]	@ zero_extendqisi2
 3320              		.loc 1 1522 0
 3321 100e D0F80854 		ldr	r5, [r0, #1032]
 3322              	.LVL272:
 3323              		.loc 1 1523 0
ARM GAS  /tmp/cclsZlw8.s 			page 60


 3324 1012 2024     		movs	r4, #32
 3325 1014 4FF4A066 		mov	r6, #1280
 3326 1018 14FB0767 		smlabb	r7, r4, r7, r6
 3327              		.loc 1 1522 0
 3328 101c 00F5806E 		add	lr, r0, #1024
 3329              		.loc 1 1523 0
 3330 1020 50F807C0 		ldr	ip, [r0, r7]
 3331 1024 2CF0005C 		bic	ip, ip, #536870912
 3332 1028 40F807C0 		str	ip, [r0, r7]
 3333              		.loc 1 1524 0
 3334 102c 4F78     		ldrb	r7, [r1, #1]	@ zero_extendqisi2
 3335 102e 14FB0767 		smlabb	r7, r4, r7, r6
 3336              		.loc 1 1522 0
 3337 1032 05F00105 		and	r5, r5, #1
 3338              	.LVL273:
 3339              		.loc 1 1524 0
 3340 1036 50F807C0 		ldr	ip, [r0, r7]
 3341 103a 85F00105 		eor	r5, r5, #1
 3342 103e 4CEA4575 		orr	r5, ip, r5, lsl #29
 3343 1042 C551     		str	r5, [r0, r7]
 3344              		.loc 1 1527 0
 3345 1044 4D78     		ldrb	r5, [r1, #1]	@ zero_extendqisi2
 3346 1046 14FB0565 		smlabb	r5, r4, r5, r6
 3347 104a 4759     		ldr	r7, [r0, r5]
 3348 104c 27F08047 		bic	r7, r7, #1073741824
 3349 1050 4751     		str	r7, [r0, r5]
 3350              		.loc 1 1528 0
 3351 1052 4D78     		ldrb	r5, [r1, #1]	@ zero_extendqisi2
 3352 1054 14FB0564 		smlabb	r4, r4, r5, r6
 3353 1058 0559     		ldr	r5, [r0, r4]
 3354 105a 45F00045 		orr	r5, r5, #-2147483648
 3355 105e 0551     		str	r5, [r0, r4]
 3356              		.loc 1 1530 0
 3357 1060 002A     		cmp	r2, #0
 3358 1062 30D1     		bne	.L344
 3359              		.loc 1 1532 0
 3360 1064 CA78     		ldrb	r2, [r1, #3]	@ zero_extendqisi2
 3361              	.LVL274:
 3362 1066 002A     		cmp	r2, #0
 3363 1068 2DD1     		bne	.L344
 3364              		.loc 1 1532 0 is_stmt 0 discriminator 1
 3365 106a 63B3     		cbz	r3, .L344
 3366              		.loc 1 1534 0 is_stmt 1
 3367 106c CA79     		ldrb	r2, [r1, #7]	@ zero_extendqisi2
 3368 106e 032A     		cmp	r2, #3
 3369 1070 23D8     		bhi	.L350
 3370 1072 DFE802F0 		tbb	[pc, r2]
 3371              	.L352:
 3372 1076 43       		.byte	(.L351-.L352)/2
 3373 1077 16       		.byte	(.L353-.L352)/2
 3374 1078 43       		.byte	(.L351-.L352)/2
 3375 1079 16       		.byte	(.L353-.L352)/2
 3376              	.LVL275:
 3377              		.p2align 1
 3378              	.L363:
 3379              		.loc 1 1492 0
 3380 107a 0C89     		ldrh	r4, [r1, #8]
ARM GAS  /tmp/cclsZlw8.s 			page 61


 3381 107c 013B     		subs	r3, r3, #1
 3382 107e 2344     		add	r3, r3, r4
 3383 1080 B3FBF4F3 		udiv	r3, r3, r4
 3384              	.LVL276:
 3385              		.loc 1 1494 0
 3386 1084 9BB2     		uxth	r3, r3
 3387 1086 B3F5807F 		cmp	r3, #256
 3388 108a 1ED8     		bhi	.L346
 3389 108c 2A4E     		ldr	r6, .L365
 3390 108e DC04     		lsls	r4, r3, #19
 3391 1090 2640     		ands	r6, r6, r4
 3392              	.LVL277:
 3393              		.loc 1 1504 0
 3394 1092 CC78     		ldrb	r4, [r1, #3]	@ zero_extendqisi2
 3395 1094 002C     		cmp	r4, #0
 3396 1096 A1D0     		beq	.L364
 3397              	.L347:
 3398              		.loc 1 1506 0
 3399 1098 0C89     		ldrh	r4, [r1, #8]
 3400 109a 03FB04F3 		mul	r3, r3, r4
 3401 109e 0B61     		str	r3, [r1, #16]
 3402 10a0 9DE7     		b	.L348
 3403              	.LVL278:
 3404              	.L353:
 3405              		.loc 1 1554 0
 3406 10a2 DEF81040 		ldr	r4, [lr, #16]
 3407              		.loc 1 1552 0
 3408 10a6 DA1C     		adds	r2, r3, #3
 3409              		.loc 1 1554 0
 3410 10a8 A4B2     		uxth	r4, r4
 3411 10aa C2F38F02 		ubfx	r2, r2, #2, #16
 3412 10ae A242     		cmp	r2, r4
 3413 10b0 03D9     		bls	.L350
 3414              		.loc 1 1557 0
 3415 10b2 8269     		ldr	r2, [r0, #24]
 3416 10b4 42F08062 		orr	r2, r2, #67108864
 3417 10b8 8261     		str	r2, [r0, #24]
 3418              	.LVL279:
 3419              	.L350:
 3420 10ba 0A46     		mov	r2, r1
 3421              	.LBB62:
 3422              	.LBB63:
 3423 10bc 9BB2     		uxth	r3, r3
 3424 10be C968     		ldr	r1, [r1, #12]
 3425              	.LVL280:
 3426 10c0 5278     		ldrb	r2, [r2, #1]	@ zero_extendqisi2
 3427              	.LVL281:
 3428 10c2 FEF7BDFF 		bl	USB_WritePacket.part.1
 3429              	.LVL282:
 3430              	.L344:
 3431              	.LBE63:
 3432              	.LBE62:
 3433              		.loc 1 1571 0
 3434 10c6 0020     		movs	r0, #0
 3435 10c8 F8BD     		pop	{r3, r4, r5, r6, r7, pc}
 3436              	.LVL283:
 3437              	.L346:
ARM GAS  /tmp/cclsZlw8.s 			page 62


 3438              		.loc 1 1497 0
 3439 10ca 2402     		lsls	r4, r4, #8
 3440 10cc 0C61     		str	r4, [r1, #16]
 3441 10ce 4FF00066 		mov	r6, #134217728
 3442 10d2 4FF48073 		mov	r3, #256
 3443 10d6 7EE7     		b	.L345
 3444              	.LVL284:
 3445              	.L343:
 3446              		.loc 1 1482 0
 3447 10d8 012A     		cmp	r2, #1
 3448 10da 7FF476AF 		bne	.L341
 3449              		.loc 1 1484 0
 3450 10de 4C78     		ldrb	r4, [r1, #1]	@ zero_extendqisi2
 3451 10e0 00EB4414 		add	r4, r0, r4, lsl #5
 3452 10e4 D4F80C55 		ldr	r5, [r4, #1292]
 3453 10e8 25F06005 		bic	r5, r5, #96
 3454 10ec C4F80C55 		str	r5, [r4, #1292]
 3455              		.loc 1 1485 0
 3456 10f0 4B71     		strb	r3, [r1, #5]
 3457              		.loc 1 1490 0
 3458 10f2 0B69     		ldr	r3, [r1, #16]
 3459 10f4 002B     		cmp	r3, #0
 3460 10f6 3FF46BAF 		beq	.L354
 3461 10fa BEE7     		b	.L363
 3462              	.LVL285:
 3463              	.L351:
 3464              		.loc 1 1543 0
 3465 10fc C46A     		ldr	r4, [r0, #44]
 3466              		.loc 1 1540 0
 3467 10fe DA1C     		adds	r2, r3, #3
 3468              		.loc 1 1543 0
 3469 1100 A4B2     		uxth	r4, r4
 3470 1102 C2F38F02 		ubfx	r2, r2, #2, #16
 3471 1106 A242     		cmp	r2, r4
 3472 1108 D7D9     		bls	.L350
 3473              		.loc 1 1546 0
 3474 110a 8269     		ldr	r2, [r0, #24]
 3475 110c 42F02002 		orr	r2, r2, #32
 3476 1110 8261     		str	r2, [r0, #24]
 3477 1112 D2E7     		b	.L350
 3478              	.LVL286:
 3479              	.L362:
 3480              		.loc 1 1479 0
 3481 1114 4A78     		ldrb	r2, [r1, #1]	@ zero_extendqisi2
 3482              	.LVL287:
 3483              	.LBB64:
 3484              	.LBB65:
 3485              		.loc 1 1656 0
 3486 1116 0949     		ldr	r1, .L365+4
 3487              	.LVL288:
 3488 1118 4FF4A063 		mov	r3, #1280
 3489 111c 03EB4213 		add	r3, r3, r2, lsl #5
 3490 1120 C218     		adds	r2, r0, r3
 3491              	.LVL289:
 3492 1122 1161     		str	r1, [r2, #16]
 3493              	.LVL290:
 3494              		.loc 1 1660 0
ARM GAS  /tmp/cclsZlw8.s 			page 63


 3495 1124 C258     		ldr	r2, [r0, r3]
 3496 1126 22F08042 		bic	r2, r2, #1073741824
 3497 112a C250     		str	r2, [r0, r3]
 3498              		.loc 1 1661 0
 3499 112c C258     		ldr	r2, [r0, r3]
 3500 112e 42F00042 		orr	r2, r2, #-2147483648
 3501 1132 C250     		str	r2, [r0, r3]
 3502              	.LBE65:
 3503              	.LBE64:
 3504              		.loc 1 1480 0
 3505 1134 C7E7     		b	.L344
 3506              	.L366:
 3507 1136 00BF     		.align	2
 3508              	.L365:
 3509 1138 0000F81F 		.word	536346624
 3510 113c 00000880 		.word	-2146959360
 3511              		.cfi_endproc
 3512              	.LFE163:
 3513              		.size	USB_HC_StartXfer, .-USB_HC_StartXfer
 3514              		.align	2
 3515              		.p2align 4,,-1
 3516              		.global	USB_HC_ReadInterrupt
 3517              		.thumb
 3518              		.thumb_func
 3519              		.type	USB_HC_ReadInterrupt, %function
 3520              	USB_HC_ReadInterrupt:
 3521              	.LFB164:
 3522              		.loc 1 1579 0
 3523              		.cfi_startproc
 3524              		@ args = 0, pretend = 0, frame = 0
 3525              		@ frame_needed = 0, uses_anonymous_args = 0
 3526              		@ link register save eliminated.
 3527              	.LVL291:
 3528              		.loc 1 1580 0
 3529 1140 00F58060 		add	r0, r0, #1024
 3530              	.LVL292:
 3531 1144 4069     		ldr	r0, [r0, #20]
 3532              	.LVL293:
 3533              		.loc 1 1581 0
 3534 1146 80B2     		uxth	r0, r0
 3535 1148 7047     		bx	lr
 3536              		.cfi_endproc
 3537              	.LFE164:
 3538              		.size	USB_HC_ReadInterrupt, .-USB_HC_ReadInterrupt
 3539 114a 00BF     		.align	2
 3540 114c AFF30080 		.p2align 4,,-1
 3541              		.global	USB_HC_Halt
 3542              		.thumb
 3543              		.thumb_func
 3544              		.type	USB_HC_Halt, %function
 3545              	USB_HC_Halt:
 3546              	.LFB165:
 3547              		.loc 1 1591 0
 3548              		.cfi_startproc
 3549              		@ args = 0, pretend = 0, frame = 0
 3550              		@ frame_needed = 0, uses_anonymous_args = 0
 3551              		@ link register save eliminated.
ARM GAS  /tmp/cclsZlw8.s 			page 64


 3552              	.LVL294:
 3553 1150 00F5A063 		add	r3, r0, #1280
 3554              		.loc 1 1595 0
 3555 1154 03EB4111 		add	r1, r3, r1, lsl #5
 3556              	.LVL295:
 3557 1158 0B68     		ldr	r3, [r1]
 3558 115a 0B68     		ldr	r3, [r1]
 3559 115c 13F4002F 		tst	r3, #524288
 3560              		.loc 1 1597 0
 3561 1160 0B68     		ldr	r3, [r1]
 3562 1162 43F08043 		orr	r3, r3, #1073741824
 3563 1166 0B60     		str	r3, [r1]
 3564              		.loc 1 1595 0
 3565 1168 19D0     		beq	.L369
 3566              		.loc 1 1599 0
 3567 116a C36A     		ldr	r3, [r0, #44]
 3568 116c 9BB2     		uxth	r3, r3
 3569 116e 002B     		cmp	r3, #0
 3570 1170 2FD1     		bne	.L375
 3571              		.loc 1 1601 0
 3572 1172 0B68     		ldr	r3, [r1]
 3573 1174 23F00043 		bic	r3, r3, #-2147483648
 3574 1178 0B60     		str	r3, [r1]
 3575              		.loc 1 1602 0
 3576 117a 0B68     		ldr	r3, [r1]
 3577 117c 43F00043 		orr	r3, r3, #-2147483648
 3578 1180 0B60     		str	r3, [r1]
 3579              		.loc 1 1603 0
 3580 1182 0B68     		ldr	r3, [r1]
 3581 1184 23F40043 		bic	r3, r3, #32768
 3582 1188 0B60     		str	r3, [r1]
 3583              	.LVL296:
 3584 118a 4FF47A73 		mov	r3, #1000
 3585 118e 01E0     		b	.L371
 3586              	.LVL297:
 3587              	.L373:
 3588              		.loc 1 1606 0
 3589 1190 013B     		subs	r3, r3, #1
 3590              	.LVL298:
 3591 1192 02D0     		beq	.L372
 3592              	.LVL299:
 3593              	.L371:
 3594              		.loc 1 1611 0
 3595 1194 0A68     		ldr	r2, [r1]
 3596 1196 002A     		cmp	r2, #0
 3597 1198 FADB     		blt	.L373
 3598              	.LVL300:
 3599              	.L372:
 3600              		.loc 1 1643 0
 3601 119a 0020     		movs	r0, #0
 3602              	.LVL301:
 3603 119c 7047     		bx	lr
 3604              	.LVL302:
 3605              	.L369:
 3606              		.loc 1 1622 0
 3607 119e D0F81034 		ldr	r3, [r0, #1040]
 3608 11a2 9BB2     		uxth	r3, r3
ARM GAS  /tmp/cclsZlw8.s 			page 65


 3609 11a4 ABB9     		cbnz	r3, .L375
 3610              		.loc 1 1624 0
 3611 11a6 0B68     		ldr	r3, [r1]
 3612 11a8 23F00043 		bic	r3, r3, #-2147483648
 3613 11ac 0B60     		str	r3, [r1]
 3614              		.loc 1 1625 0
 3615 11ae 0B68     		ldr	r3, [r1]
 3616 11b0 43F00043 		orr	r3, r3, #-2147483648
 3617 11b4 0B60     		str	r3, [r1]
 3618              		.loc 1 1626 0
 3619 11b6 0B68     		ldr	r3, [r1]
 3620 11b8 23F40043 		bic	r3, r3, #32768
 3621 11bc 0B60     		str	r3, [r1]
 3622              	.LVL303:
 3623 11be 4FF47A73 		mov	r3, #1000
 3624 11c2 01E0     		b	.L376
 3625              	.LVL304:
 3626              	.L377:
 3627              		.loc 1 1629 0
 3628 11c4 013B     		subs	r3, r3, #1
 3629              	.LVL305:
 3630 11c6 E8D0     		beq	.L372
 3631              	.LVL306:
 3632              	.L376:
 3633              		.loc 1 1634 0
 3634 11c8 0A68     		ldr	r2, [r1]
 3635 11ca 002A     		cmp	r2, #0
 3636 11cc FADB     		blt	.L377
 3637              		.loc 1 1643 0
 3638 11ce 0020     		movs	r0, #0
 3639              	.LVL307:
 3640 11d0 7047     		bx	lr
 3641              	.LVL308:
 3642              	.L375:
 3643              		.loc 1 1638 0
 3644 11d2 0B68     		ldr	r3, [r1]
 3645 11d4 43F00043 		orr	r3, r3, #-2147483648
 3646 11d8 0B60     		str	r3, [r1]
 3647              		.loc 1 1643 0
 3648 11da 0020     		movs	r0, #0
 3649              	.LVL309:
 3650 11dc 7047     		bx	lr
 3651              		.cfi_endproc
 3652              	.LFE165:
 3653              		.size	USB_HC_Halt, .-USB_HC_Halt
 3654 11de 00BF     		.align	2
 3655              		.p2align 4,,-1
 3656              		.global	USB_DoPing
 3657              		.thumb
 3658              		.thumb_func
 3659              		.type	USB_DoPing, %function
 3660              	USB_DoPing:
 3661              	.LFB166:
 3662              		.loc 1 1653 0
 3663              		.cfi_startproc
 3664              		@ args = 0, pretend = 0, frame = 0
 3665              		@ frame_needed = 0, uses_anonymous_args = 0
ARM GAS  /tmp/cclsZlw8.s 			page 66


 3666              		@ link register save eliminated.
 3667              	.LVL310:
 3668 11e0 00F5A060 		add	r0, r0, #1280
 3669              	.LVL311:
 3670              		.loc 1 1656 0
 3671 11e4 00EB4111 		add	r1, r0, r1, lsl #5
 3672              	.LVL312:
 3673 11e8 054B     		ldr	r3, .L384
 3674 11ea 0B61     		str	r3, [r1, #16]
 3675              		.loc 1 1660 0
 3676 11ec 0B68     		ldr	r3, [r1]
 3677 11ee 23F08043 		bic	r3, r3, #1073741824
 3678 11f2 0B60     		str	r3, [r1]
 3679              		.loc 1 1661 0
 3680 11f4 0B68     		ldr	r3, [r1]
 3681 11f6 43F00043 		orr	r3, r3, #-2147483648
 3682 11fa 0B60     		str	r3, [r1]
 3683              		.loc 1 1664 0
 3684 11fc 0020     		movs	r0, #0
 3685              	.LVL313:
 3686 11fe 7047     		bx	lr
 3687              	.L385:
 3688              		.align	2
 3689              	.L384:
 3690 1200 00000880 		.word	-2146959360
 3691              		.cfi_endproc
 3692              	.LFE166:
 3693              		.size	USB_DoPing, .-USB_DoPing
 3694              		.align	2
 3695 1204 AFF30080 		.p2align 4,,-1
 3695      AFF30080 
 3695      AFF30080 
 3696              		.global	USB_StopHost
 3697              		.thumb
 3698              		.thumb_func
 3699              		.type	USB_StopHost, %function
 3700              	USB_StopHost:
 3701              	.LFB167:
 3702              		.loc 1 1672 0
 3703              		.cfi_startproc
 3704              		@ args = 0, pretend = 0, frame = 0
 3705              		@ frame_needed = 0, uses_anonymous_args = 0
 3706              		@ link register save eliminated.
 3707              	.LVL314:
 3708              	.LBB66:
 3709              	.LBB67:
 3710              		.loc 1 161 0
 3711 1210 8268     		ldr	r2, [r0, #8]
 3712              	.LBE67:
 3713              	.LBE66:
 3714              	.LBB70:
 3715              	.LBB71:
 3716              		.loc 1 347 0
 3717 1212 224B     		ldr	r3, .L413
 3718 1214 4FF40871 		mov	r1, #544
 3719              	.LBE71:
 3720              	.LBE70:
ARM GAS  /tmp/cclsZlw8.s 			page 67


 3721              	.LBB73:
 3722              	.LBB68:
 3723              		.loc 1 161 0
 3724 1218 22F00102 		bic	r2, r2, #1
 3725              	.LBE68:
 3726              	.LBE73:
 3727              		.loc 1 1672 0
 3728 121c 10B4     		push	{r4}
 3729              		.cfi_def_cfa_offset 4
 3730              		.cfi_offset 4, -4
 3731              	.LBB74:
 3732              	.LBB69:
 3733              		.loc 1 161 0
 3734 121e 8260     		str	r2, [r0, #8]
 3735              	.LVL315:
 3736              	.LBE69:
 3737              	.LBE74:
 3738              	.LBB75:
 3739              	.LBB72:
 3740              		.loc 1 347 0
 3741 1220 0161     		str	r1, [r0, #16]
 3742              	.LVL316:
 3743 1222 01E0     		b	.L387
 3744              	.LVL317:
 3745              	.L389:
 3746              		.loc 1 351 0
 3747 1224 013B     		subs	r3, r3, #1
 3748              	.LVL318:
 3749 1226 02D0     		beq	.L388
 3750              	.LVL319:
 3751              	.L387:
 3752              		.loc 1 356 0
 3753 1228 0269     		ldr	r2, [r0, #16]
 3754 122a 9106     		lsls	r1, r2, #26
 3755 122c FAD4     		bmi	.L389
 3756              	.LVL320:
 3757              	.L388:
 3758              	.LBE72:
 3759              	.LBE75:
 3760              	.LBB76:
 3761              	.LBB77:
 3762              		.loc 1 371 0
 3763 122e 1023     		movs	r3, #16
 3764 1230 0361     		str	r3, [r0, #16]
 3765              	.LVL321:
 3766 1232 1A4B     		ldr	r3, .L413
 3767 1234 01E0     		b	.L390
 3768              	.LVL322:
 3769              	.L392:
 3770              		.loc 1 375 0
 3771 1236 013B     		subs	r3, r3, #1
 3772              	.LVL323:
 3773 1238 02D0     		beq	.L391
 3774              	.LVL324:
 3775              	.L390:
 3776              		.loc 1 380 0
 3777 123a 0269     		ldr	r2, [r0, #16]
ARM GAS  /tmp/cclsZlw8.s 			page 68


 3778 123c D206     		lsls	r2, r2, #27
 3779 123e FAD4     		bmi	.L392
 3780              	.LVL325:
 3781              	.L391:
 3782 1240 00F5A061 		add	r1, r0, #1280
 3783              		.loc 1 371 0 discriminator 3
 3784 1244 0A46     		mov	r2, r1
 3785 1246 00F5E064 		add	r4, r0, #1792
 3786              	.L393:
 3787              	.LBE77:
 3788              	.LBE76:
 3789              		.loc 1 1687 0 discriminator 3
 3790 124a 1368     		ldr	r3, [r2]
 3791              	.LVL326:
 3792              		.loc 1 1690 0 discriminator 3
 3793 124c 23F08023 		bic	r3, r3, #-2147450880
 3794              	.LVL327:
 3795 1250 43F08043 		orr	r3, r3, #1073741824
 3796              	.LVL328:
 3797              		.loc 1 1691 0 discriminator 3
 3798 1254 42F8203B 		str	r3, [r2], #32
 3799              	.LVL329:
 3800              		.loc 1 1684 0 discriminator 3
 3801 1258 A242     		cmp	r2, r4
 3802 125a F6D1     		bne	.L393
 3803 125c 0023     		movs	r3, #0
 3804              	.LVL330:
 3805              	.L395:
 3806              		.loc 1 1698 0
 3807 125e 0A68     		ldr	r2, [r1]
 3808              	.LVL331:
 3809              		.loc 1 1702 0
 3810 1260 22F40042 		bic	r2, r2, #32768
 3811              	.LVL332:
 3812 1264 42F04042 		orr	r2, r2, #-1073741824
 3813              	.LVL333:
 3814              		.loc 1 1704 0
 3815 1268 0A60     		str	r2, [r1]
 3816 126a 02E0     		b	.L397
 3817              	.LVL334:
 3818              	.L394:
 3819              		.loc 1 1712 0
 3820 126c 0A68     		ldr	r2, [r1]
 3821 126e 002A     		cmp	r2, #0
 3822 1270 03DA     		bge	.L398
 3823              	.L397:
 3824              		.loc 1 1707 0
 3825 1272 0133     		adds	r3, r3, #1
 3826              	.LVL335:
 3827 1274 B3F57A7F 		cmp	r3, #1000
 3828 1278 F8D9     		bls	.L394
 3829              	.L398:
 3830 127a 2031     		adds	r1, r1, #32
 3831              	.LVL336:
 3832              		.loc 1 1695 0
 3833 127c A142     		cmp	r1, r4
 3834 127e EED1     		bne	.L395
ARM GAS  /tmp/cclsZlw8.s 			page 69


 3835              		.loc 1 1716 0
 3836 1280 4FF0FF33 		mov	r3, #-1
 3837              	.LVL337:
 3838 1284 C0F81434 		str	r3, [r0, #1044]
 3839              	.LVL338:
 3840              		.loc 1 1717 0
 3841 1288 4361     		str	r3, [r0, #20]
 3842              	.LVL339:
 3843              	.LBB78:
 3844              	.LBB79:
 3845              		.loc 1 148 0
 3846 128a 8368     		ldr	r3, [r0, #8]
 3847              	.LBE79:
 3848              	.LBE78:
 3849              		.loc 1 1720 0
 3850 128c 5DF8044B 		ldr	r4, [sp], #4
 3851              		.cfi_restore 4
 3852              		.cfi_def_cfa_offset 0
 3853              	.LBB81:
 3854              	.LBB80:
 3855              		.loc 1 148 0
 3856 1290 43F00103 		orr	r3, r3, #1
 3857 1294 8360     		str	r3, [r0, #8]
 3858              	.LBE80:
 3859              	.LBE81:
 3860              		.loc 1 1720 0
 3861 1296 0020     		movs	r0, #0
 3862              	.LVL340:
 3863 1298 7047     		bx	lr
 3864              	.L414:
 3865 129a 00BF     		.align	2
 3866              	.L413:
 3867 129c 400D0300 		.word	200000
 3868              		.cfi_endproc
 3869              	.LFE167:
 3870              		.size	USB_StopHost, .-USB_StopHost
 3871              		.bss
 3872              		.align	2
 3873              		.set	.LANCHOR0,. + 0
 3874              		.type	debug.7035, %object
 3875              		.size	debug.7035, 4
 3876              	debug.7035:
 3877 0000 00000000 		.space	4
 3878              		.text
 3879              	.Letext0:
 3880              		.file 2 "/home/sbcu/Dropbox/pcb-layouts/axo-on-discovery-board/axoloti/platform_linux/arm-none-eab
 3881              		.file 3 "/home/sbcu/Dropbox/pcb-layouts/axo-on-discovery-board/axoloti/platform_linux/arm-none-eab
 3882              		.file 4 "./stm32f427xx.h"
 3883              		.file 5 "./stm32f4xxc.h"
 3884              		.file 6 "./STM32F4xx_HAL_Driver/Inc/stm32f4xx_hal_def.h"
 3885              		.file 7 "./STM32F4xx_HAL_Driver/Inc/stm32f4xx_ll_usb.h"
 3886              		.file 8 "/home/sbcu/Dropbox/pcb-layouts/axo-on-discovery-board/axoloti/platform_linux/../CMSIS//In
 3887              		.file 9 "./STM32F4xx_HAL_Driver/Inc/stm32f4xx_hal.h"
 3888              		.section	.debug_info,"",%progbits
 3889              	.Ldebug_info0:
 3890 0000 65190000 		.4byte	0x1965
 3891 0004 0400     		.2byte	0x4
ARM GAS  /tmp/cclsZlw8.s 			page 70


 3892 0006 00000000 		.4byte	.Ldebug_abbrev0
 3893 000a 04       		.byte	0x4
 3894 000b 01       		.uleb128 0x1
 3895 000c FA070000 		.4byte	.LASF218
 3896 0010 01       		.byte	0x1
 3897 0011 7A0B0000 		.4byte	.LASF219
 3898 0015 79060000 		.4byte	.LASF220
 3899 0019 00000000 		.4byte	.Ltext0
 3900 001d A0120000 		.4byte	.Letext0-.Ltext0
 3901 0021 00000000 		.4byte	.Ldebug_line0
 3902 0025 02       		.uleb128 0x2
 3903 0026 04       		.byte	0x4
 3904 0027 07       		.byte	0x7
 3905 0028 61030000 		.4byte	.LASF0
 3906 002c 02       		.uleb128 0x2
 3907 002d 01       		.byte	0x1
 3908 002e 06       		.byte	0x6
 3909 002f 82010000 		.4byte	.LASF1
 3910 0033 03       		.uleb128 0x3
 3911 0034 68000000 		.4byte	.LASF4
 3912 0038 02       		.byte	0x2
 3913 0039 1D       		.byte	0x1d
 3914 003a 3E000000 		.4byte	0x3e
 3915 003e 02       		.uleb128 0x2
 3916 003f 01       		.byte	0x1
 3917 0040 08       		.byte	0x8
 3918 0041 2E070000 		.4byte	.LASF2
 3919 0045 02       		.uleb128 0x2
 3920 0046 02       		.byte	0x2
 3921 0047 05       		.byte	0x5
 3922 0048 73070000 		.4byte	.LASF3
 3923 004c 03       		.uleb128 0x3
 3924 004d A7090000 		.4byte	.LASF5
 3925 0051 02       		.byte	0x2
 3926 0052 2B       		.byte	0x2b
 3927 0053 57000000 		.4byte	0x57
 3928 0057 02       		.uleb128 0x2
 3929 0058 02       		.byte	0x2
 3930 0059 07       		.byte	0x7
 3931 005a F3030000 		.4byte	.LASF6
 3932 005e 03       		.uleb128 0x3
 3933 005f EF090000 		.4byte	.LASF7
 3934 0063 02       		.byte	0x2
 3935 0064 3F       		.byte	0x3f
 3936 0065 69000000 		.4byte	0x69
 3937 0069 02       		.uleb128 0x2
 3938 006a 04       		.byte	0x4
 3939 006b 05       		.byte	0x5
 3940 006c F3010000 		.4byte	.LASF8
 3941 0070 03       		.uleb128 0x3
 3942 0071 50030000 		.4byte	.LASF9
 3943 0075 02       		.byte	0x2
 3944 0076 41       		.byte	0x41
 3945 0077 7B000000 		.4byte	0x7b
 3946 007b 02       		.uleb128 0x2
 3947 007c 04       		.byte	0x4
 3948 007d 07       		.byte	0x7
ARM GAS  /tmp/cclsZlw8.s 			page 71


 3949 007e 51090000 		.4byte	.LASF10
 3950 0082 02       		.uleb128 0x2
 3951 0083 08       		.byte	0x8
 3952 0084 05       		.byte	0x5
 3953 0085 74010000 		.4byte	.LASF11
 3954 0089 02       		.uleb128 0x2
 3955 008a 08       		.byte	0x8
 3956 008b 07       		.byte	0x7
 3957 008c B0000000 		.4byte	.LASF12
 3958 0090 04       		.uleb128 0x4
 3959 0091 04       		.byte	0x4
 3960 0092 05       		.byte	0x5
 3961 0093 696E7400 		.ascii	"int\000"
 3962 0097 03       		.uleb128 0x3
 3963 0098 190B0000 		.4byte	.LASF13
 3964 009c 03       		.byte	0x3
 3965 009d 14       		.byte	0x14
 3966 009e 33000000 		.4byte	0x33
 3967 00a2 03       		.uleb128 0x3
 3968 00a3 7F020000 		.4byte	.LASF14
 3969 00a7 03       		.byte	0x3
 3970 00a8 1A       		.byte	0x1a
 3971 00a9 4C000000 		.4byte	0x4c
 3972 00ad 03       		.uleb128 0x3
 3973 00ae 26070000 		.4byte	.LASF15
 3974 00b2 03       		.byte	0x3
 3975 00b3 1F       		.byte	0x1f
 3976 00b4 5E000000 		.4byte	0x5e
 3977 00b8 03       		.uleb128 0x3
 3978 00b9 A70A0000 		.4byte	.LASF16
 3979 00bd 03       		.byte	0x3
 3980 00be 20       		.byte	0x20
 3981 00bf 70000000 		.4byte	0x70
 3982 00c3 02       		.uleb128 0x2
 3983 00c4 04       		.byte	0x4
 3984 00c5 07       		.byte	0x7
 3985 00c6 A3050000 		.4byte	.LASF17
 3986 00ca 05       		.uleb128 0x5
 3987 00cb B8000000 		.4byte	0xb8
 3988 00cf 06       		.uleb128 0x6
 3989 00d0 B8000000 		.4byte	0xb8
 3990 00d4 DF000000 		.4byte	0xdf
 3991 00d8 07       		.uleb128 0x7
 3992 00d9 C3000000 		.4byte	0xc3
 3993 00dd 01       		.byte	0x1
 3994 00de 00       		.byte	0
 3995 00df 06       		.uleb128 0x6
 3996 00e0 B8000000 		.4byte	0xb8
 3997 00e4 EF000000 		.4byte	0xef
 3998 00e8 07       		.uleb128 0x7
 3999 00e9 C3000000 		.4byte	0xc3
 4000 00ed 0E       		.byte	0xe
 4001 00ee 00       		.byte	0
 4002 00ef 08       		.uleb128 0x8
 4003 00f0 4001     		.2byte	0x140
 4004 00f2 04       		.byte	0x4
 4005 00f3 7303     		.2byte	0x373
ARM GAS  /tmp/cclsZlw8.s 			page 72


 4006 00f5 E6010000 		.4byte	0x1e6
 4007 00f9 09       		.uleb128 0x9
 4008 00fa 290A0000 		.4byte	.LASF18
 4009 00fe 04       		.byte	0x4
 4010 00ff 7503     		.2byte	0x375
 4011 0101 CA000000 		.4byte	0xca
 4012 0105 00       		.byte	0
 4013 0106 09       		.uleb128 0x9
 4014 0107 01030000 		.4byte	.LASF19
 4015 010b 04       		.byte	0x4
 4016 010c 7603     		.2byte	0x376
 4017 010e CA000000 		.4byte	0xca
 4018 0112 04       		.byte	0x4
 4019 0113 09       		.uleb128 0x9
 4020 0114 72000000 		.4byte	.LASF20
 4021 0118 04       		.byte	0x4
 4022 0119 7703     		.2byte	0x377
 4023 011b CA000000 		.4byte	0xca
 4024 011f 08       		.byte	0x8
 4025 0120 09       		.uleb128 0x9
 4026 0121 4B060000 		.4byte	.LASF21
 4027 0125 04       		.byte	0x4
 4028 0126 7803     		.2byte	0x378
 4029 0128 CA000000 		.4byte	0xca
 4030 012c 0C       		.byte	0xc
 4031 012d 09       		.uleb128 0x9
 4032 012e A4040000 		.4byte	.LASF22
 4033 0132 04       		.byte	0x4
 4034 0133 7903     		.2byte	0x379
 4035 0135 CA000000 		.4byte	0xca
 4036 0139 10       		.byte	0x10
 4037 013a 09       		.uleb128 0x9
 4038 013b 31020000 		.4byte	.LASF23
 4039 013f 04       		.byte	0x4
 4040 0140 7A03     		.2byte	0x37a
 4041 0142 CA000000 		.4byte	0xca
 4042 0146 14       		.byte	0x14
 4043 0147 09       		.uleb128 0x9
 4044 0148 7D070000 		.4byte	.LASF24
 4045 014c 04       		.byte	0x4
 4046 014d 7B03     		.2byte	0x37b
 4047 014f CA000000 		.4byte	0xca
 4048 0153 18       		.byte	0x18
 4049 0154 09       		.uleb128 0x9
 4050 0155 6C050000 		.4byte	.LASF25
 4051 0159 04       		.byte	0x4
 4052 015a 7C03     		.2byte	0x37c
 4053 015c CA000000 		.4byte	0xca
 4054 0160 1C       		.byte	0x1c
 4055 0161 09       		.uleb128 0x9
 4056 0162 FC000000 		.4byte	.LASF26
 4057 0166 04       		.byte	0x4
 4058 0167 7D03     		.2byte	0x37d
 4059 0169 CA000000 		.4byte	0xca
 4060 016d 20       		.byte	0x20
 4061 016e 09       		.uleb128 0x9
 4062 016f F9090000 		.4byte	.LASF27
ARM GAS  /tmp/cclsZlw8.s 			page 73


 4063 0173 04       		.byte	0x4
 4064 0174 7E03     		.2byte	0x37e
 4065 0176 CA000000 		.4byte	0xca
 4066 017a 24       		.byte	0x24
 4067 017b 09       		.uleb128 0x9
 4068 017c E0020000 		.4byte	.LASF28
 4069 0180 04       		.byte	0x4
 4070 0181 7F03     		.2byte	0x37f
 4071 0183 CA000000 		.4byte	0xca
 4072 0187 28       		.byte	0x28
 4073 0188 09       		.uleb128 0x9
 4074 0189 C20B0000 		.4byte	.LASF29
 4075 018d 04       		.byte	0x4
 4076 018e 8003     		.2byte	0x380
 4077 0190 CA000000 		.4byte	0xca
 4078 0194 2C       		.byte	0x2c
 4079 0195 09       		.uleb128 0x9
 4080 0196 03060000 		.4byte	.LASF30
 4081 019a 04       		.byte	0x4
 4082 019b 8103     		.2byte	0x381
 4083 019d CF000000 		.4byte	0xcf
 4084 01a1 30       		.byte	0x30
 4085 01a2 09       		.uleb128 0x9
 4086 01a3 400B0000 		.4byte	.LASF31
 4087 01a7 04       		.byte	0x4
 4088 01a8 8203     		.2byte	0x382
 4089 01aa CA000000 		.4byte	0xca
 4090 01ae 38       		.byte	0x38
 4091 01af 0A       		.uleb128 0xa
 4092 01b0 43494400 		.ascii	"CID\000"
 4093 01b4 04       		.byte	0x4
 4094 01b5 8303     		.2byte	0x383
 4095 01b7 CA000000 		.4byte	0xca
 4096 01bb 3C       		.byte	0x3c
 4097 01bc 09       		.uleb128 0x9
 4098 01bd 94070000 		.4byte	.LASF32
 4099 01c1 04       		.byte	0x4
 4100 01c2 8403     		.2byte	0x384
 4101 01c4 E6010000 		.4byte	0x1e6
 4102 01c8 40       		.byte	0x40
 4103 01c9 0B       		.uleb128 0xb
 4104 01ca 74050000 		.4byte	.LASF33
 4105 01ce 04       		.byte	0x4
 4106 01cf 8503     		.2byte	0x385
 4107 01d1 CA000000 		.4byte	0xca
 4108 01d5 0001     		.2byte	0x100
 4109 01d7 0B       		.uleb128 0xb
 4110 01d8 660B0000 		.4byte	.LASF34
 4111 01dc 04       		.byte	0x4
 4112 01dd 8603     		.2byte	0x386
 4113 01df F6010000 		.4byte	0x1f6
 4114 01e3 0401     		.2byte	0x104
 4115 01e5 00       		.byte	0
 4116 01e6 06       		.uleb128 0x6
 4117 01e7 B8000000 		.4byte	0xb8
 4118 01eb F6010000 		.4byte	0x1f6
 4119 01ef 07       		.uleb128 0x7
ARM GAS  /tmp/cclsZlw8.s 			page 74


 4120 01f0 C3000000 		.4byte	0xc3
 4121 01f4 2F       		.byte	0x2f
 4122 01f5 00       		.byte	0
 4123 01f6 05       		.uleb128 0x5
 4124 01f7 DF000000 		.4byte	0xdf
 4125 01fb 0C       		.uleb128 0xc
 4126 01fc CF090000 		.4byte	.LASF35
 4127 0200 04       		.byte	0x4
 4128 0201 8803     		.2byte	0x388
 4129 0203 EF000000 		.4byte	0xef
 4130 0207 0D       		.uleb128 0xd
 4131 0208 88       		.byte	0x88
 4132 0209 04       		.byte	0x4
 4133 020a 8E03     		.2byte	0x38e
 4134 020c 15030000 		.4byte	0x315
 4135 0210 09       		.uleb128 0x9
 4136 0211 5D020000 		.4byte	.LASF36
 4137 0215 04       		.byte	0x4
 4138 0216 9003     		.2byte	0x390
 4139 0218 CA000000 		.4byte	0xca
 4140 021c 00       		.byte	0
 4141 021d 09       		.uleb128 0x9
 4142 021e 630A0000 		.4byte	.LASF37
 4143 0222 04       		.byte	0x4
 4144 0223 9103     		.2byte	0x391
 4145 0225 CA000000 		.4byte	0xca
 4146 0229 04       		.byte	0x4
 4147 022a 09       		.uleb128 0x9
 4148 022b 21070000 		.4byte	.LASF38
 4149 022f 04       		.byte	0x4
 4150 0230 9203     		.2byte	0x392
 4151 0232 CA000000 		.4byte	0xca
 4152 0236 08       		.byte	0x8
 4153 0237 09       		.uleb128 0x9
 4154 0238 FC010000 		.4byte	.LASF39
 4155 023c 04       		.byte	0x4
 4156 023d 9303     		.2byte	0x393
 4157 023f B8000000 		.4byte	0xb8
 4158 0243 0C       		.byte	0xc
 4159 0244 09       		.uleb128 0x9
 4160 0245 2F060000 		.4byte	.LASF40
 4161 0249 04       		.byte	0x4
 4162 024a 9403     		.2byte	0x394
 4163 024c CA000000 		.4byte	0xca
 4164 0250 10       		.byte	0x10
 4165 0251 09       		.uleb128 0x9
 4166 0252 09030000 		.4byte	.LASF41
 4167 0256 04       		.byte	0x4
 4168 0257 9503     		.2byte	0x395
 4169 0259 CA000000 		.4byte	0xca
 4170 025d 14       		.byte	0x14
 4171 025e 09       		.uleb128 0x9
 4172 025f AA020000 		.4byte	.LASF42
 4173 0263 04       		.byte	0x4
 4174 0264 9603     		.2byte	0x396
 4175 0266 CA000000 		.4byte	0xca
 4176 026a 18       		.byte	0x18
ARM GAS  /tmp/cclsZlw8.s 			page 75


 4177 026b 09       		.uleb128 0x9
 4178 026c 5F000000 		.4byte	.LASF43
 4179 0270 04       		.byte	0x4
 4180 0271 9703     		.2byte	0x397
 4181 0273 CA000000 		.4byte	0xca
 4182 0277 1C       		.byte	0x1c
 4183 0278 09       		.uleb128 0x9
 4184 0279 99040000 		.4byte	.LASF44
 4185 027d 04       		.byte	0x4
 4186 027e 9803     		.2byte	0x398
 4187 0280 B8000000 		.4byte	0xb8
 4188 0284 20       		.byte	0x20
 4189 0285 09       		.uleb128 0x9
 4190 0286 D3010000 		.4byte	.LASF45
 4191 028a 04       		.byte	0x4
 4192 028b 9903     		.2byte	0x399
 4193 028d B8000000 		.4byte	0xb8
 4194 0291 24       		.byte	0x24
 4195 0292 09       		.uleb128 0x9
 4196 0293 07020000 		.4byte	.LASF46
 4197 0297 04       		.byte	0x4
 4198 0298 9A03     		.2byte	0x39a
 4199 029a CA000000 		.4byte	0xca
 4200 029e 28       		.byte	0x28
 4201 029f 09       		.uleb128 0x9
 4202 02a0 B9070000 		.4byte	.LASF47
 4203 02a4 04       		.byte	0x4
 4204 02a5 9B03     		.2byte	0x39b
 4205 02a7 CA000000 		.4byte	0xca
 4206 02ab 2C       		.byte	0x2c
 4207 02ac 09       		.uleb128 0x9
 4208 02ad AC040000 		.4byte	.LASF48
 4209 02b1 04       		.byte	0x4
 4210 02b2 9C03     		.2byte	0x39c
 4211 02b4 CA000000 		.4byte	0xca
 4212 02b8 30       		.byte	0x30
 4213 02b9 09       		.uleb128 0x9
 4214 02ba 45000000 		.4byte	.LASF49
 4215 02be 04       		.byte	0x4
 4216 02bf 9D03     		.2byte	0x39d
 4217 02c1 CA000000 		.4byte	0xca
 4218 02c5 34       		.byte	0x34
 4219 02c6 09       		.uleb128 0x9
 4220 02c7 06000000 		.4byte	.LASF50
 4221 02cb 04       		.byte	0x4
 4222 02cc 9E03     		.2byte	0x39e
 4223 02ce CA000000 		.4byte	0xca
 4224 02d2 38       		.byte	0x38
 4225 02d3 09       		.uleb128 0x9
 4226 02d4 4C0B0000 		.4byte	.LASF51
 4227 02d8 04       		.byte	0x4
 4228 02d9 9F03     		.2byte	0x39f
 4229 02db CA000000 		.4byte	0xca
 4230 02df 3C       		.byte	0x3c
 4231 02e0 09       		.uleb128 0x9
 4232 02e1 94070000 		.4byte	.LASF32
 4233 02e5 04       		.byte	0x4
ARM GAS  /tmp/cclsZlw8.s 			page 76


 4234 02e6 A003     		.2byte	0x3a0
 4235 02e8 B8000000 		.4byte	0xb8
 4236 02ec 40       		.byte	0x40
 4237 02ed 09       		.uleb128 0x9
 4238 02ee B4040000 		.4byte	.LASF52
 4239 02f2 04       		.byte	0x4
 4240 02f3 A103     		.2byte	0x3a1
 4241 02f5 CA000000 		.4byte	0xca
 4242 02f9 44       		.byte	0x44
 4243 02fa 09       		.uleb128 0x9
 4244 02fb E8030000 		.4byte	.LASF53
 4245 02ff 04       		.byte	0x4
 4246 0300 A203     		.2byte	0x3a2
 4247 0302 DF000000 		.4byte	0xdf
 4248 0306 48       		.byte	0x48
 4249 0307 09       		.uleb128 0x9
 4250 0308 B00A0000 		.4byte	.LASF54
 4251 030c 04       		.byte	0x4
 4252 030d A303     		.2byte	0x3a3
 4253 030f CA000000 		.4byte	0xca
 4254 0313 84       		.byte	0x84
 4255 0314 00       		.byte	0
 4256 0315 0C       		.uleb128 0xc
 4257 0316 10020000 		.4byte	.LASF55
 4258 031a 04       		.byte	0x4
 4259 031b A503     		.2byte	0x3a5
 4260 031d 07020000 		.4byte	0x207
 4261 0321 0D       		.uleb128 0xd
 4262 0322 20       		.byte	0x20
 4263 0323 04       		.byte	0x4
 4264 0324 AB03     		.2byte	0x3ab
 4265 0326 93030000 		.4byte	0x393
 4266 032a 09       		.uleb128 0x9
 4267 032b AC050000 		.4byte	.LASF56
 4268 032f 04       		.byte	0x4
 4269 0330 AD03     		.2byte	0x3ad
 4270 0332 CA000000 		.4byte	0xca
 4271 0336 00       		.byte	0
 4272 0337 09       		.uleb128 0x9
 4273 0338 B8010000 		.4byte	.LASF57
 4274 033c 04       		.byte	0x4
 4275 033d AE03     		.2byte	0x3ae
 4276 033f B8000000 		.4byte	0xb8
 4277 0343 04       		.byte	0x4
 4278 0344 09       		.uleb128 0x9
 4279 0345 49070000 		.4byte	.LASF58
 4280 0349 04       		.byte	0x4
 4281 034a AF03     		.2byte	0x3af
 4282 034c CA000000 		.4byte	0xca
 4283 0350 08       		.byte	0x8
 4284 0351 09       		.uleb128 0x9
 4285 0352 FC010000 		.4byte	.LASF39
 4286 0356 04       		.byte	0x4
 4287 0357 B003     		.2byte	0x3b0
 4288 0359 B8000000 		.4byte	0xb8
 4289 035d 0C       		.byte	0xc
 4290 035e 09       		.uleb128 0x9
ARM GAS  /tmp/cclsZlw8.s 			page 77


 4291 035f 0E060000 		.4byte	.LASF59
 4292 0363 04       		.byte	0x4
 4293 0364 B103     		.2byte	0x3b1
 4294 0366 CA000000 		.4byte	0xca
 4295 036a 10       		.byte	0x10
 4296 036b 09       		.uleb128 0x9
 4297 036c 06040000 		.4byte	.LASF60
 4298 0370 04       		.byte	0x4
 4299 0371 B203     		.2byte	0x3b2
 4300 0373 CA000000 		.4byte	0xca
 4301 0377 14       		.byte	0x14
 4302 0378 09       		.uleb128 0x9
 4303 0379 0D070000 		.4byte	.LASF61
 4304 037d 04       		.byte	0x4
 4305 037e B303     		.2byte	0x3b3
 4306 0380 CA000000 		.4byte	0xca
 4307 0384 18       		.byte	0x18
 4308 0385 09       		.uleb128 0x9
 4309 0386 C0060000 		.4byte	.LASF62
 4310 038a 04       		.byte	0x4
 4311 038b B403     		.2byte	0x3b4
 4312 038d B8000000 		.4byte	0xb8
 4313 0391 1C       		.byte	0x1c
 4314 0392 00       		.byte	0
 4315 0393 0C       		.uleb128 0xc
 4316 0394 9F070000 		.4byte	.LASF63
 4317 0398 04       		.byte	0x4
 4318 0399 B603     		.2byte	0x3b6
 4319 039b 21030000 		.4byte	0x321
 4320 039f 0D       		.uleb128 0xd
 4321 03a0 20       		.byte	0x20
 4322 03a1 04       		.byte	0x4
 4323 03a2 BC03     		.2byte	0x3bc
 4324 03a4 04040000 		.4byte	0x404
 4325 03a8 09       		.uleb128 0x9
 4326 03a9 8C0A0000 		.4byte	.LASF64
 4327 03ad 04       		.byte	0x4
 4328 03ae BE03     		.2byte	0x3be
 4329 03b0 CA000000 		.4byte	0xca
 4330 03b4 00       		.byte	0
 4331 03b5 09       		.uleb128 0x9
 4332 03b6 B8010000 		.4byte	.LASF57
 4333 03ba 04       		.byte	0x4
 4334 03bb BF03     		.2byte	0x3bf
 4335 03bd B8000000 		.4byte	0xb8
 4336 03c1 04       		.byte	0x4
 4337 03c2 09       		.uleb128 0x9
 4338 03c3 D90B0000 		.4byte	.LASF65
 4339 03c7 04       		.byte	0x4
 4340 03c8 C003     		.2byte	0x3c0
 4341 03ca CA000000 		.4byte	0xca
 4342 03ce 08       		.byte	0x8
 4343 03cf 09       		.uleb128 0x9
 4344 03d0 FC010000 		.4byte	.LASF39
 4345 03d4 04       		.byte	0x4
 4346 03d5 C103     		.2byte	0x3c1
 4347 03d7 B8000000 		.4byte	0xb8
ARM GAS  /tmp/cclsZlw8.s 			page 78


 4348 03db 0C       		.byte	0xc
 4349 03dc 09       		.uleb128 0x9
 4350 03dd 51070000 		.4byte	.LASF66
 4351 03e1 04       		.byte	0x4
 4352 03e2 C203     		.2byte	0x3c2
 4353 03e4 CA000000 		.4byte	0xca
 4354 03e8 10       		.byte	0x10
 4355 03e9 09       		.uleb128 0x9
 4356 03ea 0A090000 		.4byte	.LASF67
 4357 03ee 04       		.byte	0x4
 4358 03ef C303     		.2byte	0x3c3
 4359 03f1 CA000000 		.4byte	0xca
 4360 03f5 14       		.byte	0x14
 4361 03f6 09       		.uleb128 0x9
 4362 03f7 C0060000 		.4byte	.LASF62
 4363 03fb 04       		.byte	0x4
 4364 03fc C403     		.2byte	0x3c4
 4365 03fe CF000000 		.4byte	0xcf
 4366 0402 18       		.byte	0x18
 4367 0403 00       		.byte	0
 4368 0404 0C       		.uleb128 0xc
 4369 0405 8F020000 		.4byte	.LASF68
 4370 0409 04       		.byte	0x4
 4371 040a C603     		.2byte	0x3c6
 4372 040c 9F030000 		.4byte	0x39f
 4373 0410 0D       		.uleb128 0xd
 4374 0411 1C       		.byte	0x1c
 4375 0412 04       		.byte	0x4
 4376 0413 CC03     		.2byte	0x3cc
 4377 0415 75040000 		.4byte	0x475
 4378 0419 09       		.uleb128 0x9
 4379 041a BD090000 		.4byte	.LASF69
 4380 041e 04       		.byte	0x4
 4381 041f CE03     		.2byte	0x3ce
 4382 0421 CA000000 		.4byte	0xca
 4383 0425 00       		.byte	0
 4384 0426 09       		.uleb128 0x9
 4385 0427 6D040000 		.4byte	.LASF70
 4386 042b 04       		.byte	0x4
 4387 042c CF03     		.2byte	0x3cf
 4388 042e CA000000 		.4byte	0xca
 4389 0432 04       		.byte	0x4
 4390 0433 09       		.uleb128 0x9
 4391 0434 62020000 		.4byte	.LASF71
 4392 0438 04       		.byte	0x4
 4393 0439 D003     		.2byte	0x3d0
 4394 043b CA000000 		.4byte	0xca
 4395 043f 08       		.byte	0x8
 4396 0440 09       		.uleb128 0x9
 4397 0441 67070000 		.4byte	.LASF72
 4398 0445 04       		.byte	0x4
 4399 0446 D103     		.2byte	0x3d1
 4400 0448 B8000000 		.4byte	0xb8
 4401 044c 0C       		.byte	0xc
 4402 044d 09       		.uleb128 0x9
 4403 044e 840A0000 		.4byte	.LASF73
 4404 0452 04       		.byte	0x4
ARM GAS  /tmp/cclsZlw8.s 			page 79


 4405 0453 D203     		.2byte	0x3d2
 4406 0455 CA000000 		.4byte	0xca
 4407 0459 10       		.byte	0x10
 4408 045a 09       		.uleb128 0x9
 4409 045b 8B090000 		.4byte	.LASF74
 4410 045f 04       		.byte	0x4
 4411 0460 D303     		.2byte	0x3d3
 4412 0462 CA000000 		.4byte	0xca
 4413 0466 14       		.byte	0x14
 4414 0467 09       		.uleb128 0x9
 4415 0468 6B010000 		.4byte	.LASF75
 4416 046c 04       		.byte	0x4
 4417 046d D403     		.2byte	0x3d4
 4418 046f CA000000 		.4byte	0xca
 4419 0473 18       		.byte	0x18
 4420 0474 00       		.byte	0
 4421 0475 0C       		.uleb128 0xc
 4422 0476 AA030000 		.4byte	.LASF76
 4423 047a 04       		.byte	0x4
 4424 047b D603     		.2byte	0x3d6
 4425 047d 10040000 		.4byte	0x410
 4426 0481 0D       		.uleb128 0xd
 4427 0482 20       		.byte	0x20
 4428 0483 04       		.byte	0x4
 4429 0484 DB03     		.2byte	0x3db
 4430 0486 E6040000 		.4byte	0x4e6
 4431 048a 09       		.uleb128 0x9
 4432 048b 5F0B0000 		.4byte	.LASF77
 4433 048f 04       		.byte	0x4
 4434 0490 DD03     		.2byte	0x3dd
 4435 0492 CA000000 		.4byte	0xca
 4436 0496 00       		.byte	0
 4437 0497 09       		.uleb128 0x9
 4438 0498 C8020000 		.4byte	.LASF78
 4439 049c 04       		.byte	0x4
 4440 049d DE03     		.2byte	0x3de
 4441 049f CA000000 		.4byte	0xca
 4442 04a3 04       		.byte	0x4
 4443 04a4 09       		.uleb128 0x9
 4444 04a5 F2050000 		.4byte	.LASF79
 4445 04a9 04       		.byte	0x4
 4446 04aa DF03     		.2byte	0x3df
 4447 04ac CA000000 		.4byte	0xca
 4448 04b0 08       		.byte	0x8
 4449 04b1 09       		.uleb128 0x9
 4450 04b2 C3010000 		.4byte	.LASF80
 4451 04b6 04       		.byte	0x4
 4452 04b7 E003     		.2byte	0x3e0
 4453 04b9 CA000000 		.4byte	0xca
 4454 04bd 0C       		.byte	0xc
 4455 04be 09       		.uleb128 0x9
 4456 04bf 97010000 		.4byte	.LASF81
 4457 04c3 04       		.byte	0x4
 4458 04c4 E103     		.2byte	0x3e1
 4459 04c6 CA000000 		.4byte	0xca
 4460 04ca 10       		.byte	0x10
 4461 04cb 09       		.uleb128 0x9
ARM GAS  /tmp/cclsZlw8.s 			page 80


 4462 04cc 130B0000 		.4byte	.LASF82
 4463 04d0 04       		.byte	0x4
 4464 04d1 E203     		.2byte	0x3e2
 4465 04d3 CA000000 		.4byte	0xca
 4466 04d7 14       		.byte	0x14
 4467 04d8 09       		.uleb128 0x9
 4468 04d9 9F000000 		.4byte	.LASF83
 4469 04dd 04       		.byte	0x4
 4470 04de E303     		.2byte	0x3e3
 4471 04e0 CF000000 		.4byte	0xcf
 4472 04e4 18       		.byte	0x18
 4473 04e5 00       		.byte	0
 4474 04e6 0C       		.uleb128 0xc
 4475 04e7 DB0A0000 		.4byte	.LASF84
 4476 04eb 04       		.byte	0x4
 4477 04ec E503     		.2byte	0x3e5
 4478 04ee 81040000 		.4byte	0x481
 4479 04f2 0E       		.uleb128 0xe
 4480 04f3 01       		.byte	0x1
 4481 04f4 05       		.byte	0x5
 4482 04f5 AB       		.byte	0xab
 4483 04f6 07050000 		.4byte	0x507
 4484 04fa 0F       		.uleb128 0xf
 4485 04fb A8000000 		.4byte	.LASF85
 4486 04ff 00       		.sleb128 0
 4487 0500 0F       		.uleb128 0xf
 4488 0501 CC010000 		.4byte	.LASF86
 4489 0505 01       		.sleb128 1
 4490 0506 00       		.byte	0
 4491 0507 10       		.uleb128 0x10
 4492 0508 04       		.byte	0x4
 4493 0509 02       		.uleb128 0x2
 4494 050a 01       		.byte	0x1
 4495 050b 08       		.byte	0x8
 4496 050c 63090000 		.4byte	.LASF87
 4497 0510 0E       		.uleb128 0xe
 4498 0511 01       		.byte	0x1
 4499 0512 06       		.byte	0x6
 4500 0513 3A       		.byte	0x3a
 4501 0514 31050000 		.4byte	0x531
 4502 0518 0F       		.uleb128 0xf
 4503 0519 C7030000 		.4byte	.LASF88
 4504 051d 00       		.sleb128 0
 4505 051e 0F       		.uleb128 0xf
 4506 051f 720A0000 		.4byte	.LASF89
 4507 0523 01       		.sleb128 1
 4508 0524 0F       		.uleb128 0xf
 4509 0525 9E0A0000 		.4byte	.LASF90
 4510 0529 02       		.sleb128 2
 4511 052a 0F       		.uleb128 0xf
 4512 052b 36030000 		.4byte	.LASF91
 4513 052f 03       		.sleb128 3
 4514 0530 00       		.byte	0
 4515 0531 03       		.uleb128 0x3
 4516 0532 BE040000 		.4byte	.LASF92
 4517 0536 06       		.byte	0x6
 4518 0537 3F       		.byte	0x3f
ARM GAS  /tmp/cclsZlw8.s 			page 81


 4519 0538 10050000 		.4byte	0x510
 4520 053c 0E       		.uleb128 0xe
 4521 053d 01       		.byte	0x1
 4522 053e 07       		.byte	0x7
 4523 053f 3F       		.byte	0x3f
 4524 0540 57050000 		.4byte	0x557
 4525 0544 0F       		.uleb128 0xf
 4526 0545 7D050000 		.4byte	.LASF93
 4527 0549 00       		.sleb128 0
 4528 054a 0F       		.uleb128 0xf
 4529 054b 72040000 		.4byte	.LASF94
 4530 054f 01       		.sleb128 1
 4531 0550 0F       		.uleb128 0xf
 4532 0551 CB060000 		.4byte	.LASF95
 4533 0555 02       		.sleb128 2
 4534 0556 00       		.byte	0
 4535 0557 03       		.uleb128 0x3
 4536 0558 F60A0000 		.4byte	.LASF96
 4537 055c 07       		.byte	0x7
 4538 055d 44       		.byte	0x44
 4539 055e 3C050000 		.4byte	0x53c
 4540 0562 0E       		.uleb128 0xe
 4541 0563 01       		.byte	0x1
 4542 0564 07       		.byte	0x7
 4543 0565 49       		.byte	0x49
 4544 0566 8F050000 		.4byte	0x58f
 4545 056a 0F       		.uleb128 0xf
 4546 056b C4070000 		.4byte	.LASF97
 4547 056f 00       		.sleb128 0
 4548 0570 0F       		.uleb128 0xf
 4549 0571 D0040000 		.4byte	.LASF98
 4550 0575 01       		.sleb128 1
 4551 0576 0F       		.uleb128 0xf
 4552 0577 C2090000 		.4byte	.LASF99
 4553 057b 02       		.sleb128 2
 4554 057c 0F       		.uleb128 0xf
 4555 057d A80B0000 		.4byte	.LASF100
 4556 0581 03       		.sleb128 3
 4557 0582 0F       		.uleb128 0xf
 4558 0583 550B0000 		.4byte	.LASF101
 4559 0587 04       		.sleb128 4
 4560 0588 0F       		.uleb128 0xf
 4561 0589 210B0000 		.4byte	.LASF102
 4562 058d 05       		.sleb128 5
 4563 058e 00       		.byte	0
 4564 058f 03       		.uleb128 0x3
 4565 0590 17060000 		.4byte	.LASF103
 4566 0594 07       		.byte	0x7
 4567 0595 51       		.byte	0x51
 4568 0596 62050000 		.4byte	0x562
 4569 059a 0E       		.uleb128 0xe
 4570 059b 01       		.byte	0x1
 4571 059c 07       		.byte	0x7
 4572 059d 56       		.byte	0x56
 4573 059e D9050000 		.4byte	0x5d9
 4574 05a2 0F       		.uleb128 0xf
 4575 05a3 F4000000 		.4byte	.LASF104
ARM GAS  /tmp/cclsZlw8.s 			page 82


 4576 05a7 00       		.sleb128 0
 4577 05a8 0F       		.uleb128 0xf
 4578 05a9 D30A0000 		.4byte	.LASF105
 4579 05ad 01       		.sleb128 1
 4580 05ae 0F       		.uleb128 0xf
 4581 05af 33090000 		.4byte	.LASF106
 4582 05b3 02       		.sleb128 2
 4583 05b4 0F       		.uleb128 0xf
 4584 05b5 F3040000 		.4byte	.LASF107
 4585 05b9 03       		.sleb128 3
 4586 05ba 0F       		.uleb128 0xf
 4587 05bb BB0A0000 		.4byte	.LASF108
 4588 05bf 04       		.sleb128 4
 4589 05c0 0F       		.uleb128 0xf
 4590 05c1 BE030000 		.4byte	.LASF109
 4591 05c5 05       		.sleb128 5
 4592 05c6 0F       		.uleb128 0xf
 4593 05c7 1E0A0000 		.4byte	.LASF110
 4594 05cb 06       		.sleb128 6
 4595 05cc 0F       		.uleb128 0xf
 4596 05cd 62050000 		.4byte	.LASF111
 4597 05d1 07       		.sleb128 7
 4598 05d2 0F       		.uleb128 0xf
 4599 05d3 CB0B0000 		.4byte	.LASF112
 4600 05d7 08       		.sleb128 8
 4601 05d8 00       		.byte	0
 4602 05d9 03       		.uleb128 0x3
 4603 05da 0F050000 		.4byte	.LASF113
 4604 05de 07       		.byte	0x7
 4605 05df 61       		.byte	0x61
 4606 05e0 9A050000 		.4byte	0x59a
 4607 05e4 11       		.uleb128 0x11
 4608 05e5 30       		.byte	0x30
 4609 05e6 07       		.byte	0x7
 4610 05e7 66       		.byte	0x66
 4611 05e8 7D060000 		.4byte	0x67d
 4612 05ec 12       		.uleb128 0x12
 4613 05ed 43010000 		.4byte	.LASF114
 4614 05f1 07       		.byte	0x7
 4615 05f2 68       		.byte	0x68
 4616 05f3 B8000000 		.4byte	0xb8
 4617 05f7 00       		.byte	0
 4618 05f8 12       		.uleb128 0x12
 4619 05f9 F3020000 		.4byte	.LASF115
 4620 05fd 07       		.byte	0x7
 4621 05fe 6C       		.byte	0x6c
 4622 05ff B8000000 		.4byte	0xb8
 4623 0603 04       		.byte	0x4
 4624 0604 12       		.uleb128 0x12
 4625 0605 460B0000 		.4byte	.LASF116
 4626 0609 07       		.byte	0x7
 4627 060a 70       		.byte	0x70
 4628 060b B8000000 		.4byte	0xb8
 4629 060f 08       		.byte	0x8
 4630 0610 12       		.uleb128 0x12
 4631 0611 F8050000 		.4byte	.LASF117
 4632 0615 07       		.byte	0x7
ARM GAS  /tmp/cclsZlw8.s 			page 83


 4633 0616 73       		.byte	0x73
 4634 0617 B8000000 		.4byte	0xb8
 4635 061b 0C       		.byte	0xc
 4636 061c 12       		.uleb128 0x12
 4637 061d 160A0000 		.4byte	.LASF118
 4638 0621 07       		.byte	0x7
 4639 0622 75       		.byte	0x75
 4640 0623 B8000000 		.4byte	0xb8
 4641 0627 10       		.byte	0x10
 4642 0628 12       		.uleb128 0x12
 4643 0629 26020000 		.4byte	.LASF119
 4644 062d 07       		.byte	0x7
 4645 062e 78       		.byte	0x78
 4646 062f B8000000 		.4byte	0xb8
 4647 0633 14       		.byte	0x14
 4648 0634 12       		.uleb128 0x12
 4649 0635 C80A0000 		.4byte	.LASF120
 4650 0639 07       		.byte	0x7
 4651 063a 7B       		.byte	0x7b
 4652 063b B8000000 		.4byte	0xb8
 4653 063f 18       		.byte	0x18
 4654 0640 12       		.uleb128 0x12
 4655 0641 B10B0000 		.4byte	.LASF121
 4656 0645 07       		.byte	0x7
 4657 0646 7D       		.byte	0x7d
 4658 0647 B8000000 		.4byte	0xb8
 4659 064b 1C       		.byte	0x1c
 4660 064c 12       		.uleb128 0x12
 4661 064d CD070000 		.4byte	.LASF122
 4662 0651 07       		.byte	0x7
 4663 0652 7F       		.byte	0x7f
 4664 0653 B8000000 		.4byte	0xb8
 4665 0657 20       		.byte	0x20
 4666 0658 12       		.uleb128 0x12
 4667 0659 2F010000 		.4byte	.LASF123
 4668 065d 07       		.byte	0x7
 4669 065e 81       		.byte	0x81
 4670 065f B8000000 		.4byte	0xb8
 4671 0663 24       		.byte	0x24
 4672 0664 12       		.uleb128 0x12
 4673 0665 39020000 		.4byte	.LASF124
 4674 0669 07       		.byte	0x7
 4675 066a 83       		.byte	0x83
 4676 066b B8000000 		.4byte	0xb8
 4677 066f 28       		.byte	0x28
 4678 0670 12       		.uleb128 0x12
 4679 0671 91050000 		.4byte	.LASF125
 4680 0675 07       		.byte	0x7
 4681 0676 85       		.byte	0x85
 4682 0677 B8000000 		.4byte	0xb8
 4683 067b 2C       		.byte	0x2c
 4684 067c 00       		.byte	0
 4685 067d 03       		.uleb128 0x3
 4686 067e 97030000 		.4byte	.LASF126
 4687 0682 07       		.byte	0x7
 4688 0683 87       		.byte	0x87
 4689 0684 E4050000 		.4byte	0x5e4
ARM GAS  /tmp/cclsZlw8.s 			page 84


 4690 0688 11       		.uleb128 0x11
 4691 0689 1C       		.byte	0x1c
 4692 068a 07       		.byte	0x7
 4693 068b 89       		.byte	0x89
 4694 068c 21070000 		.4byte	0x721
 4695 0690 13       		.uleb128 0x13
 4696 0691 6E756D00 		.ascii	"num\000"
 4697 0695 07       		.byte	0x7
 4698 0696 8B       		.byte	0x8b
 4699 0697 97000000 		.4byte	0x97
 4700 069b 00       		.byte	0
 4701 069c 12       		.uleb128 0x12
 4702 069d 51010000 		.4byte	.LASF127
 4703 06a1 07       		.byte	0x7
 4704 06a2 8E       		.byte	0x8e
 4705 06a3 97000000 		.4byte	0x97
 4706 06a7 01       		.byte	0x1
 4707 06a8 12       		.uleb128 0x12
 4708 06a9 D7020000 		.4byte	.LASF128
 4709 06ad 07       		.byte	0x7
 4710 06ae 91       		.byte	0x91
 4711 06af 97000000 		.4byte	0x97
 4712 06b3 02       		.byte	0x2
 4713 06b4 12       		.uleb128 0x12
 4714 06b5 9A000000 		.4byte	.LASF129
 4715 06b9 07       		.byte	0x7
 4716 06ba 94       		.byte	0x94
 4717 06bb 97000000 		.4byte	0x97
 4718 06bf 03       		.byte	0x3
 4719 06c0 12       		.uleb128 0x12
 4720 06c1 85070000 		.4byte	.LASF130
 4721 06c5 07       		.byte	0x7
 4722 06c6 97       		.byte	0x97
 4723 06c7 97000000 		.4byte	0x97
 4724 06cb 04       		.byte	0x4
 4725 06cc 12       		.uleb128 0x12
 4726 06cd 50000000 		.4byte	.LASF131
 4727 06d1 07       		.byte	0x7
 4728 06d2 9A       		.byte	0x9a
 4729 06d3 97000000 		.4byte	0x97
 4730 06d7 05       		.byte	0x5
 4731 06d8 12       		.uleb128 0x12
 4732 06d9 570A0000 		.4byte	.LASF132
 4733 06dd 07       		.byte	0x7
 4734 06de 9D       		.byte	0x9d
 4735 06df A2000000 		.4byte	0xa2
 4736 06e3 06       		.byte	0x6
 4737 06e4 12       		.uleb128 0x12
 4738 06e5 53060000 		.4byte	.LASF133
 4739 06e9 07       		.byte	0x7
 4740 06ea A0       		.byte	0xa0
 4741 06eb B8000000 		.4byte	0xb8
 4742 06ef 08       		.byte	0x8
 4743 06f0 12       		.uleb128 0x12
 4744 06f1 940A0000 		.4byte	.LASF134
 4745 06f5 07       		.byte	0x7
 4746 06f6 A3       		.byte	0xa3
ARM GAS  /tmp/cclsZlw8.s 			page 85


 4747 06f7 21070000 		.4byte	0x721
 4748 06fb 0C       		.byte	0xc
 4749 06fc 12       		.uleb128 0x12
 4750 06fd 0A0B0000 		.4byte	.LASF135
 4751 0701 07       		.byte	0x7
 4752 0702 A5       		.byte	0xa5
 4753 0703 B8000000 		.4byte	0xb8
 4754 0707 10       		.byte	0x10
 4755 0708 12       		.uleb128 0x12
 4756 0709 50050000 		.4byte	.LASF136
 4757 070d 07       		.byte	0x7
 4758 070e A7       		.byte	0xa7
 4759 070f B8000000 		.4byte	0xb8
 4760 0713 14       		.byte	0x14
 4761 0714 12       		.uleb128 0x12
 4762 0715 68020000 		.4byte	.LASF137
 4763 0719 07       		.byte	0x7
 4764 071a A9       		.byte	0xa9
 4765 071b B8000000 		.4byte	0xb8
 4766 071f 18       		.byte	0x18
 4767 0720 00       		.byte	0
 4768 0721 14       		.uleb128 0x14
 4769 0722 04       		.byte	0x4
 4770 0723 97000000 		.4byte	0x97
 4771 0727 03       		.uleb128 0x3
 4772 0728 74090000 		.4byte	.LASF138
 4773 072c 07       		.byte	0x7
 4774 072d AB       		.byte	0xab
 4775 072e 88060000 		.4byte	0x688
 4776 0732 11       		.uleb128 0x11
 4777 0733 28       		.byte	0x28
 4778 0734 07       		.byte	0x7
 4779 0735 AD       		.byte	0xad
 4780 0736 1F080000 		.4byte	0x81f
 4781 073a 12       		.uleb128 0x12
 4782 073b 8E010000 		.4byte	.LASF139
 4783 073f 07       		.byte	0x7
 4784 0740 AF       		.byte	0xaf
 4785 0741 97000000 		.4byte	0x97
 4786 0745 00       		.byte	0
 4787 0746 12       		.uleb128 0x12
 4788 0747 B1010000 		.4byte	.LASF140
 4789 074b 07       		.byte	0x7
 4790 074c B2       		.byte	0xb2
 4791 074d 97000000 		.4byte	0x97
 4792 0751 01       		.byte	0x1
 4793 0752 12       		.uleb128 0x12
 4794 0753 E2040000 		.4byte	.LASF141
 4795 0757 07       		.byte	0x7
 4796 0758 B5       		.byte	0xb5
 4797 0759 97000000 		.4byte	0x97
 4798 075d 02       		.byte	0x2
 4799 075e 12       		.uleb128 0x12
 4800 075f D9040000 		.4byte	.LASF142
 4801 0763 07       		.byte	0x7
 4802 0764 B8       		.byte	0xb8
 4803 0765 97000000 		.4byte	0x97
ARM GAS  /tmp/cclsZlw8.s 			page 86


 4804 0769 03       		.byte	0x3
 4805 076a 12       		.uleb128 0x12
 4806 076b 460B0000 		.4byte	.LASF116
 4807 076f 07       		.byte	0x7
 4808 0770 BB       		.byte	0xbb
 4809 0771 97000000 		.4byte	0x97
 4810 0775 04       		.byte	0x4
 4811 0776 12       		.uleb128 0x12
 4812 0777 CF020000 		.4byte	.LASF143
 4813 077b 07       		.byte	0x7
 4814 077c BE       		.byte	0xbe
 4815 077d 97000000 		.4byte	0x97
 4816 0781 05       		.byte	0x5
 4817 0782 12       		.uleb128 0x12
 4818 0783 4F040000 		.4byte	.LASF144
 4819 0787 07       		.byte	0x7
 4820 0788 C0       		.byte	0xc0
 4821 0789 97000000 		.4byte	0x97
 4822 078d 06       		.byte	0x6
 4823 078e 12       		.uleb128 0x12
 4824 078f 7C0A0000 		.4byte	.LASF145
 4825 0793 07       		.byte	0x7
 4826 0794 C2       		.byte	0xc2
 4827 0795 97000000 		.4byte	0x97
 4828 0799 07       		.byte	0x7
 4829 079a 12       		.uleb128 0x12
 4830 079b B2090000 		.4byte	.LASF146
 4831 079f 07       		.byte	0x7
 4832 07a0 C5       		.byte	0xc5
 4833 07a1 A2000000 		.4byte	0xa2
 4834 07a5 08       		.byte	0x8
 4835 07a6 12       		.uleb128 0x12
 4836 07a7 59050000 		.4byte	.LASF147
 4837 07ab 07       		.byte	0x7
 4838 07ac C8       		.byte	0xc8
 4839 07ad 97000000 		.4byte	0x97
 4840 07b1 0A       		.byte	0xa
 4841 07b2 12       		.uleb128 0x12
 4842 07b3 940A0000 		.4byte	.LASF134
 4843 07b7 07       		.byte	0x7
 4844 07b8 CB       		.byte	0xcb
 4845 07b9 21070000 		.4byte	0x721
 4846 07bd 0C       		.byte	0xc
 4847 07be 12       		.uleb128 0x12
 4848 07bf 50050000 		.4byte	.LASF136
 4849 07c3 07       		.byte	0x7
 4850 07c4 CD       		.byte	0xcd
 4851 07c5 B8000000 		.4byte	0xb8
 4852 07c9 10       		.byte	0x10
 4853 07ca 12       		.uleb128 0x12
 4854 07cb 68020000 		.4byte	.LASF137
 4855 07cf 07       		.byte	0x7
 4856 07d0 CF       		.byte	0xcf
 4857 07d1 B8000000 		.4byte	0xb8
 4858 07d5 14       		.byte	0x14
 4859 07d6 12       		.uleb128 0x12
 4860 07d7 E8050000 		.4byte	.LASF148
ARM GAS  /tmp/cclsZlw8.s 			page 87


 4861 07db 07       		.byte	0x7
 4862 07dc D1       		.byte	0xd1
 4863 07dd 97000000 		.4byte	0x97
 4864 07e1 18       		.byte	0x18
 4865 07e2 12       		.uleb128 0x12
 4866 07e3 E9000000 		.4byte	.LASF149
 4867 07e7 07       		.byte	0x7
 4868 07e8 D4       		.byte	0xd4
 4869 07e9 97000000 		.4byte	0x97
 4870 07ed 19       		.byte	0x19
 4871 07ee 12       		.uleb128 0x12
 4872 07ef 0A0B0000 		.4byte	.LASF135
 4873 07f3 07       		.byte	0x7
 4874 07f4 D7       		.byte	0xd7
 4875 07f5 B8000000 		.4byte	0xb8
 4876 07f9 1C       		.byte	0x1c
 4877 07fa 12       		.uleb128 0x12
 4878 07fb 390B0000 		.4byte	.LASF150
 4879 07ff 07       		.byte	0x7
 4880 0800 D9       		.byte	0xd9
 4881 0801 B8000000 		.4byte	0xb8
 4882 0805 20       		.byte	0x20
 4883 0806 12       		.uleb128 0x12
 4884 0807 E9040000 		.4byte	.LASF151
 4885 080b 07       		.byte	0x7
 4886 080c DB       		.byte	0xdb
 4887 080d 8F050000 		.4byte	0x58f
 4888 0811 24       		.byte	0x24
 4889 0812 12       		.uleb128 0x12
 4890 0813 ED010000 		.4byte	.LASF152
 4891 0817 07       		.byte	0x7
 4892 0818 DE       		.byte	0xde
 4893 0819 D9050000 		.4byte	0x5d9
 4894 081d 25       		.byte	0x25
 4895 081e 00       		.byte	0
 4896 081f 03       		.uleb128 0x3
 4897 0820 CB050000 		.4byte	.LASF153
 4898 0824 07       		.byte	0x7
 4899 0825 E1       		.byte	0xe1
 4900 0826 32070000 		.4byte	0x732
 4901 082a 15       		.uleb128 0x15
 4902 082b 42030000 		.4byte	.LASF221
 4903 082f 01       		.byte	0x1
 4904 0830 4404     		.2byte	0x444
 4905 0832 31050000 		.4byte	0x531
 4906 0836 01       		.byte	0x1
 4907 0837 54080000 		.4byte	0x854
 4908 083b 16       		.uleb128 0x16
 4909 083c 40000000 		.4byte	.LASF154
 4910 0840 01       		.byte	0x1
 4911 0841 4404     		.2byte	0x444
 4912 0843 54080000 		.4byte	0x854
 4913 0847 17       		.uleb128 0x17
 4914 0848 00000000 		.4byte	.LASF157
 4915 084c 01       		.byte	0x1
 4916 084d 4604     		.2byte	0x446
 4917 084f B8000000 		.4byte	0xb8
ARM GAS  /tmp/cclsZlw8.s 			page 88


 4918 0853 00       		.byte	0
 4919 0854 14       		.uleb128 0x14
 4920 0855 04       		.byte	0x4
 4921 0856 FB010000 		.4byte	0x1fb
 4922 085a 18       		.uleb128 0x18
 4923 085b 69060000 		.4byte	.LASF155
 4924 085f 01       		.byte	0x1
 4925 0860 8D01     		.2byte	0x18d
 4926 0862 31050000 		.4byte	0x531
 4927 0866 01       		.byte	0x1
 4928 0867 84080000 		.4byte	0x884
 4929 086b 16       		.uleb128 0x16
 4930 086c 40000000 		.4byte	.LASF154
 4931 0870 01       		.byte	0x1
 4932 0871 8D01     		.2byte	0x18d
 4933 0873 54080000 		.4byte	0x854
 4934 0877 16       		.uleb128 0x16
 4935 0878 460B0000 		.4byte	.LASF116
 4936 087c 01       		.byte	0x1
 4937 087d 8D01     		.2byte	0x18d
 4938 087f 97000000 		.4byte	0x97
 4939 0883 00       		.byte	0
 4940 0884 18       		.uleb128 0x18
 4941 0885 12090000 		.4byte	.LASF156
 4942 0889 01       		.byte	0x1
 4943 088a 5701     		.2byte	0x157
 4944 088c 31050000 		.4byte	0x531
 4945 0890 01       		.byte	0x1
 4946 0891 BA080000 		.4byte	0x8ba
 4947 0895 16       		.uleb128 0x16
 4948 0896 40000000 		.4byte	.LASF154
 4949 089a 01       		.byte	0x1
 4950 089b 5701     		.2byte	0x157
 4951 089d 54080000 		.4byte	0x854
 4952 08a1 19       		.uleb128 0x19
 4953 08a2 6E756D00 		.ascii	"num\000"
 4954 08a6 01       		.byte	0x1
 4955 08a7 5701     		.2byte	0x157
 4956 08a9 B8000000 		.4byte	0xb8
 4957 08ad 17       		.uleb128 0x17
 4958 08ae 00000000 		.4byte	.LASF157
 4959 08b2 01       		.byte	0x1
 4960 08b3 5901     		.2byte	0x159
 4961 08b5 B8000000 		.4byte	0xb8
 4962 08b9 00       		.byte	0
 4963 08ba 18       		.uleb128 0x18
 4964 08bb DD010000 		.4byte	.LASF158
 4965 08bf 01       		.byte	0x1
 4966 08c0 6F01     		.2byte	0x16f
 4967 08c2 31050000 		.4byte	0x531
 4968 08c6 01       		.byte	0x1
 4969 08c7 E4080000 		.4byte	0x8e4
 4970 08cb 16       		.uleb128 0x16
 4971 08cc 40000000 		.4byte	.LASF154
 4972 08d0 01       		.byte	0x1
 4973 08d1 6F01     		.2byte	0x16f
 4974 08d3 54080000 		.4byte	0x854
ARM GAS  /tmp/cclsZlw8.s 			page 89


 4975 08d7 17       		.uleb128 0x17
 4976 08d8 00000000 		.4byte	.LASF157
 4977 08dc 01       		.byte	0x1
 4978 08dd 7101     		.2byte	0x171
 4979 08df B8000000 		.4byte	0xb8
 4980 08e3 00       		.byte	0
 4981 08e4 18       		.uleb128 0x18
 4982 08e5 0F000000 		.4byte	.LASF159
 4983 08e9 01       		.byte	0x1
 4984 08ea 0703     		.2byte	0x307
 4985 08ec 31050000 		.4byte	0x531
 4986 08f0 01       		.byte	0x1
 4987 08f1 48090000 		.4byte	0x948
 4988 08f5 16       		.uleb128 0x16
 4989 08f6 40000000 		.4byte	.LASF154
 4990 08fa 01       		.byte	0x1
 4991 08fb 0703     		.2byte	0x307
 4992 08fd 54080000 		.4byte	0x854
 4993 0901 19       		.uleb128 0x19
 4994 0902 73726300 		.ascii	"src\000"
 4995 0906 01       		.byte	0x1
 4996 0907 0703     		.2byte	0x307
 4997 0909 21070000 		.4byte	0x721
 4998 090d 16       		.uleb128 0x16
 4999 090e E5090000 		.4byte	.LASF160
 5000 0912 01       		.byte	0x1
 5001 0913 0703     		.2byte	0x307
 5002 0915 97000000 		.4byte	0x97
 5003 0919 19       		.uleb128 0x19
 5004 091a 6C656E00 		.ascii	"len\000"
 5005 091e 01       		.byte	0x1
 5006 091f 0703     		.2byte	0x307
 5007 0921 A2000000 		.4byte	0xa2
 5008 0925 19       		.uleb128 0x19
 5009 0926 646D6100 		.ascii	"dma\000"
 5010 092a 01       		.byte	0x1
 5011 092b 0703     		.2byte	0x307
 5012 092d 97000000 		.4byte	0x97
 5013 0931 17       		.uleb128 0x17
 5014 0932 7A000000 		.4byte	.LASF161
 5015 0936 01       		.byte	0x1
 5016 0937 0903     		.2byte	0x309
 5017 0939 B8000000 		.4byte	0xb8
 5018 093d 1A       		.uleb128 0x1a
 5019 093e 6900     		.ascii	"i\000"
 5020 0940 01       		.byte	0x1
 5021 0941 0903     		.2byte	0x309
 5022 0943 B8000000 		.4byte	0xb8
 5023 0947 00       		.byte	0
 5024 0948 18       		.uleb128 0x18
 5025 0949 DD050000 		.4byte	.LASF162
 5026 094d 01       		.byte	0x1
 5027 094e 7406     		.2byte	0x674
 5028 0950 31050000 		.4byte	0x531
 5029 0954 01       		.byte	0x1
 5030 0955 7E090000 		.4byte	0x97e
 5031 0959 16       		.uleb128 0x16
ARM GAS  /tmp/cclsZlw8.s 			page 90


 5032 095a 40000000 		.4byte	.LASF154
 5033 095e 01       		.byte	0x1
 5034 095f 7406     		.2byte	0x674
 5035 0961 54080000 		.4byte	0x854
 5036 0965 16       		.uleb128 0x16
 5037 0966 B1010000 		.4byte	.LASF140
 5038 096a 01       		.byte	0x1
 5039 096b 7406     		.2byte	0x674
 5040 096d 97000000 		.4byte	0x97
 5041 0971 17       		.uleb128 0x17
 5042 0972 68090000 		.4byte	.LASF163
 5043 0976 01       		.byte	0x1
 5044 0977 7606     		.2byte	0x676
 5045 0979 97000000 		.4byte	0x97
 5046 097d 00       		.byte	0
 5047 097e 1B       		.uleb128 0x1b
 5048 097f FA040000 		.4byte	.LASF164
 5049 0983 01       		.byte	0x1
 5050 0984 9F       		.byte	0x9f
 5051 0985 31050000 		.4byte	0x531
 5052 0989 01       		.byte	0x1
 5053 098a 9A090000 		.4byte	0x99a
 5054 098e 1C       		.uleb128 0x1c
 5055 098f 40000000 		.4byte	.LASF154
 5056 0993 01       		.byte	0x1
 5057 0994 9F       		.byte	0x9f
 5058 0995 54080000 		.4byte	0x854
 5059 0999 00       		.byte	0
 5060 099a 1B       		.uleb128 0x1b
 5061 099b 37060000 		.4byte	.LASF165
 5062 099f 01       		.byte	0x1
 5063 09a0 92       		.byte	0x92
 5064 09a1 31050000 		.4byte	0x531
 5065 09a5 01       		.byte	0x1
 5066 09a6 B6090000 		.4byte	0x9b6
 5067 09aa 1C       		.uleb128 0x1c
 5068 09ab 40000000 		.4byte	.LASF154
 5069 09af 01       		.byte	0x1
 5070 09b0 92       		.byte	0x92
 5071 09b1 54080000 		.4byte	0x854
 5072 09b5 00       		.byte	0
 5073 09b6 1D       		.uleb128 0x1d
 5074 09b7 2A080000 		.4byte	0x82a
 5075 09bb 00000000 		.4byte	.LFB155
 5076 09bf 34000000 		.4byte	.LFE155-.LFB155
 5077 09c3 01       		.uleb128 0x1
 5078 09c4 9C       		.byte	0x9c
 5079 09c5 020A0000 		.4byte	0xa02
 5080 09c9 1E       		.uleb128 0x1e
 5081 09ca 3B080000 		.4byte	0x83b
 5082 09ce 00000000 		.4byte	.LLST0
 5083 09d2 1F       		.uleb128 0x1f
 5084 09d3 47080000 		.4byte	0x847
 5085 09d7 3A000000 		.4byte	.LLST1
 5086 09db 20       		.uleb128 0x20
 5087 09dc 1A000000 		.4byte	.LBB36
 5088 09e0 0E000000 		.4byte	.LBE36-.LBB36
ARM GAS  /tmp/cclsZlw8.s 			page 91


 5089 09e4 1E       		.uleb128 0x1e
 5090 09e5 3B080000 		.4byte	0x83b
 5091 09e9 93000000 		.4byte	.LLST2
 5092 09ed 20       		.uleb128 0x20
 5093 09ee 1A000000 		.4byte	.LBB37
 5094 09f2 0E000000 		.4byte	.LBE37-.LBB37
 5095 09f6 1F       		.uleb128 0x1f
 5096 09f7 47080000 		.4byte	0x847
 5097 09fb B4000000 		.4byte	.LLST3
 5098 09ff 00       		.byte	0
 5099 0a00 00       		.byte	0
 5100 0a01 00       		.byte	0
 5101 0a02 1D       		.uleb128 0x1d
 5102 0a03 E4080000 		.4byte	0x8e4
 5103 0a07 40000000 		.4byte	.LFB169
 5104 0a0b 28000000 		.4byte	.LFE169-.LFB169
 5105 0a0f 01       		.uleb128 0x1
 5106 0a10 9C       		.byte	0x9c
 5107 0a11 580A0000 		.4byte	0xa58
 5108 0a15 1E       		.uleb128 0x1e
 5109 0a16 F5080000 		.4byte	0x8f5
 5110 0a1a 01010000 		.4byte	.LLST4
 5111 0a1e 1E       		.uleb128 0x1e
 5112 0a1f 01090000 		.4byte	0x901
 5113 0a23 49010000 		.4byte	.LLST5
 5114 0a27 1E       		.uleb128 0x1e
 5115 0a28 0D090000 		.4byte	0x90d
 5116 0a2c 67010000 		.4byte	.LLST6
 5117 0a30 1E       		.uleb128 0x1e
 5118 0a31 19090000 		.4byte	0x919
 5119 0a35 93010000 		.4byte	.LLST7
 5120 0a39 1F       		.uleb128 0x1f
 5121 0a3a 31090000 		.4byte	0x931
 5122 0a3e B4010000 		.4byte	.LLST8
 5123 0a42 1F       		.uleb128 0x1f
 5124 0a43 3D090000 		.4byte	0x93d
 5125 0a47 D6010000 		.4byte	.LLST9
 5126 0a4b 21       		.uleb128 0x21
 5127 0a4c 25090000 		.4byte	0x925
 5128 0a50 06       		.uleb128 0x6
 5129 0a51 FA       		.byte	0xfa
 5130 0a52 25090000 		.4byte	0x925
 5131 0a56 9F       		.byte	0x9f
 5132 0a57 00       		.byte	0
 5133 0a58 22       		.uleb128 0x22
 5134 0a59 11030000 		.4byte	.LASF166
 5135 0a5d 01       		.byte	0x1
 5136 0a5e 63       		.byte	0x63
 5137 0a5f 31050000 		.4byte	0x531
 5138 0a63 70000000 		.4byte	.LFB123
 5139 0a67 78000000 		.4byte	.LFE123-.LFB123
 5140 0a6b 01       		.uleb128 0x1
 5141 0a6c 9C       		.byte	0x9c
 5142 0a6d B30A0000 		.4byte	0xab3
 5143 0a71 23       		.uleb128 0x23
 5144 0a72 40000000 		.4byte	.LASF154
 5145 0a76 01       		.byte	0x1
ARM GAS  /tmp/cclsZlw8.s 			page 92


 5146 0a77 63       		.byte	0x63
 5147 0a78 54080000 		.4byte	0x854
 5148 0a7c 01020000 		.4byte	.LLST10
 5149 0a80 24       		.uleb128 0x24
 5150 0a81 63666700 		.ascii	"cfg\000"
 5151 0a85 01       		.byte	0x1
 5152 0a86 63       		.byte	0x63
 5153 0a87 7D060000 		.4byte	0x67d
 5154 0a8b 02       		.uleb128 0x2
 5155 0a8c 91       		.byte	0x91
 5156 0a8d 74       		.sleb128 -12
 5157 0a8e 25       		.uleb128 0x25
 5158 0a8f 8E000000 		.4byte	.LVL25
 5159 0a93 2A080000 		.4byte	0x82a
 5160 0a97 A20A0000 		.4byte	0xaa2
 5161 0a9b 26       		.uleb128 0x26
 5162 0a9c 01       		.uleb128 0x1
 5163 0a9d 50       		.byte	0x50
 5164 0a9e 02       		.uleb128 0x2
 5165 0a9f 74       		.byte	0x74
 5166 0aa0 00       		.sleb128 0
 5167 0aa1 00       		.byte	0
 5168 0aa2 27       		.uleb128 0x27
 5169 0aa3 DC000000 		.4byte	.LVL29
 5170 0aa7 2A080000 		.4byte	0x82a
 5171 0aab 26       		.uleb128 0x26
 5172 0aac 01       		.uleb128 0x1
 5173 0aad 50       		.byte	0x50
 5174 0aae 02       		.uleb128 0x2
 5175 0aaf 74       		.byte	0x74
 5176 0ab0 00       		.sleb128 0
 5177 0ab1 00       		.byte	0
 5178 0ab2 00       		.byte	0
 5179 0ab3 1D       		.uleb128 0x1d
 5180 0ab4 9A090000 		.4byte	0x99a
 5181 0ab8 F0000000 		.4byte	.LFB124
 5182 0abc 0E000000 		.4byte	.LFE124-.LFB124
 5183 0ac0 01       		.uleb128 0x1
 5184 0ac1 9C       		.byte	0x9c
 5185 0ac2 D00A0000 		.4byte	0xad0
 5186 0ac6 1E       		.uleb128 0x1e
 5187 0ac7 AA090000 		.4byte	0x9aa
 5188 0acb 4E020000 		.4byte	.LLST11
 5189 0acf 00       		.byte	0
 5190 0ad0 1D       		.uleb128 0x1d
 5191 0ad1 7E090000 		.4byte	0x97e
 5192 0ad5 00010000 		.4byte	.LFB125
 5193 0ad9 0E000000 		.4byte	.LFE125-.LFB125
 5194 0add 01       		.uleb128 0x1
 5195 0ade 9C       		.byte	0x9c
 5196 0adf ED0A0000 		.4byte	0xaed
 5197 0ae3 1E       		.uleb128 0x1e
 5198 0ae4 8E090000 		.4byte	0x98e
 5199 0ae8 6C020000 		.4byte	.LLST12
 5200 0aec 00       		.byte	0
 5201 0aed 22       		.uleb128 0x22
 5202 0aee D8070000 		.4byte	.LASF167
ARM GAS  /tmp/cclsZlw8.s 			page 93


 5203 0af2 01       		.byte	0x1
 5204 0af3 AF       		.byte	0xaf
 5205 0af4 31050000 		.4byte	0x531
 5206 0af8 10010000 		.4byte	.LFB126
 5207 0afc 34000000 		.4byte	.LFE126-.LFB126
 5208 0b00 01       		.uleb128 0x1
 5209 0b01 9C       		.byte	0x9c
 5210 0b02 490B0000 		.4byte	0xb49
 5211 0b06 23       		.uleb128 0x23
 5212 0b07 40000000 		.4byte	.LASF154
 5213 0b0b 01       		.byte	0x1
 5214 0b0c AF       		.byte	0xaf
 5215 0b0d 54080000 		.4byte	0x854
 5216 0b11 8A020000 		.4byte	.LLST13
 5217 0b15 23       		.uleb128 0x23
 5218 0b16 86090000 		.4byte	.LASF168
 5219 0b1a 01       		.byte	0x1
 5220 0b1b AF       		.byte	0xaf
 5221 0b1c 57050000 		.4byte	0x557
 5222 0b20 C4020000 		.4byte	.LLST14
 5223 0b24 25       		.uleb128 0x25
 5224 0b25 2E010000 		.4byte	.LVL37
 5225 0b29 5B190000 		.4byte	0x195b
 5226 0b2d 380B0000 		.4byte	0xb38
 5227 0b31 26       		.uleb128 0x26
 5228 0b32 01       		.uleb128 0x1
 5229 0b33 50       		.byte	0x50
 5230 0b34 02       		.uleb128 0x2
 5231 0b35 08       		.byte	0x8
 5232 0b36 32       		.byte	0x32
 5233 0b37 00       		.byte	0
 5234 0b38 27       		.uleb128 0x27
 5235 0b39 40010000 		.4byte	.LVL40
 5236 0b3d 5B190000 		.4byte	0x195b
 5237 0b41 26       		.uleb128 0x26
 5238 0b42 01       		.uleb128 0x1
 5239 0b43 50       		.byte	0x50
 5240 0b44 02       		.uleb128 0x2
 5241 0b45 08       		.byte	0x8
 5242 0b46 32       		.byte	0x32
 5243 0b47 00       		.byte	0
 5244 0b48 00       		.byte	0
 5245 0b49 22       		.uleb128 0x22
 5246 0b4a 73020000 		.4byte	.LASF169
 5247 0b4e 01       		.byte	0x1
 5248 0b4f C8       		.byte	0xc8
 5249 0b50 31050000 		.4byte	0x531
 5250 0b54 50010000 		.4byte	.LFB127
 5251 0b58 74010000 		.4byte	.LFE127-.LFB127
 5252 0b5c 01       		.uleb128 0x1
 5253 0b5d 9C       		.byte	0x9c
 5254 0b5e 600C0000 		.4byte	0xc60
 5255 0b62 23       		.uleb128 0x23
 5256 0b63 40000000 		.4byte	.LASF154
 5257 0b67 01       		.byte	0x1
 5258 0b68 C8       		.byte	0xc8
 5259 0b69 54080000 		.4byte	0x854
ARM GAS  /tmp/cclsZlw8.s 			page 94


 5260 0b6d FE020000 		.4byte	.LLST15
 5261 0b71 28       		.uleb128 0x28
 5262 0b72 63666700 		.ascii	"cfg\000"
 5263 0b76 01       		.byte	0x1
 5264 0b77 C8       		.byte	0xc8
 5265 0b78 7D060000 		.4byte	0x67d
 5266 0b7c 2A030000 		.4byte	.LLST16
 5267 0b80 29       		.uleb128 0x29
 5268 0b81 6900     		.ascii	"i\000"
 5269 0b83 01       		.byte	0x1
 5270 0b84 CA       		.byte	0xca
 5271 0b85 B8000000 		.4byte	0xb8
 5272 0b89 9F030000 		.4byte	.LLST17
 5273 0b8d 2A       		.uleb128 0x2a
 5274 0b8e 5A080000 		.4byte	0x85a
 5275 0b92 94010000 		.4byte	.LBB38
 5276 0b96 0C000000 		.4byte	.LBE38-.LBB38
 5277 0b9a 01       		.byte	0x1
 5278 0b9b F8       		.byte	0xf8
 5279 0b9c B30B0000 		.4byte	0xbb3
 5280 0ba0 1E       		.uleb128 0x1e
 5281 0ba1 77080000 		.4byte	0x877
 5282 0ba5 E1030000 		.4byte	.LLST18
 5283 0ba9 1E       		.uleb128 0x1e
 5284 0baa 6B080000 		.4byte	0x86b
 5285 0bae F5030000 		.4byte	.LLST19
 5286 0bb2 00       		.byte	0
 5287 0bb3 2A       		.uleb128 0x2a
 5288 0bb4 84080000 		.4byte	0x884
 5289 0bb8 A0010000 		.4byte	.LBB40
 5290 0bbc 14000000 		.4byte	.LBE40-.LBB40
 5291 0bc0 01       		.byte	0x1
 5292 0bc1 FC       		.byte	0xfc
 5293 0bc2 EC0B0000 		.4byte	0xbec
 5294 0bc6 1E       		.uleb128 0x1e
 5295 0bc7 A1080000 		.4byte	0x8a1
 5296 0bcb 08040000 		.4byte	.LLST20
 5297 0bcf 1E       		.uleb128 0x1e
 5298 0bd0 95080000 		.4byte	0x895
 5299 0bd4 1C040000 		.4byte	.LLST21
 5300 0bd8 20       		.uleb128 0x20
 5301 0bd9 A0010000 		.4byte	.LBB41
 5302 0bdd 14000000 		.4byte	.LBE41-.LBB41
 5303 0be1 1F       		.uleb128 0x1f
 5304 0be2 AD080000 		.4byte	0x8ad
 5305 0be6 48040000 		.4byte	.LLST22
 5306 0bea 00       		.byte	0
 5307 0beb 00       		.byte	0
 5308 0bec 2A       		.uleb128 0x2a
 5309 0bed BA080000 		.4byte	0x8ba
 5310 0bf1 B4010000 		.4byte	.LBB42
 5311 0bf5 12000000 		.4byte	.LBE42-.LBB42
 5312 0bf9 01       		.byte	0x1
 5313 0bfa FD       		.byte	0xfd
 5314 0bfb 1C0C0000 		.4byte	0xc1c
 5315 0bff 1E       		.uleb128 0x1e
 5316 0c00 CB080000 		.4byte	0x8cb
ARM GAS  /tmp/cclsZlw8.s 			page 95


 5317 0c04 A1040000 		.4byte	.LLST23
 5318 0c08 20       		.uleb128 0x20
 5319 0c09 B4010000 		.4byte	.LBB43
 5320 0c0d 12000000 		.4byte	.LBE43-.LBB43
 5321 0c11 1F       		.uleb128 0x1f
 5322 0c12 D7080000 		.4byte	0x8d7
 5323 0c16 CD040000 		.4byte	.LLST24
 5324 0c1a 00       		.byte	0
 5325 0c1b 00       		.byte	0
 5326 0c1c 2A       		.uleb128 0x2a
 5327 0c1d 5A080000 		.4byte	0x85a
 5328 0c21 A0020000 		.4byte	.LBB44
 5329 0c25 0A000000 		.4byte	.LBE44-.LBB44
 5330 0c29 01       		.byte	0x1
 5331 0c2a ED       		.byte	0xed
 5332 0c2b 420C0000 		.4byte	0xc42
 5333 0c2f 1E       		.uleb128 0x1e
 5334 0c30 77080000 		.4byte	0x877
 5335 0c34 26050000 		.4byte	.LLST25
 5336 0c38 1E       		.uleb128 0x1e
 5337 0c39 6B080000 		.4byte	0x86b
 5338 0c3d 3A050000 		.4byte	.LLST26
 5339 0c41 00       		.byte	0
 5340 0c42 2B       		.uleb128 0x2b
 5341 0c43 5A080000 		.4byte	0x85a
 5342 0c47 AA020000 		.4byte	.LBB46
 5343 0c4b 1A000000 		.4byte	.LBE46-.LBB46
 5344 0c4f 01       		.byte	0x1
 5345 0c50 F2       		.byte	0xf2
 5346 0c51 2C       		.uleb128 0x2c
 5347 0c52 77080000 		.4byte	0x877
 5348 0c56 01       		.byte	0x1
 5349 0c57 21       		.uleb128 0x21
 5350 0c58 6B080000 		.4byte	0x86b
 5351 0c5c 01       		.uleb128 0x1
 5352 0c5d 50       		.byte	0x50
 5353 0c5e 00       		.byte	0
 5354 0c5f 00       		.byte	0
 5355 0c60 1D       		.uleb128 0x1d
 5356 0c61 84080000 		.4byte	0x884
 5357 0c65 D0020000 		.4byte	.LFB128
 5358 0c69 24000000 		.4byte	.LFE128-.LFB128
 5359 0c6d 01       		.uleb128 0x1
 5360 0c6e 9C       		.byte	0x9c
 5361 0c6f 8F0C0000 		.4byte	0xc8f
 5362 0c73 1E       		.uleb128 0x1e
 5363 0c74 95080000 		.4byte	0x895
 5364 0c78 4D050000 		.4byte	.LLST27
 5365 0c7c 1E       		.uleb128 0x1e
 5366 0c7d A1080000 		.4byte	0x8a1
 5367 0c81 87050000 		.4byte	.LLST28
 5368 0c85 1F       		.uleb128 0x1f
 5369 0c86 AD080000 		.4byte	0x8ad
 5370 0c8a A8050000 		.4byte	.LLST29
 5371 0c8e 00       		.byte	0
 5372 0c8f 1D       		.uleb128 0x1d
 5373 0c90 BA080000 		.4byte	0x8ba
ARM GAS  /tmp/cclsZlw8.s 			page 96


 5374 0c94 00030000 		.4byte	.LFB129
 5375 0c98 20000000 		.4byte	.LFE129-.LFB129
 5376 0c9c 01       		.uleb128 0x1
 5377 0c9d 9C       		.byte	0x9c
 5378 0c9e B50C0000 		.4byte	0xcb5
 5379 0ca2 1E       		.uleb128 0x1e
 5380 0ca3 CB080000 		.4byte	0x8cb
 5381 0ca7 14060000 		.4byte	.LLST30
 5382 0cab 1F       		.uleb128 0x1f
 5383 0cac D7080000 		.4byte	0x8d7
 5384 0cb0 4E060000 		.4byte	.LLST31
 5385 0cb4 00       		.byte	0
 5386 0cb5 1D       		.uleb128 0x1d
 5387 0cb6 5A080000 		.4byte	0x85a
 5388 0cba 20030000 		.4byte	.LFB130
 5389 0cbe 10000000 		.4byte	.LFE130-.LFB130
 5390 0cc2 01       		.uleb128 0x1
 5391 0cc3 9C       		.byte	0x9c
 5392 0cc4 DB0C0000 		.4byte	0xcdb
 5393 0cc8 1E       		.uleb128 0x1e
 5394 0cc9 6B080000 		.4byte	0x86b
 5395 0ccd BA060000 		.4byte	.LLST32
 5396 0cd1 1E       		.uleb128 0x1e
 5397 0cd2 77080000 		.4byte	0x877
 5398 0cd6 D8060000 		.4byte	.LLST33
 5399 0cda 00       		.byte	0
 5400 0cdb 2D       		.uleb128 0x2d
 5401 0cdc 1F000000 		.4byte	.LASF170
 5402 0ce0 01       		.byte	0x1
 5403 0ce1 9C01     		.2byte	0x19c
 5404 0ce3 97000000 		.4byte	0x97
 5405 0ce7 30030000 		.4byte	.LFB131
 5406 0ceb 36000000 		.4byte	.LFE131-.LFB131
 5407 0cef 01       		.uleb128 0x1
 5408 0cf0 9C       		.byte	0x9c
 5409 0cf1 160D0000 		.4byte	0xd16
 5410 0cf5 2E       		.uleb128 0x2e
 5411 0cf6 40000000 		.4byte	.LASF154
 5412 0cfa 01       		.byte	0x1
 5413 0cfb 9C01     		.2byte	0x19c
 5414 0cfd 54080000 		.4byte	0x854
 5415 0d01 F9060000 		.4byte	.LLST34
 5416 0d05 2F       		.uleb128 0x2f
 5417 0d06 460B0000 		.4byte	.LASF116
 5418 0d0a 01       		.byte	0x1
 5419 0d0b 9E01     		.2byte	0x19e
 5420 0d0d 97000000 		.4byte	0x97
 5421 0d11 1A070000 		.4byte	.LLST35
 5422 0d15 00       		.byte	0
 5423 0d16 2D       		.uleb128 0x2d
 5424 0d17 84040000 		.4byte	.LASF171
 5425 0d1b 01       		.byte	0x1
 5426 0d1c B701     		.2byte	0x1b7
 5427 0d1e 31050000 		.4byte	0x531
 5428 0d22 70030000 		.4byte	.LFB132
 5429 0d26 8E000000 		.4byte	.LFE132-.LFB132
 5430 0d2a 01       		.uleb128 0x1
ARM GAS  /tmp/cclsZlw8.s 			page 97


 5431 0d2b 9C       		.byte	0x9c
 5432 0d2c 500D0000 		.4byte	0xd50
 5433 0d30 2E       		.uleb128 0x2e
 5434 0d31 40000000 		.4byte	.LASF154
 5435 0d35 01       		.byte	0x1
 5436 0d36 B701     		.2byte	0x1b7
 5437 0d38 54080000 		.4byte	0x854
 5438 0d3c 39070000 		.4byte	.LLST36
 5439 0d40 30       		.uleb128 0x30
 5440 0d41 657000   		.ascii	"ep\000"
 5441 0d44 01       		.byte	0x1
 5442 0d45 B701     		.2byte	0x1b7
 5443 0d47 500D0000 		.4byte	0xd50
 5444 0d4b 73070000 		.4byte	.LLST37
 5445 0d4f 00       		.byte	0
 5446 0d50 14       		.uleb128 0x14
 5447 0d51 04       		.byte	0x4
 5448 0d52 27070000 		.4byte	0x727
 5449 0d56 2D       		.uleb128 0x2d
 5450 0d57 0E040000 		.4byte	.LASF172
 5451 0d5b 01       		.byte	0x1
 5452 0d5c D601     		.2byte	0x1d6
 5453 0d5e 31050000 		.4byte	0x531
 5454 0d62 00040000 		.4byte	.LFB133
 5455 0d66 E4000000 		.4byte	.LFE133-.LFB133
 5456 0d6a 01       		.uleb128 0x1
 5457 0d6b 9C       		.byte	0x9c
 5458 0d6c A20D0000 		.4byte	0xda2
 5459 0d70 2E       		.uleb128 0x2e
 5460 0d71 40000000 		.4byte	.LASF154
 5461 0d75 01       		.byte	0x1
 5462 0d76 D601     		.2byte	0x1d6
 5463 0d78 54080000 		.4byte	0x854
 5464 0d7c AD070000 		.4byte	.LLST38
 5465 0d80 30       		.uleb128 0x30
 5466 0d81 657000   		.ascii	"ep\000"
 5467 0d84 01       		.byte	0x1
 5468 0d85 D601     		.2byte	0x1d6
 5469 0d87 500D0000 		.4byte	0xd50
 5470 0d8b F2070000 		.4byte	.LLST39
 5471 0d8f 31       		.uleb128 0x31
 5472 0d90 83000000 		.4byte	.LASF173
 5473 0d94 01       		.byte	0x1
 5474 0d95 D801     		.2byte	0x1d8
 5475 0d97 CA000000 		.4byte	0xca
 5476 0d9b 05       		.uleb128 0x5
 5477 0d9c 03       		.byte	0x3
 5478 0d9d 00000000 		.4byte	debug.7035
 5479 0da1 00       		.byte	0
 5480 0da2 2D       		.uleb128 0x2d
 5481 0da3 F3080000 		.4byte	.LASF174
 5482 0da7 01       		.byte	0x1
 5483 0da8 0102     		.2byte	0x201
 5484 0daa 31050000 		.4byte	0x531
 5485 0dae F0040000 		.4byte	.LFB134
 5486 0db2 82000000 		.4byte	.LFE134-.LFB134
 5487 0db6 01       		.uleb128 0x1
ARM GAS  /tmp/cclsZlw8.s 			page 98


 5488 0db7 9C       		.byte	0x9c
 5489 0db8 DA0D0000 		.4byte	0xdda
 5490 0dbc 2E       		.uleb128 0x2e
 5491 0dbd 40000000 		.4byte	.LASF154
 5492 0dc1 01       		.byte	0x1
 5493 0dc2 0102     		.2byte	0x201
 5494 0dc4 54080000 		.4byte	0x854
 5495 0dc8 50080000 		.4byte	.LLST40
 5496 0dcc 32       		.uleb128 0x32
 5497 0dcd 657000   		.ascii	"ep\000"
 5498 0dd0 01       		.byte	0x1
 5499 0dd1 0102     		.2byte	0x201
 5500 0dd3 500D0000 		.4byte	0xd50
 5501 0dd7 01       		.uleb128 0x1
 5502 0dd8 51       		.byte	0x51
 5503 0dd9 00       		.byte	0
 5504 0dda 2D       		.uleb128 0x2d
 5505 0ddb 370A0000 		.4byte	.LASF175
 5506 0ddf 01       		.byte	0x1
 5507 0de0 1A02     		.2byte	0x21a
 5508 0de2 31050000 		.4byte	0x531
 5509 0de6 80050000 		.4byte	.LFB135
 5510 0dea 5E000000 		.4byte	.LFE135-.LFB135
 5511 0dee 01       		.uleb128 0x1
 5512 0def 9C       		.byte	0x9c
 5513 0df0 140E0000 		.4byte	0xe14
 5514 0df4 2E       		.uleb128 0x2e
 5515 0df5 40000000 		.4byte	.LASF154
 5516 0df9 01       		.byte	0x1
 5517 0dfa 1A02     		.2byte	0x21a
 5518 0dfc 54080000 		.4byte	0x854
 5519 0e00 8A080000 		.4byte	.LLST41
 5520 0e04 30       		.uleb128 0x30
 5521 0e05 657000   		.ascii	"ep\000"
 5522 0e08 01       		.byte	0x1
 5523 0e09 1A02     		.2byte	0x21a
 5524 0e0b 500D0000 		.4byte	0xd50
 5525 0e0f C4080000 		.4byte	.LLST42
 5526 0e13 00       		.byte	0
 5527 0e14 2D       		.uleb128 0x2d
 5528 0e15 D9000000 		.4byte	.LASF176
 5529 0e19 01       		.byte	0x1
 5530 0e1a 3402     		.2byte	0x234
 5531 0e1c 31050000 		.4byte	0x531
 5532 0e20 E0050000 		.4byte	.LFB136
 5533 0e24 58020000 		.4byte	.LFE136-.LFB136
 5534 0e28 01       		.uleb128 0x1
 5535 0e29 9C       		.byte	0x9c
 5536 0e2a EC0E0000 		.4byte	0xeec
 5537 0e2e 2E       		.uleb128 0x2e
 5538 0e2f 40000000 		.4byte	.LASF154
 5539 0e33 01       		.byte	0x1
 5540 0e34 3402     		.2byte	0x234
 5541 0e36 54080000 		.4byte	0x854
 5542 0e3a FE080000 		.4byte	.LLST43
 5543 0e3e 30       		.uleb128 0x30
 5544 0e3f 657000   		.ascii	"ep\000"
ARM GAS  /tmp/cclsZlw8.s 			page 99


 5545 0e42 01       		.byte	0x1
 5546 0e43 3402     		.2byte	0x234
 5547 0e45 500D0000 		.4byte	0xd50
 5548 0e49 43090000 		.4byte	.LLST44
 5549 0e4d 30       		.uleb128 0x30
 5550 0e4e 646D6100 		.ascii	"dma\000"
 5551 0e52 01       		.byte	0x1
 5552 0e53 3402     		.2byte	0x234
 5553 0e55 97000000 		.4byte	0x97
 5554 0e59 88090000 		.4byte	.LLST45
 5555 0e5d 2F       		.uleb128 0x2f
 5556 0e5e 5D060000 		.4byte	.LASF177
 5557 0e62 01       		.byte	0x1
 5558 0e63 3602     		.2byte	0x236
 5559 0e65 A2000000 		.4byte	0xa2
 5560 0e69 E6090000 		.4byte	.LLST46
 5561 0e6d 33       		.uleb128 0x33
 5562 0e6e E4080000 		.4byte	0x8e4
 5563 0e72 56070000 		.4byte	.LBB48
 5564 0e76 10000000 		.4byte	.LBE48-.LBB48
 5565 0e7a 01       		.byte	0x1
 5566 0e7b 7602     		.2byte	0x276
 5567 0e7d 1E       		.uleb128 0x1e
 5568 0e7e 25090000 		.4byte	0x925
 5569 0e82 670A0000 		.4byte	.LLST47
 5570 0e86 1E       		.uleb128 0x1e
 5571 0e87 19090000 		.4byte	0x919
 5572 0e8b 880A0000 		.4byte	.LLST48
 5573 0e8f 1E       		.uleb128 0x1e
 5574 0e90 0D090000 		.4byte	0x90d
 5575 0e94 9B0A0000 		.4byte	.LLST49
 5576 0e98 1E       		.uleb128 0x1e
 5577 0e99 01090000 		.4byte	0x901
 5578 0e9d AE0A0000 		.4byte	.LLST50
 5579 0ea1 1E       		.uleb128 0x1e
 5580 0ea2 F5080000 		.4byte	0x8f5
 5581 0ea6 C10A0000 		.4byte	.LLST51
 5582 0eaa 20       		.uleb128 0x20
 5583 0eab 56070000 		.4byte	.LBB49
 5584 0eaf 10000000 		.4byte	.LBE49-.LBB49
 5585 0eb3 1F       		.uleb128 0x1f
 5586 0eb4 31090000 		.4byte	0x931
 5587 0eb8 E20A0000 		.4byte	.LLST52
 5588 0ebc 1F       		.uleb128 0x1f
 5589 0ebd 3D090000 		.4byte	0x93d
 5590 0ec1 E20A0000 		.4byte	.LLST52
 5591 0ec5 27       		.uleb128 0x27
 5592 0ec6 64070000 		.4byte	.LVL133
 5593 0eca 020A0000 		.4byte	0xa02
 5594 0ece 26       		.uleb128 0x26
 5595 0ecf 01       		.uleb128 0x1
 5596 0ed0 52       		.byte	0x52
 5597 0ed1 02       		.uleb128 0x2
 5598 0ed2 74       		.byte	0x74
 5599 0ed3 00       		.sleb128 0
 5600 0ed4 26       		.uleb128 0x26
 5601 0ed5 01       		.uleb128 0x1
ARM GAS  /tmp/cclsZlw8.s 			page 100


 5602 0ed6 51       		.byte	0x51
 5603 0ed7 02       		.uleb128 0x2
 5604 0ed8 75       		.byte	0x75
 5605 0ed9 00       		.sleb128 0
 5606 0eda 26       		.uleb128 0x26
 5607 0edb 01       		.uleb128 0x1
 5608 0edc 50       		.byte	0x50
 5609 0edd 03       		.uleb128 0x3
 5610 0ede F3       		.byte	0xf3
 5611 0edf 01       		.uleb128 0x1
 5612 0ee0 50       		.byte	0x50
 5613 0ee1 34       		.uleb128 0x34
 5614 0ee2 25090000 		.4byte	0x925
 5615 0ee6 01       		.uleb128 0x1
 5616 0ee7 30       		.byte	0x30
 5617 0ee8 00       		.byte	0
 5618 0ee9 00       		.byte	0
 5619 0eea 00       		.byte	0
 5620 0eeb 00       		.byte	0
 5621 0eec 2D       		.uleb128 0x2d
 5622 0eed DC060000 		.4byte	.LASF178
 5623 0ef1 01       		.byte	0x1
 5624 0ef2 AE02     		.2byte	0x2ae
 5625 0ef4 31050000 		.4byte	0x531
 5626 0ef8 40080000 		.4byte	.LFB137
 5627 0efc 72010000 		.4byte	.LFE137-.LFB137
 5628 0f00 01       		.uleb128 0x1
 5629 0f01 9C       		.byte	0x9c
 5630 0f02 340F0000 		.4byte	0xf34
 5631 0f06 2E       		.uleb128 0x2e
 5632 0f07 40000000 		.4byte	.LASF154
 5633 0f0b 01       		.byte	0x1
 5634 0f0c AE02     		.2byte	0x2ae
 5635 0f0e 54080000 		.4byte	0x854
 5636 0f12 F60A0000 		.4byte	.LLST54
 5637 0f16 32       		.uleb128 0x32
 5638 0f17 657000   		.ascii	"ep\000"
 5639 0f1a 01       		.byte	0x1
 5640 0f1b AE02     		.2byte	0x2ae
 5641 0f1d 500D0000 		.4byte	0xd50
 5642 0f21 01       		.uleb128 0x1
 5643 0f22 51       		.byte	0x51
 5644 0f23 30       		.uleb128 0x30
 5645 0f24 646D6100 		.ascii	"dma\000"
 5646 0f28 01       		.byte	0x1
 5647 0f29 AE02     		.2byte	0x2ae
 5648 0f2b 97000000 		.4byte	0x97
 5649 0f2f 3B0B0000 		.4byte	.LLST55
 5650 0f33 00       		.byte	0
 5651 0f34 1D       		.uleb128 0x1d
 5652 0f35 E4080000 		.4byte	0x8e4
 5653 0f39 C0090000 		.4byte	.LFB138
 5654 0f3d 10000000 		.4byte	.LFE138-.LFB138
 5655 0f41 01       		.uleb128 0x1
 5656 0f42 9C       		.byte	0x9c
 5657 0f43 9F0F0000 		.4byte	0xf9f
 5658 0f47 1E       		.uleb128 0x1e
ARM GAS  /tmp/cclsZlw8.s 			page 101


 5659 0f48 F5080000 		.4byte	0x8f5
 5660 0f4c A70B0000 		.4byte	.LLST56
 5661 0f50 1E       		.uleb128 0x1e
 5662 0f51 01090000 		.4byte	0x901
 5663 0f55 C80B0000 		.4byte	.LLST57
 5664 0f59 1E       		.uleb128 0x1e
 5665 0f5a 0D090000 		.4byte	0x90d
 5666 0f5e E90B0000 		.4byte	.LLST58
 5667 0f62 1E       		.uleb128 0x1e
 5668 0f63 19090000 		.4byte	0x919
 5669 0f67 0A0C0000 		.4byte	.LLST59
 5670 0f6b 21       		.uleb128 0x21
 5671 0f6c 25090000 		.4byte	0x925
 5672 0f70 02       		.uleb128 0x2
 5673 0f71 91       		.byte	0x91
 5674 0f72 00       		.sleb128 0
 5675 0f73 35       		.uleb128 0x35
 5676 0f74 31090000 		.4byte	0x931
 5677 0f78 00       		.byte	0
 5678 0f79 35       		.uleb128 0x35
 5679 0f7a 3D090000 		.4byte	0x93d
 5680 0f7e 00       		.byte	0
 5681 0f7f 27       		.uleb128 0x27
 5682 0f80 CC090000 		.4byte	.LVL146
 5683 0f84 020A0000 		.4byte	0xa02
 5684 0f88 26       		.uleb128 0x26
 5685 0f89 01       		.uleb128 0x1
 5686 0f8a 51       		.byte	0x51
 5687 0f8b 03       		.uleb128 0x3
 5688 0f8c F3       		.byte	0xf3
 5689 0f8d 01       		.uleb128 0x1
 5690 0f8e 51       		.byte	0x51
 5691 0f8f 26       		.uleb128 0x26
 5692 0f90 01       		.uleb128 0x1
 5693 0f91 50       		.byte	0x50
 5694 0f92 03       		.uleb128 0x3
 5695 0f93 F3       		.byte	0xf3
 5696 0f94 01       		.uleb128 0x1
 5697 0f95 50       		.byte	0x50
 5698 0f96 34       		.uleb128 0x34
 5699 0f97 25090000 		.4byte	0x925
 5700 0f9b 01       		.uleb128 0x1
 5701 0f9c 30       		.byte	0x30
 5702 0f9d 00       		.byte	0
 5703 0f9e 00       		.byte	0
 5704 0f9f 2D       		.uleb128 0x2d
 5705 0fa0 EB070000 		.4byte	.LASF179
 5706 0fa4 01       		.byte	0x1
 5707 0fa5 2303     		.2byte	0x323
 5708 0fa7 07050000 		.4byte	0x507
 5709 0fab D0090000 		.4byte	.LFB139
 5710 0faf 2A000000 		.4byte	.LFE139-.LFB139
 5711 0fb3 01       		.uleb128 0x1
 5712 0fb4 9C       		.byte	0x9c
 5713 0fb5 08100000 		.4byte	0x1008
 5714 0fb9 2E       		.uleb128 0x2e
 5715 0fba 40000000 		.4byte	.LASF154
ARM GAS  /tmp/cclsZlw8.s 			page 102


 5716 0fbe 01       		.byte	0x1
 5717 0fbf 2303     		.2byte	0x323
 5718 0fc1 54080000 		.4byte	0x854
 5719 0fc5 2B0C0000 		.4byte	.LLST60
 5720 0fc9 2E       		.uleb128 0x2e
 5721 0fca 64060000 		.4byte	.LASF180
 5722 0fce 01       		.byte	0x1
 5723 0fcf 2303     		.2byte	0x323
 5724 0fd1 21070000 		.4byte	0x721
 5725 0fd5 730C0000 		.4byte	.LLST61
 5726 0fd9 30       		.uleb128 0x30
 5727 0fda 6C656E00 		.ascii	"len\000"
 5728 0fde 01       		.byte	0x1
 5729 0fdf 2303     		.2byte	0x323
 5730 0fe1 A2000000 		.4byte	0xa2
 5731 0fe5 9C0C0000 		.4byte	.LLST62
 5732 0fe9 36       		.uleb128 0x36
 5733 0fea 6900     		.ascii	"i\000"
 5734 0fec 01       		.byte	0x1
 5735 0fed 2503     		.2byte	0x325
 5736 0fef B8000000 		.4byte	0xb8
 5737 0ff3 BD0C0000 		.4byte	.LLST63
 5738 0ff7 2F       		.uleb128 0x2f
 5739 0ff8 7A000000 		.4byte	.LASF161
 5740 0ffc 01       		.byte	0x1
 5741 0ffd 2603     		.2byte	0x326
 5742 0fff B8000000 		.4byte	0xb8
 5743 1003 E80C0000 		.4byte	.LLST64
 5744 1007 00       		.byte	0
 5745 1008 2D       		.uleb128 0x2d
 5746 1009 BC050000 		.4byte	.LASF181
 5747 100d 01       		.byte	0x1
 5748 100e 3603     		.2byte	0x336
 5749 1010 31050000 		.4byte	0x531
 5750 1014 000A0000 		.4byte	.LFB140
 5751 1018 40000000 		.4byte	.LFE140-.LFB140
 5752 101c 01       		.uleb128 0x1
 5753 101d 9C       		.byte	0x9c
 5754 101e 40100000 		.4byte	0x1040
 5755 1022 2E       		.uleb128 0x2e
 5756 1023 40000000 		.4byte	.LASF154
 5757 1027 01       		.byte	0x1
 5758 1028 3603     		.2byte	0x336
 5759 102a 54080000 		.4byte	0x854
 5760 102e 0A0D0000 		.4byte	.LLST65
 5761 1032 32       		.uleb128 0x32
 5762 1033 657000   		.ascii	"ep\000"
 5763 1036 01       		.byte	0x1
 5764 1037 3603     		.2byte	0x336
 5765 1039 500D0000 		.4byte	0xd50
 5766 103d 01       		.uleb128 0x1
 5767 103e 51       		.byte	0x51
 5768 103f 00       		.byte	0
 5769 1040 2D       		.uleb128 0x2d
 5770 1041 22090000 		.4byte	.LASF182
 5771 1045 01       		.byte	0x1
 5772 1046 5203     		.2byte	0x352
ARM GAS  /tmp/cclsZlw8.s 			page 103


 5773 1048 31050000 		.4byte	0x531
 5774 104c 400A0000 		.4byte	.LFB141
 5775 1050 3C000000 		.4byte	.LFE141-.LFB141
 5776 1054 01       		.uleb128 0x1
 5777 1055 9C       		.byte	0x9c
 5778 1056 78100000 		.4byte	0x1078
 5779 105a 2E       		.uleb128 0x2e
 5780 105b 40000000 		.4byte	.LASF154
 5781 105f 01       		.byte	0x1
 5782 1060 5203     		.2byte	0x352
 5783 1062 54080000 		.4byte	0x854
 5784 1066 2B0D0000 		.4byte	.LLST66
 5785 106a 32       		.uleb128 0x32
 5786 106b 657000   		.ascii	"ep\000"
 5787 106e 01       		.byte	0x1
 5788 106f 5203     		.2byte	0x352
 5789 1071 500D0000 		.4byte	0xd50
 5790 1075 01       		.uleb128 0x1
 5791 1076 51       		.byte	0x51
 5792 1077 00       		.byte	0
 5793 1078 2D       		.uleb128 0x2d
 5794 1079 04010000 		.4byte	.LASF183
 5795 107d 01       		.byte	0x1
 5796 107e 6C03     		.2byte	0x36c
 5797 1080 31050000 		.4byte	0x531
 5798 1084 800A0000 		.4byte	.LFB142
 5799 1088 64000000 		.4byte	.LFE142-.LFB142
 5800 108c 01       		.uleb128 0x1
 5801 108d 9C       		.byte	0x9c
 5802 108e 11110000 		.4byte	0x1111
 5803 1092 2E       		.uleb128 0x2e
 5804 1093 40000000 		.4byte	.LASF154
 5805 1097 01       		.byte	0x1
 5806 1098 6C03     		.2byte	0x36c
 5807 109a 54080000 		.4byte	0x854
 5808 109e 4C0D0000 		.4byte	.LLST67
 5809 10a2 36       		.uleb128 0x36
 5810 10a3 6900     		.ascii	"i\000"
 5811 10a5 01       		.byte	0x1
 5812 10a6 6E03     		.2byte	0x36e
 5813 10a8 B8000000 		.4byte	0xb8
 5814 10ac 6D0D0000 		.4byte	.LLST68
 5815 10b0 37       		.uleb128 0x37
 5816 10b1 BA080000 		.4byte	0x8ba
 5817 10b5 A00A0000 		.4byte	.LBB50
 5818 10b9 00000000 		.4byte	.Ldebug_ranges0+0
 5819 10bd 01       		.byte	0x1
 5820 10be 7E03     		.2byte	0x37e
 5821 10c0 DD100000 		.4byte	0x10dd
 5822 10c4 1E       		.uleb128 0x1e
 5823 10c5 CB080000 		.4byte	0x8cb
 5824 10c9 810D0000 		.4byte	.LLST69
 5825 10cd 38       		.uleb128 0x38
 5826 10ce 00000000 		.4byte	.Ldebug_ranges0+0
 5827 10d2 1F       		.uleb128 0x1f
 5828 10d3 D7080000 		.4byte	0x8d7
 5829 10d7 A20D0000 		.4byte	.LLST70
ARM GAS  /tmp/cclsZlw8.s 			page 104


 5830 10db 00       		.byte	0
 5831 10dc 00       		.byte	0
 5832 10dd 33       		.uleb128 0x33
 5833 10de 84080000 		.4byte	0x884
 5834 10e2 C20A0000 		.4byte	.LBB56
 5835 10e6 14000000 		.4byte	.LBE56-.LBB56
 5836 10ea 01       		.byte	0x1
 5837 10eb 7F03     		.2byte	0x37f
 5838 10ed 2C       		.uleb128 0x2c
 5839 10ee A1080000 		.4byte	0x8a1
 5840 10f2 10       		.byte	0x10
 5841 10f3 1E       		.uleb128 0x1e
 5842 10f4 95080000 		.4byte	0x895
 5843 10f8 FB0D0000 		.4byte	.LLST71
 5844 10fc 20       		.uleb128 0x20
 5845 10fd C20A0000 		.4byte	.LBB57
 5846 1101 14000000 		.4byte	.LBE57-.LBB57
 5847 1105 1F       		.uleb128 0x1f
 5848 1106 AD080000 		.4byte	0x8ad
 5849 110a 1C0E0000 		.4byte	.LLST72
 5850 110e 00       		.byte	0
 5851 110f 00       		.byte	0
 5852 1110 00       		.byte	0
 5853 1111 2D       		.uleb128 0x2d
 5854 1112 4B020000 		.4byte	.LASF184
 5855 1116 01       		.byte	0x1
 5856 1117 8B03     		.2byte	0x38b
 5857 1119 31050000 		.4byte	0x531
 5858 111d F00A0000 		.4byte	.LFB143
 5859 1121 20000000 		.4byte	.LFE143-.LFB143
 5860 1125 01       		.uleb128 0x1
 5861 1126 9C       		.byte	0x9c
 5862 1127 4C110000 		.4byte	0x114c
 5863 112b 2E       		.uleb128 0x2e
 5864 112c 40000000 		.4byte	.LASF154
 5865 1130 01       		.byte	0x1
 5866 1131 8B03     		.2byte	0x38b
 5867 1133 54080000 		.4byte	0x854
 5868 1137 750E0000 		.4byte	.LLST73
 5869 113b 2E       		.uleb128 0x2e
 5870 113c B4050000 		.4byte	.LASF185
 5871 1140 01       		.byte	0x1
 5872 1141 8B03     		.2byte	0x38b
 5873 1143 97000000 		.4byte	0x97
 5874 1147 960E0000 		.4byte	.LLST74
 5875 114b 00       		.byte	0
 5876 114c 2D       		.uleb128 0x2d
 5877 114d 2C040000 		.4byte	.LASF186
 5878 1151 01       		.byte	0x1
 5879 1152 9803     		.2byte	0x398
 5880 1154 31050000 		.4byte	0x531
 5881 1158 100B0000 		.4byte	.LFB144
 5882 115c 18000000 		.4byte	.LFE144-.LFB144
 5883 1160 01       		.uleb128 0x1
 5884 1161 9C       		.byte	0x9c
 5885 1162 86110000 		.4byte	0x1186
 5886 1166 2E       		.uleb128 0x2e
ARM GAS  /tmp/cclsZlw8.s 			page 105


 5887 1167 40000000 		.4byte	.LASF154
 5888 116b 01       		.byte	0x1
 5889 116c 9803     		.2byte	0x398
 5890 116e 54080000 		.4byte	0x854
 5891 1172 B70E0000 		.4byte	.LLST75
 5892 1176 27       		.uleb128 0x27
 5893 1177 240B0000 		.4byte	.LVL180
 5894 117b 5B190000 		.4byte	0x195b
 5895 117f 26       		.uleb128 0x26
 5896 1180 01       		.uleb128 0x1
 5897 1181 50       		.byte	0x50
 5898 1182 01       		.uleb128 0x1
 5899 1183 33       		.byte	0x33
 5900 1184 00       		.byte	0
 5901 1185 00       		.byte	0
 5902 1186 2D       		.uleb128 0x2d
 5903 1187 C7000000 		.4byte	.LASF187
 5904 118b 01       		.byte	0x1
 5905 118c A503     		.2byte	0x3a5
 5906 118e 31050000 		.4byte	0x531
 5907 1192 300B0000 		.4byte	.LFB145
 5908 1196 18000000 		.4byte	.LFE145-.LFB145
 5909 119a 01       		.uleb128 0x1
 5910 119b 9C       		.byte	0x9c
 5911 119c C0110000 		.4byte	0x11c0
 5912 11a0 2E       		.uleb128 0x2e
 5913 11a1 40000000 		.4byte	.LASF154
 5914 11a5 01       		.byte	0x1
 5915 11a6 A503     		.2byte	0x3a5
 5916 11a8 54080000 		.4byte	0x854
 5917 11ac E60E0000 		.4byte	.LLST76
 5918 11b0 27       		.uleb128 0x27
 5919 11b1 440B0000 		.4byte	.LVL183
 5920 11b5 5B190000 		.4byte	0x195b
 5921 11b9 26       		.uleb128 0x26
 5922 11ba 01       		.uleb128 0x1
 5923 11bb 50       		.byte	0x50
 5924 11bc 01       		.uleb128 0x1
 5925 11bd 33       		.byte	0x33
 5926 11be 00       		.byte	0
 5927 11bf 00       		.byte	0
 5928 11c0 2D       		.uleb128 0x2d
 5929 11c1 9E010000 		.4byte	.LASF188
 5930 11c5 01       		.byte	0x1
 5931 11c6 B203     		.2byte	0x3b2
 5932 11c8 B8000000 		.4byte	0xb8
 5933 11cc 500B0000 		.4byte	.LFB146
 5934 11d0 08000000 		.4byte	.LFE146-.LFB146
 5935 11d4 01       		.uleb128 0x1
 5936 11d5 9C       		.byte	0x9c
 5937 11d6 F9110000 		.4byte	0x11f9
 5938 11da 2E       		.uleb128 0x2e
 5939 11db 40000000 		.4byte	.LASF154
 5940 11df 01       		.byte	0x1
 5941 11e0 B203     		.2byte	0x3b2
 5942 11e2 54080000 		.4byte	0x854
 5943 11e6 150F0000 		.4byte	.LLST77
ARM GAS  /tmp/cclsZlw8.s 			page 106


 5944 11ea 36       		.uleb128 0x36
 5945 11eb 7600     		.ascii	"v\000"
 5946 11ed 01       		.byte	0x1
 5947 11ee B403     		.2byte	0x3b4
 5948 11f0 B8000000 		.4byte	0xb8
 5949 11f4 360F0000 		.4byte	.LLST78
 5950 11f8 00       		.byte	0
 5951 11f9 2D       		.uleb128 0x2d
 5952 11fa 7A030000 		.4byte	.LASF189
 5953 11fe 01       		.byte	0x1
 5954 11ff C003     		.2byte	0x3c0
 5955 1201 B8000000 		.4byte	0xb8
 5956 1205 600B0000 		.4byte	.LFB147
 5957 1209 10000000 		.4byte	.LFE147-.LFB147
 5958 120d 01       		.uleb128 0x1
 5959 120e 9C       		.byte	0x9c
 5960 120f 32120000 		.4byte	0x1232
 5961 1213 2E       		.uleb128 0x2e
 5962 1214 40000000 		.4byte	.LASF154
 5963 1218 01       		.byte	0x1
 5964 1219 C003     		.2byte	0x3c0
 5965 121b 54080000 		.4byte	0x854
 5966 121f 700F0000 		.4byte	.LLST79
 5967 1223 36       		.uleb128 0x36
 5968 1224 7600     		.ascii	"v\000"
 5969 1226 01       		.byte	0x1
 5970 1227 C203     		.2byte	0x3c2
 5971 1229 B8000000 		.4byte	0xb8
 5972 122d 9F0F0000 		.4byte	.LLST80
 5973 1231 00       		.byte	0
 5974 1232 2D       		.uleb128 0x2d
 5975 1233 13010000 		.4byte	.LASF190
 5976 1237 01       		.byte	0x1
 5977 1238 CD03     		.2byte	0x3cd
 5978 123a B8000000 		.4byte	0xb8
 5979 123e 700B0000 		.4byte	.LFB148
 5980 1242 10000000 		.4byte	.LFE148-.LFB148
 5981 1246 01       		.uleb128 0x1
 5982 1247 9C       		.byte	0x9c
 5983 1248 6B120000 		.4byte	0x126b
 5984 124c 2E       		.uleb128 0x2e
 5985 124d 40000000 		.4byte	.LASF154
 5986 1251 01       		.byte	0x1
 5987 1252 CD03     		.2byte	0x3cd
 5988 1254 54080000 		.4byte	0x854
 5989 1258 CD0F0000 		.4byte	.LLST81
 5990 125c 36       		.uleb128 0x36
 5991 125d 7600     		.ascii	"v\000"
 5992 125f 01       		.byte	0x1
 5993 1260 CF03     		.2byte	0x3cf
 5994 1262 B8000000 		.4byte	0xb8
 5995 1266 FC0F0000 		.4byte	.LLST82
 5996 126a 00       		.byte	0
 5997 126b 2D       		.uleb128 0x2d
 5998 126c CE030000 		.4byte	.LASF191
 5999 1270 01       		.byte	0x1
 6000 1271 DC03     		.2byte	0x3dc
ARM GAS  /tmp/cclsZlw8.s 			page 107


 6001 1273 B8000000 		.4byte	0xb8
 6002 1277 800B0000 		.4byte	.LFB149
 6003 127b 14000000 		.4byte	.LFE149-.LFB149
 6004 127f 01       		.uleb128 0x1
 6005 1280 9C       		.byte	0x9c
 6006 1281 B4120000 		.4byte	0x12b4
 6007 1285 2E       		.uleb128 0x2e
 6008 1286 40000000 		.4byte	.LASF154
 6009 128a 01       		.byte	0x1
 6010 128b DC03     		.2byte	0x3dc
 6011 128d 54080000 		.4byte	0x854
 6012 1291 2A100000 		.4byte	.LLST83
 6013 1295 2E       		.uleb128 0x2e
 6014 1296 5B030000 		.4byte	.LASF192
 6015 129a 01       		.byte	0x1
 6016 129b DC03     		.2byte	0x3dc
 6017 129d 97000000 		.4byte	0x97
 6018 12a1 59100000 		.4byte	.LLST84
 6019 12a5 36       		.uleb128 0x36
 6020 12a6 7600     		.ascii	"v\000"
 6021 12a8 01       		.byte	0x1
 6022 12a9 DE03     		.2byte	0x3de
 6023 12ab B8000000 		.4byte	0xb8
 6024 12af 7A100000 		.4byte	.LLST85
 6025 12b3 00       		.byte	0
 6026 12b4 2D       		.uleb128 0x2d
 6027 12b5 37050000 		.4byte	.LASF193
 6028 12b9 01       		.byte	0x1
 6029 12ba EB03     		.2byte	0x3eb
 6030 12bc B8000000 		.4byte	0xb8
 6031 12c0 A00B0000 		.4byte	.LFB150
 6032 12c4 22000000 		.4byte	.LFE150-.LFB150
 6033 12c8 01       		.uleb128 0x1
 6034 12c9 9C       		.byte	0x9c
 6035 12ca 17130000 		.4byte	0x1317
 6036 12ce 2E       		.uleb128 0x2e
 6037 12cf 40000000 		.4byte	.LASF154
 6038 12d3 01       		.byte	0x1
 6039 12d4 EB03     		.2byte	0x3eb
 6040 12d6 54080000 		.4byte	0x854
 6041 12da A8100000 		.4byte	.LLST86
 6042 12de 39       		.uleb128 0x39
 6043 12df 5B030000 		.4byte	.LASF192
 6044 12e3 01       		.byte	0x1
 6045 12e4 EB03     		.2byte	0x3eb
 6046 12e6 97000000 		.4byte	0x97
 6047 12ea 01       		.uleb128 0x1
 6048 12eb 51       		.byte	0x51
 6049 12ec 1A       		.uleb128 0x1a
 6050 12ed 7600     		.ascii	"v\000"
 6051 12ef 01       		.byte	0x1
 6052 12f0 ED03     		.2byte	0x3ed
 6053 12f2 B8000000 		.4byte	0xb8
 6054 12f6 36       		.uleb128 0x36
 6055 12f7 6D736B00 		.ascii	"msk\000"
 6056 12fb 01       		.byte	0x1
 6057 12fc ED03     		.2byte	0x3ed
ARM GAS  /tmp/cclsZlw8.s 			page 108


 6058 12fe B8000000 		.4byte	0xb8
 6059 1302 C9100000 		.4byte	.LLST87
 6060 1306 36       		.uleb128 0x36
 6061 1307 656D7000 		.ascii	"emp\000"
 6062 130b 01       		.byte	0x1
 6063 130c ED03     		.2byte	0x3ed
 6064 130e B8000000 		.4byte	0xb8
 6065 1312 F7100000 		.4byte	.LLST88
 6066 1316 00       		.byte	0
 6067 1317 3A       		.uleb128 0x3a
 6068 1318 ED060000 		.4byte	.LASF222
 6069 131c 01       		.byte	0x1
 6070 131d FC03     		.2byte	0x3fc
 6071 131f D00B0000 		.4byte	.LFB151
 6072 1323 08000000 		.4byte	.LFE151-.LFB151
 6073 1327 01       		.uleb128 0x1
 6074 1328 9C       		.byte	0x9c
 6075 1329 4C130000 		.4byte	0x134c
 6076 132d 39       		.uleb128 0x39
 6077 132e 40000000 		.4byte	.LASF154
 6078 1332 01       		.byte	0x1
 6079 1333 FC03     		.2byte	0x3fc
 6080 1335 54080000 		.4byte	0x854
 6081 1339 01       		.uleb128 0x1
 6082 133a 50       		.byte	0x50
 6083 133b 2E       		.uleb128 0x2e
 6084 133c B0020000 		.4byte	.LASF194
 6085 1340 01       		.byte	0x1
 6086 1341 FC03     		.2byte	0x3fc
 6087 1343 B8000000 		.4byte	0xb8
 6088 1347 0A110000 		.4byte	.LLST89
 6089 134b 00       		.byte	0
 6090 134c 2D       		.uleb128 0x2d
 6091 134d 01070000 		.4byte	.LASF195
 6092 1351 01       		.byte	0x1
 6093 1352 0904     		.2byte	0x409
 6094 1354 B8000000 		.4byte	0xb8
 6095 1358 E00B0000 		.4byte	.LFB152
 6096 135c 08000000 		.4byte	.LFE152-.LFB152
 6097 1360 01       		.uleb128 0x1
 6098 1361 9C       		.byte	0x9c
 6099 1362 77130000 		.4byte	0x1377
 6100 1366 2E       		.uleb128 0x2e
 6101 1367 40000000 		.4byte	.LASF154
 6102 136b 01       		.byte	0x1
 6103 136c 0904     		.2byte	0x409
 6104 136e 54080000 		.4byte	0x854
 6105 1372 2B110000 		.4byte	.LLST90
 6106 1376 00       		.byte	0
 6107 1377 2D       		.uleb128 0x2d
 6108 1378 1E030000 		.4byte	.LASF196
 6109 137c 01       		.byte	0x1
 6110 137d 1404     		.2byte	0x414
 6111 137f 31050000 		.4byte	0x531
 6112 1383 F00B0000 		.4byte	.LFB153
 6113 1387 36000000 		.4byte	.LFE153-.LFB153
 6114 138b 01       		.uleb128 0x1
ARM GAS  /tmp/cclsZlw8.s 			page 109


 6115 138c 9C       		.byte	0x9c
 6116 138d A2130000 		.4byte	0x13a2
 6117 1391 2E       		.uleb128 0x2e
 6118 1392 40000000 		.4byte	.LASF154
 6119 1396 01       		.byte	0x1
 6120 1397 1404     		.2byte	0x414
 6121 1399 54080000 		.4byte	0x854
 6122 139d 4C110000 		.4byte	.LLST91
 6123 13a1 00       		.byte	0
 6124 13a2 2D       		.uleb128 0x2d
 6125 13a3 2F000000 		.4byte	.LASF197
 6126 13a7 01       		.byte	0x1
 6127 13a8 2D04     		.2byte	0x42d
 6128 13aa 31050000 		.4byte	0x531
 6129 13ae 300C0000 		.4byte	.LFB154
 6130 13b2 44000000 		.4byte	.LFE154-.LFB154
 6131 13b6 01       		.uleb128 0x1
 6132 13b7 9C       		.byte	0x9c
 6133 13b8 EB130000 		.4byte	0x13eb
 6134 13bc 2E       		.uleb128 0x2e
 6135 13bd 40000000 		.4byte	.LASF154
 6136 13c1 01       		.byte	0x1
 6137 13c2 2D04     		.2byte	0x42d
 6138 13c4 54080000 		.4byte	0x854
 6139 13c8 6D110000 		.4byte	.LLST92
 6140 13cc 30       		.uleb128 0x30
 6141 13cd 646D6100 		.ascii	"dma\000"
 6142 13d1 01       		.byte	0x1
 6143 13d2 2D04     		.2byte	0x42d
 6144 13d4 97000000 		.4byte	0x97
 6145 13d8 8E110000 		.4byte	.LLST93
 6146 13dc 39       		.uleb128 0x39
 6147 13dd 57010000 		.4byte	.LASF198
 6148 13e1 01       		.byte	0x1
 6149 13e2 2D04     		.2byte	0x42d
 6150 13e4 21070000 		.4byte	0x721
 6151 13e8 01       		.uleb128 0x1
 6152 13e9 52       		.byte	0x52
 6153 13ea 00       		.byte	0
 6154 13eb 2D       		.uleb128 0x2d
 6155 13ec 3B040000 		.4byte	.LASF199
 6156 13f0 01       		.byte	0x1
 6157 13f1 C604     		.2byte	0x4c6
 6158 13f3 31050000 		.4byte	0x531
 6159 13f7 800C0000 		.4byte	.LFB157
 6160 13fb 3A000000 		.4byte	.LFE157-.LFB157
 6161 13ff 01       		.uleb128 0x1
 6162 1400 9C       		.byte	0x9c
 6163 1401 24140000 		.4byte	0x1424
 6164 1405 2E       		.uleb128 0x2e
 6165 1406 40000000 		.4byte	.LASF154
 6166 140a 01       		.byte	0x1
 6167 140b C604     		.2byte	0x4c6
 6168 140d 54080000 		.4byte	0x854
 6169 1411 AF110000 		.4byte	.LLST94
 6170 1415 39       		.uleb128 0x39
 6171 1416 C30A0000 		.4byte	.LASF200
ARM GAS  /tmp/cclsZlw8.s 			page 110


 6172 141a 01       		.byte	0x1
 6173 141b C604     		.2byte	0x4c6
 6174 141d 97000000 		.4byte	0x97
 6175 1421 01       		.uleb128 0x1
 6176 1422 51       		.byte	0x51
 6177 1423 00       		.byte	0
 6178 1424 2D       		.uleb128 0x2d
 6179 1425 2B0B0000 		.4byte	.LASF201
 6180 1429 01       		.byte	0x1
 6181 142a DD04     		.2byte	0x4dd
 6182 142c 31050000 		.4byte	0x531
 6183 1430 C00C0000 		.4byte	.LFB158
 6184 1434 34000000 		.4byte	.LFE158-.LFB158
 6185 1438 01       		.uleb128 0x1
 6186 1439 9C       		.byte	0x9c
 6187 143a 6D140000 		.4byte	0x146d
 6188 143e 2E       		.uleb128 0x2e
 6189 143f 40000000 		.4byte	.LASF154
 6190 1443 01       		.byte	0x1
 6191 1444 DD04     		.2byte	0x4dd
 6192 1446 54080000 		.4byte	0x854
 6193 144a DE110000 		.4byte	.LLST95
 6194 144e 31       		.uleb128 0x31
 6195 144f 310A0000 		.4byte	.LASF202
 6196 1453 01       		.byte	0x1
 6197 1454 DF04     		.2byte	0x4df
 6198 1456 CA000000 		.4byte	0xca
 6199 145a 02       		.uleb128 0x2
 6200 145b 91       		.byte	0x91
 6201 145c 74       		.sleb128 -12
 6202 145d 27       		.uleb128 0x27
 6203 145e E40C0000 		.4byte	.LVL224
 6204 1462 5B190000 		.4byte	0x195b
 6205 1466 26       		.uleb128 0x26
 6206 1467 01       		.uleb128 0x1
 6207 1468 50       		.byte	0x50
 6208 1469 01       		.uleb128 0x1
 6209 146a 3A       		.byte	0x3a
 6210 146b 00       		.byte	0
 6211 146c 00       		.byte	0
 6212 146d 2D       		.uleb128 0x2d
 6213 146e BA020000 		.4byte	.LASF203
 6214 1472 01       		.byte	0x1
 6215 1473 F404     		.2byte	0x4f4
 6216 1475 31050000 		.4byte	0x531
 6217 1479 000D0000 		.4byte	.LFB159
 6218 147d 44000000 		.4byte	.LFE159-.LFB159
 6219 1481 01       		.uleb128 0x1
 6220 1482 9C       		.byte	0x9c
 6221 1483 B5140000 		.4byte	0x14b5
 6222 1487 2E       		.uleb128 0x2e
 6223 1488 40000000 		.4byte	.LASF154
 6224 148c 01       		.byte	0x1
 6225 148d F404     		.2byte	0x4f4
 6226 148f 54080000 		.4byte	0x854
 6227 1493 FC110000 		.4byte	.LLST96
 6228 1497 39       		.uleb128 0x39
ARM GAS  /tmp/cclsZlw8.s 			page 111


 6229 1498 ED010000 		.4byte	.LASF152
 6230 149c 01       		.byte	0x1
 6231 149d F404     		.2byte	0x4f4
 6232 149f 97000000 		.4byte	0x97
 6233 14a3 01       		.uleb128 0x1
 6234 14a4 51       		.byte	0x51
 6235 14a5 31       		.uleb128 0x31
 6236 14a6 310A0000 		.4byte	.LASF202
 6237 14aa 01       		.byte	0x1
 6238 14ab F604     		.2byte	0x4f6
 6239 14ad CA000000 		.4byte	0xca
 6240 14b1 02       		.uleb128 0x2
 6241 14b2 91       		.byte	0x91
 6242 14b3 7C       		.sleb128 -4
 6243 14b4 00       		.byte	0
 6244 14b5 2D       		.uleb128 0x2d
 6245 14b6 3C070000 		.4byte	.LASF204
 6246 14ba 01       		.byte	0x1
 6247 14bb 6B04     		.2byte	0x46b
 6248 14bd 31050000 		.4byte	0x531
 6249 14c1 500D0000 		.4byte	.LFB156
 6250 14c5 04010000 		.4byte	.LFE156-.LFB156
 6251 14c9 01       		.uleb128 0x1
 6252 14ca 9C       		.byte	0x9c
 6253 14cb 92150000 		.4byte	0x1592
 6254 14cf 2E       		.uleb128 0x2e
 6255 14d0 40000000 		.4byte	.LASF154
 6256 14d4 01       		.byte	0x1
 6257 14d5 6B04     		.2byte	0x46b
 6258 14d7 54080000 		.4byte	0x854
 6259 14db 36120000 		.4byte	.LLST97
 6260 14df 30       		.uleb128 0x30
 6261 14e0 63666700 		.ascii	"cfg\000"
 6262 14e4 01       		.byte	0x1
 6263 14e5 6B04     		.2byte	0x46b
 6264 14e7 7D060000 		.4byte	0x67d
 6265 14eb 6D120000 		.4byte	.LLST98
 6266 14ef 36       		.uleb128 0x36
 6267 14f0 6900     		.ascii	"i\000"
 6268 14f2 01       		.byte	0x1
 6269 14f3 6D04     		.2byte	0x46d
 6270 14f5 B8000000 		.4byte	0xb8
 6271 14f9 97120000 		.4byte	.LLST99
 6272 14fd 3B       		.uleb128 0x3b
 6273 14fe 84080000 		.4byte	0x884
 6274 1502 8E0D0000 		.4byte	.LBB58
 6275 1506 14000000 		.4byte	.LBE58-.LBB58
 6276 150a 01       		.byte	0x1
 6277 150b 8704     		.2byte	0x487
 6278 150d 37150000 		.4byte	0x1537
 6279 1511 1E       		.uleb128 0x1e
 6280 1512 A1080000 		.4byte	0x8a1
 6281 1516 B6120000 		.4byte	.LLST100
 6282 151a 1E       		.uleb128 0x1e
 6283 151b 95080000 		.4byte	0x895
 6284 151f D6120000 		.4byte	.LLST101
 6285 1523 20       		.uleb128 0x20
ARM GAS  /tmp/cclsZlw8.s 			page 112


 6286 1524 8E0D0000 		.4byte	.LBB59
 6287 1528 14000000 		.4byte	.LBE59-.LBB59
 6288 152c 1F       		.uleb128 0x1f
 6289 152d AD080000 		.4byte	0x8ad
 6290 1531 02130000 		.4byte	.LLST102
 6291 1535 00       		.byte	0
 6292 1536 00       		.byte	0
 6293 1537 3B       		.uleb128 0x3b
 6294 1538 BA080000 		.4byte	0x8ba
 6295 153c A20D0000 		.4byte	.LBB60
 6296 1540 12000000 		.4byte	.LBE60-.LBB60
 6297 1544 01       		.byte	0x1
 6298 1545 8804     		.2byte	0x488
 6299 1547 68150000 		.4byte	0x1568
 6300 154b 1E       		.uleb128 0x1e
 6301 154c CB080000 		.4byte	0x8cb
 6302 1550 5B130000 		.4byte	.LLST103
 6303 1554 20       		.uleb128 0x20
 6304 1555 A20D0000 		.4byte	.LBB61
 6305 1559 12000000 		.4byte	.LBE61-.LBB61
 6306 155d 1F       		.uleb128 0x1f
 6307 155e D7080000 		.4byte	0x8d7
 6308 1562 87130000 		.4byte	.LLST104
 6309 1566 00       		.byte	0
 6310 1567 00       		.byte	0
 6311 1568 25       		.uleb128 0x25
 6312 1569 D80D0000 		.4byte	.LVL247
 6313 156d 6D140000 		.4byte	0x146d
 6314 1571 81150000 		.4byte	0x1581
 6315 1575 26       		.uleb128 0x26
 6316 1576 01       		.uleb128 0x1
 6317 1577 51       		.byte	0x51
 6318 1578 01       		.uleb128 0x1
 6319 1579 31       		.byte	0x31
 6320 157a 26       		.uleb128 0x26
 6321 157b 01       		.uleb128 0x1
 6322 157c 50       		.byte	0x50
 6323 157d 02       		.uleb128 0x2
 6324 157e 74       		.byte	0x74
 6325 157f 00       		.sleb128 0
 6326 1580 00       		.byte	0
 6327 1581 27       		.uleb128 0x27
 6328 1582 DE0D0000 		.4byte	.LVL248
 6329 1586 5B190000 		.4byte	0x195b
 6330 158a 26       		.uleb128 0x26
 6331 158b 01       		.uleb128 0x1
 6332 158c 50       		.byte	0x50
 6333 158d 02       		.uleb128 0x2
 6334 158e 08       		.byte	0x8
 6335 158f C8       		.byte	0xc8
 6336 1590 00       		.byte	0
 6337 1591 00       		.byte	0
 6338 1592 2D       		.uleb128 0x2d
 6339 1593 26050000 		.4byte	.LASF205
 6340 1597 01       		.byte	0x1
 6341 1598 1005     		.2byte	0x510
 6342 159a B8000000 		.4byte	0xb8
ARM GAS  /tmp/cclsZlw8.s 			page 113


 6343 159e 600E0000 		.4byte	.LFB160
 6344 15a2 12000000 		.4byte	.LFE160-.LFB160
 6345 15a6 01       		.uleb128 0x1
 6346 15a7 9C       		.byte	0x9c
 6347 15a8 CC150000 		.4byte	0x15cc
 6348 15ac 2E       		.uleb128 0x2e
 6349 15ad 40000000 		.4byte	.LASF154
 6350 15b1 01       		.byte	0x1
 6351 15b2 1005     		.2byte	0x510
 6352 15b4 54080000 		.4byte	0x854
 6353 15b8 E0130000 		.4byte	.LLST105
 6354 15bc 31       		.uleb128 0x31
 6355 15bd 310A0000 		.4byte	.LASF202
 6356 15c1 01       		.byte	0x1
 6357 15c2 1205     		.2byte	0x512
 6358 15c4 CA000000 		.4byte	0xca
 6359 15c8 02       		.uleb128 0x2
 6360 15c9 91       		.byte	0x91
 6361 15ca 7C       		.sleb128 -4
 6362 15cb 00       		.byte	0
 6363 15cc 2D       		.uleb128 0x2d
 6364 15cd 3D090000 		.4byte	.LASF206
 6365 15d1 01       		.byte	0x1
 6366 15d2 1D05     		.2byte	0x51d
 6367 15d4 B8000000 		.4byte	0xb8
 6368 15d8 800E0000 		.4byte	.LFB161
 6369 15dc 0A000000 		.4byte	.LFE161-.LFB161
 6370 15e0 01       		.uleb128 0x1
 6371 15e1 9C       		.byte	0x9c
 6372 15e2 F7150000 		.4byte	0x15f7
 6373 15e6 2E       		.uleb128 0x2e
 6374 15e7 40000000 		.4byte	.LASF154
 6375 15eb 01       		.byte	0x1
 6376 15ec 1D05     		.2byte	0x51d
 6377 15ee 54080000 		.4byte	0x854
 6378 15f2 01140000 		.4byte	.LLST106
 6379 15f6 00       		.byte	0
 6380 15f7 2D       		.uleb128 0x2d
 6381 15f8 9B090000 		.4byte	.LASF207
 6382 15fc 01       		.byte	0x1
 6383 15fd 3A05     		.2byte	0x53a
 6384 15ff 31050000 		.4byte	0x531
 6385 1603 900E0000 		.4byte	.LFB162
 6386 1607 1C010000 		.4byte	.LFE162-.LFB162
 6387 160b 01       		.uleb128 0x1
 6388 160c 9C       		.byte	0x9c
 6389 160d 82160000 		.4byte	0x1682
 6390 1611 2E       		.uleb128 0x2e
 6391 1612 40000000 		.4byte	.LASF154
 6392 1616 01       		.byte	0x1
 6393 1617 3A05     		.2byte	0x53a
 6394 1619 54080000 		.4byte	0x854
 6395 161d 30140000 		.4byte	.LLST107
 6396 1621 2E       		.uleb128 0x2e
 6397 1622 B1010000 		.4byte	.LASF140
 6398 1626 01       		.byte	0x1
 6399 1627 3B05     		.2byte	0x53b
ARM GAS  /tmp/cclsZlw8.s 			page 114


 6400 1629 97000000 		.4byte	0x97
 6401 162d 5C140000 		.4byte	.LLST108
 6402 1631 2E       		.uleb128 0x2e
 6403 1632 5B030000 		.4byte	.LASF192
 6404 1636 01       		.byte	0x1
 6405 1637 3C05     		.2byte	0x53c
 6406 1639 97000000 		.4byte	0x97
 6407 163d 88140000 		.4byte	.LLST109
 6408 1641 2E       		.uleb128 0x2e
 6409 1642 6E030000 		.4byte	.LASF208
 6410 1646 01       		.byte	0x1
 6411 1647 3D05     		.2byte	0x53d
 6412 1649 97000000 		.4byte	0x97
 6413 164d B4140000 		.4byte	.LLST110
 6414 1651 2E       		.uleb128 0x2e
 6415 1652 460B0000 		.4byte	.LASF116
 6416 1656 01       		.byte	0x1
 6417 1657 3E05     		.2byte	0x53e
 6418 1659 97000000 		.4byte	0x97
 6419 165d E0140000 		.4byte	.LLST111
 6420 1661 2E       		.uleb128 0x2e
 6421 1662 7C0A0000 		.4byte	.LASF145
 6422 1666 01       		.byte	0x1
 6423 1667 3F05     		.2byte	0x53f
 6424 1669 97000000 		.4byte	0x97
 6425 166d 24150000 		.4byte	.LLST112
 6426 1671 30       		.uleb128 0x30
 6427 1672 6D707300 		.ascii	"mps\000"
 6428 1676 01       		.byte	0x1
 6429 1677 4005     		.2byte	0x540
 6430 1679 A2000000 		.4byte	0xa2
 6431 167d 68150000 		.4byte	.LLST113
 6432 1681 00       		.byte	0
 6433 1682 2D       		.uleb128 0x2d
 6434 1683 5C040000 		.4byte	.LASF209
 6435 1687 01       		.byte	0x1
 6436 1688 BC05     		.2byte	0x5bc
 6437 168a 31050000 		.4byte	0x531
 6438 168e B00F0000 		.4byte	.LFB163
 6439 1692 90010000 		.4byte	.LFE163-.LFB163
 6440 1696 01       		.uleb128 0x1
 6441 1697 9C       		.byte	0x9c
 6442 1698 B1170000 		.4byte	0x17b1
 6443 169c 2E       		.uleb128 0x2e
 6444 169d 40000000 		.4byte	.LASF154
 6445 16a1 01       		.byte	0x1
 6446 16a2 BC05     		.2byte	0x5bc
 6447 16a4 54080000 		.4byte	0x854
 6448 16a8 88150000 		.4byte	.LLST114
 6449 16ac 30       		.uleb128 0x30
 6450 16ad 686300   		.ascii	"hc\000"
 6451 16b0 01       		.byte	0x1
 6452 16b1 BC05     		.2byte	0x5bc
 6453 16b3 B1170000 		.4byte	0x17b1
 6454 16b7 B4150000 		.4byte	.LLST115
 6455 16bb 30       		.uleb128 0x30
 6456 16bc 646D6100 		.ascii	"dma\000"
ARM GAS  /tmp/cclsZlw8.s 			page 115


 6457 16c0 01       		.byte	0x1
 6458 16c1 BC05     		.2byte	0x5bc
 6459 16c3 97000000 		.4byte	0x97
 6460 16c7 F9150000 		.4byte	.LLST116
 6461 16cb 2F       		.uleb128 0x2f
 6462 16cc 6E0B0000 		.4byte	.LASF210
 6463 16d0 01       		.byte	0x1
 6464 16d1 BE05     		.2byte	0x5be
 6465 16d3 97000000 		.4byte	0x97
 6466 16d7 65160000 		.4byte	.LLST117
 6467 16db 2F       		.uleb128 0x2f
 6468 16dc 680A0000 		.4byte	.LASF211
 6469 16e0 01       		.byte	0x1
 6470 16e1 BF05     		.2byte	0x5bf
 6471 16e3 A2000000 		.4byte	0xa2
 6472 16e7 AD160000 		.4byte	.LLST118
 6473 16eb 2F       		.uleb128 0x2f
 6474 16ec 68090000 		.4byte	.LASF163
 6475 16f0 01       		.byte	0x1
 6476 16f1 C005     		.2byte	0x5c0
 6477 16f3 A2000000 		.4byte	0xa2
 6478 16f7 F7160000 		.4byte	.LLST119
 6479 16fb 3C       		.uleb128 0x3c
 6480 16fc 89000000 		.4byte	.LASF212
 6481 1700 01       		.byte	0x1
 6482 1701 C105     		.2byte	0x5c1
 6483 1703 A2000000 		.4byte	0xa2
 6484 1707 0001     		.2byte	0x100
 6485 1709 3B       		.uleb128 0x3b
 6486 170a E4080000 		.4byte	0x8e4
 6487 170e BC100000 		.4byte	.LBB62
 6488 1712 0A000000 		.4byte	.LBE62-.LBB62
 6489 1716 01       		.byte	0x1
 6490 1717 1E06     		.2byte	0x61e
 6491 1719 7F170000 		.4byte	0x177f
 6492 171d 1E       		.uleb128 0x1e
 6493 171e 25090000 		.4byte	0x925
 6494 1722 48170000 		.4byte	.LLST120
 6495 1726 1E       		.uleb128 0x1e
 6496 1727 19090000 		.4byte	0x919
 6497 172b 5C170000 		.4byte	.LLST121
 6498 172f 1E       		.uleb128 0x1e
 6499 1730 0D090000 		.4byte	0x90d
 6500 1734 6F170000 		.4byte	.LLST122
 6501 1738 1E       		.uleb128 0x1e
 6502 1739 01090000 		.4byte	0x901
 6503 173d 9A170000 		.4byte	.LLST123
 6504 1741 1E       		.uleb128 0x1e
 6505 1742 F5080000 		.4byte	0x8f5
 6506 1746 B9170000 		.4byte	.LLST124
 6507 174a 20       		.uleb128 0x20
 6508 174b BC100000 		.4byte	.LBB63
 6509 174f 0A000000 		.4byte	.LBE63-.LBB63
 6510 1753 1F       		.uleb128 0x1f
 6511 1754 31090000 		.4byte	0x931
 6512 1758 48170000 		.4byte	.LLST120
 6513 175c 1F       		.uleb128 0x1f
ARM GAS  /tmp/cclsZlw8.s 			page 116


 6514 175d 3D090000 		.4byte	0x93d
 6515 1761 48170000 		.4byte	.LLST120
 6516 1765 27       		.uleb128 0x27
 6517 1766 C6100000 		.4byte	.LVL282
 6518 176a 020A0000 		.4byte	0xa02
 6519 176e 26       		.uleb128 0x26
 6520 176f 01       		.uleb128 0x1
 6521 1770 50       		.byte	0x50
 6522 1771 03       		.uleb128 0x3
 6523 1772 F3       		.byte	0xf3
 6524 1773 01       		.uleb128 0x1
 6525 1774 50       		.byte	0x50
 6526 1775 34       		.uleb128 0x34
 6527 1776 25090000 		.4byte	0x925
 6528 177a 01       		.uleb128 0x1
 6529 177b 30       		.byte	0x30
 6530 177c 00       		.byte	0
 6531 177d 00       		.byte	0
 6532 177e 00       		.byte	0
 6533 177f 33       		.uleb128 0x33
 6534 1780 48090000 		.4byte	0x948
 6535 1784 16110000 		.4byte	.LBB64
 6536 1788 1E000000 		.4byte	.LBE64-.LBB64
 6537 178c 01       		.byte	0x1
 6538 178d C705     		.2byte	0x5c7
 6539 178f 1E       		.uleb128 0x1e
 6540 1790 65090000 		.4byte	0x965
 6541 1794 DA170000 		.4byte	.LLST127
 6542 1798 21       		.uleb128 0x21
 6543 1799 59090000 		.4byte	0x959
 6544 179d 01       		.uleb128 0x1
 6545 179e 50       		.byte	0x50
 6546 179f 20       		.uleb128 0x20
 6547 17a0 16110000 		.4byte	.LBB65
 6548 17a4 1E000000 		.4byte	.LBE65-.LBB65
 6549 17a8 35       		.uleb128 0x35
 6550 17a9 71090000 		.4byte	0x971
 6551 17ad 01       		.byte	0x1
 6552 17ae 00       		.byte	0
 6553 17af 00       		.byte	0
 6554 17b0 00       		.byte	0
 6555 17b1 14       		.uleb128 0x14
 6556 17b2 04       		.byte	0x4
 6557 17b3 1F080000 		.4byte	0x81f
 6558 17b7 2D       		.uleb128 0x2d
 6559 17b8 010A0000 		.4byte	.LASF213
 6560 17bc 01       		.byte	0x1
 6561 17bd 2A06     		.2byte	0x62a
 6562 17bf B8000000 		.4byte	0xb8
 6563 17c3 40110000 		.4byte	.LFB164
 6564 17c7 0A000000 		.4byte	.LFE164-.LFB164
 6565 17cb 01       		.uleb128 0x1
 6566 17cc 9C       		.byte	0x9c
 6567 17cd E2170000 		.4byte	0x17e2
 6568 17d1 2E       		.uleb128 0x2e
 6569 17d2 40000000 		.4byte	.LASF154
 6570 17d6 01       		.byte	0x1
ARM GAS  /tmp/cclsZlw8.s 			page 117


 6571 17d7 2A06     		.2byte	0x62a
 6572 17d9 54080000 		.4byte	0x854
 6573 17dd FC170000 		.4byte	.LLST128
 6574 17e1 00       		.byte	0
 6575 17e2 2D       		.uleb128 0x2d
 6576 17e3 15070000 		.4byte	.LASF214
 6577 17e7 01       		.byte	0x1
 6578 17e8 3606     		.2byte	0x636
 6579 17ea 31050000 		.4byte	0x531
 6580 17ee 50110000 		.4byte	.LFB165
 6581 17f2 8E000000 		.4byte	.LFE165-.LFB165
 6582 17f6 01       		.uleb128 0x1
 6583 17f7 9C       		.byte	0x9c
 6584 17f8 2D180000 		.4byte	0x182d
 6585 17fc 2E       		.uleb128 0x2e
 6586 17fd 40000000 		.4byte	.LASF154
 6587 1801 01       		.byte	0x1
 6588 1802 3606     		.2byte	0x636
 6589 1804 54080000 		.4byte	0x854
 6590 1808 2B180000 		.4byte	.LLST129
 6591 180c 2E       		.uleb128 0x2e
 6592 180d 88020000 		.4byte	.LASF215
 6593 1811 01       		.byte	0x1
 6594 1812 3606     		.2byte	0x636
 6595 1814 97000000 		.4byte	0x97
 6596 1818 7E180000 		.4byte	.LLST130
 6597 181c 2F       		.uleb128 0x2f
 6598 181d 00000000 		.4byte	.LASF157
 6599 1821 01       		.byte	0x1
 6600 1822 3806     		.2byte	0x638
 6601 1824 B8000000 		.4byte	0xb8
 6602 1828 9F180000 		.4byte	.LLST131
 6603 182c 00       		.byte	0
 6604 182d 1D       		.uleb128 0x1d
 6605 182e 48090000 		.4byte	0x948
 6606 1832 E0110000 		.4byte	.LFB166
 6607 1836 24000000 		.4byte	.LFE166-.LFB166
 6608 183a 01       		.uleb128 0x1
 6609 183b 9C       		.byte	0x9c
 6610 183c 59180000 		.4byte	0x1859
 6611 1840 1E       		.uleb128 0x1e
 6612 1841 59090000 		.4byte	0x959
 6613 1845 49190000 		.4byte	.LLST132
 6614 1849 1E       		.uleb128 0x1e
 6615 184a 65090000 		.4byte	0x965
 6616 184e 78190000 		.4byte	.LLST133
 6617 1852 35       		.uleb128 0x35
 6618 1853 71090000 		.4byte	0x971
 6619 1857 01       		.byte	0x1
 6620 1858 00       		.byte	0
 6621 1859 2D       		.uleb128 0x2d
 6622 185a 5E010000 		.4byte	.LASF216
 6623 185e 01       		.byte	0x1
 6624 185f 8706     		.2byte	0x687
 6625 1861 31050000 		.4byte	0x531
 6626 1865 10120000 		.4byte	.LFB167
 6627 1869 90000000 		.4byte	.LFE167-.LFB167
ARM GAS  /tmp/cclsZlw8.s 			page 118


 6628 186d 01       		.uleb128 0x1
 6629 186e 9C       		.byte	0x9c
 6630 186f 4A190000 		.4byte	0x194a
 6631 1873 2E       		.uleb128 0x2e
 6632 1874 40000000 		.4byte	.LASF154
 6633 1878 01       		.byte	0x1
 6634 1879 8706     		.2byte	0x687
 6635 187b 54080000 		.4byte	0x854
 6636 187f 99190000 		.4byte	.LLST134
 6637 1883 1A       		.uleb128 0x1a
 6638 1884 6900     		.ascii	"i\000"
 6639 1886 01       		.byte	0x1
 6640 1887 8906     		.2byte	0x689
 6641 1889 97000000 		.4byte	0x97
 6642 188d 2F       		.uleb128 0x2f
 6643 188e 00000000 		.4byte	.LASF157
 6644 1892 01       		.byte	0x1
 6645 1893 8A06     		.2byte	0x68a
 6646 1895 B8000000 		.4byte	0xb8
 6647 1899 BA190000 		.4byte	.LLST135
 6648 189d 2F       		.uleb128 0x2f
 6649 189e 30030000 		.4byte	.LASF217
 6650 18a2 01       		.byte	0x1
 6651 18a3 8B06     		.2byte	0x68b
 6652 18a5 B8000000 		.4byte	0xb8
 6653 18a9 D9190000 		.4byte	.LLST136
 6654 18ad 37       		.uleb128 0x37
 6655 18ae 7E090000 		.4byte	0x97e
 6656 18b2 10120000 		.4byte	.LBB66
 6657 18b6 20000000 		.4byte	.Ldebug_ranges0+0x20
 6658 18ba 01       		.byte	0x1
 6659 18bb 8D06     		.2byte	0x68d
 6660 18bd CB180000 		.4byte	0x18cb
 6661 18c1 1E       		.uleb128 0x1e
 6662 18c2 8E090000 		.4byte	0x98e
 6663 18c6 99190000 		.4byte	.LLST134
 6664 18ca 00       		.byte	0
 6665 18cb 37       		.uleb128 0x37
 6666 18cc 84080000 		.4byte	0x884
 6667 18d0 12120000 		.4byte	.LBB70
 6668 18d4 40000000 		.4byte	.Ldebug_ranges0+0x40
 6669 18d8 01       		.byte	0x1
 6670 18d9 9006     		.2byte	0x690
 6671 18db FE180000 		.4byte	0x18fe
 6672 18df 2C       		.uleb128 0x2c
 6673 18e0 A1080000 		.4byte	0x8a1
 6674 18e4 10       		.byte	0x10
 6675 18e5 1E       		.uleb128 0x1e
 6676 18e6 95080000 		.4byte	0x895
 6677 18ea 381A0000 		.4byte	.LLST138
 6678 18ee 38       		.uleb128 0x38
 6679 18ef 40000000 		.4byte	.Ldebug_ranges0+0x40
 6680 18f3 1F       		.uleb128 0x1f
 6681 18f4 AD080000 		.4byte	0x8ad
 6682 18f8 591A0000 		.4byte	.LLST139
 6683 18fc 00       		.byte	0
 6684 18fd 00       		.byte	0
ARM GAS  /tmp/cclsZlw8.s 			page 119


 6685 18fe 3B       		.uleb128 0x3b
 6686 18ff BA080000 		.4byte	0x8ba
 6687 1903 2E120000 		.4byte	.LBB76
 6688 1907 1C000000 		.4byte	.LBE76-.LBB76
 6689 190b 01       		.byte	0x1
 6690 190c 9106     		.2byte	0x691
 6691 190e 2F190000 		.4byte	0x192f
 6692 1912 1E       		.uleb128 0x1e
 6693 1913 CB080000 		.4byte	0x8cb
 6694 1917 B21A0000 		.4byte	.LLST140
 6695 191b 20       		.uleb128 0x20
 6696 191c 2E120000 		.4byte	.LBB77
 6697 1920 1C000000 		.4byte	.LBE77-.LBB77
 6698 1924 1F       		.uleb128 0x1f
 6699 1925 D7080000 		.4byte	0x8d7
 6700 1929 D31A0000 		.4byte	.LLST141
 6701 192d 00       		.byte	0
 6702 192e 00       		.byte	0
 6703 192f 3D       		.uleb128 0x3d
 6704 1930 9A090000 		.4byte	0x99a
 6705 1934 8A120000 		.4byte	.LBB78
 6706 1938 58000000 		.4byte	.Ldebug_ranges0+0x58
 6707 193c 01       		.byte	0x1
 6708 193d B606     		.2byte	0x6b6
 6709 193f 1E       		.uleb128 0x1e
 6710 1940 AA090000 		.4byte	0x9aa
 6711 1944 2C1B0000 		.4byte	.LLST142
 6712 1948 00       		.byte	0
 6713 1949 00       		.byte	0
 6714 194a 3E       		.uleb128 0x3e
 6715 194b 5A070000 		.4byte	.LASF223
 6716 194f 08       		.byte	0x8
 6717 1950 DF07     		.2byte	0x7df
 6718 1952 56190000 		.4byte	0x1956
 6719 1956 05       		.uleb128 0x5
 6720 1957 AD000000 		.4byte	0xad
 6721 195b 3F       		.uleb128 0x3f
 6722 195c 91090000 		.4byte	.LASF224
 6723 1960 09       		.byte	0x9
 6724 1961 B0       		.byte	0xb0
 6725 1962 40       		.uleb128 0x40
 6726 1963 CA000000 		.4byte	0xca
 6727 1967 00       		.byte	0
 6728 1968 00       		.byte	0
 6729              		.section	.debug_abbrev,"",%progbits
 6730              	.Ldebug_abbrev0:
 6731 0000 01       		.uleb128 0x1
 6732 0001 11       		.uleb128 0x11
 6733 0002 01       		.byte	0x1
 6734 0003 25       		.uleb128 0x25
 6735 0004 0E       		.uleb128 0xe
 6736 0005 13       		.uleb128 0x13
 6737 0006 0B       		.uleb128 0xb
 6738 0007 03       		.uleb128 0x3
 6739 0008 0E       		.uleb128 0xe
 6740 0009 1B       		.uleb128 0x1b
 6741 000a 0E       		.uleb128 0xe
ARM GAS  /tmp/cclsZlw8.s 			page 120


 6742 000b 11       		.uleb128 0x11
 6743 000c 01       		.uleb128 0x1
 6744 000d 12       		.uleb128 0x12
 6745 000e 06       		.uleb128 0x6
 6746 000f 10       		.uleb128 0x10
 6747 0010 17       		.uleb128 0x17
 6748 0011 00       		.byte	0
 6749 0012 00       		.byte	0
 6750 0013 02       		.uleb128 0x2
 6751 0014 24       		.uleb128 0x24
 6752 0015 00       		.byte	0
 6753 0016 0B       		.uleb128 0xb
 6754 0017 0B       		.uleb128 0xb
 6755 0018 3E       		.uleb128 0x3e
 6756 0019 0B       		.uleb128 0xb
 6757 001a 03       		.uleb128 0x3
 6758 001b 0E       		.uleb128 0xe
 6759 001c 00       		.byte	0
 6760 001d 00       		.byte	0
 6761 001e 03       		.uleb128 0x3
 6762 001f 16       		.uleb128 0x16
 6763 0020 00       		.byte	0
 6764 0021 03       		.uleb128 0x3
 6765 0022 0E       		.uleb128 0xe
 6766 0023 3A       		.uleb128 0x3a
 6767 0024 0B       		.uleb128 0xb
 6768 0025 3B       		.uleb128 0x3b
 6769 0026 0B       		.uleb128 0xb
 6770 0027 49       		.uleb128 0x49
 6771 0028 13       		.uleb128 0x13
 6772 0029 00       		.byte	0
 6773 002a 00       		.byte	0
 6774 002b 04       		.uleb128 0x4
 6775 002c 24       		.uleb128 0x24
 6776 002d 00       		.byte	0
 6777 002e 0B       		.uleb128 0xb
 6778 002f 0B       		.uleb128 0xb
 6779 0030 3E       		.uleb128 0x3e
 6780 0031 0B       		.uleb128 0xb
 6781 0032 03       		.uleb128 0x3
 6782 0033 08       		.uleb128 0x8
 6783 0034 00       		.byte	0
 6784 0035 00       		.byte	0
 6785 0036 05       		.uleb128 0x5
 6786 0037 35       		.uleb128 0x35
 6787 0038 00       		.byte	0
 6788 0039 49       		.uleb128 0x49
 6789 003a 13       		.uleb128 0x13
 6790 003b 00       		.byte	0
 6791 003c 00       		.byte	0
 6792 003d 06       		.uleb128 0x6
 6793 003e 01       		.uleb128 0x1
 6794 003f 01       		.byte	0x1
 6795 0040 49       		.uleb128 0x49
 6796 0041 13       		.uleb128 0x13
 6797 0042 01       		.uleb128 0x1
 6798 0043 13       		.uleb128 0x13
ARM GAS  /tmp/cclsZlw8.s 			page 121


 6799 0044 00       		.byte	0
 6800 0045 00       		.byte	0
 6801 0046 07       		.uleb128 0x7
 6802 0047 21       		.uleb128 0x21
 6803 0048 00       		.byte	0
 6804 0049 49       		.uleb128 0x49
 6805 004a 13       		.uleb128 0x13
 6806 004b 2F       		.uleb128 0x2f
 6807 004c 0B       		.uleb128 0xb
 6808 004d 00       		.byte	0
 6809 004e 00       		.byte	0
 6810 004f 08       		.uleb128 0x8
 6811 0050 13       		.uleb128 0x13
 6812 0051 01       		.byte	0x1
 6813 0052 0B       		.uleb128 0xb
 6814 0053 05       		.uleb128 0x5
 6815 0054 3A       		.uleb128 0x3a
 6816 0055 0B       		.uleb128 0xb
 6817 0056 3B       		.uleb128 0x3b
 6818 0057 05       		.uleb128 0x5
 6819 0058 01       		.uleb128 0x1
 6820 0059 13       		.uleb128 0x13
 6821 005a 00       		.byte	0
 6822 005b 00       		.byte	0
 6823 005c 09       		.uleb128 0x9
 6824 005d 0D       		.uleb128 0xd
 6825 005e 00       		.byte	0
 6826 005f 03       		.uleb128 0x3
 6827 0060 0E       		.uleb128 0xe
 6828 0061 3A       		.uleb128 0x3a
 6829 0062 0B       		.uleb128 0xb
 6830 0063 3B       		.uleb128 0x3b
 6831 0064 05       		.uleb128 0x5
 6832 0065 49       		.uleb128 0x49
 6833 0066 13       		.uleb128 0x13
 6834 0067 38       		.uleb128 0x38
 6835 0068 0B       		.uleb128 0xb
 6836 0069 00       		.byte	0
 6837 006a 00       		.byte	0
 6838 006b 0A       		.uleb128 0xa
 6839 006c 0D       		.uleb128 0xd
 6840 006d 00       		.byte	0
 6841 006e 03       		.uleb128 0x3
 6842 006f 08       		.uleb128 0x8
 6843 0070 3A       		.uleb128 0x3a
 6844 0071 0B       		.uleb128 0xb
 6845 0072 3B       		.uleb128 0x3b
 6846 0073 05       		.uleb128 0x5
 6847 0074 49       		.uleb128 0x49
 6848 0075 13       		.uleb128 0x13
 6849 0076 38       		.uleb128 0x38
 6850 0077 0B       		.uleb128 0xb
 6851 0078 00       		.byte	0
 6852 0079 00       		.byte	0
 6853 007a 0B       		.uleb128 0xb
 6854 007b 0D       		.uleb128 0xd
 6855 007c 00       		.byte	0
ARM GAS  /tmp/cclsZlw8.s 			page 122


 6856 007d 03       		.uleb128 0x3
 6857 007e 0E       		.uleb128 0xe
 6858 007f 3A       		.uleb128 0x3a
 6859 0080 0B       		.uleb128 0xb
 6860 0081 3B       		.uleb128 0x3b
 6861 0082 05       		.uleb128 0x5
 6862 0083 49       		.uleb128 0x49
 6863 0084 13       		.uleb128 0x13
 6864 0085 38       		.uleb128 0x38
 6865 0086 05       		.uleb128 0x5
 6866 0087 00       		.byte	0
 6867 0088 00       		.byte	0
 6868 0089 0C       		.uleb128 0xc
 6869 008a 16       		.uleb128 0x16
 6870 008b 00       		.byte	0
 6871 008c 03       		.uleb128 0x3
 6872 008d 0E       		.uleb128 0xe
 6873 008e 3A       		.uleb128 0x3a
 6874 008f 0B       		.uleb128 0xb
 6875 0090 3B       		.uleb128 0x3b
 6876 0091 05       		.uleb128 0x5
 6877 0092 49       		.uleb128 0x49
 6878 0093 13       		.uleb128 0x13
 6879 0094 00       		.byte	0
 6880 0095 00       		.byte	0
 6881 0096 0D       		.uleb128 0xd
 6882 0097 13       		.uleb128 0x13
 6883 0098 01       		.byte	0x1
 6884 0099 0B       		.uleb128 0xb
 6885 009a 0B       		.uleb128 0xb
 6886 009b 3A       		.uleb128 0x3a
 6887 009c 0B       		.uleb128 0xb
 6888 009d 3B       		.uleb128 0x3b
 6889 009e 05       		.uleb128 0x5
 6890 009f 01       		.uleb128 0x1
 6891 00a0 13       		.uleb128 0x13
 6892 00a1 00       		.byte	0
 6893 00a2 00       		.byte	0
 6894 00a3 0E       		.uleb128 0xe
 6895 00a4 04       		.uleb128 0x4
 6896 00a5 01       		.byte	0x1
 6897 00a6 0B       		.uleb128 0xb
 6898 00a7 0B       		.uleb128 0xb
 6899 00a8 3A       		.uleb128 0x3a
 6900 00a9 0B       		.uleb128 0xb
 6901 00aa 3B       		.uleb128 0x3b
 6902 00ab 0B       		.uleb128 0xb
 6903 00ac 01       		.uleb128 0x1
 6904 00ad 13       		.uleb128 0x13
 6905 00ae 00       		.byte	0
 6906 00af 00       		.byte	0
 6907 00b0 0F       		.uleb128 0xf
 6908 00b1 28       		.uleb128 0x28
 6909 00b2 00       		.byte	0
 6910 00b3 03       		.uleb128 0x3
 6911 00b4 0E       		.uleb128 0xe
 6912 00b5 1C       		.uleb128 0x1c
ARM GAS  /tmp/cclsZlw8.s 			page 123


 6913 00b6 0D       		.uleb128 0xd
 6914 00b7 00       		.byte	0
 6915 00b8 00       		.byte	0
 6916 00b9 10       		.uleb128 0x10
 6917 00ba 0F       		.uleb128 0xf
 6918 00bb 00       		.byte	0
 6919 00bc 0B       		.uleb128 0xb
 6920 00bd 0B       		.uleb128 0xb
 6921 00be 00       		.byte	0
 6922 00bf 00       		.byte	0
 6923 00c0 11       		.uleb128 0x11
 6924 00c1 13       		.uleb128 0x13
 6925 00c2 01       		.byte	0x1
 6926 00c3 0B       		.uleb128 0xb
 6927 00c4 0B       		.uleb128 0xb
 6928 00c5 3A       		.uleb128 0x3a
 6929 00c6 0B       		.uleb128 0xb
 6930 00c7 3B       		.uleb128 0x3b
 6931 00c8 0B       		.uleb128 0xb
 6932 00c9 01       		.uleb128 0x1
 6933 00ca 13       		.uleb128 0x13
 6934 00cb 00       		.byte	0
 6935 00cc 00       		.byte	0
 6936 00cd 12       		.uleb128 0x12
 6937 00ce 0D       		.uleb128 0xd
 6938 00cf 00       		.byte	0
 6939 00d0 03       		.uleb128 0x3
 6940 00d1 0E       		.uleb128 0xe
 6941 00d2 3A       		.uleb128 0x3a
 6942 00d3 0B       		.uleb128 0xb
 6943 00d4 3B       		.uleb128 0x3b
 6944 00d5 0B       		.uleb128 0xb
 6945 00d6 49       		.uleb128 0x49
 6946 00d7 13       		.uleb128 0x13
 6947 00d8 38       		.uleb128 0x38
 6948 00d9 0B       		.uleb128 0xb
 6949 00da 00       		.byte	0
 6950 00db 00       		.byte	0
 6951 00dc 13       		.uleb128 0x13
 6952 00dd 0D       		.uleb128 0xd
 6953 00de 00       		.byte	0
 6954 00df 03       		.uleb128 0x3
 6955 00e0 08       		.uleb128 0x8
 6956 00e1 3A       		.uleb128 0x3a
 6957 00e2 0B       		.uleb128 0xb
 6958 00e3 3B       		.uleb128 0x3b
 6959 00e4 0B       		.uleb128 0xb
 6960 00e5 49       		.uleb128 0x49
 6961 00e6 13       		.uleb128 0x13
 6962 00e7 38       		.uleb128 0x38
 6963 00e8 0B       		.uleb128 0xb
 6964 00e9 00       		.byte	0
 6965 00ea 00       		.byte	0
 6966 00eb 14       		.uleb128 0x14
 6967 00ec 0F       		.uleb128 0xf
 6968 00ed 00       		.byte	0
 6969 00ee 0B       		.uleb128 0xb
ARM GAS  /tmp/cclsZlw8.s 			page 124


 6970 00ef 0B       		.uleb128 0xb
 6971 00f0 49       		.uleb128 0x49
 6972 00f1 13       		.uleb128 0x13
 6973 00f2 00       		.byte	0
 6974 00f3 00       		.byte	0
 6975 00f4 15       		.uleb128 0x15
 6976 00f5 2E       		.uleb128 0x2e
 6977 00f6 01       		.byte	0x1
 6978 00f7 03       		.uleb128 0x3
 6979 00f8 0E       		.uleb128 0xe
 6980 00f9 3A       		.uleb128 0x3a
 6981 00fa 0B       		.uleb128 0xb
 6982 00fb 3B       		.uleb128 0x3b
 6983 00fc 05       		.uleb128 0x5
 6984 00fd 27       		.uleb128 0x27
 6985 00fe 19       		.uleb128 0x19
 6986 00ff 49       		.uleb128 0x49
 6987 0100 13       		.uleb128 0x13
 6988 0101 20       		.uleb128 0x20
 6989 0102 0B       		.uleb128 0xb
 6990 0103 01       		.uleb128 0x1
 6991 0104 13       		.uleb128 0x13
 6992 0105 00       		.byte	0
 6993 0106 00       		.byte	0
 6994 0107 16       		.uleb128 0x16
 6995 0108 05       		.uleb128 0x5
 6996 0109 00       		.byte	0
 6997 010a 03       		.uleb128 0x3
 6998 010b 0E       		.uleb128 0xe
 6999 010c 3A       		.uleb128 0x3a
 7000 010d 0B       		.uleb128 0xb
 7001 010e 3B       		.uleb128 0x3b
 7002 010f 05       		.uleb128 0x5
 7003 0110 49       		.uleb128 0x49
 7004 0111 13       		.uleb128 0x13
 7005 0112 00       		.byte	0
 7006 0113 00       		.byte	0
 7007 0114 17       		.uleb128 0x17
 7008 0115 34       		.uleb128 0x34
 7009 0116 00       		.byte	0
 7010 0117 03       		.uleb128 0x3
 7011 0118 0E       		.uleb128 0xe
 7012 0119 3A       		.uleb128 0x3a
 7013 011a 0B       		.uleb128 0xb
 7014 011b 3B       		.uleb128 0x3b
 7015 011c 05       		.uleb128 0x5
 7016 011d 49       		.uleb128 0x49
 7017 011e 13       		.uleb128 0x13
 7018 011f 00       		.byte	0
 7019 0120 00       		.byte	0
 7020 0121 18       		.uleb128 0x18
 7021 0122 2E       		.uleb128 0x2e
 7022 0123 01       		.byte	0x1
 7023 0124 3F       		.uleb128 0x3f
 7024 0125 19       		.uleb128 0x19
 7025 0126 03       		.uleb128 0x3
 7026 0127 0E       		.uleb128 0xe
ARM GAS  /tmp/cclsZlw8.s 			page 125


 7027 0128 3A       		.uleb128 0x3a
 7028 0129 0B       		.uleb128 0xb
 7029 012a 3B       		.uleb128 0x3b
 7030 012b 05       		.uleb128 0x5
 7031 012c 27       		.uleb128 0x27
 7032 012d 19       		.uleb128 0x19
 7033 012e 49       		.uleb128 0x49
 7034 012f 13       		.uleb128 0x13
 7035 0130 20       		.uleb128 0x20
 7036 0131 0B       		.uleb128 0xb
 7037 0132 01       		.uleb128 0x1
 7038 0133 13       		.uleb128 0x13
 7039 0134 00       		.byte	0
 7040 0135 00       		.byte	0
 7041 0136 19       		.uleb128 0x19
 7042 0137 05       		.uleb128 0x5
 7043 0138 00       		.byte	0
 7044 0139 03       		.uleb128 0x3
 7045 013a 08       		.uleb128 0x8
 7046 013b 3A       		.uleb128 0x3a
 7047 013c 0B       		.uleb128 0xb
 7048 013d 3B       		.uleb128 0x3b
 7049 013e 05       		.uleb128 0x5
 7050 013f 49       		.uleb128 0x49
 7051 0140 13       		.uleb128 0x13
 7052 0141 00       		.byte	0
 7053 0142 00       		.byte	0
 7054 0143 1A       		.uleb128 0x1a
 7055 0144 34       		.uleb128 0x34
 7056 0145 00       		.byte	0
 7057 0146 03       		.uleb128 0x3
 7058 0147 08       		.uleb128 0x8
 7059 0148 3A       		.uleb128 0x3a
 7060 0149 0B       		.uleb128 0xb
 7061 014a 3B       		.uleb128 0x3b
 7062 014b 05       		.uleb128 0x5
 7063 014c 49       		.uleb128 0x49
 7064 014d 13       		.uleb128 0x13
 7065 014e 00       		.byte	0
 7066 014f 00       		.byte	0
 7067 0150 1B       		.uleb128 0x1b
 7068 0151 2E       		.uleb128 0x2e
 7069 0152 01       		.byte	0x1
 7070 0153 3F       		.uleb128 0x3f
 7071 0154 19       		.uleb128 0x19
 7072 0155 03       		.uleb128 0x3
 7073 0156 0E       		.uleb128 0xe
 7074 0157 3A       		.uleb128 0x3a
 7075 0158 0B       		.uleb128 0xb
 7076 0159 3B       		.uleb128 0x3b
 7077 015a 0B       		.uleb128 0xb
 7078 015b 27       		.uleb128 0x27
 7079 015c 19       		.uleb128 0x19
 7080 015d 49       		.uleb128 0x49
 7081 015e 13       		.uleb128 0x13
 7082 015f 20       		.uleb128 0x20
 7083 0160 0B       		.uleb128 0xb
ARM GAS  /tmp/cclsZlw8.s 			page 126


 7084 0161 01       		.uleb128 0x1
 7085 0162 13       		.uleb128 0x13
 7086 0163 00       		.byte	0
 7087 0164 00       		.byte	0
 7088 0165 1C       		.uleb128 0x1c
 7089 0166 05       		.uleb128 0x5
 7090 0167 00       		.byte	0
 7091 0168 03       		.uleb128 0x3
 7092 0169 0E       		.uleb128 0xe
 7093 016a 3A       		.uleb128 0x3a
 7094 016b 0B       		.uleb128 0xb
 7095 016c 3B       		.uleb128 0x3b
 7096 016d 0B       		.uleb128 0xb
 7097 016e 49       		.uleb128 0x49
 7098 016f 13       		.uleb128 0x13
 7099 0170 00       		.byte	0
 7100 0171 00       		.byte	0
 7101 0172 1D       		.uleb128 0x1d
 7102 0173 2E       		.uleb128 0x2e
 7103 0174 01       		.byte	0x1
 7104 0175 31       		.uleb128 0x31
 7105 0176 13       		.uleb128 0x13
 7106 0177 11       		.uleb128 0x11
 7107 0178 01       		.uleb128 0x1
 7108 0179 12       		.uleb128 0x12
 7109 017a 06       		.uleb128 0x6
 7110 017b 40       		.uleb128 0x40
 7111 017c 18       		.uleb128 0x18
 7112 017d 9742     		.uleb128 0x2117
 7113 017f 19       		.uleb128 0x19
 7114 0180 01       		.uleb128 0x1
 7115 0181 13       		.uleb128 0x13
 7116 0182 00       		.byte	0
 7117 0183 00       		.byte	0
 7118 0184 1E       		.uleb128 0x1e
 7119 0185 05       		.uleb128 0x5
 7120 0186 00       		.byte	0
 7121 0187 31       		.uleb128 0x31
 7122 0188 13       		.uleb128 0x13
 7123 0189 02       		.uleb128 0x2
 7124 018a 17       		.uleb128 0x17
 7125 018b 00       		.byte	0
 7126 018c 00       		.byte	0
 7127 018d 1F       		.uleb128 0x1f
 7128 018e 34       		.uleb128 0x34
 7129 018f 00       		.byte	0
 7130 0190 31       		.uleb128 0x31
 7131 0191 13       		.uleb128 0x13
 7132 0192 02       		.uleb128 0x2
 7133 0193 17       		.uleb128 0x17
 7134 0194 00       		.byte	0
 7135 0195 00       		.byte	0
 7136 0196 20       		.uleb128 0x20
 7137 0197 0B       		.uleb128 0xb
 7138 0198 01       		.byte	0x1
 7139 0199 11       		.uleb128 0x11
 7140 019a 01       		.uleb128 0x1
ARM GAS  /tmp/cclsZlw8.s 			page 127


 7141 019b 12       		.uleb128 0x12
 7142 019c 06       		.uleb128 0x6
 7143 019d 00       		.byte	0
 7144 019e 00       		.byte	0
 7145 019f 21       		.uleb128 0x21
 7146 01a0 05       		.uleb128 0x5
 7147 01a1 00       		.byte	0
 7148 01a2 31       		.uleb128 0x31
 7149 01a3 13       		.uleb128 0x13
 7150 01a4 02       		.uleb128 0x2
 7151 01a5 18       		.uleb128 0x18
 7152 01a6 00       		.byte	0
 7153 01a7 00       		.byte	0
 7154 01a8 22       		.uleb128 0x22
 7155 01a9 2E       		.uleb128 0x2e
 7156 01aa 01       		.byte	0x1
 7157 01ab 3F       		.uleb128 0x3f
 7158 01ac 19       		.uleb128 0x19
 7159 01ad 03       		.uleb128 0x3
 7160 01ae 0E       		.uleb128 0xe
 7161 01af 3A       		.uleb128 0x3a
 7162 01b0 0B       		.uleb128 0xb
 7163 01b1 3B       		.uleb128 0x3b
 7164 01b2 0B       		.uleb128 0xb
 7165 01b3 27       		.uleb128 0x27
 7166 01b4 19       		.uleb128 0x19
 7167 01b5 49       		.uleb128 0x49
 7168 01b6 13       		.uleb128 0x13
 7169 01b7 11       		.uleb128 0x11
 7170 01b8 01       		.uleb128 0x1
 7171 01b9 12       		.uleb128 0x12
 7172 01ba 06       		.uleb128 0x6
 7173 01bb 40       		.uleb128 0x40
 7174 01bc 18       		.uleb128 0x18
 7175 01bd 9742     		.uleb128 0x2117
 7176 01bf 19       		.uleb128 0x19
 7177 01c0 01       		.uleb128 0x1
 7178 01c1 13       		.uleb128 0x13
 7179 01c2 00       		.byte	0
 7180 01c3 00       		.byte	0
 7181 01c4 23       		.uleb128 0x23
 7182 01c5 05       		.uleb128 0x5
 7183 01c6 00       		.byte	0
 7184 01c7 03       		.uleb128 0x3
 7185 01c8 0E       		.uleb128 0xe
 7186 01c9 3A       		.uleb128 0x3a
 7187 01ca 0B       		.uleb128 0xb
 7188 01cb 3B       		.uleb128 0x3b
 7189 01cc 0B       		.uleb128 0xb
 7190 01cd 49       		.uleb128 0x49
 7191 01ce 13       		.uleb128 0x13
 7192 01cf 02       		.uleb128 0x2
 7193 01d0 17       		.uleb128 0x17
 7194 01d1 00       		.byte	0
 7195 01d2 00       		.byte	0
 7196 01d3 24       		.uleb128 0x24
 7197 01d4 05       		.uleb128 0x5
ARM GAS  /tmp/cclsZlw8.s 			page 128


 7198 01d5 00       		.byte	0
 7199 01d6 03       		.uleb128 0x3
 7200 01d7 08       		.uleb128 0x8
 7201 01d8 3A       		.uleb128 0x3a
 7202 01d9 0B       		.uleb128 0xb
 7203 01da 3B       		.uleb128 0x3b
 7204 01db 0B       		.uleb128 0xb
 7205 01dc 49       		.uleb128 0x49
 7206 01dd 13       		.uleb128 0x13
 7207 01de 02       		.uleb128 0x2
 7208 01df 18       		.uleb128 0x18
 7209 01e0 00       		.byte	0
 7210 01e1 00       		.byte	0
 7211 01e2 25       		.uleb128 0x25
 7212 01e3 898201   		.uleb128 0x4109
 7213 01e6 01       		.byte	0x1
 7214 01e7 11       		.uleb128 0x11
 7215 01e8 01       		.uleb128 0x1
 7216 01e9 31       		.uleb128 0x31
 7217 01ea 13       		.uleb128 0x13
 7218 01eb 01       		.uleb128 0x1
 7219 01ec 13       		.uleb128 0x13
 7220 01ed 00       		.byte	0
 7221 01ee 00       		.byte	0
 7222 01ef 26       		.uleb128 0x26
 7223 01f0 8A8201   		.uleb128 0x410a
 7224 01f3 00       		.byte	0
 7225 01f4 02       		.uleb128 0x2
 7226 01f5 18       		.uleb128 0x18
 7227 01f6 9142     		.uleb128 0x2111
 7228 01f8 18       		.uleb128 0x18
 7229 01f9 00       		.byte	0
 7230 01fa 00       		.byte	0
 7231 01fb 27       		.uleb128 0x27
 7232 01fc 898201   		.uleb128 0x4109
 7233 01ff 01       		.byte	0x1
 7234 0200 11       		.uleb128 0x11
 7235 0201 01       		.uleb128 0x1
 7236 0202 31       		.uleb128 0x31
 7237 0203 13       		.uleb128 0x13
 7238 0204 00       		.byte	0
 7239 0205 00       		.byte	0
 7240 0206 28       		.uleb128 0x28
 7241 0207 05       		.uleb128 0x5
 7242 0208 00       		.byte	0
 7243 0209 03       		.uleb128 0x3
 7244 020a 08       		.uleb128 0x8
 7245 020b 3A       		.uleb128 0x3a
 7246 020c 0B       		.uleb128 0xb
 7247 020d 3B       		.uleb128 0x3b
 7248 020e 0B       		.uleb128 0xb
 7249 020f 49       		.uleb128 0x49
 7250 0210 13       		.uleb128 0x13
 7251 0211 02       		.uleb128 0x2
 7252 0212 17       		.uleb128 0x17
 7253 0213 00       		.byte	0
 7254 0214 00       		.byte	0
ARM GAS  /tmp/cclsZlw8.s 			page 129


 7255 0215 29       		.uleb128 0x29
 7256 0216 34       		.uleb128 0x34
 7257 0217 00       		.byte	0
 7258 0218 03       		.uleb128 0x3
 7259 0219 08       		.uleb128 0x8
 7260 021a 3A       		.uleb128 0x3a
 7261 021b 0B       		.uleb128 0xb
 7262 021c 3B       		.uleb128 0x3b
 7263 021d 0B       		.uleb128 0xb
 7264 021e 49       		.uleb128 0x49
 7265 021f 13       		.uleb128 0x13
 7266 0220 02       		.uleb128 0x2
 7267 0221 17       		.uleb128 0x17
 7268 0222 00       		.byte	0
 7269 0223 00       		.byte	0
 7270 0224 2A       		.uleb128 0x2a
 7271 0225 1D       		.uleb128 0x1d
 7272 0226 01       		.byte	0x1
 7273 0227 31       		.uleb128 0x31
 7274 0228 13       		.uleb128 0x13
 7275 0229 11       		.uleb128 0x11
 7276 022a 01       		.uleb128 0x1
 7277 022b 12       		.uleb128 0x12
 7278 022c 06       		.uleb128 0x6
 7279 022d 58       		.uleb128 0x58
 7280 022e 0B       		.uleb128 0xb
 7281 022f 59       		.uleb128 0x59
 7282 0230 0B       		.uleb128 0xb
 7283 0231 01       		.uleb128 0x1
 7284 0232 13       		.uleb128 0x13
 7285 0233 00       		.byte	0
 7286 0234 00       		.byte	0
 7287 0235 2B       		.uleb128 0x2b
 7288 0236 1D       		.uleb128 0x1d
 7289 0237 01       		.byte	0x1
 7290 0238 31       		.uleb128 0x31
 7291 0239 13       		.uleb128 0x13
 7292 023a 11       		.uleb128 0x11
 7293 023b 01       		.uleb128 0x1
 7294 023c 12       		.uleb128 0x12
 7295 023d 06       		.uleb128 0x6
 7296 023e 58       		.uleb128 0x58
 7297 023f 0B       		.uleb128 0xb
 7298 0240 59       		.uleb128 0x59
 7299 0241 0B       		.uleb128 0xb
 7300 0242 00       		.byte	0
 7301 0243 00       		.byte	0
 7302 0244 2C       		.uleb128 0x2c
 7303 0245 05       		.uleb128 0x5
 7304 0246 00       		.byte	0
 7305 0247 31       		.uleb128 0x31
 7306 0248 13       		.uleb128 0x13
 7307 0249 1C       		.uleb128 0x1c
 7308 024a 0B       		.uleb128 0xb
 7309 024b 00       		.byte	0
 7310 024c 00       		.byte	0
 7311 024d 2D       		.uleb128 0x2d
ARM GAS  /tmp/cclsZlw8.s 			page 130


 7312 024e 2E       		.uleb128 0x2e
 7313 024f 01       		.byte	0x1
 7314 0250 3F       		.uleb128 0x3f
 7315 0251 19       		.uleb128 0x19
 7316 0252 03       		.uleb128 0x3
 7317 0253 0E       		.uleb128 0xe
 7318 0254 3A       		.uleb128 0x3a
 7319 0255 0B       		.uleb128 0xb
 7320 0256 3B       		.uleb128 0x3b
 7321 0257 05       		.uleb128 0x5
 7322 0258 27       		.uleb128 0x27
 7323 0259 19       		.uleb128 0x19
 7324 025a 49       		.uleb128 0x49
 7325 025b 13       		.uleb128 0x13
 7326 025c 11       		.uleb128 0x11
 7327 025d 01       		.uleb128 0x1
 7328 025e 12       		.uleb128 0x12
 7329 025f 06       		.uleb128 0x6
 7330 0260 40       		.uleb128 0x40
 7331 0261 18       		.uleb128 0x18
 7332 0262 9742     		.uleb128 0x2117
 7333 0264 19       		.uleb128 0x19
 7334 0265 01       		.uleb128 0x1
 7335 0266 13       		.uleb128 0x13
 7336 0267 00       		.byte	0
 7337 0268 00       		.byte	0
 7338 0269 2E       		.uleb128 0x2e
 7339 026a 05       		.uleb128 0x5
 7340 026b 00       		.byte	0
 7341 026c 03       		.uleb128 0x3
 7342 026d 0E       		.uleb128 0xe
 7343 026e 3A       		.uleb128 0x3a
 7344 026f 0B       		.uleb128 0xb
 7345 0270 3B       		.uleb128 0x3b
 7346 0271 05       		.uleb128 0x5
 7347 0272 49       		.uleb128 0x49
 7348 0273 13       		.uleb128 0x13
 7349 0274 02       		.uleb128 0x2
 7350 0275 17       		.uleb128 0x17
 7351 0276 00       		.byte	0
 7352 0277 00       		.byte	0
 7353 0278 2F       		.uleb128 0x2f
 7354 0279 34       		.uleb128 0x34
 7355 027a 00       		.byte	0
 7356 027b 03       		.uleb128 0x3
 7357 027c 0E       		.uleb128 0xe
 7358 027d 3A       		.uleb128 0x3a
 7359 027e 0B       		.uleb128 0xb
 7360 027f 3B       		.uleb128 0x3b
 7361 0280 05       		.uleb128 0x5
 7362 0281 49       		.uleb128 0x49
 7363 0282 13       		.uleb128 0x13
 7364 0283 02       		.uleb128 0x2
 7365 0284 17       		.uleb128 0x17
 7366 0285 00       		.byte	0
 7367 0286 00       		.byte	0
 7368 0287 30       		.uleb128 0x30
ARM GAS  /tmp/cclsZlw8.s 			page 131


 7369 0288 05       		.uleb128 0x5
 7370 0289 00       		.byte	0
 7371 028a 03       		.uleb128 0x3
 7372 028b 08       		.uleb128 0x8
 7373 028c 3A       		.uleb128 0x3a
 7374 028d 0B       		.uleb128 0xb
 7375 028e 3B       		.uleb128 0x3b
 7376 028f 05       		.uleb128 0x5
 7377 0290 49       		.uleb128 0x49
 7378 0291 13       		.uleb128 0x13
 7379 0292 02       		.uleb128 0x2
 7380 0293 17       		.uleb128 0x17
 7381 0294 00       		.byte	0
 7382 0295 00       		.byte	0
 7383 0296 31       		.uleb128 0x31
 7384 0297 34       		.uleb128 0x34
 7385 0298 00       		.byte	0
 7386 0299 03       		.uleb128 0x3
 7387 029a 0E       		.uleb128 0xe
 7388 029b 3A       		.uleb128 0x3a
 7389 029c 0B       		.uleb128 0xb
 7390 029d 3B       		.uleb128 0x3b
 7391 029e 05       		.uleb128 0x5
 7392 029f 49       		.uleb128 0x49
 7393 02a0 13       		.uleb128 0x13
 7394 02a1 02       		.uleb128 0x2
 7395 02a2 18       		.uleb128 0x18
 7396 02a3 00       		.byte	0
 7397 02a4 00       		.byte	0
 7398 02a5 32       		.uleb128 0x32
 7399 02a6 05       		.uleb128 0x5
 7400 02a7 00       		.byte	0
 7401 02a8 03       		.uleb128 0x3
 7402 02a9 08       		.uleb128 0x8
 7403 02aa 3A       		.uleb128 0x3a
 7404 02ab 0B       		.uleb128 0xb
 7405 02ac 3B       		.uleb128 0x3b
 7406 02ad 05       		.uleb128 0x5
 7407 02ae 49       		.uleb128 0x49
 7408 02af 13       		.uleb128 0x13
 7409 02b0 02       		.uleb128 0x2
 7410 02b1 18       		.uleb128 0x18
 7411 02b2 00       		.byte	0
 7412 02b3 00       		.byte	0
 7413 02b4 33       		.uleb128 0x33
 7414 02b5 1D       		.uleb128 0x1d
 7415 02b6 01       		.byte	0x1
 7416 02b7 31       		.uleb128 0x31
 7417 02b8 13       		.uleb128 0x13
 7418 02b9 11       		.uleb128 0x11
 7419 02ba 01       		.uleb128 0x1
 7420 02bb 12       		.uleb128 0x12
 7421 02bc 06       		.uleb128 0x6
 7422 02bd 58       		.uleb128 0x58
 7423 02be 0B       		.uleb128 0xb
 7424 02bf 59       		.uleb128 0x59
 7425 02c0 05       		.uleb128 0x5
ARM GAS  /tmp/cclsZlw8.s 			page 132


 7426 02c1 00       		.byte	0
 7427 02c2 00       		.byte	0
 7428 02c3 34       		.uleb128 0x34
 7429 02c4 8A8201   		.uleb128 0x410a
 7430 02c7 00       		.byte	0
 7431 02c8 31       		.uleb128 0x31
 7432 02c9 13       		.uleb128 0x13
 7433 02ca 9142     		.uleb128 0x2111
 7434 02cc 18       		.uleb128 0x18
 7435 02cd 00       		.byte	0
 7436 02ce 00       		.byte	0
 7437 02cf 35       		.uleb128 0x35
 7438 02d0 34       		.uleb128 0x34
 7439 02d1 00       		.byte	0
 7440 02d2 31       		.uleb128 0x31
 7441 02d3 13       		.uleb128 0x13
 7442 02d4 1C       		.uleb128 0x1c
 7443 02d5 0B       		.uleb128 0xb
 7444 02d6 00       		.byte	0
 7445 02d7 00       		.byte	0
 7446 02d8 36       		.uleb128 0x36
 7447 02d9 34       		.uleb128 0x34
 7448 02da 00       		.byte	0
 7449 02db 03       		.uleb128 0x3
 7450 02dc 08       		.uleb128 0x8
 7451 02dd 3A       		.uleb128 0x3a
 7452 02de 0B       		.uleb128 0xb
 7453 02df 3B       		.uleb128 0x3b
 7454 02e0 05       		.uleb128 0x5
 7455 02e1 49       		.uleb128 0x49
 7456 02e2 13       		.uleb128 0x13
 7457 02e3 02       		.uleb128 0x2
 7458 02e4 17       		.uleb128 0x17
 7459 02e5 00       		.byte	0
 7460 02e6 00       		.byte	0
 7461 02e7 37       		.uleb128 0x37
 7462 02e8 1D       		.uleb128 0x1d
 7463 02e9 01       		.byte	0x1
 7464 02ea 31       		.uleb128 0x31
 7465 02eb 13       		.uleb128 0x13
 7466 02ec 52       		.uleb128 0x52
 7467 02ed 01       		.uleb128 0x1
 7468 02ee 55       		.uleb128 0x55
 7469 02ef 17       		.uleb128 0x17
 7470 02f0 58       		.uleb128 0x58
 7471 02f1 0B       		.uleb128 0xb
 7472 02f2 59       		.uleb128 0x59
 7473 02f3 05       		.uleb128 0x5
 7474 02f4 01       		.uleb128 0x1
 7475 02f5 13       		.uleb128 0x13
 7476 02f6 00       		.byte	0
 7477 02f7 00       		.byte	0
 7478 02f8 38       		.uleb128 0x38
 7479 02f9 0B       		.uleb128 0xb
 7480 02fa 01       		.byte	0x1
 7481 02fb 55       		.uleb128 0x55
 7482 02fc 17       		.uleb128 0x17
ARM GAS  /tmp/cclsZlw8.s 			page 133


 7483 02fd 00       		.byte	0
 7484 02fe 00       		.byte	0
 7485 02ff 39       		.uleb128 0x39
 7486 0300 05       		.uleb128 0x5
 7487 0301 00       		.byte	0
 7488 0302 03       		.uleb128 0x3
 7489 0303 0E       		.uleb128 0xe
 7490 0304 3A       		.uleb128 0x3a
 7491 0305 0B       		.uleb128 0xb
 7492 0306 3B       		.uleb128 0x3b
 7493 0307 05       		.uleb128 0x5
 7494 0308 49       		.uleb128 0x49
 7495 0309 13       		.uleb128 0x13
 7496 030a 02       		.uleb128 0x2
 7497 030b 18       		.uleb128 0x18
 7498 030c 00       		.byte	0
 7499 030d 00       		.byte	0
 7500 030e 3A       		.uleb128 0x3a
 7501 030f 2E       		.uleb128 0x2e
 7502 0310 01       		.byte	0x1
 7503 0311 3F       		.uleb128 0x3f
 7504 0312 19       		.uleb128 0x19
 7505 0313 03       		.uleb128 0x3
 7506 0314 0E       		.uleb128 0xe
 7507 0315 3A       		.uleb128 0x3a
 7508 0316 0B       		.uleb128 0xb
 7509 0317 3B       		.uleb128 0x3b
 7510 0318 05       		.uleb128 0x5
 7511 0319 27       		.uleb128 0x27
 7512 031a 19       		.uleb128 0x19
 7513 031b 11       		.uleb128 0x11
 7514 031c 01       		.uleb128 0x1
 7515 031d 12       		.uleb128 0x12
 7516 031e 06       		.uleb128 0x6
 7517 031f 40       		.uleb128 0x40
 7518 0320 18       		.uleb128 0x18
 7519 0321 9742     		.uleb128 0x2117
 7520 0323 19       		.uleb128 0x19
 7521 0324 01       		.uleb128 0x1
 7522 0325 13       		.uleb128 0x13
 7523 0326 00       		.byte	0
 7524 0327 00       		.byte	0
 7525 0328 3B       		.uleb128 0x3b
 7526 0329 1D       		.uleb128 0x1d
 7527 032a 01       		.byte	0x1
 7528 032b 31       		.uleb128 0x31
 7529 032c 13       		.uleb128 0x13
 7530 032d 11       		.uleb128 0x11
 7531 032e 01       		.uleb128 0x1
 7532 032f 12       		.uleb128 0x12
 7533 0330 06       		.uleb128 0x6
 7534 0331 58       		.uleb128 0x58
 7535 0332 0B       		.uleb128 0xb
 7536 0333 59       		.uleb128 0x59
 7537 0334 05       		.uleb128 0x5
 7538 0335 01       		.uleb128 0x1
 7539 0336 13       		.uleb128 0x13
ARM GAS  /tmp/cclsZlw8.s 			page 134


 7540 0337 00       		.byte	0
 7541 0338 00       		.byte	0
 7542 0339 3C       		.uleb128 0x3c
 7543 033a 34       		.uleb128 0x34
 7544 033b 00       		.byte	0
 7545 033c 03       		.uleb128 0x3
 7546 033d 0E       		.uleb128 0xe
 7547 033e 3A       		.uleb128 0x3a
 7548 033f 0B       		.uleb128 0xb
 7549 0340 3B       		.uleb128 0x3b
 7550 0341 05       		.uleb128 0x5
 7551 0342 49       		.uleb128 0x49
 7552 0343 13       		.uleb128 0x13
 7553 0344 1C       		.uleb128 0x1c
 7554 0345 05       		.uleb128 0x5
 7555 0346 00       		.byte	0
 7556 0347 00       		.byte	0
 7557 0348 3D       		.uleb128 0x3d
 7558 0349 1D       		.uleb128 0x1d
 7559 034a 01       		.byte	0x1
 7560 034b 31       		.uleb128 0x31
 7561 034c 13       		.uleb128 0x13
 7562 034d 52       		.uleb128 0x52
 7563 034e 01       		.uleb128 0x1
 7564 034f 55       		.uleb128 0x55
 7565 0350 17       		.uleb128 0x17
 7566 0351 58       		.uleb128 0x58
 7567 0352 0B       		.uleb128 0xb
 7568 0353 59       		.uleb128 0x59
 7569 0354 05       		.uleb128 0x5
 7570 0355 00       		.byte	0
 7571 0356 00       		.byte	0
 7572 0357 3E       		.uleb128 0x3e
 7573 0358 34       		.uleb128 0x34
 7574 0359 00       		.byte	0
 7575 035a 03       		.uleb128 0x3
 7576 035b 0E       		.uleb128 0xe
 7577 035c 3A       		.uleb128 0x3a
 7578 035d 0B       		.uleb128 0xb
 7579 035e 3B       		.uleb128 0x3b
 7580 035f 05       		.uleb128 0x5
 7581 0360 49       		.uleb128 0x49
 7582 0361 13       		.uleb128 0x13
 7583 0362 3F       		.uleb128 0x3f
 7584 0363 19       		.uleb128 0x19
 7585 0364 3C       		.uleb128 0x3c
 7586 0365 19       		.uleb128 0x19
 7587 0366 00       		.byte	0
 7588 0367 00       		.byte	0
 7589 0368 3F       		.uleb128 0x3f
 7590 0369 2E       		.uleb128 0x2e
 7591 036a 01       		.byte	0x1
 7592 036b 3F       		.uleb128 0x3f
 7593 036c 19       		.uleb128 0x19
 7594 036d 03       		.uleb128 0x3
 7595 036e 0E       		.uleb128 0xe
 7596 036f 3A       		.uleb128 0x3a
ARM GAS  /tmp/cclsZlw8.s 			page 135


 7597 0370 0B       		.uleb128 0xb
 7598 0371 3B       		.uleb128 0x3b
 7599 0372 0B       		.uleb128 0xb
 7600 0373 27       		.uleb128 0x27
 7601 0374 19       		.uleb128 0x19
 7602 0375 3C       		.uleb128 0x3c
 7603 0376 19       		.uleb128 0x19
 7604 0377 00       		.byte	0
 7605 0378 00       		.byte	0
 7606 0379 40       		.uleb128 0x40
 7607 037a 05       		.uleb128 0x5
 7608 037b 00       		.byte	0
 7609 037c 49       		.uleb128 0x49
 7610 037d 13       		.uleb128 0x13
 7611 037e 00       		.byte	0
 7612 037f 00       		.byte	0
 7613 0380 00       		.byte	0
 7614              		.section	.debug_loc,"",%progbits
 7615              	.Ldebug_loc0:
 7616              	.LLST0:
 7617 0000 00000000 		.4byte	.LVL0-.Ltext0
 7618 0004 28000000 		.4byte	.LVL9-.Ltext0
 7619 0008 0100     		.2byte	0x1
 7620 000a 50       		.byte	0x50
 7621 000b 28000000 		.4byte	.LVL9-.Ltext0
 7622 000f 2A000000 		.4byte	.LVL10-.Ltext0
 7623 0013 0400     		.2byte	0x4
 7624 0015 F3       		.byte	0xf3
 7625 0016 01       		.uleb128 0x1
 7626 0017 50       		.byte	0x50
 7627 0018 9F       		.byte	0x9f
 7628 0019 2A000000 		.4byte	.LVL10-.Ltext0
 7629 001d 2C000000 		.4byte	.LVL11-.Ltext0
 7630 0021 0100     		.2byte	0x1
 7631 0023 50       		.byte	0x50
 7632 0024 2C000000 		.4byte	.LVL11-.Ltext0
 7633 0028 34000000 		.4byte	.LFE155-.Ltext0
 7634 002c 0400     		.2byte	0x4
 7635 002e F3       		.byte	0xf3
 7636 002f 01       		.uleb128 0x1
 7637 0030 50       		.byte	0x50
 7638 0031 9F       		.byte	0x9f
 7639 0032 00000000 		.4byte	0
 7640 0036 00000000 		.4byte	0
 7641              	.LLST1:
 7642 003a 00000000 		.4byte	.LVL0-.Ltext0
 7643 003e 04000000 		.4byte	.LVL1-.Ltext0
 7644 0042 0200     		.2byte	0x2
 7645 0044 31       		.byte	0x31
 7646 0045 9F       		.byte	0x9f
 7647 0046 04000000 		.4byte	.LVL1-.Ltext0
 7648 004a 06000000 		.4byte	.LVL2-.Ltext0
 7649 004e 0900     		.2byte	0x9
 7650 0050 0C       		.byte	0xc
 7651 0051 410D0300 		.4byte	0x30d41
 7652 0055 73       		.byte	0x73
 7653 0056 00       		.sleb128 0
ARM GAS  /tmp/cclsZlw8.s 			page 136


 7654 0057 1C       		.byte	0x1c
 7655 0058 9F       		.byte	0x9f
 7656 0059 06000000 		.4byte	.LVL2-.Ltext0
 7657 005d 08000000 		.4byte	.LVL3-.Ltext0
 7658 0061 0900     		.2byte	0x9
 7659 0063 0C       		.byte	0xc
 7660 0064 400D0300 		.4byte	0x30d40
 7661 0068 73       		.byte	0x73
 7662 0069 00       		.sleb128 0
 7663 006a 1C       		.byte	0x1c
 7664 006b 9F       		.byte	0x9f
 7665 006c 08000000 		.4byte	.LVL3-.Ltext0
 7666 0070 0E000000 		.4byte	.LVL4-.Ltext0
 7667 0074 0900     		.2byte	0x9
 7668 0076 0C       		.byte	0xc
 7669 0077 410D0300 		.4byte	0x30d41
 7670 007b 73       		.byte	0x73
 7671 007c 00       		.sleb128 0
 7672 007d 1C       		.byte	0x1c
 7673 007e 9F       		.byte	0x9f
 7674 007f 0E000000 		.4byte	.LVL4-.Ltext0
 7675 0083 2A000000 		.4byte	.LVL10-.Ltext0
 7676 0087 0200     		.2byte	0x2
 7677 0089 30       		.byte	0x30
 7678 008a 9F       		.byte	0x9f
 7679 008b 00000000 		.4byte	0
 7680 008f 00000000 		.4byte	0
 7681              	.LLST2:
 7682 0093 18000000 		.4byte	.LVL5-.Ltext0
 7683 0097 28000000 		.4byte	.LVL9-.Ltext0
 7684 009b 0100     		.2byte	0x1
 7685 009d 50       		.byte	0x50
 7686 009e 28000000 		.4byte	.LVL9-.Ltext0
 7687 00a2 2A000000 		.4byte	.LVL10-.Ltext0
 7688 00a6 0400     		.2byte	0x4
 7689 00a8 F3       		.byte	0xf3
 7690 00a9 01       		.uleb128 0x1
 7691 00aa 50       		.byte	0x50
 7692 00ab 9F       		.byte	0x9f
 7693 00ac 00000000 		.4byte	0
 7694 00b0 00000000 		.4byte	0
 7695              	.LLST3:
 7696 00b4 18000000 		.4byte	.LVL5-.Ltext0
 7697 00b8 1A000000 		.4byte	.LVL6-.Ltext0
 7698 00bc 0200     		.2byte	0x2
 7699 00be 31       		.byte	0x31
 7700 00bf 9F       		.byte	0x9f
 7701 00c0 1A000000 		.4byte	.LVL6-.Ltext0
 7702 00c4 1C000000 		.4byte	.LVL7-.Ltext0
 7703 00c8 0900     		.2byte	0x9
 7704 00ca 0C       		.byte	0xc
 7705 00cb 410D0300 		.4byte	0x30d41
 7706 00cf 72       		.byte	0x72
 7707 00d0 00       		.sleb128 0
 7708 00d1 1C       		.byte	0x1c
 7709 00d2 9F       		.byte	0x9f
 7710 00d3 1C000000 		.4byte	.LVL7-.Ltext0
ARM GAS  /tmp/cclsZlw8.s 			page 137


 7711 00d7 1E000000 		.4byte	.LVL8-.Ltext0
 7712 00db 0900     		.2byte	0x9
 7713 00dd 0C       		.byte	0xc
 7714 00de 400D0300 		.4byte	0x30d40
 7715 00e2 72       		.byte	0x72
 7716 00e3 00       		.sleb128 0
 7717 00e4 1C       		.byte	0x1c
 7718 00e5 9F       		.byte	0x9f
 7719 00e6 1E000000 		.4byte	.LVL8-.Ltext0
 7720 00ea 2A000000 		.4byte	.LVL10-.Ltext0
 7721 00ee 0900     		.2byte	0x9
 7722 00f0 0C       		.byte	0xc
 7723 00f1 410D0300 		.4byte	0x30d41
 7724 00f5 72       		.byte	0x72
 7725 00f6 00       		.sleb128 0
 7726 00f7 1C       		.byte	0x1c
 7727 00f8 9F       		.byte	0x9f
 7728 00f9 00000000 		.4byte	0
 7729 00fd 00000000 		.4byte	0
 7730              	.LLST4:
 7731 0101 40000000 		.4byte	.LVL12-.Ltext0
 7732 0105 4A000000 		.4byte	.LVL15-.Ltext0
 7733 0109 0100     		.2byte	0x1
 7734 010b 50       		.byte	0x50
 7735 010c 4A000000 		.4byte	.LVL15-.Ltext0
 7736 0110 60000000 		.4byte	.LVL20-.Ltext0
 7737 0114 0400     		.2byte	0x4
 7738 0116 70       		.byte	0x70
 7739 0117 8060     		.sleb128 -4096
 7740 0119 9F       		.byte	0x9f
 7741 011a 60000000 		.4byte	.LVL20-.Ltext0
 7742 011e 64000000 		.4byte	.LVL22-.Ltext0
 7743 0122 0400     		.2byte	0x4
 7744 0124 F3       		.byte	0xf3
 7745 0125 01       		.uleb128 0x1
 7746 0126 50       		.byte	0x50
 7747 0127 9F       		.byte	0x9f
 7748 0128 64000000 		.4byte	.LVL22-.Ltext0
 7749 012c 66000000 		.4byte	.LVL23-.Ltext0
 7750 0130 0100     		.2byte	0x1
 7751 0132 50       		.byte	0x50
 7752 0133 66000000 		.4byte	.LVL23-.Ltext0
 7753 0137 68000000 		.4byte	.LFE169-.Ltext0
 7754 013b 0400     		.2byte	0x4
 7755 013d F3       		.byte	0xf3
 7756 013e 01       		.uleb128 0x1
 7757 013f 50       		.byte	0x50
 7758 0140 9F       		.byte	0x9f
 7759 0141 00000000 		.4byte	0
 7760 0145 00000000 		.4byte	0
 7761              	.LLST5:
 7762 0149 40000000 		.4byte	.LVL12-.Ltext0
 7763 014d 58000000 		.4byte	.LVL19-.Ltext0
 7764 0151 0100     		.2byte	0x1
 7765 0153 51       		.byte	0x51
 7766 0154 58000000 		.4byte	.LVL19-.Ltext0
 7767 0158 68000000 		.4byte	.LFE169-.Ltext0
ARM GAS  /tmp/cclsZlw8.s 			page 138


 7768 015c 0100     		.2byte	0x1
 7769 015e 51       		.byte	0x51
 7770 015f 00000000 		.4byte	0
 7771 0163 00000000 		.4byte	0
 7772              	.LLST6:
 7773 0167 40000000 		.4byte	.LVL12-.Ltext0
 7774 016b 50000000 		.4byte	.LVL16-.Ltext0
 7775 016f 0100     		.2byte	0x1
 7776 0171 52       		.byte	0x52
 7777 0172 50000000 		.4byte	.LVL16-.Ltext0
 7778 0176 64000000 		.4byte	.LVL22-.Ltext0
 7779 017a 0400     		.2byte	0x4
 7780 017c F3       		.byte	0xf3
 7781 017d 01       		.uleb128 0x1
 7782 017e 52       		.byte	0x52
 7783 017f 9F       		.byte	0x9f
 7784 0180 64000000 		.4byte	.LVL22-.Ltext0
 7785 0184 68000000 		.4byte	.LFE169-.Ltext0
 7786 0188 0100     		.2byte	0x1
 7787 018a 52       		.byte	0x52
 7788 018b 00000000 		.4byte	0
 7789 018f 00000000 		.4byte	0
 7790              	.LLST7:
 7791 0193 40000000 		.4byte	.LVL12-.Ltext0
 7792 0197 42000000 		.4byte	.LVL13-.Ltext0
 7793 019b 0100     		.2byte	0x1
 7794 019d 53       		.byte	0x53
 7795 019e 42000000 		.4byte	.LVL13-.Ltext0
 7796 01a2 68000000 		.4byte	.LFE169-.Ltext0
 7797 01a6 0400     		.2byte	0x4
 7798 01a8 F3       		.byte	0xf3
 7799 01a9 01       		.uleb128 0x1
 7800 01aa 53       		.byte	0x53
 7801 01ab 9F       		.byte	0x9f
 7802 01ac 00000000 		.4byte	0
 7803 01b0 00000000 		.4byte	0
 7804              	.LLST8:
 7805 01b4 42000000 		.4byte	.LVL13-.Ltext0
 7806 01b8 44000000 		.4byte	.LVL14-.Ltext0
 7807 01bc 0500     		.2byte	0x5
 7808 01be 73       		.byte	0x73
 7809 01bf 00       		.sleb128 0
 7810 01c0 32       		.byte	0x32
 7811 01c1 26       		.byte	0x26
 7812 01c2 9F       		.byte	0x9f
 7813 01c3 44000000 		.4byte	.LVL14-.Ltext0
 7814 01c7 68000000 		.4byte	.LFE169-.Ltext0
 7815 01cb 0100     		.2byte	0x1
 7816 01cd 53       		.byte	0x53
 7817 01ce 00000000 		.4byte	0
 7818 01d2 00000000 		.4byte	0
 7819              	.LLST9:
 7820 01d6 42000000 		.4byte	.LVL13-.Ltext0
 7821 01da 52000000 		.4byte	.LVL17-.Ltext0
 7822 01de 0200     		.2byte	0x2
 7823 01e0 30       		.byte	0x30
 7824 01e1 9F       		.byte	0x9f
ARM GAS  /tmp/cclsZlw8.s 			page 139


 7825 01e2 52000000 		.4byte	.LVL17-.Ltext0
 7826 01e6 62000000 		.4byte	.LVL21-.Ltext0
 7827 01ea 0100     		.2byte	0x1
 7828 01ec 54       		.byte	0x54
 7829 01ed 64000000 		.4byte	.LVL22-.Ltext0
 7830 01f1 68000000 		.4byte	.LFE169-.Ltext0
 7831 01f5 0200     		.2byte	0x2
 7832 01f7 30       		.byte	0x30
 7833 01f8 9F       		.byte	0x9f
 7834 01f9 00000000 		.4byte	0
 7835 01fd 00000000 		.4byte	0
 7836              	.LLST10:
 7837 0201 70000000 		.4byte	.LVL24-.Ltext0
 7838 0205 8D000000 		.4byte	.LVL25-1-.Ltext0
 7839 0209 0100     		.2byte	0x1
 7840 020b 50       		.byte	0x50
 7841 020c 8D000000 		.4byte	.LVL25-1-.Ltext0
 7842 0210 AE000000 		.4byte	.LVL26-.Ltext0
 7843 0214 0100     		.2byte	0x1
 7844 0216 54       		.byte	0x54
 7845 0217 AE000000 		.4byte	.LVL26-.Ltext0
 7846 021b B4000000 		.4byte	.LVL27-.Ltext0
 7847 021f 0400     		.2byte	0x4
 7848 0221 F3       		.byte	0xf3
 7849 0222 01       		.uleb128 0x1
 7850 0223 50       		.byte	0x50
 7851 0224 9F       		.byte	0x9f
 7852 0225 B4000000 		.4byte	.LVL27-.Ltext0
 7853 0229 D8000000 		.4byte	.LVL28-.Ltext0
 7854 022d 0100     		.2byte	0x1
 7855 022f 50       		.byte	0x50
 7856 0230 D8000000 		.4byte	.LVL28-.Ltext0
 7857 0234 DE000000 		.4byte	.LVL30-.Ltext0
 7858 0238 0100     		.2byte	0x1
 7859 023a 54       		.byte	0x54
 7860 023b DE000000 		.4byte	.LVL30-.Ltext0
 7861 023f E8000000 		.4byte	.LFE123-.Ltext0
 7862 0243 0100     		.2byte	0x1
 7863 0245 50       		.byte	0x50
 7864 0246 00000000 		.4byte	0
 7865 024a 00000000 		.4byte	0
 7866              	.LLST11:
 7867 024e F0000000 		.4byte	.LVL31-.Ltext0
 7868 0252 F4000000 		.4byte	.LVL32-.Ltext0
 7869 0256 0100     		.2byte	0x1
 7870 0258 50       		.byte	0x50
 7871 0259 F4000000 		.4byte	.LVL32-.Ltext0
 7872 025d FE000000 		.4byte	.LFE124-.Ltext0
 7873 0261 0100     		.2byte	0x1
 7874 0263 52       		.byte	0x52
 7875 0264 00000000 		.4byte	0
 7876 0268 00000000 		.4byte	0
 7877              	.LLST12:
 7878 026c 00010000 		.4byte	.LVL33-.Ltext0
 7879 0270 04010000 		.4byte	.LVL34-.Ltext0
 7880 0274 0100     		.2byte	0x1
 7881 0276 50       		.byte	0x50
ARM GAS  /tmp/cclsZlw8.s 			page 140


 7882 0277 04010000 		.4byte	.LVL34-.Ltext0
 7883 027b 0E010000 		.4byte	.LFE125-.Ltext0
 7884 027f 0100     		.2byte	0x1
 7885 0281 52       		.byte	0x52
 7886 0282 00000000 		.4byte	0
 7887 0286 00000000 		.4byte	0
 7888              	.LLST13:
 7889 028a 10010000 		.4byte	.LVL35-.Ltext0
 7890 028e 2A010000 		.4byte	.LVL36-.Ltext0
 7891 0292 0100     		.2byte	0x1
 7892 0294 50       		.byte	0x50
 7893 0295 2A010000 		.4byte	.LVL36-.Ltext0
 7894 0299 32010000 		.4byte	.LVL38-.Ltext0
 7895 029d 0400     		.2byte	0x4
 7896 029f F3       		.byte	0xf3
 7897 02a0 01       		.uleb128 0x1
 7898 02a1 50       		.byte	0x50
 7899 02a2 9F       		.byte	0x9f
 7900 02a3 32010000 		.4byte	.LVL38-.Ltext0
 7901 02a7 3C010000 		.4byte	.LVL39-.Ltext0
 7902 02ab 0100     		.2byte	0x1
 7903 02ad 50       		.byte	0x50
 7904 02ae 3C010000 		.4byte	.LVL39-.Ltext0
 7905 02b2 44010000 		.4byte	.LFE126-.Ltext0
 7906 02b6 0400     		.2byte	0x4
 7907 02b8 F3       		.byte	0xf3
 7908 02b9 01       		.uleb128 0x1
 7909 02ba 50       		.byte	0x50
 7910 02bb 9F       		.byte	0x9f
 7911 02bc 00000000 		.4byte	0
 7912 02c0 00000000 		.4byte	0
 7913              	.LLST14:
 7914 02c4 10010000 		.4byte	.LVL35-.Ltext0
 7915 02c8 2D010000 		.4byte	.LVL37-1-.Ltext0
 7916 02cc 0100     		.2byte	0x1
 7917 02ce 51       		.byte	0x51
 7918 02cf 2D010000 		.4byte	.LVL37-1-.Ltext0
 7919 02d3 32010000 		.4byte	.LVL38-.Ltext0
 7920 02d7 0400     		.2byte	0x4
 7921 02d9 F3       		.byte	0xf3
 7922 02da 01       		.uleb128 0x1
 7923 02db 51       		.byte	0x51
 7924 02dc 9F       		.byte	0x9f
 7925 02dd 32010000 		.4byte	.LVL38-.Ltext0
 7926 02e1 3F010000 		.4byte	.LVL40-1-.Ltext0
 7927 02e5 0100     		.2byte	0x1
 7928 02e7 51       		.byte	0x51
 7929 02e8 3F010000 		.4byte	.LVL40-1-.Ltext0
 7930 02ec 44010000 		.4byte	.LFE126-.Ltext0
 7931 02f0 0400     		.2byte	0x4
 7932 02f2 F3       		.byte	0xf3
 7933 02f3 01       		.uleb128 0x1
 7934 02f4 51       		.byte	0x51
 7935 02f5 9F       		.byte	0x9f
 7936 02f6 00000000 		.4byte	0
 7937 02fa 00000000 		.4byte	0
 7938              	.LLST15:
ARM GAS  /tmp/cclsZlw8.s 			page 141


 7939 02fe 50010000 		.4byte	.LVL41-.Ltext0
 7940 0302 7A020000 		.4byte	.LVL64-.Ltext0
 7941 0306 0100     		.2byte	0x1
 7942 0308 50       		.byte	0x50
 7943 0309 7A020000 		.4byte	.LVL64-.Ltext0
 7944 030d 7E020000 		.4byte	.LVL65-.Ltext0
 7945 0311 0400     		.2byte	0x4
 7946 0313 F3       		.byte	0xf3
 7947 0314 01       		.uleb128 0x1
 7948 0315 50       		.byte	0x50
 7949 0316 9F       		.byte	0x9f
 7950 0317 7E020000 		.4byte	.LVL65-.Ltext0
 7951 031b C4020000 		.4byte	.LFE127-.Ltext0
 7952 031f 0100     		.2byte	0x1
 7953 0321 50       		.byte	0x50
 7954 0322 00000000 		.4byte	0
 7955 0326 00000000 		.4byte	0
 7956              	.LLST16:
 7957 032a 62010000 		.4byte	.LVL42-.Ltext0
 7958 032e 66010000 		.4byte	.LVL43-.Ltext0
 7959 0332 0500     		.2byte	0x5
 7960 0334 51       		.byte	0x51
 7961 0335 93       		.byte	0x93
 7962 0336 04       		.uleb128 0x4
 7963 0337 93       		.byte	0x93
 7964 0338 2C       		.uleb128 0x2c
 7965 0339 66010000 		.4byte	.LVL43-.Ltext0
 7966 033d 4E020000 		.4byte	.LVL62-.Ltext0
 7967 0341 0A00     		.2byte	0xa
 7968 0343 51       		.byte	0x51
 7969 0344 93       		.byte	0x93
 7970 0345 04       		.uleb128 0x4
 7971 0346 93       		.byte	0x93
 7972 0347 08       		.uleb128 0x8
 7973 0348 5E       		.byte	0x5e
 7974 0349 93       		.byte	0x93
 7975 034a 04       		.uleb128 0x4
 7976 034b 93       		.byte	0x93
 7977 034c 20       		.uleb128 0x20
 7978 034d 4E020000 		.4byte	.LVL62-.Ltext0
 7979 0351 78020000 		.4byte	.LVL63-.Ltext0
 7980 0355 0700     		.2byte	0x7
 7981 0357 93       		.byte	0x93
 7982 0358 0C       		.uleb128 0xc
 7983 0359 5E       		.byte	0x5e
 7984 035a 93       		.byte	0x93
 7985 035b 04       		.uleb128 0x4
 7986 035c 93       		.byte	0x93
 7987 035d 20       		.uleb128 0x20
 7988 035e 7E020000 		.4byte	.LVL65-.Ltext0
 7989 0362 96020000 		.4byte	.LVL66-.Ltext0
 7990 0366 0A00     		.2byte	0xa
 7991 0368 51       		.byte	0x51
 7992 0369 93       		.byte	0x93
 7993 036a 04       		.uleb128 0x4
 7994 036b 93       		.byte	0x93
 7995 036c 08       		.uleb128 0x8
ARM GAS  /tmp/cclsZlw8.s 			page 142


 7996 036d 5E       		.byte	0x5e
 7997 036e 93       		.byte	0x93
 7998 036f 04       		.uleb128 0x4
 7999 0370 93       		.byte	0x93
 8000 0371 20       		.uleb128 0x20
 8001 0372 96020000 		.4byte	.LVL66-.Ltext0
 8002 0376 9C020000 		.4byte	.LVL67-.Ltext0
 8003 037a 0700     		.2byte	0x7
 8004 037c 93       		.byte	0x93
 8005 037d 0C       		.uleb128 0xc
 8006 037e 5E       		.byte	0x5e
 8007 037f 93       		.byte	0x93
 8008 0380 04       		.uleb128 0x4
 8009 0381 93       		.byte	0x93
 8010 0382 20       		.uleb128 0x20
 8011 0383 9C020000 		.4byte	.LVL67-.Ltext0
 8012 0387 C4020000 		.4byte	.LFE127-.Ltext0
 8013 038b 0A00     		.2byte	0xa
 8014 038d 51       		.byte	0x51
 8015 038e 93       		.byte	0x93
 8016 038f 04       		.uleb128 0x4
 8017 0390 93       		.byte	0x93
 8018 0391 08       		.uleb128 0x8
 8019 0392 5E       		.byte	0x5e
 8020 0393 93       		.byte	0x93
 8021 0394 04       		.uleb128 0x4
 8022 0395 93       		.byte	0x93
 8023 0396 20       		.uleb128 0x20
 8024 0397 00000000 		.4byte	0
 8025 039b 00000000 		.4byte	0
 8026              	.LLST17:
 8027 039f 66010000 		.4byte	.LVL43-.Ltext0
 8028 03a3 E2010000 		.4byte	.LVL56-.Ltext0
 8029 03a7 0200     		.2byte	0x2
 8030 03a9 30       		.byte	0x30
 8031 03aa 9F       		.byte	0x9f
 8032 03ab E2010000 		.4byte	.LVL56-.Ltext0
 8033 03af FC010000 		.4byte	.LVL58-.Ltext0
 8034 03b3 0100     		.2byte	0x1
 8035 03b5 52       		.byte	0x52
 8036 03b6 FC010000 		.4byte	.LVL58-.Ltext0
 8037 03ba 0C020000 		.4byte	.LVL59-.Ltext0
 8038 03be 0200     		.2byte	0x2
 8039 03c0 30       		.byte	0x30
 8040 03c1 9F       		.byte	0x9f
 8041 03c2 0C020000 		.4byte	.LVL59-.Ltext0
 8042 03c6 28020000 		.4byte	.LVL61-.Ltext0
 8043 03ca 0100     		.2byte	0x1
 8044 03cc 52       		.byte	0x52
 8045 03cd 9C020000 		.4byte	.LVL67-.Ltext0
 8046 03d1 C4020000 		.4byte	.LFE127-.Ltext0
 8047 03d5 0200     		.2byte	0x2
 8048 03d7 30       		.byte	0x30
 8049 03d8 9F       		.byte	0x9f
 8050 03d9 00000000 		.4byte	0
 8051 03dd 00000000 		.4byte	0
 8052              	.LLST18:
ARM GAS  /tmp/cclsZlw8.s 			page 143


 8053 03e1 94010000 		.4byte	.LVL44-.Ltext0
 8054 03e5 A0010000 		.4byte	.LVL45-.Ltext0
 8055 03e9 0200     		.2byte	0x2
 8056 03eb 33       		.byte	0x33
 8057 03ec 9F       		.byte	0x9f
 8058 03ed 00000000 		.4byte	0
 8059 03f1 00000000 		.4byte	0
 8060              	.LLST19:
 8061 03f5 94010000 		.4byte	.LVL44-.Ltext0
 8062 03f9 A0010000 		.4byte	.LVL45-.Ltext0
 8063 03fd 0100     		.2byte	0x1
 8064 03ff 50       		.byte	0x50
 8065 0400 00000000 		.4byte	0
 8066 0404 00000000 		.4byte	0
 8067              	.LLST20:
 8068 0408 A0010000 		.4byte	.LVL45-.Ltext0
 8069 040c 9C020000 		.4byte	.LVL67-.Ltext0
 8070 0410 0200     		.2byte	0x2
 8071 0412 40       		.byte	0x40
 8072 0413 9F       		.byte	0x9f
 8073 0414 00000000 		.4byte	0
 8074 0418 00000000 		.4byte	0
 8075              	.LLST21:
 8076 041c A0010000 		.4byte	.LVL45-.Ltext0
 8077 0420 7A020000 		.4byte	.LVL64-.Ltext0
 8078 0424 0100     		.2byte	0x1
 8079 0426 50       		.byte	0x50
 8080 0427 7A020000 		.4byte	.LVL64-.Ltext0
 8081 042b 7E020000 		.4byte	.LVL65-.Ltext0
 8082 042f 0400     		.2byte	0x4
 8083 0431 F3       		.byte	0xf3
 8084 0432 01       		.uleb128 0x1
 8085 0433 50       		.byte	0x50
 8086 0434 9F       		.byte	0x9f
 8087 0435 7E020000 		.4byte	.LVL65-.Ltext0
 8088 0439 9C020000 		.4byte	.LVL67-.Ltext0
 8089 043d 0100     		.2byte	0x1
 8090 043f 50       		.byte	0x50
 8091 0440 00000000 		.4byte	0
 8092 0444 00000000 		.4byte	0
 8093              	.LLST22:
 8094 0448 A0010000 		.4byte	.LVL45-.Ltext0
 8095 044c A6010000 		.4byte	.LVL46-.Ltext0
 8096 0450 0200     		.2byte	0x2
 8097 0452 30       		.byte	0x30
 8098 0453 9F       		.byte	0x9f
 8099 0454 A6010000 		.4byte	.LVL46-.Ltext0
 8100 0458 AA010000 		.4byte	.LVL47-.Ltext0
 8101 045c 0200     		.2byte	0x2
 8102 045e 31       		.byte	0x31
 8103 045f 9F       		.byte	0x9f
 8104 0460 AA010000 		.4byte	.LVL47-.Ltext0
 8105 0464 AC010000 		.4byte	.LVL48-.Ltext0
 8106 0468 0900     		.2byte	0x9
 8107 046a 0C       		.byte	0xc
 8108 046b 410D0300 		.4byte	0x30d41
 8109 046f 73       		.byte	0x73
ARM GAS  /tmp/cclsZlw8.s 			page 144


 8110 0470 00       		.sleb128 0
 8111 0471 1C       		.byte	0x1c
 8112 0472 9F       		.byte	0x9f
 8113 0473 AC010000 		.4byte	.LVL48-.Ltext0
 8114 0477 AE010000 		.4byte	.LVL49-.Ltext0
 8115 047b 0900     		.2byte	0x9
 8116 047d 0C       		.byte	0xc
 8117 047e 400D0300 		.4byte	0x30d40
 8118 0482 73       		.byte	0x73
 8119 0483 00       		.sleb128 0
 8120 0484 1C       		.byte	0x1c
 8121 0485 9F       		.byte	0x9f
 8122 0486 AE010000 		.4byte	.LVL49-.Ltext0
 8123 048a B4010000 		.4byte	.LVL50-.Ltext0
 8124 048e 0900     		.2byte	0x9
 8125 0490 0C       		.byte	0xc
 8126 0491 410D0300 		.4byte	0x30d41
 8127 0495 73       		.byte	0x73
 8128 0496 00       		.sleb128 0
 8129 0497 1C       		.byte	0x1c
 8130 0498 9F       		.byte	0x9f
 8131 0499 00000000 		.4byte	0
 8132 049d 00000000 		.4byte	0
 8133              	.LLST23:
 8134 04a1 B4010000 		.4byte	.LVL50-.Ltext0
 8135 04a5 7A020000 		.4byte	.LVL64-.Ltext0
 8136 04a9 0100     		.2byte	0x1
 8137 04ab 50       		.byte	0x50
 8138 04ac 7A020000 		.4byte	.LVL64-.Ltext0
 8139 04b0 7E020000 		.4byte	.LVL65-.Ltext0
 8140 04b4 0400     		.2byte	0x4
 8141 04b6 F3       		.byte	0xf3
 8142 04b7 01       		.uleb128 0x1
 8143 04b8 50       		.byte	0x50
 8144 04b9 9F       		.byte	0x9f
 8145 04ba 7E020000 		.4byte	.LVL65-.Ltext0
 8146 04be 9C020000 		.4byte	.LVL67-.Ltext0
 8147 04c2 0100     		.2byte	0x1
 8148 04c4 50       		.byte	0x50
 8149 04c5 00000000 		.4byte	0
 8150 04c9 00000000 		.4byte	0
 8151              	.LLST24:
 8152 04cd B4010000 		.4byte	.LVL50-.Ltext0
 8153 04d1 B8010000 		.4byte	.LVL51-.Ltext0
 8154 04d5 0200     		.2byte	0x2
 8155 04d7 30       		.byte	0x30
 8156 04d8 9F       		.byte	0x9f
 8157 04d9 B8010000 		.4byte	.LVL51-.Ltext0
 8158 04dd BC010000 		.4byte	.LVL52-.Ltext0
 8159 04e1 0200     		.2byte	0x2
 8160 04e3 31       		.byte	0x31
 8161 04e4 9F       		.byte	0x9f
 8162 04e5 BC010000 		.4byte	.LVL52-.Ltext0
 8163 04e9 BE010000 		.4byte	.LVL53-.Ltext0
 8164 04ed 0900     		.2byte	0x9
 8165 04ef 0C       		.byte	0xc
 8166 04f0 410D0300 		.4byte	0x30d41
ARM GAS  /tmp/cclsZlw8.s 			page 145


 8167 04f4 73       		.byte	0x73
 8168 04f5 00       		.sleb128 0
 8169 04f6 1C       		.byte	0x1c
 8170 04f7 9F       		.byte	0x9f
 8171 04f8 BE010000 		.4byte	.LVL53-.Ltext0
 8172 04fc C0010000 		.4byte	.LVL54-.Ltext0
 8173 0500 0900     		.2byte	0x9
 8174 0502 0C       		.byte	0xc
 8175 0503 400D0300 		.4byte	0x30d40
 8176 0507 73       		.byte	0x73
 8177 0508 00       		.sleb128 0
 8178 0509 1C       		.byte	0x1c
 8179 050a 9F       		.byte	0x9f
 8180 050b C0010000 		.4byte	.LVL54-.Ltext0
 8181 050f C6010000 		.4byte	.LVL55-.Ltext0
 8182 0513 0900     		.2byte	0x9
 8183 0515 0C       		.byte	0xc
 8184 0516 410D0300 		.4byte	0x30d41
 8185 051a 73       		.byte	0x73
 8186 051b 00       		.sleb128 0
 8187 051c 1C       		.byte	0x1c
 8188 051d 9F       		.byte	0x9f
 8189 051e 00000000 		.4byte	0
 8190 0522 00000000 		.4byte	0
 8191              	.LLST25:
 8192 0526 A0020000 		.4byte	.LVL68-.Ltext0
 8193 052a AA020000 		.4byte	.LVL69-.Ltext0
 8194 052e 0200     		.2byte	0x2
 8195 0530 30       		.byte	0x30
 8196 0531 9F       		.byte	0x9f
 8197 0532 00000000 		.4byte	0
 8198 0536 00000000 		.4byte	0
 8199              	.LLST26:
 8200 053a A0020000 		.4byte	.LVL68-.Ltext0
 8201 053e AA020000 		.4byte	.LVL69-.Ltext0
 8202 0542 0100     		.2byte	0x1
 8203 0544 50       		.byte	0x50
 8204 0545 00000000 		.4byte	0
 8205 0549 00000000 		.4byte	0
 8206              	.LLST27:
 8207 054d D0020000 		.4byte	.LVL70-.Ltext0
 8208 0551 EA020000 		.4byte	.LVL76-.Ltext0
 8209 0555 0100     		.2byte	0x1
 8210 0557 50       		.byte	0x50
 8211 0558 EA020000 		.4byte	.LVL76-.Ltext0
 8212 055c EC020000 		.4byte	.LVL77-.Ltext0
 8213 0560 0400     		.2byte	0x4
 8214 0562 F3       		.byte	0xf3
 8215 0563 01       		.uleb128 0x1
 8216 0564 50       		.byte	0x50
 8217 0565 9F       		.byte	0x9f
 8218 0566 EC020000 		.4byte	.LVL77-.Ltext0
 8219 056a EE020000 		.4byte	.LVL78-.Ltext0
 8220 056e 0100     		.2byte	0x1
 8221 0570 50       		.byte	0x50
 8222 0571 EE020000 		.4byte	.LVL78-.Ltext0
 8223 0575 F4020000 		.4byte	.LFE128-.Ltext0
ARM GAS  /tmp/cclsZlw8.s 			page 146


 8224 0579 0400     		.2byte	0x4
 8225 057b F3       		.byte	0xf3
 8226 057c 01       		.uleb128 0x1
 8227 057d 50       		.byte	0x50
 8228 057e 9F       		.byte	0x9f
 8229 057f 00000000 		.4byte	0
 8230 0583 00000000 		.4byte	0
 8231              	.LLST28:
 8232 0587 D0020000 		.4byte	.LVL70-.Ltext0
 8233 058b D2020000 		.4byte	.LVL71-.Ltext0
 8234 058f 0100     		.2byte	0x1
 8235 0591 51       		.byte	0x51
 8236 0592 D2020000 		.4byte	.LVL71-.Ltext0
 8237 0596 F4020000 		.4byte	.LFE128-.Ltext0
 8238 059a 0400     		.2byte	0x4
 8239 059c F3       		.byte	0xf3
 8240 059d 01       		.uleb128 0x1
 8241 059e 51       		.byte	0x51
 8242 059f 9F       		.byte	0x9f
 8243 05a0 00000000 		.4byte	0
 8244 05a4 00000000 		.4byte	0
 8245              	.LLST29:
 8246 05a8 D0020000 		.4byte	.LVL70-.Ltext0
 8247 05ac D8020000 		.4byte	.LVL72-.Ltext0
 8248 05b0 0200     		.2byte	0x2
 8249 05b2 30       		.byte	0x30
 8250 05b3 9F       		.byte	0x9f
 8251 05b4 D8020000 		.4byte	.LVL72-.Ltext0
 8252 05b8 DC020000 		.4byte	.LVL73-.Ltext0
 8253 05bc 0200     		.2byte	0x2
 8254 05be 31       		.byte	0x31
 8255 05bf 9F       		.byte	0x9f
 8256 05c0 DC020000 		.4byte	.LVL73-.Ltext0
 8257 05c4 DE020000 		.4byte	.LVL74-.Ltext0
 8258 05c8 0900     		.2byte	0x9
 8259 05ca 0C       		.byte	0xc
 8260 05cb 410D0300 		.4byte	0x30d41
 8261 05cf 72       		.byte	0x72
 8262 05d0 00       		.sleb128 0
 8263 05d1 1C       		.byte	0x1c
 8264 05d2 9F       		.byte	0x9f
 8265 05d3 DE020000 		.4byte	.LVL74-.Ltext0
 8266 05d7 E0020000 		.4byte	.LVL75-.Ltext0
 8267 05db 0900     		.2byte	0x9
 8268 05dd 0C       		.byte	0xc
 8269 05de 400D0300 		.4byte	0x30d40
 8270 05e2 72       		.byte	0x72
 8271 05e3 00       		.sleb128 0
 8272 05e4 1C       		.byte	0x1c
 8273 05e5 9F       		.byte	0x9f
 8274 05e6 E0020000 		.4byte	.LVL75-.Ltext0
 8275 05ea EC020000 		.4byte	.LVL77-.Ltext0
 8276 05ee 0900     		.2byte	0x9
 8277 05f0 0C       		.byte	0xc
 8278 05f1 410D0300 		.4byte	0x30d41
 8279 05f5 72       		.byte	0x72
 8280 05f6 00       		.sleb128 0
ARM GAS  /tmp/cclsZlw8.s 			page 147


 8281 05f7 1C       		.byte	0x1c
 8282 05f8 9F       		.byte	0x9f
 8283 05f9 EC020000 		.4byte	.LVL77-.Ltext0
 8284 05fd F4020000 		.4byte	.LFE128-.Ltext0
 8285 0601 0900     		.2byte	0x9
 8286 0603 0C       		.byte	0xc
 8287 0604 400D0300 		.4byte	0x30d40
 8288 0608 72       		.byte	0x72
 8289 0609 00       		.sleb128 0
 8290 060a 1C       		.byte	0x1c
 8291 060b 9F       		.byte	0x9f
 8292 060c 00000000 		.4byte	0
 8293 0610 00000000 		.4byte	0
 8294              	.LLST30:
 8295 0614 00030000 		.4byte	.LVL79-.Ltext0
 8296 0618 16030000 		.4byte	.LVL84-.Ltext0
 8297 061c 0100     		.2byte	0x1
 8298 061e 50       		.byte	0x50
 8299 061f 16030000 		.4byte	.LVL84-.Ltext0
 8300 0623 18030000 		.4byte	.LVL85-.Ltext0
 8301 0627 0400     		.2byte	0x4
 8302 0629 F3       		.byte	0xf3
 8303 062a 01       		.uleb128 0x1
 8304 062b 50       		.byte	0x50
 8305 062c 9F       		.byte	0x9f
 8306 062d 18030000 		.4byte	.LVL85-.Ltext0
 8307 0631 1A030000 		.4byte	.LVL86-.Ltext0
 8308 0635 0100     		.2byte	0x1
 8309 0637 50       		.byte	0x50
 8310 0638 1A030000 		.4byte	.LVL86-.Ltext0
 8311 063c 20030000 		.4byte	.LFE129-.Ltext0
 8312 0640 0400     		.2byte	0x4
 8313 0642 F3       		.byte	0xf3
 8314 0643 01       		.uleb128 0x1
 8315 0644 50       		.byte	0x50
 8316 0645 9F       		.byte	0x9f
 8317 0646 00000000 		.4byte	0
 8318 064a 00000000 		.4byte	0
 8319              	.LLST31:
 8320 064e 00030000 		.4byte	.LVL79-.Ltext0
 8321 0652 04030000 		.4byte	.LVL80-.Ltext0
 8322 0656 0200     		.2byte	0x2
 8323 0658 30       		.byte	0x30
 8324 0659 9F       		.byte	0x9f
 8325 065a 04030000 		.4byte	.LVL80-.Ltext0
 8326 065e 08030000 		.4byte	.LVL81-.Ltext0
 8327 0662 0200     		.2byte	0x2
 8328 0664 31       		.byte	0x31
 8329 0665 9F       		.byte	0x9f
 8330 0666 08030000 		.4byte	.LVL81-.Ltext0
 8331 066a 0A030000 		.4byte	.LVL82-.Ltext0
 8332 066e 0900     		.2byte	0x9
 8333 0670 0C       		.byte	0xc
 8334 0671 410D0300 		.4byte	0x30d41
 8335 0675 72       		.byte	0x72
 8336 0676 00       		.sleb128 0
 8337 0677 1C       		.byte	0x1c
ARM GAS  /tmp/cclsZlw8.s 			page 148


 8338 0678 9F       		.byte	0x9f
 8339 0679 0A030000 		.4byte	.LVL82-.Ltext0
 8340 067d 0C030000 		.4byte	.LVL83-.Ltext0
 8341 0681 0900     		.2byte	0x9
 8342 0683 0C       		.byte	0xc
 8343 0684 400D0300 		.4byte	0x30d40
 8344 0688 72       		.byte	0x72
 8345 0689 00       		.sleb128 0
 8346 068a 1C       		.byte	0x1c
 8347 068b 9F       		.byte	0x9f
 8348 068c 0C030000 		.4byte	.LVL83-.Ltext0
 8349 0690 18030000 		.4byte	.LVL85-.Ltext0
 8350 0694 0900     		.2byte	0x9
 8351 0696 0C       		.byte	0xc
 8352 0697 410D0300 		.4byte	0x30d41
 8353 069b 72       		.byte	0x72
 8354 069c 00       		.sleb128 0
 8355 069d 1C       		.byte	0x1c
 8356 069e 9F       		.byte	0x9f
 8357 069f 18030000 		.4byte	.LVL85-.Ltext0
 8358 06a3 20030000 		.4byte	.LFE129-.Ltext0
 8359 06a7 0900     		.2byte	0x9
 8360 06a9 0C       		.byte	0xc
 8361 06aa 400D0300 		.4byte	0x30d40
 8362 06ae 72       		.byte	0x72
 8363 06af 00       		.sleb128 0
 8364 06b0 1C       		.byte	0x1c
 8365 06b1 9F       		.byte	0x9f
 8366 06b2 00000000 		.4byte	0
 8367 06b6 00000000 		.4byte	0
 8368              	.LLST32:
 8369 06ba 20030000 		.4byte	.LVL87-.Ltext0
 8370 06be 24030000 		.4byte	.LVL88-.Ltext0
 8371 06c2 0100     		.2byte	0x1
 8372 06c4 50       		.byte	0x50
 8373 06c5 24030000 		.4byte	.LVL88-.Ltext0
 8374 06c9 30030000 		.4byte	.LFE130-.Ltext0
 8375 06cd 0100     		.2byte	0x1
 8376 06cf 52       		.byte	0x52
 8377 06d0 00000000 		.4byte	0
 8378 06d4 00000000 		.4byte	0
 8379              	.LLST33:
 8380 06d8 20030000 		.4byte	.LVL87-.Ltext0
 8381 06dc 2A030000 		.4byte	.LVL89-.Ltext0
 8382 06e0 0100     		.2byte	0x1
 8383 06e2 51       		.byte	0x51
 8384 06e3 2A030000 		.4byte	.LVL89-.Ltext0
 8385 06e7 30030000 		.4byte	.LFE130-.Ltext0
 8386 06eb 0400     		.2byte	0x4
 8387 06ed F3       		.byte	0xf3
 8388 06ee 01       		.uleb128 0x1
 8389 06ef 51       		.byte	0x51
 8390 06f0 9F       		.byte	0x9f
 8391 06f1 00000000 		.4byte	0
 8392 06f5 00000000 		.4byte	0
 8393              	.LLST34:
 8394 06f9 30030000 		.4byte	.LVL90-.Ltext0
ARM GAS  /tmp/cclsZlw8.s 			page 149


 8395 06fd 3C030000 		.4byte	.LVL91-.Ltext0
 8396 0701 0100     		.2byte	0x1
 8397 0703 50       		.byte	0x50
 8398 0704 3C030000 		.4byte	.LVL91-.Ltext0
 8399 0708 66030000 		.4byte	.LFE131-.Ltext0
 8400 070c 0400     		.2byte	0x4
 8401 070e 72       		.byte	0x72
 8402 070f 8070     		.sleb128 -2048
 8403 0711 9F       		.byte	0x9f
 8404 0712 00000000 		.4byte	0
 8405 0716 00000000 		.4byte	0
 8406              	.LLST35:
 8407 071a 30030000 		.4byte	.LVL90-.Ltext0
 8408 071e 64030000 		.4byte	.LVL92-.Ltext0
 8409 0722 0200     		.2byte	0x2
 8410 0724 30       		.byte	0x30
 8411 0725 9F       		.byte	0x9f
 8412 0726 64030000 		.4byte	.LVL92-.Ltext0
 8413 072a 66030000 		.4byte	.LFE131-.Ltext0
 8414 072e 0100     		.2byte	0x1
 8415 0730 50       		.byte	0x50
 8416 0731 00000000 		.4byte	0
 8417 0735 00000000 		.4byte	0
 8418              	.LLST36:
 8419 0739 70030000 		.4byte	.LVL93-.Ltext0
 8420 073d B6030000 		.4byte	.LVL95-.Ltext0
 8421 0741 0100     		.2byte	0x1
 8422 0743 50       		.byte	0x50
 8423 0744 B6030000 		.4byte	.LVL95-.Ltext0
 8424 0748 BA030000 		.4byte	.LVL96-.Ltext0
 8425 074c 0400     		.2byte	0x4
 8426 074e F3       		.byte	0xf3
 8427 074f 01       		.uleb128 0x1
 8428 0750 50       		.byte	0x50
 8429 0751 9F       		.byte	0x9f
 8430 0752 BA030000 		.4byte	.LVL96-.Ltext0
 8431 0756 FC030000 		.4byte	.LVL98-.Ltext0
 8432 075a 0100     		.2byte	0x1
 8433 075c 50       		.byte	0x50
 8434 075d FC030000 		.4byte	.LVL98-.Ltext0
 8435 0761 FE030000 		.4byte	.LFE132-.Ltext0
 8436 0765 0400     		.2byte	0x4
 8437 0767 F3       		.byte	0xf3
 8438 0768 01       		.uleb128 0x1
 8439 0769 50       		.byte	0x50
 8440 076a 9F       		.byte	0x9f
 8441 076b 00000000 		.4byte	0
 8442 076f 00000000 		.4byte	0
 8443              	.LLST37:
 8444 0773 70030000 		.4byte	.LVL93-.Ltext0
 8445 0777 AC030000 		.4byte	.LVL94-.Ltext0
 8446 077b 0100     		.2byte	0x1
 8447 077d 51       		.byte	0x51
 8448 077e AC030000 		.4byte	.LVL94-.Ltext0
 8449 0782 BA030000 		.4byte	.LVL96-.Ltext0
 8450 0786 0400     		.2byte	0x4
 8451 0788 F3       		.byte	0xf3
ARM GAS  /tmp/cclsZlw8.s 			page 150


 8452 0789 01       		.uleb128 0x1
 8453 078a 51       		.byte	0x51
 8454 078b 9F       		.byte	0x9f
 8455 078c BA030000 		.4byte	.LVL96-.Ltext0
 8456 0790 EC030000 		.4byte	.LVL97-.Ltext0
 8457 0794 0100     		.2byte	0x1
 8458 0796 51       		.byte	0x51
 8459 0797 EC030000 		.4byte	.LVL97-.Ltext0
 8460 079b FE030000 		.4byte	.LFE132-.Ltext0
 8461 079f 0400     		.2byte	0x4
 8462 07a1 F3       		.byte	0xf3
 8463 07a2 01       		.uleb128 0x1
 8464 07a3 51       		.byte	0x51
 8465 07a4 9F       		.byte	0x9f
 8466 07a5 00000000 		.4byte	0
 8467 07a9 00000000 		.4byte	0
 8468              	.LLST38:
 8469 07ad 00040000 		.4byte	.LVL99-.Ltext0
 8470 07b1 30040000 		.4byte	.LVL101-.Ltext0
 8471 07b5 0100     		.2byte	0x1
 8472 07b7 50       		.byte	0x50
 8473 07b8 30040000 		.4byte	.LVL101-.Ltext0
 8474 07bc 32040000 		.4byte	.LVL102-.Ltext0
 8475 07c0 0400     		.2byte	0x4
 8476 07c2 F3       		.byte	0xf3
 8477 07c3 01       		.uleb128 0x1
 8478 07c4 50       		.byte	0x50
 8479 07c5 9F       		.byte	0x9f
 8480 07c6 32040000 		.4byte	.LVL102-.Ltext0
 8481 07ca D6040000 		.4byte	.LVL106-.Ltext0
 8482 07ce 0100     		.2byte	0x1
 8483 07d0 50       		.byte	0x50
 8484 07d1 D6040000 		.4byte	.LVL106-.Ltext0
 8485 07d5 D8040000 		.4byte	.LVL107-.Ltext0
 8486 07d9 0400     		.2byte	0x4
 8487 07db F3       		.byte	0xf3
 8488 07dc 01       		.uleb128 0x1
 8489 07dd 50       		.byte	0x50
 8490 07de 9F       		.byte	0x9f
 8491 07df D8040000 		.4byte	.LVL107-.Ltext0
 8492 07e3 E4040000 		.4byte	.LFE133-.Ltext0
 8493 07e7 0100     		.2byte	0x1
 8494 07e9 50       		.byte	0x50
 8495 07ea 00000000 		.4byte	0
 8496 07ee 00000000 		.4byte	0
 8497              	.LLST39:
 8498 07f2 00040000 		.4byte	.LVL99-.Ltext0
 8499 07f6 1C040000 		.4byte	.LVL100-.Ltext0
 8500 07fa 0100     		.2byte	0x1
 8501 07fc 51       		.byte	0x51
 8502 07fd 1C040000 		.4byte	.LVL100-.Ltext0
 8503 0801 32040000 		.4byte	.LVL102-.Ltext0
 8504 0805 0400     		.2byte	0x4
 8505 0807 F3       		.byte	0xf3
 8506 0808 01       		.uleb128 0x1
 8507 0809 51       		.byte	0x51
 8508 080a 9F       		.byte	0x9f
ARM GAS  /tmp/cclsZlw8.s 			page 151


 8509 080b 32040000 		.4byte	.LVL102-.Ltext0
 8510 080f 58040000 		.4byte	.LVL103-.Ltext0
 8511 0813 0100     		.2byte	0x1
 8512 0815 51       		.byte	0x51
 8513 0816 58040000 		.4byte	.LVL103-.Ltext0
 8514 081a 78040000 		.4byte	.LVL104-.Ltext0
 8515 081e 0400     		.2byte	0x4
 8516 0820 F3       		.byte	0xf3
 8517 0821 01       		.uleb128 0x1
 8518 0822 51       		.byte	0x51
 8519 0823 9F       		.byte	0x9f
 8520 0824 78040000 		.4byte	.LVL104-.Ltext0
 8521 0828 B0040000 		.4byte	.LVL105-.Ltext0
 8522 082c 0100     		.2byte	0x1
 8523 082e 51       		.byte	0x51
 8524 082f B0040000 		.4byte	.LVL105-.Ltext0
 8525 0833 D8040000 		.4byte	.LVL107-.Ltext0
 8526 0837 0400     		.2byte	0x4
 8527 0839 F3       		.byte	0xf3
 8528 083a 01       		.uleb128 0x1
 8529 083b 51       		.byte	0x51
 8530 083c 9F       		.byte	0x9f
 8531 083d D8040000 		.4byte	.LVL107-.Ltext0
 8532 0841 E4040000 		.4byte	.LFE133-.Ltext0
 8533 0845 0100     		.2byte	0x1
 8534 0847 51       		.byte	0x51
 8535 0848 00000000 		.4byte	0
 8536 084c 00000000 		.4byte	0
 8537              	.LLST40:
 8538 0850 F0040000 		.4byte	.LVL108-.Ltext0
 8539 0854 32050000 		.4byte	.LVL109-.Ltext0
 8540 0858 0100     		.2byte	0x1
 8541 085a 50       		.byte	0x50
 8542 085b 32050000 		.4byte	.LVL109-.Ltext0
 8543 085f 34050000 		.4byte	.LVL110-.Ltext0
 8544 0863 0400     		.2byte	0x4
 8545 0865 F3       		.byte	0xf3
 8546 0866 01       		.uleb128 0x1
 8547 0867 50       		.byte	0x50
 8548 0868 9F       		.byte	0x9f
 8549 0869 34050000 		.4byte	.LVL110-.Ltext0
 8550 086d 70050000 		.4byte	.LVL111-.Ltext0
 8551 0871 0100     		.2byte	0x1
 8552 0873 50       		.byte	0x50
 8553 0874 70050000 		.4byte	.LVL111-.Ltext0
 8554 0878 72050000 		.4byte	.LFE134-.Ltext0
 8555 087c 0400     		.2byte	0x4
 8556 087e F3       		.byte	0xf3
 8557 087f 01       		.uleb128 0x1
 8558 0880 50       		.byte	0x50
 8559 0881 9F       		.byte	0x9f
 8560 0882 00000000 		.4byte	0
 8561 0886 00000000 		.4byte	0
 8562              	.LLST41:
 8563 088a 80050000 		.4byte	.LVL112-.Ltext0
 8564 088e B2050000 		.4byte	.LVL114-.Ltext0
 8565 0892 0100     		.2byte	0x1
ARM GAS  /tmp/cclsZlw8.s 			page 152


 8566 0894 50       		.byte	0x50
 8567 0895 B2050000 		.4byte	.LVL114-.Ltext0
 8568 0899 B4050000 		.4byte	.LVL115-.Ltext0
 8569 089d 0400     		.2byte	0x4
 8570 089f F3       		.byte	0xf3
 8571 08a0 01       		.uleb128 0x1
 8572 08a1 50       		.byte	0x50
 8573 08a2 9F       		.byte	0x9f
 8574 08a3 B4050000 		.4byte	.LVL115-.Ltext0
 8575 08a7 DC050000 		.4byte	.LVL117-.Ltext0
 8576 08ab 0100     		.2byte	0x1
 8577 08ad 50       		.byte	0x50
 8578 08ae DC050000 		.4byte	.LVL117-.Ltext0
 8579 08b2 DE050000 		.4byte	.LFE135-.Ltext0
 8580 08b6 0400     		.2byte	0x4
 8581 08b8 F3       		.byte	0xf3
 8582 08b9 01       		.uleb128 0x1
 8583 08ba 50       		.byte	0x50
 8584 08bb 9F       		.byte	0x9f
 8585 08bc 00000000 		.4byte	0
 8586 08c0 00000000 		.4byte	0
 8587              	.LLST42:
 8588 08c4 80050000 		.4byte	.LVL112-.Ltext0
 8589 08c8 9E050000 		.4byte	.LVL113-.Ltext0
 8590 08cc 0100     		.2byte	0x1
 8591 08ce 51       		.byte	0x51
 8592 08cf 9E050000 		.4byte	.LVL113-.Ltext0
 8593 08d3 B4050000 		.4byte	.LVL115-.Ltext0
 8594 08d7 0400     		.2byte	0x4
 8595 08d9 F3       		.byte	0xf3
 8596 08da 01       		.uleb128 0x1
 8597 08db 51       		.byte	0x51
 8598 08dc 9F       		.byte	0x9f
 8599 08dd B4050000 		.4byte	.LVL115-.Ltext0
 8600 08e1 C8050000 		.4byte	.LVL116-.Ltext0
 8601 08e5 0100     		.2byte	0x1
 8602 08e7 51       		.byte	0x51
 8603 08e8 C8050000 		.4byte	.LVL116-.Ltext0
 8604 08ec DE050000 		.4byte	.LFE135-.Ltext0
 8605 08f0 0400     		.2byte	0x4
 8606 08f2 F3       		.byte	0xf3
 8607 08f3 01       		.uleb128 0x1
 8608 08f4 51       		.byte	0x51
 8609 08f5 9F       		.byte	0x9f
 8610 08f6 00000000 		.4byte	0
 8611 08fa 00000000 		.4byte	0
 8612              	.LLST43:
 8613 08fe E0050000 		.4byte	.LVL118-.Ltext0
 8614 0902 76060000 		.4byte	.LVL124-.Ltext0
 8615 0906 0100     		.2byte	0x1
 8616 0908 50       		.byte	0x50
 8617 0909 76060000 		.4byte	.LVL124-.Ltext0
 8618 090d 7C060000 		.4byte	.LVL125-.Ltext0
 8619 0911 0400     		.2byte	0x4
 8620 0913 F3       		.byte	0xf3
 8621 0914 01       		.uleb128 0x1
 8622 0915 50       		.byte	0x50
ARM GAS  /tmp/cclsZlw8.s 			page 153


 8623 0916 9F       		.byte	0x9f
 8624 0917 7C060000 		.4byte	.LVL125-.Ltext0
 8625 091b 63070000 		.4byte	.LVL133-1-.Ltext0
 8626 091f 0100     		.2byte	0x1
 8627 0921 50       		.byte	0x50
 8628 0922 63070000 		.4byte	.LVL133-1-.Ltext0
 8629 0926 66070000 		.4byte	.LVL134-.Ltext0
 8630 092a 0400     		.2byte	0x4
 8631 092c F3       		.byte	0xf3
 8632 092d 01       		.uleb128 0x1
 8633 092e 50       		.byte	0x50
 8634 092f 9F       		.byte	0x9f
 8635 0930 66070000 		.4byte	.LVL134-.Ltext0
 8636 0934 38080000 		.4byte	.LFE136-.Ltext0
 8637 0938 0100     		.2byte	0x1
 8638 093a 50       		.byte	0x50
 8639 093b 00000000 		.4byte	0
 8640 093f 00000000 		.4byte	0
 8641              	.LLST44:
 8642 0943 E0050000 		.4byte	.LVL118-.Ltext0
 8643 0947 76060000 		.4byte	.LVL124-.Ltext0
 8644 094b 0100     		.2byte	0x1
 8645 094d 51       		.byte	0x51
 8646 094e 76060000 		.4byte	.LVL124-.Ltext0
 8647 0952 7C060000 		.4byte	.LVL125-.Ltext0
 8648 0956 0400     		.2byte	0x4
 8649 0958 F3       		.byte	0xf3
 8650 0959 01       		.uleb128 0x1
 8651 095a 51       		.byte	0x51
 8652 095b 9F       		.byte	0x9f
 8653 095c 7C060000 		.4byte	.LVL125-.Ltext0
 8654 0960 5C070000 		.4byte	.LVL130-.Ltext0
 8655 0964 0100     		.2byte	0x1
 8656 0966 51       		.byte	0x51
 8657 0967 5C070000 		.4byte	.LVL130-.Ltext0
 8658 096b 66070000 		.4byte	.LVL134-.Ltext0
 8659 096f 0400     		.2byte	0x4
 8660 0971 F3       		.byte	0xf3
 8661 0972 01       		.uleb128 0x1
 8662 0973 51       		.byte	0x51
 8663 0974 9F       		.byte	0x9f
 8664 0975 66070000 		.4byte	.LVL134-.Ltext0
 8665 0979 38080000 		.4byte	.LFE136-.Ltext0
 8666 097d 0100     		.2byte	0x1
 8667 097f 51       		.byte	0x51
 8668 0980 00000000 		.4byte	0
 8669 0984 00000000 		.4byte	0
 8670              	.LLST45:
 8671 0988 E0050000 		.4byte	.LVL118-.Ltext0
 8672 098c 64060000 		.4byte	.LVL123-.Ltext0
 8673 0990 0100     		.2byte	0x1
 8674 0992 52       		.byte	0x52
 8675 0993 64060000 		.4byte	.LVL123-.Ltext0
 8676 0997 7C060000 		.4byte	.LVL125-.Ltext0
 8677 099b 0400     		.2byte	0x4
 8678 099d F3       		.byte	0xf3
 8679 099e 01       		.uleb128 0x1
ARM GAS  /tmp/cclsZlw8.s 			page 154


 8680 099f 52       		.byte	0x52
 8681 09a0 9F       		.byte	0x9f
 8682 09a1 7C060000 		.4byte	.LVL125-.Ltext0
 8683 09a5 A8060000 		.4byte	.LVL127-.Ltext0
 8684 09a9 0100     		.2byte	0x1
 8685 09ab 52       		.byte	0x52
 8686 09ac A8060000 		.4byte	.LVL127-.Ltext0
 8687 09b0 D8060000 		.4byte	.LVL128-.Ltext0
 8688 09b4 0400     		.2byte	0x4
 8689 09b6 F3       		.byte	0xf3
 8690 09b7 01       		.uleb128 0x1
 8691 09b8 52       		.byte	0x52
 8692 09b9 9F       		.byte	0x9f
 8693 09ba D8060000 		.4byte	.LVL128-.Ltext0
 8694 09be 5E070000 		.4byte	.LVL131-.Ltext0
 8695 09c2 0100     		.2byte	0x1
 8696 09c4 52       		.byte	0x52
 8697 09c5 5E070000 		.4byte	.LVL131-.Ltext0
 8698 09c9 66070000 		.4byte	.LVL134-.Ltext0
 8699 09cd 0400     		.2byte	0x4
 8700 09cf F3       		.byte	0xf3
 8701 09d0 01       		.uleb128 0x1
 8702 09d1 52       		.byte	0x52
 8703 09d2 9F       		.byte	0x9f
 8704 09d3 66070000 		.4byte	.LVL134-.Ltext0
 8705 09d7 38080000 		.4byte	.LFE136-.Ltext0
 8706 09db 0100     		.2byte	0x1
 8707 09dd 52       		.byte	0x52
 8708 09de 00000000 		.4byte	0
 8709 09e2 00000000 		.4byte	0
 8710              	.LLST46:
 8711 09e6 E0050000 		.4byte	.LVL118-.Ltext0
 8712 09ea 1C060000 		.4byte	.LVL119-.Ltext0
 8713 09ee 0200     		.2byte	0x2
 8714 09f0 30       		.byte	0x30
 8715 09f1 9F       		.byte	0x9f
 8716 09f2 1C060000 		.4byte	.LVL119-.Ltext0
 8717 09f6 28060000 		.4byte	.LVL120-.Ltext0
 8718 09fa 1100     		.2byte	0x11
 8719 09fc 74       		.byte	0x74
 8720 09fd 00       		.sleb128 0
 8721 09fe 75       		.byte	0x75
 8722 09ff 00       		.sleb128 0
 8723 0a00 22       		.byte	0x22
 8724 0a01 31       		.byte	0x31
 8725 0a02 1C       		.byte	0x1c
 8726 0a03 F7       		.byte	0xf7
 8727 0a04 25       		.uleb128 0x25
 8728 0a05 75       		.byte	0x75
 8729 0a06 00       		.sleb128 0
 8730 0a07 F7       		.byte	0xf7
 8731 0a08 25       		.uleb128 0x25
 8732 0a09 1B       		.byte	0x1b
 8733 0a0a F7       		.byte	0xf7
 8734 0a0b 00       		.uleb128 0
 8735 0a0c 9F       		.byte	0x9f
 8736 0a0d 28060000 		.4byte	.LVL120-.Ltext0
ARM GAS  /tmp/cclsZlw8.s 			page 155


 8737 0a11 52060000 		.4byte	.LVL121-.Ltext0
 8738 0a15 1200     		.2byte	0x12
 8739 0a17 71       		.byte	0x71
 8740 0a18 14       		.sleb128 20
 8741 0a19 06       		.byte	0x6
 8742 0a1a 75       		.byte	0x75
 8743 0a1b 00       		.sleb128 0
 8744 0a1c 22       		.byte	0x22
 8745 0a1d 31       		.byte	0x31
 8746 0a1e 1C       		.byte	0x1c
 8747 0a1f F7       		.byte	0xf7
 8748 0a20 25       		.uleb128 0x25
 8749 0a21 75       		.byte	0x75
 8750 0a22 00       		.sleb128 0
 8751 0a23 F7       		.byte	0xf7
 8752 0a24 25       		.uleb128 0x25
 8753 0a25 1B       		.byte	0x1b
 8754 0a26 F7       		.byte	0xf7
 8755 0a27 00       		.uleb128 0
 8756 0a28 9F       		.byte	0x9f
 8757 0a29 52060000 		.4byte	.LVL121-.Ltext0
 8758 0a2d 5C060000 		.4byte	.LVL122-.Ltext0
 8759 0a31 1400     		.2byte	0x14
 8760 0a33 71       		.byte	0x71
 8761 0a34 14       		.sleb128 20
 8762 0a35 06       		.byte	0x6
 8763 0a36 71       		.byte	0x71
 8764 0a37 08       		.sleb128 8
 8765 0a38 06       		.byte	0x6
 8766 0a39 22       		.byte	0x22
 8767 0a3a 31       		.byte	0x31
 8768 0a3b 1C       		.byte	0x1c
 8769 0a3c F7       		.byte	0xf7
 8770 0a3d 25       		.uleb128 0x25
 8771 0a3e 71       		.byte	0x71
 8772 0a3f 08       		.sleb128 8
 8773 0a40 06       		.byte	0x6
 8774 0a41 F7       		.byte	0xf7
 8775 0a42 25       		.uleb128 0x25
 8776 0a43 1B       		.byte	0x1b
 8777 0a44 F7       		.byte	0xf7
 8778 0a45 00       		.uleb128 0
 8779 0a46 9F       		.byte	0x9f
 8780 0a47 7C060000 		.4byte	.LVL125-.Ltext0
 8781 0a4b A4060000 		.4byte	.LVL126-.Ltext0
 8782 0a4f 0200     		.2byte	0x2
 8783 0a51 30       		.byte	0x30
 8784 0a52 9F       		.byte	0x9f
 8785 0a53 D8060000 		.4byte	.LVL128-.Ltext0
 8786 0a57 38080000 		.4byte	.LFE136-.Ltext0
 8787 0a5b 0200     		.2byte	0x2
 8788 0a5d 30       		.byte	0x30
 8789 0a5e 9F       		.byte	0x9f
 8790 0a5f 00000000 		.4byte	0
 8791 0a63 00000000 		.4byte	0
 8792              	.LLST47:
 8793 0a67 56070000 		.4byte	.LVL129-.Ltext0
ARM GAS  /tmp/cclsZlw8.s 			page 156


 8794 0a6b 5E070000 		.4byte	.LVL131-.Ltext0
 8795 0a6f 0100     		.2byte	0x1
 8796 0a71 52       		.byte	0x52
 8797 0a72 5E070000 		.4byte	.LVL131-.Ltext0
 8798 0a76 66070000 		.4byte	.LVL134-.Ltext0
 8799 0a7a 0400     		.2byte	0x4
 8800 0a7c F3       		.byte	0xf3
 8801 0a7d 01       		.uleb128 0x1
 8802 0a7e 52       		.byte	0x52
 8803 0a7f 9F       		.byte	0x9f
 8804 0a80 00000000 		.4byte	0
 8805 0a84 00000000 		.4byte	0
 8806              	.LLST48:
 8807 0a88 56070000 		.4byte	.LVL129-.Ltext0
 8808 0a8c 60070000 		.4byte	.LVL132-.Ltext0
 8809 0a90 0100     		.2byte	0x1
 8810 0a92 53       		.byte	0x53
 8811 0a93 00000000 		.4byte	0
 8812 0a97 00000000 		.4byte	0
 8813              	.LLST49:
 8814 0a9b 56070000 		.4byte	.LVL129-.Ltext0
 8815 0a9f 66070000 		.4byte	.LVL134-.Ltext0
 8816 0aa3 0100     		.2byte	0x1
 8817 0aa5 54       		.byte	0x54
 8818 0aa6 00000000 		.4byte	0
 8819 0aaa 00000000 		.4byte	0
 8820              	.LLST50:
 8821 0aae 56070000 		.4byte	.LVL129-.Ltext0
 8822 0ab2 66070000 		.4byte	.LVL134-.Ltext0
 8823 0ab6 0100     		.2byte	0x1
 8824 0ab8 55       		.byte	0x55
 8825 0ab9 00000000 		.4byte	0
 8826 0abd 00000000 		.4byte	0
 8827              	.LLST51:
 8828 0ac1 56070000 		.4byte	.LVL129-.Ltext0
 8829 0ac5 63070000 		.4byte	.LVL133-1-.Ltext0
 8830 0ac9 0100     		.2byte	0x1
 8831 0acb 50       		.byte	0x50
 8832 0acc 63070000 		.4byte	.LVL133-1-.Ltext0
 8833 0ad0 66070000 		.4byte	.LVL134-.Ltext0
 8834 0ad4 0400     		.2byte	0x4
 8835 0ad6 F3       		.byte	0xf3
 8836 0ad7 01       		.uleb128 0x1
 8837 0ad8 50       		.byte	0x50
 8838 0ad9 9F       		.byte	0x9f
 8839 0ada 00000000 		.4byte	0
 8840 0ade 00000000 		.4byte	0
 8841              	.LLST52:
 8842 0ae2 56070000 		.4byte	.LVL129-.Ltext0
 8843 0ae6 66070000 		.4byte	.LVL134-.Ltext0
 8844 0aea 0200     		.2byte	0x2
 8845 0aec 30       		.byte	0x30
 8846 0aed 9F       		.byte	0x9f
 8847 0aee 00000000 		.4byte	0
 8848 0af2 00000000 		.4byte	0
 8849              	.LLST54:
 8850 0af6 40080000 		.4byte	.LVL135-.Ltext0
ARM GAS  /tmp/cclsZlw8.s 			page 157


 8851 0afa BA080000 		.4byte	.LVL137-.Ltext0
 8852 0afe 0100     		.2byte	0x1
 8853 0b00 50       		.byte	0x50
 8854 0b01 BA080000 		.4byte	.LVL137-.Ltext0
 8855 0b05 BC080000 		.4byte	.LVL138-.Ltext0
 8856 0b09 0400     		.2byte	0x4
 8857 0b0b F3       		.byte	0xf3
 8858 0b0c 01       		.uleb128 0x1
 8859 0b0d 50       		.byte	0x50
 8860 0b0e 9F       		.byte	0x9f
 8861 0b0f BC080000 		.4byte	.LVL138-.Ltext0
 8862 0b13 58090000 		.4byte	.LVL140-.Ltext0
 8863 0b17 0100     		.2byte	0x1
 8864 0b19 50       		.byte	0x50
 8865 0b1a 58090000 		.4byte	.LVL140-.Ltext0
 8866 0b1e 5A090000 		.4byte	.LVL141-.Ltext0
 8867 0b22 0400     		.2byte	0x4
 8868 0b24 F3       		.byte	0xf3
 8869 0b25 01       		.uleb128 0x1
 8870 0b26 50       		.byte	0x50
 8871 0b27 9F       		.byte	0x9f
 8872 0b28 5A090000 		.4byte	.LVL141-.Ltext0
 8873 0b2c B2090000 		.4byte	.LFE137-.Ltext0
 8874 0b30 0100     		.2byte	0x1
 8875 0b32 50       		.byte	0x50
 8876 0b33 00000000 		.4byte	0
 8877 0b37 00000000 		.4byte	0
 8878              	.LLST55:
 8879 0b3b 40080000 		.4byte	.LVL135-.Ltext0
 8880 0b3f A6080000 		.4byte	.LVL136-.Ltext0
 8881 0b43 0100     		.2byte	0x1
 8882 0b45 52       		.byte	0x52
 8883 0b46 A6080000 		.4byte	.LVL136-.Ltext0
 8884 0b4a BC080000 		.4byte	.LVL138-.Ltext0
 8885 0b4e 0400     		.2byte	0x4
 8886 0b50 F3       		.byte	0xf3
 8887 0b51 01       		.uleb128 0x1
 8888 0b52 52       		.byte	0x52
 8889 0b53 9F       		.byte	0x9f
 8890 0b54 BC080000 		.4byte	.LVL138-.Ltext0
 8891 0b58 3C090000 		.4byte	.LVL139-.Ltext0
 8892 0b5c 0100     		.2byte	0x1
 8893 0b5e 52       		.byte	0x52
 8894 0b5f 3C090000 		.4byte	.LVL139-.Ltext0
 8895 0b63 5A090000 		.4byte	.LVL141-.Ltext0
 8896 0b67 0400     		.2byte	0x4
 8897 0b69 F3       		.byte	0xf3
 8898 0b6a 01       		.uleb128 0x1
 8899 0b6b 52       		.byte	0x52
 8900 0b6c 9F       		.byte	0x9f
 8901 0b6d 5A090000 		.4byte	.LVL141-.Ltext0
 8902 0b71 5C090000 		.4byte	.LVL142-.Ltext0
 8903 0b75 0100     		.2byte	0x1
 8904 0b77 52       		.byte	0x52
 8905 0b78 5C090000 		.4byte	.LVL142-.Ltext0
 8906 0b7c 68090000 		.4byte	.LVL143-.Ltext0
 8907 0b80 0400     		.2byte	0x4
ARM GAS  /tmp/cclsZlw8.s 			page 158


 8908 0b82 F3       		.byte	0xf3
 8909 0b83 01       		.uleb128 0x1
 8910 0b84 52       		.byte	0x52
 8911 0b85 9F       		.byte	0x9f
 8912 0b86 68090000 		.4byte	.LVL143-.Ltext0
 8913 0b8a A8090000 		.4byte	.LVL144-.Ltext0
 8914 0b8e 0100     		.2byte	0x1
 8915 0b90 52       		.byte	0x52
 8916 0b91 A8090000 		.4byte	.LVL144-.Ltext0
 8917 0b95 B2090000 		.4byte	.LFE137-.Ltext0
 8918 0b99 0400     		.2byte	0x4
 8919 0b9b F3       		.byte	0xf3
 8920 0b9c 01       		.uleb128 0x1
 8921 0b9d 52       		.byte	0x52
 8922 0b9e 9F       		.byte	0x9f
 8923 0b9f 00000000 		.4byte	0
 8924 0ba3 00000000 		.4byte	0
 8925              	.LLST56:
 8926 0ba7 C0090000 		.4byte	.LVL145-.Ltext0
 8927 0bab CB090000 		.4byte	.LVL146-1-.Ltext0
 8928 0baf 0100     		.2byte	0x1
 8929 0bb1 50       		.byte	0x50
 8930 0bb2 CB090000 		.4byte	.LVL146-1-.Ltext0
 8931 0bb6 D0090000 		.4byte	.LFE138-.Ltext0
 8932 0bba 0400     		.2byte	0x4
 8933 0bbc F3       		.byte	0xf3
 8934 0bbd 01       		.uleb128 0x1
 8935 0bbe 50       		.byte	0x50
 8936 0bbf 9F       		.byte	0x9f
 8937 0bc0 00000000 		.4byte	0
 8938 0bc4 00000000 		.4byte	0
 8939              	.LLST57:
 8940 0bc8 C0090000 		.4byte	.LVL145-.Ltext0
 8941 0bcc CB090000 		.4byte	.LVL146-1-.Ltext0
 8942 0bd0 0100     		.2byte	0x1
 8943 0bd2 51       		.byte	0x51
 8944 0bd3 CB090000 		.4byte	.LVL146-1-.Ltext0
 8945 0bd7 D0090000 		.4byte	.LFE138-.Ltext0
 8946 0bdb 0400     		.2byte	0x4
 8947 0bdd F3       		.byte	0xf3
 8948 0bde 01       		.uleb128 0x1
 8949 0bdf 51       		.byte	0x51
 8950 0be0 9F       		.byte	0x9f
 8951 0be1 00000000 		.4byte	0
 8952 0be5 00000000 		.4byte	0
 8953              	.LLST58:
 8954 0be9 C0090000 		.4byte	.LVL145-.Ltext0
 8955 0bed CB090000 		.4byte	.LVL146-1-.Ltext0
 8956 0bf1 0100     		.2byte	0x1
 8957 0bf3 52       		.byte	0x52
 8958 0bf4 CB090000 		.4byte	.LVL146-1-.Ltext0
 8959 0bf8 D0090000 		.4byte	.LFE138-.Ltext0
 8960 0bfc 0400     		.2byte	0x4
 8961 0bfe F3       		.byte	0xf3
 8962 0bff 01       		.uleb128 0x1
 8963 0c00 52       		.byte	0x52
 8964 0c01 9F       		.byte	0x9f
ARM GAS  /tmp/cclsZlw8.s 			page 159


 8965 0c02 00000000 		.4byte	0
 8966 0c06 00000000 		.4byte	0
 8967              	.LLST59:
 8968 0c0a C0090000 		.4byte	.LVL145-.Ltext0
 8969 0c0e CB090000 		.4byte	.LVL146-1-.Ltext0
 8970 0c12 0100     		.2byte	0x1
 8971 0c14 53       		.byte	0x53
 8972 0c15 CB090000 		.4byte	.LVL146-1-.Ltext0
 8973 0c19 D0090000 		.4byte	.LFE138-.Ltext0
 8974 0c1d 0400     		.2byte	0x4
 8975 0c1f F3       		.byte	0xf3
 8976 0c20 01       		.uleb128 0x1
 8977 0c21 53       		.byte	0x53
 8978 0c22 9F       		.byte	0x9f
 8979 0c23 00000000 		.4byte	0
 8980 0c27 00000000 		.4byte	0
 8981              	.LLST60:
 8982 0c2b D0090000 		.4byte	.LVL147-.Ltext0
 8983 0c2f F2090000 		.4byte	.LVL153-.Ltext0
 8984 0c33 0100     		.2byte	0x1
 8985 0c35 50       		.byte	0x50
 8986 0c36 F2090000 		.4byte	.LVL153-.Ltext0
 8987 0c3a F4090000 		.4byte	.LVL154-.Ltext0
 8988 0c3e 0400     		.2byte	0x4
 8989 0c40 76       		.byte	0x76
 8990 0c41 8060     		.sleb128 -4096
 8991 0c43 9F       		.byte	0x9f
 8992 0c44 F4090000 		.4byte	.LVL154-.Ltext0
 8993 0c48 F6090000 		.4byte	.LVL155-.Ltext0
 8994 0c4c 0400     		.2byte	0x4
 8995 0c4e F3       		.byte	0xf3
 8996 0c4f 01       		.uleb128 0x1
 8997 0c50 50       		.byte	0x50
 8998 0c51 9F       		.byte	0x9f
 8999 0c52 F6090000 		.4byte	.LVL155-.Ltext0
 9000 0c56 F8090000 		.4byte	.LVL156-.Ltext0
 9001 0c5a 0100     		.2byte	0x1
 9002 0c5c 50       		.byte	0x50
 9003 0c5d F8090000 		.4byte	.LVL156-.Ltext0
 9004 0c61 FA090000 		.4byte	.LFE139-.Ltext0
 9005 0c65 0400     		.2byte	0x4
 9006 0c67 F3       		.byte	0xf3
 9007 0c68 01       		.uleb128 0x1
 9008 0c69 50       		.byte	0x50
 9009 0c6a 9F       		.byte	0x9f
 9010 0c6b 00000000 		.4byte	0
 9011 0c6f 00000000 		.4byte	0
 9012              	.LLST61:
 9013 0c73 D0090000 		.4byte	.LVL147-.Ltext0
 9014 0c77 E0090000 		.4byte	.LVL150-.Ltext0
 9015 0c7b 0100     		.2byte	0x1
 9016 0c7d 51       		.byte	0x51
 9017 0c7e E0090000 		.4byte	.LVL150-.Ltext0
 9018 0c82 F4090000 		.4byte	.LVL154-.Ltext0
 9019 0c86 0100     		.2byte	0x1
 9020 0c88 54       		.byte	0x54
 9021 0c89 F6090000 		.4byte	.LVL155-.Ltext0
ARM GAS  /tmp/cclsZlw8.s 			page 160


 9022 0c8d FA090000 		.4byte	.LFE139-.Ltext0
 9023 0c91 0100     		.2byte	0x1
 9024 0c93 51       		.byte	0x51
 9025 0c94 00000000 		.4byte	0
 9026 0c98 00000000 		.4byte	0
 9027              	.LLST62:
 9028 0c9c D0090000 		.4byte	.LVL147-.Ltext0
 9029 0ca0 D2090000 		.4byte	.LVL148-.Ltext0
 9030 0ca4 0100     		.2byte	0x1
 9031 0ca6 52       		.byte	0x52
 9032 0ca7 D2090000 		.4byte	.LVL148-.Ltext0
 9033 0cab FA090000 		.4byte	.LFE139-.Ltext0
 9034 0caf 0400     		.2byte	0x4
 9035 0cb1 F3       		.byte	0xf3
 9036 0cb2 01       		.uleb128 0x1
 9037 0cb3 52       		.byte	0x52
 9038 0cb4 9F       		.byte	0x9f
 9039 0cb5 00000000 		.4byte	0
 9040 0cb9 00000000 		.4byte	0
 9041              	.LLST63:
 9042 0cbd D0090000 		.4byte	.LVL147-.Ltext0
 9043 0cc1 E0090000 		.4byte	.LVL150-.Ltext0
 9044 0cc5 0200     		.2byte	0x2
 9045 0cc7 30       		.byte	0x30
 9046 0cc8 9F       		.byte	0x9f
 9047 0cc9 E0090000 		.4byte	.LVL150-.Ltext0
 9048 0ccd F6090000 		.4byte	.LVL155-.Ltext0
 9049 0cd1 0100     		.2byte	0x1
 9050 0cd3 53       		.byte	0x53
 9051 0cd4 F6090000 		.4byte	.LVL155-.Ltext0
 9052 0cd8 FA090000 		.4byte	.LFE139-.Ltext0
 9053 0cdc 0200     		.2byte	0x2
 9054 0cde 30       		.byte	0x30
 9055 0cdf 9F       		.byte	0x9f
 9056 0ce0 00000000 		.4byte	0
 9057 0ce4 00000000 		.4byte	0
 9058              	.LLST64:
 9059 0ce8 D2090000 		.4byte	.LVL148-.Ltext0
 9060 0cec D4090000 		.4byte	.LVL149-.Ltext0
 9061 0cf0 0500     		.2byte	0x5
 9062 0cf2 72       		.byte	0x72
 9063 0cf3 00       		.sleb128 0
 9064 0cf4 32       		.byte	0x32
 9065 0cf5 26       		.byte	0x26
 9066 0cf6 9F       		.byte	0x9f
 9067 0cf7 D4090000 		.4byte	.LVL149-.Ltext0
 9068 0cfb FA090000 		.4byte	.LFE139-.Ltext0
 9069 0cff 0100     		.2byte	0x1
 9070 0d01 52       		.byte	0x52
 9071 0d02 00000000 		.4byte	0
 9072 0d06 00000000 		.4byte	0
 9073              	.LLST65:
 9074 0d0a 000A0000 		.4byte	.LVL157-.Ltext0
 9075 0d0e 3C0A0000 		.4byte	.LVL158-.Ltext0
 9076 0d12 0100     		.2byte	0x1
 9077 0d14 50       		.byte	0x50
 9078 0d15 3C0A0000 		.4byte	.LVL158-.Ltext0
ARM GAS  /tmp/cclsZlw8.s 			page 161


 9079 0d19 400A0000 		.4byte	.LFE140-.Ltext0
 9080 0d1d 0400     		.2byte	0x4
 9081 0d1f F3       		.byte	0xf3
 9082 0d20 01       		.uleb128 0x1
 9083 0d21 50       		.byte	0x50
 9084 0d22 9F       		.byte	0x9f
 9085 0d23 00000000 		.4byte	0
 9086 0d27 00000000 		.4byte	0
 9087              	.LLST66:
 9088 0d2b 400A0000 		.4byte	.LVL159-.Ltext0
 9089 0d2f 780A0000 		.4byte	.LVL160-.Ltext0
 9090 0d33 0100     		.2byte	0x1
 9091 0d35 50       		.byte	0x50
 9092 0d36 780A0000 		.4byte	.LVL160-.Ltext0
 9093 0d3a 7C0A0000 		.4byte	.LFE141-.Ltext0
 9094 0d3e 0400     		.2byte	0x4
 9095 0d40 F3       		.byte	0xf3
 9096 0d41 01       		.uleb128 0x1
 9097 0d42 50       		.byte	0x50
 9098 0d43 9F       		.byte	0x9f
 9099 0d44 00000000 		.4byte	0
 9100 0d48 00000000 		.4byte	0
 9101              	.LLST67:
 9102 0d4c 800A0000 		.4byte	.LVL161-.Ltext0
 9103 0d50 D80A0000 		.4byte	.LVL174-.Ltext0
 9104 0d54 0100     		.2byte	0x1
 9105 0d56 50       		.byte	0x50
 9106 0d57 D80A0000 		.4byte	.LVL174-.Ltext0
 9107 0d5b E40A0000 		.4byte	.LFE142-.Ltext0
 9108 0d5f 0400     		.2byte	0x4
 9109 0d61 F3       		.byte	0xf3
 9110 0d62 01       		.uleb128 0x1
 9111 0d63 50       		.byte	0x50
 9112 0d64 9F       		.byte	0x9f
 9113 0d65 00000000 		.4byte	0
 9114 0d69 00000000 		.4byte	0
 9115              	.LLST68:
 9116 0d6d 800A0000 		.4byte	.LVL161-.Ltext0
 9117 0d71 8C0A0000 		.4byte	.LVL162-.Ltext0
 9118 0d75 0200     		.2byte	0x2
 9119 0d77 30       		.byte	0x30
 9120 0d78 9F       		.byte	0x9f
 9121 0d79 00000000 		.4byte	0
 9122 0d7d 00000000 		.4byte	0
 9123              	.LLST69:
 9124 0d81 B40A0000 		.4byte	.LVL163-.Ltext0
 9125 0d85 D80A0000 		.4byte	.LVL174-.Ltext0
 9126 0d89 0100     		.2byte	0x1
 9127 0d8b 50       		.byte	0x50
 9128 0d8c D80A0000 		.4byte	.LVL174-.Ltext0
 9129 0d90 E40A0000 		.4byte	.LFE142-.Ltext0
 9130 0d94 0400     		.2byte	0x4
 9131 0d96 F3       		.byte	0xf3
 9132 0d97 01       		.uleb128 0x1
 9133 0d98 50       		.byte	0x50
 9134 0d99 9F       		.byte	0x9f
 9135 0d9a 00000000 		.4byte	0
ARM GAS  /tmp/cclsZlw8.s 			page 162


 9136 0d9e 00000000 		.4byte	0
 9137              	.LLST70:
 9138 0da2 B40A0000 		.4byte	.LVL163-.Ltext0
 9139 0da6 B60A0000 		.4byte	.LVL164-.Ltext0
 9140 0daa 0200     		.2byte	0x2
 9141 0dac 30       		.byte	0x30
 9142 0dad 9F       		.byte	0x9f
 9143 0dae B60A0000 		.4byte	.LVL164-.Ltext0
 9144 0db2 B80A0000 		.4byte	.LVL165-.Ltext0
 9145 0db6 0200     		.2byte	0x2
 9146 0db8 31       		.byte	0x31
 9147 0db9 9F       		.byte	0x9f
 9148 0dba B80A0000 		.4byte	.LVL165-.Ltext0
 9149 0dbe BA0A0000 		.4byte	.LVL166-.Ltext0
 9150 0dc2 0900     		.2byte	0x9
 9151 0dc4 0C       		.byte	0xc
 9152 0dc5 410D0300 		.4byte	0x30d41
 9153 0dc9 73       		.byte	0x73
 9154 0dca 00       		.sleb128 0
 9155 0dcb 1C       		.byte	0x1c
 9156 0dcc 9F       		.byte	0x9f
 9157 0dcd BA0A0000 		.4byte	.LVL166-.Ltext0
 9158 0dd1 BC0A0000 		.4byte	.LVL167-.Ltext0
 9159 0dd5 0900     		.2byte	0x9
 9160 0dd7 0C       		.byte	0xc
 9161 0dd8 400D0300 		.4byte	0x30d40
 9162 0ddc 73       		.byte	0x73
 9163 0ddd 00       		.sleb128 0
 9164 0dde 1C       		.byte	0x1c
 9165 0ddf 9F       		.byte	0x9f
 9166 0de0 BC0A0000 		.4byte	.LVL167-.Ltext0
 9167 0de4 C20A0000 		.4byte	.LVL168-.Ltext0
 9168 0de8 0900     		.2byte	0x9
 9169 0dea 0C       		.byte	0xc
 9170 0deb 410D0300 		.4byte	0x30d41
 9171 0def 73       		.byte	0x73
 9172 0df0 00       		.sleb128 0
 9173 0df1 1C       		.byte	0x1c
 9174 0df2 9F       		.byte	0x9f
 9175 0df3 00000000 		.4byte	0
 9176 0df7 00000000 		.4byte	0
 9177              	.LLST71:
 9178 0dfb C20A0000 		.4byte	.LVL168-.Ltext0
 9179 0dff D80A0000 		.4byte	.LVL174-.Ltext0
 9180 0e03 0100     		.2byte	0x1
 9181 0e05 50       		.byte	0x50
 9182 0e06 D80A0000 		.4byte	.LVL174-.Ltext0
 9183 0e0a E40A0000 		.4byte	.LFE142-.Ltext0
 9184 0e0e 0400     		.2byte	0x4
 9185 0e10 F3       		.byte	0xf3
 9186 0e11 01       		.uleb128 0x1
 9187 0e12 50       		.byte	0x50
 9188 0e13 9F       		.byte	0x9f
 9189 0e14 00000000 		.4byte	0
 9190 0e18 00000000 		.4byte	0
 9191              	.LLST72:
 9192 0e1c C20A0000 		.4byte	.LVL168-.Ltext0
ARM GAS  /tmp/cclsZlw8.s 			page 163


 9193 0e20 C80A0000 		.4byte	.LVL169-.Ltext0
 9194 0e24 0200     		.2byte	0x2
 9195 0e26 30       		.byte	0x30
 9196 0e27 9F       		.byte	0x9f
 9197 0e28 C80A0000 		.4byte	.LVL169-.Ltext0
 9198 0e2c CC0A0000 		.4byte	.LVL170-.Ltext0
 9199 0e30 0200     		.2byte	0x2
 9200 0e32 31       		.byte	0x31
 9201 0e33 9F       		.byte	0x9f
 9202 0e34 CC0A0000 		.4byte	.LVL170-.Ltext0
 9203 0e38 CE0A0000 		.4byte	.LVL171-.Ltext0
 9204 0e3c 0900     		.2byte	0x9
 9205 0e3e 0C       		.byte	0xc
 9206 0e3f 410D0300 		.4byte	0x30d41
 9207 0e43 73       		.byte	0x73
 9208 0e44 00       		.sleb128 0
 9209 0e45 1C       		.byte	0x1c
 9210 0e46 9F       		.byte	0x9f
 9211 0e47 CE0A0000 		.4byte	.LVL171-.Ltext0
 9212 0e4b D00A0000 		.4byte	.LVL172-.Ltext0
 9213 0e4f 0900     		.2byte	0x9
 9214 0e51 0C       		.byte	0xc
 9215 0e52 400D0300 		.4byte	0x30d40
 9216 0e56 73       		.byte	0x73
 9217 0e57 00       		.sleb128 0
 9218 0e58 1C       		.byte	0x1c
 9219 0e59 9F       		.byte	0x9f
 9220 0e5a D00A0000 		.4byte	.LVL172-.Ltext0
 9221 0e5e D60A0000 		.4byte	.LVL173-.Ltext0
 9222 0e62 0900     		.2byte	0x9
 9223 0e64 0C       		.byte	0xc
 9224 0e65 410D0300 		.4byte	0x30d41
 9225 0e69 73       		.byte	0x73
 9226 0e6a 00       		.sleb128 0
 9227 0e6b 1C       		.byte	0x1c
 9228 0e6c 9F       		.byte	0x9f
 9229 0e6d 00000000 		.4byte	0
 9230 0e71 00000000 		.4byte	0
 9231              	.LLST73:
 9232 0e75 F00A0000 		.4byte	.LVL175-.Ltext0
 9233 0e79 0E0B0000 		.4byte	.LVL177-.Ltext0
 9234 0e7d 0100     		.2byte	0x1
 9235 0e7f 50       		.byte	0x50
 9236 0e80 0E0B0000 		.4byte	.LVL177-.Ltext0
 9237 0e84 100B0000 		.4byte	.LFE143-.Ltext0
 9238 0e88 0400     		.2byte	0x4
 9239 0e8a F3       		.byte	0xf3
 9240 0e8b 01       		.uleb128 0x1
 9241 0e8c 50       		.byte	0x50
 9242 0e8d 9F       		.byte	0x9f
 9243 0e8e 00000000 		.4byte	0
 9244 0e92 00000000 		.4byte	0
 9245              	.LLST74:
 9246 0e96 F00A0000 		.4byte	.LVL175-.Ltext0
 9247 0e9a 020B0000 		.4byte	.LVL176-.Ltext0
 9248 0e9e 0100     		.2byte	0x1
 9249 0ea0 51       		.byte	0x51
ARM GAS  /tmp/cclsZlw8.s 			page 164


 9250 0ea1 020B0000 		.4byte	.LVL176-.Ltext0
 9251 0ea5 100B0000 		.4byte	.LFE143-.Ltext0
 9252 0ea9 0400     		.2byte	0x4
 9253 0eab F3       		.byte	0xf3
 9254 0eac 01       		.uleb128 0x1
 9255 0ead 51       		.byte	0x51
 9256 0eae 9F       		.byte	0x9f
 9257 0eaf 00000000 		.4byte	0
 9258 0eb3 00000000 		.4byte	0
 9259              	.LLST75:
 9260 0eb7 100B0000 		.4byte	.LVL178-.Ltext0
 9261 0ebb 1E0B0000 		.4byte	.LVL179-.Ltext0
 9262 0ebf 0100     		.2byte	0x1
 9263 0ec1 50       		.byte	0x50
 9264 0ec2 1E0B0000 		.4byte	.LVL179-.Ltext0
 9265 0ec6 230B0000 		.4byte	.LVL180-1-.Ltext0
 9266 0eca 0400     		.2byte	0x4
 9267 0ecc 72       		.byte	0x72
 9268 0ecd 8070     		.sleb128 -2048
 9269 0ecf 9F       		.byte	0x9f
 9270 0ed0 230B0000 		.4byte	.LVL180-1-.Ltext0
 9271 0ed4 280B0000 		.4byte	.LFE144-.Ltext0
 9272 0ed8 0400     		.2byte	0x4
 9273 0eda F3       		.byte	0xf3
 9274 0edb 01       		.uleb128 0x1
 9275 0edc 50       		.byte	0x50
 9276 0edd 9F       		.byte	0x9f
 9277 0ede 00000000 		.4byte	0
 9278 0ee2 00000000 		.4byte	0
 9279              	.LLST76:
 9280 0ee6 300B0000 		.4byte	.LVL181-.Ltext0
 9281 0eea 3E0B0000 		.4byte	.LVL182-.Ltext0
 9282 0eee 0100     		.2byte	0x1
 9283 0ef0 50       		.byte	0x50
 9284 0ef1 3E0B0000 		.4byte	.LVL182-.Ltext0
 9285 0ef5 430B0000 		.4byte	.LVL183-1-.Ltext0
 9286 0ef9 0400     		.2byte	0x4
 9287 0efb 72       		.byte	0x72
 9288 0efc 8070     		.sleb128 -2048
 9289 0efe 9F       		.byte	0x9f
 9290 0eff 430B0000 		.4byte	.LVL183-1-.Ltext0
 9291 0f03 480B0000 		.4byte	.LFE145-.Ltext0
 9292 0f07 0400     		.2byte	0x4
 9293 0f09 F3       		.byte	0xf3
 9294 0f0a 01       		.uleb128 0x1
 9295 0f0b 50       		.byte	0x50
 9296 0f0c 9F       		.byte	0x9f
 9297 0f0d 00000000 		.4byte	0
 9298 0f11 00000000 		.4byte	0
 9299              	.LLST77:
 9300 0f15 500B0000 		.4byte	.LVL184-.Ltext0
 9301 0f19 540B0000 		.4byte	.LVL186-.Ltext0
 9302 0f1d 0100     		.2byte	0x1
 9303 0f1f 50       		.byte	0x50
 9304 0f20 540B0000 		.4byte	.LVL186-.Ltext0
 9305 0f24 580B0000 		.4byte	.LFE146-.Ltext0
 9306 0f28 0400     		.2byte	0x4
ARM GAS  /tmp/cclsZlw8.s 			page 165


 9307 0f2a F3       		.byte	0xf3
 9308 0f2b 01       		.uleb128 0x1
 9309 0f2c 50       		.byte	0x50
 9310 0f2d 9F       		.byte	0x9f
 9311 0f2e 00000000 		.4byte	0
 9312 0f32 00000000 		.4byte	0
 9313              	.LLST78:
 9314 0f36 500B0000 		.4byte	.LVL184-.Ltext0
 9315 0f3a 520B0000 		.4byte	.LVL185-.Ltext0
 9316 0f3e 0200     		.2byte	0x2
 9317 0f40 30       		.byte	0x30
 9318 0f41 9F       		.byte	0x9f
 9319 0f42 520B0000 		.4byte	.LVL185-.Ltext0
 9320 0f46 540B0000 		.4byte	.LVL186-.Ltext0
 9321 0f4a 0100     		.2byte	0x1
 9322 0f4c 53       		.byte	0x53
 9323 0f4d 540B0000 		.4byte	.LVL186-.Ltext0
 9324 0f51 560B0000 		.4byte	.LVL187-.Ltext0
 9325 0f55 0600     		.2byte	0x6
 9326 0f57 70       		.byte	0x70
 9327 0f58 00       		.sleb128 0
 9328 0f59 73       		.byte	0x73
 9329 0f5a 00       		.sleb128 0
 9330 0f5b 1A       		.byte	0x1a
 9331 0f5c 9F       		.byte	0x9f
 9332 0f5d 560B0000 		.4byte	.LVL187-.Ltext0
 9333 0f61 580B0000 		.4byte	.LFE146-.Ltext0
 9334 0f65 0100     		.2byte	0x1
 9335 0f67 50       		.byte	0x50
 9336 0f68 00000000 		.4byte	0
 9337 0f6c 00000000 		.4byte	0
 9338              	.LLST79:
 9339 0f70 600B0000 		.4byte	.LVL188-.Ltext0
 9340 0f74 680B0000 		.4byte	.LVL189-.Ltext0
 9341 0f78 0100     		.2byte	0x1
 9342 0f7a 50       		.byte	0x50
 9343 0f7b 680B0000 		.4byte	.LVL189-.Ltext0
 9344 0f7f 6A0B0000 		.4byte	.LVL190-.Ltext0
 9345 0f83 0400     		.2byte	0x4
 9346 0f85 70       		.byte	0x70
 9347 0f86 8070     		.sleb128 -2048
 9348 0f88 9F       		.byte	0x9f
 9349 0f89 6A0B0000 		.4byte	.LVL190-.Ltext0
 9350 0f8d 700B0000 		.4byte	.LFE147-.Ltext0
 9351 0f91 0400     		.2byte	0x4
 9352 0f93 F3       		.byte	0xf3
 9353 0f94 01       		.uleb128 0x1
 9354 0f95 50       		.byte	0x50
 9355 0f96 9F       		.byte	0x9f
 9356 0f97 00000000 		.4byte	0
 9357 0f9b 00000000 		.4byte	0
 9358              	.LLST80:
 9359 0f9f 680B0000 		.4byte	.LVL189-.Ltext0
 9360 0fa3 6A0B0000 		.4byte	.LVL190-.Ltext0
 9361 0fa7 0100     		.2byte	0x1
 9362 0fa9 53       		.byte	0x53
 9363 0faa 6A0B0000 		.4byte	.LVL190-.Ltext0
ARM GAS  /tmp/cclsZlw8.s 			page 166


 9364 0fae 6C0B0000 		.4byte	.LVL191-.Ltext0
 9365 0fb2 0600     		.2byte	0x6
 9366 0fb4 70       		.byte	0x70
 9367 0fb5 00       		.sleb128 0
 9368 0fb6 73       		.byte	0x73
 9369 0fb7 00       		.sleb128 0
 9370 0fb8 1A       		.byte	0x1a
 9371 0fb9 9F       		.byte	0x9f
 9372 0fba 6C0B0000 		.4byte	.LVL191-.Ltext0
 9373 0fbe 6E0B0000 		.4byte	.LVL192-.Ltext0
 9374 0fc2 0100     		.2byte	0x1
 9375 0fc4 50       		.byte	0x50
 9376 0fc5 00000000 		.4byte	0
 9377 0fc9 00000000 		.4byte	0
 9378              	.LLST81:
 9379 0fcd 700B0000 		.4byte	.LVL193-.Ltext0
 9380 0fd1 780B0000 		.4byte	.LVL194-.Ltext0
 9381 0fd5 0100     		.2byte	0x1
 9382 0fd7 50       		.byte	0x50
 9383 0fd8 780B0000 		.4byte	.LVL194-.Ltext0
 9384 0fdc 7A0B0000 		.4byte	.LVL195-.Ltext0
 9385 0fe0 0400     		.2byte	0x4
 9386 0fe2 73       		.byte	0x73
 9387 0fe3 8070     		.sleb128 -2048
 9388 0fe5 9F       		.byte	0x9f
 9389 0fe6 7A0B0000 		.4byte	.LVL195-.Ltext0
 9390 0fea 800B0000 		.4byte	.LFE148-.Ltext0
 9391 0fee 0400     		.2byte	0x4
 9392 0ff0 F3       		.byte	0xf3
 9393 0ff1 01       		.uleb128 0x1
 9394 0ff2 50       		.byte	0x50
 9395 0ff3 9F       		.byte	0x9f
 9396 0ff4 00000000 		.4byte	0
 9397 0ff8 00000000 		.4byte	0
 9398              	.LLST82:
 9399 0ffc 780B0000 		.4byte	.LVL194-.Ltext0
 9400 1000 7A0B0000 		.4byte	.LVL195-.Ltext0
 9401 1004 0100     		.2byte	0x1
 9402 1006 50       		.byte	0x50
 9403 1007 7A0B0000 		.4byte	.LVL195-.Ltext0
 9404 100b 7C0B0000 		.4byte	.LVL196-.Ltext0
 9405 100f 0600     		.2byte	0x6
 9406 1011 70       		.byte	0x70
 9407 1012 00       		.sleb128 0
 9408 1013 73       		.byte	0x73
 9409 1014 00       		.sleb128 0
 9410 1015 1A       		.byte	0x1a
 9411 1016 9F       		.byte	0x9f
 9412 1017 7C0B0000 		.4byte	.LVL196-.Ltext0
 9413 101b 7E0B0000 		.4byte	.LVL197-.Ltext0
 9414 101f 0100     		.2byte	0x1
 9415 1021 50       		.byte	0x50
 9416 1022 00000000 		.4byte	0
 9417 1026 00000000 		.4byte	0
 9418              	.LLST83:
 9419 102a 800B0000 		.4byte	.LVL198-.Ltext0
 9420 102e 8C0B0000 		.4byte	.LVL200-.Ltext0
ARM GAS  /tmp/cclsZlw8.s 			page 167


 9421 1032 0100     		.2byte	0x1
 9422 1034 50       		.byte	0x50
 9423 1035 8C0B0000 		.4byte	.LVL200-.Ltext0
 9424 1039 900B0000 		.4byte	.LVL202-.Ltext0
 9425 103d 0400     		.2byte	0x4
 9426 103f 70       		.byte	0x70
 9427 1040 8070     		.sleb128 -2048
 9428 1042 9F       		.byte	0x9f
 9429 1043 900B0000 		.4byte	.LVL202-.Ltext0
 9430 1047 940B0000 		.4byte	.LFE149-.Ltext0
 9431 104b 0400     		.2byte	0x4
 9432 104d F3       		.byte	0xf3
 9433 104e 01       		.uleb128 0x1
 9434 104f 50       		.byte	0x50
 9435 1050 9F       		.byte	0x9f
 9436 1051 00000000 		.4byte	0
 9437 1055 00000000 		.4byte	0
 9438              	.LLST84:
 9439 1059 800B0000 		.4byte	.LVL198-.Ltext0
 9440 105d 880B0000 		.4byte	.LVL199-.Ltext0
 9441 1061 0100     		.2byte	0x1
 9442 1063 51       		.byte	0x51
 9443 1064 880B0000 		.4byte	.LVL199-.Ltext0
 9444 1068 940B0000 		.4byte	.LFE149-.Ltext0
 9445 106c 0400     		.2byte	0x4
 9446 106e F3       		.byte	0xf3
 9447 106f 01       		.uleb128 0x1
 9448 1070 51       		.byte	0x51
 9449 1071 9F       		.byte	0x9f
 9450 1072 00000000 		.4byte	0
 9451 1076 00000000 		.4byte	0
 9452              	.LLST85:
 9453 107a 8E0B0000 		.4byte	.LVL201-.Ltext0
 9454 107e 900B0000 		.4byte	.LVL202-.Ltext0
 9455 1082 0100     		.2byte	0x1
 9456 1084 53       		.byte	0x53
 9457 1085 900B0000 		.4byte	.LVL202-.Ltext0
 9458 1089 920B0000 		.4byte	.LVL203-.Ltext0
 9459 108d 0600     		.2byte	0x6
 9460 108f 70       		.byte	0x70
 9461 1090 00       		.sleb128 0
 9462 1091 73       		.byte	0x73
 9463 1092 00       		.sleb128 0
 9464 1093 1A       		.byte	0x1a
 9465 1094 9F       		.byte	0x9f
 9466 1095 920B0000 		.4byte	.LVL203-.Ltext0
 9467 1099 940B0000 		.4byte	.LFE149-.Ltext0
 9468 109d 0100     		.2byte	0x1
 9469 109f 50       		.byte	0x50
 9470 10a0 00000000 		.4byte	0
 9471 10a4 00000000 		.4byte	0
 9472              	.LLST86:
 9473 10a8 A00B0000 		.4byte	.LVL204-.Ltext0
 9474 10ac AE0B0000 		.4byte	.LVL207-.Ltext0
 9475 10b0 0100     		.2byte	0x1
 9476 10b2 50       		.byte	0x50
 9477 10b3 AE0B0000 		.4byte	.LVL207-.Ltext0
ARM GAS  /tmp/cclsZlw8.s 			page 168


 9478 10b7 C20B0000 		.4byte	.LFE150-.Ltext0
 9479 10bb 0400     		.2byte	0x4
 9480 10bd F3       		.byte	0xf3
 9481 10be 01       		.uleb128 0x1
 9482 10bf 50       		.byte	0x50
 9483 10c0 9F       		.byte	0x9f
 9484 10c1 00000000 		.4byte	0
 9485 10c5 00000000 		.4byte	0
 9486              	.LLST87:
 9487 10c9 A60B0000 		.4byte	.LVL205-.Ltext0
 9488 10cd AA0B0000 		.4byte	.LVL206-.Ltext0
 9489 10d1 0100     		.2byte	0x1
 9490 10d3 54       		.byte	0x54
 9491 10d4 AA0B0000 		.4byte	.LVL206-.Ltext0
 9492 10d8 B00B0000 		.4byte	.LVL208-.Ltext0
 9493 10dc 1100     		.2byte	0x11
 9494 10de 73       		.byte	0x73
 9495 10df 00       		.sleb128 0
 9496 10e0 71       		.byte	0x71
 9497 10e1 00       		.sleb128 0
 9498 10e2 08       		.byte	0x8
 9499 10e3 FF       		.byte	0xff
 9500 10e4 1A       		.byte	0x1a
 9501 10e5 25       		.byte	0x25
 9502 10e6 37       		.byte	0x37
 9503 10e7 24       		.byte	0x24
 9504 10e8 08       		.byte	0x8
 9505 10e9 FF       		.byte	0xff
 9506 10ea 1A       		.byte	0x1a
 9507 10eb 74       		.byte	0x74
 9508 10ec 00       		.sleb128 0
 9509 10ed 21       		.byte	0x21
 9510 10ee 9F       		.byte	0x9f
 9511 10ef 00000000 		.4byte	0
 9512 10f3 00000000 		.4byte	0
 9513              	.LLST88:
 9514 10f7 AA0B0000 		.4byte	.LVL206-.Ltext0
 9515 10fb B00B0000 		.4byte	.LVL208-.Ltext0
 9516 10ff 0100     		.2byte	0x1
 9517 1101 53       		.byte	0x53
 9518 1102 00000000 		.4byte	0
 9519 1106 00000000 		.4byte	0
 9520              	.LLST89:
 9521 110a D00B0000 		.4byte	.LVL210-.Ltext0
 9522 110e D40B0000 		.4byte	.LVL211-.Ltext0
 9523 1112 0100     		.2byte	0x1
 9524 1114 51       		.byte	0x51
 9525 1115 D40B0000 		.4byte	.LVL211-.Ltext0
 9526 1119 D80B0000 		.4byte	.LFE151-.Ltext0
 9527 111d 0400     		.2byte	0x4
 9528 111f F3       		.byte	0xf3
 9529 1120 01       		.uleb128 0x1
 9530 1121 51       		.byte	0x51
 9531 1122 9F       		.byte	0x9f
 9532 1123 00000000 		.4byte	0
 9533 1127 00000000 		.4byte	0
 9534              	.LLST90:
ARM GAS  /tmp/cclsZlw8.s 			page 169


 9535 112b E00B0000 		.4byte	.LVL212-.Ltext0
 9536 112f E20B0000 		.4byte	.LVL213-.Ltext0
 9537 1133 0100     		.2byte	0x1
 9538 1135 50       		.byte	0x50
 9539 1136 E20B0000 		.4byte	.LVL213-.Ltext0
 9540 113a E80B0000 		.4byte	.LFE152-.Ltext0
 9541 113e 0400     		.2byte	0x4
 9542 1140 F3       		.byte	0xf3
 9543 1141 01       		.uleb128 0x1
 9544 1142 50       		.byte	0x50
 9545 1143 9F       		.byte	0x9f
 9546 1144 00000000 		.4byte	0
 9547 1148 00000000 		.4byte	0
 9548              	.LLST91:
 9549 114c F00B0000 		.4byte	.LVL214-.Ltext0
 9550 1150 240C0000 		.4byte	.LVL215-.Ltext0
 9551 1154 0100     		.2byte	0x1
 9552 1156 50       		.byte	0x50
 9553 1157 240C0000 		.4byte	.LVL215-.Ltext0
 9554 115b 260C0000 		.4byte	.LFE153-.Ltext0
 9555 115f 0400     		.2byte	0x4
 9556 1161 72       		.byte	0x72
 9557 1162 8070     		.sleb128 -2048
 9558 1164 9F       		.byte	0x9f
 9559 1165 00000000 		.4byte	0
 9560 1169 00000000 		.4byte	0
 9561              	.LLST92:
 9562 116d 300C0000 		.4byte	.LVL216-.Ltext0
 9563 1171 6E0C0000 		.4byte	.LVL218-.Ltext0
 9564 1175 0100     		.2byte	0x1
 9565 1177 50       		.byte	0x50
 9566 1178 6E0C0000 		.4byte	.LVL218-.Ltext0
 9567 117c 740C0000 		.4byte	.LFE154-.Ltext0
 9568 1180 0400     		.2byte	0x4
 9569 1182 F3       		.byte	0xf3
 9570 1183 01       		.uleb128 0x1
 9571 1184 50       		.byte	0x50
 9572 1185 9F       		.byte	0x9f
 9573 1186 00000000 		.4byte	0
 9574 118a 00000000 		.4byte	0
 9575              	.LLST93:
 9576 118e 300C0000 		.4byte	.LVL216-.Ltext0
 9577 1192 640C0000 		.4byte	.LVL217-.Ltext0
 9578 1196 0100     		.2byte	0x1
 9579 1198 51       		.byte	0x51
 9580 1199 640C0000 		.4byte	.LVL217-.Ltext0
 9581 119d 740C0000 		.4byte	.LFE154-.Ltext0
 9582 11a1 0400     		.2byte	0x4
 9583 11a3 F3       		.byte	0xf3
 9584 11a4 01       		.uleb128 0x1
 9585 11a5 51       		.byte	0x51
 9586 11a6 9F       		.byte	0x9f
 9587 11a7 00000000 		.4byte	0
 9588 11ab 00000000 		.4byte	0
 9589              	.LLST94:
 9590 11af 800C0000 		.4byte	.LVL219-.Ltext0
 9591 11b3 A00C0000 		.4byte	.LVL220-.Ltext0
ARM GAS  /tmp/cclsZlw8.s 			page 170


 9592 11b7 0100     		.2byte	0x1
 9593 11b9 50       		.byte	0x50
 9594 11ba A00C0000 		.4byte	.LVL220-.Ltext0
 9595 11be AE0C0000 		.4byte	.LVL221-.Ltext0
 9596 11c2 0400     		.2byte	0x4
 9597 11c4 70       		.byte	0x70
 9598 11c5 8078     		.sleb128 -1024
 9599 11c7 9F       		.byte	0x9f
 9600 11c8 AE0C0000 		.4byte	.LVL221-.Ltext0
 9601 11cc BA0C0000 		.4byte	.LFE157-.Ltext0
 9602 11d0 0400     		.2byte	0x4
 9603 11d2 F3       		.byte	0xf3
 9604 11d3 01       		.uleb128 0x1
 9605 11d4 50       		.byte	0x50
 9606 11d5 9F       		.byte	0x9f
 9607 11d6 00000000 		.4byte	0
 9608 11da 00000000 		.4byte	0
 9609              	.LLST95:
 9610 11de C00C0000 		.4byte	.LVL222-.Ltext0
 9611 11e2 E00C0000 		.4byte	.LVL223-.Ltext0
 9612 11e6 0100     		.2byte	0x1
 9613 11e8 50       		.byte	0x50
 9614 11e9 E00C0000 		.4byte	.LVL223-.Ltext0
 9615 11ed F40C0000 		.4byte	.LFE158-.Ltext0
 9616 11f1 0100     		.2byte	0x1
 9617 11f3 54       		.byte	0x54
 9618 11f4 00000000 		.4byte	0
 9619 11f8 00000000 		.4byte	0
 9620              	.LLST96:
 9621 11fc 000D0000 		.4byte	.LVL225-.Ltext0
 9622 1200 300D0000 		.4byte	.LVL226-.Ltext0
 9623 1204 0100     		.2byte	0x1
 9624 1206 50       		.byte	0x50
 9625 1207 300D0000 		.4byte	.LVL226-.Ltext0
 9626 120b 340D0000 		.4byte	.LVL227-.Ltext0
 9627 120f 0400     		.2byte	0x4
 9628 1211 F3       		.byte	0xf3
 9629 1212 01       		.uleb128 0x1
 9630 1213 50       		.byte	0x50
 9631 1214 9F       		.byte	0x9f
 9632 1215 340D0000 		.4byte	.LVL227-.Ltext0
 9633 1219 400D0000 		.4byte	.LVL228-.Ltext0
 9634 121d 0100     		.2byte	0x1
 9635 121f 50       		.byte	0x50
 9636 1220 400D0000 		.4byte	.LVL228-.Ltext0
 9637 1224 440D0000 		.4byte	.LFE159-.Ltext0
 9638 1228 0400     		.2byte	0x4
 9639 122a F3       		.byte	0xf3
 9640 122b 01       		.uleb128 0x1
 9641 122c 50       		.byte	0x50
 9642 122d 9F       		.byte	0x9f
 9643 122e 00000000 		.4byte	0
 9644 1232 00000000 		.4byte	0
 9645              	.LLST97:
 9646 1236 500D0000 		.4byte	.LVL229-.Ltext0
 9647 123a 580D0000 		.4byte	.LVL230-.Ltext0
 9648 123e 0100     		.2byte	0x1
ARM GAS  /tmp/cclsZlw8.s 			page 171


 9649 1240 50       		.byte	0x50
 9650 1241 580D0000 		.4byte	.LVL230-.Ltext0
 9651 1245 160E0000 		.4byte	.LVL249-.Ltext0
 9652 1249 0100     		.2byte	0x1
 9653 124b 54       		.byte	0x54
 9654 124c 160E0000 		.4byte	.LVL249-.Ltext0
 9655 1250 1C0E0000 		.4byte	.LVL250-.Ltext0
 9656 1254 0400     		.2byte	0x4
 9657 1256 F3       		.byte	0xf3
 9658 1257 01       		.uleb128 0x1
 9659 1258 50       		.byte	0x50
 9660 1259 9F       		.byte	0x9f
 9661 125a 1C0E0000 		.4byte	.LVL250-.Ltext0
 9662 125e 540E0000 		.4byte	.LFE156-.Ltext0
 9663 1262 0100     		.2byte	0x1
 9664 1264 54       		.byte	0x54
 9665 1265 00000000 		.4byte	0
 9666 1269 00000000 		.4byte	0
 9667              	.LLST98:
 9668 126d 780D0000 		.4byte	.LVL231-.Ltext0
 9669 1271 D20D0000 		.4byte	.LVL246-.Ltext0
 9670 1275 0700     		.2byte	0x7
 9671 1277 93       		.byte	0x93
 9672 1278 04       		.uleb128 0x4
 9673 1279 51       		.byte	0x51
 9674 127a 93       		.byte	0x93
 9675 127b 04       		.uleb128 0x4
 9676 127c 93       		.byte	0x93
 9677 127d 28       		.uleb128 0x28
 9678 127e 1C0E0000 		.4byte	.LVL250-.Ltext0
 9679 1282 2C0E0000 		.4byte	.LVL251-.Ltext0
 9680 1286 0700     		.2byte	0x7
 9681 1288 93       		.byte	0x93
 9682 1289 04       		.uleb128 0x4
 9683 128a 51       		.byte	0x51
 9684 128b 93       		.byte	0x93
 9685 128c 04       		.uleb128 0x4
 9686 128d 93       		.byte	0x93
 9687 128e 28       		.uleb128 0x28
 9688 128f 00000000 		.4byte	0
 9689 1293 00000000 		.4byte	0
 9690              	.LLST99:
 9691 1297 B40D0000 		.4byte	.LVL242-.Ltext0
 9692 129b C20D0000 		.4byte	.LVL243-.Ltext0
 9693 129f 0200     		.2byte	0x2
 9694 12a1 30       		.byte	0x30
 9695 12a2 9F       		.byte	0x9f
 9696 12a3 C20D0000 		.4byte	.LVL243-.Ltext0
 9697 12a7 D00D0000 		.4byte	.LVL245-.Ltext0
 9698 12ab 0100     		.2byte	0x1
 9699 12ad 52       		.byte	0x52
 9700 12ae 00000000 		.4byte	0
 9701 12b2 00000000 		.4byte	0
 9702              	.LLST100:
 9703 12b6 8E0D0000 		.4byte	.LVL232-.Ltext0
 9704 12ba 1C0E0000 		.4byte	.LVL250-.Ltext0
 9705 12be 0200     		.2byte	0x2
ARM GAS  /tmp/cclsZlw8.s 			page 172


 9706 12c0 40       		.byte	0x40
 9707 12c1 9F       		.byte	0x9f
 9708 12c2 2C0E0000 		.4byte	.LVL251-.Ltext0
 9709 12c6 540E0000 		.4byte	.LFE156-.Ltext0
 9710 12ca 0200     		.2byte	0x2
 9711 12cc 40       		.byte	0x40
 9712 12cd 9F       		.byte	0x9f
 9713 12ce 00000000 		.4byte	0
 9714 12d2 00000000 		.4byte	0
 9715              	.LLST101:
 9716 12d6 8E0D0000 		.4byte	.LVL232-.Ltext0
 9717 12da 160E0000 		.4byte	.LVL249-.Ltext0
 9718 12de 0100     		.2byte	0x1
 9719 12e0 54       		.byte	0x54
 9720 12e1 160E0000 		.4byte	.LVL249-.Ltext0
 9721 12e5 1C0E0000 		.4byte	.LVL250-.Ltext0
 9722 12e9 0400     		.2byte	0x4
 9723 12eb F3       		.byte	0xf3
 9724 12ec 01       		.uleb128 0x1
 9725 12ed 50       		.byte	0x50
 9726 12ee 9F       		.byte	0x9f
 9727 12ef 2C0E0000 		.4byte	.LVL251-.Ltext0
 9728 12f3 540E0000 		.4byte	.LFE156-.Ltext0
 9729 12f7 0100     		.2byte	0x1
 9730 12f9 54       		.byte	0x54
 9731 12fa 00000000 		.4byte	0
 9732 12fe 00000000 		.4byte	0
 9733              	.LLST102:
 9734 1302 8E0D0000 		.4byte	.LVL232-.Ltext0
 9735 1306 940D0000 		.4byte	.LVL233-.Ltext0
 9736 130a 0200     		.2byte	0x2
 9737 130c 30       		.byte	0x30
 9738 130d 9F       		.byte	0x9f
 9739 130e 940D0000 		.4byte	.LVL233-.Ltext0
 9740 1312 980D0000 		.4byte	.LVL234-.Ltext0
 9741 1316 0200     		.2byte	0x2
 9742 1318 31       		.byte	0x31
 9743 1319 9F       		.byte	0x9f
 9744 131a 980D0000 		.4byte	.LVL234-.Ltext0
 9745 131e 9A0D0000 		.4byte	.LVL235-.Ltext0
 9746 1322 0900     		.2byte	0x9
 9747 1324 0C       		.byte	0xc
 9748 1325 410D0300 		.4byte	0x30d41
 9749 1329 73       		.byte	0x73
 9750 132a 00       		.sleb128 0
 9751 132b 1C       		.byte	0x1c
 9752 132c 9F       		.byte	0x9f
 9753 132d 9A0D0000 		.4byte	.LVL235-.Ltext0
 9754 1331 9C0D0000 		.4byte	.LVL236-.Ltext0
 9755 1335 0900     		.2byte	0x9
 9756 1337 0C       		.byte	0xc
 9757 1338 400D0300 		.4byte	0x30d40
 9758 133c 73       		.byte	0x73
 9759 133d 00       		.sleb128 0
 9760 133e 1C       		.byte	0x1c
 9761 133f 9F       		.byte	0x9f
 9762 1340 9C0D0000 		.4byte	.LVL236-.Ltext0
ARM GAS  /tmp/cclsZlw8.s 			page 173


 9763 1344 A20D0000 		.4byte	.LVL237-.Ltext0
 9764 1348 0900     		.2byte	0x9
 9765 134a 0C       		.byte	0xc
 9766 134b 410D0300 		.4byte	0x30d41
 9767 134f 73       		.byte	0x73
 9768 1350 00       		.sleb128 0
 9769 1351 1C       		.byte	0x1c
 9770 1352 9F       		.byte	0x9f
 9771 1353 00000000 		.4byte	0
 9772 1357 00000000 		.4byte	0
 9773              	.LLST103:
 9774 135b A20D0000 		.4byte	.LVL237-.Ltext0
 9775 135f 160E0000 		.4byte	.LVL249-.Ltext0
 9776 1363 0100     		.2byte	0x1
 9777 1365 54       		.byte	0x54
 9778 1366 160E0000 		.4byte	.LVL249-.Ltext0
 9779 136a 1C0E0000 		.4byte	.LVL250-.Ltext0
 9780 136e 0400     		.2byte	0x4
 9781 1370 F3       		.byte	0xf3
 9782 1371 01       		.uleb128 0x1
 9783 1372 50       		.byte	0x50
 9784 1373 9F       		.byte	0x9f
 9785 1374 2C0E0000 		.4byte	.LVL251-.Ltext0
 9786 1378 540E0000 		.4byte	.LFE156-.Ltext0
 9787 137c 0100     		.2byte	0x1
 9788 137e 54       		.byte	0x54
 9789 137f 00000000 		.4byte	0
 9790 1383 00000000 		.4byte	0
 9791              	.LLST104:
 9792 1387 A20D0000 		.4byte	.LVL237-.Ltext0
 9793 138b A60D0000 		.4byte	.LVL238-.Ltext0
 9794 138f 0200     		.2byte	0x2
 9795 1391 30       		.byte	0x30
 9796 1392 9F       		.byte	0x9f
 9797 1393 A60D0000 		.4byte	.LVL238-.Ltext0
 9798 1397 AA0D0000 		.4byte	.LVL239-.Ltext0
 9799 139b 0200     		.2byte	0x2
 9800 139d 31       		.byte	0x31
 9801 139e 9F       		.byte	0x9f
 9802 139f AA0D0000 		.4byte	.LVL239-.Ltext0
 9803 13a3 AC0D0000 		.4byte	.LVL240-.Ltext0
 9804 13a7 0900     		.2byte	0x9
 9805 13a9 0C       		.byte	0xc
 9806 13aa 410D0300 		.4byte	0x30d41
 9807 13ae 73       		.byte	0x73
 9808 13af 00       		.sleb128 0
 9809 13b0 1C       		.byte	0x1c
 9810 13b1 9F       		.byte	0x9f
 9811 13b2 AC0D0000 		.4byte	.LVL240-.Ltext0
 9812 13b6 AE0D0000 		.4byte	.LVL241-.Ltext0
 9813 13ba 0900     		.2byte	0x9
 9814 13bc 0C       		.byte	0xc
 9815 13bd 400D0300 		.4byte	0x30d40
 9816 13c1 73       		.byte	0x73
 9817 13c2 00       		.sleb128 0
 9818 13c3 1C       		.byte	0x1c
 9819 13c4 9F       		.byte	0x9f
ARM GAS  /tmp/cclsZlw8.s 			page 174


 9820 13c5 AE0D0000 		.4byte	.LVL241-.Ltext0
 9821 13c9 B40D0000 		.4byte	.LVL242-.Ltext0
 9822 13cd 0900     		.2byte	0x9
 9823 13cf 0C       		.byte	0xc
 9824 13d0 410D0300 		.4byte	0x30d41
 9825 13d4 73       		.byte	0x73
 9826 13d5 00       		.sleb128 0
 9827 13d6 1C       		.byte	0x1c
 9828 13d7 9F       		.byte	0x9f
 9829 13d8 00000000 		.4byte	0
 9830 13dc 00000000 		.4byte	0
 9831              	.LLST105:
 9832 13e0 600E0000 		.4byte	.LVL252-.Ltext0
 9833 13e4 6A0E0000 		.4byte	.LVL253-.Ltext0
 9834 13e8 0100     		.2byte	0x1
 9835 13ea 50       		.byte	0x50
 9836 13eb 6A0E0000 		.4byte	.LVL253-.Ltext0
 9837 13ef 720E0000 		.4byte	.LFE160-.Ltext0
 9838 13f3 0400     		.2byte	0x4
 9839 13f5 F3       		.byte	0xf3
 9840 13f6 01       		.uleb128 0x1
 9841 13f7 50       		.byte	0x50
 9842 13f8 9F       		.byte	0x9f
 9843 13f9 00000000 		.4byte	0
 9844 13fd 00000000 		.4byte	0
 9845              	.LLST106:
 9846 1401 800E0000 		.4byte	.LVL254-.Ltext0
 9847 1405 840E0000 		.4byte	.LVL255-.Ltext0
 9848 1409 0100     		.2byte	0x1
 9849 140b 50       		.byte	0x50
 9850 140c 840E0000 		.4byte	.LVL255-.Ltext0
 9851 1410 860E0000 		.4byte	.LVL256-.Ltext0
 9852 1414 0400     		.2byte	0x4
 9853 1416 70       		.byte	0x70
 9854 1417 8078     		.sleb128 -1024
 9855 1419 9F       		.byte	0x9f
 9856 141a 860E0000 		.4byte	.LVL256-.Ltext0
 9857 141e 8A0E0000 		.4byte	.LFE161-.Ltext0
 9858 1422 0400     		.2byte	0x4
 9859 1424 F3       		.byte	0xf3
 9860 1425 01       		.uleb128 0x1
 9861 1426 50       		.byte	0x50
 9862 1427 9F       		.byte	0x9f
 9863 1428 00000000 		.4byte	0
 9864 142c 00000000 		.4byte	0
 9865              	.LLST107:
 9866 1430 900E0000 		.4byte	.LVL257-.Ltext0
 9867 1434 3C0F0000 		.4byte	.LVL262-.Ltext0
 9868 1438 0100     		.2byte	0x1
 9869 143a 50       		.byte	0x50
 9870 143b 3C0F0000 		.4byte	.LVL262-.Ltext0
 9871 143f 400F0000 		.4byte	.LVL263-.Ltext0
 9872 1443 0400     		.2byte	0x4
 9873 1445 7E       		.byte	0x7e
 9874 1446 8078     		.sleb128 -1024
 9875 1448 9F       		.byte	0x9f
 9876 1449 400F0000 		.4byte	.LVL263-.Ltext0
ARM GAS  /tmp/cclsZlw8.s 			page 175


 9877 144d AC0F0000 		.4byte	.LFE162-.Ltext0
 9878 1451 0100     		.2byte	0x1
 9879 1453 50       		.byte	0x50
 9880 1454 00000000 		.4byte	0
 9881 1458 00000000 		.4byte	0
 9882              	.LLST108:
 9883 145c 900E0000 		.4byte	.LVL257-.Ltext0
 9884 1460 EA0E0000 		.4byte	.LVL261-.Ltext0
 9885 1464 0100     		.2byte	0x1
 9886 1466 51       		.byte	0x51
 9887 1467 EA0E0000 		.4byte	.LVL261-.Ltext0
 9888 146b 400F0000 		.4byte	.LVL263-.Ltext0
 9889 146f 0400     		.2byte	0x4
 9890 1471 F3       		.byte	0xf3
 9891 1472 01       		.uleb128 0x1
 9892 1473 51       		.byte	0x51
 9893 1474 9F       		.byte	0x9f
 9894 1475 400F0000 		.4byte	.LVL263-.Ltext0
 9895 1479 AC0F0000 		.4byte	.LFE162-.Ltext0
 9896 147d 0100     		.2byte	0x1
 9897 147f 51       		.byte	0x51
 9898 1480 00000000 		.4byte	0
 9899 1484 00000000 		.4byte	0
 9900              	.LLST109:
 9901 1488 900E0000 		.4byte	.LVL257-.Ltext0
 9902 148c DE0E0000 		.4byte	.LVL260-.Ltext0
 9903 1490 0100     		.2byte	0x1
 9904 1492 52       		.byte	0x52
 9905 1493 DE0E0000 		.4byte	.LVL260-.Ltext0
 9906 1497 400F0000 		.4byte	.LVL263-.Ltext0
 9907 149b 0400     		.2byte	0x4
 9908 149d F3       		.byte	0xf3
 9909 149e 01       		.uleb128 0x1
 9910 149f 52       		.byte	0x52
 9911 14a0 9F       		.byte	0x9f
 9912 14a1 400F0000 		.4byte	.LVL263-.Ltext0
 9913 14a5 AC0F0000 		.4byte	.LFE162-.Ltext0
 9914 14a9 0100     		.2byte	0x1
 9915 14ab 52       		.byte	0x52
 9916 14ac 00000000 		.4byte	0
 9917 14b0 00000000 		.4byte	0
 9918              	.LLST110:
 9919 14b4 900E0000 		.4byte	.LVL257-.Ltext0
 9920 14b8 D40E0000 		.4byte	.LVL259-.Ltext0
 9921 14bc 0100     		.2byte	0x1
 9922 14be 53       		.byte	0x53
 9923 14bf D40E0000 		.4byte	.LVL259-.Ltext0
 9924 14c3 400F0000 		.4byte	.LVL263-.Ltext0
 9925 14c7 0400     		.2byte	0x4
 9926 14c9 F3       		.byte	0xf3
 9927 14ca 01       		.uleb128 0x1
 9928 14cb 53       		.byte	0x53
 9929 14cc 9F       		.byte	0x9f
 9930 14cd 400F0000 		.4byte	.LVL263-.Ltext0
 9931 14d1 AC0F0000 		.4byte	.LFE162-.Ltext0
 9932 14d5 0100     		.2byte	0x1
 9933 14d7 53       		.byte	0x53
ARM GAS  /tmp/cclsZlw8.s 			page 176


 9934 14d8 00000000 		.4byte	0
 9935 14dc 00000000 		.4byte	0
 9936              	.LLST111:
 9937 14e0 900E0000 		.4byte	.LVL257-.Ltext0
 9938 14e4 CE0E0000 		.4byte	.LVL258-.Ltext0
 9939 14e8 0200     		.2byte	0x2
 9940 14ea 91       		.byte	0x91
 9941 14eb 00       		.sleb128 0
 9942 14ec 400F0000 		.4byte	.LVL263-.Ltext0
 9943 14f0 500F0000 		.4byte	.LVL264-.Ltext0
 9944 14f4 0200     		.2byte	0x2
 9945 14f6 91       		.byte	0x91
 9946 14f7 00       		.sleb128 0
 9947 14f8 660F0000 		.4byte	.LVL265-.Ltext0
 9948 14fc 760F0000 		.4byte	.LVL266-.Ltext0
 9949 1500 0200     		.2byte	0x2
 9950 1502 91       		.byte	0x91
 9951 1503 00       		.sleb128 0
 9952 1504 860F0000 		.4byte	.LVL267-.Ltext0
 9953 1508 A40F0000 		.4byte	.LVL268-.Ltext0
 9954 150c 0200     		.2byte	0x2
 9955 150e 91       		.byte	0x91
 9956 150f 00       		.sleb128 0
 9957 1510 A60F0000 		.4byte	.LVL269-.Ltext0
 9958 1514 AC0F0000 		.4byte	.LFE162-.Ltext0
 9959 1518 0200     		.2byte	0x2
 9960 151a 91       		.byte	0x91
 9961 151b 00       		.sleb128 0
 9962 151c 00000000 		.4byte	0
 9963 1520 00000000 		.4byte	0
 9964              	.LLST112:
 9965 1524 900E0000 		.4byte	.LVL257-.Ltext0
 9966 1528 CE0E0000 		.4byte	.LVL258-.Ltext0
 9967 152c 0200     		.2byte	0x2
 9968 152e 91       		.byte	0x91
 9969 152f 04       		.sleb128 4
 9970 1530 400F0000 		.4byte	.LVL263-.Ltext0
 9971 1534 500F0000 		.4byte	.LVL264-.Ltext0
 9972 1538 0200     		.2byte	0x2
 9973 153a 91       		.byte	0x91
 9974 153b 04       		.sleb128 4
 9975 153c 660F0000 		.4byte	.LVL265-.Ltext0
 9976 1540 760F0000 		.4byte	.LVL266-.Ltext0
 9977 1544 0200     		.2byte	0x2
 9978 1546 91       		.byte	0x91
 9979 1547 04       		.sleb128 4
 9980 1548 860F0000 		.4byte	.LVL267-.Ltext0
 9981 154c A40F0000 		.4byte	.LVL268-.Ltext0
 9982 1550 0200     		.2byte	0x2
 9983 1552 91       		.byte	0x91
 9984 1553 04       		.sleb128 4
 9985 1554 A60F0000 		.4byte	.LVL269-.Ltext0
 9986 1558 AC0F0000 		.4byte	.LFE162-.Ltext0
 9987 155c 0200     		.2byte	0x2
 9988 155e 91       		.byte	0x91
 9989 155f 04       		.sleb128 4
 9990 1560 00000000 		.4byte	0
ARM GAS  /tmp/cclsZlw8.s 			page 177


 9991 1564 00000000 		.4byte	0
 9992              	.LLST113:
 9993 1568 900E0000 		.4byte	.LVL257-.Ltext0
 9994 156c 400F0000 		.4byte	.LVL263-.Ltext0
 9995 1570 0200     		.2byte	0x2
 9996 1572 91       		.byte	0x91
 9997 1573 08       		.sleb128 8
 9998 1574 400F0000 		.4byte	.LVL263-.Ltext0
 9999 1578 AC0F0000 		.4byte	.LFE162-.Ltext0
 10000 157c 0200     		.2byte	0x2
 10001 157e 91       		.byte	0x91
 10002 157f 08       		.sleb128 8
 10003 1580 00000000 		.4byte	0
 10004 1584 00000000 		.4byte	0
 10005              	.LLST114:
 10006 1588 B00F0000 		.4byte	.LVL270-.Ltext0
 10007 158c C5100000 		.4byte	.LVL282-1-.Ltext0
 10008 1590 0100     		.2byte	0x1
 10009 1592 50       		.byte	0x50
 10010 1593 C5100000 		.4byte	.LVL282-1-.Ltext0
 10011 1597 CA100000 		.4byte	.LVL283-.Ltext0
 10012 159b 0400     		.2byte	0x4
 10013 159d F3       		.byte	0xf3
 10014 159e 01       		.uleb128 0x1
 10015 159f 50       		.byte	0x50
 10016 15a0 9F       		.byte	0x9f
 10017 15a1 CA100000 		.4byte	.LVL283-.Ltext0
 10018 15a5 40110000 		.4byte	.LFE163-.Ltext0
 10019 15a9 0100     		.2byte	0x1
 10020 15ab 50       		.byte	0x50
 10021 15ac 00000000 		.4byte	0
 10022 15b0 00000000 		.4byte	0
 10023              	.LLST115:
 10024 15b4 B00F0000 		.4byte	.LVL270-.Ltext0
 10025 15b8 C0100000 		.4byte	.LVL280-.Ltext0
 10026 15bc 0100     		.2byte	0x1
 10027 15be 51       		.byte	0x51
 10028 15bf C0100000 		.4byte	.LVL280-.Ltext0
 10029 15c3 C2100000 		.4byte	.LVL281-.Ltext0
 10030 15c7 0100     		.2byte	0x1
 10031 15c9 52       		.byte	0x52
 10032 15ca C2100000 		.4byte	.LVL281-.Ltext0
 10033 15ce CA100000 		.4byte	.LVL283-.Ltext0
 10034 15d2 0400     		.2byte	0x4
 10035 15d4 F3       		.byte	0xf3
 10036 15d5 01       		.uleb128 0x1
 10037 15d6 51       		.byte	0x51
 10038 15d7 9F       		.byte	0x9f
 10039 15d8 CA100000 		.4byte	.LVL283-.Ltext0
 10040 15dc 18110000 		.4byte	.LVL288-.Ltext0
 10041 15e0 0100     		.2byte	0x1
 10042 15e2 51       		.byte	0x51
 10043 15e3 18110000 		.4byte	.LVL288-.Ltext0
 10044 15e7 40110000 		.4byte	.LFE163-.Ltext0
 10045 15eb 0400     		.2byte	0x4
 10046 15ed F3       		.byte	0xf3
 10047 15ee 01       		.uleb128 0x1
ARM GAS  /tmp/cclsZlw8.s 			page 178


 10048 15ef 51       		.byte	0x51
 10049 15f0 9F       		.byte	0x9f
 10050 15f1 00000000 		.4byte	0
 10051 15f5 00000000 		.4byte	0
 10052              	.LLST116:
 10053 15f9 B00F0000 		.4byte	.LVL270-.Ltext0
 10054 15fd 66100000 		.4byte	.LVL274-.Ltext0
 10055 1601 0100     		.2byte	0x1
 10056 1603 52       		.byte	0x52
 10057 1604 66100000 		.4byte	.LVL274-.Ltext0
 10058 1608 7A100000 		.4byte	.LVL275-.Ltext0
 10059 160c 0400     		.2byte	0x4
 10060 160e F3       		.byte	0xf3
 10061 160f 01       		.uleb128 0x1
 10062 1610 52       		.byte	0x52
 10063 1611 9F       		.byte	0x9f
 10064 1612 7A100000 		.4byte	.LVL275-.Ltext0
 10065 1616 A2100000 		.4byte	.LVL278-.Ltext0
 10066 161a 0100     		.2byte	0x1
 10067 161c 52       		.byte	0x52
 10068 161d A2100000 		.4byte	.LVL278-.Ltext0
 10069 1621 CA100000 		.4byte	.LVL283-.Ltext0
 10070 1625 0400     		.2byte	0x4
 10071 1627 F3       		.byte	0xf3
 10072 1628 01       		.uleb128 0x1
 10073 1629 52       		.byte	0x52
 10074 162a 9F       		.byte	0x9f
 10075 162b CA100000 		.4byte	.LVL283-.Ltext0
 10076 162f FC100000 		.4byte	.LVL285-.Ltext0
 10077 1633 0100     		.2byte	0x1
 10078 1635 52       		.byte	0x52
 10079 1636 FC100000 		.4byte	.LVL285-.Ltext0
 10080 163a 14110000 		.4byte	.LVL286-.Ltext0
 10081 163e 0400     		.2byte	0x4
 10082 1640 F3       		.byte	0xf3
 10083 1641 01       		.uleb128 0x1
 10084 1642 52       		.byte	0x52
 10085 1643 9F       		.byte	0x9f
 10086 1644 14110000 		.4byte	.LVL286-.Ltext0
 10087 1648 16110000 		.4byte	.LVL287-.Ltext0
 10088 164c 0100     		.2byte	0x1
 10089 164e 52       		.byte	0x52
 10090 164f 16110000 		.4byte	.LVL287-.Ltext0
 10091 1653 40110000 		.4byte	.LFE163-.Ltext0
 10092 1657 0400     		.2byte	0x4
 10093 1659 F3       		.byte	0xf3
 10094 165a 01       		.uleb128 0x1
 10095 165b 52       		.byte	0x52
 10096 165c 9F       		.byte	0x9f
 10097 165d 00000000 		.4byte	0
 10098 1661 00000000 		.4byte	0
 10099              	.LLST117:
 10100 1665 B00F0000 		.4byte	.LVL270-.Ltext0
 10101 1669 12100000 		.4byte	.LVL272-.Ltext0
 10102 166d 0200     		.2byte	0x2
 10103 166f 30       		.byte	0x30
 10104 1670 9F       		.byte	0x9f
ARM GAS  /tmp/cclsZlw8.s 			page 179


 10105 1671 12100000 		.4byte	.LVL272-.Ltext0
 10106 1675 36100000 		.4byte	.LVL273-.Ltext0
 10107 1679 0600     		.2byte	0x6
 10108 167b 75       		.byte	0x75
 10109 167c 00       		.sleb128 0
 10110 167d 20       		.byte	0x20
 10111 167e 31       		.byte	0x31
 10112 167f 1A       		.byte	0x1a
 10113 1680 9F       		.byte	0x9f
 10114 1681 7A100000 		.4byte	.LVL275-.Ltext0
 10115 1685 A2100000 		.4byte	.LVL278-.Ltext0
 10116 1689 0200     		.2byte	0x2
 10117 168b 30       		.byte	0x30
 10118 168c 9F       		.byte	0x9f
 10119 168d CA100000 		.4byte	.LVL283-.Ltext0
 10120 1691 FC100000 		.4byte	.LVL285-.Ltext0
 10121 1695 0200     		.2byte	0x2
 10122 1697 30       		.byte	0x30
 10123 1698 9F       		.byte	0x9f
 10124 1699 14110000 		.4byte	.LVL286-.Ltext0
 10125 169d 40110000 		.4byte	.LFE163-.Ltext0
 10126 16a1 0200     		.2byte	0x2
 10127 16a3 30       		.byte	0x30
 10128 16a4 9F       		.byte	0x9f
 10129 16a5 00000000 		.4byte	0
 10130 16a9 00000000 		.4byte	0
 10131              	.LLST118:
 10132 16ad B00F0000 		.4byte	.LVL270-.Ltext0
 10133 16b1 A2100000 		.4byte	.LVL278-.Ltext0
 10134 16b5 0200     		.2byte	0x2
 10135 16b7 30       		.byte	0x30
 10136 16b8 9F       		.byte	0x9f
 10137 16b9 A2100000 		.4byte	.LVL278-.Ltext0
 10138 16bd BA100000 		.4byte	.LVL279-.Ltext0
 10139 16c1 0500     		.2byte	0x5
 10140 16c3 73       		.byte	0x73
 10141 16c4 03       		.sleb128 3
 10142 16c5 32       		.byte	0x32
 10143 16c6 25       		.byte	0x25
 10144 16c7 9F       		.byte	0x9f
 10145 16c8 CA100000 		.4byte	.LVL283-.Ltext0
 10146 16cc FC100000 		.4byte	.LVL285-.Ltext0
 10147 16d0 0200     		.2byte	0x2
 10148 16d2 30       		.byte	0x30
 10149 16d3 9F       		.byte	0x9f
 10150 16d4 FC100000 		.4byte	.LVL285-.Ltext0
 10151 16d8 14110000 		.4byte	.LVL286-.Ltext0
 10152 16dc 0500     		.2byte	0x5
 10153 16de 73       		.byte	0x73
 10154 16df 03       		.sleb128 3
 10155 16e0 32       		.byte	0x32
 10156 16e1 25       		.byte	0x25
 10157 16e2 9F       		.byte	0x9f
 10158 16e3 14110000 		.4byte	.LVL286-.Ltext0
 10159 16e7 40110000 		.4byte	.LFE163-.Ltext0
 10160 16eb 0200     		.2byte	0x2
 10161 16ed 30       		.byte	0x30
ARM GAS  /tmp/cclsZlw8.s 			page 180


 10162 16ee 9F       		.byte	0x9f
 10163 16ef 00000000 		.4byte	0
 10164 16f3 00000000 		.4byte	0
 10165              	.LLST119:
 10166 16f7 B00F0000 		.4byte	.LVL270-.Ltext0
 10167 16fb D60F0000 		.4byte	.LVL271-.Ltext0
 10168 16ff 0200     		.2byte	0x2
 10169 1701 30       		.byte	0x30
 10170 1702 9F       		.byte	0x9f
 10171 1703 7A100000 		.4byte	.LVL275-.Ltext0
 10172 1707 84100000 		.4byte	.LVL276-.Ltext0
 10173 170b 0200     		.2byte	0x2
 10174 170d 30       		.byte	0x30
 10175 170e 9F       		.byte	0x9f
 10176 170f 84100000 		.4byte	.LVL276-.Ltext0
 10177 1713 92100000 		.4byte	.LVL277-.Ltext0
 10178 1717 0100     		.2byte	0x1
 10179 1719 53       		.byte	0x53
 10180 171a CA100000 		.4byte	.LVL283-.Ltext0
 10181 171e D8100000 		.4byte	.LVL284-.Ltext0
 10182 1722 0400     		.2byte	0x4
 10183 1724 0A       		.byte	0xa
 10184 1725 0001     		.2byte	0x100
 10185 1727 9F       		.byte	0x9f
 10186 1728 D8100000 		.4byte	.LVL284-.Ltext0
 10187 172c FC100000 		.4byte	.LVL285-.Ltext0
 10188 1730 0200     		.2byte	0x2
 10189 1732 30       		.byte	0x30
 10190 1733 9F       		.byte	0x9f
 10191 1734 14110000 		.4byte	.LVL286-.Ltext0
 10192 1738 40110000 		.4byte	.LFE163-.Ltext0
 10193 173c 0200     		.2byte	0x2
 10194 173e 30       		.byte	0x30
 10195 173f 9F       		.byte	0x9f
 10196 1740 00000000 		.4byte	0
 10197 1744 00000000 		.4byte	0
 10198              	.LLST120:
 10199 1748 BA100000 		.4byte	.LVL279-.Ltext0
 10200 174c C6100000 		.4byte	.LVL282-.Ltext0
 10201 1750 0200     		.2byte	0x2
 10202 1752 30       		.byte	0x30
 10203 1753 9F       		.byte	0x9f
 10204 1754 00000000 		.4byte	0
 10205 1758 00000000 		.4byte	0
 10206              	.LLST121:
 10207 175c BA100000 		.4byte	.LVL279-.Ltext0
 10208 1760 C5100000 		.4byte	.LVL282-1-.Ltext0
 10209 1764 0100     		.2byte	0x1
 10210 1766 53       		.byte	0x53
 10211 1767 00000000 		.4byte	0
 10212 176b 00000000 		.4byte	0
 10213              	.LLST122:
 10214 176f BA100000 		.4byte	.LVL279-.Ltext0
 10215 1773 C0100000 		.4byte	.LVL280-.Ltext0
 10216 1777 0200     		.2byte	0x2
 10217 1779 71       		.byte	0x71
 10218 177a 01       		.sleb128 1
ARM GAS  /tmp/cclsZlw8.s 			page 181


 10219 177b C0100000 		.4byte	.LVL280-.Ltext0
 10220 177f C2100000 		.4byte	.LVL281-.Ltext0
 10221 1783 0200     		.2byte	0x2
 10222 1785 72       		.byte	0x72
 10223 1786 01       		.sleb128 1
 10224 1787 C2100000 		.4byte	.LVL281-.Ltext0
 10225 178b C5100000 		.4byte	.LVL282-1-.Ltext0
 10226 178f 0100     		.2byte	0x1
 10227 1791 52       		.byte	0x52
 10228 1792 00000000 		.4byte	0
 10229 1796 00000000 		.4byte	0
 10230              	.LLST123:
 10231 179a BA100000 		.4byte	.LVL279-.Ltext0
 10232 179e C0100000 		.4byte	.LVL280-.Ltext0
 10233 17a2 0200     		.2byte	0x2
 10234 17a4 71       		.byte	0x71
 10235 17a5 0C       		.sleb128 12
 10236 17a6 C0100000 		.4byte	.LVL280-.Ltext0
 10237 17aa C5100000 		.4byte	.LVL282-1-.Ltext0
 10238 17ae 0100     		.2byte	0x1
 10239 17b0 51       		.byte	0x51
 10240 17b1 00000000 		.4byte	0
 10241 17b5 00000000 		.4byte	0
 10242              	.LLST124:
 10243 17b9 BA100000 		.4byte	.LVL279-.Ltext0
 10244 17bd C5100000 		.4byte	.LVL282-1-.Ltext0
 10245 17c1 0100     		.2byte	0x1
 10246 17c3 50       		.byte	0x50
 10247 17c4 C5100000 		.4byte	.LVL282-1-.Ltext0
 10248 17c8 C6100000 		.4byte	.LVL282-.Ltext0
 10249 17cc 0400     		.2byte	0x4
 10250 17ce F3       		.byte	0xf3
 10251 17cf 01       		.uleb128 0x1
 10252 17d0 50       		.byte	0x50
 10253 17d1 9F       		.byte	0x9f
 10254 17d2 00000000 		.4byte	0
 10255 17d6 00000000 		.4byte	0
 10256              	.LLST127:
 10257 17da 16110000 		.4byte	.LVL287-.Ltext0
 10258 17de 22110000 		.4byte	.LVL289-.Ltext0
 10259 17e2 0100     		.2byte	0x1
 10260 17e4 52       		.byte	0x52
 10261 17e5 22110000 		.4byte	.LVL289-.Ltext0
 10262 17e9 24110000 		.4byte	.LVL290-.Ltext0
 10263 17ed 0500     		.2byte	0x5
 10264 17ef F3       		.byte	0xf3
 10265 17f0 01       		.uleb128 0x1
 10266 17f1 51       		.byte	0x51
 10267 17f2 23       		.byte	0x23
 10268 17f3 01       		.uleb128 0x1
 10269 17f4 00000000 		.4byte	0
 10270 17f8 00000000 		.4byte	0
 10271              	.LLST128:
 10272 17fc 40110000 		.4byte	.LVL291-.Ltext0
 10273 1800 44110000 		.4byte	.LVL292-.Ltext0
 10274 1804 0100     		.2byte	0x1
 10275 1806 50       		.byte	0x50
ARM GAS  /tmp/cclsZlw8.s 			page 182


 10276 1807 44110000 		.4byte	.LVL292-.Ltext0
 10277 180b 46110000 		.4byte	.LVL293-.Ltext0
 10278 180f 0400     		.2byte	0x4
 10279 1811 70       		.byte	0x70
 10280 1812 8078     		.sleb128 -1024
 10281 1814 9F       		.byte	0x9f
 10282 1815 46110000 		.4byte	.LVL293-.Ltext0
 10283 1819 4A110000 		.4byte	.LFE164-.Ltext0
 10284 181d 0400     		.2byte	0x4
 10285 181f F3       		.byte	0xf3
 10286 1820 01       		.uleb128 0x1
 10287 1821 50       		.byte	0x50
 10288 1822 9F       		.byte	0x9f
 10289 1823 00000000 		.4byte	0
 10290 1827 00000000 		.4byte	0
 10291              	.LLST129:
 10292 182b 50110000 		.4byte	.LVL294-.Ltext0
 10293 182f 9C110000 		.4byte	.LVL301-.Ltext0
 10294 1833 0100     		.2byte	0x1
 10295 1835 50       		.byte	0x50
 10296 1836 9C110000 		.4byte	.LVL301-.Ltext0
 10297 183a 9E110000 		.4byte	.LVL302-.Ltext0
 10298 183e 0400     		.2byte	0x4
 10299 1840 F3       		.byte	0xf3
 10300 1841 01       		.uleb128 0x1
 10301 1842 50       		.byte	0x50
 10302 1843 9F       		.byte	0x9f
 10303 1844 9E110000 		.4byte	.LVL302-.Ltext0
 10304 1848 D0110000 		.4byte	.LVL307-.Ltext0
 10305 184c 0100     		.2byte	0x1
 10306 184e 50       		.byte	0x50
 10307 184f D0110000 		.4byte	.LVL307-.Ltext0
 10308 1853 D2110000 		.4byte	.LVL308-.Ltext0
 10309 1857 0400     		.2byte	0x4
 10310 1859 F3       		.byte	0xf3
 10311 185a 01       		.uleb128 0x1
 10312 185b 50       		.byte	0x50
 10313 185c 9F       		.byte	0x9f
 10314 185d D2110000 		.4byte	.LVL308-.Ltext0
 10315 1861 DC110000 		.4byte	.LVL309-.Ltext0
 10316 1865 0100     		.2byte	0x1
 10317 1867 50       		.byte	0x50
 10318 1868 DC110000 		.4byte	.LVL309-.Ltext0
 10319 186c DE110000 		.4byte	.LFE165-.Ltext0
 10320 1870 0400     		.2byte	0x4
 10321 1872 F3       		.byte	0xf3
 10322 1873 01       		.uleb128 0x1
 10323 1874 50       		.byte	0x50
 10324 1875 9F       		.byte	0x9f
 10325 1876 00000000 		.4byte	0
 10326 187a 00000000 		.4byte	0
 10327              	.LLST130:
 10328 187e 50110000 		.4byte	.LVL294-.Ltext0
 10329 1882 58110000 		.4byte	.LVL295-.Ltext0
 10330 1886 0100     		.2byte	0x1
 10331 1888 51       		.byte	0x51
 10332 1889 58110000 		.4byte	.LVL295-.Ltext0
ARM GAS  /tmp/cclsZlw8.s 			page 183


 10333 188d DE110000 		.4byte	.LFE165-.Ltext0
 10334 1891 0400     		.2byte	0x4
 10335 1893 F3       		.byte	0xf3
 10336 1894 01       		.uleb128 0x1
 10337 1895 51       		.byte	0x51
 10338 1896 9F       		.byte	0x9f
 10339 1897 00000000 		.4byte	0
 10340 189b 00000000 		.4byte	0
 10341              	.LLST131:
 10342 189f 50110000 		.4byte	.LVL294-.Ltext0
 10343 18a3 8A110000 		.4byte	.LVL296-.Ltext0
 10344 18a7 0200     		.2byte	0x2
 10345 18a9 30       		.byte	0x30
 10346 18aa 9F       		.byte	0x9f
 10347 18ab 8A110000 		.4byte	.LVL296-.Ltext0
 10348 18af 90110000 		.4byte	.LVL297-.Ltext0
 10349 18b3 0200     		.2byte	0x2
 10350 18b5 31       		.byte	0x31
 10351 18b6 9F       		.byte	0x9f
 10352 18b7 90110000 		.4byte	.LVL297-.Ltext0
 10353 18bb 92110000 		.4byte	.LVL298-.Ltext0
 10354 18bf 0700     		.2byte	0x7
 10355 18c1 0A       		.byte	0xa
 10356 18c2 E903     		.2byte	0x3e9
 10357 18c4 73       		.byte	0x73
 10358 18c5 00       		.sleb128 0
 10359 18c6 1C       		.byte	0x1c
 10360 18c7 9F       		.byte	0x9f
 10361 18c8 92110000 		.4byte	.LVL298-.Ltext0
 10362 18cc 94110000 		.4byte	.LVL299-.Ltext0
 10363 18d0 0700     		.2byte	0x7
 10364 18d2 0A       		.byte	0xa
 10365 18d3 E803     		.2byte	0x3e8
 10366 18d5 73       		.byte	0x73
 10367 18d6 00       		.sleb128 0
 10368 18d7 1C       		.byte	0x1c
 10369 18d8 9F       		.byte	0x9f
 10370 18d9 94110000 		.4byte	.LVL299-.Ltext0
 10371 18dd 9A110000 		.4byte	.LVL300-.Ltext0
 10372 18e1 0700     		.2byte	0x7
 10373 18e3 0A       		.byte	0xa
 10374 18e4 E903     		.2byte	0x3e9
 10375 18e6 73       		.byte	0x73
 10376 18e7 00       		.sleb128 0
 10377 18e8 1C       		.byte	0x1c
 10378 18e9 9F       		.byte	0x9f
 10379 18ea 9E110000 		.4byte	.LVL302-.Ltext0
 10380 18ee BE110000 		.4byte	.LVL303-.Ltext0
 10381 18f2 0200     		.2byte	0x2
 10382 18f4 30       		.byte	0x30
 10383 18f5 9F       		.byte	0x9f
 10384 18f6 BE110000 		.4byte	.LVL303-.Ltext0
 10385 18fa C4110000 		.4byte	.LVL304-.Ltext0
 10386 18fe 0200     		.2byte	0x2
 10387 1900 31       		.byte	0x31
 10388 1901 9F       		.byte	0x9f
 10389 1902 C4110000 		.4byte	.LVL304-.Ltext0
ARM GAS  /tmp/cclsZlw8.s 			page 184


 10390 1906 C6110000 		.4byte	.LVL305-.Ltext0
 10391 190a 0700     		.2byte	0x7
 10392 190c 0A       		.byte	0xa
 10393 190d E903     		.2byte	0x3e9
 10394 190f 73       		.byte	0x73
 10395 1910 00       		.sleb128 0
 10396 1911 1C       		.byte	0x1c
 10397 1912 9F       		.byte	0x9f
 10398 1913 C6110000 		.4byte	.LVL305-.Ltext0
 10399 1917 C8110000 		.4byte	.LVL306-.Ltext0
 10400 191b 0700     		.2byte	0x7
 10401 191d 0A       		.byte	0xa
 10402 191e E803     		.2byte	0x3e8
 10403 1920 73       		.byte	0x73
 10404 1921 00       		.sleb128 0
 10405 1922 1C       		.byte	0x1c
 10406 1923 9F       		.byte	0x9f
 10407 1924 C8110000 		.4byte	.LVL306-.Ltext0
 10408 1928 D2110000 		.4byte	.LVL308-.Ltext0
 10409 192c 0700     		.2byte	0x7
 10410 192e 0A       		.byte	0xa
 10411 192f E903     		.2byte	0x3e9
 10412 1931 73       		.byte	0x73
 10413 1932 00       		.sleb128 0
 10414 1933 1C       		.byte	0x1c
 10415 1934 9F       		.byte	0x9f
 10416 1935 D2110000 		.4byte	.LVL308-.Ltext0
 10417 1939 DE110000 		.4byte	.LFE165-.Ltext0
 10418 193d 0200     		.2byte	0x2
 10419 193f 30       		.byte	0x30
 10420 1940 9F       		.byte	0x9f
 10421 1941 00000000 		.4byte	0
 10422 1945 00000000 		.4byte	0
 10423              	.LLST132:
 10424 1949 E0110000 		.4byte	.LVL310-.Ltext0
 10425 194d E4110000 		.4byte	.LVL311-.Ltext0
 10426 1951 0100     		.2byte	0x1
 10427 1953 50       		.byte	0x50
 10428 1954 E4110000 		.4byte	.LVL311-.Ltext0
 10429 1958 FE110000 		.4byte	.LVL313-.Ltext0
 10430 195c 0400     		.2byte	0x4
 10431 195e 70       		.byte	0x70
 10432 195f 8076     		.sleb128 -1280
 10433 1961 9F       		.byte	0x9f
 10434 1962 FE110000 		.4byte	.LVL313-.Ltext0
 10435 1966 04120000 		.4byte	.LFE166-.Ltext0
 10436 196a 0400     		.2byte	0x4
 10437 196c F3       		.byte	0xf3
 10438 196d 01       		.uleb128 0x1
 10439 196e 50       		.byte	0x50
 10440 196f 9F       		.byte	0x9f
 10441 1970 00000000 		.4byte	0
 10442 1974 00000000 		.4byte	0
 10443              	.LLST133:
 10444 1978 E0110000 		.4byte	.LVL310-.Ltext0
 10445 197c E8110000 		.4byte	.LVL312-.Ltext0
 10446 1980 0100     		.2byte	0x1
ARM GAS  /tmp/cclsZlw8.s 			page 185


 10447 1982 51       		.byte	0x51
 10448 1983 E8110000 		.4byte	.LVL312-.Ltext0
 10449 1987 04120000 		.4byte	.LFE166-.Ltext0
 10450 198b 0400     		.2byte	0x4
 10451 198d F3       		.byte	0xf3
 10452 198e 01       		.uleb128 0x1
 10453 198f 51       		.byte	0x51
 10454 1990 9F       		.byte	0x9f
 10455 1991 00000000 		.4byte	0
 10456 1995 00000000 		.4byte	0
 10457              	.LLST134:
 10458 1999 10120000 		.4byte	.LVL314-.Ltext0
 10459 199d 98120000 		.4byte	.LVL340-.Ltext0
 10460 19a1 0100     		.2byte	0x1
 10461 19a3 50       		.byte	0x50
 10462 19a4 98120000 		.4byte	.LVL340-.Ltext0
 10463 19a8 A0120000 		.4byte	.LFE167-.Ltext0
 10464 19ac 0400     		.2byte	0x4
 10465 19ae F3       		.byte	0xf3
 10466 19af 01       		.uleb128 0x1
 10467 19b0 50       		.byte	0x50
 10468 19b1 9F       		.byte	0x9f
 10469 19b2 00000000 		.4byte	0
 10470 19b6 00000000 		.4byte	0
 10471              	.LLST135:
 10472 19ba 10120000 		.4byte	.LVL314-.Ltext0
 10473 19be 5E120000 		.4byte	.LVL330-.Ltext0
 10474 19c2 0200     		.2byte	0x2
 10475 19c4 30       		.byte	0x30
 10476 19c5 9F       		.byte	0x9f
 10477 19c6 5E120000 		.4byte	.LVL330-.Ltext0
 10478 19ca 84120000 		.4byte	.LVL337-.Ltext0
 10479 19ce 0100     		.2byte	0x1
 10480 19d0 53       		.byte	0x53
 10481 19d1 00000000 		.4byte	0
 10482 19d5 00000000 		.4byte	0
 10483              	.LLST136:
 10484 19d9 4C120000 		.4byte	.LVL326-.Ltext0
 10485 19dd 50120000 		.4byte	.LVL327-.Ltext0
 10486 19e1 0D00     		.2byte	0xd
 10487 19e3 73       		.byte	0x73
 10488 19e4 00       		.sleb128 0
 10489 19e5 0C       		.byte	0xc
 10490 19e6 FFFFFF3F 		.4byte	0x3fffffff
 10491 19ea 1A       		.byte	0x1a
 10492 19eb 40       		.byte	0x40
 10493 19ec 4A       		.byte	0x4a
 10494 19ed 24       		.byte	0x24
 10495 19ee 21       		.byte	0x21
 10496 19ef 9F       		.byte	0x9f
 10497 19f0 54120000 		.4byte	.LVL328-.Ltext0
 10498 19f4 5E120000 		.4byte	.LVL330-.Ltext0
 10499 19f8 0100     		.2byte	0x1
 10500 19fa 53       		.byte	0x53
 10501 19fb 60120000 		.4byte	.LVL331-.Ltext0
 10502 19ff 64120000 		.4byte	.LVL332-.Ltext0
 10503 1a03 0800     		.2byte	0x8
ARM GAS  /tmp/cclsZlw8.s 			page 186


 10504 1a05 72       		.byte	0x72
 10505 1a06 00       		.sleb128 0
 10506 1a07 40       		.byte	0x40
 10507 1a08 4A       		.byte	0x4a
 10508 1a09 24       		.byte	0x24
 10509 1a0a 1F       		.byte	0x1f
 10510 1a0b 21       		.byte	0x21
 10511 1a0c 9F       		.byte	0x9f
 10512 1a0d 68120000 		.4byte	.LVL333-.Ltext0
 10513 1a11 6C120000 		.4byte	.LVL334-.Ltext0
 10514 1a15 0100     		.2byte	0x1
 10515 1a17 52       		.byte	0x52
 10516 1a18 6C120000 		.4byte	.LVL334-.Ltext0
 10517 1a1c 7C120000 		.4byte	.LVL336-.Ltext0
 10518 1a20 0200     		.2byte	0x2
 10519 1a22 71       		.byte	0x71
 10520 1a23 00       		.sleb128 0
 10521 1a24 7C120000 		.4byte	.LVL336-.Ltext0
 10522 1a28 88120000 		.4byte	.LVL338-.Ltext0
 10523 1a2c 0200     		.2byte	0x2
 10524 1a2e 71       		.byte	0x71
 10525 1a2f 60       		.sleb128 -32
 10526 1a30 00000000 		.4byte	0
 10527 1a34 00000000 		.4byte	0
 10528              	.LLST138:
 10529 1a38 20120000 		.4byte	.LVL315-.Ltext0
 10530 1a3c 98120000 		.4byte	.LVL340-.Ltext0
 10531 1a40 0100     		.2byte	0x1
 10532 1a42 50       		.byte	0x50
 10533 1a43 98120000 		.4byte	.LVL340-.Ltext0
 10534 1a47 A0120000 		.4byte	.LFE167-.Ltext0
 10535 1a4b 0400     		.2byte	0x4
 10536 1a4d F3       		.byte	0xf3
 10537 1a4e 01       		.uleb128 0x1
 10538 1a4f 50       		.byte	0x50
 10539 1a50 9F       		.byte	0x9f
 10540 1a51 00000000 		.4byte	0
 10541 1a55 00000000 		.4byte	0
 10542              	.LLST139:
 10543 1a59 20120000 		.4byte	.LVL315-.Ltext0
 10544 1a5d 22120000 		.4byte	.LVL316-.Ltext0
 10545 1a61 0200     		.2byte	0x2
 10546 1a63 30       		.byte	0x30
 10547 1a64 9F       		.byte	0x9f
 10548 1a65 22120000 		.4byte	.LVL316-.Ltext0
 10549 1a69 24120000 		.4byte	.LVL317-.Ltext0
 10550 1a6d 0200     		.2byte	0x2
 10551 1a6f 31       		.byte	0x31
 10552 1a70 9F       		.byte	0x9f
 10553 1a71 24120000 		.4byte	.LVL317-.Ltext0
 10554 1a75 26120000 		.4byte	.LVL318-.Ltext0
 10555 1a79 0900     		.2byte	0x9
 10556 1a7b 0C       		.byte	0xc
 10557 1a7c 410D0300 		.4byte	0x30d41
 10558 1a80 73       		.byte	0x73
 10559 1a81 00       		.sleb128 0
 10560 1a82 1C       		.byte	0x1c
ARM GAS  /tmp/cclsZlw8.s 			page 187


 10561 1a83 9F       		.byte	0x9f
 10562 1a84 26120000 		.4byte	.LVL318-.Ltext0
 10563 1a88 28120000 		.4byte	.LVL319-.Ltext0
 10564 1a8c 0900     		.2byte	0x9
 10565 1a8e 0C       		.byte	0xc
 10566 1a8f 400D0300 		.4byte	0x30d40
 10567 1a93 73       		.byte	0x73
 10568 1a94 00       		.sleb128 0
 10569 1a95 1C       		.byte	0x1c
 10570 1a96 9F       		.byte	0x9f
 10571 1a97 28120000 		.4byte	.LVL319-.Ltext0
 10572 1a9b 2E120000 		.4byte	.LVL320-.Ltext0
 10573 1a9f 0900     		.2byte	0x9
 10574 1aa1 0C       		.byte	0xc
 10575 1aa2 410D0300 		.4byte	0x30d41
 10576 1aa6 73       		.byte	0x73
 10577 1aa7 00       		.sleb128 0
 10578 1aa8 1C       		.byte	0x1c
 10579 1aa9 9F       		.byte	0x9f
 10580 1aaa 00000000 		.4byte	0
 10581 1aae 00000000 		.4byte	0
 10582              	.LLST140:
 10583 1ab2 2E120000 		.4byte	.LVL320-.Ltext0
 10584 1ab6 98120000 		.4byte	.LVL340-.Ltext0
 10585 1aba 0100     		.2byte	0x1
 10586 1abc 50       		.byte	0x50
 10587 1abd 98120000 		.4byte	.LVL340-.Ltext0
 10588 1ac1 A0120000 		.4byte	.LFE167-.Ltext0
 10589 1ac5 0400     		.2byte	0x4
 10590 1ac7 F3       		.byte	0xf3
 10591 1ac8 01       		.uleb128 0x1
 10592 1ac9 50       		.byte	0x50
 10593 1aca 9F       		.byte	0x9f
 10594 1acb 00000000 		.4byte	0
 10595 1acf 00000000 		.4byte	0
 10596              	.LLST141:
 10597 1ad3 2E120000 		.4byte	.LVL320-.Ltext0
 10598 1ad7 32120000 		.4byte	.LVL321-.Ltext0
 10599 1adb 0200     		.2byte	0x2
 10600 1add 30       		.byte	0x30
 10601 1ade 9F       		.byte	0x9f
 10602 1adf 32120000 		.4byte	.LVL321-.Ltext0
 10603 1ae3 36120000 		.4byte	.LVL322-.Ltext0
 10604 1ae7 0200     		.2byte	0x2
 10605 1ae9 31       		.byte	0x31
 10606 1aea 9F       		.byte	0x9f
 10607 1aeb 36120000 		.4byte	.LVL322-.Ltext0
 10608 1aef 38120000 		.4byte	.LVL323-.Ltext0
 10609 1af3 0900     		.2byte	0x9
 10610 1af5 0C       		.byte	0xc
 10611 1af6 410D0300 		.4byte	0x30d41
 10612 1afa 73       		.byte	0x73
 10613 1afb 00       		.sleb128 0
 10614 1afc 1C       		.byte	0x1c
 10615 1afd 9F       		.byte	0x9f
 10616 1afe 38120000 		.4byte	.LVL323-.Ltext0
 10617 1b02 3A120000 		.4byte	.LVL324-.Ltext0
ARM GAS  /tmp/cclsZlw8.s 			page 188


 10618 1b06 0900     		.2byte	0x9
 10619 1b08 0C       		.byte	0xc
 10620 1b09 400D0300 		.4byte	0x30d40
 10621 1b0d 73       		.byte	0x73
 10622 1b0e 00       		.sleb128 0
 10623 1b0f 1C       		.byte	0x1c
 10624 1b10 9F       		.byte	0x9f
 10625 1b11 3A120000 		.4byte	.LVL324-.Ltext0
 10626 1b15 40120000 		.4byte	.LVL325-.Ltext0
 10627 1b19 0900     		.2byte	0x9
 10628 1b1b 0C       		.byte	0xc
 10629 1b1c 410D0300 		.4byte	0x30d41
 10630 1b20 73       		.byte	0x73
 10631 1b21 00       		.sleb128 0
 10632 1b22 1C       		.byte	0x1c
 10633 1b23 9F       		.byte	0x9f
 10634 1b24 00000000 		.4byte	0
 10635 1b28 00000000 		.4byte	0
 10636              	.LLST142:
 10637 1b2c 8A120000 		.4byte	.LVL339-.Ltext0
 10638 1b30 98120000 		.4byte	.LVL340-.Ltext0
 10639 1b34 0100     		.2byte	0x1
 10640 1b36 50       		.byte	0x50
 10641 1b37 98120000 		.4byte	.LVL340-.Ltext0
 10642 1b3b A0120000 		.4byte	.LFE167-.Ltext0
 10643 1b3f 0400     		.2byte	0x4
 10644 1b41 F3       		.byte	0xf3
 10645 1b42 01       		.uleb128 0x1
 10646 1b43 50       		.byte	0x50
 10647 1b44 9F       		.byte	0x9f
 10648 1b45 00000000 		.4byte	0
 10649 1b49 00000000 		.4byte	0
 10650              		.section	.debug_aranges,"",%progbits
 10651 0000 1C000000 		.4byte	0x1c
 10652 0004 0200     		.2byte	0x2
 10653 0006 00000000 		.4byte	.Ldebug_info0
 10654 000a 04       		.byte	0x4
 10655 000b 00       		.byte	0
 10656 000c 0000     		.2byte	0
 10657 000e 0000     		.2byte	0
 10658 0010 00000000 		.4byte	.Ltext0
 10659 0014 A0120000 		.4byte	.Letext0-.Ltext0
 10660 0018 00000000 		.4byte	0
 10661 001c 00000000 		.4byte	0
 10662              		.section	.debug_ranges,"",%progbits
 10663              	.Ldebug_ranges0:
 10664 0000 A00A0000 		.4byte	.LBB50-.Ltext0
 10665 0004 A20A0000 		.4byte	.LBE50-.Ltext0
 10666 0008 AA0A0000 		.4byte	.LBB54-.Ltext0
 10667 000c AC0A0000 		.4byte	.LBE54-.Ltext0
 10668 0010 B40A0000 		.4byte	.LBB55-.Ltext0
 10669 0014 C20A0000 		.4byte	.LBE55-.Ltext0
 10670 0018 00000000 		.4byte	0
 10671 001c 00000000 		.4byte	0
 10672 0020 10120000 		.4byte	.LBB66-.Ltext0
 10673 0024 12120000 		.4byte	.LBE66-.Ltext0
 10674 0028 18120000 		.4byte	.LBB73-.Ltext0
ARM GAS  /tmp/cclsZlw8.s 			page 189


 10675 002c 1C120000 		.4byte	.LBE73-.Ltext0
 10676 0030 1E120000 		.4byte	.LBB74-.Ltext0
 10677 0034 20120000 		.4byte	.LBE74-.Ltext0
 10678 0038 00000000 		.4byte	0
 10679 003c 00000000 		.4byte	0
 10680 0040 12120000 		.4byte	.LBB70-.Ltext0
 10681 0044 18120000 		.4byte	.LBE70-.Ltext0
 10682 0048 20120000 		.4byte	.LBB75-.Ltext0
 10683 004c 2E120000 		.4byte	.LBE75-.Ltext0
 10684 0050 00000000 		.4byte	0
 10685 0054 00000000 		.4byte	0
 10686 0058 8A120000 		.4byte	.LBB78-.Ltext0
 10687 005c 8C120000 		.4byte	.LBE78-.Ltext0
 10688 0060 90120000 		.4byte	.LBB81-.Ltext0
 10689 0064 96120000 		.4byte	.LBE81-.Ltext0
 10690 0068 00000000 		.4byte	0
 10691 006c 00000000 		.4byte	0
 10692              		.section	.debug_line,"",%progbits
 10693              	.Ldebug_line0:
 10694 0000 F0060000 		.section	.debug_str,"MS",%progbits,1
 10694      02002202 
 10694      00000201 
 10694      FB0E0D00 
 10694      01010101 
 10695              	.LASF157:
 10696 0000 636F756E 		.ascii	"count\000"
 10696      7400
 10697              	.LASF50:
 10698 0006 44454143 		.ascii	"DEACHINT\000"
 10698      48494E54 
 10698      00
 10699              	.LASF159:
 10700 000f 5553425F 		.ascii	"USB_WritePacket\000"
 10700      57726974 
 10700      65506163 
 10700      6B657400 
 10701              	.LASF170:
 10702 001f 5553425F 		.ascii	"USB_GetDevSpeed\000"
 10702      47657444 
 10702      65765370 
 10702      65656400 
 10703              	.LASF197:
 10704 002f 5553425F 		.ascii	"USB_EP0_OutStart\000"
 10704      4550305F 
 10704      4F757453 
 10704      74617274 
 10704      00
 10705              	.LASF154:
 10706 0040 55534278 		.ascii	"USBx\000"
 10706      00
 10707              	.LASF49:
 10708 0045 44494550 		.ascii	"DIEPEMPMSK\000"
 10708      454D504D 
 10708      534B00
 10709              	.LASF131:
 10710 0050 6576656E 		.ascii	"even_odd_frame\000"
 10710      5F6F6464 
ARM GAS  /tmp/cclsZlw8.s 			page 190


 10710      5F667261 
 10710      6D6500
 10711              	.LASF43:
 10712 005f 4441494E 		.ascii	"DAINTMSK\000"
 10712      544D534B 
 10712      00
 10713              	.LASF4:
 10714 0068 5F5F7569 		.ascii	"__uint8_t\000"
 10714      6E74385F 
 10714      7400
 10715              	.LASF20:
 10716 0072 47414842 		.ascii	"GAHBCFG\000"
 10716      43464700 
 10717              	.LASF161:
 10718 007a 636F756E 		.ascii	"count32b\000"
 10718      74333262 
 10718      00
 10719              	.LASF173:
 10720 0083 64656275 		.ascii	"debug\000"
 10720      6700
 10721              	.LASF212:
 10722 0089 6D61785F 		.ascii	"max_hc_pkt_count\000"
 10722      68635F70 
 10722      6B745F63 
 10722      6F756E74 
 10722      00
 10723              	.LASF129:
 10724 009a 74797065 		.ascii	"type\000"
 10724      00
 10725              	.LASF83:
 10726 009f 52657365 		.ascii	"Reserved\000"
 10726      72766564 
 10726      00
 10727              	.LASF85:
 10728 00a8 44495341 		.ascii	"DISABLE\000"
 10728      424C4500 
 10729              	.LASF12:
 10730 00b0 6C6F6E67 		.ascii	"long long unsigned int\000"
 10730      206C6F6E 
 10730      6720756E 
 10730      7369676E 
 10730      65642069 
 10731              	.LASF187:
 10732 00c7 5553425F 		.ascii	"USB_DevDisconnect\000"
 10732      44657644 
 10732      6973636F 
 10732      6E6E6563 
 10732      7400
 10733              	.LASF176:
 10734 00d9 5553425F 		.ascii	"USB_EPStartXfer\000"
 10734      45505374 
 10734      61727458 
 10734      66657200 
 10735              	.LASF149:
 10736 00e9 746F6767 		.ascii	"toggle_out\000"
 10736      6C655F6F 
 10736      757400
ARM GAS  /tmp/cclsZlw8.s 			page 191


 10737              	.LASF104:
 10738 00f4 48435F49 		.ascii	"HC_IDLE\000"
 10738      444C4500 
 10739              	.LASF26:
 10740 00fc 47525853 		.ascii	"GRXSTSP\000"
 10740      54535000 
 10741              	.LASF183:
 10742 0104 5553425F 		.ascii	"USB_StopDevice\000"
 10742      53746F70 
 10742      44657669 
 10742      636500
 10743              	.LASF190:
 10744 0113 5553425F 		.ascii	"USB_ReadDevAllInEpInterrupt\000"
 10744      52656164 
 10744      44657641 
 10744      6C6C496E 
 10744      4570496E 
 10745              	.LASF123:
 10746 012f 76627573 		.ascii	"vbus_sensing_enable\000"
 10746      5F73656E 
 10746      73696E67 
 10746      5F656E61 
 10746      626C6500 
 10747              	.LASF114:
 10748 0143 6465765F 		.ascii	"dev_endpoints\000"
 10748      656E6470 
 10748      6F696E74 
 10748      7300
 10749              	.LASF127:
 10750 0151 69735F69 		.ascii	"is_in\000"
 10750      6E00
 10751              	.LASF198:
 10752 0157 70736574 		.ascii	"psetup\000"
 10752      757000
 10753              	.LASF216:
 10754 015e 5553425F 		.ascii	"USB_StopHost\000"
 10754      53746F70 
 10754      486F7374 
 10754      00
 10755              	.LASF75:
 10756 016b 4841494E 		.ascii	"HAINTMSK\000"
 10756      544D534B 
 10756      00
 10757              	.LASF11:
 10758 0174 6C6F6E67 		.ascii	"long long int\000"
 10758      206C6F6E 
 10758      6720696E 
 10758      7400
 10759              	.LASF1:
 10760 0182 7369676E 		.ascii	"signed char\000"
 10760      65642063 
 10760      68617200 
 10761              	.LASF139:
 10762 018e 6465765F 		.ascii	"dev_addr\000"
 10762      61646472 
 10762      00
 10763              	.LASF81:
ARM GAS  /tmp/cclsZlw8.s 			page 192


 10764 0197 48435453 		.ascii	"HCTSIZ\000"
 10764      495A00
 10765              	.LASF188:
 10766 019e 5553425F 		.ascii	"USB_ReadInterrupts\000"
 10766      52656164 
 10766      496E7465 
 10766      72727570 
 10766      747300
 10767              	.LASF140:
 10768 01b1 63685F6E 		.ascii	"ch_num\000"
 10768      756D00
 10769              	.LASF57:
 10770 01b8 52657365 		.ascii	"Reserved04\000"
 10770      72766564 
 10770      303400
 10771              	.LASF80:
 10772 01c3 4843494E 		.ascii	"HCINTMSK\000"
 10772      544D534B 
 10772      00
 10773              	.LASF86:
 10774 01cc 454E4142 		.ascii	"ENABLE\000"
 10774      4C4500
 10775              	.LASF45:
 10776 01d3 52657365 		.ascii	"Reserved9\000"
 10776      72766564 
 10776      3900
 10777              	.LASF158:
 10778 01dd 5553425F 		.ascii	"USB_FlushRxFifo\000"
 10778      466C7573 
 10778      68527846 
 10778      69666F00 
 10779              	.LASF152:
 10780 01ed 73746174 		.ascii	"state\000"
 10780      6500
 10781              	.LASF8:
 10782 01f3 6C6F6E67 		.ascii	"long int\000"
 10782      20696E74 
 10782      00
 10783              	.LASF39:
 10784 01fc 52657365 		.ascii	"Reserved0C\000"
 10784      72766564 
 10784      304300
 10785              	.LASF46:
 10786 0207 44564255 		.ascii	"DVBUSDIS\000"
 10786      53444953 
 10786      00
 10787              	.LASF55:
 10788 0210 5553425F 		.ascii	"USB_OTG_DeviceTypeDef\000"
 10788      4F54475F 
 10788      44657669 
 10788      63655479 
 10788      70654465 
 10789              	.LASF119:
 10790 0226 7068795F 		.ascii	"phy_itface\000"
 10790      69746661 
 10790      636500
 10791              	.LASF23:
ARM GAS  /tmp/cclsZlw8.s 			page 193


 10792 0231 47494E54 		.ascii	"GINTSTS\000"
 10792      53545300 
 10793              	.LASF124:
 10794 0239 7573655F 		.ascii	"use_dedicated_ep1\000"
 10794      64656469 
 10794      63617465 
 10794      645F6570 
 10794      3100
 10795              	.LASF184:
 10796 024b 5553425F 		.ascii	"USB_SetDevAddress\000"
 10796      53657444 
 10796      65764164 
 10796      64726573 
 10796      7300
 10797              	.LASF36:
 10798 025d 44434647 		.ascii	"DCFG\000"
 10798      00
 10799              	.LASF71:
 10800 0262 48464E55 		.ascii	"HFNUM\000"
 10800      4D00
 10801              	.LASF137:
 10802 0268 78666572 		.ascii	"xfer_count\000"
 10802      5F636F75 
 10802      6E7400
 10803              	.LASF169:
 10804 0273 5553425F 		.ascii	"USB_DevInit\000"
 10804      44657649 
 10804      6E697400 
 10805              	.LASF14:
 10806 027f 75696E74 		.ascii	"uint16_t\000"
 10806      31365F74 
 10806      00
 10807              	.LASF215:
 10808 0288 68635F6E 		.ascii	"hc_num\000"
 10808      756D00
 10809              	.LASF68:
 10810 028f 5553425F 		.ascii	"USB_OTG_OUTEndpointTypeDef\000"
 10810      4F54475F 
 10810      4F555445 
 10810      6E64706F 
 10810      696E7454 
 10811              	.LASF42:
 10812 02aa 4441494E 		.ascii	"DAINT\000"
 10812      5400
 10813              	.LASF194:
 10814 02b0 696E7465 		.ascii	"interrupt\000"
 10814      72727570 
 10814      7400
 10815              	.LASF203:
 10816 02ba 5553425F 		.ascii	"USB_DriveVbus\000"
 10816      44726976 
 10816      65566275 
 10816      7300
 10817              	.LASF78:
 10818 02c8 48435350 		.ascii	"HCSPLT\000"
 10818      4C5400
 10819              	.LASF143:
ARM GAS  /tmp/cclsZlw8.s 			page 194


 10820 02cf 646F5F70 		.ascii	"do_ping\000"
 10820      696E6700 
 10821              	.LASF128:
 10822 02d7 69735F73 		.ascii	"is_stall\000"
 10822      74616C6C 
 10822      00
 10823              	.LASF28:
 10824 02e0 44494550 		.ascii	"DIEPTXF0_HNPTXFSIZ\000"
 10824      54584630 
 10824      5F484E50 
 10824      54584653 
 10824      495A00
 10825              	.LASF115:
 10826 02f3 486F7374 		.ascii	"Host_channels\000"
 10826      5F636861 
 10826      6E6E656C 
 10826      7300
 10827              	.LASF19:
 10828 0301 474F5447 		.ascii	"GOTGINT\000"
 10828      494E5400 
 10829              	.LASF41:
 10830 0309 444F4550 		.ascii	"DOEPMSK\000"
 10830      4D534B00 
 10831              	.LASF166:
 10832 0311 5553425F 		.ascii	"USB_CoreInit\000"
 10832      436F7265 
 10832      496E6974 
 10832      00
 10833              	.LASF196:
 10834 031e 5553425F 		.ascii	"USB_ActivateSetup\000"
 10834      41637469 
 10834      76617465 
 10834      53657475 
 10834      7000
 10835              	.LASF217:
 10836 0330 76616C75 		.ascii	"value\000"
 10836      6500
 10837              	.LASF91:
 10838 0336 48414C5F 		.ascii	"HAL_TIMEOUT\000"
 10838      54494D45 
 10838      4F555400 
 10839              	.LASF221:
 10840 0342 5553425F 		.ascii	"USB_CoreReset\000"
 10840      436F7265 
 10840      52657365 
 10840      7400
 10841              	.LASF9:
 10842 0350 5F5F7569 		.ascii	"__uint32_t\000"
 10842      6E743332 
 10842      5F7400
 10843              	.LASF192:
 10844 035b 65706E75 		.ascii	"epnum\000"
 10844      6D00
 10845              	.LASF0:
 10846 0361 756E7369 		.ascii	"unsigned int\000"
 10846      676E6564 
 10846      20696E74 
ARM GAS  /tmp/cclsZlw8.s 			page 195


 10846      00
 10847              	.LASF208:
 10848 036e 6465765F 		.ascii	"dev_address\000"
 10848      61646472 
 10848      65737300 
 10849              	.LASF189:
 10850 037a 5553425F 		.ascii	"USB_ReadDevAllOutEpInterrupt\000"
 10850      52656164 
 10850      44657641 
 10850      6C6C4F75 
 10850      74457049 
 10851              	.LASF126:
 10852 0397 5553425F 		.ascii	"USB_OTG_CfgTypeDef\000"
 10852      4F54475F 
 10852      43666754 
 10852      79706544 
 10852      656600
 10853              	.LASF76:
 10854 03aa 5553425F 		.ascii	"USB_OTG_HostTypeDef\000"
 10854      4F54475F 
 10854      486F7374 
 10854      54797065 
 10854      44656600 
 10855              	.LASF109:
 10856 03be 48435F53 		.ascii	"HC_STALL\000"
 10856      54414C4C 
 10856      00
 10857              	.LASF88:
 10858 03c7 48414C5F 		.ascii	"HAL_OK\000"
 10858      4F4B00
 10859              	.LASF191:
 10860 03ce 5553425F 		.ascii	"USB_ReadDevOutEPInterrupt\000"
 10860      52656164 
 10860      4465764F 
 10860      75744550 
 10860      496E7465 
 10861              	.LASF53:
 10862 03e8 52657365 		.ascii	"Reserved44\000"
 10862      72766564 
 10862      343400
 10863              	.LASF6:
 10864 03f3 73686F72 		.ascii	"short unsigned int\000"
 10864      7420756E 
 10864      7369676E 
 10864      65642069 
 10864      6E7400
 10865              	.LASF60:
 10866 0406 44494550 		.ascii	"DIEPDMA\000"
 10866      444D4100 
 10867              	.LASF172:
 10868 040e 5553425F 		.ascii	"USB_ActivateDedicatedEndpoint\000"
 10868      41637469 
 10868      76617465 
 10868      44656469 
 10868      63617465 
 10869              	.LASF186:
 10870 042c 5553425F 		.ascii	"USB_DevConnect\000"
ARM GAS  /tmp/cclsZlw8.s 			page 196


 10870      44657643 
 10870      6F6E6E65 
 10870      637400
 10871              	.LASF199:
 10872 043b 5553425F 		.ascii	"USB_InitFSLSPClkSel\000"
 10872      496E6974 
 10872      46534C53 
 10872      50436C6B 
 10872      53656C00 
 10873              	.LASF144:
 10874 044f 70726F63 		.ascii	"process_ping\000"
 10874      6573735F 
 10874      70696E67 
 10874      00
 10875              	.LASF209:
 10876 045c 5553425F 		.ascii	"USB_HC_StartXfer\000"
 10876      48435F53 
 10876      74617274 
 10876      58666572 
 10876      00
 10877              	.LASF70:
 10878 046d 48464952 		.ascii	"HFIR\000"
 10878      00
 10879              	.LASF94:
 10880 0472 5553425F 		.ascii	"USB_OTG_HOST_MODE\000"
 10880      4F54475F 
 10880      484F5354 
 10880      5F4D4F44 
 10880      4500
 10881              	.LASF171:
 10882 0484 5553425F 		.ascii	"USB_ActivateEndpoint\000"
 10882      41637469 
 10882      76617465 
 10882      456E6470 
 10882      6F696E74 
 10883              	.LASF44:
 10884 0499 52657365 		.ascii	"Reserved20\000"
 10884      72766564 
 10884      323000
 10885              	.LASF22:
 10886 04a4 47525354 		.ascii	"GRSTCTL\000"
 10886      43544C00 
 10887              	.LASF48:
 10888 04ac 44544852 		.ascii	"DTHRCTL\000"
 10888      43544C00 
 10889              	.LASF52:
 10890 04b4 44494E45 		.ascii	"DINEP1MSK\000"
 10890      50314D53 
 10890      4B00
 10891              	.LASF92:
 10892 04be 48414C5F 		.ascii	"HAL_StatusTypeDef\000"
 10892      53746174 
 10892      75735479 
 10892      70654465 
 10892      6600
 10893              	.LASF98:
 10894 04d0 5552425F 		.ascii	"URB_DONE\000"
ARM GAS  /tmp/cclsZlw8.s 			page 197


 10894      444F4E45 
 10894      00
 10895              	.LASF142:
 10896 04d9 65705F69 		.ascii	"ep_is_in\000"
 10896      735F696E 
 10896      00
 10897              	.LASF141:
 10898 04e2 65705F6E 		.ascii	"ep_num\000"
 10898      756D00
 10899              	.LASF151:
 10900 04e9 7572625F 		.ascii	"urb_state\000"
 10900      73746174 
 10900      6500
 10901              	.LASF107:
 10902 04f3 48435F4E 		.ascii	"HC_NAK\000"
 10902      414B00
 10903              	.LASF164:
 10904 04fa 5553425F 		.ascii	"USB_DisableGlobalInt\000"
 10904      44697361 
 10904      626C6547 
 10904      6C6F6261 
 10904      6C496E74 
 10905              	.LASF113:
 10906 050f 5553425F 		.ascii	"USB_OTG_HCStateTypeDef\000"
 10906      4F54475F 
 10906      48435374 
 10906      61746554 
 10906      79706544 
 10907              	.LASF205:
 10908 0526 5553425F 		.ascii	"USB_GetHostSpeed\000"
 10908      47657448 
 10908      6F737453 
 10908      70656564 
 10908      00
 10909              	.LASF193:
 10910 0537 5553425F 		.ascii	"USB_ReadDevInEPInterrupt\000"
 10910      52656164 
 10910      44657649 
 10910      6E455049 
 10910      6E746572 
 10911              	.LASF136:
 10912 0550 78666572 		.ascii	"xfer_len\000"
 10912      5F6C656E 
 10912      00
 10913              	.LASF147:
 10914 0559 64617461 		.ascii	"data_pid\000"
 10914      5F706964 
 10914      00
 10915              	.LASF111:
 10916 0562 48435F42 		.ascii	"HC_BBLERR\000"
 10916      424C4552 
 10916      5200
 10917              	.LASF25:
 10918 056c 47525853 		.ascii	"GRXSTSR\000"
 10918      54535200 
 10919              	.LASF33:
 10920 0574 48505458 		.ascii	"HPTXFSIZ\000"
ARM GAS  /tmp/cclsZlw8.s 			page 198


 10920      4653495A 
 10920      00
 10921              	.LASF93:
 10922 057d 5553425F 		.ascii	"USB_OTG_DEVICE_MODE\000"
 10922      4F54475F 
 10922      44455649 
 10922      43455F4D 
 10922      4F444500 
 10923              	.LASF125:
 10924 0591 7573655F 		.ascii	"use_external_vbus\000"
 10924      65787465 
 10924      726E616C 
 10924      5F766275 
 10924      7300
 10925              	.LASF17:
 10926 05a3 73697A65 		.ascii	"sizetype\000"
 10926      74797065 
 10926      00
 10927              	.LASF56:
 10928 05ac 44494550 		.ascii	"DIEPCTL\000"
 10928      43544C00 
 10929              	.LASF185:
 10930 05b4 61646472 		.ascii	"address\000"
 10930      65737300 
 10931              	.LASF181:
 10932 05bc 5553425F 		.ascii	"USB_EPSetStall\000"
 10932      45505365 
 10932      74537461 
 10932      6C6C00
 10933              	.LASF153:
 10934 05cb 5553425F 		.ascii	"USB_OTG_HCTypeDef\000"
 10934      4F54475F 
 10934      48435479 
 10934      70654465 
 10934      6600
 10935              	.LASF162:
 10936 05dd 5553425F 		.ascii	"USB_DoPing\000"
 10936      446F5069 
 10936      6E6700
 10937              	.LASF148:
 10938 05e8 746F6767 		.ascii	"toggle_in\000"
 10938      6C655F69 
 10938      6E00
 10939              	.LASF79:
 10940 05f2 4843494E 		.ascii	"HCINT\000"
 10940      5400
 10941              	.LASF117:
 10942 05f8 646D615F 		.ascii	"dma_enable\000"
 10942      656E6162 
 10942      6C6500
 10943              	.LASF30:
 10944 0603 52657365 		.ascii	"Reserved30\000"
 10944      72766564 
 10944      333000
 10945              	.LASF59:
 10946 060e 44494550 		.ascii	"DIEPTSIZ\000"
 10946      5453495A 
ARM GAS  /tmp/cclsZlw8.s 			page 199


 10946      00
 10947              	.LASF103:
 10948 0617 5553425F 		.ascii	"USB_OTG_URBStateTypeDef\000"
 10948      4F54475F 
 10948      55524253 
 10948      74617465 
 10948      54797065 
 10949              	.LASF40:
 10950 062f 44494550 		.ascii	"DIEPMSK\000"
 10950      4D534B00 
 10951              	.LASF165:
 10952 0637 5553425F 		.ascii	"USB_EnableGlobalInt\000"
 10952      456E6162 
 10952      6C65476C 
 10952      6F62616C 
 10952      496E7400 
 10953              	.LASF21:
 10954 064b 47555342 		.ascii	"GUSBCFG\000"
 10954      43464700 
 10955              	.LASF133:
 10956 0653 6D617870 		.ascii	"maxpacket\000"
 10956      61636B65 
 10956      7400
 10957              	.LASF177:
 10958 065d 706B7463 		.ascii	"pktcnt\000"
 10958      6E7400
 10959              	.LASF180:
 10960 0664 64657374 		.ascii	"dest\000"
 10960      00
 10961              	.LASF155:
 10962 0669 5553425F 		.ascii	"USB_SetDevSpeed\000"
 10962      53657444 
 10962      65765370 
 10962      65656400 
 10963              	.LASF220:
 10964 0679 2F686F6D 		.ascii	"/home/sbcu/Dropbox/pcb-layouts/axo-on-discovery-boa"
 10964      652F7362 
 10964      63752F44 
 10964      726F7062 
 10964      6F782F70 
 10965 06ac 72642F61 		.ascii	"rd/axoloti/firmware\000"
 10965      786F6C6F 
 10965      74692F66 
 10965      69726D77 
 10965      61726500 
 10966              	.LASF62:
 10967 06c0 52657365 		.ascii	"Reserved18\000"
 10967      72766564 
 10967      313800
 10968              	.LASF95:
 10969 06cb 5553425F 		.ascii	"USB_OTG_DRD_MODE\000"
 10969      4F54475F 
 10969      4452445F 
 10969      4D4F4445 
 10969      00
 10970              	.LASF178:
 10971 06dc 5553425F 		.ascii	"USB_EP0StartXfer\000"
ARM GAS  /tmp/cclsZlw8.s 			page 200


 10971      45503053 
 10971      74617274 
 10971      58666572 
 10971      00
 10972              	.LASF222:
 10973 06ed 5553425F 		.ascii	"USB_ClearInterrupts\000"
 10973      436C6561 
 10973      72496E74 
 10973      65727275 
 10973      70747300 
 10974              	.LASF195:
 10975 0701 5553425F 		.ascii	"USB_GetMode\000"
 10975      4765744D 
 10975      6F646500 
 10976              	.LASF61:
 10977 070d 44545846 		.ascii	"DTXFSTS\000"
 10977      53545300 
 10978              	.LASF214:
 10979 0715 5553425F 		.ascii	"USB_HC_Halt\000"
 10979      48435F48 
 10979      616C7400 
 10980              	.LASF38:
 10981 0721 44535453 		.ascii	"DSTS\000"
 10981      00
 10982              	.LASF15:
 10983 0726 696E7433 		.ascii	"int32_t\000"
 10983      325F7400 
 10984              	.LASF2:
 10985 072e 756E7369 		.ascii	"unsigned char\000"
 10985      676E6564 
 10985      20636861 
 10985      7200
 10986              	.LASF204:
 10987 073c 5553425F 		.ascii	"USB_HostInit\000"
 10987      486F7374 
 10987      496E6974 
 10987      00
 10988              	.LASF58:
 10989 0749 44494550 		.ascii	"DIEPINT\000"
 10989      494E5400 
 10990              	.LASF66:
 10991 0751 444F4550 		.ascii	"DOEPTSIZ\000"
 10991      5453495A 
 10991      00
 10992              	.LASF223:
 10993 075a 49544D5F 		.ascii	"ITM_RxBuffer\000"
 10993      52784275 
 10993      66666572 
 10993      00
 10994              	.LASF72:
 10995 0767 52657365 		.ascii	"Reserved40C\000"
 10995      72766564 
 10995      34304300 
 10996              	.LASF3:
 10997 0773 73686F72 		.ascii	"short int\000"
 10997      7420696E 
 10997      7400
ARM GAS  /tmp/cclsZlw8.s 			page 201


 10998              	.LASF24:
 10999 077d 47494E54 		.ascii	"GINTMSK\000"
 10999      4D534B00 
 11000              	.LASF130:
 11001 0785 64617461 		.ascii	"data_pid_start\000"
 11001      5F706964 
 11001      5F737461 
 11001      727400
 11002              	.LASF32:
 11003 0794 52657365 		.ascii	"Reserved40\000"
 11003      72766564 
 11003      343000
 11004              	.LASF63:
 11005 079f 5553425F 		.ascii	"USB_OTG_INEndpointTypeDef\000"
 11005      4F54475F 
 11005      494E456E 
 11005      64706F69 
 11005      6E745479 
 11006              	.LASF47:
 11007 07b9 44564255 		.ascii	"DVBUSPULSE\000"
 11007      5350554C 
 11007      534500
 11008              	.LASF97:
 11009 07c4 5552425F 		.ascii	"URB_IDLE\000"
 11009      49444C45 
 11009      00
 11010              	.LASF122:
 11011 07cd 6C706D5F 		.ascii	"lpm_enable\000"
 11011      656E6162 
 11011      6C6500
 11012              	.LASF167:
 11013 07d8 5553425F 		.ascii	"USB_SetCurrentMode\000"
 11013      53657443 
 11013      75727265 
 11013      6E744D6F 
 11013      646500
 11014              	.LASF179:
 11015 07eb 5553425F 		.ascii	"USB_ReadPacket\000"
 11015      52656164 
 11015      5061636B 
 11015      657400
 11016              	.LASF218:
 11017 07fa 474E5520 		.ascii	"GNU C 4.9.3 20150529 (release) [ARM/embedded-4_9-br"
 11017      4320342E 
 11017      392E3320 
 11017      32303135 
 11017      30353239 
 11018 082d 616E6368 		.ascii	"anch revision 224288] -mcpu=cortex-m4 -mfloat-abi=h"
 11018      20726576 
 11018      6973696F 
 11018      6E203232 
 11018      34323838 
 11019 0860 61726420 		.ascii	"ard -mfpu=fpv4-sp-d16 -mno-thumb-interwork -mthumb "
 11019      2D6D6670 
 11019      753D6670 
 11019      76342D73 
 11019      702D6431 
ARM GAS  /tmp/cclsZlw8.s 			page 202


 11020 0893 2D676764 		.ascii	"-ggdb -O2 -fomit-frame-pointer -falign-functions=16"
 11020      62202D4F 
 11020      32202D66 
 11020      6F6D6974 
 11020      2D667261 
 11021 08c6 202D666E 		.ascii	" -fno-math-errno -fsingle-precision-constant\000"
 11021      6F2D6D61 
 11021      74682D65 
 11021      72726E6F 
 11021      202D6673 
 11022              	.LASF174:
 11023 08f3 5553425F 		.ascii	"USB_DeactivateEndpoint\000"
 11023      44656163 
 11023      74697661 
 11023      7465456E 
 11023      64706F69 
 11024              	.LASF67:
 11025 090a 444F4550 		.ascii	"DOEPDMA\000"
 11025      444D4100 
 11026              	.LASF156:
 11027 0912 5553425F 		.ascii	"USB_FlushTxFifo\000"
 11027      466C7573 
 11027      68547846 
 11027      69666F00 
 11028              	.LASF182:
 11029 0922 5553425F 		.ascii	"USB_EPClearStall\000"
 11029      4550436C 
 11029      65617253 
 11029      74616C6C 
 11029      00
 11030              	.LASF106:
 11031 0933 48435F48 		.ascii	"HC_HALTED\000"
 11031      414C5445 
 11031      4400
 11032              	.LASF206:
 11033 093d 5553425F 		.ascii	"USB_GetCurrentFrame\000"
 11033      47657443 
 11033      75727265 
 11033      6E744672 
 11033      616D6500 
 11034              	.LASF10:
 11035 0951 6C6F6E67 		.ascii	"long unsigned int\000"
 11035      20756E73 
 11035      69676E65 
 11035      6420696E 
 11035      7400
 11036              	.LASF87:
 11037 0963 63686172 		.ascii	"char\000"
 11037      00
 11038              	.LASF163:
 11039 0968 6E756D5F 		.ascii	"num_packets\000"
 11039      7061636B 
 11039      65747300 
 11040              	.LASF138:
 11041 0974 5553425F 		.ascii	"USB_OTG_EPTypeDef\000"
 11041      4F54475F 
 11041      45505479 
ARM GAS  /tmp/cclsZlw8.s 			page 203


 11041      70654465 
 11041      6600
 11042              	.LASF168:
 11043 0986 6D6F6465 		.ascii	"mode\000"
 11043      00
 11044              	.LASF74:
 11045 098b 4841494E 		.ascii	"HAINT\000"
 11045      5400
 11046              	.LASF224:
 11047 0991 48414C5F 		.ascii	"HAL_Delay\000"
 11047      44656C61 
 11047      7900
 11048              	.LASF207:
 11049 099b 5553425F 		.ascii	"USB_HC_Init\000"
 11049      48435F49 
 11049      6E697400 
 11050              	.LASF5:
 11051 09a7 5F5F7569 		.ascii	"__uint16_t\000"
 11051      6E743136 
 11051      5F7400
 11052              	.LASF146:
 11053 09b2 6D61785F 		.ascii	"max_packet\000"
 11053      7061636B 
 11053      657400
 11054              	.LASF69:
 11055 09bd 48434647 		.ascii	"HCFG\000"
 11055      00
 11056              	.LASF99:
 11057 09c2 5552425F 		.ascii	"URB_NOTREADY\000"
 11057      4E4F5452 
 11057      45414459 
 11057      00
 11058              	.LASF35:
 11059 09cf 5553425F 		.ascii	"USB_OTG_GlobalTypeDef\000"
 11059      4F54475F 
 11059      476C6F62 
 11059      616C5479 
 11059      70654465 
 11060              	.LASF160:
 11061 09e5 63685F65 		.ascii	"ch_ep_num\000"
 11061      705F6E75 
 11061      6D00
 11062              	.LASF7:
 11063 09ef 5F5F696E 		.ascii	"__int32_t\000"
 11063      7433325F 
 11063      7400
 11064              	.LASF27:
 11065 09f9 47525846 		.ascii	"GRXFSIZ\000"
 11065      53495A00 
 11066              	.LASF213:
 11067 0a01 5553425F 		.ascii	"USB_HC_ReadInterrupt\000"
 11067      48435F52 
 11067      65616449 
 11067      6E746572 
 11067      72757074 
 11068              	.LASF118:
 11069 0a16 6570305F 		.ascii	"ep0_mps\000"
ARM GAS  /tmp/cclsZlw8.s 			page 204


 11069      6D707300 
 11070              	.LASF110:
 11071 0a1e 48435F58 		.ascii	"HC_XACTERR\000"
 11071      41435445 
 11071      525200
 11072              	.LASF18:
 11073 0a29 474F5447 		.ascii	"GOTGCTL\000"
 11073      43544C00 
 11074              	.LASF202:
 11075 0a31 68707274 		.ascii	"hprt0\000"
 11075      3000
 11076              	.LASF175:
 11077 0a37 5553425F 		.ascii	"USB_DeactivateDedicatedEndpoint\000"
 11077      44656163 
 11077      74697661 
 11077      74654465 
 11077      64696361 
 11078              	.LASF132:
 11079 0a57 74785F66 		.ascii	"tx_fifo_num\000"
 11079      69666F5F 
 11079      6E756D00 
 11080              	.LASF37:
 11081 0a63 4443544C 		.ascii	"DCTL\000"
 11081      00
 11082              	.LASF211:
 11083 0a68 6C656E5F 		.ascii	"len_words\000"
 11083      776F7264 
 11083      7300
 11084              	.LASF89:
 11085 0a72 48414C5F 		.ascii	"HAL_ERROR\000"
 11085      4552524F 
 11085      5200
 11086              	.LASF145:
 11087 0a7c 65705F74 		.ascii	"ep_type\000"
 11087      79706500 
 11088              	.LASF73:
 11089 0a84 48505458 		.ascii	"HPTXSTS\000"
 11089      53545300 
 11090              	.LASF64:
 11091 0a8c 444F4550 		.ascii	"DOEPCTL\000"
 11091      43544C00 
 11092              	.LASF134:
 11093 0a94 78666572 		.ascii	"xfer_buff\000"
 11093      5F627566 
 11093      6600
 11094              	.LASF90:
 11095 0a9e 48414C5F 		.ascii	"HAL_BUSY\000"
 11095      42555359 
 11095      00
 11096              	.LASF16:
 11097 0aa7 75696E74 		.ascii	"uint32_t\000"
 11097      33325F74 
 11097      00
 11098              	.LASF54:
 11099 0ab0 444F5554 		.ascii	"DOUTEP1MSK\000"
 11099      4550314D 
 11099      534B00
ARM GAS  /tmp/cclsZlw8.s 			page 205


 11100              	.LASF108:
 11101 0abb 48435F4E 		.ascii	"HC_NYET\000"
 11101      59455400 
 11102              	.LASF200:
 11103 0ac3 66726571 		.ascii	"freq\000"
 11103      00
 11104              	.LASF120:
 11105 0ac8 536F665F 		.ascii	"Sof_enable\000"
 11105      656E6162 
 11105      6C6500
 11106              	.LASF105:
 11107 0ad3 48435F58 		.ascii	"HC_XFRC\000"
 11107      46524300 
 11108              	.LASF84:
 11109 0adb 5553425F 		.ascii	"USB_OTG_HostChannelTypeDef\000"
 11109      4F54475F 
 11109      486F7374 
 11109      4368616E 
 11109      6E656C54 
 11110              	.LASF96:
 11111 0af6 5553425F 		.ascii	"USB_OTG_ModeTypeDef\000"
 11111      4F54475F 
 11111      4D6F6465 
 11111      54797065 
 11111      44656600 
 11112              	.LASF135:
 11113 0b0a 646D615F 		.ascii	"dma_addr\000"
 11113      61646472 
 11113      00
 11114              	.LASF82:
 11115 0b13 4843444D 		.ascii	"HCDMA\000"
 11115      4100
 11116              	.LASF13:
 11117 0b19 75696E74 		.ascii	"uint8_t\000"
 11117      385F7400 
 11118              	.LASF102:
 11119 0b21 5552425F 		.ascii	"URB_STALL\000"
 11119      5354414C 
 11119      4C00
 11120              	.LASF201:
 11121 0b2b 5553425F 		.ascii	"USB_ResetPort\000"
 11121      52657365 
 11121      74506F72 
 11121      7400
 11122              	.LASF150:
 11123 0b39 45727243 		.ascii	"ErrCnt\000"
 11123      6E7400
 11124              	.LASF31:
 11125 0b40 47434346 		.ascii	"GCCFG\000"
 11125      4700
 11126              	.LASF116:
 11127 0b46 73706565 		.ascii	"speed\000"
 11127      6400
 11128              	.LASF51:
 11129 0b4c 44454143 		.ascii	"DEACHMSK\000"
 11129      484D534B 
 11129      00
ARM GAS  /tmp/cclsZlw8.s 			page 206


 11130              	.LASF101:
 11131 0b55 5552425F 		.ascii	"URB_ERROR\000"
 11131      4552524F 
 11131      5200
 11132              	.LASF77:
 11133 0b5f 48434348 		.ascii	"HCCHAR\000"
 11133      415200
 11134              	.LASF34:
 11135 0b66 44494550 		.ascii	"DIEPTXF\000"
 11135      54584600 
 11136              	.LASF210:
 11137 0b6e 69735F6F 		.ascii	"is_oddframe\000"
 11137      64646672 
 11137      616D6500 
 11138              	.LASF219:
 11139 0b7a 2E2F5354 		.ascii	"./STM32F4xx_HAL_Driver/Src/stm32f4xx_ll_usb.c\000"
 11139      4D333246 
 11139      3478785F 
 11139      48414C5F 
 11139      44726976 
 11140              	.LASF100:
 11141 0ba8 5552425F 		.ascii	"URB_NYET\000"
 11141      4E594554 
 11141      00
 11142              	.LASF121:
 11143 0bb1 6C6F775F 		.ascii	"low_power_enable\000"
 11143      706F7765 
 11143      725F656E 
 11143      61626C65 
 11143      00
 11144              	.LASF29:
 11145 0bc2 484E5054 		.ascii	"HNPTXSTS\000"
 11145      58535453 
 11145      00
 11146              	.LASF112:
 11147 0bcb 48435F44 		.ascii	"HC_DATATGLERR\000"
 11147      41544154 
 11147      474C4552 
 11147      5200
 11148              	.LASF65:
 11149 0bd9 444F4550 		.ascii	"DOEPINT\000"
 11149      494E5400 
 11150              		.ident	"GCC: (GNU Tools for ARM Embedded Processors) 4.9.3 20150529 (release) [ARM/embedded-4_9-br
ARM GAS  /tmp/cclsZlw8.s 			page 207


DEFINED SYMBOLS
                            *ABS*:00000000 stm32f4xx_ll_usb.c
     /tmp/cclsZlw8.s:20     .text:00000000 $t
     /tmp/cclsZlw8.s:25     .text:00000000 USB_CoreReset
     /tmp/cclsZlw8.s:87     .text:00000030 $d
     /tmp/cclsZlw8.s:91     .text:00000034 $t
     /tmp/cclsZlw8.s:96     .text:00000040 USB_WritePacket.part.1
     /tmp/cclsZlw8.s:156    .text:00000070 USB_CoreInit
     /tmp/cclsZlw8.s:266    .text:000000f0 USB_EnableGlobalInt
     /tmp/cclsZlw8.s:294    .text:00000100 USB_DisableGlobalInt
     /tmp/cclsZlw8.s:322    .text:00000110 USB_SetCurrentMode
     /tmp/cclsZlw8.s:380    .text:00000150 USB_DevInit
     /tmp/cclsZlw8.s:683    .text:000002b8 $d
     /tmp/cclsZlw8.s:691    .text:000002c4 $t
     /tmp/cclsZlw8.s:697    .text:000002d0 USB_FlushTxFifo
     /tmp/cclsZlw8.s:739    .text:000002f0 $d
     /tmp/cclsZlw8.s:743    .text:000002f4 $t
     /tmp/cclsZlw8.s:749    .text:00000300 USB_FlushRxFifo
     /tmp/cclsZlw8.s:789    .text:0000031c $d
     /tmp/cclsZlw8.s:793    .text:00000320 $t
     /tmp/cclsZlw8.s:799    .text:00000320 USB_SetDevSpeed
     /tmp/cclsZlw8.s:828    .text:00000330 USB_GetDevSpeed
     /tmp/cclsZlw8.s:878    .text:00000370 USB_ActivateEndpoint
     /tmp/cclsZlw8.s:978    .text:00000400 USB_ActivateDedicatedEndpoint
     /tmp/cclsZlw8.s:1105   .text:000004e0 $d
     /tmp/cclsZlw8.s:1109   .text:000004e4 $t
     /tmp/cclsZlw8.s:1115   .text:000004f0 USB_DeactivateEndpoint
     /tmp/cclsZlw8.s:1207   .text:00000580 USB_DeactivateDedicatedEndpoint
     /tmp/cclsZlw8.s:1284   .text:000005e0 USB_EPStartXfer
     /tmp/cclsZlw8.s:1621   .text:00000834 $d
     /tmp/cclsZlw8.s:1625   .text:00000838 $t
     /tmp/cclsZlw8.s:1631   .text:00000840 USB_EP0StartXfer
     /tmp/cclsZlw8.s:1855   .text:000009c0 USB_WritePacket
     /tmp/cclsZlw8.s:1885   .text:000009d0 USB_ReadPacket
     /tmp/cclsZlw8.s:1947   .text:00000a00 USB_EPSetStall
     /tmp/cclsZlw8.s:2007   .text:00000a40 USB_EPClearStall
     /tmp/cclsZlw8.s:2064   .text:00000a80 USB_StopDevice
     /tmp/cclsZlw8.s:2172   .text:00000ae0 $d
     /tmp/cclsZlw8.s:2176   .text:00000ae4 $t
     /tmp/cclsZlw8.s:2182   .text:00000af0 USB_SetDevAddress
     /tmp/cclsZlw8.s:2214   .text:00000b10 USB_DevConnect
     /tmp/cclsZlw8.s:2251   .text:00000b30 USB_DevDisconnect
     /tmp/cclsZlw8.s:2288   .text:00000b50 USB_ReadInterrupts
     /tmp/cclsZlw8.s:2315   .text:00000b60 USB_ReadDevAllOutEpInterrupt
     /tmp/cclsZlw8.s:2345   .text:00000b70 USB_ReadDevAllInEpInterrupt
     /tmp/cclsZlw8.s:2375   .text:00000b80 USB_ReadDevOutEPInterrupt
     /tmp/cclsZlw8.s:2409   .text:00000ba0 USB_ReadDevInEPInterrupt
     /tmp/cclsZlw8.s:2453   .text:00000bd0 USB_ClearInterrupts
     /tmp/cclsZlw8.s:2476   .text:00000be0 USB_GetMode
     /tmp/cclsZlw8.s:2499   .text:00000bf0 USB_ActivateSetup
     /tmp/cclsZlw8.s:2542   .text:00000c30 USB_EP0_OutStart
     /tmp/cclsZlw8.s:2597   .text:00000c80 USB_InitFSLSPClkSel
     /tmp/cclsZlw8.s:2648   .text:00000cc0 USB_ResetPort
     /tmp/cclsZlw8.s:2699   .text:00000d00 USB_DriveVbus
     /tmp/cclsZlw8.s:2769   .text:00000d50 USB_HostInit
     /tmp/cclsZlw8.s:2984   .text:00000e3c $d
     /tmp/cclsZlw8.s:2993   .text:00000e54 $t
ARM GAS  /tmp/cclsZlw8.s 			page 208


     /tmp/cclsZlw8.s:2999   .text:00000e60 USB_GetHostSpeed
     /tmp/cclsZlw8.s:3030   .text:00000e80 USB_GetCurrentFrame
     /tmp/cclsZlw8.s:3055   .text:00000e90 USB_HC_Init
     /tmp/cclsZlw8.s:3086   .text:00000eb8 $d
     /tmp/cclsZlw8.s:3090   .text:00000ebc $t
     /tmp/cclsZlw8.s:3242   .text:00000fb0 USB_HC_StartXfer
     /tmp/cclsZlw8.s:3372   .text:00001076 $d
     /tmp/cclsZlw8.s:3377   .text:0000107a $t
     /tmp/cclsZlw8.s:3509   .text:00001138 $d
     /tmp/cclsZlw8.s:3514   .text:00001140 $t
     /tmp/cclsZlw8.s:3520   .text:00001140 USB_HC_ReadInterrupt
     /tmp/cclsZlw8.s:3545   .text:00001150 USB_HC_Halt
     /tmp/cclsZlw8.s:3660   .text:000011e0 USB_DoPing
     /tmp/cclsZlw8.s:3690   .text:00001200 $d
     /tmp/cclsZlw8.s:3694   .text:00001204 $t
     /tmp/cclsZlw8.s:3700   .text:00001210 USB_StopHost
     /tmp/cclsZlw8.s:3867   .text:0000129c $d
     /tmp/cclsZlw8.s:3872   .bss:00000000 $d
     /tmp/cclsZlw8.s:3876   .bss:00000000 debug.7035
                     .debug_frame:00000010 $d

UNDEFINED SYMBOLS
HAL_Delay
