ARM GAS  /tmp/ccL9X4rG.s 			page 1


   1              		.syntax unified
   2              		.cpu cortex-m4
   3              		.eabi_attribute 27, 1
   4              		.eabi_attribute 28, 1
   5              		.fpu fpv4-sp-d16
   6              		.eabi_attribute 20, 1
   7              		.eabi_attribute 21, 1
   8              		.eabi_attribute 23, 3
   9              		.eabi_attribute 24, 1
  10              		.eabi_attribute 25, 1
  11              		.eabi_attribute 26, 1
  12              		.eabi_attribute 30, 2
  13              		.eabi_attribute 34, 1
  14              		.eabi_attribute 18, 4
  15              		.thumb
  16              		.file	"stm32f4xx_hal_cortex.c"
  17              		.text
  18              	.Ltext0:
  19              		.cfi_sections	.debug_frame
  20              		.align	2
  21              		.p2align 4,,15
  22              		.global	HAL_NVIC_SetPriorityGrouping
  23              		.thumb
  24              		.thumb_func
  25              		.type	HAL_NVIC_SetPriorityGrouping, %function
  26              	HAL_NVIC_SetPriorityGrouping:
  27              	.LFB123:
  28              		.file 1 "./STM32F4xx_HAL_Driver/Src/stm32f4xx_hal_cortex.c"
  29              		.loc 1 162 0
  30              		.cfi_startproc
  31              		@ args = 0, pretend = 0, frame = 0
  32              		@ frame_needed = 0, uses_anonymous_args = 0
  33              		@ link register save eliminated.
  34              	.LVL0:
  35              	.LBB46:
  36              	.LBB47:
  37              		.file 2 "/d_drive/axoloti/platform_linux/../CMSIS//Include/core_cm4.h"
  38              		.loc 2 1633 0
  39 0000 074A     		ldr	r2, .L2
  40 0002 D168     		ldr	r1, [r2, #12]
  41              	.LVL1:
  42              		.loc 2 1634 0
  43 0004 4FF6FF03 		movw	r3, #63743
  44 0008 0B40     		ands	r3, r3, r1
  45              	.LVL2:
  46 000a 43F0BF63 		orr	r3, r3, #100139008
  47              	.LVL3:
  48              		.loc 2 1631 0
  49 000e 00F00700 		and	r0, r0, #7
  50              	.LVL4:
  51 0012 43F40033 		orr	r3, r3, #131072
  52              		.loc 2 1635 0
  53 0016 43EA0023 		orr	r3, r3, r0, lsl #8
  54              	.LVL5:
  55              		.loc 2 1638 0
  56 001a D360     		str	r3, [r2, #12]
  57 001c 7047     		bx	lr
ARM GAS  /tmp/ccL9X4rG.s 			page 2


  58              	.L3:
  59 001e 00BF     		.align	2
  60              	.L2:
  61 0020 00ED00E0 		.word	-536810240
  62              	.LBE47:
  63              	.LBE46:
  64              		.cfi_endproc
  65              	.LFE123:
  66              		.size	HAL_NVIC_SetPriorityGrouping, .-HAL_NVIC_SetPriorityGrouping
  67              		.align	2
  68 0024 AFF30080 		.p2align 4,,15
  68      AFF30080 
  68      AFF30080 
  69              		.global	HAL_NVIC_SetPriority
  70              		.thumb
  71              		.thumb_func
  72              		.type	HAL_NVIC_SetPriority, %function
  73              	HAL_NVIC_SetPriority:
  74              	.LFB124:
  75              		.loc 1 184 0
  76              		.cfi_startproc
  77              		@ args = 0, pretend = 0, frame = 0
  78              		@ frame_needed = 0, uses_anonymous_args = 0
  79              		@ link register save eliminated.
  80              	.LVL6:
  81              	.LBB48:
  82              	.LBB49:
  83              		.loc 2 1649 0
  84 0030 184B     		ldr	r3, .L11
  85 0032 DB68     		ldr	r3, [r3, #12]
  86 0034 C3F30223 		ubfx	r3, r3, #8, #3
  87              	.LVL7:
  88              	.LBE49:
  89              	.LBE48:
  90              		.loc 1 184 0
  91 0038 30B4     		push	{r4, r5}
  92              		.cfi_def_cfa_offset 8
  93              		.cfi_offset 4, -8
  94              		.cfi_offset 5, -4
  95              	.LBB50:
  96              	.LBB51:
  97              		.loc 2 1840 0
  98 003a C3F10705 		rsb	r5, r3, #7
  99 003e 042D     		cmp	r5, #4
 100              		.loc 2 1841 0
 101 0040 03F10404 		add	r4, r3, #4
 102              	.LVL8:
 103              		.loc 2 1840 0
 104 0044 28BF     		it	cs
 105 0046 0425     		movcs	r5, #4
 106              	.LVL9:
 107              		.loc 2 1841 0
 108 0048 062C     		cmp	r4, #6
 109 004a 17D9     		bls	.L8
 110 004c 033B     		subs	r3, r3, #3
 111              	.LVL10:
 112 004e 0124     		movs	r4, #1
ARM GAS  /tmp/ccL9X4rG.s 			page 3


 113 0050 9C40     		lsls	r4, r4, r3
 114 0052 013C     		subs	r4, r4, #1
 115 0054 2240     		ands	r2, r2, r4
 116              	.LVL11:
 117              	.L5:
 118              		.loc 2 1844 0
 119 0056 0124     		movs	r4, #1
 120 0058 AC40     		lsls	r4, r4, r5
 121 005a 013C     		subs	r4, r4, #1
 122 005c 2140     		ands	r1, r1, r4
 123              	.LVL12:
 124 005e 9940     		lsls	r1, r1, r3
 125              	.LBE51:
 126              	.LBE50:
 127              	.LBB54:
 128              	.LBB55:
 129              		.loc 2 1789 0
 130 0060 0028     		cmp	r0, #0
 131              	.LBE55:
 132              	.LBE54:
 133              	.LBB58:
 134              	.LBB52:
 135              		.loc 2 1843 0
 136 0062 42EA0102 		orr	r2, r2, r1
 137              	.LVL13:
 138              	.LBE52:
 139              	.LBE58:
 140              	.LBB59:
 141              	.LBB56:
 142              		.loc 2 1789 0
 143 0066 0CDB     		blt	.L6
 144              		.loc 2 1791 0
 145 0068 00F16040 		add	r0, r0, #-536870912
 146              	.LVL14:
 147 006c 00F56140 		add	r0, r0, #57600
 148 0070 1201     		lsls	r2, r2, #4
 149              	.LVL15:
 150 0072 D2B2     		uxtb	r2, r2
 151 0074 80F80023 		strb	r2, [r0, #768]
 152              	.LBE56:
 153              	.LBE59:
 154              		.loc 1 194 0
 155 0078 30BC     		pop	{r4, r5}
 156              		.cfi_remember_state
 157              		.cfi_restore 5
 158              		.cfi_restore 4
 159              		.cfi_def_cfa_offset 0
 160              	.LVL16:
 161 007a 7047     		bx	lr
 162              	.LVL17:
 163              	.L8:
 164              		.cfi_restore_state
 165              	.LBB60:
 166              	.LBB53:
 167              		.loc 2 1841 0
 168 007c 0022     		movs	r2, #0
 169              	.LVL18:
ARM GAS  /tmp/ccL9X4rG.s 			page 4


 170 007e 1346     		mov	r3, r2
 171              	.LVL19:
 172 0080 E9E7     		b	.L5
 173              	.LVL20:
 174              	.L6:
 175              	.LBE53:
 176              	.LBE60:
 177              	.LBB61:
 178              	.LBB57:
 179              		.loc 2 1795 0
 180 0082 054B     		ldr	r3, .L11+4
 181 0084 00F00F00 		and	r0, r0, #15
 182              	.LVL21:
 183 0088 1201     		lsls	r2, r2, #4
 184              	.LVL22:
 185 008a 0344     		add	r3, r3, r0
 186 008c D2B2     		uxtb	r2, r2
 187 008e 1A76     		strb	r2, [r3, #24]
 188              	.LBE57:
 189              	.LBE61:
 190              		.loc 1 194 0
 191 0090 30BC     		pop	{r4, r5}
 192              		.cfi_restore 4
 193              		.cfi_restore 5
 194              		.cfi_def_cfa_offset 0
 195              	.LVL23:
 196 0092 7047     		bx	lr
 197              	.L12:
 198              		.align	2
 199              	.L11:
 200 0094 00ED00E0 		.word	-536810240
 201 0098 FCEC00E0 		.word	-536810244
 202              		.cfi_endproc
 203              	.LFE124:
 204              		.size	HAL_NVIC_SetPriority, .-HAL_NVIC_SetPriority
 205              		.align	2
 206 009c AFF30080 		.p2align 4,,15
 207              		.global	HAL_NVIC_EnableIRQ
 208              		.thumb
 209              		.thumb_func
 210              		.type	HAL_NVIC_EnableIRQ, %function
 211              	HAL_NVIC_EnableIRQ:
 212              	.LFB125:
 213              		.loc 1 206 0
 214              		.cfi_startproc
 215              		@ args = 0, pretend = 0, frame = 0
 216              		@ frame_needed = 0, uses_anonymous_args = 0
 217              		@ link register save eliminated.
 218              	.LVL24:
 219              	.LBB62:
 220              	.LBB63:
 221              		.loc 2 1661 0
 222 00a0 0028     		cmp	r0, #0
 223              	.LVL25:
 224 00a2 07DB     		blt	.L13
 225              		.loc 2 1663 0
 226 00a4 00F01F01 		and	r1, r0, #31
ARM GAS  /tmp/ccL9X4rG.s 			page 5


 227 00a8 0123     		movs	r3, #1
 228 00aa 4009     		lsrs	r0, r0, #5
 229 00ac 024A     		ldr	r2, .L15
 230 00ae 8B40     		lsls	r3, r3, r1
 231 00b0 42F82030 		str	r3, [r2, r0, lsl #2]
 232              	.L13:
 233 00b4 7047     		bx	lr
 234              	.L16:
 235 00b6 00BF     		.align	2
 236              	.L15:
 237 00b8 00E100E0 		.word	-536813312
 238              	.LBE63:
 239              	.LBE62:
 240              		.cfi_endproc
 241              	.LFE125:
 242              		.size	HAL_NVIC_EnableIRQ, .-HAL_NVIC_EnableIRQ
 243              		.align	2
 244 00bc AFF30080 		.p2align 4,,15
 245              		.global	HAL_NVIC_DisableIRQ
 246              		.thumb
 247              		.thumb_func
 248              		.type	HAL_NVIC_DisableIRQ, %function
 249              	HAL_NVIC_DisableIRQ:
 250              	.LFB126:
 251              		.loc 1 222 0
 252              		.cfi_startproc
 253              		@ args = 0, pretend = 0, frame = 0
 254              		@ frame_needed = 0, uses_anonymous_args = 0
 255              		@ link register save eliminated.
 256              	.LVL26:
 257              	.LBB64:
 258              	.LBB65:
 259              		.loc 2 1697 0
 260 00c0 0028     		cmp	r0, #0
 261              	.LVL27:
 262 00c2 0CDB     		blt	.L17
 263              		.loc 2 1699 0
 264 00c4 4309     		lsrs	r3, r0, #5
 265 00c6 2033     		adds	r3, r3, #32
 266 00c8 00F01F00 		and	r0, r0, #31
 267 00cc 0449     		ldr	r1, .L19
 268 00ce 0122     		movs	r2, #1
 269 00d0 8240     		lsls	r2, r2, r0
 270 00d2 41F82320 		str	r2, [r1, r3, lsl #2]
 271              	.LBB66:
 272              	.LBB67:
 273              		.file 3 "/d_drive/axoloti/platform_linux/../CMSIS//Include/cmsis_gcc.h"
 274              		.loc 3 750 0
 275              	@ 750 "/d_drive/axoloti/platform_linux/../CMSIS//Include/cmsis_gcc.h" 1
 276 00d6 BFF34F8F 		dsb 0xF
 277              	@ 0 "" 2
 278              		.thumb
 279              	.LBE67:
 280              	.LBE66:
 281              	.LBB68:
 282              	.LBB69:
 283              		.loc 3 739 0
ARM GAS  /tmp/ccL9X4rG.s 			page 6


 284              	@ 739 "/d_drive/axoloti/platform_linux/../CMSIS//Include/cmsis_gcc.h" 1
 285 00da BFF36F8F 		isb 0xF
 286              	@ 0 "" 2
 287              		.thumb
 288              	.L17:
 289 00de 7047     		bx	lr
 290              	.L20:
 291              		.align	2
 292              	.L19:
 293 00e0 00E100E0 		.word	-536813312
 294              	.LBE69:
 295              	.LBE68:
 296              	.LBE65:
 297              	.LBE64:
 298              		.cfi_endproc
 299              	.LFE126:
 300              		.size	HAL_NVIC_DisableIRQ, .-HAL_NVIC_DisableIRQ
 301              		.align	2
 302 00e4 AFF30080 		.p2align 4,,15
 302      AFF30080 
 302      AFF30080 
 303              		.global	HAL_NVIC_SystemReset
 304              		.thumb
 305              		.thumb_func
 306              		.type	HAL_NVIC_SystemReset, %function
 307              	HAL_NVIC_SystemReset:
 308              	.LFB127:
 309              		.loc 1 235 0
 310              		.cfi_startproc
 311              		@ Volatile: function does not return.
 312              		@ args = 0, pretend = 0, frame = 0
 313              		@ frame_needed = 0, uses_anonymous_args = 0
 314              		@ link register save eliminated.
 315              	.LBB76:
 316              	.LBB77:
 317              	.LBB78:
 318              	.LBB79:
 319              		.loc 3 750 0
 320              	@ 750 "/d_drive/axoloti/platform_linux/../CMSIS//Include/cmsis_gcc.h" 1
 321 00f0 BFF34F8F 		dsb 0xF
 322              	@ 0 "" 2
 323              		.thumb
 324              	.LBE79:
 325              	.LBE78:
 326              		.loc 2 1915 0
 327 00f4 0549     		ldr	r1, .L23
 328              		.loc 2 1914 0
 329 00f6 064B     		ldr	r3, .L23+4
 330              		.loc 2 1915 0
 331 00f8 CA68     		ldr	r2, [r1, #12]
 332 00fa 02F4E062 		and	r2, r2, #1792
 333              		.loc 2 1914 0
 334 00fe 1343     		orrs	r3, r3, r2
 335 0100 CB60     		str	r3, [r1, #12]
 336              	.LBB80:
 337              	.LBB81:
 338              		.loc 3 750 0
ARM GAS  /tmp/ccL9X4rG.s 			page 7


 339              	@ 750 "/d_drive/axoloti/platform_linux/../CMSIS//Include/cmsis_gcc.h" 1
 340 0102 BFF34F8F 		dsb 0xF
 341              	@ 0 "" 2
 342              		.thumb
 343              	.L22:
 344              	.LBE81:
 345              	.LBE80:
 346              		.loc 2 1921 0
 347              	@ 1921 "/d_drive/axoloti/platform_linux/../CMSIS//Include/core_cm4.h" 1
 348 0106 00BF     		nop
 349              	@ 0 "" 2
 350              		.thumb
 351 0108 FDE7     		b	.L22
 352              	.L24:
 353 010a 00BF     		.align	2
 354              	.L23:
 355 010c 00ED00E0 		.word	-536810240
 356 0110 0400FA05 		.word	100270084
 357              	.LBE77:
 358              	.LBE76:
 359              		.cfi_endproc
 360              	.LFE127:
 361              		.size	HAL_NVIC_SystemReset, .-HAL_NVIC_SystemReset
 362              		.align	2
 363 0114 AFF30080 		.p2align 4,,15
 363      AFF30080 
 363      AFF30080 
 364              		.global	HAL_SYSTICK_Config
 365              		.thumb
 366              		.thumb_func
 367              		.type	HAL_SYSTICK_Config, %function
 368              	HAL_SYSTICK_Config:
 369              	.LFB128:
 370              		.loc 1 248 0
 371              		.cfi_startproc
 372              		@ args = 0, pretend = 0, frame = 0
 373              		@ frame_needed = 0, uses_anonymous_args = 0
 374              		@ link register save eliminated.
 375              	.LVL28:
 376              	.LBB82:
 377              	.LBB83:
 378              		.loc 2 1987 0
 379 0120 0138     		subs	r0, r0, #1
 380              	.LVL29:
 381 0122 B0F1807F 		cmp	r0, #16777216
 382 0126 0ED2     		bcs	.L27
 383              		.loc 2 1992 0
 384 0128 084B     		ldr	r3, .L30
 385              	.LBE83:
 386              	.LBE82:
 387              		.loc 1 248 0
 388 012a 10B4     		push	{r4}
 389              		.cfi_def_cfa_offset 4
 390              		.cfi_offset 4, -4
 391              	.LBB90:
 392              	.LBB88:
 393              	.LBB84:
ARM GAS  /tmp/ccL9X4rG.s 			page 8


 394              	.LBB85:
 395              		.loc 2 1795 0
 396 012c 084C     		ldr	r4, .L30+4
 397              	.LBE85:
 398              	.LBE84:
 399              		.loc 2 1992 0
 400 012e 5860     		str	r0, [r3, #4]
 401              	.LVL30:
 402              	.LBB87:
 403              	.LBB86:
 404              		.loc 2 1795 0
 405 0130 F020     		movs	r0, #240
 406              	.LVL31:
 407 0132 84F82300 		strb	r0, [r4, #35]
 408              	.LVL32:
 409              	.LBE86:
 410              	.LBE87:
 411              		.loc 2 1994 0
 412 0136 0022     		movs	r2, #0
 413              		.loc 2 1995 0
 414 0138 0721     		movs	r1, #7
 415              		.loc 2 1998 0
 416 013a 1046     		mov	r0, r2
 417              		.loc 2 1994 0
 418 013c 9A60     		str	r2, [r3, #8]
 419              		.loc 2 1995 0
 420 013e 1960     		str	r1, [r3]
 421              	.LBE88:
 422              	.LBE90:
 423              		.loc 1 250 0
 424 0140 5DF8044B 		ldr	r4, [sp], #4
 425              		.cfi_restore 4
 426              		.cfi_def_cfa_offset 0
 427 0144 7047     		bx	lr
 428              	.LVL33:
 429              	.L27:
 430              	.LBB91:
 431              	.LBB89:
 432              		.loc 2 1989 0
 433 0146 0120     		movs	r0, #1
 434 0148 7047     		bx	lr
 435              	.L31:
 436 014a 00BF     		.align	2
 437              	.L30:
 438 014c 10E000E0 		.word	-536813552
 439 0150 00ED00E0 		.word	-536810240
 440              	.LBE89:
 441              	.LBE91:
 442              		.cfi_endproc
 443              	.LFE128:
 444              		.size	HAL_SYSTICK_Config, .-HAL_SYSTICK_Config
 445              		.align	2
 446 0154 AFF30080 		.p2align 4,,15
 446      AFF30080 
 446      AFF30080 
 447              		.global	HAL_NVIC_GetPriorityGrouping
 448              		.thumb
ARM GAS  /tmp/ccL9X4rG.s 			page 9


 449              		.thumb_func
 450              		.type	HAL_NVIC_GetPriorityGrouping, %function
 451              	HAL_NVIC_GetPriorityGrouping:
 452              	.LFB129:
 453              		.loc 1 276 0
 454              		.cfi_startproc
 455              		@ args = 0, pretend = 0, frame = 0
 456              		@ frame_needed = 0, uses_anonymous_args = 0
 457              		@ link register save eliminated.
 458              	.LBB92:
 459              	.LBB93:
 460              		.loc 2 1649 0
 461 0160 024B     		ldr	r3, .L33
 462 0162 D868     		ldr	r0, [r3, #12]
 463              	.LBE93:
 464              	.LBE92:
 465              		.loc 1 279 0
 466 0164 C0F30220 		ubfx	r0, r0, #8, #3
 467 0168 7047     		bx	lr
 468              	.L34:
 469 016a 00BF     		.align	2
 470              	.L33:
 471 016c 00ED00E0 		.word	-536810240
 472              		.cfi_endproc
 473              	.LFE129:
 474              		.size	HAL_NVIC_GetPriorityGrouping, .-HAL_NVIC_GetPriorityGrouping
 475              		.align	2
 476              		.p2align 4,,15
 477              		.global	HAL_NVIC_GetPriority
 478              		.thumb
 479              		.thumb_func
 480              		.type	HAL_NVIC_GetPriority, %function
 481              	HAL_NVIC_GetPriority:
 482              	.LFB130:
 483              		.loc 1 303 0
 484              		.cfi_startproc
 485              		@ args = 0, pretend = 0, frame = 0
 486              		@ frame_needed = 0, uses_anonymous_args = 0
 487              		@ link register save eliminated.
 488              	.LVL34:
 489              	.LBB94:
 490              	.LBB95:
 491              		.loc 2 1812 0
 492 0170 0028     		cmp	r0, #0
 493              	.LVL35:
 494              	.LBE95:
 495              	.LBE94:
 496              		.loc 1 303 0
 497 0172 70B4     		push	{r4, r5, r6}
 498              		.cfi_def_cfa_offset 12
 499              		.cfi_offset 4, -12
 500              		.cfi_offset 5, -8
 501              		.cfi_offset 6, -4
 502              	.LBB98:
 503              	.LBB96:
 504              		.loc 2 1812 0
 505 0174 23DB     		blt	.L36
ARM GAS  /tmp/ccL9X4rG.s 			page 10


 506              		.loc 2 1814 0
 507 0176 00F16040 		add	r0, r0, #-536870912
 508 017a 00F56140 		add	r0, r0, #57600
 509 017e 90F80043 		ldrb	r4, [r0, #768]	@ zero_extendqisi2
 510 0182 2409     		lsrs	r4, r4, #4
 511              	.L37:
 512              	.LVL36:
 513              	.LBE96:
 514              	.LBE98:
 515              	.LBB99:
 516              	.LBB100:
 517              		.loc 2 1863 0
 518 0184 01F00701 		and	r1, r1, #7
 519              	.LVL37:
 520              		.loc 2 1867 0
 521 0188 C1F10706 		rsb	r6, r1, #7
 522 018c 042E     		cmp	r6, #4
 523              		.loc 2 1868 0
 524 018e 01F10400 		add	r0, r1, #4
 525              		.loc 2 1867 0
 526 0192 28BF     		it	cs
 527 0194 0426     		movcs	r6, #4
 528              	.LVL38:
 529              		.loc 2 1868 0
 530 0196 0628     		cmp	r0, #6
 531 0198 0ED9     		bls	.L39
 532 019a 0339     		subs	r1, r1, #3
 533              	.LVL39:
 534 019c 0125     		movs	r5, #1
 535 019e 8D40     		lsls	r5, r5, r1
 536 01a0 013D     		subs	r5, r5, #1
 537 01a2 2540     		ands	r5, r5, r4
 538              	.LVL40:
 539              	.L38:
 540              		.loc 2 1870 0
 541 01a4 0120     		movs	r0, #1
 542              	.LVL41:
 543 01a6 B040     		lsls	r0, r0, r6
 544 01a8 CC40     		lsrs	r4, r4, r1
 545              	.LVL42:
 546 01aa 0138     		subs	r0, r0, #1
 547 01ac 04EA0001 		and	r1, r4, r0
 548 01b0 1160     		str	r1, [r2]
 549              		.loc 2 1871 0
 550 01b2 1D60     		str	r5, [r3]
 551              	.LBE100:
 552              	.LBE99:
 553              		.loc 1 308 0
 554 01b4 70BC     		pop	{r4, r5, r6}
 555              		.cfi_remember_state
 556              		.cfi_restore 6
 557              		.cfi_restore 5
 558              		.cfi_restore 4
 559              		.cfi_def_cfa_offset 0
 560              	.LVL43:
 561 01b6 7047     		bx	lr
 562              	.LVL44:
ARM GAS  /tmp/ccL9X4rG.s 			page 11


 563              	.L39:
 564              		.cfi_restore_state
 565              	.LBB102:
 566              	.LBB101:
 567              		.loc 2 1868 0
 568 01b8 0025     		movs	r5, #0
 569 01ba 2946     		mov	r1, r5
 570              	.LVL45:
 571 01bc F2E7     		b	.L38
 572              	.LVL46:
 573              	.L36:
 574              	.LBE101:
 575              	.LBE102:
 576              	.LBB103:
 577              	.LBB97:
 578              		.loc 2 1818 0
 579 01be 034C     		ldr	r4, .L41
 580 01c0 00F00F00 		and	r0, r0, #15
 581 01c4 0444     		add	r4, r4, r0
 582 01c6 247E     		ldrb	r4, [r4, #24]	@ zero_extendqisi2
 583 01c8 2409     		lsrs	r4, r4, #4
 584 01ca DBE7     		b	.L37
 585              	.L42:
 586              		.align	2
 587              	.L41:
 588 01cc FCEC00E0 		.word	-536810244
 589              	.LBE97:
 590              	.LBE103:
 591              		.cfi_endproc
 592              	.LFE130:
 593              		.size	HAL_NVIC_GetPriority, .-HAL_NVIC_GetPriority
 594              		.align	2
 595              		.p2align 4,,15
 596              		.global	HAL_NVIC_SetPendingIRQ
 597              		.thumb
 598              		.thumb_func
 599              		.type	HAL_NVIC_SetPendingIRQ, %function
 600              	HAL_NVIC_SetPendingIRQ:
 601              	.LFB131:
 602              		.loc 1 318 0
 603              		.cfi_startproc
 604              		@ args = 0, pretend = 0, frame = 0
 605              		@ frame_needed = 0, uses_anonymous_args = 0
 606              		@ link register save eliminated.
 607              	.LVL47:
 608              	.LBB104:
 609              	.LBB105:
 610              		.loc 2 1735 0
 611 01d0 0028     		cmp	r0, #0
 612              	.LVL48:
 613 01d2 08DB     		blt	.L43
 614              		.loc 2 1737 0
 615 01d4 4309     		lsrs	r3, r0, #5
 616 01d6 4033     		adds	r3, r3, #64
 617 01d8 00F01F00 		and	r0, r0, #31
 618 01dc 0122     		movs	r2, #1
 619 01de 0249     		ldr	r1, .L45
ARM GAS  /tmp/ccL9X4rG.s 			page 12


 620 01e0 8240     		lsls	r2, r2, r0
 621 01e2 41F82320 		str	r2, [r1, r3, lsl #2]
 622              	.L43:
 623 01e6 7047     		bx	lr
 624              	.L46:
 625              		.align	2
 626              	.L45:
 627 01e8 00E100E0 		.word	-536813312
 628              	.LBE105:
 629              	.LBE104:
 630              		.cfi_endproc
 631              	.LFE131:
 632              		.size	HAL_NVIC_SetPendingIRQ, .-HAL_NVIC_SetPendingIRQ
 633              		.align	2
 634 01ec AFF30080 		.p2align 4,,15
 635              		.global	HAL_NVIC_GetPendingIRQ
 636              		.thumb
 637              		.thumb_func
 638              		.type	HAL_NVIC_GetPendingIRQ, %function
 639              	HAL_NVIC_GetPendingIRQ:
 640              	.LFB132:
 641              		.loc 1 336 0
 642              		.cfi_startproc
 643              		@ args = 0, pretend = 0, frame = 0
 644              		@ frame_needed = 0, uses_anonymous_args = 0
 645              		@ link register save eliminated.
 646              	.LVL49:
 647              	.LBB106:
 648              	.LBB107:
 649              		.loc 2 1716 0
 650 01f0 031E     		subs	r3, r0, #0
 651 01f2 0ADB     		blt	.L49
 652              		.loc 2 1718 0
 653 01f4 5A09     		lsrs	r2, r3, #5
 654 01f6 4032     		adds	r2, r2, #64
 655 01f8 0549     		ldr	r1, .L50
 656 01fa 51F82200 		ldr	r0, [r1, r2, lsl #2]
 657              	.LVL50:
 658 01fe 03F01F03 		and	r3, r3, #31
 659 0202 D840     		lsrs	r0, r0, r3
 660 0204 00F00100 		and	r0, r0, #1
 661 0208 7047     		bx	lr
 662              	.LVL51:
 663              	.L49:
 664              		.loc 2 1722 0
 665 020a 0020     		movs	r0, #0
 666              	.LVL52:
 667              	.LBE107:
 668              	.LBE106:
 669              		.loc 1 342 0
 670 020c 7047     		bx	lr
 671              	.L51:
 672 020e 00BF     		.align	2
 673              	.L50:
 674 0210 00E100E0 		.word	-536813312
 675              		.cfi_endproc
 676              	.LFE132:
ARM GAS  /tmp/ccL9X4rG.s 			page 13


 677              		.size	HAL_NVIC_GetPendingIRQ, .-HAL_NVIC_GetPendingIRQ
 678              		.align	2
 679 0214 AFF30080 		.p2align 4,,15
 679      AFF30080 
 679      AFF30080 
 680              		.global	HAL_NVIC_ClearPendingIRQ
 681              		.thumb
 682              		.thumb_func
 683              		.type	HAL_NVIC_ClearPendingIRQ, %function
 684              	HAL_NVIC_ClearPendingIRQ:
 685              	.LFB133:
 686              		.loc 1 352 0
 687              		.cfi_startproc
 688              		@ args = 0, pretend = 0, frame = 0
 689              		@ frame_needed = 0, uses_anonymous_args = 0
 690              		@ link register save eliminated.
 691              	.LVL53:
 692              	.LBB108:
 693              	.LBB109:
 694              		.loc 2 1750 0
 695 0220 0028     		cmp	r0, #0
 696              	.LVL54:
 697 0222 08DB     		blt	.L52
 698              		.loc 2 1752 0
 699 0224 4309     		lsrs	r3, r0, #5
 700 0226 6033     		adds	r3, r3, #96
 701 0228 00F01F00 		and	r0, r0, #31
 702 022c 0122     		movs	r2, #1
 703 022e 0249     		ldr	r1, .L54
 704 0230 8240     		lsls	r2, r2, r0
 705 0232 41F82320 		str	r2, [r1, r3, lsl #2]
 706              	.L52:
 707 0236 7047     		bx	lr
 708              	.L55:
 709              		.align	2
 710              	.L54:
 711 0238 00E100E0 		.word	-536813312
 712              	.LBE109:
 713              	.LBE108:
 714              		.cfi_endproc
 715              	.LFE133:
 716              		.size	HAL_NVIC_ClearPendingIRQ, .-HAL_NVIC_ClearPendingIRQ
 717              		.align	2
 718 023c AFF30080 		.p2align 4,,15
 719              		.global	HAL_NVIC_GetActive
 720              		.thumb
 721              		.thumb_func
 722              		.type	HAL_NVIC_GetActive, %function
 723              	HAL_NVIC_GetActive:
 724              	.LFB134:
 725              		.loc 1 369 0
 726              		.cfi_startproc
 727              		@ args = 0, pretend = 0, frame = 0
 728              		@ frame_needed = 0, uses_anonymous_args = 0
 729              		@ link register save eliminated.
 730              	.LVL55:
 731              	.LBB110:
ARM GAS  /tmp/ccL9X4rG.s 			page 14


 732              	.LBB111:
 733              		.loc 2 1767 0
 734 0240 031E     		subs	r3, r0, #0
 735 0242 0ADB     		blt	.L58
 736              		.loc 2 1769 0
 737 0244 5A09     		lsrs	r2, r3, #5
 738 0246 8032     		adds	r2, r2, #128
 739 0248 0549     		ldr	r1, .L59
 740 024a 51F82200 		ldr	r0, [r1, r2, lsl #2]
 741              	.LVL56:
 742 024e 03F01F03 		and	r3, r3, #31
 743 0252 D840     		lsrs	r0, r0, r3
 744 0254 00F00100 		and	r0, r0, #1
 745 0258 7047     		bx	lr
 746              	.LVL57:
 747              	.L58:
 748              		.loc 2 1773 0
 749 025a 0020     		movs	r0, #0
 750              	.LVL58:
 751              	.LBE111:
 752              	.LBE110:
 753              		.loc 1 375 0
 754 025c 7047     		bx	lr
 755              	.L60:
 756 025e 00BF     		.align	2
 757              	.L59:
 758 0260 00E100E0 		.word	-536813312
 759              		.cfi_endproc
 760              	.LFE134:
 761              		.size	HAL_NVIC_GetActive, .-HAL_NVIC_GetActive
 762              		.align	2
 763 0264 AFF30080 		.p2align 4,,15
 763      AFF30080 
 763      AFF30080 
 764              		.global	HAL_SYSTICK_CLKSourceConfig
 765              		.thumb
 766              		.thumb_func
 767              		.type	HAL_SYSTICK_CLKSourceConfig, %function
 768              	HAL_SYSTICK_CLKSourceConfig:
 769              	.LFB135:
 770              		.loc 1 386 0
 771              		.cfi_startproc
 772              		@ args = 0, pretend = 0, frame = 0
 773              		@ frame_needed = 0, uses_anonymous_args = 0
 774              		@ link register save eliminated.
 775              	.LVL59:
 776              		.loc 1 391 0
 777 0270 044A     		ldr	r2, .L64
 778 0272 1368     		ldr	r3, [r2]
 779              		.loc 1 389 0
 780 0274 0428     		cmp	r0, #4
 781              		.loc 1 391 0
 782 0276 0CBF     		ite	eq
 783 0278 43F00403 		orreq	r3, r3, #4
 784              		.loc 1 395 0
 785 027c 23F00403 		bicne	r3, r3, #4
 786 0280 1360     		str	r3, [r2]
ARM GAS  /tmp/ccL9X4rG.s 			page 15


 787 0282 7047     		bx	lr
 788              	.L65:
 789              		.align	2
 790              	.L64:
 791 0284 10E000E0 		.word	-536813552
 792              		.cfi_endproc
 793              	.LFE135:
 794              		.size	HAL_SYSTICK_CLKSourceConfig, .-HAL_SYSTICK_CLKSourceConfig
 795              		.align	2
 796 0288 AFF30080 		.p2align 4,,15
 796      AFF30080 
 797              		.weak	HAL_SYSTICK_Callback
 798              		.thumb
 799              		.thumb_func
 800              		.type	HAL_SYSTICK_Callback, %function
 801              	HAL_SYSTICK_Callback:
 802              	.LFB137:
 803              		.loc 1 413 0
 804              		.cfi_startproc
 805              		@ args = 0, pretend = 0, frame = 0
 806              		@ frame_needed = 0, uses_anonymous_args = 0
 807              		@ link register save eliminated.
 808 0290 7047     		bx	lr
 809              		.cfi_endproc
 810              	.LFE137:
 811              		.size	HAL_SYSTICK_Callback, .-HAL_SYSTICK_Callback
 812 0292 00BF     		.align	2
 813 0294 AFF30080 		.p2align 4,,15
 813      AFF30080 
 813      AFF30080 
 814              		.global	HAL_SYSTICK_IRQHandler
 815              		.thumb
 816              		.thumb_func
 817              		.type	HAL_SYSTICK_IRQHandler, %function
 818              	HAL_SYSTICK_IRQHandler:
 819              	.LFB136:
 820              		.loc 1 404 0
 821              		.cfi_startproc
 822              		@ args = 0, pretend = 0, frame = 0
 823              		@ frame_needed = 0, uses_anonymous_args = 0
 824              		.loc 1 404 0
 825 02a0 08B5     		push	{r3, lr}
 826              		.cfi_def_cfa_offset 8
 827              		.cfi_offset 3, -8
 828              		.cfi_offset 14, -4
 829              		.loc 1 405 0
 830 02a2 FFF7FEFF 		bl	HAL_SYSTICK_Callback
 831              	.LVL60:
 832 02a6 08BD     		pop	{r3, pc}
 833              		.cfi_endproc
 834              	.LFE136:
 835              		.size	HAL_SYSTICK_IRQHandler, .-HAL_SYSTICK_IRQHandler
 836              	.Letext0:
 837              		.file 4 "/d_drive/axoloti/platform_linux/arm-none-eabi/include/machine/_default_types.h"
 838              		.file 5 "/d_drive/axoloti/platform_linux/arm-none-eabi/include/sys/_stdint.h"
 839              		.file 6 "./stm32f427xx.h"