ARM GAS  /tmp/ccL9X4rG.s 			page 1


   1              		.syntax unified
   2              		.cpu cortex-m4
   3              		.eabi_attribute 27, 1
   4              		.eabi_attribute 28, 1
   5              		.fpu fpv4-sp-d16
   6              		.eabi_attribute 20, 1
   7              		.eabi_attribute 21, 1
   8              		.eabi_attribute 23, 3
   9              		.eabi_attribute 24, 1
  10              		.eabi_attribute 25, 1
  11              		.eabi_attribute 26, 1
  12              		.eabi_attribute 30, 2
  13              		.eabi_attribute 34, 1
  14              		.eabi_attribute 18, 4
  15              		.thumb
  16              		.file	"stm32f4xx_hal_cortex.c"
  17              		.text
  18              	.Ltext0:
  19              		.cfi_sections	.debug_frame
  20              		.align	2
  21              		.p2align 4,,15
  22              		.global	HAL_NVIC_SetPriorityGrouping
  23              		.thumb
  24              		.thumb_func
  25              		.type	HAL_NVIC_SetPriorityGrouping, %function
  26              	HAL_NVIC_SetPriorityGrouping:
  27              	.LFB123:
  28              		.file 1 "./STM32F4xx_HAL_Driver/Src/stm32f4xx_hal_cortex.c"
  29              		.loc 1 162 0
  30              		.cfi_startproc
  31              		@ args = 0, pretend = 0, frame = 0
  32              		@ frame_needed = 0, uses_anonymous_args = 0
  33              		@ link register save eliminated.
  34              	.LVL0:
  35              	.LBB46:
  36              	.LBB47:
  37              		.file 2 "/d_drive/axoloti/platform_linux/../CMSIS//Include/core_cm4.h"
  38              		.loc 2 1633 0
  39 0000 074A     		ldr	r2, .L2
  40 0002 D168     		ldr	r1, [r2, #12]
  41              	.LVL1:
  42              		.loc 2 1634 0
  43 0004 4FF6FF03 		movw	r3, #63743
  44 0008 0B40     		ands	r3, r3, r1
  45              	.LVL2:
  46 000a 43F0BF63 		orr	r3, r3, #100139008
  47              	.LVL3:
  48              		.loc 2 1631 0
  49 000e 00F00700 		and	r0, r0, #7
  50              	.LVL4:
  51 0012 43F40033 		orr	r3, r3, #131072
  52              		.loc 2 1635 0
  53 0016 43EA0023 		orr	r3, r3, r0, lsl #8
  54              	.LVL5:
  55              		.loc 2 1638 0
  56 001a D360     		str	r3, [r2, #12]
  57 001c 7047     		bx	lr
ARM GAS  /tmp/ccL9X4rG.s 			page 2


  58              	.L3:
  59 001e 00BF     		.align	2
  60              	.L2:
  61 0020 00ED00E0 		.word	-536810240
  62              	.LBE47:
  63              	.LBE46:
  64              		.cfi_endproc
  65              	.LFE123:
  66              		.size	HAL_NVIC_SetPriorityGrouping, .-HAL_NVIC_SetPriorityGrouping
  67              		.align	2
  68 0024 AFF30080 		.p2align 4,,15
  68      AFF30080 
  68      AFF30080 
  69              		.global	HAL_NVIC_SetPriority
  70              		.thumb
  71              		.thumb_func
  72              		.type	HAL_NVIC_SetPriority, %function
  73              	HAL_NVIC_SetPriority:
  74              	.LFB124:
  75              		.loc 1 184 0
  76              		.cfi_startproc
  77              		@ args = 0, pretend = 0, frame = 0
  78              		@ frame_needed = 0, uses_anonymous_args = 0
  79              		@ link register save eliminated.
  80              	.LVL6:
  81              	.LBB48:
  82              	.LBB49:
  83              		.loc 2 1649 0
  84 0030 184B     		ldr	r3, .L11
  85 0032 DB68     		ldr	r3, [r3, #12]
  86 0034 C3F30223 		ubfx	r3, r3, #8, #3
  87              	.LVL7:
  88              	.LBE49:
  89              	.LBE48:
  90              		.loc 1 184 0
  91 0038 30B4     		push	{r4, r5}
  92              		.cfi_def_cfa_offset 8
  93              		.cfi_offset 4, -8
  94              		.cfi_offset 5, -4
  95              	.LBB50:
  96              	.LBB51:
  97              		.loc 2 1840 0
  98 003a C3F10705 		rsb	r5, r3, #7
  99 003e 042D     		cmp	r5, #4
 100              		.loc 2 1841 0
 101 0040 03F10404 		add	r4, r3, #4
 102              	.LVL8:
 103              		.loc 2 1840 0
 104 0044 28BF     		it	cs
 105 0046 0425     		movcs	r5, #4
 106              	.LVL9:
 107              		.loc 2 1841 0
 108 0048 062C     		cmp	r4, #6
 109 004a 17D9     		bls	.L8
 110 004c 033B     		subs	r3, r3, #3
 111              	.LVL10:
 112 004e 0124     		movs	r4, #1
ARM GAS  /tmp/ccL9X4rG.s 			page 3


 113 0050 9C40     		lsls	r4, r4, r3
 114 0052 013C     		subs	r4, r4, #1
 115 0054 2240     		ands	r2, r2, r4
 116              	.LVL11:
 117              	.L5:
 118              		.loc 2 1844 0
 119 0056 0124     		movs	r4, #1
 120 0058 AC40     		lsls	r4, r4, r5
 121 005a 013C     		subs	r4, r4, #1
 122 005c 2140     		ands	r1, r1, r4
 123              	.LVL12:
 124 005e 9940     		lsls	r1, r1, r3
 125              	.LBE51:
 126              	.LBE50:
 127              	.LBB54:
 128              	.LBB55:
 129              		.loc 2 1789 0
 130 0060 0028     		cmp	r0, #0
 131              	.LBE55:
 132              	.LBE54:
 133              	.LBB58:
 134              	.LBB52:
 135              		.loc 2 1843 0
 136 0062 42EA0102 		orr	r2, r2, r1
 137              	.LVL13:
 138              	.LBE52:
 139              	.LBE58:
 140              	.LBB59:
 141              	.LBB56:
 142              		.loc 2 1789 0
 143 0066 0CDB     		blt	.L6
 144              		.loc 2 1791 0
 145 0068 00F16040 		add	r0, r0, #-536870912
 146              	.LVL14:
 147 006c 00F56140 		add	r0, r0, #57600
 148 0070 1201     		lsls	r2, r2, #4
 149              	.LVL15:
 150 0072 D2B2     		uxtb	r2, r2
 151 0074 80F80023 		strb	r2, [r0, #768]
 152              	.LBE56:
 153              	.LBE59:
 154              		.loc 1 194 0
 155 0078 30BC     		pop	{r4, r5}
 156              		.cfi_remember_state
 157              		.cfi_restore 5
 158              		.cfi_restore 4
 159              		.cfi_def_cfa_offset 0
 160              	.LVL16:
 161 007a 7047     		bx	lr
 162              	.LVL17:
 163              	.L8:
 164              		.cfi_restore_state
 165              	.LBB60:
 166              	.LBB53:
 167              		.loc 2 1841 0
 168 007c 0022     		movs	r2, #0
 169              	.LVL18:
ARM GAS  /tmp/ccL9X4rG.s 			page 4


 170 007e 1346     		mov	r3, r2
 171              	.LVL19:
 172 0080 E9E7     		b	.L5
 173              	.LVL20:
 174              	.L6:
 175              	.LBE53:
 176              	.LBE60:
 177              	.LBB61:
 178              	.LBB57:
 179              		.loc 2 1795 0
 180 0082 054B     		ldr	r3, .L11+4
 181 0084 00F00F00 		and	r0, r0, #15
 182              	.LVL21:
 183 0088 1201     		lsls	r2, r2, #4
 184              	.LVL22:
 185 008a 0344     		add	r3, r3, r0
 186 008c D2B2     		uxtb	r2, r2
 187 008e 1A76     		strb	r2, [r3, #24]
 188              	.LBE57:
 189              	.LBE61:
 190              		.loc 1 194 0
 191 0090 30BC     		pop	{r4, r5}
 192              		.cfi_restore 4
 193              		.cfi_restore 5
 194              		.cfi_def_cfa_offset 0
 195              	.LVL23:
 196 0092 7047     		bx	lr
 197              	.L12:
 198              		.align	2
 199              	.L11:
 200 0094 00ED00E0 		.word	-536810240
 201 0098 FCEC00E0 		.word	-536810244
 202              		.cfi_endproc
 203              	.LFE124:
 204              		.size	HAL_NVIC_SetPriority, .-HAL_NVIC_SetPriority
 205              		.align	2
 206 009c AFF30080 		.p2align 4,,15
 207              		.global	HAL_NVIC_EnableIRQ
 208              		.thumb
 209              		.thumb_func
 210              		.type	HAL_NVIC_EnableIRQ, %function
 211              	HAL_NVIC_EnableIRQ:
 212              	.LFB125:
 213              		.loc 1 206 0
 214              		.cfi_startproc
 215              		@ args = 0, pretend = 0, frame = 0
 216              		@ frame_needed = 0, uses_anonymous_args = 0
 217              		@ link register save eliminated.
 218              	.LVL24:
 219              	.LBB62:
 220              	.LBB63:
 221              		.loc 2 1661 0
 222 00a0 0028     		cmp	r0, #0
 223              	.LVL25:
 224 00a2 07DB     		blt	.L13
 225              		.loc 2 1663 0
 226 00a4 00F01F01 		and	r1, r0, #31
ARM GAS  /tmp/ccL9X4rG.s 			page 5


 227 00a8 0123     		movs	r3, #1
 228 00aa 4009     		lsrs	r0, r0, #5
 229 00ac 024A     		ldr	r2, .L15
 230 00ae 8B40     		lsls	r3, r3, r1
 231 00b0 42F82030 		str	r3, [r2, r0, lsl #2]
 232              	.L13:
 233 00b4 7047     		bx	lr
 234              	.L16:
 235 00b6 00BF     		.align	2
 236              	.L15:
 237 00b8 00E100E0 		.word	-536813312
 238              	.LBE63:
 239              	.LBE62:
 240              		.cfi_endproc
 241              	.LFE125:
 242              		.size	HAL_NVIC_EnableIRQ, .-HAL_NVIC_EnableIRQ
 243              		.align	2
 244 00bc AFF30080 		.p2align 4,,15
 245              		.global	HAL_NVIC_DisableIRQ
 246              		.thumb
 247              		.thumb_func
 248              		.type	HAL_NVIC_DisableIRQ, %function
 249              	HAL_NVIC_DisableIRQ:
 250              	.LFB126:
 251              		.loc 1 222 0
 252              		.cfi_startproc
 253              		@ args = 0, pretend = 0, frame = 0
 254              		@ frame_needed = 0, uses_anonymous_args = 0
 255              		@ link register save eliminated.
 256              	.LVL26:
 257              	.LBB64:
 258              	.LBB65:
 259              		.loc 2 1697 0
 260 00c0 0028     		cmp	r0, #0
 261              	.LVL27:
 262 00c2 0CDB     		blt	.L17
 263              		.loc 2 1699 0
 264 00c4 4309     		lsrs	r3, r0, #5
 265 00c6 2033     		adds	r3, r3, #32
 266 00c8 00F01F00 		and	r0, r0, #31
 267 00cc 0449     		ldr	r1, .L19
 268 00ce 0122     		movs	r2, #1
 269 00d0 8240     		lsls	r2, r2, r0
 270 00d2 41F82320 		str	r2, [r1, r3, lsl #2]
 271              	.LBB66:
 272              	.LBB67:
 273              		.file 3 "/d_drive/axoloti/platform_linux/../CMSIS//Include/cmsis_gcc.h"
 274              		.loc 3 750 0
 275              	@ 750 "/d_drive/axoloti/platform_linux/../CMSIS//Include/cmsis_gcc.h" 1
 276 00d6 BFF34F8F 		dsb 0xF
 277              	@ 0 "" 2
 278              		.thumb
 279              	.LBE67:
 280              	.LBE66:
 281              	.LBB68:
 282              	.LBB69:
 283              		.loc 3 739 0
ARM GAS  /tmp/ccL9X4rG.s 			page 6


 284              	@ 739 "/d_drive/axoloti/platform_linux/../CMSIS//Include/cmsis_gcc.h" 1
 285 00da BFF36F8F 		isb 0xF
 286              	@ 0 "" 2
 287              		.thumb
 288              	.L17:
 289 00de 7047     		bx	lr
 290              	.L20:
 291              		.align	2
 292              	.L19:
 293 00e0 00E100E0 		.word	-536813312
 294              	.LBE69:
 295              	.LBE68:
 296              	.LBE65:
 297              	.LBE64:
 298              		.cfi_endproc
 299              	.LFE126:
 300              		.size	HAL_NVIC_DisableIRQ, .-HAL_NVIC_DisableIRQ
 301              		.align	2
 302 00e4 AFF30080 		.p2align 4,,15
 302      AFF30080 
 302      AFF30080 
 303              		.global	HAL_NVIC_SystemReset
 304              		.thumb
 305              		.thumb_func
 306              		.type	HAL_NVIC_SystemReset, %function
 307              	HAL_NVIC_SystemReset:
 308              	.LFB127:
 309              		.loc 1 235 0
 310              		.cfi_startproc
 311              		@ Volatile: function does not return.
 312              		@ args = 0, pretend = 0, frame = 0
 313              		@ frame_needed = 0, uses_anonymous_args = 0
 314              		@ link register save eliminated.
 315              	.LBB76:
 316              	.LBB77:
 317              	.LBB78:
 318              	.LBB79:
 319              		.loc 3 750 0
 320              	@ 750 "/d_drive/axoloti/platform_linux/../CMSIS//Include/cmsis_gcc.h" 1
 321 00f0 BFF34F8F 		dsb 0xF
 322              	@ 0 "" 2
 323              		.thumb
 324              	.LBE79:
 325              	.LBE78:
 326              		.loc 2 1915 0
 327 00f4 0549     		ldr	r1, .L23
 328              		.loc 2 1914 0
 329 00f6 064B     		ldr	r3, .L23+4
 330              		.loc 2 1915 0
 331 00f8 CA68     		ldr	r2, [r1, #12]
 332 00fa 02F4E062 		and	r2, r2, #1792
 333              		.loc 2 1914 0
 334 00fe 1343     		orrs	r3, r3, r2
 335 0100 CB60     		str	r3, [r1, #12]
 336              	.LBB80:
 337              	.LBB81:
 338              		.loc 3 750 0
ARM GAS  /tmp/ccL9X4rG.s 			page 7


 339              	@ 750 "/d_drive/axoloti/platform_linux/../CMSIS//Include/cmsis_gcc.h" 1
 340 0102 BFF34F8F 		dsb 0xF
 341              	@ 0 "" 2
 342              		.thumb
 343              	.L22:
 344              	.LBE81:
 345              	.LBE80:
 346              		.loc 2 1921 0
 347              	@ 1921 "/d_drive/axoloti/platform_linux/../CMSIS//Include/core_cm4.h" 1
 348 0106 00BF     		nop
 349              	@ 0 "" 2
 350              		.thumb
 351 0108 FDE7     		b	.L22
 352              	.L24:
 353 010a 00BF     		.align	2
 354              	.L23:
 355 010c 00ED00E0 		.word	-536810240
 356 0110 0400FA05 		.word	100270084
 357              	.LBE77:
 358              	.LBE76:
 359              		.cfi_endproc
 360              	.LFE127:
 361              		.size	HAL_NVIC_SystemReset, .-HAL_NVIC_SystemReset
 362              		.align	2
 363 0114 AFF30080 		.p2align 4,,15
 363      AFF30080 
 363      AFF30080 
 364              		.global	HAL_SYSTICK_Config
 365              		.thumb
 366              		.thumb_func
 367              		.type	HAL_SYSTICK_Config, %function
 368              	HAL_SYSTICK_Config:
 369              	.LFB128:
 370              		.loc 1 248 0
 371              		.cfi_startproc
 372              		@ args = 0, pretend = 0, frame = 0
 373              		@ frame_needed = 0, uses_anonymous_args = 0
 374              		@ link register save eliminated.
 375              	.LVL28:
 376              	.LBB82:
 377              	.LBB83:
 378              		.loc 2 1987 0
 379 0120 0138     		subs	r0, r0, #1
 380              	.LVL29:
 381 0122 B0F1807F 		cmp	r0, #16777216
 382 0126 0ED2     		bcs	.L27
 383              		.loc 2 1992 0
 384 0128 084B     		ldr	r3, .L30
 385              	.LBE83:
 386              	.LBE82:
 387              		.loc 1 248 0
 388 012a 10B4     		push	{r4}
 389              		.cfi_def_cfa_offset 4
 390              		.cfi_offset 4, -4
 391              	.LBB90:
 392              	.LBB88:
 393              	.LBB84:
ARM GAS  /tmp/ccL9X4rG.s 			page 8


 394              	.LBB85:
 395              		.loc 2 1795 0
 396 012c 084C     		ldr	r4, .L30+4
 397              	.LBE85:
 398              	.LBE84:
 399              		.loc 2 1992 0
 400 012e 5860     		str	r0, [r3, #4]
 401              	.LVL30:
 402              	.LBB87:
 403              	.LBB86:
 404              		.loc 2 1795 0
 405 0130 F020     		movs	r0, #240
 406              	.LVL31:
 407 0132 84F82300 		strb	r0, [r4, #35]
 408              	.LVL32:
 409              	.LBE86:
 410              	.LBE87:
 411              		.loc 2 1994 0
 412 0136 0022     		movs	r2, #0
 413              		.loc 2 1995 0
 414 0138 0721     		movs	r1, #7
 415              		.loc 2 1998 0
 416 013a 1046     		mov	r0, r2
 417              		.loc 2 1994 0
 418 013c 9A60     		str	r2, [r3, #8]
 419              		.loc 2 1995 0
 420 013e 1960     		str	r1, [r3]
 421              	.LBE88:
 422              	.LBE90:
 423              		.loc 1 250 0
 424 0140 5DF8044B 		ldr	r4, [sp], #4
 425              		.cfi_restore 4
 426              		.cfi_def_cfa_offset 0
 427 0144 7047     		bx	lr
 428              	.LVL33:
 429              	.L27:
 430              	.LBB91:
 431              	.LBB89:
 432              		.loc 2 1989 0
 433 0146 0120     		movs	r0, #1
 434 0148 7047     		bx	lr
 435              	.L31:
 436 014a 00BF     		.align	2
 437              	.L30:
 438 014c 10E000E0 		.word	-536813552
 439 0150 00ED00E0 		.word	-536810240
 440              	.LBE89:
 441              	.LBE91:
 442              		.cfi_endproc
 443              	.LFE128:
 444              		.size	HAL_SYSTICK_Config, .-HAL_SYSTICK_Config
 445              		.align	2
 446 0154 AFF30080 		.p2align 4,,15
 446      AFF30080 
 446      AFF30080 
 447              		.global	HAL_NVIC_GetPriorityGrouping
 448              		.thumb
ARM GAS  /tmp/ccL9X4rG.s 			page 9


 449              		.thumb_func
 450              		.type	HAL_NVIC_GetPriorityGrouping, %function
 451              	HAL_NVIC_GetPriorityGrouping:
 452              	.LFB129:
 453              		.loc 1 276 0
 454              		.cfi_startproc
 455              		@ args = 0, pretend = 0, frame = 0
 456              		@ frame_needed = 0, uses_anonymous_args = 0
 457              		@ link register save eliminated.
 458              	.LBB92:
 459              	.LBB93:
 460              		.loc 2 1649 0
 461 0160 024B     		ldr	r3, .L33
 462 0162 D868     		ldr	r0, [r3, #12]
 463              	.LBE93:
 464              	.LBE92:
 465              		.loc 1 279 0
 466 0164 C0F30220 		ubfx	r0, r0, #8, #3
 467 0168 7047     		bx	lr
 468              	.L34:
 469 016a 00BF     		.align	2
 470              	.L33:
 471 016c 00ED00E0 		.word	-536810240
 472              		.cfi_endproc
 473              	.LFE129:
 474              		.size	HAL_NVIC_GetPriorityGrouping, .-HAL_NVIC_GetPriorityGrouping
 475              		.align	2
 476              		.p2align 4,,15
 477              		.global	HAL_NVIC_GetPriority
 478              		.thumb
 479              		.thumb_func
 480              		.type	HAL_NVIC_GetPriority, %function
 481              	HAL_NVIC_GetPriority:
 482              	.LFB130:
 483              		.loc 1 303 0
 484              		.cfi_startproc
 485              		@ args = 0, pretend = 0, frame = 0
 486              		@ frame_needed = 0, uses_anonymous_args = 0
 487              		@ link register save eliminated.
 488              	.LVL34:
 489              	.LBB94:
 490              	.LBB95:
 491              		.loc 2 1812 0
 492 0170 0028     		cmp	r0, #0
 493              	.LVL35:
 494              	.LBE95:
 495              	.LBE94:
 496              		.loc 1 303 0
 497 0172 70B4     		push	{r4, r5, r6}
 498              		.cfi_def_cfa_offset 12
 499              		.cfi_offset 4, -12
 500              		.cfi_offset 5, -8
 501              		.cfi_offset 6, -4
 502              	.LBB98:
 503              	.LBB96:
 504              		.loc 2 1812 0
 505 0174 23DB     		blt	.L36
ARM GAS  /tmp/ccL9X4rG.s 			page 10


 506              		.loc 2 1814 0
 507 0176 00F16040 		add	r0, r0, #-536870912
 508 017a 00F56140 		add	r0, r0, #57600
 509 017e 90F80043 		ldrb	r4, [r0, #768]	@ zero_extendqisi2
 510 0182 2409     		lsrs	r4, r4, #4
 511              	.L37:
 512              	.LVL36:
 513              	.LBE96:
 514              	.LBE98:
 515              	.LBB99:
 516              	.LBB100:
 517              		.loc 2 1863 0
 518 0184 01F00701 		and	r1, r1, #7
 519              	.LVL37:
 520              		.loc 2 1867 0
 521 0188 C1F10706 		rsb	r6, r1, #7
 522 018c 042E     		cmp	r6, #4
 523              		.loc 2 1868 0
 524 018e 01F10400 		add	r0, r1, #4
 525              		.loc 2 1867 0
 526 0192 28BF     		it	cs
 527 0194 0426     		movcs	r6, #4
 528              	.LVL38:
 529              		.loc 2 1868 0
 530 0196 0628     		cmp	r0, #6
 531 0198 0ED9     		bls	.L39
 532 019a 0339     		subs	r1, r1, #3
 533              	.LVL39:
 534 019c 0125     		movs	r5, #1
 535 019e 8D40     		lsls	r5, r5, r1
 536 01a0 013D     		subs	r5, r5, #1
 537 01a2 2540     		ands	r5, r5, r4
 538              	.LVL40:
 539              	.L38:
 540              		.loc 2 1870 0
 541 01a4 0120     		movs	r0, #1
 542              	.LVL41:
 543 01a6 B040     		lsls	r0, r0, r6
 544 01a8 CC40     		lsrs	r4, r4, r1
 545              	.LVL42:
 546 01aa 0138     		subs	r0, r0, #1
 547 01ac 04EA0001 		and	r1, r4, r0
 548 01b0 1160     		str	r1, [r2]
 549              		.loc 2 1871 0
 550 01b2 1D60     		str	r5, [r3]
 551              	.LBE100:
 552              	.LBE99:
 553              		.loc 1 308 0
 554 01b4 70BC     		pop	{r4, r5, r6}
 555              		.cfi_remember_state
 556              		.cfi_restore 6
 557              		.cfi_restore 5
 558              		.cfi_restore 4
 559              		.cfi_def_cfa_offset 0
 560              	.LVL43:
 561 01b6 7047     		bx	lr
 562              	.LVL44:
ARM GAS  /tmp/ccL9X4rG.s 			page 11


 563              	.L39:
 564              		.cfi_restore_state
 565              	.LBB102:
 566              	.LBB101:
 567              		.loc 2 1868 0
 568 01b8 0025     		movs	r5, #0
 569 01ba 2946     		mov	r1, r5
 570              	.LVL45:
 571 01bc F2E7     		b	.L38
 572              	.LVL46:
 573              	.L36:
 574              	.LBE101:
 575              	.LBE102:
 576              	.LBB103:
 577              	.LBB97:
 578              		.loc 2 1818 0
 579 01be 034C     		ldr	r4, .L41
 580 01c0 00F00F00 		and	r0, r0, #15
 581 01c4 0444     		add	r4, r4, r0
 582 01c6 247E     		ldrb	r4, [r4, #24]	@ zero_extendqisi2
 583 01c8 2409     		lsrs	r4, r4, #4
 584 01ca DBE7     		b	.L37
 585              	.L42:
 586              		.align	2
 587              	.L41:
 588 01cc FCEC00E0 		.word	-536810244
 589              	.LBE97:
 590              	.LBE103:
 591              		.cfi_endproc
 592              	.LFE130:
 593              		.size	HAL_NVIC_GetPriority, .-HAL_NVIC_GetPriority
 594              		.align	2
 595              		.p2align 4,,15
 596              		.global	HAL_NVIC_SetPendingIRQ
 597              		.thumb
 598              		.thumb_func
 599              		.type	HAL_NVIC_SetPendingIRQ, %function
 600              	HAL_NVIC_SetPendingIRQ:
 601              	.LFB131:
 602              		.loc 1 318 0
 603              		.cfi_startproc
 604              		@ args = 0, pretend = 0, frame = 0
 605              		@ frame_needed = 0, uses_anonymous_args = 0
 606              		@ link register save eliminated.
 607              	.LVL47:
 608              	.LBB104:
 609              	.LBB105:
 610              		.loc 2 1735 0
 611 01d0 0028     		cmp	r0, #0
 612              	.LVL48:
 613 01d2 08DB     		blt	.L43
 614              		.loc 2 1737 0
 615 01d4 4309     		lsrs	r3, r0, #5
 616 01d6 4033     		adds	r3, r3, #64
 617 01d8 00F01F00 		and	r0, r0, #31
 618 01dc 0122     		movs	r2, #1
 619 01de 0249     		ldr	r1, .L45
ARM GAS  /tmp/ccL9X4rG.s 			page 12


 620 01e0 8240     		lsls	r2, r2, r0
 621 01e2 41F82320 		str	r2, [r1, r3, lsl #2]
 622              	.L43:
 623 01e6 7047     		bx	lr
 624              	.L46:
 625              		.align	2
 626              	.L45:
 627 01e8 00E100E0 		.word	-536813312
 628              	.LBE105:
 629              	.LBE104:
 630              		.cfi_endproc
 631              	.LFE131:
 632              		.size	HAL_NVIC_SetPendingIRQ, .-HAL_NVIC_SetPendingIRQ
 633              		.align	2
 634 01ec AFF30080 		.p2align 4,,15
 635              		.global	HAL_NVIC_GetPendingIRQ
 636              		.thumb
 637              		.thumb_func
 638              		.type	HAL_NVIC_GetPendingIRQ, %function
 639              	HAL_NVIC_GetPendingIRQ:
 640              	.LFB132:
 641              		.loc 1 336 0
 642              		.cfi_startproc
 643              		@ args = 0, pretend = 0, frame = 0
 644              		@ frame_needed = 0, uses_anonymous_args = 0
 645              		@ link register save eliminated.
 646              	.LVL49:
 647              	.LBB106:
 648              	.LBB107:
 649              		.loc 2 1716 0
 650 01f0 031E     		subs	r3, r0, #0
 651 01f2 0ADB     		blt	.L49
 652              		.loc 2 1718 0
 653 01f4 5A09     		lsrs	r2, r3, #5
 654 01f6 4032     		adds	r2, r2, #64
 655 01f8 0549     		ldr	r1, .L50
 656 01fa 51F82200 		ldr	r0, [r1, r2, lsl #2]
 657              	.LVL50:
 658 01fe 03F01F03 		and	r3, r3, #31
 659 0202 D840     		lsrs	r0, r0, r3
 660 0204 00F00100 		and	r0, r0, #1
 661 0208 7047     		bx	lr
 662              	.LVL51:
 663              	.L49:
 664              		.loc 2 1722 0
 665 020a 0020     		movs	r0, #0
 666              	.LVL52:
 667              	.LBE107:
 668              	.LBE106:
 669              		.loc 1 342 0
 670 020c 7047     		bx	lr
 671              	.L51:
 672 020e 00BF     		.align	2
 673              	.L50:
 674 0210 00E100E0 		.word	-536813312
 675              		.cfi_endproc
 676              	.LFE132:
ARM GAS  /tmp/ccL9X4rG.s 			page 13


 677              		.size	HAL_NVIC_GetPendingIRQ, .-HAL_NVIC_GetPendingIRQ
 678              		.align	2
 679 0214 AFF30080 		.p2align 4,,15
 679      AFF30080 
 679      AFF30080 
 680              		.global	HAL_NVIC_ClearPendingIRQ
 681              		.thumb
 682              		.thumb_func
 683              		.type	HAL_NVIC_ClearPendingIRQ, %function
 684              	HAL_NVIC_ClearPendingIRQ:
 685              	.LFB133:
 686              		.loc 1 352 0
 687              		.cfi_startproc
 688              		@ args = 0, pretend = 0, frame = 0
 689              		@ frame_needed = 0, uses_anonymous_args = 0
 690              		@ link register save eliminated.
 691              	.LVL53:
 692              	.LBB108:
 693              	.LBB109:
 694              		.loc 2 1750 0
 695 0220 0028     		cmp	r0, #0
 696              	.LVL54:
 697 0222 08DB     		blt	.L52
 698              		.loc 2 1752 0
 699 0224 4309     		lsrs	r3, r0, #5
 700 0226 6033     		adds	r3, r3, #96
 701 0228 00F01F00 		and	r0, r0, #31
 702 022c 0122     		movs	r2, #1
 703 022e 0249     		ldr	r1, .L54
 704 0230 8240     		lsls	r2, r2, r0
 705 0232 41F82320 		str	r2, [r1, r3, lsl #2]
 706              	.L52:
 707 0236 7047     		bx	lr
 708              	.L55:
 709              		.align	2
 710              	.L54:
 711 0238 00E100E0 		.word	-536813312
 712              	.LBE109:
 713              	.LBE108:
 714              		.cfi_endproc
 715              	.LFE133:
 716              		.size	HAL_NVIC_ClearPendingIRQ, .-HAL_NVIC_ClearPendingIRQ
 717              		.align	2
 718 023c AFF30080 		.p2align 4,,15
 719              		.global	HAL_NVIC_GetActive
 720              		.thumb
 721              		.thumb_func
 722              		.type	HAL_NVIC_GetActive, %function
 723              	HAL_NVIC_GetActive:
 724              	.LFB134:
 725              		.loc 1 369 0
 726              		.cfi_startproc
 727              		@ args = 0, pretend = 0, frame = 0
 728              		@ frame_needed = 0, uses_anonymous_args = 0
 729              		@ link register save eliminated.
 730              	.LVL55:
 731              	.LBB110:
ARM GAS  /tmp/ccL9X4rG.s 			page 14


 732              	.LBB111:
 733              		.loc 2 1767 0
 734 0240 031E     		subs	r3, r0, #0
 735 0242 0ADB     		blt	.L58
 736              		.loc 2 1769 0
 737 0244 5A09     		lsrs	r2, r3, #5
 738 0246 8032     		adds	r2, r2, #128
 739 0248 0549     		ldr	r1, .L59
 740 024a 51F82200 		ldr	r0, [r1, r2, lsl #2]
 741              	.LVL56:
 742 024e 03F01F03 		and	r3, r3, #31
 743 0252 D840     		lsrs	r0, r0, r3
 744 0254 00F00100 		and	r0, r0, #1
 745 0258 7047     		bx	lr
 746              	.LVL57:
 747              	.L58:
 748              		.loc 2 1773 0
 749 025a 0020     		movs	r0, #0
 750              	.LVL58:
 751              	.LBE111:
 752              	.LBE110:
 753              		.loc 1 375 0
 754 025c 7047     		bx	lr
 755              	.L60:
 756 025e 00BF     		.align	2
 757              	.L59:
 758 0260 00E100E0 		.word	-536813312
 759              		.cfi_endproc
 760              	.LFE134:
 761              		.size	HAL_NVIC_GetActive, .-HAL_NVIC_GetActive
 762              		.align	2
 763 0264 AFF30080 		.p2align 4,,15
 763      AFF30080 
 763      AFF30080 
 764              		.global	HAL_SYSTICK_CLKSourceConfig
 765              		.thumb
 766              		.thumb_func
 767              		.type	HAL_SYSTICK_CLKSourceConfig, %function
 768              	HAL_SYSTICK_CLKSourceConfig:
 769              	.LFB135:
 770              		.loc 1 386 0
 771              		.cfi_startproc
 772              		@ args = 0, pretend = 0, frame = 0
 773              		@ frame_needed = 0, uses_anonymous_args = 0
 774              		@ link register save eliminated.
 775              	.LVL59:
 776              		.loc 1 391 0
 777 0270 044A     		ldr	r2, .L64
 778 0272 1368     		ldr	r3, [r2]
 779              		.loc 1 389 0
 780 0274 0428     		cmp	r0, #4
 781              		.loc 1 391 0
 782 0276 0CBF     		ite	eq
 783 0278 43F00403 		orreq	r3, r3, #4
 784              		.loc 1 395 0
 785 027c 23F00403 		bicne	r3, r3, #4
 786 0280 1360     		str	r3, [r2]
ARM GAS  /tmp/ccL9X4rG.s 			page 15


 787 0282 7047     		bx	lr
 788              	.L65:
 789              		.align	2
 790              	.L64:
 791 0284 10E000E0 		.word	-536813552
 792              		.cfi_endproc
 793              	.LFE135:
 794              		.size	HAL_SYSTICK_CLKSourceConfig, .-HAL_SYSTICK_CLKSourceConfig
 795              		.align	2
 796 0288 AFF30080 		.p2align 4,,15
 796      AFF30080 
 797              		.weak	HAL_SYSTICK_Callback
 798              		.thumb
 799              		.thumb_func
 800              		.type	HAL_SYSTICK_Callback, %function
 801              	HAL_SYSTICK_Callback:
 802              	.LFB137:
 803              		.loc 1 413 0
 804              		.cfi_startproc
 805              		@ args = 0, pretend = 0, frame = 0
 806              		@ frame_needed = 0, uses_anonymous_args = 0
 807              		@ link register save eliminated.
 808 0290 7047     		bx	lr
 809              		.cfi_endproc
 810              	.LFE137:
 811              		.size	HAL_SYSTICK_Callback, .-HAL_SYSTICK_Callback
 812 0292 00BF     		.align	2
 813 0294 AFF30080 		.p2align 4,,15
 813      AFF30080 
 813      AFF30080 
 814              		.global	HAL_SYSTICK_IRQHandler
 815              		.thumb
 816              		.thumb_func
 817              		.type	HAL_SYSTICK_IRQHandler, %function
 818              	HAL_SYSTICK_IRQHandler:
 819              	.LFB136:
 820              		.loc 1 404 0
 821              		.cfi_startproc
 822              		@ args = 0, pretend = 0, frame = 0
 823              		@ frame_needed = 0, uses_anonymous_args = 0
 824              		.loc 1 404 0
 825 02a0 08B5     		push	{r3, lr}
 826              		.cfi_def_cfa_offset 8
 827              		.cfi_offset 3, -8
 828              		.cfi_offset 14, -4
 829              		.loc 1 405 0
 830 02a2 FFF7FEFF 		bl	HAL_SYSTICK_Callback
 831              	.LVL60:
 832 02a6 08BD     		pop	{r3, pc}
 833              		.cfi_endproc
 834              	.LFE136:
 835              		.size	HAL_SYSTICK_IRQHandler, .-HAL_SYSTICK_IRQHandler
 836              	.Letext0:
 837              		.file 4 "/d_drive/axoloti/platform_linux/arm-none-eabi/include/machine/_default_types.h"
 838              		.file 5 "/d_drive/axoloti/platform_linux/arm-none-eabi/include/sys/_stdint.h"
 839              		.file 6 "./stm32f427xx.h"
 840              		.section	.debug_info,"",%progbits
ARM GAS  /tmp/ccL9X4rG.s 			page 16


 841              	.Ldebug_info0:
 842 0000 320D0000 		.4byte	0xd32
 843 0004 0400     		.2byte	0x4
 844 0006 00000000 		.4byte	.Ldebug_abbrev0
 845 000a 04       		.byte	0x4
 846 000b 01       		.uleb128 0x1
 847 000c B9090000 		.4byte	.LASF190
 848 0010 01       		.byte	0x1
 849 0011 22040000 		.4byte	.LASF191
 850 0015 6F060000 		.4byte	.LASF192
 851 0019 00000000 		.4byte	.Ltext0
 852 001d A8020000 		.4byte	.Letext0-.Ltext0
 853 0021 00000000 		.4byte	.Ldebug_line0
 854 0025 02       		.uleb128 0x2
 855 0026 01       		.byte	0x1
 856 0027 06       		.byte	0x6
 857 0028 4C010000 		.4byte	.LASF0
 858 002c 03       		.uleb128 0x3
 859 002d 73000000 		.4byte	.LASF4
 860 0031 04       		.byte	0x4
 861 0032 1D       		.byte	0x1d
 862 0033 37000000 		.4byte	0x37
 863 0037 02       		.uleb128 0x2
 864 0038 01       		.byte	0x1
 865 0039 08       		.byte	0x8
 866 003a EA060000 		.4byte	.LASF1
 867 003e 02       		.uleb128 0x2
 868 003f 02       		.byte	0x2
 869 0040 05       		.byte	0x5
 870 0041 49070000 		.4byte	.LASF2
 871 0045 02       		.uleb128 0x2
 872 0046 02       		.byte	0x2
 873 0047 07       		.byte	0x7
 874 0048 8E070000 		.4byte	.LASF3
 875 004c 03       		.uleb128 0x3
 876 004d AD080000 		.4byte	.LASF5
 877 0051 04       		.byte	0x4
 878 0052 3F       		.byte	0x3f
 879 0053 57000000 		.4byte	0x57
 880 0057 02       		.uleb128 0x2
 881 0058 04       		.byte	0x4
 882 0059 05       		.byte	0x5
 883 005a BD010000 		.4byte	.LASF6
 884 005e 03       		.uleb128 0x3
 885 005f AB020000 		.4byte	.LASF7
 886 0063 04       		.byte	0x4
 887 0064 41       		.byte	0x41
 888 0065 69000000 		.4byte	0x69
 889 0069 02       		.uleb128 0x2
 890 006a 04       		.byte	0x4
 891 006b 07       		.byte	0x7
 892 006c 7B030000 		.4byte	.LASF8
 893 0070 02       		.uleb128 0x2
 894 0071 08       		.byte	0x8
 895 0072 05       		.byte	0x5
 896 0073 3E010000 		.4byte	.LASF9
 897 0077 02       		.uleb128 0x2
ARM GAS  /tmp/ccL9X4rG.s 			page 17


 898 0078 08       		.byte	0x8
 899 0079 07       		.byte	0x7
 900 007a BA000000 		.4byte	.LASF10
 901 007e 04       		.uleb128 0x4
 902 007f 04       		.byte	0x4
 903 0080 05       		.byte	0x5
 904 0081 696E7400 		.ascii	"int\000"
 905 0085 02       		.uleb128 0x2
 906 0086 04       		.byte	0x4
 907 0087 07       		.byte	0x7
 908 0088 15030000 		.4byte	.LASF11
 909 008c 03       		.uleb128 0x3
 910 008d 7D090000 		.4byte	.LASF12
 911 0091 05       		.byte	0x5
 912 0092 14       		.byte	0x14
 913 0093 2C000000 		.4byte	0x2c
 914 0097 03       		.uleb128 0x3
 915 0098 E2060000 		.4byte	.LASF13
 916 009c 05       		.byte	0x5
 917 009d 1F       		.byte	0x1f
 918 009e 4C000000 		.4byte	0x4c
 919 00a2 03       		.uleb128 0x3
 920 00a3 04080000 		.4byte	.LASF14
 921 00a7 05       		.byte	0x5
 922 00a8 20       		.byte	0x20
 923 00a9 5E000000 		.4byte	0x5e
 924 00ad 05       		.uleb128 0x5
 925 00ae 01       		.byte	0x1
 926 00af 06       		.byte	0x6
 927 00b0 55       		.byte	0x55
 928 00b1 0E030000 		.4byte	0x30e
 929 00b5 06       		.uleb128 0x6
 930 00b6 99080000 		.4byte	.LASF15
 931 00ba 72       		.sleb128 -14
 932 00bb 06       		.uleb128 0x6
 933 00bc 44030000 		.4byte	.LASF16
 934 00c0 74       		.sleb128 -12
 935 00c1 06       		.uleb128 0x6
 936 00c2 B6020000 		.4byte	.LASF17
 937 00c6 75       		.sleb128 -11
 938 00c7 06       		.uleb128 0x6
 939 00c8 D3040000 		.4byte	.LASF18
 940 00cc 76       		.sleb128 -10
 941 00cd 06       		.uleb128 0x6
 942 00ce D8030000 		.4byte	.LASF19
 943 00d2 7B       		.sleb128 -5
 944 00d3 06       		.uleb128 0x6
 945 00d4 F3080000 		.4byte	.LASF20
 946 00d8 7C       		.sleb128 -4
 947 00d9 06       		.uleb128 0x6
 948 00da 68020000 		.4byte	.LASF21
 949 00de 7E       		.sleb128 -2
 950 00df 06       		.uleb128 0x6
 951 00e0 C6040000 		.4byte	.LASF22
 952 00e4 7F       		.sleb128 -1
 953 00e5 06       		.uleb128 0x6
 954 00e6 05010000 		.4byte	.LASF23
ARM GAS  /tmp/ccL9X4rG.s 			page 18


 955 00ea 00       		.sleb128 0
 956 00eb 06       		.uleb128 0x6
 957 00ec 37000000 		.4byte	.LASF24
 958 00f0 01       		.sleb128 1
 959 00f1 06       		.uleb128 0x6
 960 00f2 C6080000 		.4byte	.LASF25
 961 00f6 02       		.sleb128 2
 962 00f7 06       		.uleb128 0x6
 963 00f8 F7000000 		.4byte	.LASF26
 964 00fc 03       		.sleb128 3
 965 00fd 06       		.uleb128 0x6
 966 00fe EF070000 		.4byte	.LASF27
 967 0102 04       		.sleb128 4
 968 0103 06       		.uleb128 0x6
 969 0104 340B0000 		.4byte	.LASF28
 970 0108 05       		.sleb128 5
 971 0109 06       		.uleb128 0x6
 972 010a 50090000 		.4byte	.LASF29
 973 010e 06       		.sleb128 6
 974 010f 06       		.uleb128 0x6
 975 0110 580B0000 		.4byte	.LASF30
 976 0114 07       		.sleb128 7
 977 0115 06       		.uleb128 0x6
 978 0116 BE070000 		.4byte	.LASF31
 979 011a 08       		.sleb128 8
 980 011b 06       		.uleb128 0x6
 981 011c D8050000 		.4byte	.LASF32
 982 0120 09       		.sleb128 9
 983 0121 06       		.uleb128 0x6
 984 0122 30070000 		.4byte	.LASF33
 985 0126 0A       		.sleb128 10
 986 0127 06       		.uleb128 0x6
 987 0128 630B0000 		.4byte	.LASF34
 988 012c 0B       		.sleb128 11
 989 012d 06       		.uleb128 0x6
 990 012e 64040000 		.4byte	.LASF35
 991 0132 0C       		.sleb128 12
 992 0133 06       		.uleb128 0x6
 993 0134 ED050000 		.4byte	.LASF36
 994 0138 0D       		.sleb128 13
 995 0139 06       		.uleb128 0x6
 996 013a F8060000 		.4byte	.LASF37
 997 013e 0E       		.sleb128 14
 998 013f 06       		.uleb128 0x6
 999 0140 91050000 		.4byte	.LASF38
 1000 0144 0F       		.sleb128 15
 1001 0145 06       		.uleb128 0x6
 1002 0146 F3010000 		.4byte	.LASF39
 1003 014a 10       		.sleb128 16
 1004 014b 06       		.uleb128 0x6
 1005 014c 32030000 		.4byte	.LASF40
 1006 0150 11       		.sleb128 17
 1007 0151 06       		.uleb128 0x6
 1008 0152 F20A0000 		.4byte	.LASF41
 1009 0156 12       		.sleb128 18
 1010 0157 06       		.uleb128 0x6
 1011 0158 F6030000 		.4byte	.LASF42
ARM GAS  /tmp/ccL9X4rG.s 			page 19


 1012 015c 13       		.sleb128 19
 1013 015d 06       		.uleb128 0x6
 1014 015e 29000000 		.4byte	.LASF43
 1015 0162 14       		.sleb128 20
 1016 0163 06       		.uleb128 0x6
 1017 0164 A2000000 		.4byte	.LASF44
 1018 0168 15       		.sleb128 21
 1019 0169 06       		.uleb128 0x6
 1020 016a 180B0000 		.4byte	.LASF45
 1021 016e 16       		.sleb128 22
 1022 016f 06       		.uleb128 0x6
 1023 0170 05020000 		.4byte	.LASF46
 1024 0174 17       		.sleb128 23
 1025 0175 06       		.uleb128 0x6
 1026 0176 10070000 		.4byte	.LASF47
 1027 017a 18       		.sleb128 24
 1028 017b 06       		.uleb128 0x6
 1029 017c 66050000 		.4byte	.LASF48
 1030 0180 19       		.sleb128 25
 1031 0181 06       		.uleb128 0x6
 1032 0182 6D070000 		.4byte	.LASF49
 1033 0186 1A       		.sleb128 26
 1034 0187 06       		.uleb128 0x6
 1035 0188 A1030000 		.4byte	.LASF50
 1036 018c 1B       		.sleb128 27
 1037 018d 06       		.uleb128 0x6
 1038 018e 46090000 		.4byte	.LASF51
 1039 0192 1C       		.sleb128 28
 1040 0193 06       		.uleb128 0x6
 1041 0194 4E0B0000 		.4byte	.LASF52
 1042 0198 1D       		.sleb128 29
 1043 0199 06       		.uleb128 0x6
 1044 019a ED000000 		.4byte	.LASF53
 1045 019e 1E       		.sleb128 30
 1046 019f 06       		.uleb128 0x6
 1047 01a0 66000000 		.4byte	.LASF54
 1048 01a4 1F       		.sleb128 31
 1049 01a5 06       		.uleb128 0x6
 1050 01a6 E50A0000 		.4byte	.LASF55
 1051 01aa 20       		.sleb128 32
 1052 01ab 06       		.uleb128 0x6
 1053 01ac 2D090000 		.4byte	.LASF56
 1054 01b0 21       		.sleb128 33
 1055 01b1 06       		.uleb128 0x6
 1056 01b2 E0000000 		.4byte	.LASF57
 1057 01b6 22       		.sleb128 34
 1058 01b7 06       		.uleb128 0x6
 1059 01b8 5A040000 		.4byte	.LASF58
 1060 01bc 23       		.sleb128 35
 1061 01bd 06       		.uleb128 0x6
 1062 01be E3050000 		.4byte	.LASF59
 1063 01c2 24       		.sleb128 36
 1064 01c3 06       		.uleb128 0x6
 1065 01c4 68090000 		.4byte	.LASF60
 1066 01c8 25       		.sleb128 37
 1067 01c9 06       		.uleb128 0x6
 1068 01ca 0D080000 		.4byte	.LASF61
ARM GAS  /tmp/ccL9X4rG.s 			page 20


 1069 01ce 26       		.sleb128 38
 1070 01cf 06       		.uleb128 0x6
 1071 01d0 3A090000 		.4byte	.LASF62
 1072 01d4 27       		.sleb128 39
 1073 01d5 06       		.uleb128 0x6
 1074 01d6 13040000 		.4byte	.LASF63
 1075 01da 28       		.sleb128 40
 1076 01db 06       		.uleb128 0x6
 1077 01dc D1000000 		.4byte	.LASF64
 1078 01e0 29       		.sleb128 41
 1079 01e1 06       		.uleb128 0x6
 1080 01e2 57020000 		.4byte	.LASF65
 1081 01e6 2A       		.sleb128 42
 1082 01e7 06       		.uleb128 0x6
 1083 01e8 84040000 		.4byte	.LASF66
 1084 01ec 2B       		.sleb128 43
 1085 01ed 06       		.uleb128 0x6
 1086 01ee 74020000 		.4byte	.LASF67
 1087 01f2 2C       		.sleb128 44
 1088 01f3 06       		.uleb128 0x6
 1089 01f4 E9040000 		.4byte	.LASF68
 1090 01f8 2D       		.sleb128 45
 1091 01f9 06       		.uleb128 0x6
 1092 01fa 2C010000 		.4byte	.LASF69
 1093 01fe 2E       		.sleb128 46
 1094 01ff 06       		.uleb128 0x6
 1095 0200 2A080000 		.4byte	.LASF70
 1096 0204 2F       		.sleb128 47
 1097 0205 06       		.uleb128 0x6
 1098 0206 85070000 		.4byte	.LASF71
 1099 020a 30       		.sleb128 48
 1100 020b 06       		.uleb128 0x6
 1101 020c 0F010000 		.4byte	.LASF72
 1102 0210 31       		.sleb128 49
 1103 0211 06       		.uleb128 0x6
 1104 0212 CE050000 		.4byte	.LASF73
 1105 0216 32       		.sleb128 50
 1106 0217 06       		.uleb128 0x6
 1107 0218 C1060000 		.4byte	.LASF74
 1108 021c 33       		.sleb128 51
 1109 021d 06       		.uleb128 0x6
 1110 021e 4C020000 		.4byte	.LASF75
 1111 0222 34       		.sleb128 52
 1112 0223 06       		.uleb128 0x6
 1113 0224 62070000 		.4byte	.LASF76
 1114 0228 35       		.sleb128 53
 1115 0229 06       		.uleb128 0x6
 1116 022a 3E020000 		.4byte	.LASF77
 1117 022e 36       		.sleb128 54
 1118 022f 06       		.uleb128 0x6
 1119 0230 60080000 		.4byte	.LASF78
 1120 0234 37       		.sleb128 55
 1121 0235 06       		.uleb128 0x6
 1122 0236 05090000 		.4byte	.LASF79
 1123 023a 38       		.sleb128 56
 1124 023b 06       		.uleb128 0x6
 1125 023c FB0A0000 		.4byte	.LASF80
ARM GAS  /tmp/ccL9X4rG.s 			page 21


 1126 0240 39       		.sleb128 57
 1127 0241 06       		.uleb128 0x6
 1128 0242 E4030000 		.4byte	.LASF81
 1129 0246 3A       		.sleb128 58
 1130 0247 06       		.uleb128 0x6
 1131 0248 7F050000 		.4byte	.LASF82
 1132 024c 3B       		.sleb128 59
 1133 024d 06       		.uleb128 0x6
 1134 024e CB060000 		.4byte	.LASF83
 1135 0252 3C       		.sleb128 60
 1136 0253 06       		.uleb128 0x6
 1137 0254 2C050000 		.4byte	.LASF84
 1138 0258 3D       		.sleb128 61
 1139 0259 06       		.uleb128 0x6
 1140 025a 1C020000 		.4byte	.LASF85
 1141 025e 3E       		.sleb128 62
 1142 025f 06       		.uleb128 0x6
 1143 0260 5B090000 		.4byte	.LASF86
 1144 0264 3F       		.sleb128 63
 1145 0265 06       		.uleb128 0x6
 1146 0266 40000000 		.4byte	.LASF87
 1147 026a C000     		.sleb128 64
 1148 026c 06       		.uleb128 0x6
 1149 026d 58010000 		.4byte	.LASF88
 1150 0271 C100     		.sleb128 65
 1151 0273 06       		.uleb128 0x6
 1152 0274 260B0000 		.4byte	.LASF89
 1153 0278 C200     		.sleb128 66
 1154 027a 06       		.uleb128 0x6
 1155 027b 19060000 		.4byte	.LASF90
 1156 027f C300     		.sleb128 67
 1157 0281 06       		.uleb128 0x6
 1158 0282 90000000 		.4byte	.LASF91
 1159 0286 C400     		.sleb128 68
 1160 0288 06       		.uleb128 0x6
 1161 0289 96010000 		.4byte	.LASF92
 1162 028d C500     		.sleb128 69
 1163 028f 06       		.uleb128 0x6
 1164 0290 E4020000 		.4byte	.LASF93
 1165 0294 C600     		.sleb128 70
 1166 0296 06       		.uleb128 0x6
 1167 0297 AD050000 		.4byte	.LASF94
 1168 029b C700     		.sleb128 71
 1169 029d 06       		.uleb128 0x6
 1170 029e 6E030000 		.4byte	.LASF95
 1171 02a2 C800     		.sleb128 72
 1172 02a4 06       		.uleb128 0x6
 1173 02a5 4E000000 		.4byte	.LASF96
 1174 02a9 C900     		.sleb128 73
 1175 02ab 06       		.uleb128 0x6
 1176 02ac C4030000 		.4byte	.LASF97
 1177 02b0 CA00     		.sleb128 74
 1178 02b2 06       		.uleb128 0x6
 1179 02b3 86080000 		.4byte	.LASF98
 1180 02b7 CB00     		.sleb128 75
 1181 02b9 06       		.uleb128 0x6
 1182 02ba 3D0B0000 		.4byte	.LASF99
ARM GAS  /tmp/ccL9X4rG.s 			page 22


 1183 02be CC00     		.sleb128 76
 1184 02c0 06       		.uleb128 0x6
 1185 02c1 63060000 		.4byte	.LASF100
 1186 02c5 CD00     		.sleb128 77
 1187 02c7 06       		.uleb128 0x6
 1188 02c8 0B030000 		.4byte	.LASF101
 1189 02cc CE00     		.sleb128 78
 1190 02ce 06       		.uleb128 0x6
 1191 02cf 3B070000 		.4byte	.LASF102
 1192 02d3 D000     		.sleb128 80
 1193 02d5 06       		.uleb128 0x6
 1194 02d6 B20A0000 		.4byte	.LASF103
 1195 02da D100     		.sleb128 81
 1196 02dc 06       		.uleb128 0x6
 1197 02dd AE090000 		.4byte	.LASF104
 1198 02e1 D200     		.sleb128 82
 1199 02e3 06       		.uleb128 0x6
 1200 02e4 5B000000 		.4byte	.LASF105
 1201 02e8 D300     		.sleb128 83
 1202 02ea 06       		.uleb128 0x6
 1203 02eb B0000000 		.4byte	.LASF106
 1204 02ef D400     		.sleb128 84
 1205 02f1 06       		.uleb128 0x6
 1206 02f2 E9010000 		.4byte	.LASF107
 1207 02f6 D500     		.sleb128 85
 1208 02f8 06       		.uleb128 0x6
 1209 02f9 97030000 		.4byte	.LASF108
 1210 02fd D600     		.sleb128 86
 1211 02ff 06       		.uleb128 0x6
 1212 0300 8D030000 		.4byte	.LASF109
 1213 0304 D700     		.sleb128 87
 1214 0306 06       		.uleb128 0x6
 1215 0307 21050000 		.4byte	.LASF110
 1216 030b DA00     		.sleb128 90
 1217 030d 00       		.byte	0
 1218 030e 03       		.uleb128 0x3
 1219 030f FA070000 		.4byte	.LASF111
 1220 0313 06       		.byte	0x6
 1221 0314 B8       		.byte	0xb8
 1222 0315 AD000000 		.4byte	0xad
 1223 0319 07       		.uleb128 0x7
 1224 031a 040E     		.2byte	0xe04
 1225 031c 02       		.byte	0x2
 1226 031d 9401     		.2byte	0x194
 1227 031f D5030000 		.4byte	0x3d5
 1228 0323 08       		.uleb128 0x8
 1229 0324 53070000 		.4byte	.LASF112
 1230 0328 02       		.byte	0x2
 1231 0329 9601     		.2byte	0x196
 1232 032b EC030000 		.4byte	0x3ec
 1233 032f 00       		.byte	0
 1234 0330 08       		.uleb128 0x8
 1235 0331 8F060000 		.4byte	.LASF113
 1236 0335 02       		.byte	0x2
 1237 0336 9701     		.2byte	0x197
 1238 0338 F1030000 		.4byte	0x3f1
 1239 033c 20       		.byte	0x20
ARM GAS  /tmp/ccL9X4rG.s 			page 23


 1240 033d 08       		.uleb128 0x8
 1241 033e 25060000 		.4byte	.LASF114
 1242 0342 02       		.byte	0x2
 1243 0343 9801     		.2byte	0x198
 1244 0345 01040000 		.4byte	0x401
 1245 0349 80       		.byte	0x80
 1246 034a 08       		.uleb128 0x8
 1247 034b A0090000 		.4byte	.LASF115
 1248 034f 02       		.byte	0x2
 1249 0350 9901     		.2byte	0x199
 1250 0352 F1030000 		.4byte	0x3f1
 1251 0356 A0       		.byte	0xa0
 1252 0357 09       		.uleb128 0x9
 1253 0358 19010000 		.4byte	.LASF116
 1254 035c 02       		.byte	0x2
 1255 035d 9A01     		.2byte	0x19a
 1256 035f 06040000 		.4byte	0x406
 1257 0363 0001     		.2byte	0x100
 1258 0365 09       		.uleb128 0x9
 1259 0366 99060000 		.4byte	.LASF117
 1260 036a 02       		.byte	0x2
 1261 036b 9B01     		.2byte	0x19b
 1262 036d F1030000 		.4byte	0x3f1
 1263 0371 2001     		.2byte	0x120
 1264 0373 09       		.uleb128 0x9
 1265 0374 00000000 		.4byte	.LASF118
 1266 0378 02       		.byte	0x2
 1267 0379 9C01     		.2byte	0x19c
 1268 037b 0B040000 		.4byte	0x40b
 1269 037f 8001     		.2byte	0x180
 1270 0381 09       		.uleb128 0x9
 1271 0382 A3060000 		.4byte	.LASF119
 1272 0386 02       		.byte	0x2
 1273 0387 9D01     		.2byte	0x19d
 1274 0389 F1030000 		.4byte	0x3f1
 1275 038d A001     		.2byte	0x1a0
 1276 038f 09       		.uleb128 0x9
 1277 0390 A8050000 		.4byte	.LASF120
 1278 0394 02       		.byte	0x2
 1279 0395 9E01     		.2byte	0x19e
 1280 0397 10040000 		.4byte	0x410
 1281 039b 0002     		.2byte	0x200
 1282 039d 09       		.uleb128 0x9
 1283 039e AD060000 		.4byte	.LASF121
 1284 03a2 02       		.byte	0x2
 1285 03a3 9F01     		.2byte	0x19f
 1286 03a5 15040000 		.4byte	0x415
 1287 03a9 2002     		.2byte	0x220
 1288 03ab 0A       		.uleb128 0xa
 1289 03ac 495000   		.ascii	"IP\000"
 1290 03af 02       		.byte	0x2
 1291 03b0 A001     		.2byte	0x1a0
 1292 03b2 35040000 		.4byte	0x435
 1293 03b6 0003     		.2byte	0x300
 1294 03b8 09       		.uleb128 0x9
 1295 03b9 B7060000 		.4byte	.LASF122
 1296 03bd 02       		.byte	0x2
ARM GAS  /tmp/ccL9X4rG.s 			page 24


 1297 03be A101     		.2byte	0x1a1
 1298 03c0 3A040000 		.4byte	0x43a
 1299 03c4 F003     		.2byte	0x3f0
 1300 03c6 09       		.uleb128 0x9
 1301 03c7 A9090000 		.4byte	.LASF123
 1302 03cb 02       		.byte	0x2
 1303 03cc A201     		.2byte	0x1a2
 1304 03ce 4B040000 		.4byte	0x44b
 1305 03d2 000E     		.2byte	0xe00
 1306 03d4 00       		.byte	0
 1307 03d5 0B       		.uleb128 0xb
 1308 03d6 A2000000 		.4byte	0xa2
 1309 03da E5030000 		.4byte	0x3e5
 1310 03de 0C       		.uleb128 0xc
 1311 03df E5030000 		.4byte	0x3e5
 1312 03e3 07       		.byte	0x7
 1313 03e4 00       		.byte	0
 1314 03e5 02       		.uleb128 0x2
 1315 03e6 04       		.byte	0x4
 1316 03e7 07       		.byte	0x7
 1317 03e8 58050000 		.4byte	.LASF124
 1318 03ec 0D       		.uleb128 0xd
 1319 03ed D5030000 		.4byte	0x3d5
 1320 03f1 0B       		.uleb128 0xb
 1321 03f2 A2000000 		.4byte	0xa2
 1322 03f6 01040000 		.4byte	0x401
 1323 03fa 0C       		.uleb128 0xc
 1324 03fb E5030000 		.4byte	0x3e5
 1325 03ff 17       		.byte	0x17
 1326 0400 00       		.byte	0
 1327 0401 0D       		.uleb128 0xd
 1328 0402 D5030000 		.4byte	0x3d5
 1329 0406 0D       		.uleb128 0xd
 1330 0407 D5030000 		.4byte	0x3d5
 1331 040b 0D       		.uleb128 0xd
 1332 040c D5030000 		.4byte	0x3d5
 1333 0410 0D       		.uleb128 0xd
 1334 0411 D5030000 		.4byte	0x3d5
 1335 0415 0B       		.uleb128 0xb
 1336 0416 A2000000 		.4byte	0xa2
 1337 041a 25040000 		.4byte	0x425
 1338 041e 0C       		.uleb128 0xc
 1339 041f E5030000 		.4byte	0x3e5
 1340 0423 37       		.byte	0x37
 1341 0424 00       		.byte	0
 1342 0425 0B       		.uleb128 0xb
 1343 0426 8C000000 		.4byte	0x8c
 1344 042a 35040000 		.4byte	0x435
 1345 042e 0C       		.uleb128 0xc
 1346 042f E5030000 		.4byte	0x3e5
 1347 0433 EF       		.byte	0xef
 1348 0434 00       		.byte	0
 1349 0435 0D       		.uleb128 0xd
 1350 0436 25040000 		.4byte	0x425
 1351 043a 0B       		.uleb128 0xb
 1352 043b A2000000 		.4byte	0xa2
 1353 043f 4B040000 		.4byte	0x44b
ARM GAS  /tmp/ccL9X4rG.s 			page 25


 1354 0443 0E       		.uleb128 0xe
 1355 0444 E5030000 		.4byte	0x3e5
 1356 0448 8302     		.2byte	0x283
 1357 044a 00       		.byte	0
 1358 044b 0D       		.uleb128 0xd
 1359 044c A2000000 		.4byte	0xa2
 1360 0450 0F       		.uleb128 0xf
 1361 0451 58070000 		.4byte	.LASF125
 1362 0455 02       		.byte	0x2
 1363 0456 A301     		.2byte	0x1a3
 1364 0458 19030000 		.4byte	0x319
 1365 045c 10       		.uleb128 0x10
 1366 045d 8C       		.byte	0x8c
 1367 045e 02       		.byte	0x2
 1368 045f B601     		.2byte	0x1b6
 1369 0461 77050000 		.4byte	0x577
 1370 0465 08       		.uleb128 0x8
 1371 0466 89060000 		.4byte	.LASF126
 1372 046a 02       		.byte	0x2
 1373 046b B801     		.2byte	0x1b8
 1374 046d 77050000 		.4byte	0x577
 1375 0471 00       		.byte	0
 1376 0472 08       		.uleb128 0x8
 1377 0473 03040000 		.4byte	.LASF127
 1378 0477 02       		.byte	0x2
 1379 0478 B901     		.2byte	0x1b9
 1380 047a 4B040000 		.4byte	0x44b
 1381 047e 04       		.byte	0x4
 1382 047f 08       		.uleb128 0x8
 1383 0480 BF030000 		.4byte	.LASF128
 1384 0484 02       		.byte	0x2
 1385 0485 BA01     		.2byte	0x1ba
 1386 0487 4B040000 		.4byte	0x44b
 1387 048b 08       		.byte	0x8
 1388 048c 08       		.uleb128 0x8
 1389 048d 08040000 		.4byte	.LASF129
 1390 0491 02       		.byte	0x2
 1391 0492 BB01     		.2byte	0x1bb
 1392 0494 4B040000 		.4byte	0x44b
 1393 0498 0C       		.byte	0xc
 1394 0499 11       		.uleb128 0x11
 1395 049a 53435200 		.ascii	"SCR\000"
 1396 049e 02       		.byte	0x2
 1397 049f BC01     		.2byte	0x1bc
 1398 04a1 4B040000 		.4byte	0x44b
 1399 04a5 10       		.byte	0x10
 1400 04a6 11       		.uleb128 0x11
 1401 04a7 43435200 		.ascii	"CCR\000"
 1402 04ab 02       		.byte	0x2
 1403 04ac BD01     		.2byte	0x1bd
 1404 04ae 4B040000 		.4byte	0x44b
 1405 04b2 14       		.byte	0x14
 1406 04b3 11       		.uleb128 0x11
 1407 04b4 53485000 		.ascii	"SHP\000"
 1408 04b8 02       		.byte	0x2
 1409 04b9 BE01     		.2byte	0x1be
 1410 04bb 8C050000 		.4byte	0x58c
ARM GAS  /tmp/ccL9X4rG.s 			page 26


 1411 04bf 18       		.byte	0x18
 1412 04c0 08       		.uleb128 0x8
 1413 04c1 0A070000 		.4byte	.LASF130
 1414 04c5 02       		.byte	0x2
 1415 04c6 BF01     		.2byte	0x1bf
 1416 04c8 4B040000 		.4byte	0x44b
 1417 04cc 24       		.byte	0x24
 1418 04cd 08       		.uleb128 0x8
 1419 04ce A3050000 		.4byte	.LASF131
 1420 04d2 02       		.byte	0x2
 1421 04d3 C001     		.2byte	0x1c0
 1422 04d5 4B040000 		.4byte	0x44b
 1423 04d9 28       		.byte	0x28
 1424 04da 08       		.uleb128 0x8
 1425 04db 130B0000 		.4byte	.LASF132
 1426 04df 02       		.byte	0x2
 1427 04e0 C101     		.2byte	0x1c1
 1428 04e2 4B040000 		.4byte	0x44b
 1429 04e6 2C       		.byte	0x2c
 1430 04e7 08       		.uleb128 0x8
 1431 04e8 0E040000 		.4byte	.LASF133
 1432 04ec 02       		.byte	0x2
 1433 04ed C201     		.2byte	0x1c2
 1434 04ef 4B040000 		.4byte	0x44b
 1435 04f3 30       		.byte	0x30
 1436 04f4 08       		.uleb128 0x8
 1437 04f5 54040000 		.4byte	.LASF134
 1438 04f9 02       		.byte	0x2
 1439 04fa C301     		.2byte	0x1c3
 1440 04fc 4B040000 		.4byte	0x44b
 1441 0500 34       		.byte	0x34
 1442 0501 08       		.uleb128 0x8
 1443 0502 DD060000 		.4byte	.LASF135
 1444 0506 02       		.byte	0x2
 1445 0507 C401     		.2byte	0x1c4
 1446 0509 4B040000 		.4byte	0x44b
 1447 050d 38       		.byte	0x38
 1448 050e 08       		.uleb128 0x8
 1449 050f A6020000 		.4byte	.LASF136
 1450 0513 02       		.byte	0x2
 1451 0514 C501     		.2byte	0x1c5
 1452 0516 4B040000 		.4byte	0x44b
 1453 051a 3C       		.byte	0x3c
 1454 051b 11       		.uleb128 0x11
 1455 051c 50465200 		.ascii	"PFR\000"
 1456 0520 02       		.byte	0x2
 1457 0521 C601     		.2byte	0x1c6
 1458 0523 A1050000 		.4byte	0x5a1
 1459 0527 40       		.byte	0x40
 1460 0528 11       		.uleb128 0x11
 1461 0529 44465200 		.ascii	"DFR\000"
 1462 052d 02       		.byte	0x2
 1463 052e C701     		.2byte	0x1c7
 1464 0530 77050000 		.4byte	0x577
 1465 0534 48       		.byte	0x48
 1466 0535 11       		.uleb128 0x11
 1467 0536 41445200 		.ascii	"ADR\000"
ARM GAS  /tmp/ccL9X4rG.s 			page 27


 1468 053a 02       		.byte	0x2
 1469 053b C801     		.2byte	0x1c8
 1470 053d 77050000 		.4byte	0x577
 1471 0541 4C       		.byte	0x4c
 1472 0542 08       		.uleb128 0x8
 1473 0543 7F040000 		.4byte	.LASF137
 1474 0547 02       		.byte	0x2
 1475 0548 C901     		.2byte	0x1c9
 1476 054a BB050000 		.4byte	0x5bb
 1477 054e 50       		.byte	0x50
 1478 054f 08       		.uleb128 0x8
 1479 0550 39010000 		.4byte	.LASF138
 1480 0554 02       		.byte	0x2
 1481 0555 CA01     		.2byte	0x1ca
 1482 0557 D5050000 		.4byte	0x5d5
 1483 055b 60       		.byte	0x60
 1484 055c 08       		.uleb128 0x8
 1485 055d 8F060000 		.4byte	.LASF113
 1486 0561 02       		.byte	0x2
 1487 0562 CB01     		.2byte	0x1cb
 1488 0564 C5050000 		.4byte	0x5c5
 1489 0568 74       		.byte	0x74
 1490 0569 08       		.uleb128 0x8
 1491 056a 0D0B0000 		.4byte	.LASF139
 1492 056e 02       		.byte	0x2
 1493 056f CC01     		.2byte	0x1cc
 1494 0571 4B040000 		.4byte	0x44b
 1495 0575 88       		.byte	0x88
 1496 0576 00       		.byte	0
 1497 0577 12       		.uleb128 0x12
 1498 0578 4B040000 		.4byte	0x44b
 1499 057c 0B       		.uleb128 0xb
 1500 057d 8C000000 		.4byte	0x8c
 1501 0581 8C050000 		.4byte	0x58c
 1502 0585 0C       		.uleb128 0xc
 1503 0586 E5030000 		.4byte	0x3e5
 1504 058a 0B       		.byte	0xb
 1505 058b 00       		.byte	0
 1506 058c 0D       		.uleb128 0xd
 1507 058d 7C050000 		.4byte	0x57c
 1508 0591 0B       		.uleb128 0xb
 1509 0592 A2000000 		.4byte	0xa2
 1510 0596 A1050000 		.4byte	0x5a1
 1511 059a 0C       		.uleb128 0xc
 1512 059b E5030000 		.4byte	0x3e5
 1513 059f 01       		.byte	0x1
 1514 05a0 00       		.byte	0
 1515 05a1 12       		.uleb128 0x12
 1516 05a2 A6050000 		.4byte	0x5a6
 1517 05a6 0D       		.uleb128 0xd
 1518 05a7 91050000 		.4byte	0x591
 1519 05ab 0B       		.uleb128 0xb
 1520 05ac A2000000 		.4byte	0xa2
 1521 05b0 BB050000 		.4byte	0x5bb
 1522 05b4 0C       		.uleb128 0xc
 1523 05b5 E5030000 		.4byte	0x3e5
 1524 05b9 03       		.byte	0x3
ARM GAS  /tmp/ccL9X4rG.s 			page 28


 1525 05ba 00       		.byte	0
 1526 05bb 12       		.uleb128 0x12
 1527 05bc C0050000 		.4byte	0x5c0
 1528 05c0 0D       		.uleb128 0xd
 1529 05c1 AB050000 		.4byte	0x5ab
 1530 05c5 0B       		.uleb128 0xb
 1531 05c6 A2000000 		.4byte	0xa2
 1532 05ca D5050000 		.4byte	0x5d5
 1533 05ce 0C       		.uleb128 0xc
 1534 05cf E5030000 		.4byte	0x3e5
 1535 05d3 04       		.byte	0x4
 1536 05d4 00       		.byte	0
 1537 05d5 12       		.uleb128 0x12
 1538 05d6 DA050000 		.4byte	0x5da
 1539 05da 0D       		.uleb128 0xd
 1540 05db C5050000 		.4byte	0x5c5
 1541 05df 0F       		.uleb128 0xf
 1542 05e0 C4020000 		.4byte	.LASF140
 1543 05e4 02       		.byte	0x2
 1544 05e5 CD01     		.2byte	0x1cd
 1545 05e7 5C040000 		.4byte	0x45c
 1546 05eb 10       		.uleb128 0x10
 1547 05ec 10       		.byte	0x10
 1548 05ed 02       		.byte	0x2
 1549 05ee F502     		.2byte	0x2f5
 1550 05f0 29060000 		.4byte	0x629
 1551 05f4 08       		.uleb128 0x8
 1552 05f5 17090000 		.4byte	.LASF141
 1553 05f9 02       		.byte	0x2
 1554 05fa F702     		.2byte	0x2f7
 1555 05fc 4B040000 		.4byte	0x44b
 1556 0600 00       		.byte	0
 1557 0601 08       		.uleb128 0x8
 1558 0602 61050000 		.4byte	.LASF142
 1559 0606 02       		.byte	0x2
 1560 0607 F802     		.2byte	0x2f8
 1561 0609 4B040000 		.4byte	0x44b
 1562 060d 04       		.byte	0x4
 1563 060e 11       		.uleb128 0x11
 1564 060f 56414C00 		.ascii	"VAL\000"
 1565 0613 02       		.byte	0x2
 1566 0614 F902     		.2byte	0x2f9
 1567 0616 4B040000 		.4byte	0x44b
 1568 061a 08       		.byte	0x8
 1569 061b 08       		.uleb128 0x8
 1570 061c 2C030000 		.4byte	.LASF143
 1571 0620 02       		.byte	0x2
 1572 0621 FA02     		.2byte	0x2fa
 1573 0623 77050000 		.4byte	0x577
 1574 0627 0C       		.byte	0xc
 1575 0628 00       		.byte	0
 1576 0629 0F       		.uleb128 0xf
 1577 062a 87020000 		.4byte	.LASF144
 1578 062e 02       		.byte	0x2
 1579 062f FB02     		.2byte	0x2fb
 1580 0631 EB050000 		.4byte	0x5eb
 1581 0635 02       		.uleb128 0x2
ARM GAS  /tmp/ccL9X4rG.s 			page 29


 1582 0636 01       		.byte	0x1
 1583 0637 08       		.byte	0x8
 1584 0638 3C080000 		.4byte	.LASF145
 1585 063c 13       		.uleb128 0x13
 1586 063d E3040000 		.4byte	.LASF146
 1587 0641 03       		.byte	0x3
 1588 0642 EC02     		.2byte	0x2ec
 1589 0644 03       		.byte	0x3
 1590 0645 13       		.uleb128 0x13
 1591 0646 FF050000 		.4byte	.LASF147
 1592 064a 03       		.byte	0x3
 1593 064b E102     		.2byte	0x2e1
 1594 064d 03       		.byte	0x3
 1595 064e 14       		.uleb128 0x14
 1596 064f BB0A0000 		.4byte	.LASF150
 1597 0653 02       		.byte	0x2
 1598 0654 FB06     		.2byte	0x6fb
 1599 0656 03       		.byte	0x3
 1600 0657 74060000 		.4byte	0x674
 1601 065b 15       		.uleb128 0x15
 1602 065c 35050000 		.4byte	.LASF148
 1603 0660 02       		.byte	0x2
 1604 0661 FB06     		.2byte	0x6fb
 1605 0663 0E030000 		.4byte	0x30e
 1606 0667 15       		.uleb128 0x15
 1607 0668 76040000 		.4byte	.LASF149
 1608 066c 02       		.byte	0x2
 1609 066d FB06     		.2byte	0x6fb
 1610 066f A2000000 		.4byte	0xa2
 1611 0673 00       		.byte	0
 1612 0674 14       		.uleb128 0x14
 1613 0675 98040000 		.4byte	.LASF151
 1614 0679 02       		.byte	0x2
 1615 067a 5C06     		.2byte	0x65c
 1616 067c 03       		.byte	0x3
 1617 067d A6060000 		.4byte	0x6a6
 1618 0681 15       		.uleb128 0x15
 1619 0682 1E010000 		.4byte	.LASF152
 1620 0686 02       		.byte	0x2
 1621 0687 5C06     		.2byte	0x65c
 1622 0689 A2000000 		.4byte	0xa2
 1623 068d 16       		.uleb128 0x16
 1624 068e 22030000 		.4byte	.LASF153
 1625 0692 02       		.byte	0x2
 1626 0693 5E06     		.2byte	0x65e
 1627 0695 A2000000 		.4byte	0xa2
 1628 0699 16       		.uleb128 0x16
 1629 069a 05000000 		.4byte	.LASF154
 1630 069e 02       		.byte	0x2
 1631 069f 5F06     		.2byte	0x65f
 1632 06a1 A2000000 		.4byte	0xa2
 1633 06a5 00       		.byte	0
 1634 06a6 17       		.uleb128 0x17
 1635 06a7 85090000 		.4byte	.LASF193
 1636 06ab 02       		.byte	0x2
 1637 06ac 6F06     		.2byte	0x66f
 1638 06ae A2000000 		.4byte	0xa2
ARM GAS  /tmp/ccL9X4rG.s 			page 30


 1639 06b2 03       		.byte	0x3
 1640 06b3 18       		.uleb128 0x18
 1641 06b4 05060000 		.4byte	.LASF161
 1642 06b8 02       		.byte	0x2
 1643 06b9 2A07     		.2byte	0x72a
 1644 06bb A2000000 		.4byte	0xa2
 1645 06bf 03       		.byte	0x3
 1646 06c0 0D070000 		.4byte	0x70d
 1647 06c4 15       		.uleb128 0x15
 1648 06c5 1E010000 		.4byte	.LASF152
 1649 06c9 02       		.byte	0x2
 1650 06ca 2A07     		.2byte	0x72a
 1651 06cc A2000000 		.4byte	0xa2
 1652 06d0 15       		.uleb128 0x15
 1653 06d1 3A050000 		.4byte	.LASF155
 1654 06d5 02       		.byte	0x2
 1655 06d6 2A07     		.2byte	0x72a
 1656 06d8 A2000000 		.4byte	0xa2
 1657 06dc 15       		.uleb128 0x15
 1658 06dd DD010000 		.4byte	.LASF156
 1659 06e1 02       		.byte	0x2
 1660 06e2 2A07     		.2byte	0x72a
 1661 06e4 A2000000 		.4byte	0xa2
 1662 06e8 16       		.uleb128 0x16
 1663 06e9 05000000 		.4byte	.LASF154
 1664 06ed 02       		.byte	0x2
 1665 06ee 2C07     		.2byte	0x72c
 1666 06f0 A2000000 		.4byte	0xa2
 1667 06f4 16       		.uleb128 0x16
 1668 06f5 2A020000 		.4byte	.LASF157
 1669 06f9 02       		.byte	0x2
 1670 06fa 2D07     		.2byte	0x72d
 1671 06fc A2000000 		.4byte	0xa2
 1672 0700 16       		.uleb128 0x16
 1673 0701 2A060000 		.4byte	.LASF158
 1674 0705 02       		.byte	0x2
 1675 0706 2E07     		.2byte	0x72e
 1676 0708 A2000000 		.4byte	0xa2
 1677 070c 00       		.byte	0
 1678 070d 14       		.uleb128 0x14
 1679 070e DE070000 		.4byte	.LASF159
 1680 0712 02       		.byte	0x2
 1681 0713 7B06     		.2byte	0x67b
 1682 0715 03       		.byte	0x3
 1683 0716 27070000 		.4byte	0x727
 1684 071a 15       		.uleb128 0x15
 1685 071b 35050000 		.4byte	.LASF148
 1686 071f 02       		.byte	0x2
 1687 0720 7B06     		.2byte	0x67b
 1688 0722 0E030000 		.4byte	0x30e
 1689 0726 00       		.byte	0
 1690 0727 14       		.uleb128 0x14
 1691 0728 94020000 		.4byte	.LASF160
 1692 072c 02       		.byte	0x2
 1693 072d 9F06     		.2byte	0x69f
 1694 072f 03       		.byte	0x3
 1695 0730 41070000 		.4byte	0x741
ARM GAS  /tmp/ccL9X4rG.s 			page 31


 1696 0734 15       		.uleb128 0x15
 1697 0735 35050000 		.4byte	.LASF148
 1698 0739 02       		.byte	0x2
 1699 073a 9F06     		.2byte	0x69f
 1700 073c 0E030000 		.4byte	0x30e
 1701 0740 00       		.byte	0
 1702 0741 18       		.uleb128 0x18
 1703 0742 B7080000 		.4byte	.LASF162
 1704 0746 02       		.byte	0x2
 1705 0747 C107     		.2byte	0x7c1
 1706 0749 A2000000 		.4byte	0xa2
 1707 074d 03       		.byte	0x3
 1708 074e 5F070000 		.4byte	0x75f
 1709 0752 15       		.uleb128 0x15
 1710 0753 79050000 		.4byte	.LASF163
 1711 0757 02       		.byte	0x2
 1712 0758 C107     		.2byte	0x7c1
 1713 075a A2000000 		.4byte	0xa2
 1714 075e 00       		.byte	0
 1715 075f 18       		.uleb128 0x18
 1716 0760 01050000 		.4byte	.LASF164
 1717 0764 02       		.byte	0x2
 1718 0765 1107     		.2byte	0x711
 1719 0767 A2000000 		.4byte	0xa2
 1720 076b 03       		.byte	0x3
 1721 076c 7D070000 		.4byte	0x77d
 1722 0770 15       		.uleb128 0x15
 1723 0771 35050000 		.4byte	.LASF148
 1724 0775 02       		.byte	0x2
 1725 0776 1107     		.2byte	0x711
 1726 0778 0E030000 		.4byte	0x30e
 1727 077c 00       		.byte	0
 1728 077d 14       		.uleb128 0x14
 1729 077e 3A060000 		.4byte	.LASF165
 1730 0782 02       		.byte	0x2
 1731 0783 4507     		.2byte	0x745
 1732 0785 03       		.byte	0x3
 1733 0786 DF070000 		.4byte	0x7df
 1734 078a 15       		.uleb128 0x15
 1735 078b 74090000 		.4byte	.LASF166
 1736 078f 02       		.byte	0x2
 1737 0790 4507     		.2byte	0x745
 1738 0792 A2000000 		.4byte	0xa2
 1739 0796 15       		.uleb128 0x15
 1740 0797 1E010000 		.4byte	.LASF152
 1741 079b 02       		.byte	0x2
 1742 079c 4507     		.2byte	0x745
 1743 079e A2000000 		.4byte	0xa2
 1744 07a2 15       		.uleb128 0x15
 1745 07a3 AE030000 		.4byte	.LASF167
 1746 07a7 02       		.byte	0x2
 1747 07a8 4507     		.2byte	0x745
 1748 07aa DF070000 		.4byte	0x7df
 1749 07ae 15       		.uleb128 0x15
 1750 07af 14050000 		.4byte	.LASF168
 1751 07b3 02       		.byte	0x2
 1752 07b4 4507     		.2byte	0x745
ARM GAS  /tmp/ccL9X4rG.s 			page 32


 1753 07b6 DF070000 		.4byte	0x7df
 1754 07ba 16       		.uleb128 0x16
 1755 07bb 05000000 		.4byte	.LASF154
 1756 07bf 02       		.byte	0x2
 1757 07c0 4707     		.2byte	0x747
 1758 07c2 A2000000 		.4byte	0xa2
 1759 07c6 16       		.uleb128 0x16
 1760 07c7 2A020000 		.4byte	.LASF157
 1761 07cb 02       		.byte	0x2
 1762 07cc 4807     		.2byte	0x748
 1763 07ce A2000000 		.4byte	0xa2
 1764 07d2 16       		.uleb128 0x16
 1765 07d3 2A060000 		.4byte	.LASF158
 1766 07d7 02       		.byte	0x2
 1767 07d8 4907     		.2byte	0x749
 1768 07da A2000000 		.4byte	0xa2
 1769 07de 00       		.byte	0
 1770 07df 12       		.uleb128 0x12
 1771 07e0 E4070000 		.4byte	0x7e4
 1772 07e4 19       		.uleb128 0x19
 1773 07e5 04       		.byte	0x4
 1774 07e6 A2000000 		.4byte	0xa2
 1775 07ea 14       		.uleb128 0x14
 1776 07eb C9070000 		.4byte	.LASF169
 1777 07ef 02       		.byte	0x2
 1778 07f0 C506     		.2byte	0x6c5
 1779 07f2 03       		.byte	0x3
 1780 07f3 04080000 		.4byte	0x804
 1781 07f7 15       		.uleb128 0x15
 1782 07f8 35050000 		.4byte	.LASF148
 1783 07fc 02       		.byte	0x2
 1784 07fd C506     		.2byte	0x6c5
 1785 07ff 0E030000 		.4byte	0x30e
 1786 0803 00       		.byte	0
 1787 0804 18       		.uleb128 0x18
 1788 0805 B9050000 		.4byte	.LASF170
 1789 0809 02       		.byte	0x2
 1790 080a B206     		.2byte	0x6b2
 1791 080c A2000000 		.4byte	0xa2
 1792 0810 03       		.byte	0x3
 1793 0811 22080000 		.4byte	0x822
 1794 0815 15       		.uleb128 0x15
 1795 0816 35050000 		.4byte	.LASF148
 1796 081a 02       		.byte	0x2
 1797 081b B206     		.2byte	0x6b2
 1798 081d 0E030000 		.4byte	0x30e
 1799 0821 00       		.byte	0
 1800 0822 14       		.uleb128 0x14
 1801 0823 C6010000 		.4byte	.LASF171
 1802 0827 02       		.byte	0x2
 1803 0828 D406     		.2byte	0x6d4
 1804 082a 03       		.byte	0x3
 1805 082b 3C080000 		.4byte	0x83c
 1806 082f 15       		.uleb128 0x15
 1807 0830 35050000 		.4byte	.LASF148
 1808 0834 02       		.byte	0x2
 1809 0835 D406     		.2byte	0x6d4
ARM GAS  /tmp/ccL9X4rG.s 			page 33


 1810 0837 0E030000 		.4byte	0x30e
 1811 083b 00       		.byte	0
 1812 083c 18       		.uleb128 0x18
 1813 083d 1C090000 		.4byte	.LASF172
 1814 0841 02       		.byte	0x2
 1815 0842 E506     		.2byte	0x6e5
 1816 0844 A2000000 		.4byte	0xa2
 1817 0848 03       		.byte	0x3
 1818 0849 5A080000 		.4byte	0x85a
 1819 084d 15       		.uleb128 0x15
 1820 084e 35050000 		.4byte	.LASF148
 1821 0852 02       		.byte	0x2
 1822 0853 E506     		.2byte	0x6e5
 1823 0855 0E030000 		.4byte	0x30e
 1824 0859 00       		.byte	0
 1825 085a 1A       		.uleb128 0x1a
 1826 085b A1070000 		.4byte	.LASF173
 1827 085f 01       		.byte	0x1
 1828 0860 A1       		.byte	0xa1
 1829 0861 00000000 		.4byte	.LFB123
 1830 0865 24000000 		.4byte	.LFE123-.LFB123
 1831 0869 01       		.uleb128 0x1
 1832 086a 9C       		.byte	0x9c
 1833 086b B4080000 		.4byte	0x8b4
 1834 086f 1B       		.uleb128 0x1b
 1835 0870 1E010000 		.4byte	.LASF152
 1836 0874 01       		.byte	0x1
 1837 0875 A1       		.byte	0xa1
 1838 0876 A2000000 		.4byte	0xa2
 1839 087a 00000000 		.4byte	.LLST0
 1840 087e 1C       		.uleb128 0x1c
 1841 087f 74060000 		.4byte	0x674
 1842 0883 00000000 		.4byte	.LBB46
 1843 0887 24000000 		.4byte	.LBE46-.LBB46
 1844 088b 01       		.byte	0x1
 1845 088c A7       		.byte	0xa7
 1846 088d 1D       		.uleb128 0x1d
 1847 088e 81060000 		.4byte	0x681
 1848 0892 00000000 		.4byte	.LLST0
 1849 0896 1E       		.uleb128 0x1e
 1850 0897 00000000 		.4byte	.LBB47
 1851 089b 24000000 		.4byte	.LBE47-.LBB47
 1852 089f 1F       		.uleb128 0x1f
 1853 08a0 8D060000 		.4byte	0x68d
 1854 08a4 21000000 		.4byte	.LLST2
 1855 08a8 1F       		.uleb128 0x1f
 1856 08a9 99060000 		.4byte	0x699
 1857 08ad 61000000 		.4byte	.LLST3
 1858 08b1 00       		.byte	0
 1859 08b2 00       		.byte	0
 1860 08b3 00       		.byte	0
 1861 08b4 1A       		.uleb128 0x1a
 1862 08b5 41080000 		.4byte	.LASF174
 1863 08b9 01       		.byte	0x1
 1864 08ba B7       		.byte	0xb7
 1865 08bb 30000000 		.4byte	.LFB124
 1866 08bf 6C000000 		.4byte	.LFE124-.LFB124
ARM GAS  /tmp/ccL9X4rG.s 			page 34


 1867 08c3 01       		.uleb128 0x1
 1868 08c4 9C       		.byte	0x9c
 1869 08c5 83090000 		.4byte	0x983
 1870 08c9 1B       		.uleb128 0x1b
 1871 08ca 35050000 		.4byte	.LASF148
 1872 08ce 01       		.byte	0x1
 1873 08cf B7       		.byte	0xb7
 1874 08d0 0E030000 		.4byte	0x30e
 1875 08d4 83000000 		.4byte	.LLST4
 1876 08d8 1B       		.uleb128 0x1b
 1877 08d9 3A050000 		.4byte	.LASF155
 1878 08dd 01       		.byte	0x1
 1879 08de B7       		.byte	0xb7
 1880 08df A2000000 		.4byte	0xa2
 1881 08e3 BD000000 		.4byte	.LLST5
 1882 08e7 1B       		.uleb128 0x1b
 1883 08e8 DD010000 		.4byte	.LASF156
 1884 08ec 01       		.byte	0x1
 1885 08ed B7       		.byte	0xb7
 1886 08ee A2000000 		.4byte	0xa2
 1887 08f2 F7000000 		.4byte	.LLST6
 1888 08f6 20       		.uleb128 0x20
 1889 08f7 4A050000 		.4byte	.LASF194
 1890 08fb 01       		.byte	0x1
 1891 08fc B9       		.byte	0xb9
 1892 08fd A2000000 		.4byte	0xa2
 1893 0901 31010000 		.4byte	.LLST7
 1894 0905 21       		.uleb128 0x21
 1895 0906 A6060000 		.4byte	0x6a6
 1896 090a 30000000 		.4byte	.LBB48
 1897 090e 08000000 		.4byte	.LBE48-.LBB48
 1898 0912 01       		.byte	0x1
 1899 0913 BF       		.byte	0xbf
 1900 0914 22       		.uleb128 0x22
 1901 0915 B3060000 		.4byte	0x6b3
 1902 0919 3A000000 		.4byte	.LBB50
 1903 091d 00000000 		.4byte	.Ldebug_ranges0+0
 1904 0921 01       		.byte	0x1
 1905 0922 C1       		.byte	0xc1
 1906 0923 60090000 		.4byte	0x960
 1907 0927 1D       		.uleb128 0x1d
 1908 0928 DC060000 		.4byte	0x6dc
 1909 092c 45010000 		.4byte	.LLST8
 1910 0930 1D       		.uleb128 0x1d
 1911 0931 D0060000 		.4byte	0x6d0
 1912 0935 7F010000 		.4byte	.LLST9
 1913 0939 1D       		.uleb128 0x1d
 1914 093a C4060000 		.4byte	0x6c4
 1915 093e B9010000 		.4byte	.LLST10
 1916 0942 23       		.uleb128 0x23
 1917 0943 00000000 		.4byte	.Ldebug_ranges0+0
 1918 0947 1F       		.uleb128 0x1f
 1919 0948 E8060000 		.4byte	0x6e8
 1920 094c F1010000 		.4byte	.LLST11
 1921 0950 1F       		.uleb128 0x1f
 1922 0951 F4060000 		.4byte	0x6f4
 1923 0955 29020000 		.4byte	.LLST12
ARM GAS  /tmp/ccL9X4rG.s 			page 35


 1924 0959 24       		.uleb128 0x24
 1925 095a 00070000 		.4byte	0x700
 1926 095e 00       		.byte	0
 1927 095f 00       		.byte	0
 1928 0960 25       		.uleb128 0x25
 1929 0961 4E060000 		.4byte	0x64e
 1930 0965 60000000 		.4byte	.LBB54
 1931 0969 20000000 		.4byte	.Ldebug_ranges0+0x20
 1932 096d 01       		.byte	0x1
 1933 096e C1       		.byte	0xc1
 1934 096f 1D       		.uleb128 0x1d
 1935 0970 67060000 		.4byte	0x667
 1936 0974 47020000 		.4byte	.LLST13
 1937 0978 1D       		.uleb128 0x1d
 1938 0979 5B060000 		.4byte	0x65b
 1939 097d 65020000 		.4byte	.LLST14
 1940 0981 00       		.byte	0
 1941 0982 00       		.byte	0
 1942 0983 1A       		.uleb128 0x1a
 1943 0984 16000000 		.4byte	.LASF175
 1944 0988 01       		.byte	0x1
 1945 0989 CD       		.byte	0xcd
 1946 098a A0000000 		.4byte	.LFB125
 1947 098e 1C000000 		.4byte	.LFE125-.LFB125
 1948 0992 01       		.uleb128 0x1
 1949 0993 9C       		.byte	0x9c
 1950 0994 C1090000 		.4byte	0x9c1
 1951 0998 1B       		.uleb128 0x1b
 1952 0999 35050000 		.4byte	.LASF148
 1953 099d 01       		.byte	0x1
 1954 099e CD       		.byte	0xcd
 1955 099f 0E030000 		.4byte	0x30e
 1956 09a3 9F020000 		.4byte	.LLST15
 1957 09a7 1C       		.uleb128 0x1c
 1958 09a8 0D070000 		.4byte	0x70d
 1959 09ac A0000000 		.4byte	.LBB62
 1960 09b0 1C000000 		.4byte	.LBE62-.LBB62
 1961 09b4 01       		.byte	0x1
 1962 09b5 D3       		.byte	0xd3
 1963 09b6 1D       		.uleb128 0x1d
 1964 09b7 1A070000 		.4byte	0x71a
 1965 09bb 9F020000 		.4byte	.LLST15
 1966 09bf 00       		.byte	0
 1967 09c0 00       		.byte	0
 1968 09c1 1A       		.uleb128 0x1a
 1969 09c2 5A030000 		.4byte	.LASF176
 1970 09c6 01       		.byte	0x1
 1971 09c7 DD       		.byte	0xdd
 1972 09c8 C0000000 		.4byte	.LFB126
 1973 09cc 24000000 		.4byte	.LFE126-.LFB126
 1974 09d0 01       		.uleb128 0x1
 1975 09d1 9C       		.byte	0x9c
 1976 09d2 1F0A0000 		.4byte	0xa1f
 1977 09d6 1B       		.uleb128 0x1b
 1978 09d7 35050000 		.4byte	.LASF148
 1979 09db 01       		.byte	0x1
 1980 09dc DD       		.byte	0xdd
ARM GAS  /tmp/ccL9X4rG.s 			page 36


 1981 09dd 0E030000 		.4byte	0x30e
 1982 09e1 C0020000 		.4byte	.LLST17
 1983 09e5 1C       		.uleb128 0x1c
 1984 09e6 27070000 		.4byte	0x727
 1985 09ea C0000000 		.4byte	.LBB64
 1986 09ee 24000000 		.4byte	.LBE64-.LBB64
 1987 09f2 01       		.byte	0x1
 1988 09f3 E3       		.byte	0xe3
 1989 09f4 1D       		.uleb128 0x1d
 1990 09f5 34070000 		.4byte	0x734
 1991 09f9 C0020000 		.4byte	.LLST17
 1992 09fd 26       		.uleb128 0x26
 1993 09fe 3C060000 		.4byte	0x63c
 1994 0a02 D6000000 		.4byte	.LBB66
 1995 0a06 04000000 		.4byte	.LBE66-.LBB66
 1996 0a0a 02       		.byte	0x2
 1997 0a0b A406     		.2byte	0x6a4
 1998 0a0d 26       		.uleb128 0x26
 1999 0a0e 45060000 		.4byte	0x645
 2000 0a12 DA000000 		.4byte	.LBB68
 2001 0a16 0A000000 		.4byte	.LBE68-.LBB68
 2002 0a1a 02       		.byte	0x2
 2003 0a1b A506     		.2byte	0x6a5
 2004 0a1d 00       		.byte	0
 2005 0a1e 00       		.byte	0
 2006 0a1f 13       		.uleb128 0x13
 2007 0a20 19080000 		.4byte	.LASF177
 2008 0a24 02       		.byte	0x2
 2009 0a25 7607     		.2byte	0x776
 2010 0a27 03       		.byte	0x3
 2011 0a28 1A       		.uleb128 0x1a
 2012 0a29 F6020000 		.4byte	.LASF178
 2013 0a2d 01       		.byte	0x1
 2014 0a2e EA       		.byte	0xea
 2015 0a2f F0000000 		.4byte	.LFB127
 2016 0a33 24000000 		.4byte	.LFE127-.LFB127
 2017 0a37 01       		.uleb128 0x1
 2018 0a38 9C       		.byte	0x9c
 2019 0a39 6E0A0000 		.4byte	0xa6e
 2020 0a3d 1C       		.uleb128 0x1c
 2021 0a3e 1F0A0000 		.4byte	0xa1f
 2022 0a42 F0000000 		.4byte	.LBB76
 2023 0a46 24000000 		.4byte	.LBE76-.LBB76
 2024 0a4a 01       		.byte	0x1
 2025 0a4b ED       		.byte	0xed
 2026 0a4c 26       		.uleb128 0x26
 2027 0a4d 3C060000 		.4byte	0x63c
 2028 0a51 F0000000 		.4byte	.LBB78
 2029 0a55 04000000 		.4byte	.LBE78-.LBB78
 2030 0a59 02       		.byte	0x2
 2031 0a5a 7807     		.2byte	0x778
 2032 0a5c 26       		.uleb128 0x26
 2033 0a5d 3C060000 		.4byte	0x63c
 2034 0a61 02010000 		.4byte	.LBB80
 2035 0a65 04000000 		.4byte	.LBE80-.LBB80
 2036 0a69 02       		.byte	0x2
 2037 0a6a 7D07     		.2byte	0x77d
ARM GAS  /tmp/ccL9X4rG.s 			page 37


 2038 0a6c 00       		.byte	0
 2039 0a6d 00       		.byte	0
 2040 0a6e 27       		.uleb128 0x27
 2041 0a6f 7D000000 		.4byte	.LASF180
 2042 0a73 01       		.byte	0x1
 2043 0a74 F7       		.byte	0xf7
 2044 0a75 A2000000 		.4byte	0xa2
 2045 0a79 20010000 		.4byte	.LFB128
 2046 0a7d 34000000 		.4byte	.LFE128-.LFB128
 2047 0a81 01       		.uleb128 0x1
 2048 0a82 9C       		.byte	0x9c
 2049 0a83 D30A0000 		.4byte	0xad3
 2050 0a87 1B       		.uleb128 0x1b
 2051 0a88 56080000 		.4byte	.LASF179
 2052 0a8c 01       		.byte	0x1
 2053 0a8d F7       		.byte	0xf7
 2054 0a8e A2000000 		.4byte	0xa2
 2055 0a92 E1020000 		.4byte	.LLST19
 2056 0a96 25       		.uleb128 0x25
 2057 0a97 41070000 		.4byte	0x741
 2058 0a9b 20010000 		.4byte	.LBB82
 2059 0a9f 40000000 		.4byte	.Ldebug_ranges0+0x40
 2060 0aa3 01       		.byte	0x1
 2061 0aa4 F9       		.byte	0xf9
 2062 0aa5 1D       		.uleb128 0x1d
 2063 0aa6 52070000 		.4byte	0x752
 2064 0aaa E1020000 		.4byte	.LLST19
 2065 0aae 28       		.uleb128 0x28
 2066 0aaf 4E060000 		.4byte	0x64e
 2067 0ab3 2C010000 		.4byte	.LBB84
 2068 0ab7 60000000 		.4byte	.Ldebug_ranges0+0x60
 2069 0abb 02       		.byte	0x2
 2070 0abc C907     		.2byte	0x7c9
 2071 0abe 1D       		.uleb128 0x1d
 2072 0abf 67060000 		.4byte	0x667
 2073 0ac3 1F030000 		.4byte	.LLST21
 2074 0ac7 1D       		.uleb128 0x1d
 2075 0ac8 5B060000 		.4byte	0x65b
 2076 0acc 33030000 		.4byte	.LLST22
 2077 0ad0 00       		.byte	0
 2078 0ad1 00       		.byte	0
 2079 0ad2 00       		.byte	0
 2080 0ad3 29       		.uleb128 0x29
 2081 0ad4 D6080000 		.4byte	.LASF181
 2082 0ad8 01       		.byte	0x1
 2083 0ad9 1301     		.2byte	0x113
 2084 0adb A2000000 		.4byte	0xa2
 2085 0adf 60010000 		.4byte	.LFB129
 2086 0ae3 10000000 		.4byte	.LFE129-.LFB129
 2087 0ae7 01       		.uleb128 0x1
 2088 0ae8 9C       		.byte	0x9c
 2089 0ae9 FE0A0000 		.4byte	0xafe
 2090 0aed 26       		.uleb128 0x26
 2091 0aee A6060000 		.4byte	0x6a6
 2092 0af2 60010000 		.4byte	.LBB92
 2093 0af6 04000000 		.4byte	.LBE92-.LBB92
 2094 0afa 01       		.byte	0x1
ARM GAS  /tmp/ccL9X4rG.s 			page 38


 2095 0afb 1601     		.2byte	0x116
 2096 0afd 00       		.byte	0
 2097 0afe 2A       		.uleb128 0x2a
 2098 0aff A8010000 		.4byte	.LASF182
 2099 0b03 01       		.byte	0x1
 2100 0b04 2E01     		.2byte	0x12e
 2101 0b06 70010000 		.4byte	.LFB130
 2102 0b0a 60000000 		.4byte	.LFE130-.LFB130
 2103 0b0e 01       		.uleb128 0x1
 2104 0b0f 9C       		.byte	0x9c
 2105 0b10 C10B0000 		.4byte	0xbc1
 2106 0b14 2B       		.uleb128 0x2b
 2107 0b15 35050000 		.4byte	.LASF148
 2108 0b19 01       		.byte	0x1
 2109 0b1a 2E01     		.2byte	0x12e
 2110 0b1c 0E030000 		.4byte	0x30e
 2111 0b20 48030000 		.4byte	.LLST23
 2112 0b24 2B       		.uleb128 0x2b
 2113 0b25 1E010000 		.4byte	.LASF152
 2114 0b29 01       		.byte	0x1
 2115 0b2a 2E01     		.2byte	0x12e
 2116 0b2c A2000000 		.4byte	0xa2
 2117 0b30 69030000 		.4byte	.LLST24
 2118 0b34 2C       		.uleb128 0x2c
 2119 0b35 AE030000 		.4byte	.LASF167
 2120 0b39 01       		.byte	0x1
 2121 0b3a 2E01     		.2byte	0x12e
 2122 0b3c E4070000 		.4byte	0x7e4
 2123 0b40 01       		.uleb128 0x1
 2124 0b41 52       		.byte	0x52
 2125 0b42 2C       		.uleb128 0x2c
 2126 0b43 14050000 		.4byte	.LASF168
 2127 0b47 01       		.byte	0x1
 2128 0b48 2E01     		.2byte	0x12e
 2129 0b4a E4070000 		.4byte	0x7e4
 2130 0b4e 01       		.uleb128 0x1
 2131 0b4f 53       		.byte	0x53
 2132 0b50 2D       		.uleb128 0x2d
 2133 0b51 5F070000 		.4byte	0x75f
 2134 0b55 70010000 		.4byte	.LBB94
 2135 0b59 78000000 		.4byte	.Ldebug_ranges0+0x78
 2136 0b5d 01       		.byte	0x1
 2137 0b5e 3301     		.2byte	0x133
 2138 0b60 6E0B0000 		.4byte	0xb6e
 2139 0b64 1D       		.uleb128 0x1d
 2140 0b65 70070000 		.4byte	0x770
 2141 0b69 48030000 		.4byte	.LLST23
 2142 0b6d 00       		.byte	0
 2143 0b6e 28       		.uleb128 0x28
 2144 0b6f 7D070000 		.4byte	0x77d
 2145 0b73 84010000 		.4byte	.LBB99
 2146 0b77 98000000 		.4byte	.Ldebug_ranges0+0x98
 2147 0b7b 01       		.byte	0x1
 2148 0b7c 3301     		.2byte	0x133
 2149 0b7e 1D       		.uleb128 0x1d
 2150 0b7f AE070000 		.4byte	0x7ae
 2151 0b83 95030000 		.4byte	.LLST26
ARM GAS  /tmp/ccL9X4rG.s 			page 39


 2152 0b87 1D       		.uleb128 0x1d
 2153 0b88 A2070000 		.4byte	0x7a2
 2154 0b8c A8030000 		.4byte	.LLST27
 2155 0b90 1D       		.uleb128 0x1d
 2156 0b91 96070000 		.4byte	0x796
 2157 0b95 BB030000 		.4byte	.LLST28
 2158 0b99 1D       		.uleb128 0x1d
 2159 0b9a 8A070000 		.4byte	0x78a
 2160 0b9e DC030000 		.4byte	.LLST29
 2161 0ba2 23       		.uleb128 0x23
 2162 0ba3 98000000 		.4byte	.Ldebug_ranges0+0x98
 2163 0ba7 1F       		.uleb128 0x1f
 2164 0ba8 BA070000 		.4byte	0x7ba
 2165 0bac FA030000 		.4byte	.LLST30
 2166 0bb0 1F       		.uleb128 0x1f
 2167 0bb1 C6070000 		.4byte	0x7c6
 2168 0bb5 4F040000 		.4byte	.LLST31
 2169 0bb9 24       		.uleb128 0x24
 2170 0bba D2070000 		.4byte	0x7d2
 2171 0bbe 00       		.byte	0
 2172 0bbf 00       		.byte	0
 2173 0bc0 00       		.byte	0
 2174 0bc1 2A       		.uleb128 0x2a
 2175 0bc2 CE0A0000 		.4byte	.LASF183
 2176 0bc6 01       		.byte	0x1
 2177 0bc7 3D01     		.2byte	0x13d
 2178 0bc9 D0010000 		.4byte	.LFB131
 2179 0bcd 1C000000 		.4byte	.LFE131-.LFB131
 2180 0bd1 01       		.uleb128 0x1
 2181 0bd2 9C       		.byte	0x9c
 2182 0bd3 020C0000 		.4byte	0xc02
 2183 0bd7 2B       		.uleb128 0x2b
 2184 0bd8 35050000 		.4byte	.LASF148
 2185 0bdc 01       		.byte	0x1
 2186 0bdd 3D01     		.2byte	0x13d
 2187 0bdf 0E030000 		.4byte	0x30e
 2188 0be3 94040000 		.4byte	.LLST32
 2189 0be7 2E       		.uleb128 0x2e
 2190 0be8 EA070000 		.4byte	0x7ea
 2191 0bec D0010000 		.4byte	.LBB104
 2192 0bf0 1C000000 		.4byte	.LBE104-.LBB104
 2193 0bf4 01       		.byte	0x1
 2194 0bf5 4301     		.2byte	0x143
 2195 0bf7 1D       		.uleb128 0x1d
 2196 0bf8 F7070000 		.4byte	0x7f7
 2197 0bfc 94040000 		.4byte	.LLST32
 2198 0c00 00       		.byte	0
 2199 0c01 00       		.byte	0
 2200 0c02 29       		.uleb128 0x29
 2201 0c03 CD020000 		.4byte	.LASF184
 2202 0c07 01       		.byte	0x1
 2203 0c08 4F01     		.2byte	0x14f
 2204 0c0a A2000000 		.4byte	0xa2
 2205 0c0e F0010000 		.4byte	.LFB132
 2206 0c12 24000000 		.4byte	.LFE132-.LFB132
 2207 0c16 01       		.uleb128 0x1
 2208 0c17 9C       		.byte	0x9c
ARM GAS  /tmp/ccL9X4rG.s 			page 40


 2209 0c18 470C0000 		.4byte	0xc47
 2210 0c1c 2B       		.uleb128 0x2b
 2211 0c1d 35050000 		.4byte	.LASF148
 2212 0c21 01       		.byte	0x1
 2213 0c22 4F01     		.2byte	0x14f
 2214 0c24 0E030000 		.4byte	0x30e
 2215 0c28 B5040000 		.4byte	.LLST34
 2216 0c2c 2E       		.uleb128 0x2e
 2217 0c2d 04080000 		.4byte	0x804
 2218 0c31 F0010000 		.4byte	.LBB106
 2219 0c35 1C000000 		.4byte	.LBE106-.LBB106
 2220 0c39 01       		.byte	0x1
 2221 0c3a 5501     		.2byte	0x155
 2222 0c3c 1D       		.uleb128 0x1d
 2223 0c3d 15080000 		.4byte	0x815
 2224 0c41 B5040000 		.4byte	.LLST34
 2225 0c45 00       		.byte	0
 2226 0c46 00       		.byte	0
 2227 0c47 2A       		.uleb128 0x2a
 2228 0c48 7D010000 		.4byte	.LASF185
 2229 0c4c 01       		.byte	0x1
 2230 0c4d 5F01     		.2byte	0x15f
 2231 0c4f 20020000 		.4byte	.LFB133
 2232 0c53 1C000000 		.4byte	.LFE133-.LFB133
 2233 0c57 01       		.uleb128 0x1
 2234 0c58 9C       		.byte	0x9c
 2235 0c59 880C0000 		.4byte	0xc88
 2236 0c5d 2B       		.uleb128 0x2b
 2237 0c5e 35050000 		.4byte	.LASF148
 2238 0c62 01       		.byte	0x1
 2239 0c63 5F01     		.2byte	0x15f
 2240 0c65 0E030000 		.4byte	0x30e
 2241 0c69 EF040000 		.4byte	.LLST36
 2242 0c6d 2E       		.uleb128 0x2e
 2243 0c6e 22080000 		.4byte	0x822
 2244 0c72 20020000 		.4byte	.LBB108
 2245 0c76 1C000000 		.4byte	.LBE108-.LBB108
 2246 0c7a 01       		.byte	0x1
 2247 0c7b 6501     		.2byte	0x165
 2248 0c7d 1D       		.uleb128 0x1d
 2249 0c7e 2F080000 		.4byte	0x82f
 2250 0c82 EF040000 		.4byte	.LLST36
 2251 0c86 00       		.byte	0
 2252 0c87 00       		.byte	0
 2253 0c88 29       		.uleb128 0x29
 2254 0c89 B3040000 		.4byte	.LASF186
 2255 0c8d 01       		.byte	0x1
 2256 0c8e 7001     		.2byte	0x170
 2257 0c90 A2000000 		.4byte	0xa2
 2258 0c94 40020000 		.4byte	.LFB134
 2259 0c98 24000000 		.4byte	.LFE134-.LFB134
 2260 0c9c 01       		.uleb128 0x1
 2261 0c9d 9C       		.byte	0x9c
 2262 0c9e CD0C0000 		.4byte	0xccd
 2263 0ca2 2B       		.uleb128 0x2b
 2264 0ca3 35050000 		.4byte	.LASF148
 2265 0ca7 01       		.byte	0x1
ARM GAS  /tmp/ccL9X4rG.s 			page 41


 2266 0ca8 7001     		.2byte	0x170
 2267 0caa 0E030000 		.4byte	0x30e
 2268 0cae 10050000 		.4byte	.LLST38
 2269 0cb2 2E       		.uleb128 0x2e
 2270 0cb3 3C080000 		.4byte	0x83c
 2271 0cb7 40020000 		.4byte	.LBB110
 2272 0cbb 1C000000 		.4byte	.LBE110-.LBB110
 2273 0cbf 01       		.byte	0x1
 2274 0cc0 7601     		.2byte	0x176
 2275 0cc2 1D       		.uleb128 0x1d
 2276 0cc3 4D080000 		.4byte	0x84d
 2277 0cc7 10050000 		.4byte	.LLST38
 2278 0ccb 00       		.byte	0
 2279 0ccc 00       		.byte	0
 2280 0ccd 2A       		.uleb128 0x2a
 2281 0cce 6A080000 		.4byte	.LASF187
 2282 0cd2 01       		.byte	0x1
 2283 0cd3 8101     		.2byte	0x181
 2284 0cd5 70020000 		.4byte	.LFB135
 2285 0cd9 18000000 		.4byte	.LFE135-.LFB135
 2286 0cdd 01       		.uleb128 0x1
 2287 0cde 9C       		.byte	0x9c
 2288 0cdf F20C0000 		.4byte	0xcf2
 2289 0ce3 2C       		.uleb128 0x2c
 2290 0ce4 12020000 		.4byte	.LASF188
 2291 0ce8 01       		.byte	0x1
 2292 0ce9 8101     		.2byte	0x181
 2293 0ceb A2000000 		.4byte	0xa2
 2294 0cef 01       		.uleb128 0x1
 2295 0cf0 50       		.byte	0x50
 2296 0cf1 00       		.byte	0
 2297 0cf2 2F       		.uleb128 0x2f
 2298 0cf3 4E060000 		.4byte	.LASF195
 2299 0cf7 01       		.byte	0x1
 2300 0cf8 9C01     		.2byte	0x19c
 2301 0cfa 90020000 		.4byte	.LFB137
 2302 0cfe 02000000 		.4byte	.LFE137-.LFB137
 2303 0d02 01       		.uleb128 0x1
 2304 0d03 9C       		.byte	0x9c
 2305 0d04 2A       		.uleb128 0x2a
 2306 0d05 66010000 		.4byte	.LASF189
 2307 0d09 01       		.byte	0x1
 2308 0d0a 9301     		.2byte	0x193
 2309 0d0c A0020000 		.4byte	.LFB136
 2310 0d10 08000000 		.4byte	.LFE136-.LFB136
 2311 0d14 01       		.uleb128 0x1
 2312 0d15 9C       		.byte	0x9c
 2313 0d16 240D0000 		.4byte	0xd24
 2314 0d1a 30       		.uleb128 0x30
 2315 0d1b A6020000 		.4byte	.LVL60
 2316 0d1f F20C0000 		.4byte	0xcf2
 2317 0d23 00       		.byte	0
 2318 0d24 31       		.uleb128 0x31
 2319 0d25 23070000 		.4byte	.LASF196
 2320 0d29 02       		.byte	0x2
 2321 0d2a DF07     		.2byte	0x7df
 2322 0d2c 300D0000 		.4byte	0xd30
ARM GAS  /tmp/ccL9X4rG.s 			page 42


 2323 0d30 0D       		.uleb128 0xd
 2324 0d31 97000000 		.4byte	0x97
 2325 0d35 00       		.byte	0
 2326              		.section	.debug_abbrev,"",%progbits
 2327              	.Ldebug_abbrev0:
 2328 0000 01       		.uleb128 0x1
 2329 0001 11       		.uleb128 0x11
 2330 0002 01       		.byte	0x1
 2331 0003 25       		.uleb128 0x25
 2332 0004 0E       		.uleb128 0xe
 2333 0005 13       		.uleb128 0x13
 2334 0006 0B       		.uleb128 0xb
 2335 0007 03       		.uleb128 0x3
 2336 0008 0E       		.uleb128 0xe
 2337 0009 1B       		.uleb128 0x1b
 2338 000a 0E       		.uleb128 0xe
 2339 000b 11       		.uleb128 0x11
 2340 000c 01       		.uleb128 0x1
 2341 000d 12       		.uleb128 0x12
 2342 000e 06       		.uleb128 0x6
 2343 000f 10       		.uleb128 0x10
 2344 0010 17       		.uleb128 0x17
 2345 0011 00       		.byte	0
 2346 0012 00       		.byte	0
 2347 0013 02       		.uleb128 0x2
 2348 0014 24       		.uleb128 0x24
 2349 0015 00       		.byte	0
 2350 0016 0B       		.uleb128 0xb
 2351 0017 0B       		.uleb128 0xb
 2352 0018 3E       		.uleb128 0x3e
 2353 0019 0B       		.uleb128 0xb
 2354 001a 03       		.uleb128 0x3
 2355 001b 0E       		.uleb128 0xe
 2356 001c 00       		.byte	0
 2357 001d 00       		.byte	0
 2358 001e 03       		.uleb128 0x3
 2359 001f 16       		.uleb128 0x16
 2360 0020 00       		.byte	0
 2361 0021 03       		.uleb128 0x3
 2362 0022 0E       		.uleb128 0xe
 2363 0023 3A       		.uleb128 0x3a
 2364 0024 0B       		.uleb128 0xb
 2365 0025 3B       		.uleb128 0x3b
 2366 0026 0B       		.uleb128 0xb
 2367 0027 49       		.uleb128 0x49
 2368 0028 13       		.uleb128 0x13
 2369 0029 00       		.byte	0
 2370 002a 00       		.byte	0
 2371 002b 04       		.uleb128 0x4
 2372 002c 24       		.uleb128 0x24
 2373 002d 00       		.byte	0
 2374 002e 0B       		.uleb128 0xb
 2375 002f 0B       		.uleb128 0xb
 2376 0030 3E       		.uleb128 0x3e
 2377 0031 0B       		.uleb128 0xb
 2378 0032 03       		.uleb128 0x3
 2379 0033 08       		.uleb128 0x8
ARM GAS  /tmp/ccL9X4rG.s 			page 43


 2380 0034 00       		.byte	0
 2381 0035 00       		.byte	0
 2382 0036 05       		.uleb128 0x5
 2383 0037 04       		.uleb128 0x4
 2384 0038 01       		.byte	0x1
 2385 0039 0B       		.uleb128 0xb
 2386 003a 0B       		.uleb128 0xb
 2387 003b 3A       		.uleb128 0x3a
 2388 003c 0B       		.uleb128 0xb
 2389 003d 3B       		.uleb128 0x3b
 2390 003e 0B       		.uleb128 0xb
 2391 003f 01       		.uleb128 0x1
 2392 0040 13       		.uleb128 0x13
 2393 0041 00       		.byte	0
 2394 0042 00       		.byte	0
 2395 0043 06       		.uleb128 0x6
 2396 0044 28       		.uleb128 0x28
 2397 0045 00       		.byte	0
 2398 0046 03       		.uleb128 0x3
 2399 0047 0E       		.uleb128 0xe
 2400 0048 1C       		.uleb128 0x1c
 2401 0049 0D       		.uleb128 0xd
 2402 004a 00       		.byte	0
 2403 004b 00       		.byte	0
 2404 004c 07       		.uleb128 0x7
 2405 004d 13       		.uleb128 0x13
 2406 004e 01       		.byte	0x1
 2407 004f 0B       		.uleb128 0xb
 2408 0050 05       		.uleb128 0x5
 2409 0051 3A       		.uleb128 0x3a
 2410 0052 0B       		.uleb128 0xb
 2411 0053 3B       		.uleb128 0x3b
 2412 0054 05       		.uleb128 0x5
 2413 0055 01       		.uleb128 0x1
 2414 0056 13       		.uleb128 0x13
 2415 0057 00       		.byte	0
 2416 0058 00       		.byte	0
 2417 0059 08       		.uleb128 0x8
 2418 005a 0D       		.uleb128 0xd
 2419 005b 00       		.byte	0
 2420 005c 03       		.uleb128 0x3
 2421 005d 0E       		.uleb128 0xe
 2422 005e 3A       		.uleb128 0x3a
 2423 005f 0B       		.uleb128 0xb
 2424 0060 3B       		.uleb128 0x3b
 2425 0061 05       		.uleb128 0x5
 2426 0062 49       		.uleb128 0x49
 2427 0063 13       		.uleb128 0x13
 2428 0064 38       		.uleb128 0x38
 2429 0065 0B       		.uleb128 0xb
 2430 0066 00       		.byte	0
 2431 0067 00       		.byte	0
 2432 0068 09       		.uleb128 0x9
 2433 0069 0D       		.uleb128 0xd
 2434 006a 00       		.byte	0
 2435 006b 03       		.uleb128 0x3
 2436 006c 0E       		.uleb128 0xe
ARM GAS  /tmp/ccL9X4rG.s 			page 44


 2437 006d 3A       		.uleb128 0x3a
 2438 006e 0B       		.uleb128 0xb
 2439 006f 3B       		.uleb128 0x3b
 2440 0070 05       		.uleb128 0x5
 2441 0071 49       		.uleb128 0x49
 2442 0072 13       		.uleb128 0x13
 2443 0073 38       		.uleb128 0x38
 2444 0074 05       		.uleb128 0x5
 2445 0075 00       		.byte	0
 2446 0076 00       		.byte	0
 2447 0077 0A       		.uleb128 0xa
 2448 0078 0D       		.uleb128 0xd
 2449 0079 00       		.byte	0
 2450 007a 03       		.uleb128 0x3
 2451 007b 08       		.uleb128 0x8
 2452 007c 3A       		.uleb128 0x3a
 2453 007d 0B       		.uleb128 0xb
 2454 007e 3B       		.uleb128 0x3b
 2455 007f 05       		.uleb128 0x5
 2456 0080 49       		.uleb128 0x49
 2457 0081 13       		.uleb128 0x13
 2458 0082 38       		.uleb128 0x38
 2459 0083 05       		.uleb128 0x5
 2460 0084 00       		.byte	0
 2461 0085 00       		.byte	0
 2462 0086 0B       		.uleb128 0xb
 2463 0087 01       		.uleb128 0x1
 2464 0088 01       		.byte	0x1
 2465 0089 49       		.uleb128 0x49
 2466 008a 13       		.uleb128 0x13
 2467 008b 01       		.uleb128 0x1
 2468 008c 13       		.uleb128 0x13
 2469 008d 00       		.byte	0
 2470 008e 00       		.byte	0
 2471 008f 0C       		.uleb128 0xc
 2472 0090 21       		.uleb128 0x21
 2473 0091 00       		.byte	0
 2474 0092 49       		.uleb128 0x49
 2475 0093 13       		.uleb128 0x13
 2476 0094 2F       		.uleb128 0x2f
 2477 0095 0B       		.uleb128 0xb
 2478 0096 00       		.byte	0
 2479 0097 00       		.byte	0
 2480 0098 0D       		.uleb128 0xd
 2481 0099 35       		.uleb128 0x35
 2482 009a 00       		.byte	0
 2483 009b 49       		.uleb128 0x49
 2484 009c 13       		.uleb128 0x13
 2485 009d 00       		.byte	0
 2486 009e 00       		.byte	0
 2487 009f 0E       		.uleb128 0xe
 2488 00a0 21       		.uleb128 0x21
 2489 00a1 00       		.byte	0
 2490 00a2 49       		.uleb128 0x49
 2491 00a3 13       		.uleb128 0x13
 2492 00a4 2F       		.uleb128 0x2f
 2493 00a5 05       		.uleb128 0x5
ARM GAS  /tmp/ccL9X4rG.s 			page 45


 2494 00a6 00       		.byte	0
 2495 00a7 00       		.byte	0
 2496 00a8 0F       		.uleb128 0xf
 2497 00a9 16       		.uleb128 0x16
 2498 00aa 00       		.byte	0
 2499 00ab 03       		.uleb128 0x3
 2500 00ac 0E       		.uleb128 0xe
 2501 00ad 3A       		.uleb128 0x3a
 2502 00ae 0B       		.uleb128 0xb
 2503 00af 3B       		.uleb128 0x3b
 2504 00b0 05       		.uleb128 0x5
 2505 00b1 49       		.uleb128 0x49
 2506 00b2 13       		.uleb128 0x13
 2507 00b3 00       		.byte	0
 2508 00b4 00       		.byte	0
 2509 00b5 10       		.uleb128 0x10
 2510 00b6 13       		.uleb128 0x13
 2511 00b7 01       		.byte	0x1
 2512 00b8 0B       		.uleb128 0xb
 2513 00b9 0B       		.uleb128 0xb
 2514 00ba 3A       		.uleb128 0x3a
 2515 00bb 0B       		.uleb128 0xb
 2516 00bc 3B       		.uleb128 0x3b
 2517 00bd 05       		.uleb128 0x5
 2518 00be 01       		.uleb128 0x1
 2519 00bf 13       		.uleb128 0x13
 2520 00c0 00       		.byte	0
 2521 00c1 00       		.byte	0
 2522 00c2 11       		.uleb128 0x11
 2523 00c3 0D       		.uleb128 0xd
 2524 00c4 00       		.byte	0
 2525 00c5 03       		.uleb128 0x3
 2526 00c6 08       		.uleb128 0x8
 2527 00c7 3A       		.uleb128 0x3a
 2528 00c8 0B       		.uleb128 0xb
 2529 00c9 3B       		.uleb128 0x3b
 2530 00ca 05       		.uleb128 0x5
 2531 00cb 49       		.uleb128 0x49
 2532 00cc 13       		.uleb128 0x13
 2533 00cd 38       		.uleb128 0x38
 2534 00ce 0B       		.uleb128 0xb
 2535 00cf 00       		.byte	0
 2536 00d0 00       		.byte	0
 2537 00d1 12       		.uleb128 0x12
 2538 00d2 26       		.uleb128 0x26
 2539 00d3 00       		.byte	0
 2540 00d4 49       		.uleb128 0x49
 2541 00d5 13       		.uleb128 0x13
 2542 00d6 00       		.byte	0
 2543 00d7 00       		.byte	0
 2544 00d8 13       		.uleb128 0x13
 2545 00d9 2E       		.uleb128 0x2e
 2546 00da 00       		.byte	0
 2547 00db 03       		.uleb128 0x3
 2548 00dc 0E       		.uleb128 0xe
 2549 00dd 3A       		.uleb128 0x3a
 2550 00de 0B       		.uleb128 0xb
ARM GAS  /tmp/ccL9X4rG.s 			page 46


 2551 00df 3B       		.uleb128 0x3b
 2552 00e0 05       		.uleb128 0x5
 2553 00e1 27       		.uleb128 0x27
 2554 00e2 19       		.uleb128 0x19
 2555 00e3 20       		.uleb128 0x20
 2556 00e4 0B       		.uleb128 0xb
 2557 00e5 00       		.byte	0
 2558 00e6 00       		.byte	0
 2559 00e7 14       		.uleb128 0x14
 2560 00e8 2E       		.uleb128 0x2e
 2561 00e9 01       		.byte	0x1
 2562 00ea 03       		.uleb128 0x3
 2563 00eb 0E       		.uleb128 0xe
 2564 00ec 3A       		.uleb128 0x3a
 2565 00ed 0B       		.uleb128 0xb
 2566 00ee 3B       		.uleb128 0x3b
 2567 00ef 05       		.uleb128 0x5
 2568 00f0 27       		.uleb128 0x27
 2569 00f1 19       		.uleb128 0x19
 2570 00f2 20       		.uleb128 0x20
 2571 00f3 0B       		.uleb128 0xb
 2572 00f4 01       		.uleb128 0x1
 2573 00f5 13       		.uleb128 0x13
 2574 00f6 00       		.byte	0
 2575 00f7 00       		.byte	0
 2576 00f8 15       		.uleb128 0x15
 2577 00f9 05       		.uleb128 0x5
 2578 00fa 00       		.byte	0
 2579 00fb 03       		.uleb128 0x3
 2580 00fc 0E       		.uleb128 0xe
 2581 00fd 3A       		.uleb128 0x3a
 2582 00fe 0B       		.uleb128 0xb
 2583 00ff 3B       		.uleb128 0x3b
 2584 0100 05       		.uleb128 0x5
 2585 0101 49       		.uleb128 0x49
 2586 0102 13       		.uleb128 0x13
 2587 0103 00       		.byte	0
 2588 0104 00       		.byte	0
 2589 0105 16       		.uleb128 0x16
 2590 0106 34       		.uleb128 0x34
 2591 0107 00       		.byte	0
 2592 0108 03       		.uleb128 0x3
 2593 0109 0E       		.uleb128 0xe
 2594 010a 3A       		.uleb128 0x3a
 2595 010b 0B       		.uleb128 0xb
 2596 010c 3B       		.uleb128 0x3b
 2597 010d 05       		.uleb128 0x5
 2598 010e 49       		.uleb128 0x49
 2599 010f 13       		.uleb128 0x13
 2600 0110 00       		.byte	0
 2601 0111 00       		.byte	0
 2602 0112 17       		.uleb128 0x17
 2603 0113 2E       		.uleb128 0x2e
 2604 0114 00       		.byte	0
 2605 0115 03       		.uleb128 0x3
 2606 0116 0E       		.uleb128 0xe
 2607 0117 3A       		.uleb128 0x3a
ARM GAS  /tmp/ccL9X4rG.s 			page 47


 2608 0118 0B       		.uleb128 0xb
 2609 0119 3B       		.uleb128 0x3b
 2610 011a 05       		.uleb128 0x5
 2611 011b 27       		.uleb128 0x27
 2612 011c 19       		.uleb128 0x19
 2613 011d 49       		.uleb128 0x49
 2614 011e 13       		.uleb128 0x13
 2615 011f 20       		.uleb128 0x20
 2616 0120 0B       		.uleb128 0xb
 2617 0121 00       		.byte	0
 2618 0122 00       		.byte	0
 2619 0123 18       		.uleb128 0x18
 2620 0124 2E       		.uleb128 0x2e
 2621 0125 01       		.byte	0x1
 2622 0126 03       		.uleb128 0x3
 2623 0127 0E       		.uleb128 0xe
 2624 0128 3A       		.uleb128 0x3a
 2625 0129 0B       		.uleb128 0xb
 2626 012a 3B       		.uleb128 0x3b
 2627 012b 05       		.uleb128 0x5
 2628 012c 27       		.uleb128 0x27
 2629 012d 19       		.uleb128 0x19
 2630 012e 49       		.uleb128 0x49
 2631 012f 13       		.uleb128 0x13
 2632 0130 20       		.uleb128 0x20
 2633 0131 0B       		.uleb128 0xb
 2634 0132 01       		.uleb128 0x1
 2635 0133 13       		.uleb128 0x13
 2636 0134 00       		.byte	0
 2637 0135 00       		.byte	0
 2638 0136 19       		.uleb128 0x19
 2639 0137 0F       		.uleb128 0xf
 2640 0138 00       		.byte	0
 2641 0139 0B       		.uleb128 0xb
 2642 013a 0B       		.uleb128 0xb
 2643 013b 49       		.uleb128 0x49
 2644 013c 13       		.uleb128 0x13
 2645 013d 00       		.byte	0
 2646 013e 00       		.byte	0
 2647 013f 1A       		.uleb128 0x1a
 2648 0140 2E       		.uleb128 0x2e
 2649 0141 01       		.byte	0x1
 2650 0142 3F       		.uleb128 0x3f
 2651 0143 19       		.uleb128 0x19
 2652 0144 03       		.uleb128 0x3
 2653 0145 0E       		.uleb128 0xe
 2654 0146 3A       		.uleb128 0x3a
 2655 0147 0B       		.uleb128 0xb
 2656 0148 3B       		.uleb128 0x3b
 2657 0149 0B       		.uleb128 0xb
 2658 014a 27       		.uleb128 0x27
 2659 014b 19       		.uleb128 0x19
 2660 014c 11       		.uleb128 0x11
 2661 014d 01       		.uleb128 0x1
 2662 014e 12       		.uleb128 0x12
 2663 014f 06       		.uleb128 0x6
 2664 0150 40       		.uleb128 0x40
ARM GAS  /tmp/ccL9X4rG.s 			page 48


 2665 0151 18       		.uleb128 0x18
 2666 0152 9742     		.uleb128 0x2117
 2667 0154 19       		.uleb128 0x19
 2668 0155 01       		.uleb128 0x1
 2669 0156 13       		.uleb128 0x13
 2670 0157 00       		.byte	0
 2671 0158 00       		.byte	0
 2672 0159 1B       		.uleb128 0x1b
 2673 015a 05       		.uleb128 0x5
 2674 015b 00       		.byte	0
 2675 015c 03       		.uleb128 0x3
 2676 015d 0E       		.uleb128 0xe
 2677 015e 3A       		.uleb128 0x3a
 2678 015f 0B       		.uleb128 0xb
 2679 0160 3B       		.uleb128 0x3b
 2680 0161 0B       		.uleb128 0xb
 2681 0162 49       		.uleb128 0x49
 2682 0163 13       		.uleb128 0x13
 2683 0164 02       		.uleb128 0x2
 2684 0165 17       		.uleb128 0x17
 2685 0166 00       		.byte	0
 2686 0167 00       		.byte	0
 2687 0168 1C       		.uleb128 0x1c
 2688 0169 1D       		.uleb128 0x1d
 2689 016a 01       		.byte	0x1
 2690 016b 31       		.uleb128 0x31
 2691 016c 13       		.uleb128 0x13
 2692 016d 11       		.uleb128 0x11
 2693 016e 01       		.uleb128 0x1
 2694 016f 12       		.uleb128 0x12
 2695 0170 06       		.uleb128 0x6
 2696 0171 58       		.uleb128 0x58
 2697 0172 0B       		.uleb128 0xb
 2698 0173 59       		.uleb128 0x59
 2699 0174 0B       		.uleb128 0xb
 2700 0175 00       		.byte	0
 2701 0176 00       		.byte	0
 2702 0177 1D       		.uleb128 0x1d
 2703 0178 05       		.uleb128 0x5
 2704 0179 00       		.byte	0
 2705 017a 31       		.uleb128 0x31
 2706 017b 13       		.uleb128 0x13
 2707 017c 02       		.uleb128 0x2
 2708 017d 17       		.uleb128 0x17
 2709 017e 00       		.byte	0
 2710 017f 00       		.byte	0
 2711 0180 1E       		.uleb128 0x1e
 2712 0181 0B       		.uleb128 0xb
 2713 0182 01       		.byte	0x1
 2714 0183 11       		.uleb128 0x11
 2715 0184 01       		.uleb128 0x1
 2716 0185 12       		.uleb128 0x12
 2717 0186 06       		.uleb128 0x6
 2718 0187 00       		.byte	0
 2719 0188 00       		.byte	0
 2720 0189 1F       		.uleb128 0x1f
 2721 018a 34       		.uleb128 0x34
ARM GAS  /tmp/ccL9X4rG.s 			page 49


 2722 018b 00       		.byte	0
 2723 018c 31       		.uleb128 0x31
 2724 018d 13       		.uleb128 0x13
 2725 018e 02       		.uleb128 0x2
 2726 018f 17       		.uleb128 0x17
 2727 0190 00       		.byte	0
 2728 0191 00       		.byte	0
 2729 0192 20       		.uleb128 0x20
 2730 0193 34       		.uleb128 0x34
 2731 0194 00       		.byte	0
 2732 0195 03       		.uleb128 0x3
 2733 0196 0E       		.uleb128 0xe
 2734 0197 3A       		.uleb128 0x3a
 2735 0198 0B       		.uleb128 0xb
 2736 0199 3B       		.uleb128 0x3b
 2737 019a 0B       		.uleb128 0xb
 2738 019b 49       		.uleb128 0x49
 2739 019c 13       		.uleb128 0x13
 2740 019d 02       		.uleb128 0x2
 2741 019e 17       		.uleb128 0x17
 2742 019f 00       		.byte	0
 2743 01a0 00       		.byte	0
 2744 01a1 21       		.uleb128 0x21
 2745 01a2 1D       		.uleb128 0x1d
 2746 01a3 00       		.byte	0
 2747 01a4 31       		.uleb128 0x31
 2748 01a5 13       		.uleb128 0x13
 2749 01a6 11       		.uleb128 0x11
 2750 01a7 01       		.uleb128 0x1
 2751 01a8 12       		.uleb128 0x12
 2752 01a9 06       		.uleb128 0x6
 2753 01aa 58       		.uleb128 0x58
 2754 01ab 0B       		.uleb128 0xb
 2755 01ac 59       		.uleb128 0x59
 2756 01ad 0B       		.uleb128 0xb
 2757 01ae 00       		.byte	0
 2758 01af 00       		.byte	0
 2759 01b0 22       		.uleb128 0x22
 2760 01b1 1D       		.uleb128 0x1d
 2761 01b2 01       		.byte	0x1
 2762 01b3 31       		.uleb128 0x31
 2763 01b4 13       		.uleb128 0x13
 2764 01b5 52       		.uleb128 0x52
 2765 01b6 01       		.uleb128 0x1
 2766 01b7 55       		.uleb128 0x55
 2767 01b8 17       		.uleb128 0x17
 2768 01b9 58       		.uleb128 0x58
 2769 01ba 0B       		.uleb128 0xb
 2770 01bb 59       		.uleb128 0x59
 2771 01bc 0B       		.uleb128 0xb
 2772 01bd 01       		.uleb128 0x1
 2773 01be 13       		.uleb128 0x13
 2774 01bf 00       		.byte	0
 2775 01c0 00       		.byte	0
 2776 01c1 23       		.uleb128 0x23
 2777 01c2 0B       		.uleb128 0xb
 2778 01c3 01       		.byte	0x1
ARM GAS  /tmp/ccL9X4rG.s 			page 50


 2779 01c4 55       		.uleb128 0x55
 2780 01c5 17       		.uleb128 0x17
 2781 01c6 00       		.byte	0
 2782 01c7 00       		.byte	0
 2783 01c8 24       		.uleb128 0x24
 2784 01c9 34       		.uleb128 0x34
 2785 01ca 00       		.byte	0
 2786 01cb 31       		.uleb128 0x31
 2787 01cc 13       		.uleb128 0x13
 2788 01cd 00       		.byte	0
 2789 01ce 00       		.byte	0
 2790 01cf 25       		.uleb128 0x25
 2791 01d0 1D       		.uleb128 0x1d
 2792 01d1 01       		.byte	0x1
 2793 01d2 31       		.uleb128 0x31
 2794 01d3 13       		.uleb128 0x13
 2795 01d4 52       		.uleb128 0x52
 2796 01d5 01       		.uleb128 0x1
 2797 01d6 55       		.uleb128 0x55
 2798 01d7 17       		.uleb128 0x17
 2799 01d8 58       		.uleb128 0x58
 2800 01d9 0B       		.uleb128 0xb
 2801 01da 59       		.uleb128 0x59
 2802 01db 0B       		.uleb128 0xb
 2803 01dc 00       		.byte	0
 2804 01dd 00       		.byte	0
 2805 01de 26       		.uleb128 0x26
 2806 01df 1D       		.uleb128 0x1d
 2807 01e0 00       		.byte	0
 2808 01e1 31       		.uleb128 0x31
 2809 01e2 13       		.uleb128 0x13
 2810 01e3 11       		.uleb128 0x11
 2811 01e4 01       		.uleb128 0x1
 2812 01e5 12       		.uleb128 0x12
 2813 01e6 06       		.uleb128 0x6
 2814 01e7 58       		.uleb128 0x58
 2815 01e8 0B       		.uleb128 0xb
 2816 01e9 59       		.uleb128 0x59
 2817 01ea 05       		.uleb128 0x5
 2818 01eb 00       		.byte	0
 2819 01ec 00       		.byte	0
 2820 01ed 27       		.uleb128 0x27
 2821 01ee 2E       		.uleb128 0x2e
 2822 01ef 01       		.byte	0x1
 2823 01f0 3F       		.uleb128 0x3f
 2824 01f1 19       		.uleb128 0x19
 2825 01f2 03       		.uleb128 0x3
 2826 01f3 0E       		.uleb128 0xe
 2827 01f4 3A       		.uleb128 0x3a
 2828 01f5 0B       		.uleb128 0xb
 2829 01f6 3B       		.uleb128 0x3b
 2830 01f7 0B       		.uleb128 0xb
 2831 01f8 27       		.uleb128 0x27
 2832 01f9 19       		.uleb128 0x19
 2833 01fa 49       		.uleb128 0x49
 2834 01fb 13       		.uleb128 0x13
 2835 01fc 11       		.uleb128 0x11
ARM GAS  /tmp/ccL9X4rG.s 			page 51


 2836 01fd 01       		.uleb128 0x1
 2837 01fe 12       		.uleb128 0x12
 2838 01ff 06       		.uleb128 0x6
 2839 0200 40       		.uleb128 0x40
 2840 0201 18       		.uleb128 0x18
 2841 0202 9742     		.uleb128 0x2117
 2842 0204 19       		.uleb128 0x19
 2843 0205 01       		.uleb128 0x1
 2844 0206 13       		.uleb128 0x13
 2845 0207 00       		.byte	0
 2846 0208 00       		.byte	0
 2847 0209 28       		.uleb128 0x28
 2848 020a 1D       		.uleb128 0x1d
 2849 020b 01       		.byte	0x1
 2850 020c 31       		.uleb128 0x31
 2851 020d 13       		.uleb128 0x13
 2852 020e 52       		.uleb128 0x52
 2853 020f 01       		.uleb128 0x1
 2854 0210 55       		.uleb128 0x55
 2855 0211 17       		.uleb128 0x17
 2856 0212 58       		.uleb128 0x58
 2857 0213 0B       		.uleb128 0xb
 2858 0214 59       		.uleb128 0x59
 2859 0215 05       		.uleb128 0x5
 2860 0216 00       		.byte	0
 2861 0217 00       		.byte	0
 2862 0218 29       		.uleb128 0x29
 2863 0219 2E       		.uleb128 0x2e
 2864 021a 01       		.byte	0x1
 2865 021b 3F       		.uleb128 0x3f
 2866 021c 19       		.uleb128 0x19
 2867 021d 03       		.uleb128 0x3
 2868 021e 0E       		.uleb128 0xe
 2869 021f 3A       		.uleb128 0x3a
 2870 0220 0B       		.uleb128 0xb
 2871 0221 3B       		.uleb128 0x3b
 2872 0222 05       		.uleb128 0x5
 2873 0223 27       		.uleb128 0x27
 2874 0224 19       		.uleb128 0x19
 2875 0225 49       		.uleb128 0x49
 2876 0226 13       		.uleb128 0x13
 2877 0227 11       		.uleb128 0x11
 2878 0228 01       		.uleb128 0x1
 2879 0229 12       		.uleb128 0x12
 2880 022a 06       		.uleb128 0x6
 2881 022b 40       		.uleb128 0x40
 2882 022c 18       		.uleb128 0x18
 2883 022d 9742     		.uleb128 0x2117
 2884 022f 19       		.uleb128 0x19
 2885 0230 01       		.uleb128 0x1
 2886 0231 13       		.uleb128 0x13
 2887 0232 00       		.byte	0
 2888 0233 00       		.byte	0
 2889 0234 2A       		.uleb128 0x2a
 2890 0235 2E       		.uleb128 0x2e
 2891 0236 01       		.byte	0x1
 2892 0237 3F       		.uleb128 0x3f
ARM GAS  /tmp/ccL9X4rG.s 			page 52


 2893 0238 19       		.uleb128 0x19
 2894 0239 03       		.uleb128 0x3
 2895 023a 0E       		.uleb128 0xe
 2896 023b 3A       		.uleb128 0x3a
 2897 023c 0B       		.uleb128 0xb
 2898 023d 3B       		.uleb128 0x3b
 2899 023e 05       		.uleb128 0x5
 2900 023f 27       		.uleb128 0x27
 2901 0240 19       		.uleb128 0x19
 2902 0241 11       		.uleb128 0x11
 2903 0242 01       		.uleb128 0x1
 2904 0243 12       		.uleb128 0x12
 2905 0244 06       		.uleb128 0x6
 2906 0245 40       		.uleb128 0x40
 2907 0246 18       		.uleb128 0x18
 2908 0247 9742     		.uleb128 0x2117
 2909 0249 19       		.uleb128 0x19
 2910 024a 01       		.uleb128 0x1
 2911 024b 13       		.uleb128 0x13
 2912 024c 00       		.byte	0
 2913 024d 00       		.byte	0
 2914 024e 2B       		.uleb128 0x2b
 2915 024f 05       		.uleb128 0x5
 2916 0250 00       		.byte	0
 2917 0251 03       		.uleb128 0x3
 2918 0252 0E       		.uleb128 0xe
 2919 0253 3A       		.uleb128 0x3a
 2920 0254 0B       		.uleb128 0xb
 2921 0255 3B       		.uleb128 0x3b
 2922 0256 05       		.uleb128 0x5
 2923 0257 49       		.uleb128 0x49
 2924 0258 13       		.uleb128 0x13
 2925 0259 02       		.uleb128 0x2
 2926 025a 17       		.uleb128 0x17
 2927 025b 00       		.byte	0
 2928 025c 00       		.byte	0
 2929 025d 2C       		.uleb128 0x2c
 2930 025e 05       		.uleb128 0x5
 2931 025f 00       		.byte	0
 2932 0260 03       		.uleb128 0x3
 2933 0261 0E       		.uleb128 0xe
 2934 0262 3A       		.uleb128 0x3a
 2935 0263 0B       		.uleb128 0xb
 2936 0264 3B       		.uleb128 0x3b
 2937 0265 05       		.uleb128 0x5
 2938 0266 49       		.uleb128 0x49
 2939 0267 13       		.uleb128 0x13
 2940 0268 02       		.uleb128 0x2
 2941 0269 18       		.uleb128 0x18
 2942 026a 00       		.byte	0
 2943 026b 00       		.byte	0
 2944 026c 2D       		.uleb128 0x2d
 2945 026d 1D       		.uleb128 0x1d
 2946 026e 01       		.byte	0x1
 2947 026f 31       		.uleb128 0x31
 2948 0270 13       		.uleb128 0x13
 2949 0271 52       		.uleb128 0x52
ARM GAS  /tmp/ccL9X4rG.s 			page 53


 2950 0272 01       		.uleb128 0x1
 2951 0273 55       		.uleb128 0x55
 2952 0274 17       		.uleb128 0x17
 2953 0275 58       		.uleb128 0x58
 2954 0276 0B       		.uleb128 0xb
 2955 0277 59       		.uleb128 0x59
 2956 0278 05       		.uleb128 0x5
 2957 0279 01       		.uleb128 0x1
 2958 027a 13       		.uleb128 0x13
 2959 027b 00       		.byte	0
 2960 027c 00       		.byte	0
 2961 027d 2E       		.uleb128 0x2e
 2962 027e 1D       		.uleb128 0x1d
 2963 027f 01       		.byte	0x1
 2964 0280 31       		.uleb128 0x31
 2965 0281 13       		.uleb128 0x13
 2966 0282 11       		.uleb128 0x11
 2967 0283 01       		.uleb128 0x1
 2968 0284 12       		.uleb128 0x12
 2969 0285 06       		.uleb128 0x6
 2970 0286 58       		.uleb128 0x58
 2971 0287 0B       		.uleb128 0xb
 2972 0288 59       		.uleb128 0x59
 2973 0289 05       		.uleb128 0x5
 2974 028a 00       		.byte	0
 2975 028b 00       		.byte	0
 2976 028c 2F       		.uleb128 0x2f
 2977 028d 2E       		.uleb128 0x2e
 2978 028e 00       		.byte	0
 2979 028f 3F       		.uleb128 0x3f
 2980 0290 19       		.uleb128 0x19
 2981 0291 03       		.uleb128 0x3
 2982 0292 0E       		.uleb128 0xe
 2983 0293 3A       		.uleb128 0x3a
 2984 0294 0B       		.uleb128 0xb
 2985 0295 3B       		.uleb128 0x3b
 2986 0296 05       		.uleb128 0x5
 2987 0297 27       		.uleb128 0x27
 2988 0298 19       		.uleb128 0x19
 2989 0299 11       		.uleb128 0x11
 2990 029a 01       		.uleb128 0x1
 2991 029b 12       		.uleb128 0x12
 2992 029c 06       		.uleb128 0x6
 2993 029d 40       		.uleb128 0x40
 2994 029e 18       		.uleb128 0x18
 2995 029f 9742     		.uleb128 0x2117
 2996 02a1 19       		.uleb128 0x19
 2997 02a2 00       		.byte	0
 2998 02a3 00       		.byte	0
 2999 02a4 30       		.uleb128 0x30
 3000 02a5 898201   		.uleb128 0x4109
 3001 02a8 00       		.byte	0
 3002 02a9 11       		.uleb128 0x11
 3003 02aa 01       		.uleb128 0x1
 3004 02ab 31       		.uleb128 0x31
 3005 02ac 13       		.uleb128 0x13
 3006 02ad 00       		.byte	0
ARM GAS  /tmp/ccL9X4rG.s 			page 54


 3007 02ae 00       		.byte	0
 3008 02af 31       		.uleb128 0x31
 3009 02b0 34       		.uleb128 0x34
 3010 02b1 00       		.byte	0
 3011 02b2 03       		.uleb128 0x3
 3012 02b3 0E       		.uleb128 0xe
 3013 02b4 3A       		.uleb128 0x3a
 3014 02b5 0B       		.uleb128 0xb
 3015 02b6 3B       		.uleb128 0x3b
 3016 02b7 05       		.uleb128 0x5
 3017 02b8 49       		.uleb128 0x49
 3018 02b9 13       		.uleb128 0x13
 3019 02ba 3F       		.uleb128 0x3f
 3020 02bb 19       		.uleb128 0x19
 3021 02bc 3C       		.uleb128 0x3c
 3022 02bd 19       		.uleb128 0x19
 3023 02be 00       		.byte	0
 3024 02bf 00       		.byte	0
 3025 02c0 00       		.byte	0
 3026              		.section	.debug_loc,"",%progbits
 3027              	.Ldebug_loc0:
 3028              	.LLST0:
 3029 0000 00000000 		.4byte	.LVL0-.Ltext0
 3030 0004 12000000 		.4byte	.LVL4-.Ltext0
 3031 0008 0100     		.2byte	0x1
 3032 000a 50       		.byte	0x50
 3033 000b 12000000 		.4byte	.LVL4-.Ltext0
 3034 000f 24000000 		.4byte	.LFE123-.Ltext0
 3035 0013 0400     		.2byte	0x4
 3036 0015 F3       		.byte	0xf3
 3037 0016 01       		.uleb128 0x1
 3038 0017 50       		.byte	0x50
 3039 0018 9F       		.byte	0x9f
 3040 0019 00000000 		.4byte	0
 3041 001d 00000000 		.4byte	0
 3042              	.LLST2:
 3043 0021 04000000 		.4byte	.LVL1-.Ltext0
 3044 0025 0A000000 		.4byte	.LVL2-.Ltext0
 3045 0029 0700     		.2byte	0x7
 3046 002b 71       		.byte	0x71
 3047 002c 00       		.sleb128 0
 3048 002d 0A       		.byte	0xa
 3049 002e FFF8     		.2byte	0xf8ff
 3050 0030 1A       		.byte	0x1a
 3051 0031 9F       		.byte	0x9f
 3052 0032 0A000000 		.4byte	.LVL2-.Ltext0
 3053 0036 0E000000 		.4byte	.LVL3-.Ltext0
 3054 003a 0100     		.2byte	0x1
 3055 003c 53       		.byte	0x53
 3056 003d 0E000000 		.4byte	.LVL3-.Ltext0
 3057 0041 1A000000 		.4byte	.LVL5-.Ltext0
 3058 0045 0700     		.2byte	0x7
 3059 0047 71       		.byte	0x71
 3060 0048 00       		.sleb128 0
 3061 0049 0A       		.byte	0xa
 3062 004a FFF8     		.2byte	0xf8ff
 3063 004c 1A       		.byte	0x1a
ARM GAS  /tmp/ccL9X4rG.s 			page 55


 3064 004d 9F       		.byte	0x9f
 3065 004e 1A000000 		.4byte	.LVL5-.Ltext0
 3066 0052 24000000 		.4byte	.LFE123-.Ltext0
 3067 0056 0100     		.2byte	0x1
 3068 0058 53       		.byte	0x53
 3069 0059 00000000 		.4byte	0
 3070 005d 00000000 		.4byte	0
 3071              	.LLST3:
 3072 0061 00000000 		.4byte	.LVL0-.Ltext0
 3073 0065 12000000 		.4byte	.LVL4-.Ltext0
 3074 0069 0500     		.2byte	0x5
 3075 006b 70       		.byte	0x70
 3076 006c 00       		.sleb128 0
 3077 006d 37       		.byte	0x37
 3078 006e 1A       		.byte	0x1a
 3079 006f 9F       		.byte	0x9f
 3080 0070 12000000 		.4byte	.LVL4-.Ltext0
 3081 0074 24000000 		.4byte	.LFE123-.Ltext0
 3082 0078 0100     		.2byte	0x1
 3083 007a 50       		.byte	0x50
 3084 007b 00000000 		.4byte	0
 3085 007f 00000000 		.4byte	0
 3086              	.LLST4:
 3087 0083 30000000 		.4byte	.LVL6-.Ltext0
 3088 0087 6C000000 		.4byte	.LVL14-.Ltext0
 3089 008b 0100     		.2byte	0x1
 3090 008d 50       		.byte	0x50
 3091 008e 6C000000 		.4byte	.LVL14-.Ltext0
 3092 0092 7C000000 		.4byte	.LVL17-.Ltext0
 3093 0096 0400     		.2byte	0x4
 3094 0098 F3       		.byte	0xf3
 3095 0099 01       		.uleb128 0x1
 3096 009a 50       		.byte	0x50
 3097 009b 9F       		.byte	0x9f
 3098 009c 7C000000 		.4byte	.LVL17-.Ltext0
 3099 00a0 88000000 		.4byte	.LVL21-.Ltext0
 3100 00a4 0100     		.2byte	0x1
 3101 00a6 50       		.byte	0x50
 3102 00a7 88000000 		.4byte	.LVL21-.Ltext0
 3103 00ab 9C000000 		.4byte	.LFE124-.Ltext0
 3104 00af 0400     		.2byte	0x4
 3105 00b1 F3       		.byte	0xf3
 3106 00b2 01       		.uleb128 0x1
 3107 00b3 50       		.byte	0x50
 3108 00b4 9F       		.byte	0x9f
 3109 00b5 00000000 		.4byte	0
 3110 00b9 00000000 		.4byte	0
 3111              	.LLST5:
 3112 00bd 30000000 		.4byte	.LVL6-.Ltext0
 3113 00c1 5E000000 		.4byte	.LVL12-.Ltext0
 3114 00c5 0100     		.2byte	0x1
 3115 00c7 51       		.byte	0x51
 3116 00c8 5E000000 		.4byte	.LVL12-.Ltext0
 3117 00cc 7C000000 		.4byte	.LVL17-.Ltext0
 3118 00d0 0400     		.2byte	0x4
 3119 00d2 F3       		.byte	0xf3
 3120 00d3 01       		.uleb128 0x1
ARM GAS  /tmp/ccL9X4rG.s 			page 56


 3121 00d4 51       		.byte	0x51
 3122 00d5 9F       		.byte	0x9f
 3123 00d6 7C000000 		.4byte	.LVL17-.Ltext0
 3124 00da 82000000 		.4byte	.LVL20-.Ltext0
 3125 00de 0100     		.2byte	0x1
 3126 00e0 51       		.byte	0x51
 3127 00e1 82000000 		.4byte	.LVL20-.Ltext0
 3128 00e5 9C000000 		.4byte	.LFE124-.Ltext0
 3129 00e9 0400     		.2byte	0x4
 3130 00eb F3       		.byte	0xf3
 3131 00ec 01       		.uleb128 0x1
 3132 00ed 51       		.byte	0x51
 3133 00ee 9F       		.byte	0x9f
 3134 00ef 00000000 		.4byte	0
 3135 00f3 00000000 		.4byte	0
 3136              	.LLST6:
 3137 00f7 30000000 		.4byte	.LVL6-.Ltext0
 3138 00fb 56000000 		.4byte	.LVL11-.Ltext0
 3139 00ff 0100     		.2byte	0x1
 3140 0101 52       		.byte	0x52
 3141 0102 56000000 		.4byte	.LVL11-.Ltext0
 3142 0106 7C000000 		.4byte	.LVL17-.Ltext0
 3143 010a 0400     		.2byte	0x4
 3144 010c F3       		.byte	0xf3
 3145 010d 01       		.uleb128 0x1
 3146 010e 52       		.byte	0x52
 3147 010f 9F       		.byte	0x9f
 3148 0110 7C000000 		.4byte	.LVL17-.Ltext0
 3149 0114 7E000000 		.4byte	.LVL18-.Ltext0
 3150 0118 0100     		.2byte	0x1
 3151 011a 52       		.byte	0x52
 3152 011b 7E000000 		.4byte	.LVL18-.Ltext0
 3153 011f 9C000000 		.4byte	.LFE124-.Ltext0
 3154 0123 0400     		.2byte	0x4
 3155 0125 F3       		.byte	0xf3
 3156 0126 01       		.uleb128 0x1
 3157 0127 52       		.byte	0x52
 3158 0128 9F       		.byte	0x9f
 3159 0129 00000000 		.4byte	0
 3160 012d 00000000 		.4byte	0
 3161              	.LLST7:
 3162 0131 30000000 		.4byte	.LVL6-.Ltext0
 3163 0135 38000000 		.4byte	.LVL7-.Ltext0
 3164 0139 0200     		.2byte	0x2
 3165 013b 30       		.byte	0x30
 3166 013c 9F       		.byte	0x9f
 3167 013d 00000000 		.4byte	0
 3168 0141 00000000 		.4byte	0
 3169              	.LLST8:
 3170 0145 44000000 		.4byte	.LVL8-.Ltext0
 3171 0149 56000000 		.4byte	.LVL11-.Ltext0
 3172 014d 0100     		.2byte	0x1
 3173 014f 52       		.byte	0x52
 3174 0150 56000000 		.4byte	.LVL11-.Ltext0
 3175 0154 7C000000 		.4byte	.LVL17-.Ltext0
 3176 0158 0400     		.2byte	0x4
 3177 015a F3       		.byte	0xf3
ARM GAS  /tmp/ccL9X4rG.s 			page 57


 3178 015b 01       		.uleb128 0x1
 3179 015c 52       		.byte	0x52
 3180 015d 9F       		.byte	0x9f
 3181 015e 7C000000 		.4byte	.LVL17-.Ltext0
 3182 0162 7E000000 		.4byte	.LVL18-.Ltext0
 3183 0166 0100     		.2byte	0x1
 3184 0168 52       		.byte	0x52
 3185 0169 7E000000 		.4byte	.LVL18-.Ltext0
 3186 016d 9C000000 		.4byte	.LFE124-.Ltext0
 3187 0171 0400     		.2byte	0x4
 3188 0173 F3       		.byte	0xf3
 3189 0174 01       		.uleb128 0x1
 3190 0175 52       		.byte	0x52
 3191 0176 9F       		.byte	0x9f
 3192 0177 00000000 		.4byte	0
 3193 017b 00000000 		.4byte	0
 3194              	.LLST9:
 3195 017f 44000000 		.4byte	.LVL8-.Ltext0
 3196 0183 5E000000 		.4byte	.LVL12-.Ltext0
 3197 0187 0100     		.2byte	0x1
 3198 0189 51       		.byte	0x51
 3199 018a 5E000000 		.4byte	.LVL12-.Ltext0
 3200 018e 7C000000 		.4byte	.LVL17-.Ltext0
 3201 0192 0400     		.2byte	0x4
 3202 0194 F3       		.byte	0xf3
 3203 0195 01       		.uleb128 0x1
 3204 0196 51       		.byte	0x51
 3205 0197 9F       		.byte	0x9f
 3206 0198 7C000000 		.4byte	.LVL17-.Ltext0
 3207 019c 82000000 		.4byte	.LVL20-.Ltext0
 3208 01a0 0100     		.2byte	0x1
 3209 01a2 51       		.byte	0x51
 3210 01a3 82000000 		.4byte	.LVL20-.Ltext0
 3211 01a7 9C000000 		.4byte	.LFE124-.Ltext0
 3212 01ab 0400     		.2byte	0x4
 3213 01ad F3       		.byte	0xf3
 3214 01ae 01       		.uleb128 0x1
 3215 01af 51       		.byte	0x51
 3216 01b0 9F       		.byte	0x9f
 3217 01b1 00000000 		.4byte	0
 3218 01b5 00000000 		.4byte	0
 3219              	.LLST10:
 3220 01b9 38000000 		.4byte	.LVL7-.Ltext0
 3221 01bd 4E000000 		.4byte	.LVL10-.Ltext0
 3222 01c1 0100     		.2byte	0x1
 3223 01c3 53       		.byte	0x53
 3224 01c4 4E000000 		.4byte	.LVL10-.Ltext0
 3225 01c8 56000000 		.4byte	.LVL11-.Ltext0
 3226 01cc 0300     		.2byte	0x3
 3227 01ce 73       		.byte	0x73
 3228 01cf 03       		.sleb128 3
 3229 01d0 9F       		.byte	0x9f
 3230 01d1 7C000000 		.4byte	.LVL17-.Ltext0
 3231 01d5 80000000 		.4byte	.LVL19-.Ltext0
 3232 01d9 0100     		.2byte	0x1
 3233 01db 53       		.byte	0x53
 3234 01dc 80000000 		.4byte	.LVL19-.Ltext0
ARM GAS  /tmp/ccL9X4rG.s 			page 58


 3235 01e0 82000000 		.4byte	.LVL20-.Ltext0
 3236 01e4 0300     		.2byte	0x3
 3237 01e6 74       		.byte	0x74
 3238 01e7 7C       		.sleb128 -4
 3239 01e8 9F       		.byte	0x9f
 3240 01e9 00000000 		.4byte	0
 3241 01ed 00000000 		.4byte	0
 3242              	.LLST11:
 3243 01f1 44000000 		.4byte	.LVL8-.Ltext0
 3244 01f5 4E000000 		.4byte	.LVL10-.Ltext0
 3245 01f9 0100     		.2byte	0x1
 3246 01fb 53       		.byte	0x53
 3247 01fc 4E000000 		.4byte	.LVL10-.Ltext0
 3248 0200 56000000 		.4byte	.LVL11-.Ltext0
 3249 0204 0300     		.2byte	0x3
 3250 0206 73       		.byte	0x73
 3251 0207 03       		.sleb128 3
 3252 0208 9F       		.byte	0x9f
 3253 0209 7C000000 		.4byte	.LVL17-.Ltext0
 3254 020d 80000000 		.4byte	.LVL19-.Ltext0
 3255 0211 0100     		.2byte	0x1
 3256 0213 53       		.byte	0x53
 3257 0214 80000000 		.4byte	.LVL19-.Ltext0
 3258 0218 82000000 		.4byte	.LVL20-.Ltext0
 3259 021c 0300     		.2byte	0x3
 3260 021e 74       		.byte	0x74
 3261 021f 7C       		.sleb128 -4
 3262 0220 9F       		.byte	0x9f
 3263 0221 00000000 		.4byte	0
 3264 0225 00000000 		.4byte	0
 3265              	.LLST12:
 3266 0229 48000000 		.4byte	.LVL9-.Ltext0
 3267 022d 7A000000 		.4byte	.LVL16-.Ltext0
 3268 0231 0100     		.2byte	0x1
 3269 0233 55       		.byte	0x55
 3270 0234 7C000000 		.4byte	.LVL17-.Ltext0
 3271 0238 92000000 		.4byte	.LVL23-.Ltext0
 3272 023c 0100     		.2byte	0x1
 3273 023e 55       		.byte	0x55
 3274 023f 00000000 		.4byte	0
 3275 0243 00000000 		.4byte	0
 3276              	.LLST13:
 3277 0247 66000000 		.4byte	.LVL13-.Ltext0
 3278 024b 72000000 		.4byte	.LVL15-.Ltext0
 3279 024f 0100     		.2byte	0x1
 3280 0251 52       		.byte	0x52
 3281 0252 82000000 		.4byte	.LVL20-.Ltext0
 3282 0256 8A000000 		.4byte	.LVL22-.Ltext0
 3283 025a 0100     		.2byte	0x1
 3284 025c 52       		.byte	0x52
 3285 025d 00000000 		.4byte	0
 3286 0261 00000000 		.4byte	0
 3287              	.LLST14:
 3288 0265 66000000 		.4byte	.LVL13-.Ltext0
 3289 0269 6C000000 		.4byte	.LVL14-.Ltext0
 3290 026d 0100     		.2byte	0x1
 3291 026f 50       		.byte	0x50
ARM GAS  /tmp/ccL9X4rG.s 			page 59


 3292 0270 6C000000 		.4byte	.LVL14-.Ltext0
 3293 0274 7C000000 		.4byte	.LVL17-.Ltext0
 3294 0278 0400     		.2byte	0x4
 3295 027a F3       		.byte	0xf3
 3296 027b 01       		.uleb128 0x1
 3297 027c 50       		.byte	0x50
 3298 027d 9F       		.byte	0x9f
 3299 027e 82000000 		.4byte	.LVL20-.Ltext0
 3300 0282 88000000 		.4byte	.LVL21-.Ltext0
 3301 0286 0100     		.2byte	0x1
 3302 0288 50       		.byte	0x50
 3303 0289 88000000 		.4byte	.LVL21-.Ltext0
 3304 028d 9C000000 		.4byte	.LFE124-.Ltext0
 3305 0291 0400     		.2byte	0x4
 3306 0293 F3       		.byte	0xf3
 3307 0294 01       		.uleb128 0x1
 3308 0295 50       		.byte	0x50
 3309 0296 9F       		.byte	0x9f
 3310 0297 00000000 		.4byte	0
 3311 029b 00000000 		.4byte	0
 3312              	.LLST15:
 3313 029f A0000000 		.4byte	.LVL24-.Ltext0
 3314 02a3 A2000000 		.4byte	.LVL25-.Ltext0
 3315 02a7 0100     		.2byte	0x1
 3316 02a9 50       		.byte	0x50
 3317 02aa A2000000 		.4byte	.LVL25-.Ltext0
 3318 02ae BC000000 		.4byte	.LFE125-.Ltext0
 3319 02b2 0400     		.2byte	0x4
 3320 02b4 F3       		.byte	0xf3
 3321 02b5 01       		.uleb128 0x1
 3322 02b6 50       		.byte	0x50
 3323 02b7 9F       		.byte	0x9f
 3324 02b8 00000000 		.4byte	0
 3325 02bc 00000000 		.4byte	0
 3326              	.LLST17:
 3327 02c0 C0000000 		.4byte	.LVL26-.Ltext0
 3328 02c4 C2000000 		.4byte	.LVL27-.Ltext0
 3329 02c8 0100     		.2byte	0x1
 3330 02ca 50       		.byte	0x50
 3331 02cb C2000000 		.4byte	.LVL27-.Ltext0
 3332 02cf E4000000 		.4byte	.LFE126-.Ltext0
 3333 02d3 0400     		.2byte	0x4
 3334 02d5 F3       		.byte	0xf3
 3335 02d6 01       		.uleb128 0x1
 3336 02d7 50       		.byte	0x50
 3337 02d8 9F       		.byte	0x9f
 3338 02d9 00000000 		.4byte	0
 3339 02dd 00000000 		.4byte	0
 3340              	.LLST19:
 3341 02e1 20010000 		.4byte	.LVL28-.Ltext0
 3342 02e5 22010000 		.4byte	.LVL29-.Ltext0
 3343 02e9 0100     		.2byte	0x1
 3344 02eb 50       		.byte	0x50
 3345 02ec 22010000 		.4byte	.LVL29-.Ltext0
 3346 02f0 32010000 		.4byte	.LVL31-.Ltext0
 3347 02f4 0300     		.2byte	0x3
 3348 02f6 70       		.byte	0x70
ARM GAS  /tmp/ccL9X4rG.s 			page 60


 3349 02f7 01       		.sleb128 1
 3350 02f8 9F       		.byte	0x9f
 3351 02f9 32010000 		.4byte	.LVL31-.Ltext0
 3352 02fd 36010000 		.4byte	.LVL32-.Ltext0
 3353 0301 0600     		.2byte	0x6
 3354 0303 73       		.byte	0x73
 3355 0304 04       		.sleb128 4
 3356 0305 06       		.byte	0x6
 3357 0306 23       		.byte	0x23
 3358 0307 01       		.uleb128 0x1
 3359 0308 9F       		.byte	0x9f
 3360 0309 36010000 		.4byte	.LVL32-.Ltext0
 3361 030d 54010000 		.4byte	.LFE128-.Ltext0
 3362 0311 0400     		.2byte	0x4
 3363 0313 F3       		.byte	0xf3
 3364 0314 01       		.uleb128 0x1
 3365 0315 50       		.byte	0x50
 3366 0316 9F       		.byte	0x9f
 3367 0317 00000000 		.4byte	0
 3368 031b 00000000 		.4byte	0
 3369              	.LLST21:
 3370 031f 30010000 		.4byte	.LVL30-.Ltext0
 3371 0323 46010000 		.4byte	.LVL33-.Ltext0
 3372 0327 0200     		.2byte	0x2
 3373 0329 3F       		.byte	0x3f
 3374 032a 9F       		.byte	0x9f
 3375 032b 00000000 		.4byte	0
 3376 032f 00000000 		.4byte	0
 3377              	.LLST22:
 3378 0333 30010000 		.4byte	.LVL30-.Ltext0
 3379 0337 46010000 		.4byte	.LVL33-.Ltext0
 3380 033b 0300     		.2byte	0x3
 3381 033d 09       		.byte	0x9
 3382 033e FF       		.byte	0xff
 3383 033f 9F       		.byte	0x9f
 3384 0340 00000000 		.4byte	0
 3385 0344 00000000 		.4byte	0
 3386              	.LLST23:
 3387 0348 70010000 		.4byte	.LVL34-.Ltext0
 3388 034c 72010000 		.4byte	.LVL35-.Ltext0
 3389 0350 0100     		.2byte	0x1
 3390 0352 50       		.byte	0x50
 3391 0353 72010000 		.4byte	.LVL35-.Ltext0
 3392 0357 D0010000 		.4byte	.LFE130-.Ltext0
 3393 035b 0400     		.2byte	0x4
 3394 035d F3       		.byte	0xf3
 3395 035e 01       		.uleb128 0x1
 3396 035f 50       		.byte	0x50
 3397 0360 9F       		.byte	0x9f
 3398 0361 00000000 		.4byte	0
 3399 0365 00000000 		.4byte	0
 3400              	.LLST24:
 3401 0369 70010000 		.4byte	.LVL34-.Ltext0
 3402 036d 88010000 		.4byte	.LVL37-.Ltext0
 3403 0371 0100     		.2byte	0x1
 3404 0373 51       		.byte	0x51
 3405 0374 88010000 		.4byte	.LVL37-.Ltext0
ARM GAS  /tmp/ccL9X4rG.s 			page 61


 3406 0378 BE010000 		.4byte	.LVL46-.Ltext0
 3407 037c 0400     		.2byte	0x4
 3408 037e F3       		.byte	0xf3
 3409 037f 01       		.uleb128 0x1
 3410 0380 51       		.byte	0x51
 3411 0381 9F       		.byte	0x9f
 3412 0382 BE010000 		.4byte	.LVL46-.Ltext0
 3413 0386 D0010000 		.4byte	.LFE130-.Ltext0
 3414 038a 0100     		.2byte	0x1
 3415 038c 51       		.byte	0x51
 3416 038d 00000000 		.4byte	0
 3417 0391 00000000 		.4byte	0
 3418              	.LLST26:
 3419 0395 84010000 		.4byte	.LVL36-.Ltext0
 3420 0399 BE010000 		.4byte	.LVL46-.Ltext0
 3421 039d 0100     		.2byte	0x1
 3422 039f 53       		.byte	0x53
 3423 03a0 00000000 		.4byte	0
 3424 03a4 00000000 		.4byte	0
 3425              	.LLST27:
 3426 03a8 84010000 		.4byte	.LVL36-.Ltext0
 3427 03ac BE010000 		.4byte	.LVL46-.Ltext0
 3428 03b0 0100     		.2byte	0x1
 3429 03b2 52       		.byte	0x52
 3430 03b3 00000000 		.4byte	0
 3431 03b7 00000000 		.4byte	0
 3432              	.LLST28:
 3433 03bb 84010000 		.4byte	.LVL36-.Ltext0
 3434 03bf 88010000 		.4byte	.LVL37-.Ltext0
 3435 03c3 0100     		.2byte	0x1
 3436 03c5 51       		.byte	0x51
 3437 03c6 88010000 		.4byte	.LVL37-.Ltext0
 3438 03ca BE010000 		.4byte	.LVL46-.Ltext0
 3439 03ce 0400     		.2byte	0x4
 3440 03d0 F3       		.byte	0xf3
 3441 03d1 01       		.uleb128 0x1
 3442 03d2 51       		.byte	0x51
 3443 03d3 9F       		.byte	0x9f
 3444 03d4 00000000 		.4byte	0
 3445 03d8 00000000 		.4byte	0
 3446              	.LLST29:
 3447 03dc 84010000 		.4byte	.LVL36-.Ltext0
 3448 03e0 AA010000 		.4byte	.LVL42-.Ltext0
 3449 03e4 0100     		.2byte	0x1
 3450 03e6 54       		.byte	0x54
 3451 03e7 B8010000 		.4byte	.LVL44-.Ltext0
 3452 03eb BE010000 		.4byte	.LVL46-.Ltext0
 3453 03ef 0100     		.2byte	0x1
 3454 03f1 54       		.byte	0x54
 3455 03f2 00000000 		.4byte	0
 3456 03f6 00000000 		.4byte	0
 3457              	.LLST30:
 3458 03fa 88010000 		.4byte	.LVL37-.Ltext0
 3459 03fe 9C010000 		.4byte	.LVL39-.Ltext0
 3460 0402 0100     		.2byte	0x1
 3461 0404 51       		.byte	0x51
 3462 0405 9C010000 		.4byte	.LVL39-.Ltext0
ARM GAS  /tmp/ccL9X4rG.s 			page 62


 3463 0409 A4010000 		.4byte	.LVL40-.Ltext0
 3464 040d 0300     		.2byte	0x3
 3465 040f 71       		.byte	0x71
 3466 0410 03       		.sleb128 3
 3467 0411 9F       		.byte	0x9f
 3468 0412 A4010000 		.4byte	.LVL40-.Ltext0
 3469 0416 A6010000 		.4byte	.LVL41-.Ltext0
 3470 041a 0300     		.2byte	0x3
 3471 041c 70       		.byte	0x70
 3472 041d 7C       		.sleb128 -4
 3473 041e 9F       		.byte	0x9f
 3474 041f A6010000 		.4byte	.LVL41-.Ltext0
 3475 0423 B8010000 		.4byte	.LVL44-.Ltext0
 3476 0427 0600     		.2byte	0x6
 3477 0429 F3       		.byte	0xf3
 3478 042a 01       		.uleb128 0x1
 3479 042b 51       		.byte	0x51
 3480 042c 37       		.byte	0x37
 3481 042d 1A       		.byte	0x1a
 3482 042e 9F       		.byte	0x9f
 3483 042f B8010000 		.4byte	.LVL44-.Ltext0
 3484 0433 BC010000 		.4byte	.LVL45-.Ltext0
 3485 0437 0100     		.2byte	0x1
 3486 0439 51       		.byte	0x51
 3487 043a BC010000 		.4byte	.LVL45-.Ltext0
 3488 043e BE010000 		.4byte	.LVL46-.Ltext0
 3489 0442 0300     		.2byte	0x3
 3490 0444 70       		.byte	0x70
 3491 0445 7C       		.sleb128 -4
 3492 0446 9F       		.byte	0x9f
 3493 0447 00000000 		.4byte	0
 3494 044b 00000000 		.4byte	0
 3495              	.LLST31:
 3496 044f 96010000 		.4byte	.LVL38-.Ltext0
 3497 0453 B6010000 		.4byte	.LVL43-.Ltext0
 3498 0457 0100     		.2byte	0x1
 3499 0459 56       		.byte	0x56
 3500 045a B6010000 		.4byte	.LVL43-.Ltext0
 3501 045e B8010000 		.4byte	.LVL44-.Ltext0
 3502 0462 1D00     		.2byte	0x1d
 3503 0464 34       		.byte	0x34
 3504 0465 F3       		.byte	0xf3
 3505 0466 01       		.uleb128 0x1
 3506 0467 51       		.byte	0x51
 3507 0468 20       		.byte	0x20
 3508 0469 37       		.byte	0x37
 3509 046a 1A       		.byte	0x1a
 3510 046b F3       		.byte	0xf3
 3511 046c 01       		.uleb128 0x1
 3512 046d 51       		.byte	0x51
 3513 046e 20       		.byte	0x20
 3514 046f 37       		.byte	0x37
 3515 0470 1A       		.byte	0x1a
 3516 0471 40       		.byte	0x40
 3517 0472 4B       		.byte	0x4b
 3518 0473 24       		.byte	0x24
 3519 0474 22       		.byte	0x22
ARM GAS  /tmp/ccL9X4rG.s 			page 63


 3520 0475 0C       		.byte	0xc
 3521 0476 04000080 		.4byte	0x80000004
 3522 047a 2A       		.byte	0x2a
 3523 047b 28       		.byte	0x28
 3524 047c 0100     		.2byte	0x1
 3525 047e 16       		.byte	0x16
 3526 047f 13       		.byte	0x13
 3527 0480 9F       		.byte	0x9f
 3528 0481 B8010000 		.4byte	.LVL44-.Ltext0
 3529 0485 BE010000 		.4byte	.LVL46-.Ltext0
 3530 0489 0100     		.2byte	0x1
 3531 048b 56       		.byte	0x56
 3532 048c 00000000 		.4byte	0
 3533 0490 00000000 		.4byte	0
 3534              	.LLST32:
 3535 0494 D0010000 		.4byte	.LVL47-.Ltext0
 3536 0498 D2010000 		.4byte	.LVL48-.Ltext0
 3537 049c 0100     		.2byte	0x1
 3538 049e 50       		.byte	0x50
 3539 049f D2010000 		.4byte	.LVL48-.Ltext0
 3540 04a3 EC010000 		.4byte	.LFE131-.Ltext0
 3541 04a7 0400     		.2byte	0x4
 3542 04a9 F3       		.byte	0xf3
 3543 04aa 01       		.uleb128 0x1
 3544 04ab 50       		.byte	0x50
 3545 04ac 9F       		.byte	0x9f
 3546 04ad 00000000 		.4byte	0
 3547 04b1 00000000 		.4byte	0
 3548              	.LLST34:
 3549 04b5 F0010000 		.4byte	.LVL49-.Ltext0
 3550 04b9 FE010000 		.4byte	.LVL50-.Ltext0
 3551 04bd 0100     		.2byte	0x1
 3552 04bf 50       		.byte	0x50
 3553 04c0 FE010000 		.4byte	.LVL50-.Ltext0
 3554 04c4 0A020000 		.4byte	.LVL51-.Ltext0
 3555 04c8 0400     		.2byte	0x4
 3556 04ca F3       		.byte	0xf3
 3557 04cb 01       		.uleb128 0x1
 3558 04cc 50       		.byte	0x50
 3559 04cd 9F       		.byte	0x9f
 3560 04ce 0A020000 		.4byte	.LVL51-.Ltext0
 3561 04d2 0C020000 		.4byte	.LVL52-.Ltext0
 3562 04d6 0100     		.2byte	0x1
 3563 04d8 50       		.byte	0x50
 3564 04d9 0C020000 		.4byte	.LVL52-.Ltext0
 3565 04dd 14020000 		.4byte	.LFE132-.Ltext0
 3566 04e1 0400     		.2byte	0x4
 3567 04e3 F3       		.byte	0xf3
 3568 04e4 01       		.uleb128 0x1
 3569 04e5 50       		.byte	0x50
 3570 04e6 9F       		.byte	0x9f
 3571 04e7 00000000 		.4byte	0
 3572 04eb 00000000 		.4byte	0
 3573              	.LLST36:
 3574 04ef 20020000 		.4byte	.LVL53-.Ltext0
 3575 04f3 22020000 		.4byte	.LVL54-.Ltext0
 3576 04f7 0100     		.2byte	0x1
ARM GAS  /tmp/ccL9X4rG.s 			page 64


 3577 04f9 50       		.byte	0x50
 3578 04fa 22020000 		.4byte	.LVL54-.Ltext0
 3579 04fe 3C020000 		.4byte	.LFE133-.Ltext0
 3580 0502 0400     		.2byte	0x4
 3581 0504 F3       		.byte	0xf3
 3582 0505 01       		.uleb128 0x1
 3583 0506 50       		.byte	0x50
 3584 0507 9F       		.byte	0x9f
 3585 0508 00000000 		.4byte	0
 3586 050c 00000000 		.4byte	0
 3587              	.LLST38:
 3588 0510 40020000 		.4byte	.LVL55-.Ltext0
 3589 0514 4E020000 		.4byte	.LVL56-.Ltext0
 3590 0518 0100     		.2byte	0x1
 3591 051a 50       		.byte	0x50
 3592 051b 4E020000 		.4byte	.LVL56-.Ltext0
 3593 051f 5A020000 		.4byte	.LVL57-.Ltext0
 3594 0523 0400     		.2byte	0x4
 3595 0525 F3       		.byte	0xf3
 3596 0526 01       		.uleb128 0x1
 3597 0527 50       		.byte	0x50
 3598 0528 9F       		.byte	0x9f
 3599 0529 5A020000 		.4byte	.LVL57-.Ltext0
 3600 052d 5C020000 		.4byte	.LVL58-.Ltext0
 3601 0531 0100     		.2byte	0x1
 3602 0533 50       		.byte	0x50
 3603 0534 5C020000 		.4byte	.LVL58-.Ltext0
 3604 0538 64020000 		.4byte	.LFE134-.Ltext0
 3605 053c 0400     		.2byte	0x4
 3606 053e F3       		.byte	0xf3
 3607 053f 01       		.uleb128 0x1
 3608 0540 50       		.byte	0x50
 3609 0541 9F       		.byte	0x9f
 3610 0542 00000000 		.4byte	0
 3611 0546 00000000 		.4byte	0
 3612              		.section	.debug_aranges,"",%progbits
 3613 0000 1C000000 		.4byte	0x1c
 3614 0004 0200     		.2byte	0x2
 3615 0006 00000000 		.4byte	.Ldebug_info0
 3616 000a 04       		.byte	0x4
 3617 000b 00       		.byte	0
 3618 000c 0000     		.2byte	0
 3619 000e 0000     		.2byte	0
 3620 0010 00000000 		.4byte	.Ltext0
 3621 0014 A8020000 		.4byte	.Letext0-.Ltext0
 3622 0018 00000000 		.4byte	0
 3623 001c 00000000 		.4byte	0
 3624              		.section	.debug_ranges,"",%progbits
 3625              	.Ldebug_ranges0:
 3626 0000 3A000000 		.4byte	.LBB50-.Ltext0
 3627 0004 60000000 		.4byte	.LBE50-.Ltext0
 3628 0008 62000000 		.4byte	.LBB58-.Ltext0
 3629 000c 66000000 		.4byte	.LBE58-.Ltext0
 3630 0010 7C000000 		.4byte	.LBB60-.Ltext0
 3631 0014 82000000 		.4byte	.LBE60-.Ltext0
 3632 0018 00000000 		.4byte	0
 3633 001c 00000000 		.4byte	0
ARM GAS  /tmp/ccL9X4rG.s 			page 65


 3634 0020 60000000 		.4byte	.LBB54-.Ltext0
 3635 0024 62000000 		.4byte	.LBE54-.Ltext0
 3636 0028 66000000 		.4byte	.LBB59-.Ltext0
 3637 002c 78000000 		.4byte	.LBE59-.Ltext0
 3638 0030 82000000 		.4byte	.LBB61-.Ltext0
 3639 0034 90000000 		.4byte	.LBE61-.Ltext0
 3640 0038 00000000 		.4byte	0
 3641 003c 00000000 		.4byte	0
 3642 0040 20010000 		.4byte	.LBB82-.Ltext0
 3643 0044 2A010000 		.4byte	.LBE82-.Ltext0
 3644 0048 2C010000 		.4byte	.LBB90-.Ltext0
 3645 004c 40010000 		.4byte	.LBE90-.Ltext0
 3646 0050 46010000 		.4byte	.LBB91-.Ltext0
 3647 0054 54010000 		.4byte	.LBE91-.Ltext0
 3648 0058 00000000 		.4byte	0
 3649 005c 00000000 		.4byte	0
 3650 0060 2C010000 		.4byte	.LBB84-.Ltext0
 3651 0064 2E010000 		.4byte	.LBE84-.Ltext0
 3652 0068 30010000 		.4byte	.LBB87-.Ltext0
 3653 006c 36010000 		.4byte	.LBE87-.Ltext0
 3654 0070 00000000 		.4byte	0
 3655 0074 00000000 		.4byte	0
 3656 0078 70010000 		.4byte	.LBB94-.Ltext0
 3657 007c 72010000 		.4byte	.LBE94-.Ltext0
 3658 0080 74010000 		.4byte	.LBB98-.Ltext0
 3659 0084 84010000 		.4byte	.LBE98-.Ltext0
 3660 0088 BE010000 		.4byte	.LBB103-.Ltext0
 3661 008c D0010000 		.4byte	.LBE103-.Ltext0
 3662 0090 00000000 		.4byte	0
 3663 0094 00000000 		.4byte	0
 3664 0098 84010000 		.4byte	.LBB99-.Ltext0
 3665 009c B4010000 		.4byte	.LBE99-.Ltext0
 3666 00a0 B8010000 		.4byte	.LBB102-.Ltext0
 3667 00a4 BE010000 		.4byte	.LBE102-.Ltext0
 3668 00a8 00000000 		.4byte	0
 3669 00ac 00000000 		.4byte	0
 3670              		.section	.debug_line,"",%progbits
 3671              	.Ldebug_line0:
 3672 0000 A2020000 		.section	.debug_str,"MS",%progbits,1
 3672      02004301 
 3672      00000201 
 3672      FB0E0D00 
 3672      01010101 
 3673              	.LASF118:
 3674 0000 49435052 		.ascii	"ICPR\000"
 3674      00
 3675              	.LASF154:
 3676 0005 5072696F 		.ascii	"PriorityGroupTmp\000"
 3676      72697479 
 3676      47726F75 
 3676      70546D70 
 3676      00
 3677              	.LASF175:
 3678 0016 48414C5F 		.ascii	"HAL_NVIC_EnableIRQ\000"
 3678      4E564943 
 3678      5F456E61 
 3678      626C6549 
ARM GAS  /tmp/ccL9X4rG.s 			page 66


 3678      525100
 3679              	.LASF43:
 3680 0029 43414E31 		.ascii	"CAN1_RX0_IRQn\000"
 3680      5F525830 
 3680      5F495251 
 3680      6E00
 3681              	.LASF24:
 3682 0037 5056445F 		.ascii	"PVD_IRQn\000"
 3682      4952516E 
 3682      00
 3683              	.LASF87:
 3684 0040 43414E32 		.ascii	"CAN2_RX0_IRQn\000"
 3684      5F525830 
 3684      5F495251 
 3684      6E00
 3685              	.LASF96:
 3686 004e 49324333 		.ascii	"I2C3_ER_IRQn\000"
 3686      5F45525F 
 3686      4952516E 
 3686      00
 3687              	.LASF105:
 3688 005b 55415254 		.ascii	"UART8_IRQn\000"
 3688      385F4952 
 3688      516E00
 3689              	.LASF54:
 3690 0066 49324331 		.ascii	"I2C1_EV_IRQn\000"
 3690      5F45565F 
 3690      4952516E 
 3690      00
 3691              	.LASF4:
 3692 0073 5F5F7569 		.ascii	"__uint8_t\000"
 3692      6E74385F 
 3692      7400
 3693              	.LASF180:
 3694 007d 48414C5F 		.ascii	"HAL_SYSTICK_Config\000"
 3694      53595354 
 3694      49434B5F 
 3694      436F6E66 
 3694      696700
 3695              	.LASF91:
 3696 0090 444D4132 		.ascii	"DMA2_Stream5_IRQn\000"
 3696      5F537472 
 3696      65616D35 
 3696      5F495251 
 3696      6E00
 3697              	.LASF44:
 3698 00a2 43414E31 		.ascii	"CAN1_RX1_IRQn\000"
 3698      5F525831 
 3698      5F495251 
 3698      6E00
 3699              	.LASF106:
 3700 00b0 53504934 		.ascii	"SPI4_IRQn\000"
 3700      5F495251 
 3700      6E00
 3701              	.LASF10:
 3702 00ba 6C6F6E67 		.ascii	"long long unsigned int\000"
 3702      206C6F6E 
ARM GAS  /tmp/ccL9X4rG.s 			page 67


 3702      6720756E 
 3702      7369676E 
 3702      65642069 
 3703              	.LASF64:
 3704 00d1 5254435F 		.ascii	"RTC_Alarm_IRQn\000"
 3704      416C6172 
 3704      6D5F4952 
 3704      516E00
 3705              	.LASF57:
 3706 00e0 49324332 		.ascii	"I2C2_ER_IRQn\000"
 3706      5F45525F 
 3706      4952516E 
 3706      00
 3707              	.LASF53:
 3708 00ed 54494D34 		.ascii	"TIM4_IRQn\000"
 3708      5F495251 
 3708      6E00
 3709              	.LASF26:
 3710 00f7 5254435F 		.ascii	"RTC_WKUP_IRQn\000"
 3710      574B5550 
 3710      5F495251 
 3710      6E00
 3711              	.LASF23:
 3712 0105 57574447 		.ascii	"WWDG_IRQn\000"
 3712      5F495251 
 3712      6E00
 3713              	.LASF72:
 3714 010f 5344494F 		.ascii	"SDIO_IRQn\000"
 3714      5F495251 
 3714      6E00
 3715              	.LASF116:
 3716 0119 49535052 		.ascii	"ISPR\000"
 3716      00
 3717              	.LASF152:
 3718 011e 5072696F 		.ascii	"PriorityGroup\000"
 3718      72697479 
 3718      47726F75 
 3718      7000
 3719              	.LASF69:
 3720 012c 54494D38 		.ascii	"TIM8_CC_IRQn\000"
 3720      5F43435F 
 3720      4952516E 
 3720      00
 3721              	.LASF138:
 3722 0139 49534152 		.ascii	"ISAR\000"
 3722      00
 3723              	.LASF9:
 3724 013e 6C6F6E67 		.ascii	"long long int\000"
 3724      206C6F6E 
 3724      6720696E 
 3724      7400
 3725              	.LASF0:
 3726 014c 7369676E 		.ascii	"signed char\000"
 3726      65642063 
 3726      68617200 
 3727              	.LASF88:
 3728 0158 43414E32 		.ascii	"CAN2_RX1_IRQn\000"
ARM GAS  /tmp/ccL9X4rG.s 			page 68


 3728      5F525831 
 3728      5F495251 
 3728      6E00
 3729              	.LASF189:
 3730 0166 48414C5F 		.ascii	"HAL_SYSTICK_IRQHandler\000"
 3730      53595354 
 3730      49434B5F 
 3730      49525148 
 3730      616E646C 
 3731              	.LASF185:
 3732 017d 48414C5F 		.ascii	"HAL_NVIC_ClearPendingIRQ\000"
 3732      4E564943 
 3732      5F436C65 
 3732      61725065 
 3732      6E64696E 
 3733              	.LASF92:
 3734 0196 444D4132 		.ascii	"DMA2_Stream6_IRQn\000"
 3734      5F537472 
 3734      65616D36 
 3734      5F495251 
 3734      6E00
 3735              	.LASF182:
 3736 01a8 48414C5F 		.ascii	"HAL_NVIC_GetPriority\000"
 3736      4E564943 
 3736      5F476574 
 3736      5072696F 
 3736      72697479 
 3737              	.LASF6:
 3738 01bd 6C6F6E67 		.ascii	"long int\000"
 3738      20696E74 
 3738      00
 3739              	.LASF171:
 3740 01c6 5F5F4E56 		.ascii	"__NVIC_ClearPendingIRQ\000"
 3740      49435F43 
 3740      6C656172 
 3740      50656E64 
 3740      696E6749 
 3741              	.LASF156:
 3742 01dd 53756250 		.ascii	"SubPriority\000"
 3742      72696F72 
 3742      69747900 
 3743              	.LASF107:
 3744 01e9 53504935 		.ascii	"SPI5_IRQn\000"
 3744      5F495251 
 3744      6E00
 3745              	.LASF39:
 3746 01f3 444D4131 		.ascii	"DMA1_Stream5_IRQn\000"
 3746      5F537472 
 3746      65616D35 
 3746      5F495251 
 3746      6E00
 3747              	.LASF46:
 3748 0205 45585449 		.ascii	"EXTI9_5_IRQn\000"
 3748      395F355F 
 3748      4952516E 
 3748      00
 3749              	.LASF188:
ARM GAS  /tmp/ccL9X4rG.s 			page 69


 3750 0212 434C4B53 		.ascii	"CLKSource\000"
 3750      6F757263 
 3750      6500
 3751              	.LASF85:
 3752 021c 4554485F 		.ascii	"ETH_WKUP_IRQn\000"
 3752      574B5550 
 3752      5F495251 
 3752      6E00
 3753              	.LASF157:
 3754 022a 50726565 		.ascii	"PreemptPriorityBits\000"
 3754      6D707450 
 3754      72696F72 
 3754      69747942 
 3754      69747300 
 3755              	.LASF77:
 3756 023e 54494D36 		.ascii	"TIM6_DAC_IRQn\000"
 3756      5F444143 
 3756      5F495251 
 3756      6E00
 3757              	.LASF75:
 3758 024c 55415254 		.ascii	"UART4_IRQn\000"
 3758      345F4952 
 3758      516E00
 3759              	.LASF65:
 3760 0257 4F54475F 		.ascii	"OTG_FS_WKUP_IRQn\000"
 3760      46535F57 
 3760      4B55505F 
 3760      4952516E 
 3760      00
 3761              	.LASF21:
 3762 0268 50656E64 		.ascii	"PendSV_IRQn\000"
 3762      53565F49 
 3762      52516E00 
 3763              	.LASF67:
 3764 0274 54494D38 		.ascii	"TIM8_UP_TIM13_IRQn\000"
 3764      5F55505F 
 3764      54494D31 
 3764      335F4952 
 3764      516E00
 3765              	.LASF144:
 3766 0287 53797354 		.ascii	"SysTick_Type\000"
 3766      69636B5F 
 3766      54797065 
 3766      00
 3767              	.LASF160:
 3768 0294 5F5F4E56 		.ascii	"__NVIC_DisableIRQ\000"
 3768      49435F44 
 3768      69736162 
 3768      6C654952 
 3768      5100
 3769              	.LASF136:
 3770 02a6 41465352 		.ascii	"AFSR\000"
 3770      00
 3771              	.LASF7:
 3772 02ab 5F5F7569 		.ascii	"__uint32_t\000"
 3772      6E743332 
 3772      5F7400
ARM GAS  /tmp/ccL9X4rG.s 			page 70


 3773              	.LASF17:
 3774 02b6 42757346 		.ascii	"BusFault_IRQn\000"
 3774      61756C74 
 3774      5F495251 
 3774      6E00
 3775              	.LASF140:
 3776 02c4 5343425F 		.ascii	"SCB_Type\000"
 3776      54797065 
 3776      00
 3777              	.LASF184:
 3778 02cd 48414C5F 		.ascii	"HAL_NVIC_GetPendingIRQ\000"
 3778      4E564943 
 3778      5F476574 
 3778      50656E64 
 3778      696E6749 
 3779              	.LASF93:
 3780 02e4 444D4132 		.ascii	"DMA2_Stream7_IRQn\000"
 3780      5F537472 
 3780      65616D37 
 3780      5F495251 
 3780      6E00
 3781              	.LASF178:
 3782 02f6 48414C5F 		.ascii	"HAL_NVIC_SystemReset\000"
 3782      4E564943 
 3782      5F537973 
 3782      74656D52 
 3782      65736574 
 3783              	.LASF101:
 3784 030b 44434D49 		.ascii	"DCMI_IRQn\000"
 3784      5F495251 
 3784      6E00
 3785              	.LASF11:
 3786 0315 756E7369 		.ascii	"unsigned int\000"
 3786      676E6564 
 3786      20696E74 
 3786      00
 3787              	.LASF153:
 3788 0322 7265675F 		.ascii	"reg_value\000"
 3788      76616C75 
 3788      6500
 3789              	.LASF143:
 3790 032c 43414C49 		.ascii	"CALIB\000"
 3790      4200
 3791              	.LASF40:
 3792 0332 444D4131 		.ascii	"DMA1_Stream6_IRQn\000"
 3792      5F537472 
 3792      65616D36 
 3792      5F495251 
 3792      6E00
 3793              	.LASF16:
 3794 0344 4D656D6F 		.ascii	"MemoryManagement_IRQn\000"
 3794      72794D61 
 3794      6E616765 
 3794      6D656E74 
 3794      5F495251 
 3795              	.LASF176:
 3796 035a 48414C5F 		.ascii	"HAL_NVIC_DisableIRQ\000"
ARM GAS  /tmp/ccL9X4rG.s 			page 71


 3796      4E564943 
 3796      5F446973 
 3796      61626C65 
 3796      49525100 
 3797              	.LASF95:
 3798 036e 49324333 		.ascii	"I2C3_EV_IRQn\000"
 3798      5F45565F 
 3798      4952516E 
 3798      00
 3799              	.LASF8:
 3800 037b 6C6F6E67 		.ascii	"long unsigned int\000"
 3800      20756E73 
 3800      69676E65 
 3800      6420696E 
 3800      7400
 3801              	.LASF109:
 3802 038d 53414931 		.ascii	"SAI1_IRQn\000"
 3802      5F495251 
 3802      6E00
 3803              	.LASF108:
 3804 0397 53504936 		.ascii	"SPI6_IRQn\000"
 3804      5F495251 
 3804      6E00
 3805              	.LASF50:
 3806 03a1 54494D31 		.ascii	"TIM1_CC_IRQn\000"
 3806      5F43435F 
 3806      4952516E 
 3806      00
 3807              	.LASF167:
 3808 03ae 70507265 		.ascii	"pPreemptPriority\000"
 3808      656D7074 
 3808      5072696F 
 3808      72697479 
 3808      00
 3809              	.LASF128:
 3810 03bf 56544F52 		.ascii	"VTOR\000"
 3810      00
 3811              	.LASF97:
 3812 03c4 4F54475F 		.ascii	"OTG_HS_EP1_OUT_IRQn\000"
 3812      48535F45 
 3812      50315F4F 
 3812      55545F49 
 3812      52516E00 
 3813              	.LASF19:
 3814 03d8 53564361 		.ascii	"SVCall_IRQn\000"
 3814      6C6C5F49 
 3814      52516E00 
 3815              	.LASF81:
 3816 03e4 444D4132 		.ascii	"DMA2_Stream2_IRQn\000"
 3816      5F537472 
 3816      65616D32 
 3816      5F495251 
 3816      6E00
 3817              	.LASF42:
 3818 03f6 43414E31 		.ascii	"CAN1_TX_IRQn\000"
 3818      5F54585F 
 3818      4952516E 
ARM GAS  /tmp/ccL9X4rG.s 			page 72


 3818      00
 3819              	.LASF127:
 3820 0403 49435352 		.ascii	"ICSR\000"
 3820      00
 3821              	.LASF129:
 3822 0408 41495243 		.ascii	"AIRCR\000"
 3822      5200
 3823              	.LASF133:
 3824 040e 44465352 		.ascii	"DFSR\000"
 3824      00
 3825              	.LASF63:
 3826 0413 45585449 		.ascii	"EXTI15_10_IRQn\000"
 3826      31355F31 
 3826      305F4952 
 3826      516E00
 3827              	.LASF191:
 3828 0422 2E2F5354 		.ascii	"./STM32F4xx_HAL_Driver/Src/stm32f4xx_hal_cortex.c\000"
 3828      4D333246 
 3828      3478785F 
 3828      48414C5F 
 3828      44726976 
 3829              	.LASF134:
 3830 0454 4D4D4641 		.ascii	"MMFAR\000"
 3830      5200
 3831              	.LASF58:
 3832 045a 53504931 		.ascii	"SPI1_IRQn\000"
 3832      5F495251 
 3832      6E00
 3833              	.LASF35:
 3834 0464 444D4131 		.ascii	"DMA1_Stream1_IRQn\000"
 3834      5F537472 
 3834      65616D31 
 3834      5F495251 
 3834      6E00
 3835              	.LASF149:
 3836 0476 7072696F 		.ascii	"priority\000"
 3836      72697479 
 3836      00
 3837              	.LASF137:
 3838 047f 4D4D4652 		.ascii	"MMFR\000"
 3838      00
 3839              	.LASF66:
 3840 0484 54494D38 		.ascii	"TIM8_BRK_TIM12_IRQn\000"
 3840      5F42524B 
 3840      5F54494D 
 3840      31325F49 
 3840      52516E00 
 3841              	.LASF151:
 3842 0498 5F5F4E56 		.ascii	"__NVIC_SetPriorityGrouping\000"
 3842      49435F53 
 3842      65745072 
 3842      696F7269 
 3842      74794772 
 3843              	.LASF186:
 3844 04b3 48414C5F 		.ascii	"HAL_NVIC_GetActive\000"
 3844      4E564943 
 3844      5F476574 
ARM GAS  /tmp/ccL9X4rG.s 			page 73


 3844      41637469 
 3844      766500
 3845              	.LASF22:
 3846 04c6 53797354 		.ascii	"SysTick_IRQn\000"
 3846      69636B5F 
 3846      4952516E 
 3846      00
 3847              	.LASF18:
 3848 04d3 55736167 		.ascii	"UsageFault_IRQn\000"
 3848      65466175 
 3848      6C745F49 
 3848      52516E00 
 3849              	.LASF146:
 3850 04e3 5F5F4453 		.ascii	"__DSB\000"
 3850      4200
 3851              	.LASF68:
 3852 04e9 54494D38 		.ascii	"TIM8_TRG_COM_TIM14_IRQn\000"
 3852      5F545247 
 3852      5F434F4D 
 3852      5F54494D 
 3852      31345F49 
 3853              	.LASF164:
 3854 0501 5F5F4E56 		.ascii	"__NVIC_GetPriority\000"
 3854      49435F47 
 3854      65745072 
 3854      696F7269 
 3854      747900
 3855              	.LASF168:
 3856 0514 70537562 		.ascii	"pSubPriority\000"
 3856      5072696F 
 3856      72697479 
 3856      00
 3857              	.LASF110:
 3858 0521 444D4132 		.ascii	"DMA2D_IRQn\000"
 3858      445F4952 
 3858      516E00
 3859              	.LASF84:
 3860 052c 4554485F 		.ascii	"ETH_IRQn\000"
 3860      4952516E 
 3860      00
 3861              	.LASF148:
 3862 0535 4952516E 		.ascii	"IRQn\000"
 3862      00
 3863              	.LASF155:
 3864 053a 50726565 		.ascii	"PreemptPriority\000"
 3864      6D707450 
 3864      72696F72 
 3864      69747900 
 3865              	.LASF194:
 3866 054a 7072696F 		.ascii	"prioritygroup\000"
 3866      72697479 
 3866      67726F75 
 3866      7000
 3867              	.LASF124:
 3868 0558 73697A65 		.ascii	"sizetype\000"
 3868      74797065 
 3868      00
ARM GAS  /tmp/ccL9X4rG.s 			page 74


 3869              	.LASF142:
 3870 0561 4C4F4144 		.ascii	"LOAD\000"
 3870      00
 3871              	.LASF48:
 3872 0566 54494D31 		.ascii	"TIM1_UP_TIM10_IRQn\000"
 3872      5F55505F 
 3872      54494D31 
 3872      305F4952 
 3872      516E00
 3873              	.LASF163:
 3874 0579 7469636B 		.ascii	"ticks\000"
 3874      7300
 3875              	.LASF82:
 3876 057f 444D4132 		.ascii	"DMA2_Stream3_IRQn\000"
 3876      5F537472 
 3876      65616D33 
 3876      5F495251 
 3876      6E00
 3877              	.LASF38:
 3878 0591 444D4131 		.ascii	"DMA1_Stream4_IRQn\000"
 3878      5F537472 
 3878      65616D34 
 3878      5F495251 
 3878      6E00
 3879              	.LASF131:
 3880 05a3 43465352 		.ascii	"CFSR\000"
 3880      00
 3881              	.LASF120:
 3882 05a8 49414252 		.ascii	"IABR\000"
 3882      00
 3883              	.LASF94:
 3884 05ad 55534152 		.ascii	"USART6_IRQn\000"
 3884      54365F49 
 3884      52516E00 
 3885              	.LASF170:
 3886 05b9 5F5F4E56 		.ascii	"__NVIC_GetPendingIRQ\000"
 3886      49435F47 
 3886      65745065 
 3886      6E64696E 
 3886      67495251 
 3887              	.LASF73:
 3888 05ce 54494D35 		.ascii	"TIM5_IRQn\000"
 3888      5F495251 
 3888      6E00
 3889              	.LASF32:
 3890 05d8 45585449 		.ascii	"EXTI3_IRQn\000"
 3890      335F4952 
 3890      516E00
 3891              	.LASF59:
 3892 05e3 53504932 		.ascii	"SPI2_IRQn\000"
 3892      5F495251 
 3892      6E00
 3893              	.LASF36:
 3894 05ed 444D4131 		.ascii	"DMA1_Stream2_IRQn\000"
 3894      5F537472 
 3894      65616D32 
 3894      5F495251 
ARM GAS  /tmp/ccL9X4rG.s 			page 75


 3894      6E00
 3895              	.LASF147:
 3896 05ff 5F5F4953 		.ascii	"__ISB\000"
 3896      4200
 3897              	.LASF161:
 3898 0605 4E564943 		.ascii	"NVIC_EncodePriority\000"
 3898      5F456E63 
 3898      6F646550 
 3898      72696F72 
 3898      69747900 
 3899              	.LASF90:
 3900 0619 4F54475F 		.ascii	"OTG_FS_IRQn\000"
 3900      46535F49 
 3900      52516E00 
 3901              	.LASF114:
 3902 0625 49434552 		.ascii	"ICER\000"
 3902      00
 3903              	.LASF158:
 3904 062a 53756250 		.ascii	"SubPriorityBits\000"
 3904      72696F72 
 3904      69747942 
 3904      69747300 
 3905              	.LASF165:
 3906 063a 4E564943 		.ascii	"NVIC_DecodePriority\000"
 3906      5F446563 
 3906      6F646550 
 3906      72696F72 
 3906      69747900 
 3907              	.LASF195:
 3908 064e 48414C5F 		.ascii	"HAL_SYSTICK_Callback\000"
 3908      53595354 
 3908      49434B5F 
 3908      43616C6C 
 3908      6261636B 
 3909              	.LASF100:
 3910 0663 4F54475F 		.ascii	"OTG_HS_IRQn\000"
 3910      48535F49 
 3910      52516E00 
 3911              	.LASF192:
 3912 066f 2F645F64 		.ascii	"/d_drive/axoloti/firmware\000"
 3912      72697665 
 3912      2F61786F 
 3912      6C6F7469 
 3912      2F666972 
 3913              	.LASF126:
 3914 0689 43505549 		.ascii	"CPUID\000"
 3914      4400
 3915              	.LASF113:
 3916 068f 52455345 		.ascii	"RESERVED0\000"
 3916      52564544 
 3916      3000
 3917              	.LASF117:
 3918 0699 52455345 		.ascii	"RESERVED2\000"
 3918      52564544 
 3918      3200
 3919              	.LASF119:
 3920 06a3 52455345 		.ascii	"RESERVED3\000"
ARM GAS  /tmp/ccL9X4rG.s 			page 76


 3920      52564544 
 3920      3300
 3921              	.LASF121:
 3922 06ad 52455345 		.ascii	"RESERVED4\000"
 3922      52564544 
 3922      3400
 3923              	.LASF122:
 3924 06b7 52455345 		.ascii	"RESERVED5\000"
 3924      52564544 
 3924      3500
 3925              	.LASF74:
 3926 06c1 53504933 		.ascii	"SPI3_IRQn\000"
 3926      5F495251 
 3926      6E00
 3927              	.LASF83:
 3928 06cb 444D4132 		.ascii	"DMA2_Stream4_IRQn\000"
 3928      5F537472 
 3928      65616D34 
 3928      5F495251 
 3928      6E00
 3929              	.LASF135:
 3930 06dd 42464152 		.ascii	"BFAR\000"
 3930      00
 3931              	.LASF13:
 3932 06e2 696E7433 		.ascii	"int32_t\000"
 3932      325F7400 
 3933              	.LASF1:
 3934 06ea 756E7369 		.ascii	"unsigned char\000"
 3934      676E6564 
 3934      20636861 
 3934      7200
 3935              	.LASF37:
 3936 06f8 444D4131 		.ascii	"DMA1_Stream3_IRQn\000"
 3936      5F537472 
 3936      65616D33 
 3936      5F495251 
 3936      6E00
 3937              	.LASF130:
 3938 070a 53484353 		.ascii	"SHCSR\000"
 3938      5200
 3939              	.LASF47:
 3940 0710 54494D31 		.ascii	"TIM1_BRK_TIM9_IRQn\000"
 3940      5F42524B 
 3940      5F54494D 
 3940      395F4952 
 3940      516E00
 3941              	.LASF196:
 3942 0723 49544D5F 		.ascii	"ITM_RxBuffer\000"
 3942      52784275 
 3942      66666572 
 3942      00
 3943              	.LASF33:
 3944 0730 45585449 		.ascii	"EXTI4_IRQn\000"
 3944      345F4952 
 3944      516E00
 3945              	.LASF102:
 3946 073b 48415348 		.ascii	"HASH_RNG_IRQn\000"
ARM GAS  /tmp/ccL9X4rG.s 			page 77


 3946      5F524E47 
 3946      5F495251 
 3946      6E00
 3947              	.LASF2:
 3948 0749 73686F72 		.ascii	"short int\000"
 3948      7420696E 
 3948      7400
 3949              	.LASF112:
 3950 0753 49534552 		.ascii	"ISER\000"
 3950      00
 3951              	.LASF125:
 3952 0758 4E564943 		.ascii	"NVIC_Type\000"
 3952      5F547970 
 3952      6500
 3953              	.LASF76:
 3954 0762 55415254 		.ascii	"UART5_IRQn\000"
 3954      355F4952 
 3954      516E00
 3955              	.LASF49:
 3956 076d 54494D31 		.ascii	"TIM1_TRG_COM_TIM11_IRQn\000"
 3956      5F545247 
 3956      5F434F4D 
 3956      5F54494D 
 3956      31315F49 
 3957              	.LASF71:
 3958 0785 464D435F 		.ascii	"FMC_IRQn\000"
 3958      4952516E 
 3958      00
 3959              	.LASF3:
 3960 078e 73686F72 		.ascii	"short unsigned int\000"
 3960      7420756E 
 3960      7369676E 
 3960      65642069 
 3960      6E7400
 3961              	.LASF173:
 3962 07a1 48414C5F 		.ascii	"HAL_NVIC_SetPriorityGrouping\000"
 3962      4E564943 
 3962      5F536574 
 3962      5072696F 
 3962      72697479 
 3963              	.LASF31:
 3964 07be 45585449 		.ascii	"EXTI2_IRQn\000"
 3964      325F4952 
 3964      516E00
 3965              	.LASF169:
 3966 07c9 5F5F4E56 		.ascii	"__NVIC_SetPendingIRQ\000"
 3966      49435F53 
 3966      65745065 
 3966      6E64696E 
 3966      67495251 
 3967              	.LASF159:
 3968 07de 5F5F4E56 		.ascii	"__NVIC_EnableIRQ\000"
 3968      49435F45 
 3968      6E61626C 
 3968      65495251 
 3968      00
 3969              	.LASF27:
ARM GAS  /tmp/ccL9X4rG.s 			page 78


 3970 07ef 464C4153 		.ascii	"FLASH_IRQn\000"
 3970      485F4952 
 3970      516E00
 3971              	.LASF111:
 3972 07fa 4952516E 		.ascii	"IRQn_Type\000"
 3972      5F547970 
 3972      6500
 3973              	.LASF14:
 3974 0804 75696E74 		.ascii	"uint32_t\000"
 3974      33325F74 
 3974      00
 3975              	.LASF61:
 3976 080d 55534152 		.ascii	"USART2_IRQn\000"
 3976      54325F49 
 3976      52516E00 
 3977              	.LASF177:
 3978 0819 4E564943 		.ascii	"NVIC_SystemReset\000"
 3978      5F537973 
 3978      74656D52 
 3978      65736574 
 3978      00
 3979              	.LASF70:
 3980 082a 444D4131 		.ascii	"DMA1_Stream7_IRQn\000"
 3980      5F537472 
 3980      65616D37 
 3980      5F495251 
 3980      6E00
 3981              	.LASF145:
 3982 083c 63686172 		.ascii	"char\000"
 3982      00
 3983              	.LASF174:
 3984 0841 48414C5F 		.ascii	"HAL_NVIC_SetPriority\000"
 3984      4E564943 
 3984      5F536574 
 3984      5072696F 
 3984      72697479 
 3985              	.LASF179:
 3986 0856 5469636B 		.ascii	"TicksNumb\000"
 3986      734E756D 
 3986      6200
 3987              	.LASF78:
 3988 0860 54494D37 		.ascii	"TIM7_IRQn\000"
 3988      5F495251 
 3988      6E00
 3989              	.LASF187:
 3990 086a 48414C5F 		.ascii	"HAL_SYSTICK_CLKSourceConfig\000"
 3990      53595354 
 3990      49434B5F 
 3990      434C4B53 
 3990      6F757263 
 3991              	.LASF98:
 3992 0886 4F54475F 		.ascii	"OTG_HS_EP1_IN_IRQn\000"
 3992      48535F45 
 3992      50315F49 
 3992      4E5F4952 
 3992      516E00
 3993              	.LASF15:
ARM GAS  /tmp/ccL9X4rG.s 			page 79


 3994 0899 4E6F6E4D 		.ascii	"NonMaskableInt_IRQn\000"
 3994      61736B61 
 3994      626C6549 
 3994      6E745F49 
 3994      52516E00 
 3995              	.LASF5:
 3996 08ad 5F5F696E 		.ascii	"__int32_t\000"
 3996      7433325F 
 3996      7400
 3997              	.LASF162:
 3998 08b7 53797354 		.ascii	"SysTick_Config\000"
 3998      69636B5F 
 3998      436F6E66 
 3998      696700
 3999              	.LASF25:
 4000 08c6 54414D50 		.ascii	"TAMP_STAMP_IRQn\000"
 4000      5F535441 
 4000      4D505F49 
 4000      52516E00 
 4001              	.LASF181:
 4002 08d6 48414C5F 		.ascii	"HAL_NVIC_GetPriorityGrouping\000"
 4002      4E564943 
 4002      5F476574 
 4002      5072696F 
 4002      72697479 
 4003              	.LASF20:
 4004 08f3 44656275 		.ascii	"DebugMonitor_IRQn\000"
 4004      674D6F6E 
 4004      69746F72 
 4004      5F495251 
 4004      6E00
 4005              	.LASF79:
 4006 0905 444D4132 		.ascii	"DMA2_Stream0_IRQn\000"
 4006      5F537472 
 4006      65616D30 
 4006      5F495251 
 4006      6E00
 4007              	.LASF141:
 4008 0917 4354524C 		.ascii	"CTRL\000"
 4008      00
 4009              	.LASF172:
 4010 091c 5F5F4E56 		.ascii	"__NVIC_GetActive\000"
 4010      49435F47 
 4010      65744163 
 4010      74697665 
 4010      00
 4011              	.LASF56:
 4012 092d 49324332 		.ascii	"I2C2_EV_IRQn\000"
 4012      5F45565F 
 4012      4952516E 
 4012      00
 4013              	.LASF62:
 4014 093a 55534152 		.ascii	"USART3_IRQn\000"
 4014      54335F49 
 4014      52516E00 
 4015              	.LASF51:
 4016 0946 54494D32 		.ascii	"TIM2_IRQn\000"
ARM GAS  /tmp/ccL9X4rG.s 			page 80


 4016      5F495251 
 4016      6E00
 4017              	.LASF29:
 4018 0950 45585449 		.ascii	"EXTI0_IRQn\000"
 4018      305F4952 
 4018      516E00
 4019              	.LASF86:
 4020 095b 43414E32 		.ascii	"CAN2_TX_IRQn\000"
 4020      5F54585F 
 4020      4952516E 
 4020      00
 4021              	.LASF60:
 4022 0968 55534152 		.ascii	"USART1_IRQn\000"
 4022      54315F49 
 4022      52516E00 
 4023              	.LASF166:
 4024 0974 5072696F 		.ascii	"Priority\000"
 4024      72697479 
 4024      00
 4025              	.LASF12:
 4026 097d 75696E74 		.ascii	"uint8_t\000"
 4026      385F7400 
 4027              	.LASF193:
 4028 0985 5F5F4E56 		.ascii	"__NVIC_GetPriorityGrouping\000"
 4028      49435F47 
 4028      65745072 
 4028      696F7269 
 4028      74794772 
 4029              	.LASF115:
 4030 09a0 52534552 		.ascii	"RSERVED1\000"
 4030      56454431 
 4030      00
 4031              	.LASF123:
 4032 09a9 53544952 		.ascii	"STIR\000"
 4032      00
 4033              	.LASF104:
 4034 09ae 55415254 		.ascii	"UART7_IRQn\000"
 4034      375F4952 
 4034      516E00
 4035              	.LASF190:
 4036 09b9 474E5520 		.ascii	"GNU C 4.9.3 20150529 (release) [ARM/embedded-4_9-br"
 4036      4320342E 
 4036      392E3320 
 4036      32303135 
 4036      30353239 
 4037 09ec 616E6368 		.ascii	"anch revision 224288] -mcpu=cortex-m4 -mfloat-abi=h"
 4037      20726576 
 4037      6973696F 
 4037      6E203232 
 4037      34323838 
 4038 0a1f 61726420 		.ascii	"ard -mfpu=fpv4-sp-d16 -mno-thumb-interwork -mthumb "
 4038      2D6D6670 
 4038      753D6670 
 4038      76342D73 
 4038      702D6431 
 4039 0a52 2D676764 		.ascii	"-ggdb -O2 -fomit-frame-pointer -falign-functions=16"
 4039      62202D4F 
ARM GAS  /tmp/ccL9X4rG.s 			page 81


 4039      32202D66 
 4039      6F6D6974 
 4039      2D667261 
 4040 0a85 202D666E 		.ascii	" -fno-math-errno -fsingle-precision-constant\000"
 4040      6F2D6D61 
 4040      74682D65 
 4040      72726E6F 
 4040      202D6673 
 4041              	.LASF103:
 4042 0ab2 4650555F 		.ascii	"FPU_IRQn\000"
 4042      4952516E 
 4042      00
 4043              	.LASF150:
 4044 0abb 5F5F4E56 		.ascii	"__NVIC_SetPriority\000"
 4044      49435F53 
 4044      65745072 
 4044      696F7269 
 4044      747900
 4045              	.LASF183:
 4046 0ace 48414C5F 		.ascii	"HAL_NVIC_SetPendingIRQ\000"
 4046      4E564943 
 4046      5F536574 
 4046      50656E64 
 4046      696E6749 
 4047              	.LASF55:
 4048 0ae5 49324331 		.ascii	"I2C1_ER_IRQn\000"
 4048      5F45525F 
 4048      4952516E 
 4048      00
 4049              	.LASF41:
 4050 0af2 4144435F 		.ascii	"ADC_IRQn\000"
 4050      4952516E 
 4050      00
 4051              	.LASF80:
 4052 0afb 444D4132 		.ascii	"DMA2_Stream1_IRQn\000"
 4052      5F537472 
 4052      65616D31 
 4052      5F495251 
 4052      6E00
 4053              	.LASF139:
 4054 0b0d 43504143 		.ascii	"CPACR\000"
 4054      5200
 4055              	.LASF132:
 4056 0b13 48465352 		.ascii	"HFSR\000"
 4056      00
 4057              	.LASF45:
 4058 0b18 43414E31 		.ascii	"CAN1_SCE_IRQn\000"
 4058      5F534345 
 4058      5F495251 
 4058      6E00
 4059              	.LASF89:
 4060 0b26 43414E32 		.ascii	"CAN2_SCE_IRQn\000"
 4060      5F534345 
 4060      5F495251 
 4060      6E00
 4061              	.LASF28:
 4062 0b34 5243435F 		.ascii	"RCC_IRQn\000"
ARM GAS  /tmp/ccL9X4rG.s 			page 82


 4062      4952516E 
 4062      00
 4063              	.LASF99:
 4064 0b3d 4F54475F 		.ascii	"OTG_HS_WKUP_IRQn\000"
 4064      48535F57 
 4064      4B55505F 
 4064      4952516E 
 4064      00
 4065              	.LASF52:
 4066 0b4e 54494D33 		.ascii	"TIM3_IRQn\000"
 4066      5F495251 
 4066      6E00
 4067              	.LASF30:
 4068 0b58 45585449 		.ascii	"EXTI1_IRQn\000"
 4068      315F4952 
 4068      516E00
 4069              	.LASF34:
 4070 0b63 444D4131 		.ascii	"DMA1_Stream0_IRQn\000"
 4070      5F537472 
 4070      65616D30 
 4070      5F495251 
 4070      6E00
 4071              		.ident	"GCC: (GNU Tools for ARM Embedded Processors) 4.9.3 20150529 (release) [ARM/embedded-4_9-br
ARM GAS  /tmp/ccL9X4rG.s 			page 83


DEFINED SYMBOLS
                            *ABS*:00000000 stm32f4xx_hal_cortex.c
     /tmp/ccL9X4rG.s:20     .text:00000000 $t
     /tmp/ccL9X4rG.s:26     .text:00000000 HAL_NVIC_SetPriorityGrouping
     /tmp/ccL9X4rG.s:61     .text:00000020 $d
     /tmp/ccL9X4rG.s:67     .text:00000024 $t
     /tmp/ccL9X4rG.s:73     .text:00000030 HAL_NVIC_SetPriority
     /tmp/ccL9X4rG.s:200    .text:00000094 $d
     /tmp/ccL9X4rG.s:205    .text:0000009c $t
     /tmp/ccL9X4rG.s:211    .text:000000a0 HAL_NVIC_EnableIRQ
     /tmp/ccL9X4rG.s:237    .text:000000b8 $d
     /tmp/ccL9X4rG.s:243    .text:000000bc $t
     /tmp/ccL9X4rG.s:249    .text:000000c0 HAL_NVIC_DisableIRQ
     /tmp/ccL9X4rG.s:293    .text:000000e0 $d
     /tmp/ccL9X4rG.s:301    .text:000000e4 $t
     /tmp/ccL9X4rG.s:307    .text:000000f0 HAL_NVIC_SystemReset
     /tmp/ccL9X4rG.s:355    .text:0000010c $d
     /tmp/ccL9X4rG.s:362    .text:00000114 $t
     /tmp/ccL9X4rG.s:368    .text:00000120 HAL_SYSTICK_Config
     /tmp/ccL9X4rG.s:438    .text:0000014c $d
     /tmp/ccL9X4rG.s:445    .text:00000154 $t
     /tmp/ccL9X4rG.s:451    .text:00000160 HAL_NVIC_GetPriorityGrouping
     /tmp/ccL9X4rG.s:471    .text:0000016c $d
     /tmp/ccL9X4rG.s:475    .text:00000170 $t
     /tmp/ccL9X4rG.s:481    .text:00000170 HAL_NVIC_GetPriority
     /tmp/ccL9X4rG.s:588    .text:000001cc $d
     /tmp/ccL9X4rG.s:594    .text:000001d0 $t
     /tmp/ccL9X4rG.s:600    .text:000001d0 HAL_NVIC_SetPendingIRQ
     /tmp/ccL9X4rG.s:627    .text:000001e8 $d
     /tmp/ccL9X4rG.s:633    .text:000001ec $t
     /tmp/ccL9X4rG.s:639    .text:000001f0 HAL_NVIC_GetPendingIRQ
     /tmp/ccL9X4rG.s:674    .text:00000210 $d
     /tmp/ccL9X4rG.s:678    .text:00000214 $t
     /tmp/ccL9X4rG.s:684    .text:00000220 HAL_NVIC_ClearPendingIRQ
     /tmp/ccL9X4rG.s:711    .text:00000238 $d
     /tmp/ccL9X4rG.s:717    .text:0000023c $t
     /tmp/ccL9X4rG.s:723    .text:00000240 HAL_NVIC_GetActive
     /tmp/ccL9X4rG.s:758    .text:00000260 $d
     /tmp/ccL9X4rG.s:762    .text:00000264 $t
     /tmp/ccL9X4rG.s:768    .text:00000270 HAL_SYSTICK_CLKSourceConfig
     /tmp/ccL9X4rG.s:791    .text:00000284 $d
     /tmp/ccL9X4rG.s:795    .text:00000288 $t
     /tmp/ccL9X4rG.s:801    .text:00000290 HAL_SYSTICK_Callback
     /tmp/ccL9X4rG.s:818    .text:000002a0 HAL_SYSTICK_IRQHandler
                     .debug_frame:00000010 $d

NO UNDEFINED SYMBOLS
