ARM GAS  /tmp/ccIU2uub.s 			page 1


   1              		.syntax unified
   2              		.cpu cortex-m4
   3              		.eabi_attribute 27, 1
   4              		.eabi_attribute 28, 1
   5              		.fpu fpv4-sp-d16
   6              		.eabi_attribute 20, 1
   7              		.eabi_attribute 21, 1
   8              		.eabi_attribute 23, 3
   9              		.eabi_attribute 24, 1
  10              		.eabi_attribute 25, 1
  11              		.eabi_attribute 26, 1
  12              		.eabi_attribute 30, 2
  13              		.eabi_attribute 34, 1
  14              		.eabi_attribute 18, 4
  15              		.thumb
  16              		.file	"stm32f4xx_hal_gpio.c"
  17              		.text
  18              	.Ltext0:
  19              		.cfi_sections	.debug_frame
  20              		.align	2
  21              		.p2align 4,,15
  22              		.global	HAL_GPIO_Init
  23              		.thumb
  24              		.thumb_func
  25              		.type	HAL_GPIO_Init, %function
  26              	HAL_GPIO_Init:
  27              	.LFB123:
  28              		.file 1 "./STM32F4xx_HAL_Driver/Src/stm32f4xx_hal_gpio.c"
  29              		.loc 1 190 0
  30              		.cfi_startproc
  31              		@ args = 0, pretend = 0, frame = 16
  32              		@ frame_needed = 0, uses_anonymous_args = 0
  33              	.LVL0:
  34 0000 2DE9F04F 		push	{r4, r5, r6, r7, r8, r9, r10, fp, lr}
  35              		.cfi_def_cfa_offset 36
  36              		.cfi_offset 4, -36
  37              		.cfi_offset 5, -32
  38              		.cfi_offset 6, -28
  39              		.cfi_offset 7, -24
  40              		.cfi_offset 8, -20
  41              		.cfi_offset 9, -16
  42              		.cfi_offset 10, -12
  43              		.cfi_offset 11, -8
  44              		.cfi_offset 14, -4
  45              		.loc 1 265 0
  46 0004 DFF858C2 		ldr	ip, .L44+40
  47              	.LBB2:
  48              		.loc 1 261 0
  49 0008 DFF858E2 		ldr	lr, .L44+44
  50 000c 0F68     		ldr	r7, [r1]
  51              	.LBE2:
  52              		.loc 1 269 0
  53 000e 8A4E     		ldr	r6, .L44
  54              		.loc 1 190 0
  55 0010 85B0     		sub	sp, sp, #20
  56              		.cfi_def_cfa_offset 56
  57              		.loc 1 203 0
ARM GAS  /tmp/ccIU2uub.s 			page 2


  58 0012 0023     		movs	r3, #0
  59 0014 03E0     		b	.L26
  60              	.LVL1:
  61              	.L3:
  62              		.loc 1 203 0 is_stmt 0 discriminator 2
  63 0016 0133     		adds	r3, r3, #1
  64              	.LVL2:
  65 0018 102B     		cmp	r3, #16
  66 001a 00F0A480 		beq	.L34
  67              	.LVL3:
  68              	.L26:
  69              		.loc 1 206 0 is_stmt 1
  70 001e 0122     		movs	r2, #1
  71 0020 9A40     		lsls	r2, r2, r3
  72              	.LVL4:
  73              		.loc 1 208 0
  74 0022 02EA0704 		and	r4, r2, r7
  75              	.LVL5:
  76              		.loc 1 210 0
  77 0026 9442     		cmp	r4, r2
  78 0028 F5D1     		bne	.L3
  79              		.loc 1 214 0
  80 002a 4D68     		ldr	r5, [r1, #4]
  81 002c 25F0100A 		bic	r10, r5, #16
  82 0030 BAF1020F 		cmp	r10, #2
  83 0034 00F09A80 		beq	.L35
  84 0038 4FEA4309 		lsl	r9, r3, #1
  85              		.loc 1 227 0
  86 003c 0322     		movs	r2, #3
  87              	.LVL6:
  88              		.loc 1 226 0
  89 003e D0F800B0 		ldr	fp, [r0]
  90              	.LVL7:
  91              		.loc 1 227 0
  92 0042 02FA09F2 		lsl	r2, r2, r9
  93 0046 D243     		mvns	r2, r2
  94              		.loc 1 228 0
  95 0048 05F00308 		and	r8, r5, #3
  96              		.loc 1 227 0
  97 004c 02EA0B0B 		and	fp, r2, fp
  98              	.LVL8:
  99              		.loc 1 228 0
 100 0050 08FA09F8 		lsl	r8, r8, r9
 101              		.loc 1 232 0
 102 0054 0AF1FF3A 		add	r10, r10, #-1
 103              		.loc 1 228 0
 104 0058 4BEA0808 		orr	r8, fp, r8
 105              	.LVL9:
 106              		.loc 1 232 0
 107 005c BAF1010F 		cmp	r10, #1
 108              		.loc 1 227 0
 109 0060 0192     		str	r2, [sp, #4]
 110              		.loc 1 229 0
 111 0062 C0F80080 		str	r8, [r0]
 112              		.loc 1 232 0
 113 0066 40F2AB80 		bls	.L5
 114              	.L6:
ARM GAS  /tmp/ccIU2uub.s 			page 3


 115              		.loc 1 251 0
 116 006a D0F80C80 		ldr	r8, [r0, #12]
 117              	.LVL10:
 118              		.loc 1 252 0
 119 006e 019A     		ldr	r2, [sp, #4]
 120 0070 02EA080A 		and	r10, r2, r8
 121              	.LVL11:
 122              		.loc 1 253 0
 123 0074 8A68     		ldr	r2, [r1, #8]
 124 0076 02FA09F8 		lsl	r8, r2, r9
 125 007a 4AEA0802 		orr	r2, r10, r8
 126              	.LVL12:
 127              		.loc 1 254 0
 128 007e C260     		str	r2, [r0, #12]
 129              		.loc 1 258 0
 130 0080 EA00     		lsls	r2, r5, #3
 131              	.LVL13:
 132 0082 C8D5     		bpl	.L3
 133              	.LBB3:
 134              		.loc 1 261 0
 135 0084 DEF84420 		ldr	r2, [lr, #68]
 136 0088 42F48042 		orr	r2, r2, #16384
 137 008c CEF84420 		str	r2, [lr, #68]
 138              	.LVL14:
 139 0090 DEF84420 		ldr	r2, [lr, #68]
 140 0094 23F00309 		bic	r9, r3, #3
 141 0098 09F18049 		add	r9, r9, #1073741824
 142 009c 02F48042 		and	r2, r2, #16384
 143 00a0 09F59C39 		add	r9, r9, #79872
 144 00a4 0392     		str	r2, [sp, #12]
 145              	.LBE3:
 146              		.loc 1 264 0
 147 00a6 03F0030A 		and	r10, r3, #3
 148              	.LVL15:
 149              	.LBB4:
 150              		.loc 1 261 0
 151 00aa 039A     		ldr	r2, [sp, #12]
 152              	.LBE4:
 153              		.loc 1 263 0
 154 00ac D9F80880 		ldr	r8, [r9, #8]
 155              	.LVL16:
 156              		.loc 1 264 0
 157 00b0 4FEA8A0A 		lsl	r10, r10, #2
 158 00b4 0F22     		movs	r2, #15
 159 00b6 02FA0AF2 		lsl	r2, r2, r10
 160              		.loc 1 265 0
 161 00ba 6045     		cmp	r0, ip
 162              		.loc 1 264 0
 163 00bc 28EA0208 		bic	r8, r8, r2
 164              	.LVL17:
 165              		.loc 1 265 0
 166 00c0 00F09780 		beq	.L27
 167              		.loc 1 265 0 is_stmt 0 discriminator 1
 168 00c4 5D4A     		ldr	r2, .L44+4
 169 00c6 9042     		cmp	r0, r2
 170 00c8 00F09580 		beq	.L36
 171              		.loc 1 265 0 discriminator 3
ARM GAS  /tmp/ccIU2uub.s 			page 4


 172 00cc 5C4A     		ldr	r2, .L44+8
 173 00ce 9042     		cmp	r0, r2
 174 00d0 00F09580 		beq	.L37
 175              		.loc 1 265 0 discriminator 5
 176 00d4 5B4A     		ldr	r2, .L44+12
 177 00d6 9042     		cmp	r0, r2
 178 00d8 00F09580 		beq	.L38
 179              		.loc 1 265 0 discriminator 7
 180 00dc 5A4A     		ldr	r2, .L44+16
 181 00de 9042     		cmp	r0, r2
 182 00e0 00F09580 		beq	.L39
 183              		.loc 1 265 0 discriminator 9
 184 00e4 594A     		ldr	r2, .L44+20
 185 00e6 9042     		cmp	r0, r2
 186 00e8 00F09580 		beq	.L40
 187              		.loc 1 265 0 discriminator 11
 188 00ec 584A     		ldr	r2, .L44+24
 189 00ee 9042     		cmp	r0, r2
 190 00f0 00F09580 		beq	.L41
 191              		.loc 1 265 0 discriminator 13
 192 00f4 574A     		ldr	r2, .L44+28
 193 00f6 9042     		cmp	r0, r2
 194 00f8 00F09580 		beq	.L42
 195              		.loc 1 265 0 discriminator 15
 196 00fc 564A     		ldr	r2, .L44+32
 197 00fe 9042     		cmp	r0, r2
 198 0100 00F09580 		beq	.L43
 199              		.loc 1 265 0 discriminator 17
 200 0104 554A     		ldr	r2, .L44+36
 201 0106 9042     		cmp	r0, r2
 202 0108 0CBF     		ite	eq
 203 010a 0922     		moveq	r2, #9
 204 010c 0A22     		movne	r2, #10
 205 010e 02FA0AF2 		lsl	r2, r2, r10
 206              	.L8:
 207              		.loc 1 265 0 discriminator 40
 208 0112 42EA0802 		orr	r2, r2, r8
 209              	.LVL18:
 210              		.loc 1 266 0 is_stmt 1 discriminator 40
 211 0116 C9F80820 		str	r2, [r9, #8]
 212              		.loc 1 269 0 discriminator 40
 213 011a 3268     		ldr	r2, [r6]
 214              	.LVL19:
 215              		.loc 1 270 0 discriminator 40
 216 011c 6FEA0408 		mvn	r8, r4
 217              	.LVL20:
 218              		.loc 1 271 0 discriminator 40
 219 0120 15F4803F 		tst	r5, #65536
 220              		.loc 1 273 0 discriminator 40
 221 0124 14BF     		ite	ne
 222 0126 2243     		orrne	r2, r2, r4
 223              	.LVL21:
 224              		.loc 1 270 0 discriminator 40
 225 0128 08EA0202 		andeq	r2, r8, r2
 226              	.LVL22:
 227              		.loc 1 275 0 discriminator 40
 228 012c 3260     		str	r2, [r6]
ARM GAS  /tmp/ccIU2uub.s 			page 5


 229              		.loc 1 277 0 discriminator 40
 230 012e 7268     		ldr	r2, [r6, #4]
 231              	.LVL23:
 232              		.loc 1 279 0 discriminator 40
 233 0130 15F4003F 		tst	r5, #131072
 234              		.loc 1 281 0 discriminator 40
 235 0134 14BF     		ite	ne
 236 0136 2243     		orrne	r2, r2, r4
 237              	.LVL24:
 238              		.loc 1 278 0 discriminator 40
 239 0138 08EA0202 		andeq	r2, r8, r2
 240              	.LVL25:
 241              		.loc 1 283 0 discriminator 40
 242 013c 7260     		str	r2, [r6, #4]
 243              		.loc 1 286 0 discriminator 40
 244 013e B268     		ldr	r2, [r6, #8]
 245              	.LVL26:
 246              		.loc 1 288 0 discriminator 40
 247 0140 15F4801F 		tst	r5, #1048576
 248              		.loc 1 290 0 discriminator 40
 249 0144 14BF     		ite	ne
 250 0146 2243     		orrne	r2, r2, r4
 251              	.LVL27:
 252              		.loc 1 287 0 discriminator 40
 253 0148 08EA0202 		andeq	r2, r8, r2
 254              	.LVL28:
 255              		.loc 1 292 0 discriminator 40
 256 014c B260     		str	r2, [r6, #8]
 257              		.loc 1 294 0 discriminator 40
 258 014e F268     		ldr	r2, [r6, #12]
 259              	.LVL29:
 260              		.loc 1 296 0 discriminator 40
 261 0150 AD02     		lsls	r5, r5, #10
 262              		.loc 1 203 0 discriminator 40
 263 0152 03F10103 		add	r3, r3, #1
 264              	.LVL30:
 265              		.loc 1 295 0 discriminator 40
 266 0156 54BF     		ite	pl
 267 0158 08EA0204 		andpl	r4, r8, r2
 268              	.LVL31:
 269              		.loc 1 298 0 discriminator 40
 270 015c 1443     		orrmi	r4, r4, r2
 271              	.LVL32:
 272              		.loc 1 203 0 discriminator 40
 273 015e 102B     		cmp	r3, #16
 274              		.loc 1 300 0 discriminator 40
 275 0160 F460     		str	r4, [r6, #12]
 276              		.loc 1 203 0 discriminator 40
 277 0162 7FF45CAF 		bne	.L26
 278              	.LVL33:
 279              	.L34:
 280              		.loc 1 304 0
 281 0166 05B0     		add	sp, sp, #20
 282              		.cfi_remember_state
 283              		.cfi_def_cfa_offset 36
 284              		@ sp needed
 285 0168 BDE8F08F 		pop	{r4, r5, r6, r7, r8, r9, r10, fp, pc}
ARM GAS  /tmp/ccIU2uub.s 			page 6


 286              	.LVL34:
 287              	.L35:
 288              		.cfi_restore_state
 289              		.loc 1 219 0
 290 016c 4FEAD309 		lsr	r9, r3, #3
 291 0170 00EB8909 		add	r9, r0, r9, lsl #2
 292              		.loc 1 220 0
 293 0174 03F00708 		and	r8, r3, #7
 294              		.loc 1 219 0
 295 0178 D9F82020 		ldr	r2, [r9, #32]
 296              	.LVL35:
 297              		.loc 1 220 0
 298 017c 4FEA8808 		lsl	r8, r8, #2
 299 0180 4FF00F0A 		mov	r10, #15
 300 0184 0AFA08FA 		lsl	r10, r10, r8
 301 0188 22EA0A0A 		bic	r10, r2, r10
 302              	.LVL36:
 303              		.loc 1 221 0
 304 018c 0A69     		ldr	r2, [r1, #16]
 305 018e 02FA08F2 		lsl	r2, r2, r8
 306 0192 4AEA0202 		orr	r2, r10, r2
 307              	.LVL37:
 308              		.loc 1 222 0
 309 0196 C9F82020 		str	r2, [r9, #32]
 310 019a 4FEA4309 		lsl	r9, r3, #1
 311              		.loc 1 227 0
 312 019e 0322     		movs	r2, #3
 313              	.LVL38:
 314              		.loc 1 226 0
 315 01a0 D0F800A0 		ldr	r10, [r0]
 316              	.LVL39:
 317              		.loc 1 227 0
 318 01a4 02FA09F2 		lsl	r2, r2, r9
 319 01a8 D243     		mvns	r2, r2
 320              		.loc 1 228 0
 321 01aa 05F00308 		and	r8, r5, #3
 322              		.loc 1 227 0
 323 01ae 02EA0A0A 		and	r10, r2, r10
 324              	.LVL40:
 325              		.loc 1 228 0
 326 01b2 08FA09F8 		lsl	r8, r8, r9
 327 01b6 4AEA0808 		orr	r8, r10, r8
 328              	.LVL41:
 329              		.loc 1 227 0
 330 01ba 0192     		str	r2, [sp, #4]
 331              		.loc 1 229 0
 332 01bc C0F80080 		str	r8, [r0]
 333              	.L5:
 334              	.LVL42:
 335              		.loc 1 238 0
 336 01c0 D0F80880 		ldr	r8, [r0, #8]
 337              	.LVL43:
 338              		.loc 1 239 0
 339 01c4 019A     		ldr	r2, [sp, #4]
 340 01c6 02EA080A 		and	r10, r2, r8
 341              	.LVL44:
 342              		.loc 1 240 0
ARM GAS  /tmp/ccIU2uub.s 			page 7


 343 01ca CA68     		ldr	r2, [r1, #12]
 344 01cc 02FA09F8 		lsl	r8, r2, r9
 345 01d0 4AEA0808 		orr	r8, r10, r8
 346              	.LVL45:
 347              		.loc 1 241 0
 348 01d4 C0F80880 		str	r8, [r0, #8]
 349              		.loc 1 244 0
 350 01d8 D0F804A0 		ldr	r10, [r0, #4]
 351              	.LVL46:
 352              		.loc 1 246 0
 353 01dc C5F30018 		ubfx	r8, r5, #4, #1
 354              		.loc 1 245 0
 355 01e0 2AEA040A 		bic	r10, r10, r4
 356              	.LVL47:
 357              		.loc 1 246 0
 358 01e4 08FA03F8 		lsl	r8, r8, r3
 359 01e8 4AEA0808 		orr	r8, r10, r8
 360              	.LVL48:
 361              		.loc 1 247 0
 362 01ec C0F80480 		str	r8, [r0, #4]
 363 01f0 3BE7     		b	.L6
 364              	.L27:
 365 01f2 0022     		movs	r2, #0
 366 01f4 8DE7     		b	.L8
 367              	.L36:
 368 01f6 0122     		movs	r2, #1
 369              	.LVL49:
 370 01f8 02FA0AF2 		lsl	r2, r2, r10
 371              	.LVL50:
 372 01fc 89E7     		b	.L8
 373              	.L37:
 374 01fe 0222     		movs	r2, #2
 375 0200 02FA0AF2 		lsl	r2, r2, r10
 376 0204 85E7     		b	.L8
 377              	.L38:
 378 0206 0322     		movs	r2, #3
 379 0208 02FA0AF2 		lsl	r2, r2, r10
 380 020c 81E7     		b	.L8
 381              	.L39:
 382 020e 0422     		movs	r2, #4
 383 0210 02FA0AF2 		lsl	r2, r2, r10
 384 0214 7DE7     		b	.L8
 385              	.L40:
 386 0216 0522     		movs	r2, #5
 387 0218 02FA0AF2 		lsl	r2, r2, r10
 388 021c 79E7     		b	.L8
 389              	.L41:
 390 021e 0622     		movs	r2, #6
 391 0220 02FA0AF2 		lsl	r2, r2, r10
 392 0224 75E7     		b	.L8
 393              	.L42:
 394 0226 0722     		movs	r2, #7
 395 0228 02FA0AF2 		lsl	r2, r2, r10
 396 022c 71E7     		b	.L8
 397              	.L43:
 398 022e 0822     		movs	r2, #8
 399 0230 02FA0AF2 		lsl	r2, r2, r10
ARM GAS  /tmp/ccIU2uub.s 			page 8


 400 0234 6DE7     		b	.L8
 401              	.L45:
 402 0236 00BF     		.align	2
 403              	.L44:
 404 0238 003C0140 		.word	1073822720
 405 023c 00040240 		.word	1073873920
 406 0240 00080240 		.word	1073874944
 407 0244 000C0240 		.word	1073875968
 408 0248 00100240 		.word	1073876992
 409 024c 00140240 		.word	1073878016
 410 0250 00180240 		.word	1073879040
 411 0254 001C0240 		.word	1073880064
 412 0258 00200240 		.word	1073881088
 413 025c 00240240 		.word	1073882112
 414 0260 00000240 		.word	1073872896
 415 0264 00380240 		.word	1073887232
 416              		.cfi_endproc
 417              	.LFE123:
 418              		.size	HAL_GPIO_Init, .-HAL_GPIO_Init
 419              		.align	2
 420 0268 AFF30080 		.p2align 4,,15
 420      AFF30080 
 421              		.global	HAL_GPIO_DeInit
 422              		.thumb
 423              		.thumb_func
 424              		.type	HAL_GPIO_DeInit, %function
 425              	HAL_GPIO_DeInit:
 426              	.LFB124:
 427              		.loc 1 315 0
 428              		.cfi_startproc
 429              		@ args = 0, pretend = 0, frame = 0
 430              		@ frame_needed = 0, uses_anonymous_args = 0
 431              	.LVL51:
 432 0270 2DE9F04F 		push	{r4, r5, r6, r7, r8, r9, r10, fp, lr}
 433              		.cfi_def_cfa_offset 36
 434              		.cfi_offset 4, -36
 435              		.cfi_offset 5, -32
 436              		.cfi_offset 6, -28
 437              		.cfi_offset 7, -24
 438              		.cfi_offset 8, -20
 439              		.cfi_offset 9, -16
 440              		.cfi_offset 10, -12
 441              		.cfi_offset 11, -8
 442              		.cfi_offset 14, -4
 443              		.loc 1 360 0
 444 0274 DFF850C1 		ldr	ip, .L74+32
 445              		.loc 1 353 0
 446 0278 DFF85081 		ldr	r8, .L74+36
 447 027c DFF85091 		ldr	r9, .L74+40
 448              		.loc 1 315 0
 449 0280 8B46     		mov	fp, r1
 450              		.loc 1 325 0
 451 0282 0023     		movs	r3, #0
 452 0284 02E0     		b	.L60
 453              	.LVL52:
 454              	.L48:
 455              		.loc 1 325 0 is_stmt 0 discriminator 2
ARM GAS  /tmp/ccIU2uub.s 			page 9


 456 0286 0133     		adds	r3, r3, #1
 457              	.LVL53:
 458 0288 102B     		cmp	r3, #16
 459 028a 71D0     		beq	.L65
 460              	.LVL54:
 461              	.L60:
 462              		.loc 1 328 0 is_stmt 1
 463 028c 0124     		movs	r4, #1
 464 028e 04FA03F1 		lsl	r1, r4, r3
 465              	.LVL55:
 466              		.loc 1 330 0
 467 0292 01EA0B02 		and	r2, r1, fp
 468              	.LVL56:
 469              		.loc 1 332 0
 470 0296 8A42     		cmp	r2, r1
 471 0298 F5D1     		bne	.L48
 472              		.loc 1 336 0
 473 029a 4FF0030E 		mov	lr, #3
 474 029e 03FA04F1 		lsl	r1, r3, r4
 475              	.LVL57:
 476 02a2 0568     		ldr	r5, [r0]
 477 02a4 0EFA01F6 		lsl	r6, lr, r1
 478 02a8 F643     		mvns	r6, r6
 479              		.loc 1 339 0
 480 02aa 23FA0EF1 		lsr	r1, r3, lr
 481              		.loc 1 336 0
 482 02ae 3540     		ands	r5, r5, r6
 483 02b0 00EB8101 		add	r1, r0, r1, lsl #2
 484 02b4 0560     		str	r5, [r0]
 485              		.loc 1 339 0
 486 02b6 03F00707 		and	r7, r3, #7
 487 02ba D1F820A0 		ldr	r10, [r1, #32]
 488 02be 0F25     		movs	r5, #15
 489 02c0 BF00     		lsls	r7, r7, #2
 490 02c2 05FA07F7 		lsl	r7, r5, r7
 491 02c6 2AEA0707 		bic	r7, r10, r7
 492 02ca 0F62     		str	r7, [r1, #32]
 493              		.loc 1 342 0
 494 02cc 8168     		ldr	r1, [r0, #8]
 495 02ce 3140     		ands	r1, r1, r6
 496 02d0 8160     		str	r1, [r0, #8]
 497              		.loc 1 345 0
 498 02d2 4168     		ldr	r1, [r0, #4]
 499 02d4 D243     		mvns	r2, r2
 500              	.LVL58:
 501 02d6 1140     		ands	r1, r1, r2
 502 02d8 4160     		str	r1, [r0, #4]
 503              		.loc 1 348 0
 504 02da C768     		ldr	r7, [r0, #12]
 505 02dc 23F00301 		bic	r1, r3, #3
 506 02e0 01F18041 		add	r1, r1, #1073741824
 507 02e4 3E40     		ands	r6, r6, r7
 508 02e6 01F59C31 		add	r1, r1, #79872
 509 02ea C660     		str	r6, [r0, #12]
 510              		.loc 1 352 0
 511 02ec 03EA0E07 		and	r7, r3, lr
 512              		.loc 1 351 0
ARM GAS  /tmp/ccIU2uub.s 			page 10


 513 02f0 8E68     		ldr	r6, [r1, #8]
 514              	.LVL59:
 515              		.loc 1 352 0
 516 02f2 BF00     		lsls	r7, r7, #2
 517 02f4 BD40     		lsls	r5, r5, r7
 518              		.loc 1 353 0
 519 02f6 4045     		cmp	r0, r8
 520              		.loc 1 352 0
 521 02f8 06EA0506 		and	r6, r6, r5
 522              	.LVL60:
 523              		.loc 1 353 0
 524 02fc 3DD0     		beq	.L61
 525              		.loc 1 353 0 is_stmt 0 discriminator 1
 526 02fe 4845     		cmp	r0, r9
 527 0300 39D0     		beq	.L64
 528              		.loc 1 353 0 discriminator 3
 529 0302 294C     		ldr	r4, .L74
 530              	.LVL61:
 531 0304 A042     		cmp	r0, r4
 532 0306 3AD0     		beq	.L66
 533              		.loc 1 353 0 discriminator 5
 534 0308 284C     		ldr	r4, .L74+4
 535 030a A042     		cmp	r0, r4
 536 030c 3AD0     		beq	.L67
 537              		.loc 1 353 0 discriminator 7
 538 030e 284C     		ldr	r4, .L74+8
 539 0310 A042     		cmp	r0, r4
 540 0312 3AD0     		beq	.L68
 541              		.loc 1 353 0 discriminator 9
 542 0314 274C     		ldr	r4, .L74+12
 543 0316 A042     		cmp	r0, r4
 544 0318 3AD0     		beq	.L69
 545              		.loc 1 353 0 discriminator 11
 546 031a 274C     		ldr	r4, .L74+16
 547 031c A042     		cmp	r0, r4
 548 031e 3AD0     		beq	.L70
 549              		.loc 1 353 0 discriminator 13
 550 0320 264C     		ldr	r4, .L74+20
 551 0322 A042     		cmp	r0, r4
 552 0324 3AD0     		beq	.L71
 553              		.loc 1 353 0 discriminator 15
 554 0326 264C     		ldr	r4, .L74+24
 555 0328 A042     		cmp	r0, r4
 556 032a 3AD0     		beq	.L72
 557              		.loc 1 353 0 discriminator 17
 558 032c 254C     		ldr	r4, .L74+28
 559 032e A042     		cmp	r0, r4
 560 0330 20D0     		beq	.L73
 561 0332 0A24     		movs	r4, #10
 562 0334 BC40     		lsls	r4, r4, r7
 563              	.L49:
 564              		.loc 1 353 0 discriminator 40
 565 0336 A642     		cmp	r6, r4
 566 0338 A5D1     		bne	.L48
 567              	.LVL62:
 568              		.loc 1 357 0 is_stmt 1
 569 033a 8C68     		ldr	r4, [r1, #8]
ARM GAS  /tmp/ccIU2uub.s 			page 11


 570 033c 24EA0505 		bic	r5, r4, r5
 571              	.LVL63:
 572 0340 8D60     		str	r5, [r1, #8]
 573              		.loc 1 360 0
 574 0342 DCF80010 		ldr	r1, [ip]
 575 0346 1140     		ands	r1, r1, r2
 576 0348 CCF80010 		str	r1, [ip]
 577              		.loc 1 361 0
 578 034c DCF80410 		ldr	r1, [ip, #4]
 579 0350 1140     		ands	r1, r1, r2
 580 0352 CCF80410 		str	r1, [ip, #4]
 581              		.loc 1 364 0
 582 0356 DCF80810 		ldr	r1, [ip, #8]
 583 035a 1140     		ands	r1, r1, r2
 584 035c CCF80810 		str	r1, [ip, #8]
 585              		.loc 1 365 0
 586 0360 DCF80C10 		ldr	r1, [ip, #12]
 587              		.loc 1 325 0
 588 0364 0133     		adds	r3, r3, #1
 589              	.LVL64:
 590              		.loc 1 365 0
 591 0366 0A40     		ands	r2, r2, r1
 592              	.LVL65:
 593              		.loc 1 325 0
 594 0368 102B     		cmp	r3, #16
 595              		.loc 1 365 0
 596 036a CCF80C20 		str	r2, [ip, #12]
 597              		.loc 1 325 0
 598 036e 8DD1     		bne	.L60
 599              	.LVL66:
 600              	.L65:
 601              		.loc 1 369 0
 602 0370 BDE8F08F 		pop	{r4, r5, r6, r7, r8, r9, r10, fp, pc}
 603              	.LVL67:
 604              	.L73:
 605 0374 0924     		movs	r4, #9
 606              	.L64:
 607 0376 BC40     		lsls	r4, r4, r7
 608 0378 DDE7     		b	.L49
 609              	.LVL68:
 610              	.L61:
 611 037a 0024     		movs	r4, #0
 612              	.LVL69:
 613 037c DBE7     		b	.L49
 614              	.L66:
 615 037e 0224     		movs	r4, #2
 616 0380 BC40     		lsls	r4, r4, r7
 617 0382 D8E7     		b	.L49
 618              	.L67:
 619 0384 0EFA07F4 		lsl	r4, lr, r7
 620 0388 D5E7     		b	.L49
 621              	.L68:
 622 038a 0424     		movs	r4, #4
 623 038c BC40     		lsls	r4, r4, r7
 624 038e D2E7     		b	.L49
 625              	.L69:
 626 0390 0524     		movs	r4, #5
ARM GAS  /tmp/ccIU2uub.s 			page 12


 627 0392 BC40     		lsls	r4, r4, r7
 628 0394 CFE7     		b	.L49
 629              	.L70:
 630 0396 0624     		movs	r4, #6
 631 0398 BC40     		lsls	r4, r4, r7
 632 039a CCE7     		b	.L49
 633              	.L71:
 634 039c 0724     		movs	r4, #7
 635 039e BC40     		lsls	r4, r4, r7
 636 03a0 C9E7     		b	.L49
 637              	.L72:
 638 03a2 0824     		movs	r4, #8
 639 03a4 BC40     		lsls	r4, r4, r7
 640 03a6 C6E7     		b	.L49
 641              	.L75:
 642              		.align	2
 643              	.L74:
 644 03a8 00080240 		.word	1073874944
 645 03ac 000C0240 		.word	1073875968
 646 03b0 00100240 		.word	1073876992
 647 03b4 00140240 		.word	1073878016
 648 03b8 00180240 		.word	1073879040
 649 03bc 001C0240 		.word	1073880064
 650 03c0 00200240 		.word	1073881088
 651 03c4 00240240 		.word	1073882112
 652 03c8 003C0140 		.word	1073822720
 653 03cc 00000240 		.word	1073872896
 654 03d0 00040240 		.word	1073873920
 655              		.cfi_endproc
 656              	.LFE124:
 657              		.size	HAL_GPIO_DeInit, .-HAL_GPIO_DeInit
 658              		.align	2
 659 03d4 AFF30080 		.p2align 4,,15
 659      AFF30080 
 659      AFF30080 
 660              		.global	HAL_GPIO_ReadPin
 661              		.thumb
 662              		.thumb_func
 663              		.type	HAL_GPIO_ReadPin, %function
 664              	HAL_GPIO_ReadPin:
 665              	.LFB125:
 666              		.loc 1 396 0
 667              		.cfi_startproc
 668              		@ args = 0, pretend = 0, frame = 0
 669              		@ frame_needed = 0, uses_anonymous_args = 0
 670              		@ link register save eliminated.
 671              	.LVL70:
 672              		.loc 1 402 0
 673 03e0 0369     		ldr	r3, [r0, #16]
 674              	.LVL71:
 675 03e2 1942     		tst	r1, r3
 676              		.loc 1 411 0
 677 03e4 14BF     		ite	ne
 678 03e6 0120     		movne	r0, #1
 679              	.LVL72:
 680 03e8 0020     		moveq	r0, #0
 681 03ea 7047     		bx	lr
ARM GAS  /tmp/ccIU2uub.s 			page 13


 682              		.cfi_endproc
 683              	.LFE125:
 684              		.size	HAL_GPIO_ReadPin, .-HAL_GPIO_ReadPin
 685              		.align	2
 686 03ec AFF30080 		.p2align 4,,15
 687              		.global	HAL_GPIO_WritePin
 688              		.thumb
 689              		.thumb_func
 690              		.type	HAL_GPIO_WritePin, %function
 691              	HAL_GPIO_WritePin:
 692              	.LFB126:
 693              		.loc 1 431 0
 694              		.cfi_startproc
 695              		@ args = 0, pretend = 0, frame = 0
 696              		@ frame_needed = 0, uses_anonymous_args = 0
 697              		@ link register save eliminated.
 698              	.LVL73:
 699              		.loc 1 436 0
 700 03f0 02B9     		cbnz	r2, .L80
 701              		.loc 1 442 0
 702 03f2 0904     		lsls	r1, r1, #16
 703              	.LVL74:
 704              	.L80:
 705 03f4 8161     		str	r1, [r0, #24]
 706 03f6 7047     		bx	lr
 707              		.cfi_endproc
 708              	.LFE126:
 709              		.size	HAL_GPIO_WritePin, .-HAL_GPIO_WritePin
 710              		.align	2
 711 03f8 AFF30080 		.p2align 4,,15
 711      AFF30080 
 712              		.global	HAL_GPIO_TogglePin
 713              		.thumb
 714              		.thumb_func
 715              		.type	HAL_GPIO_TogglePin, %function
 716              	HAL_GPIO_TogglePin:
 717              	.LFB127:
 718              		.loc 1 454 0
 719              		.cfi_startproc
 720              		@ args = 0, pretend = 0, frame = 0
 721              		@ frame_needed = 0, uses_anonymous_args = 0
 722              		@ link register save eliminated.
 723              	.LVL75:
 724              		.loc 1 458 0
 725 0400 4369     		ldr	r3, [r0, #20]
 726 0402 5940     		eors	r1, r1, r3
 727              	.LVL76:
 728 0404 4161     		str	r1, [r0, #20]
 729 0406 7047     		bx	lr
 730              		.cfi_endproc
 731              	.LFE127:
 732              		.size	HAL_GPIO_TogglePin, .-HAL_GPIO_TogglePin
 733              		.align	2
 734 0408 AFF30080 		.p2align 4,,15
 734      AFF30080 
 735              		.global	HAL_GPIO_LockPin
 736              		.thumb
ARM GAS  /tmp/ccIU2uub.s 			page 14


 737              		.thumb_func
 738              		.type	HAL_GPIO_LockPin, %function
 739              	HAL_GPIO_LockPin:
 740              	.LFB128:
 741              		.loc 1 473 0
 742              		.cfi_startproc
 743              		@ args = 0, pretend = 0, frame = 8
 744              		@ frame_needed = 0, uses_anonymous_args = 0
 745              		@ link register save eliminated.
 746              	.LVL77:
 747 0410 82B0     		sub	sp, sp, #8
 748              		.cfi_def_cfa_offset 8
 749              		.loc 1 474 0
 750 0412 4FF48033 		mov	r3, #65536
 751 0416 0193     		str	r3, [sp, #4]
 752              		.loc 1 480 0
 753 0418 019B     		ldr	r3, [sp, #4]
 754 041a 0B43     		orrs	r3, r3, r1
 755 041c 0193     		str	r3, [sp, #4]
 756              		.loc 1 482 0
 757 041e 019B     		ldr	r3, [sp, #4]
 758 0420 C361     		str	r3, [r0, #28]
 759              		.loc 1 484 0
 760 0422 C161     		str	r1, [r0, #28]
 761              		.loc 1 486 0
 762 0424 019B     		ldr	r3, [sp, #4]
 763 0426 C361     		str	r3, [r0, #28]
 764              		.loc 1 488 0
 765 0428 C369     		ldr	r3, [r0, #28]
 766 042a 0193     		str	r3, [sp, #4]
 767              		.loc 1 490 0
 768 042c C069     		ldr	r0, [r0, #28]
 769              	.LVL78:
 770 042e 80F48030 		eor	r0, r0, #65536
 771              		.loc 1 498 0
 772 0432 C0F30040 		ubfx	r0, r0, #16, #1
 773 0436 02B0     		add	sp, sp, #8
 774              		.cfi_def_cfa_offset 0
 775              		@ sp needed
 776 0438 7047     		bx	lr
 777              		.cfi_endproc
 778              	.LFE128:
 779              		.size	HAL_GPIO_LockPin, .-HAL_GPIO_LockPin
 780 043a 00BF     		.align	2
 781 043c AFF30080 		.p2align 4,,15
 782              		.weak	HAL_GPIO_EXTI_Callback
 783              		.thumb
 784              		.thumb_func
 785              		.type	HAL_GPIO_EXTI_Callback, %function
 786              	HAL_GPIO_EXTI_Callback:
 787              	.LFB130:
 788              		.loc 1 521 0
 789              		.cfi_startproc
 790              		@ args = 0, pretend = 0, frame = 0
 791              		@ frame_needed = 0, uses_anonymous_args = 0
 792              		@ link register save eliminated.
 793              	.LVL79:
ARM GAS  /tmp/ccIU2uub.s 			page 15


 794 0440 7047     		bx	lr
 795              		.cfi_endproc
 796              	.LFE130:
 797              		.size	HAL_GPIO_EXTI_Callback, .-HAL_GPIO_EXTI_Callback
 798 0442 00BF     		.align	2
 799 0444 AFF30080 		.p2align 4,,15
 799      AFF30080 
 799      AFF30080 
 800              		.global	HAL_GPIO_EXTI_IRQHandler
 801              		.thumb
 802              		.thumb_func
 803              		.type	HAL_GPIO_EXTI_IRQHandler, %function
 804              	HAL_GPIO_EXTI_IRQHandler:
 805              	.LFB129:
 806              		.loc 1 506 0
 807              		.cfi_startproc
 808              		@ args = 0, pretend = 0, frame = 0
 809              		@ frame_needed = 0, uses_anonymous_args = 0
 810              	.LVL80:
 811              		.loc 1 508 0
 812 0450 044A     		ldr	r2, .L91
 813 0452 5169     		ldr	r1, [r2, #20]
 814 0454 0842     		tst	r0, r1
 815              		.loc 1 506 0
 816 0456 08B5     		push	{r3, lr}
 817              		.cfi_def_cfa_offset 8
 818              		.cfi_offset 3, -8
 819              		.cfi_offset 14, -4
 820              		.loc 1 508 0
 821 0458 02D0     		beq	.L85
 822              		.loc 1 510 0
 823 045a 5061     		str	r0, [r2, #20]
 824              		.loc 1 511 0
 825 045c FFF7FEFF 		bl	HAL_GPIO_EXTI_Callback
 826              	.LVL81:
 827              	.L85:
 828 0460 08BD     		pop	{r3, pc}
 829              	.L92:
 830 0462 00BF     		.align	2
 831              	.L91:
 832 0464 003C0140 		.word	1073822720
 833              		.cfi_endproc
 834              	.LFE129:
 835              		.size	HAL_GPIO_EXTI_IRQHandler, .-HAL_GPIO_EXTI_IRQHandler
 836              	.Letext0:
 837              		.file 2 "/home/sbcu/Dropbox/pcb-layouts/axo-on-discovery-board/axoloti/platform_linux/arm-none-eab
 838              		.file 3 "/home/sbcu/Dropbox/pcb-layouts/axo-on-discovery-board/axoloti/platform_linux/arm-none-eab
 839              		.file 4 "./stm32f427xx.h"
 840              		.file 5 "./stm32f4xxc.h"
 841              		.file 6 "./STM32F4xx_HAL_Driver/Inc/stm32f4xx_hal_def.h"
 842              		.file 7 "./STM32F4xx_HAL_Driver/Inc/stm32f4xx_hal_gpio.h"
 843              		.file 8 "/home/sbcu/Dropbox/pcb-layouts/axo-on-discovery-board/axoloti/platform_linux/../CMSIS//In