ARM GAS  /tmp/cc4aEOwT.s 			page 1


   1              		.syntax unified
   2              		.cpu cortex-m4
   3              		.eabi_attribute 27, 1
   4              		.eabi_attribute 28, 1
   5              		.fpu fpv4-sp-d16
   6              		.eabi_attribute 20, 1
   7              		.eabi_attribute 21, 1
   8              		.eabi_attribute 23, 3
   9              		.eabi_attribute 24, 1
  10              		.eabi_attribute 25, 1
  11              		.eabi_attribute 26, 1
  12              		.eabi_attribute 30, 2
  13              		.eabi_attribute 34, 1
  14              		.eabi_attribute 18, 4
  15              		.thumb
  16              		.file	"svf.cpp"
  17              		.text
  18              	.Ltext0:
  19              		.cfi_sections	.debug_frame
  20              		.align	2
  21              		.p2align 4,,15
  22              		.global	_ZN7streams3Svf4InitEv
  23              		.thumb
  24              		.thumb_func
  25              		.type	_ZN7streams3Svf4InitEv, %function
  26              	_ZN7streams3Svf4InitEv:
  27              		.fnstart
  28              	.LFB25:
  29              		.file 1 "./mutable_instruments/streams/svf.cpp"
  30              		.loc 1 39 0
  31              		.cfi_startproc
  32              		@ args = 0, pretend = 0, frame = 0
  33              		@ frame_needed = 0, uses_anonymous_args = 0
  34              		@ link register save eliminated.
  35              	.LVL0:
  36 0000 10B4     		push	{r4}
  37              		.cfi_def_cfa_offset 4
  38              		.cfi_offset 4, -4
  39              		.loc 1 40 0
  40 0002 0023     		movs	r3, #0
  41              		.loc 1 42 0
  42 0004 4FF48454 		mov	r4, #4224
  43              		.loc 1 43 0
  44 0008 4FF48041 		mov	r1, #16384
  45              		.loc 1 44 0
  46 000c 0122     		movs	r2, #1
  47              		.loc 1 42 0
  48 000e 4480     		strh	r4, [r0, #2]	@ movhi
  49              		.loc 1 43 0
  50 0010 8180     		strh	r1, [r0, #4]	@ movhi
  51              		.loc 1 44 0
  52 0012 0270     		strb	r2, [r0]
  53              		.loc 1 40 0
  54 0014 0361     		str	r3, [r0, #16]
  55              		.loc 1 41 0
  56 0016 4361     		str	r3, [r0, #20]
  57              		.loc 1 45 0
ARM GAS  /tmp/cc4aEOwT.s 			page 2


  58 0018 5DF8044B 		ldr	r4, [sp], #4
  59              		.cfi_restore 4
  60              		.cfi_def_cfa_offset 0
  61 001c 7047     		bx	lr
  62              		.cfi_endproc
  63              	.LFE25:
  64              		.cantunwind
  65              		.fnend
  66              		.size	_ZN7streams3Svf4InitEv, .-_ZN7streams3Svf4InitEv
  67 001e 00BF     		.align	2
  68              		.p2align 4,,15
  69              		.global	_ZN7streams3Svf7ProcessEl
  70              		.thumb
  71              		.thumb_func
  72              		.type	_ZN7streams3Svf7ProcessEl, %function
  73              	_ZN7streams3Svf7ProcessEl:
  74              		.fnstart
  75              	.LFB26:
  76              		.loc 1 47 0
  77              		.cfi_startproc
  78              		@ args = 0, pretend = 0, frame = 0
  79              		@ frame_needed = 0, uses_anonymous_args = 0
  80              	.LVL1:
  81              	.LBB9:
  82              		.loc 1 48 0
  83 0020 0378     		ldrb	r3, [r0]	@ zero_extendqisi2
  84              	.LBE9:
  85              		.loc 1 47 0
  86 0022 F0B5     		push	{r4, r5, r6, r7, lr}
  87              		.cfi_def_cfa_offset 20
  88              		.cfi_offset 4, -20
  89              		.cfi_offset 5, -16
  90              		.cfi_offset 6, -12
  91              		.cfi_offset 7, -8
  92              		.cfi_offset 14, -4
  93              	.LBB44:
  94              		.loc 1 48 0
  95 0024 002B     		cmp	r3, #0
  96 0026 33D1     		bne	.L4
  97 0028 8468     		ldr	r4, [r0, #8]
  98 002a C368     		ldr	r3, [r0, #12]
  99              	.L5:
 100              	.LVL2:
 101              		.loc 1 55 0
 102 002c 4669     		ldr	r6, [r0, #20]
 103              		.loc 1 56 0
 104 002e 0269     		ldr	r2, [r0, #16]
 105              		.loc 1 57 0
 106 0030 2E4D     		ldr	r5, .L19
 107              		.loc 1 56 0
 108 0032 04FB06F7 		mul	r7, r4, r6
 109 0036 02EBE732 		add	r2, r2, r7, asr #15
 110              		.loc 1 55 0
 111 003a 03FB06F3 		mul	r3, r3, r6
 112              	.LVL3:
 113              		.loc 1 57 0
 114 003e AA42     		cmp	r2, r5
ARM GAS  /tmp/cc4aEOwT.s 			page 3


 115              		.loc 1 55 0
 116 0040 A1EBE333 		sub	r3, r1, r3, asr #15
 117              	.LVL4:
 118              		.loc 1 57 0
 119 0044 1BDA     		bge	.L6
 120              		.loc 1 57 0 is_stmt 0 discriminator 1
 121 0046 0561     		str	r5, [r0, #16]
 122 0048 2A46     		mov	r2, r5
 123              	.LVL5:
 124              	.L7:
 125              		.loc 1 58 0 is_stmt 1
 126 004a 991A     		subs	r1, r3, r2
 127              		.loc 1 59 0
 128 004c 04FB01F4 		mul	r4, r4, r1
 129              	.LVL6:
 130              		.loc 1 60 0
 131 0050 264B     		ldr	r3, .L19
 132              	.LVL7:
 133              		.loc 1 58 0
 134 0052 8161     		str	r1, [r0, #24]
 135              		.loc 1 59 0
 136 0054 06EBE434 		add	r4, r6, r4, asr #15
 137              		.loc 1 60 0
 138 0058 9C42     		cmp	r4, r3
 139 005a 05DB     		blt	.L15
 140              		.loc 1 60 0 is_stmt 0 discriminator 3
 141 005c B4F5004F 		cmp	r4, #32768
 142 0060 A8BF     		it	ge
 143 0062 47F6FF73 		movwge	r3, #32767
 144 0066 3FDB     		blt	.L18
 145              	.L15:
 146              		.loc 1 60 0 discriminator 4
 147 0068 4361     		str	r3, [r0, #20]
 148              	.L10:
 149              		.loc 1 61 0 is_stmt 1
 150 006a 204B     		ldr	r3, .L19
 151 006c 9942     		cmp	r1, r3
 152 006e 04DB     		blt	.L16
 153              		.loc 1 61 0 is_stmt 0 discriminator 3
 154 0070 B1F5004F 		cmp	r1, #32768
 155 0074 02DB     		blt	.L3
 156              		.loc 1 61 0 discriminator 4
 157 0076 47F6FF73 		movw	r3, #32767
 158              	.L16:
 159 007a 8361     		str	r3, [r0, #24]
 160              	.L3:
 161 007c F0BD     		pop	{r4, r5, r6, r7, pc}
 162              	.LVL8:
 163              	.L6:
 164              		.loc 1 57 0 is_stmt 1 discriminator 3
 165 007e B2F5004F 		cmp	r2, #32768
 166 0082 A9BF     		itett	ge
 167 0084 47F6FF71 		movwge	r1, #32767
 168              	.LVL9:
 169              		.loc 1 56 0 discriminator 3
 170 0088 0261     		strlt	r2, [r0, #16]
 171              		.loc 1 57 0 discriminator 3
ARM GAS  /tmp/cc4aEOwT.s 			page 4


 172 008a 0161     		strge	r1, [r0, #16]
 173 008c 0A46     		movge	r2, r1
 174 008e DCE7     		b	.L7
 175              	.LVL10:
 176              	.L4:
 177              		.loc 1 49 0
 178 0090 B0F90260 		ldrsh	r6, [r0, #2]
 179              		.loc 1 50 0
 180 0094 B0F90450 		ldrsh	r5, [r0, #4]
 181              	.LBB10:
 182              	.LBB11:
 183              		.file 2 "./mutable_instruments/stmlib/utils/dsp.h"
 184              		.loc 2 101 0
 185 0098 154A     		ldr	r2, .L19+4
 186              	.LBE11:
 187              	.LBE10:
 188              	.LBB19:
 189              	.LBB20:
 190 009a 164B     		ldr	r3, .L19+8
 191              	.LBE20:
 192              	.LBE19:
 193              		.loc 1 49 0
 194 009c 7604     		lsls	r6, r6, #17
 195              	.LVL11:
 196              		.loc 1 50 0
 197 009e 6D04     		lsls	r5, r5, #17
 198              	.LBB29:
 199              	.LBB21:
 200              		.loc 2 101 0
 201 00a0 2F0E     		lsrs	r7, r5, #24
 202              	.LBE21:
 203              	.LBE29:
 204              	.LBB30:
 205              	.LBB12:
 206 00a2 340E     		lsrs	r4, r6, #24
 207              		.loc 2 102 0
 208 00a4 02F1020C 		add	ip, r2, #2
 209              	.LBE12:
 210              	.LBE30:
 211              	.LBB31:
 212              	.LBB22:
 213 00a8 03F1020E 		add	lr, r3, #2
 214              	.LBE22:
 215              	.LBE31:
 216              	.LBB32:
 217              	.LBB13:
 218              		.loc 2 101 0
 219 00ac 32F81420 		ldrh	r2, [r2, r4, lsl #1]
 220              	.LVL12:
 221              	.LBE13:
 222              	.LBE32:
 223              	.LBB33:
 224              	.LBB23:
 225 00b0 33F81730 		ldrh	r3, [r3, r7, lsl #1]
 226              	.LVL13:
 227              		.loc 2 102 0
 228 00b4 3EF817E0 		ldrh	lr, [lr, r7, lsl #1]
ARM GAS  /tmp/cc4aEOwT.s 			page 5


 229              	.LBE23:
 230              	.LBE33:
 231              	.LBB34:
 232              	.LBB14:
 233 00b8 3CF81440 		ldrh	r4, [ip, r4, lsl #1]
 234              	.LVL14:
 235              	.LBE14:
 236              	.LBE34:
 237              	.LBB35:
 238              	.LBB24:
 239              		.loc 2 103 0
 240 00bc 2D0A     		lsrs	r5, r5, #8
 241              	.LVL15:
 242              	.LBE24:
 243              	.LBE35:
 244              	.LBB36:
 245              	.LBB15:
 246 00be 360A     		lsrs	r6, r6, #8
 247              	.LVL16:
 248 00c0 A41A     		subs	r4, r4, r2
 249              	.LBE15:
 250              	.LBE36:
 251              	.LBB37:
 252              	.LBB25:
 253 00c2 AFB2     		uxth	r7, r5
 254              	.LVL17:
 255              	.LBE25:
 256              	.LBE37:
 257              	.LBB38:
 258              	.LBB16:
 259 00c4 B6B2     		uxth	r6, r6
 260              	.LBE16:
 261              	.LBE38:
 262              	.LBB39:
 263              	.LBB26:
 264 00c6 C3EB0E05 		rsb	r5, r3, lr
 265              	.LBE26:
 266              	.LBE39:
 267              	.LBB40:
 268              	.LBB17:
 269 00ca 06FB04F4 		mul	r4, r6, r4
 270              	.LBE17:
 271              	.LBE40:
 272              	.LBB41:
 273              	.LBB27:
 274 00ce 07FB05F5 		mul	r5, r7, r5
 275              	.LBE27:
 276              	.LBE41:
 277              	.LBB42:
 278              	.LBB18:
 279 00d2 02EB1444 		add	r4, r2, r4, lsr #16
 280              	.LBE18:
 281              	.LBE42:
 282              	.LBB43:
 283              	.LBB28:
 284 00d6 03EB1543 		add	r3, r3, r5, lsr #16
 285              	.LVL18:
ARM GAS  /tmp/cc4aEOwT.s 			page 6


 286              	.LBE28:
 287              	.LBE43:
 288              		.loc 1 49 0
 289 00da A4B2     		uxth	r4, r4
 290              		.loc 1 50 0
 291 00dc 9BB2     		uxth	r3, r3
 292              		.loc 1 51 0
 293 00de 0022     		movs	r2, #0
 294              	.LVL19:
 295              		.loc 1 49 0
 296 00e0 8460     		str	r4, [r0, #8]
 297              	.LVL20:
 298              		.loc 1 50 0
 299 00e2 C360     		str	r3, [r0, #12]
 300              		.loc 1 51 0
 301 00e4 0270     		strb	r2, [r0]
 302 00e6 A1E7     		b	.L5
 303              	.LVL21:
 304              	.L18:
 305              		.loc 1 59 0
 306 00e8 4461     		str	r4, [r0, #20]
 307 00ea BEE7     		b	.L10
 308              	.L20:
 309              		.align	2
 310              	.L19:
 311 00ec 0180FFFF 		.word	-32767
 312 00f0 00000000 		.word	_ZN7streams14lut_svf_cutoffE
 313 00f4 00000000 		.word	_ZN7streams12lut_svf_dampE
 314              	.LBE44:
 315              		.cfi_endproc
 316              	.LFE26:
 317              		.cantunwind
 318              		.fnend
 319              		.size	_ZN7streams3Svf7ProcessEl, .-_ZN7streams3Svf7ProcessEl
 320              	.Letext0:
 321              		.file 3 "/d_drive/axoloti/platform_linux/arm-none-eabi/include/machine/_default_types.h"
 322              		.file 4 "/d_drive/axoloti/platform_linux/arm-none-eabi/include/sys/_stdint.h"
 323              		.file 5 "./mutable_instruments/stmlib/stmlib.h"
 324              		.file 6 "./mutable_instruments/streams/svf.h"
 325              		.file 7 "./mutable_instruments/streams/resources.h"