ARM GAS  /tmp/ccTMzdP3.s 			page 1


   1              		.syntax unified
   2              		.cpu cortex-m4
   3              		.eabi_attribute 27, 1
   4              		.eabi_attribute 28, 1
   5              		.fpu fpv4-sp-d16
   6              		.eabi_attribute 20, 1
   7              		.eabi_attribute 21, 1
   8              		.eabi_attribute 23, 3
   9              		.eabi_attribute 24, 1
  10              		.eabi_attribute 25, 1
  11              		.eabi_attribute 26, 1
  12              		.eabi_attribute 30, 2
  13              		.eabi_attribute 34, 1
  14              		.eabi_attribute 18, 4
  15              		.thumb
  16              		.file	"sysmon.c"
  17              		.text
  18              	.Ltext0:
  19              		.cfi_sections	.debug_frame
  20              		.align	2
  21              		.p2align 4,,15
  22              		.thumb
  23              		.thumb_func
  24              		.type	ThreadSysmon, %function
  25              	ThreadSysmon:
  26              	.LFB130:
  27              		.file 1 "sysmon.c"
  28              		.loc 1 43 0
  29              		.cfi_startproc
  30              		@ Volatile: function does not return.
  31              		@ args = 0, pretend = 0, frame = 0
  32              		@ frame_needed = 0, uses_anonymous_args = 0
  33              	.LVL0:
  34 0000 2DE98848 		push	{r3, r7, fp, lr}
  35              		.cfi_def_cfa_offset 16
  36              		.cfi_offset 3, -16
  37              		.cfi_offset 7, -12
  38              		.cfi_offset 11, -8
  39              		.cfi_offset 14, -4
  40              		.loc 1 46 0
  41 0004 394B     		ldr	r3, .L25
  42              		.loc 1 48 0
  43 0006 3A4C     		ldr	r4, .L25+4
  44              		.loc 1 46 0
  45 0008 9B69     		ldr	r3, [r3, #24]
  46 000a DFF8FC90 		ldr	r9, .L25+28
  47 000e 394A     		ldr	r2, .L25+8
  48 0010 9A61     		str	r2, [r3, #24]
  49              		.loc 1 48 0
  50 0012 0023     		movs	r3, #0
  51 0014 384F     		ldr	r7, .L25+12
  52 0016 394E     		ldr	r6, .L25+16
  53 0018 394D     		ldr	r5, .L25+20
  54              	.LBB4:
  55              		.loc 1 60 0
  56 001a DFF8F0B0 		ldr	fp, .L25+32
  57              		.loc 1 77 0
ARM GAS  /tmp/ccTMzdP3.s 			page 2


  58 001e DFF8F0A0 		ldr	r10, .L25+36
  59              	.LBE4:
  60              		.loc 1 48 0
  61 0022 2370     		strb	r3, [r4]
  62              	.LBB5:
  63              		.loc 1 59 0
  64 0024 C846     		mov	r8, r9
  65 0026 45E0     		b	.L12
  66              	.LVL1:
  67              	.L3:
  68              		.loc 1 60 0
  69 0028 4FF08052 		mov	r2, #268435456
  70 002c CBF81820 		str	r2, [fp, #24]
  71              		.loc 1 61 0
  72 0030 4FF0004E 		mov	lr, #-2147483648
  73              	.L13:
  74              		.loc 1 61 0 is_stmt 0 discriminator 4
  75 0034 D9F80420 		ldr	r2, [r9, #4]
  76              		.loc 1 62 0 is_stmt 1 discriminator 4
  77 0038 03F1010C 		add	ip, r3, #1
  78              		.loc 1 61 0 discriminator 4
  79 003c DA40     		lsrs	r2, r2, r3
  80 003e D203     		lsls	r2, r2, #15
  81              		.loc 1 63 0 discriminator 4
  82 0040 5FFA8CFC 		uxtb	ip, ip
  83              		.loc 1 61 0 discriminator 4
  84 0044 92B2     		uxth	r2, r2
  85              		.loc 1 63 0 discriminator 4
  86 0046 20FA0CF0 		lsr	r0, r0, ip
  87              		.loc 1 61 0 discriminator 4
  88 004a 4EEA0202 		orr	r2, lr, r2
  89              		.loc 1 63 0 discriminator 4
  90 004e 10F00100 		ands	r0, r0, #1
  91              		.loc 1 61 0 discriminator 4
  92 0052 CBF81820 		str	r2, [fp, #24]
  93              	.LVL2:
  94              		.loc 1 63 0 discriminator 4
  95 0056 42D1     		bne	.L24
  96              		.loc 1 63 0 is_stmt 0
  97 0058 4FF08042 		mov	r2, #1073741824
  98 005c CBF81820 		str	r2, [fp, #24]
  99              		.loc 1 64 0 is_stmt 1
 100 0060 4FF00052 		mov	r2, #536870912
 101              	.L14:
 102              		.loc 1 65 0 discriminator 4
 103 0064 0233     		adds	r3, r3, #2
 104              	.LVL3:
 105 0066 DBB2     		uxtb	r3, r3
 106              	.LVL4:
 107              		.loc 1 64 0 discriminator 4
 108 0068 42EA4032 		orr	r2, r2, r0, lsl #13
 109              		.loc 1 67 0 discriminator 4
 110 006c 1F2B     		cmp	r3, #31
 111              		.loc 1 64 0 discriminator 4
 112 006e CBF81820 		str	r2, [fp, #24]
 113              		.loc 1 67 0 discriminator 4
 114 0072 32D9     		bls	.L7
ARM GAS  /tmp/ccTMzdP3.s 			page 3


 115              		.loc 1 68 0
 116 0074 234B     		ldr	r3, .L25+24
 117              	.LVL5:
 118 0076 1B78     		ldrb	r3, [r3]	@ zero_extendqisi2
 119 0078 1BB9     		cbnz	r3, .L8
 120              		.loc 1 69 0
 121 007a 4FF05533 		mov	r3, #1431655765
 122 007e C9F80430 		str	r3, [r9, #4]
 123              	.L8:
 124              		.loc 1 71 0
 125 0082 0023     		movs	r3, #0
 126 0084 2370     		strb	r3, [r4]
 127              	.L2:
 128              		.loc 1 77 0
 129 0086 DAF84C30 		ldr	r3, [r10, #76]
 130              	.LVL6:
 131              		.loc 1 78 0
 132 008a 3A88     		ldrh	r2, [r7]
 133 008c 1A48     		ldr	r0, .L25+12
 134              		.loc 1 80 0
 135 008e 1B49     		ldr	r1, .L25+16
 136              		.loc 1 78 0
 137 0090 9342     		cmp	r3, r2
 138              		.loc 1 79 0
 139 0092 9AB2     		uxth	r2, r3
 140 0094 C8BF     		it	gt
 141 0096 0280     		strhgt	r2, [r0]	@ movhi
 142              		.loc 1 80 0
 143 0098 3088     		ldrh	r0, [r6]
 144              		.loc 1 82 0
 145 009a 2A80     		strh	r2, [r5]	@ movhi
 146              		.loc 1 80 0
 147 009c 8342     		cmp	r3, r0
 148              		.loc 1 83 0
 149 009e DAF80830 		ldr	r3, [r10, #8]
 150              	.LVL7:
 151              		.loc 1 81 0
 152 00a2 B8BF     		it	lt
 153 00a4 0A80     		strhlt	r2, [r1]	@ movhi
 154              		.loc 1 83 0
 155 00a6 43F08043 		orr	r3, r3, #1073741824
 156 00aa CAF80830 		str	r3, [r10, #8]
 157              		.loc 1 105 0
 158 00ae 6420     		movs	r0, #100
 159 00b0 FFF7FEFF 		bl	chThdSleep
 160              	.LVL8:
 161              	.L12:
 162              		.loc 1 50 0
 163 00b4 2378     		ldrb	r3, [r4]	@ zero_extendqisi2
 164              		.loc 1 59 0
 165 00b6 99F80020 		ldrb	r2, [r9]	@ zero_extendqisi2
 166              		.loc 1 50 0
 167 00ba DBB2     		uxtb	r3, r3
 168              	.LVL9:
 169              		.loc 1 59 0
 170 00bc 002A     		cmp	r2, #0
 171 00be E2D0     		beq	.L2
ARM GAS  /tmp/ccTMzdP3.s 			page 4


 172              		.loc 1 60 0
 173 00c0 D8F80400 		ldr	r0, [r8, #4]
 174 00c4 20FA03F2 		lsr	r2, r0, r3
 175 00c8 D207     		lsls	r2, r2, #31
 176 00ca ADD5     		bpl	.L3
 177 00cc 4FF48052 		mov	r2, #4096
 178 00d0 CBF81820 		str	r2, [fp, #24]
 179              		.loc 1 61 0
 180 00d4 4FF0000E 		mov	lr, #0
 181 00d8 ACE7     		b	.L13
 182              	.L7:
 183              		.loc 1 74 0
 184 00da 2370     		strb	r3, [r4]
 185 00dc D3E7     		b	.L2
 186              	.LVL10:
 187              	.L24:
 188              		.loc 1 63 0
 189 00de 4FF48042 		mov	r2, #16384
 190 00e2 CBF81820 		str	r2, [fp, #24]
 191              		.loc 1 64 0
 192 00e6 0022     		movs	r2, #0
 193 00e8 BCE7     		b	.L14
 194              	.L26:
 195 00ea 00BF     		.align	2
 196              	.L25:
 197 00ec 00000000 		.word	rlist
 198 00f0 00000000 		.word	pattern_index
 199 00f4 00000000 		.word	.LC0
 200 00f8 00000000 		.word	v50_max
 201 00fc 00000000 		.word	v50_min
 202 0100 00000000 		.word	voltage_50
 203 0104 00000000 		.word	.LANCHOR1
 204 0108 00000000 		.word	.LANCHOR0
 205 010c 000C0240 		.word	1073875968
 206 0110 00220140 		.word	1073816064
 207              	.LBE5:
 208              		.cfi_endproc
 209              	.LFE130:
 210              		.size	ThreadSysmon, .-ThreadSysmon
 211              		.align	2
 212 0114 AFF30080 		.p2align 4,,15
 212      AFF30080 
 212      AFF30080 
 213              		.global	sysmon_init
 214              		.thumb
 215              		.thumb_func
 216              		.type	sysmon_init, %function
 217              	sysmon_init:
 218              	.LFB131:
 219              		.loc 1 109 0
 220              		.cfi_startproc
 221              		@ args = 0, pretend = 0, frame = 0
 222              		@ frame_needed = 0, uses_anonymous_args = 0
 223 0120 2DE9F047 		push	{r4, r5, r6, r7, r8, r9, r10, lr}
 224              		.cfi_def_cfa_offset 32
 225              		.cfi_offset 4, -32
 226              		.cfi_offset 5, -28
ARM GAS  /tmp/ccTMzdP3.s 			page 5


 227              		.cfi_offset 6, -24
 228              		.cfi_offset 7, -20
 229              		.cfi_offset 8, -16
 230              		.cfi_offset 9, -12
 231              		.cfi_offset 10, -8
 232              		.cfi_offset 14, -4
 233              		.loc 1 111 0
 234 0124 264C     		ldr	r4, .L29
 235              		.loc 1 129 0
 236 0126 DFF8B090 		ldr	r9, .L29+24
 237              		.loc 1 137 0
 238 012a 264F     		ldr	r7, .L29+4
 239              		.loc 1 135 0
 240 012c 264E     		ldr	r6, .L29+8
 241              		.loc 1 109 0
 242 012e 82B0     		sub	sp, sp, #8
 243              		.cfi_def_cfa_offset 40
 244              		.loc 1 111 0
 245 0130 2046     		mov	r0, r4
 246 0132 4FF48051 		mov	r1, #4096
 247 0136 0122     		movs	r2, #1
 248 0138 FFF7FEFF 		bl	_pal_lld_setgroupmode
 249              	.LVL11:
 250              		.loc 1 114 0
 251 013c 2046     		mov	r0, r4
 252 013e 4FF48041 		mov	r1, #16384
 253 0142 0122     		movs	r2, #1
 254 0144 FFF7FEFF 		bl	_pal_lld_setgroupmode
 255              	.LVL12:
 256              		.loc 1 117 0
 257 0148 2046     		mov	r0, r4
 258 014a 4FF40051 		mov	r1, #8192
 259 014e 0122     		movs	r2, #1
 260 0150 FFF7FEFF 		bl	_pal_lld_setgroupmode
 261              	.LVL13:
 262              		.loc 1 120 0
 263 0154 2046     		mov	r0, r4
 264 0156 4FF40041 		mov	r1, #32768
 265 015a 0122     		movs	r2, #1
 266 015c FFF7FEFF 		bl	_pal_lld_setgroupmode
 267              	.LVL14:
 268              		.loc 1 126 0
 269 0160 DFF878C0 		ldr	ip, .L29+28
 270              		.loc 1 127 0
 271 0164 194A     		ldr	r2, .L29+12
 272              		.loc 1 126 0
 273 0166 DCF84410 		ldr	r1, [ip, #68]
 274              		.loc 1 134 0
 275 016a DFF874E0 		ldr	lr, .L29+32
 276              		.loc 1 139 0
 277 016e 184B     		ldr	r3, .L29+16
 278 0170 1848     		ldr	r0, .L29+20
 279              		.loc 1 130 0
 280 0172 0024     		movs	r4, #0
 281              		.loc 1 127 0
 282 0174 0125     		movs	r5, #1
 283              		.loc 1 126 0
ARM GAS  /tmp/ccTMzdP3.s 			page 6


 284 0176 41F48061 		orr	r1, r1, #1024
 285              		.loc 1 128 0
 286 017a 6FF0784A 		mvn	r10, #-134217728
 287              		.loc 1 132 0
 288 017e 4FF00808 		mov	r8, #8
 289              		.loc 1 126 0
 290 0182 CCF84410 		str	r1, [ip, #68]
 291              		.loc 1 127 0
 292 0186 9560     		str	r5, [r2, #8]
 293              		.loc 1 128 0
 294 0188 C2F80CA0 		str	r10, [r2, #12]
 295              		.loc 1 129 0
 296 018c C2F81090 		str	r9, [r2, #16]
 297              		.loc 1 130 0
 298 0190 D462     		str	r4, [r2, #44]
 299              		.loc 1 131 0
 300 0192 1463     		str	r4, [r2, #48]
 301              		.loc 1 132 0
 302 0194 C2F83480 		str	r8, [r2, #52]
 303              		.loc 1 133 0
 304 0198 9168     		ldr	r1, [r2, #8]
 305 019a 41F08041 		orr	r1, r1, #1073741824
 306 019e 9160     		str	r1, [r2, #8]
 307              		.loc 1 135 0
 308 01a0 4FF6FF7C 		movw	ip, #65535
 309              		.loc 1 139 0
 310 01a4 0094     		str	r4, [sp]
 311 01a6 4FF41471 		mov	r1, #592
 312 01aa 4022     		movs	r2, #64
 313              		.loc 1 134 0
 314 01ac AEF80040 		strh	r4, [lr]	@ movhi
 315              		.loc 1 137 0
 316 01b0 3D70     		strb	r5, [r7]
 317              		.loc 1 135 0
 318 01b2 A6F800C0 		strh	ip, [r6]	@ movhi
 319              		.loc 1 139 0
 320 01b6 FFF7FEFF 		bl	chThdCreateStatic
 321              	.LVL15:
 322              		.loc 1 142 0
 323 01ba 02B0     		add	sp, sp, #8
 324              		.cfi_def_cfa_offset 32
 325              		@ sp needed
 326 01bc BDE8F087 		pop	{r4, r5, r6, r7, r8, r9, r10, pc}
 327              	.L30:
 328              		.align	2
 329              	.L29:
 330 01c0 000C0240 		.word	1073875968
 331 01c4 00000000 		.word	.LANCHOR0
 332 01c8 00000000 		.word	v50_min
 333 01cc 00220140 		.word	1073816064
 334 01d0 00000000 		.word	ThreadSysmon
 335 01d4 08000000 		.word	.LANCHOR1+8
 336 01d8 FFFF7F3F 		.word	1065353215
 337 01dc 00380240 		.word	1073887232
 338 01e0 00000000 		.word	v50_max
 339              		.cfi_endproc
 340              	.LFE131:
ARM GAS  /tmp/ccTMzdP3.s 			page 7


 341              		.size	sysmon_init, .-sysmon_init
 342              		.align	2
 343 01e4 AFF30080 		.p2align 4,,15
 343      AFF30080 
 343      AFF30080 
 344              		.global	sysmon_disable_blinker
 345              		.thumb
 346              		.thumb_func
 347              		.type	sysmon_disable_blinker, %function
 348              	sysmon_disable_blinker:
 349              	.LFB132:
 350              		.loc 1 144 0
 351              		.cfi_startproc
 352              		@ args = 0, pretend = 0, frame = 0
 353              		@ frame_needed = 0, uses_anonymous_args = 0
 354              		@ link register save eliminated.
 355              		.loc 1 145 0
 356 01f0 014B     		ldr	r3, .L32
 357 01f2 0022     		movs	r2, #0
 358 01f4 1A70     		strb	r2, [r3]
 359 01f6 7047     		bx	lr
 360              	.L33:
 361              		.align	2
 362              	.L32:
 363 01f8 00000000 		.word	.LANCHOR0
 364              		.cfi_endproc
 365              	.LFE132:
 366              		.size	sysmon_disable_blinker, .-sysmon_disable_blinker
 367              		.align	2
 368 01fc AFF30080 		.p2align 4,,15
 369              		.global	sysmon_enable_blinker
 370              		.thumb
 371              		.thumb_func
 372              		.type	sysmon_enable_blinker, %function
 373              	sysmon_enable_blinker:
 374              	.LFB133:
 375              		.loc 1 148 0
 376              		.cfi_startproc
 377              		@ args = 0, pretend = 0, frame = 0
 378              		@ frame_needed = 0, uses_anonymous_args = 0
 379              		@ link register save eliminated.
 380              		.loc 1 149 0
 381 0200 014B     		ldr	r3, .L35
 382 0202 0122     		movs	r2, #1
 383 0204 1A70     		strb	r2, [r3]
 384 0206 7047     		bx	lr
 385              	.L36:
 386              		.align	2
 387              	.L35:
 388 0208 00000000 		.word	.LANCHOR0
 389              		.cfi_endproc
 390              	.LFE133:
 391              		.size	sysmon_enable_blinker, .-sysmon_enable_blinker
 392              		.align	2
 393 020c AFF30080 		.p2align 4,,15
 394              		.global	sysmon_blink_pattern
 395              		.thumb
ARM GAS  /tmp/ccTMzdP3.s 			page 8


 396              		.thumb_func
 397              		.type	sysmon_blink_pattern, %function
 398              	sysmon_blink_pattern:
 399              	.LFB134:
 400              		.loc 1 152 0
 401              		.cfi_startproc
 402              		@ args = 0, pretend = 0, frame = 0
 403              		@ frame_needed = 0, uses_anonymous_args = 0
 404              		@ link register save eliminated.
 405              	.LVL16:
 406              		.loc 1 153 0
 407 0210 024A     		ldr	r2, .L38
 408              		.loc 1 154 0
 409 0212 034B     		ldr	r3, .L38+4
 410              		.loc 1 153 0
 411 0214 5060     		str	r0, [r2, #4]
 412              		.loc 1 154 0
 413 0216 0022     		movs	r2, #0
 414 0218 1A70     		strb	r2, [r3]
 415 021a 7047     		bx	lr
 416              	.L39:
 417              		.align	2
 418              	.L38:
 419 021c 00000000 		.word	.LANCHOR0
 420 0220 00000000 		.word	pattern_index
 421              		.cfi_endproc
 422              	.LFE134:
 423              		.size	sysmon_blink_pattern, .-sysmon_blink_pattern
 424              		.align	2
 425 0224 AFF30080 		.p2align 4,,15
 425      AFF30080 
 425      AFF30080 
 426              		.global	setErrorFlag
 427              		.thumb
 428              		.thumb_func
 429              		.type	setErrorFlag, %function
 430              	setErrorFlag:
 431              	.LFB135:
 432              		.loc 1 159 0
 433              		.cfi_startproc
 434              		@ args = 0, pretend = 0, frame = 0
 435              		@ frame_needed = 0, uses_anonymous_args = 0
 436              		@ link register save eliminated.
 437              	.LVL17:
 438 0230 70B4     		push	{r4, r5, r6}
 439              		.cfi_def_cfa_offset 12
 440              		.cfi_offset 4, -12
 441              		.cfi_offset 5, -8
 442              		.cfi_offset 6, -4
 443              		.loc 1 160 0
 444 0232 094B     		ldr	r3, .L42
 445              	.LBB6:
 446              	.LBB7:
 447              		.loc 1 153 0
 448 0234 094D     		ldr	r5, .L42+4
 449              	.LBE7:
 450              	.LBE6:
ARM GAS  /tmp/ccTMzdP3.s 			page 9


 451              		.loc 1 160 0
 452 0236 D3F85822 		ldr	r2, [r3, #600]
 453              	.LBB10:
 454              	.LBB8:
 455              		.loc 1 154 0
 456 023a 094C     		ldr	r4, .L42+8
 457              	.LBE8:
 458              	.LBE10:
 459              		.loc 1 160 0
 460 023c 0121     		movs	r1, #1
 461 023e 01FA00F0 		lsl	r0, r1, r0
 462              	.LVL18:
 463 0242 0243     		orrs	r2, r2, r0
 464              	.LBB11:
 465              	.LBB9:
 466              		.loc 1 153 0
 467 0244 4FF0F536 		mov	r6, #-168430091
 468              		.loc 1 154 0
 469 0248 0020     		movs	r0, #0
 470              		.loc 1 153 0
 471 024a 6E60     		str	r6, [r5, #4]
 472              		.loc 1 154 0
 473 024c 2070     		strb	r0, [r4]
 474              	.LBE9:
 475              	.LBE11:
 476              		.loc 1 160 0
 477 024e C3F85822 		str	r2, [r3, #600]
 478              		.loc 1 161 0
 479 0252 1970     		strb	r1, [r3]
 480              	.LVL19:
 481              		.loc 1 163 0
 482 0254 70BC     		pop	{r4, r5, r6}
 483              		.cfi_restore 6
 484              		.cfi_restore 5
 485              		.cfi_restore 4
 486              		.cfi_def_cfa_offset 0
 487 0256 7047     		bx	lr
 488              	.L43:
 489              		.align	2
 490              	.L42:
 491 0258 00000000 		.word	.LANCHOR1
 492 025c 00000000 		.word	.LANCHOR0
 493 0260 00000000 		.word	pattern_index
 494              		.cfi_endproc
 495              	.LFE135:
 496              		.size	setErrorFlag, .-setErrorFlag
 497              		.align	2
 498 0264 AFF30080 		.p2align 4,,15
 498      AFF30080 
 498      AFF30080 
 499              		.global	getErrorFlag
 500              		.thumb
 501              		.thumb_func
 502              		.type	getErrorFlag, %function
 503              	getErrorFlag:
 504              	.LFB136:
 505              		.loc 1 165 0
ARM GAS  /tmp/ccTMzdP3.s 			page 10


 506              		.cfi_startproc
 507              		@ args = 0, pretend = 0, frame = 0
 508              		@ frame_needed = 0, uses_anonymous_args = 0
 509              		@ link register save eliminated.
 510              	.LVL20:
 511              		.loc 1 166 0
 512 0270 044A     		ldr	r2, .L45
 513 0272 0123     		movs	r3, #1
 514 0274 D2F85822 		ldr	r2, [r2, #600]
 515 0278 8340     		lsls	r3, r3, r0
 516 027a 1342     		tst	r3, r2
 517              		.loc 1 167 0
 518 027c 14BF     		ite	ne
 519 027e 0120     		movne	r0, #1
 520              	.LVL21:
 521 0280 0020     		moveq	r0, #0
 522 0282 7047     		bx	lr
 523              	.L46:
 524              		.align	2
 525              	.L45:
 526 0284 00000000 		.word	.LANCHOR1
 527              		.cfi_endproc
 528              	.LFE136:
 529              		.size	getErrorFlag, .-getErrorFlag
 530              		.align	2
 531 0288 AFF30080 		.p2align 4,,15
 531      AFF30080 
 532              		.global	errorFlagClearAll
 533              		.thumb
 534              		.thumb_func
 535              		.type	errorFlagClearAll, %function
 536              	errorFlagClearAll:
 537              	.LFB137:
 538              		.loc 1 169 0
 539              		.cfi_startproc
 540              		@ args = 0, pretend = 0, frame = 0
 541              		@ frame_needed = 0, uses_anonymous_args = 0
 542              		@ link register save eliminated.
 543              		.loc 1 170 0
 544 0290 024B     		ldr	r3, .L48
 545 0292 0022     		movs	r2, #0
 546 0294 C3F85822 		str	r2, [r3, #600]
 547 0298 7047     		bx	lr
 548              	.L49:
 549 029a 00BF     		.align	2
 550              	.L48:
 551 029c 00000000 		.word	.LANCHOR1
 552              		.cfi_endproc
 553              	.LFE137:
 554              		.size	errorFlagClearAll, .-errorFlagClearAll
 555              		.align	2
 556              		.p2align 4,,15
 557              		.global	sysmon_getVoltage50
 558              		.thumb
 559              		.thumb_func
 560              		.type	sysmon_getVoltage50, %function
 561              	sysmon_getVoltage50:
ARM GAS  /tmp/ccTMzdP3.s 			page 11


 562              	.LFB138:
 563              		.loc 1 173 0
 564              		.cfi_startproc
 565              		@ args = 0, pretend = 0, frame = 0
 566              		@ frame_needed = 0, uses_anonymous_args = 0
 567              		@ link register save eliminated.
 568              		.loc 1 174 0
 569 02a0 014B     		ldr	r3, .L51
 570              		.loc 1 175 0
 571 02a2 1888     		ldrh	r0, [r3]
 572 02a4 7047     		bx	lr
 573              	.L52:
 574 02a6 00BF     		.align	2
 575              	.L51:
 576 02a8 00000000 		.word	voltage_50
 577              		.cfi_endproc
 578              	.LFE138:
 579              		.size	sysmon_getVoltage50, .-sysmon_getVoltage50
 580              		.align	2
 581 02ac AFF30080 		.p2align 4,,15
 582              		.global	sysmon_getVoltage10
 583              		.thumb
 584              		.thumb_func
 585              		.type	sysmon_getVoltage10, %function
 586              	sysmon_getVoltage10:
 587              	.LFB139:
 588              		.loc 1 177 0
 589              		.cfi_startproc
 590              		@ args = 0, pretend = 0, frame = 0
 591              		@ frame_needed = 0, uses_anonymous_args = 0
 592              		@ link register save eliminated.
 593              		.loc 1 178 0
 594 02b0 014B     		ldr	r3, .L54
 595              		.loc 1 179 0
 596 02b2 D88B     		ldrh	r0, [r3, #30]
 597 02b4 7047     		bx	lr
 598              	.L55:
 599 02b6 00BF     		.align	2
 600              	.L54:
 601 02b8 00000000 		.word	adcvalues
 602              		.cfi_endproc
 603              	.LFE139:
 604              		.size	sysmon_getVoltage10, .-sysmon_getVoltage10
 605              		.global	errorflags
 606              		.comm	pattern_index,1,1
 607              		.global	sdcsw_prev
 608              		.comm	v50_max,2,2
 609              		.comm	v50_min,2,2
 610              		.comm	voltage_50,2,2
 611              		.global	pattern
 612              		.global	isEnabled
 613              		.global	repeat
 614              		.data
 615              		.align	2
 616              		.set	.LANCHOR0,. + 0
 617              		.type	isEnabled, %object
 618              		.size	isEnabled, 1
ARM GAS  /tmp/ccTMzdP3.s 			page 12


 619              	isEnabled:
 620 0000 01       		.byte	1
 621 0001 000000   		.space	3
 622              		.type	pattern, %object
 623              		.size	pattern, 4
 624              	pattern:
 625 0004 99999999 		.word	-1717986919
 626              		.section	.rodata.str1.4,"aMS",%progbits,1
 627              		.align	2
 628              	.LC0:
 629 0000 7379736D 		.ascii	"sysmon\000"
 629      6F6E00
 630              		.bss
 631              		.align	3
 632              		.set	.LANCHOR1,. + 0
 633              		.type	repeat, %object
 634              		.size	repeat, 1
 635              	repeat:
 636 0000 00       		.space	1
 637 0001 00000000 		.space	7
 637      000000
 638              		.type	waThreadSysmon, %object
 639              		.size	waThreadSysmon, 592
 640              	waThreadSysmon:
 641 0008 00000000 		.space	592
 641      00000000 
 641      00000000 
 641      00000000 
 641      00000000 
 642              		.type	errorflags, %object
 643              		.size	errorflags, 4
 644              	errorflags:
 645 0258 00000000 		.space	4
 646              		.type	sdcsw_prev, %object
 647              		.size	sdcsw_prev, 1
 648              	sdcsw_prev:
 649 025c 00       		.space	1
 650              		.text
 651              	.Letext0:
 652              		.file 2 "/home/sbcu/Dropbox/pcb-layouts/axo-on-discovery-board/axoloti/platform_linux/lib/gcc/arm-
 653              		.file 3 "/home/sbcu/Dropbox/pcb-layouts/axo-on-discovery-board/axoloti/platform_linux/arm-none-eab
 654              		.file 4 "/home/sbcu/Dropbox/pcb-layouts/axo-on-discovery-board/axoloti/platform_linux/arm-none-eab
 655              		.file 5 "/home/sbcu/Dropbox/pcb-layouts/axo-on-discovery-board/axoloti/platform_linux/../chibios/o
 656              		.file 6 "/home/sbcu/Dropbox/pcb-layouts/axo-on-discovery-board/axoloti/platform_linux/../chibios/o
 657              		.file 7 "/home/sbcu/Dropbox/pcb-layouts/axo-on-discovery-board/axoloti/platform_linux/../chibios/o
 658              		.file 8 "/home/sbcu/Dropbox/pcb-layouts/axo-on-discovery-board/axoloti/platform_linux/../chibios/o
 659              		.file 9 "/home/sbcu/Dropbox/pcb-layouts/axo-on-discovery-board/axoloti/platform_linux/../chibios/o
 660              		.file 10 "/home/sbcu/Dropbox/pcb-layouts/axo-on-discovery-board/axoloti/platform_linux/../chibios/
 661              		.file 11 "/home/sbcu/Dropbox/pcb-layouts/axo-on-discovery-board/axoloti/platform_linux/../chibios/
 662              		.file 12 "/home/sbcu/Dropbox/pcb-layouts/axo-on-discovery-board/axoloti/platform_linux/../chibios/
 663              		.file 13 "sysmon.h"
 664              		.file 14 "/home/sbcu/Dropbox/pcb-layouts/axo-on-discovery-board/axoloti/platform_linux/../CMSIS//I
 665              		.file 15 "axoloti_board.h"