ARM GAS  /tmp/ccBg9yhE.s 			page 1


   1              		.syntax unified
   2              		.cpu cortex-m4
   3              		.eabi_attribute 27, 1
   4              		.eabi_attribute 28, 1
   5              		.fpu fpv4-sp-d16
   6              		.eabi_attribute 20, 1
   7              		.eabi_attribute 21, 1
   8              		.eabi_attribute 23, 3
   9              		.eabi_attribute 24, 1
  10              		.eabi_attribute 25, 1
  11              		.eabi_attribute 26, 1
  12              		.eabi_attribute 30, 2
  13              		.eabi_attribute 34, 1
  14              		.eabi_attribute 18, 4
  15              		.thumb
  16              		.file	"sysmon.c"
  17              		.text
  18              	.Ltext0:
  19              		.cfi_sections	.debug_frame
  20              		.align	2
  21              		.p2align 4,,15
  22              		.thumb
  23              		.thumb_func
  24              		.type	ThreadSysmon, %function
  25              	ThreadSysmon:
  26              	.LFB130:
  27              		.file 1 "sysmon.c"
  28              		.loc 1 43 0
  29              		.cfi_startproc
  30              		@ Volatile: function does not return.
  31              		@ args = 0, pretend = 0, frame = 0
  32              		@ frame_needed = 0, uses_anonymous_args = 0
  33              	.LVL0:
  34 0000 2DE98848 		push	{r3, r7, fp, lr}
  35              		.cfi_def_cfa_offset 16
  36              		.cfi_offset 3, -16
  37              		.cfi_offset 7, -12
  38              		.cfi_offset 11, -8
  39              		.cfi_offset 14, -4
  40              		.loc 1 46 0
  41 0004 394B     		ldr	r3, .L25
  42              		.loc 1 48 0
  43 0006 3A4C     		ldr	r4, .L25+4
  44              		.loc 1 46 0
  45 0008 9B69     		ldr	r3, [r3, #24]
  46 000a DFF8FC90 		ldr	r9, .L25+28
  47 000e 394A     		ldr	r2, .L25+8
  48 0010 9A61     		str	r2, [r3, #24]
  49              		.loc 1 48 0
  50 0012 0023     		movs	r3, #0
  51 0014 384F     		ldr	r7, .L25+12
  52 0016 394E     		ldr	r6, .L25+16
  53 0018 394D     		ldr	r5, .L25+20
  54              	.LBB4:
  55              		.loc 1 60 0
  56 001a DFF8F0B0 		ldr	fp, .L25+32
  57              		.loc 1 77 0
ARM GAS  /tmp/ccBg9yhE.s 			page 2


  58 001e DFF8F0A0 		ldr	r10, .L25+36
  59              	.LBE4:
  60              		.loc 1 48 0
  61 0022 2370     		strb	r3, [r4]
  62              	.LBB5:
  63              		.loc 1 59 0
  64 0024 C846     		mov	r8, r9
  65 0026 45E0     		b	.L12
  66              	.LVL1:
  67              	.L3:
  68              		.loc 1 60 0
  69 0028 4FF08052 		mov	r2, #268435456
  70 002c CBF81820 		str	r2, [fp, #24]
  71              		.loc 1 61 0
  72 0030 4FF0004E 		mov	lr, #-2147483648
  73              	.L13:
  74              		.loc 1 61 0 is_stmt 0 discriminator 4
  75 0034 D9F80420 		ldr	r2, [r9, #4]
  76              		.loc 1 62 0 is_stmt 1 discriminator 4
  77 0038 03F1010C 		add	ip, r3, #1
  78              		.loc 1 61 0 discriminator 4
  79 003c DA40     		lsrs	r2, r2, r3
  80 003e D203     		lsls	r2, r2, #15
  81              		.loc 1 63 0 discriminator 4
  82 0040 5FFA8CFC 		uxtb	ip, ip
  83              		.loc 1 61 0 discriminator 4
  84 0044 92B2     		uxth	r2, r2
  85              		.loc 1 63 0 discriminator 4
  86 0046 20FA0CF0 		lsr	r0, r0, ip
  87              		.loc 1 61 0 discriminator 4
  88 004a 4EEA0202 		orr	r2, lr, r2
  89              		.loc 1 63 0 discriminator 4
  90 004e 10F00100 		ands	r0, r0, #1
  91              		.loc 1 61 0 discriminator 4
  92 0052 CBF81820 		str	r2, [fp, #24]
  93              	.LVL2:
  94              		.loc 1 63 0 discriminator 4
  95 0056 42D1     		bne	.L24
  96              		.loc 1 63 0 is_stmt 0
  97 0058 4FF08042 		mov	r2, #1073741824
  98 005c CBF81820 		str	r2, [fp, #24]
  99              		.loc 1 64 0 is_stmt 1
 100 0060 4FF00052 		mov	r2, #536870912
 101              	.L14:
 102              		.loc 1 65 0 discriminator 4
 103 0064 0233     		adds	r3, r3, #2
 104              	.LVL3:
 105 0066 DBB2     		uxtb	r3, r3
 106              	.LVL4:
 107              		.loc 1 64 0 discriminator 4
 108 0068 42EA4032 		orr	r2, r2, r0, lsl #13
 109              		.loc 1 67 0 discriminator 4
 110 006c 1F2B     		cmp	r3, #31
 111              		.loc 1 64 0 discriminator 4
 112 006e CBF81820 		str	r2, [fp, #24]
 113              		.loc 1 67 0 discriminator 4
 114 0072 32D9     		bls	.L7
ARM GAS  /tmp/ccBg9yhE.s 			page 3


 115              		.loc 1 68 0
 116 0074 234B     		ldr	r3, .L25+24
 117              	.LVL5:
 118 0076 1B78     		ldrb	r3, [r3]	@ zero_extendqisi2
 119 0078 1BB9     		cbnz	r3, .L8
 120              		.loc 1 69 0
 121 007a 4FF05533 		mov	r3, #1431655765
 122 007e C9F80430 		str	r3, [r9, #4]
 123              	.L8:
 124              		.loc 1 71 0
 125 0082 0023     		movs	r3, #0
 126 0084 2370     		strb	r3, [r4]
 127              	.L2:
 128              		.loc 1 77 0
 129 0086 DAF84C30 		ldr	r3, [r10, #76]
 130              	.LVL6:
 131              		.loc 1 78 0
 132 008a 3A88     		ldrh	r2, [r7]
 133 008c 1A48     		ldr	r0, .L25+12
 134              		.loc 1 80 0
 135 008e 1B49     		ldr	r1, .L25+16
 136              		.loc 1 78 0
 137 0090 9342     		cmp	r3, r2
 138              		.loc 1 79 0
 139 0092 9AB2     		uxth	r2, r3
 140 0094 C8BF     		it	gt
 141 0096 0280     		strhgt	r2, [r0]	@ movhi
 142              		.loc 1 80 0
 143 0098 3088     		ldrh	r0, [r6]
 144              		.loc 1 82 0
 145 009a 2A80     		strh	r2, [r5]	@ movhi
 146              		.loc 1 80 0
 147 009c 8342     		cmp	r3, r0
 148              		.loc 1 83 0
 149 009e DAF80830 		ldr	r3, [r10, #8]
 150              	.LVL7:
 151              		.loc 1 81 0
 152 00a2 B8BF     		it	lt
 153 00a4 0A80     		strhlt	r2, [r1]	@ movhi
 154              		.loc 1 83 0
 155 00a6 43F08043 		orr	r3, r3, #1073741824
 156 00aa CAF80830 		str	r3, [r10, #8]
 157              		.loc 1 105 0
 158 00ae 6420     		movs	r0, #100
 159 00b0 FFF7FEFF 		bl	chThdSleep
 160              	.LVL8:
 161              	.L12:
 162              		.loc 1 50 0
 163 00b4 2378     		ldrb	r3, [r4]	@ zero_extendqisi2
 164              		.loc 1 59 0
 165 00b6 99F80020 		ldrb	r2, [r9]	@ zero_extendqisi2
 166              		.loc 1 50 0
 167 00ba DBB2     		uxtb	r3, r3
 168              	.LVL9:
 169              		.loc 1 59 0
 170 00bc 002A     		cmp	r2, #0
 171 00be E2D0     		beq	.L2
ARM GAS  /tmp/ccBg9yhE.s 			page 4


 172              		.loc 1 60 0
 173 00c0 D8F80400 		ldr	r0, [r8, #4]
 174 00c4 20FA03F2 		lsr	r2, r0, r3
 175 00c8 D207     		lsls	r2, r2, #31
 176 00ca ADD5     		bpl	.L3
 177 00cc 4FF48052 		mov	r2, #4096
 178 00d0 CBF81820 		str	r2, [fp, #24]
 179              		.loc 1 61 0
 180 00d4 4FF0000E 		mov	lr, #0
 181 00d8 ACE7     		b	.L13
 182              	.L7:
 183              		.loc 1 74 0
 184 00da 2370     		strb	r3, [r4]
 185 00dc D3E7     		b	.L2
 186              	.LVL10:
 187              	.L24:
 188              		.loc 1 63 0
 189 00de 4FF48042 		mov	r2, #16384
 190 00e2 CBF81820 		str	r2, [fp, #24]
 191              		.loc 1 64 0
 192 00e6 0022     		movs	r2, #0
 193 00e8 BCE7     		b	.L14
 194              	.L26:
 195 00ea 00BF     		.align	2
 196              	.L25:
 197 00ec 00000000 		.word	rlist
 198 00f0 00000000 		.word	pattern_index
 199 00f4 00000000 		.word	.LC0
 200 00f8 00000000 		.word	v50_max
 201 00fc 00000000 		.word	v50_min
 202 0100 00000000 		.word	voltage_50
 203 0104 00000000 		.word	.LANCHOR1
 204 0108 00000000 		.word	.LANCHOR0
 205 010c 000C0240 		.word	1073875968
 206 0110 00220140 		.word	1073816064
 207              	.LBE5:
 208              		.cfi_endproc
 209              	.LFE130:
 210              		.size	ThreadSysmon, .-ThreadSysmon
 211              		.align	2
 212 0114 AFF30080 		.p2align 4,,15
 212      AFF30080 
 212      AFF30080 
 213              		.global	sysmon_init
 214              		.thumb
 215              		.thumb_func
 216              		.type	sysmon_init, %function
 217              	sysmon_init:
 218              	.LFB131:
 219              		.loc 1 109 0
 220              		.cfi_startproc
 221              		@ args = 0, pretend = 0, frame = 0
 222              		@ frame_needed = 0, uses_anonymous_args = 0
 223 0120 2DE9F047 		push	{r4, r5, r6, r7, r8, r9, r10, lr}
 224              		.cfi_def_cfa_offset 32
 225              		.cfi_offset 4, -32
 226              		.cfi_offset 5, -28
ARM GAS  /tmp/ccBg9yhE.s 			page 5


 227              		.cfi_offset 6, -24
 228              		.cfi_offset 7, -20
 229              		.cfi_offset 8, -16
 230              		.cfi_offset 9, -12
 231              		.cfi_offset 10, -8
 232              		.cfi_offset 14, -4
 233              		.loc 1 111 0
 234 0124 204C     		ldr	r4, .L29
 235              		.loc 1 123 0
 236 0126 DFF89890 		ldr	r9, .L29+24
 237              		.loc 1 131 0
 238 012a 204F     		ldr	r7, .L29+4
 239              		.loc 1 129 0
 240 012c 204E     		ldr	r6, .L29+8
 241              		.loc 1 109 0
 242 012e 82B0     		sub	sp, sp, #8
 243              		.cfi_def_cfa_offset 40
 244              		.loc 1 111 0
 245 0130 2046     		mov	r0, r4
 246 0132 4FF48051 		mov	r1, #4096
 247 0136 0122     		movs	r2, #1
 248 0138 FFF7FEFF 		bl	_pal_lld_setgroupmode
 249              	.LVL11:
 250              		.loc 1 114 0
 251 013c 2046     		mov	r0, r4
 252 013e 4FF48041 		mov	r1, #16384
 253 0142 0122     		movs	r2, #1
 254 0144 FFF7FEFF 		bl	_pal_lld_setgroupmode
 255              	.LVL12:
 256              		.loc 1 120 0
 257 0148 DFF878C0 		ldr	ip, .L29+28
 258              		.loc 1 121 0
 259 014c 194A     		ldr	r2, .L29+12
 260              		.loc 1 120 0
 261 014e DCF84410 		ldr	r1, [ip, #68]
 262              		.loc 1 128 0
 263 0152 DFF874E0 		ldr	lr, .L29+32
 264              		.loc 1 133 0
 265 0156 184B     		ldr	r3, .L29+16
 266 0158 1848     		ldr	r0, .L29+20
 267              		.loc 1 124 0
 268 015a 0024     		movs	r4, #0
 269              		.loc 1 121 0
 270 015c 0125     		movs	r5, #1
 271              		.loc 1 120 0
 272 015e 41F48061 		orr	r1, r1, #1024
 273              		.loc 1 122 0
 274 0162 6FF0784A 		mvn	r10, #-134217728
 275              		.loc 1 126 0
 276 0166 4FF00808 		mov	r8, #8
 277              		.loc 1 120 0
 278 016a CCF84410 		str	r1, [ip, #68]
 279              		.loc 1 121 0
 280 016e 9560     		str	r5, [r2, #8]
 281              		.loc 1 122 0
 282 0170 C2F80CA0 		str	r10, [r2, #12]
 283              		.loc 1 123 0
ARM GAS  /tmp/ccBg9yhE.s 			page 6


 284 0174 C2F81090 		str	r9, [r2, #16]
 285              		.loc 1 124 0
 286 0178 D462     		str	r4, [r2, #44]
 287              		.loc 1 125 0
 288 017a 1463     		str	r4, [r2, #48]
 289              		.loc 1 126 0
 290 017c C2F83480 		str	r8, [r2, #52]
 291              		.loc 1 127 0
 292 0180 9168     		ldr	r1, [r2, #8]
 293 0182 41F08041 		orr	r1, r1, #1073741824
 294 0186 9160     		str	r1, [r2, #8]
 295              		.loc 1 129 0
 296 0188 4FF6FF7C 		movw	ip, #65535
 297              		.loc 1 133 0
 298 018c 0094     		str	r4, [sp]
 299 018e 4FF41471 		mov	r1, #592
 300 0192 4022     		movs	r2, #64
 301              		.loc 1 128 0
 302 0194 AEF80040 		strh	r4, [lr]	@ movhi
 303              		.loc 1 131 0
 304 0198 3D70     		strb	r5, [r7]
 305              		.loc 1 129 0
 306 019a A6F800C0 		strh	ip, [r6]	@ movhi
 307              		.loc 1 133 0
 308 019e FFF7FEFF 		bl	chThdCreateStatic
 309              	.LVL13:
 310              		.loc 1 136 0
 311 01a2 02B0     		add	sp, sp, #8
 312              		.cfi_def_cfa_offset 32
 313              		@ sp needed
 314 01a4 BDE8F087 		pop	{r4, r5, r6, r7, r8, r9, r10, pc}
 315              	.L30:
 316              		.align	2
 317              	.L29:
 318 01a8 000C0240 		.word	1073875968
 319 01ac 00000000 		.word	.LANCHOR0
 320 01b0 00000000 		.word	v50_min
 321 01b4 00220140 		.word	1073816064
 322 01b8 00000000 		.word	ThreadSysmon
 323 01bc 08000000 		.word	.LANCHOR1+8
 324 01c0 FFFF7F3F 		.word	1065353215
 325 01c4 00380240 		.word	1073887232
 326 01c8 00000000 		.word	v50_max
 327              		.cfi_endproc
 328              	.LFE131:
 329              		.size	sysmon_init, .-sysmon_init
 330              		.align	2
 331 01cc AFF30080 		.p2align 4,,15
 332              		.global	sysmon_disable_blinker
 333              		.thumb
 334              		.thumb_func
 335              		.type	sysmon_disable_blinker, %function
 336              	sysmon_disable_blinker:
 337              	.LFB132:
 338              		.loc 1 138 0
 339              		.cfi_startproc
 340              		@ args = 0, pretend = 0, frame = 0
ARM GAS  /tmp/ccBg9yhE.s 			page 7


 341              		@ frame_needed = 0, uses_anonymous_args = 0
 342              		@ link register save eliminated.
 343              		.loc 1 139 0
 344 01d0 014B     		ldr	r3, .L32
 345 01d2 0022     		movs	r2, #0
 346 01d4 1A70     		strb	r2, [r3]
 347 01d6 7047     		bx	lr
 348              	.L33:
 349              		.align	2
 350              	.L32:
 351 01d8 00000000 		.word	.LANCHOR0
 352              		.cfi_endproc
 353              	.LFE132:
 354              		.size	sysmon_disable_blinker, .-sysmon_disable_blinker
 355              		.align	2
 356 01dc AFF30080 		.p2align 4,,15
 357              		.global	sysmon_enable_blinker
 358              		.thumb
 359              		.thumb_func
 360              		.type	sysmon_enable_blinker, %function
 361              	sysmon_enable_blinker:
 362              	.LFB133:
 363              		.loc 1 142 0
 364              		.cfi_startproc
 365              		@ args = 0, pretend = 0, frame = 0
 366              		@ frame_needed = 0, uses_anonymous_args = 0
 367              		@ link register save eliminated.
 368              		.loc 1 143 0
 369 01e0 014B     		ldr	r3, .L35
 370 01e2 0122     		movs	r2, #1
 371 01e4 1A70     		strb	r2, [r3]
 372 01e6 7047     		bx	lr
 373              	.L36:
 374              		.align	2
 375              	.L35:
 376 01e8 00000000 		.word	.LANCHOR0
 377              		.cfi_endproc
 378              	.LFE133:
 379              		.size	sysmon_enable_blinker, .-sysmon_enable_blinker
 380              		.align	2
 381 01ec AFF30080 		.p2align 4,,15
 382              		.global	sysmon_blink_pattern
 383              		.thumb
 384              		.thumb_func
 385              		.type	sysmon_blink_pattern, %function
 386              	sysmon_blink_pattern:
 387              	.LFB134:
 388              		.loc 1 146 0
 389              		.cfi_startproc
 390              		@ args = 0, pretend = 0, frame = 0
 391              		@ frame_needed = 0, uses_anonymous_args = 0
 392              		@ link register save eliminated.
 393              	.LVL14:
 394              		.loc 1 147 0
 395 01f0 024A     		ldr	r2, .L38
 396              		.loc 1 148 0
 397 01f2 034B     		ldr	r3, .L38+4
ARM GAS  /tmp/ccBg9yhE.s 			page 8


 398              		.loc 1 147 0
 399 01f4 5060     		str	r0, [r2, #4]
 400              		.loc 1 148 0
 401 01f6 0022     		movs	r2, #0
 402 01f8 1A70     		strb	r2, [r3]
 403 01fa 7047     		bx	lr
 404              	.L39:
 405              		.align	2
 406              	.L38:
 407 01fc 00000000 		.word	.LANCHOR0
 408 0200 00000000 		.word	pattern_index
 409              		.cfi_endproc
 410              	.LFE134:
 411              		.size	sysmon_blink_pattern, .-sysmon_blink_pattern
 412              		.align	2
 413 0204 AFF30080 		.p2align 4,,15
 413      AFF30080 
 413      AFF30080 
 414              		.global	setErrorFlag
 415              		.thumb
 416              		.thumb_func
 417              		.type	setErrorFlag, %function
 418              	setErrorFlag:
 419              	.LFB135:
 420              		.loc 1 153 0
 421              		.cfi_startproc
 422              		@ args = 0, pretend = 0, frame = 0
 423              		@ frame_needed = 0, uses_anonymous_args = 0
 424              		@ link register save eliminated.
 425              	.LVL15:
 426 0210 70B4     		push	{r4, r5, r6}
 427              		.cfi_def_cfa_offset 12
 428              		.cfi_offset 4, -12
 429              		.cfi_offset 5, -8
 430              		.cfi_offset 6, -4
 431              		.loc 1 154 0
 432 0212 094B     		ldr	r3, .L42
 433              	.LBB6:
 434              	.LBB7:
 435              		.loc 1 147 0
 436 0214 094D     		ldr	r5, .L42+4
 437              	.LBE7:
 438              	.LBE6:
 439              		.loc 1 154 0
 440 0216 D3F85822 		ldr	r2, [r3, #600]
 441              	.LBB10:
 442              	.LBB8:
 443              		.loc 1 148 0
 444 021a 094C     		ldr	r4, .L42+8
 445              	.LBE8:
 446              	.LBE10:
 447              		.loc 1 154 0
 448 021c 0121     		movs	r1, #1
 449 021e 01FA00F0 		lsl	r0, r1, r0
 450              	.LVL16:
 451 0222 0243     		orrs	r2, r2, r0
 452              	.LBB11:
ARM GAS  /tmp/ccBg9yhE.s 			page 9


 453              	.LBB9:
 454              		.loc 1 147 0
 455 0224 4FF0F536 		mov	r6, #-168430091
 456              		.loc 1 148 0
 457 0228 0020     		movs	r0, #0
 458              		.loc 1 147 0
 459 022a 6E60     		str	r6, [r5, #4]
 460              		.loc 1 148 0
 461 022c 2070     		strb	r0, [r4]
 462              	.LBE9:
 463              	.LBE11:
 464              		.loc 1 154 0
 465 022e C3F85822 		str	r2, [r3, #600]
 466              		.loc 1 155 0
 467 0232 1970     		strb	r1, [r3]
 468              	.LVL17:
 469              		.loc 1 157 0
 470 0234 70BC     		pop	{r4, r5, r6}
 471              		.cfi_restore 6
 472              		.cfi_restore 5
 473              		.cfi_restore 4
 474              		.cfi_def_cfa_offset 0
 475 0236 7047     		bx	lr
 476              	.L43:
 477              		.align	2
 478              	.L42:
 479 0238 00000000 		.word	.LANCHOR1
 480 023c 00000000 		.word	.LANCHOR0
 481 0240 00000000 		.word	pattern_index
 482              		.cfi_endproc
 483              	.LFE135:
 484              		.size	setErrorFlag, .-setErrorFlag
 485              		.align	2
 486 0244 AFF30080 		.p2align 4,,15
 486      AFF30080 
 486      AFF30080 
 487              		.global	getErrorFlag
 488              		.thumb
 489              		.thumb_func
 490              		.type	getErrorFlag, %function
 491              	getErrorFlag:
 492              	.LFB136:
 493              		.loc 1 159 0
 494              		.cfi_startproc
 495              		@ args = 0, pretend = 0, frame = 0
 496              		@ frame_needed = 0, uses_anonymous_args = 0
 497              		@ link register save eliminated.
 498              	.LVL18:
 499              		.loc 1 160 0
 500 0250 044A     		ldr	r2, .L45
 501 0252 0123     		movs	r3, #1
 502 0254 D2F85822 		ldr	r2, [r2, #600]
 503 0258 8340     		lsls	r3, r3, r0
 504 025a 1342     		tst	r3, r2
 505              		.loc 1 161 0
 506 025c 14BF     		ite	ne
 507 025e 0120     		movne	r0, #1
ARM GAS  /tmp/ccBg9yhE.s 			page 10


 508              	.LVL19:
 509 0260 0020     		moveq	r0, #0
 510 0262 7047     		bx	lr
 511              	.L46:
 512              		.align	2
 513              	.L45:
 514 0264 00000000 		.word	.LANCHOR1
 515              		.cfi_endproc
 516              	.LFE136:
 517              		.size	getErrorFlag, .-getErrorFlag
 518              		.align	2
 519 0268 AFF30080 		.p2align 4,,15
 519      AFF30080 
 520              		.global	errorFlagClearAll
 521              		.thumb
 522              		.thumb_func
 523              		.type	errorFlagClearAll, %function
 524              	errorFlagClearAll:
 525              	.LFB137:
 526              		.loc 1 163 0
 527              		.cfi_startproc
 528              		@ args = 0, pretend = 0, frame = 0
 529              		@ frame_needed = 0, uses_anonymous_args = 0
 530              		@ link register save eliminated.
 531              		.loc 1 164 0
 532 0270 024B     		ldr	r3, .L48
 533 0272 0022     		movs	r2, #0
 534 0274 C3F85822 		str	r2, [r3, #600]
 535 0278 7047     		bx	lr
 536              	.L49:
 537 027a 00BF     		.align	2
 538              	.L48:
 539 027c 00000000 		.word	.LANCHOR1
 540              		.cfi_endproc
 541              	.LFE137:
 542              		.size	errorFlagClearAll, .-errorFlagClearAll
 543              		.align	2
 544              		.p2align 4,,15
 545              		.global	sysmon_getVoltage50
 546              		.thumb
 547              		.thumb_func
 548              		.type	sysmon_getVoltage50, %function
 549              	sysmon_getVoltage50:
 550              	.LFB138:
 551              		.loc 1 167 0
 552              		.cfi_startproc
 553              		@ args = 0, pretend = 0, frame = 0
 554              		@ frame_needed = 0, uses_anonymous_args = 0
 555              		@ link register save eliminated.
 556              		.loc 1 168 0
 557 0280 014B     		ldr	r3, .L51
 558              		.loc 1 169 0
 559 0282 1888     		ldrh	r0, [r3]
 560 0284 7047     		bx	lr
 561              	.L52:
 562 0286 00BF     		.align	2
 563              	.L51:
ARM GAS  /tmp/ccBg9yhE.s 			page 11


 564 0288 00000000 		.word	voltage_50
 565              		.cfi_endproc
 566              	.LFE138:
 567              		.size	sysmon_getVoltage50, .-sysmon_getVoltage50
 568              		.align	2
 569 028c AFF30080 		.p2align 4,,15
 570              		.global	sysmon_getVoltage10
 571              		.thumb
 572              		.thumb_func
 573              		.type	sysmon_getVoltage10, %function
 574              	sysmon_getVoltage10:
 575              	.LFB139:
 576              		.loc 1 171 0
 577              		.cfi_startproc
 578              		@ args = 0, pretend = 0, frame = 0
 579              		@ frame_needed = 0, uses_anonymous_args = 0
 580              		@ link register save eliminated.
 581              		.loc 1 172 0
 582 0290 014B     		ldr	r3, .L54
 583              		.loc 1 173 0
 584 0292 D88B     		ldrh	r0, [r3, #30]
 585 0294 7047     		bx	lr
 586              	.L55:
 587 0296 00BF     		.align	2
 588              	.L54:
 589 0298 00000000 		.word	adcvalues
 590              		.cfi_endproc
 591              	.LFE139:
 592              		.size	sysmon_getVoltage10, .-sysmon_getVoltage10
 593              		.global	errorflags
 594              		.comm	pattern_index,1,1
 595              		.global	sdcsw_prev
 596              		.comm	v50_max,2,2
 597              		.comm	v50_min,2,2
 598              		.comm	voltage_50,2,2
 599              		.global	pattern
 600              		.global	isEnabled
 601              		.global	repeat
 602              		.data
 603              		.align	2
 604              		.set	.LANCHOR0,. + 0
 605              		.type	isEnabled, %object
 606              		.size	isEnabled, 1
 607              	isEnabled:
 608 0000 01       		.byte	1
 609 0001 000000   		.space	3
 610              		.type	pattern, %object
 611              		.size	pattern, 4
 612              	pattern:
 613 0004 99999999 		.word	-1717986919
 614              		.section	.rodata.str1.4,"aMS",%progbits,1
 615              		.align	2
 616              	.LC0:
 617 0000 7379736D 		.ascii	"sysmon\000"
 617      6F6E00
 618              		.bss
 619              		.align	3
ARM GAS  /tmp/ccBg9yhE.s 			page 12


 620              		.set	.LANCHOR1,. + 0
 621              		.type	repeat, %object
 622              		.size	repeat, 1
 623              	repeat:
 624 0000 00       		.space	1
 625 0001 00000000 		.space	7
 625      000000
 626              		.type	waThreadSysmon, %object
 627              		.size	waThreadSysmon, 592
 628              	waThreadSysmon:
 629 0008 00000000 		.space	592
 629      00000000 
 629      00000000 
 629      00000000 
 629      00000000 
 630              		.type	errorflags, %object
 631              		.size	errorflags, 4
 632              	errorflags:
 633 0258 00000000 		.space	4
 634              		.type	sdcsw_prev, %object
 635              		.size	sdcsw_prev, 1
 636              	sdcsw_prev:
 637 025c 00       		.space	1
 638              		.text
 639              	.Letext0:
 640              		.file 2 "/home/sbcu/Dropbox/pcb-layouts/axo-on-discovery-board/axoloti/platform_linux/lib/gcc/arm-
 641              		.file 3 "/home/sbcu/Dropbox/pcb-layouts/axo-on-discovery-board/axoloti/platform_linux/arm-none-eab
 642              		.file 4 "/home/sbcu/Dropbox/pcb-layouts/axo-on-discovery-board/axoloti/platform_linux/arm-none-eab
 643              		.file 5 "/home/sbcu/Dropbox/pcb-layouts/axo-on-discovery-board/axoloti/platform_linux/../chibios/o
 644              		.file 6 "/home/sbcu/Dropbox/pcb-layouts/axo-on-discovery-board/axoloti/platform_linux/../chibios/o
 645              		.file 7 "/home/sbcu/Dropbox/pcb-layouts/axo-on-discovery-board/axoloti/platform_linux/../chibios/o
 646              		.file 8 "/home/sbcu/Dropbox/pcb-layouts/axo-on-discovery-board/axoloti/platform_linux/../chibios/o
 647              		.file 9 "/home/sbcu/Dropbox/pcb-layouts/axo-on-discovery-board/axoloti/platform_linux/../chibios/o
 648              		.file 10 "/home/sbcu/Dropbox/pcb-layouts/axo-on-discovery-board/axoloti/platform_linux/../chibios/
 649              		.file 11 "/home/sbcu/Dropbox/pcb-layouts/axo-on-discovery-board/axoloti/platform_linux/../chibios/
 650              		.file 12 "/home/sbcu/Dropbox/pcb-layouts/axo-on-discovery-board/axoloti/platform_linux/../chibios/
 651              		.file 13 "sysmon.h"
 652              		.file 14 "/home/sbcu/Dropbox/pcb-layouts/axo-on-discovery-board/axoloti/platform_linux/../CMSIS//I
 653              		.file 15 "axoloti_board.h"
 654              		.section	.debug_info,"",%progbits
 655              	.Ldebug_info0:
 656 0000 3E0C0000 		.4byte	0xc3e
 657 0004 0400     		.2byte	0x4
 658 0006 00000000 		.4byte	.Ldebug_abbrev0
 659 000a 04       		.byte	0x4
 660 000b 01       		.uleb128 0x1
 661 000c 73060000 		.4byte	.LASF162
 662 0010 01       		.byte	0x1
 663 0011 90020000 		.4byte	.LASF163
 664 0015 DA030000 		.4byte	.LASF164
 665 0019 00000000 		.4byte	.Ltext0
 666 001d 9C020000 		.4byte	.Letext0-.Ltext0
 667 0021 00000000 		.4byte	.Ldebug_line0
 668 0025 02       		.uleb128 0x2
 669 0026 04       		.byte	0x4
 670 0027 05       		.byte	0x5
 671 0028 696E7400 		.ascii	"int\000"
ARM GAS  /tmp/ccBg9yhE.s 			page 13


 672 002c 03       		.uleb128 0x3
 673 002d 27000000 		.4byte	.LASF2
 674 0031 02       		.byte	0x2
 675 0032 D4       		.byte	0xd4
 676 0033 37000000 		.4byte	0x37
 677 0037 04       		.uleb128 0x4
 678 0038 04       		.byte	0x4
 679 0039 07       		.byte	0x7
 680 003a EB010000 		.4byte	.LASF0
 681 003e 04       		.uleb128 0x4
 682 003f 01       		.byte	0x1
 683 0040 06       		.byte	0x6
 684 0041 C7000000 		.4byte	.LASF1
 685 0045 03       		.uleb128 0x3
 686 0046 45000000 		.4byte	.LASF3
 687 004a 03       		.byte	0x3
 688 004b 1D       		.byte	0x1d
 689 004c 50000000 		.4byte	0x50
 690 0050 04       		.uleb128 0x4
 691 0051 01       		.byte	0x1
 692 0052 08       		.byte	0x8
 693 0053 2F040000 		.4byte	.LASF4
 694 0057 04       		.uleb128 0x4
 695 0058 02       		.byte	0x2
 696 0059 05       		.byte	0x5
 697 005a 54040000 		.4byte	.LASF5
 698 005e 03       		.uleb128 0x3
 699 005f 3E050000 		.4byte	.LASF6
 700 0063 03       		.byte	0x3
 701 0064 2B       		.byte	0x2b
 702 0065 69000000 		.4byte	0x69
 703 0069 04       		.uleb128 0x4
 704 006a 02       		.byte	0x2
 705 006b 07       		.byte	0x7
 706 006c 24020000 		.4byte	.LASF7
 707 0070 03       		.uleb128 0x3
 708 0071 6E050000 		.4byte	.LASF8
 709 0075 03       		.byte	0x3
 710 0076 3F       		.byte	0x3f
 711 0077 7B000000 		.4byte	0x7b
 712 007b 04       		.uleb128 0x4
 713 007c 04       		.byte	0x4
 714 007d 05       		.byte	0x5
 715 007e 20010000 		.4byte	.LASF9
 716 0082 03       		.uleb128 0x3
 717 0083 78050000 		.4byte	.LASF10
 718 0087 03       		.byte	0x3
 719 0088 41       		.byte	0x41
 720 0089 8D000000 		.4byte	0x8d
 721 008d 04       		.uleb128 0x4
 722 008e 04       		.byte	0x4
 723 008f 07       		.byte	0x7
 724 0090 20050000 		.4byte	.LASF11
 725 0094 04       		.uleb128 0x4
 726 0095 08       		.byte	0x8
 727 0096 05       		.byte	0x5
 728 0097 B9000000 		.4byte	.LASF12
ARM GAS  /tmp/ccBg9yhE.s 			page 14


 729 009b 03       		.uleb128 0x3
 730 009c 4B030000 		.4byte	.LASF13
 731 00a0 03       		.byte	0x3
 732 00a1 5B       		.byte	0x5b
 733 00a2 A6000000 		.4byte	0xa6
 734 00a6 04       		.uleb128 0x4
 735 00a7 08       		.byte	0x8
 736 00a8 07       		.byte	0x7
 737 00a9 E1000000 		.4byte	.LASF14
 738 00ad 03       		.uleb128 0x3
 739 00ae 2E060000 		.4byte	.LASF15
 740 00b2 04       		.byte	0x4
 741 00b3 14       		.byte	0x14
 742 00b4 45000000 		.4byte	0x45
 743 00b8 03       		.uleb128 0x3
 744 00b9 45010000 		.4byte	.LASF16
 745 00bd 04       		.byte	0x4
 746 00be 1A       		.byte	0x1a
 747 00bf 5E000000 		.4byte	0x5e
 748 00c3 03       		.uleb128 0x3
 749 00c4 27040000 		.4byte	.LASF17
 750 00c8 04       		.byte	0x4
 751 00c9 1F       		.byte	0x1f
 752 00ca 70000000 		.4byte	0x70
 753 00ce 03       		.uleb128 0x3
 754 00cf F8040000 		.4byte	.LASF18
 755 00d3 04       		.byte	0x4
 756 00d4 20       		.byte	0x20
 757 00d5 82000000 		.4byte	0x82
 758 00d9 03       		.uleb128 0x3
 759 00da 35000000 		.4byte	.LASF19
 760 00de 04       		.byte	0x4
 761 00df 26       		.byte	0x26
 762 00e0 9B000000 		.4byte	0x9b
 763 00e4 04       		.uleb128 0x4
 764 00e5 01       		.byte	0x1
 765 00e6 02       		.byte	0x2
 766 00e7 21040000 		.4byte	.LASF20
 767 00eb 03       		.uleb128 0x3
 768 00ec 60020000 		.4byte	.LASF21
 769 00f0 05       		.byte	0x5
 770 00f1 2C       		.byte	0x2c
 771 00f2 AD000000 		.4byte	0xad
 772 00f6 03       		.uleb128 0x3
 773 00f7 3C010000 		.4byte	.LASF22
 774 00fb 05       		.byte	0x5
 775 00fc 2D       		.byte	0x2d
 776 00fd AD000000 		.4byte	0xad
 777 0101 03       		.uleb128 0x3
 778 0102 00010000 		.4byte	.LASF23
 779 0106 05       		.byte	0x5
 780 0107 2F       		.byte	0x2f
 781 0108 AD000000 		.4byte	0xad
 782 010c 03       		.uleb128 0x3
 783 010d D2030000 		.4byte	.LASF24
 784 0111 05       		.byte	0x5
 785 0112 30       		.byte	0x30
ARM GAS  /tmp/ccBg9yhE.s 			page 15


 786 0113 CE000000 		.4byte	0xce
 787 0117 03       		.uleb128 0x3
 788 0118 4F020000 		.4byte	.LASF25
 789 011c 05       		.byte	0x5
 790 011d 31       		.byte	0x31
 791 011e C3000000 		.4byte	0xc3
 792 0122 03       		.uleb128 0x3
 793 0123 7E020000 		.4byte	.LASF26
 794 0127 05       		.byte	0x5
 795 0128 33       		.byte	0x33
 796 0129 CE000000 		.4byte	0xce
 797 012d 03       		.uleb128 0x3
 798 012e 59050000 		.4byte	.LASF27
 799 0132 05       		.byte	0x5
 800 0133 35       		.byte	0x35
 801 0134 CE000000 		.4byte	0xce
 802 0138 03       		.uleb128 0x3
 803 0139 B6040000 		.4byte	.LASF28
 804 013d 06       		.byte	0x6
 805 013e 2A       		.byte	0x2a
 806 013f 43010000 		.4byte	0x143
 807 0143 05       		.uleb128 0x5
 808 0144 B6040000 		.4byte	.LASF28
 809 0148 40       		.byte	0x40
 810 0149 07       		.byte	0x7
 811 014a 5E       		.byte	0x5e
 812 014b 1C020000 		.4byte	0x21c
 813 014f 06       		.uleb128 0x6
 814 0150 90040000 		.4byte	.LASF29
 815 0154 07       		.byte	0x7
 816 0155 5F       		.byte	0x5f
 817 0156 3D020000 		.4byte	0x23d
 818 015a 00       		.byte	0
 819 015b 06       		.uleb128 0x6
 820 015c BC030000 		.4byte	.LASF30
 821 0160 07       		.byte	0x7
 822 0161 61       		.byte	0x61
 823 0162 3D020000 		.4byte	0x23d
 824 0166 04       		.byte	0x4
 825 0167 06       		.uleb128 0x6
 826 0168 A5000000 		.4byte	.LASF31
 827 016c 07       		.byte	0x7
 828 016d 63       		.byte	0x63
 829 016e 0C010000 		.4byte	0x10c
 830 0172 08       		.byte	0x8
 831 0173 06       		.uleb128 0x6
 832 0174 90070000 		.4byte	.LASF32
 833 0178 07       		.byte	0x7
 834 0179 64       		.byte	0x64
 835 017a D2030000 		.4byte	0x3d2
 836 017e 0C       		.byte	0xc
 837 017f 06       		.uleb128 0x6
 838 0180 5A010000 		.4byte	.LASF33
 839 0184 07       		.byte	0x7
 840 0185 66       		.byte	0x66
 841 0186 3D020000 		.4byte	0x23d
 842 018a 10       		.byte	0x10
ARM GAS  /tmp/ccBg9yhE.s 			page 16


 843 018b 06       		.uleb128 0x6
 844 018c EE020000 		.4byte	.LASF34
 845 0190 07       		.byte	0x7
 846 0191 67       		.byte	0x67
 847 0192 3D020000 		.4byte	0x23d
 848 0196 14       		.byte	0x14
 849 0197 06       		.uleb128 0x6
 850 0198 12060000 		.4byte	.LASF35
 851 019c 07       		.byte	0x7
 852 019d 6E       		.byte	0x6e
 853 019e D7040000 		.4byte	0x4d7
 854 01a2 18       		.byte	0x18
 855 01a3 06       		.uleb128 0x6
 856 01a4 5E040000 		.4byte	.LASF36
 857 01a8 07       		.byte	0x7
 858 01a9 79       		.byte	0x79
 859 01aa F6000000 		.4byte	0xf6
 860 01ae 1C       		.byte	0x1c
 861 01af 06       		.uleb128 0x6
 862 01b0 97040000 		.4byte	.LASF37
 863 01b4 07       		.byte	0x7
 864 01b5 7D       		.byte	0x7d
 865 01b6 EB000000 		.4byte	0xeb
 866 01ba 1D       		.byte	0x1d
 867 01bb 06       		.uleb128 0x6
 868 01bc 41030000 		.4byte	.LASF38
 869 01c0 07       		.byte	0x7
 870 01c1 88       		.byte	0x88
 871 01c2 01010000 		.4byte	0x101
 872 01c6 1E       		.byte	0x1e
 873 01c7 07       		.uleb128 0x7
 874 01c8 705F7500 		.ascii	"p_u\000"
 875 01cc 07       		.byte	0x7
 876 01cd B4       		.byte	0xb4
 877 01ce A2040000 		.4byte	0x4a2
 878 01d2 20       		.byte	0x20
 879 01d3 06       		.uleb128 0x6
 880 01d4 96070000 		.4byte	.LASF39
 881 01d8 07       		.byte	0x7
 882 01d9 B9       		.byte	0xb9
 883 01da 63020000 		.4byte	0x263
 884 01de 24       		.byte	0x24
 885 01df 06       		.uleb128 0x6
 886 01e0 EC050000 		.4byte	.LASF40
 887 01e4 07       		.byte	0x7
 888 01e5 BF       		.byte	0xbf
 889 01e6 43020000 		.4byte	0x243
 890 01ea 28       		.byte	0x28
 891 01eb 06       		.uleb128 0x6
 892 01ec 79070000 		.4byte	.LASF41
 893 01f0 07       		.byte	0x7
 894 01f1 C3       		.byte	0xc3
 895 01f2 17010000 		.4byte	0x117
 896 01f6 30       		.byte	0x30
 897 01f7 06       		.uleb128 0x6
 898 01f8 C5040000 		.4byte	.LASF42
 899 01fc 07       		.byte	0x7
ARM GAS  /tmp/ccBg9yhE.s 			page 17


 900 01fd C9       		.byte	0xc9
 901 01fe 22010000 		.4byte	0x122
 902 0202 34       		.byte	0x34
 903 0203 06       		.uleb128 0x6
 904 0204 4A040000 		.4byte	.LASF43
 905 0208 07       		.byte	0x7
 906 0209 D0       		.byte	0xd0
 907 020a E9040000 		.4byte	0x4e9
 908 020e 38       		.byte	0x38
 909 020f 06       		.uleb128 0x6
 910 0210 63050000 		.4byte	.LASF44
 911 0214 07       		.byte	0x7
 912 0215 D4       		.byte	0xd4
 913 0216 0C010000 		.4byte	0x10c
 914 021a 3C       		.byte	0x3c
 915 021b 00       		.byte	0
 916 021c 08       		.uleb128 0x8
 917 021d 08       		.byte	0x8
 918 021e 06       		.byte	0x6
 919 021f 61       		.byte	0x61
 920 0220 3D020000 		.4byte	0x23d
 921 0224 06       		.uleb128 0x6
 922 0225 90040000 		.4byte	.LASF29
 923 0229 06       		.byte	0x6
 924 022a 62       		.byte	0x62
 925 022b 3D020000 		.4byte	0x23d
 926 022f 00       		.byte	0
 927 0230 06       		.uleb128 0x6
 928 0231 BC030000 		.4byte	.LASF30
 929 0235 06       		.byte	0x6
 930 0236 64       		.byte	0x64
 931 0237 3D020000 		.4byte	0x23d
 932 023b 04       		.byte	0x4
 933 023c 00       		.byte	0
 934 023d 09       		.uleb128 0x9
 935 023e 04       		.byte	0x4
 936 023f 38010000 		.4byte	0x138
 937 0243 03       		.uleb128 0x3
 938 0244 62000000 		.4byte	.LASF45
 939 0248 06       		.byte	0x6
 940 0249 66       		.byte	0x66
 941 024a 1C020000 		.4byte	0x21c
 942 024e 08       		.uleb128 0x8
 943 024f 04       		.byte	0x4
 944 0250 06       		.byte	0x6
 945 0251 6B       		.byte	0x6b
 946 0252 63020000 		.4byte	0x263
 947 0256 06       		.uleb128 0x6
 948 0257 90040000 		.4byte	.LASF29
 949 025b 06       		.byte	0x6
 950 025c 6D       		.byte	0x6d
 951 025d 3D020000 		.4byte	0x23d
 952 0261 00       		.byte	0
 953 0262 00       		.byte	0
 954 0263 03       		.uleb128 0x3
 955 0264 72020000 		.4byte	.LASF46
 956 0268 06       		.byte	0x6
ARM GAS  /tmp/ccBg9yhE.s 			page 18


 957 0269 70       		.byte	0x70
 958 026a 4E020000 		.4byte	0x24e
 959 026e 03       		.uleb128 0x3
 960 026f AA010000 		.4byte	.LASF47
 961 0273 08       		.byte	0x8
 962 0274 E5       		.byte	0xe5
 963 0275 79020000 		.4byte	0x279
 964 0279 0A       		.uleb128 0xa
 965 027a 04       		.byte	0x4
 966 027b 03       		.uleb128 0x3
 967 027c 99020000 		.4byte	.LASF48
 968 0280 08       		.byte	0x8
 969 0281 EB       		.byte	0xeb
 970 0282 D9000000 		.4byte	0xd9
 971 0286 0B       		.uleb128 0xb
 972 0287 E5050000 		.4byte	.LASF49
 973 028b 64       		.byte	0x64
 974 028c 08       		.byte	0x8
 975 028d 0C01     		.2byte	0x10c
 976 028f D2030000 		.4byte	0x3d2
 977 0293 0C       		.uleb128 0xc
 978 0294 73313600 		.ascii	"s16\000"
 979 0298 08       		.byte	0x8
 980 0299 0E01     		.2byte	0x10e
 981 029b 6E020000 		.4byte	0x26e
 982 029f 00       		.byte	0
 983 02a0 0C       		.uleb128 0xc
 984 02a1 73313700 		.ascii	"s17\000"
 985 02a5 08       		.byte	0x8
 986 02a6 0F01     		.2byte	0x10f
 987 02a8 6E020000 		.4byte	0x26e
 988 02ac 04       		.byte	0x4
 989 02ad 0C       		.uleb128 0xc
 990 02ae 73313800 		.ascii	"s18\000"
 991 02b2 08       		.byte	0x8
 992 02b3 1001     		.2byte	0x110
 993 02b5 6E020000 		.4byte	0x26e
 994 02b9 08       		.byte	0x8
 995 02ba 0C       		.uleb128 0xc
 996 02bb 73313900 		.ascii	"s19\000"
 997 02bf 08       		.byte	0x8
 998 02c0 1101     		.2byte	0x111
 999 02c2 6E020000 		.4byte	0x26e
 1000 02c6 0C       		.byte	0xc
 1001 02c7 0C       		.uleb128 0xc
 1002 02c8 73323000 		.ascii	"s20\000"
 1003 02cc 08       		.byte	0x8
 1004 02cd 1201     		.2byte	0x112
 1005 02cf 6E020000 		.4byte	0x26e
 1006 02d3 10       		.byte	0x10
 1007 02d4 0C       		.uleb128 0xc
 1008 02d5 73323100 		.ascii	"s21\000"
 1009 02d9 08       		.byte	0x8
 1010 02da 1301     		.2byte	0x113
 1011 02dc 6E020000 		.4byte	0x26e
 1012 02e0 14       		.byte	0x14
 1013 02e1 0C       		.uleb128 0xc
ARM GAS  /tmp/ccBg9yhE.s 			page 19


 1014 02e2 73323200 		.ascii	"s22\000"
 1015 02e6 08       		.byte	0x8
 1016 02e7 1401     		.2byte	0x114
 1017 02e9 6E020000 		.4byte	0x26e
 1018 02ed 18       		.byte	0x18
 1019 02ee 0C       		.uleb128 0xc
 1020 02ef 73323300 		.ascii	"s23\000"
 1021 02f3 08       		.byte	0x8
 1022 02f4 1501     		.2byte	0x115
 1023 02f6 6E020000 		.4byte	0x26e
 1024 02fa 1C       		.byte	0x1c
 1025 02fb 0C       		.uleb128 0xc
 1026 02fc 73323400 		.ascii	"s24\000"
 1027 0300 08       		.byte	0x8
 1028 0301 1601     		.2byte	0x116
 1029 0303 6E020000 		.4byte	0x26e
 1030 0307 20       		.byte	0x20
 1031 0308 0C       		.uleb128 0xc
 1032 0309 73323500 		.ascii	"s25\000"
 1033 030d 08       		.byte	0x8
 1034 030e 1701     		.2byte	0x117
 1035 0310 6E020000 		.4byte	0x26e
 1036 0314 24       		.byte	0x24
 1037 0315 0C       		.uleb128 0xc
 1038 0316 73323600 		.ascii	"s26\000"
 1039 031a 08       		.byte	0x8
 1040 031b 1801     		.2byte	0x118
 1041 031d 6E020000 		.4byte	0x26e
 1042 0321 28       		.byte	0x28
 1043 0322 0C       		.uleb128 0xc
 1044 0323 73323700 		.ascii	"s27\000"
 1045 0327 08       		.byte	0x8
 1046 0328 1901     		.2byte	0x119
 1047 032a 6E020000 		.4byte	0x26e
 1048 032e 2C       		.byte	0x2c
 1049 032f 0C       		.uleb128 0xc
 1050 0330 73323800 		.ascii	"s28\000"
 1051 0334 08       		.byte	0x8
 1052 0335 1A01     		.2byte	0x11a
 1053 0337 6E020000 		.4byte	0x26e
 1054 033b 30       		.byte	0x30
 1055 033c 0C       		.uleb128 0xc
 1056 033d 73323900 		.ascii	"s29\000"
 1057 0341 08       		.byte	0x8
 1058 0342 1B01     		.2byte	0x11b
 1059 0344 6E020000 		.4byte	0x26e
 1060 0348 34       		.byte	0x34
 1061 0349 0C       		.uleb128 0xc
 1062 034a 73333000 		.ascii	"s30\000"
 1063 034e 08       		.byte	0x8
 1064 034f 1C01     		.2byte	0x11c
 1065 0351 6E020000 		.4byte	0x26e
 1066 0355 38       		.byte	0x38
 1067 0356 0C       		.uleb128 0xc
 1068 0357 73333100 		.ascii	"s31\000"
 1069 035b 08       		.byte	0x8
 1070 035c 1D01     		.2byte	0x11d
ARM GAS  /tmp/ccBg9yhE.s 			page 20


 1071 035e 6E020000 		.4byte	0x26e
 1072 0362 3C       		.byte	0x3c
 1073 0363 0C       		.uleb128 0xc
 1074 0364 723400   		.ascii	"r4\000"
 1075 0367 08       		.byte	0x8
 1076 0368 1F01     		.2byte	0x11f
 1077 036a 6E020000 		.4byte	0x26e
 1078 036e 40       		.byte	0x40
 1079 036f 0C       		.uleb128 0xc
 1080 0370 723500   		.ascii	"r5\000"
 1081 0373 08       		.byte	0x8
 1082 0374 2001     		.2byte	0x120
 1083 0376 6E020000 		.4byte	0x26e
 1084 037a 44       		.byte	0x44
 1085 037b 0C       		.uleb128 0xc
 1086 037c 723600   		.ascii	"r6\000"
 1087 037f 08       		.byte	0x8
 1088 0380 2101     		.2byte	0x121
 1089 0382 6E020000 		.4byte	0x26e
 1090 0386 48       		.byte	0x48
 1091 0387 0C       		.uleb128 0xc
 1092 0388 723700   		.ascii	"r7\000"
 1093 038b 08       		.byte	0x8
 1094 038c 2201     		.2byte	0x122
 1095 038e 6E020000 		.4byte	0x26e
 1096 0392 4C       		.byte	0x4c
 1097 0393 0C       		.uleb128 0xc
 1098 0394 723800   		.ascii	"r8\000"
 1099 0397 08       		.byte	0x8
 1100 0398 2301     		.2byte	0x123
 1101 039a 6E020000 		.4byte	0x26e
 1102 039e 50       		.byte	0x50
 1103 039f 0C       		.uleb128 0xc
 1104 03a0 723900   		.ascii	"r9\000"
 1105 03a3 08       		.byte	0x8
 1106 03a4 2401     		.2byte	0x124
 1107 03a6 6E020000 		.4byte	0x26e
 1108 03aa 54       		.byte	0x54
 1109 03ab 0C       		.uleb128 0xc
 1110 03ac 72313000 		.ascii	"r10\000"
 1111 03b0 08       		.byte	0x8
 1112 03b1 2501     		.2byte	0x125
 1113 03b3 6E020000 		.4byte	0x26e
 1114 03b7 58       		.byte	0x58
 1115 03b8 0C       		.uleb128 0xc
 1116 03b9 72313100 		.ascii	"r11\000"
 1117 03bd 08       		.byte	0x8
 1118 03be 2601     		.2byte	0x126
 1119 03c0 6E020000 		.4byte	0x26e
 1120 03c4 5C       		.byte	0x5c
 1121 03c5 0C       		.uleb128 0xc
 1122 03c6 6C7200   		.ascii	"lr\000"
 1123 03c9 08       		.byte	0x8
 1124 03ca 2701     		.2byte	0x127
 1125 03cc 6E020000 		.4byte	0x26e
 1126 03d0 60       		.byte	0x60
 1127 03d1 00       		.byte	0
ARM GAS  /tmp/ccBg9yhE.s 			page 21


 1128 03d2 0B       		.uleb128 0xb
 1129 03d3 AB050000 		.4byte	.LASF50
 1130 03d7 04       		.byte	0x4
 1131 03d8 08       		.byte	0x8
 1132 03d9 3101     		.2byte	0x131
 1133 03db ED030000 		.4byte	0x3ed
 1134 03df 0C       		.uleb128 0xc
 1135 03e0 72313300 		.ascii	"r13\000"
 1136 03e4 08       		.byte	0x8
 1137 03e5 3201     		.2byte	0x132
 1138 03e7 ED030000 		.4byte	0x3ed
 1139 03eb 00       		.byte	0
 1140 03ec 00       		.byte	0
 1141 03ed 09       		.uleb128 0x9
 1142 03ee 04       		.byte	0x4
 1143 03ef 86020000 		.4byte	0x286
 1144 03f3 0D       		.uleb128 0xd
 1145 03f4 AD000000 		.4byte	0xad
 1146 03f8 0D       		.uleb128 0xd
 1147 03f9 CE000000 		.4byte	0xce
 1148 03fd 04       		.uleb128 0x4
 1149 03fe 04       		.byte	0x4
 1150 03ff 07       		.byte	0x7
 1151 0400 DA020000 		.4byte	.LASF51
 1152 0404 08       		.uleb128 0x8
 1153 0405 1C       		.byte	0x1c
 1154 0406 09       		.byte	0x9
 1155 0407 5E       		.byte	0x5e
 1156 0408 55040000 		.4byte	0x455
 1157 040c 06       		.uleb128 0x6
 1158 040d 01050000 		.4byte	.LASF52
 1159 0411 09       		.byte	0x9
 1160 0412 5F       		.byte	0x5f
 1161 0413 43020000 		.4byte	0x243
 1162 0417 00       		.byte	0
 1163 0418 06       		.uleb128 0x6
 1164 0419 82040000 		.4byte	.LASF53
 1165 041d 09       		.byte	0x9
 1166 041e 60       		.byte	0x60
 1167 041f 0C010000 		.4byte	0x10c
 1168 0423 08       		.byte	0x8
 1169 0424 06       		.uleb128 0x6
 1170 0425 03030000 		.4byte	.LASF54
 1171 0429 09       		.byte	0x9
 1172 042a 62       		.byte	0x62
 1173 042b D2030000 		.4byte	0x3d2
 1174 042f 0C       		.byte	0xc
 1175 0430 06       		.uleb128 0x6
 1176 0431 A2010000 		.4byte	.LASF55
 1177 0435 09       		.byte	0x9
 1178 0436 65       		.byte	0x65
 1179 0437 3D020000 		.4byte	0x23d
 1180 043b 10       		.byte	0x10
 1181 043c 06       		.uleb128 0x6
 1182 043d B3050000 		.4byte	.LASF56
 1183 0441 09       		.byte	0x9
 1184 0442 66       		.byte	0x66
ARM GAS  /tmp/ccBg9yhE.s 			page 22


 1185 0443 3D020000 		.4byte	0x23d
 1186 0447 14       		.byte	0x14
 1187 0448 06       		.uleb128 0x6
 1188 0449 1F030000 		.4byte	.LASF57
 1189 044d 09       		.byte	0x9
 1190 044e 69       		.byte	0x69
 1191 044f 3D020000 		.4byte	0x23d
 1192 0453 18       		.byte	0x18
 1193 0454 00       		.byte	0
 1194 0455 03       		.uleb128 0x3
 1195 0456 19060000 		.4byte	.LASF58
 1196 045a 09       		.byte	0x9
 1197 045b 6B       		.byte	0x6b
 1198 045c 04040000 		.4byte	0x404
 1199 0460 05       		.uleb128 0x5
 1200 0461 8A020000 		.4byte	.LASF59
 1201 0465 10       		.byte	0x10
 1202 0466 0A       		.byte	0xa
 1203 0467 2C       		.byte	0x2c
 1204 0468 91040000 		.4byte	0x491
 1205 046c 06       		.uleb128 0x6
 1206 046d F8000000 		.4byte	.LASF60
 1207 0471 0A       		.byte	0xa
 1208 0472 2D       		.byte	0x2d
 1209 0473 43020000 		.4byte	0x243
 1210 0477 00       		.byte	0
 1211 0478 06       		.uleb128 0x6
 1212 0479 88070000 		.4byte	.LASF61
 1213 047d 0A       		.byte	0xa
 1214 047e 2F       		.byte	0x2f
 1215 047f 3D020000 		.4byte	0x23d
 1216 0483 08       		.byte	0x8
 1217 0484 06       		.uleb128 0x6
 1218 0485 52050000 		.4byte	.LASF62
 1219 0489 0A       		.byte	0xa
 1220 048a 31       		.byte	0x31
 1221 048b 91040000 		.4byte	0x491
 1222 048f 0C       		.byte	0xc
 1223 0490 00       		.byte	0
 1224 0491 09       		.uleb128 0x9
 1225 0492 04       		.byte	0x4
 1226 0493 60040000 		.4byte	0x460
 1227 0497 03       		.uleb128 0x3
 1228 0498 8A020000 		.4byte	.LASF59
 1229 049c 0A       		.byte	0xa
 1230 049d 33       		.byte	0x33
 1231 049e 60040000 		.4byte	0x460
 1232 04a2 0E       		.uleb128 0xe
 1233 04a3 04       		.byte	0x4
 1234 04a4 07       		.byte	0x7
 1235 04a5 96       		.byte	0x96
 1236 04a6 D7040000 		.4byte	0x4d7
 1237 04aa 0F       		.uleb128 0xf
 1238 04ab 2E000000 		.4byte	.LASF63
 1239 04af 07       		.byte	0x7
 1240 04b0 9D       		.byte	0x9d
 1241 04b1 17010000 		.4byte	0x117
ARM GAS  /tmp/ccBg9yhE.s 			page 23


 1242 04b5 0F       		.uleb128 0xf
 1243 04b6 86010000 		.4byte	.LASF64
 1244 04ba 07       		.byte	0x7
 1245 04bb A4       		.byte	0xa4
 1246 04bc 17010000 		.4byte	0x117
 1247 04c0 0F       		.uleb128 0xf
 1248 04c1 5A060000 		.4byte	.LASF65
 1249 04c5 07       		.byte	0x7
 1250 04c6 AB       		.byte	0xab
 1251 04c7 79020000 		.4byte	0x279
 1252 04cb 0F       		.uleb128 0xf
 1253 04cc 89040000 		.4byte	.LASF66
 1254 04d0 07       		.byte	0x7
 1255 04d1 B2       		.byte	0xb2
 1256 04d2 22010000 		.4byte	0x122
 1257 04d6 00       		.byte	0
 1258 04d7 09       		.uleb128 0x9
 1259 04d8 04       		.byte	0x4
 1260 04d9 DD040000 		.4byte	0x4dd
 1261 04dd 10       		.uleb128 0x10
 1262 04de E2040000 		.4byte	0x4e2
 1263 04e2 04       		.uleb128 0x4
 1264 04e3 01       		.byte	0x1
 1265 04e4 08       		.byte	0x8
 1266 04e5 39050000 		.4byte	.LASF67
 1267 04e9 09       		.uleb128 0x9
 1268 04ea 04       		.byte	0x4
 1269 04eb 97040000 		.4byte	0x497
 1270 04ef 03       		.uleb128 0x3
 1271 04f0 00000000 		.4byte	.LASF68
 1272 04f4 07       		.byte	0x7
 1273 04f5 E5       		.byte	0xe5
 1274 04f6 FA040000 		.4byte	0x4fa
 1275 04fa 09       		.uleb128 0x9
 1276 04fb 04       		.byte	0x4
 1277 04fc 00050000 		.4byte	0x500
 1278 0500 11       		.uleb128 0x11
 1279 0501 17010000 		.4byte	0x117
 1280 0505 0F050000 		.4byte	0x50f
 1281 0509 12       		.uleb128 0x12
 1282 050a 79020000 		.4byte	0x279
 1283 050e 00       		.byte	0
 1284 050f 13       		.uleb128 0x13
 1285 0510 CE000000 		.4byte	0xce
 1286 0514 1F050000 		.4byte	0x51f
 1287 0518 14       		.uleb128 0x14
 1288 0519 FD030000 		.4byte	0x3fd
 1289 051d 01       		.byte	0x1
 1290 051e 00       		.byte	0
 1291 051f 0D       		.uleb128 0xd
 1292 0520 C3000000 		.4byte	0xc3
 1293 0524 15       		.uleb128 0x15
 1294 0525 50       		.byte	0x50
 1295 0526 0B       		.byte	0xb
 1296 0527 0A02     		.2byte	0x20a
 1297 0529 30060000 		.4byte	0x630
 1298 052d 0C       		.uleb128 0xc
ARM GAS  /tmp/ccBg9yhE.s 			page 24


 1299 052e 535200   		.ascii	"SR\000"
 1300 0531 0B       		.byte	0xb
 1301 0532 0C02     		.2byte	0x20c
 1302 0534 F8030000 		.4byte	0x3f8
 1303 0538 00       		.byte	0
 1304 0539 0C       		.uleb128 0xc
 1305 053a 43523100 		.ascii	"CR1\000"
 1306 053e 0B       		.byte	0xb
 1307 053f 0D02     		.2byte	0x20d
 1308 0541 F8030000 		.4byte	0x3f8
 1309 0545 04       		.byte	0x4
 1310 0546 0C       		.uleb128 0xc
 1311 0547 43523200 		.ascii	"CR2\000"
 1312 054b 0B       		.byte	0xb
 1313 054c 0E02     		.2byte	0x20e
 1314 054e F8030000 		.4byte	0x3f8
 1315 0552 08       		.byte	0x8
 1316 0553 16       		.uleb128 0x16
 1317 0554 13030000 		.4byte	.LASF69
 1318 0558 0B       		.byte	0xb
 1319 0559 0F02     		.2byte	0x20f
 1320 055b F8030000 		.4byte	0x3f8
 1321 055f 0C       		.byte	0xc
 1322 0560 16       		.uleb128 0x16
 1323 0561 19030000 		.4byte	.LASF70
 1324 0565 0B       		.byte	0xb
 1325 0566 1002     		.2byte	0x210
 1326 0568 F8030000 		.4byte	0x3f8
 1327 056c 10       		.byte	0x10
 1328 056d 16       		.uleb128 0x16
 1329 056e B6020000 		.4byte	.LASF71
 1330 0572 0B       		.byte	0xb
 1331 0573 1102     		.2byte	0x211
 1332 0575 F8030000 		.4byte	0x3f8
 1333 0579 14       		.byte	0x14
 1334 057a 16       		.uleb128 0x16
 1335 057b BC020000 		.4byte	.LASF72
 1336 057f 0B       		.byte	0xb
 1337 0580 1202     		.2byte	0x212
 1338 0582 F8030000 		.4byte	0x3f8
 1339 0586 18       		.byte	0x18
 1340 0587 16       		.uleb128 0x16
 1341 0588 C2020000 		.4byte	.LASF73
 1342 058c 0B       		.byte	0xb
 1343 058d 1302     		.2byte	0x213
 1344 058f F8030000 		.4byte	0x3f8
 1345 0593 1C       		.byte	0x1c
 1346 0594 16       		.uleb128 0x16
 1347 0595 C8020000 		.4byte	.LASF74
 1348 0599 0B       		.byte	0xb
 1349 059a 1402     		.2byte	0x214
 1350 059c F8030000 		.4byte	0x3f8
 1351 05a0 20       		.byte	0x20
 1352 05a1 0C       		.uleb128 0xc
 1353 05a2 48545200 		.ascii	"HTR\000"
 1354 05a6 0B       		.byte	0xb
 1355 05a7 1502     		.2byte	0x215
ARM GAS  /tmp/ccBg9yhE.s 			page 25


 1356 05a9 F8030000 		.4byte	0x3f8
 1357 05ad 24       		.byte	0x24
 1358 05ae 0C       		.uleb128 0xc
 1359 05af 4C545200 		.ascii	"LTR\000"
 1360 05b3 0B       		.byte	0xb
 1361 05b4 1602     		.2byte	0x216
 1362 05b6 F8030000 		.4byte	0x3f8
 1363 05ba 28       		.byte	0x28
 1364 05bb 16       		.uleb128 0x16
 1365 05bc 32030000 		.4byte	.LASF75
 1366 05c0 0B       		.byte	0xb
 1367 05c1 1702     		.2byte	0x217
 1368 05c3 F8030000 		.4byte	0x3f8
 1369 05c7 2C       		.byte	0x2c
 1370 05c8 16       		.uleb128 0x16
 1371 05c9 37030000 		.4byte	.LASF76
 1372 05cd 0B       		.byte	0xb
 1373 05ce 1802     		.2byte	0x218
 1374 05d0 F8030000 		.4byte	0x3f8
 1375 05d4 30       		.byte	0x30
 1376 05d5 16       		.uleb128 0x16
 1377 05d6 3C030000 		.4byte	.LASF77
 1378 05da 0B       		.byte	0xb
 1379 05db 1902     		.2byte	0x219
 1380 05dd F8030000 		.4byte	0x3f8
 1381 05e1 34       		.byte	0x34
 1382 05e2 16       		.uleb128 0x16
 1383 05e3 AC000000 		.4byte	.LASF78
 1384 05e7 0B       		.byte	0xb
 1385 05e8 1A02     		.2byte	0x21a
 1386 05ea F8030000 		.4byte	0x3f8
 1387 05ee 38       		.byte	0x38
 1388 05ef 16       		.uleb128 0x16
 1389 05f0 36060000 		.4byte	.LASF79
 1390 05f4 0B       		.byte	0xb
 1391 05f5 1B02     		.2byte	0x21b
 1392 05f7 F8030000 		.4byte	0x3f8
 1393 05fb 3C       		.byte	0x3c
 1394 05fc 16       		.uleb128 0x16
 1395 05fd E9020000 		.4byte	.LASF80
 1396 0601 0B       		.byte	0xb
 1397 0602 1C02     		.2byte	0x21c
 1398 0604 F8030000 		.4byte	0x3f8
 1399 0608 40       		.byte	0x40
 1400 0609 16       		.uleb128 0x16
 1401 060a 50060000 		.4byte	.LASF81
 1402 060e 0B       		.byte	0xb
 1403 060f 1D02     		.2byte	0x21d
 1404 0611 F8030000 		.4byte	0x3f8
 1405 0615 44       		.byte	0x44
 1406 0616 16       		.uleb128 0x16
 1407 0617 55060000 		.4byte	.LASF82
 1408 061b 0B       		.byte	0xb
 1409 061c 1E02     		.2byte	0x21e
 1410 061e F8030000 		.4byte	0x3f8
 1411 0622 48       		.byte	0x48
 1412 0623 0C       		.uleb128 0xc
ARM GAS  /tmp/ccBg9yhE.s 			page 26


 1413 0624 445200   		.ascii	"DR\000"
 1414 0627 0B       		.byte	0xb
 1415 0628 1F02     		.2byte	0x21f
 1416 062a F8030000 		.4byte	0x3f8
 1417 062e 4C       		.byte	0x4c
 1418 062f 00       		.byte	0
 1419 0630 17       		.uleb128 0x17
 1420 0631 4E010000 		.4byte	.LASF83
 1421 0635 0B       		.byte	0xb
 1422 0636 2002     		.2byte	0x220
 1423 0638 24050000 		.4byte	0x524
 1424 063c 15       		.uleb128 0x15
 1425 063d 90       		.byte	0x90
 1426 063e 0B       		.byte	0xb
 1427 063f 5804     		.2byte	0x458
 1428 0641 E5070000 		.4byte	0x7e5
 1429 0645 0C       		.uleb128 0xc
 1430 0646 435200   		.ascii	"CR\000"
 1431 0649 0B       		.byte	0xb
 1432 064a 5A04     		.2byte	0x45a
 1433 064c F8030000 		.4byte	0x3f8
 1434 0650 00       		.byte	0
 1435 0651 16       		.uleb128 0x16
 1436 0652 62010000 		.4byte	.LASF84
 1437 0656 0B       		.byte	0xb
 1438 0657 5B04     		.2byte	0x45b
 1439 0659 F8030000 		.4byte	0x3f8
 1440 065d 04       		.byte	0x4
 1441 065e 16       		.uleb128 0x16
 1442 065f 74070000 		.4byte	.LASF85
 1443 0663 0B       		.byte	0xb
 1444 0664 5C04     		.2byte	0x45c
 1445 0666 F8030000 		.4byte	0x3f8
 1446 066a 08       		.byte	0x8
 1447 066b 0C       		.uleb128 0xc
 1448 066c 43495200 		.ascii	"CIR\000"
 1449 0670 0B       		.byte	0xb
 1450 0671 5D04     		.2byte	0x45d
 1451 0673 F8030000 		.4byte	0x3f8
 1452 0677 0C       		.byte	0xc
 1453 0678 16       		.uleb128 0x16
 1454 0679 D8000000 		.4byte	.LASF86
 1455 067d 0B       		.byte	0xb
 1456 067e 5E04     		.2byte	0x45e
 1457 0680 F8030000 		.4byte	0x3f8
 1458 0684 10       		.byte	0x10
 1459 0685 16       		.uleb128 0x16
 1460 0686 49050000 		.4byte	.LASF87
 1461 068a 0B       		.byte	0xb
 1462 068b 5F04     		.2byte	0x45f
 1463 068d F8030000 		.4byte	0x3f8
 1464 0691 14       		.byte	0x14
 1465 0692 16       		.uleb128 0x16
 1466 0693 AD040000 		.4byte	.LASF88
 1467 0697 0B       		.byte	0xb
 1468 0698 6004     		.2byte	0x460
 1469 069a F8030000 		.4byte	0x3f8
ARM GAS  /tmp/ccBg9yhE.s 			page 27


 1470 069e 18       		.byte	0x18
 1471 069f 16       		.uleb128 0x16
 1472 06a0 91030000 		.4byte	.LASF89
 1473 06a4 0B       		.byte	0xb
 1474 06a5 6104     		.2byte	0x461
 1475 06a7 CE000000 		.4byte	0xce
 1476 06ab 1C       		.byte	0x1c
 1477 06ac 16       		.uleb128 0x16
 1478 06ad 29030000 		.4byte	.LASF90
 1479 06b1 0B       		.byte	0xb
 1480 06b2 6204     		.2byte	0x462
 1481 06b4 F8030000 		.4byte	0x3f8
 1482 06b8 20       		.byte	0x20
 1483 06b9 16       		.uleb128 0x16
 1484 06ba 29010000 		.4byte	.LASF91
 1485 06be 0B       		.byte	0xb
 1486 06bf 6304     		.2byte	0x463
 1487 06c1 F8030000 		.4byte	0x3f8
 1488 06c5 24       		.byte	0x24
 1489 06c6 16       		.uleb128 0x16
 1490 06c7 91000000 		.4byte	.LASF92
 1491 06cb 0B       		.byte	0xb
 1492 06cc 6404     		.2byte	0x464
 1493 06ce 0F050000 		.4byte	0x50f
 1494 06d2 28       		.byte	0x28
 1495 06d3 16       		.uleb128 0x16
 1496 06d4 6C070000 		.4byte	.LASF93
 1497 06d8 0B       		.byte	0xb
 1498 06d9 6504     		.2byte	0x465
 1499 06db F8030000 		.4byte	0x3f8
 1500 06df 30       		.byte	0x30
 1501 06e0 16       		.uleb128 0x16
 1502 06e1 A3050000 		.4byte	.LASF94
 1503 06e5 0B       		.byte	0xb
 1504 06e6 6604     		.2byte	0x466
 1505 06e8 F8030000 		.4byte	0x3f8
 1506 06ec 34       		.byte	0x34
 1507 06ed 16       		.uleb128 0x16
 1508 06ee BD040000 		.4byte	.LASF95
 1509 06f2 0B       		.byte	0xb
 1510 06f3 6704     		.2byte	0x467
 1511 06f5 F8030000 		.4byte	0x3f8
 1512 06f9 38       		.byte	0x38
 1513 06fa 16       		.uleb128 0x16
 1514 06fb A8030000 		.4byte	.LASF96
 1515 06ff 0B       		.byte	0xb
 1516 0700 6804     		.2byte	0x468
 1517 0702 CE000000 		.4byte	0xce
 1518 0706 3C       		.byte	0x3c
 1519 0707 16       		.uleb128 0x16
 1520 0708 83050000 		.4byte	.LASF97
 1521 070c 0B       		.byte	0xb
 1522 070d 6904     		.2byte	0x469
 1523 070f F8030000 		.4byte	0x3f8
 1524 0713 40       		.byte	0x40
 1525 0714 16       		.uleb128 0x16
 1526 0715 A5040000 		.4byte	.LASF98
ARM GAS  /tmp/ccBg9yhE.s 			page 28


 1527 0719 0B       		.byte	0xb
 1528 071a 6A04     		.2byte	0x46a
 1529 071c F8030000 		.4byte	0x3f8
 1530 0720 44       		.byte	0x44
 1531 0721 16       		.uleb128 0x16
 1532 0722 B2030000 		.4byte	.LASF99
 1533 0726 0B       		.byte	0xb
 1534 0727 6B04     		.2byte	0x46b
 1535 0729 0F050000 		.4byte	0x50f
 1536 072d 48       		.byte	0x48
 1537 072e 16       		.uleb128 0x16
 1538 072f 9B000000 		.4byte	.LASF100
 1539 0733 0B       		.byte	0xb
 1540 0734 6C04     		.2byte	0x46c
 1541 0736 F8030000 		.4byte	0x3f8
 1542 073a 50       		.byte	0x50
 1543 073b 16       		.uleb128 0x16
 1544 073c 09030000 		.4byte	.LASF101
 1545 0740 0B       		.byte	0xb
 1546 0741 6D04     		.2byte	0x46d
 1547 0743 F8030000 		.4byte	0x3f8
 1548 0747 54       		.byte	0x54
 1549 0748 16       		.uleb128 0x16
 1550 0749 78040000 		.4byte	.LASF102
 1551 074d 0B       		.byte	0xb
 1552 074e 6E04     		.2byte	0x46e
 1553 0750 F8030000 		.4byte	0x3f8
 1554 0754 58       		.byte	0x58
 1555 0755 16       		.uleb128 0x16
 1556 0756 D0040000 		.4byte	.LASF103
 1557 075a 0B       		.byte	0xb
 1558 075b 6F04     		.2byte	0x46f
 1559 075d CE000000 		.4byte	0xce
 1560 0761 5C       		.byte	0x5c
 1561 0762 16       		.uleb128 0x16
 1562 0763 32010000 		.4byte	.LASF104
 1563 0767 0B       		.byte	0xb
 1564 0768 7004     		.2byte	0x470
 1565 076a F8030000 		.4byte	0x3f8
 1566 076e 60       		.byte	0x60
 1567 076f 16       		.uleb128 0x16
 1568 0770 68020000 		.4byte	.LASF105
 1569 0774 0B       		.byte	0xb
 1570 0775 7104     		.2byte	0x471
 1571 0777 F8030000 		.4byte	0x3f8
 1572 077b 64       		.byte	0x64
 1573 077c 16       		.uleb128 0x16
 1574 077d DB050000 		.4byte	.LASF106
 1575 0781 0B       		.byte	0xb
 1576 0782 7204     		.2byte	0x472
 1577 0784 0F050000 		.4byte	0x50f
 1578 0788 68       		.byte	0x68
 1579 0789 16       		.uleb128 0x16
 1580 078a 23060000 		.4byte	.LASF107
 1581 078e 0B       		.byte	0xb
 1582 078f 7304     		.2byte	0x473
 1583 0791 F8030000 		.4byte	0x3f8
ARM GAS  /tmp/ccBg9yhE.s 			page 29


 1584 0795 70       		.byte	0x70
 1585 0796 0C       		.uleb128 0xc
 1586 0797 43535200 		.ascii	"CSR\000"
 1587 079b 0B       		.byte	0xb
 1588 079c 7404     		.2byte	0x474
 1589 079e F8030000 		.4byte	0x3f8
 1590 07a2 74       		.byte	0x74
 1591 07a3 16       		.uleb128 0x16
 1592 07a4 EE040000 		.4byte	.LASF108
 1593 07a8 0B       		.byte	0xb
 1594 07a9 7504     		.2byte	0x475
 1595 07ab 0F050000 		.4byte	0x50f
 1596 07af 78       		.byte	0x78
 1597 07b0 16       		.uleb128 0x16
 1598 07b1 F7050000 		.4byte	.LASF109
 1599 07b5 0B       		.byte	0xb
 1600 07b6 7604     		.2byte	0x476
 1601 07b8 F8030000 		.4byte	0x3f8
 1602 07bc 80       		.byte	0x80
 1603 07bd 16       		.uleb128 0x16
 1604 07be 44020000 		.4byte	.LASF110
 1605 07c2 0B       		.byte	0xb
 1606 07c3 7704     		.2byte	0x477
 1607 07c5 F8030000 		.4byte	0x3f8
 1608 07c9 84       		.byte	0x84
 1609 07ca 16       		.uleb128 0x16
 1610 07cb 66030000 		.4byte	.LASF111
 1611 07cf 0B       		.byte	0xb
 1612 07d0 7804     		.2byte	0x478
 1613 07d2 F8030000 		.4byte	0x3f8
 1614 07d6 88       		.byte	0x88
 1615 07d7 16       		.uleb128 0x16
 1616 07d8 B1000000 		.4byte	.LASF112
 1617 07dc 0B       		.byte	0xb
 1618 07dd 7904     		.2byte	0x479
 1619 07df F8030000 		.4byte	0x3f8
 1620 07e3 8C       		.byte	0x8c
 1621 07e4 00       		.byte	0
 1622 07e5 17       		.uleb128 0x17
 1623 07e6 0D020000 		.4byte	.LASF113
 1624 07ea 0B       		.byte	0xb
 1625 07eb 7B04     		.2byte	0x47b
 1626 07ed 3C060000 		.4byte	0x63c
 1627 07f1 08       		.uleb128 0x8
 1628 07f2 04       		.byte	0x4
 1629 07f3 0C       		.byte	0xc
 1630 07f4 96       		.byte	0x96
 1631 07f5 12080000 		.4byte	0x812
 1632 07f9 07       		.uleb128 0x7
 1633 07fa 73657400 		.ascii	"set\000"
 1634 07fe 0C       		.byte	0xc
 1635 07ff 97       		.byte	0x97
 1636 0800 B8000000 		.4byte	0xb8
 1637 0804 00       		.byte	0
 1638 0805 06       		.uleb128 0x6
 1639 0806 E3020000 		.4byte	.LASF114
 1640 080a 0C       		.byte	0xc
ARM GAS  /tmp/ccBg9yhE.s 			page 30


 1641 080b 98       		.byte	0x98
 1642 080c B8000000 		.4byte	0xb8
 1643 0810 02       		.byte	0x2
 1644 0811 00       		.byte	0
 1645 0812 0E       		.uleb128 0xe
 1646 0813 04       		.byte	0x4
 1647 0814 0C       		.byte	0xc
 1648 0815 94       		.byte	0x94
 1649 0816 2D080000 		.4byte	0x82d
 1650 081a 18       		.uleb128 0x18
 1651 081b 5700     		.ascii	"W\000"
 1652 081d 0C       		.byte	0xc
 1653 081e 95       		.byte	0x95
 1654 081f CE000000 		.4byte	0xce
 1655 0823 18       		.uleb128 0x18
 1656 0824 4800     		.ascii	"H\000"
 1657 0826 0C       		.byte	0xc
 1658 0827 99       		.byte	0x99
 1659 0828 F1070000 		.4byte	0x7f1
 1660 082c 00       		.byte	0
 1661 082d 08       		.uleb128 0x8
 1662 082e 28       		.byte	0x28
 1663 082f 0C       		.byte	0xc
 1664 0830 8C       		.byte	0x8c
 1665 0831 AE080000 		.4byte	0x8ae
 1666 0835 06       		.uleb128 0x6
 1667 0836 5C000000 		.4byte	.LASF115
 1668 083a 0C       		.byte	0xc
 1669 083b 8E       		.byte	0x8e
 1670 083c F8030000 		.4byte	0x3f8
 1671 0840 00       		.byte	0
 1672 0841 06       		.uleb128 0x6
 1673 0842 3E000000 		.4byte	.LASF116
 1674 0846 0C       		.byte	0xc
 1675 0847 8F       		.byte	0x8f
 1676 0848 F8030000 		.4byte	0x3f8
 1677 084c 04       		.byte	0x4
 1678 084d 06       		.uleb128 0x6
 1679 084e 9A010000 		.4byte	.LASF117
 1680 0852 0C       		.byte	0xc
 1681 0853 90       		.byte	0x90
 1682 0854 F8030000 		.4byte	0x3f8
 1683 0858 08       		.byte	0x8
 1684 0859 06       		.uleb128 0x6
 1685 085a 19020000 		.4byte	.LASF118
 1686 085e 0C       		.byte	0xc
 1687 085f 91       		.byte	0x91
 1688 0860 F8030000 		.4byte	0x3f8
 1689 0864 0C       		.byte	0xc
 1690 0865 07       		.uleb128 0x7
 1691 0866 49445200 		.ascii	"IDR\000"
 1692 086a 0C       		.byte	0xc
 1693 086b 92       		.byte	0x92
 1694 086c F8030000 		.4byte	0x3f8
 1695 0870 10       		.byte	0x10
 1696 0871 07       		.uleb128 0x7
 1697 0872 4F445200 		.ascii	"ODR\000"
ARM GAS  /tmp/ccBg9yhE.s 			page 31


 1698 0876 0C       		.byte	0xc
 1699 0877 93       		.byte	0x93
 1700 0878 F8030000 		.4byte	0x3f8
 1701 087c 14       		.byte	0x14
 1702 087d 06       		.uleb128 0x6
 1703 087e D3000000 		.4byte	.LASF119
 1704 0882 0C       		.byte	0xc
 1705 0883 9A       		.byte	0x9a
 1706 0884 AE080000 		.4byte	0x8ae
 1707 0888 18       		.byte	0x18
 1708 0889 06       		.uleb128 0x6
 1709 088a 1F020000 		.4byte	.LASF120
 1710 088e 0C       		.byte	0xc
 1711 088f 9B       		.byte	0x9b
 1712 0890 F8030000 		.4byte	0x3f8
 1713 0894 1C       		.byte	0x1c
 1714 0895 06       		.uleb128 0x6
 1715 0896 61030000 		.4byte	.LASF121
 1716 089a 0C       		.byte	0xc
 1717 089b 9C       		.byte	0x9c
 1718 089c F8030000 		.4byte	0x3f8
 1719 08a0 20       		.byte	0x20
 1720 08a1 06       		.uleb128 0x6
 1721 08a2 56030000 		.4byte	.LASF122
 1722 08a6 0C       		.byte	0xc
 1723 08a7 9D       		.byte	0x9d
 1724 08a8 F8030000 		.4byte	0x3f8
 1725 08ac 24       		.byte	0x24
 1726 08ad 00       		.byte	0
 1727 08ae 0D       		.uleb128 0xd
 1728 08af 12080000 		.4byte	0x812
 1729 08b3 03       		.uleb128 0x3
 1730 08b4 00020000 		.4byte	.LASF123
 1731 08b8 0C       		.byte	0xc
 1732 08b9 9E       		.byte	0x9e
 1733 08ba 2D080000 		.4byte	0x82d
 1734 08be 03       		.uleb128 0x3
 1735 08bf 4F000000 		.4byte	.LASF124
 1736 08c3 0C       		.byte	0xc
 1737 08c4 F0       		.byte	0xf0
 1738 08c5 CE000000 		.4byte	0xce
 1739 08c9 03       		.uleb128 0x3
 1740 08ca 7F070000 		.4byte	.LASF125
 1741 08ce 0C       		.byte	0xc
 1742 08cf F5       		.byte	0xf5
 1743 08d0 CE000000 		.4byte	0xce
 1744 08d4 03       		.uleb128 0x3
 1745 08d5 8B050000 		.4byte	.LASF126
 1746 08d9 0C       		.byte	0xc
 1747 08da FD       		.byte	0xfd
 1748 08db DF080000 		.4byte	0x8df
 1749 08df 09       		.uleb128 0x9
 1750 08e0 04       		.byte	0x4
 1751 08e1 B3080000 		.4byte	0x8b3
 1752 08e5 19       		.uleb128 0x19
 1753 08e6 01       		.byte	0x1
 1754 08e7 0D       		.byte	0xd
ARM GAS  /tmp/ccBg9yhE.s 			page 32


 1755 08e8 23       		.byte	0x23
 1756 08e9 1E090000 		.4byte	0x91e
 1757 08ed 1A       		.uleb128 0x1a
 1758 08ee 7A000000 		.4byte	.LASF127
 1759 08f2 00       		.sleb128 0
 1760 08f3 1A       		.uleb128 0x1a
 1761 08f4 61060000 		.4byte	.LASF128
 1762 08f8 01       		.sleb128 1
 1763 08f9 1A       		.uleb128 0x1a
 1764 08fa 66040000 		.4byte	.LASF129
 1765 08fe 02       		.sleb128 2
 1766 08ff 1A       		.uleb128 0x1a
 1767 0900 B3010000 		.4byte	.LASF130
 1768 0904 03       		.sleb128 3
 1769 0905 1A       		.uleb128 0x1a
 1770 0906 14000000 		.4byte	.LASF131
 1771 090a 04       		.sleb128 4
 1772 090b 1A       		.uleb128 0x1a
 1773 090c 08000000 		.4byte	.LASF132
 1774 0910 05       		.sleb128 5
 1775 0911 1A       		.uleb128 0x1a
 1776 0912 96050000 		.4byte	.LASF133
 1777 0916 06       		.sleb128 6
 1778 0917 1A       		.uleb128 0x1a
 1779 0918 DB010000 		.4byte	.LASF134
 1780 091c 07       		.sleb128 7
 1781 091d 00       		.byte	0
 1782 091e 03       		.uleb128 0x3
 1783 091f CE010000 		.4byte	.LASF135
 1784 0923 0D       		.byte	0xd
 1785 0924 2C       		.byte	0x2c
 1786 0925 E5080000 		.4byte	0x8e5
 1787 0929 04       		.uleb128 0x4
 1788 092a 04       		.byte	0x4
 1789 092b 04       		.byte	0x4
 1790 092c 5B030000 		.4byte	.LASF136
 1791 0930 1B       		.uleb128 0x1b
 1792 0931 3B060000 		.4byte	.LASF158
 1793 0935 01       		.byte	0x1
 1794 0936 92       		.byte	0x92
 1795 0937 01       		.byte	0x1
 1796 0938 48090000 		.4byte	0x948
 1797 093c 1C       		.uleb128 0x1c
 1798 093d 70617400 		.ascii	"pat\000"
 1799 0941 01       		.byte	0x1
 1800 0942 92       		.byte	0x92
 1801 0943 CE000000 		.4byte	0xce
 1802 0947 00       		.byte	0
 1803 0948 1D       		.uleb128 0x1d
 1804 0949 F6020000 		.4byte	.LASF165
 1805 094d 01       		.byte	0x1
 1806 094e 2B       		.byte	0x2b
 1807 094f 17010000 		.4byte	0x117
 1808 0953 00000000 		.4byte	.LFB130
 1809 0957 14010000 		.4byte	.LFE130-.LFB130
 1810 095b 01       		.uleb128 0x1
 1811 095c 9C       		.byte	0x9c
ARM GAS  /tmp/ccBg9yhE.s 			page 33


 1812 095d A2090000 		.4byte	0x9a2
 1813 0961 1E       		.uleb128 0x1e
 1814 0962 61726700 		.ascii	"arg\000"
 1815 0966 01       		.byte	0x1
 1816 0967 2B       		.byte	0x2b
 1817 0968 79020000 		.4byte	0x279
 1818 096c 00000000 		.4byte	.LLST0
 1819 0970 1F       		.uleb128 0x1f
 1820 0971 00000000 		.4byte	.Ldebug_ranges0+0
 1821 0975 20       		.uleb128 0x20
 1822 0976 706900   		.ascii	"pi\000"
 1823 0979 01       		.byte	0x1
 1824 097a 32       		.byte	0x32
 1825 097b AD000000 		.4byte	0xad
 1826 097f 21000000 		.4byte	.LLST1
 1827 0983 20       		.uleb128 0x20
 1828 0984 7600     		.ascii	"v\000"
 1829 0986 01       		.byte	0x1
 1830 0987 4D       		.byte	0x4d
 1831 0988 25000000 		.4byte	0x25
 1832 098c 71000000 		.4byte	.LLST2
 1833 0990 21       		.uleb128 0x21
 1834 0991 B4000000 		.4byte	.LVL8
 1835 0995 ED0B0000 		.4byte	0xbed
 1836 0999 22       		.uleb128 0x22
 1837 099a 01       		.uleb128 0x1
 1838 099b 50       		.byte	0x50
 1839 099c 02       		.uleb128 0x2
 1840 099d 08       		.byte	0x8
 1841 099e 64       		.byte	0x64
 1842 099f 00       		.byte	0
 1843 09a0 00       		.byte	0
 1844 09a1 00       		.byte	0
 1845 09a2 23       		.uleb128 0x23
 1846 09a3 CE020000 		.4byte	.LASF139
 1847 09a7 01       		.byte	0x1
 1848 09a8 6D       		.byte	0x6d
 1849 09a9 20010000 		.4byte	.LFB131
 1850 09ad AC000000 		.4byte	.LFE131-.LFB131
 1851 09b1 01       		.uleb128 0x1
 1852 09b2 9C       		.byte	0x9c
 1853 09b3 210A0000 		.4byte	0xa21
 1854 09b7 24       		.uleb128 0x24
 1855 09b8 3C010000 		.4byte	.LVL11
 1856 09bc FF0B0000 		.4byte	0xbff
 1857 09c0 D7090000 		.4byte	0x9d7
 1858 09c4 22       		.uleb128 0x22
 1859 09c5 01       		.uleb128 0x1
 1860 09c6 52       		.byte	0x52
 1861 09c7 01       		.uleb128 0x1
 1862 09c8 31       		.byte	0x31
 1863 09c9 22       		.uleb128 0x22
 1864 09ca 01       		.uleb128 0x1
 1865 09cb 51       		.byte	0x51
 1866 09cc 03       		.uleb128 0x3
 1867 09cd 0A       		.byte	0xa
 1868 09ce 0010     		.2byte	0x1000
ARM GAS  /tmp/ccBg9yhE.s 			page 34


 1869 09d0 22       		.uleb128 0x22
 1870 09d1 01       		.uleb128 0x1
 1871 09d2 50       		.byte	0x50
 1872 09d3 02       		.uleb128 0x2
 1873 09d4 74       		.byte	0x74
 1874 09d5 00       		.sleb128 0
 1875 09d6 00       		.byte	0
 1876 09d7 24       		.uleb128 0x24
 1877 09d8 48010000 		.4byte	.LVL12
 1878 09dc FF0B0000 		.4byte	0xbff
 1879 09e0 F7090000 		.4byte	0x9f7
 1880 09e4 22       		.uleb128 0x22
 1881 09e5 01       		.uleb128 0x1
 1882 09e6 52       		.byte	0x52
 1883 09e7 01       		.uleb128 0x1
 1884 09e8 31       		.byte	0x31
 1885 09e9 22       		.uleb128 0x22
 1886 09ea 01       		.uleb128 0x1
 1887 09eb 51       		.byte	0x51
 1888 09ec 03       		.uleb128 0x3
 1889 09ed 0A       		.byte	0xa
 1890 09ee 0040     		.2byte	0x4000
 1891 09f0 22       		.uleb128 0x22
 1892 09f1 01       		.uleb128 0x1
 1893 09f2 50       		.byte	0x50
 1894 09f3 02       		.uleb128 0x2
 1895 09f4 74       		.byte	0x74
 1896 09f5 00       		.sleb128 0
 1897 09f6 00       		.byte	0
 1898 09f7 21       		.uleb128 0x21
 1899 09f8 A2010000 		.4byte	.LVL13
 1900 09fc 1B0C0000 		.4byte	0xc1b
 1901 0a00 22       		.uleb128 0x22
 1902 0a01 01       		.uleb128 0x1
 1903 0a02 53       		.byte	0x53
 1904 0a03 05       		.uleb128 0x5
 1905 0a04 03       		.byte	0x3
 1906 0a05 00000000 		.4byte	ThreadSysmon
 1907 0a09 22       		.uleb128 0x22
 1908 0a0a 01       		.uleb128 0x1
 1909 0a0b 52       		.byte	0x52
 1910 0a0c 02       		.uleb128 0x2
 1911 0a0d 08       		.byte	0x8
 1912 0a0e 40       		.byte	0x40
 1913 0a0f 22       		.uleb128 0x22
 1914 0a10 01       		.uleb128 0x1
 1915 0a11 51       		.byte	0x51
 1916 0a12 03       		.uleb128 0x3
 1917 0a13 0A       		.byte	0xa
 1918 0a14 5002     		.2byte	0x250
 1919 0a16 22       		.uleb128 0x22
 1920 0a17 01       		.uleb128 0x1
 1921 0a18 50       		.byte	0x50
 1922 0a19 05       		.uleb128 0x5
 1923 0a1a 03       		.byte	0x3
 1924 0a1b 08000000 		.4byte	.LANCHOR1+8
 1925 0a1f 00       		.byte	0
ARM GAS  /tmp/ccBg9yhE.s 			page 35


 1926 0a20 00       		.byte	0
 1927 0a21 25       		.uleb128 0x25
 1928 0a22 09050000 		.4byte	.LASF137
 1929 0a26 01       		.byte	0x1
 1930 0a27 8A       		.byte	0x8a
 1931 0a28 D0010000 		.4byte	.LFB132
 1932 0a2c 0C000000 		.4byte	.LFE132-.LFB132
 1933 0a30 01       		.uleb128 0x1
 1934 0a31 9C       		.byte	0x9c
 1935 0a32 25       		.uleb128 0x25
 1936 0a33 0A010000 		.4byte	.LASF138
 1937 0a37 01       		.byte	0x1
 1938 0a38 8E       		.byte	0x8e
 1939 0a39 E0010000 		.4byte	.LFB133
 1940 0a3d 0C000000 		.4byte	.LFE133-.LFB133
 1941 0a41 01       		.uleb128 0x1
 1942 0a42 9C       		.byte	0x9c
 1943 0a43 26       		.uleb128 0x26
 1944 0a44 30090000 		.4byte	0x930
 1945 0a48 F0010000 		.4byte	.LFB134
 1946 0a4c 14000000 		.4byte	.LFE134-.LFB134
 1947 0a50 01       		.uleb128 0x1
 1948 0a51 9C       		.byte	0x9c
 1949 0a52 5E0A0000 		.4byte	0xa5e
 1950 0a56 27       		.uleb128 0x27
 1951 0a57 3C090000 		.4byte	0x93c
 1952 0a5b 01       		.uleb128 0x1
 1953 0a5c 50       		.byte	0x50
 1954 0a5d 00       		.byte	0
 1955 0a5e 23       		.uleb128 0x23
 1956 0a5f 37020000 		.4byte	.LASF140
 1957 0a63 01       		.byte	0x1
 1958 0a64 99       		.byte	0x99
 1959 0a65 10020000 		.4byte	.LFB135
 1960 0a69 34000000 		.4byte	.LFE135-.LFB135
 1961 0a6d 01       		.uleb128 0x1
 1962 0a6e 9C       		.byte	0x9c
 1963 0a6f 9D0A0000 		.4byte	0xa9d
 1964 0a73 28       		.uleb128 0x28
 1965 0a74 9F040000 		.4byte	.LASF141
 1966 0a78 01       		.byte	0x1
 1967 0a79 99       		.byte	0x99
 1968 0a7a 1E090000 		.4byte	0x91e
 1969 0a7e 84000000 		.4byte	.LLST3
 1970 0a82 29       		.uleb128 0x29
 1971 0a83 30090000 		.4byte	0x930
 1972 0a87 14020000 		.4byte	.LBB6
 1973 0a8b 18000000 		.4byte	.Ldebug_ranges0+0x18
 1974 0a8f 01       		.byte	0x1
 1975 0a90 9C       		.byte	0x9c
 1976 0a91 2A       		.uleb128 0x2a
 1977 0a92 3C090000 		.4byte	0x93c
 1978 0a96 F5EBD7AF 		.sleb128 -168430091
 1978      7F
 1979 0a9b 00       		.byte	0
 1980 0a9c 00       		.byte	0
 1981 0a9d 2B       		.uleb128 0x2b
ARM GAS  /tmp/ccBg9yhE.s 			page 36


 1982 0a9e 9B030000 		.4byte	.LASF166
 1983 0aa2 01       		.byte	0x1
 1984 0aa3 9F       		.byte	0x9f
 1985 0aa4 E4000000 		.4byte	0xe4
 1986 0aa8 50020000 		.4byte	.LFB136
 1987 0aac 18000000 		.4byte	.LFE136-.LFB136
 1988 0ab0 01       		.uleb128 0x1
 1989 0ab1 9C       		.byte	0x9c
 1990 0ab2 C60A0000 		.4byte	0xac6
 1991 0ab6 28       		.uleb128 0x28
 1992 0ab7 9F040000 		.4byte	.LASF141
 1993 0abb 01       		.byte	0x1
 1994 0abc 9F       		.byte	0x9f
 1995 0abd 1E090000 		.4byte	0x91e
 1996 0ac1 A5000000 		.4byte	.LLST4
 1997 0ac5 00       		.byte	0
 1998 0ac6 25       		.uleb128 0x25
 1999 0ac7 71030000 		.4byte	.LASF142
 2000 0acb 01       		.byte	0x1
 2001 0acc A3       		.byte	0xa3
 2002 0acd 70020000 		.4byte	.LFB137
 2003 0ad1 10000000 		.4byte	.LFE137-.LFB137
 2004 0ad5 01       		.uleb128 0x1
 2005 0ad6 9C       		.byte	0x9c
 2006 0ad7 2C       		.uleb128 0x2c
 2007 0ad8 6A010000 		.4byte	.LASF143
 2008 0adc 01       		.byte	0x1
 2009 0add A7       		.byte	0xa7
 2010 0ade B8000000 		.4byte	0xb8
 2011 0ae2 80020000 		.4byte	.LFB138
 2012 0ae6 0C000000 		.4byte	.LFE138-.LFB138
 2013 0aea 01       		.uleb128 0x1
 2014 0aeb 9C       		.byte	0x9c
 2015 0aec 2C       		.uleb128 0x2c
 2016 0aed DA040000 		.4byte	.LASF144
 2017 0af1 01       		.byte	0x1
 2018 0af2 AB       		.byte	0xab
 2019 0af3 B8000000 		.4byte	0xb8
 2020 0af7 90020000 		.4byte	.LFB139
 2021 0afb 0C000000 		.4byte	.LFE139-.LFB139
 2022 0aff 01       		.uleb128 0x1
 2023 0b00 9C       		.byte	0x9c
 2024 0b01 13       		.uleb128 0x13
 2025 0b02 7B020000 		.4byte	0x27b
 2026 0b06 110B0000 		.4byte	0xb11
 2027 0b0a 14       		.uleb128 0x14
 2028 0b0b FD030000 		.4byte	0x3fd
 2029 0b0f 49       		.byte	0x49
 2030 0b10 00       		.byte	0
 2031 0b11 2D       		.uleb128 0x2d
 2032 0b12 C3030000 		.4byte	.LASF145
 2033 0b16 01       		.byte	0x1
 2034 0b17 28       		.byte	0x28
 2035 0b18 010B0000 		.4byte	0xb01
 2036 0b1c 05       		.uleb128 0x5
 2037 0b1d 03       		.byte	0x3
 2038 0b1e 08000000 		.4byte	waThreadSysmon
ARM GAS  /tmp/ccBg9yhE.s 			page 37


 2039 0b22 2E       		.uleb128 0x2e
 2040 0b23 28060000 		.4byte	.LASF146
 2041 0b27 09       		.byte	0x9
 2042 0b28 6F       		.byte	0x6f
 2043 0b29 55040000 		.4byte	0x455
 2044 0b2d 2F       		.uleb128 0x2f
 2045 0b2e 3D040000 		.4byte	.LASF147
 2046 0b32 0E       		.byte	0xe
 2047 0b33 DF07     		.2byte	0x7df
 2048 0b35 1F050000 		.4byte	0x51f
 2049 0b39 13       		.uleb128 0x13
 2050 0b3a 69000000 		.4byte	0x69
 2051 0b3e 490B0000 		.4byte	0xb49
 2052 0b42 14       		.uleb128 0x14
 2053 0b43 FD030000 		.4byte	0x3fd
 2054 0b47 0F       		.byte	0xf
 2055 0b48 00       		.byte	0
 2056 0b49 2E       		.uleb128 0x2e
 2057 0b4a D1050000 		.4byte	.LASF148
 2058 0b4e 0F       		.byte	0xf
 2059 0b4f 18       		.byte	0x18
 2060 0b50 390B0000 		.4byte	0xb39
 2061 0b54 30       		.uleb128 0x30
 2062 0b55 32050000 		.4byte	.LASF149
 2063 0b59 01       		.byte	0x1
 2064 0b5a 1F       		.byte	0x1f
 2065 0b5b E4000000 		.4byte	0xe4
 2066 0b5f 05       		.uleb128 0x5
 2067 0b60 03       		.byte	0x3
 2068 0b61 00000000 		.4byte	repeat
 2069 0b65 30       		.uleb128 0x30
 2070 0b66 FD050000 		.4byte	.LASF150
 2071 0b6a 01       		.byte	0x1
 2072 0b6b 20       		.byte	0x20
 2073 0b6c E4000000 		.4byte	0xe4
 2074 0b70 05       		.uleb128 0x5
 2075 0b71 03       		.byte	0x3
 2076 0b72 00000000 		.4byte	isEnabled
 2077 0b76 30       		.uleb128 0x30
 2078 0b77 F8010000 		.4byte	.LASF151
 2079 0b7b 01       		.byte	0x1
 2080 0b7c 21       		.byte	0x21
 2081 0b7d CE000000 		.4byte	0xce
 2082 0b81 05       		.uleb128 0x5
 2083 0b82 03       		.byte	0x3
 2084 0b83 00000000 		.4byte	pattern
 2085 0b87 30       		.uleb128 0x30
 2086 0b88 8F010000 		.4byte	.LASF152
 2087 0b8c 01       		.byte	0x1
 2088 0b8d 22       		.byte	0x22
 2089 0b8e B8000000 		.4byte	0xb8
 2090 0b92 05       		.uleb128 0x5
 2091 0b93 03       		.byte	0x3
 2092 0b94 00000000 		.4byte	voltage_50
 2093 0b98 30       		.uleb128 0x30
 2094 0b99 C6010000 		.4byte	.LASF153
 2095 0b9d 01       		.byte	0x1
ARM GAS  /tmp/ccBg9yhE.s 			page 38


 2096 0b9e 23       		.byte	0x23
 2097 0b9f B8000000 		.4byte	0xb8
 2098 0ba3 05       		.uleb128 0x5
 2099 0ba4 03       		.byte	0x3
 2100 0ba5 00000000 		.4byte	v50_min
 2101 0ba9 30       		.uleb128 0x30
 2102 0baa 7E010000 		.4byte	.LASF154
 2103 0bae 01       		.byte	0x1
 2104 0baf 24       		.byte	0x24
 2105 0bb0 B8000000 		.4byte	0xb8
 2106 0bb4 05       		.uleb128 0x5
 2107 0bb5 03       		.byte	0x3
 2108 0bb6 00000000 		.4byte	v50_max
 2109 0bba 30       		.uleb128 0x30
 2110 0bbb 6F000000 		.4byte	.LASF155
 2111 0bbf 01       		.byte	0x1
 2112 0bc0 25       		.byte	0x25
 2113 0bc1 E4000000 		.4byte	0xe4
 2114 0bc5 05       		.uleb128 0x5
 2115 0bc6 03       		.byte	0x3
 2116 0bc7 00000000 		.4byte	sdcsw_prev
 2117 0bcb 30       		.uleb128 0x30
 2118 0bcc 83030000 		.4byte	.LASF156
 2119 0bd0 01       		.byte	0x1
 2120 0bd1 27       		.byte	0x27
 2121 0bd2 F3030000 		.4byte	0x3f3
 2122 0bd6 05       		.uleb128 0x5
 2123 0bd7 03       		.byte	0x3
 2124 0bd8 00000000 		.4byte	pattern_index
 2125 0bdc 30       		.uleb128 0x30
 2126 0bdd 55020000 		.4byte	.LASF157
 2127 0be1 01       		.byte	0x1
 2128 0be2 97       		.byte	0x97
 2129 0be3 CE000000 		.4byte	0xce
 2130 0be7 05       		.uleb128 0x5
 2131 0be8 03       		.byte	0x3
 2132 0be9 00000000 		.4byte	errorflags
 2133 0bed 31       		.uleb128 0x31
 2134 0bee 07060000 		.4byte	.LASF159
 2135 0bf2 07       		.byte	0x7
 2136 0bf3 7501     		.2byte	0x175
 2137 0bf5 FF0B0000 		.4byte	0xbff
 2138 0bf9 12       		.uleb128 0x12
 2139 0bfa 2D010000 		.4byte	0x12d
 2140 0bfe 00       		.byte	0
 2141 0bff 31       		.uleb128 0x31
 2142 0c00 BB050000 		.4byte	.LASF160
 2143 0c04 0C       		.byte	0xc
 2144 0c05 C201     		.2byte	0x1c2
 2145 0c07 1B0C0000 		.4byte	0xc1b
 2146 0c0b 12       		.uleb128 0x12
 2147 0c0c D4080000 		.4byte	0x8d4
 2148 0c10 12       		.uleb128 0x12
 2149 0c11 BE080000 		.4byte	0x8be
 2150 0c15 12       		.uleb128 0x12
 2151 0c16 C9080000 		.4byte	0x8c9
 2152 0c1a 00       		.byte	0
ARM GAS  /tmp/ccBg9yhE.s 			page 39


 2153 0c1b 32       		.uleb128 0x32
 2154 0c1c A4020000 		.4byte	.LASF161
 2155 0c20 07       		.byte	0x7
 2156 0c21 7001     		.2byte	0x170
 2157 0c23 3D020000 		.4byte	0x23d
 2158 0c27 12       		.uleb128 0x12
 2159 0c28 79020000 		.4byte	0x279
 2160 0c2c 12       		.uleb128 0x12
 2161 0c2d 2C000000 		.4byte	0x2c
 2162 0c31 12       		.uleb128 0x12
 2163 0c32 0C010000 		.4byte	0x10c
 2164 0c36 12       		.uleb128 0x12
 2165 0c37 EF040000 		.4byte	0x4ef
 2166 0c3b 12       		.uleb128 0x12
 2167 0c3c 79020000 		.4byte	0x279
 2168 0c40 00       		.byte	0
 2169 0c41 00       		.byte	0
 2170              		.section	.debug_abbrev,"",%progbits
 2171              	.Ldebug_abbrev0:
 2172 0000 01       		.uleb128 0x1
 2173 0001 11       		.uleb128 0x11
 2174 0002 01       		.byte	0x1
 2175 0003 25       		.uleb128 0x25
 2176 0004 0E       		.uleb128 0xe
 2177 0005 13       		.uleb128 0x13
 2178 0006 0B       		.uleb128 0xb
 2179 0007 03       		.uleb128 0x3
 2180 0008 0E       		.uleb128 0xe
 2181 0009 1B       		.uleb128 0x1b
 2182 000a 0E       		.uleb128 0xe
 2183 000b 11       		.uleb128 0x11
 2184 000c 01       		.uleb128 0x1
 2185 000d 12       		.uleb128 0x12
 2186 000e 06       		.uleb128 0x6
 2187 000f 10       		.uleb128 0x10
 2188 0010 17       		.uleb128 0x17
 2189 0011 00       		.byte	0
 2190 0012 00       		.byte	0
 2191 0013 02       		.uleb128 0x2
 2192 0014 24       		.uleb128 0x24
 2193 0015 00       		.byte	0
 2194 0016 0B       		.uleb128 0xb
 2195 0017 0B       		.uleb128 0xb
 2196 0018 3E       		.uleb128 0x3e
 2197 0019 0B       		.uleb128 0xb
 2198 001a 03       		.uleb128 0x3
 2199 001b 08       		.uleb128 0x8
 2200 001c 00       		.byte	0
 2201 001d 00       		.byte	0
 2202 001e 03       		.uleb128 0x3
 2203 001f 16       		.uleb128 0x16
 2204 0020 00       		.byte	0
 2205 0021 03       		.uleb128 0x3
 2206 0022 0E       		.uleb128 0xe
 2207 0023 3A       		.uleb128 0x3a
 2208 0024 0B       		.uleb128 0xb
 2209 0025 3B       		.uleb128 0x3b
ARM GAS  /tmp/ccBg9yhE.s 			page 40


 2210 0026 0B       		.uleb128 0xb
 2211 0027 49       		.uleb128 0x49
 2212 0028 13       		.uleb128 0x13
 2213 0029 00       		.byte	0
 2214 002a 00       		.byte	0
 2215 002b 04       		.uleb128 0x4
 2216 002c 24       		.uleb128 0x24
 2217 002d 00       		.byte	0
 2218 002e 0B       		.uleb128 0xb
 2219 002f 0B       		.uleb128 0xb
 2220 0030 3E       		.uleb128 0x3e
 2221 0031 0B       		.uleb128 0xb
 2222 0032 03       		.uleb128 0x3
 2223 0033 0E       		.uleb128 0xe
 2224 0034 00       		.byte	0
 2225 0035 00       		.byte	0
 2226 0036 05       		.uleb128 0x5
 2227 0037 13       		.uleb128 0x13
 2228 0038 01       		.byte	0x1
 2229 0039 03       		.uleb128 0x3
 2230 003a 0E       		.uleb128 0xe
 2231 003b 0B       		.uleb128 0xb
 2232 003c 0B       		.uleb128 0xb
 2233 003d 3A       		.uleb128 0x3a
 2234 003e 0B       		.uleb128 0xb
 2235 003f 3B       		.uleb128 0x3b
 2236 0040 0B       		.uleb128 0xb
 2237 0041 01       		.uleb128 0x1
 2238 0042 13       		.uleb128 0x13
 2239 0043 00       		.byte	0
 2240 0044 00       		.byte	0
 2241 0045 06       		.uleb128 0x6
 2242 0046 0D       		.uleb128 0xd
 2243 0047 00       		.byte	0
 2244 0048 03       		.uleb128 0x3
 2245 0049 0E       		.uleb128 0xe
 2246 004a 3A       		.uleb128 0x3a
 2247 004b 0B       		.uleb128 0xb
 2248 004c 3B       		.uleb128 0x3b
 2249 004d 0B       		.uleb128 0xb
 2250 004e 49       		.uleb128 0x49
 2251 004f 13       		.uleb128 0x13
 2252 0050 38       		.uleb128 0x38
 2253 0051 0B       		.uleb128 0xb
 2254 0052 00       		.byte	0
 2255 0053 00       		.byte	0
 2256 0054 07       		.uleb128 0x7
 2257 0055 0D       		.uleb128 0xd
 2258 0056 00       		.byte	0
 2259 0057 03       		.uleb128 0x3
 2260 0058 08       		.uleb128 0x8
 2261 0059 3A       		.uleb128 0x3a
 2262 005a 0B       		.uleb128 0xb
 2263 005b 3B       		.uleb128 0x3b
 2264 005c 0B       		.uleb128 0xb
 2265 005d 49       		.uleb128 0x49
 2266 005e 13       		.uleb128 0x13
ARM GAS  /tmp/ccBg9yhE.s 			page 41


 2267 005f 38       		.uleb128 0x38
 2268 0060 0B       		.uleb128 0xb
 2269 0061 00       		.byte	0
 2270 0062 00       		.byte	0
 2271 0063 08       		.uleb128 0x8
 2272 0064 13       		.uleb128 0x13
 2273 0065 01       		.byte	0x1
 2274 0066 0B       		.uleb128 0xb
 2275 0067 0B       		.uleb128 0xb
 2276 0068 3A       		.uleb128 0x3a
 2277 0069 0B       		.uleb128 0xb
 2278 006a 3B       		.uleb128 0x3b
 2279 006b 0B       		.uleb128 0xb
 2280 006c 01       		.uleb128 0x1
 2281 006d 13       		.uleb128 0x13
 2282 006e 00       		.byte	0
 2283 006f 00       		.byte	0
 2284 0070 09       		.uleb128 0x9
 2285 0071 0F       		.uleb128 0xf
 2286 0072 00       		.byte	0
 2287 0073 0B       		.uleb128 0xb
 2288 0074 0B       		.uleb128 0xb
 2289 0075 49       		.uleb128 0x49
 2290 0076 13       		.uleb128 0x13
 2291 0077 00       		.byte	0
 2292 0078 00       		.byte	0
 2293 0079 0A       		.uleb128 0xa
 2294 007a 0F       		.uleb128 0xf
 2295 007b 00       		.byte	0
 2296 007c 0B       		.uleb128 0xb
 2297 007d 0B       		.uleb128 0xb
 2298 007e 00       		.byte	0
 2299 007f 00       		.byte	0
 2300 0080 0B       		.uleb128 0xb
 2301 0081 13       		.uleb128 0x13
 2302 0082 01       		.byte	0x1
 2303 0083 03       		.uleb128 0x3
 2304 0084 0E       		.uleb128 0xe
 2305 0085 0B       		.uleb128 0xb
 2306 0086 0B       		.uleb128 0xb
 2307 0087 3A       		.uleb128 0x3a
 2308 0088 0B       		.uleb128 0xb
 2309 0089 3B       		.uleb128 0x3b
 2310 008a 05       		.uleb128 0x5
 2311 008b 01       		.uleb128 0x1
 2312 008c 13       		.uleb128 0x13
 2313 008d 00       		.byte	0
 2314 008e 00       		.byte	0
 2315 008f 0C       		.uleb128 0xc
 2316 0090 0D       		.uleb128 0xd
 2317 0091 00       		.byte	0
 2318 0092 03       		.uleb128 0x3
 2319 0093 08       		.uleb128 0x8
 2320 0094 3A       		.uleb128 0x3a
 2321 0095 0B       		.uleb128 0xb
 2322 0096 3B       		.uleb128 0x3b
 2323 0097 05       		.uleb128 0x5
ARM GAS  /tmp/ccBg9yhE.s 			page 42


 2324 0098 49       		.uleb128 0x49
 2325 0099 13       		.uleb128 0x13
 2326 009a 38       		.uleb128 0x38
 2327 009b 0B       		.uleb128 0xb
 2328 009c 00       		.byte	0
 2329 009d 00       		.byte	0
 2330 009e 0D       		.uleb128 0xd
 2331 009f 35       		.uleb128 0x35
 2332 00a0 00       		.byte	0
 2333 00a1 49       		.uleb128 0x49
 2334 00a2 13       		.uleb128 0x13
 2335 00a3 00       		.byte	0
 2336 00a4 00       		.byte	0
 2337 00a5 0E       		.uleb128 0xe
 2338 00a6 17       		.uleb128 0x17
 2339 00a7 01       		.byte	0x1
 2340 00a8 0B       		.uleb128 0xb
 2341 00a9 0B       		.uleb128 0xb
 2342 00aa 3A       		.uleb128 0x3a
 2343 00ab 0B       		.uleb128 0xb
 2344 00ac 3B       		.uleb128 0x3b
 2345 00ad 0B       		.uleb128 0xb
 2346 00ae 01       		.uleb128 0x1
 2347 00af 13       		.uleb128 0x13
 2348 00b0 00       		.byte	0
 2349 00b1 00       		.byte	0
 2350 00b2 0F       		.uleb128 0xf
 2351 00b3 0D       		.uleb128 0xd
 2352 00b4 00       		.byte	0
 2353 00b5 03       		.uleb128 0x3
 2354 00b6 0E       		.uleb128 0xe
 2355 00b7 3A       		.uleb128 0x3a
 2356 00b8 0B       		.uleb128 0xb
 2357 00b9 3B       		.uleb128 0x3b
 2358 00ba 0B       		.uleb128 0xb
 2359 00bb 49       		.uleb128 0x49
 2360 00bc 13       		.uleb128 0x13
 2361 00bd 00       		.byte	0
 2362 00be 00       		.byte	0
 2363 00bf 10       		.uleb128 0x10
 2364 00c0 26       		.uleb128 0x26
 2365 00c1 00       		.byte	0
 2366 00c2 49       		.uleb128 0x49
 2367 00c3 13       		.uleb128 0x13
 2368 00c4 00       		.byte	0
 2369 00c5 00       		.byte	0
 2370 00c6 11       		.uleb128 0x11
 2371 00c7 15       		.uleb128 0x15
 2372 00c8 01       		.byte	0x1
 2373 00c9 27       		.uleb128 0x27
 2374 00ca 19       		.uleb128 0x19
 2375 00cb 49       		.uleb128 0x49
 2376 00cc 13       		.uleb128 0x13
 2377 00cd 01       		.uleb128 0x1
 2378 00ce 13       		.uleb128 0x13
 2379 00cf 00       		.byte	0
 2380 00d0 00       		.byte	0
ARM GAS  /tmp/ccBg9yhE.s 			page 43


 2381 00d1 12       		.uleb128 0x12
 2382 00d2 05       		.uleb128 0x5
 2383 00d3 00       		.byte	0
 2384 00d4 49       		.uleb128 0x49
 2385 00d5 13       		.uleb128 0x13
 2386 00d6 00       		.byte	0
 2387 00d7 00       		.byte	0
 2388 00d8 13       		.uleb128 0x13
 2389 00d9 01       		.uleb128 0x1
 2390 00da 01       		.byte	0x1
 2391 00db 49       		.uleb128 0x49
 2392 00dc 13       		.uleb128 0x13
 2393 00dd 01       		.uleb128 0x1
 2394 00de 13       		.uleb128 0x13
 2395 00df 00       		.byte	0
 2396 00e0 00       		.byte	0
 2397 00e1 14       		.uleb128 0x14
 2398 00e2 21       		.uleb128 0x21
 2399 00e3 00       		.byte	0
 2400 00e4 49       		.uleb128 0x49
 2401 00e5 13       		.uleb128 0x13
 2402 00e6 2F       		.uleb128 0x2f
 2403 00e7 0B       		.uleb128 0xb
 2404 00e8 00       		.byte	0
 2405 00e9 00       		.byte	0
 2406 00ea 15       		.uleb128 0x15
 2407 00eb 13       		.uleb128 0x13
 2408 00ec 01       		.byte	0x1
 2409 00ed 0B       		.uleb128 0xb
 2410 00ee 0B       		.uleb128 0xb
 2411 00ef 3A       		.uleb128 0x3a
 2412 00f0 0B       		.uleb128 0xb
 2413 00f1 3B       		.uleb128 0x3b
 2414 00f2 05       		.uleb128 0x5
 2415 00f3 01       		.uleb128 0x1
 2416 00f4 13       		.uleb128 0x13
 2417 00f5 00       		.byte	0
 2418 00f6 00       		.byte	0
 2419 00f7 16       		.uleb128 0x16
 2420 00f8 0D       		.uleb128 0xd
 2421 00f9 00       		.byte	0
 2422 00fa 03       		.uleb128 0x3
 2423 00fb 0E       		.uleb128 0xe
 2424 00fc 3A       		.uleb128 0x3a
 2425 00fd 0B       		.uleb128 0xb
 2426 00fe 3B       		.uleb128 0x3b
 2427 00ff 05       		.uleb128 0x5
 2428 0100 49       		.uleb128 0x49
 2429 0101 13       		.uleb128 0x13
 2430 0102 38       		.uleb128 0x38
 2431 0103 0B       		.uleb128 0xb
 2432 0104 00       		.byte	0
 2433 0105 00       		.byte	0
 2434 0106 17       		.uleb128 0x17
 2435 0107 16       		.uleb128 0x16
 2436 0108 00       		.byte	0
 2437 0109 03       		.uleb128 0x3
ARM GAS  /tmp/ccBg9yhE.s 			page 44


 2438 010a 0E       		.uleb128 0xe
 2439 010b 3A       		.uleb128 0x3a
 2440 010c 0B       		.uleb128 0xb
 2441 010d 3B       		.uleb128 0x3b
 2442 010e 05       		.uleb128 0x5
 2443 010f 49       		.uleb128 0x49
 2444 0110 13       		.uleb128 0x13
 2445 0111 00       		.byte	0
 2446 0112 00       		.byte	0
 2447 0113 18       		.uleb128 0x18
 2448 0114 0D       		.uleb128 0xd
 2449 0115 00       		.byte	0
 2450 0116 03       		.uleb128 0x3
 2451 0117 08       		.uleb128 0x8
 2452 0118 3A       		.uleb128 0x3a
 2453 0119 0B       		.uleb128 0xb
 2454 011a 3B       		.uleb128 0x3b
 2455 011b 0B       		.uleb128 0xb
 2456 011c 49       		.uleb128 0x49
 2457 011d 13       		.uleb128 0x13
 2458 011e 00       		.byte	0
 2459 011f 00       		.byte	0
 2460 0120 19       		.uleb128 0x19
 2461 0121 04       		.uleb128 0x4
 2462 0122 01       		.byte	0x1
 2463 0123 0B       		.uleb128 0xb
 2464 0124 0B       		.uleb128 0xb
 2465 0125 3A       		.uleb128 0x3a
 2466 0126 0B       		.uleb128 0xb
 2467 0127 3B       		.uleb128 0x3b
 2468 0128 0B       		.uleb128 0xb
 2469 0129 01       		.uleb128 0x1
 2470 012a 13       		.uleb128 0x13
 2471 012b 00       		.byte	0
 2472 012c 00       		.byte	0
 2473 012d 1A       		.uleb128 0x1a
 2474 012e 28       		.uleb128 0x28
 2475 012f 00       		.byte	0
 2476 0130 03       		.uleb128 0x3
 2477 0131 0E       		.uleb128 0xe
 2478 0132 1C       		.uleb128 0x1c
 2479 0133 0D       		.uleb128 0xd
 2480 0134 00       		.byte	0
 2481 0135 00       		.byte	0
 2482 0136 1B       		.uleb128 0x1b
 2483 0137 2E       		.uleb128 0x2e
 2484 0138 01       		.byte	0x1
 2485 0139 3F       		.uleb128 0x3f
 2486 013a 19       		.uleb128 0x19
 2487 013b 03       		.uleb128 0x3
 2488 013c 0E       		.uleb128 0xe
 2489 013d 3A       		.uleb128 0x3a
 2490 013e 0B       		.uleb128 0xb
 2491 013f 3B       		.uleb128 0x3b
 2492 0140 0B       		.uleb128 0xb
 2493 0141 27       		.uleb128 0x27
 2494 0142 19       		.uleb128 0x19
ARM GAS  /tmp/ccBg9yhE.s 			page 45


 2495 0143 20       		.uleb128 0x20
 2496 0144 0B       		.uleb128 0xb
 2497 0145 01       		.uleb128 0x1
 2498 0146 13       		.uleb128 0x13
 2499 0147 00       		.byte	0
 2500 0148 00       		.byte	0
 2501 0149 1C       		.uleb128 0x1c
 2502 014a 05       		.uleb128 0x5
 2503 014b 00       		.byte	0
 2504 014c 03       		.uleb128 0x3
 2505 014d 08       		.uleb128 0x8
 2506 014e 3A       		.uleb128 0x3a
 2507 014f 0B       		.uleb128 0xb
 2508 0150 3B       		.uleb128 0x3b
 2509 0151 0B       		.uleb128 0xb
 2510 0152 49       		.uleb128 0x49
 2511 0153 13       		.uleb128 0x13
 2512 0154 00       		.byte	0
 2513 0155 00       		.byte	0
 2514 0156 1D       		.uleb128 0x1d
 2515 0157 2E       		.uleb128 0x2e
 2516 0158 01       		.byte	0x1
 2517 0159 03       		.uleb128 0x3
 2518 015a 0E       		.uleb128 0xe
 2519 015b 3A       		.uleb128 0x3a
 2520 015c 0B       		.uleb128 0xb
 2521 015d 3B       		.uleb128 0x3b
 2522 015e 0B       		.uleb128 0xb
 2523 015f 27       		.uleb128 0x27
 2524 0160 19       		.uleb128 0x19
 2525 0161 49       		.uleb128 0x49
 2526 0162 13       		.uleb128 0x13
 2527 0163 11       		.uleb128 0x11
 2528 0164 01       		.uleb128 0x1
 2529 0165 12       		.uleb128 0x12
 2530 0166 06       		.uleb128 0x6
 2531 0167 40       		.uleb128 0x40
 2532 0168 18       		.uleb128 0x18
 2533 0169 9742     		.uleb128 0x2117
 2534 016b 19       		.uleb128 0x19
 2535 016c 01       		.uleb128 0x1
 2536 016d 13       		.uleb128 0x13
 2537 016e 00       		.byte	0
 2538 016f 00       		.byte	0
 2539 0170 1E       		.uleb128 0x1e
 2540 0171 05       		.uleb128 0x5
 2541 0172 00       		.byte	0
 2542 0173 03       		.uleb128 0x3
 2543 0174 08       		.uleb128 0x8
 2544 0175 3A       		.uleb128 0x3a
 2545 0176 0B       		.uleb128 0xb
 2546 0177 3B       		.uleb128 0x3b
 2547 0178 0B       		.uleb128 0xb
 2548 0179 49       		.uleb128 0x49
 2549 017a 13       		.uleb128 0x13
 2550 017b 02       		.uleb128 0x2
 2551 017c 17       		.uleb128 0x17
ARM GAS  /tmp/ccBg9yhE.s 			page 46


 2552 017d 00       		.byte	0
 2553 017e 00       		.byte	0
 2554 017f 1F       		.uleb128 0x1f
 2555 0180 0B       		.uleb128 0xb
 2556 0181 01       		.byte	0x1
 2557 0182 55       		.uleb128 0x55
 2558 0183 17       		.uleb128 0x17
 2559 0184 00       		.byte	0
 2560 0185 00       		.byte	0
 2561 0186 20       		.uleb128 0x20
 2562 0187 34       		.uleb128 0x34
 2563 0188 00       		.byte	0
 2564 0189 03       		.uleb128 0x3
 2565 018a 08       		.uleb128 0x8
 2566 018b 3A       		.uleb128 0x3a
 2567 018c 0B       		.uleb128 0xb
 2568 018d 3B       		.uleb128 0x3b
 2569 018e 0B       		.uleb128 0xb
 2570 018f 49       		.uleb128 0x49
 2571 0190 13       		.uleb128 0x13
 2572 0191 02       		.uleb128 0x2
 2573 0192 17       		.uleb128 0x17
 2574 0193 00       		.byte	0
 2575 0194 00       		.byte	0
 2576 0195 21       		.uleb128 0x21
 2577 0196 898201   		.uleb128 0x4109
 2578 0199 01       		.byte	0x1
 2579 019a 11       		.uleb128 0x11
 2580 019b 01       		.uleb128 0x1
 2581 019c 31       		.uleb128 0x31
 2582 019d 13       		.uleb128 0x13
 2583 019e 00       		.byte	0
 2584 019f 00       		.byte	0
 2585 01a0 22       		.uleb128 0x22
 2586 01a1 8A8201   		.uleb128 0x410a
 2587 01a4 00       		.byte	0
 2588 01a5 02       		.uleb128 0x2
 2589 01a6 18       		.uleb128 0x18
 2590 01a7 9142     		.uleb128 0x2111
 2591 01a9 18       		.uleb128 0x18
 2592 01aa 00       		.byte	0
 2593 01ab 00       		.byte	0
 2594 01ac 23       		.uleb128 0x23
 2595 01ad 2E       		.uleb128 0x2e
 2596 01ae 01       		.byte	0x1
 2597 01af 3F       		.uleb128 0x3f
 2598 01b0 19       		.uleb128 0x19
 2599 01b1 03       		.uleb128 0x3
 2600 01b2 0E       		.uleb128 0xe
 2601 01b3 3A       		.uleb128 0x3a
 2602 01b4 0B       		.uleb128 0xb
 2603 01b5 3B       		.uleb128 0x3b
 2604 01b6 0B       		.uleb128 0xb
 2605 01b7 27       		.uleb128 0x27
 2606 01b8 19       		.uleb128 0x19
 2607 01b9 11       		.uleb128 0x11
 2608 01ba 01       		.uleb128 0x1
ARM GAS  /tmp/ccBg9yhE.s 			page 47


 2609 01bb 12       		.uleb128 0x12
 2610 01bc 06       		.uleb128 0x6
 2611 01bd 40       		.uleb128 0x40
 2612 01be 18       		.uleb128 0x18
 2613 01bf 9742     		.uleb128 0x2117
 2614 01c1 19       		.uleb128 0x19
 2615 01c2 01       		.uleb128 0x1
 2616 01c3 13       		.uleb128 0x13
 2617 01c4 00       		.byte	0
 2618 01c5 00       		.byte	0
 2619 01c6 24       		.uleb128 0x24
 2620 01c7 898201   		.uleb128 0x4109
 2621 01ca 01       		.byte	0x1
 2622 01cb 11       		.uleb128 0x11
 2623 01cc 01       		.uleb128 0x1
 2624 01cd 31       		.uleb128 0x31
 2625 01ce 13       		.uleb128 0x13
 2626 01cf 01       		.uleb128 0x1
 2627 01d0 13       		.uleb128 0x13
 2628 01d1 00       		.byte	0
 2629 01d2 00       		.byte	0
 2630 01d3 25       		.uleb128 0x25
 2631 01d4 2E       		.uleb128 0x2e
 2632 01d5 00       		.byte	0
 2633 01d6 3F       		.uleb128 0x3f
 2634 01d7 19       		.uleb128 0x19
 2635 01d8 03       		.uleb128 0x3
 2636 01d9 0E       		.uleb128 0xe
 2637 01da 3A       		.uleb128 0x3a
 2638 01db 0B       		.uleb128 0xb
 2639 01dc 3B       		.uleb128 0x3b
 2640 01dd 0B       		.uleb128 0xb
 2641 01de 27       		.uleb128 0x27
 2642 01df 19       		.uleb128 0x19
 2643 01e0 11       		.uleb128 0x11
 2644 01e1 01       		.uleb128 0x1
 2645 01e2 12       		.uleb128 0x12
 2646 01e3 06       		.uleb128 0x6
 2647 01e4 40       		.uleb128 0x40
 2648 01e5 18       		.uleb128 0x18
 2649 01e6 9742     		.uleb128 0x2117
 2650 01e8 19       		.uleb128 0x19
 2651 01e9 00       		.byte	0
 2652 01ea 00       		.byte	0
 2653 01eb 26       		.uleb128 0x26
 2654 01ec 2E       		.uleb128 0x2e
 2655 01ed 01       		.byte	0x1
 2656 01ee 31       		.uleb128 0x31
 2657 01ef 13       		.uleb128 0x13
 2658 01f0 11       		.uleb128 0x11
 2659 01f1 01       		.uleb128 0x1
 2660 01f2 12       		.uleb128 0x12
 2661 01f3 06       		.uleb128 0x6
 2662 01f4 40       		.uleb128 0x40
 2663 01f5 18       		.uleb128 0x18
 2664 01f6 9742     		.uleb128 0x2117
 2665 01f8 19       		.uleb128 0x19
ARM GAS  /tmp/ccBg9yhE.s 			page 48


 2666 01f9 01       		.uleb128 0x1
 2667 01fa 13       		.uleb128 0x13
 2668 01fb 00       		.byte	0
 2669 01fc 00       		.byte	0
 2670 01fd 27       		.uleb128 0x27
 2671 01fe 05       		.uleb128 0x5
 2672 01ff 00       		.byte	0
 2673 0200 31       		.uleb128 0x31
 2674 0201 13       		.uleb128 0x13
 2675 0202 02       		.uleb128 0x2
 2676 0203 18       		.uleb128 0x18
 2677 0204 00       		.byte	0
 2678 0205 00       		.byte	0
 2679 0206 28       		.uleb128 0x28
 2680 0207 05       		.uleb128 0x5
 2681 0208 00       		.byte	0
 2682 0209 03       		.uleb128 0x3
 2683 020a 0E       		.uleb128 0xe
 2684 020b 3A       		.uleb128 0x3a
 2685 020c 0B       		.uleb128 0xb
 2686 020d 3B       		.uleb128 0x3b
 2687 020e 0B       		.uleb128 0xb
 2688 020f 49       		.uleb128 0x49
 2689 0210 13       		.uleb128 0x13
 2690 0211 02       		.uleb128 0x2
 2691 0212 17       		.uleb128 0x17
 2692 0213 00       		.byte	0
 2693 0214 00       		.byte	0
 2694 0215 29       		.uleb128 0x29
 2695 0216 1D       		.uleb128 0x1d
 2696 0217 01       		.byte	0x1
 2697 0218 31       		.uleb128 0x31
 2698 0219 13       		.uleb128 0x13
 2699 021a 52       		.uleb128 0x52
 2700 021b 01       		.uleb128 0x1
 2701 021c 55       		.uleb128 0x55
 2702 021d 17       		.uleb128 0x17
 2703 021e 58       		.uleb128 0x58
 2704 021f 0B       		.uleb128 0xb
 2705 0220 59       		.uleb128 0x59
 2706 0221 0B       		.uleb128 0xb
 2707 0222 00       		.byte	0
 2708 0223 00       		.byte	0
 2709 0224 2A       		.uleb128 0x2a
 2710 0225 05       		.uleb128 0x5
 2711 0226 00       		.byte	0
 2712 0227 31       		.uleb128 0x31
 2713 0228 13       		.uleb128 0x13
 2714 0229 1C       		.uleb128 0x1c
 2715 022a 0D       		.uleb128 0xd
 2716 022b 00       		.byte	0
 2717 022c 00       		.byte	0
 2718 022d 2B       		.uleb128 0x2b
 2719 022e 2E       		.uleb128 0x2e
 2720 022f 01       		.byte	0x1
 2721 0230 3F       		.uleb128 0x3f
 2722 0231 19       		.uleb128 0x19
ARM GAS  /tmp/ccBg9yhE.s 			page 49


 2723 0232 03       		.uleb128 0x3
 2724 0233 0E       		.uleb128 0xe
 2725 0234 3A       		.uleb128 0x3a
 2726 0235 0B       		.uleb128 0xb
 2727 0236 3B       		.uleb128 0x3b
 2728 0237 0B       		.uleb128 0xb
 2729 0238 27       		.uleb128 0x27
 2730 0239 19       		.uleb128 0x19
 2731 023a 49       		.uleb128 0x49
 2732 023b 13       		.uleb128 0x13
 2733 023c 11       		.uleb128 0x11
 2734 023d 01       		.uleb128 0x1
 2735 023e 12       		.uleb128 0x12
 2736 023f 06       		.uleb128 0x6
 2737 0240 40       		.uleb128 0x40
 2738 0241 18       		.uleb128 0x18
 2739 0242 9742     		.uleb128 0x2117
 2740 0244 19       		.uleb128 0x19
 2741 0245 01       		.uleb128 0x1
 2742 0246 13       		.uleb128 0x13
 2743 0247 00       		.byte	0
 2744 0248 00       		.byte	0
 2745 0249 2C       		.uleb128 0x2c
 2746 024a 2E       		.uleb128 0x2e
 2747 024b 00       		.byte	0
 2748 024c 3F       		.uleb128 0x3f
 2749 024d 19       		.uleb128 0x19
 2750 024e 03       		.uleb128 0x3
 2751 024f 0E       		.uleb128 0xe
 2752 0250 3A       		.uleb128 0x3a
 2753 0251 0B       		.uleb128 0xb
 2754 0252 3B       		.uleb128 0x3b
 2755 0253 0B       		.uleb128 0xb
 2756 0254 27       		.uleb128 0x27
 2757 0255 19       		.uleb128 0x19
 2758 0256 49       		.uleb128 0x49
 2759 0257 13       		.uleb128 0x13
 2760 0258 11       		.uleb128 0x11
 2761 0259 01       		.uleb128 0x1
 2762 025a 12       		.uleb128 0x12
 2763 025b 06       		.uleb128 0x6
 2764 025c 40       		.uleb128 0x40
 2765 025d 18       		.uleb128 0x18
 2766 025e 9742     		.uleb128 0x2117
 2767 0260 19       		.uleb128 0x19
 2768 0261 00       		.byte	0
 2769 0262 00       		.byte	0
 2770 0263 2D       		.uleb128 0x2d
 2771 0264 34       		.uleb128 0x34
 2772 0265 00       		.byte	0
 2773 0266 03       		.uleb128 0x3
 2774 0267 0E       		.uleb128 0xe
 2775 0268 3A       		.uleb128 0x3a
 2776 0269 0B       		.uleb128 0xb
 2777 026a 3B       		.uleb128 0x3b
 2778 026b 0B       		.uleb128 0xb
 2779 026c 49       		.uleb128 0x49
ARM GAS  /tmp/ccBg9yhE.s 			page 50


 2780 026d 13       		.uleb128 0x13
 2781 026e 02       		.uleb128 0x2
 2782 026f 18       		.uleb128 0x18
 2783 0270 00       		.byte	0
 2784 0271 00       		.byte	0
 2785 0272 2E       		.uleb128 0x2e
 2786 0273 34       		.uleb128 0x34
 2787 0274 00       		.byte	0
 2788 0275 03       		.uleb128 0x3
 2789 0276 0E       		.uleb128 0xe
 2790 0277 3A       		.uleb128 0x3a
 2791 0278 0B       		.uleb128 0xb
 2792 0279 3B       		.uleb128 0x3b
 2793 027a 0B       		.uleb128 0xb
 2794 027b 49       		.uleb128 0x49
 2795 027c 13       		.uleb128 0x13
 2796 027d 3F       		.uleb128 0x3f
 2797 027e 19       		.uleb128 0x19
 2798 027f 3C       		.uleb128 0x3c
 2799 0280 19       		.uleb128 0x19
 2800 0281 00       		.byte	0
 2801 0282 00       		.byte	0
 2802 0283 2F       		.uleb128 0x2f
 2803 0284 34       		.uleb128 0x34
 2804 0285 00       		.byte	0
 2805 0286 03       		.uleb128 0x3
 2806 0287 0E       		.uleb128 0xe
 2807 0288 3A       		.uleb128 0x3a
 2808 0289 0B       		.uleb128 0xb
 2809 028a 3B       		.uleb128 0x3b
 2810 028b 05       		.uleb128 0x5
 2811 028c 49       		.uleb128 0x49
 2812 028d 13       		.uleb128 0x13
 2813 028e 3F       		.uleb128 0x3f
 2814 028f 19       		.uleb128 0x19
 2815 0290 3C       		.uleb128 0x3c
 2816 0291 19       		.uleb128 0x19
 2817 0292 00       		.byte	0
 2818 0293 00       		.byte	0
 2819 0294 30       		.uleb128 0x30
 2820 0295 34       		.uleb128 0x34
 2821 0296 00       		.byte	0
 2822 0297 03       		.uleb128 0x3
 2823 0298 0E       		.uleb128 0xe
 2824 0299 3A       		.uleb128 0x3a
 2825 029a 0B       		.uleb128 0xb
 2826 029b 3B       		.uleb128 0x3b
 2827 029c 0B       		.uleb128 0xb
 2828 029d 49       		.uleb128 0x49
 2829 029e 13       		.uleb128 0x13
 2830 029f 3F       		.uleb128 0x3f
 2831 02a0 19       		.uleb128 0x19
 2832 02a1 02       		.uleb128 0x2
 2833 02a2 18       		.uleb128 0x18
 2834 02a3 00       		.byte	0
 2835 02a4 00       		.byte	0
 2836 02a5 31       		.uleb128 0x31
ARM GAS  /tmp/ccBg9yhE.s 			page 51


 2837 02a6 2E       		.uleb128 0x2e
 2838 02a7 01       		.byte	0x1
 2839 02a8 3F       		.uleb128 0x3f
 2840 02a9 19       		.uleb128 0x19
 2841 02aa 03       		.uleb128 0x3
 2842 02ab 0E       		.uleb128 0xe
 2843 02ac 3A       		.uleb128 0x3a
 2844 02ad 0B       		.uleb128 0xb
 2845 02ae 3B       		.uleb128 0x3b
 2846 02af 05       		.uleb128 0x5
 2847 02b0 27       		.uleb128 0x27
 2848 02b1 19       		.uleb128 0x19
 2849 02b2 3C       		.uleb128 0x3c
 2850 02b3 19       		.uleb128 0x19
 2851 02b4 01       		.uleb128 0x1
 2852 02b5 13       		.uleb128 0x13
 2853 02b6 00       		.byte	0
 2854 02b7 00       		.byte	0
 2855 02b8 32       		.uleb128 0x32
 2856 02b9 2E       		.uleb128 0x2e
 2857 02ba 01       		.byte	0x1
 2858 02bb 3F       		.uleb128 0x3f
 2859 02bc 19       		.uleb128 0x19
 2860 02bd 03       		.uleb128 0x3
 2861 02be 0E       		.uleb128 0xe
 2862 02bf 3A       		.uleb128 0x3a
 2863 02c0 0B       		.uleb128 0xb
 2864 02c1 3B       		.uleb128 0x3b
 2865 02c2 05       		.uleb128 0x5
 2866 02c3 27       		.uleb128 0x27
 2867 02c4 19       		.uleb128 0x19
 2868 02c5 49       		.uleb128 0x49
 2869 02c6 13       		.uleb128 0x13
 2870 02c7 3C       		.uleb128 0x3c
 2871 02c8 19       		.uleb128 0x19
 2872 02c9 00       		.byte	0
 2873 02ca 00       		.byte	0
 2874 02cb 00       		.byte	0
 2875              		.section	.debug_loc,"",%progbits
 2876              	.Ldebug_loc0:
 2877              	.LLST0:
 2878 0000 00000000 		.4byte	.LVL0-.Ltext0
 2879 0004 28000000 		.4byte	.LVL1-.Ltext0
 2880 0008 0100     		.2byte	0x1
 2881 000a 50       		.byte	0x50
 2882 000b 28000000 		.4byte	.LVL1-.Ltext0
 2883 000f 14010000 		.4byte	.LFE130-.Ltext0
 2884 0013 0400     		.2byte	0x4
 2885 0015 F3       		.byte	0xf3
 2886 0016 01       		.uleb128 0x1
 2887 0017 50       		.byte	0x50
 2888 0018 9F       		.byte	0x9f
 2889 0019 00000000 		.4byte	0
 2890 001d 00000000 		.4byte	0
 2891              	.LLST1:
 2892 0021 28000000 		.4byte	.LVL1-.Ltext0
 2893 0025 56000000 		.4byte	.LVL2-.Ltext0
ARM GAS  /tmp/ccBg9yhE.s 			page 52


 2894 0029 0100     		.2byte	0x1
 2895 002b 53       		.byte	0x53
 2896 002c 56000000 		.4byte	.LVL2-.Ltext0
 2897 0030 66000000 		.4byte	.LVL3-.Ltext0
 2898 0034 0300     		.2byte	0x3
 2899 0036 73       		.byte	0x73
 2900 0037 01       		.sleb128 1
 2901 0038 9F       		.byte	0x9f
 2902 0039 66000000 		.4byte	.LVL3-.Ltext0
 2903 003d 68000000 		.4byte	.LVL4-.Ltext0
 2904 0041 0300     		.2byte	0x3
 2905 0043 73       		.byte	0x73
 2906 0044 7F       		.sleb128 -1
 2907 0045 9F       		.byte	0x9f
 2908 0046 68000000 		.4byte	.LVL4-.Ltext0
 2909 004a 76000000 		.4byte	.LVL5-.Ltext0
 2910 004e 0100     		.2byte	0x1
 2911 0050 53       		.byte	0x53
 2912 0051 BC000000 		.4byte	.LVL9-.Ltext0
 2913 0055 DE000000 		.4byte	.LVL10-.Ltext0
 2914 0059 0100     		.2byte	0x1
 2915 005b 53       		.byte	0x53
 2916 005c DE000000 		.4byte	.LVL10-.Ltext0
 2917 0060 14010000 		.4byte	.LFE130-.Ltext0
 2918 0064 0300     		.2byte	0x3
 2919 0066 73       		.byte	0x73
 2920 0067 01       		.sleb128 1
 2921 0068 9F       		.byte	0x9f
 2922 0069 00000000 		.4byte	0
 2923 006d 00000000 		.4byte	0
 2924              	.LLST2:
 2925 0071 8A000000 		.4byte	.LVL6-.Ltext0
 2926 0075 A2000000 		.4byte	.LVL7-.Ltext0
 2927 0079 0100     		.2byte	0x1
 2928 007b 53       		.byte	0x53
 2929 007c 00000000 		.4byte	0
 2930 0080 00000000 		.4byte	0
 2931              	.LLST3:
 2932 0084 10020000 		.4byte	.LVL15-.Ltext0
 2933 0088 22020000 		.4byte	.LVL16-.Ltext0
 2934 008c 0100     		.2byte	0x1
 2935 008e 50       		.byte	0x50
 2936 008f 22020000 		.4byte	.LVL16-.Ltext0
 2937 0093 44020000 		.4byte	.LFE135-.Ltext0
 2938 0097 0400     		.2byte	0x4
 2939 0099 F3       		.byte	0xf3
 2940 009a 01       		.uleb128 0x1
 2941 009b 50       		.byte	0x50
 2942 009c 9F       		.byte	0x9f
 2943 009d 00000000 		.4byte	0
 2944 00a1 00000000 		.4byte	0
 2945              	.LLST4:
 2946 00a5 50020000 		.4byte	.LVL18-.Ltext0
 2947 00a9 60020000 		.4byte	.LVL19-.Ltext0
 2948 00ad 0100     		.2byte	0x1
 2949 00af 50       		.byte	0x50
 2950 00b0 60020000 		.4byte	.LVL19-.Ltext0
ARM GAS  /tmp/ccBg9yhE.s 			page 53


 2951 00b4 68020000 		.4byte	.LFE136-.Ltext0
 2952 00b8 0400     		.2byte	0x4
 2953 00ba F3       		.byte	0xf3
 2954 00bb 01       		.uleb128 0x1
 2955 00bc 50       		.byte	0x50
 2956 00bd 9F       		.byte	0x9f
 2957 00be 00000000 		.4byte	0
 2958 00c2 00000000 		.4byte	0
 2959              		.section	.debug_aranges,"",%progbits
 2960 0000 1C000000 		.4byte	0x1c
 2961 0004 0200     		.2byte	0x2
 2962 0006 00000000 		.4byte	.Ldebug_info0
 2963 000a 04       		.byte	0x4
 2964 000b 00       		.byte	0
 2965 000c 0000     		.2byte	0
 2966 000e 0000     		.2byte	0
 2967 0010 00000000 		.4byte	.Ltext0
 2968 0014 9C020000 		.4byte	.Letext0-.Ltext0
 2969 0018 00000000 		.4byte	0
 2970 001c 00000000 		.4byte	0
 2971              		.section	.debug_ranges,"",%progbits
 2972              	.Ldebug_ranges0:
 2973 0000 1A000000 		.4byte	.LBB4-.Ltext0
 2974 0004 22000000 		.4byte	.LBE4-.Ltext0
 2975 0008 24000000 		.4byte	.LBB5-.Ltext0
 2976 000c 14010000 		.4byte	.LBE5-.Ltext0
 2977 0010 00000000 		.4byte	0
 2978 0014 00000000 		.4byte	0
 2979 0018 14020000 		.4byte	.LBB6-.Ltext0
 2980 001c 16020000 		.4byte	.LBE6-.Ltext0
 2981 0020 1A020000 		.4byte	.LBB10-.Ltext0
 2982 0024 1C020000 		.4byte	.LBE10-.Ltext0
 2983 0028 24020000 		.4byte	.LBB11-.Ltext0
 2984 002c 2E020000 		.4byte	.LBE11-.Ltext0
 2985 0030 00000000 		.4byte	0
 2986 0034 00000000 		.4byte	0
 2987              		.section	.debug_line,"",%progbits
 2988              	.Ldebug_line0:
 2989 0000 38050000 		.section	.debug_str,"MS",%progbits,1
 2989      02004604 
 2989      00000201 
 2989      FB0E0D00 
 2989      01010101 
 2990              	.LASF68:
 2991 0000 7466756E 		.ascii	"tfunc_t\000"
 2991      635F7400 
 2992              	.LASF132:
 2993 0008 4552524F 		.ascii	"ERROR_SDRAM\000"
 2993      525F5344 
 2993      52414D00 
 2994              	.LASF131:
 2995 0014 4552524F 		.ascii	"ERROR_UNDERVOLT_33\000"
 2995      525F554E 
 2995      44455256 
 2995      4F4C545F 
 2995      333300
 2996              	.LASF2:
ARM GAS  /tmp/ccBg9yhE.s 			page 54


 2997 0027 73697A65 		.ascii	"size_t\000"
 2997      5F7400
 2998              	.LASF63:
 2999 002e 7264796D 		.ascii	"rdymsg\000"
 2999      736700
 3000              	.LASF19:
 3001 0035 75696E74 		.ascii	"uint64_t\000"
 3001      36345F74 
 3001      00
 3002              	.LASF116:
 3003 003e 4F545950 		.ascii	"OTYPER\000"
 3003      455200
 3004              	.LASF3:
 3005 0045 5F5F7569 		.ascii	"__uint8_t\000"
 3005      6E74385F 
 3005      7400
 3006              	.LASF124:
 3007 004f 696F706F 		.ascii	"ioportmask_t\000"
 3007      72746D61 
 3007      736B5F74 
 3007      00
 3008              	.LASF115:
 3009 005c 4D4F4445 		.ascii	"MODER\000"
 3009      5200
 3010              	.LASF45:
 3011 0062 54687265 		.ascii	"ThreadsQueue\000"
 3011      61647351 
 3011      75657565 
 3011      00
 3012              	.LASF155:
 3013 006f 73646373 		.ascii	"sdcsw_prev\000"
 3013      775F7072 
 3013      657600
 3014              	.LASF127:
 3015 007a 4552524F 		.ascii	"ERROR_USBH_OVERCURRENT\000"
 3015      525F5553 
 3015      42485F4F 
 3015      56455243 
 3015      55525245 
 3016              	.LASF92:
 3017 0091 52455345 		.ascii	"RESERVED1\000"
 3017      52564544 
 3017      3100
 3018              	.LASF100:
 3019 009b 41484231 		.ascii	"AHB1LPENR\000"
 3019      4C50454E 
 3019      5200
 3020              	.LASF31:
 3021 00a5 705F7072 		.ascii	"p_prio\000"
 3021      696F00
 3022              	.LASF78:
 3023 00ac 4A535152 		.ascii	"JSQR\000"
 3023      00
 3024              	.LASF112:
 3025 00b1 44434B43 		.ascii	"DCKCFGR\000"
 3025      46475200 
 3026              	.LASF12:
ARM GAS  /tmp/ccBg9yhE.s 			page 55


 3027 00b9 6C6F6E67 		.ascii	"long long int\000"
 3027      206C6F6E 
 3027      6720696E 
 3027      7400
 3028              	.LASF1:
 3029 00c7 7369676E 		.ascii	"signed char\000"
 3029      65642063 
 3029      68617200 
 3030              	.LASF119:
 3031 00d3 42535252 		.ascii	"BSRR\000"
 3031      00
 3032              	.LASF86:
 3033 00d8 41484231 		.ascii	"AHB1RSTR\000"
 3033      52535452 
 3033      00
 3034              	.LASF14:
 3035 00e1 6C6F6E67 		.ascii	"long long unsigned int\000"
 3035      206C6F6E 
 3035      6720756E 
 3035      7369676E 
 3035      65642069 
 3036              	.LASF60:
 3037 00f8 6D5F7175 		.ascii	"m_queue\000"
 3037      65756500 
 3038              	.LASF23:
 3039 0100 74736C69 		.ascii	"tslices_t\000"
 3039      6365735F 
 3039      7400
 3040              	.LASF138:
 3041 010a 7379736D 		.ascii	"sysmon_enable_blinker\000"
 3041      6F6E5F65 
 3041      6E61626C 
 3041      655F626C 
 3041      696E6B65 
 3042              	.LASF9:
 3043 0120 6C6F6E67 		.ascii	"long int\000"
 3043      20696E74 
 3043      00
 3044              	.LASF91:
 3045 0129 41504232 		.ascii	"APB2RSTR\000"
 3045      52535452 
 3045      00
 3046              	.LASF104:
 3047 0132 41504231 		.ascii	"APB1LPENR\000"
 3047      4C50454E 
 3047      5200
 3048              	.LASF22:
 3049 013c 74737461 		.ascii	"tstate_t\000"
 3049      74655F74 
 3049      00
 3050              	.LASF16:
 3051 0145 75696E74 		.ascii	"uint16_t\000"
 3051      31365F74 
 3051      00
 3052              	.LASF83:
 3053 014e 4144435F 		.ascii	"ADC_TypeDef\000"
 3053      54797065 
ARM GAS  /tmp/ccBg9yhE.s 			page 56


 3053      44656600 
 3054              	.LASF33:
 3055 015a 705F6E65 		.ascii	"p_newer\000"
 3055      77657200 
 3056              	.LASF84:
 3057 0162 504C4C43 		.ascii	"PLLCFGR\000"
 3057      46475200 
 3058              	.LASF143:
 3059 016a 7379736D 		.ascii	"sysmon_getVoltage50\000"
 3059      6F6E5F67 
 3059      6574566F 
 3059      6C746167 
 3059      65353000 
 3060              	.LASF154:
 3061 017e 7635305F 		.ascii	"v50_max\000"
 3061      6D617800 
 3062              	.LASF64:
 3063 0186 65786974 		.ascii	"exitcode\000"
 3063      636F6465 
 3063      00
 3064              	.LASF152:
 3065 018f 766F6C74 		.ascii	"voltage_50\000"
 3065      6167655F 
 3065      353000
 3066              	.LASF117:
 3067 019a 4F535045 		.ascii	"OSPEEDR\000"
 3067      45445200 
 3068              	.LASF55:
 3069 01a2 725F6E65 		.ascii	"r_newer\000"
 3069      77657200 
 3070              	.LASF47:
 3071 01aa 72656761 		.ascii	"regarm_t\000"
 3071      726D5F74 
 3071      00
 3072              	.LASF130:
 3073 01b3 4552524F 		.ascii	"ERROR_UNDERVOLT_50\000"
 3073      525F554E 
 3073      44455256 
 3073      4F4C545F 
 3073      353000
 3074              	.LASF153:
 3075 01c6 7635305F 		.ascii	"v50_min\000"
 3075      6D696E00 
 3076              	.LASF135:
 3077 01ce 6572726F 		.ascii	"error_flag_t\000"
 3077      725F666C 
 3077      61675F74 
 3077      00
 3078              	.LASF134:
 3079 01db 4552524F 		.ascii	"ERROR_CODEC_I2C\000"
 3079      525F434F 
 3079      4445435F 
 3079      49324300 
 3080              	.LASF0:
 3081 01eb 756E7369 		.ascii	"unsigned int\000"
 3081      676E6564 
 3081      20696E74 
ARM GAS  /tmp/ccBg9yhE.s 			page 57


 3081      00
 3082              	.LASF151:
 3083 01f8 70617474 		.ascii	"pattern\000"
 3083      65726E00 
 3084              	.LASF123:
 3085 0200 4750494F 		.ascii	"GPIO_TypeDef\000"
 3085      5F547970 
 3085      65446566 
 3085      00
 3086              	.LASF113:
 3087 020d 5243435F 		.ascii	"RCC_TypeDef\000"
 3087      54797065 
 3087      44656600 
 3088              	.LASF118:
 3089 0219 50555044 		.ascii	"PUPDR\000"
 3089      5200
 3090              	.LASF120:
 3091 021f 4C434B52 		.ascii	"LCKR\000"
 3091      00
 3092              	.LASF7:
 3093 0224 73686F72 		.ascii	"short unsigned int\000"
 3093      7420756E 
 3093      7369676E 
 3093      65642069 
 3093      6E7400
 3094              	.LASF140:
 3095 0237 73657445 		.ascii	"setErrorFlag\000"
 3095      72726F72 
 3095      466C6167 
 3095      00
 3096              	.LASF110:
 3097 0244 504C4C49 		.ascii	"PLLI2SCFGR\000"
 3097      32534346 
 3097      475200
 3098              	.LASF25:
 3099 024f 6D73675F 		.ascii	"msg_t\000"
 3099      7400
 3100              	.LASF157:
 3101 0255 6572726F 		.ascii	"errorflags\000"
 3101      72666C61 
 3101      677300
 3102              	.LASF21:
 3103 0260 746D6F64 		.ascii	"tmode_t\000"
 3103      655F7400 
 3104              	.LASF105:
 3105 0268 41504232 		.ascii	"APB2LPENR\000"
 3105      4C50454E 
 3105      5200
 3106              	.LASF46:
 3107 0272 54687265 		.ascii	"ThreadsList\000"
 3107      6164734C 
 3107      69737400 
 3108              	.LASF26:
 3109 027e 6576656E 		.ascii	"eventmask_t\000"
 3109      746D6173 
 3109      6B5F7400 
 3110              	.LASF59:
ARM GAS  /tmp/ccBg9yhE.s 			page 58


 3111 028a 4D757465 		.ascii	"Mutex\000"
 3111      7800
 3112              	.LASF163:
 3113 0290 7379736D 		.ascii	"sysmon.c\000"
 3113      6F6E2E63 
 3113      00
 3114              	.LASF48:
 3115 0299 73746B61 		.ascii	"stkalign_t\000"
 3115      6C69676E 
 3115      5F7400
 3116              	.LASF161:
 3117 02a4 63685468 		.ascii	"chThdCreateStatic\000"
 3117      64437265 
 3117      61746553 
 3117      74617469 
 3117      6300
 3118              	.LASF71:
 3119 02b6 4A4F4652 		.ascii	"JOFR1\000"
 3119      3100
 3120              	.LASF72:
 3121 02bc 4A4F4652 		.ascii	"JOFR2\000"
 3121      3200
 3122              	.LASF73:
 3123 02c2 4A4F4652 		.ascii	"JOFR3\000"
 3123      3300
 3124              	.LASF74:
 3125 02c8 4A4F4652 		.ascii	"JOFR4\000"
 3125      3400
 3126              	.LASF139:
 3127 02ce 7379736D 		.ascii	"sysmon_init\000"
 3127      6F6E5F69 
 3127      6E697400 
 3128              	.LASF51:
 3129 02da 73697A65 		.ascii	"sizetype\000"
 3129      74797065 
 3129      00
 3130              	.LASF114:
 3131 02e3 636C6561 		.ascii	"clear\000"
 3131      7200
 3132              	.LASF80:
 3133 02e9 4A445232 		.ascii	"JDR2\000"
 3133      00
 3134              	.LASF34:
 3135 02ee 705F6F6C 		.ascii	"p_older\000"
 3135      64657200 
 3136              	.LASF165:
 3137 02f6 54687265 		.ascii	"ThreadSysmon\000"
 3137      61645379 
 3137      736D6F6E 
 3137      00
 3138              	.LASF54:
 3139 0303 725F6374 		.ascii	"r_ctx\000"
 3139      7800
 3140              	.LASF101:
 3141 0309 41484232 		.ascii	"AHB2LPENR\000"
 3141      4C50454E 
 3141      5200
ARM GAS  /tmp/ccBg9yhE.s 			page 59


 3142              	.LASF69:
 3143 0313 534D5052 		.ascii	"SMPR1\000"
 3143      3100
 3144              	.LASF70:
 3145 0319 534D5052 		.ascii	"SMPR2\000"
 3145      3200
 3146              	.LASF57:
 3147 031f 725F6375 		.ascii	"r_current\000"
 3147      7272656E 
 3147      7400
 3148              	.LASF90:
 3149 0329 41504231 		.ascii	"APB1RSTR\000"
 3149      52535452 
 3149      00
 3150              	.LASF75:
 3151 0332 53515231 		.ascii	"SQR1\000"
 3151      00
 3152              	.LASF76:
 3153 0337 53515232 		.ascii	"SQR2\000"
 3153      00
 3154              	.LASF77:
 3155 033c 53515233 		.ascii	"SQR3\000"
 3155      00
 3156              	.LASF38:
 3157 0341 705F7072 		.ascii	"p_preempt\000"
 3157      65656D70 
 3157      7400
 3158              	.LASF13:
 3159 034b 5F5F7569 		.ascii	"__uint64_t\000"
 3159      6E743634 
 3159      5F7400
 3160              	.LASF122:
 3161 0356 41465248 		.ascii	"AFRH\000"
 3161      00
 3162              	.LASF136:
 3163 035b 666C6F61 		.ascii	"float\000"
 3163      7400
 3164              	.LASF121:
 3165 0361 4146524C 		.ascii	"AFRL\000"
 3165      00
 3166              	.LASF111:
 3167 0366 504C4C53 		.ascii	"PLLSAICFGR\000"
 3167      41494346 
 3167      475200
 3168              	.LASF142:
 3169 0371 6572726F 		.ascii	"errorFlagClearAll\000"
 3169      72466C61 
 3169      67436C65 
 3169      6172416C 
 3169      6C00
 3170              	.LASF156:
 3171 0383 70617474 		.ascii	"pattern_index\000"
 3171      65726E5F 
 3171      696E6465 
 3171      7800
 3172              	.LASF89:
 3173 0391 52455345 		.ascii	"RESERVED0\000"
ARM GAS  /tmp/ccBg9yhE.s 			page 60


 3173      52564544 
 3173      3000
 3174              	.LASF166:
 3175 039b 67657445 		.ascii	"getErrorFlag\000"
 3175      72726F72 
 3175      466C6167 
 3175      00
 3176              	.LASF96:
 3177 03a8 52455345 		.ascii	"RESERVED2\000"
 3177      52564544 
 3177      3200
 3178              	.LASF99:
 3179 03b2 52455345 		.ascii	"RESERVED3\000"
 3179      52564544 
 3179      3300
 3180              	.LASF30:
 3181 03bc 705F7072 		.ascii	"p_prev\000"
 3181      657600
 3182              	.LASF145:
 3183 03c3 77615468 		.ascii	"waThreadSysmon\000"
 3183      72656164 
 3183      5379736D 
 3183      6F6E00
 3184              	.LASF24:
 3185 03d2 74707269 		.ascii	"tprio_t\000"
 3185      6F5F7400 
 3186              	.LASF164:
 3187 03da 2F686F6D 		.ascii	"/home/sbcu/Dropbox/pcb-layouts/axo-on-discovery-boa"
 3187      652F7362 
 3187      63752F44 
 3187      726F7062 
 3187      6F782F70 
 3188 040d 72642F61 		.ascii	"rd/axoloti/firmware\000"
 3188      786F6C6F 
 3188      74692F66 
 3188      69726D77 
 3188      61726500 
 3189              	.LASF20:
 3190 0421 5F426F6F 		.ascii	"_Bool\000"
 3190      6C00
 3191              	.LASF17:
 3192 0427 696E7433 		.ascii	"int32_t\000"
 3192      325F7400 
 3193              	.LASF4:
 3194 042f 756E7369 		.ascii	"unsigned char\000"
 3194      676E6564 
 3194      20636861 
 3194      7200
 3195              	.LASF147:
 3196 043d 49544D5F 		.ascii	"ITM_RxBuffer\000"
 3196      52784275 
 3196      66666572 
 3196      00
 3197              	.LASF43:
 3198 044a 705F6D74 		.ascii	"p_mtxlist\000"
 3198      786C6973 
 3198      7400
ARM GAS  /tmp/ccBg9yhE.s 			page 61


 3199              	.LASF5:
 3200 0454 73686F72 		.ascii	"short int\000"
 3200      7420696E 
 3200      7400
 3201              	.LASF36:
 3202 045e 705F7374 		.ascii	"p_state\000"
 3202      61746500 
 3203              	.LASF129:
 3204 0466 4552524F 		.ascii	"ERROR_OVERVOLT_33\000"
 3204      525F4F56 
 3204      4552564F 
 3204      4C545F33 
 3204      3300
 3205              	.LASF102:
 3206 0478 41484233 		.ascii	"AHB3LPENR\000"
 3206      4C50454E 
 3206      5200
 3207              	.LASF53:
 3208 0482 725F7072 		.ascii	"r_prio\000"
 3208      696F00
 3209              	.LASF66:
 3210 0489 65776D61 		.ascii	"ewmask\000"
 3210      736B00
 3211              	.LASF29:
 3212 0490 705F6E65 		.ascii	"p_next\000"
 3212      787400
 3213              	.LASF37:
 3214 0497 705F666C 		.ascii	"p_flags\000"
 3214      61677300 
 3215              	.LASF141:
 3216 049f 6572726F 		.ascii	"error\000"
 3216      7200
 3217              	.LASF98:
 3218 04a5 41504232 		.ascii	"APB2ENR\000"
 3218      454E5200 
 3219              	.LASF88:
 3220 04ad 41484233 		.ascii	"AHB3RSTR\000"
 3220      52535452 
 3220      00
 3221              	.LASF28:
 3222 04b6 54687265 		.ascii	"Thread\000"
 3222      616400
 3223              	.LASF95:
 3224 04bd 41484233 		.ascii	"AHB3ENR\000"
 3224      454E5200 
 3225              	.LASF42:
 3226 04c5 705F6570 		.ascii	"p_epending\000"
 3226      656E6469 
 3226      6E6700
 3227              	.LASF103:
 3228 04d0 52455345 		.ascii	"RESERVED4\000"
 3228      52564544 
 3228      3400
 3229              	.LASF144:
 3230 04da 7379736D 		.ascii	"sysmon_getVoltage10\000"
 3230      6F6E5F67 
 3230      6574566F 
ARM GAS  /tmp/ccBg9yhE.s 			page 62


 3230      6C746167 
 3230      65313000 
 3231              	.LASF108:
 3232 04ee 52455345 		.ascii	"RESERVED6\000"
 3232      52564544 
 3232      3600
 3233              	.LASF18:
 3234 04f8 75696E74 		.ascii	"uint32_t\000"
 3234      33325F74 
 3234      00
 3235              	.LASF52:
 3236 0501 725F7175 		.ascii	"r_queue\000"
 3236      65756500 
 3237              	.LASF137:
 3238 0509 7379736D 		.ascii	"sysmon_disable_blinker\000"
 3238      6F6E5F64 
 3238      69736162 
 3238      6C655F62 
 3238      6C696E6B 
 3239              	.LASF11:
 3240 0520 6C6F6E67 		.ascii	"long unsigned int\000"
 3240      20756E73 
 3240      69676E65 
 3240      6420696E 
 3240      7400
 3241              	.LASF149:
 3242 0532 72657065 		.ascii	"repeat\000"
 3242      617400
 3243              	.LASF67:
 3244 0539 63686172 		.ascii	"char\000"
 3244      00
 3245              	.LASF6:
 3246 053e 5F5F7569 		.ascii	"__uint16_t\000"
 3246      6E743136 
 3246      5F7400
 3247              	.LASF87:
 3248 0549 41484232 		.ascii	"AHB2RSTR\000"
 3248      52535452 
 3248      00
 3249              	.LASF62:
 3250 0552 6D5F6E65 		.ascii	"m_next\000"
 3250      787400
 3251              	.LASF27:
 3252 0559 73797374 		.ascii	"systime_t\000"
 3252      696D655F 
 3252      7400
 3253              	.LASF44:
 3254 0563 705F7265 		.ascii	"p_realprio\000"
 3254      616C7072 
 3254      696F00
 3255              	.LASF8:
 3256 056e 5F5F696E 		.ascii	"__int32_t\000"
 3256      7433325F 
 3256      7400
 3257              	.LASF10:
 3258 0578 5F5F7569 		.ascii	"__uint32_t\000"
 3258      6E743332 
ARM GAS  /tmp/ccBg9yhE.s 			page 63


 3258      5F7400
 3259              	.LASF97:
 3260 0583 41504231 		.ascii	"APB1ENR\000"
 3260      454E5200 
 3261              	.LASF126:
 3262 058b 696F706F 		.ascii	"ioportid_t\000"
 3262      72746964 
 3262      5F7400
 3263              	.LASF133:
 3264 0596 4552524F 		.ascii	"ERROR_SDCARD\000"
 3264      525F5344 
 3264      43415244 
 3264      00
 3265              	.LASF94:
 3266 05a3 41484232 		.ascii	"AHB2ENR\000"
 3266      454E5200 
 3267              	.LASF50:
 3268 05ab 636F6E74 		.ascii	"context\000"
 3268      65787400 
 3269              	.LASF56:
 3270 05b3 725F6F6C 		.ascii	"r_older\000"
 3270      64657200 
 3271              	.LASF160:
 3272 05bb 5F70616C 		.ascii	"_pal_lld_setgroupmode\000"
 3272      5F6C6C64 
 3272      5F736574 
 3272      67726F75 
 3272      706D6F64 
 3273              	.LASF148:
 3274 05d1 61646376 		.ascii	"adcvalues\000"
 3274      616C7565 
 3274      7300
 3275              	.LASF106:
 3276 05db 52455345 		.ascii	"RESERVED5\000"
 3276      52564544 
 3276      3500
 3277              	.LASF49:
 3278 05e5 696E7463 		.ascii	"intctx\000"
 3278      747800
 3279              	.LASF40:
 3280 05ec 705F6D73 		.ascii	"p_msgqueue\000"
 3280      67717565 
 3280      756500
 3281              	.LASF109:
 3282 05f7 53534347 		.ascii	"SSCGR\000"
 3282      5200
 3283              	.LASF150:
 3284 05fd 6973456E 		.ascii	"isEnabled\000"
 3284      61626C65 
 3284      6400
 3285              	.LASF159:
 3286 0607 63685468 		.ascii	"chThdSleep\000"
 3286      64536C65 
 3286      657000
 3287              	.LASF35:
 3288 0612 705F6E61 		.ascii	"p_name\000"
 3288      6D6500
ARM GAS  /tmp/ccBg9yhE.s 			page 64


 3289              	.LASF58:
 3290 0619 52656164 		.ascii	"ReadyList\000"
 3290      794C6973 
 3290      7400
 3291              	.LASF107:
 3292 0623 42444352 		.ascii	"BDCR\000"
 3292      00
 3293              	.LASF146:
 3294 0628 726C6973 		.ascii	"rlist\000"
 3294      7400
 3295              	.LASF15:
 3296 062e 75696E74 		.ascii	"uint8_t\000"
 3296      385F7400 
 3297              	.LASF79:
 3298 0636 4A445231 		.ascii	"JDR1\000"
 3298      00
 3299              	.LASF158:
 3300 063b 7379736D 		.ascii	"sysmon_blink_pattern\000"
 3300      6F6E5F62 
 3300      6C696E6B 
 3300      5F706174 
 3300      7465726E 
 3301              	.LASF81:
 3302 0650 4A445233 		.ascii	"JDR3\000"
 3302      00
 3303              	.LASF82:
 3304 0655 4A445234 		.ascii	"JDR4\000"
 3304      00
 3305              	.LASF65:
 3306 065a 77746F62 		.ascii	"wtobjp\000"
 3306      6A7000
 3307              	.LASF128:
 3308 0661 4552524F 		.ascii	"ERROR_OVERVOLT_50\000"
 3308      525F4F56 
 3308      4552564F 
 3308      4C545F35 
 3308      3000
 3309              	.LASF162:
 3310 0673 474E5520 		.ascii	"GNU C 4.9.3 20150529 (release) [ARM/embedded-4_9-br"
 3310      4320342E 
 3310      392E3320 
 3310      32303135 
 3310      30353239 
 3311 06a6 616E6368 		.ascii	"anch revision 224288] -mcpu=cortex-m4 -mfloat-abi=h"
 3311      20726576 
 3311      6973696F 
 3311      6E203232 
 3311      34323838 
 3312 06d9 61726420 		.ascii	"ard -mfpu=fpv4-sp-d16 -mno-thumb-interwork -mthumb "
 3312      2D6D6670 
 3312      753D6670 
 3312      76342D73 
 3312      702D6431 
 3313 070c 2D676764 		.ascii	"-ggdb -O2 -fomit-frame-pointer -falign-functions=16"
 3313      62202D4F 
 3313      32202D66 
 3313      6F6D6974 
ARM GAS  /tmp/ccBg9yhE.s 			page 65


 3313      2D667261 
 3314 073f 202D666E 		.ascii	" -fno-math-errno -fsingle-precision-constant\000"
 3314      6F2D6D61 
 3314      74682D65 
 3314      72726E6F 
 3314      202D6673 
 3315              	.LASF93:
 3316 076c 41484231 		.ascii	"AHB1ENR\000"
 3316      454E5200 
 3317              	.LASF85:
 3318 0774 43464752 		.ascii	"CFGR\000"
 3318      00
 3319              	.LASF41:
 3320 0779 705F6D73 		.ascii	"p_msg\000"
 3320      6700
 3321              	.LASF125:
 3322 077f 696F6D6F 		.ascii	"iomode_t\000"
 3322      64655F74 
 3322      00
 3323              	.LASF61:
 3324 0788 6D5F6F77 		.ascii	"m_owner\000"
 3324      6E657200 
 3325              	.LASF32:
 3326 0790 705F6374 		.ascii	"p_ctx\000"
 3326      7800
 3327              	.LASF39:
 3328 0796 705F7761 		.ascii	"p_waiting\000"
 3328      6974696E 
 3328      6700
 3329              		.ident	"GCC: (GNU Tools for ARM Embedded Processors) 4.9.3 20150529 (release) [ARM/embedded-4_9-br
ARM GAS  /tmp/ccBg9yhE.s 			page 66


DEFINED SYMBOLS
                            *ABS*:00000000 sysmon.c
     /tmp/ccBg9yhE.s:20     .text:00000000 $t
     /tmp/ccBg9yhE.s:25     .text:00000000 ThreadSysmon
     /tmp/ccBg9yhE.s:197    .text:000000ec $d
                            *COM*:00000001 pattern_index
                            *COM*:00000002 v50_max
                            *COM*:00000002 v50_min
                            *COM*:00000002 voltage_50
     /tmp/ccBg9yhE.s:211    .text:00000114 $t
     /tmp/ccBg9yhE.s:217    .text:00000120 sysmon_init
     /tmp/ccBg9yhE.s:318    .text:000001a8 $d
     /tmp/ccBg9yhE.s:330    .text:000001cc $t
     /tmp/ccBg9yhE.s:336    .text:000001d0 sysmon_disable_blinker
     /tmp/ccBg9yhE.s:351    .text:000001d8 $d
     /tmp/ccBg9yhE.s:355    .text:000001dc $t
     /tmp/ccBg9yhE.s:361    .text:000001e0 sysmon_enable_blinker
     /tmp/ccBg9yhE.s:376    .text:000001e8 $d
     /tmp/ccBg9yhE.s:380    .text:000001ec $t
     /tmp/ccBg9yhE.s:386    .text:000001f0 sysmon_blink_pattern
     /tmp/ccBg9yhE.s:407    .text:000001fc $d
     /tmp/ccBg9yhE.s:412    .text:00000204 $t
     /tmp/ccBg9yhE.s:418    .text:00000210 setErrorFlag
     /tmp/ccBg9yhE.s:479    .text:00000238 $d
     /tmp/ccBg9yhE.s:485    .text:00000244 $t
     /tmp/ccBg9yhE.s:491    .text:00000250 getErrorFlag
     /tmp/ccBg9yhE.s:514    .text:00000264 $d
     /tmp/ccBg9yhE.s:518    .text:00000268 $t
     /tmp/ccBg9yhE.s:524    .text:00000270 errorFlagClearAll
     /tmp/ccBg9yhE.s:539    .text:0000027c $d
     /tmp/ccBg9yhE.s:543    .text:00000280 $t
     /tmp/ccBg9yhE.s:549    .text:00000280 sysmon_getVoltage50
     /tmp/ccBg9yhE.s:564    .text:00000288 $d
     /tmp/ccBg9yhE.s:568    .text:0000028c $t
     /tmp/ccBg9yhE.s:574    .text:00000290 sysmon_getVoltage10
     /tmp/ccBg9yhE.s:589    .text:00000298 $d
     /tmp/ccBg9yhE.s:632    .bss:00000258 errorflags
     /tmp/ccBg9yhE.s:636    .bss:0000025c sdcsw_prev
     /tmp/ccBg9yhE.s:612    .data:00000004 pattern
     /tmp/ccBg9yhE.s:607    .data:00000000 isEnabled
     /tmp/ccBg9yhE.s:623    .bss:00000000 repeat
     /tmp/ccBg9yhE.s:603    .data:00000000 $d
     /tmp/ccBg9yhE.s:615    .rodata.str1.4:00000000 $d
     /tmp/ccBg9yhE.s:619    .bss:00000000 $d
     /tmp/ccBg9yhE.s:628    .bss:00000008 waThreadSysmon
                     .debug_frame:00000010 $d

UNDEFINED SYMBOLS
chThdSleep
rlist
_pal_lld_setgroupmode
chThdCreateStatic
adcvalues
