ARM GAS  /tmp/ccMqc7hn.s 			page 1


   1              		.syntax unified
   2              		.cpu cortex-m4
   3              		.eabi_attribute 27, 1
   4              		.eabi_attribute 28, 1
   5              		.fpu fpv4-sp-d16
   6              		.eabi_attribute 20, 1
   7              		.eabi_attribute 21, 1
   8              		.eabi_attribute 23, 3
   9              		.eabi_attribute 24, 1
  10              		.eabi_attribute 25, 1
  11              		.eabi_attribute 26, 1
  12              		.eabi_attribute 30, 2
  13              		.eabi_attribute 34, 1
  14              		.eabi_attribute 18, 4
  15              		.thumb
  16              		.file	"tube.cpp"
  17              		.text
  18              	.Ltext0:
  19              		.cfi_sections	.debug_frame
  20              		.align	2
  21              		.p2align 4,,15
  22              		.global	_ZN8elements4Tube4InitEv
  23              		.thumb
  24              		.thumb_func
  25              		.type	_ZN8elements4Tube4InitEv, %function
  26              	_ZN8elements4Tube4InitEv:
  27              		.fnstart
  28              	.LFB546:
  29              		.file 1 "./mutable_instruments/elements/dsp/tube.cpp"
  30              		.loc 1 38 0
  31              		.cfi_startproc
  32              		@ args = 0, pretend = 0, frame = 0
  33              		@ frame_needed = 0, uses_anonymous_args = 0
  34              		@ link register save eliminated.
  35              	.LVL0:
  36              		.loc 1 39 0
  37 0000 0023     		movs	r3, #0
  38              		.loc 1 41 0
  39 0002 0022     		movs	r2, #0
  40 0004 0260     		str	r2, [r0]
  41              		.loc 1 39 0
  42 0006 4360     		str	r3, [r0, #4]	@ float
  43              		.loc 1 40 0
  44 0008 8360     		str	r3, [r0, #8]	@ float
  45 000a 7047     		bx	lr
  46              		.cfi_endproc
  47              	.LFE546:
  48              		.cantunwind
  49              		.fnend
  50              		.size	_ZN8elements4Tube4InitEv, .-_ZN8elements4Tube4InitEv
  51              		.align	2
  52 000c AFF30080 		.p2align 4,,15
  53              		.global	_ZN8elements4Tube7ProcessEffffPffj
  54              		.thumb
  55              		.thumb_func
  56              		.type	_ZN8elements4Tube7ProcessEffffPffj, %function
  57              	_ZN8elements4Tube7ProcessEffffPffj:
ARM GAS  /tmp/ccMqc7hn.s 			page 2


  58              		.fnstart
  59              	.LFB547:
  60              		.loc 1 51 0
  61              		.cfi_startproc
  62              		@ args = 0, pretend = 0, frame = 0
  63              		@ frame_needed = 0, uses_anonymous_args = 0
  64              		@ link register save eliminated.
  65              	.LVL1:
  66              	.LBB2:
  67              		.loc 1 52 0
  68 0010 F7EE007A 		fconsts	s15, #112
  69 0014 C7EE807A 		fdivs	s15, s15, s0
  70              	.LVL2:
  71              	.LBE2:
  72              		.loc 1 51 0
  73 0018 F0B4     		push	{r4, r5, r6, r7}
  74              		.cfi_def_cfa_offset 16
  75              		.cfi_offset 4, -16
  76              		.cfi_offset 5, -12
  77              		.cfi_offset 6, -8
  78              		.cfi_offset 7, -4
  79              	.LBB7:
  80              		.loc 1 53 0
  81 001a 9FED577A 		flds	s14, .L27
  82 001e F4EEC77A 		fcmpes	s15, s14
  83 0022 F1EE10FA 		fmstat
  84 0026 08DB     		blt	.L3
  85              		.loc 1 54 0
  86 0028 F6EE006A 		fconsts	s13, #96
  87              	.L5:
  88 002c 67EEA67A 		fmuls	s15, s15, s13
  89              	.LVL3:
  90              		.loc 1 53 0
  91 0030 F4EEC77A 		fcmpes	s15, s14
  92 0034 F1EE10FA 		fmstat
  93 0038 F8DA     		bge	.L5
  94              	.L3:
  95              		.loc 1 58 0
  96 003a B7EE007A 		fconsts	s14, #112
  97              		.loc 1 61 0
  98 003e DFED4F6A 		flds	s13, .L27+4
  99              		.loc 1 62 0
 100 0042 9FED4F6A 		flds	s12, .L27+8
 101              		.loc 1 60 0
 102 0046 DFED4F5A 		flds	s11, .L27+12
 103 004a DFED4F4A 		flds	s9, .L27+16
 104              		.loc 1 64 0
 105 004e 0368     		ldr	r3, [r0]
 106              		.loc 1 61 0
 107 0050 61EEA11A 		fmuls	s3, s3, s3
 108              	.LVL4:
 109 0054 B0EE475A 		fcpys	s10, s14
 110 0058 A1EEA65A 		vfma.f32	s10, s3, s13
 111              		.loc 1 65 0
 112 005c 551E     		subs	r5, r2, #1
 113              		.loc 1 58 0
 114 005e F4EE470A 		fcmps	s1, s14
ARM GAS  /tmp/ccMqc7hn.s 			page 3


 115              		.loc 1 61 0
 116 0062 F0EE456A 		fcpys	s13, s10
 117 0066 26EE800A 		fmuls	s0, s13, s0
 118              	.LVL5:
 119              		.loc 1 56 0
 120 006a BDEEE75A 		ftosizs	s10, s15
 121              		.loc 1 58 0
 122 006e F1EE10FA 		fmstat
 123              		.loc 1 56 0
 124 0072 F8EEC56A 		fsitos	s13, s10
 125              		.loc 1 62 0
 126 0076 B4EE460A 		fcmps	s0, s12
 127              		.loc 1 58 0
 128 007a A8BF     		it	ge
 129 007c F0EE470A 		fcpysge	s1, s14
 130              	.LVL6:
 131              		.loc 1 62 0
 132 0080 F1EE10FA 		fmstat
 133              		.loc 1 56 0
 134 0084 15EE106A 		fmrs	r6, s10	@ int
 135              	.LVL7:
 136              		.loc 1 62 0
 137 0088 A8BF     		it	ge
 138 008a B0EE460A 		fcpysge	s0, s12
 139              		.loc 1 56 0
 140 008e 77EEE66A 		fsubs	s13, s15, s13
 141              	.LVL8:
 142              		.loc 1 60 0
 143 0092 E1EE654A 		vfms.f32	s9, s2, s11
 144              	.LVL9:
 145              		.loc 1 65 0
 146 0096 002A     		cmp	r2, #0
 147 0098 6BD0     		beq	.L10
 148 009a 20EE822A 		fmuls	s4, s1, s4
 149              	.LVL10:
 150              	.LBB3:
 151              		.loc 1 66 0
 152 009e 9FED3B5A 		flds	s10, .L27+20
 153              		.loc 1 70 0
 154 00a2 9FED3B3A 		flds	s6, .L27+24
 155              		.loc 1 73 0
 156 00a6 DFED3B3A 		flds	s7, .L27+28
 157              		.loc 1 76 0
 158 00aa B9EE044A 		fconsts	s8, #148
 159 00ae F1EE042A 		fconsts	s5, #20
 160 00b2 F6EE001A 		fconsts	s3, #96
 161              		.loc 1 81 0
 162 00b6 40F2FF77 		movw	r7, #2047
 163 00ba 21E0     		b	.L13
 164              	.LVL11:
 165              	.L26:
 166              		.loc 1 76 0 discriminator 2
 167 00bc F4EEE27A 		fcmpes	s15, s5
 168 00c0 F1EE10FA 		fmstat
 169 00c4 50DC     		bgt	.L15
 170 00c6 67EEA15A 		fmuls	s11, s15, s3
 171              	.LVL12:
ARM GAS  /tmp/ccMqc7hn.s 			page 4


 172              	.L11:
 173              		.loc 1 83 0
 174 00ca 90ED027A 		flds	s14, [r0, #8]
 175              	.LVL13:
 176 00ce 77EEC77A 		fsubs	s15, s15, s14
 177              	.LVL14:
 178              		.loc 1 77 0
 179 00d2 00EB8302 		add	r2, r0, r3, lsl #2
 180              		.loc 1 83 0
 181 00d6 A7EE807A 		vfma.f32	s14, s15, s0
 182              		.loc 1 81 0
 183 00da 013B     		subs	r3, r3, #1
 184              	.LVL15:
 185              	.LBE3:
 186              		.loc 1 65 0
 187 00dc 05F1FF35 		add	r5, r5, #-1
 188              	.LVL16:
 189              	.LBB4:
 190              		.loc 1 77 0
 191 00e0 C2ED035A 		fsts	s11, [r2, #12]
 192              		.loc 1 83 0
 193 00e4 80ED027A 		fsts	s14, [r0, #8]
 194 00e8 F0EE477A 		fcpys	s15, s14
 195              		.loc 1 84 0
 196 00ec B1EC017A 		fldmias	r1!, {s14}
 197              	.LVL17:
 198 00f0 A7EE827A 		vfma.f32	s14, s15, s4
 199              		.loc 1 81 0
 200 00f4 48BF     		it	mi
 201 00f6 3B46     		movmi	r3, r7
 202              	.LVL18:
 203              	.LBE4:
 204              		.loc 1 65 0
 205 00f8 6A1C     		adds	r2, r5, #1
 206              	.LBB5:
 207              		.loc 1 84 0
 208 00fa 01ED017A 		fsts	s14, [r1, #-4]
 209              	.LVL19:
 210              	.LBE5:
 211              		.loc 1 65 0
 212 00fe 38D0     		beq	.L10
 213              	.LVL20:
 214              	.L13:
 215              	.LBB6:
 216              		.loc 1 67 0
 217 0100 9A19     		adds	r2, r3, r6
 218              		.loc 1 68 0
 219 0102 541C     		adds	r4, r2, #1
 220 0104 C4F30A04 		ubfx	r4, r4, #0, #11
 221              		.loc 1 67 0
 222 0108 C2F30A02 		ubfx	r2, r2, #0, #11
 223              		.loc 1 68 0
 224 010c 00EB8404 		add	r4, r0, r4, lsl #2
 225              		.loc 1 67 0
 226 0110 00EB8202 		add	r2, r0, r2, lsl #2
 227 0114 92ED037A 		flds	s14, [r2, #12]
 228              		.loc 1 69 0
ARM GAS  /tmp/ccMqc7hn.s 			page 5


 229 0118 D4ED035A 		flds	s11, [r4, #12]
 230              		.loc 1 66 0
 231 011c D1ED007A 		flds	s15, [r1]
 232              		.loc 1 70 0
 233 0120 90ED016A 		flds	s12, [r0, #4]
 234              		.loc 1 69 0
 235 0124 75EEC75A 		fsubs	s11, s11, s14
 236              		.loc 1 66 0
 237 0128 B0EE451A 		fcpys	s2, s10
 238              		.loc 1 69 0
 239 012c A5EEA67A 		vfma.f32	s14, s11, s13
 240              		.loc 1 66 0
 241 0130 A7EEA41A 		vfma.f32	s2, s15, s9
 242              		.loc 1 70 0
 243 0134 A7EE206A 		vfma.f32	s12, s14, s1
 244              		.loc 1 71 0
 245 0138 80ED017A 		fsts	s14, [r0, #4]
 246              		.loc 1 70 0
 247 013c B0EE417A 		fcpys	s14, s2
 248 0140 96EE037A 		vfnms.f32	s14, s12, s6
 249              		.loc 1 73 0
 250 0144 B0EE456A 		fcpys	s12, s10
 251 0148 A7EE236A 		vfma.f32	s12, s14, s7
 252              		.loc 1 66 0
 253 014c F0EE417A 		fcpys	s15, s2
 254              	.LVL21:
 255              		.loc 1 74 0
 256 0150 E7EE067A 		vfma.f32	s15, s14, s12
 257              	.LVL22:
 258 0154 F8EE045A 		fconsts	s11, #132
 259              		.loc 1 76 0
 260 0158 F4EEC47A 		fcmpes	s15, s8
 261 015c F1EE10FA 		fmstat
 262 0160 ACD5     		bpl	.L26
 263 0162 F9EE047A 		fconsts	s15, #148
 264              	.LVL23:
 265 0166 B0E7     		b	.L11
 266              	.LVL24:
 267              	.L15:
 268 0168 F0EE045A 		fconsts	s11, #4
 269 016c F1EE047A 		fconsts	s15, #20
 270              	.LVL25:
 271 0170 ABE7     		b	.L11
 272              	.LVL26:
 273              	.L10:
 274              	.LBE6:
 275              		.loc 1 86 0
 276 0172 0360     		str	r3, [r0]
 277              	.LBE7:
 278              		.loc 1 87 0
 279 0174 F0BC     		pop	{r4, r5, r6, r7}
 280              		.cfi_restore 7
 281              		.cfi_restore 6
 282              		.cfi_restore 5
 283              		.cfi_restore 4
 284              		.cfi_def_cfa_offset 0
 285              	.LVL27:
ARM GAS  /tmp/ccMqc7hn.s 			page 6


 286 0176 7047     		bx	lr
 287              	.L28:
 288              		.align	2
 289              	.L27:
 290 0178 00000045 		.word	1157627904
 291 017c 00008043 		.word	1132462080
 292 0180 52B87E3F 		.word	1065269330
 293 0184 6666E63F 		.word	1072064102
 294 0188 66666640 		.word	1080452710
 295 018c CDCC4C3F 		.word	1061997773
 296 0190 333373BF 		.word	-1082969293
 297 0194 CDCC4CBE 		.word	-1102263091
 298              		.cfi_endproc
 299              	.LFE547:
 300              		.cantunwind
 301              		.fnend
 302              		.size	_ZN8elements4Tube7ProcessEffffPffj, .-_ZN8elements4Tube7ProcessEffffPffj
 303              	.Letext0:
 304              		.file 2 "/home/sbcu/Dropbox/pcb-layouts/axo-on-discovery-board/axoloti/platform_linux/arm-none-eab
 305              		.file 3 "/home/sbcu/Dropbox/pcb-layouts/axo-on-discovery-board/axoloti/platform_linux/arm-none-eab
 306              		.file 4 "/home/sbcu/Dropbox/pcb-layouts/axo-on-discovery-board/axoloti/platform_linux/lib/gcc/arm-
 307              		.file 5 "./mutable_instruments/stmlib/stmlib.h"
 308              		.file 6 "/home/sbcu/Dropbox/pcb-layouts/axo-on-discovery-board/axoloti/platform_linux/arm-none-eab
 309              		.file 7 "/home/sbcu/Dropbox/pcb-layouts/axo-on-discovery-board/axoloti/platform_linux/arm-none-eab
 310              		.file 8 "/home/sbcu/Dropbox/pcb-layouts/axo-on-discovery-board/axoloti/platform_linux/arm-none-eab
 311              		.file 9 "/home/sbcu/Dropbox/pcb-layouts/axo-on-discovery-board/axoloti/platform_linux/arm-none-eab
 312              		.file 10 "/home/sbcu/Dropbox/pcb-layouts/axo-on-discovery-board/axoloti/platform_linux/arm-none-ea
 313              		.file 11 "/home/sbcu/Dropbox/pcb-layouts/axo-on-discovery-board/axoloti/platform_linux/arm-none-ea
 314              		.file 12 "/home/sbcu/Dropbox/pcb-layouts/axo-on-discovery-board/axoloti/platform_linux/arm-none-ea
 315              		.file 13 "/home/sbcu/Dropbox/pcb-layouts/axo-on-discovery-board/axoloti/platform_linux/arm-none-ea
 316              		.file 14 "/home/sbcu/Dropbox/pcb-layouts/axo-on-discovery-board/axoloti/platform_linux/arm-none-ea
 317              		.file 15 "/home/sbcu/Dropbox/pcb-layouts/axo-on-discovery-board/axoloti/platform_linux/arm-none-ea
 318              		.file 16 "/home/sbcu/Dropbox/pcb-layouts/axo-on-discovery-board/axoloti/platform_linux/arm-none-ea
 319              		.file 17 "/home/sbcu/Dropbox/pcb-layouts/axo-on-discovery-board/axoloti/platform_linux/arm-none-ea
 320              		.file 18 "./mutable_instruments/elements/dsp/dsp.h"
 321              		.file 19 "./mutable_instruments/elements/dsp/tube.h"
 322              		.file 20 "/home/sbcu/Dropbox/pcb-layouts/axo-on-discovery-board/axoloti/platform_linux/arm-none-ea
 323              		.file 21 "<built-in>"
 324              		.file 22 "/home/sbcu/Dropbox/pcb-layouts/axo-on-discovery-board/axoloti/platform_linux/arm-none-ea