ARM GAS  /tmp/ccMqc7hn.s 			page 1


   1              		.syntax unified
   2              		.cpu cortex-m4
   3              		.eabi_attribute 27, 1
   4              		.eabi_attribute 28, 1
   5              		.fpu fpv4-sp-d16
   6              		.eabi_attribute 20, 1
   7              		.eabi_attribute 21, 1
   8              		.eabi_attribute 23, 3
   9              		.eabi_attribute 24, 1
  10              		.eabi_attribute 25, 1
  11              		.eabi_attribute 26, 1
  12              		.eabi_attribute 30, 2
  13              		.eabi_attribute 34, 1
  14              		.eabi_attribute 18, 4
  15              		.thumb
  16              		.file	"tube.cpp"
  17              		.text
  18              	.Ltext0:
  19              		.cfi_sections	.debug_frame
  20              		.align	2
  21              		.p2align 4,,15
  22              		.global	_ZN8elements4Tube4InitEv
  23              		.thumb
  24              		.thumb_func
  25              		.type	_ZN8elements4Tube4InitEv, %function
  26              	_ZN8elements4Tube4InitEv:
  27              		.fnstart
  28              	.LFB546:
  29              		.file 1 "./mutable_instruments/elements/dsp/tube.cpp"
  30              		.loc 1 38 0
  31              		.cfi_startproc
  32              		@ args = 0, pretend = 0, frame = 0
  33              		@ frame_needed = 0, uses_anonymous_args = 0
  34              		@ link register save eliminated.
  35              	.LVL0:
  36              		.loc 1 39 0
  37 0000 0023     		movs	r3, #0
  38              		.loc 1 41 0
  39 0002 0022     		movs	r2, #0
  40 0004 0260     		str	r2, [r0]
  41              		.loc 1 39 0
  42 0006 4360     		str	r3, [r0, #4]	@ float
  43              		.loc 1 40 0
  44 0008 8360     		str	r3, [r0, #8]	@ float
  45 000a 7047     		bx	lr
  46              		.cfi_endproc
  47              	.LFE546:
  48              		.cantunwind
  49              		.fnend
  50              		.size	_ZN8elements4Tube4InitEv, .-_ZN8elements4Tube4InitEv
  51              		.align	2
  52 000c AFF30080 		.p2align 4,,15
  53              		.global	_ZN8elements4Tube7ProcessEffffPffj
  54              		.thumb
  55              		.thumb_func
  56              		.type	_ZN8elements4Tube7ProcessEffffPffj, %function
  57              	_ZN8elements4Tube7ProcessEffffPffj:
ARM GAS  /tmp/ccMqc7hn.s 			page 2


  58              		.fnstart
  59              	.LFB547:
  60              		.loc 1 51 0
  61              		.cfi_startproc
  62              		@ args = 0, pretend = 0, frame = 0
  63              		@ frame_needed = 0, uses_anonymous_args = 0
  64              		@ link register save eliminated.
  65              	.LVL1:
  66              	.LBB2:
  67              		.loc 1 52 0
  68 0010 F7EE007A 		fconsts	s15, #112
  69 0014 C7EE807A 		fdivs	s15, s15, s0
  70              	.LVL2:
  71              	.LBE2:
  72              		.loc 1 51 0
  73 0018 F0B4     		push	{r4, r5, r6, r7}
  74              		.cfi_def_cfa_offset 16
  75              		.cfi_offset 4, -16
  76              		.cfi_offset 5, -12
  77              		.cfi_offset 6, -8
  78              		.cfi_offset 7, -4
  79              	.LBB7:
  80              		.loc 1 53 0
  81 001a 9FED577A 		flds	s14, .L27
  82 001e F4EEC77A 		fcmpes	s15, s14
  83 0022 F1EE10FA 		fmstat
  84 0026 08DB     		blt	.L3
  85              		.loc 1 54 0
  86 0028 F6EE006A 		fconsts	s13, #96
  87              	.L5:
  88 002c 67EEA67A 		fmuls	s15, s15, s13
  89              	.LVL3:
  90              		.loc 1 53 0
  91 0030 F4EEC77A 		fcmpes	s15, s14
  92 0034 F1EE10FA 		fmstat
  93 0038 F8DA     		bge	.L5
  94              	.L3:
  95              		.loc 1 58 0
  96 003a B7EE007A 		fconsts	s14, #112
  97              		.loc 1 61 0
  98 003e DFED4F6A 		flds	s13, .L27+4
  99              		.loc 1 62 0
 100 0042 9FED4F6A 		flds	s12, .L27+8
 101              		.loc 1 60 0
 102 0046 DFED4F5A 		flds	s11, .L27+12
 103 004a DFED4F4A 		flds	s9, .L27+16
 104              		.loc 1 64 0
 105 004e 0368     		ldr	r3, [r0]
 106              		.loc 1 61 0
 107 0050 61EEA11A 		fmuls	s3, s3, s3
 108              	.LVL4:
 109 0054 B0EE475A 		fcpys	s10, s14
 110 0058 A1EEA65A 		vfma.f32	s10, s3, s13
 111              		.loc 1 65 0
 112 005c 551E     		subs	r5, r2, #1
 113              		.loc 1 58 0
 114 005e F4EE470A 		fcmps	s1, s14
ARM GAS  /tmp/ccMqc7hn.s 			page 3


 115              		.loc 1 61 0
 116 0062 F0EE456A 		fcpys	s13, s10
 117 0066 26EE800A 		fmuls	s0, s13, s0
 118              	.LVL5:
 119              		.loc 1 56 0
 120 006a BDEEE75A 		ftosizs	s10, s15
 121              		.loc 1 58 0
 122 006e F1EE10FA 		fmstat
 123              		.loc 1 56 0
 124 0072 F8EEC56A 		fsitos	s13, s10
 125              		.loc 1 62 0
 126 0076 B4EE460A 		fcmps	s0, s12
 127              		.loc 1 58 0
 128 007a A8BF     		it	ge
 129 007c F0EE470A 		fcpysge	s1, s14
 130              	.LVL6:
 131              		.loc 1 62 0
 132 0080 F1EE10FA 		fmstat
 133              		.loc 1 56 0
 134 0084 15EE106A 		fmrs	r6, s10	@ int
 135              	.LVL7:
 136              		.loc 1 62 0
 137 0088 A8BF     		it	ge
 138 008a B0EE460A 		fcpysge	s0, s12
 139              		.loc 1 56 0
 140 008e 77EEE66A 		fsubs	s13, s15, s13
 141              	.LVL8:
 142              		.loc 1 60 0
 143 0092 E1EE654A 		vfms.f32	s9, s2, s11
 144              	.LVL9:
 145              		.loc 1 65 0
 146 0096 002A     		cmp	r2, #0
 147 0098 6BD0     		beq	.L10
 148 009a 20EE822A 		fmuls	s4, s1, s4
 149              	.LVL10:
 150              	.LBB3:
 151              		.loc 1 66 0
 152 009e 9FED3B5A 		flds	s10, .L27+20
 153              		.loc 1 70 0
 154 00a2 9FED3B3A 		flds	s6, .L27+24
 155              		.loc 1 73 0
 156 00a6 DFED3B3A 		flds	s7, .L27+28
 157              		.loc 1 76 0
 158 00aa B9EE044A 		fconsts	s8, #148
 159 00ae F1EE042A 		fconsts	s5, #20
 160 00b2 F6EE001A 		fconsts	s3, #96
 161              		.loc 1 81 0
 162 00b6 40F2FF77 		movw	r7, #2047
 163 00ba 21E0     		b	.L13
 164              	.LVL11:
 165              	.L26:
 166              		.loc 1 76 0 discriminator 2
 167 00bc F4EEE27A 		fcmpes	s15, s5
 168 00c0 F1EE10FA 		fmstat
 169 00c4 50DC     		bgt	.L15
 170 00c6 67EEA15A 		fmuls	s11, s15, s3
 171              	.LVL12:
ARM GAS  /tmp/ccMqc7hn.s 			page 4


 172              	.L11:
 173              		.loc 1 83 0
 174 00ca 90ED027A 		flds	s14, [r0, #8]
 175              	.LVL13:
 176 00ce 77EEC77A 		fsubs	s15, s15, s14
 177              	.LVL14:
 178              		.loc 1 77 0
 179 00d2 00EB8302 		add	r2, r0, r3, lsl #2
 180              		.loc 1 83 0
 181 00d6 A7EE807A 		vfma.f32	s14, s15, s0
 182              		.loc 1 81 0
 183 00da 013B     		subs	r3, r3, #1
 184              	.LVL15:
 185              	.LBE3:
 186              		.loc 1 65 0
 187 00dc 05F1FF35 		add	r5, r5, #-1
 188              	.LVL16:
 189              	.LBB4:
 190              		.loc 1 77 0
 191 00e0 C2ED035A 		fsts	s11, [r2, #12]
 192              		.loc 1 83 0
 193 00e4 80ED027A 		fsts	s14, [r0, #8]
 194 00e8 F0EE477A 		fcpys	s15, s14
 195              		.loc 1 84 0
 196 00ec B1EC017A 		fldmias	r1!, {s14}
 197              	.LVL17:
 198 00f0 A7EE827A 		vfma.f32	s14, s15, s4
 199              		.loc 1 81 0
 200 00f4 48BF     		it	mi
 201 00f6 3B46     		movmi	r3, r7
 202              	.LVL18:
 203              	.LBE4:
 204              		.loc 1 65 0
 205 00f8 6A1C     		adds	r2, r5, #1
 206              	.LBB5:
 207              		.loc 1 84 0
 208 00fa 01ED017A 		fsts	s14, [r1, #-4]
 209              	.LVL19:
 210              	.LBE5:
 211              		.loc 1 65 0
 212 00fe 38D0     		beq	.L10
 213              	.LVL20:
 214              	.L13:
 215              	.LBB6:
 216              		.loc 1 67 0
 217 0100 9A19     		adds	r2, r3, r6
 218              		.loc 1 68 0
 219 0102 541C     		adds	r4, r2, #1
 220 0104 C4F30A04 		ubfx	r4, r4, #0, #11
 221              		.loc 1 67 0
 222 0108 C2F30A02 		ubfx	r2, r2, #0, #11
 223              		.loc 1 68 0
 224 010c 00EB8404 		add	r4, r0, r4, lsl #2
 225              		.loc 1 67 0
 226 0110 00EB8202 		add	r2, r0, r2, lsl #2
 227 0114 92ED037A 		flds	s14, [r2, #12]
 228              		.loc 1 69 0
ARM GAS  /tmp/ccMqc7hn.s 			page 5


 229 0118 D4ED035A 		flds	s11, [r4, #12]
 230              		.loc 1 66 0
 231 011c D1ED007A 		flds	s15, [r1]
 232              		.loc 1 70 0
 233 0120 90ED016A 		flds	s12, [r0, #4]
 234              		.loc 1 69 0
 235 0124 75EEC75A 		fsubs	s11, s11, s14
 236              		.loc 1 66 0
 237 0128 B0EE451A 		fcpys	s2, s10
 238              		.loc 1 69 0
 239 012c A5EEA67A 		vfma.f32	s14, s11, s13
 240              		.loc 1 66 0
 241 0130 A7EEA41A 		vfma.f32	s2, s15, s9
 242              		.loc 1 70 0
 243 0134 A7EE206A 		vfma.f32	s12, s14, s1
 244              		.loc 1 71 0
 245 0138 80ED017A 		fsts	s14, [r0, #4]
 246              		.loc 1 70 0
 247 013c B0EE417A 		fcpys	s14, s2
 248 0140 96EE037A 		vfnms.f32	s14, s12, s6
 249              		.loc 1 73 0
 250 0144 B0EE456A 		fcpys	s12, s10
 251 0148 A7EE236A 		vfma.f32	s12, s14, s7
 252              		.loc 1 66 0
 253 014c F0EE417A 		fcpys	s15, s2
 254              	.LVL21:
 255              		.loc 1 74 0
 256 0150 E7EE067A 		vfma.f32	s15, s14, s12
 257              	.LVL22:
 258 0154 F8EE045A 		fconsts	s11, #132
 259              		.loc 1 76 0
 260 0158 F4EEC47A 		fcmpes	s15, s8
 261 015c F1EE10FA 		fmstat
 262 0160 ACD5     		bpl	.L26
 263 0162 F9EE047A 		fconsts	s15, #148
 264              	.LVL23:
 265 0166 B0E7     		b	.L11
 266              	.LVL24:
 267              	.L15:
 268 0168 F0EE045A 		fconsts	s11, #4
 269 016c F1EE047A 		fconsts	s15, #20
 270              	.LVL25:
 271 0170 ABE7     		b	.L11
 272              	.LVL26:
 273              	.L10:
 274              	.LBE6:
 275              		.loc 1 86 0
 276 0172 0360     		str	r3, [r0]
 277              	.LBE7:
 278              		.loc 1 87 0
 279 0174 F0BC     		pop	{r4, r5, r6, r7}
 280              		.cfi_restore 7
 281              		.cfi_restore 6
 282              		.cfi_restore 5
 283              		.cfi_restore 4
 284              		.cfi_def_cfa_offset 0
 285              	.LVL27:
ARM GAS  /tmp/ccMqc7hn.s 			page 6


 286 0176 7047     		bx	lr
 287              	.L28:
 288              		.align	2
 289              	.L27:
 290 0178 00000045 		.word	1157627904
 291 017c 00008043 		.word	1132462080
 292 0180 52B87E3F 		.word	1065269330
 293 0184 6666E63F 		.word	1072064102
 294 0188 66666640 		.word	1080452710
 295 018c CDCC4C3F 		.word	1061997773
 296 0190 333373BF 		.word	-1082969293
 297 0194 CDCC4CBE 		.word	-1102263091
 298              		.cfi_endproc
 299              	.LFE547:
 300              		.cantunwind
 301              		.fnend
 302              		.size	_ZN8elements4Tube7ProcessEffffPffj, .-_ZN8elements4Tube7ProcessEffffPffj
 303              	.Letext0:
 304              		.file 2 "/home/sbcu/Dropbox/pcb-layouts/axo-on-discovery-board/axoloti/platform_linux/arm-none-eab
 305              		.file 3 "/home/sbcu/Dropbox/pcb-layouts/axo-on-discovery-board/axoloti/platform_linux/arm-none-eab
 306              		.file 4 "/home/sbcu/Dropbox/pcb-layouts/axo-on-discovery-board/axoloti/platform_linux/lib/gcc/arm-
 307              		.file 5 "./mutable_instruments/stmlib/stmlib.h"
 308              		.file 6 "/home/sbcu/Dropbox/pcb-layouts/axo-on-discovery-board/axoloti/platform_linux/arm-none-eab
 309              		.file 7 "/home/sbcu/Dropbox/pcb-layouts/axo-on-discovery-board/axoloti/platform_linux/arm-none-eab
 310              		.file 8 "/home/sbcu/Dropbox/pcb-layouts/axo-on-discovery-board/axoloti/platform_linux/arm-none-eab
 311              		.file 9 "/home/sbcu/Dropbox/pcb-layouts/axo-on-discovery-board/axoloti/platform_linux/arm-none-eab
 312              		.file 10 "/home/sbcu/Dropbox/pcb-layouts/axo-on-discovery-board/axoloti/platform_linux/arm-none-ea
 313              		.file 11 "/home/sbcu/Dropbox/pcb-layouts/axo-on-discovery-board/axoloti/platform_linux/arm-none-ea
 314              		.file 12 "/home/sbcu/Dropbox/pcb-layouts/axo-on-discovery-board/axoloti/platform_linux/arm-none-ea
 315              		.file 13 "/home/sbcu/Dropbox/pcb-layouts/axo-on-discovery-board/axoloti/platform_linux/arm-none-ea
 316              		.file 14 "/home/sbcu/Dropbox/pcb-layouts/axo-on-discovery-board/axoloti/platform_linux/arm-none-ea
 317              		.file 15 "/home/sbcu/Dropbox/pcb-layouts/axo-on-discovery-board/axoloti/platform_linux/arm-none-ea
 318              		.file 16 "/home/sbcu/Dropbox/pcb-layouts/axo-on-discovery-board/axoloti/platform_linux/arm-none-ea
 319              		.file 17 "/home/sbcu/Dropbox/pcb-layouts/axo-on-discovery-board/axoloti/platform_linux/arm-none-ea
 320              		.file 18 "./mutable_instruments/elements/dsp/dsp.h"
 321              		.file 19 "./mutable_instruments/elements/dsp/tube.h"
 322              		.file 20 "/home/sbcu/Dropbox/pcb-layouts/axo-on-discovery-board/axoloti/platform_linux/arm-none-ea
 323              		.file 21 "<built-in>"
 324              		.file 22 "/home/sbcu/Dropbox/pcb-layouts/axo-on-discovery-board/axoloti/platform_linux/arm-none-ea
 325              		.section	.debug_info,"",%progbits
 326              	.Ldebug_info0:
 327 0000 F1120000 		.4byte	0x12f1
 328 0004 0400     		.2byte	0x4
 329 0006 00000000 		.4byte	.Ldebug_abbrev0
 330 000a 04       		.byte	0x4
 331 000b 01       		.uleb128 0x1
 332 000c F0010000 		.4byte	.LASF220
 333 0010 04       		.byte	0x4
 334 0011 1C060000 		.4byte	.LASF221
 335 0015 AE080000 		.4byte	.LASF222
 336 0019 00000000 		.4byte	.Ltext0
 337 001d 98010000 		.4byte	.Letext0-.Ltext0
 338 0021 00000000 		.4byte	.Ldebug_line0
 339 0025 02       		.uleb128 0x2
 340 0026 04       		.byte	0x4
 341 0027 04       		.byte	0x4
 342 0028 93010000 		.4byte	.LASF0
ARM GAS  /tmp/ccMqc7hn.s 			page 7


 343 002c 02       		.uleb128 0x2
 344 002d 01       		.byte	0x1
 345 002e 06       		.byte	0x6
 346 002f 9B080000 		.4byte	.LASF1
 347 0033 02       		.uleb128 0x2
 348 0034 01       		.byte	0x1
 349 0035 08       		.byte	0x8
 350 0036 CE070000 		.4byte	.LASF2
 351 003a 02       		.uleb128 0x2
 352 003b 02       		.byte	0x2
 353 003c 05       		.byte	0x5
 354 003d 91060000 		.4byte	.LASF3
 355 0041 02       		.uleb128 0x2
 356 0042 02       		.byte	0x2
 357 0043 07       		.byte	0x7
 358 0044 F5080000 		.4byte	.LASF4
 359 0048 03       		.uleb128 0x3
 360 0049 A4000000 		.4byte	.LASF10
 361 004d 02       		.byte	0x2
 362 004e 3F       		.byte	0x3f
 363 004f 53000000 		.4byte	0x53
 364 0053 02       		.uleb128 0x2
 365 0054 04       		.byte	0x4
 366 0055 05       		.byte	0x5
 367 0056 9B060000 		.4byte	.LASF5
 368 005a 02       		.uleb128 0x2
 369 005b 04       		.byte	0x4
 370 005c 07       		.byte	0x7
 371 005d 92070000 		.4byte	.LASF6
 372 0061 02       		.uleb128 0x2
 373 0062 08       		.byte	0x8
 374 0063 05       		.byte	0x5
 375 0064 BA040000 		.4byte	.LASF7
 376 0068 02       		.uleb128 0x2
 377 0069 08       		.byte	0x8
 378 006a 07       		.byte	0x7
 379 006b CC010000 		.4byte	.LASF8
 380 006f 04       		.uleb128 0x4
 381 0070 04       		.byte	0x4
 382 0071 05       		.byte	0x5
 383 0072 696E7400 		.ascii	"int\000"
 384 0076 02       		.uleb128 0x2
 385 0077 04       		.byte	0x4
 386 0078 07       		.byte	0x7
 387 0079 7D000000 		.4byte	.LASF9
 388 007d 03       		.uleb128 0x3
 389 007e B2070000 		.4byte	.LASF11
 390 0082 03       		.byte	0x3
 391 0083 1F       		.byte	0x1f
 392 0084 48000000 		.4byte	0x48
 393 0088 03       		.uleb128 0x3
 394 0089 5F030000 		.4byte	.LASF12
 395 008d 04       		.byte	0x4
 396 008e D4       		.byte	0xd4
 397 008f 76000000 		.4byte	0x76
 398 0093 05       		.uleb128 0x5
 399 0094 DC070000 		.4byte	.LASF13
ARM GAS  /tmp/ccMqc7hn.s 			page 8


 400 0098 05       		.byte	0x5
 401 0099 3C       		.byte	0x3c
 402 009a 05       		.uleb128 0x5
 403 009b DF030000 		.4byte	.LASF14
 404 009f 05       		.byte	0x5
 405 00a0 5D       		.byte	0x5d
 406 00a1 02       		.uleb128 0x2
 407 00a2 04       		.byte	0x4
 408 00a3 07       		.byte	0x7
 409 00a4 81070000 		.4byte	.LASF15
 410 00a8 06       		.uleb128 0x6
 411 00a9 33000000 		.4byte	0x33
 412 00ad B8000000 		.4byte	0xb8
 413 00b1 07       		.uleb128 0x7
 414 00b2 A1000000 		.4byte	0xa1
 415 00b6 03       		.byte	0x3
 416 00b7 00       		.byte	0
 417 00b8 08       		.uleb128 0x8
 418 00b9 73746400 		.ascii	"std\000"
 419 00bd 15       		.byte	0x15
 420 00be 00       		.byte	0
 421 00bf 5B020000 		.4byte	0x25b
 422 00c3 05       		.uleb128 0x5
 423 00c4 07000000 		.4byte	.LASF16
 424 00c8 06       		.byte	0x6
 425 00c9 30       		.byte	0x30
 426 00ca 09       		.uleb128 0x9
 427 00cb 07       		.byte	0x7
 428 00cc 76       		.byte	0x76
 429 00cd E30A0000 		.4byte	0xae3
 430 00d1 09       		.uleb128 0x9
 431 00d2 07       		.byte	0x7
 432 00d3 77       		.byte	0x77
 433 00d4 130B0000 		.4byte	0xb13
 434 00d8 09       		.uleb128 0x9
 435 00d9 07       		.byte	0x7
 436 00da 7B       		.byte	0x7b
 437 00db 4A0B0000 		.4byte	0xb4a
 438 00df 09       		.uleb128 0x9
 439 00e0 07       		.byte	0x7
 440 00e1 81       		.byte	0x81
 441 00e2 5F0B0000 		.4byte	0xb5f
 442 00e6 09       		.uleb128 0x9
 443 00e7 07       		.byte	0x7
 444 00e8 82       		.byte	0x82
 445 00e9 740B0000 		.4byte	0xb74
 446 00ed 09       		.uleb128 0x9
 447 00ee 07       		.byte	0x7
 448 00ef 83       		.byte	0x83
 449 00f0 890B0000 		.4byte	0xb89
 450 00f4 09       		.uleb128 0x9
 451 00f5 07       		.byte	0x7
 452 00f6 84       		.byte	0x84
 453 00f7 9E0B0000 		.4byte	0xb9e
 454 00fb 09       		.uleb128 0x9
 455 00fc 07       		.byte	0x7
 456 00fd 86       		.byte	0x86
ARM GAS  /tmp/ccMqc7hn.s 			page 9


 457 00fe C70B0000 		.4byte	0xbc7
 458 0102 09       		.uleb128 0x9
 459 0103 07       		.byte	0x7
 460 0104 89       		.byte	0x89
 461 0105 E10B0000 		.4byte	0xbe1
 462 0109 09       		.uleb128 0x9
 463 010a 07       		.byte	0x7
 464 010b 8B       		.byte	0x8b
 465 010c F60B0000 		.4byte	0xbf6
 466 0110 09       		.uleb128 0x9
 467 0111 07       		.byte	0x7
 468 0112 8E       		.byte	0x8e
 469 0113 100C0000 		.4byte	0xc10
 470 0117 09       		.uleb128 0x9
 471 0118 07       		.byte	0x7
 472 0119 8F       		.byte	0x8f
 473 011a 2A0C0000 		.4byte	0xc2a
 474 011e 09       		.uleb128 0x9
 475 011f 07       		.byte	0x7
 476 0120 90       		.byte	0x90
 477 0121 560C0000 		.4byte	0xc56
 478 0125 09       		.uleb128 0x9
 479 0126 07       		.byte	0x7
 480 0127 92       		.byte	0x92
 481 0128 750C0000 		.4byte	0xc75
 482 012c 09       		.uleb128 0x9
 483 012d 07       		.byte	0x7
 484 012e 98       		.byte	0x98
 485 012f 950C0000 		.4byte	0xc95
 486 0133 09       		.uleb128 0x9
 487 0134 07       		.byte	0x7
 488 0135 9A       		.byte	0x9a
 489 0136 A00C0000 		.4byte	0xca0
 490 013a 09       		.uleb128 0x9
 491 013b 07       		.byte	0x7
 492 013c 9B       		.byte	0x9b
 493 013d B10C0000 		.4byte	0xcb1
 494 0141 09       		.uleb128 0x9
 495 0142 07       		.byte	0x7
 496 0143 9C       		.byte	0x9c
 497 0144 D10C0000 		.4byte	0xcd1
 498 0148 09       		.uleb128 0x9
 499 0149 07       		.byte	0x7
 500 014a 9D       		.byte	0x9d
 501 014b F00C0000 		.4byte	0xcf0
 502 014f 09       		.uleb128 0x9
 503 0150 07       		.byte	0x7
 504 0151 9E       		.byte	0x9e
 505 0152 0F0D0000 		.4byte	0xd0f
 506 0156 09       		.uleb128 0x9
 507 0157 07       		.byte	0x7
 508 0158 A0       		.byte	0xa0
 509 0159 240D0000 		.4byte	0xd24
 510 015d 09       		.uleb128 0x9
 511 015e 07       		.byte	0x7
 512 015f A1       		.byte	0xa1
 513 0160 4E0D0000 		.4byte	0xd4e
ARM GAS  /tmp/ccMqc7hn.s 			page 10


 514 0164 0A       		.uleb128 0xa
 515 0165 97030000 		.4byte	.LASF223
 516 0169 01       		.byte	0x1
 517 016a 16       		.byte	0x16
 518 016b 63       		.byte	0x63
 519 016c 03       		.uleb128 0x3
 520 016d 5F030000 		.4byte	.LASF12
 521 0171 08       		.byte	0x8
 522 0172 BC       		.byte	0xbc
 523 0173 76000000 		.4byte	0x76
 524 0177 03       		.uleb128 0x3
 525 0178 35040000 		.4byte	.LASF17
 526 017c 08       		.byte	0x8
 527 017d BD       		.byte	0xbd
 528 017e 6F000000 		.4byte	0x6f
 529 0182 09       		.uleb128 0x9
 530 0183 09       		.byte	0x9
 531 0184 62       		.byte	0x62
 532 0185 DC0E0000 		.4byte	0xedc
 533 0189 09       		.uleb128 0x9
 534 018a 09       		.byte	0x9
 535 018b 63       		.byte	0x63
 536 018c E70E0000 		.4byte	0xee7
 537 0190 09       		.uleb128 0x9
 538 0191 09       		.byte	0x9
 539 0192 65       		.byte	0x65
 540 0193 F20E0000 		.4byte	0xef2
 541 0197 09       		.uleb128 0x9
 542 0198 09       		.byte	0x9
 543 0199 66       		.byte	0x66
 544 019a 090F0000 		.4byte	0xf09
 545 019e 09       		.uleb128 0x9
 546 019f 09       		.byte	0x9
 547 01a0 67       		.byte	0x67
 548 01a1 1E0F0000 		.4byte	0xf1e
 549 01a5 09       		.uleb128 0x9
 550 01a6 09       		.byte	0x9
 551 01a7 68       		.byte	0x68
 552 01a8 330F0000 		.4byte	0xf33
 553 01ac 09       		.uleb128 0x9
 554 01ad 09       		.byte	0x9
 555 01ae 69       		.byte	0x69
 556 01af 480F0000 		.4byte	0xf48
 557 01b3 09       		.uleb128 0x9
 558 01b4 09       		.byte	0x9
 559 01b5 6A       		.byte	0x6a
 560 01b6 5D0F0000 		.4byte	0xf5d
 561 01ba 09       		.uleb128 0x9
 562 01bb 09       		.byte	0x9
 563 01bc 6B       		.byte	0x6b
 564 01bd 720F0000 		.4byte	0xf72
 565 01c1 09       		.uleb128 0x9
 566 01c2 09       		.byte	0x9
 567 01c3 6C       		.byte	0x6c
 568 01c4 920F0000 		.4byte	0xf92
 569 01c8 09       		.uleb128 0x9
 570 01c9 09       		.byte	0x9
ARM GAS  /tmp/ccMqc7hn.s 			page 11


 571 01ca 6D       		.byte	0x6d
 572 01cb B10F0000 		.4byte	0xfb1
 573 01cf 09       		.uleb128 0x9
 574 01d0 09       		.byte	0x9
 575 01d1 71       		.byte	0x71
 576 01d2 CB0F0000 		.4byte	0xfcb
 577 01d6 09       		.uleb128 0x9
 578 01d7 09       		.byte	0x9
 579 01d8 72       		.byte	0x72
 580 01d9 EF0F0000 		.4byte	0xfef
 581 01dd 09       		.uleb128 0x9
 582 01de 09       		.byte	0x9
 583 01df 74       		.byte	0x74
 584 01e0 0E100000 		.4byte	0x100e
 585 01e4 09       		.uleb128 0x9
 586 01e5 09       		.byte	0x9
 587 01e6 75       		.byte	0x75
 588 01e7 2D100000 		.4byte	0x102d
 589 01eb 09       		.uleb128 0x9
 590 01ec 09       		.byte	0x9
 591 01ed 76       		.byte	0x76
 592 01ee 52100000 		.4byte	0x1052
 593 01f2 09       		.uleb128 0x9
 594 01f3 09       		.byte	0x9
 595 01f4 78       		.byte	0x78
 596 01f5 67100000 		.4byte	0x1067
 597 01f9 09       		.uleb128 0x9
 598 01fa 09       		.byte	0x9
 599 01fb 79       		.byte	0x79
 600 01fc 7C100000 		.4byte	0x107c
 601 0200 09       		.uleb128 0x9
 602 0201 09       		.byte	0x9
 603 0202 7C       		.byte	0x7c
 604 0203 87100000 		.4byte	0x1087
 605 0207 09       		.uleb128 0x9
 606 0208 09       		.byte	0x9
 607 0209 7E       		.byte	0x7e
 608 020a 9C100000 		.4byte	0x109c
 609 020e 09       		.uleb128 0x9
 610 020f 09       		.byte	0x9
 611 0210 83       		.byte	0x83
 612 0211 AD100000 		.4byte	0x10ad
 613 0215 09       		.uleb128 0x9
 614 0216 09       		.byte	0x9
 615 0217 84       		.byte	0x84
 616 0218 C2100000 		.4byte	0x10c2
 617 021c 09       		.uleb128 0x9
 618 021d 09       		.byte	0x9
 619 021e 85       		.byte	0x85
 620 021f DC100000 		.4byte	0x10dc
 621 0223 09       		.uleb128 0x9
 622 0224 09       		.byte	0x9
 623 0225 87       		.byte	0x87
 624 0226 ED100000 		.4byte	0x10ed
 625 022a 09       		.uleb128 0x9
 626 022b 09       		.byte	0x9
 627 022c 88       		.byte	0x88
ARM GAS  /tmp/ccMqc7hn.s 			page 12


 628 022d 03110000 		.4byte	0x1103
 629 0231 09       		.uleb128 0x9
 630 0232 09       		.byte	0x9
 631 0233 8B       		.byte	0x8b
 632 0234 27110000 		.4byte	0x1127
 633 0238 09       		.uleb128 0x9
 634 0239 09       		.byte	0x9
 635 023a 8D       		.byte	0x8d
 636 023b 32110000 		.4byte	0x1132
 637 023f 09       		.uleb128 0x9
 638 0240 09       		.byte	0x9
 639 0241 8F       		.byte	0x8f
 640 0242 47110000 		.4byte	0x1147
 641 0246 0B       		.uleb128 0xb
 642 0247 0E010000 		.4byte	.LASF224
 643 024b 16       		.byte	0x16
 644 024c 65       		.byte	0x65
 645 024d 03060000 		.4byte	.LASF225
 646 0251 55020000 		.4byte	0x255
 647 0255 0C       		.uleb128 0xc
 648 0256 64010000 		.4byte	0x164
 649 025a 00       		.byte	0
 650 025b 0D       		.uleb128 0xd
 651 025c 8A000000 		.4byte	.LASF18
 652 0260 10       		.byte	0x10
 653 0261 45       		.byte	0x45
 654 0262 BA020000 		.4byte	0x2ba
 655 0266 05       		.uleb128 0x5
 656 0267 E4000000 		.4byte	.LASF19
 657 026b 0A       		.byte	0xa
 658 026c 24       		.byte	0x24
 659 026d 09       		.uleb128 0x9
 660 026e 0B       		.byte	0xb
 661 026f 2C       		.byte	0x2c
 662 0270 6C010000 		.4byte	0x16c
 663 0274 09       		.uleb128 0x9
 664 0275 0B       		.byte	0xb
 665 0276 2D       		.byte	0x2d
 666 0277 77010000 		.4byte	0x177
 667 027b 0E       		.uleb128 0xe
 668 027c E5060000 		.4byte	.LASF226
 669 0280 01       		.byte	0x1
 670 0281 0C       		.byte	0xc
 671 0282 37       		.byte	0x37
 672 0283 0F       		.uleb128 0xf
 673 0284 63080000 		.4byte	.LASF20
 674 0288 0C       		.byte	0xc
 675 0289 3A       		.byte	0x3a
 676 028a 680D0000 		.4byte	0xd68
 677 028e 0F       		.uleb128 0xf
 678 028f B7030000 		.4byte	.LASF21
 679 0293 0C       		.byte	0xc
 680 0294 3B       		.byte	0x3b
 681 0295 680D0000 		.4byte	0xd68
 682 0299 0F       		.uleb128 0xf
 683 029a 93050000 		.4byte	.LASF22
 684 029e 0C       		.byte	0xc
ARM GAS  /tmp/ccMqc7hn.s 			page 13


 685 029f 3F       		.byte	0x3f
 686 02a0 6D0D0000 		.4byte	0xd6d
 687 02a4 0F       		.uleb128 0xf
 688 02a5 08090000 		.4byte	.LASF23
 689 02a9 0C       		.byte	0xc
 690 02aa 40       		.byte	0x40
 691 02ab 680D0000 		.4byte	0xd68
 692 02af 10       		.uleb128 0x10
 693 02b0 A8050000 		.4byte	.LASF227
 694 02b4 6F000000 		.4byte	0x6f
 695 02b8 00       		.byte	0
 696 02b9 00       		.byte	0
 697 02ba 02       		.uleb128 0x2
 698 02bb 08       		.byte	0x8
 699 02bc 04       		.byte	0x4
 700 02bd 10060000 		.4byte	.LASF24
 701 02c1 02       		.uleb128 0x2
 702 02c2 08       		.byte	0x8
 703 02c3 04       		.byte	0x4
 704 02c4 2A090000 		.4byte	.LASF25
 705 02c8 03       		.uleb128 0x3
 706 02c9 CC000000 		.4byte	.LASF26
 707 02cd 0D       		.byte	0xd
 708 02ce 07       		.byte	0x7
 709 02cf 6F000000 		.4byte	0x6f
 710 02d3 03       		.uleb128 0x3
 711 02d4 31090000 		.4byte	.LASF27
 712 02d8 0E       		.byte	0xe
 713 02d9 10       		.byte	0x10
 714 02da 53000000 		.4byte	0x53
 715 02de 03       		.uleb128 0x3
 716 02df F9000000 		.4byte	.LASF28
 717 02e3 0E       		.byte	0xe
 718 02e4 27       		.byte	0x27
 719 02e5 53000000 		.4byte	0x53
 720 02e9 11       		.uleb128 0x11
 721 02ea AB070000 		.4byte	.LASF29
 722 02ee 04       		.byte	0x4
 723 02ef 6101     		.2byte	0x161
 724 02f1 76000000 		.4byte	0x76
 725 02f5 12       		.uleb128 0x12
 726 02f6 08       		.byte	0x8
 727 02f7 0E       		.byte	0xe
 728 02f8 48       		.byte	0x48
 729 02f9 D2030000 		.4byte	.LASF134
 730 02fd 39030000 		.4byte	0x339
 731 0301 13       		.uleb128 0x13
 732 0302 04       		.byte	0x4
 733 0303 0E       		.byte	0xe
 734 0304 4B       		.byte	0x4b
 735 0305 20030000 		.4byte	0x320
 736 0309 14       		.uleb128 0x14
 737 030a 48040000 		.4byte	.LASF30
 738 030e 0E       		.byte	0xe
 739 030f 4C       		.byte	0x4c
 740 0310 E9020000 		.4byte	0x2e9
 741 0314 14       		.uleb128 0x14
ARM GAS  /tmp/ccMqc7hn.s 			page 14


 742 0315 DE060000 		.4byte	.LASF31
 743 0319 0E       		.byte	0xe
 744 031a 4D       		.byte	0x4d
 745 031b A8000000 		.4byte	0xa8
 746 031f 00       		.byte	0
 747 0320 15       		.uleb128 0x15
 748 0321 7D010000 		.4byte	.LASF32
 749 0325 0E       		.byte	0xe
 750 0326 49       		.byte	0x49
 751 0327 6F000000 		.4byte	0x6f
 752 032b 00       		.byte	0
 753 032c 15       		.uleb128 0x15
 754 032d C5030000 		.4byte	.LASF33
 755 0331 0E       		.byte	0xe
 756 0332 4E       		.byte	0x4e
 757 0333 01030000 		.4byte	0x301
 758 0337 04       		.byte	0x4
 759 0338 00       		.byte	0
 760 0339 03       		.uleb128 0x3
 761 033a 4C050000 		.4byte	.LASF34
 762 033e 0E       		.byte	0xe
 763 033f 4F       		.byte	0x4f
 764 0340 F5020000 		.4byte	0x2f5
 765 0344 03       		.uleb128 0x3
 766 0345 3F040000 		.4byte	.LASF35
 767 0349 0E       		.byte	0xe
 768 034a 53       		.byte	0x53
 769 034b C8020000 		.4byte	0x2c8
 770 034f 16       		.uleb128 0x16
 771 0350 04       		.byte	0x4
 772 0351 03       		.uleb128 0x3
 773 0352 EF040000 		.4byte	.LASF36
 774 0356 0F       		.byte	0xf
 775 0357 16       		.byte	0x16
 776 0358 5A000000 		.4byte	0x5a
 777 035c 17       		.uleb128 0x17
 778 035d 25010000 		.4byte	.LASF41
 779 0361 18       		.byte	0x18
 780 0362 0F       		.byte	0xf
 781 0363 2D       		.byte	0x2d
 782 0364 AF030000 		.4byte	0x3af
 783 0368 15       		.uleb128 0x15
 784 0369 A1030000 		.4byte	.LASF37
 785 036d 0F       		.byte	0xf
 786 036e 2F       		.byte	0x2f
 787 036f AF030000 		.4byte	0x3af
 788 0373 00       		.byte	0
 789 0374 18       		.uleb128 0x18
 790 0375 5F6B00   		.ascii	"_k\000"
 791 0378 0F       		.byte	0xf
 792 0379 30       		.byte	0x30
 793 037a 6F000000 		.4byte	0x6f
 794 037e 04       		.byte	0x4
 795 037f 15       		.uleb128 0x15
 796 0380 3F070000 		.4byte	.LASF38
 797 0384 0F       		.byte	0xf
 798 0385 30       		.byte	0x30
ARM GAS  /tmp/ccMqc7hn.s 			page 15


 799 0386 6F000000 		.4byte	0x6f
 800 038a 08       		.byte	0x8
 801 038b 15       		.uleb128 0x15
 802 038c B5060000 		.4byte	.LASF39
 803 0390 0F       		.byte	0xf
 804 0391 30       		.byte	0x30
 805 0392 6F000000 		.4byte	0x6f
 806 0396 0C       		.byte	0xc
 807 0397 15       		.uleb128 0x15
 808 0398 FD020000 		.4byte	.LASF40
 809 039c 0F       		.byte	0xf
 810 039d 30       		.byte	0x30
 811 039e 6F000000 		.4byte	0x6f
 812 03a2 10       		.byte	0x10
 813 03a3 18       		.uleb128 0x18
 814 03a4 5F7800   		.ascii	"_x\000"
 815 03a7 0F       		.byte	0xf
 816 03a8 31       		.byte	0x31
 817 03a9 B5030000 		.4byte	0x3b5
 818 03ad 14       		.byte	0x14
 819 03ae 00       		.byte	0
 820 03af 19       		.uleb128 0x19
 821 03b0 04       		.byte	0x4
 822 03b1 5C030000 		.4byte	0x35c
 823 03b5 06       		.uleb128 0x6
 824 03b6 5A000000 		.4byte	0x5a
 825 03ba C5030000 		.4byte	0x3c5
 826 03be 07       		.uleb128 0x7
 827 03bf A1000000 		.4byte	0xa1
 828 03c3 00       		.byte	0
 829 03c4 00       		.byte	0
 830 03c5 17       		.uleb128 0x17
 831 03c6 71070000 		.4byte	.LASF42
 832 03ca 24       		.byte	0x24
 833 03cb 0F       		.byte	0xf
 834 03cc 35       		.byte	0x35
 835 03cd 3E040000 		.4byte	0x43e
 836 03d1 15       		.uleb128 0x15
 837 03d2 72030000 		.4byte	.LASF43
 838 03d6 0F       		.byte	0xf
 839 03d7 37       		.byte	0x37
 840 03d8 6F000000 		.4byte	0x6f
 841 03dc 00       		.byte	0
 842 03dd 15       		.uleb128 0x15
 843 03de A1010000 		.4byte	.LASF44
 844 03e2 0F       		.byte	0xf
 845 03e3 38       		.byte	0x38
 846 03e4 6F000000 		.4byte	0x6f
 847 03e8 04       		.byte	0x4
 848 03e9 15       		.uleb128 0x15
 849 03ea 65010000 		.4byte	.LASF45
 850 03ee 0F       		.byte	0xf
 851 03ef 39       		.byte	0x39
 852 03f0 6F000000 		.4byte	0x6f
 853 03f4 08       		.byte	0x8
 854 03f5 15       		.uleb128 0x15
 855 03f6 09040000 		.4byte	.LASF46
ARM GAS  /tmp/ccMqc7hn.s 			page 16


 856 03fa 0F       		.byte	0xf
 857 03fb 3A       		.byte	0x3a
 858 03fc 6F000000 		.4byte	0x6f
 859 0400 0C       		.byte	0xc
 860 0401 15       		.uleb128 0x15
 861 0402 C1050000 		.4byte	.LASF47
 862 0406 0F       		.byte	0xf
 863 0407 3B       		.byte	0x3b
 864 0408 6F000000 		.4byte	0x6f
 865 040c 10       		.byte	0x10
 866 040d 15       		.uleb128 0x15
 867 040e 03070000 		.4byte	.LASF48
 868 0412 0F       		.byte	0xf
 869 0413 3C       		.byte	0x3c
 870 0414 6F000000 		.4byte	0x6f
 871 0418 14       		.byte	0x14
 872 0419 15       		.uleb128 0x15
 873 041a 2D010000 		.4byte	.LASF49
 874 041e 0F       		.byte	0xf
 875 041f 3D       		.byte	0x3d
 876 0420 6F000000 		.4byte	0x6f
 877 0424 18       		.byte	0x18
 878 0425 15       		.uleb128 0x15
 879 0426 7B030000 		.4byte	.LASF50
 880 042a 0F       		.byte	0xf
 881 042b 3E       		.byte	0x3e
 882 042c 6F000000 		.4byte	0x6f
 883 0430 1C       		.byte	0x1c
 884 0431 15       		.uleb128 0x15
 885 0432 7B050000 		.4byte	.LASF51
 886 0436 0F       		.byte	0xf
 887 0437 3F       		.byte	0x3f
 888 0438 6F000000 		.4byte	0x6f
 889 043c 20       		.byte	0x20
 890 043d 00       		.byte	0
 891 043e 1A       		.uleb128 0x1a
 892 043f 35000000 		.4byte	.LASF52
 893 0443 0801     		.2byte	0x108
 894 0445 0F       		.byte	0xf
 895 0446 48       		.byte	0x48
 896 0447 7E040000 		.4byte	0x47e
 897 044b 15       		.uleb128 0x15
 898 044c 93080000 		.4byte	.LASF53
 899 0450 0F       		.byte	0xf
 900 0451 49       		.byte	0x49
 901 0452 7E040000 		.4byte	0x47e
 902 0456 00       		.byte	0
 903 0457 15       		.uleb128 0x15
 904 0458 BA070000 		.4byte	.LASF54
 905 045c 0F       		.byte	0xf
 906 045d 4A       		.byte	0x4a
 907 045e 7E040000 		.4byte	0x47e
 908 0462 80       		.byte	0x80
 909 0463 1B       		.uleb128 0x1b
 910 0464 1B090000 		.4byte	.LASF55
 911 0468 0F       		.byte	0xf
 912 0469 4C       		.byte	0x4c
ARM GAS  /tmp/ccMqc7hn.s 			page 17


 913 046a 51030000 		.4byte	0x351
 914 046e 0001     		.2byte	0x100
 915 0470 1B       		.uleb128 0x1b
 916 0471 62090000 		.4byte	.LASF56
 917 0475 0F       		.byte	0xf
 918 0476 4F       		.byte	0x4f
 919 0477 51030000 		.4byte	0x351
 920 047b 0401     		.2byte	0x104
 921 047d 00       		.byte	0
 922 047e 06       		.uleb128 0x6
 923 047f 4F030000 		.4byte	0x34f
 924 0483 8E040000 		.4byte	0x48e
 925 0487 07       		.uleb128 0x7
 926 0488 A1000000 		.4byte	0xa1
 927 048c 1F       		.byte	0x1f
 928 048d 00       		.byte	0
 929 048e 1A       		.uleb128 0x1a
 930 048f 79060000 		.4byte	.LASF57
 931 0493 9001     		.2byte	0x190
 932 0495 0F       		.byte	0xf
 933 0496 5B       		.byte	0x5b
 934 0497 CC040000 		.4byte	0x4cc
 935 049b 15       		.uleb128 0x15
 936 049c A1030000 		.4byte	.LASF37
 937 04a0 0F       		.byte	0xf
 938 04a1 5C       		.byte	0x5c
 939 04a2 CC040000 		.4byte	0x4cc
 940 04a6 00       		.byte	0
 941 04a7 15       		.uleb128 0x15
 942 04a8 8A030000 		.4byte	.LASF58
 943 04ac 0F       		.byte	0xf
 944 04ad 5D       		.byte	0x5d
 945 04ae 6F000000 		.4byte	0x6f
 946 04b2 04       		.byte	0x4
 947 04b3 15       		.uleb128 0x15
 948 04b4 01010000 		.4byte	.LASF59
 949 04b8 0F       		.byte	0xf
 950 04b9 5F       		.byte	0x5f
 951 04ba D2040000 		.4byte	0x4d2
 952 04be 08       		.byte	0x8
 953 04bf 15       		.uleb128 0x15
 954 04c0 35000000 		.4byte	.LASF52
 955 04c4 0F       		.byte	0xf
 956 04c5 60       		.byte	0x60
 957 04c6 3E040000 		.4byte	0x43e
 958 04ca 88       		.byte	0x88
 959 04cb 00       		.byte	0
 960 04cc 19       		.uleb128 0x19
 961 04cd 04       		.byte	0x4
 962 04ce 8E040000 		.4byte	0x48e
 963 04d2 06       		.uleb128 0x6
 964 04d3 E2040000 		.4byte	0x4e2
 965 04d7 E2040000 		.4byte	0x4e2
 966 04db 07       		.uleb128 0x7
 967 04dc A1000000 		.4byte	0xa1
 968 04e0 1F       		.byte	0x1f
 969 04e1 00       		.byte	0
ARM GAS  /tmp/ccMqc7hn.s 			page 18


 970 04e2 19       		.uleb128 0x19
 971 04e3 04       		.byte	0x4
 972 04e4 E8040000 		.4byte	0x4e8
 973 04e8 1C       		.uleb128 0x1c
 974 04e9 17       		.uleb128 0x17
 975 04ea 48080000 		.4byte	.LASF60
 976 04ee 08       		.byte	0x8
 977 04ef 0F       		.byte	0xf
 978 04f0 73       		.byte	0x73
 979 04f1 0E050000 		.4byte	0x50e
 980 04f5 15       		.uleb128 0x15
 981 04f6 CF040000 		.4byte	.LASF61
 982 04fa 0F       		.byte	0xf
 983 04fb 74       		.byte	0x74
 984 04fc 0E050000 		.4byte	0x50e
 985 0500 00       		.byte	0
 986 0501 15       		.uleb128 0x15
 987 0502 24090000 		.4byte	.LASF62
 988 0506 0F       		.byte	0xf
 989 0507 75       		.byte	0x75
 990 0508 6F000000 		.4byte	0x6f
 991 050c 04       		.byte	0x4
 992 050d 00       		.byte	0
 993 050e 19       		.uleb128 0x19
 994 050f 04       		.byte	0x4
 995 0510 33000000 		.4byte	0x33
 996 0514 17       		.uleb128 0x17
 997 0515 F5020000 		.4byte	.LASF63
 998 0519 68       		.byte	0x68
 999 051a 0F       		.byte	0xf
 1000 051b B3       		.byte	0xb3
 1001 051c 3E060000 		.4byte	0x63e
 1002 0520 18       		.uleb128 0x18
 1003 0521 5F7000   		.ascii	"_p\000"
 1004 0524 0F       		.byte	0xf
 1005 0525 B4       		.byte	0xb4
 1006 0526 0E050000 		.4byte	0x50e
 1007 052a 00       		.byte	0
 1008 052b 18       		.uleb128 0x18
 1009 052c 5F7200   		.ascii	"_r\000"
 1010 052f 0F       		.byte	0xf
 1011 0530 B5       		.byte	0xb5
 1012 0531 6F000000 		.4byte	0x6f
 1013 0535 04       		.byte	0x4
 1014 0536 18       		.uleb128 0x18
 1015 0537 5F7700   		.ascii	"_w\000"
 1016 053a 0F       		.byte	0xf
 1017 053b B6       		.byte	0xb6
 1018 053c 6F000000 		.4byte	0x6f
 1019 0540 08       		.byte	0x8
 1020 0541 15       		.uleb128 0x15
 1021 0542 9D000000 		.4byte	.LASF64
 1022 0546 0F       		.byte	0xf
 1023 0547 B7       		.byte	0xb7
 1024 0548 3A000000 		.4byte	0x3a
 1025 054c 0C       		.byte	0xc
 1026 054d 15       		.uleb128 0x15
ARM GAS  /tmp/ccMqc7hn.s 			page 19


 1027 054e 15050000 		.4byte	.LASF65
 1028 0552 0F       		.byte	0xf
 1029 0553 B8       		.byte	0xb8
 1030 0554 3A000000 		.4byte	0x3a
 1031 0558 0E       		.byte	0xe
 1032 0559 18       		.uleb128 0x18
 1033 055a 5F626600 		.ascii	"_bf\000"
 1034 055e 0F       		.byte	0xf
 1035 055f B9       		.byte	0xb9
 1036 0560 E9040000 		.4byte	0x4e9
 1037 0564 10       		.byte	0x10
 1038 0565 15       		.uleb128 0x15
 1039 0566 94000000 		.4byte	.LASF66
 1040 056a 0F       		.byte	0xf
 1041 056b BA       		.byte	0xba
 1042 056c 6F000000 		.4byte	0x6f
 1043 0570 18       		.byte	0x18
 1044 0571 15       		.uleb128 0x15
 1045 0572 06010000 		.4byte	.LASF67
 1046 0576 0F       		.byte	0xf
 1047 0577 C1       		.byte	0xc1
 1048 0578 4F030000 		.4byte	0x34f
 1049 057c 1C       		.byte	0x1c
 1050 057d 15       		.uleb128 0x15
 1051 057e DE000000 		.4byte	.LASF68
 1052 0582 0F       		.byte	0xf
 1053 0583 C3       		.byte	0xc3
 1054 0584 E8080000 		.4byte	0x8e8
 1055 0588 20       		.byte	0x20
 1056 0589 15       		.uleb128 0x15
 1057 058a 48060000 		.4byte	.LASF69
 1058 058e 0F       		.byte	0xf
 1059 058f C5       		.byte	0xc5
 1060 0590 17090000 		.4byte	0x917
 1061 0594 24       		.byte	0x24
 1062 0595 15       		.uleb128 0x15
 1063 0596 70090000 		.4byte	.LASF70
 1064 059a 0F       		.byte	0xf
 1065 059b C8       		.byte	0xc8
 1066 059c 3B090000 		.4byte	0x93b
 1067 05a0 28       		.byte	0x28
 1068 05a1 15       		.uleb128 0x15
 1069 05a2 7A040000 		.4byte	.LASF71
 1070 05a6 0F       		.byte	0xf
 1071 05a7 C9       		.byte	0xc9
 1072 05a8 55090000 		.4byte	0x955
 1073 05ac 2C       		.byte	0x2c
 1074 05ad 18       		.uleb128 0x18
 1075 05ae 5F756200 		.ascii	"_ub\000"
 1076 05b2 0F       		.byte	0xf
 1077 05b3 CC       		.byte	0xcc
 1078 05b4 E9040000 		.4byte	0x4e9
 1079 05b8 30       		.byte	0x30
 1080 05b9 18       		.uleb128 0x18
 1081 05ba 5F757000 		.ascii	"_up\000"
 1082 05be 0F       		.byte	0xf
 1083 05bf CD       		.byte	0xcd
ARM GAS  /tmp/ccMqc7hn.s 			page 20


 1084 05c0 0E050000 		.4byte	0x50e
 1085 05c4 38       		.byte	0x38
 1086 05c5 18       		.uleb128 0x18
 1087 05c6 5F757200 		.ascii	"_ur\000"
 1088 05ca 0F       		.byte	0xf
 1089 05cb CE       		.byte	0xce
 1090 05cc 6F000000 		.4byte	0x6f
 1091 05d0 3C       		.byte	0x3c
 1092 05d1 15       		.uleb128 0x15
 1093 05d2 A4090000 		.4byte	.LASF72
 1094 05d6 0F       		.byte	0xf
 1095 05d7 D1       		.byte	0xd1
 1096 05d8 5B090000 		.4byte	0x95b
 1097 05dc 40       		.byte	0x40
 1098 05dd 15       		.uleb128 0x15
 1099 05de 38090000 		.4byte	.LASF73
 1100 05e2 0F       		.byte	0xf
 1101 05e3 D2       		.byte	0xd2
 1102 05e4 6B090000 		.4byte	0x96b
 1103 05e8 43       		.byte	0x43
 1104 05e9 18       		.uleb128 0x18
 1105 05ea 5F6C6200 		.ascii	"_lb\000"
 1106 05ee 0F       		.byte	0xf
 1107 05ef D5       		.byte	0xd5
 1108 05f0 E9040000 		.4byte	0x4e9
 1109 05f4 44       		.byte	0x44
 1110 05f5 15       		.uleb128 0x15
 1111 05f6 68070000 		.4byte	.LASF74
 1112 05fa 0F       		.byte	0xf
 1113 05fb D8       		.byte	0xd8
 1114 05fc 6F000000 		.4byte	0x6f
 1115 0600 4C       		.byte	0x4c
 1116 0601 15       		.uleb128 0x15
 1117 0602 18030000 		.4byte	.LASF75
 1118 0606 0F       		.byte	0xf
 1119 0607 D9       		.byte	0xd9
 1120 0608 D3020000 		.4byte	0x2d3
 1121 060c 50       		.byte	0x50
 1122 060d 15       		.uleb128 0x15
 1123 060e D8060000 		.4byte	.LASF76
 1124 0612 0F       		.byte	0xf
 1125 0613 DC       		.byte	0xdc
 1126 0614 5C060000 		.4byte	0x65c
 1127 0618 54       		.byte	0x54
 1128 0619 15       		.uleb128 0x15
 1129 061a 7B070000 		.4byte	.LASF77
 1130 061e 0F       		.byte	0xf
 1131 061f E0       		.byte	0xe0
 1132 0620 44030000 		.4byte	0x344
 1133 0624 58       		.byte	0x58
 1134 0625 15       		.uleb128 0x15
 1135 0626 81060000 		.4byte	.LASF78
 1136 062a 0F       		.byte	0xf
 1137 062b E2       		.byte	0xe2
 1138 062c 39030000 		.4byte	0x339
 1139 0630 5C       		.byte	0x5c
 1140 0631 15       		.uleb128 0x15
ARM GAS  /tmp/ccMqc7hn.s 			page 21


 1141 0632 55090000 		.4byte	.LASF79
 1142 0636 0F       		.byte	0xf
 1143 0637 E3       		.byte	0xe3
 1144 0638 6F000000 		.4byte	0x6f
 1145 063c 64       		.byte	0x64
 1146 063d 00       		.byte	0
 1147 063e 1D       		.uleb128 0x1d
 1148 063f 6F000000 		.4byte	0x6f
 1149 0643 5C060000 		.4byte	0x65c
 1150 0647 1E       		.uleb128 0x1e
 1151 0648 5C060000 		.4byte	0x65c
 1152 064c 1E       		.uleb128 0x1e
 1153 064d 4F030000 		.4byte	0x34f
 1154 0651 1E       		.uleb128 0x1e
 1155 0652 DB080000 		.4byte	0x8db
 1156 0656 1E       		.uleb128 0x1e
 1157 0657 6F000000 		.4byte	0x6f
 1158 065b 00       		.byte	0
 1159 065c 19       		.uleb128 0x19
 1160 065d 04       		.byte	0x4
 1161 065e 62060000 		.4byte	0x662
 1162 0662 1F       		.uleb128 0x1f
 1163 0663 A7080000 		.4byte	.LASF80
 1164 0667 2804     		.2byte	0x428
 1165 0669 0F       		.byte	0xf
 1166 066a 3902     		.2byte	0x239
 1167 066c DB080000 		.4byte	0x8db
 1168 0670 20       		.uleb128 0x20
 1169 0671 F0       		.byte	0xf0
 1170 0672 0F       		.byte	0xf
 1171 0673 5702     		.2byte	0x257
 1172 0675 B7070000 		.4byte	0x7b7
 1173 0679 21       		.uleb128 0x21
 1174 067a D0       		.byte	0xd0
 1175 067b 0F       		.byte	0xf
 1176 067c 5902     		.2byte	0x259
 1177 067e 7A070000 		.4byte	0x77a
 1178 0682 22       		.uleb128 0x22
 1179 0683 3E090000 		.4byte	.LASF81
 1180 0687 0F       		.byte	0xf
 1181 0688 5A02     		.2byte	0x25a
 1182 068a 76000000 		.4byte	0x76
 1183 068e 00       		.byte	0
 1184 068f 22       		.uleb128 0x22
 1185 0690 71080000 		.4byte	.LASF82
 1186 0694 0F       		.byte	0xf
 1187 0695 5B02     		.2byte	0x25b
 1188 0697 DB080000 		.4byte	0x8db
 1189 069b 04       		.byte	0x4
 1190 069c 22       		.uleb128 0x22
 1191 069d E3010000 		.4byte	.LASF83
 1192 06a1 0F       		.byte	0xf
 1193 06a2 5C02     		.2byte	0x25c
 1194 06a4 0D0A0000 		.4byte	0xa0d
 1195 06a8 08       		.byte	0x8
 1196 06a9 22       		.uleb128 0x22
 1197 06aa 14070000 		.4byte	.LASF84
ARM GAS  /tmp/ccMqc7hn.s 			page 22


 1198 06ae 0F       		.byte	0xf
 1199 06af 5D02     		.2byte	0x25d
 1200 06b1 C5030000 		.4byte	0x3c5
 1201 06b5 24       		.byte	0x24
 1202 06b6 22       		.uleb128 0x22
 1203 06b7 AB040000 		.4byte	.LASF85
 1204 06bb 0F       		.byte	0xf
 1205 06bc 5E02     		.2byte	0x25e
 1206 06be 6F000000 		.4byte	0x6f
 1207 06c2 48       		.byte	0x48
 1208 06c3 22       		.uleb128 0x22
 1209 06c4 6E060000 		.4byte	.LASF86
 1210 06c8 0F       		.byte	0xf
 1211 06c9 5F02     		.2byte	0x25f
 1212 06cb 68000000 		.4byte	0x68
 1213 06cf 50       		.byte	0x50
 1214 06d0 22       		.uleb128 0x22
 1215 06d1 66000000 		.4byte	.LASF87
 1216 06d5 0F       		.byte	0xf
 1217 06d6 6002     		.2byte	0x260
 1218 06d8 C8090000 		.4byte	0x9c8
 1219 06dc 58       		.byte	0x58
 1220 06dd 22       		.uleb128 0x22
 1221 06de F7030000 		.4byte	.LASF88
 1222 06e2 0F       		.byte	0xf
 1223 06e3 6102     		.2byte	0x261
 1224 06e5 39030000 		.4byte	0x339
 1225 06e9 68       		.byte	0x68
 1226 06ea 22       		.uleb128 0x22
 1227 06eb 7E080000 		.4byte	.LASF89
 1228 06ef 0F       		.byte	0xf
 1229 06f0 6202     		.2byte	0x262
 1230 06f2 39030000 		.4byte	0x339
 1231 06f6 70       		.byte	0x70
 1232 06f7 22       		.uleb128 0x22
 1233 06f8 4A000000 		.4byte	.LASF90
 1234 06fc 0F       		.byte	0xf
 1235 06fd 6302     		.2byte	0x263
 1236 06ff 39030000 		.4byte	0x339
 1237 0703 78       		.byte	0x78
 1238 0704 22       		.uleb128 0x22
 1239 0705 47070000 		.4byte	.LASF91
 1240 0709 0F       		.byte	0xf
 1241 070a 6402     		.2byte	0x264
 1242 070c 1D0A0000 		.4byte	0xa1d
 1243 0710 80       		.byte	0x80
 1244 0711 22       		.uleb128 0x22
 1245 0712 6B000000 		.4byte	.LASF92
 1246 0716 0F       		.byte	0xf
 1247 0717 6502     		.2byte	0x265
 1248 0719 2D0A0000 		.4byte	0xa2d
 1249 071d 88       		.byte	0x88
 1250 071e 22       		.uleb128 0x22
 1251 071f 02080000 		.4byte	.LASF93
 1252 0723 0F       		.byte	0xf
 1253 0724 6602     		.2byte	0x266
 1254 0726 6F000000 		.4byte	0x6f
ARM GAS  /tmp/ccMqc7hn.s 			page 23


 1255 072a A0       		.byte	0xa0
 1256 072b 22       		.uleb128 0x22
 1257 072c 20080000 		.4byte	.LASF94
 1258 0730 0F       		.byte	0xf
 1259 0731 6702     		.2byte	0x267
 1260 0733 39030000 		.4byte	0x339
 1261 0737 A4       		.byte	0xa4
 1262 0738 22       		.uleb128 0x22
 1263 0739 1D040000 		.4byte	.LASF95
 1264 073d 0F       		.byte	0xf
 1265 073e 6802     		.2byte	0x268
 1266 0740 39030000 		.4byte	0x339
 1267 0744 AC       		.byte	0xac
 1268 0745 22       		.uleb128 0x22
 1269 0746 B1010000 		.4byte	.LASF96
 1270 074a 0F       		.byte	0xf
 1271 074b 6902     		.2byte	0x269
 1272 074d 39030000 		.4byte	0x339
 1273 0751 B4       		.byte	0xb4
 1274 0752 22       		.uleb128 0x22
 1275 0753 F7040000 		.4byte	.LASF97
 1276 0757 0F       		.byte	0xf
 1277 0758 6A02     		.2byte	0x26a
 1278 075a 39030000 		.4byte	0x339
 1279 075e BC       		.byte	0xbc
 1280 075f 22       		.uleb128 0x22
 1281 0760 E6030000 		.4byte	.LASF98
 1282 0764 0F       		.byte	0xf
 1283 0765 6B02     		.2byte	0x26b
 1284 0767 39030000 		.4byte	0x339
 1285 076b C4       		.byte	0xc4
 1286 076c 22       		.uleb128 0x22
 1287 076d 9F050000 		.4byte	.LASF99
 1288 0771 0F       		.byte	0xf
 1289 0772 6C02     		.2byte	0x26c
 1290 0774 6F000000 		.4byte	0x6f
 1291 0778 CC       		.byte	0xcc
 1292 0779 00       		.byte	0
 1293 077a 21       		.uleb128 0x21
 1294 077b F0       		.byte	0xf0
 1295 077c 0F       		.byte	0xf
 1296 077d 7202     		.2byte	0x272
 1297 077f 9E070000 		.4byte	0x79e
 1298 0783 22       		.uleb128 0x22
 1299 0784 AA010000 		.4byte	.LASF100
 1300 0788 0F       		.byte	0xf
 1301 0789 7402     		.2byte	0x274
 1302 078b 3D0A0000 		.4byte	0xa3d
 1303 078f 00       		.byte	0
 1304 0790 22       		.uleb128 0x22
 1305 0791 9B090000 		.4byte	.LASF101
 1306 0795 0F       		.byte	0xf
 1307 0796 7502     		.2byte	0x275
 1308 0798 4D0A0000 		.4byte	0xa4d
 1309 079c 78       		.byte	0x78
 1310 079d 00       		.byte	0
 1311 079e 23       		.uleb128 0x23
ARM GAS  /tmp/ccMqc7hn.s 			page 24


 1312 079f A7080000 		.4byte	.LASF80
 1313 07a3 0F       		.byte	0xf
 1314 07a4 6D02     		.2byte	0x26d
 1315 07a6 79060000 		.4byte	0x679
 1316 07aa 23       		.uleb128 0x23
 1317 07ab 2A070000 		.4byte	.LASF102
 1318 07af 0F       		.byte	0xf
 1319 07b0 7602     		.2byte	0x276
 1320 07b2 7A070000 		.4byte	0x77a
 1321 07b6 00       		.byte	0
 1322 07b7 22       		.uleb128 0x22
 1323 07b8 AE000000 		.4byte	.LASF103
 1324 07bc 0F       		.byte	0xf
 1325 07bd 3B02     		.2byte	0x23b
 1326 07bf 6F000000 		.4byte	0x6f
 1327 07c3 00       		.byte	0
 1328 07c4 22       		.uleb128 0x22
 1329 07c5 A4040000 		.4byte	.LASF104
 1330 07c9 0F       		.byte	0xf
 1331 07ca 4002     		.2byte	0x240
 1332 07cc C2090000 		.4byte	0x9c2
 1333 07d0 04       		.byte	0x4
 1334 07d1 22       		.uleb128 0x22
 1335 07d2 F1000000 		.4byte	.LASF105
 1336 07d6 0F       		.byte	0xf
 1337 07d7 4002     		.2byte	0x240
 1338 07d9 C2090000 		.4byte	0x9c2
 1339 07dd 08       		.byte	0x8
 1340 07de 22       		.uleb128 0x22
 1341 07df 93090000 		.4byte	.LASF106
 1342 07e3 0F       		.byte	0xf
 1343 07e4 4002     		.2byte	0x240
 1344 07e6 C2090000 		.4byte	0x9c2
 1345 07ea 0C       		.byte	0xc
 1346 07eb 22       		.uleb128 0x22
 1347 07ec 85030000 		.4byte	.LASF107
 1348 07f0 0F       		.byte	0xf
 1349 07f1 4202     		.2byte	0x242
 1350 07f3 6F000000 		.4byte	0x6f
 1351 07f7 10       		.byte	0x10
 1352 07f8 22       		.uleb128 0x22
 1353 07f9 43030000 		.4byte	.LASF108
 1354 07fd 0F       		.byte	0xf
 1355 07fe 4302     		.2byte	0x243
 1356 0800 5D0A0000 		.4byte	0xa5d
 1357 0804 14       		.byte	0x14
 1358 0805 22       		.uleb128 0x22
 1359 0806 51070000 		.4byte	.LASF109
 1360 080a 0F       		.byte	0xf
 1361 080b 4502     		.2byte	0x245
 1362 080d 6F000000 		.4byte	0x6f
 1363 0811 30       		.byte	0x30
 1364 0812 22       		.uleb128 0x22
 1365 0813 BB060000 		.4byte	.LASF110
 1366 0817 0F       		.byte	0xf
 1367 0818 4602     		.2byte	0x246
 1368 081a 0C090000 		.4byte	0x90c
ARM GAS  /tmp/ccMqc7hn.s 			page 25


 1369 081e 34       		.byte	0x34
 1370 081f 22       		.uleb128 0x22
 1371 0820 81040000 		.4byte	.LASF111
 1372 0824 0F       		.byte	0xf
 1373 0825 4802     		.2byte	0x248
 1374 0827 6F000000 		.4byte	0x6f
 1375 082b 38       		.byte	0x38
 1376 082c 22       		.uleb128 0x22
 1377 082d 42050000 		.4byte	.LASF112
 1378 0831 0F       		.byte	0xf
 1379 0832 4A02     		.2byte	0x24a
 1380 0834 780A0000 		.4byte	0xa78
 1381 0838 3C       		.byte	0x3c
 1382 0839 22       		.uleb128 0x22
 1383 083a 43010000 		.4byte	.LASF113
 1384 083e 0F       		.byte	0xf
 1385 083f 4D02     		.2byte	0x24d
 1386 0841 AF030000 		.4byte	0x3af
 1387 0845 40       		.byte	0x40
 1388 0846 22       		.uleb128 0x22
 1389 0847 C2010000 		.4byte	.LASF114
 1390 084b 0F       		.byte	0xf
 1391 084c 4E02     		.2byte	0x24e
 1392 084e 6F000000 		.4byte	0x6f
 1393 0852 44       		.byte	0x44
 1394 0853 22       		.uleb128 0x22
 1395 0854 CD030000 		.4byte	.LASF115
 1396 0858 0F       		.byte	0xf
 1397 0859 4F02     		.2byte	0x24f
 1398 085b AF030000 		.4byte	0x3af
 1399 085f 48       		.byte	0x48
 1400 0860 22       		.uleb128 0x22
 1401 0861 DF040000 		.4byte	.LASF116
 1402 0865 0F       		.byte	0xf
 1403 0866 5002     		.2byte	0x250
 1404 0868 7E0A0000 		.4byte	0xa7e
 1405 086c 4C       		.byte	0x4c
 1406 086d 22       		.uleb128 0x22
 1407 086e 37070000 		.4byte	.LASF117
 1408 0872 0F       		.byte	0xf
 1409 0873 5302     		.2byte	0x253
 1410 0875 6F000000 		.4byte	0x6f
 1411 0879 50       		.byte	0x50
 1412 087a 22       		.uleb128 0x22
 1413 087b C6070000 		.4byte	.LASF118
 1414 087f 0F       		.byte	0xf
 1415 0880 5402     		.2byte	0x254
 1416 0882 DB080000 		.4byte	0x8db
 1417 0886 54       		.byte	0x54
 1418 0887 22       		.uleb128 0x22
 1419 0888 32070000 		.4byte	.LASF119
 1420 088c 0F       		.byte	0xf
 1421 088d 7702     		.2byte	0x277
 1422 088f 70060000 		.4byte	0x670
 1423 0893 58       		.byte	0x58
 1424 0894 24       		.uleb128 0x24
 1425 0895 79060000 		.4byte	.LASF57
ARM GAS  /tmp/ccMqc7hn.s 			page 26


 1426 0899 0F       		.byte	0xf
 1427 089a 7B02     		.2byte	0x27b
 1428 089c CC040000 		.4byte	0x4cc
 1429 08a0 4801     		.2byte	0x148
 1430 08a2 24       		.uleb128 0x24
 1431 08a3 2C040000 		.4byte	.LASF120
 1432 08a7 0F       		.byte	0xf
 1433 08a8 7C02     		.2byte	0x27c
 1434 08aa 8E040000 		.4byte	0x48e
 1435 08ae 4C01     		.2byte	0x14c
 1436 08b0 24       		.uleb128 0x24
 1437 08b1 13040000 		.4byte	.LASF121
 1438 08b5 0F       		.byte	0xf
 1439 08b6 8002     		.2byte	0x280
 1440 08b8 8F0A0000 		.4byte	0xa8f
 1441 08bc DC02     		.2byte	0x2dc
 1442 08be 24       		.uleb128 0x24
 1443 08bf 69080000 		.4byte	.LASF122
 1444 08c3 0F       		.byte	0xf
 1445 08c4 8502     		.2byte	0x285
 1446 08c6 87090000 		.4byte	0x987
 1447 08ca E002     		.2byte	0x2e0
 1448 08cc 24       		.uleb128 0x24
 1449 08cd B0060000 		.4byte	.LASF123
 1450 08d1 0F       		.byte	0xf
 1451 08d2 8602     		.2byte	0x286
 1452 08d4 9B0A0000 		.4byte	0xa9b
 1453 08d8 EC02     		.2byte	0x2ec
 1454 08da 00       		.byte	0
 1455 08db 19       		.uleb128 0x19
 1456 08dc 04       		.byte	0x4
 1457 08dd E1080000 		.4byte	0x8e1
 1458 08e1 02       		.uleb128 0x2
 1459 08e2 01       		.byte	0x1
 1460 08e3 08       		.byte	0x8
 1461 08e4 04040000 		.4byte	.LASF124
 1462 08e8 19       		.uleb128 0x19
 1463 08e9 04       		.byte	0x4
 1464 08ea 3E060000 		.4byte	0x63e
 1465 08ee 1D       		.uleb128 0x1d
 1466 08ef 6F000000 		.4byte	0x6f
 1467 08f3 0C090000 		.4byte	0x90c
 1468 08f7 1E       		.uleb128 0x1e
 1469 08f8 5C060000 		.4byte	0x65c
 1470 08fc 1E       		.uleb128 0x1e
 1471 08fd 4F030000 		.4byte	0x34f
 1472 0901 1E       		.uleb128 0x1e
 1473 0902 0C090000 		.4byte	0x90c
 1474 0906 1E       		.uleb128 0x1e
 1475 0907 6F000000 		.4byte	0x6f
 1476 090b 00       		.byte	0
 1477 090c 19       		.uleb128 0x19
 1478 090d 04       		.byte	0x4
 1479 090e 12090000 		.4byte	0x912
 1480 0912 0C       		.uleb128 0xc
 1481 0913 E1080000 		.4byte	0x8e1
 1482 0917 19       		.uleb128 0x19
ARM GAS  /tmp/ccMqc7hn.s 			page 27


 1483 0918 04       		.byte	0x4
 1484 0919 EE080000 		.4byte	0x8ee
 1485 091d 1D       		.uleb128 0x1d
 1486 091e DE020000 		.4byte	0x2de
 1487 0922 3B090000 		.4byte	0x93b
 1488 0926 1E       		.uleb128 0x1e
 1489 0927 5C060000 		.4byte	0x65c
 1490 092b 1E       		.uleb128 0x1e
 1491 092c 4F030000 		.4byte	0x34f
 1492 0930 1E       		.uleb128 0x1e
 1493 0931 DE020000 		.4byte	0x2de
 1494 0935 1E       		.uleb128 0x1e
 1495 0936 6F000000 		.4byte	0x6f
 1496 093a 00       		.byte	0
 1497 093b 19       		.uleb128 0x19
 1498 093c 04       		.byte	0x4
 1499 093d 1D090000 		.4byte	0x91d
 1500 0941 1D       		.uleb128 0x1d
 1501 0942 6F000000 		.4byte	0x6f
 1502 0946 55090000 		.4byte	0x955
 1503 094a 1E       		.uleb128 0x1e
 1504 094b 5C060000 		.4byte	0x65c
 1505 094f 1E       		.uleb128 0x1e
 1506 0950 4F030000 		.4byte	0x34f
 1507 0954 00       		.byte	0
 1508 0955 19       		.uleb128 0x19
 1509 0956 04       		.byte	0x4
 1510 0957 41090000 		.4byte	0x941
 1511 095b 06       		.uleb128 0x6
 1512 095c 33000000 		.4byte	0x33
 1513 0960 6B090000 		.4byte	0x96b
 1514 0964 07       		.uleb128 0x7
 1515 0965 A1000000 		.4byte	0xa1
 1516 0969 02       		.byte	0x2
 1517 096a 00       		.byte	0
 1518 096b 06       		.uleb128 0x6
 1519 096c 33000000 		.4byte	0x33
 1520 0970 7B090000 		.4byte	0x97b
 1521 0974 07       		.uleb128 0x7
 1522 0975 A1000000 		.4byte	0xa1
 1523 0979 00       		.byte	0
 1524 097a 00       		.byte	0
 1525 097b 11       		.uleb128 0x11
 1526 097c 11030000 		.4byte	.LASF125
 1527 0980 0F       		.byte	0xf
 1528 0981 1D01     		.2byte	0x11d
 1529 0983 14050000 		.4byte	0x514
 1530 0987 25       		.uleb128 0x25
 1531 0988 5D080000 		.4byte	.LASF126
 1532 098c 0C       		.byte	0xc
 1533 098d 0F       		.byte	0xf
 1534 098e 2101     		.2byte	0x121
 1535 0990 BC090000 		.4byte	0x9bc
 1536 0994 22       		.uleb128 0x22
 1537 0995 A1030000 		.4byte	.LASF37
 1538 0999 0F       		.byte	0xf
 1539 099a 2301     		.2byte	0x123
ARM GAS  /tmp/ccMqc7hn.s 			page 28


 1540 099c BC090000 		.4byte	0x9bc
 1541 09a0 00       		.byte	0
 1542 09a1 22       		.uleb128 0x22
 1543 09a2 A4070000 		.4byte	.LASF127
 1544 09a6 0F       		.byte	0xf
 1545 09a7 2401     		.2byte	0x124
 1546 09a9 6F000000 		.4byte	0x6f
 1547 09ad 04       		.byte	0x4
 1548 09ae 22       		.uleb128 0x22
 1549 09af 4E040000 		.4byte	.LASF128
 1550 09b3 0F       		.byte	0xf
 1551 09b4 2501     		.2byte	0x125
 1552 09b6 C2090000 		.4byte	0x9c2
 1553 09ba 08       		.byte	0x8
 1554 09bb 00       		.byte	0
 1555 09bc 19       		.uleb128 0x19
 1556 09bd 04       		.byte	0x4
 1557 09be 87090000 		.4byte	0x987
 1558 09c2 19       		.uleb128 0x19
 1559 09c3 04       		.byte	0x4
 1560 09c4 7B090000 		.4byte	0x97b
 1561 09c8 25       		.uleb128 0x25
 1562 09c9 02030000 		.4byte	.LASF129
 1563 09cd 0E       		.byte	0xe
 1564 09ce 0F       		.byte	0xf
 1565 09cf 3D01     		.2byte	0x13d
 1566 09d1 FD090000 		.4byte	0x9fd
 1567 09d5 22       		.uleb128 0x22
 1568 09d6 6A090000 		.4byte	.LASF130
 1569 09da 0F       		.byte	0xf
 1570 09db 3E01     		.2byte	0x13e
 1571 09dd FD090000 		.4byte	0x9fd
 1572 09e1 00       		.byte	0
 1573 09e2 22       		.uleb128 0x22
 1574 09e3 E9040000 		.4byte	.LASF131
 1575 09e7 0F       		.byte	0xf
 1576 09e8 3F01     		.2byte	0x13f
 1577 09ea FD090000 		.4byte	0x9fd
 1578 09ee 06       		.byte	0x6
 1579 09ef 22       		.uleb128 0x22
 1580 09f0 16080000 		.4byte	.LASF132
 1581 09f4 0F       		.byte	0xf
 1582 09f5 4001     		.2byte	0x140
 1583 09f7 41000000 		.4byte	0x41
 1584 09fb 0C       		.byte	0xc
 1585 09fc 00       		.byte	0
 1586 09fd 06       		.uleb128 0x6
 1587 09fe 41000000 		.4byte	0x41
 1588 0a02 0D0A0000 		.4byte	0xa0d
 1589 0a06 07       		.uleb128 0x7
 1590 0a07 A1000000 		.4byte	0xa1
 1591 0a0b 02       		.byte	0x2
 1592 0a0c 00       		.byte	0
 1593 0a0d 06       		.uleb128 0x6
 1594 0a0e E1080000 		.4byte	0x8e1
 1595 0a12 1D0A0000 		.4byte	0xa1d
 1596 0a16 07       		.uleb128 0x7
ARM GAS  /tmp/ccMqc7hn.s 			page 29


 1597 0a17 A1000000 		.4byte	0xa1
 1598 0a1b 19       		.byte	0x19
 1599 0a1c 00       		.byte	0
 1600 0a1d 06       		.uleb128 0x6
 1601 0a1e E1080000 		.4byte	0x8e1
 1602 0a22 2D0A0000 		.4byte	0xa2d
 1603 0a26 07       		.uleb128 0x7
 1604 0a27 A1000000 		.4byte	0xa1
 1605 0a2b 07       		.byte	0x7
 1606 0a2c 00       		.byte	0
 1607 0a2d 06       		.uleb128 0x6
 1608 0a2e E1080000 		.4byte	0x8e1
 1609 0a32 3D0A0000 		.4byte	0xa3d
 1610 0a36 07       		.uleb128 0x7
 1611 0a37 A1000000 		.4byte	0xa1
 1612 0a3b 17       		.byte	0x17
 1613 0a3c 00       		.byte	0
 1614 0a3d 06       		.uleb128 0x6
 1615 0a3e 0E050000 		.4byte	0x50e
 1616 0a42 4D0A0000 		.4byte	0xa4d
 1617 0a46 07       		.uleb128 0x7
 1618 0a47 A1000000 		.4byte	0xa1
 1619 0a4b 1D       		.byte	0x1d
 1620 0a4c 00       		.byte	0
 1621 0a4d 06       		.uleb128 0x6
 1622 0a4e 76000000 		.4byte	0x76
 1623 0a52 5D0A0000 		.4byte	0xa5d
 1624 0a56 07       		.uleb128 0x7
 1625 0a57 A1000000 		.4byte	0xa1
 1626 0a5b 1D       		.byte	0x1d
 1627 0a5c 00       		.byte	0
 1628 0a5d 06       		.uleb128 0x6
 1629 0a5e E1080000 		.4byte	0x8e1
 1630 0a62 6D0A0000 		.4byte	0xa6d
 1631 0a66 07       		.uleb128 0x7
 1632 0a67 A1000000 		.4byte	0xa1
 1633 0a6b 18       		.byte	0x18
 1634 0a6c 00       		.byte	0
 1635 0a6d 26       		.uleb128 0x26
 1636 0a6e 780A0000 		.4byte	0xa78
 1637 0a72 1E       		.uleb128 0x1e
 1638 0a73 5C060000 		.4byte	0x65c
 1639 0a77 00       		.byte	0
 1640 0a78 19       		.uleb128 0x19
 1641 0a79 04       		.byte	0x4
 1642 0a7a 6D0A0000 		.4byte	0xa6d
 1643 0a7e 19       		.uleb128 0x19
 1644 0a7f 04       		.byte	0x4
 1645 0a80 AF030000 		.4byte	0x3af
 1646 0a84 26       		.uleb128 0x26
 1647 0a85 8F0A0000 		.4byte	0xa8f
 1648 0a89 1E       		.uleb128 0x1e
 1649 0a8a 6F000000 		.4byte	0x6f
 1650 0a8e 00       		.byte	0
 1651 0a8f 19       		.uleb128 0x19
 1652 0a90 04       		.byte	0x4
 1653 0a91 950A0000 		.4byte	0xa95
ARM GAS  /tmp/ccMqc7hn.s 			page 30


 1654 0a95 19       		.uleb128 0x19
 1655 0a96 04       		.byte	0x4
 1656 0a97 840A0000 		.4byte	0xa84
 1657 0a9b 06       		.uleb128 0x6
 1658 0a9c 14050000 		.4byte	0x514
 1659 0aa0 AB0A0000 		.4byte	0xaab
 1660 0aa4 07       		.uleb128 0x7
 1661 0aa5 A1000000 		.4byte	0xa1
 1662 0aa9 02       		.byte	0x2
 1663 0aaa 00       		.byte	0
 1664 0aab 0D       		.uleb128 0xd
 1665 0aac 37010000 		.4byte	.LASF133
 1666 0ab0 06       		.byte	0x6
 1667 0ab1 37       		.byte	0x37
 1668 0ab2 BE0A0000 		.4byte	0xabe
 1669 0ab6 27       		.uleb128 0x27
 1670 0ab7 06       		.byte	0x6
 1671 0ab8 38       		.byte	0x38
 1672 0ab9 C3000000 		.4byte	0xc3
 1673 0abd 00       		.byte	0
 1674 0abe 12       		.uleb128 0x12
 1675 0abf 08       		.byte	0x8
 1676 0ac0 11       		.byte	0x11
 1677 0ac1 20       		.byte	0x20
 1678 0ac2 58000000 		.4byte	.LASF135
 1679 0ac6 E30A0000 		.4byte	0xae3
 1680 0aca 15       		.uleb128 0x15
 1681 0acb 60040000 		.4byte	.LASF136
 1682 0acf 11       		.byte	0x11
 1683 0ad0 21       		.byte	0x21
 1684 0ad1 6F000000 		.4byte	0x6f
 1685 0ad5 00       		.byte	0
 1686 0ad6 18       		.uleb128 0x18
 1687 0ad7 72656D00 		.ascii	"rem\000"
 1688 0adb 11       		.byte	0x11
 1689 0adc 22       		.byte	0x22
 1690 0add 6F000000 		.4byte	0x6f
 1691 0ae1 04       		.byte	0x4
 1692 0ae2 00       		.byte	0
 1693 0ae3 03       		.uleb128 0x3
 1694 0ae4 4F080000 		.4byte	.LASF137
 1695 0ae8 11       		.byte	0x11
 1696 0ae9 23       		.byte	0x23
 1697 0aea BE0A0000 		.4byte	0xabe
 1698 0aee 12       		.uleb128 0x12
 1699 0aef 08       		.byte	0x8
 1700 0af0 11       		.byte	0x11
 1701 0af1 26       		.byte	0x26
 1702 0af2 55080000 		.4byte	.LASF138
 1703 0af6 130B0000 		.4byte	0xb13
 1704 0afa 15       		.uleb128 0x15
 1705 0afb 60040000 		.4byte	.LASF136
 1706 0aff 11       		.byte	0x11
 1707 0b00 27       		.byte	0x27
 1708 0b01 53000000 		.4byte	0x53
 1709 0b05 00       		.byte	0
 1710 0b06 18       		.uleb128 0x18
ARM GAS  /tmp/ccMqc7hn.s 			page 31


 1711 0b07 72656D00 		.ascii	"rem\000"
 1712 0b0b 11       		.byte	0x11
 1713 0b0c 28       		.byte	0x28
 1714 0b0d 53000000 		.4byte	0x53
 1715 0b11 04       		.byte	0x4
 1716 0b12 00       		.byte	0
 1717 0b13 03       		.uleb128 0x3
 1718 0b14 0D070000 		.4byte	.LASF139
 1719 0b18 11       		.byte	0x11
 1720 0b19 29       		.byte	0x29
 1721 0b1a EE0A0000 		.4byte	0xaee
 1722 0b1e 03       		.uleb128 0x3
 1723 0b1f 60050000 		.4byte	.LASF140
 1724 0b23 11       		.byte	0x11
 1725 0b24 37       		.byte	0x37
 1726 0b25 290B0000 		.4byte	0xb29
 1727 0b29 19       		.uleb128 0x19
 1728 0b2a 04       		.byte	0x4
 1729 0b2b 2F0B0000 		.4byte	0xb2f
 1730 0b2f 1D       		.uleb128 0x1d
 1731 0b30 6F000000 		.4byte	0x6f
 1732 0b34 430B0000 		.4byte	0xb43
 1733 0b38 1E       		.uleb128 0x1e
 1734 0b39 430B0000 		.4byte	0xb43
 1735 0b3d 1E       		.uleb128 0x1e
 1736 0b3e 430B0000 		.4byte	0xb43
 1737 0b42 00       		.byte	0
 1738 0b43 19       		.uleb128 0x19
 1739 0b44 04       		.byte	0x4
 1740 0b45 490B0000 		.4byte	0xb49
 1741 0b49 28       		.uleb128 0x28
 1742 0b4a 29       		.uleb128 0x29
 1743 0b4b 8A060000 		.4byte	.LASF141
 1744 0b4f 11       		.byte	0x11
 1745 0b50 45       		.byte	0x45
 1746 0b51 6F000000 		.4byte	0x6f
 1747 0b55 5F0B0000 		.4byte	0xb5f
 1748 0b59 1E       		.uleb128 0x1e
 1749 0b5a E2040000 		.4byte	0x4e2
 1750 0b5e 00       		.byte	0
 1751 0b5f 29       		.uleb128 0x29
 1752 0b60 0F000000 		.4byte	.LASF142
 1753 0b64 11       		.byte	0x11
 1754 0b65 46       		.byte	0x46
 1755 0b66 C1020000 		.4byte	0x2c1
 1756 0b6a 740B0000 		.4byte	0xb74
 1757 0b6e 1E       		.uleb128 0x1e
 1758 0b6f 0C090000 		.4byte	0x90c
 1759 0b73 00       		.byte	0
 1760 0b74 29       		.uleb128 0x29
 1761 0b75 11090000 		.4byte	.LASF143
 1762 0b79 11       		.byte	0x11
 1763 0b7a 4A       		.byte	0x4a
 1764 0b7b 6F000000 		.4byte	0x6f
 1765 0b7f 890B0000 		.4byte	0xb89
 1766 0b83 1E       		.uleb128 0x1e
 1767 0b84 0C090000 		.4byte	0x90c
ARM GAS  /tmp/ccMqc7hn.s 			page 32


 1768 0b88 00       		.byte	0
 1769 0b89 29       		.uleb128 0x29
 1770 0b8a 16090000 		.4byte	.LASF144
 1771 0b8e 11       		.byte	0x11
 1772 0b8f 4C       		.byte	0x4c
 1773 0b90 53000000 		.4byte	0x53
 1774 0b94 9E0B0000 		.4byte	0xb9e
 1775 0b98 1E       		.uleb128 0x1e
 1776 0b99 0C090000 		.4byte	0x90c
 1777 0b9d 00       		.byte	0
 1778 0b9e 29       		.uleb128 0x29
 1779 0b9f 8F030000 		.4byte	.LASF145
 1780 0ba3 11       		.byte	0x11
 1781 0ba4 4E       		.byte	0x4e
 1782 0ba5 4F030000 		.4byte	0x34f
 1783 0ba9 C70B0000 		.4byte	0xbc7
 1784 0bad 1E       		.uleb128 0x1e
 1785 0bae 430B0000 		.4byte	0xb43
 1786 0bb2 1E       		.uleb128 0x1e
 1787 0bb3 430B0000 		.4byte	0xb43
 1788 0bb7 1E       		.uleb128 0x1e
 1789 0bb8 88000000 		.4byte	0x88
 1790 0bbc 1E       		.uleb128 0x1e
 1791 0bbd 88000000 		.4byte	0x88
 1792 0bc1 1E       		.uleb128 0x1e
 1793 0bc2 1E0B0000 		.4byte	0xb1e
 1794 0bc6 00       		.byte	0
 1795 0bc7 2A       		.uleb128 0x2a
 1796 0bc8 64697600 		.ascii	"div\000"
 1797 0bcc 11       		.byte	0x11
 1798 0bcd 54       		.byte	0x54
 1799 0bce E30A0000 		.4byte	0xae3
 1800 0bd2 E10B0000 		.4byte	0xbe1
 1801 0bd6 1E       		.uleb128 0x1e
 1802 0bd7 6F000000 		.4byte	0x6f
 1803 0bdb 1E       		.uleb128 0x1e
 1804 0bdc 6F000000 		.4byte	0x6f
 1805 0be0 00       		.byte	0
 1806 0be1 29       		.uleb128 0x29
 1807 0be2 00000000 		.4byte	.LASF146
 1808 0be6 11       		.byte	0x11
 1809 0be7 57       		.byte	0x57
 1810 0be8 DB080000 		.4byte	0x8db
 1811 0bec F60B0000 		.4byte	0xbf6
 1812 0bf0 1E       		.uleb128 0x1e
 1813 0bf1 0C090000 		.4byte	0x90c
 1814 0bf5 00       		.byte	0
 1815 0bf6 29       		.uleb128 0x29
 1816 0bf7 3D050000 		.4byte	.LASF147
 1817 0bfb 11       		.byte	0x11
 1818 0bfc 60       		.byte	0x60
 1819 0bfd 130B0000 		.4byte	0xb13
 1820 0c01 100C0000 		.4byte	0xc10
 1821 0c05 1E       		.uleb128 0x1e
 1822 0c06 53000000 		.4byte	0x53
 1823 0c0a 1E       		.uleb128 0x1e
 1824 0c0b 53000000 		.4byte	0x53
ARM GAS  /tmp/ccMqc7hn.s 			page 33


 1825 0c0f 00       		.byte	0
 1826 0c10 29       		.uleb128 0x29
 1827 0c11 77000000 		.4byte	.LASF148
 1828 0c15 11       		.byte	0x11
 1829 0c16 62       		.byte	0x62
 1830 0c17 6F000000 		.4byte	0x6f
 1831 0c1b 2A0C0000 		.4byte	0xc2a
 1832 0c1f 1E       		.uleb128 0x1e
 1833 0c20 0C090000 		.4byte	0x90c
 1834 0c24 1E       		.uleb128 0x1e
 1835 0c25 88000000 		.4byte	0x88
 1836 0c29 00       		.byte	0
 1837 0c2a 29       		.uleb128 0x29
 1838 0c2b 93040000 		.4byte	.LASF149
 1839 0c2f 11       		.byte	0x11
 1840 0c30 68       		.byte	0x68
 1841 0c31 88000000 		.4byte	0x88
 1842 0c35 490C0000 		.4byte	0xc49
 1843 0c39 1E       		.uleb128 0x1e
 1844 0c3a 490C0000 		.4byte	0xc49
 1845 0c3e 1E       		.uleb128 0x1e
 1846 0c3f 0C090000 		.4byte	0x90c
 1847 0c43 1E       		.uleb128 0x1e
 1848 0c44 88000000 		.4byte	0x88
 1849 0c48 00       		.byte	0
 1850 0c49 19       		.uleb128 0x19
 1851 0c4a 04       		.byte	0x4
 1852 0c4b 4F0C0000 		.4byte	0xc4f
 1853 0c4f 02       		.uleb128 0x2
 1854 0c50 04       		.byte	0x4
 1855 0c51 07       		.byte	0x7
 1856 0c52 B5000000 		.4byte	.LASF150
 1857 0c56 29       		.uleb128 0x29
 1858 0c57 6F010000 		.4byte	.LASF151
 1859 0c5b 11       		.byte	0x11
 1860 0c5c 64       		.byte	0x64
 1861 0c5d 6F000000 		.4byte	0x6f
 1862 0c61 750C0000 		.4byte	0xc75
 1863 0c65 1E       		.uleb128 0x1e
 1864 0c66 490C0000 		.4byte	0xc49
 1865 0c6a 1E       		.uleb128 0x1e
 1866 0c6b 0C090000 		.4byte	0x90c
 1867 0c6f 1E       		.uleb128 0x1e
 1868 0c70 88000000 		.4byte	0x88
 1869 0c74 00       		.byte	0
 1870 0c75 2B       		.uleb128 0x2b
 1871 0c76 AA090000 		.4byte	.LASF152
 1872 0c7a 11       		.byte	0x11
 1873 0c7b 7C       		.byte	0x7c
 1874 0c7c 950C0000 		.4byte	0xc95
 1875 0c80 1E       		.uleb128 0x1e
 1876 0c81 4F030000 		.4byte	0x34f
 1877 0c85 1E       		.uleb128 0x1e
 1878 0c86 88000000 		.4byte	0x88
 1879 0c8a 1E       		.uleb128 0x1e
 1880 0c8b 88000000 		.4byte	0x88
 1881 0c8f 1E       		.uleb128 0x1e
ARM GAS  /tmp/ccMqc7hn.s 			page 34


 1882 0c90 1E0B0000 		.4byte	0xb1e
 1883 0c94 00       		.byte	0
 1884 0c95 2C       		.uleb128 0x2c
 1885 0c96 21000000 		.4byte	.LASF193
 1886 0c9a 11       		.byte	0x11
 1887 0c9b 7D       		.byte	0x7d
 1888 0c9c 6F000000 		.4byte	0x6f
 1889 0ca0 2B       		.uleb128 0x2b
 1890 0ca1 66030000 		.4byte	.LASF153
 1891 0ca5 11       		.byte	0x11
 1892 0ca6 83       		.byte	0x83
 1893 0ca7 B10C0000 		.4byte	0xcb1
 1894 0cab 1E       		.uleb128 0x1e
 1895 0cac 76000000 		.4byte	0x76
 1896 0cb0 00       		.byte	0
 1897 0cb1 29       		.uleb128 0x29
 1898 0cb2 0F080000 		.4byte	.LASF154
 1899 0cb6 11       		.byte	0x11
 1900 0cb7 84       		.byte	0x84
 1901 0cb8 C1020000 		.4byte	0x2c1
 1902 0cbc CB0C0000 		.4byte	0xccb
 1903 0cc0 1E       		.uleb128 0x1e
 1904 0cc1 0C090000 		.4byte	0x90c
 1905 0cc5 1E       		.uleb128 0x1e
 1906 0cc6 CB0C0000 		.4byte	0xccb
 1907 0cca 00       		.byte	0
 1908 0ccb 19       		.uleb128 0x19
 1909 0ccc 04       		.byte	0x4
 1910 0ccd DB080000 		.4byte	0x8db
 1911 0cd1 29       		.uleb128 0x29
 1912 0cd2 37080000 		.4byte	.LASF155
 1913 0cd6 11       		.byte	0x11
 1914 0cd7 91       		.byte	0x91
 1915 0cd8 53000000 		.4byte	0x53
 1916 0cdc F00C0000 		.4byte	0xcf0
 1917 0ce0 1E       		.uleb128 0x1e
 1918 0ce1 0C090000 		.4byte	0x90c
 1919 0ce5 1E       		.uleb128 0x1e
 1920 0ce6 CB0C0000 		.4byte	0xccb
 1921 0cea 1E       		.uleb128 0x1e
 1922 0ceb 6F000000 		.4byte	0x6f
 1923 0cef 00       		.byte	0
 1924 0cf0 29       		.uleb128 0x29
 1925 0cf1 8A070000 		.4byte	.LASF156
 1926 0cf5 11       		.byte	0x11
 1927 0cf6 93       		.byte	0x93
 1928 0cf7 5A000000 		.4byte	0x5a
 1929 0cfb 0F0D0000 		.4byte	0xd0f
 1930 0cff 1E       		.uleb128 0x1e
 1931 0d00 0C090000 		.4byte	0x90c
 1932 0d04 1E       		.uleb128 0x1e
 1933 0d05 CB0C0000 		.4byte	0xccb
 1934 0d09 1E       		.uleb128 0x1e
 1935 0d0a 6F000000 		.4byte	0x6f
 1936 0d0e 00       		.byte	0
 1937 0d0f 29       		.uleb128 0x29
 1938 0d10 43000000 		.4byte	.LASF157
ARM GAS  /tmp/ccMqc7hn.s 			page 35


 1939 0d14 11       		.byte	0x11
 1940 0d15 96       		.byte	0x96
 1941 0d16 6F000000 		.4byte	0x6f
 1942 0d1a 240D0000 		.4byte	0xd24
 1943 0d1e 1E       		.uleb128 0x1e
 1944 0d1f 0C090000 		.4byte	0x90c
 1945 0d23 00       		.byte	0
 1946 0d24 29       		.uleb128 0x29
 1947 0d25 2E080000 		.4byte	.LASF158
 1948 0d29 11       		.byte	0x11
 1949 0d2a 6A       		.byte	0x6a
 1950 0d2b 88000000 		.4byte	0x88
 1951 0d2f 430D0000 		.4byte	0xd43
 1952 0d33 1E       		.uleb128 0x1e
 1953 0d34 DB080000 		.4byte	0x8db
 1954 0d38 1E       		.uleb128 0x1e
 1955 0d39 430D0000 		.4byte	0xd43
 1956 0d3d 1E       		.uleb128 0x1e
 1957 0d3e 88000000 		.4byte	0x88
 1958 0d42 00       		.byte	0
 1959 0d43 19       		.uleb128 0x19
 1960 0d44 04       		.byte	0x4
 1961 0d45 490D0000 		.4byte	0xd49
 1962 0d49 0C       		.uleb128 0xc
 1963 0d4a 4F0C0000 		.4byte	0xc4f
 1964 0d4e 29       		.uleb128 0x29
 1965 0d4f 0A030000 		.4byte	.LASF159
 1966 0d53 11       		.byte	0x11
 1967 0d54 66       		.byte	0x66
 1968 0d55 6F000000 		.4byte	0x6f
 1969 0d59 680D0000 		.4byte	0xd68
 1970 0d5d 1E       		.uleb128 0x1e
 1971 0d5e DB080000 		.4byte	0x8db
 1972 0d62 1E       		.uleb128 0x1e
 1973 0d63 4F0C0000 		.4byte	0xc4f
 1974 0d67 00       		.byte	0
 1975 0d68 0C       		.uleb128 0xc
 1976 0d69 6F000000 		.4byte	0x6f
 1977 0d6d 0C       		.uleb128 0xc
 1978 0d6e 720D0000 		.4byte	0xd72
 1979 0d72 02       		.uleb128 0x2
 1980 0d73 01       		.byte	0x1
 1981 0d74 02       		.byte	0x2
 1982 0d75 4B090000 		.4byte	.LASF160
 1983 0d79 0D       		.uleb128 0xd
 1984 0d7a 57050000 		.4byte	.LASF161
 1985 0d7e 12       		.byte	0x12
 1986 0d7f 24       		.byte	0x24
 1987 0d80 B90E0000 		.4byte	0xeb9
 1988 0d84 2D       		.uleb128 0x2d
 1989 0d85 5D090000 		.4byte	.LASF166
 1990 0d89 0C20     		.2byte	0x200c
 1991 0d8b 13       		.byte	0x13
 1992 0d8c 2B       		.byte	0x2b
 1993 0d8d 8A0E0000 		.4byte	0xe8a
 1994 0d91 15       		.uleb128 0x15
 1995 0d92 63060000 		.4byte	.LASF162
ARM GAS  /tmp/ccMqc7hn.s 			page 36


 1996 0d96 13       		.byte	0x13
 1997 0d97 3B       		.byte	0x3b
 1998 0d98 7D000000 		.4byte	0x7d
 1999 0d9c 00       		.byte	0
 2000 0d9d 15       		.uleb128 0x15
 2001 0d9e 54040000 		.4byte	.LASF163
 2002 0da2 13       		.byte	0x13
 2003 0da3 3C       		.byte	0x3c
 2004 0da4 25000000 		.4byte	0x25
 2005 0da8 04       		.byte	0x4
 2006 0da9 15       		.uleb128 0x15
 2007 0daa 4E030000 		.4byte	.LASF164
 2008 0dae 13       		.byte	0x13
 2009 0daf 3D       		.byte	0x3d
 2010 0db0 25000000 		.4byte	0x25
 2011 0db4 08       		.byte	0x8
 2012 0db5 15       		.uleb128 0x15
 2013 0db6 87090000 		.4byte	.LASF165
 2014 0dba 13       		.byte	0x13
 2015 0dbb 3E       		.byte	0x3e
 2016 0dbc B90E0000 		.4byte	0xeb9
 2017 0dc0 0C       		.byte	0xc
 2018 0dc1 2E       		.uleb128 0x2e
 2019 0dc2 5D090000 		.4byte	.LASF166
 2020 0dc6 13       		.byte	0x13
 2021 0dc7 2D       		.byte	0x2d
 2022 0dc8 CA0E0000 		.4byte	0xeca
 2023 0dcc 01       		.byte	0x1
 2024 0dcd D50D0000 		.4byte	0xdd5
 2025 0dd1 DB0D0000 		.4byte	0xddb
 2026 0dd5 2F       		.uleb128 0x2f
 2027 0dd6 CA0E0000 		.4byte	0xeca
 2028 0dda 00       		.byte	0
 2029 0ddb 2E       		.uleb128 0x2e
 2030 0ddc 6C030000 		.4byte	.LASF167
 2031 0de0 13       		.byte	0x13
 2032 0de1 2E       		.byte	0x2e
 2033 0de2 4F030000 		.4byte	0x34f
 2034 0de6 01       		.byte	0x1
 2035 0de7 EF0D0000 		.4byte	0xdef
 2036 0deb FA0D0000 		.4byte	0xdfa
 2037 0def 2F       		.uleb128 0x2f
 2038 0df0 CA0E0000 		.4byte	0xeca
 2039 0df4 2F       		.uleb128 0x2f
 2040 0df5 6F000000 		.4byte	0x6f
 2041 0df9 00       		.byte	0
 2042 0dfa 30       		.uleb128 0x30
 2043 0dfb 5A030000 		.4byte	.LASF168
 2044 0dff 13       		.byte	0x13
 2045 0e00 30       		.byte	0x30
 2046 0e01 E1070000 		.4byte	.LASF170
 2047 0e05 01       		.byte	0x1
 2048 0e06 0E0E0000 		.4byte	0xe0e
 2049 0e0a 140E0000 		.4byte	0xe14
 2050 0e0e 2F       		.uleb128 0x2f
 2051 0e0f CA0E0000 		.4byte	0xeca
 2052 0e13 00       		.byte	0
ARM GAS  /tmp/ccMqc7hn.s 			page 37


 2053 0e14 30       		.uleb128 0x30
 2054 0e15 14000000 		.4byte	.LASF169
 2055 0e19 13       		.byte	0x13
 2056 0e1a 31       		.byte	0x31
 2057 0e1b 20030000 		.4byte	.LASF171
 2058 0e1f 01       		.byte	0x1
 2059 0e20 280E0000 		.4byte	0xe28
 2060 0e24 510E0000 		.4byte	0xe51
 2061 0e28 2F       		.uleb128 0x2f
 2062 0e29 CA0E0000 		.4byte	0xeca
 2063 0e2d 1E       		.uleb128 0x1e
 2064 0e2e 25000000 		.4byte	0x25
 2065 0e32 1E       		.uleb128 0x1e
 2066 0e33 25000000 		.4byte	0x25
 2067 0e37 1E       		.uleb128 0x1e
 2068 0e38 25000000 		.4byte	0x25
 2069 0e3c 1E       		.uleb128 0x1e
 2070 0e3d 25000000 		.4byte	0x25
 2071 0e41 1E       		.uleb128 0x1e
 2072 0e42 D00E0000 		.4byte	0xed0
 2073 0e46 1E       		.uleb128 0x1e
 2074 0e47 25000000 		.4byte	0x25
 2075 0e4b 1E       		.uleb128 0x1e
 2076 0e4c 88000000 		.4byte	0x88
 2077 0e50 00       		.byte	0
 2078 0e51 31       		.uleb128 0x31
 2079 0e52 5D090000 		.4byte	.LASF166
 2080 0e56 13       		.byte	0x13
 2081 0e57 40       		.byte	0x40
 2082 0e58 CA0E0000 		.4byte	0xeca
 2083 0e5c 640E0000 		.4byte	0xe64
 2084 0e60 6F0E0000 		.4byte	0xe6f
 2085 0e64 2F       		.uleb128 0x2f
 2086 0e65 CA0E0000 		.4byte	0xeca
 2087 0e69 1E       		.uleb128 0x1e
 2088 0e6a D60E0000 		.4byte	0xed6
 2089 0e6e 00       		.byte	0
 2090 0e6f 32       		.uleb128 0x32
 2091 0e70 D5040000 		.4byte	.LASF172
 2092 0e74 13       		.byte	0x13
 2093 0e75 40       		.byte	0x40
 2094 0e76 4B010000 		.4byte	.LASF228
 2095 0e7a 7E0E0000 		.4byte	0xe7e
 2096 0e7e 2F       		.uleb128 0x2f
 2097 0e7f CA0E0000 		.4byte	0xeca
 2098 0e83 1E       		.uleb128 0x1e
 2099 0e84 D60E0000 		.4byte	0xed6
 2100 0e88 00       		.byte	0
 2101 0e89 00       		.byte	0
 2102 0e8a 0C       		.uleb128 0xc
 2103 0e8b 840D0000 		.4byte	0xd84
 2104 0e8f 33       		.uleb128 0x33
 2105 0e90 1B050000 		.4byte	.LASF173
 2106 0e94 12       		.byte	0x12
 2107 0e95 26       		.byte	0x26
 2108 0e96 C6120000 		.4byte	0x12c6
 2109 0e9a 04       		.byte	0x4
ARM GAS  /tmp/ccMqc7hn.s 			page 38


 2110 0e9b 0000FA46 		.4byte	0x46fa0000
 2111 0e9f 34       		.uleb128 0x34
 2112 0ea0 85010000 		.4byte	.LASF174
 2113 0ea4 12       		.byte	0x12
 2114 0ea5 27       		.byte	0x27
 2115 0ea6 D5120000 		.4byte	0x12d5
 2116 0eaa 10       		.byte	0x10
 2117 0eab 35       		.uleb128 0x35
 2118 0eac 54060000 		.4byte	.LASF175
 2119 0eb0 13       		.byte	0x13
 2120 0eb1 29       		.byte	0x29
 2121 0eb2 D5120000 		.4byte	0x12d5
 2122 0eb6 0008     		.2byte	0x800
 2123 0eb8 00       		.byte	0
 2124 0eb9 06       		.uleb128 0x6
 2125 0eba 25000000 		.4byte	0x25
 2126 0ebe CA0E0000 		.4byte	0xeca
 2127 0ec2 36       		.uleb128 0x36
 2128 0ec3 A1000000 		.4byte	0xa1
 2129 0ec7 FF07     		.2byte	0x7ff
 2130 0ec9 00       		.byte	0
 2131 0eca 19       		.uleb128 0x19
 2132 0ecb 04       		.byte	0x4
 2133 0ecc 840D0000 		.4byte	0xd84
 2134 0ed0 19       		.uleb128 0x19
 2135 0ed1 04       		.byte	0x4
 2136 0ed2 25000000 		.4byte	0x25
 2137 0ed6 37       		.uleb128 0x37
 2138 0ed7 04       		.byte	0x4
 2139 0ed8 8A0E0000 		.4byte	0xe8a
 2140 0edc 03       		.uleb128 0x3
 2141 0edd 50090000 		.4byte	.LASF176
 2142 0ee1 14       		.byte	0x14
 2143 0ee2 35       		.byte	0x35
 2144 0ee3 7B090000 		.4byte	0x97b
 2145 0ee7 03       		.uleb128 0x3
 2146 0ee8 76010000 		.4byte	.LASF177
 2147 0eec 14       		.byte	0x14
 2148 0eed 3C       		.byte	0x3c
 2149 0eee DE020000 		.4byte	0x2de
 2150 0ef2 2B       		.uleb128 0x2b
 2151 0ef3 A7030000 		.4byte	.LASF178
 2152 0ef7 14       		.byte	0x14
 2153 0ef8 DB       		.byte	0xdb
 2154 0ef9 030F0000 		.4byte	0xf03
 2155 0efd 1E       		.uleb128 0x1e
 2156 0efe 030F0000 		.4byte	0xf03
 2157 0f02 00       		.byte	0
 2158 0f03 19       		.uleb128 0x19
 2159 0f04 04       		.byte	0x4
 2160 0f05 DC0E0000 		.4byte	0xedc
 2161 0f09 29       		.uleb128 0x29
 2162 0f0a B0030000 		.4byte	.LASF179
 2163 0f0e 14       		.byte	0x14
 2164 0f0f AC       		.byte	0xac
 2165 0f10 6F000000 		.4byte	0x6f
 2166 0f14 1E0F0000 		.4byte	0xf1e
ARM GAS  /tmp/ccMqc7hn.s 			page 39


 2167 0f18 1E       		.uleb128 0x1e
 2168 0f19 030F0000 		.4byte	0xf03
 2169 0f1d 00       		.byte	0
 2170 0f1e 29       		.uleb128 0x29
 2171 0f1f 1B080000 		.4byte	.LASF180
 2172 0f23 14       		.byte	0x14
 2173 0f24 DC       		.byte	0xdc
 2174 0f25 6F000000 		.4byte	0x6f
 2175 0f29 330F0000 		.4byte	0xf33
 2176 0f2d 1E       		.uleb128 0x1e
 2177 0f2e 030F0000 		.4byte	0xf03
 2178 0f32 00       		.byte	0
 2179 0f33 29       		.uleb128 0x29
 2180 0f34 23070000 		.4byte	.LASF181
 2181 0f38 14       		.byte	0x14
 2182 0f39 DD       		.byte	0xdd
 2183 0f3a 6F000000 		.4byte	0x6f
 2184 0f3e 480F0000 		.4byte	0xf48
 2185 0f42 1E       		.uleb128 0x1e
 2186 0f43 030F0000 		.4byte	0xf03
 2187 0f47 00       		.byte	0
 2188 0f48 29       		.uleb128 0x29
 2189 0f49 5F000000 		.4byte	.LASF182
 2190 0f4d 14       		.byte	0x14
 2191 0f4e AD       		.byte	0xad
 2192 0f4f 6F000000 		.4byte	0x6f
 2193 0f53 5D0F0000 		.4byte	0xf5d
 2194 0f57 1E       		.uleb128 0x1e
 2195 0f58 030F0000 		.4byte	0xf03
 2196 0f5c 00       		.byte	0
 2197 0f5d 29       		.uleb128 0x29
 2198 0f5e AF050000 		.4byte	.LASF183
 2199 0f62 14       		.byte	0x14
 2200 0f63 C1       		.byte	0xc1
 2201 0f64 6F000000 		.4byte	0x6f
 2202 0f68 720F0000 		.4byte	0xf72
 2203 0f6c 1E       		.uleb128 0x1e
 2204 0f6d 030F0000 		.4byte	0xf03
 2205 0f71 00       		.byte	0
 2206 0f72 29       		.uleb128 0x29
 2207 0f73 99010000 		.4byte	.LASF184
 2208 0f77 14       		.byte	0x14
 2209 0f78 D1       		.byte	0xd1
 2210 0f79 6F000000 		.4byte	0x6f
 2211 0f7d 8C0F0000 		.4byte	0xf8c
 2212 0f81 1E       		.uleb128 0x1e
 2213 0f82 030F0000 		.4byte	0xf03
 2214 0f86 1E       		.uleb128 0x1e
 2215 0f87 8C0F0000 		.4byte	0xf8c
 2216 0f8b 00       		.byte	0
 2217 0f8c 19       		.uleb128 0x19
 2218 0f8d 04       		.byte	0x4
 2219 0f8e E70E0000 		.4byte	0xee7
 2220 0f92 29       		.uleb128 0x29
 2221 0f93 BB050000 		.4byte	.LASF185
 2222 0f97 14       		.byte	0x14
 2223 0f98 C2       		.byte	0xc2
ARM GAS  /tmp/ccMqc7hn.s 			page 40


 2224 0f99 DB080000 		.4byte	0x8db
 2225 0f9d B10F0000 		.4byte	0xfb1
 2226 0fa1 1E       		.uleb128 0x1e
 2227 0fa2 DB080000 		.4byte	0x8db
 2228 0fa6 1E       		.uleb128 0x1e
 2229 0fa7 6F000000 		.4byte	0x6f
 2230 0fab 1E       		.uleb128 0x1e
 2231 0fac 030F0000 		.4byte	0xf03
 2232 0fb0 00       		.byte	0
 2233 0fb1 29       		.uleb128 0x29
 2234 0fb2 B5050000 		.4byte	.LASF186
 2235 0fb6 14       		.byte	0x14
 2236 0fb7 E0       		.byte	0xe0
 2237 0fb8 030F0000 		.4byte	0xf03
 2238 0fbc CB0F0000 		.4byte	0xfcb
 2239 0fc0 1E       		.uleb128 0x1e
 2240 0fc1 0C090000 		.4byte	0x90c
 2241 0fc5 1E       		.uleb128 0x1e
 2242 0fc6 0C090000 		.4byte	0x90c
 2243 0fca 00       		.byte	0
 2244 0fcb 29       		.uleb128 0x29
 2245 0fcc AA060000 		.4byte	.LASF187
 2246 0fd0 14       		.byte	0x14
 2247 0fd1 CC       		.byte	0xcc
 2248 0fd2 88000000 		.4byte	0x88
 2249 0fd6 EF0F0000 		.4byte	0xfef
 2250 0fda 1E       		.uleb128 0x1e
 2251 0fdb 4F030000 		.4byte	0x34f
 2252 0fdf 1E       		.uleb128 0x1e
 2253 0fe0 88000000 		.4byte	0x88
 2254 0fe4 1E       		.uleb128 0x1e
 2255 0fe5 88000000 		.4byte	0x88
 2256 0fe9 1E       		.uleb128 0x1e
 2257 0fea 030F0000 		.4byte	0xf03
 2258 0fee 00       		.byte	0
 2259 0fef 29       		.uleb128 0x29
 2260 0ff0 BD030000 		.4byte	.LASF188
 2261 0ff4 14       		.byte	0x14
 2262 0ff5 AE       		.byte	0xae
 2263 0ff6 030F0000 		.4byte	0xf03
 2264 0ffa 0E100000 		.4byte	0x100e
 2265 0ffe 1E       		.uleb128 0x1e
 2266 0fff 0C090000 		.4byte	0x90c
 2267 1003 1E       		.uleb128 0x1e
 2268 1004 0C090000 		.4byte	0x90c
 2269 1008 1E       		.uleb128 0x1e
 2270 1009 030F0000 		.4byte	0xf03
 2271 100d 00       		.byte	0
 2272 100e 29       		.uleb128 0x29
 2273 100f 30050000 		.4byte	.LASF189
 2274 1013 14       		.byte	0x14
 2275 1014 D3       		.byte	0xd3
 2276 1015 6F000000 		.4byte	0x6f
 2277 1019 2D100000 		.4byte	0x102d
 2278 101d 1E       		.uleb128 0x1e
 2279 101e 030F0000 		.4byte	0xf03
 2280 1022 1E       		.uleb128 0x1e
ARM GAS  /tmp/ccMqc7hn.s 			page 41


 2281 1023 53000000 		.4byte	0x53
 2282 1027 1E       		.uleb128 0x1e
 2283 1028 6F000000 		.4byte	0x6f
 2284 102c 00       		.byte	0
 2285 102d 29       		.uleb128 0x29
 2286 102e 73050000 		.4byte	.LASF190
 2287 1032 14       		.byte	0x14
 2288 1033 D7       		.byte	0xd7
 2289 1034 6F000000 		.4byte	0x6f
 2290 1038 47100000 		.4byte	0x1047
 2291 103c 1E       		.uleb128 0x1e
 2292 103d 030F0000 		.4byte	0xf03
 2293 1041 1E       		.uleb128 0x1e
 2294 1042 47100000 		.4byte	0x1047
 2295 1046 00       		.byte	0
 2296 1047 19       		.uleb128 0x19
 2297 1048 04       		.byte	0x4
 2298 1049 4D100000 		.4byte	0x104d
 2299 104d 0C       		.uleb128 0xc
 2300 104e E70E0000 		.4byte	0xee7
 2301 1052 29       		.uleb128 0x29
 2302 1053 8D050000 		.4byte	.LASF191
 2303 1057 14       		.byte	0x14
 2304 1058 D9       		.byte	0xd9
 2305 1059 53000000 		.4byte	0x53
 2306 105d 67100000 		.4byte	0x1067
 2307 1061 1E       		.uleb128 0x1e
 2308 1062 030F0000 		.4byte	0xf03
 2309 1066 00       		.byte	0
 2310 1067 29       		.uleb128 0x29
 2311 1068 63070000 		.4byte	.LASF192
 2312 106c 14       		.byte	0x14
 2313 106d C5       		.byte	0xc5
 2314 106e 6F000000 		.4byte	0x6f
 2315 1072 7C100000 		.4byte	0x107c
 2316 1076 1E       		.uleb128 0x1e
 2317 1077 030F0000 		.4byte	0xf03
 2318 107b 00       		.byte	0
 2319 107c 2C       		.uleb128 0x2c
 2320 107d 9C040000 		.4byte	.LASF194
 2321 1081 14       		.byte	0x14
 2322 1082 C6       		.byte	0xc6
 2323 1083 6F000000 		.4byte	0x6f
 2324 1087 29       		.uleb128 0x29
 2325 1088 76070000 		.4byte	.LASF195
 2326 108c 14       		.byte	0x14
 2327 108d C7       		.byte	0xc7
 2328 108e DB080000 		.4byte	0x8db
 2329 1092 9C100000 		.4byte	0x109c
 2330 1096 1E       		.uleb128 0x1e
 2331 1097 DB080000 		.4byte	0x8db
 2332 109b 00       		.byte	0
 2333 109c 2B       		.uleb128 0x2b
 2334 109d C8040000 		.4byte	.LASF196
 2335 10a1 14       		.byte	0x14
 2336 10a2 DE       		.byte	0xde
 2337 10a3 AD100000 		.4byte	0x10ad
ARM GAS  /tmp/ccMqc7hn.s 			page 42


 2338 10a7 1E       		.uleb128 0x1e
 2339 10a8 0C090000 		.4byte	0x90c
 2340 10ac 00       		.byte	0
 2341 10ad 29       		.uleb128 0x29
 2342 10ae 2E000000 		.4byte	.LASF197
 2343 10b2 14       		.byte	0x14
 2344 10b3 E3       		.byte	0xe3
 2345 10b4 6F000000 		.4byte	0x6f
 2346 10b8 C2100000 		.4byte	0x10c2
 2347 10bc 1E       		.uleb128 0x1e
 2348 10bd 0C090000 		.4byte	0x90c
 2349 10c1 00       		.byte	0
 2350 10c2 29       		.uleb128 0x29
 2351 10c3 8C040000 		.4byte	.LASF198
 2352 10c7 14       		.byte	0x14
 2353 10c8 E4       		.byte	0xe4
 2354 10c9 6F000000 		.4byte	0x6f
 2355 10cd DC100000 		.4byte	0x10dc
 2356 10d1 1E       		.uleb128 0x1e
 2357 10d2 0C090000 		.4byte	0x90c
 2358 10d6 1E       		.uleb128 0x1e
 2359 10d7 0C090000 		.4byte	0x90c
 2360 10db 00       		.byte	0
 2361 10dc 2B       		.uleb128 0x2b
 2362 10dd 8C080000 		.4byte	.LASF199
 2363 10e1 14       		.byte	0x14
 2364 10e2 DA       		.byte	0xda
 2365 10e3 ED100000 		.4byte	0x10ed
 2366 10e7 1E       		.uleb128 0x1e
 2367 10e8 030F0000 		.4byte	0xf03
 2368 10ec 00       		.byte	0
 2369 10ed 2B       		.uleb128 0x2b
 2370 10ee 36050000 		.4byte	.LASF200
 2371 10f2 14       		.byte	0x14
 2372 10f3 AF       		.byte	0xaf
 2373 10f4 03110000 		.4byte	0x1103
 2374 10f8 1E       		.uleb128 0x1e
 2375 10f9 030F0000 		.4byte	0xf03
 2376 10fd 1E       		.uleb128 0x1e
 2377 10fe DB080000 		.4byte	0x8db
 2378 1102 00       		.byte	0
 2379 1103 29       		.uleb128 0x29
 2380 1104 26000000 		.4byte	.LASF201
 2381 1108 14       		.byte	0x14
 2382 1109 B0       		.byte	0xb0
 2383 110a 6F000000 		.4byte	0x6f
 2384 110e 27110000 		.4byte	0x1127
 2385 1112 1E       		.uleb128 0x1e
 2386 1113 030F0000 		.4byte	0xf03
 2387 1117 1E       		.uleb128 0x1e
 2388 1118 DB080000 		.4byte	0x8db
 2389 111c 1E       		.uleb128 0x1e
 2390 111d 6F000000 		.4byte	0x6f
 2391 1121 1E       		.uleb128 0x1e
 2392 1122 88000000 		.4byte	0x88
 2393 1126 00       		.byte	0
 2394 1127 2C       		.uleb128 0x2c
ARM GAS  /tmp/ccMqc7hn.s 			page 43


 2395 1128 FA070000 		.4byte	.LASF202
 2396 112c 14       		.byte	0x14
 2397 112d A7       		.byte	0xa7
 2398 112e 030F0000 		.4byte	0xf03
 2399 1132 29       		.uleb128 0x29
 2400 1133 FC050000 		.4byte	.LASF203
 2401 1137 14       		.byte	0x14
 2402 1138 A8       		.byte	0xa8
 2403 1139 DB080000 		.4byte	0x8db
 2404 113d 47110000 		.4byte	0x1147
 2405 1141 1E       		.uleb128 0x1e
 2406 1142 DB080000 		.4byte	0x8db
 2407 1146 00       		.byte	0
 2408 1147 29       		.uleb128 0x29
 2409 1148 EA000000 		.4byte	.LASF204
 2410 114c 14       		.byte	0x14
 2411 114d CB       		.byte	0xcb
 2412 114e 6F000000 		.4byte	0x6f
 2413 1152 61110000 		.4byte	0x1161
 2414 1156 1E       		.uleb128 0x1e
 2415 1157 6F000000 		.4byte	0x6f
 2416 115b 1E       		.uleb128 0x1e
 2417 115c 030F0000 		.4byte	0xf03
 2418 1160 00       		.byte	0
 2419 1161 38       		.uleb128 0x38
 2420 1162 FA0D0000 		.4byte	0xdfa
 2421 1166 01       		.byte	0x1
 2422 1167 26       		.byte	0x26
 2423 1168 00000000 		.4byte	.LFB546
 2424 116c 0C000000 		.4byte	.LFE546-.LFB546
 2425 1170 01       		.uleb128 0x1
 2426 1171 9C       		.byte	0x9c
 2427 1172 7A110000 		.4byte	0x117a
 2428 1176 86110000 		.4byte	0x1186
 2429 117a 39       		.uleb128 0x39
 2430 117b 4F060000 		.4byte	.LASF205
 2431 117f 86110000 		.4byte	0x1186
 2432 1183 01       		.uleb128 0x1
 2433 1184 50       		.byte	0x50
 2434 1185 00       		.byte	0
 2435 1186 0C       		.uleb128 0xc
 2436 1187 CA0E0000 		.4byte	0xeca
 2437 118b 38       		.uleb128 0x38
 2438 118c 140E0000 		.4byte	0xe14
 2439 1190 01       		.byte	0x1
 2440 1191 2C       		.byte	0x2c
 2441 1192 10000000 		.4byte	.LFB547
 2442 1196 88010000 		.4byte	.LFE547-.LFB547
 2443 119a 01       		.uleb128 0x1
 2444 119b 9C       		.byte	0x9c
 2445 119c A4110000 		.4byte	0x11a4
 2446 11a0 C6120000 		.4byte	0x12c6
 2447 11a4 39       		.uleb128 0x39
 2448 11a5 4F060000 		.4byte	.LASF205
 2449 11a9 86110000 		.4byte	0x1186
 2450 11ad 01       		.uleb128 0x1
 2451 11ae 50       		.byte	0x50
ARM GAS  /tmp/ccMqc7hn.s 			page 44


 2452 11af 3A       		.uleb128 0x3a
 2453 11b0 3E080000 		.4byte	.LASF206
 2454 11b4 01       		.byte	0x1
 2455 11b5 2D       		.byte	0x2d
 2456 11b6 25000000 		.4byte	0x25
 2457 11ba 00000000 		.4byte	.LLST0
 2458 11be 3A       		.uleb128 0x3a
 2459 11bf 27050000 		.4byte	.LASF207
 2460 11c3 01       		.byte	0x1
 2461 11c4 2E       		.byte	0x2e
 2462 11c5 25000000 		.4byte	0x25
 2463 11c9 24000000 		.4byte	.LLST1
 2464 11cd 3A       		.uleb128 0x3a
 2465 11ce 0D050000 		.4byte	.LASF208
 2466 11d2 01       		.byte	0x1
 2467 11d3 2F       		.byte	0x2f
 2468 11d4 25000000 		.4byte	0x25
 2469 11d8 54000000 		.4byte	.LLST2
 2470 11dc 3A       		.uleb128 0x3a
 2471 11dd 86050000 		.4byte	.LASF209
 2472 11e1 01       		.byte	0x1
 2473 11e2 30       		.byte	0x30
 2474 11e3 25000000 		.4byte	0x25
 2475 11e7 74000000 		.4byte	.LLST3
 2476 11eb 3A       		.uleb128 0x3a
 2477 11ec CB060000 		.4byte	.LASF210
 2478 11f0 01       		.byte	0x1
 2479 11f1 31       		.byte	0x31
 2480 11f2 D00E0000 		.4byte	0xed0
 2481 11f6 98000000 		.4byte	.LLST4
 2482 11fa 3A       		.uleb128 0x3a
 2483 11fb 75040000 		.4byte	.LASF211
 2484 11ff 01       		.byte	0x1
 2485 1200 32       		.byte	0x32
 2486 1201 25000000 		.4byte	0x25
 2487 1205 C3000000 		.4byte	.LLST5
 2488 1209 3A       		.uleb128 0x3a
 2489 120a 6E050000 		.4byte	.LASF212
 2490 120e 01       		.byte	0x1
 2491 120f 33       		.byte	0x33
 2492 1210 88000000 		.4byte	0x88
 2493 1214 E7000000 		.4byte	.LLST6
 2494 1218 3B       		.uleb128 0x3b
 2495 1219 00000000 		.4byte	.Ldebug_ranges0+0
 2496 121d 3C       		.uleb128 0x3c
 2497 121e A4060000 		.4byte	.LASF213
 2498 1222 01       		.byte	0x1
 2499 1223 34       		.byte	0x34
 2500 1224 25000000 		.4byte	0x25
 2501 1228 1D010000 		.4byte	.LLST7
 2502 122c 3C       		.uleb128 0x3c
 2503 122d BD000000 		.4byte	.LASF214
 2504 1231 01       		.byte	0x1
 2505 1232 38       		.byte	0x38
 2506 1233 7D000000 		.4byte	0x7d
 2507 1237 31010000 		.4byte	.LLST8
 2508 123b 3D       		.uleb128 0x3d
ARM GAS  /tmp/ccMqc7hn.s 			page 45


 2509 123c 76090000 		.4byte	.LASF215
 2510 1240 01       		.byte	0x1
 2511 1241 38       		.byte	0x38
 2512 1242 25000000 		.4byte	0x25
 2513 1246 02       		.uleb128 0x2
 2514 1247 90       		.byte	0x90
 2515 1248 4D       		.uleb128 0x4d
 2516 1249 3D       		.uleb128 0x3d
 2517 124a 65040000 		.4byte	.LASF216
 2518 124e 01       		.byte	0x1
 2519 124f 3D       		.byte	0x3d
 2520 1250 25000000 		.4byte	0x25
 2521 1254 02       		.uleb128 0x2
 2522 1255 90       		.byte	0x90
 2523 1256 40       		.uleb128 0x40
 2524 1257 3E       		.uleb128 0x3e
 2525 1258 6400     		.ascii	"d\000"
 2526 125a 01       		.byte	0x1
 2527 125b 40       		.byte	0x40
 2528 125c 7D000000 		.4byte	0x7d
 2529 1260 44010000 		.4byte	.LLST9
 2530 1264 3B       		.uleb128 0x3b
 2531 1265 18000000 		.4byte	.Ldebug_ranges0+0x18
 2532 1269 3C       		.uleb128 0x3c
 2533 126a 06050000 		.4byte	.LASF217
 2534 126e 01       		.byte	0x1
 2535 126f 42       		.byte	0x42
 2536 1270 25000000 		.4byte	0x25
 2537 1274 6F010000 		.4byte	.LLST10
 2538 1278 3F       		.uleb128 0x3f
 2539 1279 6100     		.ascii	"a\000"
 2540 127b 01       		.byte	0x1
 2541 127c 43       		.byte	0x43
 2542 127d 25000000 		.4byte	0x25
 2543 1281 02       		.uleb128 0x2
 2544 1282 90       		.byte	0x90
 2545 1283 4E       		.uleb128 0x4e
 2546 1284 40       		.uleb128 0x40
 2547 1285 6200     		.ascii	"b\000"
 2548 1287 01       		.byte	0x1
 2549 1288 44       		.byte	0x44
 2550 1289 25000000 		.4byte	0x25
 2551 128d 3F       		.uleb128 0x3f
 2552 128e 696E00   		.ascii	"in\000"
 2553 1291 01       		.byte	0x1
 2554 1292 45       		.byte	0x45
 2555 1293 25000000 		.4byte	0x25
 2556 1297 02       		.uleb128 0x2
 2557 1298 90       		.byte	0x90
 2558 1299 4E       		.uleb128 0x4e
 2559 129a 3C       		.uleb128 0x3c
 2560 129b 16010000 		.4byte	.LASF218
 2561 129f 01       		.byte	0x1
 2562 12a0 46       		.byte	0x46
 2563 12a1 25000000 		.4byte	0x25
 2564 12a5 8F010000 		.4byte	.LLST11
 2565 12a9 41       		.uleb128 0x41
ARM GAS  /tmp/ccMqc7hn.s 			page 46


 2566 12aa 1C000000 		.4byte	.LASF219
 2567 12ae 01       		.byte	0x1
 2568 12af 49       		.byte	0x49
 2569 12b0 25000000 		.4byte	0x25
 2570 12b4 3E       		.uleb128 0x3e
 2571 12b5 6F757400 		.ascii	"out\000"
 2572 12b9 01       		.byte	0x1
 2573 12ba 4A       		.byte	0x4a
 2574 12bb 25000000 		.4byte	0x25
 2575 12bf AF010000 		.4byte	.LLST12
 2576 12c3 00       		.byte	0
 2577 12c4 00       		.byte	0
 2578 12c5 00       		.byte	0
 2579 12c6 0C       		.uleb128 0xc
 2580 12c7 25000000 		.4byte	0x25
 2581 12cb 42       		.uleb128 0x42
 2582 12cc 8F0E0000 		.4byte	0xe8f
 2583 12d0 04       		.byte	0x4
 2584 12d1 0000FA46 		.4byte	0x46fa0000
 2585 12d5 0C       		.uleb128 0xc
 2586 12d6 88000000 		.4byte	0x88
 2587 12da 43       		.uleb128 0x43
 2588 12db 9F0E0000 		.4byte	0xe9f
 2589 12df 10       		.byte	0x10
 2590 12e0 44       		.uleb128 0x44
 2591 12e1 AB0E0000 		.4byte	0xeab
 2592 12e5 0008     		.2byte	0x800
 2593 12e7 45       		.uleb128 0x45
 2594 12e8 8E020000 		.4byte	0x28e
 2595 12ec CA050000 		.4byte	.LASF229
 2596 12f0 FFFFFF7F 		.4byte	0x7fffffff
 2597 12f4 00       		.byte	0
 2598              		.section	.debug_abbrev,"",%progbits
 2599              	.Ldebug_abbrev0:
 2600 0000 01       		.uleb128 0x1
 2601 0001 11       		.uleb128 0x11
 2602 0002 01       		.byte	0x1
 2603 0003 25       		.uleb128 0x25
 2604 0004 0E       		.uleb128 0xe
 2605 0005 13       		.uleb128 0x13
 2606 0006 0B       		.uleb128 0xb
 2607 0007 03       		.uleb128 0x3
 2608 0008 0E       		.uleb128 0xe
 2609 0009 1B       		.uleb128 0x1b
 2610 000a 0E       		.uleb128 0xe
 2611 000b 11       		.uleb128 0x11
 2612 000c 01       		.uleb128 0x1
 2613 000d 12       		.uleb128 0x12
 2614 000e 06       		.uleb128 0x6
 2615 000f 10       		.uleb128 0x10
 2616 0010 17       		.uleb128 0x17
 2617 0011 00       		.byte	0
 2618 0012 00       		.byte	0
 2619 0013 02       		.uleb128 0x2
 2620 0014 24       		.uleb128 0x24
 2621 0015 00       		.byte	0
 2622 0016 0B       		.uleb128 0xb
ARM GAS  /tmp/ccMqc7hn.s 			page 47


 2623 0017 0B       		.uleb128 0xb
 2624 0018 3E       		.uleb128 0x3e
 2625 0019 0B       		.uleb128 0xb
 2626 001a 03       		.uleb128 0x3
 2627 001b 0E       		.uleb128 0xe
 2628 001c 00       		.byte	0
 2629 001d 00       		.byte	0
 2630 001e 03       		.uleb128 0x3
 2631 001f 16       		.uleb128 0x16
 2632 0020 00       		.byte	0
 2633 0021 03       		.uleb128 0x3
 2634 0022 0E       		.uleb128 0xe
 2635 0023 3A       		.uleb128 0x3a
 2636 0024 0B       		.uleb128 0xb
 2637 0025 3B       		.uleb128 0x3b
 2638 0026 0B       		.uleb128 0xb
 2639 0027 49       		.uleb128 0x49
 2640 0028 13       		.uleb128 0x13
 2641 0029 00       		.byte	0
 2642 002a 00       		.byte	0
 2643 002b 04       		.uleb128 0x4
 2644 002c 24       		.uleb128 0x24
 2645 002d 00       		.byte	0
 2646 002e 0B       		.uleb128 0xb
 2647 002f 0B       		.uleb128 0xb
 2648 0030 3E       		.uleb128 0x3e
 2649 0031 0B       		.uleb128 0xb
 2650 0032 03       		.uleb128 0x3
 2651 0033 08       		.uleb128 0x8
 2652 0034 00       		.byte	0
 2653 0035 00       		.byte	0
 2654 0036 05       		.uleb128 0x5
 2655 0037 39       		.uleb128 0x39
 2656 0038 00       		.byte	0
 2657 0039 03       		.uleb128 0x3
 2658 003a 0E       		.uleb128 0xe
 2659 003b 3A       		.uleb128 0x3a
 2660 003c 0B       		.uleb128 0xb
 2661 003d 3B       		.uleb128 0x3b
 2662 003e 0B       		.uleb128 0xb
 2663 003f 00       		.byte	0
 2664 0040 00       		.byte	0
 2665 0041 06       		.uleb128 0x6
 2666 0042 01       		.uleb128 0x1
 2667 0043 01       		.byte	0x1
 2668 0044 49       		.uleb128 0x49
 2669 0045 13       		.uleb128 0x13
 2670 0046 01       		.uleb128 0x1
 2671 0047 13       		.uleb128 0x13
 2672 0048 00       		.byte	0
 2673 0049 00       		.byte	0
 2674 004a 07       		.uleb128 0x7
 2675 004b 21       		.uleb128 0x21
 2676 004c 00       		.byte	0
 2677 004d 49       		.uleb128 0x49
 2678 004e 13       		.uleb128 0x13
 2679 004f 2F       		.uleb128 0x2f
ARM GAS  /tmp/ccMqc7hn.s 			page 48


 2680 0050 0B       		.uleb128 0xb
 2681 0051 00       		.byte	0
 2682 0052 00       		.byte	0
 2683 0053 08       		.uleb128 0x8
 2684 0054 39       		.uleb128 0x39
 2685 0055 01       		.byte	0x1
 2686 0056 03       		.uleb128 0x3
 2687 0057 08       		.uleb128 0x8
 2688 0058 3A       		.uleb128 0x3a
 2689 0059 0B       		.uleb128 0xb
 2690 005a 3B       		.uleb128 0x3b
 2691 005b 0B       		.uleb128 0xb
 2692 005c 01       		.uleb128 0x1
 2693 005d 13       		.uleb128 0x13
 2694 005e 00       		.byte	0
 2695 005f 00       		.byte	0
 2696 0060 09       		.uleb128 0x9
 2697 0061 08       		.uleb128 0x8
 2698 0062 00       		.byte	0
 2699 0063 3A       		.uleb128 0x3a
 2700 0064 0B       		.uleb128 0xb
 2701 0065 3B       		.uleb128 0x3b
 2702 0066 0B       		.uleb128 0xb
 2703 0067 18       		.uleb128 0x18
 2704 0068 13       		.uleb128 0x13
 2705 0069 00       		.byte	0
 2706 006a 00       		.byte	0
 2707 006b 0A       		.uleb128 0xa
 2708 006c 13       		.uleb128 0x13
 2709 006d 00       		.byte	0
 2710 006e 03       		.uleb128 0x3
 2711 006f 0E       		.uleb128 0xe
 2712 0070 0B       		.uleb128 0xb
 2713 0071 0B       		.uleb128 0xb
 2714 0072 3A       		.uleb128 0x3a
 2715 0073 0B       		.uleb128 0xb
 2716 0074 3B       		.uleb128 0x3b
 2717 0075 0B       		.uleb128 0xb
 2718 0076 00       		.byte	0
 2719 0077 00       		.byte	0
 2720 0078 0B       		.uleb128 0xb
 2721 0079 34       		.uleb128 0x34
 2722 007a 00       		.byte	0
 2723 007b 03       		.uleb128 0x3
 2724 007c 0E       		.uleb128 0xe
 2725 007d 3A       		.uleb128 0x3a
 2726 007e 0B       		.uleb128 0xb
 2727 007f 3B       		.uleb128 0x3b
 2728 0080 0B       		.uleb128 0xb
 2729 0081 6E       		.uleb128 0x6e
 2730 0082 0E       		.uleb128 0xe
 2731 0083 49       		.uleb128 0x49
 2732 0084 13       		.uleb128 0x13
 2733 0085 3F       		.uleb128 0x3f
 2734 0086 19       		.uleb128 0x19
 2735 0087 3C       		.uleb128 0x3c
 2736 0088 19       		.uleb128 0x19
ARM GAS  /tmp/ccMqc7hn.s 			page 49


 2737 0089 00       		.byte	0
 2738 008a 00       		.byte	0
 2739 008b 0C       		.uleb128 0xc
 2740 008c 26       		.uleb128 0x26
 2741 008d 00       		.byte	0
 2742 008e 49       		.uleb128 0x49
 2743 008f 13       		.uleb128 0x13
 2744 0090 00       		.byte	0
 2745 0091 00       		.byte	0
 2746 0092 0D       		.uleb128 0xd
 2747 0093 39       		.uleb128 0x39
 2748 0094 01       		.byte	0x1
 2749 0095 03       		.uleb128 0x3
 2750 0096 0E       		.uleb128 0xe
 2751 0097 3A       		.uleb128 0x3a
 2752 0098 0B       		.uleb128 0xb
 2753 0099 3B       		.uleb128 0x3b
 2754 009a 0B       		.uleb128 0xb
 2755 009b 01       		.uleb128 0x1
 2756 009c 13       		.uleb128 0x13
 2757 009d 00       		.byte	0
 2758 009e 00       		.byte	0
 2759 009f 0E       		.uleb128 0xe
 2760 00a0 13       		.uleb128 0x13
 2761 00a1 01       		.byte	0x1
 2762 00a2 03       		.uleb128 0x3
 2763 00a3 0E       		.uleb128 0xe
 2764 00a4 0B       		.uleb128 0xb
 2765 00a5 0B       		.uleb128 0xb
 2766 00a6 3A       		.uleb128 0x3a
 2767 00a7 0B       		.uleb128 0xb
 2768 00a8 3B       		.uleb128 0x3b
 2769 00a9 0B       		.uleb128 0xb
 2770 00aa 00       		.byte	0
 2771 00ab 00       		.byte	0
 2772 00ac 0F       		.uleb128 0xf
 2773 00ad 0D       		.uleb128 0xd
 2774 00ae 00       		.byte	0
 2775 00af 03       		.uleb128 0x3
 2776 00b0 0E       		.uleb128 0xe
 2777 00b1 3A       		.uleb128 0x3a
 2778 00b2 0B       		.uleb128 0xb
 2779 00b3 3B       		.uleb128 0x3b
 2780 00b4 0B       		.uleb128 0xb
 2781 00b5 49       		.uleb128 0x49
 2782 00b6 13       		.uleb128 0x13
 2783 00b7 3F       		.uleb128 0x3f
 2784 00b8 19       		.uleb128 0x19
 2785 00b9 3C       		.uleb128 0x3c
 2786 00ba 19       		.uleb128 0x19
 2787 00bb 00       		.byte	0
 2788 00bc 00       		.byte	0
 2789 00bd 10       		.uleb128 0x10
 2790 00be 2F       		.uleb128 0x2f
 2791 00bf 00       		.byte	0
 2792 00c0 03       		.uleb128 0x3
 2793 00c1 0E       		.uleb128 0xe
ARM GAS  /tmp/ccMqc7hn.s 			page 50


 2794 00c2 49       		.uleb128 0x49
 2795 00c3 13       		.uleb128 0x13
 2796 00c4 00       		.byte	0
 2797 00c5 00       		.byte	0
 2798 00c6 11       		.uleb128 0x11
 2799 00c7 16       		.uleb128 0x16
 2800 00c8 00       		.byte	0
 2801 00c9 03       		.uleb128 0x3
 2802 00ca 0E       		.uleb128 0xe
 2803 00cb 3A       		.uleb128 0x3a
 2804 00cc 0B       		.uleb128 0xb
 2805 00cd 3B       		.uleb128 0x3b
 2806 00ce 05       		.uleb128 0x5
 2807 00cf 49       		.uleb128 0x49
 2808 00d0 13       		.uleb128 0x13
 2809 00d1 00       		.byte	0
 2810 00d2 00       		.byte	0
 2811 00d3 12       		.uleb128 0x12
 2812 00d4 13       		.uleb128 0x13
 2813 00d5 01       		.byte	0x1
 2814 00d6 0B       		.uleb128 0xb
 2815 00d7 0B       		.uleb128 0xb
 2816 00d8 3A       		.uleb128 0x3a
 2817 00d9 0B       		.uleb128 0xb
 2818 00da 3B       		.uleb128 0x3b
 2819 00db 0B       		.uleb128 0xb
 2820 00dc 6E       		.uleb128 0x6e
 2821 00dd 0E       		.uleb128 0xe
 2822 00de 01       		.uleb128 0x1
 2823 00df 13       		.uleb128 0x13
 2824 00e0 00       		.byte	0
 2825 00e1 00       		.byte	0
 2826 00e2 13       		.uleb128 0x13
 2827 00e3 17       		.uleb128 0x17
 2828 00e4 01       		.byte	0x1
 2829 00e5 0B       		.uleb128 0xb
 2830 00e6 0B       		.uleb128 0xb
 2831 00e7 3A       		.uleb128 0x3a
 2832 00e8 0B       		.uleb128 0xb
 2833 00e9 3B       		.uleb128 0x3b
 2834 00ea 0B       		.uleb128 0xb
 2835 00eb 01       		.uleb128 0x1
 2836 00ec 13       		.uleb128 0x13
 2837 00ed 00       		.byte	0
 2838 00ee 00       		.byte	0
 2839 00ef 14       		.uleb128 0x14
 2840 00f0 0D       		.uleb128 0xd
 2841 00f1 00       		.byte	0
 2842 00f2 03       		.uleb128 0x3
 2843 00f3 0E       		.uleb128 0xe
 2844 00f4 3A       		.uleb128 0x3a
 2845 00f5 0B       		.uleb128 0xb
 2846 00f6 3B       		.uleb128 0x3b
 2847 00f7 0B       		.uleb128 0xb
 2848 00f8 49       		.uleb128 0x49
 2849 00f9 13       		.uleb128 0x13
 2850 00fa 00       		.byte	0
ARM GAS  /tmp/ccMqc7hn.s 			page 51


 2851 00fb 00       		.byte	0
 2852 00fc 15       		.uleb128 0x15
 2853 00fd 0D       		.uleb128 0xd
 2854 00fe 00       		.byte	0
 2855 00ff 03       		.uleb128 0x3
 2856 0100 0E       		.uleb128 0xe
 2857 0101 3A       		.uleb128 0x3a
 2858 0102 0B       		.uleb128 0xb
 2859 0103 3B       		.uleb128 0x3b
 2860 0104 0B       		.uleb128 0xb
 2861 0105 49       		.uleb128 0x49
 2862 0106 13       		.uleb128 0x13
 2863 0107 38       		.uleb128 0x38
 2864 0108 0B       		.uleb128 0xb
 2865 0109 00       		.byte	0
 2866 010a 00       		.byte	0
 2867 010b 16       		.uleb128 0x16
 2868 010c 0F       		.uleb128 0xf
 2869 010d 00       		.byte	0
 2870 010e 0B       		.uleb128 0xb
 2871 010f 0B       		.uleb128 0xb
 2872 0110 00       		.byte	0
 2873 0111 00       		.byte	0
 2874 0112 17       		.uleb128 0x17
 2875 0113 13       		.uleb128 0x13
 2876 0114 01       		.byte	0x1
 2877 0115 03       		.uleb128 0x3
 2878 0116 0E       		.uleb128 0xe
 2879 0117 0B       		.uleb128 0xb
 2880 0118 0B       		.uleb128 0xb
 2881 0119 3A       		.uleb128 0x3a
 2882 011a 0B       		.uleb128 0xb
 2883 011b 3B       		.uleb128 0x3b
 2884 011c 0B       		.uleb128 0xb
 2885 011d 01       		.uleb128 0x1
 2886 011e 13       		.uleb128 0x13
 2887 011f 00       		.byte	0
 2888 0120 00       		.byte	0
 2889 0121 18       		.uleb128 0x18
 2890 0122 0D       		.uleb128 0xd
 2891 0123 00       		.byte	0
 2892 0124 03       		.uleb128 0x3
 2893 0125 08       		.uleb128 0x8
 2894 0126 3A       		.uleb128 0x3a
 2895 0127 0B       		.uleb128 0xb
 2896 0128 3B       		.uleb128 0x3b
 2897 0129 0B       		.uleb128 0xb
 2898 012a 49       		.uleb128 0x49
 2899 012b 13       		.uleb128 0x13
 2900 012c 38       		.uleb128 0x38
 2901 012d 0B       		.uleb128 0xb
 2902 012e 00       		.byte	0
 2903 012f 00       		.byte	0
 2904 0130 19       		.uleb128 0x19
 2905 0131 0F       		.uleb128 0xf
 2906 0132 00       		.byte	0
 2907 0133 0B       		.uleb128 0xb
ARM GAS  /tmp/ccMqc7hn.s 			page 52


 2908 0134 0B       		.uleb128 0xb
 2909 0135 49       		.uleb128 0x49
 2910 0136 13       		.uleb128 0x13
 2911 0137 00       		.byte	0
 2912 0138 00       		.byte	0
 2913 0139 1A       		.uleb128 0x1a
 2914 013a 13       		.uleb128 0x13
 2915 013b 01       		.byte	0x1
 2916 013c 03       		.uleb128 0x3
 2917 013d 0E       		.uleb128 0xe
 2918 013e 0B       		.uleb128 0xb
 2919 013f 05       		.uleb128 0x5
 2920 0140 3A       		.uleb128 0x3a
 2921 0141 0B       		.uleb128 0xb
 2922 0142 3B       		.uleb128 0x3b
 2923 0143 0B       		.uleb128 0xb
 2924 0144 01       		.uleb128 0x1
 2925 0145 13       		.uleb128 0x13
 2926 0146 00       		.byte	0
 2927 0147 00       		.byte	0
 2928 0148 1B       		.uleb128 0x1b
 2929 0149 0D       		.uleb128 0xd
 2930 014a 00       		.byte	0
 2931 014b 03       		.uleb128 0x3
 2932 014c 0E       		.uleb128 0xe
 2933 014d 3A       		.uleb128 0x3a
 2934 014e 0B       		.uleb128 0xb
 2935 014f 3B       		.uleb128 0x3b
 2936 0150 0B       		.uleb128 0xb
 2937 0151 49       		.uleb128 0x49
 2938 0152 13       		.uleb128 0x13
 2939 0153 38       		.uleb128 0x38
 2940 0154 05       		.uleb128 0x5
 2941 0155 00       		.byte	0
 2942 0156 00       		.byte	0
 2943 0157 1C       		.uleb128 0x1c
 2944 0158 15       		.uleb128 0x15
 2945 0159 00       		.byte	0
 2946 015a 00       		.byte	0
 2947 015b 00       		.byte	0
 2948 015c 1D       		.uleb128 0x1d
 2949 015d 15       		.uleb128 0x15
 2950 015e 01       		.byte	0x1
 2951 015f 49       		.uleb128 0x49
 2952 0160 13       		.uleb128 0x13
 2953 0161 01       		.uleb128 0x1
 2954 0162 13       		.uleb128 0x13
 2955 0163 00       		.byte	0
 2956 0164 00       		.byte	0
 2957 0165 1E       		.uleb128 0x1e
 2958 0166 05       		.uleb128 0x5
 2959 0167 00       		.byte	0
 2960 0168 49       		.uleb128 0x49
 2961 0169 13       		.uleb128 0x13
 2962 016a 00       		.byte	0
 2963 016b 00       		.byte	0
 2964 016c 1F       		.uleb128 0x1f
ARM GAS  /tmp/ccMqc7hn.s 			page 53


 2965 016d 13       		.uleb128 0x13
 2966 016e 01       		.byte	0x1
 2967 016f 03       		.uleb128 0x3
 2968 0170 0E       		.uleb128 0xe
 2969 0171 0B       		.uleb128 0xb
 2970 0172 05       		.uleb128 0x5
 2971 0173 3A       		.uleb128 0x3a
 2972 0174 0B       		.uleb128 0xb
 2973 0175 3B       		.uleb128 0x3b
 2974 0176 05       		.uleb128 0x5
 2975 0177 01       		.uleb128 0x1
 2976 0178 13       		.uleb128 0x13
 2977 0179 00       		.byte	0
 2978 017a 00       		.byte	0
 2979 017b 20       		.uleb128 0x20
 2980 017c 17       		.uleb128 0x17
 2981 017d 01       		.byte	0x1
 2982 017e 0B       		.uleb128 0xb
 2983 017f 0B       		.uleb128 0xb
 2984 0180 3A       		.uleb128 0x3a
 2985 0181 0B       		.uleb128 0xb
 2986 0182 3B       		.uleb128 0x3b
 2987 0183 05       		.uleb128 0x5
 2988 0184 01       		.uleb128 0x1
 2989 0185 13       		.uleb128 0x13
 2990 0186 00       		.byte	0
 2991 0187 00       		.byte	0
 2992 0188 21       		.uleb128 0x21
 2993 0189 13       		.uleb128 0x13
 2994 018a 01       		.byte	0x1
 2995 018b 0B       		.uleb128 0xb
 2996 018c 0B       		.uleb128 0xb
 2997 018d 3A       		.uleb128 0x3a
 2998 018e 0B       		.uleb128 0xb
 2999 018f 3B       		.uleb128 0x3b
 3000 0190 05       		.uleb128 0x5
 3001 0191 01       		.uleb128 0x1
 3002 0192 13       		.uleb128 0x13
 3003 0193 00       		.byte	0
 3004 0194 00       		.byte	0
 3005 0195 22       		.uleb128 0x22
 3006 0196 0D       		.uleb128 0xd
 3007 0197 00       		.byte	0
 3008 0198 03       		.uleb128 0x3
 3009 0199 0E       		.uleb128 0xe
 3010 019a 3A       		.uleb128 0x3a
 3011 019b 0B       		.uleb128 0xb
 3012 019c 3B       		.uleb128 0x3b
 3013 019d 05       		.uleb128 0x5
 3014 019e 49       		.uleb128 0x49
 3015 019f 13       		.uleb128 0x13
 3016 01a0 38       		.uleb128 0x38
 3017 01a1 0B       		.uleb128 0xb
 3018 01a2 00       		.byte	0
 3019 01a3 00       		.byte	0
 3020 01a4 23       		.uleb128 0x23
 3021 01a5 0D       		.uleb128 0xd
ARM GAS  /tmp/ccMqc7hn.s 			page 54


 3022 01a6 00       		.byte	0
 3023 01a7 03       		.uleb128 0x3
 3024 01a8 0E       		.uleb128 0xe
 3025 01a9 3A       		.uleb128 0x3a
 3026 01aa 0B       		.uleb128 0xb
 3027 01ab 3B       		.uleb128 0x3b
 3028 01ac 05       		.uleb128 0x5
 3029 01ad 49       		.uleb128 0x49
 3030 01ae 13       		.uleb128 0x13
 3031 01af 00       		.byte	0
 3032 01b0 00       		.byte	0
 3033 01b1 24       		.uleb128 0x24
 3034 01b2 0D       		.uleb128 0xd
 3035 01b3 00       		.byte	0
 3036 01b4 03       		.uleb128 0x3
 3037 01b5 0E       		.uleb128 0xe
 3038 01b6 3A       		.uleb128 0x3a
 3039 01b7 0B       		.uleb128 0xb
 3040 01b8 3B       		.uleb128 0x3b
 3041 01b9 05       		.uleb128 0x5
 3042 01ba 49       		.uleb128 0x49
 3043 01bb 13       		.uleb128 0x13
 3044 01bc 38       		.uleb128 0x38
 3045 01bd 05       		.uleb128 0x5
 3046 01be 00       		.byte	0
 3047 01bf 00       		.byte	0
 3048 01c0 25       		.uleb128 0x25
 3049 01c1 13       		.uleb128 0x13
 3050 01c2 01       		.byte	0x1
 3051 01c3 03       		.uleb128 0x3
 3052 01c4 0E       		.uleb128 0xe
 3053 01c5 0B       		.uleb128 0xb
 3054 01c6 0B       		.uleb128 0xb
 3055 01c7 3A       		.uleb128 0x3a
 3056 01c8 0B       		.uleb128 0xb
 3057 01c9 3B       		.uleb128 0x3b
 3058 01ca 05       		.uleb128 0x5
 3059 01cb 01       		.uleb128 0x1
 3060 01cc 13       		.uleb128 0x13
 3061 01cd 00       		.byte	0
 3062 01ce 00       		.byte	0
 3063 01cf 26       		.uleb128 0x26
 3064 01d0 15       		.uleb128 0x15
 3065 01d1 01       		.byte	0x1
 3066 01d2 01       		.uleb128 0x1
 3067 01d3 13       		.uleb128 0x13
 3068 01d4 00       		.byte	0
 3069 01d5 00       		.byte	0
 3070 01d6 27       		.uleb128 0x27
 3071 01d7 3A       		.uleb128 0x3a
 3072 01d8 00       		.byte	0
 3073 01d9 3A       		.uleb128 0x3a
 3074 01da 0B       		.uleb128 0xb
 3075 01db 3B       		.uleb128 0x3b
 3076 01dc 0B       		.uleb128 0xb
 3077 01dd 18       		.uleb128 0x18
 3078 01de 13       		.uleb128 0x13
ARM GAS  /tmp/ccMqc7hn.s 			page 55


 3079 01df 00       		.byte	0
 3080 01e0 00       		.byte	0
 3081 01e1 28       		.uleb128 0x28
 3082 01e2 26       		.uleb128 0x26
 3083 01e3 00       		.byte	0
 3084 01e4 00       		.byte	0
 3085 01e5 00       		.byte	0
 3086 01e6 29       		.uleb128 0x29
 3087 01e7 2E       		.uleb128 0x2e
 3088 01e8 01       		.byte	0x1
 3089 01e9 3F       		.uleb128 0x3f
 3090 01ea 19       		.uleb128 0x19
 3091 01eb 03       		.uleb128 0x3
 3092 01ec 0E       		.uleb128 0xe
 3093 01ed 3A       		.uleb128 0x3a
 3094 01ee 0B       		.uleb128 0xb
 3095 01ef 3B       		.uleb128 0x3b
 3096 01f0 0B       		.uleb128 0xb
 3097 01f1 49       		.uleb128 0x49
 3098 01f2 13       		.uleb128 0x13
 3099 01f3 3C       		.uleb128 0x3c
 3100 01f4 19       		.uleb128 0x19
 3101 01f5 01       		.uleb128 0x1
 3102 01f6 13       		.uleb128 0x13
 3103 01f7 00       		.byte	0
 3104 01f8 00       		.byte	0
 3105 01f9 2A       		.uleb128 0x2a
 3106 01fa 2E       		.uleb128 0x2e
 3107 01fb 01       		.byte	0x1
 3108 01fc 3F       		.uleb128 0x3f
 3109 01fd 19       		.uleb128 0x19
 3110 01fe 03       		.uleb128 0x3
 3111 01ff 08       		.uleb128 0x8
 3112 0200 3A       		.uleb128 0x3a
 3113 0201 0B       		.uleb128 0xb
 3114 0202 3B       		.uleb128 0x3b
 3115 0203 0B       		.uleb128 0xb
 3116 0204 49       		.uleb128 0x49
 3117 0205 13       		.uleb128 0x13
 3118 0206 3C       		.uleb128 0x3c
 3119 0207 19       		.uleb128 0x19
 3120 0208 01       		.uleb128 0x1
 3121 0209 13       		.uleb128 0x13
 3122 020a 00       		.byte	0
 3123 020b 00       		.byte	0
 3124 020c 2B       		.uleb128 0x2b
 3125 020d 2E       		.uleb128 0x2e
 3126 020e 01       		.byte	0x1
 3127 020f 3F       		.uleb128 0x3f
 3128 0210 19       		.uleb128 0x19
 3129 0211 03       		.uleb128 0x3
 3130 0212 0E       		.uleb128 0xe
 3131 0213 3A       		.uleb128 0x3a
 3132 0214 0B       		.uleb128 0xb
 3133 0215 3B       		.uleb128 0x3b
 3134 0216 0B       		.uleb128 0xb
 3135 0217 3C       		.uleb128 0x3c
ARM GAS  /tmp/ccMqc7hn.s 			page 56


 3136 0218 19       		.uleb128 0x19
 3137 0219 01       		.uleb128 0x1
 3138 021a 13       		.uleb128 0x13
 3139 021b 00       		.byte	0
 3140 021c 00       		.byte	0
 3141 021d 2C       		.uleb128 0x2c
 3142 021e 2E       		.uleb128 0x2e
 3143 021f 00       		.byte	0
 3144 0220 3F       		.uleb128 0x3f
 3145 0221 19       		.uleb128 0x19
 3146 0222 03       		.uleb128 0x3
 3147 0223 0E       		.uleb128 0xe
 3148 0224 3A       		.uleb128 0x3a
 3149 0225 0B       		.uleb128 0xb
 3150 0226 3B       		.uleb128 0x3b
 3151 0227 0B       		.uleb128 0xb
 3152 0228 49       		.uleb128 0x49
 3153 0229 13       		.uleb128 0x13
 3154 022a 3C       		.uleb128 0x3c
 3155 022b 19       		.uleb128 0x19
 3156 022c 00       		.byte	0
 3157 022d 00       		.byte	0
 3158 022e 2D       		.uleb128 0x2d
 3159 022f 02       		.uleb128 0x2
 3160 0230 01       		.byte	0x1
 3161 0231 03       		.uleb128 0x3
 3162 0232 0E       		.uleb128 0xe
 3163 0233 0B       		.uleb128 0xb
 3164 0234 05       		.uleb128 0x5
 3165 0235 3A       		.uleb128 0x3a
 3166 0236 0B       		.uleb128 0xb
 3167 0237 3B       		.uleb128 0x3b
 3168 0238 0B       		.uleb128 0xb
 3169 0239 01       		.uleb128 0x1
 3170 023a 13       		.uleb128 0x13
 3171 023b 00       		.byte	0
 3172 023c 00       		.byte	0
 3173 023d 2E       		.uleb128 0x2e
 3174 023e 2E       		.uleb128 0x2e
 3175 023f 01       		.byte	0x1
 3176 0240 3F       		.uleb128 0x3f
 3177 0241 19       		.uleb128 0x19
 3178 0242 03       		.uleb128 0x3
 3179 0243 0E       		.uleb128 0xe
 3180 0244 3A       		.uleb128 0x3a
 3181 0245 0B       		.uleb128 0xb
 3182 0246 3B       		.uleb128 0x3b
 3183 0247 0B       		.uleb128 0xb
 3184 0248 49       		.uleb128 0x49
 3185 0249 13       		.uleb128 0x13
 3186 024a 32       		.uleb128 0x32
 3187 024b 0B       		.uleb128 0xb
 3188 024c 3C       		.uleb128 0x3c
 3189 024d 19       		.uleb128 0x19
 3190 024e 64       		.uleb128 0x64
 3191 024f 13       		.uleb128 0x13
 3192 0250 01       		.uleb128 0x1
ARM GAS  /tmp/ccMqc7hn.s 			page 57


 3193 0251 13       		.uleb128 0x13
 3194 0252 00       		.byte	0
 3195 0253 00       		.byte	0
 3196 0254 2F       		.uleb128 0x2f
 3197 0255 05       		.uleb128 0x5
 3198 0256 00       		.byte	0
 3199 0257 49       		.uleb128 0x49
 3200 0258 13       		.uleb128 0x13
 3201 0259 34       		.uleb128 0x34
 3202 025a 19       		.uleb128 0x19
 3203 025b 00       		.byte	0
 3204 025c 00       		.byte	0
 3205 025d 30       		.uleb128 0x30
 3206 025e 2E       		.uleb128 0x2e
 3207 025f 01       		.byte	0x1
 3208 0260 3F       		.uleb128 0x3f
 3209 0261 19       		.uleb128 0x19
 3210 0262 03       		.uleb128 0x3
 3211 0263 0E       		.uleb128 0xe
 3212 0264 3A       		.uleb128 0x3a
 3213 0265 0B       		.uleb128 0xb
 3214 0266 3B       		.uleb128 0x3b
 3215 0267 0B       		.uleb128 0xb
 3216 0268 6E       		.uleb128 0x6e
 3217 0269 0E       		.uleb128 0xe
 3218 026a 32       		.uleb128 0x32
 3219 026b 0B       		.uleb128 0xb
 3220 026c 3C       		.uleb128 0x3c
 3221 026d 19       		.uleb128 0x19
 3222 026e 64       		.uleb128 0x64
 3223 026f 13       		.uleb128 0x13
 3224 0270 01       		.uleb128 0x1
 3225 0271 13       		.uleb128 0x13
 3226 0272 00       		.byte	0
 3227 0273 00       		.byte	0
 3228 0274 31       		.uleb128 0x31
 3229 0275 2E       		.uleb128 0x2e
 3230 0276 01       		.byte	0x1
 3231 0277 3F       		.uleb128 0x3f
 3232 0278 19       		.uleb128 0x19
 3233 0279 03       		.uleb128 0x3
 3234 027a 0E       		.uleb128 0xe
 3235 027b 3A       		.uleb128 0x3a
 3236 027c 0B       		.uleb128 0xb
 3237 027d 3B       		.uleb128 0x3b
 3238 027e 0B       		.uleb128 0xb
 3239 027f 49       		.uleb128 0x49
 3240 0280 13       		.uleb128 0x13
 3241 0281 3C       		.uleb128 0x3c
 3242 0282 19       		.uleb128 0x19
 3243 0283 64       		.uleb128 0x64
 3244 0284 13       		.uleb128 0x13
 3245 0285 01       		.uleb128 0x1
 3246 0286 13       		.uleb128 0x13
 3247 0287 00       		.byte	0
 3248 0288 00       		.byte	0
 3249 0289 32       		.uleb128 0x32
ARM GAS  /tmp/ccMqc7hn.s 			page 58


 3250 028a 2E       		.uleb128 0x2e
 3251 028b 01       		.byte	0x1
 3252 028c 3F       		.uleb128 0x3f
 3253 028d 19       		.uleb128 0x19
 3254 028e 03       		.uleb128 0x3
 3255 028f 0E       		.uleb128 0xe
 3256 0290 3A       		.uleb128 0x3a
 3257 0291 0B       		.uleb128 0xb
 3258 0292 3B       		.uleb128 0x3b
 3259 0293 0B       		.uleb128 0xb
 3260 0294 6E       		.uleb128 0x6e
 3261 0295 0E       		.uleb128 0xe
 3262 0296 3C       		.uleb128 0x3c
 3263 0297 19       		.uleb128 0x19
 3264 0298 64       		.uleb128 0x64
 3265 0299 13       		.uleb128 0x13
 3266 029a 00       		.byte	0
 3267 029b 00       		.byte	0
 3268 029c 33       		.uleb128 0x33
 3269 029d 34       		.uleb128 0x34
 3270 029e 00       		.byte	0
 3271 029f 03       		.uleb128 0x3
 3272 02a0 0E       		.uleb128 0xe
 3273 02a1 3A       		.uleb128 0x3a
 3274 02a2 0B       		.uleb128 0xb
 3275 02a3 3B       		.uleb128 0x3b
 3276 02a4 0B       		.uleb128 0xb
 3277 02a5 49       		.uleb128 0x49
 3278 02a6 13       		.uleb128 0x13
 3279 02a7 3C       		.uleb128 0x3c
 3280 02a8 19       		.uleb128 0x19
 3281 02a9 1C       		.uleb128 0x1c
 3282 02aa 0A       		.uleb128 0xa
 3283 02ab 00       		.byte	0
 3284 02ac 00       		.byte	0
 3285 02ad 34       		.uleb128 0x34
 3286 02ae 34       		.uleb128 0x34
 3287 02af 00       		.byte	0
 3288 02b0 03       		.uleb128 0x3
 3289 02b1 0E       		.uleb128 0xe
 3290 02b2 3A       		.uleb128 0x3a
 3291 02b3 0B       		.uleb128 0xb
 3292 02b4 3B       		.uleb128 0x3b
 3293 02b5 0B       		.uleb128 0xb
 3294 02b6 49       		.uleb128 0x49
 3295 02b7 13       		.uleb128 0x13
 3296 02b8 3C       		.uleb128 0x3c
 3297 02b9 19       		.uleb128 0x19
 3298 02ba 1C       		.uleb128 0x1c
 3299 02bb 0B       		.uleb128 0xb
 3300 02bc 00       		.byte	0
 3301 02bd 00       		.byte	0
 3302 02be 35       		.uleb128 0x35
 3303 02bf 34       		.uleb128 0x34
 3304 02c0 00       		.byte	0
 3305 02c1 03       		.uleb128 0x3
 3306 02c2 0E       		.uleb128 0xe
ARM GAS  /tmp/ccMqc7hn.s 			page 59


 3307 02c3 3A       		.uleb128 0x3a
 3308 02c4 0B       		.uleb128 0xb
 3309 02c5 3B       		.uleb128 0x3b
 3310 02c6 0B       		.uleb128 0xb
 3311 02c7 49       		.uleb128 0x49
 3312 02c8 13       		.uleb128 0x13
 3313 02c9 3C       		.uleb128 0x3c
 3314 02ca 19       		.uleb128 0x19
 3315 02cb 1C       		.uleb128 0x1c
 3316 02cc 05       		.uleb128 0x5
 3317 02cd 00       		.byte	0
 3318 02ce 00       		.byte	0
 3319 02cf 36       		.uleb128 0x36
 3320 02d0 21       		.uleb128 0x21
 3321 02d1 00       		.byte	0
 3322 02d2 49       		.uleb128 0x49
 3323 02d3 13       		.uleb128 0x13
 3324 02d4 2F       		.uleb128 0x2f
 3325 02d5 05       		.uleb128 0x5
 3326 02d6 00       		.byte	0
 3327 02d7 00       		.byte	0
 3328 02d8 37       		.uleb128 0x37
 3329 02d9 10       		.uleb128 0x10
 3330 02da 00       		.byte	0
 3331 02db 0B       		.uleb128 0xb
 3332 02dc 0B       		.uleb128 0xb
 3333 02dd 49       		.uleb128 0x49
 3334 02de 13       		.uleb128 0x13
 3335 02df 00       		.byte	0
 3336 02e0 00       		.byte	0
 3337 02e1 38       		.uleb128 0x38
 3338 02e2 2E       		.uleb128 0x2e
 3339 02e3 01       		.byte	0x1
 3340 02e4 47       		.uleb128 0x47
 3341 02e5 13       		.uleb128 0x13
 3342 02e6 3A       		.uleb128 0x3a
 3343 02e7 0B       		.uleb128 0xb
 3344 02e8 3B       		.uleb128 0x3b
 3345 02e9 0B       		.uleb128 0xb
 3346 02ea 11       		.uleb128 0x11
 3347 02eb 01       		.uleb128 0x1
 3348 02ec 12       		.uleb128 0x12
 3349 02ed 06       		.uleb128 0x6
 3350 02ee 40       		.uleb128 0x40
 3351 02ef 18       		.uleb128 0x18
 3352 02f0 64       		.uleb128 0x64
 3353 02f1 13       		.uleb128 0x13
 3354 02f2 9742     		.uleb128 0x2117
 3355 02f4 19       		.uleb128 0x19
 3356 02f5 01       		.uleb128 0x1
 3357 02f6 13       		.uleb128 0x13
 3358 02f7 00       		.byte	0
 3359 02f8 00       		.byte	0
 3360 02f9 39       		.uleb128 0x39
 3361 02fa 05       		.uleb128 0x5
 3362 02fb 00       		.byte	0
 3363 02fc 03       		.uleb128 0x3
ARM GAS  /tmp/ccMqc7hn.s 			page 60


 3364 02fd 0E       		.uleb128 0xe
 3365 02fe 49       		.uleb128 0x49
 3366 02ff 13       		.uleb128 0x13
 3367 0300 34       		.uleb128 0x34
 3368 0301 19       		.uleb128 0x19
 3369 0302 02       		.uleb128 0x2
 3370 0303 18       		.uleb128 0x18
 3371 0304 00       		.byte	0
 3372 0305 00       		.byte	0
 3373 0306 3A       		.uleb128 0x3a
 3374 0307 05       		.uleb128 0x5
 3375 0308 00       		.byte	0
 3376 0309 03       		.uleb128 0x3
 3377 030a 0E       		.uleb128 0xe
 3378 030b 3A       		.uleb128 0x3a
 3379 030c 0B       		.uleb128 0xb
 3380 030d 3B       		.uleb128 0x3b
 3381 030e 0B       		.uleb128 0xb
 3382 030f 49       		.uleb128 0x49
 3383 0310 13       		.uleb128 0x13
 3384 0311 02       		.uleb128 0x2
 3385 0312 17       		.uleb128 0x17
 3386 0313 00       		.byte	0
 3387 0314 00       		.byte	0
 3388 0315 3B       		.uleb128 0x3b
 3389 0316 0B       		.uleb128 0xb
 3390 0317 01       		.byte	0x1
 3391 0318 55       		.uleb128 0x55
 3392 0319 17       		.uleb128 0x17
 3393 031a 00       		.byte	0
 3394 031b 00       		.byte	0
 3395 031c 3C       		.uleb128 0x3c
 3396 031d 34       		.uleb128 0x34
 3397 031e 00       		.byte	0
 3398 031f 03       		.uleb128 0x3
 3399 0320 0E       		.uleb128 0xe
 3400 0321 3A       		.uleb128 0x3a
 3401 0322 0B       		.uleb128 0xb
 3402 0323 3B       		.uleb128 0x3b
 3403 0324 0B       		.uleb128 0xb
 3404 0325 49       		.uleb128 0x49
 3405 0326 13       		.uleb128 0x13
 3406 0327 02       		.uleb128 0x2
 3407 0328 17       		.uleb128 0x17
 3408 0329 00       		.byte	0
 3409 032a 00       		.byte	0
 3410 032b 3D       		.uleb128 0x3d
 3411 032c 34       		.uleb128 0x34
 3412 032d 00       		.byte	0
 3413 032e 03       		.uleb128 0x3
 3414 032f 0E       		.uleb128 0xe
 3415 0330 3A       		.uleb128 0x3a
 3416 0331 0B       		.uleb128 0xb
 3417 0332 3B       		.uleb128 0x3b
 3418 0333 0B       		.uleb128 0xb
 3419 0334 49       		.uleb128 0x49
 3420 0335 13       		.uleb128 0x13
ARM GAS  /tmp/ccMqc7hn.s 			page 61


 3421 0336 02       		.uleb128 0x2
 3422 0337 18       		.uleb128 0x18
 3423 0338 00       		.byte	0
 3424 0339 00       		.byte	0
 3425 033a 3E       		.uleb128 0x3e
 3426 033b 34       		.uleb128 0x34
 3427 033c 00       		.byte	0
 3428 033d 03       		.uleb128 0x3
 3429 033e 08       		.uleb128 0x8
 3430 033f 3A       		.uleb128 0x3a
 3431 0340 0B       		.uleb128 0xb
 3432 0341 3B       		.uleb128 0x3b
 3433 0342 0B       		.uleb128 0xb
 3434 0343 49       		.uleb128 0x49
 3435 0344 13       		.uleb128 0x13
 3436 0345 02       		.uleb128 0x2
 3437 0346 17       		.uleb128 0x17
 3438 0347 00       		.byte	0
 3439 0348 00       		.byte	0
 3440 0349 3F       		.uleb128 0x3f
 3441 034a 34       		.uleb128 0x34
 3442 034b 00       		.byte	0
 3443 034c 03       		.uleb128 0x3
 3444 034d 08       		.uleb128 0x8
 3445 034e 3A       		.uleb128 0x3a
 3446 034f 0B       		.uleb128 0xb
 3447 0350 3B       		.uleb128 0x3b
 3448 0351 0B       		.uleb128 0xb
 3449 0352 49       		.uleb128 0x49
 3450 0353 13       		.uleb128 0x13
 3451 0354 02       		.uleb128 0x2
 3452 0355 18       		.uleb128 0x18
 3453 0356 00       		.byte	0
 3454 0357 00       		.byte	0
 3455 0358 40       		.uleb128 0x40
 3456 0359 34       		.uleb128 0x34
 3457 035a 00       		.byte	0
 3458 035b 03       		.uleb128 0x3
 3459 035c 08       		.uleb128 0x8
 3460 035d 3A       		.uleb128 0x3a
 3461 035e 0B       		.uleb128 0xb
 3462 035f 3B       		.uleb128 0x3b
 3463 0360 0B       		.uleb128 0xb
 3464 0361 49       		.uleb128 0x49
 3465 0362 13       		.uleb128 0x13
 3466 0363 00       		.byte	0
 3467 0364 00       		.byte	0
 3468 0365 41       		.uleb128 0x41
 3469 0366 34       		.uleb128 0x34
 3470 0367 00       		.byte	0
 3471 0368 03       		.uleb128 0x3
 3472 0369 0E       		.uleb128 0xe
 3473 036a 3A       		.uleb128 0x3a
 3474 036b 0B       		.uleb128 0xb
 3475 036c 3B       		.uleb128 0x3b
 3476 036d 0B       		.uleb128 0xb
 3477 036e 49       		.uleb128 0x49
ARM GAS  /tmp/ccMqc7hn.s 			page 62


 3478 036f 13       		.uleb128 0x13
 3479 0370 00       		.byte	0
 3480 0371 00       		.byte	0
 3481 0372 42       		.uleb128 0x42
 3482 0373 34       		.uleb128 0x34
 3483 0374 00       		.byte	0
 3484 0375 47       		.uleb128 0x47
 3485 0376 13       		.uleb128 0x13
 3486 0377 1C       		.uleb128 0x1c
 3487 0378 0A       		.uleb128 0xa
 3488 0379 00       		.byte	0
 3489 037a 00       		.byte	0
 3490 037b 43       		.uleb128 0x43
 3491 037c 34       		.uleb128 0x34
 3492 037d 00       		.byte	0
 3493 037e 47       		.uleb128 0x47
 3494 037f 13       		.uleb128 0x13
 3495 0380 1C       		.uleb128 0x1c
 3496 0381 0B       		.uleb128 0xb
 3497 0382 00       		.byte	0
 3498 0383 00       		.byte	0
 3499 0384 44       		.uleb128 0x44
 3500 0385 34       		.uleb128 0x34
 3501 0386 00       		.byte	0
 3502 0387 47       		.uleb128 0x47
 3503 0388 13       		.uleb128 0x13
 3504 0389 1C       		.uleb128 0x1c
 3505 038a 05       		.uleb128 0x5
 3506 038b 00       		.byte	0
 3507 038c 00       		.byte	0
 3508 038d 45       		.uleb128 0x45
 3509 038e 34       		.uleb128 0x34
 3510 038f 00       		.byte	0
 3511 0390 47       		.uleb128 0x47
 3512 0391 13       		.uleb128 0x13
 3513 0392 6E       		.uleb128 0x6e
 3514 0393 0E       		.uleb128 0xe
 3515 0394 1C       		.uleb128 0x1c
 3516 0395 06       		.uleb128 0x6
 3517 0396 00       		.byte	0
 3518 0397 00       		.byte	0
 3519 0398 00       		.byte	0
 3520              		.section	.debug_loc,"",%progbits
 3521              	.Ldebug_loc0:
 3522              	.LLST0:
 3523 0000 10000000 		.4byte	.LVL1-.Ltext0
 3524 0004 6A000000 		.4byte	.LVL5-.Ltext0
 3525 0008 0200     		.2byte	0x2
 3526 000a 90       		.byte	0x90
 3527 000b 40       		.uleb128 0x40
 3528 000c 6A000000 		.4byte	.LVL5-.Ltext0
 3529 0010 98010000 		.4byte	.LFE547-.Ltext0
 3530 0014 0600     		.2byte	0x6
 3531 0016 F3       		.byte	0xf3
 3532 0017 03       		.uleb128 0x3
 3533 0018 F5       		.byte	0xf5
 3534 0019 40       		.uleb128 0x40
ARM GAS  /tmp/ccMqc7hn.s 			page 63


 3535 001a 25       		.uleb128 0x25
 3536 001b 9F       		.byte	0x9f
 3537 001c 00000000 		.4byte	0
 3538 0020 00000000 		.4byte	0
 3539              	.LLST1:
 3540 0024 10000000 		.4byte	.LVL1-.Ltext0
 3541 0028 80000000 		.4byte	.LVL6-.Ltext0
 3542 002c 0200     		.2byte	0x2
 3543 002e 90       		.byte	0x90
 3544 002f 41       		.uleb128 0x41
 3545 0030 80000000 		.4byte	.LVL6-.Ltext0
 3546 0034 92000000 		.4byte	.LVL8-.Ltext0
 3547 0038 0600     		.2byte	0x6
 3548 003a F3       		.byte	0xf3
 3549 003b 03       		.uleb128 0x3
 3550 003c F5       		.byte	0xf5
 3551 003d 41       		.uleb128 0x41
 3552 003e 25       		.uleb128 0x25
 3553 003f 9F       		.byte	0x9f
 3554 0040 92000000 		.4byte	.LVL8-.Ltext0
 3555 0044 98010000 		.4byte	.LFE547-.Ltext0
 3556 0048 0200     		.2byte	0x2
 3557 004a 90       		.byte	0x90
 3558 004b 41       		.uleb128 0x41
 3559 004c 00000000 		.4byte	0
 3560 0050 00000000 		.4byte	0
 3561              	.LLST2:
 3562 0054 10000000 		.4byte	.LVL1-.Ltext0
 3563 0058 96000000 		.4byte	.LVL9-.Ltext0
 3564 005c 0200     		.2byte	0x2
 3565 005e 90       		.byte	0x90
 3566 005f 42       		.uleb128 0x42
 3567 0060 96000000 		.4byte	.LVL9-.Ltext0
 3568 0064 98010000 		.4byte	.LFE547-.Ltext0
 3569 0068 0200     		.2byte	0x2
 3570 006a 90       		.byte	0x90
 3571 006b 49       		.uleb128 0x49
 3572 006c 00000000 		.4byte	0
 3573 0070 00000000 		.4byte	0
 3574              	.LLST3:
 3575 0074 10000000 		.4byte	.LVL1-.Ltext0
 3576 0078 54000000 		.4byte	.LVL4-.Ltext0
 3577 007c 0200     		.2byte	0x2
 3578 007e 90       		.byte	0x90
 3579 007f 43       		.uleb128 0x43
 3580 0080 54000000 		.4byte	.LVL4-.Ltext0
 3581 0084 98010000 		.4byte	.LFE547-.Ltext0
 3582 0088 0600     		.2byte	0x6
 3583 008a F3       		.byte	0xf3
 3584 008b 03       		.uleb128 0x3
 3585 008c F5       		.byte	0xf5
 3586 008d 43       		.uleb128 0x43
 3587 008e 25       		.uleb128 0x25
 3588 008f 9F       		.byte	0x9f
 3589 0090 00000000 		.4byte	0
 3590 0094 00000000 		.4byte	0
 3591              	.LLST4:
ARM GAS  /tmp/ccMqc7hn.s 			page 64


 3592 0098 10000000 		.4byte	.LVL1-.Ltext0
 3593 009c F0000000 		.4byte	.LVL17-.Ltext0
 3594 00a0 0100     		.2byte	0x1
 3595 00a2 51       		.byte	0x51
 3596 00a3 F0000000 		.4byte	.LVL17-.Ltext0
 3597 00a7 F8000000 		.4byte	.LVL18-.Ltext0
 3598 00ab 0300     		.2byte	0x3
 3599 00ad 71       		.byte	0x71
 3600 00ae 7C       		.sleb128 -4
 3601 00af 9F       		.byte	0x9f
 3602 00b0 FE000000 		.4byte	.LVL19-.Ltext0
 3603 00b4 98010000 		.4byte	.LFE547-.Ltext0
 3604 00b8 0100     		.2byte	0x1
 3605 00ba 51       		.byte	0x51
 3606 00bb 00000000 		.4byte	0
 3607 00bf 00000000 		.4byte	0
 3608              	.LLST5:
 3609 00c3 10000000 		.4byte	.LVL1-.Ltext0
 3610 00c7 9E000000 		.4byte	.LVL10-.Ltext0
 3611 00cb 0200     		.2byte	0x2
 3612 00cd 90       		.byte	0x90
 3613 00ce 44       		.uleb128 0x44
 3614 00cf 9E000000 		.4byte	.LVL10-.Ltext0
 3615 00d3 98010000 		.4byte	.LFE547-.Ltext0
 3616 00d7 0600     		.2byte	0x6
 3617 00d9 F3       		.byte	0xf3
 3618 00da 03       		.uleb128 0x3
 3619 00db F5       		.byte	0xf5
 3620 00dc 44       		.uleb128 0x44
 3621 00dd 25       		.uleb128 0x25
 3622 00de 9F       		.byte	0x9f
 3623 00df 00000000 		.4byte	0
 3624 00e3 00000000 		.4byte	0
 3625              	.LLST6:
 3626 00e7 10000000 		.4byte	.LVL1-.Ltext0
 3627 00eb 96000000 		.4byte	.LVL9-.Ltext0
 3628 00ef 0100     		.2byte	0x1
 3629 00f1 52       		.byte	0x52
 3630 00f2 96000000 		.4byte	.LVL9-.Ltext0
 3631 00f6 E0000000 		.4byte	.LVL16-.Ltext0
 3632 00fa 0100     		.2byte	0x1
 3633 00fc 55       		.byte	0x55
 3634 00fd E0000000 		.4byte	.LVL16-.Ltext0
 3635 0101 FE000000 		.4byte	.LVL19-.Ltext0
 3636 0105 0300     		.2byte	0x3
 3637 0107 75       		.byte	0x75
 3638 0108 01       		.sleb128 1
 3639 0109 9F       		.byte	0x9f
 3640 010a FE000000 		.4byte	.LVL19-.Ltext0
 3641 010e 76010000 		.4byte	.LVL27-.Ltext0
 3642 0112 0100     		.2byte	0x1
 3643 0114 55       		.byte	0x55
 3644 0115 00000000 		.4byte	0
 3645 0119 00000000 		.4byte	0
 3646              	.LLST7:
 3647 011d 18000000 		.4byte	.LVL2-.Ltext0
 3648 0121 BC000000 		.4byte	.LVL11-.Ltext0
ARM GAS  /tmp/ccMqc7hn.s 			page 65


 3649 0125 0200     		.2byte	0x2
 3650 0127 90       		.byte	0x90
 3651 0128 4F       		.uleb128 0x4f
 3652 0129 00000000 		.4byte	0
 3653 012d 00000000 		.4byte	0
 3654              	.LLST8:
 3655 0131 88000000 		.4byte	.LVL7-.Ltext0
 3656 0135 76010000 		.4byte	.LVL27-.Ltext0
 3657 0139 0100     		.2byte	0x1
 3658 013b 56       		.byte	0x56
 3659 013c 00000000 		.4byte	0
 3660 0140 00000000 		.4byte	0
 3661              	.LLST9:
 3662 0144 96000000 		.4byte	.LVL9-.Ltext0
 3663 0148 CA000000 		.4byte	.LVL12-.Ltext0
 3664 014c 0100     		.2byte	0x1
 3665 014e 53       		.byte	0x53
 3666 014f CA000000 		.4byte	.LVL12-.Ltext0
 3667 0153 DC000000 		.4byte	.LVL15-.Ltext0
 3668 0157 0300     		.2byte	0x3
 3669 0159 73       		.byte	0x73
 3670 015a 7F       		.sleb128 -1
 3671 015b 9F       		.byte	0x9f
 3672 015c DC000000 		.4byte	.LVL15-.Ltext0
 3673 0160 98010000 		.4byte	.LFE547-.Ltext0
 3674 0164 0100     		.2byte	0x1
 3675 0166 53       		.byte	0x53
 3676 0167 00000000 		.4byte	0
 3677 016b 00000000 		.4byte	0
 3678              	.LLST10:
 3679 016f BC000000 		.4byte	.LVL11-.Ltext0
 3680 0173 00010000 		.4byte	.LVL20-.Ltext0
 3681 0177 0200     		.2byte	0x2
 3682 0179 90       		.byte	0x90
 3683 017a 42       		.uleb128 0x42
 3684 017b 50010000 		.4byte	.LVL21-.Ltext0
 3685 017f 72010000 		.4byte	.LVL26-.Ltext0
 3686 0183 0200     		.2byte	0x2
 3687 0185 90       		.byte	0x90
 3688 0186 42       		.uleb128 0x42
 3689 0187 00000000 		.4byte	0
 3690 018b 00000000 		.4byte	0
 3691              	.LLST11:
 3692 018f BC000000 		.4byte	.LVL11-.Ltext0
 3693 0193 CE000000 		.4byte	.LVL13-.Ltext0
 3694 0197 0200     		.2byte	0x2
 3695 0199 90       		.byte	0x90
 3696 019a 4E       		.uleb128 0x4e
 3697 019b 50010000 		.4byte	.LVL21-.Ltext0
 3698 019f 72010000 		.4byte	.LVL26-.Ltext0
 3699 01a3 0200     		.2byte	0x2
 3700 01a5 90       		.byte	0x90
 3701 01a6 4E       		.uleb128 0x4e
 3702 01a7 00000000 		.4byte	0
 3703 01ab 00000000 		.4byte	0
 3704              	.LLST12:
 3705 01af BC000000 		.4byte	.LVL11-.Ltext0
ARM GAS  /tmp/ccMqc7hn.s 			page 66


 3706 01b3 D2000000 		.4byte	.LVL14-.Ltext0
 3707 01b7 0200     		.2byte	0x2
 3708 01b9 90       		.byte	0x90
 3709 01ba 4F       		.uleb128 0x4f
 3710 01bb 54010000 		.4byte	.LVL22-.Ltext0
 3711 01bf 66010000 		.4byte	.LVL23-.Ltext0
 3712 01c3 0200     		.2byte	0x2
 3713 01c5 90       		.byte	0x90
 3714 01c6 4F       		.uleb128 0x4f
 3715 01c7 68010000 		.4byte	.LVL24-.Ltext0
 3716 01cb 70010000 		.4byte	.LVL25-.Ltext0
 3717 01cf 0200     		.2byte	0x2
 3718 01d1 90       		.byte	0x90
 3719 01d2 4F       		.uleb128 0x4f
 3720 01d3 00000000 		.4byte	0
 3721 01d7 00000000 		.4byte	0
 3722              		.section	.debug_aranges,"",%progbits
 3723 0000 1C000000 		.4byte	0x1c
 3724 0004 0200     		.2byte	0x2
 3725 0006 00000000 		.4byte	.Ldebug_info0
 3726 000a 04       		.byte	0x4
 3727 000b 00       		.byte	0
 3728 000c 0000     		.2byte	0
 3729 000e 0000     		.2byte	0
 3730 0010 00000000 		.4byte	.Ltext0
 3731 0014 98010000 		.4byte	.Letext0-.Ltext0
 3732 0018 00000000 		.4byte	0
 3733 001c 00000000 		.4byte	0
 3734              		.section	.debug_ranges,"",%progbits
 3735              	.Ldebug_ranges0:
 3736 0000 10000000 		.4byte	.LBB2-.Ltext0
 3737 0004 18000000 		.4byte	.LBE2-.Ltext0
 3738 0008 1A000000 		.4byte	.LBB7-.Ltext0
 3739 000c 74010000 		.4byte	.LBE7-.Ltext0
 3740 0010 00000000 		.4byte	0
 3741 0014 00000000 		.4byte	0
 3742 0018 9E000000 		.4byte	.LBB3-.Ltext0
 3743 001c DC000000 		.4byte	.LBE3-.Ltext0
 3744 0020 E0000000 		.4byte	.LBB4-.Ltext0
 3745 0024 F8000000 		.4byte	.LBE4-.Ltext0
 3746 0028 FA000000 		.4byte	.LBB5-.Ltext0
 3747 002c FE000000 		.4byte	.LBE5-.Ltext0
 3748 0030 00010000 		.4byte	.LBB6-.Ltext0
 3749 0034 72010000 		.4byte	.LBE6-.Ltext0
 3750 0038 00000000 		.4byte	0
 3751 003c 00000000 		.4byte	0
 3752              		.section	.debug_line,"",%progbits
 3753              	.Ldebug_line0:
 3754 0000 E3050000 		.section	.debug_str,"MS",%progbits,1
 3754      02006D05 
 3754      00000201 
 3754      FB0E0D00 
 3754      01010101 
 3755              	.LASF146:
 3756 0000 67657465 		.ascii	"getenv\000"
 3756      6E7600
 3757              	.LASF16:
ARM GAS  /tmp/ccMqc7hn.s 			page 67


 3758 0007 5F5F6465 		.ascii	"__debug\000"
 3758      62756700 
 3759              	.LASF142:
 3760 000f 61746F66 		.ascii	"atof\000"
 3760      00
 3761              	.LASF169:
 3762 0014 50726F63 		.ascii	"Process\000"
 3762      65737300 
 3763              	.LASF219:
 3764 001c 72656564 		.ascii	"reed\000"
 3764      00
 3765              	.LASF193:
 3766 0021 72616E64 		.ascii	"rand\000"
 3766      00
 3767              	.LASF201:
 3768 0026 73657476 		.ascii	"setvbuf\000"
 3768      62756600 
 3769              	.LASF197:
 3770 002e 72656D6F 		.ascii	"remove\000"
 3770      766500
 3771              	.LASF52:
 3772 0035 5F6F6E5F 		.ascii	"_on_exit_args\000"
 3772      65786974 
 3772      5F617267 
 3772      7300
 3773              	.LASF157:
 3774 0043 73797374 		.ascii	"system\000"
 3774      656D00
 3775              	.LASF90:
 3776 004a 5F776374 		.ascii	"_wctomb_state\000"
 3776      6F6D625F 
 3776      73746174 
 3776      6500
 3777              	.LASF135:
 3778 0058 35646976 		.ascii	"5div_t\000"
 3778      5F7400
 3779              	.LASF182:
 3780 005f 66666C75 		.ascii	"fflush\000"
 3780      736800
 3781              	.LASF87:
 3782 0066 5F723438 		.ascii	"_r48\000"
 3782      00
 3783              	.LASF92:
 3784 006b 5F736967 		.ascii	"_signal_buf\000"
 3784      6E616C5F 
 3784      62756600 
 3785              	.LASF148:
 3786 0077 6D626C65 		.ascii	"mblen\000"
 3786      6E00
 3787              	.LASF9:
 3788 007d 756E7369 		.ascii	"unsigned int\000"
 3788      676E6564 
 3788      20696E74 
 3788      00
 3789              	.LASF18:
 3790 008a 5F5F676E 		.ascii	"__gnu_cxx\000"
 3790      755F6378 
ARM GAS  /tmp/ccMqc7hn.s 			page 68


 3790      7800
 3791              	.LASF66:
 3792 0094 5F6C6266 		.ascii	"_lbfsize\000"
 3792      73697A65 
 3792      00
 3793              	.LASF64:
 3794 009d 5F666C61 		.ascii	"_flags\000"
 3794      677300
 3795              	.LASF10:
 3796 00a4 5F5F696E 		.ascii	"__int32_t\000"
 3796      7433325F 
 3796      7400
 3797              	.LASF103:
 3798 00ae 5F657272 		.ascii	"_errno\000"
 3798      6E6F00
 3799              	.LASF150:
 3800 00b5 77636861 		.ascii	"wchar_t\000"
 3800      725F7400 
 3801              	.LASF214:
 3802 00bd 64656C61 		.ascii	"delay_integral\000"
 3802      795F696E 
 3802      74656772 
 3802      616C00
 3803              	.LASF26:
 3804 00cc 5F4C4F43 		.ascii	"_LOCK_RECURSIVE_T\000"
 3804      4B5F5245 
 3804      43555253 
 3804      4956455F 
 3804      5400
 3805              	.LASF68:
 3806 00de 5F726561 		.ascii	"_read\000"
 3806      6400
 3807              	.LASF19:
 3808 00e4 5F5F6F70 		.ascii	"__ops\000"
 3808      7300
 3809              	.LASF204:
 3810 00ea 756E6765 		.ascii	"ungetc\000"
 3810      746300
 3811              	.LASF105:
 3812 00f1 5F737464 		.ascii	"_stdout\000"
 3812      6F757400 
 3813              	.LASF28:
 3814 00f9 5F66706F 		.ascii	"_fpos_t\000"
 3814      735F7400 
 3815              	.LASF59:
 3816 0101 5F666E73 		.ascii	"_fns\000"
 3816      00
 3817              	.LASF67:
 3818 0106 5F636F6F 		.ascii	"_cookie\000"
 3818      6B696500 
 3819              	.LASF224:
 3820 010e 6E6F7468 		.ascii	"nothrow\000"
 3820      726F7700 
 3821              	.LASF218:
 3822 0116 70726573 		.ascii	"pressure_delta\000"
 3822      73757265 
 3822      5F64656C 
ARM GAS  /tmp/ccMqc7hn.s 			page 69


 3822      746100
 3823              	.LASF41:
 3824 0125 5F426967 		.ascii	"_Bigint\000"
 3824      696E7400 
 3825              	.LASF49:
 3826 012d 5F5F746D 		.ascii	"__tm_wday\000"
 3826      5F776461 
 3826      7900
 3827              	.LASF133:
 3828 0137 5F5F676E 		.ascii	"__gnu_debug\000"
 3828      755F6465 
 3828      62756700 
 3829              	.LASF113:
 3830 0143 5F726573 		.ascii	"_result\000"
 3830      756C7400 
 3831              	.LASF228:
 3832 014b 5F5A4E38 		.ascii	"_ZN8elements4TubeaSERKS0_\000"
 3832      656C656D 
 3832      656E7473 
 3832      34547562 
 3832      65615345 
 3833              	.LASF45:
 3834 0165 5F5F746D 		.ascii	"__tm_hour\000"
 3834      5F686F75 
 3834      7200
 3835              	.LASF151:
 3836 016f 6D62746F 		.ascii	"mbtowc\000"
 3836      776300
 3837              	.LASF177:
 3838 0176 66706F73 		.ascii	"fpos_t\000"
 3838      5F7400
 3839              	.LASF32:
 3840 017d 5F5F636F 		.ascii	"__count\000"
 3840      756E7400 
 3841              	.LASF174:
 3842 0185 6B4D6178 		.ascii	"kMaxBlockSize\000"
 3842      426C6F63 
 3842      6B53697A 
 3842      6500
 3843              	.LASF0:
 3844 0193 666C6F61 		.ascii	"float\000"
 3844      7400
 3845              	.LASF184:
 3846 0199 66676574 		.ascii	"fgetpos\000"
 3846      706F7300 
 3847              	.LASF44:
 3848 01a1 5F5F746D 		.ascii	"__tm_min\000"
 3848      5F6D696E 
 3848      00
 3849              	.LASF100:
 3850 01aa 5F6E6578 		.ascii	"_nextf\000"
 3850      746600
 3851              	.LASF96:
 3852 01b1 5F6D6273 		.ascii	"_mbsrtowcs_state\000"
 3852      72746F77 
 3852      63735F73 
 3852      74617465 
ARM GAS  /tmp/ccMqc7hn.s 			page 70


 3852      00
 3853              	.LASF114:
 3854 01c2 5F726573 		.ascii	"_result_k\000"
 3854      756C745F 
 3854      6B00
 3855              	.LASF8:
 3856 01cc 6C6F6E67 		.ascii	"long long unsigned int\000"
 3856      206C6F6E 
 3856      6720756E 
 3856      7369676E 
 3856      65642069 
 3857              	.LASF83:
 3858 01e3 5F617363 		.ascii	"_asctime_buf\000"
 3858      74696D65 
 3858      5F627566 
 3858      00
 3859              	.LASF220:
 3860 01f0 474E5520 		.ascii	"GNU C++ 4.9.3 20150529 (release) [ARM/embedded-4_9-"
 3860      432B2B20 
 3860      342E392E 
 3860      33203230 
 3860      31353035 
 3861 0223 6272616E 		.ascii	"branch revision 224288] -mcpu=cortex-m4 -mfloat-abi"
 3861      63682072 
 3861      65766973 
 3861      696F6E20 
 3861      32323432 
 3862 0256 3D686172 		.ascii	"=hard -mfpu=fpv4-sp-d16 -mno-thumb-interwork -mthum"
 3862      64202D6D 
 3862      6670753D 
 3862      66707634 
 3862      2D73702D 
 3863 0289 62202D67 		.ascii	"b -ggdb -O2 -fomit-frame-pointer -falign-functions="
 3863      67646220 
 3863      2D4F3220 
 3863      2D666F6D 
 3863      69742D66 
 3864 02bc 3136202D 		.ascii	"16 -fno-math-errno -fsingle-precision-constant -fno"
 3864      666E6F2D 
 3864      6D617468 
 3864      2D657272 
 3864      6E6F202D 
 3865 02ef 2D727474 		.ascii	"-rtti\000"
 3865      6900
 3866              	.LASF63:
 3867 02f5 5F5F7346 		.ascii	"__sFILE\000"
 3867      494C4500 
 3868              	.LASF40:
 3869 02fd 5F776473 		.ascii	"_wds\000"
 3869      00
 3870              	.LASF129:
 3871 0302 5F72616E 		.ascii	"_rand48\000"
 3871      64343800 
 3872              	.LASF159:
 3873 030a 7763746F 		.ascii	"wctomb\000"
 3873      6D6200
 3874              	.LASF125:
ARM GAS  /tmp/ccMqc7hn.s 			page 71


 3875 0311 5F5F4649 		.ascii	"__FILE\000"
 3875      4C4500
 3876              	.LASF75:
 3877 0318 5F6F6666 		.ascii	"_offset\000"
 3877      73657400 
 3878              	.LASF171:
 3879 0320 5F5A4E38 		.ascii	"_ZN8elements4Tube7ProcessEffffPffj\000"
 3879      656C656D 
 3879      656E7473 
 3879      34547562 
 3879      65375072 
 3880              	.LASF108:
 3881 0343 5F656D65 		.ascii	"_emergency\000"
 3881      7267656E 
 3881      637900
 3882              	.LASF164:
 3883 034e 706F6C65 		.ascii	"pole_state_\000"
 3883      5F737461 
 3883      74655F00 
 3884              	.LASF168:
 3885 035a 496E6974 		.ascii	"Init\000"
 3885      00
 3886              	.LASF12:
 3887 035f 73697A65 		.ascii	"size_t\000"
 3887      5F7400
 3888              	.LASF153:
 3889 0366 7372616E 		.ascii	"srand\000"
 3889      6400
 3890              	.LASF167:
 3891 036c 7E547562 		.ascii	"~Tube\000"
 3891      6500
 3892              	.LASF43:
 3893 0372 5F5F746D 		.ascii	"__tm_sec\000"
 3893      5F736563 
 3893      00
 3894              	.LASF50:
 3895 037b 5F5F746D 		.ascii	"__tm_yday\000"
 3895      5F796461 
 3895      7900
 3896              	.LASF107:
 3897 0385 5F696E63 		.ascii	"_inc\000"
 3897      00
 3898              	.LASF58:
 3899 038a 5F696E64 		.ascii	"_ind\000"
 3899      00
 3900              	.LASF145:
 3901 038f 62736561 		.ascii	"bsearch\000"
 3901      72636800 
 3902              	.LASF223:
 3903 0397 6E6F7468 		.ascii	"nothrow_t\000"
 3903      726F775F 
 3903      7400
 3904              	.LASF37:
 3905 03a1 5F6E6578 		.ascii	"_next\000"
 3905      7400
 3906              	.LASF178:
 3907 03a7 636C6561 		.ascii	"clearerr\000"
ARM GAS  /tmp/ccMqc7hn.s 			page 72


 3907      72657272 
 3907      00
 3908              	.LASF179:
 3909 03b0 66636C6F 		.ascii	"fclose\000"
 3909      736500
 3910              	.LASF21:
 3911 03b7 5F5F6D61 		.ascii	"__max\000"
 3911      7800
 3912              	.LASF188:
 3913 03bd 6672656F 		.ascii	"freopen\000"
 3913      70656E00 
 3914              	.LASF33:
 3915 03c5 5F5F7661 		.ascii	"__value\000"
 3915      6C756500 
 3916              	.LASF115:
 3917 03cd 5F703573 		.ascii	"_p5s\000"
 3917      00
 3918              	.LASF134:
 3919 03d2 31305F6D 		.ascii	"10_mbstate_t\000"
 3919      62737461 
 3919      74655F74 
 3919      00
 3920              	.LASF14:
 3921 03df 73746D6C 		.ascii	"stmlib\000"
 3921      696200
 3922              	.LASF98:
 3923 03e6 5F776373 		.ascii	"_wcsrtombs_state\000"
 3923      72746F6D 
 3923      62735F73 
 3923      74617465 
 3923      00
 3924              	.LASF88:
 3925 03f7 5F6D626C 		.ascii	"_mblen_state\000"
 3925      656E5F73 
 3925      74617465 
 3925      00
 3926              	.LASF124:
 3927 0404 63686172 		.ascii	"char\000"
 3927      00
 3928              	.LASF46:
 3929 0409 5F5F746D 		.ascii	"__tm_mday\000"
 3929      5F6D6461 
 3929      7900
 3930              	.LASF121:
 3931 0413 5F736967 		.ascii	"_sig_func\000"
 3931      5F66756E 
 3931      6300
 3932              	.LASF95:
 3933 041d 5F6D6272 		.ascii	"_mbrtowc_state\000"
 3933      746F7763 
 3933      5F737461 
 3933      746500
 3934              	.LASF120:
 3935 042c 5F617465 		.ascii	"_atexit0\000"
 3935      78697430 
 3935      00
 3936              	.LASF17:
ARM GAS  /tmp/ccMqc7hn.s 			page 73


 3937 0435 70747264 		.ascii	"ptrdiff_t\000"
 3937      6966665F 
 3937      7400
 3938              	.LASF35:
 3939 043f 5F666C6F 		.ascii	"_flock_t\000"
 3939      636B5F74 
 3939      00
 3940              	.LASF30:
 3941 0448 5F5F7763 		.ascii	"__wch\000"
 3941      6800
 3942              	.LASF128:
 3943 044e 5F696F62 		.ascii	"_iobs\000"
 3943      7300
 3944              	.LASF163:
 3945 0454 7A65726F 		.ascii	"zero_state_\000"
 3945      5F737461 
 3945      74655F00 
 3946              	.LASF136:
 3947 0460 71756F74 		.ascii	"quot\000"
 3947      00
 3948              	.LASF216:
 3949 0465 6C70665F 		.ascii	"lpf_coefficient\000"
 3949      636F6566 
 3949      66696369 
 3949      656E7400 
 3950              	.LASF211:
 3951 0475 6761696E 		.ascii	"gain\000"
 3951      00
 3952              	.LASF71:
 3953 047a 5F636C6F 		.ascii	"_close\000"
 3953      736500
 3954              	.LASF111:
 3955 0481 5F5F7364 		.ascii	"__sdidinit\000"
 3955      6964696E 
 3955      697400
 3956              	.LASF198:
 3957 048c 72656E61 		.ascii	"rename\000"
 3957      6D6500
 3958              	.LASF149:
 3959 0493 6D627374 		.ascii	"mbstowcs\000"
 3959      6F776373 
 3959      00
 3960              	.LASF194:
 3961 049c 67657463 		.ascii	"getchar\000"
 3961      68617200 
 3962              	.LASF104:
 3963 04a4 5F737464 		.ascii	"_stdin\000"
 3963      696E00
 3964              	.LASF85:
 3965 04ab 5F67616D 		.ascii	"_gamma_signgam\000"
 3965      6D615F73 
 3965      69676E67 
 3965      616D00
 3966              	.LASF7:
 3967 04ba 6C6F6E67 		.ascii	"long long int\000"
 3967      206C6F6E 
 3967      6720696E 
ARM GAS  /tmp/ccMqc7hn.s 			page 74


 3967      7400
 3968              	.LASF196:
 3969 04c8 70657272 		.ascii	"perror\000"
 3969      6F7200
 3970              	.LASF61:
 3971 04cf 5F626173 		.ascii	"_base\000"
 3971      6500
 3972              	.LASF172:
 3973 04d5 6F706572 		.ascii	"operator=\000"
 3973      61746F72 
 3973      3D00
 3974              	.LASF116:
 3975 04df 5F667265 		.ascii	"_freelist\000"
 3975      656C6973 
 3975      7400
 3976              	.LASF131:
 3977 04e9 5F6D756C 		.ascii	"_mult\000"
 3977      7400
 3978              	.LASF36:
 3979 04ef 5F5F554C 		.ascii	"__ULong\000"
 3979      6F6E6700 
 3980              	.LASF97:
 3981 04f7 5F776372 		.ascii	"_wcrtomb_state\000"
 3981      746F6D62 
 3981      5F737461 
 3981      746500
 3982              	.LASF217:
 3983 0506 62726561 		.ascii	"breath\000"
 3983      746800
 3984              	.LASF208:
 3985 050d 64616D70 		.ascii	"damping\000"
 3985      696E6700 
 3986              	.LASF65:
 3987 0515 5F66696C 		.ascii	"_file\000"
 3987      6500
 3988              	.LASF173:
 3989 051b 6B53616D 		.ascii	"kSampleRate\000"
 3989      706C6552 
 3989      61746500 
 3990              	.LASF207:
 3991 0527 656E7665 		.ascii	"envelope\000"
 3991      6C6F7065 
 3991      00
 3992              	.LASF189:
 3993 0530 66736565 		.ascii	"fseek\000"
 3993      6B00
 3994              	.LASF200:
 3995 0536 73657462 		.ascii	"setbuf\000"
 3995      756600
 3996              	.LASF147:
 3997 053d 6C646976 		.ascii	"ldiv\000"
 3997      00
 3998              	.LASF112:
 3999 0542 5F5F636C 		.ascii	"__cleanup\000"
 3999      65616E75 
 3999      7000
 4000              	.LASF34:
ARM GAS  /tmp/ccMqc7hn.s 			page 75


 4001 054c 5F6D6273 		.ascii	"_mbstate_t\000"
 4001      74617465 
 4001      5F7400
 4002              	.LASF161:
 4003 0557 656C656D 		.ascii	"elements\000"
 4003      656E7473 
 4003      00
 4004              	.LASF140:
 4005 0560 5F5F636F 		.ascii	"__compar_fn_t\000"
 4005      6D706172 
 4005      5F666E5F 
 4005      7400
 4006              	.LASF212:
 4007 056e 73697A65 		.ascii	"size\000"
 4007      00
 4008              	.LASF190:
 4009 0573 66736574 		.ascii	"fsetpos\000"
 4009      706F7300 
 4010              	.LASF51:
 4011 057b 5F5F746D 		.ascii	"__tm_isdst\000"
 4011      5F697364 
 4011      737400
 4012              	.LASF209:
 4013 0586 74696D62 		.ascii	"timbre\000"
 4013      726500
 4014              	.LASF191:
 4015 058d 6674656C 		.ascii	"ftell\000"
 4015      6C00
 4016              	.LASF22:
 4017 0593 5F5F6973 		.ascii	"__is_signed\000"
 4017      5F736967 
 4017      6E656400 
 4018              	.LASF99:
 4019 059f 5F685F65 		.ascii	"_h_errno\000"
 4019      72726E6F 
 4019      00
 4020              	.LASF227:
 4021 05a8 5F56616C 		.ascii	"_Value\000"
 4021      756500
 4022              	.LASF183:
 4023 05af 66676574 		.ascii	"fgetc\000"
 4023      6300
 4024              	.LASF186:
 4025 05b5 666F7065 		.ascii	"fopen\000"
 4025      6E00
 4026              	.LASF185:
 4027 05bb 66676574 		.ascii	"fgets\000"
 4027      7300
 4028              	.LASF47:
 4029 05c1 5F5F746D 		.ascii	"__tm_mon\000"
 4029      5F6D6F6E 
 4029      00
 4030              	.LASF229:
 4031 05ca 5F5A4E39 		.ascii	"_ZN9__gnu_cxx24__numeric_traits_integerIiE5__maxE\000"
 4031      5F5F676E 
 4031      755F6378 
 4031      7832345F 
ARM GAS  /tmp/ccMqc7hn.s 			page 76


 4031      5F6E756D 
 4032              	.LASF203:
 4033 05fc 746D706E 		.ascii	"tmpnam\000"
 4033      616D00
 4034              	.LASF225:
 4035 0603 5F5A5374 		.ascii	"_ZSt7nothrow\000"
 4035      376E6F74 
 4035      68726F77 
 4035      00
 4036              	.LASF24:
 4037 0610 6C6F6E67 		.ascii	"long double\000"
 4037      20646F75 
 4037      626C6500 
 4038              	.LASF221:
 4039 061c 2E2F6D75 		.ascii	"./mutable_instruments/elements/dsp/tube.cpp\000"
 4039      7461626C 
 4039      655F696E 
 4039      73747275 
 4039      6D656E74 
 4040              	.LASF69:
 4041 0648 5F777269 		.ascii	"_write\000"
 4041      746500
 4042              	.LASF205:
 4043 064f 74686973 		.ascii	"this\000"
 4043      00
 4044              	.LASF175:
 4045 0654 6B547562 		.ascii	"kTubeDelaySize\000"
 4045      6544656C 
 4045      61795369 
 4045      7A6500
 4046              	.LASF162:
 4047 0663 64656C61 		.ascii	"delay_ptr_\000"
 4047      795F7074 
 4047      725F00
 4048              	.LASF86:
 4049 066e 5F72616E 		.ascii	"_rand_next\000"
 4049      645F6E65 
 4049      787400
 4050              	.LASF57:
 4051 0679 5F617465 		.ascii	"_atexit\000"
 4051      78697400 
 4052              	.LASF78:
 4053 0681 5F6D6273 		.ascii	"_mbstate\000"
 4053      74617465 
 4053      00
 4054              	.LASF141:
 4055 068a 61746578 		.ascii	"atexit\000"
 4055      697400
 4056              	.LASF3:
 4057 0691 73686F72 		.ascii	"short int\000"
 4057      7420696E 
 4057      7400
 4058              	.LASF5:
 4059 069b 6C6F6E67 		.ascii	"long int\000"
 4059      20696E74 
 4059      00
 4060              	.LASF213:
ARM GAS  /tmp/ccMqc7hn.s 			page 77


 4061 06a4 64656C61 		.ascii	"delay\000"
 4061      7900
 4062              	.LASF187:
 4063 06aa 66726561 		.ascii	"fread\000"
 4063      6400
 4064              	.LASF123:
 4065 06b0 5F5F7366 		.ascii	"__sf\000"
 4065      00
 4066              	.LASF39:
 4067 06b5 5F736967 		.ascii	"_sign\000"
 4067      6E00
 4068              	.LASF110:
 4069 06bb 5F637572 		.ascii	"_current_locale\000"
 4069      72656E74 
 4069      5F6C6F63 
 4069      616C6500 
 4070              	.LASF210:
 4071 06cb 696E7075 		.ascii	"input_output\000"
 4071      745F6F75 
 4071      74707574 
 4071      00
 4072              	.LASF76:
 4073 06d8 5F646174 		.ascii	"_data\000"
 4073      6100
 4074              	.LASF31:
 4075 06de 5F5F7763 		.ascii	"__wchb\000"
 4075      686200
 4076              	.LASF226:
 4077 06e5 5F5F6E75 		.ascii	"__numeric_traits_integer<int>\000"
 4077      6D657269 
 4077      635F7472 
 4077      61697473 
 4077      5F696E74 
 4078              	.LASF48:
 4079 0703 5F5F746D 		.ascii	"__tm_year\000"
 4079      5F796561 
 4079      7200
 4080              	.LASF139:
 4081 070d 6C646976 		.ascii	"ldiv_t\000"
 4081      5F7400
 4082              	.LASF84:
 4083 0714 5F6C6F63 		.ascii	"_localtime_buf\000"
 4083      616C7469 
 4083      6D655F62 
 4083      756600
 4084              	.LASF181:
 4085 0723 66657272 		.ascii	"ferror\000"
 4085      6F7200
 4086              	.LASF102:
 4087 072a 5F756E75 		.ascii	"_unused\000"
 4087      73656400 
 4088              	.LASF119:
 4089 0732 5F6E6577 		.ascii	"_new\000"
 4089      00
 4090              	.LASF117:
 4091 0737 5F637674 		.ascii	"_cvtlen\000"
 4091      6C656E00 
ARM GAS  /tmp/ccMqc7hn.s 			page 78


 4092              	.LASF38:
 4093 073f 5F6D6178 		.ascii	"_maxwds\000"
 4093      77647300 
 4094              	.LASF91:
 4095 0747 5F6C3634 		.ascii	"_l64a_buf\000"
 4095      615F6275 
 4095      6600
 4096              	.LASF109:
 4097 0751 5F637572 		.ascii	"_current_category\000"
 4097      72656E74 
 4097      5F636174 
 4097      65676F72 
 4097      7900
 4098              	.LASF192:
 4099 0763 67657463 		.ascii	"getc\000"
 4099      00
 4100              	.LASF74:
 4101 0768 5F626C6B 		.ascii	"_blksize\000"
 4101      73697A65 
 4101      00
 4102              	.LASF42:
 4103 0771 5F5F746D 		.ascii	"__tm\000"
 4103      00
 4104              	.LASF195:
 4105 0776 67657473 		.ascii	"gets\000"
 4105      00
 4106              	.LASF77:
 4107 077b 5F6C6F63 		.ascii	"_lock\000"
 4107      6B00
 4108              	.LASF15:
 4109 0781 73697A65 		.ascii	"sizetype\000"
 4109      74797065 
 4109      00
 4110              	.LASF156:
 4111 078a 73747274 		.ascii	"strtoul\000"
 4111      6F756C00 
 4112              	.LASF6:
 4113 0792 6C6F6E67 		.ascii	"long unsigned int\000"
 4113      20756E73 
 4113      69676E65 
 4113      6420696E 
 4113      7400
 4114              	.LASF127:
 4115 07a4 5F6E696F 		.ascii	"_niobs\000"
 4115      627300
 4116              	.LASF29:
 4117 07ab 77696E74 		.ascii	"wint_t\000"
 4117      5F7400
 4118              	.LASF11:
 4119 07b2 696E7433 		.ascii	"int32_t\000"
 4119      325F7400 
 4120              	.LASF54:
 4121 07ba 5F64736F 		.ascii	"_dso_handle\000"
 4121      5F68616E 
 4121      646C6500 
 4122              	.LASF118:
 4123 07c6 5F637674 		.ascii	"_cvtbuf\000"
ARM GAS  /tmp/ccMqc7hn.s 			page 79


 4123      62756600 
 4124              	.LASF2:
 4125 07ce 756E7369 		.ascii	"unsigned char\000"
 4125      676E6564 
 4125      20636861 
 4125      7200
 4126              	.LASF13:
 4127 07dc 696D706C 		.ascii	"impl\000"
 4127      00
 4128              	.LASF170:
 4129 07e1 5F5A4E38 		.ascii	"_ZN8elements4Tube4InitEv\000"
 4129      656C656D 
 4129      656E7473 
 4129      34547562 
 4129      6534496E 
 4130              	.LASF202:
 4131 07fa 746D7066 		.ascii	"tmpfile\000"
 4131      696C6500 
 4132              	.LASF93:
 4133 0802 5F676574 		.ascii	"_getdate_err\000"
 4133      64617465 
 4133      5F657272 
 4133      00
 4134              	.LASF154:
 4135 080f 73747274 		.ascii	"strtod\000"
 4135      6F6400
 4136              	.LASF132:
 4137 0816 5F616464 		.ascii	"_add\000"
 4137      00
 4138              	.LASF180:
 4139 081b 66656F66 		.ascii	"feof\000"
 4139      00
 4140              	.LASF94:
 4141 0820 5F6D6272 		.ascii	"_mbrlen_state\000"
 4141      6C656E5F 
 4141      73746174 
 4141      6500
 4142              	.LASF158:
 4143 082e 77637374 		.ascii	"wcstombs\000"
 4143      6F6D6273 
 4143      00
 4144              	.LASF155:
 4145 0837 73747274 		.ascii	"strtol\000"
 4145      6F6C00
 4146              	.LASF206:
 4147 083e 66726571 		.ascii	"frequency\000"
 4147      75656E63 
 4147      7900
 4148              	.LASF60:
 4149 0848 5F5F7362 		.ascii	"__sbuf\000"
 4149      756600
 4150              	.LASF137:
 4151 084f 6469765F 		.ascii	"div_t\000"
 4151      7400
 4152              	.LASF138:
 4153 0855 366C6469 		.ascii	"6ldiv_t\000"
 4153      765F7400 
ARM GAS  /tmp/ccMqc7hn.s 			page 80


 4154              	.LASF126:
 4155 085d 5F676C75 		.ascii	"_glue\000"
 4155      6500
 4156              	.LASF20:
 4157 0863 5F5F6D69 		.ascii	"__min\000"
 4157      6E00
 4158              	.LASF122:
 4159 0869 5F5F7367 		.ascii	"__sglue\000"
 4159      6C756500 
 4160              	.LASF82:
 4161 0871 5F737472 		.ascii	"_strtok_last\000"
 4161      746F6B5F 
 4161      6C617374 
 4161      00
 4162              	.LASF89:
 4163 087e 5F6D6274 		.ascii	"_mbtowc_state\000"
 4163      6F77635F 
 4163      73746174 
 4163      6500
 4164              	.LASF199:
 4165 088c 72657769 		.ascii	"rewind\000"
 4165      6E6400
 4166              	.LASF53:
 4167 0893 5F666E61 		.ascii	"_fnargs\000"
 4167      72677300 
 4168              	.LASF1:
 4169 089b 7369676E 		.ascii	"signed char\000"
 4169      65642063 
 4169      68617200 
 4170              	.LASF80:
 4171 08a7 5F726565 		.ascii	"_reent\000"
 4171      6E7400
 4172              	.LASF222:
 4173 08ae 2F686F6D 		.ascii	"/home/sbcu/Dropbox/pcb-layouts/axo-on-discovery-boa"
 4173      652F7362 
 4173      63752F44 
 4173      726F7062 
 4173      6F782F70 
 4174 08e1 72642F61 		.ascii	"rd/axoloti/firmware\000"
 4174      786F6C6F 
 4174      74692F66 
 4174      69726D77 
 4174      61726500 
 4175              	.LASF4:
 4176 08f5 73686F72 		.ascii	"short unsigned int\000"
 4176      7420756E 
 4176      7369676E 
 4176      65642069 
 4176      6E7400
 4177              	.LASF23:
 4178 0908 5F5F6469 		.ascii	"__digits\000"
 4178      67697473 
 4178      00
 4179              	.LASF143:
 4180 0911 61746F69 		.ascii	"atoi\000"
 4180      00
 4181              	.LASF144:
ARM GAS  /tmp/ccMqc7hn.s 			page 81


 4182 0916 61746F6C 		.ascii	"atol\000"
 4182      00
 4183              	.LASF55:
 4184 091b 5F666E74 		.ascii	"_fntypes\000"
 4184      79706573 
 4184      00
 4185              	.LASF62:
 4186 0924 5F73697A 		.ascii	"_size\000"
 4186      6500
 4187              	.LASF25:
 4188 092a 646F7562 		.ascii	"double\000"
 4188      6C6500
 4189              	.LASF27:
 4190 0931 5F6F6666 		.ascii	"_off_t\000"
 4190      5F7400
 4191              	.LASF73:
 4192 0938 5F6E6275 		.ascii	"_nbuf\000"
 4192      6600
 4193              	.LASF81:
 4194 093e 5F756E75 		.ascii	"_unused_rand\000"
 4194      7365645F 
 4194      72616E64 
 4194      00
 4195              	.LASF160:
 4196 094b 626F6F6C 		.ascii	"bool\000"
 4196      00
 4197              	.LASF176:
 4198 0950 46494C45 		.ascii	"FILE\000"
 4198      00
 4199              	.LASF79:
 4200 0955 5F666C61 		.ascii	"_flags2\000"
 4200      67733200 
 4201              	.LASF166:
 4202 095d 54756265 		.ascii	"Tube\000"
 4202      00
 4203              	.LASF56:
 4204 0962 5F69735F 		.ascii	"_is_cxa\000"
 4204      63786100 
 4205              	.LASF130:
 4206 096a 5F736565 		.ascii	"_seed\000"
 4206      6400
 4207              	.LASF70:
 4208 0970 5F736565 		.ascii	"_seek\000"
 4208      6B00
 4209              	.LASF215:
 4210 0976 64656C61 		.ascii	"delay_fractional\000"
 4210      795F6672 
 4210      61637469 
 4210      6F6E616C 
 4210      00
 4211              	.LASF165:
 4212 0987 64656C61 		.ascii	"delay_line_\000"
 4212      795F6C69 
 4212      6E655F00 
 4213              	.LASF106:
 4214 0993 5F737464 		.ascii	"_stderr\000"
 4214      65727200 
ARM GAS  /tmp/ccMqc7hn.s 			page 82


 4215              	.LASF101:
 4216 099b 5F6E6D61 		.ascii	"_nmalloc\000"
 4216      6C6C6F63 
 4216      00
 4217              	.LASF72:
 4218 09a4 5F756275 		.ascii	"_ubuf\000"
 4218      6600
 4219              	.LASF152:
 4220 09aa 71736F72 		.ascii	"qsort\000"
 4220      7400
 4221              		.ident	"GCC: (GNU Tools for ARM Embedded Processors) 4.9.3 20150529 (release) [ARM/embedded-4_9-br
ARM GAS  /tmp/ccMqc7hn.s 			page 83


DEFINED SYMBOLS
                            *ABS*:00000000 tube.cpp
     /tmp/ccMqc7hn.s:20     .text:00000000 $t
     /tmp/ccMqc7hn.s:26     .text:00000000 _ZN8elements4Tube4InitEv
                       .ARM.exidx:00000000 $d
     /tmp/ccMqc7hn.s:57     .text:00000010 _ZN8elements4Tube7ProcessEffffPffj
     /tmp/ccMqc7hn.s:290    .text:00000178 $d
                     .debug_frame:00000010 $d

NO UNDEFINED SYMBOLS
