ARM GAS  /tmp/cct3ncYl.s 			page 1


   1              		.syntax unified
   2              		.cpu cortex-m4
   3              		.eabi_attribute 27, 1
   4              		.eabi_attribute 28, 1
   5              		.fpu fpv4-sp-d16
   6              		.eabi_attribute 20, 1
   7              		.eabi_attribute 21, 1
   8              		.eabi_attribute 23, 3
   9              		.eabi_attribute 24, 1
  10              		.eabi_attribute 25, 1
  11              		.eabi_attribute 26, 1
  12              		.eabi_attribute 30, 2
  13              		.eabi_attribute 34, 1
  14              		.eabi_attribute 18, 4
  15              		.thumb
  16              		.file	"ui.c"
  17              		.text
  18              	.Ltext0:
  19              		.cfi_sections	.debug_frame
  20              		.align	2
  21              		.p2align 4,,15
  22              		.global	AxolotiControlUpdate
  23              		.thumb
  24              		.thumb_func
  25              		.type	AxolotiControlUpdate, %function
  26              	AxolotiControlUpdate:
  27              	.LFB194:
  28              		.file 1 "ui.c"
  29              		.loc 1 395 0
  30              		.cfi_startproc
  31              		@ args = 0, pretend = 0, frame = 0
  32              		@ frame_needed = 0, uses_anonymous_args = 0
  33              		@ link register save eliminated.
  34 0000 7047     		bx	lr
  35              		.cfi_endproc
  36              	.LFE194:
  37              		.size	AxolotiControlUpdate, .-AxolotiControlUpdate
  38 0002 00BF     		.align	2
  39 0004 AFF30080 		.p2align 4,,15
  39      AFF30080 
  39      AFF30080 
  40              		.global	EnterMenuLoadFile
  41              		.thumb
  42              		.thumb_func
  43              		.type	EnterMenuLoadFile, %function
  44              	EnterMenuLoadFile:
  45              	.LFB191:
  46              		.loc 1 293 0
  47              		.cfi_startproc
  48              		@ args = 0, pretend = 0, frame = 24
  49              		@ frame_needed = 0, uses_anonymous_args = 0
  50              		.loc 1 293 0
  51 0010 00B5     		push	{lr}
  52              		.cfi_def_cfa_offset 4
  53              		.cfi_offset 14, -4
  54              		.loc 1 295 0
  55 0012 0D4A     		ldr	r2, .L4
ARM GAS  /tmp/cct3ncYl.s 			page 2


  56 0014 5369     		ldr	r3, [r2, #20]
  57              		.loc 1 294 0
  58 0016 D268     		ldr	r2, [r2, #12]
  59              		.loc 1 293 0
  60 0018 87B0     		sub	sp, sp, #28
  61              		.cfi_def_cfa_offset 32
  62              		.loc 1 295 0
  63 001a 03EB4303 		add	r3, r3, r3, lsl #1
  64              		.loc 1 294 0
  65 001e 02EBC302 		add	r2, r2, r3, lsl #3
  66              	.LVL0:
  67              		.loc 1 297 0
  68 0022 43F63021 		movw	r1, #14896
  69 0026 0023     		movs	r3, #0
  70 0028 0293     		str	r3, [sp, #8]
  71 002a 0393     		str	r3, [sp, #12]
  72 002c 0493     		str	r3, [sp, #16]
  73 002e 0593     		str	r3, [sp, #20]
  74 0030 0191     		str	r1, [sp, #4]
  75              		.loc 1 298 0
  76 0032 9168     		ldr	r1, [r2, #8]
  77 0034 0DF10600 		add	r0, sp, #6
  78 0038 FFF7FEFF 		bl	strcpy
  79              	.LVL1:
  80              		.loc 1 300 0
  81 003c 01A8     		add	r0, sp, #4
  82 003e FFF7FEFF 		bl	LoadPatch
  83              	.LVL2:
  84              		.loc 1 301 0
  85 0042 07B0     		add	sp, sp, #28
  86              		.cfi_def_cfa_offset 4
  87              		@ sp needed
  88 0044 5DF804FB 		ldr	pc, [sp], #4
  89              	.L5:
  90              		.align	2
  91              	.L4:
  92 0048 00000000 		.word	LoadMenu
  93              		.cfi_endproc
  94              	.LFE191:
  95              		.size	EnterMenuLoadFile, .-EnterMenuLoadFile
  96              		.align	2
  97 004c AFF30080 		.p2align 4,,15
  98              		.global	EnterMenuLoad
  99              		.thumb
 100              		.thumb_func
 101              		.type	EnterMenuLoad, %function
 102              	EnterMenuLoad:
 103              	.LFB192:
 104              		.loc 1 303 0
 105              		.cfi_startproc
 106              		@ args = 0, pretend = 0, frame = 72
 107              		@ frame_needed = 0, uses_anonymous_args = 0
 108 0050 2DE9F047 		push	{r4, r5, r6, r7, r8, r9, r10, lr}
 109              		.cfi_def_cfa_offset 32
 110              		.cfi_offset 4, -32
 111              		.cfi_offset 5, -28
 112              		.cfi_offset 6, -24
ARM GAS  /tmp/cct3ncYl.s 			page 3


 113              		.cfi_offset 7, -20
 114              		.cfi_offset 8, -16
 115              		.cfi_offset 9, -12
 116              		.cfi_offset 10, -8
 117              		.cfi_offset 14, -4
 118              		.loc 1 304 0
 119 0054 324D     		ldr	r5, .L20
 120 0056 334B     		ldr	r3, .L20+4
 121 0058 2B60     		str	r3, [r5]
 122              	.LVL3:
 123              		.loc 1 303 0
 124 005a 92B0     		sub	sp, sp, #72
 125              		.cfi_def_cfa_offset 104
 126              		.loc 1 311 0
 127 005c 0023     		movs	r3, #0
 128              		.loc 1 314 0
 129 005e 3249     		ldr	r1, .L20+8
 130              		.loc 1 311 0
 131 0060 0793     		str	r3, [sp, #28]
 132              		.loc 1 314 0
 133 0062 09A8     		add	r0, sp, #36
 134              		.loc 1 312 0
 135 0064 0893     		str	r3, [sp, #32]
 136              		.loc 1 314 0
 137 0066 FFF7FEFF 		bl	f_opendir
 138              	.LVL4:
 139              		.loc 1 315 0
 140 006a 0028     		cmp	r0, #0
 141 006c 55D1     		bne	.L6
 142 006e 2F4E     		ldr	r6, .L20+12
 143              	.LBB43:
 144              	.LBB44:
 145              	.LBB45:
 146              	.LBB46:
 147              		.loc 1 98 0
 148 0070 DFF8CC80 		ldr	r8, .L20+32
 149              	.LBE46:
 150              	.LBE45:
 151              	.LBE44:
 152              	.LBE43:
 153 0074 0446     		mov	r4, r0
 154              	.LBB57:
 155              	.LBB55:
 156              	.LBB51:
 157              	.LBB47:
 158              		.loc 1 95 0
 159 0076 0D27     		movs	r7, #13
 160              	.LVL5:
 161              	.L7:
 162              	.LBE47:
 163              	.LBE51:
 164              	.LBE55:
 165              	.LBE57:
 166              		.loc 1 317 0
 167 0078 09A8     		add	r0, sp, #36
 168 007a 01A9     		add	r1, sp, #4
 169 007c FFF7FEFF 		bl	f_readdir
ARM GAS  /tmp/cct3ncYl.s 			page 4


 170              	.LVL6:
 171              		.loc 1 318 0
 172 0080 0028     		cmp	r0, #0
 173 0082 3DD1     		bne	.L9
 174              		.loc 1 318 0 is_stmt 0 discriminator 1
 175 0084 9DF80D30 		ldrb	r3, [sp, #13]	@ zero_extendqisi2
 176 0088 002B     		cmp	r3, #0
 177 008a 39D0     		beq	.L9
 178              		.loc 1 320 0 is_stmt 1
 179 008c 2E2B     		cmp	r3, #46
 180 008e F3D0     		beq	.L7
 181              		.loc 1 323 0
 182 0090 9DF80C30 		ldrb	r3, [sp, #12]	@ zero_extendqisi2
 183 0094 03F01003 		and	r3, r3, #16
 184              	.LBB58:
 185              		.loc 1 327 0
 186 0098 0DF10D00 		add	r0, sp, #13
 187              	.LVL7:
 188              	.LBE58:
 189              		.loc 1 323 0
 190 009c 03F0FF09 		and	r9, r3, #255
 191 00a0 002B     		cmp	r3, #0
 192 00a2 E9D1     		bne	.L7
 193              	.LBB59:
 194              		.loc 1 327 0
 195 00a4 FFF7FEFF 		bl	strlen
 196              	.LVL8:
 197              		.loc 1 328 0
 198 00a8 12AB     		add	r3, sp, #72
 199 00aa 0344     		add	r3, r3, r0
 200 00ac 13F83F2C 		ldrb	r2, [r3, #-63]	@ zero_extendqisi2
 201 00b0 2E2A     		cmp	r2, #46
 202 00b2 E1D1     		bne	.L7
 203              		.loc 1 328 0 is_stmt 0 discriminator 1
 204 00b4 13F83E2C 		ldrb	r2, [r3, #-62]	@ zero_extendqisi2
 205 00b8 422A     		cmp	r2, #66
 206 00ba DDD1     		bne	.L7
 207              		.loc 1 328 0 discriminator 2
 208 00bc 13F83D2C 		ldrb	r2, [r3, #-61]	@ zero_extendqisi2
 209 00c0 492A     		cmp	r2, #73
 210 00c2 D9D1     		bne	.L7
 211              		.loc 1 329 0 is_stmt 1
 212 00c4 13F83C3C 		ldrb	r3, [r3, #-60]	@ zero_extendqisi2
 213 00c8 4E2B     		cmp	r3, #78
 214 00ca D5D1     		bne	.L7
 215              	.LBB56:
 216              		.loc 1 331 0
 217 00cc 2B68     		ldr	r3, [r5]
 218              	.LVL9:
 219              		.loc 1 332 0
 220 00ce 00F1010A 		add	r10, r0, #1
 221 00d2 5246     		mov	r2, r10
 222 00d4 1846     		mov	r0, r3
 223              	.LVL10:
 224 00d6 0DF10D01 		add	r1, sp, #13
 225              	.LVL11:
 226 00da FFF7FEFF 		bl	memcpy
ARM GAS  /tmp/cct3ncYl.s 			page 5


 227              	.LVL12:
 228              	.LBB52:
 229              	.LBB48:
 230              		.loc 1 95 0
 231 00de 04EB4401 		add	r1, r4, r4, lsl #1
 232              	.LBE48:
 233              	.LBE52:
 234              		.loc 1 332 0
 235 00e2 0346     		mov	r3, r0
 236              		.loc 1 333 0
 237 00e4 2868     		ldr	r0, [r5]
 238              	.LBB53:
 239              	.LBB49:
 240              		.loc 1 95 0
 241 00e6 06F83170 		strb	r7, [r6, r1, lsl #3]
 242 00ea 06EBC102 		add	r2, r6, r1, lsl #3
 243              	.LBE49:
 244              	.LBE53:
 245              		.loc 1 333 0
 246 00ee 5044     		add	r0, r0, r10
 247 00f0 2860     		str	r0, [r5]
 248              	.LVL13:
 249              	.LBB54:
 250              	.LBB50:
 251              		.loc 1 97 0
 252 00f2 9360     		str	r3, [r2, #8]
 253              		.loc 1 96 0
 254 00f4 C2F80490 		str	r9, [r2, #4]
 255              		.loc 1 98 0
 256 00f8 C2F80C80 		str	r8, [r2, #12]
 257              	.LBE50:
 258              	.LBE54:
 259              		.loc 1 335 0
 260 00fc 0134     		adds	r4, r4, #1
 261              	.LVL14:
 262 00fe BBE7     		b	.L7
 263              	.LVL15:
 264              	.L9:
 265              	.LBE56:
 266              	.LBE59:
 267              	.LBB60:
 268              	.LBB61:
 269              		.loc 1 63 0
 270 0100 0B4B     		ldr	r3, .L20+16
 271              	.LBE61:
 272              	.LBE60:
 273              		.loc 1 340 0
 274 0102 0C4A     		ldr	r2, .L20+20
 275              	.LBB63:
 276              	.LBB62:
 277              		.loc 1 64 0
 278 0104 0C4D     		ldr	r5, .L20+24
 279              		.loc 1 65 0
 280 0106 0D48     		ldr	r0, .L20+28
 281              	.LVL16:
 282              		.loc 1 66 0
 283 0108 1C61     		str	r4, [r3, #16]
ARM GAS  /tmp/cct3ncYl.s 			page 6


 284              		.loc 1 67 0
 285 010a 0021     		movs	r1, #0
 286              		.loc 1 63 0
 287 010c 0324     		movs	r4, #3
 288              	.LVL17:
 289              		.loc 1 68 0
 290 010e DE60     		str	r6, [r3, #12]
 291              		.loc 1 63 0
 292 0110 1C70     		strb	r4, [r3]
 293              		.loc 1 64 0
 294 0112 5D60     		str	r5, [r3, #4]
 295              		.loc 1 65 0
 296 0114 9860     		str	r0, [r3, #8]
 297              		.loc 1 67 0
 298 0116 5961     		str	r1, [r3, #20]
 299              	.LBE62:
 300              	.LBE63:
 301              		.loc 1 340 0
 302 0118 1360     		str	r3, [r2]
 303              	.LVL18:
 304              	.L6:
 305              		.loc 1 343 0
 306 011a 12B0     		add	sp, sp, #72
 307              		.cfi_def_cfa_offset 32
 308              		@ sp needed
 309 011c BDE8F087 		pop	{r4, r5, r6, r7, r8, r9, r10, pc}
 310              	.L21:
 311              		.align	2
 312              	.L20:
 313 0120 00000000 		.word	memp
 314 0124 00000000 		.word	fbuff
 315 0128 00000000 		.word	.LC0
 316 012c 00000000 		.word	TmpMenuKvps
 317 0130 00000000 		.word	LoadMenu
 318 0134 00000000 		.word	KvpsDisplay
 319 0138 00000000 		.word	KvpsHead
 320 013c 04000000 		.word	.LC1
 321 0140 00000000 		.word	EnterMenuLoadFile
 322              		.cfi_endproc
 323              	.LFE192:
 324              		.size	EnterMenuLoad, .-EnterMenuLoad
 325              		.align	2
 326 0144 AFF30080 		.p2align 4,,15
 326      AFF30080 
 326      AFF30080 
 327              		.thumb
 328              		.thumb_func
 329              		.type	ThreadUI, %function
 330              	ThreadUI:
 331              	.LFB195:
 332              		.loc 1 401 0
 333              		.cfi_startproc
 334              		@ Volatile: function does not return.
 335              		@ args = 0, pretend = 0, frame = 0
 336              		@ frame_needed = 0, uses_anonymous_args = 0
 337              	.LVL19:
 338 0150 08B5     		push	{r3, lr}
ARM GAS  /tmp/cct3ncYl.s 			page 7


 339              		.cfi_def_cfa_offset 8
 340              		.cfi_offset 3, -8
 341              		.cfi_offset 14, -4
 342              		.loc 1 404 0
 343 0152 084B     		ldr	r3, .L29
 344 0154 084A     		ldr	r2, .L29+4
 345 0156 9B69     		ldr	r3, [r3, #24]
 346 0158 084C     		ldr	r4, .L29+8
 347 015a 9A61     		str	r2, [r3, #24]
 348              	.LVL20:
 349              	.L24:
 350              		.loc 1 408 0
 351 015c FFF7FEFF 		bl	PExTransmit
 352              	.LVL21:
 353              		.loc 1 409 0
 354 0160 FFF7FEFF 		bl	PExReceive
 355              	.LVL22:
 356              		.loc 1 410 0
 357 0164 2368     		ldr	r3, [r4]
 358 0166 03B1     		cbz	r3, .L23
 359              		.loc 1 411 0
 360 0168 9847     		blx	r3
 361              	.LVL23:
 362              	.L23:
 363              		.loc 1 413 0
 364 016a 0220     		movs	r0, #2
 365 016c FFF7FEFF 		bl	chThdSleep
 366              	.LVL24:
 367              		.loc 1 414 0
 368 0170 F4E7     		b	.L24
 369              	.L30:
 370 0172 00BF     		.align	2
 371              	.L29:
 372 0174 00000000 		.word	rlist
 373 0178 0C000000 		.word	.LC2
 374 017c 00000000 		.word	.LANCHOR0
 375              		.cfi_endproc
 376              	.LFE195:
 377              		.size	ThreadUI, .-ThreadUI
 378              		.align	2
 379              		.p2align 4,,15
 380              		.global	EnterMenuFormat
 381              		.thumb
 382              		.thumb_func
 383              		.type	EnterMenuFormat, %function
 384              	EnterMenuFormat:
 385              	.LFB193:
 386              		.loc 1 345 0
 387              		.cfi_startproc
 388              		@ args = 0, pretend = 0, frame = 0
 389              		@ frame_needed = 0, uses_anonymous_args = 0
 390              		.loc 1 347 0
 391 0180 0020     		movs	r0, #0
 392              		.loc 1 345 0
 393 0182 38B5     		push	{r3, r4, r5, lr}
 394              		.cfi_def_cfa_offset 16
 395              		.cfi_offset 3, -16
ARM GAS  /tmp/cct3ncYl.s 			page 8


 396              		.cfi_offset 4, -12
 397              		.cfi_offset 5, -8
 398              		.cfi_offset 14, -4
 399              		.loc 1 347 0
 400 0184 0146     		mov	r1, r0
 401 0186 0246     		mov	r2, r0
 402 0188 FFF7FEFF 		bl	f_mkfs
 403              	.LVL25:
 404              	.LBB72:
 405              	.LBB73:
 406              	.LBB74:
 407              	.LBB75:
 408              		.loc 1 63 0
 409 018c 0D4B     		ldr	r3, .L36
 410              	.LBE75:
 411              	.LBE74:
 412              	.LBE73:
 413              	.LBE72:
 414              		.loc 1 348 0
 415 018e 58B9     		cbnz	r0, .L35
 416              	.LVL26:
 417              		.loc 1 354 0
 418 0190 0D4A     		ldr	r2, .L36+4
 419              	.LBB81:
 420              	.LBB82:
 421              		.loc 1 64 0
 422 0192 0E4C     		ldr	r4, .L36+8
 423              		.loc 1 65 0
 424 0194 0E49     		ldr	r1, .L36+12
 425              		.loc 1 66 0
 426 0196 1861     		str	r0, [r3, #16]
 427              		.loc 1 63 0
 428 0198 0325     		movs	r5, #3
 429              		.loc 1 67 0
 430 019a 5861     		str	r0, [r3, #20]
 431              		.loc 1 68 0
 432 019c D860     		str	r0, [r3, #12]
 433              		.loc 1 63 0
 434 019e 1D70     		strb	r5, [r3]
 435              		.loc 1 64 0
 436 01a0 5C60     		str	r4, [r3, #4]
 437              		.loc 1 65 0
 438 01a2 9960     		str	r1, [r3, #8]
 439              	.LBE82:
 440              	.LBE81:
 441              		.loc 1 354 0
 442 01a4 1360     		str	r3, [r2]
 443 01a6 38BD     		pop	{r3, r4, r5, pc}
 444              	.LVL27:
 445              	.L35:
 446              	.LBB83:
 447              	.LBB80:
 448              	.LBB78:
 449              	.LBB76:
 450              		.loc 1 64 0
 451 01a8 084A     		ldr	r2, .L36+8
 452              	.LBE76:
ARM GAS  /tmp/cct3ncYl.s 			page 9


 453              	.LBE78:
 454              		.loc 1 350 0
 455 01aa 0749     		ldr	r1, .L36+4
 456              	.LBB79:
 457              	.LBB77:
 458              		.loc 1 64 0
 459 01ac 5A60     		str	r2, [r3, #4]
 460              		.loc 1 66 0
 461 01ae 0022     		movs	r2, #0
 462              		.loc 1 65 0
 463 01b0 0848     		ldr	r0, .L36+16
 464              	.LVL28:
 465              		.loc 1 66 0
 466 01b2 1A61     		str	r2, [r3, #16]
 467              		.loc 1 63 0
 468 01b4 0324     		movs	r4, #3
 469              		.loc 1 67 0
 470 01b6 5A61     		str	r2, [r3, #20]
 471              		.loc 1 68 0
 472 01b8 DA60     		str	r2, [r3, #12]
 473              		.loc 1 63 0
 474 01ba 1C70     		strb	r4, [r3]
 475              		.loc 1 65 0
 476 01bc 9860     		str	r0, [r3, #8]
 477              	.LBE77:
 478              	.LBE79:
 479              		.loc 1 350 0
 480 01be 0B60     		str	r3, [r1]
 481 01c0 38BD     		pop	{r3, r4, r5, pc}
 482              	.L37:
 483 01c2 00BF     		.align	2
 484              	.L36:
 485 01c4 00000000 		.word	TmpMenuKvps
 486 01c8 00000000 		.word	KvpsDisplay
 487 01cc 00000000 		.word	KvpsHead
 488 01d0 20000000 		.word	.LC4
 489 01d4 10000000 		.word	.LC3
 490              	.LBE80:
 491              	.LBE83:
 492              		.cfi_endproc
 493              	.LFE193:
 494              		.size	EnterMenuFormat, .-EnterMenuFormat
 495              		.align	2
 496 01d8 AFF30080 		.p2align 4,,15
 496      AFF30080 
 497              		.global	SetKVP_APVP
 498              		.thumb
 499              		.thumb_func
 500              		.type	SetKVP_APVP, %function
 501              	SetKVP_APVP:
 502              	.LFB179:
 503              		.loc 1 52 0
 504              		.cfi_startproc
 505              		@ args = 4, pretend = 0, frame = 0
 506              		@ frame_needed = 0, uses_anonymous_args = 0
 507              		@ link register save eliminated.
 508              	.LVL29:
ARM GAS  /tmp/cct3ncYl.s 			page 10


 509 01e0 70B4     		push	{r4, r5, r6}
 510              		.cfi_def_cfa_offset 12
 511              		.cfi_offset 4, -12
 512              		.cfi_offset 5, -8
 513              		.cfi_offset 6, -4
 514              		.loc 1 52 0
 515 01e2 039C     		ldr	r4, [sp, #12]
 516              		.loc 1 58 0
 517 01e4 C460     		str	r4, [r0, #12]
 518              		.loc 1 53 0
 519 01e6 0526     		movs	r6, #5
 520              		.loc 1 57 0
 521 01e8 0025     		movs	r5, #0
 522              		.loc 1 53 0
 523 01ea 0670     		strb	r6, [r0]
 524              		.loc 1 57 0
 525 01ec 4561     		str	r5, [r0, #20]
 526              		.loc 1 54 0
 527 01ee 4160     		str	r1, [r0, #4]
 528              		.loc 1 55 0
 529 01f0 8260     		str	r2, [r0, #8]
 530              		.loc 1 56 0
 531 01f2 0361     		str	r3, [r0, #16]
 532              		.loc 1 59 0
 533 01f4 70BC     		pop	{r4, r5, r6}
 534              		.cfi_restore 6
 535              		.cfi_restore 5
 536              		.cfi_restore 4
 537              		.cfi_def_cfa_offset 0
 538              	.LVL30:
 539 01f6 7047     		bx	lr
 540              		.cfi_endproc
 541              	.LFE179:
 542              		.size	SetKVP_APVP, .-SetKVP_APVP
 543              		.align	2
 544 01f8 AFF30080 		.p2align 4,,15
 544      AFF30080 
 545              		.global	SetKVP_AVP
 546              		.thumb
 547              		.thumb_func
 548              		.type	SetKVP_AVP, %function
 549              	SetKVP_AVP:
 550              	.LFB180:
 551              		.loc 1 62 0
 552              		.cfi_startproc
 553              		@ args = 4, pretend = 0, frame = 0
 554              		@ frame_needed = 0, uses_anonymous_args = 0
 555              		@ link register save eliminated.
 556              	.LVL31:
 557 0200 70B4     		push	{r4, r5, r6}
 558              		.cfi_def_cfa_offset 12
 559              		.cfi_offset 4, -12
 560              		.cfi_offset 5, -8
 561              		.cfi_offset 6, -4
 562              		.loc 1 62 0
 563 0202 039C     		ldr	r4, [sp, #12]
 564              		.loc 1 68 0
ARM GAS  /tmp/cct3ncYl.s 			page 11


 565 0204 C460     		str	r4, [r0, #12]
 566              		.loc 1 63 0
 567 0206 0326     		movs	r6, #3
 568              		.loc 1 67 0
 569 0208 0025     		movs	r5, #0
 570              		.loc 1 63 0
 571 020a 0670     		strb	r6, [r0]
 572              		.loc 1 67 0
 573 020c 4561     		str	r5, [r0, #20]
 574              		.loc 1 64 0
 575 020e 4160     		str	r1, [r0, #4]
 576              		.loc 1 65 0
 577 0210 8260     		str	r2, [r0, #8]
 578              		.loc 1 66 0
 579 0212 0361     		str	r3, [r0, #16]
 580              		.loc 1 69 0
 581 0214 70BC     		pop	{r4, r5, r6}
 582              		.cfi_restore 6
 583              		.cfi_restore 5
 584              		.cfi_restore 4
 585              		.cfi_def_cfa_offset 0
 586              	.LVL32:
 587 0216 7047     		bx	lr
 588              		.cfi_endproc
 589              	.LFE180:
 590              		.size	SetKVP_AVP, .-SetKVP_AVP
 591              		.align	2
 592 0218 AFF30080 		.p2align 4,,15
 592      AFF30080 
 593              		.global	SetKVP_IVP
 594              		.thumb
 595              		.thumb_func
 596              		.type	SetKVP_IVP, %function
 597              	SetKVP_IVP:
 598              	.LFB181:
 599              		.loc 1 72 0
 600              		.cfi_startproc
 601              		@ args = 8, pretend = 0, frame = 0
 602              		@ frame_needed = 0, uses_anonymous_args = 0
 603              		@ link register save eliminated.
 604              	.LVL33:
 605 0220 70B4     		push	{r4, r5, r6}
 606              		.cfi_def_cfa_offset 12
 607              		.cfi_offset 4, -12
 608              		.cfi_offset 5, -8
 609              		.cfi_offset 6, -4
 610              		.loc 1 72 0
 611 0222 039D     		ldr	r5, [sp, #12]
 612 0224 049C     		ldr	r4, [sp, #16]
 613              		.loc 1 77 0
 614 0226 0561     		str	r5, [r0, #16]
 615              		.loc 1 73 0
 616 0228 0026     		movs	r6, #0
 617 022a 0670     		strb	r6, [r0]
 618              		.loc 1 78 0
 619 022c 4461     		str	r4, [r0, #20]
 620              		.loc 1 74 0
ARM GAS  /tmp/cct3ncYl.s 			page 12


 621 022e 4160     		str	r1, [r0, #4]
 622              		.loc 1 75 0
 623 0230 8260     		str	r2, [r0, #8]
 624              		.loc 1 76 0
 625 0232 C360     		str	r3, [r0, #12]
 626              		.loc 1 79 0
 627 0234 70BC     		pop	{r4, r5, r6}
 628              		.cfi_restore 6
 629              		.cfi_restore 5
 630              		.cfi_restore 4
 631              		.cfi_def_cfa_offset 0
 632              	.LVL34:
 633 0236 7047     		bx	lr
 634              		.cfi_endproc
 635              	.LFE181:
 636              		.size	SetKVP_IVP, .-SetKVP_IVP
 637              		.align	2
 638 0238 AFF30080 		.p2align 4,,15
 638      AFF30080 
 639              		.global	SetKVP_IPVP
 640              		.thumb
 641              		.thumb_func
 642              		.type	SetKVP_IPVP, %function
 643              	SetKVP_IPVP:
 644              	.LFB182:
 645              		.loc 1 83 0
 646              		.cfi_startproc
 647              		@ args = 8, pretend = 0, frame = 0
 648              		@ frame_needed = 0, uses_anonymous_args = 0
 649              		@ link register save eliminated.
 650              	.LVL35:
 651 0240 F0B4     		push	{r4, r5, r6, r7}
 652              		.cfi_def_cfa_offset 16
 653              		.cfi_offset 4, -16
 654              		.cfi_offset 5, -12
 655              		.cfi_offset 6, -8
 656              		.cfi_offset 7, -4
 657              		.loc 1 83 0
 658 0242 049D     		ldr	r5, [sp, #16]
 659 0244 059C     		ldr	r4, [sp, #20]
 660              		.loc 1 84 0
 661 0246 0F27     		movs	r7, #15
 662              		.loc 1 85 0
 663 0248 0B26     		movs	r6, #11
 664              		.loc 1 84 0
 665 024a 1F61     		str	r7, [r3, #16]
 666              		.loc 1 85 0
 667 024c 0670     		strb	r6, [r0]
 668              		.loc 1 89 0
 669 024e 0561     		str	r5, [r0, #16]
 670              		.loc 1 90 0
 671 0250 4461     		str	r4, [r0, #20]
 672              		.loc 1 86 0
 673 0252 4160     		str	r1, [r0, #4]
 674              		.loc 1 87 0
 675 0254 8260     		str	r2, [r0, #8]
 676              		.loc 1 88 0
ARM GAS  /tmp/cct3ncYl.s 			page 13


 677 0256 C360     		str	r3, [r0, #12]
 678              		.loc 1 91 0
 679 0258 F0BC     		pop	{r4, r5, r6, r7}
 680              		.cfi_restore 7
 681              		.cfi_restore 6
 682              		.cfi_restore 5
 683              		.cfi_restore 4
 684              		.cfi_def_cfa_offset 0
 685              	.LVL36:
 686 025a 7047     		bx	lr
 687              		.cfi_endproc
 688              	.LFE182:
 689              		.size	SetKVP_IPVP, .-SetKVP_IPVP
 690              		.align	2
 691 025c AFF30080 		.p2align 4,,15
 692              		.global	SetKVP_FNCTN
 693              		.thumb
 694              		.thumb_func
 695              		.type	SetKVP_FNCTN, %function
 696              	SetKVP_FNCTN:
 697              	.LFB183:
 698              		.loc 1 94 0
 699              		.cfi_startproc
 700              		@ args = 0, pretend = 0, frame = 0
 701              		@ frame_needed = 0, uses_anonymous_args = 0
 702              		@ link register save eliminated.
 703              	.LVL37:
 704 0260 10B4     		push	{r4}
 705              		.cfi_def_cfa_offset 4
 706              		.cfi_offset 4, -4
 707              		.loc 1 95 0
 708 0262 0D24     		movs	r4, #13
 709 0264 0470     		strb	r4, [r0]
 710              		.loc 1 96 0
 711 0266 4160     		str	r1, [r0, #4]
 712              		.loc 1 97 0
 713 0268 8260     		str	r2, [r0, #8]
 714              		.loc 1 98 0
 715 026a C360     		str	r3, [r0, #12]
 716              		.loc 1 99 0
 717 026c 5DF8044B 		ldr	r4, [sp], #4
 718              		.cfi_restore 4
 719              		.cfi_def_cfa_offset 0
 720 0270 7047     		bx	lr
 721              		.cfi_endproc
 722              	.LFE183:
 723              		.size	SetKVP_FNCTN, .-SetKVP_FNCTN
 724 0272 00BF     		.align	2
 725 0274 AFF30080 		.p2align 4,,15
 725      AFF30080 
 725      AFF30080 
 726              		.global	KVP_Increment
 727              		.thumb
 728              		.thumb_func
 729              		.type	KVP_Increment, %function
 730              	KVP_Increment:
 731              	.LFB184:
ARM GAS  /tmp/cct3ncYl.s 			page 14


 732              		.loc 1 101 0
 733              		.cfi_startproc
 734              		@ args = 0, pretend = 0, frame = 0
 735              		@ frame_needed = 0, uses_anonymous_args = 0
 736              		@ link register save eliminated.
 737              	.LVL38:
 738              		.loc 1 102 0
 739 0280 0378     		ldrb	r3, [r0]	@ zero_extendqisi2
 740 0282 0C2B     		cmp	r3, #12
 741 0284 0DD8     		bhi	.L48
 742 0286 DFE803F0 		tbb	[pc, r3]
 743              	.L51:
 744 028a 21       		.byte	(.L50-.L51)/2
 745 028b 0C       		.byte	(.L48-.L51)/2
 746 028c 0C       		.byte	(.L48-.L51)/2
 747 028d 07       		.byte	(.L53-.L51)/2
 748 028e 0C       		.byte	(.L48-.L51)/2
 749 028f 07       		.byte	(.L53-.L51)/2
 750 0290 0C       		.byte	(.L48-.L51)/2
 751 0291 0C       		.byte	(.L48-.L51)/2
 752 0292 0C       		.byte	(.L48-.L51)/2
 753 0293 0C       		.byte	(.L48-.L51)/2
 754 0294 0C       		.byte	(.L48-.L51)/2
 755 0295 15       		.byte	(.L54-.L51)/2
 756 0296 0D       		.byte	(.L55-.L51)/2
 757 0297 00       		.p2align 1
 758              	.L53:
 759              		.loc 1 112 0
 760 0298 0369     		ldr	r3, [r0, #16]
 761 029a 4269     		ldr	r2, [r0, #20]
 762 029c 013B     		subs	r3, r3, #1
 763 029e 9A42     		cmp	r2, r3
 764 02a0 1CDB     		blt	.L59
 765              	.L48:
 766 02a2 7047     		bx	lr
 767              	.L55:
 768              		.loc 1 116 0
 769 02a4 C268     		ldr	r2, [r0, #12]
 770 02a6 4169     		ldr	r1, [r0, #20]
 771 02a8 1378     		ldrb	r3, [r2]	@ zero_extendqisi2
 772 02aa 8B42     		cmp	r3, r1
 773 02ac F9DA     		bge	.L48
 774              		.loc 1 117 0
 775 02ae 0133     		adds	r3, r3, #1
 776 02b0 1370     		strb	r3, [r2]
 777 02b2 7047     		bx	lr
 778              	.L54:
 779              	.LBB84:
 780              		.loc 1 120 0
 781 02b4 C268     		ldr	r2, [r0, #12]
 782              		.loc 1 121 0
 783 02b6 4169     		ldr	r1, [r0, #20]
 784              		.loc 1 120 0
 785 02b8 1368     		ldr	r3, [r2]
 786 02ba 03F58013 		add	r3, r3, #1048576
 787              	.LVL39:
 788              		.loc 1 121 0
ARM GAS  /tmp/cct3ncYl.s 			page 15


 789 02be 8B42     		cmp	r3, r1
 790              		.loc 1 122 0
 791 02c0 1046     		mov	r0, r2
 792              	.LVL40:
 793              		.loc 1 121 0
 794 02c2 0EDB     		blt	.L60
 795              		.loc 1 125 0
 796 02c4 6FF01802 		mvn	r2, #24
 797 02c8 FFF7FEBF 		b	PExParameterChange
 798              	.LVL41:
 799              	.L50:
 800              	.LBE84:
 801              		.loc 1 104 0
 802 02cc C268     		ldr	r2, [r0, #12]
 803 02ce 4169     		ldr	r1, [r0, #20]
 804 02d0 1368     		ldr	r3, [r2]
 805 02d2 8B42     		cmp	r3, r1
 806 02d4 E5DA     		bge	.L48
 807              		.loc 1 105 0
 808 02d6 0133     		adds	r3, r3, #1
 809 02d8 1360     		str	r3, [r2]
 810 02da 7047     		bx	lr
 811              	.L59:
 812              		.loc 1 113 0
 813 02dc 0132     		adds	r2, r2, #1
 814 02de 4261     		str	r2, [r0, #20]
 815 02e0 7047     		bx	lr
 816              	.LVL42:
 817              	.L60:
 818              	.LBB85:
 819              		.loc 1 122 0
 820 02e2 1946     		mov	r1, r3
 821 02e4 6FF01802 		mvn	r2, #24
 822 02e8 FFF7FEBF 		b	PExParameterChange
 823              	.LVL43:
 824              	.LBE85:
 825              		.cfi_endproc
 826              	.LFE184:
 827              		.size	KVP_Increment, .-KVP_Increment
 828              		.align	2
 829 02ec AFF30080 		.p2align 4,,15
 830              		.global	KVP_Decrement
 831              		.thumb
 832              		.thumb_func
 833              		.type	KVP_Decrement, %function
 834              	KVP_Decrement:
 835              	.LFB185:
 836              		.loc 1 134 0
 837              		.cfi_startproc
 838              		@ args = 0, pretend = 0, frame = 0
 839              		@ frame_needed = 0, uses_anonymous_args = 0
 840              		@ link register save eliminated.
 841              	.LVL44:
 842              		.loc 1 135 0
 843 02f0 0378     		ldrb	r3, [r0]	@ zero_extendqisi2
 844 02f2 0C2B     		cmp	r3, #12
 845 02f4 08D8     		bhi	.L61
ARM GAS  /tmp/cct3ncYl.s 			page 16


 846 02f6 DFE803F0 		tbb	[pc, r3]
 847              	.L64:
 848 02fa 22       		.byte	(.L63-.L64)/2
 849 02fb 07       		.byte	(.L61-.L64)/2
 850 02fc 07       		.byte	(.L61-.L64)/2
 851 02fd 08       		.byte	(.L66-.L64)/2
 852 02fe 07       		.byte	(.L61-.L64)/2
 853 02ff 08       		.byte	(.L66-.L64)/2
 854 0300 07       		.byte	(.L61-.L64)/2
 855 0301 07       		.byte	(.L61-.L64)/2
 856 0302 07       		.byte	(.L61-.L64)/2
 857 0303 07       		.byte	(.L61-.L64)/2
 858 0304 07       		.byte	(.L61-.L64)/2
 859 0305 16       		.byte	(.L67-.L64)/2
 860 0306 0E       		.byte	(.L68-.L64)/2
 861 0307 00       		.p2align 1
 862              	.L61:
 863 0308 7047     		bx	lr
 864              	.L66:
 865              		.loc 1 145 0
 866 030a 4369     		ldr	r3, [r0, #20]
 867 030c 002B     		cmp	r3, #0
 868 030e FBDD     		ble	.L61
 869              		.loc 1 146 0
 870 0310 013B     		subs	r3, r3, #1
 871 0312 4361     		str	r3, [r0, #20]
 872 0314 7047     		bx	lr
 873              	.L68:
 874              		.loc 1 149 0
 875 0316 C268     		ldr	r2, [r0, #12]
 876 0318 0169     		ldr	r1, [r0, #16]
 877 031a 1378     		ldrb	r3, [r2]	@ zero_extendqisi2
 878 031c 8B42     		cmp	r3, r1
 879 031e F3DD     		ble	.L61
 880              		.loc 1 150 0
 881 0320 013B     		subs	r3, r3, #1
 882 0322 1370     		strb	r3, [r2]
 883 0324 7047     		bx	lr
 884              	.L67:
 885              	.LBB86:
 886              		.loc 1 153 0
 887 0326 C268     		ldr	r2, [r0, #12]
 888              		.loc 1 154 0
 889 0328 0169     		ldr	r1, [r0, #16]
 890              		.loc 1 153 0
 891 032a 1368     		ldr	r3, [r2]
 892 032c A3F58013 		sub	r3, r3, #1048576
 893              	.LVL45:
 894              		.loc 1 154 0
 895 0330 8B42     		cmp	r3, r1
 896              		.loc 1 155 0
 897 0332 1046     		mov	r0, r2
 898              	.LVL46:
 899              		.loc 1 154 0
 900 0334 0BDC     		bgt	.L72
 901              		.loc 1 158 0
 902 0336 6FF01802 		mvn	r2, #24
ARM GAS  /tmp/cct3ncYl.s 			page 17


 903 033a FFF7FEBF 		b	PExParameterChange
 904              	.LVL47:
 905              	.L63:
 906              	.LBE86:
 907              		.loc 1 137 0
 908 033e C268     		ldr	r2, [r0, #12]
 909 0340 0169     		ldr	r1, [r0, #16]
 910 0342 1368     		ldr	r3, [r2]
 911 0344 8B42     		cmp	r3, r1
 912 0346 DFDD     		ble	.L61
 913              		.loc 1 138 0
 914 0348 013B     		subs	r3, r3, #1
 915 034a 1360     		str	r3, [r2]
 916 034c 7047     		bx	lr
 917              	.LVL48:
 918              	.L72:
 919              	.LBB87:
 920              		.loc 1 155 0
 921 034e 1946     		mov	r1, r3
 922 0350 6FF01802 		mvn	r2, #24
 923 0354 FFF7FEBF 		b	PExParameterChange
 924              	.LVL49:
 925              	.LBE87:
 926              		.cfi_endproc
 927              	.LFE185:
 928              		.size	KVP_Decrement, .-KVP_Decrement
 929              		.align	2
 930 0358 AFF30080 		.p2align 4,,15
 930      AFF30080 
 931              		.global	k_scope_DisplayFunction
 932              		.thumb
 933              		.thumb_func
 934              		.type	k_scope_DisplayFunction, %function
 935              	k_scope_DisplayFunction:
 936              	.LFB186:
 937              		.loc 1 167 0
 938              		.cfi_startproc
 939              		@ args = 0, pretend = 0, frame = 0
 940              		@ frame_needed = 0, uses_anonymous_args = 0
 941              	.LVL50:
 942 0360 70B5     		push	{r4, r5, r6, lr}
 943              		.cfi_def_cfa_offset 16
 944              		.cfi_offset 4, -16
 945              		.cfi_offset 5, -12
 946              		.cfi_offset 6, -8
 947              		.cfi_offset 14, -4
 948              		.loc 1 167 0
 949 0362 0646     		mov	r6, r0
 950              		.loc 1 170 0
 951 0364 FFF7FEFF 		bl	LCD_clearDisplay
 952              	.LVL51:
 953              		.loc 1 171 0
 954 0368 0024     		movs	r4, #0
 955              	.LVL52:
 956              	.L74:
 957              		.loc 1 172 0 discriminator 3
 958 036a 2146     		mov	r1, r4
ARM GAS  /tmp/cct3ncYl.s 			page 18


 959 036c 0E20     		movs	r0, #14
 960              		.loc 1 171 0 discriminator 3
 961 036e 0134     		adds	r4, r4, #1
 962              	.LVL53:
 963              		.loc 1 172 0 discriminator 3
 964 0370 FFF7FEFF 		bl	LCD_setPixel
 965              	.LVL54:
 966              		.loc 1 171 0 discriminator 3
 967 0374 302C     		cmp	r4, #48
 968 0376 F8D1     		bne	.L74
 969              		.loc 1 174 0
 970 0378 0520     		movs	r0, #5
 971 037a 0021     		movs	r1, #0
 972 037c 264A     		ldr	r2, .L85
 973 037e FFF7FEFF 		bl	LCD_drawString
 974              	.LVL55:
 975              		.loc 1 175 0
 976 0382 0520     		movs	r0, #5
 977 0384 0221     		movs	r1, #2
 978 0386 254A     		ldr	r2, .L85+4
 979 0388 FFF7FEFF 		bl	LCD_drawString
 980              	.LVL56:
 981              		.loc 1 176 0
 982 038c 244A     		ldr	r2, .L85+8
 983 038e 0020     		movs	r0, #0
 984 0390 0421     		movs	r1, #4
 985 0392 FFF7FEFF 		bl	LCD_drawString
 986              	.LVL57:
 987              		.loc 1 177 0
 988 0396 0D20     		movs	r0, #13
 989 0398 1521     		movs	r1, #21
 990 039a FFF7FEFF 		bl	LCD_setPixel
 991              	.LVL58:
 992              		.loc 1 178 0
 993 039e 0C20     		movs	r0, #12
 994 03a0 1521     		movs	r1, #21
 995 03a2 FFF7FEFF 		bl	LCD_setPixel
 996              	.LVL59:
 997              		.loc 1 179 0
 998 03a6 0D20     		movs	r0, #13
 999 03a8 2521     		movs	r1, #37
 1000 03aa FFF7FEFF 		bl	LCD_setPixel
 1001              	.LVL60:
 1002              		.loc 1 180 0
 1003 03ae 0C20     		movs	r0, #12
 1004 03b0 2521     		movs	r1, #37
 1005 03b2 FFF7FEFF 		bl	LCD_setPixel
 1006              	.LVL61:
 1007              		.loc 1 181 0
 1008 03b6 0D20     		movs	r0, #13
 1009 03b8 0521     		movs	r1, #5
 1010 03ba FFF7FEFF 		bl	LCD_setPixel
 1011              	.LVL62:
 1012              		.loc 1 182 0
 1013 03be 0C20     		movs	r0, #12
 1014 03c0 0521     		movs	r1, #5
 1015 03c2 FFF7FEFF 		bl	LCD_setPixel
ARM GAS  /tmp/cct3ncYl.s 			page 19


 1016              	.LVL63:
 1017              		.loc 1 183 0
 1018 03c6 0020     		movs	r0, #0
 1019 03c8 0521     		movs	r1, #5
 1020 03ca 164A     		ldr	r2, .L85+12
 1021 03cc FFF7FEFF 		bl	LCD_drawStringInv
 1022              	.LVL64:
 1023              		.loc 1 184 0
 1024 03d0 3A20     		movs	r0, #58
 1025 03d2 0521     		movs	r1, #5
 1026 03d4 144A     		ldr	r2, .L85+16
 1027 03d6 351F     		subs	r5, r6, #4
 1028 03d8 FFF7FEFF 		bl	LCD_drawStringInv
 1029              	.LVL65:
 1030 03dc FC36     		adds	r6, r6, #252
 1031              	.LVL66:
 1032 03de 0F24     		movs	r4, #15
 1033 03e0 09E0     		b	.L77
 1034              	.LVL67:
 1035              	.L84:
 1036              	.LBB88:
 1037              		.loc 1 191 0
 1038 03e2 2F29     		cmp	r1, #47
 1039 03e4 A8BF     		it	ge
 1040 03e6 2F21     		movge	r1, #47
 1041              	.LVL68:
 1042              		.loc 1 192 0
 1043 03e8 2046     		mov	r0, r4
 1044 03ea FFF7FEFF 		bl	LCD_setPixel
 1045              	.LVL69:
 1046              	.LBE88:
 1047              		.loc 1 185 0
 1048 03ee B542     		cmp	r5, r6
 1049 03f0 04F10104 		add	r4, r4, #1
 1050              	.LVL70:
 1051 03f4 0ED0     		beq	.L83
 1052              	.LVL71:
 1053              	.L77:
 1054              	.LBB89:
 1055              		.loc 1 187 0
 1056 03f6 55F8041F 		ldr	r1, [r5, #4]!
 1057              	.LVL72:
 1058 03fa C915     		asrs	r1, r1, #23
 1059 03fc C1F11501 		rsb	r1, r1, #21
 1060              	.LVL73:
 1061              		.loc 1 188 0
 1062 0400 0029     		cmp	r1, #0
 1063 0402 EEDC     		bgt	.L84
 1064              		.loc 1 192 0
 1065 0404 2046     		mov	r0, r4
 1066              		.loc 1 189 0
 1067 0406 0121     		movs	r1, #1
 1068              	.LVL74:
 1069              		.loc 1 192 0
 1070 0408 FFF7FEFF 		bl	LCD_setPixel
 1071              	.LVL75:
 1072              	.LBE89:
ARM GAS  /tmp/cct3ncYl.s 			page 20


 1073              		.loc 1 185 0
 1074 040c B542     		cmp	r5, r6
 1075 040e 04F10104 		add	r4, r4, #1
 1076              	.LVL76:
 1077 0412 F0D1     		bne	.L77
 1078              	.LVL77:
 1079              	.L83:
 1080              		.loc 1 194 0
 1081 0414 70BD     		pop	{r4, r5, r6, pc}
 1082              	.LVL78:
 1083              	.L86:
 1084 0416 00BF     		.align	2
 1085              	.L85:
 1086 0418 2C000000 		.word	.LC5
 1087 041c 30000000 		.word	.LC6
 1088 0420 34000000 		.word	.LC7
 1089 0424 38000000 		.word	.LC8
 1090 0428 40000000 		.word	.LC9
 1091              		.cfi_endproc
 1092              	.LFE186:
 1093              		.size	k_scope_DisplayFunction, .-k_scope_DisplayFunction
 1094              		.align	2
 1095 042c AFF30080 		.p2align 4,,15
 1096              		.global	k_scope_DisplayFunction2
 1097              		.thumb
 1098              		.thumb_func
 1099              		.type	k_scope_DisplayFunction2, %function
 1100              	k_scope_DisplayFunction2:
 1101              	.LFB187:
 1102              		.loc 1 196 0
 1103              		.cfi_startproc
 1104              		@ args = 0, pretend = 0, frame = 0
 1105              		@ frame_needed = 0, uses_anonymous_args = 0
 1106              	.LVL79:
 1107 0430 2DE9F843 		push	{r3, r4, r5, r6, r7, r8, r9, lr}
 1108              		.cfi_def_cfa_offset 32
 1109              		.cfi_offset 3, -32
 1110              		.cfi_offset 4, -28
 1111              		.cfi_offset 5, -24
 1112              		.cfi_offset 6, -20
 1113              		.cfi_offset 7, -16
 1114              		.cfi_offset 8, -12
 1115              		.cfi_offset 9, -8
 1116              		.cfi_offset 14, -4
 1117              		.loc 1 196 0
 1118 0434 8146     		mov	r9, r0
 1119              		.loc 1 199 0
 1120 0436 FFF7FEFF 		bl	LCD_clearDisplay
 1121              	.LVL80:
 1122              		.loc 1 200 0
 1123 043a 0024     		movs	r4, #0
 1124              	.LVL81:
 1125              	.L88:
 1126              		.loc 1 201 0 discriminator 3
 1127 043c 2146     		mov	r1, r4
 1128 043e 0E20     		movs	r0, #14
 1129              		.loc 1 200 0 discriminator 3
ARM GAS  /tmp/cct3ncYl.s 			page 21


 1130 0440 0134     		adds	r4, r4, #1
 1131              	.LVL82:
 1132              		.loc 1 201 0 discriminator 3
 1133 0442 FFF7FEFF 		bl	LCD_setPixel
 1134              	.LVL83:
 1135              		.loc 1 200 0 discriminator 3
 1136 0446 302C     		cmp	r4, #48
 1137 0448 F8D1     		bne	.L88
 1138              		.loc 1 203 0
 1139 044a 0520     		movs	r0, #5
 1140 044c 0021     		movs	r1, #0
 1141 044e 334A     		ldr	r2, .L105
 1142 0450 FFF7FEFF 		bl	LCD_drawString
 1143              	.LVL84:
 1144              		.loc 1 204 0
 1145 0454 0520     		movs	r0, #5
 1146 0456 0221     		movs	r1, #2
 1147 0458 314A     		ldr	r2, .L105+4
 1148 045a FFF7FEFF 		bl	LCD_drawString
 1149              	.LVL85:
 1150              		.loc 1 205 0
 1151 045e 314A     		ldr	r2, .L105+8
 1152 0460 0020     		movs	r0, #0
 1153 0462 0421     		movs	r1, #4
 1154 0464 FFF7FEFF 		bl	LCD_drawString
 1155              	.LVL86:
 1156              		.loc 1 206 0
 1157 0468 0D20     		movs	r0, #13
 1158 046a 1521     		movs	r1, #21
 1159 046c FFF7FEFF 		bl	LCD_setPixel
 1160              	.LVL87:
 1161              		.loc 1 207 0
 1162 0470 0C20     		movs	r0, #12
 1163 0472 1521     		movs	r1, #21
 1164 0474 FFF7FEFF 		bl	LCD_setPixel
 1165              	.LVL88:
 1166              		.loc 1 208 0
 1167 0478 0D20     		movs	r0, #13
 1168 047a 2521     		movs	r1, #37
 1169 047c FFF7FEFF 		bl	LCD_setPixel
 1170              	.LVL89:
 1171              		.loc 1 209 0
 1172 0480 0C20     		movs	r0, #12
 1173 0482 2521     		movs	r1, #37
 1174 0484 FFF7FEFF 		bl	LCD_setPixel
 1175              	.LVL90:
 1176              		.loc 1 210 0
 1177 0488 0D20     		movs	r0, #13
 1178 048a 0521     		movs	r1, #5
 1179 048c FFF7FEFF 		bl	LCD_setPixel
 1180              	.LVL91:
 1181              		.loc 1 211 0
 1182 0490 0C20     		movs	r0, #12
 1183 0492 0521     		movs	r1, #5
 1184 0494 FFF7FEFF 		bl	LCD_setPixel
 1185              	.LVL92:
 1186              		.loc 1 212 0
ARM GAS  /tmp/cct3ncYl.s 			page 22


 1187 0498 0020     		movs	r0, #0
 1188 049a 0521     		movs	r1, #5
 1189 049c 224A     		ldr	r2, .L105+12
 1190 049e FFF7FEFF 		bl	LCD_drawStringInv
 1191              	.LVL93:
 1192              		.loc 1 213 0
 1193 04a2 3A20     		movs	r0, #58
 1194 04a4 0521     		movs	r1, #5
 1195 04a6 214A     		ldr	r2, .L105+16
 1196 04a8 FFF7FEFF 		bl	LCD_drawStringInv
 1197              	.LVL94:
 1198              		.loc 1 215 0
 1199 04ac 1B20     		movs	r0, #27
 1200 04ae 0521     		movs	r1, #5
 1201 04b0 1F4A     		ldr	r2, .L105+20
 1202 04b2 FFF7FEFF 		bl	LCD_drawString
 1203              	.LVL95:
 1204 04b6 C846     		mov	r8, r9
 1205              		.loc 1 217 0
 1206 04b8 0027     		movs	r7, #0
 1207              	.LVL96:
 1208              	.L95:
 1209              	.LBB90:
 1210              		.loc 1 219 0
 1211 04ba D8F80430 		ldr	r3, [r8, #4]
 1212 04be DB15     		asrs	r3, r3, #23
 1213 04c0 C3F11504 		rsb	r4, r3, #21
 1214              	.LVL97:
 1215              		.loc 1 220 0
 1216 04c4 002C     		cmp	r4, #0
 1217 04c6 22DD     		ble	.L96
 1218              		.loc 1 222 0
 1219 04c8 2F2C     		cmp	r4, #47
 1220 04ca 23DD     		ble	.L104
 1221 04cc 3023     		movs	r3, #48
 1222              		.loc 1 223 0
 1223 04ce 2F24     		movs	r4, #47
 1224              	.LVL98:
 1225              	.L90:
 1226              		.loc 1 225 0
 1227 04d0 59F83750 		ldr	r5, [r9, r7, lsl #3]
 1228 04d4 ED15     		asrs	r5, r5, #23
 1229 04d6 C5F11505 		rsb	r5, r5, #21
 1230              	.LVL99:
 1231              		.loc 1 226 0
 1232 04da 002D     		cmp	r5, #0
 1233 04dc 15DD     		ble	.L98
 1234              		.loc 1 229 0
 1235 04de 2F2D     		cmp	r5, #47
 1236 04e0 A8BF     		it	ge
 1237 04e2 2F25     		movge	r5, #47
 1238              	.LVL100:
 1239              	.L92:
 1240              		.loc 1 235 0
 1241 04e4 AC42     		cmp	r4, r5
 1242 04e6 A8BF     		it	ge
 1243 04e8 1D46     		movge	r5, r3
ARM GAS  /tmp/cct3ncYl.s 			page 23


 1244              	.LVL101:
 1245 04ea 07F10F06 		add	r6, r7, #15
 1246              	.LVL102:
 1247              	.L94:
 1248              		.loc 1 237 0 discriminator 3
 1249 04ee 2146     		mov	r1, r4
 1250 04f0 3046     		mov	r0, r6
 1251              		.loc 1 236 0 discriminator 3
 1252 04f2 0134     		adds	r4, r4, #1
 1253              	.LVL103:
 1254              		.loc 1 237 0 discriminator 3
 1255 04f4 FFF7FEFF 		bl	LCD_setPixel
 1256              	.LVL104:
 1257              		.loc 1 236 0 discriminator 3
 1258 04f8 AC42     		cmp	r4, r5
 1259 04fa F8DB     		blt	.L94
 1260              	.LBE90:
 1261              		.loc 1 217 0 discriminator 2
 1262 04fc 0137     		adds	r7, r7, #1
 1263              	.LVL105:
 1264 04fe 402F     		cmp	r7, #64
 1265 0500 08F10808 		add	r8, r8, #8
 1266 0504 D9D1     		bne	.L95
 1267              		.loc 1 239 0
 1268 0506 BDE8F883 		pop	{r3, r4, r5, r6, r7, r8, r9, pc}
 1269              	.LVL106:
 1270              	.L98:
 1271              	.LBB91:
 1272              		.loc 1 227 0
 1273 050a 0125     		movs	r5, #1
 1274              	.LVL107:
 1275 050c EAE7     		b	.L92
 1276              	.LVL108:
 1277              	.L96:
 1278 050e 0223     		movs	r3, #2
 1279              		.loc 1 221 0
 1280 0510 0124     		movs	r4, #1
 1281              	.LVL109:
 1282 0512 DDE7     		b	.L90
 1283              	.L104:
 1284 0514 C3F11603 		rsb	r3, r3, #22
 1285 0518 DAE7     		b	.L90
 1286              	.L106:
 1287 051a 00BF     		.align	2
 1288              	.L105:
 1289 051c 2C000000 		.word	.LC5
 1290 0520 30000000 		.word	.LC6
 1291 0524 34000000 		.word	.LC7
 1292 0528 38000000 		.word	.LC8
 1293 052c 40000000 		.word	.LC9
 1294 0530 48000000 		.word	.LC10
 1295              	.LBE91:
 1296              		.cfi_endproc
 1297              	.LFE187:
 1298              		.size	k_scope_DisplayFunction2, .-k_scope_DisplayFunction2
 1299              		.align	2
 1300 0534 AFF30080 		.p2align 4,,15
ARM GAS  /tmp/cct3ncYl.s 			page 24


 1300      AFF30080 
 1300      AFF30080 
 1301              		.global	k_scope_DisplayFunction3
 1302              		.thumb
 1303              		.thumb_func
 1304              		.type	k_scope_DisplayFunction3, %function
 1305              	k_scope_DisplayFunction3:
 1306              	.LFB188:
 1307              		.loc 1 241 0
 1308              		.cfi_startproc
 1309              		@ args = 0, pretend = 0, frame = 0
 1310              		@ frame_needed = 0, uses_anonymous_args = 0
 1311              		@ link register save eliminated.
 1312              	.LVL110:
 1313 0540 7047     		bx	lr
 1314              		.cfi_endproc
 1315              	.LFE188:
 1316              		.size	k_scope_DisplayFunction3, .-k_scope_DisplayFunction3
 1317 0542 00BF     		.align	2
 1318 0544 AFF30080 		.p2align 4,,15
 1318      AFF30080 
 1318      AFF30080 
 1319              		.global	k_scope_DisplayFunction4
 1320              		.thumb
 1321              		.thumb_func
 1322              		.type	k_scope_DisplayFunction4, %function
 1323              	k_scope_DisplayFunction4:
 1324              	.LFB189:
 1325              		.loc 1 245 0
 1326              		.cfi_startproc
 1327              		@ args = 0, pretend = 0, frame = 0
 1328              		@ frame_needed = 0, uses_anonymous_args = 0
 1329              		@ link register save eliminated.
 1330              	.LVL111:
 1331 0550 7047     		bx	lr
 1332              		.cfi_endproc
 1333              	.LFE189:
 1334              		.size	k_scope_DisplayFunction4, .-k_scope_DisplayFunction4
 1335 0552 00BF     		.align	2
 1336 0554 AFF30080 		.p2align 4,,15
 1336      AFF30080 
 1336      AFF30080 
 1337              		.global	k_value_DisplayFunction
 1338              		.thumb
 1339              		.thumb_func
 1340              		.type	k_value_DisplayFunction, %function
 1341              	k_value_DisplayFunction:
 1342              	.LFB190:
 1343              		.loc 1 249 0
 1344              		.cfi_startproc
 1345              		@ args = 0, pretend = 0, frame = 0
 1346              		@ frame_needed = 0, uses_anonymous_args = 0
 1347              		@ link register save eliminated.
 1348              	.LVL112:
 1349 0560 7047     		bx	lr
 1350              		.cfi_endproc
 1351              	.LFE190:
ARM GAS  /tmp/cct3ncYl.s 			page 25


 1352              		.size	k_value_DisplayFunction, .-k_value_DisplayFunction
 1353 0562 00BF     		.align	2
 1354 0564 AFF30080 		.p2align 4,,15
 1354      AFF30080 
 1354      AFF30080 
 1355              		.global	UIGoSafe
 1356              		.thumb
 1357              		.thumb_func
 1358              		.type	UIGoSafe, %function
 1359              	UIGoSafe:
 1360              	.LFB196:
 1361              		.loc 1 419 0
 1362              		.cfi_startproc
 1363              		@ args = 0, pretend = 0, frame = 0
 1364              		@ frame_needed = 0, uses_anonymous_args = 0
 1365              		@ link register save eliminated.
 1366              		.loc 1 420 0
 1367 0570 014B     		ldr	r3, .L111
 1368 0572 024A     		ldr	r2, .L111+4
 1369 0574 1A60     		str	r2, [r3]
 1370 0576 7047     		bx	lr
 1371              	.L112:
 1372              		.align	2
 1373              	.L111:
 1374 0578 00000000 		.word	KvpsDisplay
 1375 057c 00000000 		.word	KvpsHead
 1376              		.cfi_endproc
 1377              	.LFE196:
 1378              		.size	UIGoSafe, .-UIGoSafe
 1379              		.align	2
 1380              		.p2align 4,,15
 1381              		.global	ui_init
 1382              		.thumb
 1383              		.thumb_func
 1384              		.type	ui_init, %function
 1385              	ui_init:
 1386              	.LFB197:
 1387              		.loc 1 423 0
 1388              		.cfi_startproc
 1389              		@ args = 0, pretend = 0, frame = 0
 1390              		@ frame_needed = 0, uses_anonymous_args = 0
 1391 0580 2DE9F04F 		push	{r4, r5, r6, r7, r8, r9, r10, fp, lr}
 1392              		.cfi_def_cfa_offset 36
 1393              		.cfi_offset 4, -36
 1394              		.cfi_offset 5, -32
 1395              		.cfi_offset 6, -28
 1396              		.cfi_offset 7, -24
 1397              		.cfi_offset 8, -20
 1398              		.cfi_offset 9, -16
 1399              		.cfi_offset 10, -12
 1400              		.cfi_offset 11, -8
 1401              		.cfi_offset 14, -4
 1402              		.loc 1 424 0
 1403 0584 5649     		ldr	r1, .L119
 1404              		.loc 1 425 0
 1405 0586 574B     		ldr	r3, .L119+4
 1406              	.LBB92:
ARM GAS  /tmp/cct3ncYl.s 			page 26


 1407              	.LBB93:
 1408              		.loc 1 96 0
 1409 0588 574E     		ldr	r6, .L119+8
 1410              	.LBE93:
 1411              	.LBE92:
 1412              		.loc 1 424 0
 1413 058a 0025     		movs	r5, #0
 1414              		.loc 1 425 0
 1415 058c 4FF0FF32 		mov	r2, #-1
 1416              		.loc 1 423 0
 1417 0590 83B0     		sub	sp, sp, #12
 1418              		.cfi_def_cfa_offset 48
 1419              		.loc 1 427 0
 1420 0592 9020     		movs	r0, #144
 1421              		.loc 1 425 0
 1422 0594 1A60     		str	r2, [r3]
 1423              		.loc 1 424 0
 1424 0596 0D60     		str	r5, [r1]
 1425              		.loc 1 427 0
 1426 0598 FFF7FEFF 		bl	chCoreAlloc
 1427              	.LVL113:
 1428              	.LBB98:
 1429              	.LBB94:
 1430              		.loc 1 95 0
 1431 059c 4FF00D08 		mov	r8, #13
 1432              		.loc 1 97 0
 1433 05a0 5249     		ldr	r1, .L119+12
 1434              	.LBE94:
 1435              	.LBE98:
 1436              	.LBB99:
 1437              	.LBB100:
 1438 05a2 534A     		ldr	r2, .L119+16
 1439              		.loc 1 98 0
 1440 05a4 534B     		ldr	r3, .L119+20
 1441              	.LBE100:
 1442              	.LBE99:
 1443              	.LBB104:
 1444              	.LBB95:
 1445              		.loc 1 97 0
 1446 05a6 8160     		str	r1, [r0, #8]
 1447              	.LBE95:
 1448              	.LBE104:
 1449              	.LBB105:
 1450              	.LBB101:
 1451 05a8 0262     		str	r2, [r0, #32]
 1452              		.loc 1 98 0
 1453 05aa 4362     		str	r3, [r0, #36]
 1454              	.LBE101:
 1455              	.LBE105:
 1456              	.LBB106:
 1457              	.LBB96:
 1458 05ac C560     		str	r5, [r0, #12]
 1459              		.loc 1 95 0
 1460 05ae 80F80080 		strb	r8, [r0]
 1461              	.LBE96:
 1462              	.LBE106:
 1463              	.LBB107:
ARM GAS  /tmp/cct3ncYl.s 			page 27


 1464              	.LBB102:
 1465 05b2 80F81880 		strb	r8, [r0, #24]
 1466              	.LBE102:
 1467              	.LBE107:
 1468              	.LBB108:
 1469              	.LBB97:
 1470              		.loc 1 96 0
 1471 05b6 4660     		str	r6, [r0, #4]
 1472              	.LBE97:
 1473              	.LBE108:
 1474              	.LBB109:
 1475              	.LBB103:
 1476 05b8 C661     		str	r6, [r0, #28]
 1477              	.LBE103:
 1478              	.LBE109:
 1479              		.loc 1 427 0
 1480 05ba 0746     		mov	r7, r0
 1481              	.LVL114:
 1482              		.loc 1 432 0
 1483 05bc 9020     		movs	r0, #144
 1484              	.LVL115:
 1485 05be FFF7FEFF 		bl	chCoreAlloc
 1486              	.LVL116:
 1487              		.loc 1 438 0
 1488 05c2 4D4B     		ldr	r3, .L119+24
 1489              	.LBB110:
 1490              	.LBB111:
 1491              		.loc 1 55 0
 1492 05c4 DFF85CC1 		ldr	ip, .L119+68
 1493              	.LBE111:
 1494              	.LBE110:
 1495              		.loc 1 438 0
 1496 05c8 1B78     		ldrb	r3, [r3]	@ zero_extendqisi2
 1497              	.LBB117:
 1498              	.LBB112:
 1499              		.loc 1 58 0
 1500 05ca DFF85CE1 		ldr	lr, .L119+72
 1501              	.LBE112:
 1502              	.LBE117:
 1503              	.LBB118:
 1504              	.LBB119:
 1505              		.loc 1 76 0
 1506 05ce 4B49     		ldr	r1, .L119+28
 1507              	.LBE119:
 1508              	.LBE118:
 1509              		.loc 1 432 0
 1510 05d0 0446     		mov	r4, r0
 1511              	.LVL117:
 1512              	.LBB124:
 1513              	.LBB113:
 1514              		.loc 1 53 0
 1515 05d2 4FF00509 		mov	r9, #5
 1516              	.LBE113:
 1517              	.LBE124:
 1518              	.LBB125:
 1519              	.LBB120:
 1520              		.loc 1 75 0
ARM GAS  /tmp/cct3ncYl.s 			page 28


 1521 05d6 4A48     		ldr	r0, .L119+32
 1522              	.LVL118:
 1523              	.LBE120:
 1524              	.LBE125:
 1525              	.LBB126:
 1526              	.LBB114:
 1527              		.loc 1 54 0
 1528 05d8 6660     		str	r6, [r4, #4]
 1529              	.LBE114:
 1530              	.LBE126:
 1531              	.LBB127:
 1532              	.LBB121:
 1533              		.loc 1 78 0
 1534 05da 0F22     		movs	r2, #15
 1535              	.LBE121:
 1536              	.LBE127:
 1537              	.LBB128:
 1538              	.LBB115:
 1539              		.loc 1 56 0
 1540 05dc 2561     		str	r5, [r4, #16]
 1541              		.loc 1 57 0
 1542 05de 6561     		str	r5, [r4, #20]
 1543              	.LBE115:
 1544              	.LBE128:
 1545              	.LBB129:
 1546              	.LBB122:
 1547              		.loc 1 73 0
 1548 05e0 2576     		strb	r5, [r4, #24]
 1549              		.loc 1 74 0
 1550 05e2 E661     		str	r6, [r4, #28]
 1551              		.loc 1 77 0
 1552 05e4 A562     		str	r5, [r4, #40]
 1553              	.LBE122:
 1554              	.LBE129:
 1555              	.LBB130:
 1556              	.LBB116:
 1557              		.loc 1 53 0
 1558 05e6 84F80090 		strb	r9, [r4]
 1559              		.loc 1 55 0
 1560 05ea C4F808C0 		str	ip, [r4, #8]
 1561              		.loc 1 58 0
 1562 05ee C4F80CE0 		str	lr, [r4, #12]
 1563              	.LVL119:
 1564              	.LBE116:
 1565              	.LBE130:
 1566              	.LBB131:
 1567              	.LBB123:
 1568              		.loc 1 75 0
 1569 05f2 2062     		str	r0, [r4, #32]
 1570              		.loc 1 76 0
 1571 05f4 6162     		str	r1, [r4, #36]
 1572              		.loc 1 78 0
 1573 05f6 E262     		str	r2, [r4, #44]
 1574              	.LBE123:
 1575              	.LBE131:
 1576              		.loc 1 438 0
 1577 05f8 002B     		cmp	r3, #0
ARM GAS  /tmp/cct3ncYl.s 			page 29


 1578 05fa 6AD0     		beq	.L114
 1579              	.LVL120:
 1580              	.LBB132:
 1581              	.LBB133:
 1582              		.loc 1 97 0
 1583 05fc 414A     		ldr	r2, .L119+36
 1584              		.loc 1 98 0
 1585 05fe 424B     		ldr	r3, .L119+40
 1586              		.loc 1 95 0
 1587 0600 84F83080 		strb	r8, [r4, #48]
 1588              		.loc 1 96 0
 1589 0604 6663     		str	r6, [r4, #52]
 1590              		.loc 1 97 0
 1591 0606 A263     		str	r2, [r4, #56]
 1592              		.loc 1 98 0
 1593 0608 E363     		str	r3, [r4, #60]
 1594              	.LVL121:
 1595              	.L115:
 1596              	.LBE133:
 1597              	.LBE132:
 1598              		.loc 1 448 0
 1599 060a DFF820B1 		ldr	fp, .L119+76
 1600              	.LBB134:
 1601              	.LBB135:
 1602              		.loc 1 65 0
 1603 060e DFF820A1 		ldr	r10, .L119+80
 1604              	.LBE135:
 1605              	.LBE134:
 1606              		.loc 1 448 0
 1607 0612 CBF80060 		str	r6, [fp]
 1608              	.LBB142:
 1609              	.LBB136:
 1610              		.loc 1 67 0
 1611 0616 0023     		movs	r3, #0
 1612              		.loc 1 63 0
 1613 0618 0322     		movs	r2, #3
 1614              		.loc 1 66 0
 1615 061a 0221     		movs	r1, #2
 1616              	.LBE136:
 1617              	.LBE142:
 1618              	.LBB143:
 1619              	.LBB144:
 1620              		.loc 1 64 0
 1621 061c 7360     		str	r3, [r6, #4]
 1622              		.loc 1 67 0
 1623 061e 7361     		str	r3, [r6, #20]
 1624              	.LBE144:
 1625              	.LBE143:
 1626              	.LBB148:
 1627              	.LBB149:
 1628              		.loc 1 68 0
 1629 0620 3A4D     		ldr	r5, .L119+44
 1630              		.loc 1 65 0
 1631 0622 DFF81091 		ldr	r9, .L119+84
 1632              	.LBE149:
 1633              	.LBE148:
 1634              	.LBB155:
ARM GAS  /tmp/cct3ncYl.s 			page 30


 1635              	.LBB156:
 1636              		.loc 1 75 0
 1637 0626 DFF810C1 		ldr	ip, .L119+88
 1638              		.loc 1 76 0
 1639 062a DFF810E1 		ldr	lr, .L119+92
 1640              	.LBE156:
 1641              	.LBE155:
 1642              	.LBB161:
 1643              	.LBB137:
 1644              		.loc 1 65 0
 1645 062e C4F850A0 		str	r10, [r4, #80]
 1646              	.LBE137:
 1647              	.LBE161:
 1648              	.LBB162:
 1649              	.LBB157:
 1650              		.loc 1 78 0
 1651 0632 6420     		movs	r0, #100
 1652              	.LBE157:
 1653              	.LBE162:
 1654              	.LBB163:
 1655              	.LBB145:
 1656              		.loc 1 66 0
 1657 0634 4FF0060B 		mov	fp, #6
 1658              	.LBE145:
 1659              	.LBE163:
 1660              	.LBB164:
 1661              	.LBB138:
 1662              		.loc 1 67 0
 1663 0638 E365     		str	r3, [r4, #92]
 1664              	.LBE138:
 1665              	.LBE164:
 1666              	.LBB165:
 1667              	.LBB150:
 1668 063a 6367     		str	r3, [r4, #116]
 1669              	.LBE150:
 1670              	.LBE165:
 1671              	.LBB166:
 1672              	.LBB158:
 1673              		.loc 1 73 0
 1674 063c 84F87830 		strb	r3, [r4, #120]
 1675              		.loc 1 77 0
 1676 0640 C4F88830 		str	r3, [r4, #136]
 1677              	.LBE158:
 1678              	.LBE166:
 1679              		.loc 1 451 0
 1680 0644 9A46     		mov	r10, r3
 1681 0646 DFF8F880 		ldr	r8, .L119+96
 1682              	.LBB167:
 1683              	.LBB146:
 1684              		.loc 1 65 0
 1685 064a 314B     		ldr	r3, .L119+48
 1686              	.LBE146:
 1687              	.LBE167:
 1688              	.LBB168:
 1689              	.LBB139:
 1690              		.loc 1 64 0
 1691 064c E664     		str	r6, [r4, #76]
ARM GAS  /tmp/cct3ncYl.s 			page 31


 1692              		.loc 1 68 0
 1693 064e 6765     		str	r7, [r4, #84]
 1694              	.LVL122:
 1695              	.LBE139:
 1696              	.LBE168:
 1697              	.LBB169:
 1698              	.LBB151:
 1699              		.loc 1 64 0
 1700 0650 6666     		str	r6, [r4, #100]
 1701              	.LBE151:
 1702              	.LBE169:
 1703              	.LBB170:
 1704              	.LBB159:
 1705              		.loc 1 74 0
 1706 0652 E667     		str	r6, [r4, #124]
 1707              	.LBE159:
 1708              	.LBE170:
 1709              	.LBB171:
 1710              	.LBB147:
 1711              		.loc 1 68 0
 1712 0654 F460     		str	r4, [r6, #12]
 1713              		.loc 1 63 0
 1714 0656 3270     		strb	r2, [r6]
 1715              		.loc 1 65 0
 1716 0658 B360     		str	r3, [r6, #8]
 1717              		.loc 1 66 0
 1718 065a C6F810B0 		str	fp, [r6, #16]
 1719              	.LBE147:
 1720              	.LBE171:
 1721              	.LBB172:
 1722              	.LBB152:
 1723              		.loc 1 68 0
 1724 065e E566     		str	r5, [r4, #108]
 1725              	.LVL123:
 1726              	.LBE152:
 1727              	.LBE172:
 1728              	.LBB173:
 1729              	.LBB140:
 1730              		.loc 1 63 0
 1731 0660 84F84820 		strb	r2, [r4, #72]
 1732              	.LBE140:
 1733              	.LBE173:
 1734              	.LBB174:
 1735              	.LBB153:
 1736 0664 84F86020 		strb	r2, [r4, #96]
 1737              		.loc 1 66 0
 1738 0668 2267     		str	r2, [r4, #112]
 1739              	.LBE153:
 1740              	.LBE174:
 1741              	.LBB175:
 1742              	.LBB141:
 1743 066a A165     		str	r1, [r4, #88]
 1744              	.LBE141:
 1745              	.LBE175:
 1746              	.LBB176:
 1747              		.loc 1 452 0
 1748 066c 0F46     		mov	r7, r1
ARM GAS  /tmp/cct3ncYl.s 			page 32


 1749              	.LVL124:
 1750              	.LBE176:
 1751              	.LBB177:
 1752              	.LBB154:
 1753              		.loc 1 65 0
 1754 066e C4F86890 		str	r9, [r4, #104]
 1755              	.LBE154:
 1756              	.LBE177:
 1757              	.LBB178:
 1758              	.LBB160:
 1759              		.loc 1 75 0
 1760 0672 C4F880C0 		str	ip, [r4, #128]
 1761              		.loc 1 76 0
 1762 0676 C4F884E0 		str	lr, [r4, #132]
 1763              		.loc 1 78 0
 1764 067a C4F88C00 		str	r0, [r4, #140]
 1765              	.LVL125:
 1766              	.LBE160:
 1767              	.LBE178:
 1768              	.LBB179:
 1769              		.loc 1 455 0
 1770 067e 4126     		movs	r6, #65
 1771              	.LVL126:
 1772              	.L116:
 1773 0680 08EB4A03 		add	r3, r8, r10, lsl #1
 1774              		.loc 1 453 0 discriminator 3
 1775 0684 EB60     		str	r3, [r5, #12]
 1776              		.loc 1 452 0 discriminator 3
 1777 0686 2F70     		strb	r7, [r5]
 1778              		.loc 1 454 0 discriminator 3
 1779 0688 0620     		movs	r0, #6
 1780 068a FFF7FEFF 		bl	chCoreAlloc
 1781              	.LVL127:
 1782 068e 0AF13002 		add	r2, r10, #48
 1783              	.LBE179:
 1784              		.loc 1 451 0 discriminator 3
 1785 0692 0AF1010A 		add	r10, r10, #1
 1786              	.LVL128:
 1787              	.LBB180:
 1788              		.loc 1 456 0 discriminator 3
 1789 0696 4FF0440E 		mov	lr, #68
 1790              		.loc 1 457 0 discriminator 3
 1791 069a 4321     		movs	r1, #67
 1792              		.loc 1 459 0 discriminator 3
 1793 069c 0023     		movs	r3, #0
 1794              	.LBE180:
 1795              		.loc 1 451 0 discriminator 3
 1796 069e BAF1030F 		cmp	r10, #3
 1797              	.LBB181:
 1798              		.loc 1 455 0 discriminator 3
 1799 06a2 0670     		strb	r6, [r0]
 1800              		.loc 1 456 0 discriminator 3
 1801 06a4 80F801E0 		strb	lr, [r0, #1]
 1802              		.loc 1 457 0 discriminator 3
 1803 06a8 8170     		strb	r1, [r0, #2]
 1804              		.loc 1 458 0 discriminator 3
 1805 06aa C270     		strb	r2, [r0, #3]
ARM GAS  /tmp/cct3ncYl.s 			page 33


 1806              		.loc 1 459 0 discriminator 3
 1807 06ac 0371     		strb	r3, [r0, #4]
 1808 06ae 05F11805 		add	r5, r5, #24
 1809              		.loc 1 461 0 discriminator 3
 1810 06b2 45F8100C 		str	r0, [r5, #-16]
 1811              	.LBE181:
 1812              		.loc 1 451 0 discriminator 3
 1813 06b6 E3D1     		bne	.L116
 1814              		.loc 1 464 0
 1815 06b8 164A     		ldr	r2, .L119+52
 1816              		.loc 1 466 0
 1817 06ba 0093     		str	r3, [sp]
 1818 06bc 4FF4BC61 		mov	r1, #1504
 1819              		.loc 1 464 0
 1820 06c0 1460     		str	r4, [r2]
 1821              		.loc 1 466 0
 1822 06c2 154B     		ldr	r3, .L119+56
 1823 06c4 1548     		ldr	r0, .L119+60
 1824              	.LVL129:
 1825 06c6 4022     		movs	r2, #64
 1826 06c8 FFF7FEFF 		bl	chThdCreateStatic
 1827              	.LVL130:
 1828              		.loc 1 467 0
 1829 06cc 03B0     		add	sp, sp, #12
 1830              		.cfi_remember_state
 1831              		.cfi_def_cfa_offset 36
 1832              		@ sp needed
 1833 06ce BDE8F08F 		pop	{r4, r5, r6, r7, r8, r9, r10, fp, pc}
 1834              	.LVL131:
 1835              	.L114:
 1836              		.cfi_restore_state
 1837              	.LBB182:
 1838              	.LBB183:
 1839              		.loc 1 97 0
 1840 06d2 134A     		ldr	r2, .L119+64
 1841              		.loc 1 95 0
 1842 06d4 84F83080 		strb	r8, [r4, #48]
 1843              		.loc 1 96 0
 1844 06d8 6663     		str	r6, [r4, #52]
 1845              		.loc 1 98 0
 1846 06da E363     		str	r3, [r4, #60]
 1847              		.loc 1 97 0
 1848 06dc A263     		str	r2, [r4, #56]
 1849 06de 94E7     		b	.L115
 1850              	.L120:
 1851              		.align	2
 1852              	.L119:
 1853 06e0 00000000 		.word	Btn_Nav_Or
 1854 06e4 00000000 		.word	Btn_Nav_And
 1855 06e8 00000000 		.word	KvpsHead
 1856 06ec 50000000 		.word	.LC11
 1857 06f0 58000000 		.word	.LC12
 1858 06f4 00000000 		.word	EnterMenuFormat
 1859 06f8 00000000 		.word	fs_ready
 1860 06fc 00000000 		.word	patchStatus
 1861 0700 68000000 		.word	.LC14
 1862 0704 04000000 		.word	.LC1
ARM GAS  /tmp/cct3ncYl.s 			page 34


 1863 0708 00000000 		.word	EnterMenuLoad
 1864 070c 00000000 		.word	ADCkvps
 1865 0710 9C000000 		.word	.LC19
 1866 0714 00000000 		.word	ObjectKvpRoot
 1867 0718 00000000 		.word	ThreadUI
 1868 071c 00000000 		.word	.LANCHOR1
 1869 0720 70000000 		.word	.LC15
 1870 0724 60000000 		.word	.LC13
 1871 0728 00000000 		.word	ObjectKvps
 1872 072c 00000000 		.word	KvpsDisplay
 1873 0730 7C000000 		.word	.LC16
 1874 0734 8C000000 		.word	.LC17
 1875 0738 94000000 		.word	.LC18
 1876 073c 00000000 		.word	dspLoadPct
 1877 0740 00000000 		.word	adcvalues
 1878              	.LBE183:
 1879              	.LBE182:
 1880              		.cfi_endproc
 1881              	.LFE197:
 1882              		.size	ui_init, .-ui_init
 1883              		.align	2
 1884 0744 AFF30080 		.p2align 4,,15
 1884      AFF30080 
 1884      AFF30080 
 1885              		.global	KVP_ClearObjects
 1886              		.thumb
 1887              		.thumb_func
 1888              		.type	KVP_ClearObjects, %function
 1889              	KVP_ClearObjects:
 1890              	.LFB198:
 1891              		.loc 1 469 0
 1892              		.cfi_startproc
 1893              		@ args = 0, pretend = 0, frame = 0
 1894              		@ frame_needed = 0, uses_anonymous_args = 0
 1895              		@ link register save eliminated.
 1896              		.loc 1 470 0
 1897 0750 034B     		ldr	r3, .L122
 1898              		.loc 1 471 0
 1899 0752 044A     		ldr	r2, .L122+4
 1900              		.loc 1 470 0
 1901 0754 1B68     		ldr	r3, [r3]
 1902              		.loc 1 471 0
 1903 0756 0449     		ldr	r1, .L122+8
 1904 0758 1160     		str	r1, [r2]
 1905              		.loc 1 470 0
 1906 075a 0022     		movs	r2, #0
 1907 075c 1A61     		str	r2, [r3, #16]
 1908 075e 7047     		bx	lr
 1909              	.L123:
 1910              		.align	2
 1911              	.L122:
 1912 0760 00000000 		.word	ObjectKvpRoot
 1913 0764 00000000 		.word	KvpsDisplay
 1914 0768 00000000 		.word	KvpsHead
 1915              		.cfi_endproc
 1916              	.LFE198:
 1917              		.size	KVP_ClearObjects, .-KVP_ClearObjects
ARM GAS  /tmp/cct3ncYl.s 			page 35


 1918              		.align	2
 1919 076c AFF30080 		.p2align 4,,15
 1920              		.global	KVP_RegisterObject
 1921              		.thumb
 1922              		.thumb_func
 1923              		.type	KVP_RegisterObject, %function
 1924              	KVP_RegisterObject:
 1925              	.LFB199:
 1926              		.loc 1 474 0
 1927              		.cfi_startproc
 1928              		@ args = 0, pretend = 0, frame = 0
 1929              		@ frame_needed = 0, uses_anonymous_args = 0
 1930              		@ link register save eliminated.
 1931              	.LVL132:
 1932 0770 10B4     		push	{r4}
 1933              		.cfi_def_cfa_offset 4
 1934              		.cfi_offset 4, -4
 1935              		.loc 1 475 0
 1936 0772 054B     		ldr	r3, .L126
 1937 0774 054C     		ldr	r4, .L126+4
 1938 0776 1B68     		ldr	r3, [r3]
 1939 0778 1A69     		ldr	r2, [r3, #16]
 1940              		.loc 1 477 0
 1941 077a 511C     		adds	r1, r2, #1
 1942              		.loc 1 475 0
 1943 077c 44F82200 		str	r0, [r4, r2, lsl #2]
 1944              		.loc 1 477 0
 1945 0780 1961     		str	r1, [r3, #16]
 1946              		.loc 1 478 0
 1947 0782 5DF8044B 		ldr	r4, [sp], #4
 1948              		.cfi_restore 4
 1949              		.cfi_def_cfa_offset 0
 1950 0786 7047     		bx	lr
 1951              	.L127:
 1952              		.align	2
 1953              	.L126:
 1954 0788 00000000 		.word	ObjectKvpRoot
 1955 078c 00000000 		.word	ObjectKvps
 1956              		.cfi_endproc
 1957              	.LFE199:
 1958              		.size	KVP_RegisterObject, .-KVP_RegisterObject
 1959              		.align	2
 1960              		.p2align 4,,15
 1961              		.global	KVP_DisplayInv
 1962              		.thumb
 1963              		.thumb_func
 1964              		.type	KVP_DisplayInv, %function
 1965              	KVP_DisplayInv:
 1966              	.LFB200:
 1967              		.loc 1 486 0
 1968              		.cfi_startproc
 1969              		@ args = 0, pretend = 0, frame = 0
 1970              		@ frame_needed = 0, uses_anonymous_args = 0
 1971              	.LVL133:
 1972 0790 70B5     		push	{r4, r5, r6, lr}
 1973              		.cfi_def_cfa_offset 16
 1974              		.cfi_offset 4, -16
ARM GAS  /tmp/cct3ncYl.s 			page 36


 1975              		.cfi_offset 5, -12
 1976              		.cfi_offset 6, -8
 1977              		.cfi_offset 14, -4
 1978              		.loc 1 486 0
 1979 0792 1446     		mov	r4, r2
 1980              		.loc 1 487 0
 1981 0794 5B23     		movs	r3, #91
 1982 0796 9268     		ldr	r2, [r2, #8]
 1983              	.LVL134:
 1984              		.loc 1 486 0
 1985 0798 0D46     		mov	r5, r1
 1986              		.loc 1 487 0
 1987 079a FFF7FEFF 		bl	LCD_drawStringInvN
 1988              	.LVL135:
 1989              		.loc 1 488 0
 1990 079e 2378     		ldrb	r3, [r4]	@ zero_extendqisi2
 1991 07a0 0C2B     		cmp	r3, #12
 1992 07a2 67D8     		bhi	.L128
 1993 07a4 DFE803F0 		tbb	[pc, r3]
 1994              	.L131:
 1995 07a8 14       		.byte	(.L130-.L131)/2
 1996 07a9 21       		.byte	(.L132-.L131)/2
 1997 07aa 29       		.byte	(.L133-.L131)/2
 1998 07ab 37       		.byte	(.L134-.L131)/2
 1999 07ac 3F       		.byte	(.L135-.L131)/2
 2000 07ad 48       		.byte	(.L136-.L131)/2
 2001 07ae 50       		.byte	(.L137-.L131)/2
 2002 07af 66       		.byte	(.L128-.L131)/2
 2003 07b0 66       		.byte	(.L128-.L131)/2
 2004 07b1 66       		.byte	(.L128-.L131)/2
 2005 07b2 66       		.byte	(.L128-.L131)/2
 2006 07b3 58       		.byte	(.L138-.L131)/2
 2007 07b4 07       		.byte	(.L139-.L131)/2
 2008 07b5 00       		.p2align 1
 2009              	.L139:
 2010              		.loc 1 490 0
 2011 07b6 2946     		mov	r1, r5
 2012 07b8 5B20     		movs	r0, #91
 2013 07ba 3D22     		movs	r2, #61
 2014 07bc FFF7FEFF 		bl	LCD_drawCharInv
 2015              	.LVL136:
 2016              		.loc 1 491 0
 2017 07c0 E368     		ldr	r3, [r4, #12]
 2018 07c2 2946     		mov	r1, r5
 2019 07c4 1A78     		ldrb	r2, [r3]	@ zero_extendqisi2
 2020 07c6 6120     		movs	r0, #97
 2021              		.loc 1 523 0
 2022 07c8 BDE87040 		pop	{r4, r5, r6, lr}
 2023              		.cfi_remember_state
 2024              		.cfi_restore 14
 2025              		.cfi_restore 6
 2026              		.cfi_restore 5
 2027              		.cfi_restore 4
 2028              		.cfi_def_cfa_offset 0
 2029              	.LVL137:
 2030              		.loc 1 491 0
 2031 07cc FFF7FEBF 		b	LCD_drawNumber3DInv
ARM GAS  /tmp/cct3ncYl.s 			page 37


 2032              	.LVL138:
 2033              	.L130:
 2034              		.cfi_restore_state
 2035              		.loc 1 494 0
 2036 07d0 2946     		mov	r1, r5
 2037 07d2 5B20     		movs	r0, #91
 2038 07d4 3D22     		movs	r2, #61
 2039 07d6 FFF7FEFF 		bl	LCD_drawCharInv
 2040              	.LVL139:
 2041              		.loc 1 495 0
 2042 07da E368     		ldr	r3, [r4, #12]
 2043 07dc 2946     		mov	r1, r5
 2044 07de 1A68     		ldr	r2, [r3]
 2045 07e0 6120     		movs	r0, #97
 2046              		.loc 1 523 0
 2047 07e2 BDE87040 		pop	{r4, r5, r6, lr}
 2048              		.cfi_remember_state
 2049              		.cfi_restore 14
 2050              		.cfi_restore 6
 2051              		.cfi_restore 5
 2052              		.cfi_restore 4
 2053              		.cfi_def_cfa_offset 0
 2054              	.LVL140:
 2055              		.loc 1 495 0
 2056 07e6 FFF7FEBF 		b	LCD_drawNumber3DInv
 2057              	.LVL141:
 2058              	.L132:
 2059              		.cfi_restore_state
 2060              		.loc 1 498 0
 2061 07ea 2946     		mov	r1, r5
 2062 07ec 5B20     		movs	r0, #91
 2063 07ee 224A     		ldr	r2, .L141
 2064 07f0 8023     		movs	r3, #128
 2065              		.loc 1 523 0
 2066 07f2 BDE87040 		pop	{r4, r5, r6, lr}
 2067              		.cfi_remember_state
 2068              		.cfi_restore 14
 2069              		.cfi_restore 6
 2070              		.cfi_restore 5
 2071              		.cfi_restore 4
 2072              		.cfi_def_cfa_offset 0
 2073              	.LVL142:
 2074              		.loc 1 498 0
 2075 07f6 FFF7FEBF 		b	LCD_drawStringInvN
 2076              	.LVL143:
 2077              	.L133:
 2078              		.cfi_restore_state
 2079              		.loc 1 507 0
 2080 07fa 2946     		mov	r1, r5
 2081 07fc 5B20     		movs	r0, #91
 2082 07fe 3D22     		movs	r2, #61
 2083 0800 FFF7FEFF 		bl	LCD_drawCharInv
 2084              	.LVL144:
 2085              		.loc 1 508 0
 2086 0804 E368     		ldr	r3, [r4, #12]
 2087 0806 2946     		mov	r1, r5
 2088 0808 B3F90020 		ldrsh	r2, [r3]
ARM GAS  /tmp/cct3ncYl.s 			page 38


 2089 080c 6120     		movs	r0, #97
 2090              		.loc 1 523 0
 2091 080e BDE87040 		pop	{r4, r5, r6, lr}
 2092              		.cfi_remember_state
 2093              		.cfi_restore 14
 2094              		.cfi_restore 6
 2095              		.cfi_restore 5
 2096              		.cfi_restore 4
 2097              		.cfi_def_cfa_offset 0
 2098              	.LVL145:
 2099              		.loc 1 508 0
 2100 0812 FFF7FEBF 		b	LCD_drawNumber5DInv
 2101              	.LVL146:
 2102              	.L134:
 2103              		.cfi_restore_state
 2104              		.loc 1 501 0
 2105 0816 2946     		mov	r1, r5
 2106 0818 5B20     		movs	r0, #91
 2107 081a 184A     		ldr	r2, .L141+4
 2108 081c 8023     		movs	r3, #128
 2109              		.loc 1 523 0
 2110 081e BDE87040 		pop	{r4, r5, r6, lr}
 2111              		.cfi_remember_state
 2112              		.cfi_restore 14
 2113              		.cfi_restore 6
 2114              		.cfi_restore 5
 2115              		.cfi_restore 4
 2116              		.cfi_def_cfa_offset 0
 2117              	.LVL147:
 2118              		.loc 1 501 0
 2119 0822 FFF7FEBF 		b	LCD_drawStringInvN
 2120              	.LVL148:
 2121              	.L135:
 2122              		.cfi_restore_state
 2123              		.loc 1 504 0
 2124 0826 E368     		ldr	r3, [r4, #12]
 2125 0828 2946     		mov	r1, r5
 2126 082a 1A68     		ldr	r2, [r3]
 2127 082c 5B20     		movs	r0, #91
 2128 082e 8023     		movs	r3, #128
 2129              		.loc 1 523 0
 2130 0830 BDE87040 		pop	{r4, r5, r6, lr}
 2131              		.cfi_remember_state
 2132              		.cfi_restore 14
 2133              		.cfi_restore 6
 2134              		.cfi_restore 5
 2135              		.cfi_restore 4
 2136              		.cfi_def_cfa_offset 0
 2137              	.LVL149:
 2138              		.loc 1 504 0
 2139 0834 FFF7FEBF 		b	LCD_drawIBAR
 2140              	.LVL150:
 2141              	.L136:
 2142              		.cfi_restore_state
 2143              		.loc 1 511 0
 2144 0838 2946     		mov	r1, r5
 2145 083a 5B20     		movs	r0, #91
ARM GAS  /tmp/cct3ncYl.s 			page 39


 2146 083c 104A     		ldr	r2, .L141+8
 2147 083e 8023     		movs	r3, #128
 2148              		.loc 1 523 0
 2149 0840 BDE87040 		pop	{r4, r5, r6, lr}
 2150              		.cfi_remember_state
 2151              		.cfi_restore 14
 2152              		.cfi_restore 6
 2153              		.cfi_restore 5
 2154              		.cfi_restore 4
 2155              		.cfi_def_cfa_offset 0
 2156              	.LVL151:
 2157              		.loc 1 511 0
 2158 0844 FFF7FEBF 		b	LCD_drawStringInvN
 2159              	.LVL152:
 2160              	.L137:
 2161              		.cfi_restore_state
 2162              		.loc 1 514 0
 2163 0848 2946     		mov	r1, r5
 2164 084a 5B20     		movs	r0, #91
 2165 084c 0D4A     		ldr	r2, .L141+12
 2166 084e 8023     		movs	r3, #128
 2167              		.loc 1 523 0
 2168 0850 BDE87040 		pop	{r4, r5, r6, lr}
 2169              		.cfi_remember_state
 2170              		.cfi_restore 14
 2171              		.cfi_restore 6
 2172              		.cfi_restore 5
 2173              		.cfi_restore 4
 2174              		.cfi_def_cfa_offset 0
 2175              	.LVL153:
 2176              		.loc 1 514 0
 2177 0854 FFF7FEBF 		b	LCD_drawStringInvN
 2178              	.LVL154:
 2179              	.L138:
 2180              		.cfi_restore_state
 2181              		.loc 1 517 0
 2182 0858 2946     		mov	r1, r5
 2183 085a 5B20     		movs	r0, #91
 2184 085c 3D22     		movs	r2, #61
 2185 085e FFF7FEFF 		bl	LCD_drawCharInv
 2186              	.LVL155:
 2187              		.loc 1 518 0
 2188 0862 E368     		ldr	r3, [r4, #12]
 2189 0864 1A68     		ldr	r2, [r3]
 2190 0866 2946     		mov	r1, r5
 2191 0868 1215     		asrs	r2, r2, #20
 2192 086a 6120     		movs	r0, #97
 2193              		.loc 1 523 0
 2194 086c BDE87040 		pop	{r4, r5, r6, lr}
 2195              		.cfi_remember_state
 2196              		.cfi_restore 14
 2197              		.cfi_restore 6
 2198              		.cfi_restore 5
 2199              		.cfi_restore 4
 2200              		.cfi_def_cfa_offset 0
 2201              	.LVL156:
 2202              		.loc 1 518 0
ARM GAS  /tmp/cct3ncYl.s 			page 40


 2203 0870 FFF7FEBF 		b	LCD_drawNumber3DInv
 2204              	.LVL157:
 2205              	.L128:
 2206              		.cfi_restore_state
 2207 0874 70BD     		pop	{r4, r5, r6, pc}
 2208              	.LVL158:
 2209              	.L142:
 2210 0876 00BF     		.align	2
 2211              	.L141:
 2212 0878 AC000000 		.word	.LC20
 2213 087c B4000000 		.word	.LC21
 2214 0880 BC000000 		.word	.LC22
 2215 0884 C4000000 		.word	.LC23
 2216              		.cfi_endproc
 2217              	.LFE200:
 2218              		.size	KVP_DisplayInv, .-KVP_DisplayInv
 2219              		.align	2
 2220 0888 AFF30080 		.p2align 4,,15
 2220      AFF30080 
 2221              		.global	KVP_Display
 2222              		.thumb
 2223              		.thumb_func
 2224              		.type	KVP_Display, %function
 2225              	KVP_Display:
 2226              	.LFB201:
 2227              		.loc 1 525 0
 2228              		.cfi_startproc
 2229              		@ args = 0, pretend = 0, frame = 0
 2230              		@ frame_needed = 0, uses_anonymous_args = 0
 2231              	.LVL159:
 2232 0890 2DE9F041 		push	{r4, r5, r6, r7, r8, lr}
 2233              		.cfi_def_cfa_offset 24
 2234              		.cfi_offset 4, -24
 2235              		.cfi_offset 5, -20
 2236              		.cfi_offset 6, -16
 2237              		.cfi_offset 7, -12
 2238              		.cfi_offset 8, -8
 2239              		.cfi_offset 14, -4
 2240              		.loc 1 525 0
 2241 0894 1446     		mov	r4, r2
 2242              		.loc 1 526 0
 2243 0896 5B23     		movs	r3, #91
 2244 0898 9268     		ldr	r2, [r2, #8]
 2245              	.LVL160:
 2246              		.loc 1 525 0
 2247 089a 0646     		mov	r6, r0
 2248 089c 0D46     		mov	r5, r1
 2249              		.loc 1 526 0
 2250 089e FFF7FEFF 		bl	LCD_drawStringN
 2251              	.LVL161:
 2252              		.loc 1 527 0
 2253 08a2 2378     		ldrb	r3, [r4]	@ zero_extendqisi2
 2254 08a4 0C2B     		cmp	r3, #12
 2255 08a6 00F2A280 		bhi	.L143
 2256 08aa DFE803F0 		tbb	[pc, r3]
 2257              	.L146:
 2258 08ae 5C       		.byte	(.L145-.L146)/2
ARM GAS  /tmp/cct3ncYl.s 			page 41


 2259 08af 69       		.byte	(.L147-.L146)/2
 2260 08b0 71       		.byte	(.L148-.L146)/2
 2261 08b1 7F       		.byte	(.L149-.L146)/2
 2262 08b2 87       		.byte	(.L150-.L146)/2
 2263 08b3 90       		.byte	(.L151-.L146)/2
 2264 08b4 98       		.byte	(.L152-.L146)/2
 2265 08b5 07       		.byte	(.L154-.L146)/2
 2266 08b6 07       		.byte	(.L154-.L146)/2
 2267 08b7 22       		.byte	(.L155-.L146)/2
 2268 08b8 34       		.byte	(.L156-.L146)/2
 2269 08b9 07       		.byte	(.L154-.L146)/2
 2270 08ba 15       		.byte	(.L158-.L146)/2
 2271 08bb 00       		.p2align 1
 2272              	.L154:
 2273              		.loc 1 566 0
 2274 08bc 2946     		mov	r1, r5
 2275 08be 5B20     		movs	r0, #91
 2276 08c0 3D22     		movs	r2, #61
 2277 08c2 FFF7FEFF 		bl	LCD_drawChar
 2278              	.LVL162:
 2279              		.loc 1 567 0
 2280 08c6 E368     		ldr	r3, [r4, #12]
 2281 08c8 1A68     		ldr	r2, [r3]
 2282 08ca 2946     		mov	r1, r5
 2283 08cc 1215     		asrs	r2, r2, #20
 2284 08ce 6120     		movs	r0, #97
 2285              		.loc 1 588 0
 2286 08d0 BDE8F041 		pop	{r4, r5, r6, r7, r8, lr}
 2287              		.cfi_remember_state
 2288              		.cfi_restore 14
 2289              		.cfi_restore 8
 2290              		.cfi_restore 7
 2291              		.cfi_restore 6
 2292              		.cfi_restore 5
 2293              		.cfi_restore 4
 2294              		.cfi_def_cfa_offset 0
 2295              	.LVL163:
 2296              		.loc 1 567 0
 2297 08d4 FFF7FEBF 		b	LCD_drawNumber3D
 2298              	.LVL164:
 2299              	.L158:
 2300              		.cfi_restore_state
 2301              		.loc 1 529 0
 2302 08d8 2946     		mov	r1, r5
 2303 08da 5B20     		movs	r0, #91
 2304 08dc 3D22     		movs	r2, #61
 2305 08de FFF7FEFF 		bl	LCD_drawChar
 2306              	.LVL165:
 2307              		.loc 1 530 0
 2308 08e2 E368     		ldr	r3, [r4, #12]
 2309 08e4 2946     		mov	r1, r5
 2310 08e6 1A78     		ldrb	r2, [r3]	@ zero_extendqisi2
 2311 08e8 6120     		movs	r0, #97
 2312              		.loc 1 588 0
 2313 08ea BDE8F041 		pop	{r4, r5, r6, r7, r8, lr}
 2314              		.cfi_remember_state
 2315              		.cfi_restore 14
ARM GAS  /tmp/cct3ncYl.s 			page 42


 2316              		.cfi_restore 8
 2317              		.cfi_restore 7
 2318              		.cfi_restore 6
 2319              		.cfi_restore 5
 2320              		.cfi_restore 4
 2321              		.cfi_def_cfa_offset 0
 2322              	.LVL166:
 2323              		.loc 1 530 0
 2324 08ee FFF7FEBF 		b	LCD_drawNumber3D
 2325              	.LVL167:
 2326              	.L155:
 2327              		.cfi_restore_state
 2328              	.LBB184:
 2329              		.loc 1 572 0
 2330 08f2 E368     		ldr	r3, [r4, #12]
 2331              	.LBB185:
 2332              	.LBB186:
 2333              		.file 2 "axoloti_math.h"
 2334              		.loc 2 65 0
 2335 08f4 4BF68034 		movw	r4, #48000
 2336              	.LVL168:
 2337 08f8 1B68     		ldr	r3, [r3]
 2338              	.LVL169:
 2339              	@ 65 "axoloti_math.h" 1
 2340 08fa 53FB04F4 		smmul r4, r3, r4
 2341              	@ 0 "" 2
 2342              	.LVL170:
 2343              		.thumb
 2344              	.LBE186:
 2345              	.LBE185:
 2346              		.loc 1 573 0
 2347 08fe 5B20     		movs	r0, #91
 2348 0900 2946     		mov	r1, r5
 2349 0902 3D22     		movs	r2, #61
 2350 0904 FFF7FEFF 		bl	LCD_drawChar
 2351              	.LVL171:
 2352              		.loc 1 574 0
 2353 0908 2946     		mov	r1, r5
 2354 090a 2246     		mov	r2, r4
 2355 090c 6120     		movs	r0, #97
 2356              	.LBE184:
 2357              		.loc 1 588 0
 2358 090e BDE8F041 		pop	{r4, r5, r6, r7, r8, lr}
 2359              		.cfi_remember_state
 2360              		.cfi_restore 14
 2361              		.cfi_restore 8
 2362              		.cfi_restore 7
 2363              		.cfi_restore 6
 2364              		.cfi_restore 5
 2365              		.cfi_restore 4
 2366              		.cfi_def_cfa_offset 0
 2367              	.LVL172:
 2368              	.LBB187:
 2369              		.loc 1 574 0
 2370 0912 FFF7FEBF 		b	LCD_drawNumber5D
 2371              	.LVL173:
 2372              	.L156:
ARM GAS  /tmp/cct3ncYl.s 			page 43


 2373              		.cfi_restore_state
 2374              	.LBE187:
 2375              	.LBB188:
 2376              		.loc 1 578 0
 2377 0916 E368     		ldr	r3, [r4, #12]
 2378              	.LBB189:
 2379              	.LBB190:
 2380              		.loc 2 65 0
 2381 0918 A024     		movs	r4, #160
 2382              	.LVL174:
 2383 091a 1B68     		ldr	r3, [r3]
 2384              	.LVL175:
 2385              	@ 65 "axoloti_math.h" 1
 2386 091c 53FB04F4 		smmul r4, r3, r4
 2387              	@ 0 "" 2
 2388              	.LVL176:
 2389              		.thumb
 2390              	.LBE190:
 2391              	.LBE189:
 2392              		.loc 1 580 0
 2393 0920 344F     		ldr	r7, .L160
 2394              		.loc 1 579 0
 2395 0922 2946     		mov	r1, r5
 2396 0924 3D22     		movs	r2, #61
 2397 0926 5B20     		movs	r0, #91
 2398 0928 FFF7FEFF 		bl	LCD_drawChar
 2399              	.LVL177:
 2400              		.loc 1 580 0
 2401 092c E317     		asrs	r3, r4, #31
 2402 092e 87FB0427 		smull	r2, r7, r7, r4
 2403 0932 C3EBA707 		rsb	r7, r3, r7, asr #2
 2404 0936 3A46     		mov	r2, r7
 2405 0938 2946     		mov	r1, r5
 2406 093a 6120     		movs	r0, #97
 2407 093c FFF7FEFF 		bl	LCD_drawNumber3D
 2408              	.LVL178:
 2409              		.loc 1 581 0
 2410 0940 06F17900 		add	r0, r6, #121
 2411 0944 2946     		mov	r1, r5
 2412 0946 2E22     		movs	r2, #46
 2413 0948 FFF7FEFF 		bl	LCD_drawChar
 2414              	.LVL179:
 2415              		.loc 1 582 0
 2416 094c 07EB8702 		add	r2, r7, r7, lsl #2
 2417 0950 A4EB4202 		sub	r2, r4, r2, lsl #1
 2418 0954 3032     		adds	r2, r2, #48
 2419 0956 06F17F00 		add	r0, r6, #127
 2420 095a 2946     		mov	r1, r5
 2421 095c D2B2     		uxtb	r2, r2
 2422              	.LBE188:
 2423              		.loc 1 588 0
 2424 095e BDE8F041 		pop	{r4, r5, r6, r7, r8, lr}
 2425              		.cfi_remember_state
 2426              		.cfi_restore 14
 2427              		.cfi_restore 8
 2428              		.cfi_restore 7
 2429              		.cfi_restore 6
ARM GAS  /tmp/cct3ncYl.s 			page 44


 2430              		.cfi_restore 5
 2431              		.cfi_restore 4
 2432              		.cfi_def_cfa_offset 0
 2433              	.LVL180:
 2434              	.LBB191:
 2435              		.loc 1 582 0
 2436 0962 FFF7FEBF 		b	LCD_drawChar
 2437              	.LVL181:
 2438              	.L145:
 2439              		.cfi_restore_state
 2440              	.LBE191:
 2441              		.loc 1 533 0
 2442 0966 2946     		mov	r1, r5
 2443 0968 5B20     		movs	r0, #91
 2444 096a 3D22     		movs	r2, #61
 2445 096c FFF7FEFF 		bl	LCD_drawChar
 2446              	.LVL182:
 2447              		.loc 1 534 0
 2448 0970 E368     		ldr	r3, [r4, #12]
 2449 0972 2946     		mov	r1, r5
 2450 0974 1A68     		ldr	r2, [r3]
 2451 0976 6120     		movs	r0, #97
 2452              		.loc 1 588 0
 2453 0978 BDE8F041 		pop	{r4, r5, r6, r7, r8, lr}
 2454              		.cfi_remember_state
 2455              		.cfi_restore 14
 2456              		.cfi_restore 8
 2457              		.cfi_restore 7
 2458              		.cfi_restore 6
 2459              		.cfi_restore 5
 2460              		.cfi_restore 4
 2461              		.cfi_def_cfa_offset 0
 2462              	.LVL183:
 2463              		.loc 1 534 0
 2464 097c FFF7FEBF 		b	LCD_drawNumber3D
 2465              	.LVL184:
 2466              	.L147:
 2467              		.cfi_restore_state
 2468              		.loc 1 537 0
 2469 0980 2946     		mov	r1, r5
 2470 0982 5B20     		movs	r0, #91
 2471 0984 1C4A     		ldr	r2, .L160+4
 2472 0986 8023     		movs	r3, #128
 2473              		.loc 1 588 0
 2474 0988 BDE8F041 		pop	{r4, r5, r6, r7, r8, lr}
 2475              		.cfi_remember_state
 2476              		.cfi_restore 14
 2477              		.cfi_restore 8
 2478              		.cfi_restore 7
 2479              		.cfi_restore 6
 2480              		.cfi_restore 5
 2481              		.cfi_restore 4
 2482              		.cfi_def_cfa_offset 0
 2483              	.LVL185:
 2484              		.loc 1 537 0
 2485 098c FFF7FEBF 		b	LCD_drawStringN
 2486              	.LVL186:
ARM GAS  /tmp/cct3ncYl.s 			page 45


 2487              	.L148:
 2488              		.cfi_restore_state
 2489              		.loc 1 546 0
 2490 0990 2946     		mov	r1, r5
 2491 0992 5B20     		movs	r0, #91
 2492 0994 3D22     		movs	r2, #61
 2493 0996 FFF7FEFF 		bl	LCD_drawChar
 2494              	.LVL187:
 2495              		.loc 1 547 0
 2496 099a E368     		ldr	r3, [r4, #12]
 2497 099c 2946     		mov	r1, r5
 2498 099e B3F90020 		ldrsh	r2, [r3]
 2499 09a2 6120     		movs	r0, #97
 2500              		.loc 1 588 0
 2501 09a4 BDE8F041 		pop	{r4, r5, r6, r7, r8, lr}
 2502              		.cfi_remember_state
 2503              		.cfi_restore 14
 2504              		.cfi_restore 8
 2505              		.cfi_restore 7
 2506              		.cfi_restore 6
 2507              		.cfi_restore 5
 2508              		.cfi_restore 4
 2509              		.cfi_def_cfa_offset 0
 2510              	.LVL188:
 2511              		.loc 1 547 0
 2512 09a8 FFF7FEBF 		b	LCD_drawNumber5D
 2513              	.LVL189:
 2514              	.L149:
 2515              		.cfi_restore_state
 2516              		.loc 1 540 0
 2517 09ac 2946     		mov	r1, r5
 2518 09ae 5B20     		movs	r0, #91
 2519 09b0 124A     		ldr	r2, .L160+8
 2520 09b2 8023     		movs	r3, #128
 2521              		.loc 1 588 0
 2522 09b4 BDE8F041 		pop	{r4, r5, r6, r7, r8, lr}
 2523              		.cfi_remember_state
 2524              		.cfi_restore 14
 2525              		.cfi_restore 8
 2526              		.cfi_restore 7
 2527              		.cfi_restore 6
 2528              		.cfi_restore 5
 2529              		.cfi_restore 4
 2530              		.cfi_def_cfa_offset 0
 2531              	.LVL190:
 2532              		.loc 1 540 0
 2533 09b8 FFF7FEBF 		b	LCD_drawStringN
 2534              	.LVL191:
 2535              	.L150:
 2536              		.cfi_restore_state
 2537              		.loc 1 543 0
 2538 09bc E368     		ldr	r3, [r4, #12]
 2539 09be 2946     		mov	r1, r5
 2540 09c0 1A68     		ldr	r2, [r3]
 2541 09c2 5B20     		movs	r0, #91
 2542 09c4 8023     		movs	r3, #128
 2543              		.loc 1 588 0
ARM GAS  /tmp/cct3ncYl.s 			page 46


 2544 09c6 BDE8F041 		pop	{r4, r5, r6, r7, r8, lr}
 2545              		.cfi_remember_state
 2546              		.cfi_restore 14
 2547              		.cfi_restore 8
 2548              		.cfi_restore 7
 2549              		.cfi_restore 6
 2550              		.cfi_restore 5
 2551              		.cfi_restore 4
 2552              		.cfi_def_cfa_offset 0
 2553              	.LVL192:
 2554              		.loc 1 543 0
 2555 09ca FFF7FEBF 		b	LCD_drawIBAR
 2556              	.LVL193:
 2557              	.L151:
 2558              		.cfi_restore_state
 2559              		.loc 1 550 0
 2560 09ce 2946     		mov	r1, r5
 2561 09d0 5B20     		movs	r0, #91
 2562 09d2 0B4A     		ldr	r2, .L160+12
 2563 09d4 8023     		movs	r3, #128
 2564              		.loc 1 588 0
 2565 09d6 BDE8F041 		pop	{r4, r5, r6, r7, r8, lr}
 2566              		.cfi_remember_state
 2567              		.cfi_restore 14
 2568              		.cfi_restore 8
 2569              		.cfi_restore 7
 2570              		.cfi_restore 6
 2571              		.cfi_restore 5
 2572              		.cfi_restore 4
 2573              		.cfi_def_cfa_offset 0
 2574              	.LVL194:
 2575              		.loc 1 550 0
 2576 09da FFF7FEBF 		b	LCD_drawStringN
 2577              	.LVL195:
 2578              	.L152:
 2579              		.cfi_restore_state
 2580              		.loc 1 553 0
 2581 09de 2946     		mov	r1, r5
 2582 09e0 5B20     		movs	r0, #91
 2583 09e2 084A     		ldr	r2, .L160+16
 2584 09e4 8023     		movs	r3, #128
 2585              		.loc 1 588 0
 2586 09e6 BDE8F041 		pop	{r4, r5, r6, r7, r8, lr}
 2587              		.cfi_restore 14
 2588              		.cfi_restore 8
 2589              		.cfi_restore 7
 2590              		.cfi_restore 6
 2591              		.cfi_restore 5
 2592              		.cfi_restore 4
 2593              		.cfi_def_cfa_offset 0
 2594              	.LVL196:
 2595              		.loc 1 553 0
 2596 09ea FFF7FEBF 		b	LCD_drawStringN
 2597              	.LVL197:
 2598              	.L143:
 2599 09ee BDE8F081 		pop	{r4, r5, r6, r7, r8, pc}
 2600              	.LVL198:
ARM GAS  /tmp/cct3ncYl.s 			page 47


 2601              	.L161:
 2602 09f2 00BF     		.align	2
 2603              	.L160:
 2604 09f4 67666666 		.word	1717986919
 2605 09f8 AC000000 		.word	.LC20
 2606 09fc B4000000 		.word	.LC21
 2607 0a00 BC000000 		.word	.LC22
 2608 0a04 C4000000 		.word	.LC23
 2609              		.cfi_endproc
 2610              	.LFE201:
 2611              		.size	KVP_Display, .-KVP_Display
 2612              		.global	pControlUpdate
 2613              		.comm	LoadMenu,24,4
 2614              		.comm	memp,4,4
 2615              		.comm	ADCkvps,72,4
 2616              		.comm	TmpMenuKvps,360,4
 2617              		.comm	ObjectKvps,1024,4
 2618              		.comm	ObjectKvpRoot,4,4
 2619              		.comm	KvpsDisplay,4,4
 2620              		.comm	KvpsHead,24,4
 2621              		.comm	EncBuffer,4,4
 2622              		.comm	Btn_Nav_And,4,4
 2623              		.comm	Btn_Nav_Or,4,4
 2624              		.comm	Btn_Nav_PrevStates,4,4
 2625              		.comm	Btn_Nav_CurStates,4,4
 2626              		.data
 2627              		.align	2
 2628              		.set	.LANCHOR0,. + 0
 2629              		.type	pControlUpdate, %object
 2630              		.size	pControlUpdate, 4
 2631              	pControlUpdate:
 2632 0000 00000000 		.word	AxolotiControlUpdate
 2633              		.section	.rodata.str1.4,"aMS",%progbits,1
 2634              		.align	2
 2635              	.LC0:
 2636 0000 00       		.ascii	"\000"
 2637 0001 000000   		.space	3
 2638              	.LC1:
 2639 0004 4C6F6164 		.ascii	"Load SD\000"
 2639      20534400 
 2640              	.LC2:
 2641 000c 756900   		.ascii	"ui\000"
 2642 000f 00       		.space	1
 2643              	.LC3:
 2644 0010 466F726D 		.ascii	"Format failed\000"
 2644      61742066 
 2644      61696C65 
 2644      6400
 2645 001e 0000     		.space	2
 2646              	.LC4:
 2647 0020 466F726D 		.ascii	"Format OK\000"
 2647      6174204F 
 2647      4B00
 2648 002a 0000     		.space	2
 2649              	.LC5:
 2650 002c 3100     		.ascii	"1\000"
 2651 002e 0000     		.space	2
ARM GAS  /tmp/cct3ncYl.s 			page 48


 2652              	.LC6:
 2653 0030 3000     		.ascii	"0\000"
 2654 0032 0000     		.space	2
 2655              	.LC7:
 2656 0034 2D3100   		.ascii	"-1\000"
 2657 0037 00       		.space	1
 2658              	.LC8:
 2659 0038 4241434B 		.ascii	"BACK\000"
 2659      00
 2660 003d 000000   		.space	3
 2661              	.LC9:
 2662 0040 484F4C44 		.ascii	"HOLD\000"
 2662      00
 2663 0045 000000   		.space	3
 2664              	.LC10:
 2665 0048 2D2E6D73 		.ascii	"-.ms\000"
 2665      00
 2666 004d 000000   		.space	3
 2667              	.LC11:
 2668 0050 496E666F 		.ascii	"Info\000"
 2668      00
 2669 0055 000000   		.space	3
 2670              	.LC12:
 2671 0058 466F726D 		.ascii	"Format\000"
 2671      617400
 2672 005f 00       		.space	1
 2673              	.LC13:
 2674 0060 50617463 		.ascii	"Patch\000"
 2674      6800
 2675 0066 0000     		.space	2
 2676              	.LC14:
 2677 0068 52756E6E 		.ascii	"Running\000"
 2677      696E6700 
 2678              	.LC15:
 2679 0070 4E6F2053 		.ascii	"No SDCard\000"
 2679      44436172 
 2679      6400
 2680 007a 0000     		.space	2
 2681              	.LC16:
 2682 007c 53444361 		.ascii	"SDCard Tools\000"
 2682      72642054 
 2682      6F6F6C73 
 2682      00
 2683 0089 000000   		.space	3
 2684              	.LC17:
 2685 008c 41444373 		.ascii	"ADCs\000"
 2685      00
 2686 0091 000000   		.space	3
 2687              	.LC18:
 2688 0094 64737025 		.ascii	"dsp%\000"
 2688      00
 2689 0099 000000   		.space	3
 2690              	.LC19:
 2691 009c 2D2D2D20 		.ascii	"--- AXOLOTI ---\000"
 2691      41584F4C 
 2691      4F544920 
 2691      2D2D2D00 
ARM GAS  /tmp/cct3ncYl.s 			page 49


 2692              	.LC20:
 2693 00ac 20202020 		.ascii	"     F\000"
 2693      204600
 2694 00b3 00       		.space	1
 2695              	.LC21:
 2696 00b4 20202020 		.ascii	"     *\000"
 2696      202A00
 2697 00bb 00       		.space	1
 2698              	.LC22:
 2699 00bc 20202020 		.ascii	"     #\000"
 2699      202300
 2700 00c3 00       		.space	1
 2701              	.LC23:
 2702 00c4 20202020 		.ascii	"     @\000"
 2702      204000
 2703              		.bss
 2704              		.align	3
 2705              		.set	.LANCHOR1,. + 0
 2706              		.type	waThreadUI, %object
 2707              		.size	waThreadUI, 1504
 2708              	waThreadUI:
 2709 0000 00000000 		.space	1504
 2709      00000000 
 2709      00000000 
 2709      00000000 
 2709      00000000 
 2710              		.text
 2711              	.Letext0:
 2712              		.file 3 "/home/sbcu/Dropbox/pcb-layouts/axo-on-discovery-board/axoloti/platform_linux/arm-none-eab
 2713              		.file 4 "/home/sbcu/Dropbox/pcb-layouts/axo-on-discovery-board/axoloti/platform_linux/arm-none-eab
 2714              		.file 5 "parameters.h"
 2715              		.file 6 "ui.h"
 2716              		.file 7 "/home/sbcu/Dropbox/pcb-layouts/axo-on-discovery-board/axoloti/platform_linux/lib/gcc/arm-
 2717              		.file 8 "/home/sbcu/Dropbox/pcb-layouts/axo-on-discovery-board/axoloti/platform_linux/../chibios/o
 2718              		.file 9 "/home/sbcu/Dropbox/pcb-layouts/axo-on-discovery-board/axoloti/platform_linux/../chibios/o
 2719              		.file 10 "/home/sbcu/Dropbox/pcb-layouts/axo-on-discovery-board/axoloti/platform_linux/../chibios/
 2720              		.file 11 "/home/sbcu/Dropbox/pcb-layouts/axo-on-discovery-board/axoloti/platform_linux/../chibios/
 2721              		.file 12 "/home/sbcu/Dropbox/pcb-layouts/axo-on-discovery-board/axoloti/platform_linux/../chibios/
 2722              		.file 13 "/home/sbcu/Dropbox/pcb-layouts/axo-on-discovery-board/axoloti/platform_linux/../chibios/
 2723              		.file 14 "/home/sbcu/Dropbox/pcb-layouts/axo-on-discovery-board/axoloti/platform_linux/../chibios/
 2724              		.file 15 "/home/sbcu/Dropbox/pcb-layouts/axo-on-discovery-board/axoloti/platform_linux/../chibios/
 2725              		.file 16 "/home/sbcu/Dropbox/pcb-layouts/axo-on-discovery-board/axoloti/platform_linux/../chibios/
 2726              		.file 17 "patch.h"
 2727              		.file 18 "/home/sbcu/Dropbox/pcb-layouts/axo-on-discovery-board/axoloti/platform_linux/../CMSIS//I
 2728              		.file 19 "axoloti_board.h"
 2729              		.file 20 "sdcard.h"
 2730              		.file 21 "axoloti_control.h"
 2731              		.file 22 "/home/sbcu/Dropbox/pcb-layouts/axo-on-discovery-board/axoloti/platform_linux/arm-none-ea
 2732              		.file 23 "pconnection.h"
 2733              		.file 24 "/home/sbcu/Dropbox/pcb-layouts/axo-on-discovery-board/axoloti/platform_linux/../chibios/
 2734              		.file 25 "<built-in>"