ARM GAS  /tmp/ccvfQcT2.s 			page 1


   1              		.syntax unified
   2              		.cpu cortex-m4
   3              		.eabi_attribute 27, 1
   4              		.eabi_attribute 28, 1
   5              		.fpu fpv4-sp-d16
   6              		.eabi_attribute 20, 1
   7              		.eabi_attribute 21, 1
   8              		.eabi_attribute 23, 3
   9              		.eabi_attribute 24, 1
  10              		.eabi_attribute 25, 1
  11              		.eabi_attribute 26, 1
  12              		.eabi_attribute 30, 2
  13              		.eabi_attribute 34, 1
  14              		.eabi_attribute 18, 4
  15              		.thumb
  16              		.file	"usbh_vendor.c"
  17              		.text
  18              	.Ltext0:
  19              		.cfi_sections	.debug_frame
  20              		.align	2
  21              		.p2align 4,,15
  22              		.thumb
  23              		.thumb_func
  24              		.type	USBH_Vendor_InterfaceInit, %function
  25              	USBH_Vendor_InterfaceInit:
  26              	.LFB133:
  27              		.file 1 "usbh_vendor.c"
  28              		.loc 1 38 0
  29              		.cfi_startproc
  30              		@ args = 0, pretend = 0, frame = 0
  31              		@ frame_needed = 0, uses_anonymous_args = 0
  32              	.LVL0:
  33              		.loc 1 42 0
  34 0000 7B4B     		ldr	r3, .L33
  35 0002 D0F82824 		ldr	r2, [r0, #1064]
  36 0006 9A42     		cmp	r2, r3
  37 0008 01D0     		beq	.L29
  38              		.loc 1 46 0
  39 000a 0320     		movs	r0, #3
  40              	.LVL1:
  41              		.loc 1 47 0
  42 000c 7047     		bx	lr
  43              	.LVL2:
  44              	.L29:
  45              		.loc 1 38 0
  46 000e 2DE9F047 		push	{r4, r5, r6, r7, r8, r9, r10, lr}
  47              		.cfi_def_cfa_offset 32
  48              		.cfi_offset 4, -32
  49              		.cfi_offset 5, -28
  50              		.cfi_offset 6, -24
  51              		.cfi_offset 7, -20
  52              		.cfi_offset 8, -16
  53              		.cfi_offset 9, -12
  54              		.cfi_offset 10, -8
  55              		.cfi_offset 14, -4
  56 0012 0446     		mov	r4, r0
  57              	.LVL3:
ARM GAS  /tmp/ccvfQcT2.s 			page 2


  58 0014 84B0     		sub	sp, sp, #16
  59              		.cfi_def_cfa_offset 48
  60              	.LBB9:
  61              	.LBB10:
  62              		.loc 1 43 0
  63 0016 7748     		ldr	r0, .L33+4
  64              	.LVL4:
  65 0018 FFF7FEFF 		bl	LogTextMessage
  66              	.LVL5:
  67              	.LBB11:
  68              	.LBB12:
  69              		.loc 1 57 0
  70 001c FFF7FEFF 		bl	usbh_midi_init
  71              	.LVL6:
  72              		.loc 1 59 0
  73 0020 94F83634 		ldrb	r3, [r4, #1078]	@ zero_extendqisi2
  74 0024 052B     		cmp	r3, #5
  75 0026 03D8     		bhi	.L30
  76              	.L19:
  77              		.loc 1 153 0
  78 0028 0220     		movs	r0, #2
  79              	.L25:
  80              	.LBE12:
  81              	.LBE11:
  82              	.LBE10:
  83              	.LBE9:
  84              		.loc 1 47 0
  85 002a 04B0     		add	sp, sp, #16
  86              		.cfi_remember_state
  87              		.cfi_def_cfa_offset 32
  88              		@ sp needed
  89 002c BDE8F087 		pop	{r4, r5, r6, r7, r8, r9, r10, pc}
  90              	.LVL7:
  91              	.L30:
  92              		.cfi_restore_state
  93              	.LBB20:
  94              	.LBB19:
  95              	.LBB18:
  96              	.LBB17:
  97              		.loc 1 60 0
  98 0030 94F86335 		ldrb	r3, [r4, #1379]	@ zero_extendqisi2
  99 0034 FF2B     		cmp	r3, #255
 100 0036 F7D1     		bne	.L19
 101 0038 94F86465 		ldrb	r6, [r4, #1380]	@ zero_extendqisi2
 102 003c 002E     		cmp	r6, #0
 103 003e F3D1     		bne	.L19
 104              	.LBB13:
 105              		.loc 1 65 0
 106 0040 0521     		movs	r1, #5
 107 0042 2046     		mov	r0, r4
 108 0044 FFF7FEFF 		bl	USBH_SelectInterface
 109              	.LVL8:
 110              		.loc 1 66 0
 111 0048 9420     		movs	r0, #148
 112 004a D4F8A455 		ldr	r5, [r4, #1444]
 113 004e FFF7FEFF 		bl	fakemalloc
 114              	.LVL9:
ARM GAS  /tmp/ccvfQcT2.s 			page 3


 115              		.loc 1 67 0
 116 0052 D4F8A435 		ldr	r3, [r4, #1444]
 117              		.loc 1 66 0
 118 0056 E861     		str	r0, [r5, #28]
 119              		.loc 1 67 0
 120 0058 DD69     		ldr	r5, [r3, #28]
 121              	.LVL10:
 122              		.loc 1 68 0
 123 005a 2E72     		strb	r6, [r5, #8]
 124              		.loc 1 69 0
 125 005c 6E72     		strb	r6, [r5, #9]
 126              		.loc 1 73 0
 127 005e 94F81F34 		ldrb	r3, [r4, #1055]	@ zero_extendqisi2
 128 0062 4FF03A08 		mov	r8, #58
 129 0066 08FB0343 		mla	r3, r8, r3, r4
 130              		.loc 1 72 0
 131 006a 93F84074 		ldrb	r7, [r3, #1088]	@ zero_extendqisi2
 132              		.loc 1 76 0
 133 006e AE72     		strb	r6, [r5, #10]
 134              		.loc 1 72 0
 135 0070 062F     		cmp	r7, #6
 136 0072 28BF     		it	cs
 137 0074 0627     		movcs	r7, #6
 138              	.LVL11:
 139              		.loc 1 77 0
 140 0076 EE72     		strb	r6, [r5, #11]
 141              	.LVL12:
 142              		.loc 1 81 0
 143 0078 2FBB     		cbnz	r7, .L3
 144 007a 65E0     		b	.L13
 145              	.LVL13:
 146              	.L32:
 147              	.LBB14:
 148              		.loc 1 84 0
 149 007c B9F1000F 		cmp	r9, #0
 150 0080 44D1     		bne	.L31
 151              		.loc 1 94 0
 152 0082 2846     		mov	r0, r5
 153 0084 FFF7FEFF 		bl	isValidOutput
 154              	.LVL14:
 155 0088 D0B9     		cbnz	r0, .L9
 156              	.L15:
 157              		.loc 1 95 0
 158 008a 94F81F24 		ldrb	r2, [r4, #1055]	@ zero_extendqisi2
 159              		.loc 1 97 0
 160 008e 5A48     		ldr	r0, .L33+8
 161              		.loc 1 95 0
 162 0090 F100     		lsls	r1, r6, #3
 163 0092 08FB0212 		mla	r2, r8, r2, r1
 164 0096 2244     		add	r2, r2, r4
 165 0098 92F84034 		ldrb	r3, [r2, #1088]	@ zero_extendqisi2
 166 009c AB70     		strb	r3, [r5, #2]
 167              		.loc 1 96 0
 168 009e 94F81F34 		ldrb	r3, [r4, #1055]	@ zero_extendqisi2
 169 00a2 08FB0313 		mla	r3, r8, r3, r1
 170 00a6 2344     		add	r3, r3, r4
 171 00a8 B3F84214 		ldrh	r1, [r3, #1090]
ARM GAS  /tmp/ccvfQcT2.s 			page 4


 172 00ac A980     		strh	r1, [r5, #4]	@ movhi
 173              		.loc 1 97 0
 174 00ae FFF7FEFF 		bl	LogTextMessage
 175              	.LVL15:
 176              		.loc 1 98 0
 177 00b2 AB88     		ldrh	r3, [r5, #4]
 178 00b4 402B     		cmp	r3, #64
 179 00b6 84BF     		itt	hi
 180 00b8 4023     		movhi	r3, #64
 181 00ba AB80     		strhhi	r3, [r5, #4]	@ movhi
 182              		.loc 1 102 0
 183 00bc 0123     		movs	r3, #1
 184 00be EB72     		strb	r3, [r5, #11]
 185              	.L9:
 186              	.LVL16:
 187              	.LBE14:
 188              		.loc 1 81 0
 189 00c0 F3B2     		uxtb	r3, r6
 190 00c2 9F42     		cmp	r7, r3
 191 00c4 40D9     		bls	.L13
 192              	.LVL17:
 193              	.L3:
 194 00c6 2846     		mov	r0, r5
 195 00c8 FFF7FEFF 		bl	isValidInput
 196              	.LVL18:
 197 00cc 20B1     		cbz	r0, .L14
 198 00ce 2846     		mov	r0, r5
 199 00d0 FFF7FEFF 		bl	isValidOutput
 200              	.LVL19:
 201 00d4 0028     		cmp	r0, #0
 202 00d6 37D1     		bne	.L13
 203              	.L14:
 204              	.LBB15:
 205              		.loc 1 83 0
 206 00d8 0136     		adds	r6, r6, #1
 207 00da 94F81F34 		ldrb	r3, [r4, #1055]	@ zero_extendqisi2
 208 00de 4FEAC60A 		lsl	r10, r6, #3
 209 00e2 08FB03A3 		mla	r3, r8, r3, r10
 210 00e6 2344     		add	r3, r3, r4
 211              		.loc 1 84 0
 212 00e8 2846     		mov	r0, r5
 213              		.loc 1 83 0
 214 00ea 93F84034 		ldrb	r3, [r3, #1088]	@ zero_extendqisi2
 215 00ee 4FEAD319 		lsr	r9, r3, #7
 216              	.LVL20:
 217              		.loc 1 84 0
 218 00f2 FFF7FEFF 		bl	isValidInput
 219              	.LVL21:
 220 00f6 0028     		cmp	r0, #0
 221 00f8 C0D0     		beq	.L32
 222              		.loc 1 94 0
 223 00fa 2846     		mov	r0, r5
 224 00fc FFF7FEFF 		bl	isValidOutput
 225              	.LVL22:
 226 0100 0028     		cmp	r0, #0
 227 0102 DDD1     		bne	.L9
 228 0104 B9F1000F 		cmp	r9, #0
ARM GAS  /tmp/ccvfQcT2.s 			page 5


 229 0108 DAD1     		bne	.L9
 230 010a BEE7     		b	.L15
 231              	.L31:
 232              		.loc 1 85 0
 233 010c 94F81F34 		ldrb	r3, [r4, #1055]	@ zero_extendqisi2
 234              		.loc 1 87 0
 235 0110 3A48     		ldr	r0, .L33+12
 236              		.loc 1 85 0
 237 0112 08FB03A3 		mla	r3, r8, r3, r10
 238 0116 2344     		add	r3, r3, r4
 239 0118 93F84034 		ldrb	r3, [r3, #1088]	@ zero_extendqisi2
 240 011c EB70     		strb	r3, [r5, #3]
 241              		.loc 1 86 0
 242 011e 94F81F34 		ldrb	r3, [r4, #1055]	@ zero_extendqisi2
 243 0122 08FB03A3 		mla	r3, r8, r3, r10
 244 0126 2344     		add	r3, r3, r4
 245 0128 B3F84214 		ldrh	r1, [r3, #1090]
 246 012c E980     		strh	r1, [r5, #6]	@ movhi
 247              		.loc 1 87 0
 248 012e FFF7FEFF 		bl	LogTextMessage
 249              	.LVL23:
 250              		.loc 1 88 0
 251 0132 EB88     		ldrh	r3, [r5, #6]
 252 0134 402B     		cmp	r3, #64
 253 0136 84BF     		itt	hi
 254 0138 4023     		movhi	r3, #64
 255 013a EB80     		strhhi	r3, [r5, #6]	@ movhi
 256              		.loc 1 92 0
 257 013c 0123     		movs	r3, #1
 258 013e AB72     		strb	r3, [r5, #10]
 259              		.loc 1 94 0
 260 0140 2846     		mov	r0, r5
 261 0142 FFF7FEFF 		bl	isValidOutput
 262              	.LVL24:
 263 0146 BBE7     		b	.L9
 264              	.LVL25:
 265              	.L13:
 266              	.LBE15:
 267              		.loc 1 109 0
 268 0148 2846     		mov	r0, r5
 269 014a FFF7FEFF 		bl	isValidOutput
 270              	.LVL26:
 271 014e 48B3     		cbz	r0, .L5
 272              	.LBB16:
 273              		.loc 1 110 0
 274 0150 AA78     		ldrb	r2, [r5, #2]	@ zero_extendqisi2
 275 0152 2B48     		ldr	r0, .L33+16
 276 0154 0521     		movs	r1, #5
 277 0156 FFF7FEFF 		bl	LogTextMessage
 278              	.LVL27:
 279              		.loc 1 112 0
 280 015a A978     		ldrb	r1, [r5, #2]	@ zero_extendqisi2
 281 015c 2046     		mov	r0, r4
 282 015e FFF7FEFF 		bl	USBH_AllocPipe
 283              	.LVL28:
 284 0162 2870     		strb	r0, [r5]
 285 0164 0146     		mov	r1, r0
ARM GAS  /tmp/ccvfQcT2.s 			page 6


 286              		.loc 1 113 0
 287 0166 94F81D04 		ldrb	r0, [r4, #1053]	@ zero_extendqisi2
 288 016a 94F81C34 		ldrb	r3, [r4, #1052]	@ zero_extendqisi2
 289 016e AA78     		ldrb	r2, [r5, #2]	@ zero_extendqisi2
 290 0170 0090     		str	r0, [sp]
 291 0172 0220     		movs	r0, #2
 292 0174 0190     		str	r0, [sp, #4]
 293 0176 A888     		ldrh	r0, [r5, #4]
 294 0178 0290     		str	r0, [sp, #8]
 295 017a 2046     		mov	r0, r4
 296 017c FFF7FEFF 		bl	USBH_OpenPipe
 297              	.LVL29:
 298              		.loc 1 120 0
 299 0180 2978     		ldrb	r1, [r5]	@ zero_extendqisi2
 300 0182 0022     		movs	r2, #0
 301 0184 2046     		mov	r0, r4
 302 0186 FFF7FEFF 		bl	USBH_LL_SetToggle
 303              	.LVL30:
 304              		.loc 1 122 0
 305 018a 1E48     		ldr	r0, .L33+20
 306 018c FFF7FEFF 		bl	LogTextMessage
 307              	.LVL31:
 308              		.loc 1 124 0
 309 0190 0022     		movs	r2, #0
 310 0192 2B78     		ldrb	r3, [r5]	@ zero_extendqisi2
 311 0194 1C49     		ldr	r1, .L33+24
 312 0196 0092     		str	r2, [sp]
 313 0198 2046     		mov	r0, r4
 314 019a 0422     		movs	r2, #4
 315 019c FFF7FEFF 		bl	USBH_BulkSendData
 316              	.LVL32:
 317              		.loc 1 127 0
 318 01a0 FFF7FEFF 		bl	usbh_midi_reset_buffer
 319              	.LVL33:
 320              	.L5:
 321              	.LBE16:
 322              		.loc 1 130 0
 323 01a4 2846     		mov	r0, r5
 324 01a6 FFF7FEFF 		bl	isValidInput
 325              	.LVL34:
 326 01aa 0028     		cmp	r0, #0
 327 01ac 3FF43DAF 		beq	.L25
 328              		.loc 1 131 0
 329 01b0 EA78     		ldrb	r2, [r5, #3]	@ zero_extendqisi2
 330 01b2 1648     		ldr	r0, .L33+28
 331 01b4 0521     		movs	r1, #5
 332 01b6 FFF7FEFF 		bl	LogTextMessage
 333              	.LVL35:
 334              		.loc 1 133 0
 335 01ba E978     		ldrb	r1, [r5, #3]	@ zero_extendqisi2
 336 01bc 2046     		mov	r0, r4
 337 01be FFF7FEFF 		bl	USBH_AllocPipe
 338              	.LVL36:
 339 01c2 6870     		strb	r0, [r5, #1]
 340 01c4 0146     		mov	r1, r0
 341              		.loc 1 134 0
 342 01c6 94F81D04 		ldrb	r0, [r4, #1053]	@ zero_extendqisi2
ARM GAS  /tmp/ccvfQcT2.s 			page 7


 343 01ca EA78     		ldrb	r2, [r5, #3]	@ zero_extendqisi2
 344 01cc 94F81C34 		ldrb	r3, [r4, #1052]	@ zero_extendqisi2
 345 01d0 0090     		str	r0, [sp]
 346 01d2 0220     		movs	r0, #2
 347 01d4 0190     		str	r0, [sp, #4]
 348 01d6 E888     		ldrh	r0, [r5, #6]
 349 01d8 0290     		str	r0, [sp, #8]
 350 01da 2046     		mov	r0, r4
 351 01dc FFF7FEFF 		bl	USBH_OpenPipe
 352              	.LVL37:
 353              		.loc 1 141 0
 354 01e0 2046     		mov	r0, r4
 355 01e2 6978     		ldrb	r1, [r5, #1]	@ zero_extendqisi2
 356 01e4 0022     		movs	r2, #0
 357 01e6 FFF7FEFF 		bl	USBH_LL_SetToggle
 358              	.LVL38:
 359              		.loc 1 148 0
 360 01ea 0020     		movs	r0, #0
 361 01ec 1DE7     		b	.L25
 362              	.L34:
 363 01ee 00BF     		.align	2
 364              	.L33:
 365 01f0 3E131508 		.word	135598910
 366 01f4 00000000 		.word	.LC0
 367 01f8 48000000 		.word	.LC2
 368 01fc 1C000000 		.word	.LC1
 369 0200 74000000 		.word	.LC3
 370 0204 A4000000 		.word	.LC4
 371 0208 00000000 		.word	.LANCHOR0
 372 020c C0000000 		.word	.LC5
 373              	.LBE13:
 374              	.LBE17:
 375              	.LBE18:
 376              	.LBE19:
 377              	.LBE20:
 378              		.cfi_endproc
 379              	.LFE133:
 380              		.size	USBH_Vendor_InterfaceInit, .-USBH_Vendor_InterfaceInit
 381              		.global	Vendor_Class
 382              		.comm	MIDI_Setup,8,4
 383              		.data
 384              		.align	2
 385              		.set	.LANCHOR0,. + 0
 386              		.type	seq.8281, %object
 387              		.size	seq.8281, 4
 388              	seq.8281:
 389 0000 4E       		.byte	78
 390 0001 73       		.byte	115
 391 0002 52       		.byte	82
 392 0003 01       		.byte	1
 393              		.type	Vendor_Class, %object
 394              		.size	Vendor_Class, 32
 395              	Vendor_Class:
 396 0004 EC000000 		.word	.LC6
 397 0008 FF       		.byte	-1
 398 0009 000000   		.space	3
 399 000c 00000000 		.word	USBH_Vendor_InterfaceInit
ARM GAS  /tmp/ccvfQcT2.s 			page 8


 400 0010 00000000 		.word	USBH_MIDI_InterfaceDeInit
 401 0014 00000000 		.word	USBH_MIDI_ClassRequest
 402 0018 00000000 		.word	USBH_MIDI_Process
 403 001c 00000000 		.word	USBH_MIDI_SOFProcess
 404 0020 00000000 		.word	0
 405              		.section	.rodata.str1.4,"aMS",%progbits,1
 406              		.align	2
 407              	.LC0:
 408 0000 55534220 		.ascii	"USB Access Virus detected\000"
 408      41636365 
 408      73732056 
 408      69727573 
 408      20646574 
 409 001a 0000     		.space	2
 410              	.LC1:
 411 001c 55534220 		.ascii	"USB Host (Virus) Input size requests : %x\000"
 411      486F7374 
 411      20285669 
 411      72757329 
 411      20496E70 
 412 0046 0000     		.space	2
 413              	.LC2:
 414 0048 55534220 		.ascii	"USB Host (Virus) Output size requests : %x\000"
 414      486F7374 
 414      20285669 
 414      72757329 
 414      204F7574 
 415 0073 00       		.space	1
 416              	.LC3:
 417 0074 55534220 		.ascii	"USB Host (Virus) Output connected to %x : %x\000"
 417      486F7374 
 417      20285669 
 417      72757329 
 417      204F7574 
 418 00a1 000000   		.space	3
 419              	.LC4:
 420 00a4 53776974 		.ascii	"Switch Virus to USB mode\000"
 420      63682056 
 420      69727573 
 420      20746F20 
 420      55534220 
 421 00bd 000000   		.space	3
 422              	.LC5:
 423 00c0 55534220 		.ascii	"USB Host (Virus) Input connected to %x : %x\000"
 423      486F7374 
 423      20285669 
 423      72757329 
 423      20496E70 
 424              	.LC6:
 425 00ec 56454E00 		.ascii	"VEN\000"
 426              		.text
 427              	.Letext0:
 428              		.file 2 "/d_drive/axoloti/platform_linux/arm-none-eabi/include/machine/_default_types.h"
 429              		.file 3 "/d_drive/axoloti/platform_linux/arm-none-eabi/include/sys/_stdint.h"
 430              		.file 4 "/d_drive/axoloti/platform_linux/lib/gcc/arm-none-eabi/4.9.3/include/stddef.h"
 431              		.file 5 "/d_drive/axoloti/platform_linux/../chibios/os/ports/GCC/ARMCMx/chtypes.h"
 432              		.file 6 "/d_drive/axoloti/platform_linux/../chibios/os/kernel/include/chlists.h"
ARM GAS  /tmp/ccvfQcT2.s 			page 9


 433              		.file 7 "/d_drive/axoloti/platform_linux/../chibios/os/kernel/include/chthreads.h"
 434              		.file 8 "/d_drive/axoloti/platform_linux/../chibios/os/ports/GCC/ARMCMx/chcore_v7m.h"
 435              		.file 9 "/d_drive/axoloti/platform_linux/../chibios/os/kernel/include/chmtx.h"
 436              		.file 10 "./STM32_USB_Host_Library/Core/Inc/usbh_def.h"
 437              		.file 11 "usbh_midi_core.h"
 438              		.file 12 "/d_drive/axoloti/platform_linux/../CMSIS//Include/core_cm4.h"
 439              		.file 13 "./STM32_USB_Host_Library/Core/Inc/usbh_pipes.h"
 440              		.file 14 "./STM32_USB_Host_Library/Core/Inc/usbh_core.h"
 441              		.file 15 "./STM32_USB_Host_Library/Core/Inc/usbh_ioreq.h"
 442              		.file 16 "./usbh_conf.h"