ARM GAS  /tmp/ccL5iU9U.s 			page 1


   1              		.syntax unified
   2              		.cpu cortex-m4
   3              		.eabi_attribute 27, 1
   4              		.eabi_attribute 28, 1
   5              		.fpu fpv4-sp-d16
   6              		.eabi_attribute 20, 1
   7              		.eabi_attribute 21, 1
   8              		.eabi_attribute 23, 3
   9              		.eabi_attribute 24, 1
  10              		.eabi_attribute 25, 1
  11              		.eabi_attribute 26, 1
  12              		.eabi_attribute 30, 2
  13              		.eabi_attribute 34, 1
  14              		.eabi_attribute 18, 4
  15              		.thumb
  16              		.file	"usbh_hid_mouse.c"
  17              		.text
  18              	.Ltext0:
  19              		.cfi_sections	.debug_frame
  20              		.align	2
  21              		.p2align 4,,15
  22              		.global	USBH_HID_MouseInit
  23              		.thumb
  24              		.thumb_func
  25              		.type	USBH_HID_MouseInit, %function
  26              	USBH_HID_MouseInit:
  27              	.LFB133:
  28              		.file 1 "./STM32_USB_Host_Library/Class/HID/Src/usbh_hid_mouse.c"
  29              		.loc 1 177 0
  30              		.cfi_startproc
  31              		@ args = 0, pretend = 0, frame = 0
  32              		@ frame_needed = 0, uses_anonymous_args = 0
  33              	.LVL0:
  34 0000 38B5     		push	{r3, r4, r5, lr}
  35              		.cfi_def_cfa_offset 16
  36              		.cfi_offset 3, -16
  37              		.cfi_offset 4, -12
  38              		.cfi_offset 5, -8
  39              		.cfi_offset 14, -4
  40              		.loc 1 178 0
  41 0002 D0F8A435 		ldr	r3, [r0, #1444]
  42              		.loc 1 180 0
  43 0006 0C4A     		ldr	r2, .L4
  44              		.loc 1 186 0
  45 0008 0C4C     		ldr	r4, .L4+4
  46              		.loc 1 177 0
  47 000a 0146     		mov	r1, r0
  48              		.loc 1 178 0
  49 000c D869     		ldr	r0, [r3, #28]
  50              	.LVL1:
  51              		.loc 1 188 0
  52 000e 058B     		ldrh	r5, [r0, #24]
  53              		.loc 1 192 0
  54 0010 4461     		str	r4, [r0, #20]
  55              		.loc 1 180 0
  56 0012 0023     		movs	r3, #0
  57              		.loc 1 188 0
ARM GAS  /tmp/ccL5iU9U.s 			page 2


  58 0014 042D     		cmp	r5, #4
  59              		.loc 1 180 0
  60 0016 1370     		strb	r3, [r2]
  61              		.loc 1 181 0
  62 0018 5370     		strb	r3, [r2, #1]
  63              		.loc 1 182 0
  64 001a 9370     		strb	r3, [r2, #2]
  65              		.loc 1 183 0
  66 001c D370     		strb	r3, [r2, #3]
  67              		.loc 1 184 0
  68 001e 1371     		strb	r3, [r2, #4]
  69              		.loc 1 186 0
  70 0020 2360     		str	r3, [r4]
  71              		.loc 1 190 0
  72 0022 84BF     		itt	hi
  73 0024 0423     		movhi	r3, #4
  74 0026 0383     		strhhi	r3, [r0, #24]	@ movhi
  75              		.loc 1 193 0
  76 0028 01F50771 		add	r1, r1, #540
  77              	.LVL2:
  78 002c 0830     		adds	r0, r0, #8
  79              	.LVL3:
  80 002e 2822     		movs	r2, #40
  81 0030 FFF7FEFF 		bl	fifo_init
  82              	.LVL4:
  83              		.loc 1 196 0
  84 0034 0020     		movs	r0, #0
  85 0036 38BD     		pop	{r3, r4, r5, pc}
  86              	.L5:
  87              		.align	2
  88              	.L4:
  89 0038 00000000 		.word	mouse_info
  90 003c 00000000 		.word	mouse_report_data
  91              		.cfi_endproc
  92              	.LFE133:
  93              		.size	USBH_HID_MouseInit, .-USBH_HID_MouseInit
  94              		.align	2
  95              		.p2align 4,,15
  96              		.global	USBH_HID_GetMouseInfo
  97              		.thumb
  98              		.thumb_func
  99              		.type	USBH_HID_GetMouseInfo, %function
 100              	USBH_HID_GetMouseInfo:
 101              	.LFB134:
 102              		.loc 1 205 0
 103              		.cfi_startproc
 104              		@ args = 0, pretend = 0, frame = 0
 105              		@ frame_needed = 0, uses_anonymous_args = 0
 106              	.LVL5:
 107              	.LBB4:
 108              	.LBB5:
 109              		.loc 1 224 0
 110 0040 D0F8A435 		ldr	r3, [r0, #1444]
 111              	.LBE5:
 112              	.LBE4:
 113              		.loc 1 205 0
 114 0044 10B5     		push	{r4, lr}
ARM GAS  /tmp/ccL5iU9U.s 			page 3


 115              		.cfi_def_cfa_offset 8
 116              		.cfi_offset 4, -8
 117              		.cfi_offset 14, -4
 118              	.LBB9:
 119              	.LBB6:
 120              		.loc 1 224 0
 121 0046 DC69     		ldr	r4, [r3, #28]
 122              	.LVL6:
 123              		.loc 1 226 0
 124 0048 228B     		ldrh	r2, [r4, #24]
 125 004a 12B9     		cbnz	r2, .L15
 126              	.LVL7:
 127              	.L7:
 128              	.LBE6:
 129              	.LBE9:
 130              		.loc 1 212 0
 131 004c 0023     		movs	r3, #0
 132              	.LVL8:
 133              	.L12:
 134              		.loc 1 214 0
 135 004e 1846     		mov	r0, r3
 136 0050 10BD     		pop	{r4, pc}
 137              	.LVL9:
 138              	.L15:
 139              	.LBB10:
 140              	.LBB7:
 141              		.loc 1 231 0
 142 0052 04F10800 		add	r0, r4, #8
 143              	.LVL10:
 144 0056 1149     		ldr	r1, .L16
 145 0058 FFF7FEFF 		bl	fifo_read
 146              	.LVL11:
 147 005c 238B     		ldrh	r3, [r4, #24]
 148 005e 8342     		cmp	r3, r0
 149 0060 F4D1     		bne	.L7
 150              		.loc 1 235 0
 151 0062 0021     		movs	r1, #0
 152 0064 0E48     		ldr	r0, .L16+4
 153 0066 0F4C     		ldr	r4, .L16+8
 154              	.LVL12:
 155 0068 FFF7FEFF 		bl	HID_ReadItem
 156              	.LVL13:
 157              		.loc 1 236 0
 158 006c 0021     		movs	r1, #0
 159              		.loc 1 235 0
 160 006e 2070     		strb	r0, [r4]
 161              		.loc 1 236 0
 162 0070 0D48     		ldr	r0, .L16+12
 163 0072 FFF7FEFF 		bl	HID_ReadItem
 164              	.LVL14:
 165              		.loc 1 238 0
 166 0076 0021     		movs	r1, #0
 167              		.loc 1 236 0
 168 0078 6070     		strb	r0, [r4, #1]
 169              		.loc 1 238 0
 170 007a 0C48     		ldr	r0, .L16+16
 171 007c FFF7FEFF 		bl	HID_ReadItem
ARM GAS  /tmp/ccL5iU9U.s 			page 4


 172              	.LVL15:
 173              		.loc 1 239 0
 174 0080 0021     		movs	r1, #0
 175              		.loc 1 238 0
 176 0082 A070     		strb	r0, [r4, #2]
 177              		.loc 1 239 0
 178 0084 0A48     		ldr	r0, .L16+20
 179 0086 FFF7FEFF 		bl	HID_ReadItem
 180              	.LVL16:
 181              		.loc 1 240 0
 182 008a 0021     		movs	r1, #0
 183              		.loc 1 239 0
 184 008c E070     		strb	r0, [r4, #3]
 185              		.loc 1 240 0
 186 008e 0948     		ldr	r0, .L16+24
 187 0090 FFF7FEFF 		bl	HID_ReadItem
 188              	.LVL17:
 189              	.LBE7:
 190              	.LBE10:
 191              		.loc 1 208 0
 192 0094 2346     		mov	r3, r4
 193              	.LBB11:
 194              	.LBB8:
 195              		.loc 1 240 0
 196 0096 2071     		strb	r0, [r4, #4]
 197 0098 D9E7     		b	.L12
 198              	.L17:
 199 009a 00BF     		.align	2
 200              	.L16:
 201 009c 00000000 		.word	mouse_report_data
 202 00a0 00000000 		.word	.LANCHOR0
 203 00a4 00000000 		.word	mouse_info
 204 00a8 20000000 		.word	.LANCHOR0+32
 205 00ac 40000000 		.word	.LANCHOR0+64
 206 00b0 60000000 		.word	.LANCHOR0+96
 207 00b4 80000000 		.word	.LANCHOR0+128
 208              	.LBE8:
 209              	.LBE11:
 210              		.cfi_endproc
 211              	.LFE134:
 212              		.size	USBH_HID_GetMouseInfo, .-USBH_HID_GetMouseInfo
 213              		.comm	mouse_report_data,4,4
 214              		.comm	mouse_info,5,4
 215              		.section	.rodata
 216              		.align	2
 217              		.set	.LANCHOR0,. + 0
 218              		.type	prop_x, %object
 219              		.size	prop_x, 32
 220              	prop_x:
 221 0000 01000000 		.word	mouse_report_data+1
 222 0004 08000000 		.word	8
 223 0008 00       		.byte	0
 224 0009 00       		.byte	0
 225 000a 01       		.byte	1
 226 000b 00       		.space	1
 227 000c 00000000 		.word	0
 228 0010 FFFF0000 		.word	65535
ARM GAS  /tmp/ccL5iU9U.s 			page 5


 229 0014 00000000 		.word	0
 230 0018 FFFF0000 		.word	65535
 231 001c 01000000 		.word	1
 232              		.type	prop_y, %object
 233              		.size	prop_y, 32
 234              	prop_y:
 235 0020 02000000 		.word	mouse_report_data+2
 236 0024 08000000 		.word	8
 237 0028 00       		.byte	0
 238 0029 00       		.byte	0
 239 002a 01       		.byte	1
 240 002b 00       		.space	1
 241 002c 00000000 		.word	0
 242 0030 FFFF0000 		.word	65535
 243 0034 00000000 		.word	0
 244 0038 FFFF0000 		.word	65535
 245 003c 01000000 		.word	1
 246              		.type	prop_b1, %object
 247              		.size	prop_b1, 32
 248              	prop_b1:
 249 0040 00000000 		.word	mouse_report_data
 250 0044 01000000 		.word	1
 251 0048 00       		.byte	0
 252 0049 00       		.byte	0
 253 004a 00       		.byte	0
 254 004b 00       		.space	1
 255 004c 00000000 		.word	0
 256 0050 01000000 		.word	1
 257 0054 00000000 		.word	0
 258 0058 01000000 		.word	1
 259 005c 01000000 		.word	1
 260              		.type	prop_b2, %object
 261              		.size	prop_b2, 32
 262              	prop_b2:
 263 0060 00000000 		.word	mouse_report_data
 264 0064 01000000 		.word	1
 265 0068 01       		.byte	1
 266 0069 00       		.byte	0
 267 006a 00       		.byte	0
 268 006b 00       		.space	1
 269 006c 00000000 		.word	0
 270 0070 01000000 		.word	1
 271 0074 00000000 		.word	0
 272 0078 01000000 		.word	1
 273 007c 01000000 		.word	1
 274              		.type	prop_b3, %object
 275              		.size	prop_b3, 32
 276              	prop_b3:
 277 0080 00000000 		.word	mouse_report_data
 278 0084 01000000 		.word	1
 279 0088 02       		.byte	2
 280 0089 00       		.byte	0
 281 008a 00       		.byte	0
 282 008b 00       		.space	1
 283 008c 00000000 		.word	0
 284 0090 01000000 		.word	1
 285 0094 00000000 		.word	0
ARM GAS  /tmp/ccL5iU9U.s 			page 6


 286 0098 01000000 		.word	1
 287 009c 01000000 		.word	1
 288              		.text
 289              	.Letext0:
 290              		.file 2 "/home/sbcu/Dropbox/pcb-layouts/axo-on-discovery-board/axoloti/platform_linux/arm-none-eab
 291              		.file 3 "/home/sbcu/Dropbox/pcb-layouts/axo-on-discovery-board/axoloti/platform_linux/arm-none-eab
 292              		.file 4 "/home/sbcu/Dropbox/pcb-layouts/axo-on-discovery-board/axoloti/platform_linux/../chibios/o
 293              		.file 5 "/home/sbcu/Dropbox/pcb-layouts/axo-on-discovery-board/axoloti/platform_linux/../chibios/o
 294              		.file 6 "/home/sbcu/Dropbox/pcb-layouts/axo-on-discovery-board/axoloti/platform_linux/../chibios/o
 295              		.file 7 "/home/sbcu/Dropbox/pcb-layouts/axo-on-discovery-board/axoloti/platform_linux/../chibios/o
 296              		.file 8 "/home/sbcu/Dropbox/pcb-layouts/axo-on-discovery-board/axoloti/platform_linux/../chibios/o
 297              		.file 9 "./STM32_USB_Host_Library/Core/Inc/usbh_def.h"
 298              		.file 10 "./STM32_USB_Host_Library/Class/HID/Inc/usbh_hid.h"
 299              		.file 11 "./STM32_USB_Host_Library/Class/HID/Inc/usbh_hid_mouse.h"
 300              		.file 12 "./STM32_USB_Host_Library/Class/HID/Inc/usbh_hid_parser.h"
 301              		.file 13 "/home/sbcu/Dropbox/pcb-layouts/axo-on-discovery-board/axoloti/platform_linux/../CMSIS//I
 302              		.section	.debug_info,"",%progbits
 303              	.Ldebug_info0:
 304 0000 85110000 		.4byte	0x1185
 305 0004 0400     		.2byte	0x4
 306 0006 00000000 		.4byte	.Ldebug_abbrev0
 307 000a 04       		.byte	0x4
 308 000b 01       		.uleb128 0x1
 309 000c 1F0C0000 		.4byte	.LASF266
 310 0010 01       		.byte	0x1
 311 0011 5F080000 		.4byte	.LASF267
 312 0015 680B0000 		.4byte	.LASF268
 313 0019 00000000 		.4byte	.Ltext0
 314 001d B8000000 		.4byte	.Letext0-.Ltext0
 315 0021 00000000 		.4byte	.Ldebug_line0
 316 0025 02       		.uleb128 0x2
 317 0026 01       		.byte	0x1
 318 0027 06       		.byte	0x6
 319 0028 D7020000 		.4byte	.LASF0
 320 002c 03       		.uleb128 0x3
 321 002d B1010000 		.4byte	.LASF2
 322 0031 02       		.byte	0x2
 323 0032 1D       		.byte	0x1d
 324 0033 37000000 		.4byte	0x37
 325 0037 02       		.uleb128 0x2
 326 0038 01       		.byte	0x1
 327 0039 08       		.byte	0x8
 328 003a 69030000 		.4byte	.LASF1
 329 003e 03       		.uleb128 0x3
 330 003f 1F0A0000 		.4byte	.LASF3
 331 0043 02       		.byte	0x2
 332 0044 29       		.byte	0x29
 333 0045 49000000 		.4byte	0x49
 334 0049 02       		.uleb128 0x2
 335 004a 02       		.byte	0x2
 336 004b 05       		.byte	0x5
 337 004c 360B0000 		.4byte	.LASF4
 338 0050 03       		.uleb128 0x3
 339 0051 05040000 		.4byte	.LASF5
 340 0055 02       		.byte	0x2
 341 0056 2B       		.byte	0x2b
 342 0057 5B000000 		.4byte	0x5b
ARM GAS  /tmp/ccL5iU9U.s 			page 7


 343 005b 02       		.uleb128 0x2
 344 005c 02       		.byte	0x2
 345 005d 07       		.byte	0x7
 346 005e E30D0000 		.4byte	.LASF6
 347 0062 03       		.uleb128 0x3
 348 0063 1F0E0000 		.4byte	.LASF7
 349 0067 02       		.byte	0x2
 350 0068 3F       		.byte	0x3f
 351 0069 6D000000 		.4byte	0x6d
 352 006d 02       		.uleb128 0x2
 353 006e 04       		.byte	0x4
 354 006f 05       		.byte	0x5
 355 0070 02020000 		.4byte	.LASF8
 356 0074 03       		.uleb128 0x3
 357 0075 80060000 		.4byte	.LASF9
 358 0079 02       		.byte	0x2
 359 007a 41       		.byte	0x41
 360 007b 7F000000 		.4byte	0x7f
 361 007f 02       		.uleb128 0x2
 362 0080 04       		.byte	0x4
 363 0081 07       		.byte	0x7
 364 0082 A2050000 		.4byte	.LASF10
 365 0086 02       		.uleb128 0x2
 366 0087 08       		.byte	0x8
 367 0088 05       		.byte	0x5
 368 0089 91060000 		.4byte	.LASF11
 369 008d 02       		.uleb128 0x2
 370 008e 08       		.byte	0x8
 371 008f 07       		.byte	0x7
 372 0090 1C090000 		.4byte	.LASF12
 373 0094 04       		.uleb128 0x4
 374 0095 04       		.byte	0x4
 375 0096 05       		.byte	0x5
 376 0097 696E7400 		.ascii	"int\000"
 377 009b 02       		.uleb128 0x2
 378 009c 04       		.byte	0x4
 379 009d 07       		.byte	0x7
 380 009e 45070000 		.4byte	.LASF13
 381 00a2 03       		.uleb128 0x3
 382 00a3 ED020000 		.4byte	.LASF14
 383 00a7 03       		.byte	0x3
 384 00a8 14       		.byte	0x14
 385 00a9 2C000000 		.4byte	0x2c
 386 00ad 03       		.uleb128 0x3
 387 00ae C40B0000 		.4byte	.LASF15
 388 00b2 03       		.byte	0x3
 389 00b3 19       		.byte	0x19
 390 00b4 3E000000 		.4byte	0x3e
 391 00b8 03       		.uleb128 0x3
 392 00b9 68090000 		.4byte	.LASF16
 393 00bd 03       		.byte	0x3
 394 00be 1A       		.byte	0x1a
 395 00bf 50000000 		.4byte	0x50
 396 00c3 03       		.uleb128 0x3
 397 00c4 82000000 		.4byte	.LASF17
 398 00c8 03       		.byte	0x3
 399 00c9 1F       		.byte	0x1f
ARM GAS  /tmp/ccL5iU9U.s 			page 8


 400 00ca 62000000 		.4byte	0x62
 401 00ce 03       		.uleb128 0x3
 402 00cf 650D0000 		.4byte	.LASF18
 403 00d3 03       		.byte	0x3
 404 00d4 20       		.byte	0x20
 405 00d5 74000000 		.4byte	0x74
 406 00d9 02       		.uleb128 0x2
 407 00da 04       		.byte	0x4
 408 00db 07       		.byte	0x7
 409 00dc 2C000000 		.4byte	.LASF19
 410 00e0 05       		.uleb128 0x5
 411 00e1 CE000000 		.4byte	0xce
 412 00e5 06       		.uleb128 0x6
 413 00e6 CE000000 		.4byte	0xce
 414 00ea F5000000 		.4byte	0xf5
 415 00ee 07       		.uleb128 0x7
 416 00ef D9000000 		.4byte	0xd9
 417 00f3 01       		.byte	0x1
 418 00f4 00       		.byte	0
 419 00f5 06       		.uleb128 0x6
 420 00f6 CE000000 		.4byte	0xce
 421 00fa 05010000 		.4byte	0x105
 422 00fe 07       		.uleb128 0x7
 423 00ff D9000000 		.4byte	0xd9
 424 0103 00       		.byte	0
 425 0104 00       		.byte	0
 426 0105 05       		.uleb128 0x5
 427 0106 A2000000 		.4byte	0xa2
 428 010a 06       		.uleb128 0x6
 429 010b CE000000 		.4byte	0xce
 430 010f 1A010000 		.4byte	0x11a
 431 0113 07       		.uleb128 0x7
 432 0114 D9000000 		.4byte	0xd9
 433 0118 0E       		.byte	0xe
 434 0119 00       		.byte	0
 435 011a 05       		.uleb128 0x5
 436 011b C3000000 		.4byte	0xc3
 437 011f 08       		.uleb128 0x8
 438 0120 04       		.byte	0x4
 439 0121 02       		.uleb128 0x2
 440 0122 01       		.byte	0x1
 441 0123 08       		.byte	0x8
 442 0124 EE030000 		.4byte	.LASF20
 443 0128 09       		.uleb128 0x9
 444 0129 04       		.byte	0x4
 445 012a 2E010000 		.4byte	0x12e
 446 012e 0A       		.uleb128 0xa
 447 012f 21010000 		.4byte	0x121
 448 0133 02       		.uleb128 0x2
 449 0134 01       		.byte	0x1
 450 0135 02       		.byte	0x2
 451 0136 A8030000 		.4byte	.LASF21
 452 013a 03       		.uleb128 0x3
 453 013b 8C0A0000 		.4byte	.LASF22
 454 013f 04       		.byte	0x4
 455 0140 2C       		.byte	0x2c
 456 0141 A2000000 		.4byte	0xa2
ARM GAS  /tmp/ccL5iU9U.s 			page 9


 457 0145 03       		.uleb128 0x3
 458 0146 7C020000 		.4byte	.LASF23
 459 014a 04       		.byte	0x4
 460 014b 2D       		.byte	0x2d
 461 014c A2000000 		.4byte	0xa2
 462 0150 03       		.uleb128 0x3
 463 0151 A9090000 		.4byte	.LASF24
 464 0155 04       		.byte	0x4
 465 0156 2F       		.byte	0x2f
 466 0157 A2000000 		.4byte	0xa2
 467 015b 03       		.uleb128 0x3
 468 015c 48000000 		.4byte	.LASF25
 469 0160 04       		.byte	0x4
 470 0161 30       		.byte	0x30
 471 0162 CE000000 		.4byte	0xce
 472 0166 03       		.uleb128 0x3
 473 0167 A3090000 		.4byte	.LASF26
 474 016b 04       		.byte	0x4
 475 016c 31       		.byte	0x31
 476 016d C3000000 		.4byte	0xc3
 477 0171 03       		.uleb128 0x3
 478 0172 33030000 		.4byte	.LASF27
 479 0176 04       		.byte	0x4
 480 0177 33       		.byte	0x33
 481 0178 CE000000 		.4byte	0xce
 482 017c 03       		.uleb128 0x3
 483 017d F50B0000 		.4byte	.LASF28
 484 0181 05       		.byte	0x5
 485 0182 2A       		.byte	0x2a
 486 0183 87010000 		.4byte	0x187
 487 0187 0B       		.uleb128 0xb
 488 0188 F50B0000 		.4byte	.LASF28
 489 018c 40       		.byte	0x40
 490 018d 06       		.byte	0x6
 491 018e 5E       		.byte	0x5e
 492 018f 60020000 		.4byte	0x260
 493 0193 0C       		.uleb128 0xc
 494 0194 12020000 		.4byte	.LASF29
 495 0198 06       		.byte	0x6
 496 0199 5F       		.byte	0x5f
 497 019a 81020000 		.4byte	0x281
 498 019e 00       		.byte	0
 499 019f 0C       		.uleb128 0xc
 500 01a0 40020000 		.4byte	.LASF30
 501 01a4 06       		.byte	0x6
 502 01a5 61       		.byte	0x61
 503 01a6 81020000 		.4byte	0x281
 504 01aa 04       		.byte	0x4
 505 01ab 0C       		.uleb128 0xc
 506 01ac FE030000 		.4byte	.LASF31
 507 01b0 06       		.byte	0x6
 508 01b1 63       		.byte	0x63
 509 01b2 5B010000 		.4byte	0x15b
 510 01b6 08       		.byte	0x8
 511 01b7 0C       		.uleb128 0xc
 512 01b8 35000000 		.4byte	.LASF32
 513 01bc 06       		.byte	0x6
ARM GAS  /tmp/ccL5iU9U.s 			page 10


 514 01bd 64       		.byte	0x64
 515 01be 09040000 		.4byte	0x409
 516 01c2 0C       		.byte	0xc
 517 01c3 0C       		.uleb128 0xc
 518 01c4 F5010000 		.4byte	.LASF33
 519 01c8 06       		.byte	0x6
 520 01c9 66       		.byte	0x66
 521 01ca 81020000 		.4byte	0x281
 522 01ce 10       		.byte	0x10
 523 01cf 0C       		.uleb128 0xc
 524 01d0 59090000 		.4byte	.LASF34
 525 01d4 06       		.byte	0x6
 526 01d5 67       		.byte	0x67
 527 01d6 81020000 		.4byte	0x281
 528 01da 14       		.byte	0x14
 529 01db 0C       		.uleb128 0xc
 530 01dc 3B0E0000 		.4byte	.LASF35
 531 01e0 06       		.byte	0x6
 532 01e1 6E       		.byte	0x6e
 533 01e2 28010000 		.4byte	0x128
 534 01e6 18       		.byte	0x18
 535 01e7 0C       		.uleb128 0xc
 536 01e8 770E0000 		.4byte	.LASF36
 537 01ec 06       		.byte	0x6
 538 01ed 79       		.byte	0x79
 539 01ee 45010000 		.4byte	0x145
 540 01f2 1C       		.byte	0x1c
 541 01f3 0C       		.uleb128 0xc
 542 01f4 28070000 		.4byte	.LASF37
 543 01f8 06       		.byte	0x6
 544 01f9 7D       		.byte	0x7d
 545 01fa 3A010000 		.4byte	0x13a
 546 01fe 1D       		.byte	0x1d
 547 01ff 0C       		.uleb128 0xc
 548 0200 E3020000 		.4byte	.LASF38
 549 0204 06       		.byte	0x6
 550 0205 88       		.byte	0x88
 551 0206 50010000 		.4byte	0x150
 552 020a 1E       		.byte	0x1e
 553 020b 0D       		.uleb128 0xd
 554 020c 705F7500 		.ascii	"p_u\000"
 555 0210 06       		.byte	0x6
 556 0211 B4       		.byte	0xb4
 557 0212 6C040000 		.4byte	0x46c
 558 0216 20       		.byte	0x20
 559 0217 0C       		.uleb128 0xc
 560 0218 0F070000 		.4byte	.LASF39
 561 021c 06       		.byte	0x6
 562 021d B9       		.byte	0xb9
 563 021e A7020000 		.4byte	0x2a7
 564 0222 24       		.byte	0x24
 565 0223 0C       		.uleb128 0xc
 566 0224 65000000 		.4byte	.LASF40
 567 0228 06       		.byte	0x6
 568 0229 BF       		.byte	0xbf
 569 022a 87020000 		.4byte	0x287
 570 022e 28       		.byte	0x28
ARM GAS  /tmp/ccL5iU9U.s 			page 11


 571 022f 0C       		.uleb128 0xc
 572 0230 710E0000 		.4byte	.LASF41
 573 0234 06       		.byte	0x6
 574 0235 C3       		.byte	0xc3
 575 0236 66010000 		.4byte	0x166
 576 023a 30       		.byte	0x30
 577 023b 0C       		.uleb128 0xc
 578 023c 1E050000 		.4byte	.LASF42
 579 0240 06       		.byte	0x6
 580 0241 C9       		.byte	0xc9
 581 0242 71010000 		.4byte	0x171
 582 0246 34       		.byte	0x34
 583 0247 0C       		.uleb128 0xc
 584 0248 85020000 		.4byte	.LASF43
 585 024c 06       		.byte	0x6
 586 024d D0       		.byte	0xd0
 587 024e A1040000 		.4byte	0x4a1
 588 0252 38       		.byte	0x38
 589 0253 0C       		.uleb128 0xc
 590 0254 D2080000 		.4byte	.LASF44
 591 0258 06       		.byte	0x6
 592 0259 D4       		.byte	0xd4
 593 025a 5B010000 		.4byte	0x15b
 594 025e 3C       		.byte	0x3c
 595 025f 00       		.byte	0
 596 0260 0E       		.uleb128 0xe
 597 0261 08       		.byte	0x8
 598 0262 05       		.byte	0x5
 599 0263 61       		.byte	0x61
 600 0264 81020000 		.4byte	0x281
 601 0268 0C       		.uleb128 0xc
 602 0269 12020000 		.4byte	.LASF29
 603 026d 05       		.byte	0x5
 604 026e 62       		.byte	0x62
 605 026f 81020000 		.4byte	0x281
 606 0273 00       		.byte	0
 607 0274 0C       		.uleb128 0xc
 608 0275 40020000 		.4byte	.LASF30
 609 0279 05       		.byte	0x5
 610 027a 64       		.byte	0x64
 611 027b 81020000 		.4byte	0x281
 612 027f 04       		.byte	0x4
 613 0280 00       		.byte	0
 614 0281 09       		.uleb128 0x9
 615 0282 04       		.byte	0x4
 616 0283 7C010000 		.4byte	0x17c
 617 0287 03       		.uleb128 0x3
 618 0288 8F0D0000 		.4byte	.LASF45
 619 028c 05       		.byte	0x5
 620 028d 66       		.byte	0x66
 621 028e 60020000 		.4byte	0x260
 622 0292 0E       		.uleb128 0xe
 623 0293 04       		.byte	0x4
 624 0294 05       		.byte	0x5
 625 0295 6B       		.byte	0x6b
 626 0296 A7020000 		.4byte	0x2a7
 627 029a 0C       		.uleb128 0xc
ARM GAS  /tmp/ccL5iU9U.s 			page 12


 628 029b 12020000 		.4byte	.LASF29
 629 029f 05       		.byte	0x5
 630 02a0 6D       		.byte	0x6d
 631 02a1 81020000 		.4byte	0x281
 632 02a5 00       		.byte	0
 633 02a6 00       		.byte	0
 634 02a7 03       		.uleb128 0x3
 635 02a8 03080000 		.4byte	.LASF46
 636 02ac 05       		.byte	0x5
 637 02ad 70       		.byte	0x70
 638 02ae 92020000 		.4byte	0x292
 639 02b2 03       		.uleb128 0x3
 640 02b3 8F020000 		.4byte	.LASF47
 641 02b7 07       		.byte	0x7
 642 02b8 E5       		.byte	0xe5
 643 02b9 1F010000 		.4byte	0x11f
 644 02bd 0F       		.uleb128 0xf
 645 02be 08050000 		.4byte	.LASF48
 646 02c2 64       		.byte	0x64
 647 02c3 07       		.byte	0x7
 648 02c4 0C01     		.2byte	0x10c
 649 02c6 09040000 		.4byte	0x409
 650 02ca 10       		.uleb128 0x10
 651 02cb 73313600 		.ascii	"s16\000"
 652 02cf 07       		.byte	0x7
 653 02d0 0E01     		.2byte	0x10e
 654 02d2 B2020000 		.4byte	0x2b2
 655 02d6 00       		.byte	0
 656 02d7 10       		.uleb128 0x10
 657 02d8 73313700 		.ascii	"s17\000"
 658 02dc 07       		.byte	0x7
 659 02dd 0F01     		.2byte	0x10f
 660 02df B2020000 		.4byte	0x2b2
 661 02e3 04       		.byte	0x4
 662 02e4 10       		.uleb128 0x10
 663 02e5 73313800 		.ascii	"s18\000"
 664 02e9 07       		.byte	0x7
 665 02ea 1001     		.2byte	0x110
 666 02ec B2020000 		.4byte	0x2b2
 667 02f0 08       		.byte	0x8
 668 02f1 10       		.uleb128 0x10
 669 02f2 73313900 		.ascii	"s19\000"
 670 02f6 07       		.byte	0x7
 671 02f7 1101     		.2byte	0x111
 672 02f9 B2020000 		.4byte	0x2b2
 673 02fd 0C       		.byte	0xc
 674 02fe 10       		.uleb128 0x10
 675 02ff 73323000 		.ascii	"s20\000"
 676 0303 07       		.byte	0x7
 677 0304 1201     		.2byte	0x112
 678 0306 B2020000 		.4byte	0x2b2
 679 030a 10       		.byte	0x10
 680 030b 10       		.uleb128 0x10
 681 030c 73323100 		.ascii	"s21\000"
 682 0310 07       		.byte	0x7
 683 0311 1301     		.2byte	0x113
 684 0313 B2020000 		.4byte	0x2b2
ARM GAS  /tmp/ccL5iU9U.s 			page 13


 685 0317 14       		.byte	0x14
 686 0318 10       		.uleb128 0x10
 687 0319 73323200 		.ascii	"s22\000"
 688 031d 07       		.byte	0x7
 689 031e 1401     		.2byte	0x114
 690 0320 B2020000 		.4byte	0x2b2
 691 0324 18       		.byte	0x18
 692 0325 10       		.uleb128 0x10
 693 0326 73323300 		.ascii	"s23\000"
 694 032a 07       		.byte	0x7
 695 032b 1501     		.2byte	0x115
 696 032d B2020000 		.4byte	0x2b2
 697 0331 1C       		.byte	0x1c
 698 0332 10       		.uleb128 0x10
 699 0333 73323400 		.ascii	"s24\000"
 700 0337 07       		.byte	0x7
 701 0338 1601     		.2byte	0x116
 702 033a B2020000 		.4byte	0x2b2
 703 033e 20       		.byte	0x20
 704 033f 10       		.uleb128 0x10
 705 0340 73323500 		.ascii	"s25\000"
 706 0344 07       		.byte	0x7
 707 0345 1701     		.2byte	0x117
 708 0347 B2020000 		.4byte	0x2b2
 709 034b 24       		.byte	0x24
 710 034c 10       		.uleb128 0x10
 711 034d 73323600 		.ascii	"s26\000"
 712 0351 07       		.byte	0x7
 713 0352 1801     		.2byte	0x118
 714 0354 B2020000 		.4byte	0x2b2
 715 0358 28       		.byte	0x28
 716 0359 10       		.uleb128 0x10
 717 035a 73323700 		.ascii	"s27\000"
 718 035e 07       		.byte	0x7
 719 035f 1901     		.2byte	0x119
 720 0361 B2020000 		.4byte	0x2b2
 721 0365 2C       		.byte	0x2c
 722 0366 10       		.uleb128 0x10
 723 0367 73323800 		.ascii	"s28\000"
 724 036b 07       		.byte	0x7
 725 036c 1A01     		.2byte	0x11a
 726 036e B2020000 		.4byte	0x2b2
 727 0372 30       		.byte	0x30
 728 0373 10       		.uleb128 0x10
 729 0374 73323900 		.ascii	"s29\000"
 730 0378 07       		.byte	0x7
 731 0379 1B01     		.2byte	0x11b
 732 037b B2020000 		.4byte	0x2b2
 733 037f 34       		.byte	0x34
 734 0380 10       		.uleb128 0x10
 735 0381 73333000 		.ascii	"s30\000"
 736 0385 07       		.byte	0x7
 737 0386 1C01     		.2byte	0x11c
 738 0388 B2020000 		.4byte	0x2b2
 739 038c 38       		.byte	0x38
 740 038d 10       		.uleb128 0x10
 741 038e 73333100 		.ascii	"s31\000"
ARM GAS  /tmp/ccL5iU9U.s 			page 14


 742 0392 07       		.byte	0x7
 743 0393 1D01     		.2byte	0x11d
 744 0395 B2020000 		.4byte	0x2b2
 745 0399 3C       		.byte	0x3c
 746 039a 10       		.uleb128 0x10
 747 039b 723400   		.ascii	"r4\000"
 748 039e 07       		.byte	0x7
 749 039f 1F01     		.2byte	0x11f
 750 03a1 B2020000 		.4byte	0x2b2
 751 03a5 40       		.byte	0x40
 752 03a6 10       		.uleb128 0x10
 753 03a7 723500   		.ascii	"r5\000"
 754 03aa 07       		.byte	0x7
 755 03ab 2001     		.2byte	0x120
 756 03ad B2020000 		.4byte	0x2b2
 757 03b1 44       		.byte	0x44
 758 03b2 10       		.uleb128 0x10
 759 03b3 723600   		.ascii	"r6\000"
 760 03b6 07       		.byte	0x7
 761 03b7 2101     		.2byte	0x121
 762 03b9 B2020000 		.4byte	0x2b2
 763 03bd 48       		.byte	0x48
 764 03be 10       		.uleb128 0x10
 765 03bf 723700   		.ascii	"r7\000"
 766 03c2 07       		.byte	0x7
 767 03c3 2201     		.2byte	0x122
 768 03c5 B2020000 		.4byte	0x2b2
 769 03c9 4C       		.byte	0x4c
 770 03ca 10       		.uleb128 0x10
 771 03cb 723800   		.ascii	"r8\000"
 772 03ce 07       		.byte	0x7
 773 03cf 2301     		.2byte	0x123
 774 03d1 B2020000 		.4byte	0x2b2
 775 03d5 50       		.byte	0x50
 776 03d6 10       		.uleb128 0x10
 777 03d7 723900   		.ascii	"r9\000"
 778 03da 07       		.byte	0x7
 779 03db 2401     		.2byte	0x124
 780 03dd B2020000 		.4byte	0x2b2
 781 03e1 54       		.byte	0x54
 782 03e2 10       		.uleb128 0x10
 783 03e3 72313000 		.ascii	"r10\000"
 784 03e7 07       		.byte	0x7
 785 03e8 2501     		.2byte	0x125
 786 03ea B2020000 		.4byte	0x2b2
 787 03ee 58       		.byte	0x58
 788 03ef 10       		.uleb128 0x10
 789 03f0 72313100 		.ascii	"r11\000"
 790 03f4 07       		.byte	0x7
 791 03f5 2601     		.2byte	0x126
 792 03f7 B2020000 		.4byte	0x2b2
 793 03fb 5C       		.byte	0x5c
 794 03fc 10       		.uleb128 0x10
 795 03fd 6C7200   		.ascii	"lr\000"
 796 0400 07       		.byte	0x7
 797 0401 2701     		.2byte	0x127
 798 0403 B2020000 		.4byte	0x2b2
ARM GAS  /tmp/ccL5iU9U.s 			page 15


 799 0407 60       		.byte	0x60
 800 0408 00       		.byte	0
 801 0409 0F       		.uleb128 0xf
 802 040a 3F030000 		.4byte	.LASF49
 803 040e 04       		.byte	0x4
 804 040f 07       		.byte	0x7
 805 0410 3101     		.2byte	0x131
 806 0412 24040000 		.4byte	0x424
 807 0416 10       		.uleb128 0x10
 808 0417 72313300 		.ascii	"r13\000"
 809 041b 07       		.byte	0x7
 810 041c 3201     		.2byte	0x132
 811 041e 24040000 		.4byte	0x424
 812 0422 00       		.byte	0
 813 0423 00       		.byte	0
 814 0424 09       		.uleb128 0x9
 815 0425 04       		.byte	0x4
 816 0426 BD020000 		.4byte	0x2bd
 817 042a 0B       		.uleb128 0xb
 818 042b 8B060000 		.4byte	.LASF50
 819 042f 10       		.byte	0x10
 820 0430 08       		.byte	0x8
 821 0431 2C       		.byte	0x2c
 822 0432 5B040000 		.4byte	0x45b
 823 0436 0C       		.uleb128 0xc
 824 0437 B2060000 		.4byte	.LASF51
 825 043b 08       		.byte	0x8
 826 043c 2D       		.byte	0x2d
 827 043d 87020000 		.4byte	0x287
 828 0441 00       		.byte	0
 829 0442 0C       		.uleb128 0xc
 830 0443 86010000 		.4byte	.LASF52
 831 0447 08       		.byte	0x8
 832 0448 2F       		.byte	0x2f
 833 0449 81020000 		.4byte	0x281
 834 044d 08       		.byte	0x8
 835 044e 0C       		.uleb128 0xc
 836 044f 470E0000 		.4byte	.LASF53
 837 0453 08       		.byte	0x8
 838 0454 31       		.byte	0x31
 839 0455 5B040000 		.4byte	0x45b
 840 0459 0C       		.byte	0xc
 841 045a 00       		.byte	0
 842 045b 09       		.uleb128 0x9
 843 045c 04       		.byte	0x4
 844 045d 2A040000 		.4byte	0x42a
 845 0461 03       		.uleb128 0x3
 846 0462 8B060000 		.4byte	.LASF50
 847 0466 08       		.byte	0x8
 848 0467 33       		.byte	0x33
 849 0468 2A040000 		.4byte	0x42a
 850 046c 11       		.uleb128 0x11
 851 046d 04       		.byte	0x4
 852 046e 06       		.byte	0x6
 853 046f 96       		.byte	0x96
 854 0470 A1040000 		.4byte	0x4a1
 855 0474 12       		.uleb128 0x12
ARM GAS  /tmp/ccL5iU9U.s 			page 16


 856 0475 DC0D0000 		.4byte	.LASF54
 857 0479 06       		.byte	0x6
 858 047a 9D       		.byte	0x9d
 859 047b 66010000 		.4byte	0x166
 860 047f 12       		.uleb128 0x12
 861 0480 8E010000 		.4byte	.LASF55
 862 0484 06       		.byte	0x6
 863 0485 A4       		.byte	0xa4
 864 0486 66010000 		.4byte	0x166
 865 048a 12       		.uleb128 0x12
 866 048b 24040000 		.4byte	.LASF56
 867 048f 06       		.byte	0x6
 868 0490 AB       		.byte	0xab
 869 0491 1F010000 		.4byte	0x11f
 870 0495 12       		.uleb128 0x12
 871 0496 BB010000 		.4byte	.LASF57
 872 049a 06       		.byte	0x6
 873 049b B2       		.byte	0xb2
 874 049c 71010000 		.4byte	0x171
 875 04a0 00       		.byte	0
 876 04a1 09       		.uleb128 0x9
 877 04a2 04       		.byte	0x4
 878 04a3 61040000 		.4byte	0x461
 879 04a7 09       		.uleb128 0x9
 880 04a8 04       		.byte	0x4
 881 04a9 A2000000 		.4byte	0xa2
 882 04ad 13       		.uleb128 0x13
 883 04ae 425700   		.ascii	"BW\000"
 884 04b1 02       		.byte	0x2
 885 04b2 09       		.byte	0x9
 886 04b3 CD       		.byte	0xcd
 887 04b4 D1040000 		.4byte	0x4d1
 888 04b8 0D       		.uleb128 0xd
 889 04b9 6D736200 		.ascii	"msb\000"
 890 04bd 09       		.byte	0x9
 891 04be CF       		.byte	0xcf
 892 04bf A2000000 		.4byte	0xa2
 893 04c3 00       		.byte	0
 894 04c4 0D       		.uleb128 0xd
 895 04c5 6C736200 		.ascii	"lsb\000"
 896 04c9 09       		.byte	0x9
 897 04ca D0       		.byte	0xd0
 898 04cb A2000000 		.4byte	0xa2
 899 04cf 01       		.byte	0x1
 900 04d0 00       		.byte	0
 901 04d1 11       		.uleb128 0x11
 902 04d2 02       		.byte	0x2
 903 04d3 09       		.byte	0x9
 904 04d4 CA       		.byte	0xca
 905 04d5 ED040000 		.4byte	0x4ed
 906 04d9 14       		.uleb128 0x14
 907 04da 7700     		.ascii	"w\000"
 908 04dc 09       		.byte	0x9
 909 04dd CC       		.byte	0xcc
 910 04de B8000000 		.4byte	0xb8
 911 04e2 14       		.uleb128 0x14
 912 04e3 627700   		.ascii	"bw\000"
ARM GAS  /tmp/ccL5iU9U.s 			page 17


 913 04e6 09       		.byte	0x9
 914 04e7 D2       		.byte	0xd2
 915 04e8 AD040000 		.4byte	0x4ad
 916 04ec 00       		.byte	0
 917 04ed 03       		.uleb128 0x3
 918 04ee 77090000 		.4byte	.LASF58
 919 04f2 09       		.byte	0x9
 920 04f3 D4       		.byte	0xd4
 921 04f4 D1040000 		.4byte	0x4d1
 922 04f8 0B       		.uleb128 0xb
 923 04f9 33050000 		.4byte	.LASF59
 924 04fd 08       		.byte	0x8
 925 04fe 09       		.byte	0x9
 926 04ff DB       		.byte	0xdb
 927 0500 41050000 		.4byte	0x541
 928 0504 0C       		.uleb128 0xc
 929 0505 77030000 		.4byte	.LASF60
 930 0509 09       		.byte	0x9
 931 050a DD       		.byte	0xdd
 932 050b A2000000 		.4byte	0xa2
 933 050f 00       		.byte	0
 934 0510 0C       		.uleb128 0xc
 935 0511 29080000 		.4byte	.LASF61
 936 0515 09       		.byte	0x9
 937 0516 DE       		.byte	0xde
 938 0517 A2000000 		.4byte	0xa2
 939 051b 01       		.byte	0x1
 940 051c 0C       		.uleb128 0xc
 941 051d 8D030000 		.4byte	.LASF62
 942 0521 09       		.byte	0x9
 943 0522 DF       		.byte	0xdf
 944 0523 ED040000 		.4byte	0x4ed
 945 0527 02       		.byte	0x2
 946 0528 0C       		.uleb128 0xc
 947 0529 44090000 		.4byte	.LASF63
 948 052d 09       		.byte	0x9
 949 052e E0       		.byte	0xe0
 950 052f ED040000 		.4byte	0x4ed
 951 0533 04       		.byte	0x4
 952 0534 0C       		.uleb128 0xc
 953 0535 E4000000 		.4byte	.LASF64
 954 0539 09       		.byte	0x9
 955 053a E1       		.byte	0xe1
 956 053b ED040000 		.4byte	0x4ed
 957 053f 06       		.byte	0x6
 958 0540 00       		.byte	0
 959 0541 15       		.uleb128 0x15
 960 0542 39040000 		.4byte	.LASF269
 961 0546 08       		.byte	0x8
 962 0547 09       		.byte	0x9
 963 0548 D7       		.byte	0xd7
 964 0549 61050000 		.4byte	0x561
 965 054d 14       		.uleb128 0x14
 966 054e 643800   		.ascii	"d8\000"
 967 0551 09       		.byte	0x9
 968 0552 D9       		.byte	0xd9
 969 0553 E5000000 		.4byte	0xe5
ARM GAS  /tmp/ccL5iU9U.s 			page 18


 970 0557 14       		.uleb128 0x14
 971 0558 6200     		.ascii	"b\000"
 972 055a 09       		.byte	0x9
 973 055b E2       		.byte	0xe2
 974 055c F8040000 		.4byte	0x4f8
 975 0560 00       		.byte	0
 976 0561 03       		.uleb128 0x3
 977 0562 38060000 		.4byte	.LASF65
 978 0566 09       		.byte	0x9
 979 0567 E4       		.byte	0xe4
 980 0568 41050000 		.4byte	0x541
 981 056c 0B       		.uleb128 0xb
 982 056d 0E0B0000 		.4byte	.LASF66
 983 0571 12       		.byte	0x12
 984 0572 09       		.byte	0x9
 985 0573 ED       		.byte	0xed
 986 0574 21060000 		.4byte	0x621
 987 0578 0C       		.uleb128 0xc
 988 0579 0F090000 		.4byte	.LASF67
 989 057d 09       		.byte	0x9
 990 057e EF       		.byte	0xef
 991 057f A2000000 		.4byte	0xa2
 992 0583 00       		.byte	0
 993 0584 0C       		.uleb128 0xc
 994 0585 88050000 		.4byte	.LASF68
 995 0589 09       		.byte	0x9
 996 058a F0       		.byte	0xf0
 997 058b A2000000 		.4byte	0xa2
 998 058f 01       		.byte	0x1
 999 0590 0C       		.uleb128 0xc
 1000 0591 50010000 		.4byte	.LASF69
 1001 0595 09       		.byte	0x9
 1002 0596 F1       		.byte	0xf1
 1003 0597 B8000000 		.4byte	0xb8
 1004 059b 02       		.byte	0x2
 1005 059c 0C       		.uleb128 0xc
 1006 059d D00A0000 		.4byte	.LASF70
 1007 05a1 09       		.byte	0x9
 1008 05a2 F2       		.byte	0xf2
 1009 05a3 A2000000 		.4byte	0xa2
 1010 05a7 04       		.byte	0x4
 1011 05a8 0C       		.uleb128 0xc
 1012 05a9 8A000000 		.4byte	.LASF71
 1013 05ad 09       		.byte	0x9
 1014 05ae F3       		.byte	0xf3
 1015 05af A2000000 		.4byte	0xa2
 1016 05b3 05       		.byte	0x5
 1017 05b4 0C       		.uleb128 0xc
 1018 05b5 2A0D0000 		.4byte	.LASF72
 1019 05b9 09       		.byte	0x9
 1020 05ba F4       		.byte	0xf4
 1021 05bb A2000000 		.4byte	0xa2
 1022 05bf 06       		.byte	0x6
 1023 05c0 0C       		.uleb128 0xc
 1024 05c1 32080000 		.4byte	.LASF73
 1025 05c5 09       		.byte	0x9
 1026 05c6 F8       		.byte	0xf8
ARM GAS  /tmp/ccL5iU9U.s 			page 19


 1027 05c7 A2000000 		.4byte	0xa2
 1028 05cb 07       		.byte	0x7
 1029 05cc 0C       		.uleb128 0xc
 1030 05cd EE090000 		.4byte	.LASF74
 1031 05d1 09       		.byte	0x9
 1032 05d2 F9       		.byte	0xf9
 1033 05d3 B8000000 		.4byte	0xb8
 1034 05d7 08       		.byte	0x8
 1035 05d8 0C       		.uleb128 0xc
 1036 05d9 D9090000 		.4byte	.LASF75
 1037 05dd 09       		.byte	0x9
 1038 05de FA       		.byte	0xfa
 1039 05df B8000000 		.4byte	0xb8
 1040 05e3 0A       		.byte	0xa
 1041 05e4 0C       		.uleb128 0xc
 1042 05e5 5F030000 		.4byte	.LASF76
 1043 05e9 09       		.byte	0x9
 1044 05ea FB       		.byte	0xfb
 1045 05eb B8000000 		.4byte	0xb8
 1046 05ef 0C       		.byte	0xc
 1047 05f0 0C       		.uleb128 0xc
 1048 05f1 EF060000 		.4byte	.LASF77
 1049 05f5 09       		.byte	0x9
 1050 05f6 FC       		.byte	0xfc
 1051 05f7 A2000000 		.4byte	0xa2
 1052 05fb 0E       		.byte	0xe
 1053 05fc 0C       		.uleb128 0xc
 1054 05fd 00000000 		.4byte	.LASF78
 1055 0601 09       		.byte	0x9
 1056 0602 FD       		.byte	0xfd
 1057 0603 A2000000 		.4byte	0xa2
 1058 0607 0F       		.byte	0xf
 1059 0608 0C       		.uleb128 0xc
 1060 0609 B4050000 		.4byte	.LASF79
 1061 060d 09       		.byte	0x9
 1062 060e FE       		.byte	0xfe
 1063 060f A2000000 		.4byte	0xa2
 1064 0613 10       		.byte	0x10
 1065 0614 0C       		.uleb128 0xc
 1066 0615 B3090000 		.4byte	.LASF80
 1067 0619 09       		.byte	0x9
 1068 061a FF       		.byte	0xff
 1069 061b A2000000 		.4byte	0xa2
 1070 061f 11       		.byte	0x11
 1071 0620 00       		.byte	0
 1072 0621 16       		.uleb128 0x16
 1073 0622 650A0000 		.4byte	.LASF81
 1074 0626 09       		.byte	0x9
 1075 0627 0101     		.2byte	0x101
 1076 0629 6C050000 		.4byte	0x56c
 1077 062d 0F       		.uleb128 0xf
 1078 062e 98020000 		.4byte	.LASF82
 1079 0632 08       		.byte	0x8
 1080 0633 09       		.byte	0x9
 1081 0634 0301     		.2byte	0x103
 1082 0636 89060000 		.4byte	0x689
 1083 063a 17       		.uleb128 0x17
ARM GAS  /tmp/ccL5iU9U.s 			page 20


 1084 063b 0F090000 		.4byte	.LASF67
 1085 063f 09       		.byte	0x9
 1086 0640 0501     		.2byte	0x105
 1087 0642 A2000000 		.4byte	0xa2
 1088 0646 00       		.byte	0
 1089 0647 17       		.uleb128 0x17
 1090 0648 88050000 		.4byte	.LASF68
 1091 064c 09       		.byte	0x9
 1092 064d 0601     		.2byte	0x106
 1093 064f A2000000 		.4byte	0xa2
 1094 0653 01       		.byte	0x1
 1095 0654 17       		.uleb128 0x17
 1096 0655 1B000000 		.4byte	.LASF83
 1097 0659 09       		.byte	0x9
 1098 065a 0701     		.2byte	0x107
 1099 065c A2000000 		.4byte	0xa2
 1100 0660 02       		.byte	0x2
 1101 0661 17       		.uleb128 0x17
 1102 0662 57060000 		.4byte	.LASF84
 1103 0666 09       		.byte	0x9
 1104 0667 0801     		.2byte	0x108
 1105 0669 A2000000 		.4byte	0xa2
 1106 066d 03       		.byte	0x3
 1107 066e 17       		.uleb128 0x17
 1108 066f CA060000 		.4byte	.LASF85
 1109 0673 09       		.byte	0x9
 1110 0674 0901     		.2byte	0x109
 1111 0676 B8000000 		.4byte	0xb8
 1112 067a 04       		.byte	0x4
 1113 067b 17       		.uleb128 0x17
 1114 067c BA0B0000 		.4byte	.LASF86
 1115 0680 09       		.byte	0x9
 1116 0681 0A01     		.2byte	0x10a
 1117 0683 A2000000 		.4byte	0xa2
 1118 0687 06       		.byte	0x6
 1119 0688 00       		.byte	0
 1120 0689 16       		.uleb128 0x16
 1121 068a B40D0000 		.4byte	.LASF87
 1122 068e 09       		.byte	0x9
 1123 068f 0C01     		.2byte	0x10c
 1124 0691 2D060000 		.4byte	0x62d
 1125 0695 0F       		.uleb128 0xf
 1126 0696 F7090000 		.4byte	.LASF88
 1127 069a 3A       		.byte	0x3a
 1128 069b 09       		.byte	0x9
 1129 069c 0E01     		.2byte	0x10e
 1130 069e 25070000 		.4byte	0x725
 1131 06a2 17       		.uleb128 0x17
 1132 06a3 0F090000 		.4byte	.LASF67
 1133 06a7 09       		.byte	0x9
 1134 06a8 1001     		.2byte	0x110
 1135 06aa A2000000 		.4byte	0xa2
 1136 06ae 00       		.byte	0
 1137 06af 17       		.uleb128 0x17
 1138 06b0 88050000 		.4byte	.LASF68
 1139 06b4 09       		.byte	0x9
 1140 06b5 1101     		.2byte	0x111
ARM GAS  /tmp/ccL5iU9U.s 			page 21


 1141 06b7 A2000000 		.4byte	0xa2
 1142 06bb 01       		.byte	0x1
 1143 06bc 17       		.uleb128 0x17
 1144 06bd 200B0000 		.4byte	.LASF89
 1145 06c1 09       		.byte	0x9
 1146 06c2 1201     		.2byte	0x112
 1147 06c4 A2000000 		.4byte	0xa2
 1148 06c8 02       		.byte	0x2
 1149 06c9 17       		.uleb128 0x17
 1150 06ca 09000000 		.4byte	.LASF90
 1151 06ce 09       		.byte	0x9
 1152 06cf 1301     		.2byte	0x113
 1153 06d1 A2000000 		.4byte	0xa2
 1154 06d5 03       		.byte	0x3
 1155 06d6 17       		.uleb128 0x17
 1156 06d7 2A060000 		.4byte	.LASF91
 1157 06db 09       		.byte	0x9
 1158 06dc 1401     		.2byte	0x114
 1159 06de A2000000 		.4byte	0xa2
 1160 06e2 04       		.byte	0x4
 1161 06e3 17       		.uleb128 0x17
 1162 06e4 A0070000 		.4byte	.LASF92
 1163 06e8 09       		.byte	0x9
 1164 06e9 1501     		.2byte	0x115
 1165 06eb A2000000 		.4byte	0xa2
 1166 06ef 05       		.byte	0x5
 1167 06f0 17       		.uleb128 0x17
 1168 06f1 790A0000 		.4byte	.LASF93
 1169 06f5 09       		.byte	0x9
 1170 06f6 1601     		.2byte	0x116
 1171 06f8 A2000000 		.4byte	0xa2
 1172 06fc 06       		.byte	0x6
 1173 06fd 17       		.uleb128 0x17
 1174 06fe C4020000 		.4byte	.LASF94
 1175 0702 09       		.byte	0x9
 1176 0703 1701     		.2byte	0x117
 1177 0705 A2000000 		.4byte	0xa2
 1178 0709 07       		.byte	0x7
 1179 070a 17       		.uleb128 0x17
 1180 070b 3B0A0000 		.4byte	.LASF95
 1181 070f 09       		.byte	0x9
 1182 0710 1801     		.2byte	0x118
 1183 0712 A2000000 		.4byte	0xa2
 1184 0716 08       		.byte	0x8
 1185 0717 17       		.uleb128 0x17
 1186 0718 FB070000 		.4byte	.LASF96
 1187 071c 09       		.byte	0x9
 1188 071d 1901     		.2byte	0x119
 1189 071f 25070000 		.4byte	0x725
 1190 0723 0A       		.byte	0xa
 1191 0724 00       		.byte	0
 1192 0725 06       		.uleb128 0x6
 1193 0726 89060000 		.4byte	0x689
 1194 072a 35070000 		.4byte	0x735
 1195 072e 07       		.uleb128 0x7
 1196 072f D9000000 		.4byte	0xd9
 1197 0733 05       		.byte	0x5
ARM GAS  /tmp/ccL5iU9U.s 			page 22


 1198 0734 00       		.byte	0
 1199 0735 16       		.uleb128 0x16
 1200 0736 10060000 		.4byte	.LASF97
 1201 073a 09       		.byte	0x9
 1202 073b 1B01     		.2byte	0x11b
 1203 073d 95060000 		.4byte	0x695
 1204 0741 18       		.uleb128 0x18
 1205 0742 DC010000 		.4byte	.LASF98
 1206 0746 6601     		.2byte	0x166
 1207 0748 09       		.byte	0x9
 1208 0749 1E01     		.2byte	0x11e
 1209 074b C5070000 		.4byte	0x7c5
 1210 074f 17       		.uleb128 0x17
 1211 0750 0F090000 		.4byte	.LASF67
 1212 0754 09       		.byte	0x9
 1213 0755 2001     		.2byte	0x120
 1214 0757 A2000000 		.4byte	0xa2
 1215 075b 00       		.byte	0
 1216 075c 17       		.uleb128 0x17
 1217 075d 88050000 		.4byte	.LASF68
 1218 0761 09       		.byte	0x9
 1219 0762 2101     		.2byte	0x121
 1220 0764 A2000000 		.4byte	0xa2
 1221 0768 01       		.byte	0x1
 1222 0769 17       		.uleb128 0x17
 1223 076a C5080000 		.4byte	.LASF99
 1224 076e 09       		.byte	0x9
 1225 076f 2201     		.2byte	0x122
 1226 0771 B8000000 		.4byte	0xb8
 1227 0775 02       		.byte	0x2
 1228 0776 17       		.uleb128 0x17
 1229 0777 91070000 		.4byte	.LASF100
 1230 077b 09       		.byte	0x9
 1231 077c 2301     		.2byte	0x123
 1232 077e A2000000 		.4byte	0xa2
 1233 0782 04       		.byte	0x4
 1234 0783 17       		.uleb128 0x17
 1235 0784 B0070000 		.4byte	.LASF101
 1236 0788 09       		.byte	0x9
 1237 0789 2401     		.2byte	0x124
 1238 078b A2000000 		.4byte	0xa2
 1239 078f 05       		.byte	0x5
 1240 0790 17       		.uleb128 0x17
 1241 0791 1A080000 		.4byte	.LASF102
 1242 0795 09       		.byte	0x9
 1243 0796 2501     		.2byte	0x125
 1244 0798 A2000000 		.4byte	0xa2
 1245 079c 06       		.byte	0x6
 1246 079d 17       		.uleb128 0x17
 1247 079e 57060000 		.4byte	.LASF84
 1248 07a2 09       		.byte	0x9
 1249 07a3 2601     		.2byte	0x126
 1250 07a5 A2000000 		.4byte	0xa2
 1251 07a9 07       		.byte	0x7
 1252 07aa 17       		.uleb128 0x17
 1253 07ab AA0D0000 		.4byte	.LASF103
 1254 07af 09       		.byte	0x9
ARM GAS  /tmp/ccL5iU9U.s 			page 23


 1255 07b0 2701     		.2byte	0x127
 1256 07b2 A2000000 		.4byte	0xa2
 1257 07b6 08       		.byte	0x8
 1258 07b7 17       		.uleb128 0x17
 1259 07b8 C1060000 		.4byte	.LASF104
 1260 07bc 09       		.byte	0x9
 1261 07bd 2801     		.2byte	0x128
 1262 07bf C5070000 		.4byte	0x7c5
 1263 07c3 0A       		.byte	0xa
 1264 07c4 00       		.byte	0
 1265 07c5 06       		.uleb128 0x6
 1266 07c6 35070000 		.4byte	0x735
 1267 07ca D5070000 		.4byte	0x7d5
 1268 07ce 07       		.uleb128 0x7
 1269 07cf D9000000 		.4byte	0xd9
 1270 07d3 05       		.byte	0x5
 1271 07d4 00       		.byte	0
 1272 07d5 16       		.uleb128 0x16
 1273 07d6 6E0D0000 		.4byte	.LASF105
 1274 07da 09       		.byte	0x9
 1275 07db 2A01     		.2byte	0x12a
 1276 07dd 41070000 		.4byte	0x741
 1277 07e1 19       		.uleb128 0x19
 1278 07e2 01       		.byte	0x1
 1279 07e3 09       		.byte	0x9
 1280 07e4 2F01     		.2byte	0x12f
 1281 07e6 0F080000 		.4byte	0x80f
 1282 07ea 1A       		.uleb128 0x1a
 1283 07eb EC000000 		.4byte	.LASF106
 1284 07ef 00       		.sleb128 0
 1285 07f0 1A       		.uleb128 0x1a
 1286 07f1 F4000000 		.4byte	.LASF107
 1287 07f5 01       		.sleb128 1
 1288 07f6 1A       		.uleb128 0x1a
 1289 07f7 CF090000 		.4byte	.LASF108
 1290 07fb 02       		.sleb128 2
 1291 07fc 1A       		.uleb128 0x1a
 1292 07fd 0C0A0000 		.4byte	.LASF109
 1293 0801 03       		.sleb128 3
 1294 0802 1A       		.uleb128 0x1a
 1295 0803 CA040000 		.4byte	.LASF110
 1296 0807 04       		.sleb128 4
 1297 0808 1A       		.uleb128 0x1a
 1298 0809 CD030000 		.4byte	.LASF111
 1299 080d 05       		.sleb128 5
 1300 080e 00       		.byte	0
 1301 080f 16       		.uleb128 0x16
 1302 0810 E1040000 		.4byte	.LASF112
 1303 0814 09       		.byte	0x9
 1304 0815 3601     		.2byte	0x136
 1305 0817 E1070000 		.4byte	0x7e1
 1306 081b 19       		.uleb128 0x19
 1307 081c 01       		.byte	0x1
 1308 081d 09       		.byte	0x9
 1309 081e 4701     		.2byte	0x147
 1310 0820 73080000 		.4byte	0x873
 1311 0824 1A       		.uleb128 0x1a
ARM GAS  /tmp/ccL5iU9U.s 			page 24


 1312 0825 CE000000 		.4byte	.LASF113
 1313 0829 00       		.sleb128 0
 1314 082a 1A       		.uleb128 0x1a
 1315 082b 97080000 		.4byte	.LASF114
 1316 082f 01       		.sleb128 1
 1317 0830 1A       		.uleb128 0x1a
 1318 0831 A7000000 		.4byte	.LASF115
 1319 0835 02       		.sleb128 2
 1320 0836 1A       		.uleb128 0x1a
 1321 0837 28010000 		.4byte	.LASF116
 1322 083b 03       		.sleb128 3
 1323 083c 1A       		.uleb128 0x1a
 1324 083d 52070000 		.4byte	.LASF117
 1325 0841 04       		.sleb128 4
 1326 0842 1A       		.uleb128 0x1a
 1327 0843 540D0000 		.4byte	.LASF118
 1328 0847 05       		.sleb128 5
 1329 0848 1A       		.uleb128 0x1a
 1330 0849 B1020000 		.4byte	.LASF119
 1331 084d 06       		.sleb128 6
 1332 084e 1A       		.uleb128 0x1a
 1333 084f 0F080000 		.4byte	.LASF120
 1334 0853 07       		.sleb128 7
 1335 0854 1A       		.uleb128 0x1a
 1336 0855 05030000 		.4byte	.LASF121
 1337 0859 08       		.sleb128 8
 1338 085a 1A       		.uleb128 0x1a
 1339 085b 33090000 		.4byte	.LASF122
 1340 085f 09       		.sleb128 9
 1341 0860 1A       		.uleb128 0x1a
 1342 0861 FF050000 		.4byte	.LASF123
 1343 0865 0A       		.sleb128 10
 1344 0866 1A       		.uleb128 0x1a
 1345 0867 19070000 		.4byte	.LASF124
 1346 086b 0B       		.sleb128 11
 1347 086c 1A       		.uleb128 0x1a
 1348 086d 97010000 		.4byte	.LASF125
 1349 0871 0C       		.sleb128 12
 1350 0872 00       		.byte	0
 1351 0873 16       		.uleb128 0x16
 1352 0874 6E060000 		.4byte	.LASF126
 1353 0878 09       		.byte	0x9
 1354 0879 5501     		.2byte	0x155
 1355 087b 1B080000 		.4byte	0x81b
 1356 087f 19       		.uleb128 0x19
 1357 0880 01       		.byte	0x1
 1358 0881 09       		.byte	0x9
 1359 0882 5901     		.2byte	0x159
 1360 0884 B9080000 		.4byte	0x8b9
 1361 0888 1A       		.uleb128 0x1a
 1362 0889 4A0D0000 		.4byte	.LASF127
 1363 088d 00       		.sleb128 0
 1364 088e 1A       		.uleb128 0x1a
 1365 088f 080C0000 		.4byte	.LASF128
 1366 0893 01       		.sleb128 1
 1367 0894 1A       		.uleb128 0x1a
 1368 0895 4B090000 		.4byte	.LASF129
ARM GAS  /tmp/ccL5iU9U.s 			page 25


 1369 0899 02       		.sleb128 2
 1370 089a 1A       		.uleb128 0x1a
 1371 089b 70000000 		.4byte	.LASF130
 1372 089f 03       		.sleb128 3
 1373 08a0 1A       		.uleb128 0x1a
 1374 08a1 E8050000 		.4byte	.LASF131
 1375 08a5 04       		.sleb128 4
 1376 08a6 1A       		.uleb128 0x1a
 1377 08a7 C7050000 		.4byte	.LASF132
 1378 08ab 05       		.sleb128 5
 1379 08ac 1A       		.uleb128 0x1a
 1380 08ad FC0D0000 		.4byte	.LASF133
 1381 08b1 06       		.sleb128 6
 1382 08b2 1A       		.uleb128 0x1a
 1383 08b3 AE030000 		.4byte	.LASF134
 1384 08b7 07       		.sleb128 7
 1385 08b8 00       		.byte	0
 1386 08b9 16       		.uleb128 0x16
 1387 08ba 4D020000 		.4byte	.LASF135
 1388 08be 09       		.byte	0x9
 1389 08bf 6201     		.2byte	0x162
 1390 08c1 7F080000 		.4byte	0x87f
 1391 08c5 19       		.uleb128 0x19
 1392 08c6 01       		.byte	0x1
 1393 08c7 09       		.byte	0x9
 1394 08c8 6601     		.2byte	0x166
 1395 08ca 23090000 		.4byte	0x923
 1396 08ce 1A       		.uleb128 0x1a
 1397 08cf A8060000 		.4byte	.LASF136
 1398 08d3 00       		.sleb128 0
 1399 08d4 1A       		.uleb128 0x1a
 1400 08d5 F3030000 		.4byte	.LASF137
 1401 08d9 01       		.sleb128 1
 1402 08da 1A       		.uleb128 0x1a
 1403 08db D90B0000 		.4byte	.LASF138
 1404 08df 02       		.sleb128 2
 1405 08e0 1A       		.uleb128 0x1a
 1406 08e1 9F040000 		.4byte	.LASF139
 1407 08e5 03       		.sleb128 3
 1408 08e6 1A       		.uleb128 0x1a
 1409 08e7 400B0000 		.4byte	.LASF140
 1410 08eb 04       		.sleb128 4
 1411 08ec 1A       		.uleb128 0x1a
 1412 08ed 9C0D0000 		.4byte	.LASF141
 1413 08f1 05       		.sleb128 5
 1414 08f2 1A       		.uleb128 0x1a
 1415 08f3 AC040000 		.4byte	.LASF142
 1416 08f7 06       		.sleb128 6
 1417 08f8 1A       		.uleb128 0x1a
 1418 08f9 FE000000 		.4byte	.LASF143
 1419 08fd 07       		.sleb128 7
 1420 08fe 1A       		.uleb128 0x1a
 1421 08ff 5D0E0000 		.4byte	.LASF144
 1422 0903 08       		.sleb128 8
 1423 0904 1A       		.uleb128 0x1a
 1424 0905 F5020000 		.4byte	.LASF145
 1425 0909 09       		.sleb128 9
ARM GAS  /tmp/ccL5iU9U.s 			page 26


 1426 090a 1A       		.uleb128 0x1a
 1427 090b 30070000 		.4byte	.LASF146
 1428 090f 0A       		.sleb128 10
 1429 0910 1A       		.uleb128 0x1a
 1430 0911 10040000 		.4byte	.LASF147
 1431 0915 0B       		.sleb128 11
 1432 0916 1A       		.uleb128 0x1a
 1433 0917 AC0A0000 		.4byte	.LASF148
 1434 091b 0C       		.sleb128 12
 1435 091c 1A       		.uleb128 0x1a
 1436 091d F4040000 		.4byte	.LASF149
 1437 0921 0D       		.sleb128 13
 1438 0922 00       		.byte	0
 1439 0923 16       		.uleb128 0x16
 1440 0924 290A0000 		.4byte	.LASF150
 1441 0928 09       		.byte	0x9
 1442 0929 7501     		.2byte	0x175
 1443 092b C5080000 		.4byte	0x8c5
 1444 092f 19       		.uleb128 0x19
 1445 0930 01       		.byte	0x1
 1446 0931 09       		.byte	0x9
 1447 0932 7A01     		.2byte	0x17a
 1448 0934 4B090000 		.4byte	0x94b
 1449 0938 1A       		.uleb128 0x1a
 1450 0939 68050000 		.4byte	.LASF151
 1451 093d 00       		.sleb128 0
 1452 093e 1A       		.uleb128 0x1a
 1453 093f 9A090000 		.4byte	.LASF152
 1454 0943 01       		.sleb128 1
 1455 0944 1A       		.uleb128 0x1a
 1456 0945 460A0000 		.4byte	.LASF153
 1457 0949 02       		.sleb128 2
 1458 094a 00       		.byte	0
 1459 094b 16       		.uleb128 0x16
 1460 094c 57010000 		.4byte	.LASF154
 1461 0950 09       		.byte	0x9
 1462 0951 7E01     		.2byte	0x17e
 1463 0953 2F090000 		.4byte	0x92f
 1464 0957 1B       		.uleb128 0x1b
 1465 0958 18       		.byte	0x18
 1466 0959 09       		.byte	0x9
 1467 095a 9401     		.2byte	0x194
 1468 095c D6090000 		.4byte	0x9d6
 1469 0960 17       		.uleb128 0x17
 1470 0961 97040000 		.4byte	.LASF155
 1471 0965 09       		.byte	0x9
 1472 0966 9601     		.2byte	0x196
 1473 0968 A2000000 		.4byte	0xa2
 1474 096c 00       		.byte	0
 1475 096d 17       		.uleb128 0x17
 1476 096e D9060000 		.4byte	.LASF156
 1477 0972 09       		.byte	0x9
 1478 0973 9701     		.2byte	0x197
 1479 0975 A2000000 		.4byte	0xa2
 1480 0979 01       		.byte	0x1
 1481 097a 17       		.uleb128 0x17
 1482 097b 76010000 		.4byte	.LASF157
ARM GAS  /tmp/ccL5iU9U.s 			page 27


 1483 097f 09       		.byte	0x9
 1484 0980 9801     		.2byte	0x198
 1485 0982 A2000000 		.4byte	0xa2
 1486 0986 02       		.byte	0x2
 1487 0987 17       		.uleb128 0x17
 1488 0988 0A070000 		.4byte	.LASF158
 1489 098c 09       		.byte	0x9
 1490 098d 9901     		.2byte	0x199
 1491 098f A7040000 		.4byte	0x4a7
 1492 0993 04       		.byte	0x4
 1493 0994 17       		.uleb128 0x17
 1494 0995 61090000 		.4byte	.LASF159
 1495 0999 09       		.byte	0x9
 1496 099a 9A01     		.2byte	0x19a
 1497 099c B8000000 		.4byte	0xb8
 1498 09a0 08       		.byte	0x8
 1499 09a1 17       		.uleb128 0x17
 1500 09a2 2B040000 		.4byte	.LASF160
 1501 09a6 09       		.byte	0x9
 1502 09a7 9B01     		.2byte	0x19b
 1503 09a9 B8000000 		.4byte	0xb8
 1504 09ad 0A       		.byte	0xa
 1505 09ae 17       		.uleb128 0x17
 1506 09af 02050000 		.4byte	.LASF161
 1507 09b3 09       		.byte	0x9
 1508 09b4 9C01     		.2byte	0x19c
 1509 09b6 61050000 		.4byte	0x561
 1510 09ba 0C       		.byte	0xc
 1511 09bb 17       		.uleb128 0x17
 1512 09bc 22010000 		.4byte	.LASF162
 1513 09c0 09       		.byte	0x9
 1514 09c1 9D01     		.2byte	0x19d
 1515 09c3 23090000 		.4byte	0x923
 1516 09c7 14       		.byte	0x14
 1517 09c8 17       		.uleb128 0x17
 1518 09c9 E3090000 		.4byte	.LASF163
 1519 09cd 09       		.byte	0x9
 1520 09ce 9E01     		.2byte	0x19e
 1521 09d0 A2000000 		.4byte	0xa2
 1522 09d4 15       		.byte	0x15
 1523 09d5 00       		.byte	0
 1524 09d6 16       		.uleb128 0x16
 1525 09d7 CB070000 		.4byte	.LASF164
 1526 09db 09       		.byte	0x9
 1527 09dc A001     		.2byte	0x1a0
 1528 09de 57090000 		.4byte	0x957
 1529 09e2 1C       		.uleb128 0x1c
 1530 09e3 7C05     		.2byte	0x57c
 1531 09e5 09       		.byte	0x9
 1532 09e6 A301     		.2byte	0x1a3
 1533 09e8 5C0A0000 		.4byte	0xa5c
 1534 09ec 17       		.uleb128 0x17
 1535 09ed FC0B0000 		.4byte	.LASF165
 1536 09f1 09       		.byte	0x9
 1537 09f2 A601     		.2byte	0x1a6
 1538 09f4 5C0A0000 		.4byte	0xa5c
 1539 09f8 00       		.byte	0
ARM GAS  /tmp/ccL5iU9U.s 			page 28


 1540 09f9 1D       		.uleb128 0x1d
 1541 09fa 310B0000 		.4byte	.LASF166
 1542 09fe 09       		.byte	0x9
 1543 09ff A801     		.2byte	0x1a8
 1544 0a01 5C0A0000 		.4byte	0xa5c
 1545 0a05 0002     		.2byte	0x200
 1546 0a07 1D       		.uleb128 0x1d
 1547 0a08 E0050000 		.4byte	.LASF167
 1548 0a0c 09       		.byte	0x9
 1549 0a0d A901     		.2byte	0x1a9
 1550 0a0f A2000000 		.4byte	0xa2
 1551 0a13 0004     		.2byte	0x400
 1552 0a15 1D       		.uleb128 0x1d
 1553 0a16 0F050000 		.4byte	.LASF168
 1554 0a1a 09       		.byte	0x9
 1555 0a1b AA01     		.2byte	0x1aa
 1556 0a1d A2000000 		.4byte	0xa2
 1557 0a21 0104     		.2byte	0x401
 1558 0a23 1D       		.uleb128 0x1d
 1559 0a24 3B000000 		.4byte	.LASF169
 1560 0a28 09       		.byte	0x9
 1561 0a29 AB01     		.2byte	0x1ab
 1562 0a2b 05010000 		.4byte	0x105
 1563 0a2f 0204     		.2byte	0x402
 1564 0a31 1D       		.uleb128 0x1d
 1565 0a32 180D0000 		.4byte	.LASF170
 1566 0a36 09       		.byte	0x9
 1567 0a37 AC01     		.2byte	0x1ac
 1568 0a39 A2000000 		.4byte	0xa2
 1569 0a3d 0304     		.2byte	0x403
 1570 0a3f 1D       		.uleb128 0x1d
 1571 0a40 85030000 		.4byte	.LASF171
 1572 0a44 09       		.byte	0x9
 1573 0a45 AD01     		.2byte	0x1ad
 1574 0a47 21060000 		.4byte	0x621
 1575 0a4b 0404     		.2byte	0x404
 1576 0a4d 1D       		.uleb128 0x1d
 1577 0a4e C2010000 		.4byte	.LASF172
 1578 0a52 09       		.byte	0x9
 1579 0a53 AE01     		.2byte	0x1ae
 1580 0a55 D5070000 		.4byte	0x7d5
 1581 0a59 1604     		.2byte	0x416
 1582 0a5b 00       		.byte	0
 1583 0a5c 06       		.uleb128 0x6
 1584 0a5d A2000000 		.4byte	0xa2
 1585 0a61 6D0A0000 		.4byte	0xa6d
 1586 0a65 1E       		.uleb128 0x1e
 1587 0a66 D9000000 		.4byte	0xd9
 1588 0a6a FF01     		.2byte	0x1ff
 1589 0a6c 00       		.byte	0
 1590 0a6d 16       		.uleb128 0x16
 1591 0a6e 7E070000 		.4byte	.LASF173
 1592 0a72 09       		.byte	0x9
 1593 0a73 B001     		.2byte	0x1b0
 1594 0a75 E2090000 		.4byte	0x9e2
 1595 0a79 1B       		.uleb128 0x1b
 1596 0a7a 20       		.byte	0x20
ARM GAS  /tmp/ccL5iU9U.s 			page 29


 1597 0a7b 09       		.byte	0x9
 1598 0a7c B501     		.2byte	0x1b5
 1599 0a7e EB0A0000 		.4byte	0xaeb
 1600 0a82 17       		.uleb128 0x17
 1601 0a83 B4080000 		.4byte	.LASF174
 1602 0a87 09       		.byte	0x9
 1603 0a88 B701     		.2byte	0x1b7
 1604 0a8a 28010000 		.4byte	0x128
 1605 0a8e 00       		.byte	0
 1606 0a8f 17       		.uleb128 0x17
 1607 0a90 29050000 		.4byte	.LASF175
 1608 0a94 09       		.byte	0x9
 1609 0a95 B801     		.2byte	0x1b8
 1610 0a97 A2000000 		.4byte	0xa2
 1611 0a9b 04       		.byte	0x4
 1612 0a9c 17       		.uleb128 0x17
 1613 0a9d 46080000 		.4byte	.LASF176
 1614 0aa1 09       		.byte	0x9
 1615 0aa2 B901     		.2byte	0x1b9
 1616 0aa4 DB0B0000 		.4byte	0xbdb
 1617 0aa8 08       		.byte	0x8
 1618 0aa9 17       		.uleb128 0x17
 1619 0aaa 430D0000 		.4byte	.LASF177
 1620 0aae 09       		.byte	0x9
 1621 0aaf BA01     		.2byte	0x1ba
 1622 0ab1 DB0B0000 		.4byte	0xbdb
 1623 0ab5 0C       		.byte	0xc
 1624 0ab6 17       		.uleb128 0x17
 1625 0ab7 3A0D0000 		.4byte	.LASF178
 1626 0abb 09       		.byte	0x9
 1627 0abc BB01     		.2byte	0x1bb
 1628 0abe DB0B0000 		.4byte	0xbdb
 1629 0ac2 10       		.byte	0x10
 1630 0ac3 17       		.uleb128 0x17
 1631 0ac4 E90B0000 		.4byte	.LASF179
 1632 0ac8 09       		.byte	0x9
 1633 0ac9 BC01     		.2byte	0x1bc
 1634 0acb DB0B0000 		.4byte	0xbdb
 1635 0acf 14       		.byte	0x14
 1636 0ad0 17       		.uleb128 0x17
 1637 0ad1 5A0A0000 		.4byte	.LASF180
 1638 0ad5 09       		.byte	0x9
 1639 0ad6 BD01     		.2byte	0x1bd
 1640 0ad8 DB0B0000 		.4byte	0xbdb
 1641 0adc 18       		.byte	0x18
 1642 0add 17       		.uleb128 0x17
 1643 0ade 290E0000 		.4byte	.LASF181
 1644 0ae2 09       		.byte	0x9
 1645 0ae3 BE01     		.2byte	0x1be
 1646 0ae5 1F010000 		.4byte	0x11f
 1647 0ae9 1C       		.byte	0x1c
 1648 0aea 00       		.byte	0
 1649 0aeb 1F       		.uleb128 0x1f
 1650 0aec 0F080000 		.4byte	0x80f
 1651 0af0 FA0A0000 		.4byte	0xafa
 1652 0af4 20       		.uleb128 0x20
 1653 0af5 FA0A0000 		.4byte	0xafa
ARM GAS  /tmp/ccL5iU9U.s 			page 30


 1654 0af9 00       		.byte	0
 1655 0afa 09       		.uleb128 0x9
 1656 0afb 04       		.byte	0x4
 1657 0afc 000B0000 		.4byte	0xb00
 1658 0b00 18       		.uleb128 0x18
 1659 0b01 EE080000 		.4byte	.LASF182
 1660 0b05 0006     		.2byte	0x600
 1661 0b07 09       		.byte	0x9
 1662 0b08 C201     		.2byte	0x1c2
 1663 0b0a DB0B0000 		.4byte	0xbdb
 1664 0b0e 17       		.uleb128 0x17
 1665 0b0f C4070000 		.4byte	.LASF183
 1666 0b13 09       		.byte	0x9
 1667 0b14 C401     		.2byte	0x1c4
 1668 0b16 ED0B0000 		.4byte	0xbed
 1669 0b1a 00       		.byte	0
 1670 0b1b 17       		.uleb128 0x17
 1671 0b1c 64060000 		.4byte	.LASF184
 1672 0b20 09       		.byte	0x9
 1673 0b21 C501     		.2byte	0x1c5
 1674 0b23 B9080000 		.4byte	0x8b9
 1675 0b27 01       		.byte	0x1
 1676 0b28 17       		.uleb128 0x17
 1677 0b29 8A040000 		.4byte	.LASF185
 1678 0b2d 09       		.byte	0x9
 1679 0b2e C601     		.2byte	0x1c6
 1680 0b30 4B090000 		.4byte	0x94b
 1681 0b34 02       		.byte	0x2
 1682 0b35 17       		.uleb128 0x17
 1683 0b36 31040000 		.4byte	.LASF186
 1684 0b3a 09       		.byte	0x9
 1685 0b3b C701     		.2byte	0x1c7
 1686 0b3d D6090000 		.4byte	0x9d6
 1687 0b41 04       		.byte	0x4
 1688 0b42 17       		.uleb128 0x17
 1689 0b43 940A0000 		.4byte	.LASF187
 1690 0b47 09       		.byte	0x9
 1691 0b48 C801     		.2byte	0x1c8
 1692 0b4a 6D0A0000 		.4byte	0xa6d
 1693 0b4e 1C       		.byte	0x1c
 1694 0b4f 1D       		.uleb128 0x1d
 1695 0b50 BA060000 		.4byte	.LASF188
 1696 0b54 09       		.byte	0x9
 1697 0b55 C901     		.2byte	0x1c9
 1698 0b57 F20B0000 		.4byte	0xbf2
 1699 0b5b 9805     		.2byte	0x598
 1700 0b5d 1D       		.uleb128 0x1d
 1701 0b5e EC0A0000 		.4byte	.LASF189
 1702 0b62 09       		.byte	0x9
 1703 0b63 CA01     		.2byte	0x1ca
 1704 0b65 020C0000 		.4byte	0xc02
 1705 0b69 A405     		.2byte	0x5a4
 1706 0b6b 1D       		.uleb128 0x1d
 1707 0b6c 2F0E0000 		.4byte	.LASF190
 1708 0b70 09       		.byte	0x9
 1709 0b71 CB01     		.2byte	0x1cb
 1710 0b73 CE000000 		.4byte	0xce
ARM GAS  /tmp/ccL5iU9U.s 			page 31


 1711 0b77 A805     		.2byte	0x5a8
 1712 0b79 1D       		.uleb128 0x1d
 1713 0b7a 47020000 		.4byte	.LASF191
 1714 0b7e 09       		.byte	0x9
 1715 0b7f CC01     		.2byte	0x1cc
 1716 0b81 0A010000 		.4byte	0x10a
 1717 0b85 AC05     		.2byte	0x5ac
 1718 0b87 1D       		.uleb128 0x1d
 1719 0b88 F60D0000 		.4byte	.LASF192
 1720 0b8c 09       		.byte	0x9
 1721 0b8d CD01     		.2byte	0x1cd
 1722 0b8f E0000000 		.4byte	0xe0
 1723 0b93 E805     		.2byte	0x5e8
 1724 0b95 21       		.uleb128 0x21
 1725 0b96 696400   		.ascii	"id\000"
 1726 0b99 09       		.byte	0x9
 1727 0b9a CE01     		.2byte	0x1ce
 1728 0b9c A2000000 		.4byte	0xa2
 1729 0ba0 EC05     		.2byte	0x5ec
 1730 0ba2 1D       		.uleb128 0x1d
 1731 0ba3 290E0000 		.4byte	.LASF181
 1732 0ba7 09       		.byte	0x9
 1733 0ba8 CF01     		.2byte	0x1cf
 1734 0baa 1F010000 		.4byte	0x11f
 1735 0bae F005     		.2byte	0x5f0
 1736 0bb0 1D       		.uleb128 0x1d
 1737 0bb1 71090000 		.4byte	.LASF193
 1738 0bb5 09       		.byte	0x9
 1739 0bb6 D001     		.2byte	0x1d0
 1740 0bb8 180C0000 		.4byte	0xc18
 1741 0bbc F405     		.2byte	0x5f4
 1742 0bbe 1D       		.uleb128 0x1d
 1743 0bbf E5080000 		.4byte	.LASF194
 1744 0bc3 09       		.byte	0x9
 1745 0bc4 D301     		.2byte	0x1d3
 1746 0bc6 81020000 		.4byte	0x281
 1747 0bca F805     		.2byte	0x5f8
 1748 0bcc 1D       		.uleb128 0x1d
 1749 0bcd DD0A0000 		.4byte	.LASF195
 1750 0bd1 09       		.byte	0x9
 1751 0bd2 D401     		.2byte	0x1d4
 1752 0bd4 81020000 		.4byte	0x281
 1753 0bd8 FC05     		.2byte	0x5fc
 1754 0bda 00       		.byte	0
 1755 0bdb 09       		.uleb128 0x9
 1756 0bdc 04       		.byte	0x4
 1757 0bdd EB0A0000 		.4byte	0xaeb
 1758 0be1 16       		.uleb128 0x16
 1759 0be2 88090000 		.4byte	.LASF196
 1760 0be6 09       		.byte	0x9
 1761 0be7 BF01     		.2byte	0x1bf
 1762 0be9 790A0000 		.4byte	0xa79
 1763 0bed 05       		.uleb128 0x5
 1764 0bee 73080000 		.4byte	0x873
 1765 0bf2 06       		.uleb128 0x6
 1766 0bf3 020C0000 		.4byte	0xc02
 1767 0bf7 020C0000 		.4byte	0xc02
ARM GAS  /tmp/ccL5iU9U.s 			page 32


 1768 0bfb 07       		.uleb128 0x7
 1769 0bfc D9000000 		.4byte	0xd9
 1770 0c00 02       		.byte	0x2
 1771 0c01 00       		.byte	0
 1772 0c02 09       		.uleb128 0x9
 1773 0c03 04       		.byte	0x4
 1774 0c04 E10B0000 		.4byte	0xbe1
 1775 0c08 22       		.uleb128 0x22
 1776 0c09 180C0000 		.4byte	0xc18
 1777 0c0d 20       		.uleb128 0x20
 1778 0c0e FA0A0000 		.4byte	0xafa
 1779 0c12 20       		.uleb128 0x20
 1780 0c13 A2000000 		.4byte	0xa2
 1781 0c17 00       		.byte	0
 1782 0c18 09       		.uleb128 0x9
 1783 0c19 04       		.byte	0x4
 1784 0c1a 080C0000 		.4byte	0xc08
 1785 0c1e 16       		.uleb128 0x16
 1786 0c1f 6B070000 		.4byte	.LASF197
 1787 0c23 09       		.byte	0x9
 1788 0c24 D701     		.2byte	0x1d7
 1789 0c26 000B0000 		.4byte	0xb00
 1790 0c2a 23       		.uleb128 0x23
 1791 0c2b 01       		.byte	0x1
 1792 0c2c 0A       		.byte	0xa
 1793 0c2d 70       		.byte	0x70
 1794 0c2e 630C0000 		.4byte	0xc63
 1795 0c32 1A       		.uleb128 0x1a
 1796 0c33 1B040000 		.4byte	.LASF198
 1797 0c37 00       		.sleb128 0
 1798 0c38 1A       		.uleb128 0x1a
 1799 0c39 15050000 		.4byte	.LASF199
 1800 0c3d 01       		.sleb128 1
 1801 0c3e 1A       		.uleb128 0x1a
 1802 0c3f C20A0000 		.4byte	.LASF200
 1803 0c43 02       		.sleb128 2
 1804 0c44 1A       		.uleb128 0x1a
 1805 0c45 9F060000 		.4byte	.LASF201
 1806 0c49 03       		.sleb128 3
 1807 0c4a 1A       		.uleb128 0x1a
 1808 0c4b 9A000000 		.4byte	.LASF202
 1809 0c4f 04       		.sleb128 4
 1810 0c50 1A       		.uleb128 0x1a
 1811 0c51 C6090000 		.4byte	.LASF203
 1812 0c55 05       		.sleb128 5
 1813 0c56 1A       		.uleb128 0x1a
 1814 0c57 A8010000 		.4byte	.LASF204
 1815 0c5b 06       		.sleb128 6
 1816 0c5c 1A       		.uleb128 0x1a
 1817 0c5d 98050000 		.4byte	.LASF205
 1818 0c61 07       		.sleb128 7
 1819 0c62 00       		.byte	0
 1820 0c63 03       		.uleb128 0x3
 1821 0c64 9B0A0000 		.4byte	.LASF206
 1822 0c68 0A       		.byte	0xa
 1823 0c69 7A       		.byte	0x7a
 1824 0c6a 2A0C0000 		.4byte	0xc2a
ARM GAS  /tmp/ccL5iU9U.s 			page 33


 1825 0c6e 23       		.uleb128 0x23
 1826 0c6f 01       		.byte	0x1
 1827 0c70 0A       		.byte	0xa
 1828 0c71 7D       		.byte	0x7d
 1829 0c72 A10C0000 		.4byte	0xca1
 1830 0c76 1A       		.uleb128 0x1a
 1831 0c77 44040000 		.4byte	.LASF207
 1832 0c7b 00       		.sleb128 0
 1833 0c7c 1A       		.uleb128 0x1a
 1834 0c7d 5B050000 		.4byte	.LASF208
 1835 0c81 01       		.sleb128 1
 1836 0c82 1A       		.uleb128 0x1a
 1837 0c83 43050000 		.4byte	.LASF209
 1838 0c87 02       		.sleb128 2
 1839 0c88 1A       		.uleb128 0x1a
 1840 0c89 C70D0000 		.4byte	.LASF210
 1841 0c8d 03       		.sleb128 3
 1842 0c8e 1A       		.uleb128 0x1a
 1843 0c8f 2F020000 		.4byte	.LASF211
 1844 0c93 04       		.sleb128 4
 1845 0c94 1A       		.uleb128 0x1a
 1846 0c95 F90A0000 		.4byte	.LASF212
 1847 0c99 05       		.sleb128 5
 1848 0c9a 1A       		.uleb128 0x1a
 1849 0c9b 77040000 		.4byte	.LASF213
 1850 0c9f 06       		.sleb128 6
 1851 0ca0 00       		.byte	0
 1852 0ca1 03       		.uleb128 0x3
 1853 0ca2 94030000 		.4byte	.LASF214
 1854 0ca6 0A       		.byte	0xa
 1855 0ca7 87       		.byte	0x87
 1856 0ca8 6E0C0000 		.4byte	0xc6e
 1857 0cac 0B       		.uleb128 0xb
 1858 0cad DC070000 		.4byte	.LASF215
 1859 0cb1 0A       		.byte	0xa
 1860 0cb2 0A       		.byte	0xa
 1861 0cb3 C0       		.byte	0xc0
 1862 0cb4 0D0D0000 		.4byte	0xd0d
 1863 0cb8 0C       		.uleb128 0xc
 1864 0cb9 0F090000 		.4byte	.LASF67
 1865 0cbd 0A       		.byte	0xa
 1866 0cbe C2       		.byte	0xc2
 1867 0cbf A2000000 		.4byte	0xa2
 1868 0cc3 00       		.byte	0
 1869 0cc4 0C       		.uleb128 0xc
 1870 0cc5 88050000 		.4byte	.LASF68
 1871 0cc9 0A       		.byte	0xa
 1872 0cca C3       		.byte	0xc3
 1873 0ccb A2000000 		.4byte	0xa2
 1874 0ccf 01       		.byte	0x1
 1875 0cd0 0C       		.uleb128 0xc
 1876 0cd1 0B020000 		.4byte	.LASF216
 1877 0cd5 0A       		.byte	0xa
 1878 0cd6 C4       		.byte	0xc4
 1879 0cd7 B8000000 		.4byte	0xb8
 1880 0cdb 02       		.byte	0x2
 1881 0cdc 0C       		.uleb128 0xc
ARM GAS  /tmp/ccL5iU9U.s 			page 34


 1882 0cdd 02090000 		.4byte	.LASF217
 1883 0ce1 0A       		.byte	0xa
 1884 0ce2 C5       		.byte	0xc5
 1885 0ce3 A2000000 		.4byte	0xa2
 1886 0ce7 04       		.byte	0x4
 1887 0ce8 0C       		.uleb128 0xc
 1888 0ce9 EB070000 		.4byte	.LASF218
 1889 0ced 0A       		.byte	0xa
 1890 0cee C6       		.byte	0xc6
 1891 0cef A2000000 		.4byte	0xa2
 1892 0cf3 05       		.byte	0x5
 1893 0cf4 0C       		.uleb128 0xc
 1894 0cf5 19020000 		.4byte	.LASF219
 1895 0cf9 0A       		.byte	0xa
 1896 0cfa C7       		.byte	0xc7
 1897 0cfb A2000000 		.4byte	0xa2
 1898 0cff 06       		.byte	0x6
 1899 0d00 0C       		.uleb128 0xc
 1900 0d01 B9080000 		.4byte	.LASF220
 1901 0d05 0A       		.byte	0xa
 1902 0d06 C8       		.byte	0xc8
 1903 0d07 B8000000 		.4byte	0xb8
 1904 0d0b 08       		.byte	0x8
 1905 0d0c 00       		.byte	0
 1906 0d0d 03       		.uleb128 0x3
 1907 0d0e 5F020000 		.4byte	.LASF221
 1908 0d12 0A       		.byte	0xa
 1909 0d13 CA       		.byte	0xca
 1910 0d14 AC0C0000 		.4byte	0xcac
 1911 0d18 0E       		.uleb128 0xe
 1912 0d19 0C       		.byte	0xc
 1913 0d1a 0A       		.byte	0xa
 1914 0d1b CD       		.byte	0xcd
 1915 0d1c 5D0D0000 		.4byte	0xd5d
 1916 0d20 0D       		.uleb128 0xd
 1917 0d21 62756600 		.ascii	"buf\000"
 1918 0d25 0A       		.byte	0xa
 1919 0d26 CF       		.byte	0xcf
 1920 0d27 A7040000 		.4byte	0x4a7
 1921 0d2b 00       		.byte	0
 1922 0d2c 0C       		.uleb128 0xc
 1923 0d2d AC020000 		.4byte	.LASF222
 1924 0d31 0A       		.byte	0xa
 1925 0d32 D0       		.byte	0xd0
 1926 0d33 B8000000 		.4byte	0xb8
 1927 0d37 04       		.byte	0x4
 1928 0d38 0C       		.uleb128 0xc
 1929 0d39 50000000 		.4byte	.LASF223
 1930 0d3d 0A       		.byte	0xa
 1931 0d3e D1       		.byte	0xd1
 1932 0d3f B8000000 		.4byte	0xb8
 1933 0d43 06       		.byte	0x6
 1934 0d44 0C       		.uleb128 0xc
 1935 0d45 17090000 		.4byte	.LASF224
 1936 0d49 0A       		.byte	0xa
 1937 0d4a D2       		.byte	0xd2
 1938 0d4b B8000000 		.4byte	0xb8
ARM GAS  /tmp/ccL5iU9U.s 			page 35


 1939 0d4f 08       		.byte	0x8
 1940 0d50 0C       		.uleb128 0xc
 1941 0d51 4E0E0000 		.4byte	.LASF225
 1942 0d55 0A       		.byte	0xa
 1943 0d56 D3       		.byte	0xd3
 1944 0d57 A2000000 		.4byte	0xa2
 1945 0d5b 0A       		.byte	0xa
 1946 0d5c 00       		.byte	0
 1947 0d5d 03       		.uleb128 0x3
 1948 0d5e 4A060000 		.4byte	.LASF226
 1949 0d62 0A       		.byte	0xa
 1950 0d63 D4       		.byte	0xd4
 1951 0d64 180D0000 		.4byte	0xd18
 1952 0d68 0B       		.uleb128 0xb
 1953 0d69 E2060000 		.4byte	.LASF227
 1954 0d6d 34       		.byte	0x34
 1955 0d6e 0A       		.byte	0xa
 1956 0d6f D8       		.byte	0xd8
 1957 0d70 290E0000 		.4byte	0xe29
 1958 0d74 0C       		.uleb128 0xc
 1959 0d75 DD080000 		.4byte	.LASF228
 1960 0d79 0A       		.byte	0xa
 1961 0d7a DA       		.byte	0xda
 1962 0d7b A2000000 		.4byte	0xa2
 1963 0d7f 00       		.byte	0
 1964 0d80 0C       		.uleb128 0xc
 1965 0d81 51040000 		.4byte	.LASF229
 1966 0d85 0A       		.byte	0xa
 1967 0d86 DB       		.byte	0xdb
 1968 0d87 A2000000 		.4byte	0xa2
 1969 0d8b 01       		.byte	0x1
 1970 0d8c 0C       		.uleb128 0xc
 1971 0d8d 22010000 		.4byte	.LASF162
 1972 0d91 0A       		.byte	0xa
 1973 0d92 DC       		.byte	0xdc
 1974 0d93 630C0000 		.4byte	0xc63
 1975 0d97 02       		.byte	0x2
 1976 0d98 0C       		.uleb128 0xc
 1977 0d99 1C010000 		.4byte	.LASF230
 1978 0d9d 0A       		.byte	0xa
 1979 0d9e DD       		.byte	0xdd
 1980 0d9f A2000000 		.4byte	0xa2
 1981 0da3 03       		.byte	0x3
 1982 0da4 0C       		.uleb128 0xc
 1983 0da5 C2050000 		.4byte	.LASF231
 1984 0da9 0A       		.byte	0xa
 1985 0daa DE       		.byte	0xde
 1986 0dab A2000000 		.4byte	0xa2
 1987 0daf 04       		.byte	0x4
 1988 0db0 0C       		.uleb128 0xc
 1989 0db1 55080000 		.4byte	.LASF232
 1990 0db5 0A       		.byte	0xa
 1991 0db6 DF       		.byte	0xdf
 1992 0db7 A10C0000 		.4byte	0xca1
 1993 0dbb 05       		.byte	0x5
 1994 0dbc 0C       		.uleb128 0xc
 1995 0dbd FD010000 		.4byte	.LASF233
ARM GAS  /tmp/ccL5iU9U.s 			page 36


 1996 0dc1 0A       		.byte	0xa
 1997 0dc2 E0       		.byte	0xe0
 1998 0dc3 5D0D0000 		.4byte	0xd5d
 1999 0dc7 08       		.byte	0x8
 2000 0dc8 0C       		.uleb128 0xc
 2001 0dc9 290E0000 		.4byte	.LASF181
 2002 0dcd 0A       		.byte	0xa
 2003 0dce E1       		.byte	0xe1
 2004 0dcf A7040000 		.4byte	0x4a7
 2005 0dd3 14       		.byte	0x14
 2006 0dd4 0C       		.uleb128 0xc
 2007 0dd5 61090000 		.4byte	.LASF159
 2008 0dd9 0A       		.byte	0xa
 2009 0dda E2       		.byte	0xe2
 2010 0ddb B8000000 		.4byte	0xb8
 2011 0ddf 18       		.byte	0x18
 2012 0de0 0C       		.uleb128 0xc
 2013 0de1 E40A0000 		.4byte	.LASF234
 2014 0de5 0A       		.byte	0xa
 2015 0de6 E3       		.byte	0xe3
 2016 0de7 A2000000 		.4byte	0xa2
 2017 0deb 1A       		.byte	0x1a
 2018 0dec 0C       		.uleb128 0xc
 2019 0ded 41080000 		.4byte	.LASF235
 2020 0df1 0A       		.byte	0xa
 2021 0df2 E4       		.byte	0xe4
 2022 0df3 B8000000 		.4byte	0xb8
 2023 0df7 1C       		.byte	0x1c
 2024 0df8 0C       		.uleb128 0xc
 2025 0df9 2B040000 		.4byte	.LASF160
 2026 0dfd 0A       		.byte	0xa
 2027 0dfe E5       		.byte	0xe5
 2028 0dff CE000000 		.4byte	0xce
 2029 0e03 20       		.byte	0x20
 2030 0e04 0C       		.uleb128 0xc
 2031 0e05 530E0000 		.4byte	.LASF236
 2032 0e09 0A       		.byte	0xa
 2033 0e0a E6       		.byte	0xe6
 2034 0e0b A2000000 		.4byte	0xa2
 2035 0e0f 24       		.byte	0x24
 2036 0e10 0C       		.uleb128 0xc
 2037 0e11 B90A0000 		.4byte	.LASF237
 2038 0e15 0A       		.byte	0xa
 2039 0e16 E7       		.byte	0xe7
 2040 0e17 0D0D0000 		.4byte	0xd0d
 2041 0e1b 26       		.byte	0x26
 2042 0e1c 0C       		.uleb128 0xc
 2043 0e1d 46080000 		.4byte	.LASF176
 2044 0e21 0A       		.byte	0xa
 2045 0e22 E8       		.byte	0xe8
 2046 0e23 3E0E0000 		.4byte	0xe3e
 2047 0e27 30       		.byte	0x30
 2048 0e28 00       		.byte	0
 2049 0e29 1F       		.uleb128 0x1f
 2050 0e2a 0F080000 		.4byte	0x80f
 2051 0e2e 380E0000 		.4byte	0xe38
 2052 0e32 20       		.uleb128 0x20
ARM GAS  /tmp/ccL5iU9U.s 			page 37


 2053 0e33 380E0000 		.4byte	0xe38
 2054 0e37 00       		.byte	0
 2055 0e38 09       		.uleb128 0x9
 2056 0e39 04       		.byte	0x4
 2057 0e3a 1E0C0000 		.4byte	0xc1e
 2058 0e3e 09       		.uleb128 0x9
 2059 0e3f 04       		.byte	0x4
 2060 0e40 290E0000 		.4byte	0xe29
 2061 0e44 03       		.uleb128 0x3
 2062 0e45 3E010000 		.4byte	.LASF238
 2063 0e49 0A       		.byte	0xa
 2064 0e4a EA       		.byte	0xea
 2065 0e4b 680D0000 		.4byte	0xd68
 2066 0e4f 0B       		.uleb128 0xb
 2067 0e50 55000000 		.4byte	.LASF239
 2068 0e54 05       		.byte	0x5
 2069 0e55 0B       		.byte	0xb
 2070 0e56 3D       		.byte	0x3d
 2071 0e57 7C0E0000 		.4byte	0xe7c
 2072 0e5b 0D       		.uleb128 0xd
 2073 0e5c 7800     		.ascii	"x\000"
 2074 0e5e 0B       		.byte	0xb
 2075 0e5f 3F       		.byte	0x3f
 2076 0e60 A2000000 		.4byte	0xa2
 2077 0e64 00       		.byte	0
 2078 0e65 0D       		.uleb128 0xd
 2079 0e66 7900     		.ascii	"y\000"
 2080 0e68 0B       		.byte	0xb
 2081 0e69 40       		.byte	0x40
 2082 0e6a A2000000 		.4byte	0xa2
 2083 0e6e 01       		.byte	0x1
 2084 0e6f 0C       		.uleb128 0xc
 2085 0e70 E6030000 		.4byte	.LASF240
 2086 0e74 0B       		.byte	0xb
 2087 0e75 41       		.byte	0x41
 2088 0e76 7C0E0000 		.4byte	0xe7c
 2089 0e7a 02       		.byte	0x2
 2090 0e7b 00       		.byte	0
 2091 0e7c 06       		.uleb128 0x6
 2092 0e7d A2000000 		.4byte	0xa2
 2093 0e81 8C0E0000 		.4byte	0xe8c
 2094 0e85 07       		.uleb128 0x7
 2095 0e86 D9000000 		.4byte	0xd9
 2096 0e8a 02       		.byte	0x2
 2097 0e8b 00       		.byte	0
 2098 0e8c 03       		.uleb128 0x3
 2099 0e8d 1C030000 		.4byte	.LASF241
 2100 0e91 0B       		.byte	0xb
 2101 0e92 43       		.byte	0x43
 2102 0e93 4F0E0000 		.4byte	0xe4f
 2103 0e97 0E       		.uleb128 0xe
 2104 0e98 20       		.byte	0x20
 2105 0e99 0C       		.byte	0xc
 2106 0e9a 3D       		.byte	0x3d
 2107 0e9b 180F0000 		.4byte	0xf18
 2108 0e9f 0C       		.uleb128 0xc
 2109 0ea0 420E0000 		.4byte	.LASF242
ARM GAS  /tmp/ccL5iU9U.s 			page 38


 2110 0ea4 0C       		.byte	0xc
 2111 0ea5 3F       		.byte	0x3f
 2112 0ea6 A7040000 		.4byte	0x4a7
 2113 0eaa 00       		.byte	0
 2114 0eab 0C       		.uleb128 0xc
 2115 0eac 17090000 		.4byte	.LASF224
 2116 0eb0 0C       		.byte	0xc
 2117 0eb1 40       		.byte	0x40
 2118 0eb2 CE000000 		.4byte	0xce
 2119 0eb6 04       		.byte	0x4
 2120 0eb7 0C       		.uleb128 0xc
 2121 0eb8 0A060000 		.4byte	.LASF243
 2122 0ebc 0C       		.byte	0xc
 2123 0ebd 41       		.byte	0x41
 2124 0ebe A2000000 		.4byte	0xa2
 2125 0ec2 08       		.byte	0x8
 2126 0ec3 0C       		.uleb128 0xc
 2127 0ec4 80010000 		.4byte	.LASF244
 2128 0ec8 0C       		.byte	0xc
 2129 0ec9 42       		.byte	0x42
 2130 0eca A2000000 		.4byte	0xa2
 2131 0ece 09       		.byte	0x9
 2132 0ecf 0C       		.uleb128 0xc
 2133 0ed0 0D010000 		.4byte	.LASF245
 2134 0ed4 0C       		.byte	0xc
 2135 0ed5 43       		.byte	0x43
 2136 0ed6 A2000000 		.4byte	0xa2
 2137 0eda 0A       		.byte	0xa
 2138 0edb 0C       		.uleb128 0xc
 2139 0edc 6B040000 		.4byte	.LASF246
 2140 0ee0 0C       		.byte	0xc
 2141 0ee1 44       		.byte	0x44
 2142 0ee2 CE000000 		.4byte	0xce
 2143 0ee6 0C       		.byte	0xc
 2144 0ee7 0C       		.uleb128 0xc
 2145 0ee8 D8000000 		.4byte	.LASF247
 2146 0eec 0C       		.byte	0xc
 2147 0eed 45       		.byte	0x45
 2148 0eee CE000000 		.4byte	0xce
 2149 0ef2 10       		.byte	0x10
 2150 0ef3 0C       		.uleb128 0xc
 2151 0ef4 6F020000 		.4byte	.LASF248
 2152 0ef8 0C       		.byte	0xc
 2153 0ef9 46       		.byte	0x46
 2154 0efa CE000000 		.4byte	0xce
 2155 0efe 14       		.byte	0x14
 2156 0eff 0C       		.uleb128 0xc
 2157 0f00 820D0000 		.4byte	.LASF249
 2158 0f04 0C       		.byte	0xc
 2159 0f05 47       		.byte	0x47
 2160 0f06 CE000000 		.4byte	0xce
 2161 0f0a 18       		.byte	0x18
 2162 0f0b 0C       		.uleb128 0xc
 2163 0f0c AF0B0000 		.4byte	.LASF250
 2164 0f10 0C       		.byte	0xc
 2165 0f11 48       		.byte	0x48
 2166 0f12 CE000000 		.4byte	0xce
ARM GAS  /tmp/ccL5iU9U.s 			page 39


 2167 0f16 1C       		.byte	0x1c
 2168 0f17 00       		.byte	0
 2169 0f18 03       		.uleb128 0x3
 2170 0f19 71050000 		.4byte	.LASF251
 2171 0f1d 0C       		.byte	0xc
 2172 0f1e 4A       		.byte	0x4a
 2173 0f1f 970E0000 		.4byte	0xe97
 2174 0f23 24       		.uleb128 0x24
 2175 0f24 58040000 		.4byte	.LASF252
 2176 0f28 01       		.byte	0x1
 2177 0f29 B0       		.byte	0xb0
 2178 0f2a 0F080000 		.4byte	0x80f
 2179 0f2e 00000000 		.4byte	.LFB133
 2180 0f32 40000000 		.4byte	.LFE133-.LFB133
 2181 0f36 01       		.uleb128 0x1
 2182 0f37 9C       		.byte	0x9c
 2183 0f38 750F0000 		.4byte	0xf75
 2184 0f3c 25       		.uleb128 0x25
 2185 0f3d 190E0000 		.4byte	.LASF254
 2186 0f41 01       		.byte	0x1
 2187 0f42 B0       		.byte	0xb0
 2188 0f43 380E0000 		.4byte	0xe38
 2189 0f47 00000000 		.4byte	.LLST0
 2190 0f4b 26       		.uleb128 0x26
 2191 0f4c 4F0A0000 		.4byte	.LASF255
 2192 0f50 01       		.byte	0x1
 2193 0f51 B2       		.byte	0xb2
 2194 0f52 750F0000 		.4byte	0xf75
 2195 0f56 3A000000 		.4byte	.LLST1
 2196 0f5a 27       		.uleb128 0x27
 2197 0f5b 34000000 		.4byte	.LVL4
 2198 0f5f 26110000 		.4byte	0x1126
 2199 0f63 28       		.uleb128 0x28
 2200 0f64 01       		.uleb128 0x1
 2201 0f65 52       		.byte	0x52
 2202 0f66 02       		.uleb128 0x2
 2203 0f67 08       		.byte	0x8
 2204 0f68 28       		.byte	0x28
 2205 0f69 28       		.uleb128 0x28
 2206 0f6a 01       		.uleb128 0x1
 2207 0f6b 51       		.byte	0x51
 2208 0f6c 06       		.uleb128 0x6
 2209 0f6d F3       		.byte	0xf3
 2210 0f6e 01       		.uleb128 0x1
 2211 0f6f 50       		.byte	0x50
 2212 0f70 23       		.byte	0x23
 2213 0f71 9C04     		.uleb128 0x21c
 2214 0f73 00       		.byte	0
 2215 0f74 00       		.byte	0
 2216 0f75 09       		.uleb128 0x9
 2217 0f76 04       		.byte	0x4
 2218 0f77 440E0000 		.4byte	0xe44
 2219 0f7b 29       		.uleb128 0x29
 2220 0f7c B9000000 		.4byte	.LASF270
 2221 0f80 01       		.byte	0x1
 2222 0f81 DE       		.byte	0xde
 2223 0f82 0F080000 		.4byte	0x80f
ARM GAS  /tmp/ccL5iU9U.s 			page 40


 2224 0f86 01       		.byte	0x1
 2225 0f87 A20F0000 		.4byte	0xfa2
 2226 0f8b 2A       		.uleb128 0x2a
 2227 0f8c 190E0000 		.4byte	.LASF254
 2228 0f90 01       		.byte	0x1
 2229 0f91 DE       		.byte	0xde
 2230 0f92 380E0000 		.4byte	0xe38
 2231 0f96 2B       		.uleb128 0x2b
 2232 0f97 4F0A0000 		.4byte	.LASF255
 2233 0f9b 01       		.byte	0x1
 2234 0f9c E0       		.byte	0xe0
 2235 0f9d 750F0000 		.4byte	0xf75
 2236 0fa1 00       		.byte	0
 2237 0fa2 24       		.uleb128 0x24
 2238 0fa3 520B0000 		.4byte	.LASF253
 2239 0fa7 01       		.byte	0x1
 2240 0fa8 CC       		.byte	0xcc
 2241 0fa9 98100000 		.4byte	0x1098
 2242 0fad 40000000 		.4byte	.LFB134
 2243 0fb1 78000000 		.4byte	.LFE134-.LFB134
 2244 0fb5 01       		.uleb128 0x1
 2245 0fb6 9C       		.byte	0x9c
 2246 0fb7 98100000 		.4byte	0x1098
 2247 0fbb 25       		.uleb128 0x25
 2248 0fbc 190E0000 		.4byte	.LASF254
 2249 0fc0 01       		.byte	0x1
 2250 0fc1 CC       		.byte	0xcc
 2251 0fc2 380E0000 		.4byte	0xe38
 2252 0fc6 5D000000 		.4byte	.LLST2
 2253 0fca 2C       		.uleb128 0x2c
 2254 0fcb 7B0F0000 		.4byte	0xf7b
 2255 0fcf 40000000 		.4byte	.LBB4
 2256 0fd3 00000000 		.4byte	.Ldebug_ranges0+0
 2257 0fd7 01       		.byte	0x1
 2258 0fd8 CE       		.byte	0xce
 2259 0fd9 2D       		.uleb128 0x2d
 2260 0fda 8B0F0000 		.4byte	0xf8b
 2261 0fde 5D000000 		.4byte	.LLST2
 2262 0fe2 2E       		.uleb128 0x2e
 2263 0fe3 00000000 		.4byte	.Ldebug_ranges0+0
 2264 0fe7 2F       		.uleb128 0x2f
 2265 0fe8 960F0000 		.4byte	0xf96
 2266 0fec 97000000 		.4byte	.LLST4
 2267 0ff0 30       		.uleb128 0x30
 2268 0ff1 5C000000 		.4byte	.LVL11
 2269 0ff5 48110000 		.4byte	0x1148
 2270 0ff9 0D100000 		.4byte	0x100d
 2271 0ffd 28       		.uleb128 0x28
 2272 0ffe 01       		.uleb128 0x1
 2273 0fff 51       		.byte	0x51
 2274 1000 05       		.uleb128 0x5
 2275 1001 03       		.byte	0x3
 2276 1002 00000000 		.4byte	mouse_report_data
 2277 1006 28       		.uleb128 0x28
 2278 1007 01       		.uleb128 0x1
 2279 1008 50       		.byte	0x50
 2280 1009 02       		.uleb128 0x2
ARM GAS  /tmp/ccL5iU9U.s 			page 41


 2281 100a 74       		.byte	0x74
 2282 100b 08       		.sleb128 8
 2283 100c 00       		.byte	0
 2284 100d 30       		.uleb128 0x30
 2285 100e 6C000000 		.4byte	.LVL13
 2286 1012 68110000 		.4byte	0x1168
 2287 1016 29100000 		.4byte	0x1029
 2288 101a 28       		.uleb128 0x28
 2289 101b 01       		.uleb128 0x1
 2290 101c 51       		.byte	0x51
 2291 101d 01       		.uleb128 0x1
 2292 101e 30       		.byte	0x30
 2293 101f 28       		.uleb128 0x28
 2294 1020 01       		.uleb128 0x1
 2295 1021 50       		.byte	0x50
 2296 1022 05       		.uleb128 0x5
 2297 1023 03       		.byte	0x3
 2298 1024 00000000 		.4byte	.LANCHOR0
 2299 1028 00       		.byte	0
 2300 1029 30       		.uleb128 0x30
 2301 102a 76000000 		.4byte	.LVL14
 2302 102e 68110000 		.4byte	0x1168
 2303 1032 45100000 		.4byte	0x1045
 2304 1036 28       		.uleb128 0x28
 2305 1037 01       		.uleb128 0x1
 2306 1038 51       		.byte	0x51
 2307 1039 01       		.uleb128 0x1
 2308 103a 30       		.byte	0x30
 2309 103b 28       		.uleb128 0x28
 2310 103c 01       		.uleb128 0x1
 2311 103d 50       		.byte	0x50
 2312 103e 05       		.uleb128 0x5
 2313 103f 03       		.byte	0x3
 2314 1040 20000000 		.4byte	.LANCHOR0+32
 2315 1044 00       		.byte	0
 2316 1045 30       		.uleb128 0x30
 2317 1046 80000000 		.4byte	.LVL15
 2318 104a 68110000 		.4byte	0x1168
 2319 104e 61100000 		.4byte	0x1061
 2320 1052 28       		.uleb128 0x28
 2321 1053 01       		.uleb128 0x1
 2322 1054 51       		.byte	0x51
 2323 1055 01       		.uleb128 0x1
 2324 1056 30       		.byte	0x30
 2325 1057 28       		.uleb128 0x28
 2326 1058 01       		.uleb128 0x1
 2327 1059 50       		.byte	0x50
 2328 105a 05       		.uleb128 0x5
 2329 105b 03       		.byte	0x3
 2330 105c 40000000 		.4byte	.LANCHOR0+64
 2331 1060 00       		.byte	0
 2332 1061 30       		.uleb128 0x30
 2333 1062 8A000000 		.4byte	.LVL16
 2334 1066 68110000 		.4byte	0x1168
 2335 106a 7D100000 		.4byte	0x107d
 2336 106e 28       		.uleb128 0x28
 2337 106f 01       		.uleb128 0x1
ARM GAS  /tmp/ccL5iU9U.s 			page 42


 2338 1070 51       		.byte	0x51
 2339 1071 01       		.uleb128 0x1
 2340 1072 30       		.byte	0x30
 2341 1073 28       		.uleb128 0x28
 2342 1074 01       		.uleb128 0x1
 2343 1075 50       		.byte	0x50
 2344 1076 05       		.uleb128 0x5
 2345 1077 03       		.byte	0x3
 2346 1078 60000000 		.4byte	.LANCHOR0+96
 2347 107c 00       		.byte	0
 2348 107d 27       		.uleb128 0x27
 2349 107e 94000000 		.4byte	.LVL17
 2350 1082 68110000 		.4byte	0x1168
 2351 1086 28       		.uleb128 0x28
 2352 1087 01       		.uleb128 0x1
 2353 1088 51       		.byte	0x51
 2354 1089 01       		.uleb128 0x1
 2355 108a 30       		.byte	0x30
 2356 108b 28       		.uleb128 0x28
 2357 108c 01       		.uleb128 0x1
 2358 108d 50       		.byte	0x50
 2359 108e 05       		.uleb128 0x5
 2360 108f 03       		.byte	0x3
 2361 1090 80000000 		.4byte	.LANCHOR0+128
 2362 1094 00       		.byte	0
 2363 1095 00       		.byte	0
 2364 1096 00       		.byte	0
 2365 1097 00       		.byte	0
 2366 1098 09       		.uleb128 0x9
 2367 1099 04       		.byte	0x4
 2368 109a 8C0E0000 		.4byte	0xe8c
 2369 109e 31       		.uleb128 0x31
 2370 109f 47030000 		.4byte	.LASF256
 2371 10a3 01       		.byte	0x1
 2372 10a4 5B       		.byte	0x5b
 2373 10a5 AF100000 		.4byte	0x10af
 2374 10a9 05       		.uleb128 0x5
 2375 10aa 03       		.byte	0x3
 2376 10ab 40000000 		.4byte	prop_b1
 2377 10af 0A       		.uleb128 0xa
 2378 10b0 180F0000 		.4byte	0xf18
 2379 10b4 31       		.uleb128 0x31
 2380 10b5 4F030000 		.4byte	.LASF257
 2381 10b9 01       		.byte	0x1
 2382 10ba 69       		.byte	0x69
 2383 10bb AF100000 		.4byte	0x10af
 2384 10bf 05       		.uleb128 0x5
 2385 10c0 03       		.byte	0x3
 2386 10c1 60000000 		.4byte	prop_b2
 2387 10c5 31       		.uleb128 0x31
 2388 10c6 57030000 		.4byte	.LASF258
 2389 10ca 01       		.byte	0x1
 2390 10cb 77       		.byte	0x77
 2391 10cc AF100000 		.4byte	0x10af
 2392 10d0 05       		.uleb128 0x5
 2393 10d1 03       		.byte	0x3
 2394 10d2 80000000 		.4byte	prop_b3
ARM GAS  /tmp/ccL5iU9U.s 			page 43


 2395 10d6 31       		.uleb128 0x31
 2396 10d7 68010000 		.4byte	.LASF259
 2397 10db 01       		.byte	0x1
 2398 10dc 85       		.byte	0x85
 2399 10dd AF100000 		.4byte	0x10af
 2400 10e1 05       		.uleb128 0x5
 2401 10e2 03       		.byte	0x3
 2402 10e3 00000000 		.4byte	prop_x
 2403 10e7 31       		.uleb128 0x31
 2404 10e8 6F010000 		.4byte	.LASF260
 2405 10ec 01       		.byte	0x1
 2406 10ed 93       		.byte	0x93
 2407 10ee AF100000 		.4byte	0x10af
 2408 10f2 05       		.uleb128 0x5
 2409 10f3 03       		.byte	0x3
 2410 10f4 20000000 		.4byte	prop_y
 2411 10f8 32       		.uleb128 0x32
 2412 10f9 FD060000 		.4byte	.LASF261
 2413 10fd 0D       		.byte	0xd
 2414 10fe DF07     		.2byte	0x7df
 2415 1100 1A010000 		.4byte	0x11a
 2416 1104 33       		.uleb128 0x33
 2417 1105 BF040000 		.4byte	.LASF262
 2418 1109 01       		.byte	0x1
 2419 110a 56       		.byte	0x56
 2420 110b 8C0E0000 		.4byte	0xe8c
 2421 110f 05       		.uleb128 0x5
 2422 1110 03       		.byte	0x3
 2423 1111 00000000 		.4byte	mouse_info
 2424 1115 33       		.uleb128 0x33
 2425 1116 CA010000 		.4byte	.LASF263
 2426 111a 01       		.byte	0x1
 2427 111b 57       		.byte	0x57
 2428 111c F5000000 		.4byte	0xf5
 2429 1120 05       		.uleb128 0x5
 2430 1121 03       		.byte	0x3
 2431 1122 00000000 		.4byte	mouse_report_data
 2432 1126 34       		.uleb128 0x34
 2433 1127 4B080000 		.4byte	.LASF271
 2434 112b 0A       		.byte	0xa
 2435 112c 3E01     		.2byte	0x13e
 2436 112e 42110000 		.4byte	0x1142
 2437 1132 20       		.uleb128 0x20
 2438 1133 42110000 		.4byte	0x1142
 2439 1137 20       		.uleb128 0x20
 2440 1138 A7040000 		.4byte	0x4a7
 2441 113c 20       		.uleb128 0x20
 2442 113d B8000000 		.4byte	0xb8
 2443 1141 00       		.byte	0
 2444 1142 09       		.uleb128 0x9
 2445 1143 04       		.byte	0x4
 2446 1144 5D0D0000 		.4byte	0xd5d
 2447 1148 35       		.uleb128 0x35
 2448 1149 12010000 		.4byte	.LASF264
 2449 114d 0A       		.byte	0xa
 2450 114e 4001     		.2byte	0x140
 2451 1150 B8000000 		.4byte	0xb8
ARM GAS  /tmp/ccL5iU9U.s 			page 44


 2452 1154 68110000 		.4byte	0x1168
 2453 1158 20       		.uleb128 0x20
 2454 1159 42110000 		.4byte	0x1142
 2455 115d 20       		.uleb128 0x20
 2456 115e 1F010000 		.4byte	0x11f
 2457 1162 20       		.uleb128 0x20
 2458 1163 B8000000 		.4byte	0xb8
 2459 1167 00       		.byte	0
 2460 1168 36       		.uleb128 0x36
 2461 1169 CC0B0000 		.4byte	.LASF265
 2462 116d 0C       		.byte	0xc
 2463 116e 4D       		.byte	0x4d
 2464 116f CE000000 		.4byte	0xce
 2465 1173 82110000 		.4byte	0x1182
 2466 1177 20       		.uleb128 0x20
 2467 1178 82110000 		.4byte	0x1182
 2468 117c 20       		.uleb128 0x20
 2469 117d A2000000 		.4byte	0xa2
 2470 1181 00       		.byte	0
 2471 1182 09       		.uleb128 0x9
 2472 1183 04       		.byte	0x4
 2473 1184 180F0000 		.4byte	0xf18
 2474 1188 00       		.byte	0
 2475              		.section	.debug_abbrev,"",%progbits
 2476              	.Ldebug_abbrev0:
 2477 0000 01       		.uleb128 0x1
 2478 0001 11       		.uleb128 0x11
 2479 0002 01       		.byte	0x1
 2480 0003 25       		.uleb128 0x25
 2481 0004 0E       		.uleb128 0xe
 2482 0005 13       		.uleb128 0x13
 2483 0006 0B       		.uleb128 0xb
 2484 0007 03       		.uleb128 0x3
 2485 0008 0E       		.uleb128 0xe
 2486 0009 1B       		.uleb128 0x1b
 2487 000a 0E       		.uleb128 0xe
 2488 000b 11       		.uleb128 0x11
 2489 000c 01       		.uleb128 0x1
 2490 000d 12       		.uleb128 0x12
 2491 000e 06       		.uleb128 0x6
 2492 000f 10       		.uleb128 0x10
 2493 0010 17       		.uleb128 0x17
 2494 0011 00       		.byte	0
 2495 0012 00       		.byte	0
 2496 0013 02       		.uleb128 0x2
 2497 0014 24       		.uleb128 0x24
 2498 0015 00       		.byte	0
 2499 0016 0B       		.uleb128 0xb
 2500 0017 0B       		.uleb128 0xb
 2501 0018 3E       		.uleb128 0x3e
 2502 0019 0B       		.uleb128 0xb
 2503 001a 03       		.uleb128 0x3
 2504 001b 0E       		.uleb128 0xe
 2505 001c 00       		.byte	0
 2506 001d 00       		.byte	0
 2507 001e 03       		.uleb128 0x3
 2508 001f 16       		.uleb128 0x16
ARM GAS  /tmp/ccL5iU9U.s 			page 45


 2509 0020 00       		.byte	0
 2510 0021 03       		.uleb128 0x3
 2511 0022 0E       		.uleb128 0xe
 2512 0023 3A       		.uleb128 0x3a
 2513 0024 0B       		.uleb128 0xb
 2514 0025 3B       		.uleb128 0x3b
 2515 0026 0B       		.uleb128 0xb
 2516 0027 49       		.uleb128 0x49
 2517 0028 13       		.uleb128 0x13
 2518 0029 00       		.byte	0
 2519 002a 00       		.byte	0
 2520 002b 04       		.uleb128 0x4
 2521 002c 24       		.uleb128 0x24
 2522 002d 00       		.byte	0
 2523 002e 0B       		.uleb128 0xb
 2524 002f 0B       		.uleb128 0xb
 2525 0030 3E       		.uleb128 0x3e
 2526 0031 0B       		.uleb128 0xb
 2527 0032 03       		.uleb128 0x3
 2528 0033 08       		.uleb128 0x8
 2529 0034 00       		.byte	0
 2530 0035 00       		.byte	0
 2531 0036 05       		.uleb128 0x5
 2532 0037 35       		.uleb128 0x35
 2533 0038 00       		.byte	0
 2534 0039 49       		.uleb128 0x49
 2535 003a 13       		.uleb128 0x13
 2536 003b 00       		.byte	0
 2537 003c 00       		.byte	0
 2538 003d 06       		.uleb128 0x6
 2539 003e 01       		.uleb128 0x1
 2540 003f 01       		.byte	0x1
 2541 0040 49       		.uleb128 0x49
 2542 0041 13       		.uleb128 0x13
 2543 0042 01       		.uleb128 0x1
 2544 0043 13       		.uleb128 0x13
 2545 0044 00       		.byte	0
 2546 0045 00       		.byte	0
 2547 0046 07       		.uleb128 0x7
 2548 0047 21       		.uleb128 0x21
 2549 0048 00       		.byte	0
 2550 0049 49       		.uleb128 0x49
 2551 004a 13       		.uleb128 0x13
 2552 004b 2F       		.uleb128 0x2f
 2553 004c 0B       		.uleb128 0xb
 2554 004d 00       		.byte	0
 2555 004e 00       		.byte	0
 2556 004f 08       		.uleb128 0x8
 2557 0050 0F       		.uleb128 0xf
 2558 0051 00       		.byte	0
 2559 0052 0B       		.uleb128 0xb
 2560 0053 0B       		.uleb128 0xb
 2561 0054 00       		.byte	0
 2562 0055 00       		.byte	0
 2563 0056 09       		.uleb128 0x9
 2564 0057 0F       		.uleb128 0xf
 2565 0058 00       		.byte	0
ARM GAS  /tmp/ccL5iU9U.s 			page 46


 2566 0059 0B       		.uleb128 0xb
 2567 005a 0B       		.uleb128 0xb
 2568 005b 49       		.uleb128 0x49
 2569 005c 13       		.uleb128 0x13
 2570 005d 00       		.byte	0
 2571 005e 00       		.byte	0
 2572 005f 0A       		.uleb128 0xa
 2573 0060 26       		.uleb128 0x26
 2574 0061 00       		.byte	0
 2575 0062 49       		.uleb128 0x49
 2576 0063 13       		.uleb128 0x13
 2577 0064 00       		.byte	0
 2578 0065 00       		.byte	0
 2579 0066 0B       		.uleb128 0xb
 2580 0067 13       		.uleb128 0x13
 2581 0068 01       		.byte	0x1
 2582 0069 03       		.uleb128 0x3
 2583 006a 0E       		.uleb128 0xe
 2584 006b 0B       		.uleb128 0xb
 2585 006c 0B       		.uleb128 0xb
 2586 006d 3A       		.uleb128 0x3a
 2587 006e 0B       		.uleb128 0xb
 2588 006f 3B       		.uleb128 0x3b
 2589 0070 0B       		.uleb128 0xb
 2590 0071 01       		.uleb128 0x1
 2591 0072 13       		.uleb128 0x13
 2592 0073 00       		.byte	0
 2593 0074 00       		.byte	0
 2594 0075 0C       		.uleb128 0xc
 2595 0076 0D       		.uleb128 0xd
 2596 0077 00       		.byte	0
 2597 0078 03       		.uleb128 0x3
 2598 0079 0E       		.uleb128 0xe
 2599 007a 3A       		.uleb128 0x3a
 2600 007b 0B       		.uleb128 0xb
 2601 007c 3B       		.uleb128 0x3b
 2602 007d 0B       		.uleb128 0xb
 2603 007e 49       		.uleb128 0x49
 2604 007f 13       		.uleb128 0x13
 2605 0080 38       		.uleb128 0x38
 2606 0081 0B       		.uleb128 0xb
 2607 0082 00       		.byte	0
 2608 0083 00       		.byte	0
 2609 0084 0D       		.uleb128 0xd
 2610 0085 0D       		.uleb128 0xd
 2611 0086 00       		.byte	0
 2612 0087 03       		.uleb128 0x3
 2613 0088 08       		.uleb128 0x8
 2614 0089 3A       		.uleb128 0x3a
 2615 008a 0B       		.uleb128 0xb
 2616 008b 3B       		.uleb128 0x3b
 2617 008c 0B       		.uleb128 0xb
 2618 008d 49       		.uleb128 0x49
 2619 008e 13       		.uleb128 0x13
 2620 008f 38       		.uleb128 0x38
 2621 0090 0B       		.uleb128 0xb
 2622 0091 00       		.byte	0
ARM GAS  /tmp/ccL5iU9U.s 			page 47


 2623 0092 00       		.byte	0
 2624 0093 0E       		.uleb128 0xe
 2625 0094 13       		.uleb128 0x13
 2626 0095 01       		.byte	0x1
 2627 0096 0B       		.uleb128 0xb
 2628 0097 0B       		.uleb128 0xb
 2629 0098 3A       		.uleb128 0x3a
 2630 0099 0B       		.uleb128 0xb
 2631 009a 3B       		.uleb128 0x3b
 2632 009b 0B       		.uleb128 0xb
 2633 009c 01       		.uleb128 0x1
 2634 009d 13       		.uleb128 0x13
 2635 009e 00       		.byte	0
 2636 009f 00       		.byte	0
 2637 00a0 0F       		.uleb128 0xf
 2638 00a1 13       		.uleb128 0x13
 2639 00a2 01       		.byte	0x1
 2640 00a3 03       		.uleb128 0x3
 2641 00a4 0E       		.uleb128 0xe
 2642 00a5 0B       		.uleb128 0xb
 2643 00a6 0B       		.uleb128 0xb
 2644 00a7 3A       		.uleb128 0x3a
 2645 00a8 0B       		.uleb128 0xb
 2646 00a9 3B       		.uleb128 0x3b
 2647 00aa 05       		.uleb128 0x5
 2648 00ab 01       		.uleb128 0x1
 2649 00ac 13       		.uleb128 0x13
 2650 00ad 00       		.byte	0
 2651 00ae 00       		.byte	0
 2652 00af 10       		.uleb128 0x10
 2653 00b0 0D       		.uleb128 0xd
 2654 00b1 00       		.byte	0
 2655 00b2 03       		.uleb128 0x3
 2656 00b3 08       		.uleb128 0x8
 2657 00b4 3A       		.uleb128 0x3a
 2658 00b5 0B       		.uleb128 0xb
 2659 00b6 3B       		.uleb128 0x3b
 2660 00b7 05       		.uleb128 0x5
 2661 00b8 49       		.uleb128 0x49
 2662 00b9 13       		.uleb128 0x13
 2663 00ba 38       		.uleb128 0x38
 2664 00bb 0B       		.uleb128 0xb
 2665 00bc 00       		.byte	0
 2666 00bd 00       		.byte	0
 2667 00be 11       		.uleb128 0x11
 2668 00bf 17       		.uleb128 0x17
 2669 00c0 01       		.byte	0x1
 2670 00c1 0B       		.uleb128 0xb
 2671 00c2 0B       		.uleb128 0xb
 2672 00c3 3A       		.uleb128 0x3a
 2673 00c4 0B       		.uleb128 0xb
 2674 00c5 3B       		.uleb128 0x3b
 2675 00c6 0B       		.uleb128 0xb
 2676 00c7 01       		.uleb128 0x1
 2677 00c8 13       		.uleb128 0x13
 2678 00c9 00       		.byte	0
 2679 00ca 00       		.byte	0
ARM GAS  /tmp/ccL5iU9U.s 			page 48


 2680 00cb 12       		.uleb128 0x12
 2681 00cc 0D       		.uleb128 0xd
 2682 00cd 00       		.byte	0
 2683 00ce 03       		.uleb128 0x3
 2684 00cf 0E       		.uleb128 0xe
 2685 00d0 3A       		.uleb128 0x3a
 2686 00d1 0B       		.uleb128 0xb
 2687 00d2 3B       		.uleb128 0x3b
 2688 00d3 0B       		.uleb128 0xb
 2689 00d4 49       		.uleb128 0x49
 2690 00d5 13       		.uleb128 0x13
 2691 00d6 00       		.byte	0
 2692 00d7 00       		.byte	0
 2693 00d8 13       		.uleb128 0x13
 2694 00d9 13       		.uleb128 0x13
 2695 00da 01       		.byte	0x1
 2696 00db 03       		.uleb128 0x3
 2697 00dc 08       		.uleb128 0x8
 2698 00dd 0B       		.uleb128 0xb
 2699 00de 0B       		.uleb128 0xb
 2700 00df 3A       		.uleb128 0x3a
 2701 00e0 0B       		.uleb128 0xb
 2702 00e1 3B       		.uleb128 0x3b
 2703 00e2 0B       		.uleb128 0xb
 2704 00e3 01       		.uleb128 0x1
 2705 00e4 13       		.uleb128 0x13
 2706 00e5 00       		.byte	0
 2707 00e6 00       		.byte	0
 2708 00e7 14       		.uleb128 0x14
 2709 00e8 0D       		.uleb128 0xd
 2710 00e9 00       		.byte	0
 2711 00ea 03       		.uleb128 0x3
 2712 00eb 08       		.uleb128 0x8
 2713 00ec 3A       		.uleb128 0x3a
 2714 00ed 0B       		.uleb128 0xb
 2715 00ee 3B       		.uleb128 0x3b
 2716 00ef 0B       		.uleb128 0xb
 2717 00f0 49       		.uleb128 0x49
 2718 00f1 13       		.uleb128 0x13
 2719 00f2 00       		.byte	0
 2720 00f3 00       		.byte	0
 2721 00f4 15       		.uleb128 0x15
 2722 00f5 17       		.uleb128 0x17
 2723 00f6 01       		.byte	0x1
 2724 00f7 03       		.uleb128 0x3
 2725 00f8 0E       		.uleb128 0xe
 2726 00f9 0B       		.uleb128 0xb
 2727 00fa 0B       		.uleb128 0xb
 2728 00fb 3A       		.uleb128 0x3a
 2729 00fc 0B       		.uleb128 0xb
 2730 00fd 3B       		.uleb128 0x3b
 2731 00fe 0B       		.uleb128 0xb
 2732 00ff 01       		.uleb128 0x1
 2733 0100 13       		.uleb128 0x13
 2734 0101 00       		.byte	0
 2735 0102 00       		.byte	0
 2736 0103 16       		.uleb128 0x16
ARM GAS  /tmp/ccL5iU9U.s 			page 49


 2737 0104 16       		.uleb128 0x16
 2738 0105 00       		.byte	0
 2739 0106 03       		.uleb128 0x3
 2740 0107 0E       		.uleb128 0xe
 2741 0108 3A       		.uleb128 0x3a
 2742 0109 0B       		.uleb128 0xb
 2743 010a 3B       		.uleb128 0x3b
 2744 010b 05       		.uleb128 0x5
 2745 010c 49       		.uleb128 0x49
 2746 010d 13       		.uleb128 0x13
 2747 010e 00       		.byte	0
 2748 010f 00       		.byte	0
 2749 0110 17       		.uleb128 0x17
 2750 0111 0D       		.uleb128 0xd
 2751 0112 00       		.byte	0
 2752 0113 03       		.uleb128 0x3
 2753 0114 0E       		.uleb128 0xe
 2754 0115 3A       		.uleb128 0x3a
 2755 0116 0B       		.uleb128 0xb
 2756 0117 3B       		.uleb128 0x3b
 2757 0118 05       		.uleb128 0x5
 2758 0119 49       		.uleb128 0x49
 2759 011a 13       		.uleb128 0x13
 2760 011b 38       		.uleb128 0x38
 2761 011c 0B       		.uleb128 0xb
 2762 011d 00       		.byte	0
 2763 011e 00       		.byte	0
 2764 011f 18       		.uleb128 0x18
 2765 0120 13       		.uleb128 0x13
 2766 0121 01       		.byte	0x1
 2767 0122 03       		.uleb128 0x3
 2768 0123 0E       		.uleb128 0xe
 2769 0124 0B       		.uleb128 0xb
 2770 0125 05       		.uleb128 0x5
 2771 0126 3A       		.uleb128 0x3a
 2772 0127 0B       		.uleb128 0xb
 2773 0128 3B       		.uleb128 0x3b
 2774 0129 05       		.uleb128 0x5
 2775 012a 01       		.uleb128 0x1
 2776 012b 13       		.uleb128 0x13
 2777 012c 00       		.byte	0
 2778 012d 00       		.byte	0
 2779 012e 19       		.uleb128 0x19
 2780 012f 04       		.uleb128 0x4
 2781 0130 01       		.byte	0x1
 2782 0131 0B       		.uleb128 0xb
 2783 0132 0B       		.uleb128 0xb
 2784 0133 3A       		.uleb128 0x3a
 2785 0134 0B       		.uleb128 0xb
 2786 0135 3B       		.uleb128 0x3b
 2787 0136 05       		.uleb128 0x5
 2788 0137 01       		.uleb128 0x1
 2789 0138 13       		.uleb128 0x13
 2790 0139 00       		.byte	0
 2791 013a 00       		.byte	0
 2792 013b 1A       		.uleb128 0x1a
 2793 013c 28       		.uleb128 0x28
ARM GAS  /tmp/ccL5iU9U.s 			page 50


 2794 013d 00       		.byte	0
 2795 013e 03       		.uleb128 0x3
 2796 013f 0E       		.uleb128 0xe
 2797 0140 1C       		.uleb128 0x1c
 2798 0141 0D       		.uleb128 0xd
 2799 0142 00       		.byte	0
 2800 0143 00       		.byte	0
 2801 0144 1B       		.uleb128 0x1b
 2802 0145 13       		.uleb128 0x13
 2803 0146 01       		.byte	0x1
 2804 0147 0B       		.uleb128 0xb
 2805 0148 0B       		.uleb128 0xb
 2806 0149 3A       		.uleb128 0x3a
 2807 014a 0B       		.uleb128 0xb
 2808 014b 3B       		.uleb128 0x3b
 2809 014c 05       		.uleb128 0x5
 2810 014d 01       		.uleb128 0x1
 2811 014e 13       		.uleb128 0x13
 2812 014f 00       		.byte	0
 2813 0150 00       		.byte	0
 2814 0151 1C       		.uleb128 0x1c
 2815 0152 13       		.uleb128 0x13
 2816 0153 01       		.byte	0x1
 2817 0154 0B       		.uleb128 0xb
 2818 0155 05       		.uleb128 0x5
 2819 0156 3A       		.uleb128 0x3a
 2820 0157 0B       		.uleb128 0xb
 2821 0158 3B       		.uleb128 0x3b
 2822 0159 05       		.uleb128 0x5
 2823 015a 01       		.uleb128 0x1
 2824 015b 13       		.uleb128 0x13
 2825 015c 00       		.byte	0
 2826 015d 00       		.byte	0
 2827 015e 1D       		.uleb128 0x1d
 2828 015f 0D       		.uleb128 0xd
 2829 0160 00       		.byte	0
 2830 0161 03       		.uleb128 0x3
 2831 0162 0E       		.uleb128 0xe
 2832 0163 3A       		.uleb128 0x3a
 2833 0164 0B       		.uleb128 0xb
 2834 0165 3B       		.uleb128 0x3b
 2835 0166 05       		.uleb128 0x5
 2836 0167 49       		.uleb128 0x49
 2837 0168 13       		.uleb128 0x13
 2838 0169 38       		.uleb128 0x38
 2839 016a 05       		.uleb128 0x5
 2840 016b 00       		.byte	0
 2841 016c 00       		.byte	0
 2842 016d 1E       		.uleb128 0x1e
 2843 016e 21       		.uleb128 0x21
 2844 016f 00       		.byte	0
 2845 0170 49       		.uleb128 0x49
 2846 0171 13       		.uleb128 0x13
 2847 0172 2F       		.uleb128 0x2f
 2848 0173 05       		.uleb128 0x5
 2849 0174 00       		.byte	0
 2850 0175 00       		.byte	0
ARM GAS  /tmp/ccL5iU9U.s 			page 51


 2851 0176 1F       		.uleb128 0x1f
 2852 0177 15       		.uleb128 0x15
 2853 0178 01       		.byte	0x1
 2854 0179 27       		.uleb128 0x27
 2855 017a 19       		.uleb128 0x19
 2856 017b 49       		.uleb128 0x49
 2857 017c 13       		.uleb128 0x13
 2858 017d 01       		.uleb128 0x1
 2859 017e 13       		.uleb128 0x13
 2860 017f 00       		.byte	0
 2861 0180 00       		.byte	0
 2862 0181 20       		.uleb128 0x20
 2863 0182 05       		.uleb128 0x5
 2864 0183 00       		.byte	0
 2865 0184 49       		.uleb128 0x49
 2866 0185 13       		.uleb128 0x13
 2867 0186 00       		.byte	0
 2868 0187 00       		.byte	0
 2869 0188 21       		.uleb128 0x21
 2870 0189 0D       		.uleb128 0xd
 2871 018a 00       		.byte	0
 2872 018b 03       		.uleb128 0x3
 2873 018c 08       		.uleb128 0x8
 2874 018d 3A       		.uleb128 0x3a
 2875 018e 0B       		.uleb128 0xb
 2876 018f 3B       		.uleb128 0x3b
 2877 0190 05       		.uleb128 0x5
 2878 0191 49       		.uleb128 0x49
 2879 0192 13       		.uleb128 0x13
 2880 0193 38       		.uleb128 0x38
 2881 0194 05       		.uleb128 0x5
 2882 0195 00       		.byte	0
 2883 0196 00       		.byte	0
 2884 0197 22       		.uleb128 0x22
 2885 0198 15       		.uleb128 0x15
 2886 0199 01       		.byte	0x1
 2887 019a 27       		.uleb128 0x27
 2888 019b 19       		.uleb128 0x19
 2889 019c 01       		.uleb128 0x1
 2890 019d 13       		.uleb128 0x13
 2891 019e 00       		.byte	0
 2892 019f 00       		.byte	0
 2893 01a0 23       		.uleb128 0x23
 2894 01a1 04       		.uleb128 0x4
 2895 01a2 01       		.byte	0x1
 2896 01a3 0B       		.uleb128 0xb
 2897 01a4 0B       		.uleb128 0xb
 2898 01a5 3A       		.uleb128 0x3a
 2899 01a6 0B       		.uleb128 0xb
 2900 01a7 3B       		.uleb128 0x3b
 2901 01a8 0B       		.uleb128 0xb
 2902 01a9 01       		.uleb128 0x1
 2903 01aa 13       		.uleb128 0x13
 2904 01ab 00       		.byte	0
 2905 01ac 00       		.byte	0
 2906 01ad 24       		.uleb128 0x24
 2907 01ae 2E       		.uleb128 0x2e
ARM GAS  /tmp/ccL5iU9U.s 			page 52


 2908 01af 01       		.byte	0x1
 2909 01b0 3F       		.uleb128 0x3f
 2910 01b1 19       		.uleb128 0x19
 2911 01b2 03       		.uleb128 0x3
 2912 01b3 0E       		.uleb128 0xe
 2913 01b4 3A       		.uleb128 0x3a
 2914 01b5 0B       		.uleb128 0xb
 2915 01b6 3B       		.uleb128 0x3b
 2916 01b7 0B       		.uleb128 0xb
 2917 01b8 27       		.uleb128 0x27
 2918 01b9 19       		.uleb128 0x19
 2919 01ba 49       		.uleb128 0x49
 2920 01bb 13       		.uleb128 0x13
 2921 01bc 11       		.uleb128 0x11
 2922 01bd 01       		.uleb128 0x1
 2923 01be 12       		.uleb128 0x12
 2924 01bf 06       		.uleb128 0x6
 2925 01c0 40       		.uleb128 0x40
 2926 01c1 18       		.uleb128 0x18
 2927 01c2 9742     		.uleb128 0x2117
 2928 01c4 19       		.uleb128 0x19
 2929 01c5 01       		.uleb128 0x1
 2930 01c6 13       		.uleb128 0x13
 2931 01c7 00       		.byte	0
 2932 01c8 00       		.byte	0
 2933 01c9 25       		.uleb128 0x25
 2934 01ca 05       		.uleb128 0x5
 2935 01cb 00       		.byte	0
 2936 01cc 03       		.uleb128 0x3
 2937 01cd 0E       		.uleb128 0xe
 2938 01ce 3A       		.uleb128 0x3a
 2939 01cf 0B       		.uleb128 0xb
 2940 01d0 3B       		.uleb128 0x3b
 2941 01d1 0B       		.uleb128 0xb
 2942 01d2 49       		.uleb128 0x49
 2943 01d3 13       		.uleb128 0x13
 2944 01d4 02       		.uleb128 0x2
 2945 01d5 17       		.uleb128 0x17
 2946 01d6 00       		.byte	0
 2947 01d7 00       		.byte	0
 2948 01d8 26       		.uleb128 0x26
 2949 01d9 34       		.uleb128 0x34
 2950 01da 00       		.byte	0
 2951 01db 03       		.uleb128 0x3
 2952 01dc 0E       		.uleb128 0xe
 2953 01dd 3A       		.uleb128 0x3a
 2954 01de 0B       		.uleb128 0xb
 2955 01df 3B       		.uleb128 0x3b
 2956 01e0 0B       		.uleb128 0xb
 2957 01e1 49       		.uleb128 0x49
 2958 01e2 13       		.uleb128 0x13
 2959 01e3 02       		.uleb128 0x2
 2960 01e4 17       		.uleb128 0x17
 2961 01e5 00       		.byte	0
 2962 01e6 00       		.byte	0
 2963 01e7 27       		.uleb128 0x27
 2964 01e8 898201   		.uleb128 0x4109
ARM GAS  /tmp/ccL5iU9U.s 			page 53


 2965 01eb 01       		.byte	0x1
 2966 01ec 11       		.uleb128 0x11
 2967 01ed 01       		.uleb128 0x1
 2968 01ee 31       		.uleb128 0x31
 2969 01ef 13       		.uleb128 0x13
 2970 01f0 00       		.byte	0
 2971 01f1 00       		.byte	0
 2972 01f2 28       		.uleb128 0x28
 2973 01f3 8A8201   		.uleb128 0x410a
 2974 01f6 00       		.byte	0
 2975 01f7 02       		.uleb128 0x2
 2976 01f8 18       		.uleb128 0x18
 2977 01f9 9142     		.uleb128 0x2111
 2978 01fb 18       		.uleb128 0x18
 2979 01fc 00       		.byte	0
 2980 01fd 00       		.byte	0
 2981 01fe 29       		.uleb128 0x29
 2982 01ff 2E       		.uleb128 0x2e
 2983 0200 01       		.byte	0x1
 2984 0201 03       		.uleb128 0x3
 2985 0202 0E       		.uleb128 0xe
 2986 0203 3A       		.uleb128 0x3a
 2987 0204 0B       		.uleb128 0xb
 2988 0205 3B       		.uleb128 0x3b
 2989 0206 0B       		.uleb128 0xb
 2990 0207 27       		.uleb128 0x27
 2991 0208 19       		.uleb128 0x19
 2992 0209 49       		.uleb128 0x49
 2993 020a 13       		.uleb128 0x13
 2994 020b 20       		.uleb128 0x20
 2995 020c 0B       		.uleb128 0xb
 2996 020d 01       		.uleb128 0x1
 2997 020e 13       		.uleb128 0x13
 2998 020f 00       		.byte	0
 2999 0210 00       		.byte	0
 3000 0211 2A       		.uleb128 0x2a
 3001 0212 05       		.uleb128 0x5
 3002 0213 00       		.byte	0
 3003 0214 03       		.uleb128 0x3
 3004 0215 0E       		.uleb128 0xe
 3005 0216 3A       		.uleb128 0x3a
 3006 0217 0B       		.uleb128 0xb
 3007 0218 3B       		.uleb128 0x3b
 3008 0219 0B       		.uleb128 0xb
 3009 021a 49       		.uleb128 0x49
 3010 021b 13       		.uleb128 0x13
 3011 021c 00       		.byte	0
 3012 021d 00       		.byte	0
 3013 021e 2B       		.uleb128 0x2b
 3014 021f 34       		.uleb128 0x34
 3015 0220 00       		.byte	0
 3016 0221 03       		.uleb128 0x3
 3017 0222 0E       		.uleb128 0xe
 3018 0223 3A       		.uleb128 0x3a
 3019 0224 0B       		.uleb128 0xb
 3020 0225 3B       		.uleb128 0x3b
 3021 0226 0B       		.uleb128 0xb
ARM GAS  /tmp/ccL5iU9U.s 			page 54


 3022 0227 49       		.uleb128 0x49
 3023 0228 13       		.uleb128 0x13
 3024 0229 00       		.byte	0
 3025 022a 00       		.byte	0
 3026 022b 2C       		.uleb128 0x2c
 3027 022c 1D       		.uleb128 0x1d
 3028 022d 01       		.byte	0x1
 3029 022e 31       		.uleb128 0x31
 3030 022f 13       		.uleb128 0x13
 3031 0230 52       		.uleb128 0x52
 3032 0231 01       		.uleb128 0x1
 3033 0232 55       		.uleb128 0x55
 3034 0233 17       		.uleb128 0x17
 3035 0234 58       		.uleb128 0x58
 3036 0235 0B       		.uleb128 0xb
 3037 0236 59       		.uleb128 0x59
 3038 0237 0B       		.uleb128 0xb
 3039 0238 00       		.byte	0
 3040 0239 00       		.byte	0
 3041 023a 2D       		.uleb128 0x2d
 3042 023b 05       		.uleb128 0x5
 3043 023c 00       		.byte	0
 3044 023d 31       		.uleb128 0x31
 3045 023e 13       		.uleb128 0x13
 3046 023f 02       		.uleb128 0x2
 3047 0240 17       		.uleb128 0x17
 3048 0241 00       		.byte	0
 3049 0242 00       		.byte	0
 3050 0243 2E       		.uleb128 0x2e
 3051 0244 0B       		.uleb128 0xb
 3052 0245 01       		.byte	0x1
 3053 0246 55       		.uleb128 0x55
 3054 0247 17       		.uleb128 0x17
 3055 0248 00       		.byte	0
 3056 0249 00       		.byte	0
 3057 024a 2F       		.uleb128 0x2f
 3058 024b 34       		.uleb128 0x34
 3059 024c 00       		.byte	0
 3060 024d 31       		.uleb128 0x31
 3061 024e 13       		.uleb128 0x13
 3062 024f 02       		.uleb128 0x2
 3063 0250 17       		.uleb128 0x17
 3064 0251 00       		.byte	0
 3065 0252 00       		.byte	0
 3066 0253 30       		.uleb128 0x30
 3067 0254 898201   		.uleb128 0x4109
 3068 0257 01       		.byte	0x1
 3069 0258 11       		.uleb128 0x11
 3070 0259 01       		.uleb128 0x1
 3071 025a 31       		.uleb128 0x31
 3072 025b 13       		.uleb128 0x13
 3073 025c 01       		.uleb128 0x1
 3074 025d 13       		.uleb128 0x13
 3075 025e 00       		.byte	0
 3076 025f 00       		.byte	0
 3077 0260 31       		.uleb128 0x31
 3078 0261 34       		.uleb128 0x34
ARM GAS  /tmp/ccL5iU9U.s 			page 55


 3079 0262 00       		.byte	0
 3080 0263 03       		.uleb128 0x3
 3081 0264 0E       		.uleb128 0xe
 3082 0265 3A       		.uleb128 0x3a
 3083 0266 0B       		.uleb128 0xb
 3084 0267 3B       		.uleb128 0x3b
 3085 0268 0B       		.uleb128 0xb
 3086 0269 49       		.uleb128 0x49
 3087 026a 13       		.uleb128 0x13
 3088 026b 02       		.uleb128 0x2
 3089 026c 18       		.uleb128 0x18
 3090 026d 00       		.byte	0
 3091 026e 00       		.byte	0
 3092 026f 32       		.uleb128 0x32
 3093 0270 34       		.uleb128 0x34
 3094 0271 00       		.byte	0
 3095 0272 03       		.uleb128 0x3
 3096 0273 0E       		.uleb128 0xe
 3097 0274 3A       		.uleb128 0x3a
 3098 0275 0B       		.uleb128 0xb
 3099 0276 3B       		.uleb128 0x3b
 3100 0277 05       		.uleb128 0x5
 3101 0278 49       		.uleb128 0x49
 3102 0279 13       		.uleb128 0x13
 3103 027a 3F       		.uleb128 0x3f
 3104 027b 19       		.uleb128 0x19
 3105 027c 3C       		.uleb128 0x3c
 3106 027d 19       		.uleb128 0x19
 3107 027e 00       		.byte	0
 3108 027f 00       		.byte	0
 3109 0280 33       		.uleb128 0x33
 3110 0281 34       		.uleb128 0x34
 3111 0282 00       		.byte	0
 3112 0283 03       		.uleb128 0x3
 3113 0284 0E       		.uleb128 0xe
 3114 0285 3A       		.uleb128 0x3a
 3115 0286 0B       		.uleb128 0xb
 3116 0287 3B       		.uleb128 0x3b
 3117 0288 0B       		.uleb128 0xb
 3118 0289 49       		.uleb128 0x49
 3119 028a 13       		.uleb128 0x13
 3120 028b 3F       		.uleb128 0x3f
 3121 028c 19       		.uleb128 0x19
 3122 028d 02       		.uleb128 0x2
 3123 028e 18       		.uleb128 0x18
 3124 028f 00       		.byte	0
 3125 0290 00       		.byte	0
 3126 0291 34       		.uleb128 0x34
 3127 0292 2E       		.uleb128 0x2e
 3128 0293 01       		.byte	0x1
 3129 0294 3F       		.uleb128 0x3f
 3130 0295 19       		.uleb128 0x19
 3131 0296 03       		.uleb128 0x3
 3132 0297 0E       		.uleb128 0xe
 3133 0298 3A       		.uleb128 0x3a
 3134 0299 0B       		.uleb128 0xb
 3135 029a 3B       		.uleb128 0x3b
ARM GAS  /tmp/ccL5iU9U.s 			page 56


 3136 029b 05       		.uleb128 0x5
 3137 029c 27       		.uleb128 0x27
 3138 029d 19       		.uleb128 0x19
 3139 029e 3C       		.uleb128 0x3c
 3140 029f 19       		.uleb128 0x19
 3141 02a0 01       		.uleb128 0x1
 3142 02a1 13       		.uleb128 0x13
 3143 02a2 00       		.byte	0
 3144 02a3 00       		.byte	0
 3145 02a4 35       		.uleb128 0x35
 3146 02a5 2E       		.uleb128 0x2e
 3147 02a6 01       		.byte	0x1
 3148 02a7 3F       		.uleb128 0x3f
 3149 02a8 19       		.uleb128 0x19
 3150 02a9 03       		.uleb128 0x3
 3151 02aa 0E       		.uleb128 0xe
 3152 02ab 3A       		.uleb128 0x3a
 3153 02ac 0B       		.uleb128 0xb
 3154 02ad 3B       		.uleb128 0x3b
 3155 02ae 05       		.uleb128 0x5
 3156 02af 27       		.uleb128 0x27
 3157 02b0 19       		.uleb128 0x19
 3158 02b1 49       		.uleb128 0x49
 3159 02b2 13       		.uleb128 0x13
 3160 02b3 3C       		.uleb128 0x3c
 3161 02b4 19       		.uleb128 0x19
 3162 02b5 01       		.uleb128 0x1
 3163 02b6 13       		.uleb128 0x13
 3164 02b7 00       		.byte	0
 3165 02b8 00       		.byte	0
 3166 02b9 36       		.uleb128 0x36
 3167 02ba 2E       		.uleb128 0x2e
 3168 02bb 01       		.byte	0x1
 3169 02bc 3F       		.uleb128 0x3f
 3170 02bd 19       		.uleb128 0x19
 3171 02be 03       		.uleb128 0x3
 3172 02bf 0E       		.uleb128 0xe
 3173 02c0 3A       		.uleb128 0x3a
 3174 02c1 0B       		.uleb128 0xb
 3175 02c2 3B       		.uleb128 0x3b
 3176 02c3 0B       		.uleb128 0xb
 3177 02c4 27       		.uleb128 0x27
 3178 02c5 19       		.uleb128 0x19
 3179 02c6 49       		.uleb128 0x49
 3180 02c7 13       		.uleb128 0x13
 3181 02c8 3C       		.uleb128 0x3c
 3182 02c9 19       		.uleb128 0x19
 3183 02ca 01       		.uleb128 0x1
 3184 02cb 13       		.uleb128 0x13
 3185 02cc 00       		.byte	0
 3186 02cd 00       		.byte	0
 3187 02ce 00       		.byte	0
 3188              		.section	.debug_loc,"",%progbits
 3189              	.Ldebug_loc0:
 3190              	.LLST0:
 3191 0000 00000000 		.4byte	.LVL0-.Ltext0
 3192 0004 0E000000 		.4byte	.LVL1-.Ltext0
ARM GAS  /tmp/ccL5iU9U.s 			page 57


 3193 0008 0100     		.2byte	0x1
 3194 000a 50       		.byte	0x50
 3195 000b 0E000000 		.4byte	.LVL1-.Ltext0
 3196 000f 2C000000 		.4byte	.LVL2-.Ltext0
 3197 0013 0100     		.2byte	0x1
 3198 0015 51       		.byte	0x51
 3199 0016 2C000000 		.4byte	.LVL2-.Ltext0
 3200 001a 33000000 		.4byte	.LVL4-1-.Ltext0
 3201 001e 0400     		.2byte	0x4
 3202 0020 71       		.byte	0x71
 3203 0021 E47B     		.sleb128 -540
 3204 0023 9F       		.byte	0x9f
 3205 0024 33000000 		.4byte	.LVL4-1-.Ltext0
 3206 0028 40000000 		.4byte	.LFE133-.Ltext0
 3207 002c 0400     		.2byte	0x4
 3208 002e F3       		.byte	0xf3
 3209 002f 01       		.uleb128 0x1
 3210 0030 50       		.byte	0x50
 3211 0031 9F       		.byte	0x9f
 3212 0032 00000000 		.4byte	0
 3213 0036 00000000 		.4byte	0
 3214              	.LLST1:
 3215 003a 0E000000 		.4byte	.LVL1-.Ltext0
 3216 003e 2E000000 		.4byte	.LVL3-.Ltext0
 3217 0042 0100     		.2byte	0x1
 3218 0044 50       		.byte	0x50
 3219 0045 2E000000 		.4byte	.LVL3-.Ltext0
 3220 0049 33000000 		.4byte	.LVL4-1-.Ltext0
 3221 004d 0600     		.2byte	0x6
 3222 004f 71       		.byte	0x71
 3223 0050 8807     		.sleb128 904
 3224 0052 06       		.byte	0x6
 3225 0053 23       		.byte	0x23
 3226 0054 1C       		.uleb128 0x1c
 3227 0055 00000000 		.4byte	0
 3228 0059 00000000 		.4byte	0
 3229              	.LLST2:
 3230 005d 40000000 		.4byte	.LVL5-.Ltext0
 3231 0061 4C000000 		.4byte	.LVL7-.Ltext0
 3232 0065 0100     		.2byte	0x1
 3233 0067 50       		.byte	0x50
 3234 0068 4C000000 		.4byte	.LVL7-.Ltext0
 3235 006c 52000000 		.4byte	.LVL9-.Ltext0
 3236 0070 0400     		.2byte	0x4
 3237 0072 F3       		.byte	0xf3
 3238 0073 01       		.uleb128 0x1
 3239 0074 50       		.byte	0x50
 3240 0075 9F       		.byte	0x9f
 3241 0076 52000000 		.4byte	.LVL9-.Ltext0
 3242 007a 56000000 		.4byte	.LVL10-.Ltext0
 3243 007e 0100     		.2byte	0x1
 3244 0080 50       		.byte	0x50
 3245 0081 56000000 		.4byte	.LVL10-.Ltext0
 3246 0085 B8000000 		.4byte	.LFE134-.Ltext0
 3247 0089 0400     		.2byte	0x4
 3248 008b F3       		.byte	0xf3
 3249 008c 01       		.uleb128 0x1
ARM GAS  /tmp/ccL5iU9U.s 			page 58


 3250 008d 50       		.byte	0x50
 3251 008e 9F       		.byte	0x9f
 3252 008f 00000000 		.4byte	0
 3253 0093 00000000 		.4byte	0
 3254              	.LLST4:
 3255 0097 48000000 		.4byte	.LVL6-.Ltext0
 3256 009b 4E000000 		.4byte	.LVL8-.Ltext0
 3257 009f 0100     		.2byte	0x1
 3258 00a1 54       		.byte	0x54
 3259 00a2 52000000 		.4byte	.LVL9-.Ltext0
 3260 00a6 68000000 		.4byte	.LVL12-.Ltext0
 3261 00aa 0100     		.2byte	0x1
 3262 00ac 54       		.byte	0x54
 3263 00ad 00000000 		.4byte	0
 3264 00b1 00000000 		.4byte	0
 3265              		.section	.debug_aranges,"",%progbits
 3266 0000 1C000000 		.4byte	0x1c
 3267 0004 0200     		.2byte	0x2
 3268 0006 00000000 		.4byte	.Ldebug_info0
 3269 000a 04       		.byte	0x4
 3270 000b 00       		.byte	0
 3271 000c 0000     		.2byte	0
 3272 000e 0000     		.2byte	0
 3273 0010 00000000 		.4byte	.Ltext0
 3274 0014 B8000000 		.4byte	.Letext0-.Ltext0
 3275 0018 00000000 		.4byte	0
 3276 001c 00000000 		.4byte	0
 3277              		.section	.debug_ranges,"",%progbits
 3278              	.Ldebug_ranges0:
 3279 0000 40000000 		.4byte	.LBB4-.Ltext0
 3280 0004 44000000 		.4byte	.LBE4-.Ltext0
 3281 0008 46000000 		.4byte	.LBB9-.Ltext0
 3282 000c 4C000000 		.4byte	.LBE9-.Ltext0
 3283 0010 52000000 		.4byte	.LBB10-.Ltext0
 3284 0014 94000000 		.4byte	.LBE10-.Ltext0
 3285 0018 96000000 		.4byte	.LBB11-.Ltext0
 3286 001c B8000000 		.4byte	.LBE11-.Ltext0
 3287 0020 00000000 		.4byte	0
 3288 0024 00000000 		.4byte	0
 3289              		.section	.debug_line,"",%progbits
 3290              	.Ldebug_line0:
 3291 0000 AC030000 		.section	.debug_str,"MS",%progbits,1
 3291      02005603 
 3291      00000201 
 3291      FB0E0D00 
 3291      01010101 
 3292              	.LASF78:
 3293 0000 6950726F 		.ascii	"iProduct\000"
 3293      64756374 
 3293      00
 3294              	.LASF90:
 3295 0009 62416C74 		.ascii	"bAlternateSetting\000"
 3295      65726E61 
 3295      74655365 
 3295      7474696E 
 3295      6700
 3296              	.LASF83:
ARM GAS  /tmp/ccL5iU9U.s 			page 59


 3297 001b 62456E64 		.ascii	"bEndpointAddress\000"
 3297      706F696E 
 3297      74416464 
 3297      72657373 
 3297      00
 3298              	.LASF19:
 3299 002c 73697A65 		.ascii	"sizetype\000"
 3299      74797065 
 3299      00
 3300              	.LASF32:
 3301 0035 705F6374 		.ascii	"p_ctx\000"
 3301      7800
 3302              	.LASF169:
 3303 003b 69735F63 		.ascii	"is_connected\000"
 3303      6F6E6E65 
 3303      63746564 
 3303      00
 3304              	.LASF25:
 3305 0048 74707269 		.ascii	"tprio_t\000"
 3305      6F5F7400 
 3306              	.LASF223:
 3307 0050 7461696C 		.ascii	"tail\000"
 3307      00
 3308              	.LASF239:
 3309 0055 5F484944 		.ascii	"_HID_MOUSE_Info\000"
 3309      5F4D4F55 
 3309      53455F49 
 3309      6E666F00 
 3310              	.LASF40:
 3311 0065 705F6D73 		.ascii	"p_msgqueue\000"
 3311      67717565 
 3311      756500
 3312              	.LASF130:
 3313 0070 454E554D 		.ascii	"ENUM_GET_CFG_DESC\000"
 3313      5F474554 
 3313      5F434647 
 3313      5F444553 
 3313      4300
 3314              	.LASF17:
 3315 0082 696E7433 		.ascii	"int32_t\000"
 3315      325F7400 
 3316              	.LASF71:
 3317 008a 62446576 		.ascii	"bDeviceSubClass\000"
 3317      69636553 
 3317      7562436C 
 3317      61737300 
 3318              	.LASF202:
 3319 009a 4849445F 		.ascii	"HID_GET_DATA\000"
 3319      4745545F 
 3319      44415441 
 3319      00
 3320              	.LASF115:
 3321 00a7 484F5354 		.ascii	"HOST_DEV_ATTACHED\000"
 3321      5F444556 
 3321      5F415454 
 3321      41434845 
 3321      4400
ARM GAS  /tmp/ccL5iU9U.s 			page 60


 3322              	.LASF270:
 3323 00b9 55534248 		.ascii	"USBH_HID_MouseDecode\000"
 3323      5F484944 
 3323      5F4D6F75 
 3323      73654465 
 3323      636F6465 
 3324              	.LASF113:
 3325 00ce 484F5354 		.ascii	"HOST_IDLE\000"
 3325      5F49444C 
 3325      4500
 3326              	.LASF247:
 3327 00d8 6C6F6769 		.ascii	"logical_max\000"
 3327      63616C5F 
 3327      6D617800 
 3328              	.LASF64:
 3329 00e4 774C656E 		.ascii	"wLength\000"
 3329      67746800 
 3330              	.LASF106:
 3331 00ec 55534248 		.ascii	"USBH_OK\000"
 3331      5F4F4B00 
 3332              	.LASF107:
 3333 00f4 55534248 		.ascii	"USBH_BUSY\000"
 3333      5F425553 
 3333      5900
 3334              	.LASF143:
 3335 00fe 4354524C 		.ascii	"CTRL_STATUS_IN\000"
 3335      5F535441 
 3335      5455535F 
 3335      494E00
 3336              	.LASF245:
 3337 010d 7369676E 		.ascii	"sign\000"
 3337      00
 3338              	.LASF264:
 3339 0112 6669666F 		.ascii	"fifo_read\000"
 3339      5F726561 
 3339      6400
 3340              	.LASF230:
 3341 011c 4F757445 		.ascii	"OutEp\000"
 3341      7000
 3342              	.LASF162:
 3343 0122 73746174 		.ascii	"state\000"
 3343      6500
 3344              	.LASF116:
 3345 0128 484F5354 		.ascii	"HOST_DEV_DISCONNECTED\000"
 3345      5F444556 
 3345      5F444953 
 3345      434F4E4E 
 3345      45435445 
 3346              	.LASF238:
 3347 013e 4849445F 		.ascii	"HID_HandleTypeDef\000"
 3347      48616E64 
 3347      6C655479 
 3347      70654465 
 3347      6600
 3348              	.LASF69:
 3349 0150 62636455 		.ascii	"bcdUSB\000"
 3349      534200
ARM GAS  /tmp/ccL5iU9U.s 			page 61


 3350              	.LASF154:
 3351 0157 434D445F 		.ascii	"CMD_StateTypeDef\000"
 3351      53746174 
 3351      65547970 
 3351      65446566 
 3351      00
 3352              	.LASF259:
 3353 0168 70726F70 		.ascii	"prop_x\000"
 3353      5F7800
 3354              	.LASF260:
 3355 016f 70726F70 		.ascii	"prop_y\000"
 3355      5F7900
 3356              	.LASF157:
 3357 0176 70697065 		.ascii	"pipe_size\000"
 3357      5F73697A 
 3357      6500
 3358              	.LASF244:
 3359 0180 636F756E 		.ascii	"count\000"
 3359      7400
 3360              	.LASF52:
 3361 0186 6D5F6F77 		.ascii	"m_owner\000"
 3361      6E657200 
 3362              	.LASF55:
 3363 018e 65786974 		.ascii	"exitcode\000"
 3363      636F6465 
 3363      00
 3364              	.LASF125:
 3365 0197 484F5354 		.ascii	"HOST_ABORT_STATE\000"
 3365      5F41424F 
 3365      52545F53 
 3365      54415445 
 3365      00
 3366              	.LASF204:
 3367 01a8 4849445F 		.ascii	"HID_POLL\000"
 3367      504F4C4C 
 3367      00
 3368              	.LASF2:
 3369 01b1 5F5F7569 		.ascii	"__uint8_t\000"
 3369      6E74385F 
 3369      7400
 3370              	.LASF57:
 3371 01bb 65776D61 		.ascii	"ewmask\000"
 3371      736B00
 3372              	.LASF172:
 3373 01c2 43666744 		.ascii	"CfgDesc\000"
 3373      65736300 
 3374              	.LASF263:
 3375 01ca 6D6F7573 		.ascii	"mouse_report_data\000"
 3375      655F7265 
 3375      706F7274 
 3375      5F646174 
 3375      6100
 3376              	.LASF98:
 3377 01dc 5F436F6E 		.ascii	"_ConfigurationDescriptor\000"
 3377      66696775 
 3377      72617469 
 3377      6F6E4465 
ARM GAS  /tmp/ccL5iU9U.s 			page 62


 3377      73637269 
 3378              	.LASF33:
 3379 01f5 705F6E65 		.ascii	"p_newer\000"
 3379      77657200 
 3380              	.LASF233:
 3381 01fd 6669666F 		.ascii	"fifo\000"
 3381      00
 3382              	.LASF8:
 3383 0202 6C6F6E67 		.ascii	"long int\000"
 3383      20696E74 
 3383      00
 3384              	.LASF216:
 3385 020b 62636448 		.ascii	"bcdHID\000"
 3385      494400
 3386              	.LASF29:
 3387 0212 705F6E65 		.ascii	"p_next\000"
 3387      787400
 3388              	.LASF219:
 3389 0219 62526570 		.ascii	"bReportDescriptorType\000"
 3389      6F727444 
 3389      65736372 
 3389      6970746F 
 3389      72547970 
 3390              	.LASF211:
 3391 022f 4849445F 		.ascii	"HID_REQ_SET_IDLE\000"
 3391      5245515F 
 3391      5345545F 
 3391      49444C45 
 3391      00
 3392              	.LASF30:
 3393 0240 705F7072 		.ascii	"p_prev\000"
 3393      657600
 3394              	.LASF191:
 3395 0247 50697065 		.ascii	"Pipes\000"
 3395      7300
 3396              	.LASF135:
 3397 024d 454E554D 		.ascii	"ENUM_StateTypeDef\000"
 3397      5F537461 
 3397      74655479 
 3397      70654465 
 3397      6600
 3398              	.LASF221:
 3399 025f 4849445F 		.ascii	"HID_DescTypeDef\000"
 3399      44657363 
 3399      54797065 
 3399      44656600 
 3400              	.LASF248:
 3401 026f 70687973 		.ascii	"physical_min\000"
 3401      6963616C 
 3401      5F6D696E 
 3401      00
 3402              	.LASF23:
 3403 027c 74737461 		.ascii	"tstate_t\000"
 3403      74655F74 
 3403      00
 3404              	.LASF43:
 3405 0285 705F6D74 		.ascii	"p_mtxlist\000"
ARM GAS  /tmp/ccL5iU9U.s 			page 63


 3405      786C6973 
 3405      7400
 3406              	.LASF47:
 3407 028f 72656761 		.ascii	"regarm_t\000"
 3407      726D5F74 
 3407      00
 3408              	.LASF82:
 3409 0298 5F456E64 		.ascii	"_EndpointDescriptor\000"
 3409      706F696E 
 3409      74446573 
 3409      63726970 
 3409      746F7200 
 3410              	.LASF222:
 3411 02ac 68656164 		.ascii	"head\000"
 3411      00
 3412              	.LASF119:
 3413 02b1 484F5354 		.ascii	"HOST_CLASS_REQUEST\000"
 3413      5F434C41 
 3413      53535F52 
 3413      45515545 
 3413      535400
 3414              	.LASF94:
 3415 02c4 62496E74 		.ascii	"bInterfaceProtocol\000"
 3415      65726661 
 3415      63655072 
 3415      6F746F63 
 3415      6F6C00
 3416              	.LASF0:
 3417 02d7 7369676E 		.ascii	"signed char\000"
 3417      65642063 
 3417      68617200 
 3418              	.LASF38:
 3419 02e3 705F7072 		.ascii	"p_preempt\000"
 3419      65656D70 
 3419      7400
 3420              	.LASF14:
 3421 02ed 75696E74 		.ascii	"uint8_t\000"
 3421      385F7400 
 3422              	.LASF145:
 3423 02f5 4354524C 		.ascii	"CTRL_STATUS_OUT\000"
 3423      5F535441 
 3423      5455535F 
 3423      4F555400 
 3424              	.LASF121:
 3425 0305 484F5354 		.ascii	"HOST_SET_CONFIGURATION\000"
 3425      5F534554 
 3425      5F434F4E 
 3425      46494755 
 3425      52415449 
 3426              	.LASF241:
 3427 031c 4849445F 		.ascii	"HID_MOUSE_Info_TypeDef\000"
 3427      4D4F5553 
 3427      455F496E 
 3427      666F5F54 
 3427      79706544 
 3428              	.LASF27:
 3429 0333 6576656E 		.ascii	"eventmask_t\000"
ARM GAS  /tmp/ccL5iU9U.s 			page 64


 3429      746D6173 
 3429      6B5F7400 
 3430              	.LASF49:
 3431 033f 636F6E74 		.ascii	"context\000"
 3431      65787400 
 3432              	.LASF256:
 3433 0347 70726F70 		.ascii	"prop_b1\000"
 3433      5F623100 
 3434              	.LASF257:
 3435 034f 70726F70 		.ascii	"prop_b2\000"
 3435      5F623200 
 3436              	.LASF258:
 3437 0357 70726F70 		.ascii	"prop_b3\000"
 3437      5F623300 
 3438              	.LASF76:
 3439 035f 62636444 		.ascii	"bcdDevice\000"
 3439      65766963 
 3439      6500
 3440              	.LASF1:
 3441 0369 756E7369 		.ascii	"unsigned char\000"
 3441      676E6564 
 3441      20636861 
 3441      7200
 3442              	.LASF60:
 3443 0377 626D5265 		.ascii	"bmRequestType\000"
 3443      71756573 
 3443      74547970 
 3443      6500
 3444              	.LASF171:
 3445 0385 44657644 		.ascii	"DevDesc\000"
 3445      65736300 
 3446              	.LASF62:
 3447 038d 7756616C 		.ascii	"wValue\000"
 3447      756500
 3448              	.LASF214:
 3449 0394 4849445F 		.ascii	"HID_CtlStateTypeDef\000"
 3449      43746C53 
 3449      74617465 
 3449      54797065 
 3449      44656600 
 3450              	.LASF21:
 3451 03a8 5F426F6F 		.ascii	"_Bool\000"
 3451      6C00
 3452              	.LASF134:
 3453 03ae 454E554D 		.ascii	"ENUM_GET_SERIALNUM_STRING_DESC\000"
 3453      5F474554 
 3453      5F534552 
 3453      49414C4E 
 3453      554D5F53 
 3454              	.LASF111:
 3455 03cd 55534248 		.ascii	"USBH_ERROR_SPEED_UNKNOWN\000"
 3455      5F455252 
 3455      4F525F53 
 3455      50454544 
 3455      5F554E4B 
 3456              	.LASF240:
 3457 03e6 62757474 		.ascii	"buttons\000"
ARM GAS  /tmp/ccL5iU9U.s 			page 65


 3457      6F6E7300 
 3458              	.LASF20:
 3459 03ee 63686172 		.ascii	"char\000"
 3459      00
 3460              	.LASF137:
 3461 03f3 4354524C 		.ascii	"CTRL_SETUP\000"
 3461      5F534554 
 3461      555000
 3462              	.LASF31:
 3463 03fe 705F7072 		.ascii	"p_prio\000"
 3463      696F00
 3464              	.LASF5:
 3465 0405 5F5F7569 		.ascii	"__uint16_t\000"
 3465      6E743136 
 3465      5F7400
 3466              	.LASF147:
 3467 0410 4354524C 		.ascii	"CTRL_ERROR\000"
 3467      5F455252 
 3467      4F5200
 3468              	.LASF198:
 3469 041b 4849445F 		.ascii	"HID_INIT\000"
 3469      494E4954 
 3469      00
 3470              	.LASF56:
 3471 0424 77746F62 		.ascii	"wtobjp\000"
 3471      6A7000
 3472              	.LASF160:
 3473 042b 74696D65 		.ascii	"timer\000"
 3473      7200
 3474              	.LASF186:
 3475 0431 436F6E74 		.ascii	"Control\000"
 3475      726F6C00 
 3476              	.LASF269:
 3477 0439 5F555342 		.ascii	"_USB_Setup\000"
 3477      5F536574 
 3477      757000
 3478              	.LASF207:
 3479 0444 4849445F 		.ascii	"HID_REQ_INIT\000"
 3479      5245515F 
 3479      494E4954 
 3479      00
 3480              	.LASF229:
 3481 0451 496E5069 		.ascii	"InPipe\000"
 3481      706500
 3482              	.LASF252:
 3483 0458 55534248 		.ascii	"USBH_HID_MouseInit\000"
 3483      5F484944 
 3483      5F4D6F75 
 3483      7365496E 
 3483      697400
 3484              	.LASF246:
 3485 046b 6C6F6769 		.ascii	"logical_min\000"
 3485      63616C5F 
 3485      6D696E00 
 3486              	.LASF213:
 3487 0477 4849445F 		.ascii	"HID_REQ_SET_REPORT\000"
 3487      5245515F 
ARM GAS  /tmp/ccL5iU9U.s 			page 66


 3487      5345545F 
 3487      5245504F 
 3487      525400
 3488              	.LASF185:
 3489 048a 52657175 		.ascii	"RequestState\000"
 3489      65737453 
 3489      74617465 
 3489      00
 3490              	.LASF155:
 3491 0497 70697065 		.ascii	"pipe_in\000"
 3491      5F696E00 
 3492              	.LASF139:
 3493 049f 4354524C 		.ascii	"CTRL_DATA_IN\000"
 3493      5F444154 
 3493      415F494E 
 3493      00
 3494              	.LASF142:
 3495 04ac 4354524C 		.ascii	"CTRL_DATA_OUT_WAIT\000"
 3495      5F444154 
 3495      415F4F55 
 3495      545F5741 
 3495      495400
 3496              	.LASF262:
 3497 04bf 6D6F7573 		.ascii	"mouse_info\000"
 3497      655F696E 
 3497      666F00
 3498              	.LASF110:
 3499 04ca 55534248 		.ascii	"USBH_UNRECOVERED_ERROR\000"
 3499      5F554E52 
 3499      45434F56 
 3499      45524544 
 3499      5F455252 
 3500              	.LASF112:
 3501 04e1 55534248 		.ascii	"USBH_StatusTypeDef\000"
 3501      5F537461 
 3501      74757354 
 3501      79706544 
 3501      656600
 3502              	.LASF149:
 3503 04f4 4354524C 		.ascii	"CTRL_COMPLETE\000"
 3503      5F434F4D 
 3503      504C4554 
 3503      4500
 3504              	.LASF161:
 3505 0502 73657475 		.ascii	"setup\000"
 3505      7000
 3506              	.LASF48:
 3507 0508 696E7463 		.ascii	"intctx\000"
 3507      747800
 3508              	.LASF168:
 3509 050f 73706565 		.ascii	"speed\000"
 3509      6400
 3510              	.LASF199:
 3511 0515 4849445F 		.ascii	"HID_IDLE\000"
 3511      49444C45 
 3511      00
 3512              	.LASF42:
ARM GAS  /tmp/ccL5iU9U.s 			page 67


 3513 051e 705F6570 		.ascii	"p_epending\000"
 3513      656E6469 
 3513      6E6700
 3514              	.LASF175:
 3515 0529 436C6173 		.ascii	"ClassCode\000"
 3515      73436F64 
 3515      6500
 3516              	.LASF59:
 3517 0533 5F536574 		.ascii	"_SetupPkt_Struc\000"
 3517      7570506B 
 3517      745F5374 
 3517      72756300 
 3518              	.LASF209:
 3519 0543 4849445F 		.ascii	"HID_REQ_GET_REPORT_DESC\000"
 3519      5245515F 
 3519      4745545F 
 3519      5245504F 
 3519      52545F44 
 3520              	.LASF208:
 3521 055b 4849445F 		.ascii	"HID_REQ_IDLE\000"
 3521      5245515F 
 3521      49444C45 
 3521      00
 3522              	.LASF151:
 3523 0568 434D445F 		.ascii	"CMD_IDLE\000"
 3523      49444C45 
 3523      00
 3524              	.LASF251:
 3525 0571 4849445F 		.ascii	"HID_Report_ItemTypedef\000"
 3525      5265706F 
 3525      72745F49 
 3525      74656D54 
 3525      79706564 
 3526              	.LASF68:
 3527 0588 62446573 		.ascii	"bDescriptorType\000"
 3527      63726970 
 3527      746F7254 
 3527      79706500 
 3528              	.LASF205:
 3529 0598 4849445F 		.ascii	"HID_ERROR\000"
 3529      4552524F 
 3529      5200
 3530              	.LASF10:
 3531 05a2 6C6F6E67 		.ascii	"long unsigned int\000"
 3531      20756E73 
 3531      69676E65 
 3531      6420696E 
 3531      7400
 3532              	.LASF79:
 3533 05b4 69536572 		.ascii	"iSerialNumber\000"
 3533      69616C4E 
 3533      756D6265 
 3533      7200
 3534              	.LASF231:
 3535 05c2 496E4570 		.ascii	"InEp\000"
 3535      00
 3536              	.LASF132:
ARM GAS  /tmp/ccL5iU9U.s 			page 68


 3537 05c7 454E554D 		.ascii	"ENUM_GET_MFC_STRING_DESC\000"
 3537      5F474554 
 3537      5F4D4643 
 3537      5F535452 
 3537      494E475F 
 3538              	.LASF167:
 3539 05e0 61646472 		.ascii	"address\000"
 3539      65737300 
 3540              	.LASF131:
 3541 05e8 454E554D 		.ascii	"ENUM_GET_FULL_CFG_DESC\000"
 3541      5F474554 
 3541      5F46554C 
 3541      4C5F4346 
 3541      475F4445 
 3542              	.LASF123:
 3543 05ff 484F5354 		.ascii	"HOST_CLASS\000"
 3543      5F434C41 
 3543      535300
 3544              	.LASF243:
 3545 060a 73686966 		.ascii	"shift\000"
 3545      7400
 3546              	.LASF97:
 3547 0610 55534248 		.ascii	"USBH_InterfaceDescTypeDef\000"
 3547      5F496E74 
 3547      65726661 
 3547      63654465 
 3547      73635479 
 3548              	.LASF91:
 3549 062a 624E756D 		.ascii	"bNumEndpoints\000"
 3549      456E6470 
 3549      6F696E74 
 3549      7300
 3550              	.LASF65:
 3551 0638 5553425F 		.ascii	"USB_Setup_TypeDef\000"
 3551      53657475 
 3551      705F5479 
 3551      70654465 
 3551      6600
 3552              	.LASF226:
 3553 064a 4649464F 		.ascii	"FIFO_TypeDef\000"
 3553      5F547970 
 3553      65446566 
 3553      00
 3554              	.LASF84:
 3555 0657 626D4174 		.ascii	"bmAttributes\000"
 3555      74726962 
 3555      75746573 
 3555      00
 3556              	.LASF184:
 3557 0664 456E756D 		.ascii	"EnumState\000"
 3557      53746174 
 3557      6500
 3558              	.LASF126:
 3559 066e 484F5354 		.ascii	"HOST_StateTypeDef\000"
 3559      5F537461 
 3559      74655479 
 3559      70654465 
ARM GAS  /tmp/ccL5iU9U.s 			page 69


 3559      6600
 3560              	.LASF9:
 3561 0680 5F5F7569 		.ascii	"__uint32_t\000"
 3561      6E743332 
 3561      5F7400
 3562              	.LASF50:
 3563 068b 4D757465 		.ascii	"Mutex\000"
 3563      7800
 3564              	.LASF11:
 3565 0691 6C6F6E67 		.ascii	"long long int\000"
 3565      206C6F6E 
 3565      6720696E 
 3565      7400
 3566              	.LASF201:
 3567 069f 4849445F 		.ascii	"HID_BUSY\000"
 3567      42555359 
 3567      00
 3568              	.LASF136:
 3569 06a8 4354524C 		.ascii	"CTRL_IDLE\000"
 3569      5F49444C 
 3569      4500
 3570              	.LASF51:
 3571 06b2 6D5F7175 		.ascii	"m_queue\000"
 3571      65756500 
 3572              	.LASF188:
 3573 06ba 70436C61 		.ascii	"pClass\000"
 3573      737300
 3574              	.LASF104:
 3575 06c1 4974665F 		.ascii	"Itf_Desc\000"
 3575      44657363 
 3575      00
 3576              	.LASF85:
 3577 06ca 774D6178 		.ascii	"wMaxPacketSize\000"
 3577      5061636B 
 3577      65745369 
 3577      7A6500
 3578              	.LASF156:
 3579 06d9 70697065 		.ascii	"pipe_out\000"
 3579      5F6F7574 
 3579      00
 3580              	.LASF227:
 3581 06e2 5F484944 		.ascii	"_HID_Process\000"
 3581      5F50726F 
 3581      63657373 
 3581      00
 3582              	.LASF77:
 3583 06ef 694D616E 		.ascii	"iManufacturer\000"
 3583      75666163 
 3583      74757265 
 3583      7200
 3584              	.LASF261:
 3585 06fd 49544D5F 		.ascii	"ITM_RxBuffer\000"
 3585      52784275 
 3585      66666572 
 3585      00
 3586              	.LASF158:
 3587 070a 62756666 		.ascii	"buff\000"
ARM GAS  /tmp/ccL5iU9U.s 			page 70


 3587      00
 3588              	.LASF39:
 3589 070f 705F7761 		.ascii	"p_waiting\000"
 3589      6974696E 
 3589      6700
 3590              	.LASF124:
 3591 0719 484F5354 		.ascii	"HOST_SUSPENDED\000"
 3591      5F535553 
 3591      50454E44 
 3591      454400
 3592              	.LASF37:
 3593 0728 705F666C 		.ascii	"p_flags\000"
 3593      61677300 
 3594              	.LASF146:
 3595 0730 4354524C 		.ascii	"CTRL_STATUS_OUT_WAIT\000"
 3595      5F535441 
 3595      5455535F 
 3595      4F55545F 
 3595      57414954 
 3596              	.LASF13:
 3597 0745 756E7369 		.ascii	"unsigned int\000"
 3597      676E6564 
 3597      20696E74 
 3597      00
 3598              	.LASF117:
 3599 0752 484F5354 		.ascii	"HOST_DETECT_DEVICE_SPEED\000"
 3599      5F444554 
 3599      4543545F 
 3599      44455649 
 3599      43455F53 
 3600              	.LASF197:
 3601 076b 55534248 		.ascii	"USBH_HandleTypeDef\000"
 3601      5F48616E 
 3601      646C6554 
 3601      79706544 
 3601      656600
 3602              	.LASF173:
 3603 077e 55534248 		.ascii	"USBH_DeviceTypeDef\000"
 3603      5F446576 
 3603      69636554 
 3603      79706544 
 3603      656600
 3604              	.LASF100:
 3605 0791 624E756D 		.ascii	"bNumInterfaces\000"
 3605      496E7465 
 3605      72666163 
 3605      657300
 3606              	.LASF92:
 3607 07a0 62496E74 		.ascii	"bInterfaceClass\000"
 3607      65726661 
 3607      6365436C 
 3607      61737300 
 3608              	.LASF101:
 3609 07b0 62436F6E 		.ascii	"bConfigurationValue\000"
 3609      66696775 
 3609      72617469 
 3609      6F6E5661 
ARM GAS  /tmp/ccL5iU9U.s 			page 71


 3609      6C756500 
 3610              	.LASF183:
 3611 07c4 67537461 		.ascii	"gState\000"
 3611      746500
 3612              	.LASF164:
 3613 07cb 55534248 		.ascii	"USBH_CtrlTypeDef\000"
 3613      5F437472 
 3613      6C547970 
 3613      65446566 
 3613      00
 3614              	.LASF215:
 3615 07dc 5F484944 		.ascii	"_HIDDescriptor\000"
 3615      44657363 
 3615      72697074 
 3615      6F7200
 3616              	.LASF218:
 3617 07eb 624E756D 		.ascii	"bNumDescriptors\000"
 3617      44657363 
 3617      72697074 
 3617      6F727300 
 3618              	.LASF96:
 3619 07fb 45705F44 		.ascii	"Ep_Desc\000"
 3619      65736300 
 3620              	.LASF46:
 3621 0803 54687265 		.ascii	"ThreadsList\000"
 3621      6164734C 
 3621      69737400 
 3622              	.LASF120:
 3623 080f 484F5354 		.ascii	"HOST_INPUT\000"
 3623      5F494E50 
 3623      555400
 3624              	.LASF102:
 3625 081a 69436F6E 		.ascii	"iConfiguration\000"
 3625      66696775 
 3625      72617469 
 3625      6F6E00
 3626              	.LASF61:
 3627 0829 62526571 		.ascii	"bRequest\000"
 3627      75657374 
 3627      00
 3628              	.LASF73:
 3629 0832 624D6178 		.ascii	"bMaxPacketSize\000"
 3629      5061636B 
 3629      65745369 
 3629      7A6500
 3630              	.LASF235:
 3631 0841 706F6C6C 		.ascii	"poll\000"
 3631      00
 3632              	.LASF176:
 3633 0846 496E6974 		.ascii	"Init\000"
 3633      00
 3634              	.LASF271:
 3635 084b 6669666F 		.ascii	"fifo_init\000"
 3635      5F696E69 
 3635      7400
 3636              	.LASF232:
 3637 0855 63746C5F 		.ascii	"ctl_state\000"
ARM GAS  /tmp/ccL5iU9U.s 			page 72


 3637      73746174 
 3637      6500
 3638              	.LASF267:
 3639 085f 2E2F5354 		.ascii	"./STM32_USB_Host_Library/Class/HID/Src/usbh_hid_mou"
 3639      4D33325F 
 3639      5553425F 
 3639      486F7374 
 3639      5F4C6962 
 3640 0892 73652E63 		.ascii	"se.c\000"
 3640      00
 3641              	.LASF114:
 3642 0897 484F5354 		.ascii	"HOST_DEV_WAIT_FOR_ATTACHMENT\000"
 3642      5F444556 
 3642      5F574149 
 3642      545F464F 
 3642      525F4154 
 3643              	.LASF174:
 3644 08b4 4E616D65 		.ascii	"Name\000"
 3644      00
 3645              	.LASF220:
 3646 08b9 77497465 		.ascii	"wItemLength\000"
 3646      6D4C656E 
 3646      67746800 
 3647              	.LASF99:
 3648 08c5 77546F74 		.ascii	"wTotalLength\000"
 3648      616C4C65 
 3648      6E677468 
 3648      00
 3649              	.LASF44:
 3650 08d2 705F7265 		.ascii	"p_realprio\000"
 3650      616C7072 
 3650      696F00
 3651              	.LASF228:
 3652 08dd 4F757450 		.ascii	"OutPipe\000"
 3652      69706500 
 3653              	.LASF194:
 3654 08e5 6F735F65 		.ascii	"os_event\000"
 3654      76656E74 
 3654      00
 3655              	.LASF182:
 3656 08ee 5F555342 		.ascii	"_USBH_HandleTypeDef\000"
 3656      485F4861 
 3656      6E646C65 
 3656      54797065 
 3656      44656600 
 3657              	.LASF217:
 3658 0902 62436F75 		.ascii	"bCountryCode\000"
 3658      6E747279 
 3658      436F6465 
 3658      00
 3659              	.LASF67:
 3660 090f 624C656E 		.ascii	"bLength\000"
 3660      67746800 
 3661              	.LASF224:
 3662 0917 73697A65 		.ascii	"size\000"
 3662      00
 3663              	.LASF12:
ARM GAS  /tmp/ccL5iU9U.s 			page 73


 3664 091c 6C6F6E67 		.ascii	"long long unsigned int\000"
 3664      206C6F6E 
 3664      6720756E 
 3664      7369676E 
 3664      65642069 
 3665              	.LASF122:
 3666 0933 484F5354 		.ascii	"HOST_CHECK_CLASS\000"
 3666      5F434845 
 3666      434B5F43 
 3666      4C415353 
 3666      00
 3667              	.LASF63:
 3668 0944 77496E64 		.ascii	"wIndex\000"
 3668      657800
 3669              	.LASF129:
 3670 094b 454E554D 		.ascii	"ENUM_SET_ADDR\000"
 3670      5F534554 
 3670      5F414444 
 3670      5200
 3671              	.LASF34:
 3672 0959 705F6F6C 		.ascii	"p_older\000"
 3672      64657200 
 3673              	.LASF159:
 3674 0961 6C656E67 		.ascii	"length\000"
 3674      746800
 3675              	.LASF16:
 3676 0968 75696E74 		.ascii	"uint16_t\000"
 3676      31365F74 
 3676      00
 3677              	.LASF193:
 3678 0971 70557365 		.ascii	"pUser\000"
 3678      7200
 3679              	.LASF58:
 3680 0977 75696E74 		.ascii	"uint16_t_uint8_t\000"
 3680      31365F74 
 3680      5F75696E 
 3680      74385F74 
 3680      00
 3681              	.LASF196:
 3682 0988 55534248 		.ascii	"USBH_ClassTypeDef\000"
 3682      5F436C61 
 3682      73735479 
 3682      70654465 
 3682      6600
 3683              	.LASF152:
 3684 099a 434D445F 		.ascii	"CMD_SEND\000"
 3684      53454E44 
 3684      00
 3685              	.LASF26:
 3686 09a3 6D73675F 		.ascii	"msg_t\000"
 3686      7400
 3687              	.LASF24:
 3688 09a9 74736C69 		.ascii	"tslices_t\000"
 3688      6365735F 
 3688      7400
 3689              	.LASF80:
 3690 09b3 624E756D 		.ascii	"bNumConfigurations\000"
ARM GAS  /tmp/ccL5iU9U.s 			page 74


 3690      436F6E66 
 3690      69677572 
 3690      6174696F 
 3690      6E7300
 3691              	.LASF203:
 3692 09c6 4849445F 		.ascii	"HID_SYNC\000"
 3692      53594E43 
 3692      00
 3693              	.LASF108:
 3694 09cf 55534248 		.ascii	"USBH_FAIL\000"
 3694      5F464149 
 3694      4C00
 3695              	.LASF75:
 3696 09d9 69645072 		.ascii	"idProduct\000"
 3696      6F647563 
 3696      7400
 3697              	.LASF163:
 3698 09e3 6572726F 		.ascii	"errorcount\000"
 3698      72636F75 
 3698      6E7400
 3699              	.LASF74:
 3700 09ee 69645665 		.ascii	"idVendor\000"
 3700      6E646F72 
 3700      00
 3701              	.LASF88:
 3702 09f7 5F496E74 		.ascii	"_InterfaceDescriptor\000"
 3702      65726661 
 3702      63654465 
 3702      73637269 
 3702      70746F72 
 3703              	.LASF109:
 3704 0a0c 55534248 		.ascii	"USBH_NOT_SUPPORTED\000"
 3704      5F4E4F54 
 3704      5F535550 
 3704      504F5254 
 3704      454400
 3705              	.LASF3:
 3706 0a1f 5F5F696E 		.ascii	"__int16_t\000"
 3706      7431365F 
 3706      7400
 3707              	.LASF150:
 3708 0a29 4354524C 		.ascii	"CTRL_StateTypeDef\000"
 3708      5F537461 
 3708      74655479 
 3708      70654465 
 3708      6600
 3709              	.LASF95:
 3710 0a3b 69496E74 		.ascii	"iInterface\000"
 3710      65726661 
 3710      636500
 3711              	.LASF153:
 3712 0a46 434D445F 		.ascii	"CMD_WAIT\000"
 3712      57414954 
 3712      00
 3713              	.LASF255:
 3714 0a4f 4849445F 		.ascii	"HID_Handle\000"
 3714      48616E64 
ARM GAS  /tmp/ccL5iU9U.s 			page 75


 3714      6C6500
 3715              	.LASF180:
 3716 0a5a 534F4650 		.ascii	"SOFProcess\000"
 3716      726F6365 
 3716      737300
 3717              	.LASF81:
 3718 0a65 55534248 		.ascii	"USBH_DevDescTypeDef\000"
 3718      5F446576 
 3718      44657363 
 3718      54797065 
 3718      44656600 
 3719              	.LASF93:
 3720 0a79 62496E74 		.ascii	"bInterfaceSubClass\000"
 3720      65726661 
 3720      63655375 
 3720      62436C61 
 3720      737300
 3721              	.LASF22:
 3722 0a8c 746D6F64 		.ascii	"tmode_t\000"
 3722      655F7400 
 3723              	.LASF187:
 3724 0a94 64657669 		.ascii	"device\000"
 3724      636500
 3725              	.LASF206:
 3726 0a9b 4849445F 		.ascii	"HID_StateTypeDef\000"
 3726      53746174 
 3726      65547970 
 3726      65446566 
 3726      00
 3727              	.LASF148:
 3728 0aac 4354524C 		.ascii	"CTRL_STALLED\000"
 3728      5F535441 
 3728      4C4C4544 
 3728      00
 3729              	.LASF237:
 3730 0ab9 4849445F 		.ascii	"HID_Desc\000"
 3730      44657363 
 3730      00
 3731              	.LASF200:
 3732 0ac2 4849445F 		.ascii	"HID_SEND_DATA\000"
 3732      53454E44 
 3732      5F444154 
 3732      4100
 3733              	.LASF70:
 3734 0ad0 62446576 		.ascii	"bDeviceClass\000"
 3734      69636543 
 3734      6C617373 
 3734      00
 3735              	.LASF195:
 3736 0add 74687265 		.ascii	"thread\000"
 3736      616400
 3737              	.LASF234:
 3738 0ae4 65705F61 		.ascii	"ep_addr\000"
 3738      64647200 
 3739              	.LASF189:
 3740 0aec 70416374 		.ascii	"pActiveClass\000"
 3740      69766543 
ARM GAS  /tmp/ccL5iU9U.s 			page 76


 3740      6C617373 
 3740      00
 3741              	.LASF212:
 3742 0af9 4849445F 		.ascii	"HID_REQ_SET_PROTOCOL\000"
 3742      5245515F 
 3742      5345545F 
 3742      50524F54 
 3742      4F434F4C 
 3743              	.LASF66:
 3744 0b0e 5F446576 		.ascii	"_DeviceDescriptor\000"
 3744      69636544 
 3744      65736372 
 3744      6970746F 
 3744      7200
 3745              	.LASF89:
 3746 0b20 62496E74 		.ascii	"bInterfaceNumber\000"
 3746      65726661 
 3746      63654E75 
 3746      6D626572 
 3746      00
 3747              	.LASF166:
 3748 0b31 44617461 		.ascii	"Data\000"
 3748      00
 3749              	.LASF4:
 3750 0b36 73686F72 		.ascii	"short int\000"
 3750      7420696E 
 3750      7400
 3751              	.LASF140:
 3752 0b40 4354524C 		.ascii	"CTRL_DATA_IN_WAIT\000"
 3752      5F444154 
 3752      415F494E 
 3752      5F574149 
 3752      5400
 3753              	.LASF253:
 3754 0b52 55534248 		.ascii	"USBH_HID_GetMouseInfo\000"
 3754      5F484944 
 3754      5F476574 
 3754      4D6F7573 
 3754      65496E66 
 3755              	.LASF268:
 3756 0b68 2F686F6D 		.ascii	"/home/sbcu/Dropbox/pcb-layouts/axo-on-discovery-boa"
 3756      652F7362 
 3756      63752F44 
 3756      726F7062 
 3756      6F782F70 
 3757 0b9b 72642F61 		.ascii	"rd/axoloti/firmware\000"
 3757      786F6C6F 
 3757      74692F66 
 3757      69726D77 
 3757      61726500 
 3758              	.LASF250:
 3759 0baf 7265736F 		.ascii	"resolution\000"
 3759      6C757469 
 3759      6F6E00
 3760              	.LASF86:
 3761 0bba 62496E74 		.ascii	"bInterval\000"
 3761      65727661 
ARM GAS  /tmp/ccL5iU9U.s 			page 77


 3761      6C00
 3762              	.LASF15:
 3763 0bc4 696E7431 		.ascii	"int16_t\000"
 3763      365F7400 
 3764              	.LASF265:
 3765 0bcc 4849445F 		.ascii	"HID_ReadItem\000"
 3765      52656164 
 3765      4974656D 
 3765      00
 3766              	.LASF138:
 3767 0bd9 4354524C 		.ascii	"CTRL_SETUP_WAIT\000"
 3767      5F534554 
 3767      55505F57 
 3767      41495400 
 3768              	.LASF179:
 3769 0be9 42676E64 		.ascii	"BgndProcess\000"
 3769      50726F63 
 3769      65737300 
 3770              	.LASF28:
 3771 0bf5 54687265 		.ascii	"Thread\000"
 3771      616400
 3772              	.LASF165:
 3773 0bfc 43666744 		.ascii	"CfgDesc_Raw\000"
 3773      6573635F 
 3773      52617700 
 3774              	.LASF128:
 3775 0c08 454E554D 		.ascii	"ENUM_GET_FULL_DEV_DESC\000"
 3775      5F474554 
 3775      5F46554C 
 3775      4C5F4445 
 3775      565F4445 
 3776              	.LASF266:
 3777 0c1f 474E5520 		.ascii	"GNU C 4.9.3 20150529 (release) [ARM/embedded-4_9-br"
 3777      4320342E 
 3777      392E3320 
 3777      32303135 
 3777      30353239 
 3778 0c52 616E6368 		.ascii	"anch revision 224288] -mcpu=cortex-m4 -mfloat-abi=h"
 3778      20726576 
 3778      6973696F 
 3778      6E203232 
 3778      34323838 
 3779 0c85 61726420 		.ascii	"ard -mfpu=fpv4-sp-d16 -mno-thumb-interwork -mthumb "
 3779      2D6D6670 
 3779      753D6670 
 3779      76342D73 
 3779      702D6431 
 3780 0cb8 2D676764 		.ascii	"-ggdb -O2 -fomit-frame-pointer -falign-functions=16"
 3780      62202D4F 
 3780      32202D66 
 3780      6F6D6974 
 3780      2D667261 
 3781 0ceb 202D666E 		.ascii	" -fno-math-errno -fsingle-precision-constant\000"
 3781      6F2D6D61 
 3781      74682D65 
 3781      72726E6F 
 3781      202D6673 
ARM GAS  /tmp/ccL5iU9U.s 			page 78


 3782              	.LASF170:
 3783 0d18 63757272 		.ascii	"current_interface\000"
 3783      656E745F 
 3783      696E7465 
 3783      72666163 
 3783      6500
 3784              	.LASF72:
 3785 0d2a 62446576 		.ascii	"bDeviceProtocol\000"
 3785      69636550 
 3785      726F746F 
 3785      636F6C00 
 3786              	.LASF178:
 3787 0d3a 52657175 		.ascii	"Requests\000"
 3787      65737473 
 3787      00
 3788              	.LASF177:
 3789 0d43 4465496E 		.ascii	"DeInit\000"
 3789      697400
 3790              	.LASF127:
 3791 0d4a 454E554D 		.ascii	"ENUM_IDLE\000"
 3791      5F49444C 
 3791      4500
 3792              	.LASF118:
 3793 0d54 484F5354 		.ascii	"HOST_ENUMERATION\000"
 3793      5F454E55 
 3793      4D455241 
 3793      54494F4E 
 3793      00
 3794              	.LASF18:
 3795 0d65 75696E74 		.ascii	"uint32_t\000"
 3795      33325F74 
 3795      00
 3796              	.LASF105:
 3797 0d6e 55534248 		.ascii	"USBH_CfgDescTypeDef\000"
 3797      5F436667 
 3797      44657363 
 3797      54797065 
 3797      44656600 
 3798              	.LASF249:
 3799 0d82 70687973 		.ascii	"physical_max\000"
 3799      6963616C 
 3799      5F6D6178 
 3799      00
 3800              	.LASF45:
 3801 0d8f 54687265 		.ascii	"ThreadsQueue\000"
 3801      61647351 
 3801      75657565 
 3801      00
 3802              	.LASF141:
 3803 0d9c 4354524C 		.ascii	"CTRL_DATA_OUT\000"
 3803      5F444154 
 3803      415F4F55 
 3803      5400
 3804              	.LASF103:
 3805 0daa 624D6178 		.ascii	"bMaxPower\000"
 3805      506F7765 
 3805      7200
ARM GAS  /tmp/ccL5iU9U.s 			page 79


 3806              	.LASF87:
 3807 0db4 55534248 		.ascii	"USBH_EpDescTypeDef\000"
 3807      5F457044 
 3807      65736354 
 3807      79706544 
 3807      656600
 3808              	.LASF210:
 3809 0dc7 4849445F 		.ascii	"HID_REQ_GET_HID_DESC\000"
 3809      5245515F 
 3809      4745545F 
 3809      4849445F 
 3809      44455343 
 3810              	.LASF54:
 3811 0ddc 7264796D 		.ascii	"rdymsg\000"
 3811      736700
 3812              	.LASF6:
 3813 0de3 73686F72 		.ascii	"short unsigned int\000"
 3813      7420756E 
 3813      7369676E 
 3813      65642069 
 3813      6E7400
 3814              	.LASF192:
 3815 0df6 54696D65 		.ascii	"Timer\000"
 3815      7200
 3816              	.LASF133:
 3817 0dfc 454E554D 		.ascii	"ENUM_GET_PRODUCT_STRING_DESC\000"
 3817      5F474554 
 3817      5F50524F 
 3817      44554354 
 3817      5F535452 
 3818              	.LASF254:
 3819 0e19 70686F73 		.ascii	"phost\000"
 3819      7400
 3820              	.LASF7:
 3821 0e1f 5F5F696E 		.ascii	"__int32_t\000"
 3821      7433325F 
 3821      7400
 3822              	.LASF181:
 3823 0e29 70446174 		.ascii	"pData\000"
 3823      6100
 3824              	.LASF190:
 3825 0e2f 436C6173 		.ascii	"ClassNumber\000"
 3825      734E756D 
 3825      62657200 
 3826              	.LASF35:
 3827 0e3b 705F6E61 		.ascii	"p_name\000"
 3827      6D6500
 3828              	.LASF242:
 3829 0e42 64617461 		.ascii	"data\000"
 3829      00
 3830              	.LASF53:
 3831 0e47 6D5F6E65 		.ascii	"m_next\000"
 3831      787400
 3832              	.LASF225:
 3833 0e4e 6C6F636B 		.ascii	"lock\000"
 3833      00
 3834              	.LASF236:
ARM GAS  /tmp/ccL5iU9U.s 			page 80


 3835 0e53 44617461 		.ascii	"DataReady\000"
 3835      52656164 
 3835      7900
 3836              	.LASF144:
 3837 0e5d 4354524C 		.ascii	"CTRL_STATUS_IN_WAIT\000"
 3837      5F535441 
 3837      5455535F 
 3837      494E5F57 
 3837      41495400 
 3838              	.LASF41:
 3839 0e71 705F6D73 		.ascii	"p_msg\000"
 3839      6700
 3840              	.LASF36:
 3841 0e77 705F7374 		.ascii	"p_state\000"
 3841      61746500 
 3842              		.ident	"GCC: (GNU Tools for ARM Embedded Processors) 4.9.3 20150529 (release) [ARM/embedded-4_9-br
ARM GAS  /tmp/ccL5iU9U.s 			page 81


DEFINED SYMBOLS
                            *ABS*:00000000 usbh_hid_mouse.c
     /tmp/ccL5iU9U.s:20     .text:00000000 $t
     /tmp/ccL5iU9U.s:26     .text:00000000 USBH_HID_MouseInit
     /tmp/ccL5iU9U.s:89     .text:00000038 $d
                            *COM*:00000005 mouse_info
                            *COM*:00000004 mouse_report_data
     /tmp/ccL5iU9U.s:94     .text:00000040 $t
     /tmp/ccL5iU9U.s:100    .text:00000040 USBH_HID_GetMouseInfo
     /tmp/ccL5iU9U.s:201    .text:0000009c $d
     /tmp/ccL5iU9U.s:216    .rodata:00000000 $d
     /tmp/ccL5iU9U.s:220    .rodata:00000000 prop_x
     /tmp/ccL5iU9U.s:234    .rodata:00000020 prop_y
     /tmp/ccL5iU9U.s:248    .rodata:00000040 prop_b1
     /tmp/ccL5iU9U.s:262    .rodata:00000060 prop_b2
     /tmp/ccL5iU9U.s:276    .rodata:00000080 prop_b3
                     .debug_frame:00000010 $d

UNDEFINED SYMBOLS
fifo_init
fifo_read
HID_ReadItem
