ARM GAS  /tmp/ccMjFzvY.s 			page 1


   1              		.syntax unified
   2              		.cpu cortex-m4
   3              		.eabi_attribute 27, 1
   4              		.eabi_attribute 28, 1
   5              		.fpu fpv4-sp-d16
   6              		.eabi_attribute 20, 1
   7              		.eabi_attribute 21, 1
   8              		.eabi_attribute 23, 3
   9              		.eabi_attribute 24, 1
  10              		.eabi_attribute 25, 1
  11              		.eabi_attribute 26, 1
  12              		.eabi_attribute 30, 2
  13              		.eabi_attribute 34, 1
  14              		.eabi_attribute 18, 4
  15              		.thumb
  16              		.file	"usbh_ioreq.c"
  17              		.text
  18              	.Ltext0:
  19              		.cfi_sections	.debug_frame
  20              		.align	2
  21              		.p2align 4,,15
  22              		.global	USBH_CtlSendSetup
  23              		.thumb
  24              		.thumb_func
  25              		.type	USBH_CtlSendSetup, %function
  26              	USBH_CtlSendSetup:
  27              	.LFB133:
  28              		.file 1 "./STM32_USB_Host_Library/Core/Src/usbh_ioreq.c"
  29              		.loc 1 103 0
  30              		.cfi_startproc
  31              		@ args = 0, pretend = 0, frame = 0
  32              		@ frame_needed = 0, uses_anonymous_args = 0
  33              	.LVL0:
  34 0000 30B5     		push	{r4, r5, lr}
  35              		.cfi_def_cfa_offset 12
  36              		.cfi_offset 4, -12
  37              		.cfi_offset 5, -8
  38              		.cfi_offset 14, -4
  39 0002 85B0     		sub	sp, sp, #20
  40              		.cfi_def_cfa_offset 32
  41              	.LBB20:
  42              	.LBB21:
  43              		.file 2 "./usbh_conf.h"
  44              		.loc 2 245 0
  45 0004 0024     		movs	r4, #0
  46 0006 0825     		movs	r5, #8
  47 0008 D0F8F005 		ldr	r0, [r0, #1520]
  48              	.LVL1:
  49 000c 0191     		str	r1, [sp, #4]
  50 000e 0094     		str	r4, [sp]
  51 0010 1146     		mov	r1, r2
  52              	.LVL2:
  53 0012 0394     		str	r4, [sp, #12]
  54 0014 2246     		mov	r2, r4
  55              	.LVL3:
  56 0016 2346     		mov	r3, r4
  57 0018 0295     		str	r5, [sp, #8]
ARM GAS  /tmp/ccMjFzvY.s 			page 2


  58 001a FFF7FEFF 		bl	HAL_HCD_HC_SubmitRequest
  59              	.LVL4:
  60              	.LBE21:
  61              	.LBE20:
  62              		.loc 1 114 0
  63 001e 2046     		mov	r0, r4
  64 0020 05B0     		add	sp, sp, #20
  65              		.cfi_def_cfa_offset 12
  66              		@ sp needed
  67 0022 30BD     		pop	{r4, r5, pc}
  68              		.cfi_endproc
  69              	.LFE133:
  70              		.size	USBH_CtlSendSetup, .-USBH_CtlSendSetup
  71              		.align	2
  72 0024 AFF30080 		.p2align 4,,15
  72      AFF30080 
  72      AFF30080 
  73              		.global	USBH_CtlSendData
  74              		.thumb
  75              		.thumb_func
  76              		.type	USBH_CtlSendData, %function
  77              	USBH_CtlSendData:
  78              	.LFB134:
  79              		.loc 1 131 0
  80              		.cfi_startproc
  81              		@ args = 4, pretend = 0, frame = 0
  82              		@ frame_needed = 0, uses_anonymous_args = 0
  83              	.LVL5:
  84 0030 30B5     		push	{r4, r5, lr}
  85              		.cfi_def_cfa_offset 12
  86              		.cfi_offset 4, -12
  87              		.cfi_offset 5, -8
  88              		.cfi_offset 14, -4
  89              		.loc 1 132 0
  90 0032 90F81D54 		ldrb	r5, [r0, #1053]	@ zero_extendqisi2
  91              	.LBB22:
  92              	.LBB23:
  93              		.loc 2 245 0
  94 0036 D0F8F005 		ldr	r0, [r0, #1520]
  95              	.LVL6:
  96              	.LBE23:
  97              	.LBE22:
  98              		.loc 1 131 0
  99 003a 85B0     		sub	sp, sp, #20
 100              		.cfi_def_cfa_offset 32
 101              		.loc 1 132 0
 102 003c 002D     		cmp	r5, #0
 103              		.loc 1 131 0
 104 003e 9DF82040 		ldrb	r4, [sp, #32]	@ zero_extendqisi2
 105              	.LBB25:
 106              	.LBB24:
 107              		.loc 2 245 0
 108 0042 0292     		str	r2, [sp, #8]
 109 0044 18BF     		it	ne
 110 0046 0024     		movne	r4, #0
 111              	.LVL7:
 112 0048 0022     		movs	r2, #0
ARM GAS  /tmp/ccMjFzvY.s 			page 3


 113              	.LVL8:
 114 004a 0125     		movs	r5, #1
 115 004c 0191     		str	r1, [sp, #4]
 116 004e 0394     		str	r4, [sp, #12]
 117 0050 1946     		mov	r1, r3
 118              	.LVL9:
 119 0052 0095     		str	r5, [sp]
 120 0054 1346     		mov	r3, r2
 121              	.LVL10:
 122 0056 FFF7FEFF 		bl	HAL_HCD_HC_SubmitRequest
 123              	.LVL11:
 124              	.LBE24:
 125              	.LBE25:
 126              		.loc 1 147 0
 127 005a 0020     		movs	r0, #0
 128 005c 05B0     		add	sp, sp, #20
 129              		.cfi_def_cfa_offset 12
 130              		@ sp needed
 131 005e 30BD     		pop	{r4, r5, pc}
 132              		.cfi_endproc
 133              	.LFE134:
 134              		.size	USBH_CtlSendData, .-USBH_CtlSendData
 135              		.align	2
 136              		.p2align 4,,15
 137              		.global	USBH_CtlReceiveData
 138              		.thumb
 139              		.thumb_func
 140              		.type	USBH_CtlReceiveData, %function
 141              	USBH_CtlReceiveData:
 142              	.LFB135:
 143              		.loc 1 163 0
 144              		.cfi_startproc
 145              		@ args = 0, pretend = 0, frame = 0
 146              		@ frame_needed = 0, uses_anonymous_args = 0
 147              	.LVL12:
 148 0060 30B5     		push	{r4, r5, lr}
 149              		.cfi_def_cfa_offset 12
 150              		.cfi_offset 4, -12
 151              		.cfi_offset 5, -8
 152              		.cfi_offset 14, -4
 153 0062 85B0     		sub	sp, sp, #20
 154              		.cfi_def_cfa_offset 32
 155              	.LBB26:
 156              	.LBB27:
 157              		.loc 2 245 0
 158 0064 0024     		movs	r4, #0
 159 0066 0125     		movs	r5, #1
 160 0068 D0F8F005 		ldr	r0, [r0, #1520]
 161              	.LVL13:
 162 006c 0191     		str	r1, [sp, #4]
 163 006e 0292     		str	r2, [sp, #8]
 164 0070 1946     		mov	r1, r3
 165              	.LVL14:
 166 0072 0095     		str	r5, [sp]
 167 0074 2A46     		mov	r2, r5
 168              	.LVL15:
 169 0076 0394     		str	r4, [sp, #12]
ARM GAS  /tmp/ccMjFzvY.s 			page 4


 170 0078 2346     		mov	r3, r4
 171              	.LVL16:
 172 007a FFF7FEFF 		bl	HAL_HCD_HC_SubmitRequest
 173              	.LVL17:
 174              	.LBE27:
 175              	.LBE26:
 176              		.loc 1 174 0
 177 007e 2046     		mov	r0, r4
 178 0080 05B0     		add	sp, sp, #20
 179              		.cfi_def_cfa_offset 12
 180              		@ sp needed
 181 0082 30BD     		pop	{r4, r5, pc}
 182              		.cfi_endproc
 183              	.LFE135:
 184              		.size	USBH_CtlReceiveData, .-USBH_CtlReceiveData
 185              		.align	2
 186 0084 AFF30080 		.p2align 4,,15
 186      AFF30080 
 186      AFF30080 
 187              		.global	USBH_BulkSendData
 188              		.thumb
 189              		.thumb_func
 190              		.type	USBH_BulkSendData, %function
 191              	USBH_BulkSendData:
 192              	.LFB136:
 193              		.loc 1 191 0
 194              		.cfi_startproc
 195              		@ args = 4, pretend = 0, frame = 0
 196              		@ frame_needed = 0, uses_anonymous_args = 0
 197              	.LVL18:
 198 0090 30B5     		push	{r4, r5, lr}
 199              		.cfi_def_cfa_offset 12
 200              		.cfi_offset 4, -12
 201              		.cfi_offset 5, -8
 202              		.cfi_offset 14, -4
 203              		.loc 1 192 0
 204 0092 90F81D54 		ldrb	r5, [r0, #1053]	@ zero_extendqisi2
 205              	.LBB28:
 206              	.LBB29:
 207              		.loc 2 245 0
 208 0096 D0F8F005 		ldr	r0, [r0, #1520]
 209              	.LVL19:
 210              	.LBE29:
 211              	.LBE28:
 212              		.loc 1 191 0
 213 009a 85B0     		sub	sp, sp, #20
 214              		.cfi_def_cfa_offset 32
 215              		.loc 1 192 0
 216 009c 002D     		cmp	r5, #0
 217              		.loc 1 191 0
 218 009e 9DF82040 		ldrb	r4, [sp, #32]	@ zero_extendqisi2
 219              	.LBB31:
 220              	.LBB30:
 221              		.loc 2 245 0
 222 00a2 0191     		str	r1, [sp, #4]
 223 00a4 18BF     		it	ne
 224 00a6 0024     		movne	r4, #0
ARM GAS  /tmp/ccMjFzvY.s 			page 5


 225              	.LVL20:
 226 00a8 0125     		movs	r5, #1
 227 00aa 0292     		str	r2, [sp, #8]
 228 00ac 1946     		mov	r1, r3
 229              	.LVL21:
 230 00ae 0394     		str	r4, [sp, #12]
 231 00b0 0095     		str	r5, [sp]
 232 00b2 0022     		movs	r2, #0
 233              	.LVL22:
 234 00b4 0223     		movs	r3, #2
 235              	.LVL23:
 236 00b6 FFF7FEFF 		bl	HAL_HCD_HC_SubmitRequest
 237              	.LVL24:
 238              	.LBE30:
 239              	.LBE31:
 240              		.loc 1 206 0
 241 00ba 0020     		movs	r0, #0
 242 00bc 05B0     		add	sp, sp, #20
 243              		.cfi_def_cfa_offset 12
 244              		@ sp needed
 245 00be 30BD     		pop	{r4, r5, pc}
 246              		.cfi_endproc
 247              	.LFE136:
 248              		.size	USBH_BulkSendData, .-USBH_BulkSendData
 249              		.align	2
 250              		.p2align 4,,15
 251              		.global	USBH_BulkReceiveData
 252              		.thumb
 253              		.thumb_func
 254              		.type	USBH_BulkReceiveData, %function
 255              	USBH_BulkReceiveData:
 256              	.LFB137:
 257              		.loc 1 222 0
 258              		.cfi_startproc
 259              		@ args = 0, pretend = 0, frame = 0
 260              		@ frame_needed = 0, uses_anonymous_args = 0
 261              	.LVL25:
 262 00c0 30B5     		push	{r4, r5, lr}
 263              		.cfi_def_cfa_offset 12
 264              		.cfi_offset 4, -12
 265              		.cfi_offset 5, -8
 266              		.cfi_offset 14, -4
 267 00c2 85B0     		sub	sp, sp, #20
 268              		.cfi_def_cfa_offset 32
 269              	.LBB32:
 270              	.LBB33:
 271              		.loc 2 245 0
 272 00c4 0125     		movs	r5, #1
 273 00c6 0024     		movs	r4, #0
 274 00c8 D0F8F005 		ldr	r0, [r0, #1520]
 275              	.LVL26:
 276 00cc 0191     		str	r1, [sp, #4]
 277 00ce 0292     		str	r2, [sp, #8]
 278 00d0 1946     		mov	r1, r3
 279              	.LVL27:
 280 00d2 0095     		str	r5, [sp]
 281 00d4 2A46     		mov	r2, r5
ARM GAS  /tmp/ccMjFzvY.s 			page 6


 282              	.LVL28:
 283 00d6 0394     		str	r4, [sp, #12]
 284 00d8 0223     		movs	r3, #2
 285              	.LVL29:
 286 00da FFF7FEFF 		bl	HAL_HCD_HC_SubmitRequest
 287              	.LVL30:
 288              	.LBE33:
 289              	.LBE32:
 290              		.loc 1 232 0
 291 00de 2046     		mov	r0, r4
 292 00e0 05B0     		add	sp, sp, #20
 293              		.cfi_def_cfa_offset 12
 294              		@ sp needed
 295 00e2 30BD     		pop	{r4, r5, pc}
 296              		.cfi_endproc
 297              	.LFE137:
 298              		.size	USBH_BulkReceiveData, .-USBH_BulkReceiveData
 299              		.align	2
 300 00e4 AFF30080 		.p2align 4,,15
 300      AFF30080 
 300      AFF30080 
 301              		.global	USBH_InterruptReceiveData
 302              		.thumb
 303              		.thumb_func
 304              		.type	USBH_InterruptReceiveData, %function
 305              	USBH_InterruptReceiveData:
 306              	.LFB138:
 307              		.loc 1 248 0
 308              		.cfi_startproc
 309              		@ args = 0, pretend = 0, frame = 0
 310              		@ frame_needed = 0, uses_anonymous_args = 0
 311              	.LVL31:
 312 00f0 30B5     		push	{r4, r5, lr}
 313              		.cfi_def_cfa_offset 12
 314              		.cfi_offset 4, -12
 315              		.cfi_offset 5, -8
 316              		.cfi_offset 14, -4
 317 00f2 85B0     		sub	sp, sp, #20
 318              		.cfi_def_cfa_offset 32
 319              	.LBB34:
 320              	.LBB35:
 321              		.loc 2 245 0
 322 00f4 0125     		movs	r5, #1
 323 00f6 0024     		movs	r4, #0
 324 00f8 D0F8F005 		ldr	r0, [r0, #1520]
 325              	.LVL32:
 326 00fc 0191     		str	r1, [sp, #4]
 327 00fe 0292     		str	r2, [sp, #8]
 328 0100 1946     		mov	r1, r3
 329              	.LVL33:
 330 0102 0095     		str	r5, [sp]
 331 0104 2A46     		mov	r2, r5
 332              	.LVL34:
 333 0106 0394     		str	r4, [sp, #12]
 334 0108 0323     		movs	r3, #3
 335              	.LVL35:
 336 010a FFF7FEFF 		bl	HAL_HCD_HC_SubmitRequest
ARM GAS  /tmp/ccMjFzvY.s 			page 7


 337              	.LVL36:
 338              	.LBE35:
 339              	.LBE34:
 340              		.loc 1 259 0
 341 010e 2046     		mov	r0, r4
 342 0110 05B0     		add	sp, sp, #20
 343              		.cfi_def_cfa_offset 12
 344              		@ sp needed
 345 0112 30BD     		pop	{r4, r5, pc}
 346              		.cfi_endproc
 347              	.LFE138:
 348              		.size	USBH_InterruptReceiveData, .-USBH_InterruptReceiveData
 349              		.align	2
 350 0114 AFF30080 		.p2align 4,,15
 350      AFF30080 
 350      AFF30080 
 351              		.global	USBH_InterruptSendData
 352              		.thumb
 353              		.thumb_func
 354              		.type	USBH_InterruptSendData, %function
 355              	USBH_InterruptSendData:
 356              	.LFB139:
 357              		.loc 1 274 0
 358              		.cfi_startproc
 359              		@ args = 0, pretend = 0, frame = 0
 360              		@ frame_needed = 0, uses_anonymous_args = 0
 361              	.LVL37:
 362 0120 30B5     		push	{r4, r5, lr}
 363              		.cfi_def_cfa_offset 12
 364              		.cfi_offset 4, -12
 365              		.cfi_offset 5, -8
 366              		.cfi_offset 14, -4
 367 0122 85B0     		sub	sp, sp, #20
 368              		.cfi_def_cfa_offset 32
 369              	.LBB36:
 370              	.LBB37:
 371              		.loc 2 245 0
 372 0124 0024     		movs	r4, #0
 373 0126 0125     		movs	r5, #1
 374 0128 D0F8F005 		ldr	r0, [r0, #1520]
 375              	.LVL38:
 376 012c 0191     		str	r1, [sp, #4]
 377 012e 0292     		str	r2, [sp, #8]
 378 0130 1946     		mov	r1, r3
 379              	.LVL39:
 380 0132 0095     		str	r5, [sp]
 381 0134 0394     		str	r4, [sp, #12]
 382 0136 2246     		mov	r2, r4
 383              	.LVL40:
 384 0138 0323     		movs	r3, #3
 385              	.LVL41:
 386 013a FFF7FEFF 		bl	HAL_HCD_HC_SubmitRequest
 387              	.LVL42:
 388              	.LBE37:
 389              	.LBE36:
 390              		.loc 1 285 0
 391 013e 2046     		mov	r0, r4
ARM GAS  /tmp/ccMjFzvY.s 			page 8


 392 0140 05B0     		add	sp, sp, #20
 393              		.cfi_def_cfa_offset 12
 394              		@ sp needed
 395 0142 30BD     		pop	{r4, r5, pc}
 396              		.cfi_endproc
 397              	.LFE139:
 398              		.size	USBH_InterruptSendData, .-USBH_InterruptSendData
 399              		.align	2
 400 0144 AFF30080 		.p2align 4,,15
 400      AFF30080 
 400      AFF30080 
 401              		.global	USBH_IsocReceiveData
 402              		.thumb
 403              		.thumb_func
 404              		.type	USBH_IsocReceiveData, %function
 405              	USBH_IsocReceiveData:
 406              	.LFB140:
 407              		.loc 1 300 0
 408              		.cfi_startproc
 409              		@ args = 0, pretend = 0, frame = 0
 410              		@ frame_needed = 0, uses_anonymous_args = 0
 411              	.LVL43:
 412 0150 10B5     		push	{r4, lr}
 413              		.cfi_def_cfa_offset 8
 414              		.cfi_offset 4, -8
 415              		.cfi_offset 14, -4
 416 0152 84B0     		sub	sp, sp, #16
 417              		.cfi_def_cfa_offset 24
 418              	.LBB38:
 419              	.LBB39:
 420              		.loc 2 245 0
 421 0154 D0F8F005 		ldr	r0, [r0, #1520]
 422              	.LVL44:
 423 0158 0191     		str	r1, [sp, #4]
 424 015a 0024     		movs	r4, #0
 425 015c 91B2     		uxth	r1, r2
 426              	.LVL45:
 427 015e 0122     		movs	r2, #1
 428              	.LVL46:
 429 0160 0291     		str	r1, [sp, #8]
 430 0162 0092     		str	r2, [sp]
 431 0164 1946     		mov	r1, r3
 432              	.LVL47:
 433 0166 0394     		str	r4, [sp, #12]
 434 0168 1346     		mov	r3, r2
 435              	.LVL48:
 436 016a FFF7FEFF 		bl	HAL_HCD_HC_SubmitRequest
 437              	.LVL49:
 438              	.LBE39:
 439              	.LBE38:
 440              		.loc 1 312 0
 441 016e 2046     		mov	r0, r4
 442 0170 04B0     		add	sp, sp, #16
 443              		.cfi_def_cfa_offset 8
 444              		@ sp needed
 445 0172 10BD     		pop	{r4, pc}
 446              		.cfi_endproc
ARM GAS  /tmp/ccMjFzvY.s 			page 9


 447              	.LFE140:
 448              		.size	USBH_IsocReceiveData, .-USBH_IsocReceiveData
 449              		.align	2
 450 0174 AFF30080 		.p2align 4,,15
 450      AFF30080 
 450      AFF30080 
 451              		.global	USBH_IsocSendData
 452              		.thumb
 453              		.thumb_func
 454              		.type	USBH_IsocSendData, %function
 455              	USBH_IsocSendData:
 456              	.LFB141:
 457              		.loc 1 327 0
 458              		.cfi_startproc
 459              		@ args = 0, pretend = 0, frame = 0
 460              		@ frame_needed = 0, uses_anonymous_args = 0
 461              	.LVL50:
 462 0180 30B5     		push	{r4, r5, lr}
 463              		.cfi_def_cfa_offset 12
 464              		.cfi_offset 4, -12
 465              		.cfi_offset 5, -8
 466              		.cfi_offset 14, -4
 467 0182 85B0     		sub	sp, sp, #20
 468              		.cfi_def_cfa_offset 32
 469              	.LBB40:
 470              	.LBB41:
 471              		.loc 2 245 0
 472 0184 0024     		movs	r4, #0
 473 0186 0125     		movs	r5, #1
 474 0188 92B2     		uxth	r2, r2
 475              	.LVL51:
 476 018a D0F8F005 		ldr	r0, [r0, #1520]
 477              	.LVL52:
 478 018e 0191     		str	r1, [sp, #4]
 479 0190 0292     		str	r2, [sp, #8]
 480 0192 1946     		mov	r1, r3
 481              	.LVL53:
 482 0194 0095     		str	r5, [sp]
 483 0196 2B46     		mov	r3, r5
 484              	.LVL54:
 485 0198 0394     		str	r4, [sp, #12]
 486 019a 2246     		mov	r2, r4
 487              	.LVL55:
 488 019c FFF7FEFF 		bl	HAL_HCD_HC_SubmitRequest
 489              	.LVL56:
 490              	.LBE41:
 491              	.LBE40:
 492              		.loc 1 338 0
 493 01a0 2046     		mov	r0, r4
 494 01a2 05B0     		add	sp, sp, #20
 495              		.cfi_def_cfa_offset 12
 496              		@ sp needed
 497 01a4 30BD     		pop	{r4, r5, pc}
 498              		.cfi_endproc
 499              	.LFE141:
 500              		.size	USBH_IsocSendData, .-USBH_IsocSendData
 501              	.Letext0:
ARM GAS  /tmp/ccMjFzvY.s 			page 10


 502              		.file 3 "/home/sbcu/Dropbox/pcb-layouts/axo-on-discovery-board/axoloti/platform_linux/arm-none-eab
 503              		.file 4 "/home/sbcu/Dropbox/pcb-layouts/axo-on-discovery-board/axoloti/platform_linux/arm-none-eab
 504              		.file 5 "/home/sbcu/Dropbox/pcb-layouts/axo-on-discovery-board/axoloti/platform_linux/../chibios/o
 505              		.file 6 "/home/sbcu/Dropbox/pcb-layouts/axo-on-discovery-board/axoloti/platform_linux/../chibios/o
 506              		.file 7 "/home/sbcu/Dropbox/pcb-layouts/axo-on-discovery-board/axoloti/platform_linux/../chibios/o
 507              		.file 8 "/home/sbcu/Dropbox/pcb-layouts/axo-on-discovery-board/axoloti/platform_linux/../chibios/o
 508              		.file 9 "/home/sbcu/Dropbox/pcb-layouts/axo-on-discovery-board/axoloti/platform_linux/../chibios/o
 509              		.file 10 "./STM32_USB_Host_Library/Core/Inc/usbh_def.h"
 510              		.file 11 "/home/sbcu/Dropbox/pcb-layouts/axo-on-discovery-board/axoloti/platform_linux/../CMSIS//I
 511 01a6 00BF     		.section	.debug_info,"",%progbits
 512              	.Ldebug_info0:
 513 0000 77140000 		.4byte	0x1477
 514 0004 0400     		.2byte	0x4
 515 0006 00000000 		.4byte	.Ldebug_abbrev0
 516 000a 04       		.byte	0x4
 517 000b 01       		.uleb128 0x1
 518 000c 1B0A0000 		.4byte	.LASF217
 519 0010 01       		.byte	0x1
 520 0011 C9040000 		.4byte	.LASF218
 521 0015 70090000 		.4byte	.LASF219
 522 0019 00000000 		.4byte	.Ltext0
 523 001d A6010000 		.4byte	.Letext0-.Ltext0
 524 0021 00000000 		.4byte	.Ldebug_line0
 525 0025 02       		.uleb128 0x2
 526 0026 01       		.byte	0x1
 527 0027 06       		.byte	0x6
 528 0028 45020000 		.4byte	.LASF0
 529 002c 03       		.uleb128 0x3
 530 002d 6F010000 		.4byte	.LASF3
 531 0031 03       		.byte	0x3
 532 0032 1D       		.byte	0x1d
 533 0033 37000000 		.4byte	0x37
 534 0037 02       		.uleb128 0x2
 535 0038 01       		.byte	0x1
 536 0039 08       		.byte	0x8
 537 003a A8020000 		.4byte	.LASF1
 538 003e 02       		.uleb128 0x2
 539 003f 02       		.byte	0x2
 540 0040 05       		.byte	0x5
 541 0041 54090000 		.4byte	.LASF2
 542 0045 03       		.uleb128 0x3
 543 0046 4F030000 		.4byte	.LASF4
 544 004a 03       		.byte	0x3
 545 004b 2B       		.byte	0x2b
 546 004c 50000000 		.4byte	0x50
 547 0050 02       		.uleb128 0x2
 548 0051 02       		.byte	0x2
 549 0052 07       		.byte	0x7
 550 0053 C30B0000 		.4byte	.LASF5
 551 0057 03       		.uleb128 0x3
 552 0058 270C0000 		.4byte	.LASF6
 553 005c 03       		.byte	0x3
 554 005d 3F       		.byte	0x3f
 555 005e 62000000 		.4byte	0x62
 556 0062 02       		.uleb128 0x2
 557 0063 04       		.byte	0x4
 558 0064 05       		.byte	0x5
ARM GAS  /tmp/ccMjFzvY.s 			page 11


 559 0065 A9010000 		.4byte	.LASF7
 560 0069 03       		.uleb128 0x3
 561 006a 7D050000 		.4byte	.LASF8
 562 006e 03       		.byte	0x3
 563 006f 41       		.byte	0x41
 564 0070 74000000 		.4byte	0x74
 565 0074 02       		.uleb128 0x2
 566 0075 04       		.byte	0x4
 567 0076 07       		.byte	0x7
 568 0077 88040000 		.4byte	.LASF9
 569 007b 02       		.uleb128 0x2
 570 007c 08       		.byte	0x8
 571 007d 05       		.byte	0x5
 572 007e 8E050000 		.4byte	.LASF10
 573 0082 02       		.uleb128 0x2
 574 0083 08       		.byte	0x8
 575 0084 07       		.byte	0x7
 576 0085 88070000 		.4byte	.LASF11
 577 0089 04       		.uleb128 0x4
 578 008a 04       		.byte	0x4
 579 008b 05       		.byte	0x5
 580 008c 696E7400 		.ascii	"int\000"
 581 0090 02       		.uleb128 0x2
 582 0091 04       		.byte	0x4
 583 0092 07       		.byte	0x7
 584 0093 31060000 		.4byte	.LASF12
 585 0097 03       		.uleb128 0x3
 586 0098 5B020000 		.4byte	.LASF13
 587 009c 04       		.byte	0x4
 588 009d 14       		.byte	0x14
 589 009e 2C000000 		.4byte	0x2c
 590 00a2 03       		.uleb128 0x3
 591 00a3 D4070000 		.4byte	.LASF14
 592 00a7 04       		.byte	0x4
 593 00a8 1A       		.byte	0x1a
 594 00a9 45000000 		.4byte	0x45
 595 00ad 03       		.uleb128 0x3
 596 00ae AA000000 		.4byte	.LASF15
 597 00b2 04       		.byte	0x4
 598 00b3 1F       		.byte	0x1f
 599 00b4 57000000 		.4byte	0x57
 600 00b8 03       		.uleb128 0x3
 601 00b9 610B0000 		.4byte	.LASF16
 602 00bd 04       		.byte	0x4
 603 00be 20       		.byte	0x20
 604 00bf 69000000 		.4byte	0x69
 605 00c3 02       		.uleb128 0x2
 606 00c4 04       		.byte	0x4
 607 00c5 07       		.byte	0x7
 608 00c6 2C000000 		.4byte	.LASF17
 609 00ca 05       		.uleb128 0x5
 610 00cb B8000000 		.4byte	0xb8
 611 00cf 06       		.uleb128 0x6
 612 00d0 B8000000 		.4byte	0xb8
 613 00d4 DF000000 		.4byte	0xdf
 614 00d8 07       		.uleb128 0x7
 615 00d9 C3000000 		.4byte	0xc3
ARM GAS  /tmp/ccMjFzvY.s 			page 12


 616 00dd 01       		.byte	0x1
 617 00de 00       		.byte	0
 618 00df 05       		.uleb128 0x5
 619 00e0 97000000 		.4byte	0x97
 620 00e4 06       		.uleb128 0x6
 621 00e5 B8000000 		.4byte	0xb8
 622 00e9 F4000000 		.4byte	0xf4
 623 00ed 07       		.uleb128 0x7
 624 00ee C3000000 		.4byte	0xc3
 625 00f2 0E       		.byte	0xe
 626 00f3 00       		.byte	0
 627 00f4 05       		.uleb128 0x5
 628 00f5 AD000000 		.4byte	0xad
 629 00f9 08       		.uleb128 0x8
 630 00fa 04       		.byte	0x4
 631 00fb 02       		.uleb128 0x2
 632 00fc 01       		.byte	0x1
 633 00fd 08       		.byte	0x8
 634 00fe 26030000 		.4byte	.LASF18
 635 0102 09       		.uleb128 0x9
 636 0103 04       		.byte	0x4
 637 0104 08010000 		.4byte	0x108
 638 0108 0A       		.uleb128 0xa
 639 0109 FB000000 		.4byte	0xfb
 640 010d 02       		.uleb128 0x2
 641 010e 01       		.byte	0x1
 642 010f 02       		.byte	0x2
 643 0110 E8020000 		.4byte	.LASF19
 644 0114 03       		.uleb128 0x3
 645 0115 EF080000 		.4byte	.LASF20
 646 0119 05       		.byte	0x5
 647 011a 2C       		.byte	0x2c
 648 011b 97000000 		.4byte	0x97
 649 011f 03       		.uleb128 0x3
 650 0120 EF010000 		.4byte	.LASF21
 651 0124 05       		.byte	0x5
 652 0125 2D       		.byte	0x2d
 653 0126 97000000 		.4byte	0x97
 654 012a 03       		.uleb128 0x3
 655 012b 15080000 		.4byte	.LASF22
 656 012f 05       		.byte	0x5
 657 0130 2F       		.byte	0x2f
 658 0131 97000000 		.4byte	0x97
 659 0135 03       		.uleb128 0x3
 660 0136 85000000 		.4byte	.LASF23
 661 013a 05       		.byte	0x5
 662 013b 30       		.byte	0x30
 663 013c B8000000 		.4byte	0xb8
 664 0140 03       		.uleb128 0x3
 665 0141 0F080000 		.4byte	.LASF24
 666 0145 05       		.byte	0x5
 667 0146 31       		.byte	0x31
 668 0147 AD000000 		.4byte	0xad
 669 014b 03       		.uleb128 0x3
 670 014c 8A020000 		.4byte	.LASF25
 671 0150 05       		.byte	0x5
 672 0151 33       		.byte	0x33
ARM GAS  /tmp/ccMjFzvY.s 			page 13


 673 0152 B8000000 		.4byte	0xb8
 674 0156 03       		.uleb128 0x3
 675 0157 F1090000 		.4byte	.LASF26
 676 015b 06       		.byte	0x6
 677 015c 2A       		.byte	0x2a
 678 015d 61010000 		.4byte	0x161
 679 0161 0B       		.uleb128 0xb
 680 0162 F1090000 		.4byte	.LASF26
 681 0166 40       		.byte	0x40
 682 0167 07       		.byte	0x7
 683 0168 5E       		.byte	0x5e
 684 0169 3A020000 		.4byte	0x23a
 685 016d 0C       		.uleb128 0xc
 686 016e B2010000 		.4byte	.LASF27
 687 0172 07       		.byte	0x7
 688 0173 5F       		.byte	0x5f
 689 0174 5B020000 		.4byte	0x25b
 690 0178 00       		.byte	0
 691 0179 0C       		.uleb128 0xc
 692 017a D0010000 		.4byte	.LASF28
 693 017e 07       		.byte	0x7
 694 017f 61       		.byte	0x61
 695 0180 5B020000 		.4byte	0x25b
 696 0184 04       		.byte	0x4
 697 0185 0C       		.uleb128 0xc
 698 0186 48030000 		.4byte	.LASF29
 699 018a 07       		.byte	0x7
 700 018b 63       		.byte	0x63
 701 018c 35010000 		.4byte	0x135
 702 0190 08       		.byte	0x8
 703 0191 0C       		.uleb128 0xc
 704 0192 72000000 		.4byte	.LASF30
 705 0196 07       		.byte	0x7
 706 0197 64       		.byte	0x64
 707 0198 E3030000 		.4byte	0x3e3
 708 019c 0C       		.byte	0xc
 709 019d 0C       		.uleb128 0xc
 710 019e A1010000 		.4byte	.LASF31
 711 01a2 07       		.byte	0x7
 712 01a3 66       		.byte	0x66
 713 01a4 5B020000 		.4byte	0x25b
 714 01a8 10       		.byte	0x10
 715 01a9 0C       		.uleb128 0xc
 716 01aa C5070000 		.4byte	.LASF32
 717 01ae 07       		.byte	0x7
 718 01af 67       		.byte	0x67
 719 01b0 5B020000 		.4byte	0x25b
 720 01b4 14       		.byte	0x14
 721 01b5 0C       		.uleb128 0xc
 722 01b6 430C0000 		.4byte	.LASF33
 723 01ba 07       		.byte	0x7
 724 01bb 6E       		.byte	0x6e
 725 01bc 02010000 		.4byte	0x102
 726 01c0 18       		.byte	0x18
 727 01c1 0C       		.uleb128 0xc
 728 01c2 750C0000 		.4byte	.LASF34
 729 01c6 07       		.byte	0x7
ARM GAS  /tmp/ccMjFzvY.s 			page 14


 730 01c7 79       		.byte	0x79
 731 01c8 1F010000 		.4byte	0x11f
 732 01cc 1C       		.byte	0x1c
 733 01cd 0C       		.uleb128 0xc
 734 01ce 14060000 		.4byte	.LASF35
 735 01d2 07       		.byte	0x7
 736 01d3 7D       		.byte	0x7d
 737 01d4 14010000 		.4byte	0x114
 738 01d8 1D       		.byte	0x1d
 739 01d9 0C       		.uleb128 0xc
 740 01da 51020000 		.4byte	.LASF36
 741 01de 07       		.byte	0x7
 742 01df 88       		.byte	0x88
 743 01e0 2A010000 		.4byte	0x12a
 744 01e4 1E       		.byte	0x1e
 745 01e5 0D       		.uleb128 0xd
 746 01e6 705F7500 		.ascii	"p_u\000"
 747 01ea 07       		.byte	0x7
 748 01eb B4       		.byte	0xb4
 749 01ec 46040000 		.4byte	0x446
 750 01f0 20       		.byte	0x20
 751 01f1 0C       		.uleb128 0xc
 752 01f2 FB050000 		.4byte	.LASF37
 753 01f6 07       		.byte	0x7
 754 01f7 B9       		.byte	0xb9
 755 01f8 81020000 		.4byte	0x281
 756 01fc 24       		.byte	0x24
 757 01fd 0C       		.uleb128 0xc
 758 01fe 8D000000 		.4byte	.LASF38
 759 0202 07       		.byte	0x7
 760 0203 BF       		.byte	0xbf
 761 0204 61020000 		.4byte	0x261
 762 0208 28       		.byte	0x28
 763 0209 0C       		.uleb128 0xc
 764 020a 650C0000 		.4byte	.LASF39
 765 020e 07       		.byte	0x7
 766 020f C3       		.byte	0xc3
 767 0210 40010000 		.4byte	0x140
 768 0214 30       		.byte	0x30
 769 0215 0C       		.uleb128 0xc
 770 0216 38040000 		.4byte	.LASF40
 771 021a 07       		.byte	0x7
 772 021b C9       		.byte	0xc9
 773 021c 4B010000 		.4byte	0x14b
 774 0220 34       		.byte	0x34
 775 0221 0C       		.uleb128 0xc
 776 0222 F8010000 		.4byte	.LASF41
 777 0226 07       		.byte	0x7
 778 0227 D0       		.byte	0xd0
 779 0228 7B040000 		.4byte	0x47b
 780 022c 38       		.byte	0x38
 781 022d 0C       		.uleb128 0xc
 782 022e 52070000 		.4byte	.LASF42
 783 0232 07       		.byte	0x7
 784 0233 D4       		.byte	0xd4
 785 0234 35010000 		.4byte	0x135
 786 0238 3C       		.byte	0x3c
ARM GAS  /tmp/ccMjFzvY.s 			page 15


 787 0239 00       		.byte	0
 788 023a 0E       		.uleb128 0xe
 789 023b 08       		.byte	0x8
 790 023c 06       		.byte	0x6
 791 023d 61       		.byte	0x61
 792 023e 5B020000 		.4byte	0x25b
 793 0242 0C       		.uleb128 0xc
 794 0243 B2010000 		.4byte	.LASF27
 795 0247 06       		.byte	0x6
 796 0248 62       		.byte	0x62
 797 0249 5B020000 		.4byte	0x25b
 798 024d 00       		.byte	0
 799 024e 0C       		.uleb128 0xc
 800 024f D0010000 		.4byte	.LASF28
 801 0253 06       		.byte	0x6
 802 0254 64       		.byte	0x64
 803 0255 5B020000 		.4byte	0x25b
 804 0259 04       		.byte	0x4
 805 025a 00       		.byte	0
 806 025b 09       		.uleb128 0x9
 807 025c 04       		.byte	0x4
 808 025d 56010000 		.4byte	0x156
 809 0261 03       		.uleb128 0x3
 810 0262 7E0B0000 		.4byte	.LASF43
 811 0266 06       		.byte	0x6
 812 0267 66       		.byte	0x66
 813 0268 3A020000 		.4byte	0x23a
 814 026c 0E       		.uleb128 0xe
 815 026d 04       		.byte	0x4
 816 026e 06       		.byte	0x6
 817 026f 6B       		.byte	0x6b
 818 0270 81020000 		.4byte	0x281
 819 0274 0C       		.uleb128 0xc
 820 0275 B2010000 		.4byte	.LASF27
 821 0279 06       		.byte	0x6
 822 027a 6D       		.byte	0x6d
 823 027b 5B020000 		.4byte	0x25b
 824 027f 00       		.byte	0
 825 0280 00       		.byte	0
 826 0281 03       		.uleb128 0x3
 827 0282 D0060000 		.4byte	.LASF44
 828 0286 06       		.byte	0x6
 829 0287 70       		.byte	0x70
 830 0288 6C020000 		.4byte	0x26c
 831 028c 03       		.uleb128 0x3
 832 028d 02020000 		.4byte	.LASF45
 833 0291 08       		.byte	0x8
 834 0292 E5       		.byte	0xe5
 835 0293 F9000000 		.4byte	0xf9
 836 0297 0F       		.uleb128 0xf
 837 0298 2B040000 		.4byte	.LASF46
 838 029c 64       		.byte	0x64
 839 029d 08       		.byte	0x8
 840 029e 0C01     		.2byte	0x10c
 841 02a0 E3030000 		.4byte	0x3e3
 842 02a4 10       		.uleb128 0x10
 843 02a5 73313600 		.ascii	"s16\000"
ARM GAS  /tmp/ccMjFzvY.s 			page 16


 844 02a9 08       		.byte	0x8
 845 02aa 0E01     		.2byte	0x10e
 846 02ac 8C020000 		.4byte	0x28c
 847 02b0 00       		.byte	0
 848 02b1 10       		.uleb128 0x10
 849 02b2 73313700 		.ascii	"s17\000"
 850 02b6 08       		.byte	0x8
 851 02b7 0F01     		.2byte	0x10f
 852 02b9 8C020000 		.4byte	0x28c
 853 02bd 04       		.byte	0x4
 854 02be 10       		.uleb128 0x10
 855 02bf 73313800 		.ascii	"s18\000"
 856 02c3 08       		.byte	0x8
 857 02c4 1001     		.2byte	0x110
 858 02c6 8C020000 		.4byte	0x28c
 859 02ca 08       		.byte	0x8
 860 02cb 10       		.uleb128 0x10
 861 02cc 73313900 		.ascii	"s19\000"
 862 02d0 08       		.byte	0x8
 863 02d1 1101     		.2byte	0x111
 864 02d3 8C020000 		.4byte	0x28c
 865 02d7 0C       		.byte	0xc
 866 02d8 10       		.uleb128 0x10
 867 02d9 73323000 		.ascii	"s20\000"
 868 02dd 08       		.byte	0x8
 869 02de 1201     		.2byte	0x112
 870 02e0 8C020000 		.4byte	0x28c
 871 02e4 10       		.byte	0x10
 872 02e5 10       		.uleb128 0x10
 873 02e6 73323100 		.ascii	"s21\000"
 874 02ea 08       		.byte	0x8
 875 02eb 1301     		.2byte	0x113
 876 02ed 8C020000 		.4byte	0x28c
 877 02f1 14       		.byte	0x14
 878 02f2 10       		.uleb128 0x10
 879 02f3 73323200 		.ascii	"s22\000"
 880 02f7 08       		.byte	0x8
 881 02f8 1401     		.2byte	0x114
 882 02fa 8C020000 		.4byte	0x28c
 883 02fe 18       		.byte	0x18
 884 02ff 10       		.uleb128 0x10
 885 0300 73323300 		.ascii	"s23\000"
 886 0304 08       		.byte	0x8
 887 0305 1501     		.2byte	0x115
 888 0307 8C020000 		.4byte	0x28c
 889 030b 1C       		.byte	0x1c
 890 030c 10       		.uleb128 0x10
 891 030d 73323400 		.ascii	"s24\000"
 892 0311 08       		.byte	0x8
 893 0312 1601     		.2byte	0x116
 894 0314 8C020000 		.4byte	0x28c
 895 0318 20       		.byte	0x20
 896 0319 10       		.uleb128 0x10
 897 031a 73323500 		.ascii	"s25\000"
 898 031e 08       		.byte	0x8
 899 031f 1701     		.2byte	0x117
 900 0321 8C020000 		.4byte	0x28c
ARM GAS  /tmp/ccMjFzvY.s 			page 17


 901 0325 24       		.byte	0x24
 902 0326 10       		.uleb128 0x10
 903 0327 73323600 		.ascii	"s26\000"
 904 032b 08       		.byte	0x8
 905 032c 1801     		.2byte	0x118
 906 032e 8C020000 		.4byte	0x28c
 907 0332 28       		.byte	0x28
 908 0333 10       		.uleb128 0x10
 909 0334 73323700 		.ascii	"s27\000"
 910 0338 08       		.byte	0x8
 911 0339 1901     		.2byte	0x119
 912 033b 8C020000 		.4byte	0x28c
 913 033f 2C       		.byte	0x2c
 914 0340 10       		.uleb128 0x10
 915 0341 73323800 		.ascii	"s28\000"
 916 0345 08       		.byte	0x8
 917 0346 1A01     		.2byte	0x11a
 918 0348 8C020000 		.4byte	0x28c
 919 034c 30       		.byte	0x30
 920 034d 10       		.uleb128 0x10
 921 034e 73323900 		.ascii	"s29\000"
 922 0352 08       		.byte	0x8
 923 0353 1B01     		.2byte	0x11b
 924 0355 8C020000 		.4byte	0x28c
 925 0359 34       		.byte	0x34
 926 035a 10       		.uleb128 0x10
 927 035b 73333000 		.ascii	"s30\000"
 928 035f 08       		.byte	0x8
 929 0360 1C01     		.2byte	0x11c
 930 0362 8C020000 		.4byte	0x28c
 931 0366 38       		.byte	0x38
 932 0367 10       		.uleb128 0x10
 933 0368 73333100 		.ascii	"s31\000"
 934 036c 08       		.byte	0x8
 935 036d 1D01     		.2byte	0x11d
 936 036f 8C020000 		.4byte	0x28c
 937 0373 3C       		.byte	0x3c
 938 0374 10       		.uleb128 0x10
 939 0375 723400   		.ascii	"r4\000"
 940 0378 08       		.byte	0x8
 941 0379 1F01     		.2byte	0x11f
 942 037b 8C020000 		.4byte	0x28c
 943 037f 40       		.byte	0x40
 944 0380 10       		.uleb128 0x10
 945 0381 723500   		.ascii	"r5\000"
 946 0384 08       		.byte	0x8
 947 0385 2001     		.2byte	0x120
 948 0387 8C020000 		.4byte	0x28c
 949 038b 44       		.byte	0x44
 950 038c 10       		.uleb128 0x10
 951 038d 723600   		.ascii	"r6\000"
 952 0390 08       		.byte	0x8
 953 0391 2101     		.2byte	0x121
 954 0393 8C020000 		.4byte	0x28c
 955 0397 48       		.byte	0x48
 956 0398 10       		.uleb128 0x10
 957 0399 723700   		.ascii	"r7\000"
ARM GAS  /tmp/ccMjFzvY.s 			page 18


 958 039c 08       		.byte	0x8
 959 039d 2201     		.2byte	0x122
 960 039f 8C020000 		.4byte	0x28c
 961 03a3 4C       		.byte	0x4c
 962 03a4 10       		.uleb128 0x10
 963 03a5 723800   		.ascii	"r8\000"
 964 03a8 08       		.byte	0x8
 965 03a9 2301     		.2byte	0x123
 966 03ab 8C020000 		.4byte	0x28c
 967 03af 50       		.byte	0x50
 968 03b0 10       		.uleb128 0x10
 969 03b1 723900   		.ascii	"r9\000"
 970 03b4 08       		.byte	0x8
 971 03b5 2401     		.2byte	0x124
 972 03b7 8C020000 		.4byte	0x28c
 973 03bb 54       		.byte	0x54
 974 03bc 10       		.uleb128 0x10
 975 03bd 72313000 		.ascii	"r10\000"
 976 03c1 08       		.byte	0x8
 977 03c2 2501     		.2byte	0x125
 978 03c4 8C020000 		.4byte	0x28c
 979 03c8 58       		.byte	0x58
 980 03c9 10       		.uleb128 0x10
 981 03ca 72313100 		.ascii	"r11\000"
 982 03ce 08       		.byte	0x8
 983 03cf 2601     		.2byte	0x126
 984 03d1 8C020000 		.4byte	0x28c
 985 03d5 5C       		.byte	0x5c
 986 03d6 10       		.uleb128 0x10
 987 03d7 6C7200   		.ascii	"lr\000"
 988 03da 08       		.byte	0x8
 989 03db 2701     		.2byte	0x127
 990 03dd 8C020000 		.4byte	0x28c
 991 03e1 60       		.byte	0x60
 992 03e2 00       		.byte	0
 993 03e3 0F       		.uleb128 0xf
 994 03e4 96020000 		.4byte	.LASF47
 995 03e8 04       		.byte	0x4
 996 03e9 08       		.byte	0x8
 997 03ea 3101     		.2byte	0x131
 998 03ec FE030000 		.4byte	0x3fe
 999 03f0 10       		.uleb128 0x10
 1000 03f1 72313300 		.ascii	"r13\000"
 1001 03f5 08       		.byte	0x8
 1002 03f6 3201     		.2byte	0x132
 1003 03f8 FE030000 		.4byte	0x3fe
 1004 03fc 00       		.byte	0
 1005 03fd 00       		.byte	0
 1006 03fe 09       		.uleb128 0x9
 1007 03ff 04       		.byte	0x4
 1008 0400 97020000 		.4byte	0x297
 1009 0404 0B       		.uleb128 0xb
 1010 0405 88050000 		.4byte	.LASF48
 1011 0409 10       		.byte	0x10
 1012 040a 09       		.byte	0x9
 1013 040b 2C       		.byte	0x2c
 1014 040c 35040000 		.4byte	0x435
ARM GAS  /tmp/ccMjFzvY.s 			page 19


 1015 0410 0C       		.uleb128 0xc
 1016 0411 A6050000 		.4byte	.LASF49
 1017 0415 09       		.byte	0x9
 1018 0416 2D       		.byte	0x2d
 1019 0417 61020000 		.4byte	0x261
 1020 041b 00       		.byte	0
 1021 041c 0C       		.uleb128 0xc
 1022 041d 4D010000 		.4byte	.LASF50
 1023 0421 09       		.byte	0x9
 1024 0422 2F       		.byte	0x2f
 1025 0423 5B020000 		.4byte	0x25b
 1026 0427 08       		.byte	0x8
 1027 0428 0C       		.uleb128 0xc
 1028 0429 4A0C0000 		.4byte	.LASF51
 1029 042d 09       		.byte	0x9
 1030 042e 31       		.byte	0x31
 1031 042f 35040000 		.4byte	0x435
 1032 0433 0C       		.byte	0xc
 1033 0434 00       		.byte	0
 1034 0435 09       		.uleb128 0x9
 1035 0436 04       		.byte	0x4
 1036 0437 04040000 		.4byte	0x404
 1037 043b 03       		.uleb128 0x3
 1038 043c 88050000 		.4byte	.LASF48
 1039 0440 09       		.byte	0x9
 1040 0441 33       		.byte	0x33
 1041 0442 04040000 		.4byte	0x404
 1042 0446 11       		.uleb128 0x11
 1043 0447 04       		.byte	0x4
 1044 0448 07       		.byte	0x7
 1045 0449 96       		.byte	0x96
 1046 044a 7B040000 		.4byte	0x47b
 1047 044e 12       		.uleb128 0x12
 1048 044f BC0B0000 		.4byte	.LASF52
 1049 0453 07       		.byte	0x7
 1050 0454 9D       		.byte	0x9d
 1051 0455 40010000 		.4byte	0x140
 1052 0459 12       		.uleb128 0x12
 1053 045a 55010000 		.4byte	.LASF53
 1054 045e 07       		.byte	0x7
 1055 045f A4       		.byte	0xa4
 1056 0460 40010000 		.4byte	0x140
 1057 0464 12       		.uleb128 0x12
 1058 0465 65030000 		.4byte	.LASF54
 1059 0469 07       		.byte	0x7
 1060 046a AB       		.byte	0xab
 1061 046b F9000000 		.4byte	0xf9
 1062 046f 12       		.uleb128 0x12
 1063 0470 79010000 		.4byte	.LASF55
 1064 0474 07       		.byte	0x7
 1065 0475 B2       		.byte	0xb2
 1066 0476 4B010000 		.4byte	0x14b
 1067 047a 00       		.byte	0
 1068 047b 09       		.uleb128 0x9
 1069 047c 04       		.byte	0x4
 1070 047d 3B040000 		.4byte	0x43b
 1071 0481 09       		.uleb128 0x9
ARM GAS  /tmp/ccMjFzvY.s 			page 20


 1072 0482 04       		.byte	0x4
 1073 0483 97000000 		.4byte	0x97
 1074 0487 13       		.uleb128 0x13
 1075 0488 425700   		.ascii	"BW\000"
 1076 048b 02       		.byte	0x2
 1077 048c 0A       		.byte	0xa
 1078 048d CD       		.byte	0xcd
 1079 048e AB040000 		.4byte	0x4ab
 1080 0492 0D       		.uleb128 0xd
 1081 0493 6D736200 		.ascii	"msb\000"
 1082 0497 0A       		.byte	0xa
 1083 0498 CF       		.byte	0xcf
 1084 0499 97000000 		.4byte	0x97
 1085 049d 00       		.byte	0
 1086 049e 0D       		.uleb128 0xd
 1087 049f 6C736200 		.ascii	"lsb\000"
 1088 04a3 0A       		.byte	0xa
 1089 04a4 D0       		.byte	0xd0
 1090 04a5 97000000 		.4byte	0x97
 1091 04a9 01       		.byte	0x1
 1092 04aa 00       		.byte	0
 1093 04ab 11       		.uleb128 0x11
 1094 04ac 02       		.byte	0x2
 1095 04ad 0A       		.byte	0xa
 1096 04ae CA       		.byte	0xca
 1097 04af C7040000 		.4byte	0x4c7
 1098 04b3 14       		.uleb128 0x14
 1099 04b4 7700     		.ascii	"w\000"
 1100 04b6 0A       		.byte	0xa
 1101 04b7 CC       		.byte	0xcc
 1102 04b8 A2000000 		.4byte	0xa2
 1103 04bc 14       		.uleb128 0x14
 1104 04bd 627700   		.ascii	"bw\000"
 1105 04c0 0A       		.byte	0xa
 1106 04c1 D2       		.byte	0xd2
 1107 04c2 87040000 		.4byte	0x487
 1108 04c6 00       		.byte	0
 1109 04c7 03       		.uleb128 0x3
 1110 04c8 E3070000 		.4byte	.LASF56
 1111 04cc 0A       		.byte	0xa
 1112 04cd D4       		.byte	0xd4
 1113 04ce AB040000 		.4byte	0x4ab
 1114 04d2 0B       		.uleb128 0xb
 1115 04d3 4D040000 		.4byte	.LASF57
 1116 04d7 08       		.byte	0x8
 1117 04d8 0A       		.byte	0xa
 1118 04d9 DB       		.byte	0xdb
 1119 04da 1B050000 		.4byte	0x51b
 1120 04de 0C       		.uleb128 0xc
 1121 04df B6020000 		.4byte	.LASF58
 1122 04e3 0A       		.byte	0xa
 1123 04e4 DD       		.byte	0xdd
 1124 04e5 97000000 		.4byte	0x97
 1125 04e9 00       		.byte	0
 1126 04ea 0C       		.uleb128 0xc
 1127 04eb F6060000 		.4byte	.LASF59
 1128 04ef 0A       		.byte	0xa
ARM GAS  /tmp/ccMjFzvY.s 			page 21


 1129 04f0 DE       		.byte	0xde
 1130 04f1 97000000 		.4byte	0x97
 1131 04f5 01       		.byte	0x1
 1132 04f6 0C       		.uleb128 0xc
 1133 04f7 CC020000 		.4byte	.LASF60
 1134 04fb 0A       		.byte	0xa
 1135 04fc DF       		.byte	0xdf
 1136 04fd C7040000 		.4byte	0x4c7
 1137 0501 02       		.byte	0x2
 1138 0502 0C       		.uleb128 0xc
 1139 0503 B0070000 		.4byte	.LASF61
 1140 0507 0A       		.byte	0xa
 1141 0508 E0       		.byte	0xe0
 1142 0509 C7040000 		.4byte	0x4c7
 1143 050d 04       		.byte	0x4
 1144 050e 0C       		.uleb128 0xc
 1145 050f E6000000 		.4byte	.LASF62
 1146 0513 0A       		.byte	0xa
 1147 0514 E1       		.byte	0xe1
 1148 0515 C7040000 		.4byte	0x4c7
 1149 0519 06       		.byte	0x6
 1150 051a 00       		.byte	0
 1151 051b 15       		.uleb128 0x15
 1152 051c 7A030000 		.4byte	.LASF220
 1153 0520 08       		.byte	0x8
 1154 0521 0A       		.byte	0xa
 1155 0522 D7       		.byte	0xd7
 1156 0523 3B050000 		.4byte	0x53b
 1157 0527 14       		.uleb128 0x14
 1158 0528 643800   		.ascii	"d8\000"
 1159 052b 0A       		.byte	0xa
 1160 052c D9       		.byte	0xd9
 1161 052d CF000000 		.4byte	0xcf
 1162 0531 14       		.uleb128 0x14
 1163 0532 6200     		.ascii	"b\000"
 1164 0534 0A       		.byte	0xa
 1165 0535 E2       		.byte	0xe2
 1166 0536 D2040000 		.4byte	0x4d2
 1167 053a 00       		.byte	0
 1168 053b 03       		.uleb128 0x3
 1169 053c 42050000 		.4byte	.LASF63
 1170 0540 0A       		.byte	0xa
 1171 0541 E4       		.byte	0xe4
 1172 0542 1B050000 		.4byte	0x51b
 1173 0546 0B       		.uleb128 0xb
 1174 0547 2C090000 		.4byte	.LASF64
 1175 054b 12       		.byte	0x12
 1176 054c 0A       		.byte	0xa
 1177 054d ED       		.byte	0xed
 1178 054e FB050000 		.4byte	0x5fb
 1179 0552 0C       		.uleb128 0xc
 1180 0553 80070000 		.4byte	.LASF65
 1181 0557 0A       		.byte	0xa
 1182 0558 EF       		.byte	0xef
 1183 0559 97000000 		.4byte	0x97
 1184 055d 00       		.byte	0
 1185 055e 0C       		.uleb128 0xc
ARM GAS  /tmp/ccMjFzvY.s 			page 22


 1186 055f 78040000 		.4byte	.LASF66
 1187 0563 0A       		.byte	0xa
 1188 0564 F0       		.byte	0xf0
 1189 0565 97000000 		.4byte	0x97
 1190 0569 01       		.byte	0x1
 1191 056a 0C       		.uleb128 0xc
 1192 056b 2B010000 		.4byte	.LASF67
 1193 056f 0A       		.byte	0xa
 1194 0570 F1       		.byte	0xf1
 1195 0571 A2000000 		.4byte	0xa2
 1196 0575 02       		.byte	0x2
 1197 0576 0C       		.uleb128 0xc
 1198 0577 0B090000 		.4byte	.LASF68
 1199 057b 0A       		.byte	0xa
 1200 057c F2       		.byte	0xf2
 1201 057d 97000000 		.4byte	0x97
 1202 0581 04       		.byte	0x4
 1203 0582 0C       		.uleb128 0xc
 1204 0583 B2000000 		.4byte	.LASF69
 1205 0587 0A       		.byte	0xa
 1206 0588 F3       		.byte	0xf3
 1207 0589 97000000 		.4byte	0x97
 1208 058d 05       		.byte	0x5
 1209 058e 0C       		.uleb128 0xc
 1210 058f 260B0000 		.4byte	.LASF70
 1211 0593 0A       		.byte	0xa
 1212 0594 F4       		.byte	0xf4
 1213 0595 97000000 		.4byte	0x97
 1214 0599 06       		.byte	0x6
 1215 059a 0C       		.uleb128 0xc
 1216 059b FF060000 		.4byte	.LASF71
 1217 059f 0A       		.byte	0xa
 1218 05a0 F8       		.byte	0xf8
 1219 05a1 97000000 		.4byte	0x97
 1220 05a5 07       		.byte	0x7
 1221 05a6 0C       		.uleb128 0xc
 1222 05a7 66080000 		.4byte	.LASF72
 1223 05ab 0A       		.byte	0xa
 1224 05ac F9       		.byte	0xf9
 1225 05ad A2000000 		.4byte	0xa2
 1226 05b1 08       		.byte	0x8
 1227 05b2 0C       		.uleb128 0xc
 1228 05b3 3C080000 		.4byte	.LASF73
 1229 05b7 0A       		.byte	0xa
 1230 05b8 FA       		.byte	0xfa
 1231 05b9 A2000000 		.4byte	0xa2
 1232 05bd 0A       		.byte	0xa
 1233 05be 0C       		.uleb128 0xc
 1234 05bf 9E020000 		.4byte	.LASF74
 1235 05c3 0A       		.byte	0xa
 1236 05c4 FB       		.byte	0xfb
 1237 05c5 A2000000 		.4byte	0xa2
 1238 05c9 0C       		.byte	0xc
 1239 05ca 0C       		.uleb128 0xc
 1240 05cb D6050000 		.4byte	.LASF75
 1241 05cf 0A       		.byte	0xa
 1242 05d0 FC       		.byte	0xfc
ARM GAS  /tmp/ccMjFzvY.s 			page 23


 1243 05d1 97000000 		.4byte	0x97
 1244 05d5 0E       		.byte	0xe
 1245 05d6 0C       		.uleb128 0xc
 1246 05d7 00000000 		.4byte	.LASF76
 1247 05db 0A       		.byte	0xa
 1248 05dc FD       		.byte	0xfd
 1249 05dd 97000000 		.4byte	0x97
 1250 05e1 0F       		.byte	0xf
 1251 05e2 0C       		.uleb128 0xc
 1252 05e3 9A040000 		.4byte	.LASF77
 1253 05e7 0A       		.byte	0xa
 1254 05e8 FE       		.byte	0xfe
 1255 05e9 97000000 		.4byte	0x97
 1256 05ed 10       		.byte	0x10
 1257 05ee 0C       		.uleb128 0xc
 1258 05ef 1F080000 		.4byte	.LASF78
 1259 05f3 0A       		.byte	0xa
 1260 05f4 FF       		.byte	0xff
 1261 05f5 97000000 		.4byte	0x97
 1262 05f9 11       		.byte	0x11
 1263 05fa 00       		.byte	0
 1264 05fb 16       		.uleb128 0x16
 1265 05fc C8080000 		.4byte	.LASF79
 1266 0600 0A       		.byte	0xa
 1267 0601 0101     		.2byte	0x101
 1268 0603 46050000 		.4byte	0x546
 1269 0607 0F       		.uleb128 0xf
 1270 0608 0B020000 		.4byte	.LASF80
 1271 060c 08       		.byte	0x8
 1272 060d 0A       		.byte	0xa
 1273 060e 0301     		.2byte	0x103
 1274 0610 63060000 		.4byte	0x663
 1275 0614 17       		.uleb128 0x17
 1276 0615 80070000 		.4byte	.LASF65
 1277 0619 0A       		.byte	0xa
 1278 061a 0501     		.2byte	0x105
 1279 061c 97000000 		.4byte	0x97
 1280 0620 00       		.byte	0
 1281 0621 17       		.uleb128 0x17
 1282 0622 78040000 		.4byte	.LASF66
 1283 0626 0A       		.byte	0xa
 1284 0627 0601     		.2byte	0x106
 1285 0629 97000000 		.4byte	0x97
 1286 062d 01       		.byte	0x1
 1287 062e 17       		.uleb128 0x17
 1288 062f 1B000000 		.4byte	.LASF81
 1289 0633 0A       		.byte	0xa
 1290 0634 0701     		.2byte	0x107
 1291 0636 97000000 		.4byte	0x97
 1292 063a 02       		.byte	0x2
 1293 063b 17       		.uleb128 0x17
 1294 063c 54050000 		.4byte	.LASF82
 1295 0640 0A       		.byte	0xa
 1296 0641 0801     		.2byte	0x108
 1297 0643 97000000 		.4byte	0x97
 1298 0647 03       		.byte	0x3
 1299 0648 17       		.uleb128 0x17
ARM GAS  /tmp/ccMjFzvY.s 			page 24


 1300 0649 BE050000 		.4byte	.LASF83
 1301 064d 0A       		.byte	0xa
 1302 064e 0901     		.2byte	0x109
 1303 0650 A2000000 		.4byte	0xa2
 1304 0654 04       		.byte	0x4
 1305 0655 17       		.uleb128 0x17
 1306 0656 B7090000 		.4byte	.LASF84
 1307 065a 0A       		.byte	0xa
 1308 065b 0A01     		.2byte	0x10a
 1309 065d 97000000 		.4byte	0x97
 1310 0661 06       		.byte	0x6
 1311 0662 00       		.byte	0
 1312 0663 16       		.uleb128 0x16
 1313 0664 A30B0000 		.4byte	.LASF85
 1314 0668 0A       		.byte	0xa
 1315 0669 0C01     		.2byte	0x10c
 1316 066b 07060000 		.4byte	0x607
 1317 066f 0F       		.uleb128 0xf
 1318 0670 6F080000 		.4byte	.LASF86
 1319 0674 3A       		.byte	0x3a
 1320 0675 0A       		.byte	0xa
 1321 0676 0E01     		.2byte	0x10e
 1322 0678 FF060000 		.4byte	0x6ff
 1323 067c 17       		.uleb128 0x17
 1324 067d 80070000 		.4byte	.LASF65
 1325 0681 0A       		.byte	0xa
 1326 0682 1001     		.2byte	0x110
 1327 0684 97000000 		.4byte	0x97
 1328 0688 00       		.byte	0
 1329 0689 17       		.uleb128 0x17
 1330 068a 78040000 		.4byte	.LASF66
 1331 068e 0A       		.byte	0xa
 1332 068f 1101     		.2byte	0x111
 1333 0691 97000000 		.4byte	0x97
 1334 0695 01       		.byte	0x1
 1335 0696 17       		.uleb128 0x17
 1336 0697 3E090000 		.4byte	.LASF87
 1337 069b 0A       		.byte	0xa
 1338 069c 1201     		.2byte	0x112
 1339 069e 97000000 		.4byte	0x97
 1340 06a2 02       		.byte	0x2
 1341 06a3 17       		.uleb128 0x17
 1342 06a4 09000000 		.4byte	.LASF88
 1343 06a8 0A       		.byte	0xa
 1344 06a9 1301     		.2byte	0x113
 1345 06ab 97000000 		.4byte	0x97
 1346 06af 03       		.byte	0x3
 1347 06b0 17       		.uleb128 0x17
 1348 06b1 34050000 		.4byte	.LASF89
 1349 06b5 0A       		.byte	0xa
 1350 06b6 1401     		.2byte	0x114
 1351 06b8 97000000 		.4byte	0x97
 1352 06bc 04       		.byte	0x4
 1353 06bd 17       		.uleb128 0x17
 1354 06be 8C060000 		.4byte	.LASF90
 1355 06c2 0A       		.byte	0xa
 1356 06c3 1501     		.2byte	0x115
ARM GAS  /tmp/ccMjFzvY.s 			page 25


 1357 06c5 97000000 		.4byte	0x97
 1358 06c9 05       		.byte	0x5
 1359 06ca 17       		.uleb128 0x17
 1360 06cb DC080000 		.4byte	.LASF91
 1361 06cf 0A       		.byte	0xa
 1362 06d0 1601     		.2byte	0x116
 1363 06d2 97000000 		.4byte	0x97
 1364 06d6 06       		.byte	0x6
 1365 06d7 17       		.uleb128 0x17
 1366 06d8 32020000 		.4byte	.LASF92
 1367 06dc 0A       		.byte	0xa
 1368 06dd 1701     		.2byte	0x117
 1369 06df 97000000 		.4byte	0x97
 1370 06e3 07       		.byte	0x7
 1371 06e4 17       		.uleb128 0x17
 1372 06e5 A9080000 		.4byte	.LASF93
 1373 06e9 0A       		.byte	0xa
 1374 06ea 1801     		.2byte	0x118
 1375 06ec 97000000 		.4byte	0x97
 1376 06f0 08       		.byte	0x8
 1377 06f1 17       		.uleb128 0x17
 1378 06f2 C8060000 		.4byte	.LASF94
 1379 06f6 0A       		.byte	0xa
 1380 06f7 1901     		.2byte	0x119
 1381 06f9 FF060000 		.4byte	0x6ff
 1382 06fd 0A       		.byte	0xa
 1383 06fe 00       		.byte	0
 1384 06ff 06       		.uleb128 0x6
 1385 0700 63060000 		.4byte	0x663
 1386 0704 0F070000 		.4byte	0x70f
 1387 0708 07       		.uleb128 0x7
 1388 0709 C3000000 		.4byte	0xc3
 1389 070d 05       		.byte	0x5
 1390 070e 00       		.byte	0
 1391 070f 16       		.uleb128 0x16
 1392 0710 1A050000 		.4byte	.LASF95
 1393 0714 0A       		.byte	0xa
 1394 0715 1B01     		.2byte	0x11b
 1395 0717 6F060000 		.4byte	0x66f
 1396 071b 18       		.uleb128 0x18
 1397 071c 88010000 		.4byte	.LASF96
 1398 0720 6601     		.2byte	0x166
 1399 0722 0A       		.byte	0xa
 1400 0723 1E01     		.2byte	0x11e
 1401 0725 9F070000 		.4byte	0x79f
 1402 0729 17       		.uleb128 0x17
 1403 072a 80070000 		.4byte	.LASF65
 1404 072e 0A       		.byte	0xa
 1405 072f 2001     		.2byte	0x120
 1406 0731 97000000 		.4byte	0x97
 1407 0735 00       		.byte	0
 1408 0736 17       		.uleb128 0x17
 1409 0737 78040000 		.4byte	.LASF66
 1410 073b 0A       		.byte	0xa
 1411 073c 2101     		.2byte	0x121
 1412 073e 97000000 		.4byte	0x97
 1413 0742 01       		.byte	0x1
ARM GAS  /tmp/ccMjFzvY.s 			page 26


 1414 0743 17       		.uleb128 0x17
 1415 0744 45070000 		.4byte	.LASF97
 1416 0748 0A       		.byte	0xa
 1417 0749 2201     		.2byte	0x122
 1418 074b A2000000 		.4byte	0xa2
 1419 074f 02       		.byte	0x2
 1420 0750 17       		.uleb128 0x17
 1421 0751 7D060000 		.4byte	.LASF98
 1422 0755 0A       		.byte	0xa
 1423 0756 2301     		.2byte	0x123
 1424 0758 97000000 		.4byte	0x97
 1425 075c 04       		.byte	0x4
 1426 075d 17       		.uleb128 0x17
 1427 075e 9C060000 		.4byte	.LASF99
 1428 0762 0A       		.byte	0xa
 1429 0763 2401     		.2byte	0x124
 1430 0765 97000000 		.4byte	0x97
 1431 0769 05       		.byte	0x5
 1432 076a 17       		.uleb128 0x17
 1433 076b E7060000 		.4byte	.LASF100
 1434 076f 0A       		.byte	0xa
 1435 0770 2501     		.2byte	0x125
 1436 0772 97000000 		.4byte	0x97
 1437 0776 06       		.byte	0x6
 1438 0777 17       		.uleb128 0x17
 1439 0778 54050000 		.4byte	.LASF82
 1440 077c 0A       		.byte	0xa
 1441 077d 2601     		.2byte	0x126
 1442 077f 97000000 		.4byte	0x97
 1443 0783 07       		.byte	0x7
 1444 0784 17       		.uleb128 0x17
 1445 0785 990B0000 		.4byte	.LASF101
 1446 0789 0A       		.byte	0xa
 1447 078a 2701     		.2byte	0x127
 1448 078c 97000000 		.4byte	0x97
 1449 0790 08       		.byte	0x8
 1450 0791 17       		.uleb128 0x17
 1451 0792 B5050000 		.4byte	.LASF102
 1452 0796 0A       		.byte	0xa
 1453 0797 2801     		.2byte	0x128
 1454 0799 9F070000 		.4byte	0x79f
 1455 079d 0A       		.byte	0xa
 1456 079e 00       		.byte	0
 1457 079f 06       		.uleb128 0x6
 1458 07a0 0F070000 		.4byte	0x70f
 1459 07a4 AF070000 		.4byte	0x7af
 1460 07a8 07       		.uleb128 0x7
 1461 07a9 C3000000 		.4byte	0xc3
 1462 07ad 05       		.byte	0x5
 1463 07ae 00       		.byte	0
 1464 07af 16       		.uleb128 0x16
 1465 07b0 6A0B0000 		.4byte	.LASF103
 1466 07b4 0A       		.byte	0xa
 1467 07b5 2A01     		.2byte	0x12a
 1468 07b7 1B070000 		.4byte	0x71b
 1469 07bb 19       		.uleb128 0x19
 1470 07bc 01       		.byte	0x1
ARM GAS  /tmp/ccMjFzvY.s 			page 27


 1471 07bd 0A       		.byte	0xa
 1472 07be 2F01     		.2byte	0x12f
 1473 07c0 E9070000 		.4byte	0x7e9
 1474 07c4 1A       		.uleb128 0x1a
 1475 07c5 EE000000 		.4byte	.LASF104
 1476 07c9 00       		.sleb128 0
 1477 07ca 1A       		.uleb128 0x1a
 1478 07cb F6000000 		.4byte	.LASF105
 1479 07cf 01       		.sleb128 1
 1480 07d0 1A       		.uleb128 0x1a
 1481 07d1 32080000 		.4byte	.LASF106
 1482 07d5 02       		.sleb128 2
 1483 07d6 1A       		.uleb128 0x1a
 1484 07d7 84080000 		.4byte	.LASF107
 1485 07db 03       		.sleb128 3
 1486 07dc 1A       		.uleb128 0x1a
 1487 07dd ED030000 		.4byte	.LASF108
 1488 07e1 04       		.sleb128 4
 1489 07e2 1A       		.uleb128 0x1a
 1490 07e3 0D030000 		.4byte	.LASF109
 1491 07e7 05       		.sleb128 5
 1492 07e8 00       		.byte	0
 1493 07e9 16       		.uleb128 0x16
 1494 07ea 04040000 		.4byte	.LASF110
 1495 07ee 0A       		.byte	0xa
 1496 07ef 3601     		.2byte	0x136
 1497 07f1 BB070000 		.4byte	0x7bb
 1498 07f5 19       		.uleb128 0x19
 1499 07f6 01       		.byte	0x1
 1500 07f7 0A       		.byte	0xa
 1501 07f8 3E01     		.2byte	0x13e
 1502 07fa 11080000 		.4byte	0x811
 1503 07fe 1A       		.uleb128 0x1a
 1504 07ff 13070000 		.4byte	.LASF111
 1505 0803 00       		.sleb128 0
 1506 0804 1A       		.uleb128 0x1a
 1507 0805 9B030000 		.4byte	.LASF112
 1508 0809 01       		.sleb128 1
 1509 080a 1A       		.uleb128 0x1a
 1510 080b DC0B0000 		.4byte	.LASF113
 1511 080f 02       		.sleb128 2
 1512 0810 00       		.byte	0
 1513 0811 19       		.uleb128 0x19
 1514 0812 01       		.byte	0x1
 1515 0813 0A       		.byte	0xa
 1516 0814 4701     		.2byte	0x147
 1517 0816 69080000 		.4byte	0x869
 1518 081a 1A       		.uleb128 0x1a
 1519 081b DC000000 		.4byte	.LASF114
 1520 081f 00       		.sleb128 0
 1521 0820 1A       		.uleb128 0x1a
 1522 0821 23070000 		.4byte	.LASF115
 1523 0825 01       		.sleb128 1
 1524 0826 1A       		.uleb128 0x1a
 1525 0827 CA000000 		.4byte	.LASF116
 1526 082b 02       		.sleb128 2
 1527 082c 1A       		.uleb128 0x1a
ARM GAS  /tmp/ccMjFzvY.s 			page 28


 1528 082d 15010000 		.4byte	.LASF117
 1529 0831 03       		.sleb128 3
 1530 0832 1A       		.uleb128 0x1a
 1531 0833 3E060000 		.4byte	.LASF118
 1532 0837 04       		.sleb128 4
 1533 0838 1A       		.uleb128 0x1a
 1534 0839 500B0000 		.4byte	.LASF119
 1535 083d 05       		.sleb128 5
 1536 083e 1A       		.uleb128 0x1a
 1537 083f 1F020000 		.4byte	.LASF120
 1538 0843 06       		.sleb128 6
 1539 0844 1A       		.uleb128 0x1a
 1540 0845 DC060000 		.4byte	.LASF121
 1541 0849 07       		.sleb128 7
 1542 084a 1A       		.uleb128 0x1a
 1543 084b 73020000 		.4byte	.LASF122
 1544 084f 08       		.sleb128 8
 1545 0850 1A       		.uleb128 0x1a
 1546 0851 9F070000 		.4byte	.LASF123
 1547 0855 09       		.sleb128 9
 1548 0856 1A       		.uleb128 0x1a
 1549 0857 0F050000 		.4byte	.LASF124
 1550 085b 0A       		.sleb128 10
 1551 085c 1A       		.uleb128 0x1a
 1552 085d 05060000 		.4byte	.LASF125
 1553 0861 0B       		.sleb128 11
 1554 0862 1A       		.uleb128 0x1a
 1555 0863 5E010000 		.4byte	.LASF126
 1556 0867 0C       		.sleb128 12
 1557 0868 00       		.byte	0
 1558 0869 16       		.uleb128 0x16
 1559 086a 6B050000 		.4byte	.LASF127
 1560 086e 0A       		.byte	0xa
 1561 086f 5501     		.2byte	0x155
 1562 0871 11080000 		.4byte	0x811
 1563 0875 19       		.uleb128 0x19
 1564 0876 01       		.byte	0x1
 1565 0877 0A       		.byte	0xa
 1566 0878 5901     		.2byte	0x159
 1567 087a AF080000 		.4byte	0x8af
 1568 087e 1A       		.uleb128 0x1a
 1569 087f 460B0000 		.4byte	.LASF128
 1570 0883 00       		.sleb128 0
 1571 0884 1A       		.uleb128 0x1a
 1572 0885 040A0000 		.4byte	.LASF129
 1573 0889 01       		.sleb128 1
 1574 088a 1A       		.uleb128 0x1a
 1575 088b B7070000 		.4byte	.LASF130
 1576 088f 02       		.sleb128 2
 1577 0890 1A       		.uleb128 0x1a
 1578 0891 98000000 		.4byte	.LASF131
 1579 0895 03       		.sleb128 3
 1580 0896 1A       		.uleb128 0x1a
 1581 0897 F8040000 		.4byte	.LASF132
 1582 089b 04       		.sleb128 4
 1583 089c 1A       		.uleb128 0x1a
 1584 089d A8040000 		.4byte	.LASF133
ARM GAS  /tmp/ccMjFzvY.s 			page 29


 1585 08a1 05       		.sleb128 5
 1586 08a2 1A       		.uleb128 0x1a
 1587 08a3 040C0000 		.4byte	.LASF134
 1588 08a7 06       		.sleb128 6
 1589 08a8 1A       		.uleb128 0x1a
 1590 08a9 EE020000 		.4byte	.LASF135
 1591 08ad 07       		.sleb128 7
 1592 08ae 00       		.byte	0
 1593 08af 16       		.uleb128 0x16
 1594 08b0 DD010000 		.4byte	.LASF136
 1595 08b4 0A       		.byte	0xa
 1596 08b5 6201     		.2byte	0x162
 1597 08b7 75080000 		.4byte	0x875
 1598 08bb 19       		.uleb128 0x19
 1599 08bc 01       		.byte	0x1
 1600 08bd 0A       		.byte	0xa
 1601 08be 6601     		.2byte	0x166
 1602 08c0 19090000 		.4byte	0x919
 1603 08c4 1A       		.uleb128 0x1a
 1604 08c5 9C050000 		.4byte	.LASF137
 1605 08c9 00       		.sleb128 0
 1606 08ca 1A       		.uleb128 0x1a
 1607 08cb 3D030000 		.4byte	.LASF138
 1608 08cf 01       		.sleb128 1
 1609 08d0 1A       		.uleb128 0x1a
 1610 08d1 C1090000 		.4byte	.LASF139
 1611 08d5 02       		.sleb128 2
 1612 08d6 1A       		.uleb128 0x1a
 1613 08d7 B3030000 		.4byte	.LASF140
 1614 08db 03       		.sleb128 3
 1615 08dc 1A       		.uleb128 0x1a
 1616 08dd 5E090000 		.4byte	.LASF141
 1617 08e1 04       		.sleb128 4
 1618 08e2 1A       		.uleb128 0x1a
 1619 08e3 8B0B0000 		.4byte	.LASF142
 1620 08e7 05       		.sleb128 5
 1621 08e8 1A       		.uleb128 0x1a
 1622 08e9 DA030000 		.4byte	.LASF143
 1623 08ed 06       		.sleb128 6
 1624 08ee 1A       		.uleb128 0x1a
 1625 08ef 00010000 		.4byte	.LASF144
 1626 08f3 07       		.sleb128 7
 1627 08f4 1A       		.uleb128 0x1a
 1628 08f5 510C0000 		.4byte	.LASF145
 1629 08f9 08       		.sleb128 8
 1630 08fa 1A       		.uleb128 0x1a
 1631 08fb 63020000 		.4byte	.LASF146
 1632 08ff 09       		.sleb128 9
 1633 0900 1A       		.uleb128 0x1a
 1634 0901 1C060000 		.4byte	.LASF147
 1635 0905 0A       		.sleb128 10
 1636 0906 1A       		.uleb128 0x1a
 1637 0907 5A030000 		.4byte	.LASF148
 1638 090b 0B       		.sleb128 11
 1639 090c 1A       		.uleb128 0x1a
 1640 090d FE080000 		.4byte	.LASF149
 1641 0911 0C       		.sleb128 12
ARM GAS  /tmp/ccMjFzvY.s 			page 30


 1642 0912 1A       		.uleb128 0x1a
 1643 0913 17040000 		.4byte	.LASF150
 1644 0917 0D       		.sleb128 13
 1645 0918 00       		.byte	0
 1646 0919 16       		.uleb128 0x16
 1647 091a 97080000 		.4byte	.LASF151
 1648 091e 0A       		.byte	0xa
 1649 091f 7501     		.2byte	0x175
 1650 0921 BB080000 		.4byte	0x8bb
 1651 0925 19       		.uleb128 0x19
 1652 0926 01       		.byte	0x1
 1653 0927 0A       		.byte	0xa
 1654 0928 7A01     		.2byte	0x17a
 1655 092a 41090000 		.4byte	0x941
 1656 092e 1A       		.uleb128 0x1a
 1657 092f 5D040000 		.4byte	.LASF152
 1658 0933 00       		.sleb128 0
 1659 0934 1A       		.uleb128 0x1a
 1660 0935 06080000 		.4byte	.LASF153
 1661 0939 01       		.sleb128 1
 1662 093a 1A       		.uleb128 0x1a
 1663 093b B4080000 		.4byte	.LASF154
 1664 093f 02       		.sleb128 2
 1665 0940 00       		.byte	0
 1666 0941 16       		.uleb128 0x16
 1667 0942 32010000 		.4byte	.LASF155
 1668 0946 0A       		.byte	0xa
 1669 0947 7E01     		.2byte	0x17e
 1670 0949 25090000 		.4byte	0x925
 1671 094d 1B       		.uleb128 0x1b
 1672 094e 18       		.byte	0x18
 1673 094f 0A       		.byte	0xa
 1674 0950 9401     		.2byte	0x194
 1675 0952 CC090000 		.4byte	0x9cc
 1676 0956 17       		.uleb128 0x17
 1677 0957 AB030000 		.4byte	.LASF156
 1678 095b 0A       		.byte	0xa
 1679 095c 9601     		.2byte	0x196
 1680 095e 97000000 		.4byte	0x97
 1681 0962 00       		.byte	0
 1682 0963 17       		.uleb128 0x17
 1683 0964 CD050000 		.4byte	.LASF157
 1684 0968 0A       		.byte	0xa
 1685 0969 9701     		.2byte	0x197
 1686 096b 97000000 		.4byte	0x97
 1687 096f 01       		.byte	0x1
 1688 0970 17       		.uleb128 0x17
 1689 0971 43010000 		.4byte	.LASF158
 1690 0975 0A       		.byte	0xa
 1691 0976 9801     		.2byte	0x198
 1692 0978 97000000 		.4byte	0x97
 1693 097c 02       		.byte	0x2
 1694 097d 17       		.uleb128 0x17
 1695 097e F6050000 		.4byte	.LASF159
 1696 0982 0A       		.byte	0xa
 1697 0983 9901     		.2byte	0x199
 1698 0985 81040000 		.4byte	0x481
ARM GAS  /tmp/ccMjFzvY.s 			page 31


 1699 0989 04       		.byte	0x4
 1700 098a 17       		.uleb128 0x17
 1701 098b CD070000 		.4byte	.LASF160
 1702 098f 0A       		.byte	0xa
 1703 0990 9A01     		.2byte	0x19a
 1704 0992 A2000000 		.4byte	0xa2
 1705 0996 08       		.byte	0x8
 1706 0997 17       		.uleb128 0x17
 1707 0998 6C030000 		.4byte	.LASF161
 1708 099c 0A       		.byte	0xa
 1709 099d 9B01     		.2byte	0x19b
 1710 099f A2000000 		.4byte	0xa2
 1711 09a3 0A       		.byte	0xa
 1712 09a4 17       		.uleb128 0x17
 1713 09a5 25040000 		.4byte	.LASF162
 1714 09a9 0A       		.byte	0xa
 1715 09aa 9C01     		.2byte	0x19c
 1716 09ac 3B050000 		.4byte	0x53b
 1717 09b0 0C       		.byte	0xc
 1718 09b1 17       		.uleb128 0x17
 1719 09b2 0F010000 		.4byte	.LASF163
 1720 09b6 0A       		.byte	0xa
 1721 09b7 9D01     		.2byte	0x19d
 1722 09b9 19090000 		.4byte	0x919
 1723 09bd 14       		.byte	0x14
 1724 09be 17       		.uleb128 0x17
 1725 09bf 5B080000 		.4byte	.LASF164
 1726 09c3 0A       		.byte	0xa
 1727 09c4 9E01     		.2byte	0x19e
 1728 09c6 97000000 		.4byte	0x97
 1729 09ca 15       		.byte	0x15
 1730 09cb 00       		.byte	0
 1731 09cc 16       		.uleb128 0x16
 1732 09cd B7060000 		.4byte	.LASF165
 1733 09d1 0A       		.byte	0xa
 1734 09d2 A001     		.2byte	0x1a0
 1735 09d4 4D090000 		.4byte	0x94d
 1736 09d8 1C       		.uleb128 0x1c
 1737 09d9 7C05     		.2byte	0x57c
 1738 09db 0A       		.byte	0xa
 1739 09dc A301     		.2byte	0x1a3
 1740 09de 520A0000 		.4byte	0xa52
 1741 09e2 17       		.uleb128 0x17
 1742 09e3 F8090000 		.4byte	.LASF166
 1743 09e7 0A       		.byte	0xa
 1744 09e8 A601     		.2byte	0x1a6
 1745 09ea 520A0000 		.4byte	0xa52
 1746 09ee 00       		.byte	0
 1747 09ef 1D       		.uleb128 0x1d
 1748 09f0 4F090000 		.4byte	.LASF167
 1749 09f4 0A       		.byte	0xa
 1750 09f5 A801     		.2byte	0x1a8
 1751 09f7 520A0000 		.4byte	0xa52
 1752 09fb 0002     		.2byte	0x200
 1753 09fd 1D       		.uleb128 0x1d
 1754 09fe C1040000 		.4byte	.LASF168
 1755 0a02 0A       		.byte	0xa
ARM GAS  /tmp/ccMjFzvY.s 			page 32


 1756 0a03 A901     		.2byte	0x1a9
 1757 0a05 97000000 		.4byte	0x97
 1758 0a09 0004     		.2byte	0x400
 1759 0a0b 1D       		.uleb128 0x1d
 1760 0a0c 32040000 		.4byte	.LASF169
 1761 0a10 0A       		.byte	0xa
 1762 0a11 AA01     		.2byte	0x1aa
 1763 0a13 97000000 		.4byte	0x97
 1764 0a17 0104     		.2byte	0x401
 1765 0a19 1D       		.uleb128 0x1d
 1766 0a1a 78000000 		.4byte	.LASF170
 1767 0a1e 0A       		.byte	0xa
 1768 0a1f AB01     		.2byte	0x1ab
 1769 0a21 DF000000 		.4byte	0xdf
 1770 0a25 0204     		.2byte	0x402
 1771 0a27 1D       		.uleb128 0x1d
 1772 0a28 140B0000 		.4byte	.LASF171
 1773 0a2c 0A       		.byte	0xa
 1774 0a2d AC01     		.2byte	0x1ac
 1775 0a2f 97000000 		.4byte	0x97
 1776 0a33 0304     		.2byte	0x403
 1777 0a35 1D       		.uleb128 0x1d
 1778 0a36 C4020000 		.4byte	.LASF172
 1779 0a3a 0A       		.byte	0xa
 1780 0a3b AD01     		.2byte	0x1ad
 1781 0a3d FB050000 		.4byte	0x5fb
 1782 0a41 0404     		.2byte	0x404
 1783 0a43 1D       		.uleb128 0x1d
 1784 0a44 80010000 		.4byte	.LASF173
 1785 0a48 0A       		.byte	0xa
 1786 0a49 AE01     		.2byte	0x1ae
 1787 0a4b AF070000 		.4byte	0x7af
 1788 0a4f 1604     		.2byte	0x416
 1789 0a51 00       		.byte	0
 1790 0a52 06       		.uleb128 0x6
 1791 0a53 97000000 		.4byte	0x97
 1792 0a57 630A0000 		.4byte	0xa63
 1793 0a5b 1E       		.uleb128 0x1e
 1794 0a5c C3000000 		.4byte	0xc3
 1795 0a60 FF01     		.2byte	0x1ff
 1796 0a62 00       		.byte	0
 1797 0a63 16       		.uleb128 0x16
 1798 0a64 6A060000 		.4byte	.LASF174
 1799 0a68 0A       		.byte	0xa
 1800 0a69 B001     		.2byte	0x1b0
 1801 0a6b D8090000 		.4byte	0x9d8
 1802 0a6f 1B       		.uleb128 0x1b
 1803 0a70 20       		.byte	0x20
 1804 0a71 0A       		.byte	0xa
 1805 0a72 B501     		.2byte	0x1b5
 1806 0a74 E10A0000 		.4byte	0xae1
 1807 0a78 17       		.uleb128 0x17
 1808 0a79 40070000 		.4byte	.LASF175
 1809 0a7d 0A       		.byte	0xa
 1810 0a7e B701     		.2byte	0x1b7
 1811 0a80 02010000 		.4byte	0x102
 1812 0a84 00       		.byte	0
ARM GAS  /tmp/ccMjFzvY.s 			page 33


 1813 0a85 17       		.uleb128 0x17
 1814 0a86 43040000 		.4byte	.LASF176
 1815 0a8a 0A       		.byte	0xa
 1816 0a8b B801     		.2byte	0x1b8
 1817 0a8d 97000000 		.4byte	0x97
 1818 0a91 04       		.byte	0x4
 1819 0a92 17       		.uleb128 0x17
 1820 0a93 0E070000 		.4byte	.LASF177
 1821 0a97 0A       		.byte	0xa
 1822 0a98 B901     		.2byte	0x1b9
 1823 0a9a D10B0000 		.4byte	0xbd1
 1824 0a9e 08       		.byte	0x8
 1825 0a9f 17       		.uleb128 0x17
 1826 0aa0 3F0B0000 		.4byte	.LASF178
 1827 0aa4 0A       		.byte	0xa
 1828 0aa5 BA01     		.2byte	0x1ba
 1829 0aa7 D10B0000 		.4byte	0xbd1
 1830 0aab 0C       		.byte	0xc
 1831 0aac 17       		.uleb128 0x17
 1832 0aad 360B0000 		.4byte	.LASF179
 1833 0ab1 0A       		.byte	0xa
 1834 0ab2 BB01     		.2byte	0x1bb
 1835 0ab4 D10B0000 		.4byte	0xbd1
 1836 0ab8 10       		.byte	0x10
 1837 0ab9 17       		.uleb128 0x17
 1838 0aba E5090000 		.4byte	.LASF180
 1839 0abe 0A       		.byte	0xa
 1840 0abf BC01     		.2byte	0x1bc
 1841 0ac1 D10B0000 		.4byte	0xbd1
 1842 0ac5 14       		.byte	0x14
 1843 0ac6 17       		.uleb128 0x17
 1844 0ac7 BD080000 		.4byte	.LASF181
 1845 0acb 0A       		.byte	0xa
 1846 0acc BD01     		.2byte	0x1bd
 1847 0ace D10B0000 		.4byte	0xbd1
 1848 0ad2 18       		.byte	0x18
 1849 0ad3 17       		.uleb128 0x17
 1850 0ad4 310C0000 		.4byte	.LASF182
 1851 0ad8 0A       		.byte	0xa
 1852 0ad9 BE01     		.2byte	0x1be
 1853 0adb F9000000 		.4byte	0xf9
 1854 0adf 1C       		.byte	0x1c
 1855 0ae0 00       		.byte	0
 1856 0ae1 1F       		.uleb128 0x1f
 1857 0ae2 E9070000 		.4byte	0x7e9
 1858 0ae6 F00A0000 		.4byte	0xaf0
 1859 0aea 20       		.uleb128 0x20
 1860 0aeb F00A0000 		.4byte	0xaf0
 1861 0aef 00       		.byte	0
 1862 0af0 09       		.uleb128 0x9
 1863 0af1 04       		.byte	0x4
 1864 0af2 F60A0000 		.4byte	0xaf6
 1865 0af6 18       		.uleb128 0x18
 1866 0af7 6C070000 		.4byte	.LASF183
 1867 0afb 0006     		.2byte	0x600
 1868 0afd 0A       		.byte	0xa
 1869 0afe C201     		.2byte	0x1c2
ARM GAS  /tmp/ccMjFzvY.s 			page 34


 1870 0b00 D10B0000 		.4byte	0xbd1
 1871 0b04 17       		.uleb128 0x17
 1872 0b05 B0060000 		.4byte	.LASF184
 1873 0b09 0A       		.byte	0xa
 1874 0b0a C401     		.2byte	0x1c4
 1875 0b0c E30B0000 		.4byte	0xbe3
 1876 0b10 00       		.byte	0
 1877 0b11 17       		.uleb128 0x17
 1878 0b12 61050000 		.4byte	.LASF185
 1879 0b16 0A       		.byte	0xa
 1880 0b17 C501     		.2byte	0x1c5
 1881 0b19 AF080000 		.4byte	0x8af
 1882 0b1d 01       		.byte	0x1
 1883 0b1e 17       		.uleb128 0x17
 1884 0b1f 8E030000 		.4byte	.LASF186
 1885 0b23 0A       		.byte	0xa
 1886 0b24 C601     		.2byte	0x1c6
 1887 0b26 41090000 		.4byte	0x941
 1888 0b2a 02       		.byte	0x2
 1889 0b2b 17       		.uleb128 0x17
 1890 0b2c 72030000 		.4byte	.LASF187
 1891 0b30 0A       		.byte	0xa
 1892 0b31 C701     		.2byte	0x1c7
 1893 0b33 CC090000 		.4byte	0x9cc
 1894 0b37 04       		.byte	0x4
 1895 0b38 17       		.uleb128 0x17
 1896 0b39 F7080000 		.4byte	.LASF188
 1897 0b3d 0A       		.byte	0xa
 1898 0b3e C801     		.2byte	0x1c8
 1899 0b40 630A0000 		.4byte	0xa63
 1900 0b44 1C       		.byte	0x1c
 1901 0b45 1D       		.uleb128 0x1d
 1902 0b46 AE050000 		.4byte	.LASF189
 1903 0b4a 0A       		.byte	0xa
 1904 0b4b C901     		.2byte	0x1c9
 1905 0b4d E80B0000 		.4byte	0xbe8
 1906 0b51 9805     		.2byte	0x598
 1907 0b53 1D       		.uleb128 0x1d
 1908 0b54 1F090000 		.4byte	.LASF190
 1909 0b58 0A       		.byte	0xa
 1910 0b59 CA01     		.2byte	0x1ca
 1911 0b5b F80B0000 		.4byte	0xbf8
 1912 0b5f A405     		.2byte	0x5a4
 1913 0b61 1D       		.uleb128 0x1d
 1914 0b62 370C0000 		.4byte	.LASF191
 1915 0b66 0A       		.byte	0xa
 1916 0b67 CB01     		.2byte	0x1cb
 1917 0b69 B8000000 		.4byte	0xb8
 1918 0b6d A805     		.2byte	0x5a8
 1919 0b6f 1D       		.uleb128 0x1d
 1920 0b70 D7010000 		.4byte	.LASF192
 1921 0b74 0A       		.byte	0xa
 1922 0b75 CC01     		.2byte	0x1cc
 1923 0b77 E4000000 		.4byte	0xe4
 1924 0b7b AC05     		.2byte	0x5ac
 1925 0b7d 1D       		.uleb128 0x1d
 1926 0b7e D60B0000 		.4byte	.LASF193
ARM GAS  /tmp/ccMjFzvY.s 			page 35


 1927 0b82 0A       		.byte	0xa
 1928 0b83 CD01     		.2byte	0x1cd
 1929 0b85 CA000000 		.4byte	0xca
 1930 0b89 E805     		.2byte	0x5e8
 1931 0b8b 21       		.uleb128 0x21
 1932 0b8c 696400   		.ascii	"id\000"
 1933 0b8f 0A       		.byte	0xa
 1934 0b90 CE01     		.2byte	0x1ce
 1935 0b92 97000000 		.4byte	0x97
 1936 0b96 EC05     		.2byte	0x5ec
 1937 0b98 1D       		.uleb128 0x1d
 1938 0b99 310C0000 		.4byte	.LASF182
 1939 0b9d 0A       		.byte	0xa
 1940 0b9e CF01     		.2byte	0x1cf
 1941 0ba0 F9000000 		.4byte	0xf9
 1942 0ba4 F005     		.2byte	0x5f0
 1943 0ba6 1D       		.uleb128 0x1d
 1944 0ba7 DD070000 		.4byte	.LASF194
 1945 0bab 0A       		.byte	0xa
 1946 0bac D001     		.2byte	0x1d0
 1947 0bae 0E0C0000 		.4byte	0xc0e
 1948 0bb2 F405     		.2byte	0x5f4
 1949 0bb4 1D       		.uleb128 0x1d
 1950 0bb5 63070000 		.4byte	.LASF195
 1951 0bb9 0A       		.byte	0xa
 1952 0bba D301     		.2byte	0x1d3
 1953 0bbc 5B020000 		.4byte	0x25b
 1954 0bc0 F805     		.2byte	0x5f8
 1955 0bc2 1D       		.uleb128 0x1d
 1956 0bc3 18090000 		.4byte	.LASF196
 1957 0bc7 0A       		.byte	0xa
 1958 0bc8 D401     		.2byte	0x1d4
 1959 0bca 5B020000 		.4byte	0x25b
 1960 0bce FC05     		.2byte	0x5fc
 1961 0bd0 00       		.byte	0
 1962 0bd1 09       		.uleb128 0x9
 1963 0bd2 04       		.byte	0x4
 1964 0bd3 E10A0000 		.4byte	0xae1
 1965 0bd7 16       		.uleb128 0x16
 1966 0bd8 F4070000 		.4byte	.LASF197
 1967 0bdc 0A       		.byte	0xa
 1968 0bdd BF01     		.2byte	0x1bf
 1969 0bdf 6F0A0000 		.4byte	0xa6f
 1970 0be3 05       		.uleb128 0x5
 1971 0be4 69080000 		.4byte	0x869
 1972 0be8 06       		.uleb128 0x6
 1973 0be9 F80B0000 		.4byte	0xbf8
 1974 0bed F80B0000 		.4byte	0xbf8
 1975 0bf1 07       		.uleb128 0x7
 1976 0bf2 C3000000 		.4byte	0xc3
 1977 0bf6 02       		.byte	0x2
 1978 0bf7 00       		.byte	0
 1979 0bf8 09       		.uleb128 0x9
 1980 0bf9 04       		.byte	0x4
 1981 0bfa D70B0000 		.4byte	0xbd7
 1982 0bfe 22       		.uleb128 0x22
 1983 0bff 0E0C0000 		.4byte	0xc0e
ARM GAS  /tmp/ccMjFzvY.s 			page 36


 1984 0c03 20       		.uleb128 0x20
 1985 0c04 F00A0000 		.4byte	0xaf0
 1986 0c08 20       		.uleb128 0x20
 1987 0c09 97000000 		.4byte	0x97
 1988 0c0d 00       		.byte	0
 1989 0c0e 09       		.uleb128 0x9
 1990 0c0f 04       		.byte	0x4
 1991 0c10 FE0B0000 		.4byte	0xbfe
 1992 0c14 16       		.uleb128 0x16
 1993 0c15 57060000 		.4byte	.LASF198
 1994 0c19 0A       		.byte	0xa
 1995 0c1a D701     		.2byte	0x1d7
 1996 0c1c F60A0000 		.4byte	0xaf6
 1997 0c20 23       		.uleb128 0x23
 1998 0c21 60000000 		.4byte	.LASF221
 1999 0c25 02       		.byte	0x2
 2000 0c26 F1       		.byte	0xf1
 2001 0c27 E9070000 		.4byte	0x7e9
 2002 0c2b 01       		.byte	0x1
 2003 0c2c 980C0000 		.4byte	0xc98
 2004 0c30 24       		.uleb128 0x24
 2005 0c31 210C0000 		.4byte	.LASF199
 2006 0c35 02       		.byte	0x2
 2007 0c36 F1       		.byte	0xf1
 2008 0c37 980C0000 		.4byte	0xc98
 2009 0c3b 24       		.uleb128 0x24
 2010 0c3c F1050000 		.4byte	.LASF200
 2011 0c40 02       		.byte	0x2
 2012 0c41 F1       		.byte	0xf1
 2013 0c42 97000000 		.4byte	0x97
 2014 0c46 24       		.uleb128 0x24
 2015 0c47 6B0C0000 		.4byte	.LASF201
 2016 0c4b 02       		.byte	0x2
 2017 0c4c F2       		.byte	0xf2
 2018 0c4d 97000000 		.4byte	0x97
 2019 0c51 24       		.uleb128 0x24
 2020 0c52 58000000 		.4byte	.LASF202
 2021 0c56 02       		.byte	0x2
 2022 0c57 F2       		.byte	0xf2
 2023 0c58 97000000 		.4byte	0x97
 2024 0c5c 24       		.uleb128 0x24
 2025 0c5d B60B0000 		.4byte	.LASF203
 2026 0c61 02       		.byte	0x2
 2027 0c62 F3       		.byte	0xf3
 2028 0c63 97000000 		.4byte	0x97
 2029 0c67 24       		.uleb128 0x24
 2030 0c68 5D070000 		.4byte	.LASF204
 2031 0c6c 02       		.byte	0x2
 2032 0c6d F3       		.byte	0xf3
 2033 0c6e 81040000 		.4byte	0x481
 2034 0c72 24       		.uleb128 0x24
 2035 0c73 CD070000 		.4byte	.LASF160
 2036 0c77 02       		.byte	0x2
 2037 0c78 F4       		.byte	0xf4
 2038 0c79 A2000000 		.4byte	0xa2
 2039 0c7d 24       		.uleb128 0x24
 2040 0c7e C2000000 		.4byte	.LASF205
ARM GAS  /tmp/ccMjFzvY.s 			page 37


 2041 0c82 02       		.byte	0x2
 2042 0c83 F4       		.byte	0xf4
 2043 0c84 97000000 		.4byte	0x97
 2044 0c88 25       		.uleb128 0x25
 2045 0c89 EB0B0000 		.4byte	.LASF216
 2046 0c8d 02       		.byte	0x2
 2047 0c8e F5       		.byte	0xf5
 2048 0c8f 89000000 		.4byte	0x89
 2049 0c93 00       		.byte	0
 2050 0c94 26       		.uleb128 0x26
 2051 0c95 26       		.uleb128 0x26
 2052 0c96 00       		.byte	0
 2053 0c97 00       		.byte	0
 2054 0c98 09       		.uleb128 0x9
 2055 0c99 04       		.byte	0x4
 2056 0c9a 140C0000 		.4byte	0xc14
 2057 0c9e 27       		.uleb128 0x27
 2058 0c9f 46000000 		.4byte	.LASF207
 2059 0ca3 01       		.byte	0x1
 2060 0ca4 64       		.byte	0x64
 2061 0ca5 E9070000 		.4byte	0x7e9
 2062 0ca9 00000000 		.4byte	.LFB133
 2063 0cad 24000000 		.4byte	.LFE133-.LFB133
 2064 0cb1 01       		.uleb128 0x1
 2065 0cb2 9C       		.byte	0x9c
 2066 0cb3 6B0D0000 		.4byte	0xd6b
 2067 0cb7 28       		.uleb128 0x28
 2068 0cb8 210C0000 		.4byte	.LASF199
 2069 0cbc 01       		.byte	0x1
 2070 0cbd 64       		.byte	0x64
 2071 0cbe 980C0000 		.4byte	0xc98
 2072 0cc2 00000000 		.4byte	.LLST0
 2073 0cc6 28       		.uleb128 0x28
 2074 0cc7 F6050000 		.4byte	.LASF159
 2075 0ccb 01       		.byte	0x1
 2076 0ccc 65       		.byte	0x65
 2077 0ccd 81040000 		.4byte	0x481
 2078 0cd1 21000000 		.4byte	.LLST1
 2079 0cd5 28       		.uleb128 0x28
 2080 0cd6 85030000 		.4byte	.LASF206
 2081 0cda 01       		.byte	0x1
 2082 0cdb 66       		.byte	0x66
 2083 0cdc 97000000 		.4byte	0x97
 2084 0ce0 4E000000 		.4byte	.LLST2
 2085 0ce4 29       		.uleb128 0x29
 2086 0ce5 200C0000 		.4byte	0xc20
 2087 0ce9 04000000 		.4byte	.LBB20
 2088 0ced 1A000000 		.4byte	.LBE20-.LBB20
 2089 0cf1 01       		.byte	0x1
 2090 0cf2 69       		.byte	0x69
 2091 0cf3 2A       		.uleb128 0x2a
 2092 0cf4 7D0C0000 		.4byte	0xc7d
 2093 0cf8 00       		.byte	0
 2094 0cf9 2A       		.uleb128 0x2a
 2095 0cfa 720C0000 		.4byte	0xc72
 2096 0cfe 08       		.byte	0x8
 2097 0cff 2B       		.uleb128 0x2b
ARM GAS  /tmp/ccMjFzvY.s 			page 38


 2098 0d00 670C0000 		.4byte	0xc67
 2099 0d04 21000000 		.4byte	.LLST1
 2100 0d08 2A       		.uleb128 0x2a
 2101 0d09 5C0C0000 		.4byte	0xc5c
 2102 0d0d 00       		.byte	0
 2103 0d0e 2A       		.uleb128 0x2a
 2104 0d0f 510C0000 		.4byte	0xc51
 2105 0d13 00       		.byte	0
 2106 0d14 2A       		.uleb128 0x2a
 2107 0d15 460C0000 		.4byte	0xc46
 2108 0d19 00       		.byte	0
 2109 0d1a 2B       		.uleb128 0x2b
 2110 0d1b 3B0C0000 		.4byte	0xc3b
 2111 0d1f 4E000000 		.4byte	.LLST2
 2112 0d23 2B       		.uleb128 0x2b
 2113 0d24 300C0000 		.4byte	0xc30
 2114 0d28 00000000 		.4byte	.LLST0
 2115 0d2c 2C       		.uleb128 0x2c
 2116 0d2d 04000000 		.4byte	.LBB21
 2117 0d31 1A000000 		.4byte	.LBE21-.LBB21
 2118 0d35 2D       		.uleb128 0x2d
 2119 0d36 1E000000 		.4byte	.LVL4
 2120 0d3a 6D140000 		.4byte	0x146d
 2121 0d3e 2E       		.uleb128 0x2e
 2122 0d3f 01       		.uleb128 0x1
 2123 0d40 53       		.byte	0x53
 2124 0d41 02       		.uleb128 0x2
 2125 0d42 74       		.byte	0x74
 2126 0d43 00       		.sleb128 0
 2127 0d44 2E       		.uleb128 0x2e
 2128 0d45 01       		.uleb128 0x1
 2129 0d46 52       		.byte	0x52
 2130 0d47 02       		.uleb128 0x2
 2131 0d48 74       		.byte	0x74
 2132 0d49 00       		.sleb128 0
 2133 0d4a 2E       		.uleb128 0x2e
 2134 0d4b 02       		.uleb128 0x2
 2135 0d4c 7D       		.byte	0x7d
 2136 0d4d 0C       		.sleb128 12
 2137 0d4e 02       		.uleb128 0x2
 2138 0d4f 74       		.byte	0x74
 2139 0d50 00       		.sleb128 0
 2140 0d51 2E       		.uleb128 0x2e
 2141 0d52 02       		.uleb128 0x2
 2142 0d53 7D       		.byte	0x7d
 2143 0d54 08       		.sleb128 8
 2144 0d55 02       		.uleb128 0x2
 2145 0d56 75       		.byte	0x75
 2146 0d57 00       		.sleb128 0
 2147 0d58 2E       		.uleb128 0x2e
 2148 0d59 02       		.uleb128 0x2
 2149 0d5a 7D       		.byte	0x7d
 2150 0d5b 04       		.sleb128 4
 2151 0d5c 03       		.uleb128 0x3
 2152 0d5d F3       		.byte	0xf3
 2153 0d5e 01       		.uleb128 0x1
 2154 0d5f 51       		.byte	0x51
ARM GAS  /tmp/ccMjFzvY.s 			page 39


 2155 0d60 2E       		.uleb128 0x2e
 2156 0d61 02       		.uleb128 0x2
 2157 0d62 7D       		.byte	0x7d
 2158 0d63 00       		.sleb128 0
 2159 0d64 02       		.uleb128 0x2
 2160 0d65 74       		.byte	0x74
 2161 0d66 00       		.sleb128 0
 2162 0d67 00       		.byte	0
 2163 0d68 00       		.byte	0
 2164 0d69 00       		.byte	0
 2165 0d6a 00       		.byte	0
 2166 0d6b 27       		.uleb128 0x27
 2167 0d6c 35000000 		.4byte	.LASF208
 2168 0d70 01       		.byte	0x1
 2169 0d71 7E       		.byte	0x7e
 2170 0d72 E9070000 		.4byte	0x7e9
 2171 0d76 30000000 		.4byte	.LFB134
 2172 0d7a 30000000 		.4byte	.LFE134-.LFB134
 2173 0d7e 01       		.uleb128 0x1
 2174 0d7f 9C       		.byte	0x9c
 2175 0d80 4C0E0000 		.4byte	0xe4c
 2176 0d84 28       		.uleb128 0x28
 2177 0d85 210C0000 		.4byte	.LASF199
 2178 0d89 01       		.byte	0x1
 2179 0d8a 7E       		.byte	0x7e
 2180 0d8b 980C0000 		.4byte	0xc98
 2181 0d8f 6F000000 		.4byte	.LLST6
 2182 0d93 28       		.uleb128 0x28
 2183 0d94 F6050000 		.4byte	.LASF159
 2184 0d98 01       		.byte	0x1
 2185 0d99 7F       		.byte	0x7f
 2186 0d9a 81040000 		.4byte	0x481
 2187 0d9e 90000000 		.4byte	.LLST7
 2188 0da2 28       		.uleb128 0x28
 2189 0da3 CD070000 		.4byte	.LASF160
 2190 0da7 01       		.byte	0x1
 2191 0da8 80       		.byte	0x80
 2192 0da9 A2000000 		.4byte	0xa2
 2193 0dad BD000000 		.4byte	.LLST8
 2194 0db1 28       		.uleb128 0x28
 2195 0db2 85030000 		.4byte	.LASF206
 2196 0db6 01       		.byte	0x1
 2197 0db7 81       		.byte	0x81
 2198 0db8 97000000 		.4byte	0x97
 2199 0dbc DE000000 		.4byte	.LLST9
 2200 0dc0 28       		.uleb128 0x28
 2201 0dc1 C2000000 		.4byte	.LASF205
 2202 0dc5 01       		.byte	0x1
 2203 0dc6 82       		.byte	0x82
 2204 0dc7 97000000 		.4byte	0x97
 2205 0dcb FF000000 		.4byte	.LLST10
 2206 0dcf 2F       		.uleb128 0x2f
 2207 0dd0 200C0000 		.4byte	0xc20
 2208 0dd4 36000000 		.4byte	.LBB22
 2209 0dd8 00000000 		.4byte	.Ldebug_ranges0+0
 2210 0ddc 01       		.byte	0x1
 2211 0ddd 89       		.byte	0x89
ARM GAS  /tmp/ccMjFzvY.s 			page 40


 2212 0dde 30       		.uleb128 0x30
 2213 0ddf 7D0C0000 		.4byte	0xc7d
 2214 0de3 2B       		.uleb128 0x2b
 2215 0de4 720C0000 		.4byte	0xc72
 2216 0de8 13010000 		.4byte	.LLST11
 2217 0dec 2B       		.uleb128 0x2b
 2218 0ded 670C0000 		.4byte	0xc67
 2219 0df1 34010000 		.4byte	.LLST12
 2220 0df5 2A       		.uleb128 0x2a
 2221 0df6 5C0C0000 		.4byte	0xc5c
 2222 0dfa 01       		.byte	0x1
 2223 0dfb 2A       		.uleb128 0x2a
 2224 0dfc 510C0000 		.4byte	0xc51
 2225 0e00 00       		.byte	0
 2226 0e01 2A       		.uleb128 0x2a
 2227 0e02 460C0000 		.4byte	0xc46
 2228 0e06 00       		.byte	0
 2229 0e07 2B       		.uleb128 0x2b
 2230 0e08 3B0C0000 		.4byte	0xc3b
 2231 0e0c 61010000 		.4byte	.LLST13
 2232 0e10 31       		.uleb128 0x31
 2233 0e11 300C0000 		.4byte	0xc30
 2234 0e15 04       		.uleb128 0x4
 2235 0e16 F3       		.byte	0xf3
 2236 0e17 01       		.uleb128 0x1
 2237 0e18 50       		.byte	0x50
 2238 0e19 9F       		.byte	0x9f
 2239 0e1a 32       		.uleb128 0x32
 2240 0e1b 00000000 		.4byte	.Ldebug_ranges0+0
 2241 0e1f 2D       		.uleb128 0x2d
 2242 0e20 5A000000 		.4byte	.LVL11
 2243 0e24 6D140000 		.4byte	0x146d
 2244 0e28 2E       		.uleb128 0x2e
 2245 0e29 01       		.uleb128 0x1
 2246 0e2a 53       		.byte	0x53
 2247 0e2b 01       		.uleb128 0x1
 2248 0e2c 30       		.byte	0x30
 2249 0e2d 2E       		.uleb128 0x2e
 2250 0e2e 01       		.uleb128 0x1
 2251 0e2f 52       		.byte	0x52
 2252 0e30 01       		.uleb128 0x1
 2253 0e31 30       		.byte	0x30
 2254 0e32 2E       		.uleb128 0x2e
 2255 0e33 02       		.uleb128 0x2
 2256 0e34 7D       		.byte	0x7d
 2257 0e35 0C       		.sleb128 12
 2258 0e36 02       		.uleb128 0x2
 2259 0e37 74       		.byte	0x74
 2260 0e38 00       		.sleb128 0
 2261 0e39 2E       		.uleb128 0x2e
 2262 0e3a 02       		.uleb128 0x2
 2263 0e3b 7D       		.byte	0x7d
 2264 0e3c 04       		.sleb128 4
 2265 0e3d 03       		.uleb128 0x3
 2266 0e3e F3       		.byte	0xf3
 2267 0e3f 01       		.uleb128 0x1
 2268 0e40 51       		.byte	0x51
ARM GAS  /tmp/ccMjFzvY.s 			page 41


 2269 0e41 2E       		.uleb128 0x2e
 2270 0e42 02       		.uleb128 0x2
 2271 0e43 7D       		.byte	0x7d
 2272 0e44 00       		.sleb128 0
 2273 0e45 02       		.uleb128 0x2
 2274 0e46 75       		.byte	0x75
 2275 0e47 00       		.sleb128 0
 2276 0e48 00       		.byte	0
 2277 0e49 00       		.byte	0
 2278 0e4a 00       		.byte	0
 2279 0e4b 00       		.byte	0
 2280 0e4c 27       		.uleb128 0x27
 2281 0e4d D1090000 		.4byte	.LASF209
 2282 0e51 01       		.byte	0x1
 2283 0e52 9F       		.byte	0x9f
 2284 0e53 E9070000 		.4byte	0x7e9
 2285 0e57 60000000 		.4byte	.LFB135
 2286 0e5b 24000000 		.4byte	.LFE135-.LFB135
 2287 0e5f 01       		.uleb128 0x1
 2288 0e60 9C       		.byte	0x9c
 2289 0e61 240F0000 		.4byte	0xf24
 2290 0e65 28       		.uleb128 0x28
 2291 0e66 210C0000 		.4byte	.LASF199
 2292 0e6a 01       		.byte	0x1
 2293 0e6b 9F       		.byte	0x9f
 2294 0e6c 980C0000 		.4byte	0xc98
 2295 0e70 82010000 		.4byte	.LLST14
 2296 0e74 28       		.uleb128 0x28
 2297 0e75 F6050000 		.4byte	.LASF159
 2298 0e79 01       		.byte	0x1
 2299 0e7a A0       		.byte	0xa0
 2300 0e7b 81040000 		.4byte	0x481
 2301 0e7f A3010000 		.4byte	.LLST15
 2302 0e83 28       		.uleb128 0x28
 2303 0e84 CD070000 		.4byte	.LASF160
 2304 0e88 01       		.byte	0x1
 2305 0e89 A1       		.byte	0xa1
 2306 0e8a A2000000 		.4byte	0xa2
 2307 0e8e D0010000 		.4byte	.LLST16
 2308 0e92 28       		.uleb128 0x28
 2309 0e93 85030000 		.4byte	.LASF206
 2310 0e97 01       		.byte	0x1
 2311 0e98 A2       		.byte	0xa2
 2312 0e99 97000000 		.4byte	0x97
 2313 0e9d F1010000 		.4byte	.LLST17
 2314 0ea1 29       		.uleb128 0x29
 2315 0ea2 200C0000 		.4byte	0xc20
 2316 0ea6 64000000 		.4byte	.LBB26
 2317 0eaa 1A000000 		.4byte	.LBE26-.LBB26
 2318 0eae 01       		.byte	0x1
 2319 0eaf A4       		.byte	0xa4
 2320 0eb0 2A       		.uleb128 0x2a
 2321 0eb1 7D0C0000 		.4byte	0xc7d
 2322 0eb5 00       		.byte	0
 2323 0eb6 2B       		.uleb128 0x2b
 2324 0eb7 720C0000 		.4byte	0xc72
 2325 0ebb D0010000 		.4byte	.LLST16
ARM GAS  /tmp/ccMjFzvY.s 			page 42


 2326 0ebf 2B       		.uleb128 0x2b
 2327 0ec0 670C0000 		.4byte	0xc67
 2328 0ec4 A3010000 		.4byte	.LLST15
 2329 0ec8 2A       		.uleb128 0x2a
 2330 0ec9 5C0C0000 		.4byte	0xc5c
 2331 0ecd 01       		.byte	0x1
 2332 0ece 2A       		.uleb128 0x2a
 2333 0ecf 510C0000 		.4byte	0xc51
 2334 0ed3 00       		.byte	0
 2335 0ed4 2A       		.uleb128 0x2a
 2336 0ed5 460C0000 		.4byte	0xc46
 2337 0ed9 01       		.byte	0x1
 2338 0eda 2B       		.uleb128 0x2b
 2339 0edb 3B0C0000 		.4byte	0xc3b
 2340 0edf F1010000 		.4byte	.LLST17
 2341 0ee3 2B       		.uleb128 0x2b
 2342 0ee4 300C0000 		.4byte	0xc30
 2343 0ee8 82010000 		.4byte	.LLST14
 2344 0eec 2C       		.uleb128 0x2c
 2345 0eed 64000000 		.4byte	.LBB27
 2346 0ef1 1A000000 		.4byte	.LBE27-.LBB27
 2347 0ef5 2D       		.uleb128 0x2d
 2348 0ef6 7E000000 		.4byte	.LVL17
 2349 0efa 6D140000 		.4byte	0x146d
 2350 0efe 2E       		.uleb128 0x2e
 2351 0eff 01       		.uleb128 0x1
 2352 0f00 53       		.byte	0x53
 2353 0f01 02       		.uleb128 0x2
 2354 0f02 74       		.byte	0x74
 2355 0f03 00       		.sleb128 0
 2356 0f04 2E       		.uleb128 0x2e
 2357 0f05 01       		.uleb128 0x1
 2358 0f06 52       		.byte	0x52
 2359 0f07 02       		.uleb128 0x2
 2360 0f08 75       		.byte	0x75
 2361 0f09 00       		.sleb128 0
 2362 0f0a 2E       		.uleb128 0x2e
 2363 0f0b 02       		.uleb128 0x2
 2364 0f0c 7D       		.byte	0x7d
 2365 0f0d 0C       		.sleb128 12
 2366 0f0e 02       		.uleb128 0x2
 2367 0f0f 74       		.byte	0x74
 2368 0f10 00       		.sleb128 0
 2369 0f11 2E       		.uleb128 0x2e
 2370 0f12 02       		.uleb128 0x2
 2371 0f13 7D       		.byte	0x7d
 2372 0f14 04       		.sleb128 4
 2373 0f15 03       		.uleb128 0x3
 2374 0f16 F3       		.byte	0xf3
 2375 0f17 01       		.uleb128 0x1
 2376 0f18 51       		.byte	0x51
 2377 0f19 2E       		.uleb128 0x2e
 2378 0f1a 02       		.uleb128 0x2
 2379 0f1b 7D       		.byte	0x7d
 2380 0f1c 00       		.sleb128 0
 2381 0f1d 02       		.uleb128 0x2
 2382 0f1e 75       		.byte	0x75
ARM GAS  /tmp/ccMjFzvY.s 			page 43


 2383 0f1f 00       		.sleb128 0
 2384 0f20 00       		.byte	0
 2385 0f21 00       		.byte	0
 2386 0f22 00       		.byte	0
 2387 0f23 00       		.byte	0
 2388 0f24 27       		.uleb128 0x27
 2389 0f25 2B030000 		.4byte	.LASF210
 2390 0f29 01       		.byte	0x1
 2391 0f2a BA       		.byte	0xba
 2392 0f2b E9070000 		.4byte	0x7e9
 2393 0f2f 90000000 		.4byte	.LFB136
 2394 0f33 30000000 		.4byte	.LFE136-.LFB136
 2395 0f37 01       		.uleb128 0x1
 2396 0f38 9C       		.byte	0x9c
 2397 0f39 05100000 		.4byte	0x1005
 2398 0f3d 28       		.uleb128 0x28
 2399 0f3e 210C0000 		.4byte	.LASF199
 2400 0f42 01       		.byte	0x1
 2401 0f43 BA       		.byte	0xba
 2402 0f44 980C0000 		.4byte	0xc98
 2403 0f48 12020000 		.4byte	.LLST22
 2404 0f4c 28       		.uleb128 0x28
 2405 0f4d F6050000 		.4byte	.LASF159
 2406 0f51 01       		.byte	0x1
 2407 0f52 BB       		.byte	0xbb
 2408 0f53 81040000 		.4byte	0x481
 2409 0f57 33020000 		.4byte	.LLST23
 2410 0f5b 28       		.uleb128 0x28
 2411 0f5c CD070000 		.4byte	.LASF160
 2412 0f60 01       		.byte	0x1
 2413 0f61 BC       		.byte	0xbc
 2414 0f62 A2000000 		.4byte	0xa2
 2415 0f66 60020000 		.4byte	.LLST24
 2416 0f6a 28       		.uleb128 0x28
 2417 0f6b 85030000 		.4byte	.LASF206
 2418 0f6f 01       		.byte	0x1
 2419 0f70 BD       		.byte	0xbd
 2420 0f71 97000000 		.4byte	0x97
 2421 0f75 81020000 		.4byte	.LLST25
 2422 0f79 28       		.uleb128 0x28
 2423 0f7a C2000000 		.4byte	.LASF205
 2424 0f7e 01       		.byte	0x1
 2425 0f7f BE       		.byte	0xbe
 2426 0f80 97000000 		.4byte	0x97
 2427 0f84 A2020000 		.4byte	.LLST26
 2428 0f88 2F       		.uleb128 0x2f
 2429 0f89 200C0000 		.4byte	0xc20
 2430 0f8d 96000000 		.4byte	.LBB28
 2431 0f91 18000000 		.4byte	.Ldebug_ranges0+0x18
 2432 0f95 01       		.byte	0x1
 2433 0f96 C5       		.byte	0xc5
 2434 0f97 30       		.uleb128 0x30
 2435 0f98 7D0C0000 		.4byte	0xc7d
 2436 0f9c 2B       		.uleb128 0x2b
 2437 0f9d 720C0000 		.4byte	0xc72
 2438 0fa1 B6020000 		.4byte	.LLST27
 2439 0fa5 2B       		.uleb128 0x2b
ARM GAS  /tmp/ccMjFzvY.s 			page 44


 2440 0fa6 670C0000 		.4byte	0xc67
 2441 0faa D7020000 		.4byte	.LLST28
 2442 0fae 2A       		.uleb128 0x2a
 2443 0faf 5C0C0000 		.4byte	0xc5c
 2444 0fb3 01       		.byte	0x1
 2445 0fb4 2A       		.uleb128 0x2a
 2446 0fb5 510C0000 		.4byte	0xc51
 2447 0fb9 02       		.byte	0x2
 2448 0fba 2A       		.uleb128 0x2a
 2449 0fbb 460C0000 		.4byte	0xc46
 2450 0fbf 00       		.byte	0
 2451 0fc0 2B       		.uleb128 0x2b
 2452 0fc1 3B0C0000 		.4byte	0xc3b
 2453 0fc5 04030000 		.4byte	.LLST29
 2454 0fc9 31       		.uleb128 0x31
 2455 0fca 300C0000 		.4byte	0xc30
 2456 0fce 04       		.uleb128 0x4
 2457 0fcf F3       		.byte	0xf3
 2458 0fd0 01       		.uleb128 0x1
 2459 0fd1 50       		.byte	0x50
 2460 0fd2 9F       		.byte	0x9f
 2461 0fd3 32       		.uleb128 0x32
 2462 0fd4 18000000 		.4byte	.Ldebug_ranges0+0x18
 2463 0fd8 2D       		.uleb128 0x2d
 2464 0fd9 BA000000 		.4byte	.LVL24
 2465 0fdd 6D140000 		.4byte	0x146d
 2466 0fe1 2E       		.uleb128 0x2e
 2467 0fe2 01       		.uleb128 0x1
 2468 0fe3 53       		.byte	0x53
 2469 0fe4 01       		.uleb128 0x1
 2470 0fe5 32       		.byte	0x32
 2471 0fe6 2E       		.uleb128 0x2e
 2472 0fe7 01       		.uleb128 0x1
 2473 0fe8 52       		.byte	0x52
 2474 0fe9 01       		.uleb128 0x1
 2475 0fea 30       		.byte	0x30
 2476 0feb 2E       		.uleb128 0x2e
 2477 0fec 02       		.uleb128 0x2
 2478 0fed 7D       		.byte	0x7d
 2479 0fee 0C       		.sleb128 12
 2480 0fef 02       		.uleb128 0x2
 2481 0ff0 74       		.byte	0x74
 2482 0ff1 00       		.sleb128 0
 2483 0ff2 2E       		.uleb128 0x2e
 2484 0ff3 02       		.uleb128 0x2
 2485 0ff4 7D       		.byte	0x7d
 2486 0ff5 04       		.sleb128 4
 2487 0ff6 03       		.uleb128 0x3
 2488 0ff7 F3       		.byte	0xf3
 2489 0ff8 01       		.uleb128 0x1
 2490 0ff9 51       		.byte	0x51
 2491 0ffa 2E       		.uleb128 0x2e
 2492 0ffb 02       		.uleb128 0x2
 2493 0ffc 7D       		.byte	0x7d
 2494 0ffd 00       		.sleb128 0
 2495 0ffe 02       		.uleb128 0x2
 2496 0fff 75       		.byte	0x75
ARM GAS  /tmp/ccMjFzvY.s 			page 45


 2497 1000 00       		.sleb128 0
 2498 1001 00       		.byte	0
 2499 1002 00       		.byte	0
 2500 1003 00       		.byte	0
 2501 1004 00       		.byte	0
 2502 1005 27       		.uleb128 0x27
 2503 1006 46080000 		.4byte	.LASF211
 2504 100a 01       		.byte	0x1
 2505 100b DA       		.byte	0xda
 2506 100c E9070000 		.4byte	0x7e9
 2507 1010 C0000000 		.4byte	.LFB137
 2508 1014 24000000 		.4byte	.LFE137-.LFB137
 2509 1018 01       		.uleb128 0x1
 2510 1019 9C       		.byte	0x9c
 2511 101a DC100000 		.4byte	0x10dc
 2512 101e 28       		.uleb128 0x28
 2513 101f 210C0000 		.4byte	.LASF199
 2514 1023 01       		.byte	0x1
 2515 1024 DA       		.byte	0xda
 2516 1025 980C0000 		.4byte	0xc98
 2517 1029 25030000 		.4byte	.LLST30
 2518 102d 28       		.uleb128 0x28
 2519 102e F6050000 		.4byte	.LASF159
 2520 1032 01       		.byte	0x1
 2521 1033 DB       		.byte	0xdb
 2522 1034 81040000 		.4byte	0x481
 2523 1038 46030000 		.4byte	.LLST31
 2524 103c 28       		.uleb128 0x28
 2525 103d CD070000 		.4byte	.LASF160
 2526 1041 01       		.byte	0x1
 2527 1042 DC       		.byte	0xdc
 2528 1043 A2000000 		.4byte	0xa2
 2529 1047 73030000 		.4byte	.LLST32
 2530 104b 28       		.uleb128 0x28
 2531 104c 85030000 		.4byte	.LASF206
 2532 1050 01       		.byte	0x1
 2533 1051 DD       		.byte	0xdd
 2534 1052 97000000 		.4byte	0x97
 2535 1056 94030000 		.4byte	.LLST33
 2536 105a 29       		.uleb128 0x29
 2537 105b 200C0000 		.4byte	0xc20
 2538 105f C4000000 		.4byte	.LBB32
 2539 1063 1A000000 		.4byte	.LBE32-.LBB32
 2540 1067 01       		.byte	0x1
 2541 1068 DF       		.byte	0xdf
 2542 1069 2A       		.uleb128 0x2a
 2543 106a 7D0C0000 		.4byte	0xc7d
 2544 106e 00       		.byte	0
 2545 106f 2B       		.uleb128 0x2b
 2546 1070 720C0000 		.4byte	0xc72
 2547 1074 73030000 		.4byte	.LLST32
 2548 1078 2B       		.uleb128 0x2b
 2549 1079 670C0000 		.4byte	0xc67
 2550 107d 46030000 		.4byte	.LLST31
 2551 1081 2A       		.uleb128 0x2a
 2552 1082 5C0C0000 		.4byte	0xc5c
 2553 1086 01       		.byte	0x1
ARM GAS  /tmp/ccMjFzvY.s 			page 46


 2554 1087 2A       		.uleb128 0x2a
 2555 1088 510C0000 		.4byte	0xc51
 2556 108c 02       		.byte	0x2
 2557 108d 2A       		.uleb128 0x2a
 2558 108e 460C0000 		.4byte	0xc46
 2559 1092 01       		.byte	0x1
 2560 1093 2B       		.uleb128 0x2b
 2561 1094 3B0C0000 		.4byte	0xc3b
 2562 1098 94030000 		.4byte	.LLST33
 2563 109c 2B       		.uleb128 0x2b
 2564 109d 300C0000 		.4byte	0xc30
 2565 10a1 25030000 		.4byte	.LLST30
 2566 10a5 2C       		.uleb128 0x2c
 2567 10a6 C4000000 		.4byte	.LBB33
 2568 10aa 1A000000 		.4byte	.LBE33-.LBB33
 2569 10ae 2D       		.uleb128 0x2d
 2570 10af DE000000 		.4byte	.LVL30
 2571 10b3 6D140000 		.4byte	0x146d
 2572 10b7 2E       		.uleb128 0x2e
 2573 10b8 01       		.uleb128 0x1
 2574 10b9 53       		.byte	0x53
 2575 10ba 01       		.uleb128 0x1
 2576 10bb 32       		.byte	0x32
 2577 10bc 2E       		.uleb128 0x2e
 2578 10bd 01       		.uleb128 0x1
 2579 10be 52       		.byte	0x52
 2580 10bf 02       		.uleb128 0x2
 2581 10c0 75       		.byte	0x75
 2582 10c1 00       		.sleb128 0
 2583 10c2 2E       		.uleb128 0x2e
 2584 10c3 02       		.uleb128 0x2
 2585 10c4 7D       		.byte	0x7d
 2586 10c5 0C       		.sleb128 12
 2587 10c6 02       		.uleb128 0x2
 2588 10c7 74       		.byte	0x74
 2589 10c8 00       		.sleb128 0
 2590 10c9 2E       		.uleb128 0x2e
 2591 10ca 02       		.uleb128 0x2
 2592 10cb 7D       		.byte	0x7d
 2593 10cc 04       		.sleb128 4
 2594 10cd 03       		.uleb128 0x3
 2595 10ce F3       		.byte	0xf3
 2596 10cf 01       		.uleb128 0x1
 2597 10d0 51       		.byte	0x51
 2598 10d1 2E       		.uleb128 0x2e
 2599 10d2 02       		.uleb128 0x2
 2600 10d3 7D       		.byte	0x7d
 2601 10d4 00       		.sleb128 0
 2602 10d5 02       		.uleb128 0x2
 2603 10d6 75       		.byte	0x75
 2604 10d7 00       		.sleb128 0
 2605 10d8 00       		.byte	0
 2606 10d9 00       		.byte	0
 2607 10da 00       		.byte	0
 2608 10db 00       		.byte	0
 2609 10dc 27       		.uleb128 0x27
 2610 10dd C0030000 		.4byte	.LASF212
ARM GAS  /tmp/ccMjFzvY.s 			page 47


 2611 10e1 01       		.byte	0x1
 2612 10e2 F4       		.byte	0xf4
 2613 10e3 E9070000 		.4byte	0x7e9
 2614 10e7 F0000000 		.4byte	.LFB138
 2615 10eb 24000000 		.4byte	.LFE138-.LFB138
 2616 10ef 01       		.uleb128 0x1
 2617 10f0 9C       		.byte	0x9c
 2618 10f1 B3110000 		.4byte	0x11b3
 2619 10f5 28       		.uleb128 0x28
 2620 10f6 210C0000 		.4byte	.LASF199
 2621 10fa 01       		.byte	0x1
 2622 10fb F4       		.byte	0xf4
 2623 10fc 980C0000 		.4byte	0xc98
 2624 1100 B5030000 		.4byte	.LLST38
 2625 1104 28       		.uleb128 0x28
 2626 1105 F6050000 		.4byte	.LASF159
 2627 1109 01       		.byte	0x1
 2628 110a F5       		.byte	0xf5
 2629 110b 81040000 		.4byte	0x481
 2630 110f D6030000 		.4byte	.LLST39
 2631 1113 28       		.uleb128 0x28
 2632 1114 CD070000 		.4byte	.LASF160
 2633 1118 01       		.byte	0x1
 2634 1119 F6       		.byte	0xf6
 2635 111a 97000000 		.4byte	0x97
 2636 111e 03040000 		.4byte	.LLST40
 2637 1122 28       		.uleb128 0x28
 2638 1123 85030000 		.4byte	.LASF206
 2639 1127 01       		.byte	0x1
 2640 1128 F7       		.byte	0xf7
 2641 1129 97000000 		.4byte	0x97
 2642 112d 24040000 		.4byte	.LLST41
 2643 1131 29       		.uleb128 0x29
 2644 1132 200C0000 		.4byte	0xc20
 2645 1136 F4000000 		.4byte	.LBB34
 2646 113a 1A000000 		.4byte	.LBE34-.LBB34
 2647 113e 01       		.byte	0x1
 2648 113f F9       		.byte	0xf9
 2649 1140 2A       		.uleb128 0x2a
 2650 1141 7D0C0000 		.4byte	0xc7d
 2651 1145 00       		.byte	0
 2652 1146 2B       		.uleb128 0x2b
 2653 1147 720C0000 		.4byte	0xc72
 2654 114b 45040000 		.4byte	.LLST42
 2655 114f 2B       		.uleb128 0x2b
 2656 1150 670C0000 		.4byte	0xc67
 2657 1154 D6030000 		.4byte	.LLST39
 2658 1158 2A       		.uleb128 0x2a
 2659 1159 5C0C0000 		.4byte	0xc5c
 2660 115d 01       		.byte	0x1
 2661 115e 2A       		.uleb128 0x2a
 2662 115f 510C0000 		.4byte	0xc51
 2663 1163 03       		.byte	0x3
 2664 1164 2A       		.uleb128 0x2a
 2665 1165 460C0000 		.4byte	0xc46
 2666 1169 01       		.byte	0x1
 2667 116a 2B       		.uleb128 0x2b
ARM GAS  /tmp/ccMjFzvY.s 			page 48


 2668 116b 3B0C0000 		.4byte	0xc3b
 2669 116f 24040000 		.4byte	.LLST41
 2670 1173 2B       		.uleb128 0x2b
 2671 1174 300C0000 		.4byte	0xc30
 2672 1178 B5030000 		.4byte	.LLST38
 2673 117c 2C       		.uleb128 0x2c
 2674 117d F4000000 		.4byte	.LBB35
 2675 1181 1A000000 		.4byte	.LBE35-.LBB35
 2676 1185 2D       		.uleb128 0x2d
 2677 1186 0E010000 		.4byte	.LVL36
 2678 118a 6D140000 		.4byte	0x146d
 2679 118e 2E       		.uleb128 0x2e
 2680 118f 01       		.uleb128 0x1
 2681 1190 53       		.byte	0x53
 2682 1191 01       		.uleb128 0x1
 2683 1192 33       		.byte	0x33
 2684 1193 2E       		.uleb128 0x2e
 2685 1194 01       		.uleb128 0x1
 2686 1195 52       		.byte	0x52
 2687 1196 02       		.uleb128 0x2
 2688 1197 75       		.byte	0x75
 2689 1198 00       		.sleb128 0
 2690 1199 2E       		.uleb128 0x2e
 2691 119a 02       		.uleb128 0x2
 2692 119b 7D       		.byte	0x7d
 2693 119c 0C       		.sleb128 12
 2694 119d 02       		.uleb128 0x2
 2695 119e 74       		.byte	0x74
 2696 119f 00       		.sleb128 0
 2697 11a0 2E       		.uleb128 0x2e
 2698 11a1 02       		.uleb128 0x2
 2699 11a2 7D       		.byte	0x7d
 2700 11a3 04       		.sleb128 4
 2701 11a4 03       		.uleb128 0x3
 2702 11a5 F3       		.byte	0xf3
 2703 11a6 01       		.uleb128 0x1
 2704 11a7 51       		.byte	0x51
 2705 11a8 2E       		.uleb128 0x2e
 2706 11a9 02       		.uleb128 0x2
 2707 11aa 7D       		.byte	0x7d
 2708 11ab 00       		.sleb128 0
 2709 11ac 02       		.uleb128 0x2
 2710 11ad 75       		.byte	0x75
 2711 11ae 00       		.sleb128 0
 2712 11af 00       		.byte	0
 2713 11b0 00       		.byte	0
 2714 11b1 00       		.byte	0
 2715 11b2 00       		.byte	0
 2716 11b3 33       		.uleb128 0x33
 2717 11b4 B9010000 		.4byte	.LASF213
 2718 11b8 01       		.byte	0x1
 2719 11b9 0E01     		.2byte	0x10e
 2720 11bb E9070000 		.4byte	0x7e9
 2721 11bf 20010000 		.4byte	.LFB139
 2722 11c3 24000000 		.4byte	.LFE139-.LFB139
 2723 11c7 01       		.uleb128 0x1
 2724 11c8 9C       		.byte	0x9c
ARM GAS  /tmp/ccMjFzvY.s 			page 49


 2725 11c9 90120000 		.4byte	0x1290
 2726 11cd 34       		.uleb128 0x34
 2727 11ce 210C0000 		.4byte	.LASF199
 2728 11d2 01       		.byte	0x1
 2729 11d3 0E01     		.2byte	0x10e
 2730 11d5 980C0000 		.4byte	0xc98
 2731 11d9 6E040000 		.4byte	.LLST46
 2732 11dd 34       		.uleb128 0x34
 2733 11de F6050000 		.4byte	.LASF159
 2734 11e2 01       		.byte	0x1
 2735 11e3 0F01     		.2byte	0x10f
 2736 11e5 81040000 		.4byte	0x481
 2737 11e9 8F040000 		.4byte	.LLST47
 2738 11ed 34       		.uleb128 0x34
 2739 11ee CD070000 		.4byte	.LASF160
 2740 11f2 01       		.byte	0x1
 2741 11f3 1001     		.2byte	0x110
 2742 11f5 97000000 		.4byte	0x97
 2743 11f9 BC040000 		.4byte	.LLST48
 2744 11fd 34       		.uleb128 0x34
 2745 11fe 85030000 		.4byte	.LASF206
 2746 1202 01       		.byte	0x1
 2747 1203 1101     		.2byte	0x111
 2748 1205 97000000 		.4byte	0x97
 2749 1209 DD040000 		.4byte	.LLST49
 2750 120d 35       		.uleb128 0x35
 2751 120e 200C0000 		.4byte	0xc20
 2752 1212 24010000 		.4byte	.LBB36
 2753 1216 1A000000 		.4byte	.LBE36-.LBB36
 2754 121a 01       		.byte	0x1
 2755 121b 1301     		.2byte	0x113
 2756 121d 2A       		.uleb128 0x2a
 2757 121e 7D0C0000 		.4byte	0xc7d
 2758 1222 00       		.byte	0
 2759 1223 2B       		.uleb128 0x2b
 2760 1224 720C0000 		.4byte	0xc72
 2761 1228 FE040000 		.4byte	.LLST50
 2762 122c 2B       		.uleb128 0x2b
 2763 122d 670C0000 		.4byte	0xc67
 2764 1231 8F040000 		.4byte	.LLST47
 2765 1235 2A       		.uleb128 0x2a
 2766 1236 5C0C0000 		.4byte	0xc5c
 2767 123a 01       		.byte	0x1
 2768 123b 2A       		.uleb128 0x2a
 2769 123c 510C0000 		.4byte	0xc51
 2770 1240 03       		.byte	0x3
 2771 1241 2A       		.uleb128 0x2a
 2772 1242 460C0000 		.4byte	0xc46
 2773 1246 00       		.byte	0
 2774 1247 2B       		.uleb128 0x2b
 2775 1248 3B0C0000 		.4byte	0xc3b
 2776 124c DD040000 		.4byte	.LLST49
 2777 1250 2B       		.uleb128 0x2b
 2778 1251 300C0000 		.4byte	0xc30
 2779 1255 6E040000 		.4byte	.LLST46
 2780 1259 2C       		.uleb128 0x2c
 2781 125a 24010000 		.4byte	.LBB37
ARM GAS  /tmp/ccMjFzvY.s 			page 50


 2782 125e 1A000000 		.4byte	.LBE37-.LBB37
 2783 1262 2D       		.uleb128 0x2d
 2784 1263 3E010000 		.4byte	.LVL42
 2785 1267 6D140000 		.4byte	0x146d
 2786 126b 2E       		.uleb128 0x2e
 2787 126c 01       		.uleb128 0x1
 2788 126d 53       		.byte	0x53
 2789 126e 01       		.uleb128 0x1
 2790 126f 33       		.byte	0x33
 2791 1270 2E       		.uleb128 0x2e
 2792 1271 01       		.uleb128 0x1
 2793 1272 52       		.byte	0x52
 2794 1273 02       		.uleb128 0x2
 2795 1274 74       		.byte	0x74
 2796 1275 00       		.sleb128 0
 2797 1276 2E       		.uleb128 0x2e
 2798 1277 02       		.uleb128 0x2
 2799 1278 7D       		.byte	0x7d
 2800 1279 0C       		.sleb128 12
 2801 127a 02       		.uleb128 0x2
 2802 127b 74       		.byte	0x74
 2803 127c 00       		.sleb128 0
 2804 127d 2E       		.uleb128 0x2e
 2805 127e 02       		.uleb128 0x2
 2806 127f 7D       		.byte	0x7d
 2807 1280 04       		.sleb128 4
 2808 1281 03       		.uleb128 0x3
 2809 1282 F3       		.byte	0xf3
 2810 1283 01       		.uleb128 0x1
 2811 1284 51       		.byte	0x51
 2812 1285 2E       		.uleb128 0x2e
 2813 1286 02       		.uleb128 0x2
 2814 1287 7D       		.byte	0x7d
 2815 1288 00       		.sleb128 0
 2816 1289 02       		.uleb128 0x2
 2817 128a 75       		.byte	0x75
 2818 128b 00       		.sleb128 0
 2819 128c 00       		.byte	0
 2820 128d 00       		.byte	0
 2821 128e 00       		.byte	0
 2822 128f 00       		.byte	0
 2823 1290 33       		.uleb128 0x33
 2824 1291 D3020000 		.4byte	.LASF214
 2825 1295 01       		.byte	0x1
 2826 1296 2801     		.2byte	0x128
 2827 1298 E9070000 		.4byte	0x7e9
 2828 129c 50010000 		.4byte	.LFB140
 2829 12a0 24000000 		.4byte	.LFE140-.LFB140
 2830 12a4 01       		.uleb128 0x1
 2831 12a5 9C       		.byte	0x9c
 2832 12a6 77130000 		.4byte	0x1377
 2833 12aa 34       		.uleb128 0x34
 2834 12ab 210C0000 		.4byte	.LASF199
 2835 12af 01       		.byte	0x1
 2836 12b0 2801     		.2byte	0x128
 2837 12b2 980C0000 		.4byte	0xc98
 2838 12b6 27050000 		.4byte	.LLST54
ARM GAS  /tmp/ccMjFzvY.s 			page 51


 2839 12ba 34       		.uleb128 0x34
 2840 12bb F6050000 		.4byte	.LASF159
 2841 12bf 01       		.byte	0x1
 2842 12c0 2901     		.2byte	0x129
 2843 12c2 81040000 		.4byte	0x481
 2844 12c6 48050000 		.4byte	.LLST55
 2845 12ca 34       		.uleb128 0x34
 2846 12cb CD070000 		.4byte	.LASF160
 2847 12cf 01       		.byte	0x1
 2848 12d0 2A01     		.2byte	0x12a
 2849 12d2 B8000000 		.4byte	0xb8
 2850 12d6 75050000 		.4byte	.LLST56
 2851 12da 34       		.uleb128 0x34
 2852 12db 85030000 		.4byte	.LASF206
 2853 12df 01       		.byte	0x1
 2854 12e0 2B01     		.2byte	0x12b
 2855 12e2 97000000 		.4byte	0x97
 2856 12e6 96050000 		.4byte	.LLST57
 2857 12ea 35       		.uleb128 0x35
 2858 12eb 200C0000 		.4byte	0xc20
 2859 12ef 54010000 		.4byte	.LBB38
 2860 12f3 1A000000 		.4byte	.LBE38-.LBB38
 2861 12f7 01       		.byte	0x1
 2862 12f8 2D01     		.2byte	0x12d
 2863 12fa 2A       		.uleb128 0x2a
 2864 12fb 7D0C0000 		.4byte	0xc7d
 2865 12ff 00       		.byte	0
 2866 1300 2B       		.uleb128 0x2b
 2867 1301 720C0000 		.4byte	0xc72
 2868 1305 B7050000 		.4byte	.LLST58
 2869 1309 2B       		.uleb128 0x2b
 2870 130a 670C0000 		.4byte	0xc67
 2871 130e 48050000 		.4byte	.LLST55
 2872 1312 2A       		.uleb128 0x2a
 2873 1313 5C0C0000 		.4byte	0xc5c
 2874 1317 01       		.byte	0x1
 2875 1318 2A       		.uleb128 0x2a
 2876 1319 510C0000 		.4byte	0xc51
 2877 131d 01       		.byte	0x1
 2878 131e 2A       		.uleb128 0x2a
 2879 131f 460C0000 		.4byte	0xc46
 2880 1323 01       		.byte	0x1
 2881 1324 2B       		.uleb128 0x2b
 2882 1325 3B0C0000 		.4byte	0xc3b
 2883 1329 96050000 		.4byte	.LLST57
 2884 132d 2B       		.uleb128 0x2b
 2885 132e 300C0000 		.4byte	0xc30
 2886 1332 27050000 		.4byte	.LLST54
 2887 1336 2C       		.uleb128 0x2c
 2888 1337 54010000 		.4byte	.LBB39
 2889 133b 1A000000 		.4byte	.LBE39-.LBB39
 2890 133f 2D       		.uleb128 0x2d
 2891 1340 6E010000 		.4byte	.LVL49
 2892 1344 6D140000 		.4byte	0x146d
 2893 1348 2E       		.uleb128 0x2e
 2894 1349 01       		.uleb128 0x1
 2895 134a 53       		.byte	0x53
ARM GAS  /tmp/ccMjFzvY.s 			page 52


 2896 134b 01       		.uleb128 0x1
 2897 134c 31       		.byte	0x31
 2898 134d 2E       		.uleb128 0x2e
 2899 134e 01       		.uleb128 0x1
 2900 134f 52       		.byte	0x52
 2901 1350 01       		.uleb128 0x1
 2902 1351 31       		.byte	0x31
 2903 1352 2E       		.uleb128 0x2e
 2904 1353 02       		.uleb128 0x2
 2905 1354 7D       		.byte	0x7d
 2906 1355 0C       		.sleb128 12
 2907 1356 02       		.uleb128 0x2
 2908 1357 74       		.byte	0x74
 2909 1358 00       		.sleb128 0
 2910 1359 2E       		.uleb128 0x2e
 2911 135a 02       		.uleb128 0x2
 2912 135b 7D       		.byte	0x7d
 2913 135c 08       		.sleb128 8
 2914 135d 07       		.uleb128 0x7
 2915 135e F3       		.byte	0xf3
 2916 135f 01       		.uleb128 0x1
 2917 1360 52       		.byte	0x52
 2918 1361 0A       		.byte	0xa
 2919 1362 FFFF     		.2byte	0xffff
 2920 1364 1A       		.byte	0x1a
 2921 1365 2E       		.uleb128 0x2e
 2922 1366 02       		.uleb128 0x2
 2923 1367 7D       		.byte	0x7d
 2924 1368 04       		.sleb128 4
 2925 1369 03       		.uleb128 0x3
 2926 136a F3       		.byte	0xf3
 2927 136b 01       		.uleb128 0x1
 2928 136c 51       		.byte	0x51
 2929 136d 2E       		.uleb128 0x2e
 2930 136e 02       		.uleb128 0x2
 2931 136f 7D       		.byte	0x7d
 2932 1370 00       		.sleb128 0
 2933 1371 01       		.uleb128 0x1
 2934 1372 31       		.byte	0x31
 2935 1373 00       		.byte	0
 2936 1374 00       		.byte	0
 2937 1375 00       		.byte	0
 2938 1376 00       		.byte	0
 2939 1377 33       		.uleb128 0x33
 2940 1378 66040000 		.4byte	.LASF215
 2941 137c 01       		.byte	0x1
 2942 137d 4301     		.2byte	0x143
 2943 137f E9070000 		.4byte	0x7e9
 2944 1383 80010000 		.4byte	.LFB141
 2945 1387 26000000 		.4byte	.LFE141-.LFB141
 2946 138b 01       		.uleb128 0x1
 2947 138c 9C       		.byte	0x9c
 2948 138d 61140000 		.4byte	0x1461
 2949 1391 34       		.uleb128 0x34
 2950 1392 210C0000 		.4byte	.LASF199
 2951 1396 01       		.byte	0x1
 2952 1397 4301     		.2byte	0x143
ARM GAS  /tmp/ccMjFzvY.s 			page 53


 2953 1399 980C0000 		.4byte	0xc98
 2954 139d EF050000 		.4byte	.LLST62
 2955 13a1 34       		.uleb128 0x34
 2956 13a2 F6050000 		.4byte	.LASF159
 2957 13a6 01       		.byte	0x1
 2958 13a7 4401     		.2byte	0x144
 2959 13a9 81040000 		.4byte	0x481
 2960 13ad 10060000 		.4byte	.LLST63
 2961 13b1 34       		.uleb128 0x34
 2962 13b2 CD070000 		.4byte	.LASF160
 2963 13b6 01       		.byte	0x1
 2964 13b7 4501     		.2byte	0x145
 2965 13b9 B8000000 		.4byte	0xb8
 2966 13bd 3D060000 		.4byte	.LLST64
 2967 13c1 34       		.uleb128 0x34
 2968 13c2 85030000 		.4byte	.LASF206
 2969 13c6 01       		.byte	0x1
 2970 13c7 4601     		.2byte	0x146
 2971 13c9 97000000 		.4byte	0x97
 2972 13cd 5E060000 		.4byte	.LLST65
 2973 13d1 35       		.uleb128 0x35
 2974 13d2 200C0000 		.4byte	0xc20
 2975 13d6 84010000 		.4byte	.LBB40
 2976 13da 1C000000 		.4byte	.LBE40-.LBB40
 2977 13de 01       		.byte	0x1
 2978 13df 4801     		.2byte	0x148
 2979 13e1 2A       		.uleb128 0x2a
 2980 13e2 7D0C0000 		.4byte	0xc7d
 2981 13e6 00       		.byte	0
 2982 13e7 2B       		.uleb128 0x2b
 2983 13e8 720C0000 		.4byte	0xc72
 2984 13ec 7F060000 		.4byte	.LLST66
 2985 13f0 2B       		.uleb128 0x2b
 2986 13f1 670C0000 		.4byte	0xc67
 2987 13f5 10060000 		.4byte	.LLST63
 2988 13f9 2A       		.uleb128 0x2a
 2989 13fa 5C0C0000 		.4byte	0xc5c
 2990 13fe 01       		.byte	0x1
 2991 13ff 2A       		.uleb128 0x2a
 2992 1400 510C0000 		.4byte	0xc51
 2993 1404 01       		.byte	0x1
 2994 1405 2A       		.uleb128 0x2a
 2995 1406 460C0000 		.4byte	0xc46
 2996 140a 00       		.byte	0
 2997 140b 2B       		.uleb128 0x2b
 2998 140c 3B0C0000 		.4byte	0xc3b
 2999 1410 5E060000 		.4byte	.LLST65
 3000 1414 2B       		.uleb128 0x2b
 3001 1415 300C0000 		.4byte	0xc30
 3002 1419 EF050000 		.4byte	.LLST62
 3003 141d 2C       		.uleb128 0x2c
 3004 141e 84010000 		.4byte	.LBB41
 3005 1422 1C000000 		.4byte	.LBE41-.LBB41
 3006 1426 2D       		.uleb128 0x2d
 3007 1427 A0010000 		.4byte	.LVL56
 3008 142b 6D140000 		.4byte	0x146d
 3009 142f 2E       		.uleb128 0x2e
ARM GAS  /tmp/ccMjFzvY.s 			page 54


 3010 1430 01       		.uleb128 0x1
 3011 1431 53       		.byte	0x53
 3012 1432 02       		.uleb128 0x2
 3013 1433 75       		.byte	0x75
 3014 1434 00       		.sleb128 0
 3015 1435 2E       		.uleb128 0x2e
 3016 1436 01       		.uleb128 0x1
 3017 1437 52       		.byte	0x52
 3018 1438 02       		.uleb128 0x2
 3019 1439 74       		.byte	0x74
 3020 143a 00       		.sleb128 0
 3021 143b 2E       		.uleb128 0x2e
 3022 143c 02       		.uleb128 0x2
 3023 143d 7D       		.byte	0x7d
 3024 143e 0C       		.sleb128 12
 3025 143f 02       		.uleb128 0x2
 3026 1440 74       		.byte	0x74
 3027 1441 00       		.sleb128 0
 3028 1442 2E       		.uleb128 0x2e
 3029 1443 02       		.uleb128 0x2
 3030 1444 7D       		.byte	0x7d
 3031 1445 08       		.sleb128 8
 3032 1446 07       		.uleb128 0x7
 3033 1447 F3       		.byte	0xf3
 3034 1448 01       		.uleb128 0x1
 3035 1449 52       		.byte	0x52
 3036 144a 0A       		.byte	0xa
 3037 144b FFFF     		.2byte	0xffff
 3038 144d 1A       		.byte	0x1a
 3039 144e 2E       		.uleb128 0x2e
 3040 144f 02       		.uleb128 0x2
 3041 1450 7D       		.byte	0x7d
 3042 1451 04       		.sleb128 4
 3043 1452 03       		.uleb128 0x3
 3044 1453 F3       		.byte	0xf3
 3045 1454 01       		.uleb128 0x1
 3046 1455 51       		.byte	0x51
 3047 1456 2E       		.uleb128 0x2e
 3048 1457 02       		.uleb128 0x2
 3049 1458 7D       		.byte	0x7d
 3050 1459 00       		.sleb128 0
 3051 145a 02       		.uleb128 0x2
 3052 145b 75       		.byte	0x75
 3053 145c 00       		.sleb128 0
 3054 145d 00       		.byte	0
 3055 145e 00       		.byte	0
 3056 145f 00       		.byte	0
 3057 1460 00       		.byte	0
 3058 1461 36       		.uleb128 0x36
 3059 1462 E4050000 		.4byte	.LASF222
 3060 1466 0B       		.byte	0xb
 3061 1467 DF07     		.2byte	0x7df
 3062 1469 F4000000 		.4byte	0xf4
 3063 146d 37       		.uleb128 0x37
 3064 146e EB0B0000 		.4byte	.LASF216
 3065 1472 02       		.byte	0x2
 3066 1473 F5       		.byte	0xf5
ARM GAS  /tmp/ccMjFzvY.s 			page 55


 3067 1474 89000000 		.4byte	0x89
 3068 1478 26       		.uleb128 0x26
 3069 1479 00       		.byte	0
 3070 147a 00       		.byte	0
 3071              		.section	.debug_abbrev,"",%progbits
 3072              	.Ldebug_abbrev0:
 3073 0000 01       		.uleb128 0x1
 3074 0001 11       		.uleb128 0x11
 3075 0002 01       		.byte	0x1
 3076 0003 25       		.uleb128 0x25
 3077 0004 0E       		.uleb128 0xe
 3078 0005 13       		.uleb128 0x13
 3079 0006 0B       		.uleb128 0xb
 3080 0007 03       		.uleb128 0x3
 3081 0008 0E       		.uleb128 0xe
 3082 0009 1B       		.uleb128 0x1b
 3083 000a 0E       		.uleb128 0xe
 3084 000b 11       		.uleb128 0x11
 3085 000c 01       		.uleb128 0x1
 3086 000d 12       		.uleb128 0x12
 3087 000e 06       		.uleb128 0x6
 3088 000f 10       		.uleb128 0x10
 3089 0010 17       		.uleb128 0x17
 3090 0011 00       		.byte	0
 3091 0012 00       		.byte	0
 3092 0013 02       		.uleb128 0x2
 3093 0014 24       		.uleb128 0x24
 3094 0015 00       		.byte	0
 3095 0016 0B       		.uleb128 0xb
 3096 0017 0B       		.uleb128 0xb
 3097 0018 3E       		.uleb128 0x3e
 3098 0019 0B       		.uleb128 0xb
 3099 001a 03       		.uleb128 0x3
 3100 001b 0E       		.uleb128 0xe
 3101 001c 00       		.byte	0
 3102 001d 00       		.byte	0
 3103 001e 03       		.uleb128 0x3
 3104 001f 16       		.uleb128 0x16
 3105 0020 00       		.byte	0
 3106 0021 03       		.uleb128 0x3
 3107 0022 0E       		.uleb128 0xe
 3108 0023 3A       		.uleb128 0x3a
 3109 0024 0B       		.uleb128 0xb
 3110 0025 3B       		.uleb128 0x3b
 3111 0026 0B       		.uleb128 0xb
 3112 0027 49       		.uleb128 0x49
 3113 0028 13       		.uleb128 0x13
 3114 0029 00       		.byte	0
 3115 002a 00       		.byte	0
 3116 002b 04       		.uleb128 0x4
 3117 002c 24       		.uleb128 0x24
 3118 002d 00       		.byte	0
 3119 002e 0B       		.uleb128 0xb
 3120 002f 0B       		.uleb128 0xb
 3121 0030 3E       		.uleb128 0x3e
 3122 0031 0B       		.uleb128 0xb
 3123 0032 03       		.uleb128 0x3
ARM GAS  /tmp/ccMjFzvY.s 			page 56


 3124 0033 08       		.uleb128 0x8
 3125 0034 00       		.byte	0
 3126 0035 00       		.byte	0
 3127 0036 05       		.uleb128 0x5
 3128 0037 35       		.uleb128 0x35
 3129 0038 00       		.byte	0
 3130 0039 49       		.uleb128 0x49
 3131 003a 13       		.uleb128 0x13
 3132 003b 00       		.byte	0
 3133 003c 00       		.byte	0
 3134 003d 06       		.uleb128 0x6
 3135 003e 01       		.uleb128 0x1
 3136 003f 01       		.byte	0x1
 3137 0040 49       		.uleb128 0x49
 3138 0041 13       		.uleb128 0x13
 3139 0042 01       		.uleb128 0x1
 3140 0043 13       		.uleb128 0x13
 3141 0044 00       		.byte	0
 3142 0045 00       		.byte	0
 3143 0046 07       		.uleb128 0x7
 3144 0047 21       		.uleb128 0x21
 3145 0048 00       		.byte	0
 3146 0049 49       		.uleb128 0x49
 3147 004a 13       		.uleb128 0x13
 3148 004b 2F       		.uleb128 0x2f
 3149 004c 0B       		.uleb128 0xb
 3150 004d 00       		.byte	0
 3151 004e 00       		.byte	0
 3152 004f 08       		.uleb128 0x8
 3153 0050 0F       		.uleb128 0xf
 3154 0051 00       		.byte	0
 3155 0052 0B       		.uleb128 0xb
 3156 0053 0B       		.uleb128 0xb
 3157 0054 00       		.byte	0
 3158 0055 00       		.byte	0
 3159 0056 09       		.uleb128 0x9
 3160 0057 0F       		.uleb128 0xf
 3161 0058 00       		.byte	0
 3162 0059 0B       		.uleb128 0xb
 3163 005a 0B       		.uleb128 0xb
 3164 005b 49       		.uleb128 0x49
 3165 005c 13       		.uleb128 0x13
 3166 005d 00       		.byte	0
 3167 005e 00       		.byte	0
 3168 005f 0A       		.uleb128 0xa
 3169 0060 26       		.uleb128 0x26
 3170 0061 00       		.byte	0
 3171 0062 49       		.uleb128 0x49
 3172 0063 13       		.uleb128 0x13
 3173 0064 00       		.byte	0
 3174 0065 00       		.byte	0
 3175 0066 0B       		.uleb128 0xb
 3176 0067 13       		.uleb128 0x13
 3177 0068 01       		.byte	0x1
 3178 0069 03       		.uleb128 0x3
 3179 006a 0E       		.uleb128 0xe
 3180 006b 0B       		.uleb128 0xb
ARM GAS  /tmp/ccMjFzvY.s 			page 57


 3181 006c 0B       		.uleb128 0xb
 3182 006d 3A       		.uleb128 0x3a
 3183 006e 0B       		.uleb128 0xb
 3184 006f 3B       		.uleb128 0x3b
 3185 0070 0B       		.uleb128 0xb
 3186 0071 01       		.uleb128 0x1
 3187 0072 13       		.uleb128 0x13
 3188 0073 00       		.byte	0
 3189 0074 00       		.byte	0
 3190 0075 0C       		.uleb128 0xc
 3191 0076 0D       		.uleb128 0xd
 3192 0077 00       		.byte	0
 3193 0078 03       		.uleb128 0x3
 3194 0079 0E       		.uleb128 0xe
 3195 007a 3A       		.uleb128 0x3a
 3196 007b 0B       		.uleb128 0xb
 3197 007c 3B       		.uleb128 0x3b
 3198 007d 0B       		.uleb128 0xb
 3199 007e 49       		.uleb128 0x49
 3200 007f 13       		.uleb128 0x13
 3201 0080 38       		.uleb128 0x38
 3202 0081 0B       		.uleb128 0xb
 3203 0082 00       		.byte	0
 3204 0083 00       		.byte	0
 3205 0084 0D       		.uleb128 0xd
 3206 0085 0D       		.uleb128 0xd
 3207 0086 00       		.byte	0
 3208 0087 03       		.uleb128 0x3
 3209 0088 08       		.uleb128 0x8
 3210 0089 3A       		.uleb128 0x3a
 3211 008a 0B       		.uleb128 0xb
 3212 008b 3B       		.uleb128 0x3b
 3213 008c 0B       		.uleb128 0xb
 3214 008d 49       		.uleb128 0x49
 3215 008e 13       		.uleb128 0x13
 3216 008f 38       		.uleb128 0x38
 3217 0090 0B       		.uleb128 0xb
 3218 0091 00       		.byte	0
 3219 0092 00       		.byte	0
 3220 0093 0E       		.uleb128 0xe
 3221 0094 13       		.uleb128 0x13
 3222 0095 01       		.byte	0x1
 3223 0096 0B       		.uleb128 0xb
 3224 0097 0B       		.uleb128 0xb
 3225 0098 3A       		.uleb128 0x3a
 3226 0099 0B       		.uleb128 0xb
 3227 009a 3B       		.uleb128 0x3b
 3228 009b 0B       		.uleb128 0xb
 3229 009c 01       		.uleb128 0x1
 3230 009d 13       		.uleb128 0x13
 3231 009e 00       		.byte	0
 3232 009f 00       		.byte	0
 3233 00a0 0F       		.uleb128 0xf
 3234 00a1 13       		.uleb128 0x13
 3235 00a2 01       		.byte	0x1
 3236 00a3 03       		.uleb128 0x3
 3237 00a4 0E       		.uleb128 0xe
ARM GAS  /tmp/ccMjFzvY.s 			page 58


 3238 00a5 0B       		.uleb128 0xb
 3239 00a6 0B       		.uleb128 0xb
 3240 00a7 3A       		.uleb128 0x3a
 3241 00a8 0B       		.uleb128 0xb
 3242 00a9 3B       		.uleb128 0x3b
 3243 00aa 05       		.uleb128 0x5
 3244 00ab 01       		.uleb128 0x1
 3245 00ac 13       		.uleb128 0x13
 3246 00ad 00       		.byte	0
 3247 00ae 00       		.byte	0
 3248 00af 10       		.uleb128 0x10
 3249 00b0 0D       		.uleb128 0xd
 3250 00b1 00       		.byte	0
 3251 00b2 03       		.uleb128 0x3
 3252 00b3 08       		.uleb128 0x8
 3253 00b4 3A       		.uleb128 0x3a
 3254 00b5 0B       		.uleb128 0xb
 3255 00b6 3B       		.uleb128 0x3b
 3256 00b7 05       		.uleb128 0x5
 3257 00b8 49       		.uleb128 0x49
 3258 00b9 13       		.uleb128 0x13
 3259 00ba 38       		.uleb128 0x38
 3260 00bb 0B       		.uleb128 0xb
 3261 00bc 00       		.byte	0
 3262 00bd 00       		.byte	0
 3263 00be 11       		.uleb128 0x11
 3264 00bf 17       		.uleb128 0x17
 3265 00c0 01       		.byte	0x1
 3266 00c1 0B       		.uleb128 0xb
 3267 00c2 0B       		.uleb128 0xb
 3268 00c3 3A       		.uleb128 0x3a
 3269 00c4 0B       		.uleb128 0xb
 3270 00c5 3B       		.uleb128 0x3b
 3271 00c6 0B       		.uleb128 0xb
 3272 00c7 01       		.uleb128 0x1
 3273 00c8 13       		.uleb128 0x13
 3274 00c9 00       		.byte	0
 3275 00ca 00       		.byte	0
 3276 00cb 12       		.uleb128 0x12
 3277 00cc 0D       		.uleb128 0xd
 3278 00cd 00       		.byte	0
 3279 00ce 03       		.uleb128 0x3
 3280 00cf 0E       		.uleb128 0xe
 3281 00d0 3A       		.uleb128 0x3a
 3282 00d1 0B       		.uleb128 0xb
 3283 00d2 3B       		.uleb128 0x3b
 3284 00d3 0B       		.uleb128 0xb
 3285 00d4 49       		.uleb128 0x49
 3286 00d5 13       		.uleb128 0x13
 3287 00d6 00       		.byte	0
 3288 00d7 00       		.byte	0
 3289 00d8 13       		.uleb128 0x13
 3290 00d9 13       		.uleb128 0x13
 3291 00da 01       		.byte	0x1
 3292 00db 03       		.uleb128 0x3
 3293 00dc 08       		.uleb128 0x8
 3294 00dd 0B       		.uleb128 0xb
ARM GAS  /tmp/ccMjFzvY.s 			page 59


 3295 00de 0B       		.uleb128 0xb
 3296 00df 3A       		.uleb128 0x3a
 3297 00e0 0B       		.uleb128 0xb
 3298 00e1 3B       		.uleb128 0x3b
 3299 00e2 0B       		.uleb128 0xb
 3300 00e3 01       		.uleb128 0x1
 3301 00e4 13       		.uleb128 0x13
 3302 00e5 00       		.byte	0
 3303 00e6 00       		.byte	0
 3304 00e7 14       		.uleb128 0x14
 3305 00e8 0D       		.uleb128 0xd
 3306 00e9 00       		.byte	0
 3307 00ea 03       		.uleb128 0x3
 3308 00eb 08       		.uleb128 0x8
 3309 00ec 3A       		.uleb128 0x3a
 3310 00ed 0B       		.uleb128 0xb
 3311 00ee 3B       		.uleb128 0x3b
 3312 00ef 0B       		.uleb128 0xb
 3313 00f0 49       		.uleb128 0x49
 3314 00f1 13       		.uleb128 0x13
 3315 00f2 00       		.byte	0
 3316 00f3 00       		.byte	0
 3317 00f4 15       		.uleb128 0x15
 3318 00f5 17       		.uleb128 0x17
 3319 00f6 01       		.byte	0x1
 3320 00f7 03       		.uleb128 0x3
 3321 00f8 0E       		.uleb128 0xe
 3322 00f9 0B       		.uleb128 0xb
 3323 00fa 0B       		.uleb128 0xb
 3324 00fb 3A       		.uleb128 0x3a
 3325 00fc 0B       		.uleb128 0xb
 3326 00fd 3B       		.uleb128 0x3b
 3327 00fe 0B       		.uleb128 0xb
 3328 00ff 01       		.uleb128 0x1
 3329 0100 13       		.uleb128 0x13
 3330 0101 00       		.byte	0
 3331 0102 00       		.byte	0
 3332 0103 16       		.uleb128 0x16
 3333 0104 16       		.uleb128 0x16
 3334 0105 00       		.byte	0
 3335 0106 03       		.uleb128 0x3
 3336 0107 0E       		.uleb128 0xe
 3337 0108 3A       		.uleb128 0x3a
 3338 0109 0B       		.uleb128 0xb
 3339 010a 3B       		.uleb128 0x3b
 3340 010b 05       		.uleb128 0x5
 3341 010c 49       		.uleb128 0x49
 3342 010d 13       		.uleb128 0x13
 3343 010e 00       		.byte	0
 3344 010f 00       		.byte	0
 3345 0110 17       		.uleb128 0x17
 3346 0111 0D       		.uleb128 0xd
 3347 0112 00       		.byte	0
 3348 0113 03       		.uleb128 0x3
 3349 0114 0E       		.uleb128 0xe
 3350 0115 3A       		.uleb128 0x3a
 3351 0116 0B       		.uleb128 0xb
ARM GAS  /tmp/ccMjFzvY.s 			page 60


 3352 0117 3B       		.uleb128 0x3b
 3353 0118 05       		.uleb128 0x5
 3354 0119 49       		.uleb128 0x49
 3355 011a 13       		.uleb128 0x13
 3356 011b 38       		.uleb128 0x38
 3357 011c 0B       		.uleb128 0xb
 3358 011d 00       		.byte	0
 3359 011e 00       		.byte	0
 3360 011f 18       		.uleb128 0x18
 3361 0120 13       		.uleb128 0x13
 3362 0121 01       		.byte	0x1
 3363 0122 03       		.uleb128 0x3
 3364 0123 0E       		.uleb128 0xe
 3365 0124 0B       		.uleb128 0xb
 3366 0125 05       		.uleb128 0x5
 3367 0126 3A       		.uleb128 0x3a
 3368 0127 0B       		.uleb128 0xb
 3369 0128 3B       		.uleb128 0x3b
 3370 0129 05       		.uleb128 0x5
 3371 012a 01       		.uleb128 0x1
 3372 012b 13       		.uleb128 0x13
 3373 012c 00       		.byte	0
 3374 012d 00       		.byte	0
 3375 012e 19       		.uleb128 0x19
 3376 012f 04       		.uleb128 0x4
 3377 0130 01       		.byte	0x1
 3378 0131 0B       		.uleb128 0xb
 3379 0132 0B       		.uleb128 0xb
 3380 0133 3A       		.uleb128 0x3a
 3381 0134 0B       		.uleb128 0xb
 3382 0135 3B       		.uleb128 0x3b
 3383 0136 05       		.uleb128 0x5
 3384 0137 01       		.uleb128 0x1
 3385 0138 13       		.uleb128 0x13
 3386 0139 00       		.byte	0
 3387 013a 00       		.byte	0
 3388 013b 1A       		.uleb128 0x1a
 3389 013c 28       		.uleb128 0x28
 3390 013d 00       		.byte	0
 3391 013e 03       		.uleb128 0x3
 3392 013f 0E       		.uleb128 0xe
 3393 0140 1C       		.uleb128 0x1c
 3394 0141 0D       		.uleb128 0xd
 3395 0142 00       		.byte	0
 3396 0143 00       		.byte	0
 3397 0144 1B       		.uleb128 0x1b
 3398 0145 13       		.uleb128 0x13
 3399 0146 01       		.byte	0x1
 3400 0147 0B       		.uleb128 0xb
 3401 0148 0B       		.uleb128 0xb
 3402 0149 3A       		.uleb128 0x3a
 3403 014a 0B       		.uleb128 0xb
 3404 014b 3B       		.uleb128 0x3b
 3405 014c 05       		.uleb128 0x5
 3406 014d 01       		.uleb128 0x1
 3407 014e 13       		.uleb128 0x13
 3408 014f 00       		.byte	0
ARM GAS  /tmp/ccMjFzvY.s 			page 61


 3409 0150 00       		.byte	0
 3410 0151 1C       		.uleb128 0x1c
 3411 0152 13       		.uleb128 0x13
 3412 0153 01       		.byte	0x1
 3413 0154 0B       		.uleb128 0xb
 3414 0155 05       		.uleb128 0x5
 3415 0156 3A       		.uleb128 0x3a
 3416 0157 0B       		.uleb128 0xb
 3417 0158 3B       		.uleb128 0x3b
 3418 0159 05       		.uleb128 0x5
 3419 015a 01       		.uleb128 0x1
 3420 015b 13       		.uleb128 0x13
 3421 015c 00       		.byte	0
 3422 015d 00       		.byte	0
 3423 015e 1D       		.uleb128 0x1d
 3424 015f 0D       		.uleb128 0xd
 3425 0160 00       		.byte	0
 3426 0161 03       		.uleb128 0x3
 3427 0162 0E       		.uleb128 0xe
 3428 0163 3A       		.uleb128 0x3a
 3429 0164 0B       		.uleb128 0xb
 3430 0165 3B       		.uleb128 0x3b
 3431 0166 05       		.uleb128 0x5
 3432 0167 49       		.uleb128 0x49
 3433 0168 13       		.uleb128 0x13
 3434 0169 38       		.uleb128 0x38
 3435 016a 05       		.uleb128 0x5
 3436 016b 00       		.byte	0
 3437 016c 00       		.byte	0
 3438 016d 1E       		.uleb128 0x1e
 3439 016e 21       		.uleb128 0x21
 3440 016f 00       		.byte	0
 3441 0170 49       		.uleb128 0x49
 3442 0171 13       		.uleb128 0x13
 3443 0172 2F       		.uleb128 0x2f
 3444 0173 05       		.uleb128 0x5
 3445 0174 00       		.byte	0
 3446 0175 00       		.byte	0
 3447 0176 1F       		.uleb128 0x1f
 3448 0177 15       		.uleb128 0x15
 3449 0178 01       		.byte	0x1
 3450 0179 27       		.uleb128 0x27
 3451 017a 19       		.uleb128 0x19
 3452 017b 49       		.uleb128 0x49
 3453 017c 13       		.uleb128 0x13
 3454 017d 01       		.uleb128 0x1
 3455 017e 13       		.uleb128 0x13
 3456 017f 00       		.byte	0
 3457 0180 00       		.byte	0
 3458 0181 20       		.uleb128 0x20
 3459 0182 05       		.uleb128 0x5
 3460 0183 00       		.byte	0
 3461 0184 49       		.uleb128 0x49
 3462 0185 13       		.uleb128 0x13
 3463 0186 00       		.byte	0
 3464 0187 00       		.byte	0
 3465 0188 21       		.uleb128 0x21
ARM GAS  /tmp/ccMjFzvY.s 			page 62


 3466 0189 0D       		.uleb128 0xd
 3467 018a 00       		.byte	0
 3468 018b 03       		.uleb128 0x3
 3469 018c 08       		.uleb128 0x8
 3470 018d 3A       		.uleb128 0x3a
 3471 018e 0B       		.uleb128 0xb
 3472 018f 3B       		.uleb128 0x3b
 3473 0190 05       		.uleb128 0x5
 3474 0191 49       		.uleb128 0x49
 3475 0192 13       		.uleb128 0x13
 3476 0193 38       		.uleb128 0x38
 3477 0194 05       		.uleb128 0x5
 3478 0195 00       		.byte	0
 3479 0196 00       		.byte	0
 3480 0197 22       		.uleb128 0x22
 3481 0198 15       		.uleb128 0x15
 3482 0199 01       		.byte	0x1
 3483 019a 27       		.uleb128 0x27
 3484 019b 19       		.uleb128 0x19
 3485 019c 01       		.uleb128 0x1
 3486 019d 13       		.uleb128 0x13
 3487 019e 00       		.byte	0
 3488 019f 00       		.byte	0
 3489 01a0 23       		.uleb128 0x23
 3490 01a1 2E       		.uleb128 0x2e
 3491 01a2 01       		.byte	0x1
 3492 01a3 03       		.uleb128 0x3
 3493 01a4 0E       		.uleb128 0xe
 3494 01a5 3A       		.uleb128 0x3a
 3495 01a6 0B       		.uleb128 0xb
 3496 01a7 3B       		.uleb128 0x3b
 3497 01a8 0B       		.uleb128 0xb
 3498 01a9 27       		.uleb128 0x27
 3499 01aa 19       		.uleb128 0x19
 3500 01ab 49       		.uleb128 0x49
 3501 01ac 13       		.uleb128 0x13
 3502 01ad 20       		.uleb128 0x20
 3503 01ae 0B       		.uleb128 0xb
 3504 01af 01       		.uleb128 0x1
 3505 01b0 13       		.uleb128 0x13
 3506 01b1 00       		.byte	0
 3507 01b2 00       		.byte	0
 3508 01b3 24       		.uleb128 0x24
 3509 01b4 05       		.uleb128 0x5
 3510 01b5 00       		.byte	0
 3511 01b6 03       		.uleb128 0x3
 3512 01b7 0E       		.uleb128 0xe
 3513 01b8 3A       		.uleb128 0x3a
 3514 01b9 0B       		.uleb128 0xb
 3515 01ba 3B       		.uleb128 0x3b
 3516 01bb 0B       		.uleb128 0xb
 3517 01bc 49       		.uleb128 0x49
 3518 01bd 13       		.uleb128 0x13
 3519 01be 00       		.byte	0
 3520 01bf 00       		.byte	0
 3521 01c0 25       		.uleb128 0x25
 3522 01c1 2E       		.uleb128 0x2e
ARM GAS  /tmp/ccMjFzvY.s 			page 63


 3523 01c2 01       		.byte	0x1
 3524 01c3 3F       		.uleb128 0x3f
 3525 01c4 19       		.uleb128 0x19
 3526 01c5 03       		.uleb128 0x3
 3527 01c6 0E       		.uleb128 0xe
 3528 01c7 3A       		.uleb128 0x3a
 3529 01c8 0B       		.uleb128 0xb
 3530 01c9 3B       		.uleb128 0x3b
 3531 01ca 0B       		.uleb128 0xb
 3532 01cb 49       		.uleb128 0x49
 3533 01cc 13       		.uleb128 0x13
 3534 01cd 20       		.uleb128 0x20
 3535 01ce 0B       		.uleb128 0xb
 3536 01cf 00       		.byte	0
 3537 01d0 00       		.byte	0
 3538 01d1 26       		.uleb128 0x26
 3539 01d2 18       		.uleb128 0x18
 3540 01d3 00       		.byte	0
 3541 01d4 00       		.byte	0
 3542 01d5 00       		.byte	0
 3543 01d6 27       		.uleb128 0x27
 3544 01d7 2E       		.uleb128 0x2e
 3545 01d8 01       		.byte	0x1
 3546 01d9 3F       		.uleb128 0x3f
 3547 01da 19       		.uleb128 0x19
 3548 01db 03       		.uleb128 0x3
 3549 01dc 0E       		.uleb128 0xe
 3550 01dd 3A       		.uleb128 0x3a
 3551 01de 0B       		.uleb128 0xb
 3552 01df 3B       		.uleb128 0x3b
 3553 01e0 0B       		.uleb128 0xb
 3554 01e1 27       		.uleb128 0x27
 3555 01e2 19       		.uleb128 0x19
 3556 01e3 49       		.uleb128 0x49
 3557 01e4 13       		.uleb128 0x13
 3558 01e5 11       		.uleb128 0x11
 3559 01e6 01       		.uleb128 0x1
 3560 01e7 12       		.uleb128 0x12
 3561 01e8 06       		.uleb128 0x6
 3562 01e9 40       		.uleb128 0x40
 3563 01ea 18       		.uleb128 0x18
 3564 01eb 9742     		.uleb128 0x2117
 3565 01ed 19       		.uleb128 0x19
 3566 01ee 01       		.uleb128 0x1
 3567 01ef 13       		.uleb128 0x13
 3568 01f0 00       		.byte	0
 3569 01f1 00       		.byte	0
 3570 01f2 28       		.uleb128 0x28
 3571 01f3 05       		.uleb128 0x5
 3572 01f4 00       		.byte	0
 3573 01f5 03       		.uleb128 0x3
 3574 01f6 0E       		.uleb128 0xe
 3575 01f7 3A       		.uleb128 0x3a
 3576 01f8 0B       		.uleb128 0xb
 3577 01f9 3B       		.uleb128 0x3b
 3578 01fa 0B       		.uleb128 0xb
 3579 01fb 49       		.uleb128 0x49
ARM GAS  /tmp/ccMjFzvY.s 			page 64


 3580 01fc 13       		.uleb128 0x13
 3581 01fd 02       		.uleb128 0x2
 3582 01fe 17       		.uleb128 0x17
 3583 01ff 00       		.byte	0
 3584 0200 00       		.byte	0
 3585 0201 29       		.uleb128 0x29
 3586 0202 1D       		.uleb128 0x1d
 3587 0203 01       		.byte	0x1
 3588 0204 31       		.uleb128 0x31
 3589 0205 13       		.uleb128 0x13
 3590 0206 11       		.uleb128 0x11
 3591 0207 01       		.uleb128 0x1
 3592 0208 12       		.uleb128 0x12
 3593 0209 06       		.uleb128 0x6
 3594 020a 58       		.uleb128 0x58
 3595 020b 0B       		.uleb128 0xb
 3596 020c 59       		.uleb128 0x59
 3597 020d 0B       		.uleb128 0xb
 3598 020e 00       		.byte	0
 3599 020f 00       		.byte	0
 3600 0210 2A       		.uleb128 0x2a
 3601 0211 05       		.uleb128 0x5
 3602 0212 00       		.byte	0
 3603 0213 31       		.uleb128 0x31
 3604 0214 13       		.uleb128 0x13
 3605 0215 1C       		.uleb128 0x1c
 3606 0216 0B       		.uleb128 0xb
 3607 0217 00       		.byte	0
 3608 0218 00       		.byte	0
 3609 0219 2B       		.uleb128 0x2b
 3610 021a 05       		.uleb128 0x5
 3611 021b 00       		.byte	0
 3612 021c 31       		.uleb128 0x31
 3613 021d 13       		.uleb128 0x13
 3614 021e 02       		.uleb128 0x2
 3615 021f 17       		.uleb128 0x17
 3616 0220 00       		.byte	0
 3617 0221 00       		.byte	0
 3618 0222 2C       		.uleb128 0x2c
 3619 0223 0B       		.uleb128 0xb
 3620 0224 01       		.byte	0x1
 3621 0225 11       		.uleb128 0x11
 3622 0226 01       		.uleb128 0x1
 3623 0227 12       		.uleb128 0x12
 3624 0228 06       		.uleb128 0x6
 3625 0229 00       		.byte	0
 3626 022a 00       		.byte	0
 3627 022b 2D       		.uleb128 0x2d
 3628 022c 898201   		.uleb128 0x4109
 3629 022f 01       		.byte	0x1
 3630 0230 11       		.uleb128 0x11
 3631 0231 01       		.uleb128 0x1
 3632 0232 31       		.uleb128 0x31
 3633 0233 13       		.uleb128 0x13
 3634 0234 00       		.byte	0
 3635 0235 00       		.byte	0
 3636 0236 2E       		.uleb128 0x2e
ARM GAS  /tmp/ccMjFzvY.s 			page 65


 3637 0237 8A8201   		.uleb128 0x410a
 3638 023a 00       		.byte	0
 3639 023b 02       		.uleb128 0x2
 3640 023c 18       		.uleb128 0x18
 3641 023d 9142     		.uleb128 0x2111
 3642 023f 18       		.uleb128 0x18
 3643 0240 00       		.byte	0
 3644 0241 00       		.byte	0
 3645 0242 2F       		.uleb128 0x2f
 3646 0243 1D       		.uleb128 0x1d
 3647 0244 01       		.byte	0x1
 3648 0245 31       		.uleb128 0x31
 3649 0246 13       		.uleb128 0x13
 3650 0247 52       		.uleb128 0x52
 3651 0248 01       		.uleb128 0x1
 3652 0249 55       		.uleb128 0x55
 3653 024a 17       		.uleb128 0x17
 3654 024b 58       		.uleb128 0x58
 3655 024c 0B       		.uleb128 0xb
 3656 024d 59       		.uleb128 0x59
 3657 024e 0B       		.uleb128 0xb
 3658 024f 00       		.byte	0
 3659 0250 00       		.byte	0
 3660 0251 30       		.uleb128 0x30
 3661 0252 05       		.uleb128 0x5
 3662 0253 00       		.byte	0
 3663 0254 31       		.uleb128 0x31
 3664 0255 13       		.uleb128 0x13
 3665 0256 00       		.byte	0
 3666 0257 00       		.byte	0
 3667 0258 31       		.uleb128 0x31
 3668 0259 05       		.uleb128 0x5
 3669 025a 00       		.byte	0
 3670 025b 31       		.uleb128 0x31
 3671 025c 13       		.uleb128 0x13
 3672 025d 02       		.uleb128 0x2
 3673 025e 18       		.uleb128 0x18
 3674 025f 00       		.byte	0
 3675 0260 00       		.byte	0
 3676 0261 32       		.uleb128 0x32
 3677 0262 0B       		.uleb128 0xb
 3678 0263 01       		.byte	0x1
 3679 0264 55       		.uleb128 0x55
 3680 0265 17       		.uleb128 0x17
 3681 0266 00       		.byte	0
 3682 0267 00       		.byte	0
 3683 0268 33       		.uleb128 0x33
 3684 0269 2E       		.uleb128 0x2e
 3685 026a 01       		.byte	0x1
 3686 026b 3F       		.uleb128 0x3f
 3687 026c 19       		.uleb128 0x19
 3688 026d 03       		.uleb128 0x3
 3689 026e 0E       		.uleb128 0xe
 3690 026f 3A       		.uleb128 0x3a
 3691 0270 0B       		.uleb128 0xb
 3692 0271 3B       		.uleb128 0x3b
 3693 0272 05       		.uleb128 0x5
ARM GAS  /tmp/ccMjFzvY.s 			page 66


 3694 0273 27       		.uleb128 0x27
 3695 0274 19       		.uleb128 0x19
 3696 0275 49       		.uleb128 0x49
 3697 0276 13       		.uleb128 0x13
 3698 0277 11       		.uleb128 0x11
 3699 0278 01       		.uleb128 0x1
 3700 0279 12       		.uleb128 0x12
 3701 027a 06       		.uleb128 0x6
 3702 027b 40       		.uleb128 0x40
 3703 027c 18       		.uleb128 0x18
 3704 027d 9742     		.uleb128 0x2117
 3705 027f 19       		.uleb128 0x19
 3706 0280 01       		.uleb128 0x1
 3707 0281 13       		.uleb128 0x13
 3708 0282 00       		.byte	0
 3709 0283 00       		.byte	0
 3710 0284 34       		.uleb128 0x34
 3711 0285 05       		.uleb128 0x5
 3712 0286 00       		.byte	0
 3713 0287 03       		.uleb128 0x3
 3714 0288 0E       		.uleb128 0xe
 3715 0289 3A       		.uleb128 0x3a
 3716 028a 0B       		.uleb128 0xb
 3717 028b 3B       		.uleb128 0x3b
 3718 028c 05       		.uleb128 0x5
 3719 028d 49       		.uleb128 0x49
 3720 028e 13       		.uleb128 0x13
 3721 028f 02       		.uleb128 0x2
 3722 0290 17       		.uleb128 0x17
 3723 0291 00       		.byte	0
 3724 0292 00       		.byte	0
 3725 0293 35       		.uleb128 0x35
 3726 0294 1D       		.uleb128 0x1d
 3727 0295 01       		.byte	0x1
 3728 0296 31       		.uleb128 0x31
 3729 0297 13       		.uleb128 0x13
 3730 0298 11       		.uleb128 0x11
 3731 0299 01       		.uleb128 0x1
 3732 029a 12       		.uleb128 0x12
 3733 029b 06       		.uleb128 0x6
 3734 029c 58       		.uleb128 0x58
 3735 029d 0B       		.uleb128 0xb
 3736 029e 59       		.uleb128 0x59
 3737 029f 05       		.uleb128 0x5
 3738 02a0 00       		.byte	0
 3739 02a1 00       		.byte	0
 3740 02a2 36       		.uleb128 0x36
 3741 02a3 34       		.uleb128 0x34
 3742 02a4 00       		.byte	0
 3743 02a5 03       		.uleb128 0x3
 3744 02a6 0E       		.uleb128 0xe
 3745 02a7 3A       		.uleb128 0x3a
 3746 02a8 0B       		.uleb128 0xb
 3747 02a9 3B       		.uleb128 0x3b
 3748 02aa 05       		.uleb128 0x5
 3749 02ab 49       		.uleb128 0x49
 3750 02ac 13       		.uleb128 0x13
ARM GAS  /tmp/ccMjFzvY.s 			page 67


 3751 02ad 3F       		.uleb128 0x3f
 3752 02ae 19       		.uleb128 0x19
 3753 02af 3C       		.uleb128 0x3c
 3754 02b0 19       		.uleb128 0x19
 3755 02b1 00       		.byte	0
 3756 02b2 00       		.byte	0
 3757 02b3 37       		.uleb128 0x37
 3758 02b4 2E       		.uleb128 0x2e
 3759 02b5 01       		.byte	0x1
 3760 02b6 3F       		.uleb128 0x3f
 3761 02b7 19       		.uleb128 0x19
 3762 02b8 03       		.uleb128 0x3
 3763 02b9 0E       		.uleb128 0xe
 3764 02ba 3A       		.uleb128 0x3a
 3765 02bb 0B       		.uleb128 0xb
 3766 02bc 3B       		.uleb128 0x3b
 3767 02bd 0B       		.uleb128 0xb
 3768 02be 49       		.uleb128 0x49
 3769 02bf 13       		.uleb128 0x13
 3770 02c0 3C       		.uleb128 0x3c
 3771 02c1 19       		.uleb128 0x19
 3772 02c2 00       		.byte	0
 3773 02c3 00       		.byte	0
 3774 02c4 00       		.byte	0
 3775              		.section	.debug_loc,"",%progbits
 3776              	.Ldebug_loc0:
 3777              	.LLST0:
 3778 0000 00000000 		.4byte	.LVL0-.Ltext0
 3779 0004 0C000000 		.4byte	.LVL1-.Ltext0
 3780 0008 0100     		.2byte	0x1
 3781 000a 50       		.byte	0x50
 3782 000b 0C000000 		.4byte	.LVL1-.Ltext0
 3783 000f 24000000 		.4byte	.LFE133-.Ltext0
 3784 0013 0400     		.2byte	0x4
 3785 0015 F3       		.byte	0xf3
 3786 0016 01       		.uleb128 0x1
 3787 0017 50       		.byte	0x50
 3788 0018 9F       		.byte	0x9f
 3789 0019 00000000 		.4byte	0
 3790 001d 00000000 		.4byte	0
 3791              	.LLST1:
 3792 0021 00000000 		.4byte	.LVL0-.Ltext0
 3793 0025 12000000 		.4byte	.LVL2-.Ltext0
 3794 0029 0100     		.2byte	0x1
 3795 002b 51       		.byte	0x51
 3796 002c 12000000 		.4byte	.LVL2-.Ltext0
 3797 0030 1D000000 		.4byte	.LVL4-1-.Ltext0
 3798 0034 0200     		.2byte	0x2
 3799 0036 91       		.byte	0x91
 3800 0037 64       		.sleb128 -28
 3801 0038 1D000000 		.4byte	.LVL4-1-.Ltext0
 3802 003c 24000000 		.4byte	.LFE133-.Ltext0
 3803 0040 0400     		.2byte	0x4
 3804 0042 F3       		.byte	0xf3
 3805 0043 01       		.uleb128 0x1
 3806 0044 51       		.byte	0x51
 3807 0045 9F       		.byte	0x9f
ARM GAS  /tmp/ccMjFzvY.s 			page 68


 3808 0046 00000000 		.4byte	0
 3809 004a 00000000 		.4byte	0
 3810              	.LLST2:
 3811 004e 00000000 		.4byte	.LVL0-.Ltext0
 3812 0052 16000000 		.4byte	.LVL3-.Ltext0
 3813 0056 0100     		.2byte	0x1
 3814 0058 52       		.byte	0x52
 3815 0059 16000000 		.4byte	.LVL3-.Ltext0
 3816 005d 24000000 		.4byte	.LFE133-.Ltext0
 3817 0061 0400     		.2byte	0x4
 3818 0063 F3       		.byte	0xf3
 3819 0064 01       		.uleb128 0x1
 3820 0065 52       		.byte	0x52
 3821 0066 9F       		.byte	0x9f
 3822 0067 00000000 		.4byte	0
 3823 006b 00000000 		.4byte	0
 3824              	.LLST6:
 3825 006f 30000000 		.4byte	.LVL5-.Ltext0
 3826 0073 3A000000 		.4byte	.LVL6-.Ltext0
 3827 0077 0100     		.2byte	0x1
 3828 0079 50       		.byte	0x50
 3829 007a 3A000000 		.4byte	.LVL6-.Ltext0
 3830 007e 60000000 		.4byte	.LFE134-.Ltext0
 3831 0082 0400     		.2byte	0x4
 3832 0084 F3       		.byte	0xf3
 3833 0085 01       		.uleb128 0x1
 3834 0086 50       		.byte	0x50
 3835 0087 9F       		.byte	0x9f
 3836 0088 00000000 		.4byte	0
 3837 008c 00000000 		.4byte	0
 3838              	.LLST7:
 3839 0090 30000000 		.4byte	.LVL5-.Ltext0
 3840 0094 52000000 		.4byte	.LVL9-.Ltext0
 3841 0098 0100     		.2byte	0x1
 3842 009a 51       		.byte	0x51
 3843 009b 52000000 		.4byte	.LVL9-.Ltext0
 3844 009f 59000000 		.4byte	.LVL11-1-.Ltext0
 3845 00a3 0200     		.2byte	0x2
 3846 00a5 91       		.byte	0x91
 3847 00a6 64       		.sleb128 -28
 3848 00a7 59000000 		.4byte	.LVL11-1-.Ltext0
 3849 00ab 60000000 		.4byte	.LFE134-.Ltext0
 3850 00af 0400     		.2byte	0x4
 3851 00b1 F3       		.byte	0xf3
 3852 00b2 01       		.uleb128 0x1
 3853 00b3 51       		.byte	0x51
 3854 00b4 9F       		.byte	0x9f
 3855 00b5 00000000 		.4byte	0
 3856 00b9 00000000 		.4byte	0
 3857              	.LLST8:
 3858 00bd 30000000 		.4byte	.LVL5-.Ltext0
 3859 00c1 4A000000 		.4byte	.LVL8-.Ltext0
 3860 00c5 0100     		.2byte	0x1
 3861 00c7 52       		.byte	0x52
 3862 00c8 4A000000 		.4byte	.LVL8-.Ltext0
 3863 00cc 60000000 		.4byte	.LFE134-.Ltext0
 3864 00d0 0400     		.2byte	0x4
ARM GAS  /tmp/ccMjFzvY.s 			page 69


 3865 00d2 F3       		.byte	0xf3
 3866 00d3 01       		.uleb128 0x1
 3867 00d4 52       		.byte	0x52
 3868 00d5 9F       		.byte	0x9f
 3869 00d6 00000000 		.4byte	0
 3870 00da 00000000 		.4byte	0
 3871              	.LLST9:
 3872 00de 30000000 		.4byte	.LVL5-.Ltext0
 3873 00e2 56000000 		.4byte	.LVL10-.Ltext0
 3874 00e6 0100     		.2byte	0x1
 3875 00e8 53       		.byte	0x53
 3876 00e9 56000000 		.4byte	.LVL10-.Ltext0
 3877 00ed 60000000 		.4byte	.LFE134-.Ltext0
 3878 00f1 0400     		.2byte	0x4
 3879 00f3 F3       		.byte	0xf3
 3880 00f4 01       		.uleb128 0x1
 3881 00f5 53       		.byte	0x53
 3882 00f6 9F       		.byte	0x9f
 3883 00f7 00000000 		.4byte	0
 3884 00fb 00000000 		.4byte	0
 3885              	.LLST10:
 3886 00ff 30000000 		.4byte	.LVL5-.Ltext0
 3887 0103 48000000 		.4byte	.LVL7-.Ltext0
 3888 0107 0200     		.2byte	0x2
 3889 0109 91       		.byte	0x91
 3890 010a 00       		.sleb128 0
 3891 010b 00000000 		.4byte	0
 3892 010f 00000000 		.4byte	0
 3893              	.LLST11:
 3894 0113 48000000 		.4byte	.LVL7-.Ltext0
 3895 0117 4A000000 		.4byte	.LVL8-.Ltext0
 3896 011b 0100     		.2byte	0x1
 3897 011d 52       		.byte	0x52
 3898 011e 4A000000 		.4byte	.LVL8-.Ltext0
 3899 0122 60000000 		.4byte	.LFE134-.Ltext0
 3900 0126 0400     		.2byte	0x4
 3901 0128 F3       		.byte	0xf3
 3902 0129 01       		.uleb128 0x1
 3903 012a 52       		.byte	0x52
 3904 012b 9F       		.byte	0x9f
 3905 012c 00000000 		.4byte	0
 3906 0130 00000000 		.4byte	0
 3907              	.LLST12:
 3908 0134 48000000 		.4byte	.LVL7-.Ltext0
 3909 0138 52000000 		.4byte	.LVL9-.Ltext0
 3910 013c 0100     		.2byte	0x1
 3911 013e 51       		.byte	0x51
 3912 013f 52000000 		.4byte	.LVL9-.Ltext0
 3913 0143 59000000 		.4byte	.LVL11-1-.Ltext0
 3914 0147 0200     		.2byte	0x2
 3915 0149 91       		.byte	0x91
 3916 014a 64       		.sleb128 -28
 3917 014b 59000000 		.4byte	.LVL11-1-.Ltext0
 3918 014f 60000000 		.4byte	.LFE134-.Ltext0
 3919 0153 0400     		.2byte	0x4
 3920 0155 F3       		.byte	0xf3
 3921 0156 01       		.uleb128 0x1
ARM GAS  /tmp/ccMjFzvY.s 			page 70


 3922 0157 51       		.byte	0x51
 3923 0158 9F       		.byte	0x9f
 3924 0159 00000000 		.4byte	0
 3925 015d 00000000 		.4byte	0
 3926              	.LLST13:
 3927 0161 48000000 		.4byte	.LVL7-.Ltext0
 3928 0165 56000000 		.4byte	.LVL10-.Ltext0
 3929 0169 0100     		.2byte	0x1
 3930 016b 53       		.byte	0x53
 3931 016c 56000000 		.4byte	.LVL10-.Ltext0
 3932 0170 60000000 		.4byte	.LFE134-.Ltext0
 3933 0174 0400     		.2byte	0x4
 3934 0176 F3       		.byte	0xf3
 3935 0177 01       		.uleb128 0x1
 3936 0178 53       		.byte	0x53
 3937 0179 9F       		.byte	0x9f
 3938 017a 00000000 		.4byte	0
 3939 017e 00000000 		.4byte	0
 3940              	.LLST14:
 3941 0182 60000000 		.4byte	.LVL12-.Ltext0
 3942 0186 6C000000 		.4byte	.LVL13-.Ltext0
 3943 018a 0100     		.2byte	0x1
 3944 018c 50       		.byte	0x50
 3945 018d 6C000000 		.4byte	.LVL13-.Ltext0
 3946 0191 84000000 		.4byte	.LFE135-.Ltext0
 3947 0195 0400     		.2byte	0x4
 3948 0197 F3       		.byte	0xf3
 3949 0198 01       		.uleb128 0x1
 3950 0199 50       		.byte	0x50
 3951 019a 9F       		.byte	0x9f
 3952 019b 00000000 		.4byte	0
 3953 019f 00000000 		.4byte	0
 3954              	.LLST15:
 3955 01a3 60000000 		.4byte	.LVL12-.Ltext0
 3956 01a7 72000000 		.4byte	.LVL14-.Ltext0
 3957 01ab 0100     		.2byte	0x1
 3958 01ad 51       		.byte	0x51
 3959 01ae 72000000 		.4byte	.LVL14-.Ltext0
 3960 01b2 7D000000 		.4byte	.LVL17-1-.Ltext0
 3961 01b6 0200     		.2byte	0x2
 3962 01b8 91       		.byte	0x91
 3963 01b9 64       		.sleb128 -28
 3964 01ba 7D000000 		.4byte	.LVL17-1-.Ltext0
 3965 01be 84000000 		.4byte	.LFE135-.Ltext0
 3966 01c2 0400     		.2byte	0x4
 3967 01c4 F3       		.byte	0xf3
 3968 01c5 01       		.uleb128 0x1
 3969 01c6 51       		.byte	0x51
 3970 01c7 9F       		.byte	0x9f
 3971 01c8 00000000 		.4byte	0
 3972 01cc 00000000 		.4byte	0
 3973              	.LLST16:
 3974 01d0 60000000 		.4byte	.LVL12-.Ltext0
 3975 01d4 76000000 		.4byte	.LVL15-.Ltext0
 3976 01d8 0100     		.2byte	0x1
 3977 01da 52       		.byte	0x52
 3978 01db 76000000 		.4byte	.LVL15-.Ltext0
ARM GAS  /tmp/ccMjFzvY.s 			page 71


 3979 01df 84000000 		.4byte	.LFE135-.Ltext0
 3980 01e3 0400     		.2byte	0x4
 3981 01e5 F3       		.byte	0xf3
 3982 01e6 01       		.uleb128 0x1
 3983 01e7 52       		.byte	0x52
 3984 01e8 9F       		.byte	0x9f
 3985 01e9 00000000 		.4byte	0
 3986 01ed 00000000 		.4byte	0
 3987              	.LLST17:
 3988 01f1 60000000 		.4byte	.LVL12-.Ltext0
 3989 01f5 7A000000 		.4byte	.LVL16-.Ltext0
 3990 01f9 0100     		.2byte	0x1
 3991 01fb 53       		.byte	0x53
 3992 01fc 7A000000 		.4byte	.LVL16-.Ltext0
 3993 0200 84000000 		.4byte	.LFE135-.Ltext0
 3994 0204 0400     		.2byte	0x4
 3995 0206 F3       		.byte	0xf3
 3996 0207 01       		.uleb128 0x1
 3997 0208 53       		.byte	0x53
 3998 0209 9F       		.byte	0x9f
 3999 020a 00000000 		.4byte	0
 4000 020e 00000000 		.4byte	0
 4001              	.LLST22:
 4002 0212 90000000 		.4byte	.LVL18-.Ltext0
 4003 0216 9A000000 		.4byte	.LVL19-.Ltext0
 4004 021a 0100     		.2byte	0x1
 4005 021c 50       		.byte	0x50
 4006 021d 9A000000 		.4byte	.LVL19-.Ltext0
 4007 0221 C0000000 		.4byte	.LFE136-.Ltext0
 4008 0225 0400     		.2byte	0x4
 4009 0227 F3       		.byte	0xf3
 4010 0228 01       		.uleb128 0x1
 4011 0229 50       		.byte	0x50
 4012 022a 9F       		.byte	0x9f
 4013 022b 00000000 		.4byte	0
 4014 022f 00000000 		.4byte	0
 4015              	.LLST23:
 4016 0233 90000000 		.4byte	.LVL18-.Ltext0
 4017 0237 AE000000 		.4byte	.LVL21-.Ltext0
 4018 023b 0100     		.2byte	0x1
 4019 023d 51       		.byte	0x51
 4020 023e AE000000 		.4byte	.LVL21-.Ltext0
 4021 0242 B9000000 		.4byte	.LVL24-1-.Ltext0
 4022 0246 0200     		.2byte	0x2
 4023 0248 91       		.byte	0x91
 4024 0249 64       		.sleb128 -28
 4025 024a B9000000 		.4byte	.LVL24-1-.Ltext0
 4026 024e C0000000 		.4byte	.LFE136-.Ltext0
 4027 0252 0400     		.2byte	0x4
 4028 0254 F3       		.byte	0xf3
 4029 0255 01       		.uleb128 0x1
 4030 0256 51       		.byte	0x51
 4031 0257 9F       		.byte	0x9f
 4032 0258 00000000 		.4byte	0
 4033 025c 00000000 		.4byte	0
 4034              	.LLST24:
 4035 0260 90000000 		.4byte	.LVL18-.Ltext0
ARM GAS  /tmp/ccMjFzvY.s 			page 72


 4036 0264 B4000000 		.4byte	.LVL22-.Ltext0
 4037 0268 0100     		.2byte	0x1
 4038 026a 52       		.byte	0x52
 4039 026b B4000000 		.4byte	.LVL22-.Ltext0
 4040 026f C0000000 		.4byte	.LFE136-.Ltext0
 4041 0273 0400     		.2byte	0x4
 4042 0275 F3       		.byte	0xf3
 4043 0276 01       		.uleb128 0x1
 4044 0277 52       		.byte	0x52
 4045 0278 9F       		.byte	0x9f
 4046 0279 00000000 		.4byte	0
 4047 027d 00000000 		.4byte	0
 4048              	.LLST25:
 4049 0281 90000000 		.4byte	.LVL18-.Ltext0
 4050 0285 B6000000 		.4byte	.LVL23-.Ltext0
 4051 0289 0100     		.2byte	0x1
 4052 028b 53       		.byte	0x53
 4053 028c B6000000 		.4byte	.LVL23-.Ltext0
 4054 0290 C0000000 		.4byte	.LFE136-.Ltext0
 4055 0294 0400     		.2byte	0x4
 4056 0296 F3       		.byte	0xf3
 4057 0297 01       		.uleb128 0x1
 4058 0298 53       		.byte	0x53
 4059 0299 9F       		.byte	0x9f
 4060 029a 00000000 		.4byte	0
 4061 029e 00000000 		.4byte	0
 4062              	.LLST26:
 4063 02a2 90000000 		.4byte	.LVL18-.Ltext0
 4064 02a6 A8000000 		.4byte	.LVL20-.Ltext0
 4065 02aa 0200     		.2byte	0x2
 4066 02ac 91       		.byte	0x91
 4067 02ad 00       		.sleb128 0
 4068 02ae 00000000 		.4byte	0
 4069 02b2 00000000 		.4byte	0
 4070              	.LLST27:
 4071 02b6 A8000000 		.4byte	.LVL20-.Ltext0
 4072 02ba B4000000 		.4byte	.LVL22-.Ltext0
 4073 02be 0100     		.2byte	0x1
 4074 02c0 52       		.byte	0x52
 4075 02c1 B4000000 		.4byte	.LVL22-.Ltext0
 4076 02c5 C0000000 		.4byte	.LFE136-.Ltext0
 4077 02c9 0400     		.2byte	0x4
 4078 02cb F3       		.byte	0xf3
 4079 02cc 01       		.uleb128 0x1
 4080 02cd 52       		.byte	0x52
 4081 02ce 9F       		.byte	0x9f
 4082 02cf 00000000 		.4byte	0
 4083 02d3 00000000 		.4byte	0
 4084              	.LLST28:
 4085 02d7 A8000000 		.4byte	.LVL20-.Ltext0
 4086 02db AE000000 		.4byte	.LVL21-.Ltext0
 4087 02df 0100     		.2byte	0x1
 4088 02e1 51       		.byte	0x51
 4089 02e2 AE000000 		.4byte	.LVL21-.Ltext0
 4090 02e6 B9000000 		.4byte	.LVL24-1-.Ltext0
 4091 02ea 0200     		.2byte	0x2
 4092 02ec 91       		.byte	0x91
ARM GAS  /tmp/ccMjFzvY.s 			page 73


 4093 02ed 64       		.sleb128 -28
 4094 02ee B9000000 		.4byte	.LVL24-1-.Ltext0
 4095 02f2 C0000000 		.4byte	.LFE136-.Ltext0
 4096 02f6 0400     		.2byte	0x4
 4097 02f8 F3       		.byte	0xf3
 4098 02f9 01       		.uleb128 0x1
 4099 02fa 51       		.byte	0x51
 4100 02fb 9F       		.byte	0x9f
 4101 02fc 00000000 		.4byte	0
 4102 0300 00000000 		.4byte	0
 4103              	.LLST29:
 4104 0304 A8000000 		.4byte	.LVL20-.Ltext0
 4105 0308 B6000000 		.4byte	.LVL23-.Ltext0
 4106 030c 0100     		.2byte	0x1
 4107 030e 53       		.byte	0x53
 4108 030f B6000000 		.4byte	.LVL23-.Ltext0
 4109 0313 C0000000 		.4byte	.LFE136-.Ltext0
 4110 0317 0400     		.2byte	0x4
 4111 0319 F3       		.byte	0xf3
 4112 031a 01       		.uleb128 0x1
 4113 031b 53       		.byte	0x53
 4114 031c 9F       		.byte	0x9f
 4115 031d 00000000 		.4byte	0
 4116 0321 00000000 		.4byte	0
 4117              	.LLST30:
 4118 0325 C0000000 		.4byte	.LVL25-.Ltext0
 4119 0329 CC000000 		.4byte	.LVL26-.Ltext0
 4120 032d 0100     		.2byte	0x1
 4121 032f 50       		.byte	0x50
 4122 0330 CC000000 		.4byte	.LVL26-.Ltext0
 4123 0334 E4000000 		.4byte	.LFE137-.Ltext0
 4124 0338 0400     		.2byte	0x4
 4125 033a F3       		.byte	0xf3
 4126 033b 01       		.uleb128 0x1
 4127 033c 50       		.byte	0x50
 4128 033d 9F       		.byte	0x9f
 4129 033e 00000000 		.4byte	0
 4130 0342 00000000 		.4byte	0
 4131              	.LLST31:
 4132 0346 C0000000 		.4byte	.LVL25-.Ltext0
 4133 034a D2000000 		.4byte	.LVL27-.Ltext0
 4134 034e 0100     		.2byte	0x1
 4135 0350 51       		.byte	0x51
 4136 0351 D2000000 		.4byte	.LVL27-.Ltext0
 4137 0355 DD000000 		.4byte	.LVL30-1-.Ltext0
 4138 0359 0200     		.2byte	0x2
 4139 035b 91       		.byte	0x91
 4140 035c 64       		.sleb128 -28
 4141 035d DD000000 		.4byte	.LVL30-1-.Ltext0
 4142 0361 E4000000 		.4byte	.LFE137-.Ltext0
 4143 0365 0400     		.2byte	0x4
 4144 0367 F3       		.byte	0xf3
 4145 0368 01       		.uleb128 0x1
 4146 0369 51       		.byte	0x51
 4147 036a 9F       		.byte	0x9f
 4148 036b 00000000 		.4byte	0
 4149 036f 00000000 		.4byte	0
ARM GAS  /tmp/ccMjFzvY.s 			page 74


 4150              	.LLST32:
 4151 0373 C0000000 		.4byte	.LVL25-.Ltext0
 4152 0377 D6000000 		.4byte	.LVL28-.Ltext0
 4153 037b 0100     		.2byte	0x1
 4154 037d 52       		.byte	0x52
 4155 037e D6000000 		.4byte	.LVL28-.Ltext0
 4156 0382 E4000000 		.4byte	.LFE137-.Ltext0
 4157 0386 0400     		.2byte	0x4
 4158 0388 F3       		.byte	0xf3
 4159 0389 01       		.uleb128 0x1
 4160 038a 52       		.byte	0x52
 4161 038b 9F       		.byte	0x9f
 4162 038c 00000000 		.4byte	0
 4163 0390 00000000 		.4byte	0
 4164              	.LLST33:
 4165 0394 C0000000 		.4byte	.LVL25-.Ltext0
 4166 0398 DA000000 		.4byte	.LVL29-.Ltext0
 4167 039c 0100     		.2byte	0x1
 4168 039e 53       		.byte	0x53
 4169 039f DA000000 		.4byte	.LVL29-.Ltext0
 4170 03a3 E4000000 		.4byte	.LFE137-.Ltext0
 4171 03a7 0400     		.2byte	0x4
 4172 03a9 F3       		.byte	0xf3
 4173 03aa 01       		.uleb128 0x1
 4174 03ab 53       		.byte	0x53
 4175 03ac 9F       		.byte	0x9f
 4176 03ad 00000000 		.4byte	0
 4177 03b1 00000000 		.4byte	0
 4178              	.LLST38:
 4179 03b5 F0000000 		.4byte	.LVL31-.Ltext0
 4180 03b9 FC000000 		.4byte	.LVL32-.Ltext0
 4181 03bd 0100     		.2byte	0x1
 4182 03bf 50       		.byte	0x50
 4183 03c0 FC000000 		.4byte	.LVL32-.Ltext0
 4184 03c4 14010000 		.4byte	.LFE138-.Ltext0
 4185 03c8 0400     		.2byte	0x4
 4186 03ca F3       		.byte	0xf3
 4187 03cb 01       		.uleb128 0x1
 4188 03cc 50       		.byte	0x50
 4189 03cd 9F       		.byte	0x9f
 4190 03ce 00000000 		.4byte	0
 4191 03d2 00000000 		.4byte	0
 4192              	.LLST39:
 4193 03d6 F0000000 		.4byte	.LVL31-.Ltext0
 4194 03da 02010000 		.4byte	.LVL33-.Ltext0
 4195 03de 0100     		.2byte	0x1
 4196 03e0 51       		.byte	0x51
 4197 03e1 02010000 		.4byte	.LVL33-.Ltext0
 4198 03e5 0D010000 		.4byte	.LVL36-1-.Ltext0
 4199 03e9 0200     		.2byte	0x2
 4200 03eb 91       		.byte	0x91
 4201 03ec 64       		.sleb128 -28
 4202 03ed 0D010000 		.4byte	.LVL36-1-.Ltext0
 4203 03f1 14010000 		.4byte	.LFE138-.Ltext0
 4204 03f5 0400     		.2byte	0x4
 4205 03f7 F3       		.byte	0xf3
 4206 03f8 01       		.uleb128 0x1
ARM GAS  /tmp/ccMjFzvY.s 			page 75


 4207 03f9 51       		.byte	0x51
 4208 03fa 9F       		.byte	0x9f
 4209 03fb 00000000 		.4byte	0
 4210 03ff 00000000 		.4byte	0
 4211              	.LLST40:
 4212 0403 F0000000 		.4byte	.LVL31-.Ltext0
 4213 0407 06010000 		.4byte	.LVL34-.Ltext0
 4214 040b 0100     		.2byte	0x1
 4215 040d 52       		.byte	0x52
 4216 040e 06010000 		.4byte	.LVL34-.Ltext0
 4217 0412 14010000 		.4byte	.LFE138-.Ltext0
 4218 0416 0400     		.2byte	0x4
 4219 0418 F3       		.byte	0xf3
 4220 0419 01       		.uleb128 0x1
 4221 041a 52       		.byte	0x52
 4222 041b 9F       		.byte	0x9f
 4223 041c 00000000 		.4byte	0
 4224 0420 00000000 		.4byte	0
 4225              	.LLST41:
 4226 0424 F0000000 		.4byte	.LVL31-.Ltext0
 4227 0428 0A010000 		.4byte	.LVL35-.Ltext0
 4228 042c 0100     		.2byte	0x1
 4229 042e 53       		.byte	0x53
 4230 042f 0A010000 		.4byte	.LVL35-.Ltext0
 4231 0433 14010000 		.4byte	.LFE138-.Ltext0
 4232 0437 0400     		.2byte	0x4
 4233 0439 F3       		.byte	0xf3
 4234 043a 01       		.uleb128 0x1
 4235 043b 53       		.byte	0x53
 4236 043c 9F       		.byte	0x9f
 4237 043d 00000000 		.4byte	0
 4238 0441 00000000 		.4byte	0
 4239              	.LLST42:
 4240 0445 F0000000 		.4byte	.LVL31-.Ltext0
 4241 0449 06010000 		.4byte	.LVL34-.Ltext0
 4242 044d 0600     		.2byte	0x6
 4243 044f 72       		.byte	0x72
 4244 0450 00       		.sleb128 0
 4245 0451 08       		.byte	0x8
 4246 0452 FF       		.byte	0xff
 4247 0453 1A       		.byte	0x1a
 4248 0454 9F       		.byte	0x9f
 4249 0455 06010000 		.4byte	.LVL34-.Ltext0
 4250 0459 14010000 		.4byte	.LFE138-.Ltext0
 4251 045d 0700     		.2byte	0x7
 4252 045f F3       		.byte	0xf3
 4253 0460 01       		.uleb128 0x1
 4254 0461 52       		.byte	0x52
 4255 0462 08       		.byte	0x8
 4256 0463 FF       		.byte	0xff
 4257 0464 1A       		.byte	0x1a
 4258 0465 9F       		.byte	0x9f
 4259 0466 00000000 		.4byte	0
 4260 046a 00000000 		.4byte	0
 4261              	.LLST46:
 4262 046e 20010000 		.4byte	.LVL37-.Ltext0
 4263 0472 2C010000 		.4byte	.LVL38-.Ltext0
ARM GAS  /tmp/ccMjFzvY.s 			page 76


 4264 0476 0100     		.2byte	0x1
 4265 0478 50       		.byte	0x50
 4266 0479 2C010000 		.4byte	.LVL38-.Ltext0
 4267 047d 44010000 		.4byte	.LFE139-.Ltext0
 4268 0481 0400     		.2byte	0x4
 4269 0483 F3       		.byte	0xf3
 4270 0484 01       		.uleb128 0x1
 4271 0485 50       		.byte	0x50
 4272 0486 9F       		.byte	0x9f
 4273 0487 00000000 		.4byte	0
 4274 048b 00000000 		.4byte	0
 4275              	.LLST47:
 4276 048f 20010000 		.4byte	.LVL37-.Ltext0
 4277 0493 32010000 		.4byte	.LVL39-.Ltext0
 4278 0497 0100     		.2byte	0x1
 4279 0499 51       		.byte	0x51
 4280 049a 32010000 		.4byte	.LVL39-.Ltext0
 4281 049e 3D010000 		.4byte	.LVL42-1-.Ltext0
 4282 04a2 0200     		.2byte	0x2
 4283 04a4 91       		.byte	0x91
 4284 04a5 64       		.sleb128 -28
 4285 04a6 3D010000 		.4byte	.LVL42-1-.Ltext0
 4286 04aa 44010000 		.4byte	.LFE139-.Ltext0
 4287 04ae 0400     		.2byte	0x4
 4288 04b0 F3       		.byte	0xf3
 4289 04b1 01       		.uleb128 0x1
 4290 04b2 51       		.byte	0x51
 4291 04b3 9F       		.byte	0x9f
 4292 04b4 00000000 		.4byte	0
 4293 04b8 00000000 		.4byte	0
 4294              	.LLST48:
 4295 04bc 20010000 		.4byte	.LVL37-.Ltext0
 4296 04c0 38010000 		.4byte	.LVL40-.Ltext0
 4297 04c4 0100     		.2byte	0x1
 4298 04c6 52       		.byte	0x52
 4299 04c7 38010000 		.4byte	.LVL40-.Ltext0
 4300 04cb 44010000 		.4byte	.LFE139-.Ltext0
 4301 04cf 0400     		.2byte	0x4
 4302 04d1 F3       		.byte	0xf3
 4303 04d2 01       		.uleb128 0x1
 4304 04d3 52       		.byte	0x52
 4305 04d4 9F       		.byte	0x9f
 4306 04d5 00000000 		.4byte	0
 4307 04d9 00000000 		.4byte	0
 4308              	.LLST49:
 4309 04dd 20010000 		.4byte	.LVL37-.Ltext0
 4310 04e1 3A010000 		.4byte	.LVL41-.Ltext0
 4311 04e5 0100     		.2byte	0x1
 4312 04e7 53       		.byte	0x53
 4313 04e8 3A010000 		.4byte	.LVL41-.Ltext0
 4314 04ec 44010000 		.4byte	.LFE139-.Ltext0
 4315 04f0 0400     		.2byte	0x4
 4316 04f2 F3       		.byte	0xf3
 4317 04f3 01       		.uleb128 0x1
 4318 04f4 53       		.byte	0x53
 4319 04f5 9F       		.byte	0x9f
 4320 04f6 00000000 		.4byte	0
ARM GAS  /tmp/ccMjFzvY.s 			page 77


 4321 04fa 00000000 		.4byte	0
 4322              	.LLST50:
 4323 04fe 20010000 		.4byte	.LVL37-.Ltext0
 4324 0502 38010000 		.4byte	.LVL40-.Ltext0
 4325 0506 0600     		.2byte	0x6
 4326 0508 72       		.byte	0x72
 4327 0509 00       		.sleb128 0
 4328 050a 08       		.byte	0x8
 4329 050b FF       		.byte	0xff
 4330 050c 1A       		.byte	0x1a
 4331 050d 9F       		.byte	0x9f
 4332 050e 38010000 		.4byte	.LVL40-.Ltext0
 4333 0512 44010000 		.4byte	.LFE139-.Ltext0
 4334 0516 0700     		.2byte	0x7
 4335 0518 F3       		.byte	0xf3
 4336 0519 01       		.uleb128 0x1
 4337 051a 52       		.byte	0x52
 4338 051b 08       		.byte	0x8
 4339 051c FF       		.byte	0xff
 4340 051d 1A       		.byte	0x1a
 4341 051e 9F       		.byte	0x9f
 4342 051f 00000000 		.4byte	0
 4343 0523 00000000 		.4byte	0
 4344              	.LLST54:
 4345 0527 50010000 		.4byte	.LVL43-.Ltext0
 4346 052b 58010000 		.4byte	.LVL44-.Ltext0
 4347 052f 0100     		.2byte	0x1
 4348 0531 50       		.byte	0x50
 4349 0532 58010000 		.4byte	.LVL44-.Ltext0
 4350 0536 74010000 		.4byte	.LFE140-.Ltext0
 4351 053a 0400     		.2byte	0x4
 4352 053c F3       		.byte	0xf3
 4353 053d 01       		.uleb128 0x1
 4354 053e 50       		.byte	0x50
 4355 053f 9F       		.byte	0x9f
 4356 0540 00000000 		.4byte	0
 4357 0544 00000000 		.4byte	0
 4358              	.LLST55:
 4359 0548 50010000 		.4byte	.LVL43-.Ltext0
 4360 054c 5E010000 		.4byte	.LVL45-.Ltext0
 4361 0550 0100     		.2byte	0x1
 4362 0552 51       		.byte	0x51
 4363 0553 5E010000 		.4byte	.LVL45-.Ltext0
 4364 0557 6D010000 		.4byte	.LVL49-1-.Ltext0
 4365 055b 0200     		.2byte	0x2
 4366 055d 91       		.byte	0x91
 4367 055e 6C       		.sleb128 -20
 4368 055f 6D010000 		.4byte	.LVL49-1-.Ltext0
 4369 0563 74010000 		.4byte	.LFE140-.Ltext0
 4370 0567 0400     		.2byte	0x4
 4371 0569 F3       		.byte	0xf3
 4372 056a 01       		.uleb128 0x1
 4373 056b 51       		.byte	0x51
 4374 056c 9F       		.byte	0x9f
 4375 056d 00000000 		.4byte	0
 4376 0571 00000000 		.4byte	0
 4377              	.LLST56:
ARM GAS  /tmp/ccMjFzvY.s 			page 78


 4378 0575 50010000 		.4byte	.LVL43-.Ltext0
 4379 0579 60010000 		.4byte	.LVL46-.Ltext0
 4380 057d 0100     		.2byte	0x1
 4381 057f 52       		.byte	0x52
 4382 0580 60010000 		.4byte	.LVL46-.Ltext0
 4383 0584 74010000 		.4byte	.LFE140-.Ltext0
 4384 0588 0400     		.2byte	0x4
 4385 058a F3       		.byte	0xf3
 4386 058b 01       		.uleb128 0x1
 4387 058c 52       		.byte	0x52
 4388 058d 9F       		.byte	0x9f
 4389 058e 00000000 		.4byte	0
 4390 0592 00000000 		.4byte	0
 4391              	.LLST57:
 4392 0596 50010000 		.4byte	.LVL43-.Ltext0
 4393 059a 6A010000 		.4byte	.LVL48-.Ltext0
 4394 059e 0100     		.2byte	0x1
 4395 05a0 53       		.byte	0x53
 4396 05a1 6A010000 		.4byte	.LVL48-.Ltext0
 4397 05a5 74010000 		.4byte	.LFE140-.Ltext0
 4398 05a9 0400     		.2byte	0x4
 4399 05ab F3       		.byte	0xf3
 4400 05ac 01       		.uleb128 0x1
 4401 05ad 53       		.byte	0x53
 4402 05ae 9F       		.byte	0x9f
 4403 05af 00000000 		.4byte	0
 4404 05b3 00000000 		.4byte	0
 4405              	.LLST58:
 4406 05b7 50010000 		.4byte	.LVL43-.Ltext0
 4407 05bb 60010000 		.4byte	.LVL46-.Ltext0
 4408 05bf 0100     		.2byte	0x1
 4409 05c1 52       		.byte	0x52
 4410 05c2 60010000 		.4byte	.LVL46-.Ltext0
 4411 05c6 66010000 		.4byte	.LVL47-.Ltext0
 4412 05ca 0100     		.2byte	0x1
 4413 05cc 51       		.byte	0x51
 4414 05cd 66010000 		.4byte	.LVL47-.Ltext0
 4415 05d1 6D010000 		.4byte	.LVL49-1-.Ltext0
 4416 05d5 0200     		.2byte	0x2
 4417 05d7 91       		.byte	0x91
 4418 05d8 70       		.sleb128 -16
 4419 05d9 6D010000 		.4byte	.LVL49-1-.Ltext0
 4420 05dd 74010000 		.4byte	.LFE140-.Ltext0
 4421 05e1 0400     		.2byte	0x4
 4422 05e3 F3       		.byte	0xf3
 4423 05e4 01       		.uleb128 0x1
 4424 05e5 52       		.byte	0x52
 4425 05e6 9F       		.byte	0x9f
 4426 05e7 00000000 		.4byte	0
 4427 05eb 00000000 		.4byte	0
 4428              	.LLST62:
 4429 05ef 80010000 		.4byte	.LVL50-.Ltext0
 4430 05f3 8E010000 		.4byte	.LVL52-.Ltext0
 4431 05f7 0100     		.2byte	0x1
 4432 05f9 50       		.byte	0x50
 4433 05fa 8E010000 		.4byte	.LVL52-.Ltext0
 4434 05fe A6010000 		.4byte	.LFE141-.Ltext0
ARM GAS  /tmp/ccMjFzvY.s 			page 79


 4435 0602 0400     		.2byte	0x4
 4436 0604 F3       		.byte	0xf3
 4437 0605 01       		.uleb128 0x1
 4438 0606 50       		.byte	0x50
 4439 0607 9F       		.byte	0x9f
 4440 0608 00000000 		.4byte	0
 4441 060c 00000000 		.4byte	0
 4442              	.LLST63:
 4443 0610 80010000 		.4byte	.LVL50-.Ltext0
 4444 0614 94010000 		.4byte	.LVL53-.Ltext0
 4445 0618 0100     		.2byte	0x1
 4446 061a 51       		.byte	0x51
 4447 061b 94010000 		.4byte	.LVL53-.Ltext0
 4448 061f 9F010000 		.4byte	.LVL56-1-.Ltext0
 4449 0623 0200     		.2byte	0x2
 4450 0625 91       		.byte	0x91
 4451 0626 64       		.sleb128 -28
 4452 0627 9F010000 		.4byte	.LVL56-1-.Ltext0
 4453 062b A6010000 		.4byte	.LFE141-.Ltext0
 4454 062f 0400     		.2byte	0x4
 4455 0631 F3       		.byte	0xf3
 4456 0632 01       		.uleb128 0x1
 4457 0633 51       		.byte	0x51
 4458 0634 9F       		.byte	0x9f
 4459 0635 00000000 		.4byte	0
 4460 0639 00000000 		.4byte	0
 4461              	.LLST64:
 4462 063d 80010000 		.4byte	.LVL50-.Ltext0
 4463 0641 8A010000 		.4byte	.LVL51-.Ltext0
 4464 0645 0100     		.2byte	0x1
 4465 0647 52       		.byte	0x52
 4466 0648 8A010000 		.4byte	.LVL51-.Ltext0
 4467 064c A6010000 		.4byte	.LFE141-.Ltext0
 4468 0650 0400     		.2byte	0x4
 4469 0652 F3       		.byte	0xf3
 4470 0653 01       		.uleb128 0x1
 4471 0654 52       		.byte	0x52
 4472 0655 9F       		.byte	0x9f
 4473 0656 00000000 		.4byte	0
 4474 065a 00000000 		.4byte	0
 4475              	.LLST65:
 4476 065e 80010000 		.4byte	.LVL50-.Ltext0
 4477 0662 98010000 		.4byte	.LVL54-.Ltext0
 4478 0666 0100     		.2byte	0x1
 4479 0668 53       		.byte	0x53
 4480 0669 98010000 		.4byte	.LVL54-.Ltext0
 4481 066d A6010000 		.4byte	.LFE141-.Ltext0
 4482 0671 0400     		.2byte	0x4
 4483 0673 F3       		.byte	0xf3
 4484 0674 01       		.uleb128 0x1
 4485 0675 53       		.byte	0x53
 4486 0676 9F       		.byte	0x9f
 4487 0677 00000000 		.4byte	0
 4488 067b 00000000 		.4byte	0
 4489              	.LLST66:
 4490 067f 80010000 		.4byte	.LVL50-.Ltext0
 4491 0683 9C010000 		.4byte	.LVL55-.Ltext0
ARM GAS  /tmp/ccMjFzvY.s 			page 80


 4492 0687 0100     		.2byte	0x1
 4493 0689 52       		.byte	0x52
 4494 068a 9C010000 		.4byte	.LVL55-.Ltext0
 4495 068e 9F010000 		.4byte	.LVL56-1-.Ltext0
 4496 0692 0200     		.2byte	0x2
 4497 0694 91       		.byte	0x91
 4498 0695 68       		.sleb128 -24
 4499 0696 9F010000 		.4byte	.LVL56-1-.Ltext0
 4500 069a A6010000 		.4byte	.LFE141-.Ltext0
 4501 069e 0400     		.2byte	0x4
 4502 06a0 F3       		.byte	0xf3
 4503 06a1 01       		.uleb128 0x1
 4504 06a2 52       		.byte	0x52
 4505 06a3 9F       		.byte	0x9f
 4506 06a4 00000000 		.4byte	0
 4507 06a8 00000000 		.4byte	0
 4508              		.section	.debug_aranges,"",%progbits
 4509 0000 1C000000 		.4byte	0x1c
 4510 0004 0200     		.2byte	0x2
 4511 0006 00000000 		.4byte	.Ldebug_info0
 4512 000a 04       		.byte	0x4
 4513 000b 00       		.byte	0
 4514 000c 0000     		.2byte	0
 4515 000e 0000     		.2byte	0
 4516 0010 00000000 		.4byte	.Ltext0
 4517 0014 A6010000 		.4byte	.Letext0-.Ltext0
 4518 0018 00000000 		.4byte	0
 4519 001c 00000000 		.4byte	0
 4520              		.section	.debug_ranges,"",%progbits
 4521              	.Ldebug_ranges0:
 4522 0000 36000000 		.4byte	.LBB22-.Ltext0
 4523 0004 3A000000 		.4byte	.LBE22-.Ltext0
 4524 0008 42000000 		.4byte	.LBB25-.Ltext0
 4525 000c 5A000000 		.4byte	.LBE25-.Ltext0
 4526 0010 00000000 		.4byte	0
 4527 0014 00000000 		.4byte	0
 4528 0018 96000000 		.4byte	.LBB28-.Ltext0
 4529 001c 9A000000 		.4byte	.LBE28-.Ltext0
 4530 0020 A2000000 		.4byte	.LBB31-.Ltext0
 4531 0024 BA000000 		.4byte	.LBE31-.Ltext0
 4532 0028 00000000 		.4byte	0
 4533 002c 00000000 		.4byte	0
 4534              		.section	.debug_line,"",%progbits
 4535              	.Ldebug_line0:
 4536 0000 AB030000 		.section	.debug_str,"MS",%progbits,1
 4536      02000003 
 4536      00000201 
 4536      FB0E0D00 
 4536      01010101 
 4537              	.LASF76:
 4538 0000 6950726F 		.ascii	"iProduct\000"
 4538      64756374 
 4538      00
 4539              	.LASF88:
 4540 0009 62416C74 		.ascii	"bAlternateSetting\000"
 4540      65726E61 
 4540      74655365 
ARM GAS  /tmp/ccMjFzvY.s 			page 81


 4540      7474696E 
 4540      6700
 4541              	.LASF81:
 4542 001b 62456E64 		.ascii	"bEndpointAddress\000"
 4542      706F696E 
 4542      74416464 
 4542      72657373 
 4542      00
 4543              	.LASF17:
 4544 002c 73697A65 		.ascii	"sizetype\000"
 4544      74797065 
 4544      00
 4545              	.LASF208:
 4546 0035 55534248 		.ascii	"USBH_CtlSendData\000"
 4546      5F43746C 
 4546      53656E64 
 4546      44617461 
 4546      00
 4547              	.LASF207:
 4548 0046 55534248 		.ascii	"USBH_CtlSendSetup\000"
 4548      5F43746C 
 4548      53656E64 
 4548      53657475 
 4548      7000
 4549              	.LASF202:
 4550 0058 65705F74 		.ascii	"ep_type\000"
 4550      79706500 
 4551              	.LASF221:
 4552 0060 55534248 		.ascii	"USBH_LL_SubmitURB\000"
 4552      5F4C4C5F 
 4552      5375626D 
 4552      69745552 
 4552      4200
 4553              	.LASF30:
 4554 0072 705F6374 		.ascii	"p_ctx\000"
 4554      7800
 4555              	.LASF170:
 4556 0078 69735F63 		.ascii	"is_connected\000"
 4556      6F6E6E65 
 4556      63746564 
 4556      00
 4557              	.LASF23:
 4558 0085 74707269 		.ascii	"tprio_t\000"
 4558      6F5F7400 
 4559              	.LASF38:
 4560 008d 705F6D73 		.ascii	"p_msgqueue\000"
 4560      67717565 
 4560      756500
 4561              	.LASF131:
 4562 0098 454E554D 		.ascii	"ENUM_GET_CFG_DESC\000"
 4562      5F474554 
 4562      5F434647 
 4562      5F444553 
 4562      4300
 4563              	.LASF15:
 4564 00aa 696E7433 		.ascii	"int32_t\000"
 4564      325F7400 
ARM GAS  /tmp/ccMjFzvY.s 			page 82


 4565              	.LASF69:
 4566 00b2 62446576 		.ascii	"bDeviceSubClass\000"
 4566      69636553 
 4566      7562436C 
 4566      61737300 
 4567              	.LASF205:
 4568 00c2 646F5F70 		.ascii	"do_ping\000"
 4568      696E6700 
 4569              	.LASF116:
 4570 00ca 484F5354 		.ascii	"HOST_DEV_ATTACHED\000"
 4570      5F444556 
 4570      5F415454 
 4570      41434845 
 4570      4400
 4571              	.LASF114:
 4572 00dc 484F5354 		.ascii	"HOST_IDLE\000"
 4572      5F49444C 
 4572      4500
 4573              	.LASF62:
 4574 00e6 774C656E 		.ascii	"wLength\000"
 4574      67746800 
 4575              	.LASF104:
 4576 00ee 55534248 		.ascii	"USBH_OK\000"
 4576      5F4F4B00 
 4577              	.LASF105:
 4578 00f6 55534248 		.ascii	"USBH_BUSY\000"
 4578      5F425553 
 4578      5900
 4579              	.LASF144:
 4580 0100 4354524C 		.ascii	"CTRL_STATUS_IN\000"
 4580      5F535441 
 4580      5455535F 
 4580      494E00
 4581              	.LASF163:
 4582 010f 73746174 		.ascii	"state\000"
 4582      6500
 4583              	.LASF117:
 4584 0115 484F5354 		.ascii	"HOST_DEV_DISCONNECTED\000"
 4584      5F444556 
 4584      5F444953 
 4584      434F4E4E 
 4584      45435445 
 4585              	.LASF67:
 4586 012b 62636455 		.ascii	"bcdUSB\000"
 4586      534200
 4587              	.LASF155:
 4588 0132 434D445F 		.ascii	"CMD_StateTypeDef\000"
 4588      53746174 
 4588      65547970 
 4588      65446566 
 4588      00
 4589              	.LASF158:
 4590 0143 70697065 		.ascii	"pipe_size\000"
 4590      5F73697A 
 4590      6500
 4591              	.LASF50:
 4592 014d 6D5F6F77 		.ascii	"m_owner\000"
ARM GAS  /tmp/ccMjFzvY.s 			page 83


 4592      6E657200 
 4593              	.LASF53:
 4594 0155 65786974 		.ascii	"exitcode\000"
 4594      636F6465 
 4594      00
 4595              	.LASF126:
 4596 015e 484F5354 		.ascii	"HOST_ABORT_STATE\000"
 4596      5F41424F 
 4596      52545F53 
 4596      54415445 
 4596      00
 4597              	.LASF3:
 4598 016f 5F5F7569 		.ascii	"__uint8_t\000"
 4598      6E74385F 
 4598      7400
 4599              	.LASF55:
 4600 0179 65776D61 		.ascii	"ewmask\000"
 4600      736B00
 4601              	.LASF173:
 4602 0180 43666744 		.ascii	"CfgDesc\000"
 4602      65736300 
 4603              	.LASF96:
 4604 0188 5F436F6E 		.ascii	"_ConfigurationDescriptor\000"
 4604      66696775 
 4604      72617469 
 4604      6F6E4465 
 4604      73637269 
 4605              	.LASF31:
 4606 01a1 705F6E65 		.ascii	"p_newer\000"
 4606      77657200 
 4607              	.LASF7:
 4608 01a9 6C6F6E67 		.ascii	"long int\000"
 4608      20696E74 
 4608      00
 4609              	.LASF27:
 4610 01b2 705F6E65 		.ascii	"p_next\000"
 4610      787400
 4611              	.LASF213:
 4612 01b9 55534248 		.ascii	"USBH_InterruptSendData\000"
 4612      5F496E74 
 4612      65727275 
 4612      70745365 
 4612      6E644461 
 4613              	.LASF28:
 4614 01d0 705F7072 		.ascii	"p_prev\000"
 4614      657600
 4615              	.LASF192:
 4616 01d7 50697065 		.ascii	"Pipes\000"
 4616      7300
 4617              	.LASF136:
 4618 01dd 454E554D 		.ascii	"ENUM_StateTypeDef\000"
 4618      5F537461 
 4618      74655479 
 4618      70654465 
 4618      6600
 4619              	.LASF21:
 4620 01ef 74737461 		.ascii	"tstate_t\000"
ARM GAS  /tmp/ccMjFzvY.s 			page 84


 4620      74655F74 
 4620      00
 4621              	.LASF41:
 4622 01f8 705F6D74 		.ascii	"p_mtxlist\000"
 4622      786C6973 
 4622      7400
 4623              	.LASF45:
 4624 0202 72656761 		.ascii	"regarm_t\000"
 4624      726D5F74 
 4624      00
 4625              	.LASF80:
 4626 020b 5F456E64 		.ascii	"_EndpointDescriptor\000"
 4626      706F696E 
 4626      74446573 
 4626      63726970 
 4626      746F7200 
 4627              	.LASF120:
 4628 021f 484F5354 		.ascii	"HOST_CLASS_REQUEST\000"
 4628      5F434C41 
 4628      53535F52 
 4628      45515545 
 4628      535400
 4629              	.LASF92:
 4630 0232 62496E74 		.ascii	"bInterfaceProtocol\000"
 4630      65726661 
 4630      63655072 
 4630      6F746F63 
 4630      6F6C00
 4631              	.LASF0:
 4632 0245 7369676E 		.ascii	"signed char\000"
 4632      65642063 
 4632      68617200 
 4633              	.LASF36:
 4634 0251 705F7072 		.ascii	"p_preempt\000"
 4634      65656D70 
 4634      7400
 4635              	.LASF13:
 4636 025b 75696E74 		.ascii	"uint8_t\000"
 4636      385F7400 
 4637              	.LASF146:
 4638 0263 4354524C 		.ascii	"CTRL_STATUS_OUT\000"
 4638      5F535441 
 4638      5455535F 
 4638      4F555400 
 4639              	.LASF122:
 4640 0273 484F5354 		.ascii	"HOST_SET_CONFIGURATION\000"
 4640      5F534554 
 4640      5F434F4E 
 4640      46494755 
 4640      52415449 
 4641              	.LASF25:
 4642 028a 6576656E 		.ascii	"eventmask_t\000"
 4642      746D6173 
 4642      6B5F7400 
 4643              	.LASF47:
 4644 0296 636F6E74 		.ascii	"context\000"
 4644      65787400 
ARM GAS  /tmp/ccMjFzvY.s 			page 85


 4645              	.LASF74:
 4646 029e 62636444 		.ascii	"bcdDevice\000"
 4646      65766963 
 4646      6500
 4647              	.LASF1:
 4648 02a8 756E7369 		.ascii	"unsigned char\000"
 4648      676E6564 
 4648      20636861 
 4648      7200
 4649              	.LASF58:
 4650 02b6 626D5265 		.ascii	"bmRequestType\000"
 4650      71756573 
 4650      74547970 
 4650      6500
 4651              	.LASF172:
 4652 02c4 44657644 		.ascii	"DevDesc\000"
 4652      65736300 
 4653              	.LASF60:
 4654 02cc 7756616C 		.ascii	"wValue\000"
 4654      756500
 4655              	.LASF214:
 4656 02d3 55534248 		.ascii	"USBH_IsocReceiveData\000"
 4656      5F49736F 
 4656      63526563 
 4656      65697665 
 4656      44617461 
 4657              	.LASF19:
 4658 02e8 5F426F6F 		.ascii	"_Bool\000"
 4658      6C00
 4659              	.LASF135:
 4660 02ee 454E554D 		.ascii	"ENUM_GET_SERIALNUM_STRING_DESC\000"
 4660      5F474554 
 4660      5F534552 
 4660      49414C4E 
 4660      554D5F53 
 4661              	.LASF109:
 4662 030d 55534248 		.ascii	"USBH_ERROR_SPEED_UNKNOWN\000"
 4662      5F455252 
 4662      4F525F53 
 4662      50454544 
 4662      5F554E4B 
 4663              	.LASF18:
 4664 0326 63686172 		.ascii	"char\000"
 4664      00
 4665              	.LASF210:
 4666 032b 55534248 		.ascii	"USBH_BulkSendData\000"
 4666      5F42756C 
 4666      6B53656E 
 4666      64446174 
 4666      6100
 4667              	.LASF138:
 4668 033d 4354524C 		.ascii	"CTRL_SETUP\000"
 4668      5F534554 
 4668      555000
 4669              	.LASF29:
 4670 0348 705F7072 		.ascii	"p_prio\000"
 4670      696F00
ARM GAS  /tmp/ccMjFzvY.s 			page 86


 4671              	.LASF4:
 4672 034f 5F5F7569 		.ascii	"__uint16_t\000"
 4672      6E743136 
 4672      5F7400
 4673              	.LASF148:
 4674 035a 4354524C 		.ascii	"CTRL_ERROR\000"
 4674      5F455252 
 4674      4F5200
 4675              	.LASF54:
 4676 0365 77746F62 		.ascii	"wtobjp\000"
 4676      6A7000
 4677              	.LASF161:
 4678 036c 74696D65 		.ascii	"timer\000"
 4678      7200
 4679              	.LASF187:
 4680 0372 436F6E74 		.ascii	"Control\000"
 4680      726F6C00 
 4681              	.LASF220:
 4682 037a 5F555342 		.ascii	"_USB_Setup\000"
 4682      5F536574 
 4682      757000
 4683              	.LASF206:
 4684 0385 70697065 		.ascii	"pipe_num\000"
 4684      5F6E756D 
 4684      00
 4685              	.LASF186:
 4686 038e 52657175 		.ascii	"RequestState\000"
 4686      65737453 
 4686      74617465 
 4686      00
 4687              	.LASF112:
 4688 039b 55534248 		.ascii	"USBH_SPEED_FULL\000"
 4688      5F535045 
 4688      45445F46 
 4688      554C4C00 
 4689              	.LASF156:
 4690 03ab 70697065 		.ascii	"pipe_in\000"
 4690      5F696E00 
 4691              	.LASF140:
 4692 03b3 4354524C 		.ascii	"CTRL_DATA_IN\000"
 4692      5F444154 
 4692      415F494E 
 4692      00
 4693              	.LASF212:
 4694 03c0 55534248 		.ascii	"USBH_InterruptReceiveData\000"
 4694      5F496E74 
 4694      65727275 
 4694      70745265 
 4694      63656976 
 4695              	.LASF143:
 4696 03da 4354524C 		.ascii	"CTRL_DATA_OUT_WAIT\000"
 4696      5F444154 
 4696      415F4F55 
 4696      545F5741 
 4696      495400
 4697              	.LASF108:
 4698 03ed 55534248 		.ascii	"USBH_UNRECOVERED_ERROR\000"
ARM GAS  /tmp/ccMjFzvY.s 			page 87


 4698      5F554E52 
 4698      45434F56 
 4698      45524544 
 4698      5F455252 
 4699              	.LASF110:
 4700 0404 55534248 		.ascii	"USBH_StatusTypeDef\000"
 4700      5F537461 
 4700      74757354 
 4700      79706544 
 4700      656600
 4701              	.LASF150:
 4702 0417 4354524C 		.ascii	"CTRL_COMPLETE\000"
 4702      5F434F4D 
 4702      504C4554 
 4702      4500
 4703              	.LASF162:
 4704 0425 73657475 		.ascii	"setup\000"
 4704      7000
 4705              	.LASF46:
 4706 042b 696E7463 		.ascii	"intctx\000"
 4706      747800
 4707              	.LASF169:
 4708 0432 73706565 		.ascii	"speed\000"
 4708      6400
 4709              	.LASF40:
 4710 0438 705F6570 		.ascii	"p_epending\000"
 4710      656E6469 
 4710      6E6700
 4711              	.LASF176:
 4712 0443 436C6173 		.ascii	"ClassCode\000"
 4712      73436F64 
 4712      6500
 4713              	.LASF57:
 4714 044d 5F536574 		.ascii	"_SetupPkt_Struc\000"
 4714      7570506B 
 4714      745F5374 
 4714      72756300 
 4715              	.LASF152:
 4716 045d 434D445F 		.ascii	"CMD_IDLE\000"
 4716      49444C45 
 4716      00
 4717              	.LASF215:
 4718 0466 55534248 		.ascii	"USBH_IsocSendData\000"
 4718      5F49736F 
 4718      6353656E 
 4718      64446174 
 4718      6100
 4719              	.LASF66:
 4720 0478 62446573 		.ascii	"bDescriptorType\000"
 4720      63726970 
 4720      746F7254 
 4720      79706500 
 4721              	.LASF9:
 4722 0488 6C6F6E67 		.ascii	"long unsigned int\000"
 4722      20756E73 
 4722      69676E65 
 4722      6420696E 
ARM GAS  /tmp/ccMjFzvY.s 			page 88


 4722      7400
 4723              	.LASF77:
 4724 049a 69536572 		.ascii	"iSerialNumber\000"
 4724      69616C4E 
 4724      756D6265 
 4724      7200
 4725              	.LASF133:
 4726 04a8 454E554D 		.ascii	"ENUM_GET_MFC_STRING_DESC\000"
 4726      5F474554 
 4726      5F4D4643 
 4726      5F535452 
 4726      494E475F 
 4727              	.LASF168:
 4728 04c1 61646472 		.ascii	"address\000"
 4728      65737300 
 4729              	.LASF218:
 4730 04c9 2E2F5354 		.ascii	"./STM32_USB_Host_Library/Core/Src/usbh_ioreq.c\000"
 4730      4D33325F 
 4730      5553425F 
 4730      486F7374 
 4730      5F4C6962 
 4731              	.LASF132:
 4732 04f8 454E554D 		.ascii	"ENUM_GET_FULL_CFG_DESC\000"
 4732      5F474554 
 4732      5F46554C 
 4732      4C5F4346 
 4732      475F4445 
 4733              	.LASF124:
 4734 050f 484F5354 		.ascii	"HOST_CLASS\000"
 4734      5F434C41 
 4734      535300
 4735              	.LASF95:
 4736 051a 55534248 		.ascii	"USBH_InterfaceDescTypeDef\000"
 4736      5F496E74 
 4736      65726661 
 4736      63654465 
 4736      73635479 
 4737              	.LASF89:
 4738 0534 624E756D 		.ascii	"bNumEndpoints\000"
 4738      456E6470 
 4738      6F696E74 
 4738      7300
 4739              	.LASF63:
 4740 0542 5553425F 		.ascii	"USB_Setup_TypeDef\000"
 4740      53657475 
 4740      705F5479 
 4740      70654465 
 4740      6600
 4741              	.LASF82:
 4742 0554 626D4174 		.ascii	"bmAttributes\000"
 4742      74726962 
 4742      75746573 
 4742      00
 4743              	.LASF185:
 4744 0561 456E756D 		.ascii	"EnumState\000"
 4744      53746174 
 4744      6500
ARM GAS  /tmp/ccMjFzvY.s 			page 89


 4745              	.LASF127:
 4746 056b 484F5354 		.ascii	"HOST_StateTypeDef\000"
 4746      5F537461 
 4746      74655479 
 4746      70654465 
 4746      6600
 4747              	.LASF8:
 4748 057d 5F5F7569 		.ascii	"__uint32_t\000"
 4748      6E743332 
 4748      5F7400
 4749              	.LASF48:
 4750 0588 4D757465 		.ascii	"Mutex\000"
 4750      7800
 4751              	.LASF10:
 4752 058e 6C6F6E67 		.ascii	"long long int\000"
 4752      206C6F6E 
 4752      6720696E 
 4752      7400
 4753              	.LASF137:
 4754 059c 4354524C 		.ascii	"CTRL_IDLE\000"
 4754      5F49444C 
 4754      4500
 4755              	.LASF49:
 4756 05a6 6D5F7175 		.ascii	"m_queue\000"
 4756      65756500 
 4757              	.LASF189:
 4758 05ae 70436C61 		.ascii	"pClass\000"
 4758      737300
 4759              	.LASF102:
 4760 05b5 4974665F 		.ascii	"Itf_Desc\000"
 4760      44657363 
 4760      00
 4761              	.LASF83:
 4762 05be 774D6178 		.ascii	"wMaxPacketSize\000"
 4762      5061636B 
 4762      65745369 
 4762      7A6500
 4763              	.LASF157:
 4764 05cd 70697065 		.ascii	"pipe_out\000"
 4764      5F6F7574 
 4764      00
 4765              	.LASF75:
 4766 05d6 694D616E 		.ascii	"iManufacturer\000"
 4766      75666163 
 4766      74757265 
 4766      7200
 4767              	.LASF222:
 4768 05e4 49544D5F 		.ascii	"ITM_RxBuffer\000"
 4768      52784275 
 4768      66666572 
 4768      00
 4769              	.LASF200:
 4770 05f1 70697065 		.ascii	"pipe\000"
 4770      00
 4771              	.LASF159:
 4772 05f6 62756666 		.ascii	"buff\000"
 4772      00
ARM GAS  /tmp/ccMjFzvY.s 			page 90


 4773              	.LASF37:
 4774 05fb 705F7761 		.ascii	"p_waiting\000"
 4774      6974696E 
 4774      6700
 4775              	.LASF125:
 4776 0605 484F5354 		.ascii	"HOST_SUSPENDED\000"
 4776      5F535553 
 4776      50454E44 
 4776      454400
 4777              	.LASF35:
 4778 0614 705F666C 		.ascii	"p_flags\000"
 4778      61677300 
 4779              	.LASF147:
 4780 061c 4354524C 		.ascii	"CTRL_STATUS_OUT_WAIT\000"
 4780      5F535441 
 4780      5455535F 
 4780      4F55545F 
 4780      57414954 
 4781              	.LASF12:
 4782 0631 756E7369 		.ascii	"unsigned int\000"
 4782      676E6564 
 4782      20696E74 
 4782      00
 4783              	.LASF118:
 4784 063e 484F5354 		.ascii	"HOST_DETECT_DEVICE_SPEED\000"
 4784      5F444554 
 4784      4543545F 
 4784      44455649 
 4784      43455F53 
 4785              	.LASF198:
 4786 0657 55534248 		.ascii	"USBH_HandleTypeDef\000"
 4786      5F48616E 
 4786      646C6554 
 4786      79706544 
 4786      656600
 4787              	.LASF174:
 4788 066a 55534248 		.ascii	"USBH_DeviceTypeDef\000"
 4788      5F446576 
 4788      69636554 
 4788      79706544 
 4788      656600
 4789              	.LASF98:
 4790 067d 624E756D 		.ascii	"bNumInterfaces\000"
 4790      496E7465 
 4790      72666163 
 4790      657300
 4791              	.LASF90:
 4792 068c 62496E74 		.ascii	"bInterfaceClass\000"
 4792      65726661 
 4792      6365436C 
 4792      61737300 
 4793              	.LASF99:
 4794 069c 62436F6E 		.ascii	"bConfigurationValue\000"
 4794      66696775 
 4794      72617469 
 4794      6F6E5661 
 4794      6C756500 
ARM GAS  /tmp/ccMjFzvY.s 			page 91


 4795              	.LASF184:
 4796 06b0 67537461 		.ascii	"gState\000"
 4796      746500
 4797              	.LASF165:
 4798 06b7 55534248 		.ascii	"USBH_CtrlTypeDef\000"
 4798      5F437472 
 4798      6C547970 
 4798      65446566 
 4798      00
 4799              	.LASF94:
 4800 06c8 45705F44 		.ascii	"Ep_Desc\000"
 4800      65736300 
 4801              	.LASF44:
 4802 06d0 54687265 		.ascii	"ThreadsList\000"
 4802      6164734C 
 4802      69737400 
 4803              	.LASF121:
 4804 06dc 484F5354 		.ascii	"HOST_INPUT\000"
 4804      5F494E50 
 4804      555400
 4805              	.LASF100:
 4806 06e7 69436F6E 		.ascii	"iConfiguration\000"
 4806      66696775 
 4806      72617469 
 4806      6F6E00
 4807              	.LASF59:
 4808 06f6 62526571 		.ascii	"bRequest\000"
 4808      75657374 
 4808      00
 4809              	.LASF71:
 4810 06ff 624D6178 		.ascii	"bMaxPacketSize\000"
 4810      5061636B 
 4810      65745369 
 4810      7A6500
 4811              	.LASF177:
 4812 070e 496E6974 		.ascii	"Init\000"
 4812      00
 4813              	.LASF111:
 4814 0713 55534248 		.ascii	"USBH_SPEED_HIGH\000"
 4814      5F535045 
 4814      45445F48 
 4814      49474800 
 4815              	.LASF115:
 4816 0723 484F5354 		.ascii	"HOST_DEV_WAIT_FOR_ATTACHMENT\000"
 4816      5F444556 
 4816      5F574149 
 4816      545F464F 
 4816      525F4154 
 4817              	.LASF175:
 4818 0740 4E616D65 		.ascii	"Name\000"
 4818      00
 4819              	.LASF97:
 4820 0745 77546F74 		.ascii	"wTotalLength\000"
 4820      616C4C65 
 4820      6E677468 
 4820      00
 4821              	.LASF42:
ARM GAS  /tmp/ccMjFzvY.s 			page 92


 4822 0752 705F7265 		.ascii	"p_realprio\000"
 4822      616C7072 
 4822      696F00
 4823              	.LASF204:
 4824 075d 70627566 		.ascii	"pbuff\000"
 4824      6600
 4825              	.LASF195:
 4826 0763 6F735F65 		.ascii	"os_event\000"
 4826      76656E74 
 4826      00
 4827              	.LASF183:
 4828 076c 5F555342 		.ascii	"_USBH_HandleTypeDef\000"
 4828      485F4861 
 4828      6E646C65 
 4828      54797065 
 4828      44656600 
 4829              	.LASF65:
 4830 0780 624C656E 		.ascii	"bLength\000"
 4830      67746800 
 4831              	.LASF11:
 4832 0788 6C6F6E67 		.ascii	"long long unsigned int\000"
 4832      206C6F6E 
 4832      6720756E 
 4832      7369676E 
 4832      65642069 
 4833              	.LASF123:
 4834 079f 484F5354 		.ascii	"HOST_CHECK_CLASS\000"
 4834      5F434845 
 4834      434B5F43 
 4834      4C415353 
 4834      00
 4835              	.LASF61:
 4836 07b0 77496E64 		.ascii	"wIndex\000"
 4836      657800
 4837              	.LASF130:
 4838 07b7 454E554D 		.ascii	"ENUM_SET_ADDR\000"
 4838      5F534554 
 4838      5F414444 
 4838      5200
 4839              	.LASF32:
 4840 07c5 705F6F6C 		.ascii	"p_older\000"
 4840      64657200 
 4841              	.LASF160:
 4842 07cd 6C656E67 		.ascii	"length\000"
 4842      746800
 4843              	.LASF14:
 4844 07d4 75696E74 		.ascii	"uint16_t\000"
 4844      31365F74 
 4844      00
 4845              	.LASF194:
 4846 07dd 70557365 		.ascii	"pUser\000"
 4846      7200
 4847              	.LASF56:
 4848 07e3 75696E74 		.ascii	"uint16_t_uint8_t\000"
 4848      31365F74 
 4848      5F75696E 
 4848      74385F74 
ARM GAS  /tmp/ccMjFzvY.s 			page 93


 4848      00
 4849              	.LASF197:
 4850 07f4 55534248 		.ascii	"USBH_ClassTypeDef\000"
 4850      5F436C61 
 4850      73735479 
 4850      70654465 
 4850      6600
 4851              	.LASF153:
 4852 0806 434D445F 		.ascii	"CMD_SEND\000"
 4852      53454E44 
 4852      00
 4853              	.LASF24:
 4854 080f 6D73675F 		.ascii	"msg_t\000"
 4854      7400
 4855              	.LASF22:
 4856 0815 74736C69 		.ascii	"tslices_t\000"
 4856      6365735F 
 4856      7400
 4857              	.LASF78:
 4858 081f 624E756D 		.ascii	"bNumConfigurations\000"
 4858      436F6E66 
 4858      69677572 
 4858      6174696F 
 4858      6E7300
 4859              	.LASF106:
 4860 0832 55534248 		.ascii	"USBH_FAIL\000"
 4860      5F464149 
 4860      4C00
 4861              	.LASF73:
 4862 083c 69645072 		.ascii	"idProduct\000"
 4862      6F647563 
 4862      7400
 4863              	.LASF211:
 4864 0846 55534248 		.ascii	"USBH_BulkReceiveData\000"
 4864      5F42756C 
 4864      6B526563 
 4864      65697665 
 4864      44617461 
 4865              	.LASF164:
 4866 085b 6572726F 		.ascii	"errorcount\000"
 4866      72636F75 
 4866      6E7400
 4867              	.LASF72:
 4868 0866 69645665 		.ascii	"idVendor\000"
 4868      6E646F72 
 4868      00
 4869              	.LASF86:
 4870 086f 5F496E74 		.ascii	"_InterfaceDescriptor\000"
 4870      65726661 
 4870      63654465 
 4870      73637269 
 4870      70746F72 
 4871              	.LASF107:
 4872 0884 55534248 		.ascii	"USBH_NOT_SUPPORTED\000"
 4872      5F4E4F54 
 4872      5F535550 
 4872      504F5254 
ARM GAS  /tmp/ccMjFzvY.s 			page 94


 4872      454400
 4873              	.LASF151:
 4874 0897 4354524C 		.ascii	"CTRL_StateTypeDef\000"
 4874      5F537461 
 4874      74655479 
 4874      70654465 
 4874      6600
 4875              	.LASF93:
 4876 08a9 69496E74 		.ascii	"iInterface\000"
 4876      65726661 
 4876      636500
 4877              	.LASF154:
 4878 08b4 434D445F 		.ascii	"CMD_WAIT\000"
 4878      57414954 
 4878      00
 4879              	.LASF181:
 4880 08bd 534F4650 		.ascii	"SOFProcess\000"
 4880      726F6365 
 4880      737300
 4881              	.LASF79:
 4882 08c8 55534248 		.ascii	"USBH_DevDescTypeDef\000"
 4882      5F446576 
 4882      44657363 
 4882      54797065 
 4882      44656600 
 4883              	.LASF91:
 4884 08dc 62496E74 		.ascii	"bInterfaceSubClass\000"
 4884      65726661 
 4884      63655375 
 4884      62436C61 
 4884      737300
 4885              	.LASF20:
 4886 08ef 746D6F64 		.ascii	"tmode_t\000"
 4886      655F7400 
 4887              	.LASF188:
 4888 08f7 64657669 		.ascii	"device\000"
 4888      636500
 4889              	.LASF149:
 4890 08fe 4354524C 		.ascii	"CTRL_STALLED\000"
 4890      5F535441 
 4890      4C4C4544 
 4890      00
 4891              	.LASF68:
 4892 090b 62446576 		.ascii	"bDeviceClass\000"
 4892      69636543 
 4892      6C617373 
 4892      00
 4893              	.LASF196:
 4894 0918 74687265 		.ascii	"thread\000"
 4894      616400
 4895              	.LASF190:
 4896 091f 70416374 		.ascii	"pActiveClass\000"
 4896      69766543 
 4896      6C617373 
 4896      00
 4897              	.LASF64:
 4898 092c 5F446576 		.ascii	"_DeviceDescriptor\000"
ARM GAS  /tmp/ccMjFzvY.s 			page 95


 4898      69636544 
 4898      65736372 
 4898      6970746F 
 4898      7200
 4899              	.LASF87:
 4900 093e 62496E74 		.ascii	"bInterfaceNumber\000"
 4900      65726661 
 4900      63654E75 
 4900      6D626572 
 4900      00
 4901              	.LASF167:
 4902 094f 44617461 		.ascii	"Data\000"
 4902      00
 4903              	.LASF2:
 4904 0954 73686F72 		.ascii	"short int\000"
 4904      7420696E 
 4904      7400
 4905              	.LASF141:
 4906 095e 4354524C 		.ascii	"CTRL_DATA_IN_WAIT\000"
 4906      5F444154 
 4906      415F494E 
 4906      5F574149 
 4906      5400
 4907              	.LASF219:
 4908 0970 2F686F6D 		.ascii	"/home/sbcu/Dropbox/pcb-layouts/axo-on-discovery-boa"
 4908      652F7362 
 4908      63752F44 
 4908      726F7062 
 4908      6F782F70 
 4909 09a3 72642F61 		.ascii	"rd/axoloti/firmware\000"
 4909      786F6C6F 
 4909      74692F66 
 4909      69726D77 
 4909      61726500 
 4910              	.LASF84:
 4911 09b7 62496E74 		.ascii	"bInterval\000"
 4911      65727661 
 4911      6C00
 4912              	.LASF139:
 4913 09c1 4354524C 		.ascii	"CTRL_SETUP_WAIT\000"
 4913      5F534554 
 4913      55505F57 
 4913      41495400 
 4914              	.LASF209:
 4915 09d1 55534248 		.ascii	"USBH_CtlReceiveData\000"
 4915      5F43746C 
 4915      52656365 
 4915      69766544 
 4915      61746100 
 4916              	.LASF180:
 4917 09e5 42676E64 		.ascii	"BgndProcess\000"
 4917      50726F63 
 4917      65737300 
 4918              	.LASF26:
 4919 09f1 54687265 		.ascii	"Thread\000"
 4919      616400
 4920              	.LASF166:
ARM GAS  /tmp/ccMjFzvY.s 			page 96


 4921 09f8 43666744 		.ascii	"CfgDesc_Raw\000"
 4921      6573635F 
 4921      52617700 
 4922              	.LASF129:
 4923 0a04 454E554D 		.ascii	"ENUM_GET_FULL_DEV_DESC\000"
 4923      5F474554 
 4923      5F46554C 
 4923      4C5F4445 
 4923      565F4445 
 4924              	.LASF217:
 4925 0a1b 474E5520 		.ascii	"GNU C 4.9.3 20150529 (release) [ARM/embedded-4_9-br"
 4925      4320342E 
 4925      392E3320 
 4925      32303135 
 4925      30353239 
 4926 0a4e 616E6368 		.ascii	"anch revision 224288] -mcpu=cortex-m4 -mfloat-abi=h"
 4926      20726576 
 4926      6973696F 
 4926      6E203232 
 4926      34323838 
 4927 0a81 61726420 		.ascii	"ard -mfpu=fpv4-sp-d16 -mno-thumb-interwork -mthumb "
 4927      2D6D6670 
 4927      753D6670 
 4927      76342D73 
 4927      702D6431 
 4928 0ab4 2D676764 		.ascii	"-ggdb -O2 -fomit-frame-pointer -falign-functions=16"
 4928      62202D4F 
 4928      32202D66 
 4928      6F6D6974 
 4928      2D667261 
 4929 0ae7 202D666E 		.ascii	" -fno-math-errno -fsingle-precision-constant\000"
 4929      6F2D6D61 
 4929      74682D65 
 4929      72726E6F 
 4929      202D6673 
 4930              	.LASF171:
 4931 0b14 63757272 		.ascii	"current_interface\000"
 4931      656E745F 
 4931      696E7465 
 4931      72666163 
 4931      6500
 4932              	.LASF70:
 4933 0b26 62446576 		.ascii	"bDeviceProtocol\000"
 4933      69636550 
 4933      726F746F 
 4933      636F6C00 
 4934              	.LASF179:
 4935 0b36 52657175 		.ascii	"Requests\000"
 4935      65737473 
 4935      00
 4936              	.LASF178:
 4937 0b3f 4465496E 		.ascii	"DeInit\000"
 4937      697400
 4938              	.LASF128:
 4939 0b46 454E554D 		.ascii	"ENUM_IDLE\000"
 4939      5F49444C 
 4939      4500
ARM GAS  /tmp/ccMjFzvY.s 			page 97


 4940              	.LASF119:
 4941 0b50 484F5354 		.ascii	"HOST_ENUMERATION\000"
 4941      5F454E55 
 4941      4D455241 
 4941      54494F4E 
 4941      00
 4942              	.LASF16:
 4943 0b61 75696E74 		.ascii	"uint32_t\000"
 4943      33325F74 
 4943      00
 4944              	.LASF103:
 4945 0b6a 55534248 		.ascii	"USBH_CfgDescTypeDef\000"
 4945      5F436667 
 4945      44657363 
 4945      54797065 
 4945      44656600 
 4946              	.LASF43:
 4947 0b7e 54687265 		.ascii	"ThreadsQueue\000"
 4947      61647351 
 4947      75657565 
 4947      00
 4948              	.LASF142:
 4949 0b8b 4354524C 		.ascii	"CTRL_DATA_OUT\000"
 4949      5F444154 
 4949      415F4F55 
 4949      5400
 4950              	.LASF101:
 4951 0b99 624D6178 		.ascii	"bMaxPower\000"
 4951      506F7765 
 4951      7200
 4952              	.LASF85:
 4953 0ba3 55534248 		.ascii	"USBH_EpDescTypeDef\000"
 4953      5F457044 
 4953      65736354 
 4953      79706544 
 4953      656600
 4954              	.LASF203:
 4955 0bb6 746F6B65 		.ascii	"token\000"
 4955      6E00
 4956              	.LASF52:
 4957 0bbc 7264796D 		.ascii	"rdymsg\000"
 4957      736700
 4958              	.LASF5:
 4959 0bc3 73686F72 		.ascii	"short unsigned int\000"
 4959      7420756E 
 4959      7369676E 
 4959      65642069 
 4959      6E7400
 4960              	.LASF193:
 4961 0bd6 54696D65 		.ascii	"Timer\000"
 4961      7200
 4962              	.LASF113:
 4963 0bdc 55534248 		.ascii	"USBH_SPEED_LOW\000"
 4963      5F535045 
 4963      45445F4C 
 4963      4F5700
 4964              	.LASF216:
ARM GAS  /tmp/ccMjFzvY.s 			page 98


 4965 0beb 48414C5F 		.ascii	"HAL_HCD_HC_SubmitRequest\000"
 4965      4843445F 
 4965      48435F53 
 4965      75626D69 
 4965      74526571 
 4966              	.LASF134:
 4967 0c04 454E554D 		.ascii	"ENUM_GET_PRODUCT_STRING_DESC\000"
 4967      5F474554 
 4967      5F50524F 
 4967      44554354 
 4967      5F535452 
 4968              	.LASF199:
 4969 0c21 70686F73 		.ascii	"phost\000"
 4969      7400
 4970              	.LASF6:
 4971 0c27 5F5F696E 		.ascii	"__int32_t\000"
 4971      7433325F 
 4971      7400
 4972              	.LASF182:
 4973 0c31 70446174 		.ascii	"pData\000"
 4973      6100
 4974              	.LASF191:
 4975 0c37 436C6173 		.ascii	"ClassNumber\000"
 4975      734E756D 
 4975      62657200 
 4976              	.LASF33:
 4977 0c43 705F6E61 		.ascii	"p_name\000"
 4977      6D6500
 4978              	.LASF51:
 4979 0c4a 6D5F6E65 		.ascii	"m_next\000"
 4979      787400
 4980              	.LASF145:
 4981 0c51 4354524C 		.ascii	"CTRL_STATUS_IN_WAIT\000"
 4981      5F535441 
 4981      5455535F 
 4981      494E5F57 
 4981      41495400 
 4982              	.LASF39:
 4983 0c65 705F6D73 		.ascii	"p_msg\000"
 4983      6700
 4984              	.LASF201:
 4985 0c6b 64697265 		.ascii	"direction\000"
 4985      6374696F 
 4985      6E00
 4986              	.LASF34:
 4987 0c75 705F7374 		.ascii	"p_state\000"
 4987      61746500 
 4988              		.ident	"GCC: (GNU Tools for ARM Embedded Processors) 4.9.3 20150529 (release) [ARM/embedded-4_9-br
ARM GAS  /tmp/ccMjFzvY.s 			page 99


DEFINED SYMBOLS
                            *ABS*:00000000 usbh_ioreq.c
     /tmp/ccMjFzvY.s:20     .text:00000000 $t
     /tmp/ccMjFzvY.s:26     .text:00000000 USBH_CtlSendSetup
     /tmp/ccMjFzvY.s:77     .text:00000030 USBH_CtlSendData
     /tmp/ccMjFzvY.s:141    .text:00000060 USBH_CtlReceiveData
     /tmp/ccMjFzvY.s:191    .text:00000090 USBH_BulkSendData
     /tmp/ccMjFzvY.s:255    .text:000000c0 USBH_BulkReceiveData
     /tmp/ccMjFzvY.s:305    .text:000000f0 USBH_InterruptReceiveData
     /tmp/ccMjFzvY.s:355    .text:00000120 USBH_InterruptSendData
     /tmp/ccMjFzvY.s:405    .text:00000150 USBH_IsocReceiveData
     /tmp/ccMjFzvY.s:455    .text:00000180 USBH_IsocSendData
                     .debug_frame:00000010 $d

UNDEFINED SYMBOLS
HAL_HCD_HC_SubmitRequest
