ARM GAS  /tmp/ccqN9A9j.s 			page 1


   1              		.syntax unified
   2              		.cpu cortex-m4
   3              		.eabi_attribute 27, 1
   4              		.eabi_attribute 28, 1
   5              		.fpu fpv4-sp-d16
   6              		.eabi_attribute 20, 1
   7              		.eabi_attribute 21, 1
   8              		.eabi_attribute 23, 3
   9              		.eabi_attribute 24, 1
  10              		.eabi_attribute 25, 1
  11              		.eabi_attribute 26, 1
  12              		.eabi_attribute 30, 2
  13              		.eabi_attribute 34, 1
  14              		.eabi_attribute 18, 4
  15              		.thumb
  16              		.file	"usbh_conf.c"
  17              		.text
  18              	.Ltext0:
  19              		.cfi_sections	.debug_frame
  20              		.align	2
  21              		.p2align 4,,15
  22              		.thumb
  23              		.thumb_func
  24              		.type	USBH_UserProcess, %function
  25              	USBH_UserProcess:
  26              	.LFB153:
  27              		.file 1 "usbh_conf.c"
  28              		.loc 1 467 0
  29              		.cfi_startproc
  30              		@ args = 0, pretend = 0, frame = 0
  31              		@ frame_needed = 0, uses_anonymous_args = 0
  32              		@ link register save eliminated.
  33              	.LVL0:
  34 0000 7047     		bx	lr
  35              		.cfi_endproc
  36              	.LFE153:
  37              		.size	USBH_UserProcess, .-USBH_UserProcess
  38 0002 00BF     		.align	2
  39 0004 AFF30080 		.p2align 4,,15
  39      AFF30080 
  39      AFF30080 
  40              		.global	MIDI_CB
  41              		.thumb
  42              		.thumb_func
  43              		.type	MIDI_CB, %function
  44              	MIDI_CB:
  45              	.LFB133:
  46              		.loc 1 51 0
  47              		.cfi_startproc
  48              		@ args = 0, pretend = 0, frame = 0
  49              		@ frame_needed = 0, uses_anonymous_args = 0
  50              	.LVL1:
  51              		.loc 1 51 0
  52 0010 10B5     		push	{r4, lr}
  53              		.cfi_def_cfa_offset 8
  54              		.cfi_offset 4, -8
  55              		.cfi_offset 14, -4
ARM GAS  /tmp/ccqN9A9j.s 			page 2


  56 0012 82B0     		sub	sp, sp, #8
  57              		.cfi_def_cfa_offset 16
  58              		.loc 1 51 0
  59 0014 1446     		mov	r4, r2
  60              		.loc 1 54 0
  61 0016 0009     		lsrs	r0, r0, #4
  62              	.LVL2:
  63 0018 0A46     		mov	r2, r1
  64              	.LVL3:
  65 001a 0093     		str	r3, [sp]
  66 001c 411C     		adds	r1, r0, #1
  67              	.LVL4:
  68 001e 2346     		mov	r3, r4
  69              	.LVL5:
  70 0020 0320     		movs	r0, #3
  71 0022 FFF7FEFF 		bl	MidiInMsgHandler
  72              	.LVL6:
  73              		.loc 1 55 0
  74 0026 02B0     		add	sp, sp, #8
  75              		.cfi_def_cfa_offset 8
  76              		@ sp needed
  77 0028 10BD     		pop	{r4, pc}
  78              		.cfi_endproc
  79              	.LFE133:
  80              		.size	MIDI_CB, .-MIDI_CB
  81 002a 00BF     		.align	2
  82 002c AFF30080 		.p2align 4,,15
  83              		.global	HAL_HCD_MspInit
  84              		.thumb
  85              		.thumb_func
  86              		.type	HAL_HCD_MspInit, %function
  87              	HAL_HCD_MspInit:
  88              	.LFB134:
  89              		.loc 1 68 0
  90              		.cfi_startproc
  91              		@ args = 0, pretend = 0, frame = 40
  92              		@ frame_needed = 0, uses_anonymous_args = 0
  93              	.LVL7:
  94 0030 2DE9F043 		push	{r4, r5, r6, r7, r8, r9, lr}
  95              		.cfi_def_cfa_offset 28
  96              		.cfi_offset 4, -28
  97              		.cfi_offset 5, -24
  98              		.cfi_offset 6, -20
  99              		.cfi_offset 7, -16
 100              		.cfi_offset 8, -12
 101              		.cfi_offset 9, -8
 102              		.cfi_offset 14, -4
 103              		.loc 1 81 0
 104 0034 0368     		ldr	r3, [r0]
 105 0036 B3F1A04F 		cmp	r3, #1342177280
 106              		.loc 1 68 0
 107 003a 8BB0     		sub	sp, sp, #44
 108              		.cfi_def_cfa_offset 72
 109              		.loc 1 81 0
 110 003c 50D0     		beq	.L9
 111              		.loc 1 119 0
 112 003e 524A     		ldr	r2, .L11
ARM GAS  /tmp/ccqN9A9j.s 			page 3


 113 0040 9342     		cmp	r3, r2
 114 0042 02D0     		beq	.L10
 115              	.LVL8:
 116              	.L4:
 117              		.loc 1 162 0
 118 0044 0BB0     		add	sp, sp, #44
 119              		.cfi_remember_state
 120              		.cfi_def_cfa_offset 28
 121              		@ sp needed
 122 0046 BDE8F083 		pop	{r4, r5, r6, r7, r8, r9, pc}
 123              	.LVL9:
 124              	.L10:
 125              		.cfi_restore_state
 126              		.loc 1 123 0
 127 004a 504C     		ldr	r4, .L11+4
 128 004c 2369     		ldr	r3, [r4, #16]
 129 004e 43F00053 		orr	r3, r3, #536870912
 130 0052 2361     		str	r3, [r4, #16]
 131              		.loc 1 124 0
 132 0054 0120     		movs	r0, #1
 133              	.LVL10:
 134 0056 FFF7FEFF 		bl	chThdSleep
 135              	.LVL11:
 136              		.loc 1 125 0
 137 005a 2369     		ldr	r3, [r4, #16]
 138              		.loc 1 134 0
 139 005c 4C48     		ldr	r0, .L11+8
 140              		.loc 1 125 0
 141 005e 23F00053 		bic	r3, r3, #536870912
 142 0062 2361     		str	r3, [r4, #16]
 143              		.loc 1 132 0
 144 0064 0025     		movs	r5, #0
 145              		.loc 1 131 0
 146 0066 0226     		movs	r6, #2
 147              		.loc 1 134 0
 148 0068 05A9     		add	r1, sp, #20
 149              		.loc 1 128 0
 150 006a 4FF44042 		mov	r2, #49152
 151              		.loc 1 130 0
 152 006e 0323     		movs	r3, #3
 153              		.loc 1 133 0
 154 0070 0C27     		movs	r7, #12
 155              		.loc 1 128 0
 156 0072 0592     		str	r2, [sp, #20]
 157              		.loc 1 130 0
 158 0074 0893     		str	r3, [sp, #32]
 159              		.loc 1 133 0
 160 0076 0997     		str	r7, [sp, #36]
 161              		.loc 1 139 0
 162 0078 4FF00108 		mov	r8, #1
 163              		.loc 1 131 0
 164 007c 0696     		str	r6, [sp, #24]
 165              		.loc 1 132 0
 166 007e 0795     		str	r5, [sp, #28]
 167              		.loc 1 134 0
 168 0080 FFF7FEFF 		bl	HAL_GPIO_Init
 169              	.LVL12:
ARM GAS  /tmp/ccqN9A9j.s 			page 4


 170              		.loc 1 138 0
 171 0084 1223     		movs	r3, #18
 172              		.loc 1 137 0
 173 0086 4FF48052 		mov	r2, #4096
 174              		.loc 1 142 0
 175 008a 05A9     		add	r1, sp, #20
 176 008c 4048     		ldr	r0, .L11+8
 177              		.loc 1 138 0
 178 008e 0693     		str	r3, [sp, #24]
 179              		.loc 1 137 0
 180 0090 0592     		str	r2, [sp, #20]
 181              		.loc 1 141 0
 182 0092 0997     		str	r7, [sp, #36]
 183              		.loc 1 140 0
 184 0094 0896     		str	r6, [sp, #32]
 185              		.loc 1 146 0
 186 0096 8027     		movs	r7, #128
 187              		.loc 1 139 0
 188 0098 CDF81C80 		str	r8, [sp, #28]
 189              		.loc 1 142 0
 190 009c FFF7FEFF 		bl	HAL_GPIO_Init
 191              	.LVL13:
 192              		.loc 1 150 0
 193 00a0 05A9     		add	r1, sp, #20
 194 00a2 3C48     		ldr	r0, .L11+12
 195              		.loc 1 147 0
 196 00a4 0896     		str	r6, [sp, #32]
 197              		.loc 1 148 0
 198 00a6 CDF81880 		str	r8, [sp, #24]
 199              		.loc 1 149 0
 200 00aa 0795     		str	r5, [sp, #28]
 201              		.loc 1 146 0
 202 00ac 0597     		str	r7, [sp, #20]
 203              		.loc 1 150 0
 204 00ae FFF7FEFF 		bl	HAL_GPIO_Init
 205              	.LVL14:
 206              		.loc 1 151 0
 207 00b2 3946     		mov	r1, r7
 208 00b4 2A46     		mov	r2, r5
 209 00b6 3748     		ldr	r0, .L11+12
 210 00b8 FFF7FEFF 		bl	HAL_GPIO_WritePin
 211              	.LVL15:
 212              	.LBB2:
 213              		.loc 1 154 0
 214 00bc 236B     		ldr	r3, [r4, #48]
 215 00be 43F00053 		orr	r3, r3, #536870912
 216 00c2 2363     		str	r3, [r4, #48]
 217 00c4 236B     		ldr	r3, [r4, #48]
 218 00c6 03F00053 		and	r3, r3, #536870912
 219 00ca 0493     		str	r3, [sp, #16]
 220              	.LBE2:
 221              		.loc 1 157 0
 222 00cc 2A46     		mov	r2, r5
 223 00ce 4D20     		movs	r0, #77
 224 00d0 0621     		movs	r1, #6
 225              	.LBB3:
 226              		.loc 1 154 0
ARM GAS  /tmp/ccqN9A9j.s 			page 5


 227 00d2 049B     		ldr	r3, [sp, #16]
 228              	.LBE3:
 229              		.loc 1 157 0
 230 00d4 FFF7FEFF 		bl	HAL_NVIC_SetPriority
 231              	.LVL16:
 232              		.loc 1 160 0
 233 00d8 4D20     		movs	r0, #77
 234 00da FFF7FEFF 		bl	HAL_NVIC_EnableIRQ
 235              	.LVL17:
 236 00de B1E7     		b	.L4
 237              	.LVL18:
 238              	.L9:
 239              	.LBB4:
 240              		.loc 1 83 0
 241 00e0 2A4C     		ldr	r4, .L11+4
 242              	.LBE4:
 243              		.loc 1 93 0
 244 00e2 2D48     		ldr	r0, .L11+16
 245              	.LVL19:
 246              	.LBB5:
 247              		.loc 1 83 0
 248 00e4 236B     		ldr	r3, [r4, #48]
 249 00e6 43F00103 		orr	r3, r3, #1
 250 00ea 2363     		str	r3, [r4, #48]
 251 00ec 236B     		ldr	r3, [r4, #48]
 252 00ee 03F00103 		and	r3, r3, #1
 253 00f2 0193     		str	r3, [sp, #4]
 254 00f4 019B     		ldr	r3, [sp, #4]
 255              	.LBE5:
 256              	.LBB6:
 257              		.loc 1 84 0
 258 00f6 236B     		ldr	r3, [r4, #48]
 259 00f8 43F00403 		orr	r3, r3, #4
 260 00fc 2363     		str	r3, [r4, #48]
 261 00fe 236B     		ldr	r3, [r4, #48]
 262 0100 03F00403 		and	r3, r3, #4
 263 0104 0293     		str	r3, [sp, #8]
 264              	.LBE6:
 265              		.loc 1 91 0
 266 0106 0025     		movs	r5, #0
 267              		.loc 1 93 0
 268 0108 05A9     		add	r1, sp, #20
 269              		.loc 1 87 0
 270 010a 4FF4C053 		mov	r3, #6144
 271              		.loc 1 89 0
 272 010e 4FF00309 		mov	r9, #3
 273              		.loc 1 90 0
 274 0112 0227     		movs	r7, #2
 275              		.loc 1 92 0
 276 0114 4FF00A08 		mov	r8, #10
 277              	.LBB7:
 278              		.loc 1 84 0
 279 0118 029A     		ldr	r2, [sp, #8]
 280              	.LBE7:
 281              		.loc 1 87 0
 282 011a 0593     		str	r3, [sp, #20]
 283              		.loc 1 98 0
ARM GAS  /tmp/ccqN9A9j.s 			page 6


 284 011c 0126     		movs	r6, #1
 285              		.loc 1 89 0
 286 011e CDF82090 		str	r9, [sp, #32]
 287              		.loc 1 90 0
 288 0122 0697     		str	r7, [sp, #24]
 289              		.loc 1 91 0
 290 0124 0795     		str	r5, [sp, #28]
 291              		.loc 1 92 0
 292 0126 CDF82480 		str	r8, [sp, #36]
 293              		.loc 1 93 0
 294 012a FFF7FEFF 		bl	HAL_GPIO_Init
 295              	.LVL20:
 296              		.loc 1 96 0
 297 012e 4FF48062 		mov	r2, #1024
 298              		.loc 1 101 0
 299 0132 05A9     		add	r1, sp, #20
 300              		.loc 1 97 0
 301 0134 1223     		movs	r3, #18
 302              		.loc 1 101 0
 303 0136 1848     		ldr	r0, .L11+16
 304              		.loc 1 96 0
 305 0138 0592     		str	r2, [sp, #20]
 306              		.loc 1 97 0
 307 013a 0693     		str	r3, [sp, #24]
 308              		.loc 1 99 0
 309 013c CDF82090 		str	r9, [sp, #32]
 310              		.loc 1 100 0
 311 0140 CDF82480 		str	r8, [sp, #36]
 312              		.loc 1 98 0
 313 0144 0796     		str	r6, [sp, #28]
 314              		.loc 1 101 0
 315 0146 FFF7FEFF 		bl	HAL_GPIO_Init
 316              	.LVL21:
 317              		.loc 1 108 0
 318 014a 05A9     		add	r1, sp, #20
 319              		.loc 1 104 0
 320 014c 8023     		movs	r3, #128
 321              		.loc 1 108 0
 322 014e 1148     		ldr	r0, .L11+12
 323              		.loc 1 104 0
 324 0150 0593     		str	r3, [sp, #20]
 325              		.loc 1 105 0
 326 0152 0897     		str	r7, [sp, #32]
 327              		.loc 1 106 0
 328 0154 0696     		str	r6, [sp, #24]
 329              		.loc 1 107 0
 330 0156 0795     		str	r5, [sp, #28]
 331              		.loc 1 108 0
 332 0158 FFF7FEFF 		bl	HAL_GPIO_Init
 333              	.LVL22:
 334              		.loc 1 111 0
 335 015c 636B     		ldr	r3, [r4, #52]
 336 015e 43F08003 		orr	r3, r3, #128
 337 0162 6363     		str	r3, [r4, #52]
 338              	.LBB8:
 339 0164 636C     		ldr	r3, [r4, #68]
 340 0166 43F48043 		orr	r3, r3, #16384
ARM GAS  /tmp/ccqN9A9j.s 			page 7


 341 016a 6364     		str	r3, [r4, #68]
 342 016c 636C     		ldr	r3, [r4, #68]
 343 016e 03F48043 		and	r3, r3, #16384
 344 0172 0393     		str	r3, [sp, #12]
 345              	.LBE8:
 346              		.loc 1 114 0
 347 0174 2A46     		mov	r2, r5
 348 0176 4320     		movs	r0, #67
 349 0178 0621     		movs	r1, #6
 350              	.LBB9:
 351              		.loc 1 111 0
 352 017a 039B     		ldr	r3, [sp, #12]
 353              	.LBE9:
 354              		.loc 1 114 0
 355 017c FFF7FEFF 		bl	HAL_NVIC_SetPriority
 356              	.LVL23:
 357              		.loc 1 117 0
 358 0180 4320     		movs	r0, #67
 359 0182 FFF7FEFF 		bl	HAL_NVIC_EnableIRQ
 360              	.LVL24:
 361 0186 5DE7     		b	.L4
 362              	.L12:
 363              		.align	2
 364              	.L11:
 365 0188 00000440 		.word	1074003968
 366 018c 00380240 		.word	1073887232
 367 0190 00040240 		.word	1073873920
 368 0194 000C0240 		.word	1073875968
 369 0198 00000240 		.word	1073872896
 370              		.cfi_endproc
 371              	.LFE134:
 372              		.size	HAL_HCD_MspInit, .-HAL_HCD_MspInit
 373              		.align	2
 374 019c AFF30080 		.p2align 4,,15
 375              		.global	HAL_HCD_MspDeInit
 376              		.thumb
 377              		.thumb_func
 378              		.type	HAL_HCD_MspDeInit, %function
 379              	HAL_HCD_MspDeInit:
 380              	.LFB135:
 381              		.loc 1 169 0
 382              		.cfi_startproc
 383              		@ args = 0, pretend = 0, frame = 0
 384              		@ frame_needed = 0, uses_anonymous_args = 0
 385              		@ link register save eliminated.
 386              	.LVL25:
 387              		.loc 1 170 0
 388 01a0 0368     		ldr	r3, [r0]
 389 01a2 B3F1A04F 		cmp	r3, #1342177280
 390 01a6 0AD0     		beq	.L16
 391              		.loc 1 174 0
 392 01a8 0A4A     		ldr	r2, .L18
 393 01aa 9342     		cmp	r3, r2
 394 01ac 00D0     		beq	.L17
 395 01ae 7047     		bx	lr
 396              	.L17:
 397              		.loc 1 176 0
ARM GAS  /tmp/ccqN9A9j.s 			page 8


 398 01b0 A2F5E432 		sub	r2, r2, #116736
 399 01b4 136B     		ldr	r3, [r2, #48]
 400 01b6 23F00053 		bic	r3, r3, #536870912
 401 01ba 1363     		str	r3, [r2, #48]
 402 01bc 7047     		bx	lr
 403              	.L16:
 404              		.loc 1 172 0
 405 01be 064B     		ldr	r3, .L18+4
 406 01c0 5A6B     		ldr	r2, [r3, #52]
 407 01c2 22F08002 		bic	r2, r2, #128
 408 01c6 5A63     		str	r2, [r3, #52]
 409 01c8 5A6C     		ldr	r2, [r3, #68]
 410 01ca 22F48042 		bic	r2, r2, #16384
 411 01ce 5A64     		str	r2, [r3, #68]
 412 01d0 7047     		bx	lr
 413              	.L19:
 414 01d2 00BF     		.align	2
 415              	.L18:
 416 01d4 00000440 		.word	1074003968
 417 01d8 00380240 		.word	1073887232
 418              		.cfi_endproc
 419              	.LFE135:
 420              		.size	HAL_HCD_MspDeInit, .-HAL_HCD_MspDeInit
 421              		.align	2
 422 01dc AFF30080 		.p2align 4,,15
 423              		.global	HAL_HCD_SOF_Callback
 424              		.thumb
 425              		.thumb_func
 426              		.type	HAL_HCD_SOF_Callback, %function
 427              	HAL_HCD_SOF_Callback:
 428              	.LFB136:
 429              		.loc 1 188 0
 430              		.cfi_startproc
 431              		@ args = 0, pretend = 0, frame = 0
 432              		@ frame_needed = 0, uses_anonymous_args = 0
 433              		@ link register save eliminated.
 434              	.LVL26:
 435              		.loc 1 189 0
 436 01e0 D0F89002 		ldr	r0, [r0, #656]
 437              	.LVL27:
 438 01e4 FFF7FEBF 		b	USBH_LL_IncTimer
 439              	.LVL28:
 440              		.cfi_endproc
 441              	.LFE136:
 442              		.size	HAL_HCD_SOF_Callback, .-HAL_HCD_SOF_Callback
 443              		.align	2
 444 01e8 AFF30080 		.p2align 4,,15
 444      AFF30080 
 445              		.global	HAL_HCD_Connect_Callback
 446              		.thumb
 447              		.thumb_func
 448              		.type	HAL_HCD_Connect_Callback, %function
 449              	HAL_HCD_Connect_Callback:
 450              	.LFB137:
 451              		.loc 1 197 0
 452              		.cfi_startproc
 453              		@ args = 0, pretend = 0, frame = 0
ARM GAS  /tmp/ccqN9A9j.s 			page 9


 454              		@ frame_needed = 0, uses_anonymous_args = 0
 455              		@ link register save eliminated.
 456              	.LVL29:
 457              		.loc 1 198 0
 458 01f0 D0F89002 		ldr	r0, [r0, #656]
 459              	.LVL30:
 460 01f4 FFF7FEBF 		b	USBH_LL_Connect
 461              	.LVL31:
 462              		.cfi_endproc
 463              	.LFE137:
 464              		.size	HAL_HCD_Connect_Callback, .-HAL_HCD_Connect_Callback
 465              		.align	2
 466 01f8 AFF30080 		.p2align 4,,15
 466      AFF30080 
 467              		.global	HAL_HCD_Disconnect_Callback
 468              		.thumb
 469              		.thumb_func
 470              		.type	HAL_HCD_Disconnect_Callback, %function
 471              	HAL_HCD_Disconnect_Callback:
 472              	.LFB138:
 473              		.loc 1 206 0
 474              		.cfi_startproc
 475              		@ args = 0, pretend = 0, frame = 0
 476              		@ frame_needed = 0, uses_anonymous_args = 0
 477              		@ link register save eliminated.
 478              	.LVL32:
 479              		.loc 1 207 0
 480 0200 D0F89002 		ldr	r0, [r0, #656]
 481              	.LVL33:
 482 0204 FFF7FEBF 		b	USBH_LL_Disconnect
 483              	.LVL34:
 484              		.cfi_endproc
 485              	.LFE138:
 486              		.size	HAL_HCD_Disconnect_Callback, .-HAL_HCD_Disconnect_Callback
 487              		.align	2
 488 0208 AFF30080 		.p2align 4,,15
 488      AFF30080 
 489              		.global	HAL_HCD_HC_NotifyURBChange_Callback
 490              		.thumb
 491              		.thumb_func
 492              		.type	HAL_HCD_HC_NotifyURBChange_Callback, %function
 493              	HAL_HCD_HC_NotifyURBChange_Callback:
 494              	.LFB139:
 495              		.loc 1 216 0
 496              		.cfi_startproc
 497              		@ args = 0, pretend = 0, frame = 0
 498              		@ frame_needed = 0, uses_anonymous_args = 0
 499              		@ link register save eliminated.
 500              	.LVL35:
 501              		.loc 1 218 0
 502 0210 D0F89002 		ldr	r0, [r0, #656]
 503              	.LVL36:
 504 0214 FFF7FEBF 		b	USBH_LL_NotifyURBChange
 505              	.LVL37:
 506              		.cfi_endproc
 507              	.LFE139:
 508              		.size	HAL_HCD_HC_NotifyURBChange_Callback, .-HAL_HCD_HC_NotifyURBChange_Callback
ARM GAS  /tmp/ccqN9A9j.s 			page 10


 509              		.align	2
 510 0218 AFF30080 		.p2align 4,,15
 510      AFF30080 
 511              		.global	USBH_LL_Init
 512              		.thumb
 513              		.thumb_func
 514              		.type	USBH_LL_Init, %function
 515              	USBH_LL_Init:
 516              	.LFB140:
 517              		.loc 1 230 0
 518              		.cfi_startproc
 519              		@ args = 0, pretend = 0, frame = 0
 520              		@ frame_needed = 0, uses_anonymous_args = 0
 521              	.LVL38:
 522 0220 F8B5     		push	{r3, r4, r5, r6, r7, lr}
 523              		.cfi_def_cfa_offset 24
 524              		.cfi_offset 3, -24
 525              		.cfi_offset 4, -20
 526              		.cfi_offset 5, -16
 527              		.cfi_offset 6, -12
 528              		.cfi_offset 7, -8
 529              		.cfi_offset 14, -4
 530              		.loc 1 233 0
 531 0222 154B     		ldr	r3, .L26
 532              		.loc 1 237 0
 533 0224 154C     		ldr	r4, .L26+4
 534              		.loc 1 233 0
 535 0226 1A6B     		ldr	r2, [r3, #48]
 536              		.loc 1 237 0
 537 0228 DFF854E0 		ldr	lr, .L26+8
 538              		.loc 1 233 0
 539 022c 42F00052 		orr	r2, r2, #536870912
 540 0230 1A63     		str	r2, [r3, #48]
 541              		.loc 1 234 0
 542 0232 1A6D     		ldr	r2, [r3, #80]
 543 0234 42F00052 		orr	r2, r2, #536870912
 544 0238 1A65     		str	r2, [r3, #80]
 545              		.loc 1 240 0
 546 023a 0025     		movs	r5, #0
 547              		.loc 1 241 0
 548 023c 0222     		movs	r2, #2
 549              		.loc 1 243 0
 550 023e 0323     		movs	r3, #3
 551              		.loc 1 230 0
 552 0240 0646     		mov	r6, r0
 553              		.loc 1 239 0
 554 0242 0121     		movs	r1, #1
 555              		.loc 1 247 0
 556 0244 C0F8F045 		str	r4, [r0, #1520]
 557              		.loc 1 238 0
 558 0248 0B27     		movs	r7, #11
 559              		.loc 1 249 0
 560 024a 2046     		mov	r0, r4
 561              	.LVL39:
 562              		.loc 1 237 0
 563 024c C4F800E0 		str	lr, [r4]
 564              		.loc 1 239 0
ARM GAS  /tmp/ccqN9A9j.s 			page 11


 565 0250 2161     		str	r1, [r4, #16]
 566              		.loc 1 241 0
 567 0252 A261     		str	r2, [r4, #24]
 568              		.loc 1 243 0
 569 0254 E360     		str	r3, [r4, #12]
 570              		.loc 1 246 0
 571 0256 C4F89062 		str	r6, [r4, #656]
 572              		.loc 1 238 0
 573 025a A760     		str	r7, [r4, #8]
 574              		.loc 1 240 0
 575 025c 2562     		str	r5, [r4, #32]
 576              		.loc 1 242 0
 577 025e E561     		str	r5, [r4, #28]
 578              		.loc 1 244 0
 579 0260 A562     		str	r5, [r4, #40]
 580              		.loc 1 249 0
 581 0262 FFF7FEFF 		bl	HAL_HCD_Init
 582              	.LVL40:
 583              		.loc 1 252 0
 584 0266 2046     		mov	r0, r4
 585 0268 FFF7FEFF 		bl	HAL_HCD_GetCurrentFrame
 586              	.LVL41:
 587 026c 0146     		mov	r1, r0
 588 026e 3046     		mov	r0, r6
 589 0270 FFF7FEFF 		bl	USBH_LL_SetTimer
 590              	.LVL42:
 591              		.loc 1 255 0
 592 0274 2846     		mov	r0, r5
 593 0276 F8BD     		pop	{r3, r4, r5, r6, r7, pc}
 594              	.LVL43:
 595              	.L27:
 596              		.align	2
 597              	.L26:
 598 0278 00380240 		.word	1073887232
 599 027c 00000000 		.word	hHCD
 600 0280 00000440 		.word	1074003968
 601              		.cfi_endproc
 602              	.LFE140:
 603              		.size	USBH_LL_Init, .-USBH_LL_Init
 604              		.align	2
 605 0284 AFF30080 		.p2align 4,,15
 605      AFF30080 
 605      AFF30080 
 606              		.global	USBH_LL_DeInit
 607              		.thumb
 608              		.thumb_func
 609              		.type	USBH_LL_DeInit, %function
 610              	USBH_LL_DeInit:
 611              	.LFB141:
 612              		.loc 1 263 0
 613              		.cfi_startproc
 614              		@ args = 0, pretend = 0, frame = 0
 615              		@ frame_needed = 0, uses_anonymous_args = 0
 616              	.LVL44:
 617 0290 08B5     		push	{r3, lr}
 618              		.cfi_def_cfa_offset 8
 619              		.cfi_offset 3, -8
ARM GAS  /tmp/ccqN9A9j.s 			page 12


 620              		.cfi_offset 14, -4
 621              		.loc 1 264 0
 622 0292 D0F8F005 		ldr	r0, [r0, #1520]
 623              	.LVL45:
 624 0296 FFF7FEFF 		bl	HAL_HCD_DeInit
 625              	.LVL46:
 626              		.loc 1 266 0
 627 029a 0020     		movs	r0, #0
 628 029c 08BD     		pop	{r3, pc}
 629              		.cfi_endproc
 630              	.LFE141:
 631              		.size	USBH_LL_DeInit, .-USBH_LL_DeInit
 632 029e 00BF     		.align	2
 633              		.p2align 4,,15
 634              		.global	USBH_LL_Start
 635              		.thumb
 636              		.thumb_func
 637              		.type	USBH_LL_Start, %function
 638              	USBH_LL_Start:
 639              	.LFB142:
 640              		.loc 1 274 0
 641              		.cfi_startproc
 642              		@ args = 0, pretend = 0, frame = 0
 643              		@ frame_needed = 0, uses_anonymous_args = 0
 644              	.LVL47:
 645 02a0 08B5     		push	{r3, lr}
 646              		.cfi_def_cfa_offset 8
 647              		.cfi_offset 3, -8
 648              		.cfi_offset 14, -4
 649              		.loc 1 275 0
 650 02a2 D0F8F005 		ldr	r0, [r0, #1520]
 651              	.LVL48:
 652 02a6 FFF7FEFF 		bl	HAL_HCD_Start
 653              	.LVL49:
 654              		.loc 1 277 0
 655 02aa 0020     		movs	r0, #0
 656 02ac 08BD     		pop	{r3, pc}
 657              		.cfi_endproc
 658              	.LFE142:
 659              		.size	USBH_LL_Start, .-USBH_LL_Start
 660 02ae 00BF     		.align	2
 661              		.p2align 4,,15
 662              		.global	USBH_LL_Stop
 663              		.thumb
 664              		.thumb_func
 665              		.type	USBH_LL_Stop, %function
 666              	USBH_LL_Stop:
 667              	.LFB143:
 668              		.loc 1 285 0
 669              		.cfi_startproc
 670              		@ args = 0, pretend = 0, frame = 0
 671              		@ frame_needed = 0, uses_anonymous_args = 0
 672              	.LVL50:
 673 02b0 08B5     		push	{r3, lr}
 674              		.cfi_def_cfa_offset 8
 675              		.cfi_offset 3, -8
 676              		.cfi_offset 14, -4
ARM GAS  /tmp/ccqN9A9j.s 			page 13


 677              		.loc 1 286 0
 678 02b2 D0F8F005 		ldr	r0, [r0, #1520]
 679              	.LVL51:
 680 02b6 FFF7FEFF 		bl	HAL_HCD_Stop
 681              	.LVL52:
 682              		.loc 1 288 0
 683 02ba 0020     		movs	r0, #0
 684 02bc 08BD     		pop	{r3, pc}
 685              		.cfi_endproc
 686              	.LFE143:
 687              		.size	USBH_LL_Stop, .-USBH_LL_Stop
 688 02be 00BF     		.align	2
 689              		.p2align 4,,15
 690              		.global	USBH_LL_GetSpeed
 691              		.thumb
 692              		.thumb_func
 693              		.type	USBH_LL_GetSpeed, %function
 694              	USBH_LL_GetSpeed:
 695              	.LFB144:
 696              		.loc 1 296 0
 697              		.cfi_startproc
 698              		@ args = 0, pretend = 0, frame = 0
 699              		@ frame_needed = 0, uses_anonymous_args = 0
 700              	.LVL53:
 701 02c0 08B5     		push	{r3, lr}
 702              		.cfi_def_cfa_offset 8
 703              		.cfi_offset 3, -8
 704              		.cfi_offset 14, -4
 705              		.loc 1 299 0
 706 02c2 D0F8F005 		ldr	r0, [r0, #1520]
 707              	.LVL54:
 708 02c6 FFF7FEFF 		bl	HAL_HCD_GetCurrentSpeed
 709              	.LVL55:
 710 02ca 0228     		cmp	r0, #2
 711 02cc 9ABF     		itte	ls
 712 02ce 024B     		ldrls	r3, .L38
 713 02d0 185C     		ldrbls	r0, [r3, r0]	@ zero_extendqisi2
 714 02d2 0120     		movhi	r0, #1
 715              	.LVL56:
 716              		.loc 1 317 0
 717 02d4 08BD     		pop	{r3, pc}
 718              	.L39:
 719 02d6 00BF     		.align	2
 720              	.L38:
 721 02d8 00000000 		.word	.LANCHOR0
 722              		.cfi_endproc
 723              	.LFE144:
 724              		.size	USBH_LL_GetSpeed, .-USBH_LL_GetSpeed
 725              		.align	2
 726 02dc AFF30080 		.p2align 4,,15
 727              		.global	USBH_LL_ResetPort
 728              		.thumb
 729              		.thumb_func
 730              		.type	USBH_LL_ResetPort, %function
 731              	USBH_LL_ResetPort:
 732              	.LFB145:
 733              		.loc 1 325 0
ARM GAS  /tmp/ccqN9A9j.s 			page 14


 734              		.cfi_startproc
 735              		@ args = 0, pretend = 0, frame = 0
 736              		@ frame_needed = 0, uses_anonymous_args = 0
 737              	.LVL57:
 738 02e0 08B5     		push	{r3, lr}
 739              		.cfi_def_cfa_offset 8
 740              		.cfi_offset 3, -8
 741              		.cfi_offset 14, -4
 742              		.loc 1 326 0
 743 02e2 D0F8F005 		ldr	r0, [r0, #1520]
 744              	.LVL58:
 745 02e6 FFF7FEFF 		bl	HAL_HCD_ResetPort
 746              	.LVL59:
 747              		.loc 1 328 0
 748 02ea 0020     		movs	r0, #0
 749 02ec 08BD     		pop	{r3, pc}
 750              		.cfi_endproc
 751              	.LFE145:
 752              		.size	USBH_LL_ResetPort, .-USBH_LL_ResetPort
 753 02ee 00BF     		.align	2
 754              		.p2align 4,,15
 755              		.global	USBH_LL_GetLastXferSize
 756              		.thumb
 757              		.thumb_func
 758              		.type	USBH_LL_GetLastXferSize, %function
 759              	USBH_LL_GetLastXferSize:
 760              	.LFB146:
 761              		.loc 1 337 0
 762              		.cfi_startproc
 763              		@ args = 0, pretend = 0, frame = 0
 764              		@ frame_needed = 0, uses_anonymous_args = 0
 765              		@ link register save eliminated.
 766              	.LVL60:
 767              		.loc 1 338 0
 768 02f0 D0F8F005 		ldr	r0, [r0, #1520]
 769              	.LVL61:
 770 02f4 FFF7FEBF 		b	HAL_HCD_HC_GetXferCount
 771              	.LVL62:
 772              		.cfi_endproc
 773              	.LFE146:
 774              		.size	USBH_LL_GetLastXferSize, .-USBH_LL_GetLastXferSize
 775              		.align	2
 776 02f8 AFF30080 		.p2align 4,,15
 776      AFF30080 
 777              		.global	USBH_LL_OpenPipe
 778              		.thumb
 779              		.thumb_func
 780              		.type	USBH_LL_OpenPipe, %function
 781              	USBH_LL_OpenPipe:
 782              	.LFB147:
 783              		.loc 1 356 0
 784              		.cfi_startproc
 785              		@ args = 12, pretend = 0, frame = 0
 786              		@ frame_needed = 0, uses_anonymous_args = 0
 787              	.LVL63:
 788 0300 70B5     		push	{r4, r5, r6, lr}
 789              		.cfi_def_cfa_offset 16
ARM GAS  /tmp/ccqN9A9j.s 			page 15


 790              		.cfi_offset 4, -16
 791              		.cfi_offset 5, -12
 792              		.cfi_offset 6, -8
 793              		.cfi_offset 14, -4
 794 0302 84B0     		sub	sp, sp, #16
 795              		.cfi_def_cfa_offset 32
 796              		.loc 1 357 0
 797 0304 D0F8F005 		ldr	r0, [r0, #1520]
 798              	.LVL64:
 799              		.loc 1 356 0
 800 0308 9DF82060 		ldrb	r6, [sp, #32]	@ zero_extendqisi2
 801 030c 9DF82450 		ldrb	r5, [sp, #36]	@ zero_extendqisi2
 802 0310 BDF82840 		ldrh	r4, [sp, #40]
 803              		.loc 1 357 0
 804 0314 0096     		str	r6, [sp]
 805 0316 0195     		str	r5, [sp, #4]
 806 0318 0294     		str	r4, [sp, #8]
 807 031a FFF7FEFF 		bl	HAL_HCD_HC_Init
 808              	.LVL65:
 809              		.loc 1 360 0
 810 031e 0020     		movs	r0, #0
 811 0320 04B0     		add	sp, sp, #16
 812              		.cfi_def_cfa_offset 16
 813              		@ sp needed
 814 0322 70BD     		pop	{r4, r5, r6, pc}
 815              		.cfi_endproc
 816              	.LFE147:
 817              		.size	USBH_LL_OpenPipe, .-USBH_LL_OpenPipe
 818              		.align	2
 819 0324 AFF30080 		.p2align 4,,15
 819      AFF30080 
 819      AFF30080 
 820              		.global	USBH_LL_ClosePipe
 821              		.thumb
 822              		.thumb_func
 823              		.type	USBH_LL_ClosePipe, %function
 824              	USBH_LL_ClosePipe:
 825              	.LFB148:
 826              		.loc 1 369 0
 827              		.cfi_startproc
 828              		@ args = 0, pretend = 0, frame = 0
 829              		@ frame_needed = 0, uses_anonymous_args = 0
 830              	.LVL66:
 831 0330 08B5     		push	{r3, lr}
 832              		.cfi_def_cfa_offset 8
 833              		.cfi_offset 3, -8
 834              		.cfi_offset 14, -4
 835              		.loc 1 370 0
 836 0332 D0F8F005 		ldr	r0, [r0, #1520]
 837              	.LVL67:
 838 0336 FFF7FEFF 		bl	HAL_HCD_HC_Halt
 839              	.LVL68:
 840              		.loc 1 372 0
 841 033a 0020     		movs	r0, #0
 842 033c 08BD     		pop	{r3, pc}
 843              		.cfi_endproc
 844              	.LFE148:
ARM GAS  /tmp/ccqN9A9j.s 			page 16


 845              		.size	USBH_LL_ClosePipe, .-USBH_LL_ClosePipe
 846 033e 00BF     		.align	2
 847              		.p2align 4,,15
 848              		.global	USBH_LL_DriverVBUS
 849              		.thumb
 850              		.thumb_func
 851              		.type	USBH_LL_DriverVBUS, %function
 852              	USBH_LL_DriverVBUS:
 853              	.LFB149:
 854              		.loc 1 385 0
 855              		.cfi_startproc
 856              		@ args = 0, pretend = 0, frame = 0
 857              		@ frame_needed = 0, uses_anonymous_args = 0
 858              	.LVL69:
 859 0340 08B5     		push	{r3, lr}
 860              		.cfi_def_cfa_offset 8
 861              		.cfi_offset 3, -8
 862              		.cfi_offset 14, -4
 863              		.loc 1 400 0
 864 0342 0A48     		ldr	r0, .L52
 865              	.LVL70:
 866              		.loc 1 398 0
 867 0344 41B1     		cbz	r1, .L51
 868              		.loc 1 404 0
 869 0346 8021     		movs	r1, #128
 870              	.LVL71:
 871 0348 0022     		movs	r2, #0
 872 034a FFF7FEFF 		bl	HAL_GPIO_WritePin
 873              	.LVL72:
 874              		.loc 1 407 0
 875 034e C820     		movs	r0, #200
 876 0350 FFF7FEFF 		bl	HAL_Delay
 877              	.LVL73:
 878              		.loc 1 409 0
 879 0354 0020     		movs	r0, #0
 880 0356 08BD     		pop	{r3, pc}
 881              	.LVL74:
 882              	.L51:
 883              		.loc 1 400 0
 884 0358 8021     		movs	r1, #128
 885              	.LVL75:
 886 035a 0122     		movs	r2, #1
 887 035c FFF7FEFF 		bl	HAL_GPIO_WritePin
 888              	.LVL76:
 889              		.loc 1 407 0
 890 0360 C820     		movs	r0, #200
 891 0362 FFF7FEFF 		bl	HAL_Delay
 892              	.LVL77:
 893              		.loc 1 409 0
 894 0366 0020     		movs	r0, #0
 895 0368 08BD     		pop	{r3, pc}
 896              	.L53:
 897 036a 00BF     		.align	2
 898              	.L52:
 899 036c 000C0240 		.word	1073875968
 900              		.cfi_endproc
 901              	.LFE149:
ARM GAS  /tmp/ccqN9A9j.s 			page 17


 902              		.size	USBH_LL_DriverVBUS, .-USBH_LL_DriverVBUS
 903              		.align	2
 904              		.p2align 4,,15
 905              		.global	USBH_LL_SetToggle
 906              		.thumb
 907              		.thumb_func
 908              		.type	USBH_LL_SetToggle, %function
 909              	USBH_LL_SetToggle:
 910              	.LFB150:
 911              		.loc 1 421 0
 912              		.cfi_startproc
 913              		@ args = 0, pretend = 0, frame = 0
 914              		@ frame_needed = 0, uses_anonymous_args = 0
 915              		@ link register save eliminated.
 916              	.LVL78:
 917              		.loc 1 422 0
 918 0370 074B     		ldr	r3, .L58
 919 0372 01EB8101 		add	r1, r1, r1, lsl #2
 920              	.LVL79:
 921 0376 03EBC101 		add	r1, r3, r1, lsl #3
 922 037a 91F83730 		ldrb	r3, [r1, #55]	@ zero_extendqisi2
 923 037e 1BB9     		cbnz	r3, .L57
 924              		.loc 1 426 0
 925 0380 81F84D20 		strb	r2, [r1, #77]
 926              		.loc 1 429 0
 927 0384 0020     		movs	r0, #0
 928              	.LVL80:
 929 0386 7047     		bx	lr
 930              	.LVL81:
 931              	.L57:
 932              		.loc 1 423 0
 933 0388 81F84C20 		strb	r2, [r1, #76]
 934              		.loc 1 429 0
 935 038c 0020     		movs	r0, #0
 936              	.LVL82:
 937 038e 7047     		bx	lr
 938              	.L59:
 939              		.align	2
 940              	.L58:
 941 0390 00000000 		.word	hHCD
 942              		.cfi_endproc
 943              	.LFE150:
 944              		.size	USBH_LL_SetToggle, .-USBH_LL_SetToggle
 945              		.align	2
 946 0394 AFF30080 		.p2align 4,,15
 946      AFF30080 
 946      AFF30080 
 947              		.global	USBH_LL_GetToggle
 948              		.thumb
 949              		.thumb_func
 950              		.type	USBH_LL_GetToggle, %function
 951              	USBH_LL_GetToggle:
 952              	.LFB151:
 953              		.loc 1 438 0
 954              		.cfi_startproc
 955              		@ args = 0, pretend = 0, frame = 0
 956              		@ frame_needed = 0, uses_anonymous_args = 0
ARM GAS  /tmp/ccqN9A9j.s 			page 18


 957              		@ link register save eliminated.
 958              	.LVL83:
 959              		.loc 1 441 0
 960 03a0 064B     		ldr	r3, .L64
 961 03a2 01EB8101 		add	r1, r1, r1, lsl #2
 962              	.LVL84:
 963 03a6 03EBC101 		add	r1, r3, r1, lsl #3
 964 03aa 91F83730 		ldrb	r3, [r1, #55]	@ zero_extendqisi2
 965 03ae 13B9     		cbnz	r3, .L63
 966              		.loc 1 445 0
 967 03b0 91F84D00 		ldrb	r0, [r1, #77]	@ zero_extendqisi2
 968              	.LVL85:
 969              		.loc 1 448 0
 970 03b4 7047     		bx	lr
 971              	.LVL86:
 972              	.L63:
 973              		.loc 1 442 0
 974 03b6 91F84C00 		ldrb	r0, [r1, #76]	@ zero_extendqisi2
 975              	.LVL87:
 976 03ba 7047     		bx	lr
 977              	.L65:
 978              		.align	2
 979              	.L64:
 980 03bc 00000000 		.word	hHCD
 981              		.cfi_endproc
 982              	.LFE151:
 983              		.size	USBH_LL_GetToggle, .-USBH_LL_GetToggle
 984              		.align	2
 985              		.p2align 4,,15
 986              		.global	USBH_Delay
 987              		.thumb
 988              		.thumb_func
 989              		.type	USBH_Delay, %function
 990              	USBH_Delay:
 991              	.LFB152:
 992              		.loc 1 456 0
 993              		.cfi_startproc
 994              		@ args = 0, pretend = 0, frame = 0
 995              		@ frame_needed = 0, uses_anonymous_args = 0
 996              	.LVL88:
 997 03c0 08B5     		push	{r3, lr}
 998              		.cfi_def_cfa_offset 8
 999              		.cfi_offset 3, -8
 1000              		.cfi_offset 14, -4
 1001              		.loc 1 457 0
 1002 03c2 FFF7FEFF 		bl	HAL_Delay
 1003              	.LVL89:
 1004              		.loc 1 458 0
 1005              	@ 458 "usbh_conf.c" 1
 1006 03c6 00BF     		nop
 1007              	@ 0 "" 2
 1008              		.thumb
 1009 03c8 08BD     		pop	{r3, pc}
 1010              		.cfi_endproc
 1011              	.LFE152:
 1012              		.size	USBH_Delay, .-USBH_Delay
 1013 03ca 00BF     		.align	2
ARM GAS  /tmp/ccqN9A9j.s 			page 19


 1014 03cc AFF30080 		.p2align 4,,15
 1015              		.global	MY_USBH_Init
 1016              		.thumb
 1017              		.thumb_func
 1018              		.type	MY_USBH_Init, %function
 1019              	MY_USBH_Init:
 1020              	.LFB154:
 1021              		.loc 1 492 0
 1022              		.cfi_startproc
 1023              		@ args = 0, pretend = 0, frame = 0
 1024              		@ frame_needed = 0, uses_anonymous_args = 0
 1025 03d0 10B5     		push	{r4, lr}
 1026              		.cfi_def_cfa_offset 8
 1027              		.cfi_offset 4, -8
 1028              		.cfi_offset 14, -4
 1029              		.loc 1 495 0
 1030 03d2 0B4C     		ldr	r4, .L70
 1031 03d4 0B49     		ldr	r1, .L70+4
 1032 03d6 0022     		movs	r2, #0
 1033 03d8 2046     		mov	r0, r4
 1034 03da FFF7FEFF 		bl	USBH_Init
 1035              	.LVL90:
 1036              		.loc 1 499 0
 1037 03de 2046     		mov	r0, r4
 1038 03e0 0949     		ldr	r1, .L70+8
 1039 03e2 FFF7FEFF 		bl	USBH_RegisterClass
 1040              	.LVL91:
 1041              		.loc 1 500 0
 1042 03e6 2046     		mov	r0, r4
 1043 03e8 0849     		ldr	r1, .L70+12
 1044 03ea FFF7FEFF 		bl	USBH_RegisterClass
 1045              	.LVL92:
 1046              		.loc 1 501 0
 1047 03ee 2046     		mov	r0, r4
 1048 03f0 0749     		ldr	r1, .L70+16
 1049 03f2 FFF7FEFF 		bl	USBH_RegisterClass
 1050              	.LVL93:
 1051              		.loc 1 504 0
 1052 03f6 2046     		mov	r0, r4
 1053              		.loc 1 506 0
 1054 03f8 BDE81040 		pop	{r4, lr}
 1055              		.cfi_restore 14
 1056              		.cfi_restore 4
 1057              		.cfi_def_cfa_offset 0
 1058              		.loc 1 504 0
 1059 03fc FFF7FEBF 		b	USBH_Start
 1060              	.LVL94:
 1061              	.L71:
 1062              		.align	2
 1063              	.L70:
 1064 0400 00000000 		.word	hUSBHost
 1065 0404 00000000 		.word	USBH_UserProcess
 1066 0408 00000000 		.word	Vendor_Class
 1067 040c 00000000 		.word	MIDI_Class
 1068 0410 00000000 		.word	HID_Class
 1069              		.cfi_endproc
 1070              	.LFE154:
ARM GAS  /tmp/ccqN9A9j.s 			page 20


 1071              		.size	MY_USBH_Init, .-MY_USBH_Init
 1072              		.align	2
 1073 0414 AFF30080 		.p2align 4,,15
 1073      AFF30080 
 1073      AFF30080 
 1074              		.global	USBH_HID_EventCallback
 1075              		.thumb
 1076              		.thumb_func
 1077              		.type	USBH_HID_EventCallback, %function
 1078              	USBH_HID_EventCallback:
 1079              	.LFB155:
 1080              		.loc 1 512 0
 1081              		.cfi_startproc
 1082              		@ args = 0, pretend = 0, frame = 0
 1083              		@ frame_needed = 0, uses_anonymous_args = 0
 1084              	.LVL95:
 1085 0420 38B5     		push	{r3, r4, r5, lr}
 1086              		.cfi_def_cfa_offset 16
 1087              		.cfi_offset 3, -16
 1088              		.cfi_offset 4, -12
 1089              		.cfi_offset 5, -8
 1090              		.cfi_offset 14, -4
 1091              		.loc 1 512 0
 1092 0422 0446     		mov	r4, r0
 1093              		.loc 1 513 0
 1094 0424 1448     		ldr	r0, .L79
 1095              	.LVL96:
 1096 0426 FFF7FEFF 		bl	USBH_HID_GetDeviceType
 1097              	.LVL97:
 1098 042a 0128     		cmp	r0, #1
 1099 042c 05D0     		beq	.L77
 1100              		.loc 1 530 0
 1101 042e 1248     		ldr	r0, .L79
 1102 0430 FFF7FEFF 		bl	USBH_HID_GetDeviceType
 1103              	.LVL98:
 1104 0434 0228     		cmp	r0, #2
 1105 0436 16D0     		beq	.L78
 1106 0438 38BD     		pop	{r3, r4, r5, pc}
 1107              	.LVL99:
 1108              	.L77:
 1109              	.LBB10:
 1110              		.loc 1 515 0
 1111 043a 2046     		mov	r0, r4
 1112 043c FFF7FEFF 		bl	USBH_HID_GetMouseInfo
 1113              	.LVL100:
 1114              		.loc 1 518 0
 1115 0440 0E4B     		ldr	r3, .L79+4
 1116              		.loc 1 516 0
 1117 0442 A8B1     		cbz	r0, .L74
 1118              		.loc 1 518 0
 1119 0444 8278     		ldrb	r2, [r0, #2]	@ zero_extendqisi2
 1120 0446 1A70     		strb	r2, [r3]
 1121              		.loc 1 519 0
 1122 0448 C278     		ldrb	r2, [r0, #3]	@ zero_extendqisi2
 1123 044a 5A70     		strb	r2, [r3, #1]
 1124              		.loc 1 520 0
 1125 044c 0279     		ldrb	r2, [r0, #4]	@ zero_extendqisi2
ARM GAS  /tmp/ccqN9A9j.s 			page 21


 1126              		.loc 1 521 0
 1127 044e 0C4C     		ldr	r4, .L79+8
 1128              	.LVL101:
 1129              		.loc 1 522 0
 1130 0450 0C49     		ldr	r1, .L79+12
 1131              		.loc 1 520 0
 1132 0452 9A70     		strb	r2, [r3, #2]
 1133              		.loc 1 521 0
 1134 0454 0278     		ldrb	r2, [r0]	@ zero_extendqisi2
 1135              		.loc 1 522 0
 1136 0456 4378     		ldrb	r3, [r0, #1]	@ zero_extendqisi2
 1137              		.loc 1 521 0
 1138 0458 2578     		ldrb	r5, [r4]	@ zero_extendqisi2
 1139              		.loc 1 522 0
 1140 045a 0878     		ldrb	r0, [r1]	@ zero_extendqisi2
 1141              	.LVL102:
 1142              		.loc 1 521 0
 1143 045c 2A44     		add	r2, r2, r5
 1144              		.loc 1 522 0
 1145 045e 0344     		add	r3, r3, r0
 1146              		.loc 1 521 0
 1147 0460 2270     		strb	r2, [r4]
 1148              		.loc 1 522 0
 1149 0462 0B70     		strb	r3, [r1]
 1150 0464 38BD     		pop	{r3, r4, r5, pc}
 1151              	.LVL103:
 1152              	.L78:
 1153              	.LBE10:
 1154              	.LBB11:
 1155              		.loc 1 532 0
 1156 0466 2046     		mov	r0, r4
 1157              	.LBE11:
 1158              		.loc 1 543 0
 1159 0468 BDE83840 		pop	{r3, r4, r5, lr}
 1160              		.cfi_remember_state
 1161              		.cfi_restore 14
 1162              		.cfi_restore 5
 1163              		.cfi_restore 4
 1164              		.cfi_restore 3
 1165              		.cfi_def_cfa_offset 0
 1166              	.LVL104:
 1167              	.LBB12:
 1168              		.loc 1 532 0
 1169 046c FFF7FEBF 		b	USBH_HID_GetKeybdInfo
 1170              	.LVL105:
 1171              	.L74:
 1172              		.cfi_restore_state
 1173              	.LBE12:
 1174              	.LBB13:
 1175              		.loc 1 524 0
 1176 0470 1870     		strb	r0, [r3]
 1177              		.loc 1 525 0
 1178 0472 5870     		strb	r0, [r3, #1]
 1179              		.loc 1 526 0
 1180 0474 9870     		strb	r0, [r3, #2]
 1181 0476 38BD     		pop	{r3, r4, r5, pc}
 1182              	.LVL106:
ARM GAS  /tmp/ccqN9A9j.s 			page 22


 1183              	.L80:
 1184              		.align	2
 1185              	.L79:
 1186 0478 00000000 		.word	hUSBHost
 1187 047c 00000000 		.word	hid_buttons
 1188 0480 00000000 		.word	hid_mouse_x
 1189 0484 00000000 		.word	hid_mouse_y
 1190              	.LBE13:
 1191              		.cfi_endproc
 1192              	.LFE155:
 1193              		.size	USBH_HID_EventCallback, .-USBH_HID_EventCallback
 1194              		.align	2
 1195 0488 AFF30080 		.p2align 4,,15
 1195      AFF30080 
 1196              		.global	fakemalloc
 1197              		.thumb
 1198              		.thumb_func
 1199              		.type	fakemalloc, %function
 1200              	fakemalloc:
 1201              	.LFB156:
 1202              		.loc 1 552 0
 1203              		.cfi_startproc
 1204              		@ args = 0, pretend = 0, frame = 0
 1205              		@ frame_needed = 0, uses_anonymous_args = 0
 1206              	.LVL107:
 1207              		.loc 1 553 0
 1208 0490 B0F5807F 		cmp	r0, #256
 1209              		.loc 1 552 0
 1210 0494 10B5     		push	{r4, lr}
 1211              		.cfi_def_cfa_offset 8
 1212              		.cfi_offset 4, -8
 1213              		.cfi_offset 14, -4
 1214              		.loc 1 553 0
 1215 0496 09D8     		bhi	.L88
 1216              	.LVL108:
 1217              	.L82:
 1218              		.loc 1 556 0
 1219 0498 064C     		ldr	r4, .L89
 1220 049a 2378     		ldrb	r3, [r4]	@ zero_extendqisi2
 1221 049c 13B1     		cbz	r3, .L83
 1222              		.loc 1 557 0
 1223 049e 0648     		ldr	r0, .L89+4
 1224 04a0 FFF7FEFF 		bl	LogTextMessage
 1225              	.LVL109:
 1226              	.L83:
 1227              		.loc 1 559 0
 1228 04a4 0123     		movs	r3, #1
 1229 04a6 2370     		strb	r3, [r4]
 1230              		.loc 1 561 0
 1231 04a8 0448     		ldr	r0, .L89+8
 1232 04aa 10BD     		pop	{r4, pc}
 1233              	.LVL110:
 1234              	.L88:
 1235              		.loc 1 554 0
 1236 04ac 0448     		ldr	r0, .L89+12
 1237              	.LVL111:
 1238 04ae FFF7FEFF 		bl	LogTextMessage
ARM GAS  /tmp/ccqN9A9j.s 			page 23


 1239              	.LVL112:
 1240 04b2 F1E7     		b	.L82
 1241              	.L90:
 1242              		.align	2
 1243              	.L89:
 1244 04b4 00000000 		.word	.LANCHOR1
 1245 04b8 20000000 		.word	.LC1
 1246 04bc 00000000 		.word	mem
 1247 04c0 00000000 		.word	.LC0
 1248              		.cfi_endproc
 1249              	.LFE156:
 1250              		.size	fakemalloc, .-fakemalloc
 1251              		.align	2
 1252 04c4 AFF30080 		.p2align 4,,15
 1252      AFF30080 
 1252      AFF30080 
 1253              		.global	fakefree
 1254              		.thumb
 1255              		.thumb_func
 1256              		.type	fakefree, %function
 1257              	fakefree:
 1258              	.LFB157:
 1259              		.loc 1 563 0
 1260              		.cfi_startproc
 1261              		@ args = 0, pretend = 0, frame = 0
 1262              		@ frame_needed = 0, uses_anonymous_args = 0
 1263              		@ link register save eliminated.
 1264              	.LVL113:
 1265              		.loc 1 565 0
 1266 04d0 014B     		ldr	r3, .L92
 1267 04d2 0022     		movs	r2, #0
 1268 04d4 1A70     		strb	r2, [r3]
 1269 04d6 7047     		bx	lr
 1270              	.L93:
 1271              		.align	2
 1272              	.L92:
 1273 04d8 00000000 		.word	.LANCHOR1
 1274              		.cfi_endproc
 1275              	.LFE157:
 1276              		.size	fakefree, .-fakefree
 1277              		.align	2
 1278 04dc AFF30080 		.p2align 4,,15
 1279              		.global	Vector174
 1280              		.thumb
 1281              		.thumb_func
 1282              		.type	Vector174, %function
 1283              	Vector174:
 1284              	.LFB158:
 1285              		.loc 1 569 0
 1286              		.cfi_startproc
 1287              		@ args = 0, pretend = 0, frame = 0
 1288              		@ frame_needed = 0, uses_anonymous_args = 0
 1289 04e0 08B5     		push	{r3, lr}
 1290              		.cfi_def_cfa_offset 8
 1291              		.cfi_offset 3, -8
 1292              		.cfi_offset 14, -4
 1293              	.LBB14:
ARM GAS  /tmp/ccqN9A9j.s 			page 24


 1294              		.loc 1 571 0
 1295 04e2 2023     		movs	r3, #32
 1296              	@ 571 "usbh_conf.c" 1
 1297 04e4 83F31188 		msr     BASEPRI, r3
 1298              	@ 0 "" 2
 1299              		.thumb
 1300              	.LBE14:
 1301              		.loc 1 572 0
 1302 04e8 0448     		ldr	r0, .L96
 1303 04ea FFF7FEFF 		bl	HAL_HCD_IRQHandler
 1304              	.LVL114:
 1305              	.LBB15:
 1306              		.loc 1 573 0
 1307 04ee 0023     		movs	r3, #0
 1308              	@ 573 "usbh_conf.c" 1
 1309 04f0 83F31188 		msr     BASEPRI, r3
 1310              	@ 0 "" 2
 1311              		.thumb
 1312              	.LBE15:
 1313              		.loc 1 578 0
 1314 04f4 BDE80840 		pop	{r3, lr}
 1315              		.cfi_restore 14
 1316              		.cfi_restore 3
 1317              		.cfi_def_cfa_offset 0
 1318              		.loc 1 577 0
 1319 04f8 FFF7FEBF 		b	_port_irq_epilogue
 1320              	.LVL115:
 1321              	.L97:
 1322              		.align	2
 1323              	.L96:
 1324 04fc 00000000 		.word	hHCD
 1325              		.cfi_endproc
 1326              	.LFE158:
 1327              		.size	Vector174, .-Vector174
 1328              		.align	2
 1329              		.p2align 4,,15
 1330              		.global	Vector168
 1331              		.thumb
 1332              		.thumb_func
 1333              		.type	Vector168, %function
 1334              	Vector168:
 1335              	.LFB159:
 1336              		.loc 1 586 0
 1337              		.cfi_startproc
 1338              		@ Volatile: function does not return.
 1339              		@ args = 0, pretend = 0, frame = 0
 1340              		@ frame_needed = 0, uses_anonymous_args = 0
 1341              		@ link register save eliminated.
 1342              	.L99:
 1343              		.loc 1 588 0 discriminator 1
 1344 0500 FEE7     		b	.L99
 1345              		.cfi_endproc
 1346              	.LFE159:
 1347              		.size	Vector168, .-Vector168
 1348 0502 00BF     		.align	2
 1349 0504 AFF30080 		.p2align 4,,15
 1349      AFF30080 
ARM GAS  /tmp/ccqN9A9j.s 			page 25


 1349      AFF30080 
 1350              		.global	Vector16C
 1351              		.thumb
 1352              		.thumb_func
 1353              		.type	Vector16C, %function
 1354              	Vector16C:
 1355              	.LFB160:
 1356              		.loc 1 591 0
 1357              		.cfi_startproc
 1358              		@ Volatile: function does not return.
 1359              		@ args = 0, pretend = 0, frame = 0
 1360              		@ frame_needed = 0, uses_anonymous_args = 0
 1361              		@ link register save eliminated.
 1362              	.L101:
 1363              		.loc 1 593 0 discriminator 1
 1364 0510 FEE7     		b	.L101
 1365              		.cfi_endproc
 1366              	.LFE160:
 1367              		.size	Vector16C, .-Vector16C
 1368              		.global	memused
 1369              		.comm	mem,256,4
 1370              		.comm	hid_mouse_y,1,1
 1371              		.comm	hid_mouse_x,1,1
 1372              		.comm	hid_buttons,8,4
 1373              		.comm	hUSBHost,1536,4
 1374              		.comm	hHCD,660,4
 1375              		.section	.rodata
 1376              		.align	2
 1377              		.set	.LANCHOR0,. + 0
 1378              		.type	CSWTCH.28, %object
 1379              		.size	CSWTCH.28, 3
 1380              	CSWTCH.28:
 1381 0000 00       		.byte	0
 1382 0001 01       		.byte	1
 1383 0002 02       		.byte	2
 1384              		.section	.rodata.str1.4,"aMS",%progbits,1
 1385              		.align	2
 1386              	.LC0:
 1387 0000 66616B65 		.ascii	"fakemalloc: can't allocate...\000"
 1387      6D616C6C 
 1387      6F633A20 
 1387      63616E27 
 1387      7420616C 
 1388 001e 0000     		.space	2
 1389              	.LC1:
 1390 0020 66616B65 		.ascii	"fakemalloc: already taken...\000"
 1390      6D616C6C 
 1390      6F633A20 
 1390      616C7265 
 1390      61647920 
 1391              		.bss
 1392              		.set	.LANCHOR1,. + 0
 1393              		.type	memused, %object
 1394              		.size	memused, 1
 1395              	memused:
 1396 0000 00       		.space	1
 1397              		.text
ARM GAS  /tmp/ccqN9A9j.s 			page 26


 1398              	.Letext0:
 1399              		.file 2 "/home/sbcu/Dropbox/pcb-layouts/axo-on-discovery-board/axoloti/platform_linux/arm-none-eab
 1400              		.file 3 "/home/sbcu/Dropbox/pcb-layouts/axo-on-discovery-board/axoloti/platform_linux/arm-none-eab
 1401              		.file 4 "./stm32f427xx.h"
 1402              		.file 5 "/home/sbcu/Dropbox/pcb-layouts/axo-on-discovery-board/axoloti/platform_linux/lib/gcc/arm-
 1403              		.file 6 "./STM32F4xx_HAL_Driver/Inc/stm32f4xx_hal_def.h"
 1404              		.file 7 "./STM32F4xx_HAL_Driver/Inc/stm32f4xx_hal_gpio.h"
 1405              		.file 8 "./STM32F4xx_HAL_Driver/Inc/stm32f4xx_ll_usb.h"
 1406              		.file 9 "./STM32F4xx_HAL_Driver/Inc/stm32f4xx_hal_hcd.h"
 1407              		.file 10 "/home/sbcu/Dropbox/pcb-layouts/axo-on-discovery-board/axoloti/platform_linux/../chibios/
 1408              		.file 11 "/home/sbcu/Dropbox/pcb-layouts/axo-on-discovery-board/axoloti/platform_linux/../chibios/
 1409              		.file 12 "/home/sbcu/Dropbox/pcb-layouts/axo-on-discovery-board/axoloti/platform_linux/../chibios/
 1410              		.file 13 "/home/sbcu/Dropbox/pcb-layouts/axo-on-discovery-board/axoloti/platform_linux/../chibios/
 1411              		.file 14 "/home/sbcu/Dropbox/pcb-layouts/axo-on-discovery-board/axoloti/platform_linux/../chibios/
 1412              		.file 15 "./STM32_USB_Host_Library/Core/Inc/usbh_def.h"
 1413              		.file 16 "./STM32_USB_Host_Library/Class/HID/Inc/usbh_hid_mouse.h"
 1414              		.file 17 "./STM32_USB_Host_Library/Class/HID/Inc/usbh_hid_keybd.h"
 1415              		.file 18 "./STM32_USB_Host_Library/Class/HID/Inc/usbh_hid.h"
 1416              		.file 19 "midi.h"
 1417              		.file 20 "/home/sbcu/Dropbox/pcb-layouts/axo-on-discovery-board/axoloti/platform_linux/../CMSIS//I
 1418              		.file 21 "usbh_midi_core.h"
 1419              		.file 22 "./STM32F4xx_HAL_Driver/Inc/stm32f4xx_hal_cortex.h"
 1420              		.file 23 "./STM32_USB_Host_Library/Core/Inc/usbh_core.h"
 1421              		.file 24 "./STM32F4xx_HAL_Driver/Inc/stm32f4xx_hal.h"
 1422              		.file 25 "./usbh_conf.h"