ARM GAS  /tmp/ccxyKTeE.s 			page 1


   1              		.syntax unified
   2              		.cpu cortex-m4
   3              		.eabi_attribute 27, 1
   4              		.eabi_attribute 28, 1
   5              		.fpu fpv4-sp-d16
   6              		.eabi_attribute 20, 1
   7              		.eabi_attribute 21, 1
   8              		.eabi_attribute 23, 3
   9              		.eabi_attribute 24, 1
  10              		.eabi_attribute 25, 1
  11              		.eabi_attribute 26, 1
  12              		.eabi_attribute 30, 2
  13              		.eabi_attribute 34, 1
  14              		.eabi_attribute 18, 4
  15              		.thumb
  16              		.file	"usbh_pipes.c"
  17              		.text
  18              	.Ltext0:
  19              		.cfi_sections	.debug_frame
  20              		.align	2
  21              		.p2align 4,,15
  22              		.global	USBH_OpenPipe
  23              		.thumb
  24              		.thumb_func
  25              		.type	USBH_OpenPipe, %function
  26              	USBH_OpenPipe:
  27              	.LFB133:
  28              		.file 1 "./STM32_USB_Host_Library/Core/Src/usbh_pipes.c"
  29              		.loc 1 100 0
  30              		.cfi_startproc
  31              		@ args = 12, pretend = 0, frame = 0
  32              		@ frame_needed = 0, uses_anonymous_args = 0
  33              	.LVL0:
  34 0000 70B5     		push	{r4, r5, r6, lr}
  35              		.cfi_def_cfa_offset 16
  36              		.cfi_offset 4, -16
  37              		.cfi_offset 5, -12
  38              		.cfi_offset 6, -8
  39              		.cfi_offset 14, -4
  40 0002 84B0     		sub	sp, sp, #16
  41              		.cfi_def_cfa_offset 32
  42              		.loc 1 100 0
  43 0004 9DF82060 		ldrb	r6, [sp, #32]	@ zero_extendqisi2
  44 0008 9DF82450 		ldrb	r5, [sp, #36]	@ zero_extendqisi2
  45 000c BDF82840 		ldrh	r4, [sp, #40]
  46              		.loc 1 102 0
  47 0010 0096     		str	r6, [sp]
  48 0012 0195     		str	r5, [sp, #4]
  49 0014 0294     		str	r4, [sp, #8]
  50 0016 FFF7FEFF 		bl	USBH_LL_OpenPipe
  51              	.LVL1:
  52              		.loc 1 112 0
  53 001a 0020     		movs	r0, #0
  54 001c 04B0     		add	sp, sp, #16
  55              		.cfi_def_cfa_offset 16
  56              		@ sp needed
  57 001e 70BD     		pop	{r4, r5, r6, pc}
ARM GAS  /tmp/ccxyKTeE.s 			page 2


  58              		.cfi_endproc
  59              	.LFE133:
  60              		.size	USBH_OpenPipe, .-USBH_OpenPipe
  61              		.align	2
  62              		.p2align 4,,15
  63              		.global	USBH_ClosePipe
  64              		.thumb
  65              		.thumb_func
  66              		.type	USBH_ClosePipe, %function
  67              	USBH_ClosePipe:
  68              	.LFB134:
  69              		.loc 1 123 0
  70              		.cfi_startproc
  71              		@ args = 0, pretend = 0, frame = 0
  72              		@ frame_needed = 0, uses_anonymous_args = 0
  73              	.LVL2:
  74 0020 08B5     		push	{r3, lr}
  75              		.cfi_def_cfa_offset 8
  76              		.cfi_offset 3, -8
  77              		.cfi_offset 14, -4
  78              		.loc 1 125 0
  79 0022 FFF7FEFF 		bl	USBH_LL_ClosePipe
  80              	.LVL3:
  81              		.loc 1 129 0
  82 0026 0020     		movs	r0, #0
  83 0028 08BD     		pop	{r3, pc}
  84              		.cfi_endproc
  85              	.LFE134:
  86              		.size	USBH_ClosePipe, .-USBH_ClosePipe
  87 002a 00BF     		.align	2
  88 002c AFF30080 		.p2align 4,,15
  89              		.global	USBH_AllocPipe
  90              		.thumb
  91              		.thumb_func
  92              		.type	USBH_AllocPipe, %function
  93              	USBH_AllocPipe:
  94              	.LFB135:
  95              		.loc 1 139 0
  96              		.cfi_startproc
  97              		@ args = 0, pretend = 0, frame = 0
  98              		@ frame_needed = 0, uses_anonymous_args = 0
  99              		@ link register save eliminated.
 100              	.LVL4:
 101 0030 30B4     		push	{r4, r5}
 102              		.cfi_def_cfa_offset 8
 103              		.cfi_offset 4, -8
 104              		.cfi_offset 5, -4
 105 0032 00F5B562 		add	r2, r0, #1448
 106              		.loc 1 139 0
 107 0036 0023     		movs	r3, #0
 108              	.LVL5:
 109              	.L8:
 110              	.LBB4:
 111              	.LBB5:
 112              		.loc 1 179 0
 113 0038 52F8044F 		ldr	r4, [r2, #4]!
 114 003c 2404     		lsls	r4, r4, #16
ARM GAS  /tmp/ccxyKTeE.s 			page 3


 115 003e DDB2     		uxtb	r5, r3
 116              	.LVL6:
 117 0040 05D5     		bpl	.L12
 118 0042 0133     		adds	r3, r3, #1
 119              		.loc 1 177 0
 120 0044 0B2B     		cmp	r3, #11
 121 0046 F7D1     		bne	.L8
 122 0048 FF20     		movs	r0, #255
 123              	.LVL7:
 124              	.LBE5:
 125              	.LBE4:
 126              		.loc 1 149 0
 127 004a 30BC     		pop	{r4, r5}
 128              		.cfi_remember_state
 129              		.cfi_restore 5
 130              		.cfi_restore 4
 131              		.cfi_def_cfa_offset 0
 132              	.LVL8:
 133 004c 7047     		bx	lr
 134              	.LVL9:
 135              	.L12:
 136              		.cfi_restore_state
 137              		.loc 1 146 0
 138 004e 00EB8303 		add	r3, r0, r3, lsl #2
 139 0052 41F40041 		orr	r1, r1, #32768
 140              	.LVL10:
 141 0056 2846     		mov	r0, r5
 142              	.LVL11:
 143 0058 C3F8AC15 		str	r1, [r3, #1452]
 144              		.loc 1 149 0
 145 005c 30BC     		pop	{r4, r5}
 146              		.cfi_restore 4
 147              		.cfi_restore 5
 148              		.cfi_def_cfa_offset 0
 149              	.LVL12:
 150 005e 7047     		bx	lr
 151              		.cfi_endproc
 152              	.LFE135:
 153              		.size	USBH_AllocPipe, .-USBH_AllocPipe
 154              		.align	2
 155              		.p2align 4,,15
 156              		.global	USBH_FreePipe
 157              		.thumb
 158              		.thumb_func
 159              		.type	USBH_FreePipe, %function
 160              	USBH_FreePipe:
 161              	.LFB136:
 162              		.loc 1 159 0
 163              		.cfi_startproc
 164              		@ args = 0, pretend = 0, frame = 0
 165              		@ frame_needed = 0, uses_anonymous_args = 0
 166              		@ link register save eliminated.
 167              	.LVL13:
 168              		.loc 1 160 0
 169 0060 0A29     		cmp	r1, #10
 170 0062 07D8     		bhi	.L14
 171 0064 00EB8100 		add	r0, r0, r1, lsl #2
ARM GAS  /tmp/ccxyKTeE.s 			page 4


 172              	.LVL14:
 173              		.loc 1 162 0
 174 0068 D0F8AC35 		ldr	r3, [r0, #1452]
 175 006c C3F30E03 		ubfx	r3, r3, #0, #15
 176 0070 C0F8AC35 		str	r3, [r0, #1452]
 177              	.L14:
 178              		.loc 1 165 0
 179 0074 0020     		movs	r0, #0
 180 0076 7047     		bx	lr
 181              		.cfi_endproc
 182              	.LFE136:
 183              		.size	USBH_FreePipe, .-USBH_FreePipe
 184              	.Letext0:
 185              		.file 2 "/home/sbcu/Dropbox/pcb-layouts/axo-on-discovery-board/axoloti/platform_linux/arm-none-eab
 186              		.file 3 "/home/sbcu/Dropbox/pcb-layouts/axo-on-discovery-board/axoloti/platform_linux/arm-none-eab
 187              		.file 4 "/home/sbcu/Dropbox/pcb-layouts/axo-on-discovery-board/axoloti/platform_linux/../chibios/o
 188              		.file 5 "/home/sbcu/Dropbox/pcb-layouts/axo-on-discovery-board/axoloti/platform_linux/../chibios/o
 189              		.file 6 "/home/sbcu/Dropbox/pcb-layouts/axo-on-discovery-board/axoloti/platform_linux/../chibios/o
 190              		.file 7 "/home/sbcu/Dropbox/pcb-layouts/axo-on-discovery-board/axoloti/platform_linux/../chibios/o
 191              		.file 8 "/home/sbcu/Dropbox/pcb-layouts/axo-on-discovery-board/axoloti/platform_linux/../chibios/o
 192              		.file 9 "./STM32_USB_Host_Library/Core/Inc/usbh_def.h"
 193              		.file 10 "/home/sbcu/Dropbox/pcb-layouts/axo-on-discovery-board/axoloti/platform_linux/../CMSIS//I
 194              		.file 11 "./STM32_USB_Host_Library/Core/Inc/usbh_core.h"
 195              		.section	.debug_info,"",%progbits
 196              	.Ldebug_info0:
 197 0000 170E0000 		.4byte	0xe17
 198 0004 0400     		.2byte	0x4
 199 0006 00000000 		.4byte	.Ldebug_abbrev0
 200 000a 04       		.byte	0x4
 201 000b 01       		.uleb128 0x1
 202 000c 14080000 		.4byte	.LASF207
 203 0010 01       		.byte	0x1
 204 0011 8A0A0000 		.4byte	.LASF208
 205 0015 39010000 		.4byte	.LASF209
 206 0019 00000000 		.4byte	.Ltext0
 207 001d 78000000 		.4byte	.Letext0-.Ltext0
 208 0021 00000000 		.4byte	.Ldebug_line0
 209 0025 02       		.uleb128 0x2
 210 0026 01       		.byte	0x1
 211 0027 06       		.byte	0x6
 212 0028 AF010000 		.4byte	.LASF0
 213 002c 03       		.uleb128 0x3
 214 002d 72000000 		.4byte	.LASF3
 215 0031 02       		.byte	0x2
 216 0032 1D       		.byte	0x1d
 217 0033 37000000 		.4byte	0x37
 218 0037 02       		.uleb128 0x2
 219 0038 01       		.byte	0x1
 220 0039 08       		.byte	0x8
 221 003a F5060000 		.4byte	.LASF1
 222 003e 02       		.uleb128 0x2
 223 003f 02       		.byte	0x2
 224 0040 05       		.byte	0x5
 225 0041 25000000 		.4byte	.LASF2
 226 0045 03       		.uleb128 0x3
 227 0046 97090000 		.4byte	.LASF4
 228 004a 02       		.byte	0x2
ARM GAS  /tmp/ccxyKTeE.s 			page 5


 229 004b 2B       		.byte	0x2b
 230 004c 50000000 		.4byte	0x50
 231 0050 02       		.uleb128 0x2
 232 0051 02       		.byte	0x2
 233 0052 07       		.byte	0x7
 234 0053 87010000 		.4byte	.LASF5
 235 0057 03       		.uleb128 0x3
 236 0058 D5090000 		.4byte	.LASF6
 237 005c 02       		.byte	0x2
 238 005d 3F       		.byte	0x3f
 239 005e 62000000 		.4byte	0x62
 240 0062 02       		.uleb128 0x2
 241 0063 04       		.byte	0x4
 242 0064 05       		.byte	0x5
 243 0065 4C020000 		.4byte	.LASF7
 244 0069 03       		.uleb128 0x3
 245 006a EF020000 		.4byte	.LASF8
 246 006e 02       		.byte	0x2
 247 006f 41       		.byte	0x41
 248 0070 74000000 		.4byte	0x74
 249 0074 02       		.uleb128 0x2
 250 0075 04       		.byte	0x4
 251 0076 07       		.byte	0x7
 252 0077 61090000 		.4byte	.LASF9
 253 007b 02       		.uleb128 0x2
 254 007c 08       		.byte	0x8
 255 007d 05       		.byte	0x5
 256 007e A1010000 		.4byte	.LASF10
 257 0082 02       		.uleb128 0x2
 258 0083 08       		.byte	0x8
 259 0084 07       		.byte	0x7
 260 0085 E3010000 		.4byte	.LASF11
 261 0089 04       		.uleb128 0x4
 262 008a 04       		.byte	0x4
 263 008b 05       		.byte	0x5
 264 008c 696E7400 		.ascii	"int\000"
 265 0090 02       		.uleb128 0x2
 266 0091 04       		.byte	0x4
 267 0092 07       		.byte	0x7
 268 0093 75030000 		.4byte	.LASF12
 269 0097 03       		.uleb128 0x3
 270 0098 BE0A0000 		.4byte	.LASF13
 271 009c 03       		.byte	0x3
 272 009d 14       		.byte	0x14
 273 009e 2C000000 		.4byte	0x2c
 274 00a2 03       		.uleb128 0x3
 275 00a3 8E030000 		.4byte	.LASF14
 276 00a7 03       		.byte	0x3
 277 00a8 1A       		.byte	0x1a
 278 00a9 45000000 		.4byte	0x45
 279 00ad 03       		.uleb128 0x3
 280 00ae ED060000 		.4byte	.LASF15
 281 00b2 03       		.byte	0x3
 282 00b3 1F       		.byte	0x1f
 283 00b4 57000000 		.4byte	0x57
 284 00b8 03       		.uleb128 0x3
 285 00b9 500A0000 		.4byte	.LASF16
ARM GAS  /tmp/ccxyKTeE.s 			page 6


 286 00bd 03       		.byte	0x3
 287 00be 20       		.byte	0x20
 288 00bf 69000000 		.4byte	0x69
 289 00c3 02       		.uleb128 0x2
 290 00c4 04       		.byte	0x4
 291 00c5 07       		.byte	0x7
 292 00c6 4B050000 		.4byte	.LASF17
 293 00ca 05       		.uleb128 0x5
 294 00cb B8000000 		.4byte	0xb8
 295 00cf 06       		.uleb128 0x6
 296 00d0 B8000000 		.4byte	0xb8
 297 00d4 DF000000 		.4byte	0xdf
 298 00d8 07       		.uleb128 0x7
 299 00d9 C3000000 		.4byte	0xc3
 300 00dd 01       		.byte	0x1
 301 00de 00       		.byte	0
 302 00df 05       		.uleb128 0x5
 303 00e0 97000000 		.4byte	0x97
 304 00e4 06       		.uleb128 0x6
 305 00e5 B8000000 		.4byte	0xb8
 306 00e9 F4000000 		.4byte	0xf4
 307 00ed 07       		.uleb128 0x7
 308 00ee C3000000 		.4byte	0xc3
 309 00f2 0E       		.byte	0xe
 310 00f3 00       		.byte	0
 311 00f4 05       		.uleb128 0x5
 312 00f5 AD000000 		.4byte	0xad
 313 00f9 08       		.uleb128 0x8
 314 00fa 04       		.byte	0x4
 315 00fb 02       		.uleb128 0x2
 316 00fc 01       		.byte	0x1
 317 00fd 08       		.byte	0x8
 318 00fe 85090000 		.4byte	.LASF18
 319 0102 09       		.uleb128 0x9
 320 0103 04       		.byte	0x4
 321 0104 08010000 		.4byte	0x108
 322 0108 0A       		.uleb128 0xa
 323 0109 FB000000 		.4byte	0xfb
 324 010d 02       		.uleb128 0x2
 325 010e 01       		.byte	0x1
 326 010f 02       		.byte	0x2
 327 0110 E7060000 		.4byte	.LASF19
 328 0114 03       		.uleb128 0x3
 329 0115 97040000 		.4byte	.LASF20
 330 0119 04       		.byte	0x4
 331 011a 2C       		.byte	0x2c
 332 011b 97000000 		.4byte	0x97
 333 011f 03       		.uleb128 0x3
 334 0120 62020000 		.4byte	.LASF21
 335 0124 04       		.byte	0x4
 336 0125 2D       		.byte	0x2d
 337 0126 97000000 		.4byte	0x97
 338 012a 03       		.uleb128 0x3
 339 012b 25020000 		.4byte	.LASF22
 340 012f 04       		.byte	0x4
 341 0130 2F       		.byte	0x2f
 342 0131 97000000 		.4byte	0x97
ARM GAS  /tmp/ccxyKTeE.s 			page 7


 343 0135 03       		.uleb128 0x3
 344 0136 D0060000 		.4byte	.LASF23
 345 013a 04       		.byte	0x4
 346 013b 30       		.byte	0x30
 347 013c B8000000 		.4byte	0xb8
 348 0140 03       		.uleb128 0x3
 349 0141 67040000 		.4byte	.LASF24
 350 0145 04       		.byte	0x4
 351 0146 31       		.byte	0x31
 352 0147 AD000000 		.4byte	0xad
 353 014b 03       		.uleb128 0x3
 354 014c C1040000 		.4byte	.LASF25
 355 0150 04       		.byte	0x4
 356 0151 33       		.byte	0x33
 357 0152 B8000000 		.4byte	0xb8
 358 0156 03       		.uleb128 0x3
 359 0157 0D080000 		.4byte	.LASF26
 360 015b 05       		.byte	0x5
 361 015c 2A       		.byte	0x2a
 362 015d 61010000 		.4byte	0x161
 363 0161 0B       		.uleb128 0xb
 364 0162 0D080000 		.4byte	.LASF26
 365 0166 40       		.byte	0x40
 366 0167 06       		.byte	0x6
 367 0168 5E       		.byte	0x5e
 368 0169 3A020000 		.4byte	0x23a
 369 016d 0C       		.uleb128 0xc
 370 016e CB070000 		.4byte	.LASF27
 371 0172 06       		.byte	0x6
 372 0173 5F       		.byte	0x5f
 373 0174 5B020000 		.4byte	0x25b
 374 0178 00       		.byte	0
 375 0179 0C       		.uleb128 0xc
 376 017a AF060000 		.4byte	.LASF28
 377 017e 06       		.byte	0x6
 378 017f 61       		.byte	0x61
 379 0180 5B020000 		.4byte	0x25b
 380 0184 04       		.byte	0x4
 381 0185 0C       		.uleb128 0xc
 382 0186 80010000 		.4byte	.LASF29
 383 018a 06       		.byte	0x6
 384 018b 63       		.byte	0x63
 385 018c 35010000 		.4byte	0x135
 386 0190 08       		.byte	0x8
 387 0191 0C       		.uleb128 0xc
 388 0192 C70B0000 		.4byte	.LASF30
 389 0196 06       		.byte	0x6
 390 0197 64       		.byte	0x64
 391 0198 E3030000 		.4byte	0x3e3
 392 019c 0C       		.byte	0xc
 393 019d 0C       		.uleb128 0xc
 394 019e 9E020000 		.4byte	.LASF31
 395 01a2 06       		.byte	0x6
 396 01a3 66       		.byte	0x66
 397 01a4 5B020000 		.4byte	0x25b
 398 01a8 10       		.byte	0x10
 399 01a9 0C       		.uleb128 0xc
ARM GAS  /tmp/ccxyKTeE.s 			page 8


 400 01aa E6050000 		.4byte	.LASF32
 401 01ae 06       		.byte	0x6
 402 01af 67       		.byte	0x67
 403 01b0 5B020000 		.4byte	0x25b
 404 01b4 14       		.byte	0x14
 405 01b5 0C       		.uleb128 0xc
 406 01b6 7C0A0000 		.4byte	.LASF33
 407 01ba 06       		.byte	0x6
 408 01bb 6E       		.byte	0x6e
 409 01bc 02010000 		.4byte	0x102
 410 01c0 18       		.byte	0x18
 411 01c1 0C       		.uleb128 0xc
 412 01c2 DB010000 		.4byte	.LASF34
 413 01c6 06       		.byte	0x6
 414 01c7 79       		.byte	0x79
 415 01c8 1F010000 		.4byte	0x11f
 416 01cc 1C       		.byte	0x1c
 417 01cd 0C       		.uleb128 0xc
 418 01ce E2070000 		.4byte	.LASF35
 419 01d2 06       		.byte	0x6
 420 01d3 7D       		.byte	0x7d
 421 01d4 14010000 		.4byte	0x114
 422 01d8 1D       		.byte	0x1d
 423 01d9 0C       		.uleb128 0xc
 424 01da 81070000 		.4byte	.LASF36
 425 01de 06       		.byte	0x6
 426 01df 88       		.byte	0x88
 427 01e0 2A010000 		.4byte	0x12a
 428 01e4 1E       		.byte	0x1e
 429 01e5 0D       		.uleb128 0xd
 430 01e6 705F7500 		.ascii	"p_u\000"
 431 01ea 06       		.byte	0x6
 432 01eb B4       		.byte	0xb4
 433 01ec 46040000 		.4byte	0x446
 434 01f0 20       		.byte	0x20
 435 01f1 0C       		.uleb128 0xc
 436 01f2 CD0B0000 		.4byte	.LASF37
 437 01f6 06       		.byte	0x6
 438 01f7 B9       		.byte	0xb9
 439 01f8 81020000 		.4byte	0x281
 440 01fc 24       		.byte	0x24
 441 01fd 0C       		.uleb128 0xc
 442 01fe B5030000 		.4byte	.LASF38
 443 0202 06       		.byte	0x6
 444 0203 BF       		.byte	0xbf
 445 0204 61020000 		.4byte	0x261
 446 0208 28       		.byte	0x28
 447 0209 0C       		.uleb128 0xc
 448 020a 460B0000 		.4byte	.LASF39
 449 020e 06       		.byte	0x6
 450 020f C3       		.byte	0xc3
 451 0210 40010000 		.4byte	0x140
 452 0214 30       		.byte	0x30
 453 0215 0C       		.uleb128 0xc
 454 0216 1F090000 		.4byte	.LASF40
 455 021a 06       		.byte	0x6
 456 021b C9       		.byte	0xc9
ARM GAS  /tmp/ccxyKTeE.s 			page 9


 457 021c 4B010000 		.4byte	0x14b
 458 0220 34       		.byte	0x34
 459 0221 0C       		.uleb128 0xc
 460 0222 51070000 		.4byte	.LASF41
 461 0226 06       		.byte	0x6
 462 0227 D0       		.byte	0xd0
 463 0228 7B040000 		.4byte	0x47b
 464 022c 38       		.byte	0x38
 465 022d 0C       		.uleb128 0xc
 466 022e CA090000 		.4byte	.LASF42
 467 0232 06       		.byte	0x6
 468 0233 D4       		.byte	0xd4
 469 0234 35010000 		.4byte	0x135
 470 0238 3C       		.byte	0x3c
 471 0239 00       		.byte	0
 472 023a 0E       		.uleb128 0xe
 473 023b 08       		.byte	0x8
 474 023c 05       		.byte	0x5
 475 023d 61       		.byte	0x61
 476 023e 5B020000 		.4byte	0x25b
 477 0242 0C       		.uleb128 0xc
 478 0243 CB070000 		.4byte	.LASF27
 479 0247 05       		.byte	0x5
 480 0248 62       		.byte	0x62
 481 0249 5B020000 		.4byte	0x25b
 482 024d 00       		.byte	0
 483 024e 0C       		.uleb128 0xc
 484 024f AF060000 		.4byte	.LASF28
 485 0253 05       		.byte	0x5
 486 0254 64       		.byte	0x64
 487 0255 5B020000 		.4byte	0x25b
 488 0259 04       		.byte	0x4
 489 025a 00       		.byte	0
 490 025b 09       		.uleb128 0x9
 491 025c 04       		.byte	0x4
 492 025d 56010000 		.4byte	0x156
 493 0261 03       		.uleb128 0x3
 494 0262 F0040000 		.4byte	.LASF43
 495 0266 05       		.byte	0x5
 496 0267 66       		.byte	0x66
 497 0268 3A020000 		.4byte	0x23a
 498 026c 0E       		.uleb128 0xe
 499 026d 04       		.byte	0x4
 500 026e 05       		.byte	0x5
 501 026f 6B       		.byte	0x6b
 502 0270 81020000 		.4byte	0x281
 503 0274 0C       		.uleb128 0xc
 504 0275 CB070000 		.4byte	.LASF27
 505 0279 05       		.byte	0x5
 506 027a 6D       		.byte	0x6d
 507 027b 5B020000 		.4byte	0x25b
 508 027f 00       		.byte	0
 509 0280 00       		.byte	0
 510 0281 03       		.uleb128 0x3
 511 0282 A5040000 		.4byte	.LASF44
 512 0286 05       		.byte	0x5
 513 0287 70       		.byte	0x70
ARM GAS  /tmp/ccxyKTeE.s 			page 10


 514 0288 6C020000 		.4byte	0x26c
 515 028c 03       		.uleb128 0x3
 516 028d FA020000 		.4byte	.LASF45
 517 0291 07       		.byte	0x7
 518 0292 E5       		.byte	0xe5
 519 0293 F9000000 		.4byte	0xf9
 520 0297 0F       		.uleb128 0xf
 521 0298 250A0000 		.4byte	.LASF46
 522 029c 64       		.byte	0x64
 523 029d 07       		.byte	0x7
 524 029e 0C01     		.2byte	0x10c
 525 02a0 E3030000 		.4byte	0x3e3
 526 02a4 10       		.uleb128 0x10
 527 02a5 73313600 		.ascii	"s16\000"
 528 02a9 07       		.byte	0x7
 529 02aa 0E01     		.2byte	0x10e
 530 02ac 8C020000 		.4byte	0x28c
 531 02b0 00       		.byte	0
 532 02b1 10       		.uleb128 0x10
 533 02b2 73313700 		.ascii	"s17\000"
 534 02b6 07       		.byte	0x7
 535 02b7 0F01     		.2byte	0x10f
 536 02b9 8C020000 		.4byte	0x28c
 537 02bd 04       		.byte	0x4
 538 02be 10       		.uleb128 0x10
 539 02bf 73313800 		.ascii	"s18\000"
 540 02c3 07       		.byte	0x7
 541 02c4 1001     		.2byte	0x110
 542 02c6 8C020000 		.4byte	0x28c
 543 02ca 08       		.byte	0x8
 544 02cb 10       		.uleb128 0x10
 545 02cc 73313900 		.ascii	"s19\000"
 546 02d0 07       		.byte	0x7
 547 02d1 1101     		.2byte	0x111
 548 02d3 8C020000 		.4byte	0x28c
 549 02d7 0C       		.byte	0xc
 550 02d8 10       		.uleb128 0x10
 551 02d9 73323000 		.ascii	"s20\000"
 552 02dd 07       		.byte	0x7
 553 02de 1201     		.2byte	0x112
 554 02e0 8C020000 		.4byte	0x28c
 555 02e4 10       		.byte	0x10
 556 02e5 10       		.uleb128 0x10
 557 02e6 73323100 		.ascii	"s21\000"
 558 02ea 07       		.byte	0x7
 559 02eb 1301     		.2byte	0x113
 560 02ed 8C020000 		.4byte	0x28c
 561 02f1 14       		.byte	0x14
 562 02f2 10       		.uleb128 0x10
 563 02f3 73323200 		.ascii	"s22\000"
 564 02f7 07       		.byte	0x7
 565 02f8 1401     		.2byte	0x114
 566 02fa 8C020000 		.4byte	0x28c
 567 02fe 18       		.byte	0x18
 568 02ff 10       		.uleb128 0x10
 569 0300 73323300 		.ascii	"s23\000"
 570 0304 07       		.byte	0x7
ARM GAS  /tmp/ccxyKTeE.s 			page 11


 571 0305 1501     		.2byte	0x115
 572 0307 8C020000 		.4byte	0x28c
 573 030b 1C       		.byte	0x1c
 574 030c 10       		.uleb128 0x10
 575 030d 73323400 		.ascii	"s24\000"
 576 0311 07       		.byte	0x7
 577 0312 1601     		.2byte	0x116
 578 0314 8C020000 		.4byte	0x28c
 579 0318 20       		.byte	0x20
 580 0319 10       		.uleb128 0x10
 581 031a 73323500 		.ascii	"s25\000"
 582 031e 07       		.byte	0x7
 583 031f 1701     		.2byte	0x117
 584 0321 8C020000 		.4byte	0x28c
 585 0325 24       		.byte	0x24
 586 0326 10       		.uleb128 0x10
 587 0327 73323600 		.ascii	"s26\000"
 588 032b 07       		.byte	0x7
 589 032c 1801     		.2byte	0x118
 590 032e 8C020000 		.4byte	0x28c
 591 0332 28       		.byte	0x28
 592 0333 10       		.uleb128 0x10
 593 0334 73323700 		.ascii	"s27\000"
 594 0338 07       		.byte	0x7
 595 0339 1901     		.2byte	0x119
 596 033b 8C020000 		.4byte	0x28c
 597 033f 2C       		.byte	0x2c
 598 0340 10       		.uleb128 0x10
 599 0341 73323800 		.ascii	"s28\000"
 600 0345 07       		.byte	0x7
 601 0346 1A01     		.2byte	0x11a
 602 0348 8C020000 		.4byte	0x28c
 603 034c 30       		.byte	0x30
 604 034d 10       		.uleb128 0x10
 605 034e 73323900 		.ascii	"s29\000"
 606 0352 07       		.byte	0x7
 607 0353 1B01     		.2byte	0x11b
 608 0355 8C020000 		.4byte	0x28c
 609 0359 34       		.byte	0x34
 610 035a 10       		.uleb128 0x10
 611 035b 73333000 		.ascii	"s30\000"
 612 035f 07       		.byte	0x7
 613 0360 1C01     		.2byte	0x11c
 614 0362 8C020000 		.4byte	0x28c
 615 0366 38       		.byte	0x38
 616 0367 10       		.uleb128 0x10
 617 0368 73333100 		.ascii	"s31\000"
 618 036c 07       		.byte	0x7
 619 036d 1D01     		.2byte	0x11d
 620 036f 8C020000 		.4byte	0x28c
 621 0373 3C       		.byte	0x3c
 622 0374 10       		.uleb128 0x10
 623 0375 723400   		.ascii	"r4\000"
 624 0378 07       		.byte	0x7
 625 0379 1F01     		.2byte	0x11f
 626 037b 8C020000 		.4byte	0x28c
 627 037f 40       		.byte	0x40
ARM GAS  /tmp/ccxyKTeE.s 			page 12


 628 0380 10       		.uleb128 0x10
 629 0381 723500   		.ascii	"r5\000"
 630 0384 07       		.byte	0x7
 631 0385 2001     		.2byte	0x120
 632 0387 8C020000 		.4byte	0x28c
 633 038b 44       		.byte	0x44
 634 038c 10       		.uleb128 0x10
 635 038d 723600   		.ascii	"r6\000"
 636 0390 07       		.byte	0x7
 637 0391 2101     		.2byte	0x121
 638 0393 8C020000 		.4byte	0x28c
 639 0397 48       		.byte	0x48
 640 0398 10       		.uleb128 0x10
 641 0399 723700   		.ascii	"r7\000"
 642 039c 07       		.byte	0x7
 643 039d 2201     		.2byte	0x122
 644 039f 8C020000 		.4byte	0x28c
 645 03a3 4C       		.byte	0x4c
 646 03a4 10       		.uleb128 0x10
 647 03a5 723800   		.ascii	"r8\000"
 648 03a8 07       		.byte	0x7
 649 03a9 2301     		.2byte	0x123
 650 03ab 8C020000 		.4byte	0x28c
 651 03af 50       		.byte	0x50
 652 03b0 10       		.uleb128 0x10
 653 03b1 723900   		.ascii	"r9\000"
 654 03b4 07       		.byte	0x7
 655 03b5 2401     		.2byte	0x124
 656 03b7 8C020000 		.4byte	0x28c
 657 03bb 54       		.byte	0x54
 658 03bc 10       		.uleb128 0x10
 659 03bd 72313000 		.ascii	"r10\000"
 660 03c1 07       		.byte	0x7
 661 03c2 2501     		.2byte	0x125
 662 03c4 8C020000 		.4byte	0x28c
 663 03c8 58       		.byte	0x58
 664 03c9 10       		.uleb128 0x10
 665 03ca 72313100 		.ascii	"r11\000"
 666 03ce 07       		.byte	0x7
 667 03cf 2601     		.2byte	0x126
 668 03d1 8C020000 		.4byte	0x28c
 669 03d5 5C       		.byte	0x5c
 670 03d6 10       		.uleb128 0x10
 671 03d7 6C7200   		.ascii	"lr\000"
 672 03da 07       		.byte	0x7
 673 03db 2701     		.2byte	0x127
 674 03dd 8C020000 		.4byte	0x28c
 675 03e1 60       		.byte	0x60
 676 03e2 00       		.byte	0
 677 03e3 0F       		.uleb128 0xf
 678 03e4 140A0000 		.4byte	.LASF47
 679 03e8 04       		.byte	0x4
 680 03e9 07       		.byte	0x7
 681 03ea 3101     		.2byte	0x131
 682 03ec FE030000 		.4byte	0x3fe
 683 03f0 10       		.uleb128 0x10
 684 03f1 72313300 		.ascii	"r13\000"
ARM GAS  /tmp/ccxyKTeE.s 			page 13


 685 03f5 07       		.byte	0x7
 686 03f6 3201     		.2byte	0x132
 687 03f8 FE030000 		.4byte	0x3fe
 688 03fc 00       		.byte	0
 689 03fd 00       		.byte	0
 690 03fe 09       		.uleb128 0x9
 691 03ff 04       		.byte	0x4
 692 0400 97020000 		.4byte	0x297
 693 0404 0B       		.uleb128 0xb
 694 0405 7B050000 		.4byte	.LASF48
 695 0409 10       		.byte	0x10
 696 040a 08       		.byte	0x8
 697 040b 2C       		.byte	0x2c
 698 040c 35040000 		.4byte	0x435
 699 0410 0C       		.uleb128 0xc
 700 0411 03070000 		.4byte	.LASF49
 701 0415 08       		.byte	0x8
 702 0416 2D       		.byte	0x2d
 703 0417 61020000 		.4byte	0x261
 704 041b 00       		.byte	0
 705 041c 0C       		.uleb128 0xc
 706 041d A70B0000 		.4byte	.LASF50
 707 0421 08       		.byte	0x8
 708 0422 2F       		.byte	0x2f
 709 0423 5B020000 		.4byte	0x25b
 710 0427 08       		.byte	0x8
 711 0428 0C       		.uleb128 0xc
 712 0429 830A0000 		.4byte	.LASF51
 713 042d 08       		.byte	0x8
 714 042e 31       		.byte	0x31
 715 042f 35040000 		.4byte	0x435
 716 0433 0C       		.byte	0xc
 717 0434 00       		.byte	0
 718 0435 09       		.uleb128 0x9
 719 0436 04       		.byte	0x4
 720 0437 04040000 		.4byte	0x404
 721 043b 03       		.uleb128 0x3
 722 043c 7B050000 		.4byte	.LASF48
 723 0440 08       		.byte	0x8
 724 0441 33       		.byte	0x33
 725 0442 04040000 		.4byte	0x404
 726 0446 11       		.uleb128 0x11
 727 0447 04       		.byte	0x4
 728 0448 06       		.byte	0x6
 729 0449 96       		.byte	0x96
 730 044a 7B040000 		.4byte	0x47b
 731 044e 12       		.uleb128 0x12
 732 044f 41000000 		.4byte	.LASF52
 733 0453 06       		.byte	0x6
 734 0454 9D       		.byte	0x9d
 735 0455 40010000 		.4byte	0x140
 736 0459 12       		.uleb128 0x12
 737 045a CA020000 		.4byte	.LASF53
 738 045e 06       		.byte	0x6
 739 045f A4       		.byte	0xa4
 740 0460 40010000 		.4byte	0x140
 741 0464 12       		.uleb128 0x12
ARM GAS  /tmp/ccxyKTeE.s 			page 14


 742 0465 180B0000 		.4byte	.LASF54
 743 0469 06       		.byte	0x6
 744 046a AB       		.byte	0xab
 745 046b F9000000 		.4byte	0xf9
 746 046f 12       		.uleb128 0x12
 747 0470 C4070000 		.4byte	.LASF55
 748 0474 06       		.byte	0x6
 749 0475 B2       		.byte	0xb2
 750 0476 4B010000 		.4byte	0x14b
 751 047a 00       		.byte	0
 752 047b 09       		.uleb128 0x9
 753 047c 04       		.byte	0x4
 754 047d 3B040000 		.4byte	0x43b
 755 0481 09       		.uleb128 0x9
 756 0482 04       		.byte	0x4
 757 0483 97000000 		.4byte	0x97
 758 0487 13       		.uleb128 0x13
 759 0488 425700   		.ascii	"BW\000"
 760 048b 02       		.byte	0x2
 761 048c 09       		.byte	0x9
 762 048d CD       		.byte	0xcd
 763 048e AB040000 		.4byte	0x4ab
 764 0492 0D       		.uleb128 0xd
 765 0493 6D736200 		.ascii	"msb\000"
 766 0497 09       		.byte	0x9
 767 0498 CF       		.byte	0xcf
 768 0499 97000000 		.4byte	0x97
 769 049d 00       		.byte	0
 770 049e 0D       		.uleb128 0xd
 771 049f 6C736200 		.ascii	"lsb\000"
 772 04a3 09       		.byte	0x9
 773 04a4 D0       		.byte	0xd0
 774 04a5 97000000 		.4byte	0x97
 775 04a9 01       		.byte	0x1
 776 04aa 00       		.byte	0
 777 04ab 11       		.uleb128 0x11
 778 04ac 02       		.byte	0x2
 779 04ad 09       		.byte	0x9
 780 04ae CA       		.byte	0xca
 781 04af C7040000 		.4byte	0x4c7
 782 04b3 14       		.uleb128 0x14
 783 04b4 7700     		.ascii	"w\000"
 784 04b6 09       		.byte	0x9
 785 04b7 CC       		.byte	0xcc
 786 04b8 A2000000 		.4byte	0xa2
 787 04bc 14       		.uleb128 0x14
 788 04bd 627700   		.ascii	"bw\000"
 789 04c0 09       		.byte	0x9
 790 04c1 D2       		.byte	0xd2
 791 04c2 87040000 		.4byte	0x487
 792 04c6 00       		.byte	0
 793 04c7 03       		.uleb128 0x3
 794 04c8 54050000 		.4byte	.LASF56
 795 04cc 09       		.byte	0x9
 796 04cd D4       		.byte	0xd4
 797 04ce AB040000 		.4byte	0x4ab
 798 04d2 0B       		.uleb128 0xb
ARM GAS  /tmp/ccxyKTeE.s 			page 15


 799 04d3 45030000 		.4byte	.LASF57
 800 04d7 08       		.byte	0x8
 801 04d8 09       		.byte	0x9
 802 04d9 DB       		.byte	0xdb
 803 04da 1B050000 		.4byte	0x51b
 804 04de 0C       		.uleb128 0xc
 805 04df 1C030000 		.4byte	.LASF58
 806 04e3 09       		.byte	0x9
 807 04e4 DD       		.byte	0xdd
 808 04e5 97000000 		.4byte	0x97
 809 04e9 00       		.byte	0
 810 04ea 0C       		.uleb128 0xc
 811 04eb EE0A0000 		.4byte	.LASF59
 812 04ef 09       		.byte	0x9
 813 04f0 DE       		.byte	0xde
 814 04f1 97000000 		.4byte	0x97
 815 04f5 01       		.byte	0x1
 816 04f6 0C       		.uleb128 0xc
 817 04f7 80020000 		.4byte	.LASF60
 818 04fb 09       		.byte	0x9
 819 04fc DF       		.byte	0xdf
 820 04fd C7040000 		.4byte	0x4c7
 821 0501 02       		.byte	0x2
 822 0502 0C       		.uleb128 0xc
 823 0503 00000000 		.4byte	.LASF61
 824 0507 09       		.byte	0x9
 825 0508 E0       		.byte	0xe0
 826 0509 C7040000 		.4byte	0x4c7
 827 050d 04       		.byte	0x4
 828 050e 0C       		.uleb128 0xc
 829 050f 100B0000 		.4byte	.LASF62
 830 0513 09       		.byte	0x9
 831 0514 E1       		.byte	0xe1
 832 0515 C7040000 		.4byte	0x4c7
 833 0519 06       		.byte	0x6
 834 051a 00       		.byte	0
 835 051b 15       		.uleb128 0x15
 836 051c 24060000 		.4byte	.LASF210
 837 0520 08       		.byte	0x8
 838 0521 09       		.byte	0x9
 839 0522 D7       		.byte	0xd7
 840 0523 3B050000 		.4byte	0x53b
 841 0527 14       		.uleb128 0x14
 842 0528 643800   		.ascii	"d8\000"
 843 052b 09       		.byte	0x9
 844 052c D9       		.byte	0xd9
 845 052d CF000000 		.4byte	0xcf
 846 0531 14       		.uleb128 0x14
 847 0532 6200     		.ascii	"b\000"
 848 0534 09       		.byte	0x9
 849 0535 E2       		.byte	0xe2
 850 0536 D2040000 		.4byte	0x4d2
 851 053a 00       		.byte	0
 852 053b 03       		.uleb128 0x3
 853 053c 0D090000 		.4byte	.LASF63
 854 0540 09       		.byte	0x9
 855 0541 E4       		.byte	0xe4
ARM GAS  /tmp/ccxyKTeE.s 			page 16


 856 0542 1B050000 		.4byte	0x51b
 857 0546 0B       		.uleb128 0xb
 858 0547 2C0A0000 		.4byte	.LASF64
 859 054b 12       		.byte	0x12
 860 054c 09       		.byte	0x9
 861 054d ED       		.byte	0xed
 862 054e FB050000 		.4byte	0x5fb
 863 0552 0C       		.uleb128 0xc
 864 0553 6A0A0000 		.4byte	.LASF65
 865 0557 09       		.byte	0x9
 866 0558 EF       		.byte	0xef
 867 0559 97000000 		.4byte	0x97
 868 055d 00       		.byte	0
 869 055e 0C       		.uleb128 0xc
 870 055f B1040000 		.4byte	.LASF66
 871 0563 09       		.byte	0x9
 872 0564 F0       		.byte	0xf0
 873 0565 97000000 		.4byte	0x97
 874 0569 01       		.byte	0x1
 875 056a 0C       		.uleb128 0xc
 876 056b 55030000 		.4byte	.LASF67
 877 056f 09       		.byte	0x9
 878 0570 F1       		.byte	0xf1
 879 0571 A2000000 		.4byte	0xa2
 880 0575 02       		.byte	0x2
 881 0576 0C       		.uleb128 0xc
 882 0577 8A090000 		.4byte	.LASF68
 883 057b 09       		.byte	0x9
 884 057c F2       		.byte	0xf2
 885 057d 97000000 		.4byte	0x97
 886 0581 04       		.byte	0x4
 887 0582 0C       		.uleb128 0xc
 888 0583 97030000 		.4byte	.LASF69
 889 0587 09       		.byte	0x9
 890 0588 F3       		.byte	0xf3
 891 0589 97000000 		.4byte	0x97
 892 058d 05       		.byte	0x5
 893 058e 0C       		.uleb128 0xc
 894 058f B3050000 		.4byte	.LASF70
 895 0593 09       		.byte	0x9
 896 0594 F4       		.byte	0xf4
 897 0595 97000000 		.4byte	0x97
 898 0599 06       		.byte	0x6
 899 059a 0C       		.uleb128 0xc
 900 059b D8060000 		.4byte	.LASF71
 901 059f 09       		.byte	0x9
 902 05a0 F8       		.byte	0xf8
 903 05a1 97000000 		.4byte	0x97
 904 05a5 07       		.byte	0x7
 905 05a6 0C       		.uleb128 0xc
 906 05a7 5E040000 		.4byte	.LASF72
 907 05ab 09       		.byte	0x9
 908 05ac F9       		.byte	0xf9
 909 05ad A2000000 		.4byte	0xa2
 910 05b1 08       		.byte	0x8
 911 05b2 0C       		.uleb128 0xc
 912 05b3 E5020000 		.4byte	.LASF73
ARM GAS  /tmp/ccxyKTeE.s 			page 17


 913 05b7 09       		.byte	0x9
 914 05b8 FA       		.byte	0xfa
 915 05b9 A2000000 		.4byte	0xa2
 916 05bd 0A       		.byte	0xa
 917 05be 0C       		.uleb128 0xc
 918 05bf FA010000 		.4byte	.LASF74
 919 05c3 09       		.byte	0x9
 920 05c4 FB       		.byte	0xfb
 921 05c5 A2000000 		.4byte	0xa2
 922 05c9 0C       		.byte	0xc
 923 05ca 0C       		.uleb128 0xc
 924 05cb 87020000 		.4byte	.LASF75
 925 05cf 09       		.byte	0x9
 926 05d0 FC       		.byte	0xfc
 927 05d1 97000000 		.4byte	0x97
 928 05d5 0E       		.byte	0xe
 929 05d6 0C       		.uleb128 0xc
 930 05d7 B8020000 		.4byte	.LASF76
 931 05db 09       		.byte	0x9
 932 05dc FD       		.byte	0xfd
 933 05dd 97000000 		.4byte	0x97
 934 05e1 0F       		.byte	0xf
 935 05e2 0C       		.uleb128 0xc
 936 05e3 A7030000 		.4byte	.LASF77
 937 05e7 09       		.byte	0x9
 938 05e8 FE       		.byte	0xfe
 939 05e9 97000000 		.4byte	0x97
 940 05ed 10       		.byte	0x10
 941 05ee 0C       		.uleb128 0xc
 942 05ef 6D0B0000 		.4byte	.LASF78
 943 05f3 09       		.byte	0x9
 944 05f4 FF       		.byte	0xff
 945 05f5 97000000 		.4byte	0x97
 946 05f9 11       		.byte	0x11
 947 05fa 00       		.byte	0
 948 05fb 16       		.uleb128 0x16
 949 05fc 590B0000 		.4byte	.LASF79
 950 0600 09       		.byte	0x9
 951 0601 0101     		.2byte	0x101
 952 0603 46050000 		.4byte	0x546
 953 0607 0F       		.uleb128 0xf
 954 0608 35060000 		.4byte	.LASF80
 955 060c 08       		.byte	0x8
 956 060d 09       		.byte	0x9
 957 060e 0301     		.2byte	0x103
 958 0610 63060000 		.4byte	0x663
 959 0614 17       		.uleb128 0x17
 960 0615 6A0A0000 		.4byte	.LASF65
 961 0619 09       		.byte	0x9
 962 061a 0501     		.2byte	0x105
 963 061c 97000000 		.4byte	0x97
 964 0620 00       		.byte	0
 965 0621 17       		.uleb128 0x17
 966 0622 B1040000 		.4byte	.LASF66
 967 0626 09       		.byte	0x9
 968 0627 0601     		.2byte	0x106
 969 0629 97000000 		.4byte	0x97
ARM GAS  /tmp/ccxyKTeE.s 			page 18


 970 062d 01       		.byte	0x1
 971 062e 17       		.uleb128 0x17
 972 062f B6060000 		.4byte	.LASF81
 973 0633 09       		.byte	0x9
 974 0634 0701     		.2byte	0x107
 975 0636 97000000 		.4byte	0x97
 976 063a 02       		.byte	0x2
 977 063b 17       		.uleb128 0x17
 978 063c 6D040000 		.4byte	.LASF82
 979 0640 09       		.byte	0x9
 980 0641 0801     		.2byte	0x108
 981 0643 97000000 		.4byte	0x97
 982 0647 03       		.byte	0x3
 983 0648 17       		.uleb128 0x17
 984 0649 A7090000 		.4byte	.LASF83
 985 064d 09       		.byte	0x9
 986 064e 0901     		.2byte	0x109
 987 0650 A2000000 		.4byte	0xa2
 988 0654 04       		.byte	0x4
 989 0655 17       		.uleb128 0x17
 990 0656 36050000 		.4byte	.LASF84
 991 065a 09       		.byte	0x9
 992 065b 0A01     		.2byte	0x10a
 993 065d 97000000 		.4byte	0x97
 994 0661 06       		.byte	0x6
 995 0662 00       		.byte	0
 996 0663 16       		.uleb128 0x16
 997 0664 84040000 		.4byte	.LASF85
 998 0668 09       		.byte	0x9
 999 0669 0C01     		.2byte	0x10c
 1000 066b 07060000 		.4byte	0x607
 1001 066f 0F       		.uleb128 0xf
 1002 0670 C60A0000 		.4byte	.LASF86
 1003 0674 3A       		.byte	0x3a
 1004 0675 09       		.byte	0x9
 1005 0676 0E01     		.2byte	0x10e
 1006 0678 FF060000 		.4byte	0x6ff
 1007 067c 17       		.uleb128 0x17
 1008 067d 6A0A0000 		.4byte	.LASF65
 1009 0681 09       		.byte	0x9
 1010 0682 1001     		.2byte	0x110
 1011 0684 97000000 		.4byte	0x97
 1012 0688 00       		.byte	0
 1013 0689 17       		.uleb128 0x17
 1014 068a B1040000 		.4byte	.LASF66
 1015 068e 09       		.byte	0x9
 1016 068f 1101     		.2byte	0x111
 1017 0691 97000000 		.4byte	0x97
 1018 0695 01       		.byte	0x1
 1019 0696 17       		.uleb128 0x17
 1020 0697 90000000 		.4byte	.LASF87
 1021 069b 09       		.byte	0x9
 1022 069c 1201     		.2byte	0x112
 1023 069e 97000000 		.4byte	0x97
 1024 06a2 02       		.byte	0x2
 1025 06a3 17       		.uleb128 0x17
 1026 06a4 C3050000 		.4byte	.LASF88
ARM GAS  /tmp/ccxyKTeE.s 			page 19


 1027 06a8 09       		.byte	0x9
 1028 06a9 1301     		.2byte	0x113
 1029 06ab 97000000 		.4byte	0x97
 1030 06af 03       		.byte	0x3
 1031 06b0 17       		.uleb128 0x17
 1032 06b1 40090000 		.4byte	.LASF89
 1033 06b5 09       		.byte	0x9
 1034 06b6 1401     		.2byte	0x114
 1035 06b8 97000000 		.4byte	0x97
 1036 06bc 04       		.byte	0x4
 1037 06bd 17       		.uleb128 0x17
 1038 06be A1000000 		.4byte	.LASF90
 1039 06c2 09       		.byte	0x9
 1040 06c3 1501     		.2byte	0x115
 1041 06c5 97000000 		.4byte	0x97
 1042 06c9 05       		.byte	0x5
 1043 06ca 17       		.uleb128 0x17
 1044 06cb 14040000 		.4byte	.LASF91
 1045 06cf 09       		.byte	0x9
 1046 06d0 1601     		.2byte	0x116
 1047 06d2 97000000 		.4byte	0x97
 1048 06d6 06       		.byte	0x6
 1049 06d7 17       		.uleb128 0x17
 1050 06d8 4E090000 		.4byte	.LASF92
 1051 06dc 09       		.byte	0x9
 1052 06dd 1701     		.2byte	0x117
 1053 06df 97000000 		.4byte	0x97
 1054 06e3 07       		.byte	0x7
 1055 06e4 17       		.uleb128 0x17
 1056 06e5 1D050000 		.4byte	.LASF93
 1057 06e9 09       		.byte	0x9
 1058 06ea 1801     		.2byte	0x118
 1059 06ec 97000000 		.4byte	0x97
 1060 06f0 08       		.byte	0x8
 1061 06f1 17       		.uleb128 0x17
 1062 06f2 88000000 		.4byte	.LASF94
 1063 06f6 09       		.byte	0x9
 1064 06f7 1901     		.2byte	0x119
 1065 06f9 FF060000 		.4byte	0x6ff
 1066 06fd 0A       		.byte	0xa
 1067 06fe 00       		.byte	0
 1068 06ff 06       		.uleb128 0x6
 1069 0700 63060000 		.4byte	0x663
 1070 0704 0F070000 		.4byte	0x70f
 1071 0708 07       		.uleb128 0x7
 1072 0709 C3000000 		.4byte	0xc3
 1073 070d 05       		.byte	0x5
 1074 070e 00       		.byte	0
 1075 070f 16       		.uleb128 0x16
 1076 0710 27040000 		.4byte	.LASF95
 1077 0714 09       		.byte	0x9
 1078 0715 1B01     		.2byte	0x11b
 1079 0717 6F060000 		.4byte	0x66f
 1080 071b 18       		.uleb128 0x18
 1081 071c 91070000 		.4byte	.LASF96
 1082 0720 6601     		.2byte	0x166
 1083 0722 09       		.byte	0x9
ARM GAS  /tmp/ccxyKTeE.s 			page 20


 1084 0723 1E01     		.2byte	0x11e
 1085 0725 9F070000 		.4byte	0x79f
 1086 0729 17       		.uleb128 0x17
 1087 072a 6A0A0000 		.4byte	.LASF65
 1088 072e 09       		.byte	0x9
 1089 072f 2001     		.2byte	0x120
 1090 0731 97000000 		.4byte	0x97
 1091 0735 00       		.byte	0
 1092 0736 17       		.uleb128 0x17
 1093 0737 B1040000 		.4byte	.LASF66
 1094 073b 09       		.byte	0x9
 1095 073c 2101     		.2byte	0x121
 1096 073e 97000000 		.4byte	0x97
 1097 0742 01       		.byte	0x1
 1098 0743 17       		.uleb128 0x17
 1099 0744 02010000 		.4byte	.LASF97
 1100 0748 09       		.byte	0x9
 1101 0749 2201     		.2byte	0x122
 1102 074b A2000000 		.4byte	0xa2
 1103 074f 02       		.byte	0x2
 1104 0750 17       		.uleb128 0x17
 1105 0751 050A0000 		.4byte	.LASF98
 1106 0755 09       		.byte	0x9
 1107 0756 2301     		.2byte	0x123
 1108 0758 97000000 		.4byte	0x97
 1109 075c 04       		.byte	0x4
 1110 075d 17       		.uleb128 0x17
 1111 075e 5B070000 		.4byte	.LASF99
 1112 0762 09       		.byte	0x9
 1113 0763 2401     		.2byte	0x124
 1114 0765 97000000 		.4byte	0x97
 1115 0769 05       		.byte	0x5
 1116 076a 17       		.uleb128 0x17
 1117 076b AA070000 		.4byte	.LASF100
 1118 076f 09       		.byte	0x9
 1119 0770 2501     		.2byte	0x125
 1120 0772 97000000 		.4byte	0x97
 1121 0776 06       		.byte	0x6
 1122 0777 17       		.uleb128 0x17
 1123 0778 6D040000 		.4byte	.LASF82
 1124 077c 09       		.byte	0x9
 1125 077d 2601     		.2byte	0x126
 1126 077f 97000000 		.4byte	0x97
 1127 0783 07       		.byte	0x7
 1128 0784 17       		.uleb128 0x17
 1129 0785 720A0000 		.4byte	.LASF101
 1130 0789 09       		.byte	0x9
 1131 078a 2701     		.2byte	0x127
 1132 078c 97000000 		.4byte	0x97
 1133 0790 08       		.byte	0x8
 1134 0791 17       		.uleb128 0x17
 1135 0792 C7060000 		.4byte	.LASF102
 1136 0796 09       		.byte	0x9
 1137 0797 2801     		.2byte	0x128
 1138 0799 9F070000 		.4byte	0x79f
 1139 079d 0A       		.byte	0xa
 1140 079e 00       		.byte	0
ARM GAS  /tmp/ccxyKTeE.s 			page 21


 1141 079f 06       		.uleb128 0x6
 1142 07a0 0F070000 		.4byte	0x70f
 1143 07a4 AF070000 		.4byte	0x7af
 1144 07a8 07       		.uleb128 0x7
 1145 07a9 C3000000 		.4byte	0xc3
 1146 07ad 05       		.byte	0x5
 1147 07ae 00       		.byte	0
 1148 07af 16       		.uleb128 0x16
 1149 07b0 B6090000 		.4byte	.LASF103
 1150 07b4 09       		.byte	0x9
 1151 07b5 2A01     		.2byte	0x12a
 1152 07b7 1B070000 		.4byte	0x71b
 1153 07bb 19       		.uleb128 0x19
 1154 07bc 01       		.byte	0x1
 1155 07bd 09       		.byte	0x9
 1156 07be 2F01     		.2byte	0x12f
 1157 07c0 E9070000 		.4byte	0x7e9
 1158 07c4 1A       		.uleb128 0x1a
 1159 07c5 800B0000 		.4byte	.LASF104
 1160 07c9 00       		.sleb128 0
 1161 07ca 1A       		.uleb128 0x1a
 1162 07cb 49060000 		.4byte	.LASF105
 1163 07cf 01       		.sleb128 1
 1164 07d0 1A       		.uleb128 0x1a
 1165 07d1 7A040000 		.4byte	.LASF106
 1166 07d5 02       		.sleb128 2
 1167 07d6 1A       		.uleb128 0x1a
 1168 07d7 85060000 		.4byte	.LASF107
 1169 07db 03       		.sleb128 3
 1170 07dc 1A       		.uleb128 0x1a
 1171 07dd 0B070000 		.4byte	.LASF108
 1172 07e1 04       		.sleb128 4
 1173 07e2 1A       		.uleb128 0x1a
 1174 07e3 2D0B0000 		.4byte	.LASF109
 1175 07e7 05       		.sleb128 5
 1176 07e8 00       		.byte	0
 1177 07e9 16       		.uleb128 0x16
 1178 07ea B1000000 		.4byte	.LASF110
 1179 07ee 09       		.byte	0x9
 1180 07ef 3601     		.2byte	0x136
 1181 07f1 BB070000 		.4byte	0x7bb
 1182 07f5 19       		.uleb128 0x19
 1183 07f6 01       		.byte	0x1
 1184 07f7 09       		.byte	0x9
 1185 07f8 4701     		.2byte	0x147
 1186 07fa 4D080000 		.4byte	0x84d
 1187 07fe 1A       		.uleb128 0x1a
 1188 07ff 98060000 		.4byte	.LASF111
 1189 0803 00       		.sleb128 0
 1190 0804 1A       		.uleb128 0x1a
 1191 0805 07060000 		.4byte	.LASF112
 1192 0809 01       		.sleb128 1
 1193 080a 1A       		.uleb128 0x1a
 1194 080b DE000000 		.4byte	.LASF113
 1195 080f 02       		.sleb128 2
 1196 0810 1A       		.uleb128 0x1a
 1197 0811 2A090000 		.4byte	.LASF114
ARM GAS  /tmp/ccxyKTeE.s 			page 22


 1198 0815 03       		.sleb128 3
 1199 0816 1A       		.uleb128 0x1a
 1200 0817 F70A0000 		.4byte	.LASF115
 1201 081b 04       		.sleb128 4
 1202 081c 1A       		.uleb128 0x1a
 1203 081d C0030000 		.4byte	.LASF116
 1204 0821 05       		.sleb128 5
 1205 0822 1A       		.uleb128 0x1a
 1206 0823 A0050000 		.4byte	.LASF117
 1207 0827 06       		.sleb128 6
 1208 0828 1A       		.uleb128 0x1a
 1209 0829 46070000 		.4byte	.LASF118
 1210 082d 07       		.sleb128 7
 1211 082e 1A       		.uleb128 0x1a
 1212 082f 35020000 		.4byte	.LASF119
 1213 0833 08       		.sleb128 8
 1214 0834 1A       		.uleb128 0x1a
 1215 0835 FC070000 		.4byte	.LASF120
 1216 0839 09       		.sleb128 9
 1217 083a 1A       		.uleb128 0x1a
 1218 083b 2E010000 		.4byte	.LASF121
 1219 083f 0A       		.sleb128 10
 1220 0840 1A       		.uleb128 0x1a
 1221 0841 E1040000 		.4byte	.LASF122
 1222 0845 0B       		.sleb128 11
 1223 0846 1A       		.uleb128 0x1a
 1224 0847 CD000000 		.4byte	.LASF123
 1225 084b 0C       		.sleb128 12
 1226 084c 00       		.byte	0
 1227 084d 16       		.uleb128 0x16
 1228 084e F0000000 		.4byte	.LASF124
 1229 0852 09       		.byte	0x9
 1230 0853 5501     		.2byte	0x155
 1231 0855 F5070000 		.4byte	0x7f5
 1232 0859 19       		.uleb128 0x19
 1233 085a 01       		.byte	0x1
 1234 085b 09       		.byte	0x9
 1235 085c 5901     		.2byte	0x159
 1236 085e 93080000 		.4byte	0x893
 1237 0862 1A       		.uleb128 0x1a
 1238 0863 48000000 		.4byte	.LASF125
 1239 0867 00       		.sleb128 0
 1240 0868 1A       		.uleb128 0x1a
 1241 0869 89050000 		.4byte	.LASF126
 1242 086d 01       		.sleb128 1
 1243 086e 1A       		.uleb128 0x1a
 1244 086f 28050000 		.4byte	.LASF127
 1245 0873 02       		.sleb128 2
 1246 0874 1A       		.uleb128 0x1a
 1247 0875 2F000000 		.4byte	.LASF128
 1248 0879 03       		.sleb128 3
 1249 087a 1A       		.uleb128 0x1a
 1250 087b 07000000 		.4byte	.LASF129
 1251 087f 04       		.sleb128 4
 1252 0880 1A       		.uleb128 0x1a
 1253 0881 EE050000 		.4byte	.LASF130
 1254 0885 05       		.sleb128 5
ARM GAS  /tmp/ccxyKTeE.s 			page 23


 1255 0886 1A       		.uleb128 0x1a
 1256 0887 41040000 		.4byte	.LASF131
 1257 088b 06       		.sleb128 6
 1258 088c 1A       		.uleb128 0x1a
 1259 088d 880B0000 		.4byte	.LASF132
 1260 0891 07       		.sleb128 7
 1261 0892 00       		.byte	0
 1262 0893 16       		.uleb128 0x16
 1263 0894 EA070000 		.4byte	.LASF133
 1264 0898 09       		.byte	0x9
 1265 0899 6201     		.2byte	0x162
 1266 089b 59080000 		.4byte	0x859
 1267 089f 19       		.uleb128 0x19
 1268 08a0 01       		.byte	0x1
 1269 08a1 09       		.byte	0x9
 1270 08a2 6601     		.2byte	0x166
 1271 08a4 FD080000 		.4byte	0x8fd
 1272 08a8 1A       		.uleb128 0x1a
 1273 08a9 7B090000 		.4byte	.LASF134
 1274 08ad 00       		.sleb128 0
 1275 08ae 1A       		.uleb128 0x1a
 1276 08af B9070000 		.4byte	.LASF135
 1277 08b3 01       		.sleb128 1
 1278 08b4 1A       		.uleb128 0x1a
 1279 08b5 AF0B0000 		.4byte	.LASF136
 1280 08b9 02       		.sleb128 2
 1281 08ba 1A       		.uleb128 0x1a
 1282 08bb 6E050000 		.4byte	.LASF137
 1283 08bf 03       		.sleb128 3
 1284 08c0 1A       		.uleb128 0x1a
 1285 08c1 53060000 		.4byte	.LASF138
 1286 08c5 04       		.sleb128 4
 1287 08c6 1A       		.uleb128 0x1a
 1288 08c7 D8030000 		.4byte	.LASF139
 1289 08cb 05       		.sleb128 5
 1290 08cc 1A       		.uleb128 0x1a
 1291 08cd 5C030000 		.4byte	.LASF140
 1292 08d1 06       		.sleb128 6
 1293 08d2 1A       		.uleb128 0x1a
 1294 08d3 71020000 		.4byte	.LASF141
 1295 08d7 07       		.sleb128 7
 1296 08d8 1A       		.uleb128 0x1a
 1297 08d9 FD040000 		.4byte	.LASF142
 1298 08dd 08       		.sleb128 8
 1299 08de 1A       		.uleb128 0x1a
 1300 08df D2070000 		.4byte	.LASF143
 1301 08e3 09       		.sleb128 9
 1302 08e4 1A       		.uleb128 0x1a
 1303 08e5 52000000 		.4byte	.LASF144
 1304 08e9 0A       		.sleb128 10
 1305 08ea 1A       		.uleb128 0x1a
 1306 08eb 67000000 		.4byte	.LASF145
 1307 08ef 0B       		.sleb128 11
 1308 08f0 1A       		.uleb128 0x1a
 1309 08f1 A2060000 		.4byte	.LASF146
 1310 08f5 0C       		.sleb128 12
 1311 08f6 1A       		.uleb128 0x1a
ARM GAS  /tmp/ccxyKTeE.s 			page 24


 1312 08f7 F7090000 		.4byte	.LASF147
 1313 08fb 0D       		.sleb128 13
 1314 08fc 00       		.byte	0
 1315 08fd 16       		.uleb128 0x16
 1316 08fe 04020000 		.4byte	.LASF148
 1317 0902 09       		.byte	0x9
 1318 0903 7501     		.2byte	0x175
 1319 0905 9F080000 		.4byte	0x89f
 1320 0909 19       		.uleb128 0x19
 1321 090a 01       		.byte	0x1
 1322 090b 09       		.byte	0x9
 1323 090c 7A01     		.2byte	0x17a
 1324 090e 25090000 		.4byte	0x925
 1325 0912 1A       		.uleb128 0x1a
 1326 0913 65050000 		.4byte	.LASF149
 1327 0917 00       		.sleb128 0
 1328 0918 1A       		.uleb128 0x1a
 1329 0919 C1020000 		.4byte	.LASF150
 1330 091d 01       		.sleb128 1
 1331 091e 1A       		.uleb128 0x1a
 1332 091f BB010000 		.4byte	.LASF151
 1333 0923 02       		.sleb128 2
 1334 0924 00       		.byte	0
 1335 0925 16       		.uleb128 0x16
 1336 0926 35070000 		.4byte	.LASF152
 1337 092a 09       		.byte	0x9
 1338 092b 7E01     		.2byte	0x17e
 1339 092d 09090000 		.4byte	0x909
 1340 0931 1B       		.uleb128 0x1b
 1341 0932 18       		.byte	0x18
 1342 0933 09       		.byte	0x9
 1343 0934 9401     		.2byte	0x194
 1344 0936 B0090000 		.4byte	0x9b0
 1345 093a 17       		.uleb128 0x17
 1346 093b BF0B0000 		.4byte	.LASF153
 1347 093f 09       		.byte	0x9
 1348 0940 9601     		.2byte	0x196
 1349 0942 97000000 		.4byte	0x97
 1350 0946 00       		.byte	0
 1351 0947 17       		.uleb128 0x17
 1352 0948 C4000000 		.4byte	.LASF154
 1353 094c 09       		.byte	0x9
 1354 094d 9701     		.2byte	0x197
 1355 094f 97000000 		.4byte	0x97
 1356 0953 01       		.byte	0x1
 1357 0954 17       		.uleb128 0x17
 1358 0955 460A0000 		.4byte	.LASF155
 1359 0959 09       		.byte	0x9
 1360 095a 9801     		.2byte	0x198
 1361 095c 97000000 		.4byte	0x97
 1362 0960 02       		.byte	0x2
 1363 0961 17       		.uleb128 0x17
 1364 0962 CB010000 		.4byte	.LASF156
 1365 0966 09       		.byte	0x9
 1366 0967 9901     		.2byte	0x199
 1367 0969 81040000 		.4byte	0x481
 1368 096d 04       		.byte	0x4
ARM GAS  /tmp/ccxyKTeE.s 			page 25


 1369 096e 17       		.uleb128 0x17
 1370 096f 1E000000 		.4byte	.LASF157
 1371 0973 09       		.byte	0x9
 1372 0974 9A01     		.2byte	0x19a
 1373 0976 A2000000 		.4byte	0xa2
 1374 097a 08       		.byte	0x8
 1375 097b 17       		.uleb128 0x17
 1376 097c E80A0000 		.4byte	.LASF158
 1377 0980 09       		.byte	0x9
 1378 0981 9B01     		.2byte	0x19b
 1379 0983 A2000000 		.4byte	0xa2
 1380 0987 0A       		.byte	0xa
 1381 0988 17       		.uleb128 0x17
 1382 0989 2F060000 		.4byte	.LASF159
 1383 098d 09       		.byte	0x9
 1384 098e 9C01     		.2byte	0x19c
 1385 0990 3B050000 		.4byte	0x53b
 1386 0994 0C       		.byte	0xc
 1387 0995 17       		.uleb128 0x17
 1388 0996 2F020000 		.4byte	.LASF160
 1389 099a 09       		.byte	0x9
 1390 099b 9D01     		.2byte	0x19d
 1391 099d FD080000 		.4byte	0x8fd
 1392 09a1 14       		.byte	0x14
 1393 09a2 17       		.uleb128 0x17
 1394 09a3 40050000 		.4byte	.LASF161
 1395 09a7 09       		.byte	0x9
 1396 09a8 9E01     		.2byte	0x19e
 1397 09aa 97000000 		.4byte	0x97
 1398 09ae 15       		.byte	0x15
 1399 09af 00       		.byte	0
 1400 09b0 16       		.uleb128 0x16
 1401 09b1 34030000 		.4byte	.LASF162
 1402 09b5 09       		.byte	0x9
 1403 09b6 A001     		.2byte	0x1a0
 1404 09b8 31090000 		.4byte	0x931
 1405 09bc 1C       		.uleb128 0x1c
 1406 09bd 7C05     		.2byte	0x57c
 1407 09bf 09       		.byte	0x9
 1408 09c0 A301     		.2byte	0x1a3
 1409 09c2 360A0000 		.4byte	0xa36
 1410 09c6 17       		.uleb128 0x17
 1411 09c7 11050000 		.4byte	.LASF163
 1412 09cb 09       		.byte	0x9
 1413 09cc A601     		.2byte	0x1a6
 1414 09ce 360A0000 		.4byte	0xa36
 1415 09d2 00       		.byte	0
 1416 09d3 1D       		.uleb128 0x1d
 1417 09d4 5D020000 		.4byte	.LASF164
 1418 09d8 09       		.byte	0x9
 1419 09d9 A801     		.2byte	0x1a8
 1420 09db 360A0000 		.4byte	0xa36
 1421 09df 0002     		.2byte	0x200
 1422 09e1 1D       		.uleb128 0x1d
 1423 09e2 81050000 		.4byte	.LASF165
 1424 09e6 09       		.byte	0x9
 1425 09e7 A901     		.2byte	0x1a9
ARM GAS  /tmp/ccxyKTeE.s 			page 26


 1426 09e9 97000000 		.4byte	0x97
 1427 09ed 0004     		.2byte	0x400
 1428 09ef 1D       		.uleb128 0x1d
 1429 09f0 1F0B0000 		.4byte	.LASF166
 1430 09f4 09       		.byte	0x9
 1431 09f5 AA01     		.2byte	0x1aa
 1432 09f7 97000000 		.4byte	0x97
 1433 09fb 0104     		.2byte	0x401
 1434 09fd 1D       		.uleb128 0x1d
 1435 09fe 4C0B0000 		.4byte	.LASF167
 1436 0a02 09       		.byte	0x9
 1437 0a03 AB01     		.2byte	0x1ab
 1438 0a05 DF000000 		.4byte	0xdf
 1439 0a09 0204     		.2byte	0x402
 1440 0a0b 1D       		.uleb128 0x1d
 1441 0a0c 0F010000 		.4byte	.LASF168
 1442 0a10 09       		.byte	0x9
 1443 0a11 AC01     		.2byte	0x1ac
 1444 0a13 97000000 		.4byte	0x97
 1445 0a17 0304     		.2byte	0x403
 1446 0a19 1D       		.uleb128 0x1d
 1447 0a1a 73090000 		.4byte	.LASF169
 1448 0a1e 09       		.byte	0x9
 1449 0a1f AD01     		.2byte	0x1ad
 1450 0a21 FB050000 		.4byte	0x5fb
 1451 0a25 0404     		.2byte	0x404
 1452 0a27 1D       		.uleb128 0x1d
 1453 0a28 250B0000 		.4byte	.LASF170
 1454 0a2c 09       		.byte	0x9
 1455 0a2d AE01     		.2byte	0x1ae
 1456 0a2f AF070000 		.4byte	0x7af
 1457 0a33 1604     		.2byte	0x416
 1458 0a35 00       		.byte	0
 1459 0a36 06       		.uleb128 0x6
 1460 0a37 97000000 		.4byte	0x97
 1461 0a3b 470A0000 		.4byte	0xa47
 1462 0a3f 1E       		.uleb128 0x1e
 1463 0a40 C3000000 		.4byte	0xc3
 1464 0a44 FF01     		.2byte	0x1ff
 1465 0a46 00       		.byte	0
 1466 0a47 16       		.uleb128 0x16
 1467 0a48 22070000 		.4byte	.LASF171
 1468 0a4c 09       		.byte	0x9
 1469 0a4d B001     		.2byte	0x1b0
 1470 0a4f BC090000 		.4byte	0x9bc
 1471 0a53 1B       		.uleb128 0x1b
 1472 0a54 20       		.byte	0x20
 1473 0a55 09       		.byte	0x9
 1474 0a56 B501     		.2byte	0x1b5
 1475 0a58 C50A0000 		.4byte	0xac5
 1476 0a5c 17       		.uleb128 0x17
 1477 0a5d B90A0000 		.4byte	.LASF172
 1478 0a61 09       		.byte	0x9
 1479 0a62 B701     		.2byte	0x1b7
 1480 0a64 02010000 		.4byte	0x102
 1481 0a68 00       		.byte	0
 1482 0a69 17       		.uleb128 0x17
ARM GAS  /tmp/ccxyKTeE.s 			page 27


 1483 0a6a 2A030000 		.4byte	.LASF173
 1484 0a6e 09       		.byte	0x9
 1485 0a6f B801     		.2byte	0x1b8
 1486 0a71 97000000 		.4byte	0x97
 1487 0a75 04       		.byte	0x4
 1488 0a76 17       		.uleb128 0x17
 1489 0a77 73060000 		.4byte	.LASF174
 1490 0a7b 09       		.byte	0x9
 1491 0a7c B901     		.2byte	0x1b9
 1492 0a7e B50B0000 		.4byte	0xbb5
 1493 0a82 08       		.byte	0x8
 1494 0a83 17       		.uleb128 0x17
 1495 0a84 9A010000 		.4byte	.LASF175
 1496 0a88 09       		.byte	0x9
 1497 0a89 BA01     		.2byte	0x1ba
 1498 0a8b B50B0000 		.4byte	0xbb5
 1499 0a8f 0C       		.byte	0xc
 1500 0a90 17       		.uleb128 0x17
 1501 0a91 95020000 		.4byte	.LASF176
 1502 0a95 09       		.byte	0x9
 1503 0a96 BB01     		.2byte	0x1bb
 1504 0a98 B50B0000 		.4byte	0xbb5
 1505 0a9c 10       		.byte	0x10
 1506 0a9d 17       		.uleb128 0x17
 1507 0a9e D3020000 		.4byte	.LASF177
 1508 0aa2 09       		.byte	0x9
 1509 0aa3 BC01     		.2byte	0x1bc
 1510 0aa5 B50B0000 		.4byte	0xbb5
 1511 0aa9 14       		.byte	0x14
 1512 0aaa 17       		.uleb128 0x17
 1513 0aab D0010000 		.4byte	.LASF178
 1514 0aaf 09       		.byte	0x9
 1515 0ab0 BD01     		.2byte	0x1bd
 1516 0ab2 B50B0000 		.4byte	0xbb5
 1517 0ab6 18       		.byte	0x18
 1518 0ab7 17       		.uleb128 0x17
 1519 0ab8 DF020000 		.4byte	.LASF179
 1520 0abc 09       		.byte	0x9
 1521 0abd BE01     		.2byte	0x1be
 1522 0abf F9000000 		.4byte	0xf9
 1523 0ac3 1C       		.byte	0x1c
 1524 0ac4 00       		.byte	0
 1525 0ac5 1F       		.uleb128 0x1f
 1526 0ac6 E9070000 		.4byte	0x7e9
 1527 0aca D40A0000 		.4byte	0xad4
 1528 0ace 20       		.uleb128 0x20
 1529 0acf D40A0000 		.4byte	0xad4
 1530 0ad3 00       		.byte	0
 1531 0ad4 09       		.uleb128 0x9
 1532 0ad5 04       		.byte	0x4
 1533 0ad6 DA0A0000 		.4byte	0xada
 1534 0ada 18       		.uleb128 0x18
 1535 0adb CD040000 		.4byte	.LASF180
 1536 0adf 0006     		.2byte	0x600
 1537 0ae1 09       		.byte	0x9
 1538 0ae2 C201     		.2byte	0x1c2
 1539 0ae4 B50B0000 		.4byte	0xbb5
ARM GAS  /tmp/ccxyKTeE.s 			page 28


 1540 0ae8 17       		.uleb128 0x17
 1541 0ae9 C4010000 		.4byte	.LASF181
 1542 0aed 09       		.byte	0x9
 1543 0aee C401     		.2byte	0x1c4
 1544 0af0 C70B0000 		.4byte	0xbc7
 1545 0af4 00       		.byte	0
 1546 0af5 17       		.uleb128 0x17
 1547 0af6 F5030000 		.4byte	.LASF182
 1548 0afa 09       		.byte	0x9
 1549 0afb C501     		.2byte	0x1c5
 1550 0afd 93080000 		.4byte	0x893
 1551 0b01 01       		.byte	0x1
 1552 0b02 17       		.uleb128 0x17
 1553 0b03 78060000 		.4byte	.LASF183
 1554 0b07 09       		.byte	0x9
 1555 0b08 C601     		.2byte	0x1c6
 1556 0b0a 25090000 		.4byte	0x925
 1557 0b0e 02       		.byte	0x2
 1558 0b0f 17       		.uleb128 0x17
 1559 0b10 55020000 		.4byte	.LASF184
 1560 0b14 09       		.byte	0x9
 1561 0b15 C701     		.2byte	0x1c7
 1562 0b17 B0090000 		.4byte	0x9b0
 1563 0b1b 04       		.byte	0x4
 1564 0b1c 17       		.uleb128 0x17
 1565 0b1d 0D040000 		.4byte	.LASF185
 1566 0b21 09       		.byte	0x9
 1567 0b22 C801     		.2byte	0x1c8
 1568 0b24 470A0000 		.4byte	0xa47
 1569 0b28 1C       		.byte	0x1c
 1570 0b29 1D       		.uleb128 0x1d
 1571 0b2a D1030000 		.4byte	.LASF186
 1572 0b2e 09       		.byte	0x9
 1573 0b2f C901     		.2byte	0x1c9
 1574 0b31 CC0B0000 		.4byte	0xbcc
 1575 0b35 9805     		.2byte	0x598
 1576 0b37 1D       		.uleb128 0x1d
 1577 0b38 DB0A0000 		.4byte	.LASF187
 1578 0b3c 09       		.byte	0x9
 1579 0b3d CA01     		.2byte	0x1ca
 1580 0b3f DC0B0000 		.4byte	0xbdc
 1581 0b43 A405     		.2byte	0x5a4
 1582 0b45 1D       		.uleb128 0x1d
 1583 0b46 7C000000 		.4byte	.LASF188
 1584 0b4a 09       		.byte	0x9
 1585 0b4b CB01     		.2byte	0x1cb
 1586 0b4d B8000000 		.4byte	0xb8
 1587 0b51 A805     		.2byte	0x5a8
 1588 0b53 1D       		.uleb128 0x1d
 1589 0b54 9F040000 		.4byte	.LASF189
 1590 0b58 09       		.byte	0x9
 1591 0b59 CC01     		.2byte	0x1cc
 1592 0b5b E4000000 		.4byte	0xe4
 1593 0b5f AC05     		.2byte	0x5ac
 1594 0b61 1D       		.uleb128 0x1d
 1595 0b62 03030000 		.4byte	.LASF190
 1596 0b66 09       		.byte	0x9
ARM GAS  /tmp/ccxyKTeE.s 			page 29


 1597 0b67 CD01     		.2byte	0x1cd
 1598 0b69 CA000000 		.4byte	0xca
 1599 0b6d E805     		.2byte	0x5e8
 1600 0b6f 21       		.uleb128 0x21
 1601 0b70 696400   		.ascii	"id\000"
 1602 0b73 09       		.byte	0x9
 1603 0b74 CE01     		.2byte	0x1ce
 1604 0b76 97000000 		.4byte	0x97
 1605 0b7a EC05     		.2byte	0x5ec
 1606 0b7c 1D       		.uleb128 0x1d
 1607 0b7d DF020000 		.4byte	.LASF179
 1608 0b81 09       		.byte	0x9
 1609 0b82 CF01     		.2byte	0x1cf
 1610 0b84 F9000000 		.4byte	0xf9
 1611 0b88 F005     		.2byte	0x5f0
 1612 0b8a 1D       		.uleb128 0x1d
 1613 0b8b 6B020000 		.4byte	.LASF191
 1614 0b8f 09       		.byte	0x9
 1615 0b90 D001     		.2byte	0x1d0
 1616 0b92 F20B0000 		.4byte	0xbf2
 1617 0b96 F405     		.2byte	0x5f4
 1618 0b98 1D       		.uleb128 0x1d
 1619 0b99 DF090000 		.4byte	.LASF192
 1620 0b9d 09       		.byte	0x9
 1621 0b9e D301     		.2byte	0x1d3
 1622 0ba0 5B020000 		.4byte	0x25b
 1623 0ba4 F805     		.2byte	0x5f8
 1624 0ba6 1D       		.uleb128 0x1d
 1625 0ba7 E8090000 		.4byte	.LASF193
 1626 0bab 09       		.byte	0x9
 1627 0bac D401     		.2byte	0x1d4
 1628 0bae 5B020000 		.4byte	0x25b
 1629 0bb2 FC05     		.2byte	0x5fc
 1630 0bb4 00       		.byte	0
 1631 0bb5 09       		.uleb128 0x9
 1632 0bb6 04       		.byte	0x4
 1633 0bb7 C50A0000 		.4byte	0xac5
 1634 0bbb 16       		.uleb128 0x16
 1635 0bbc 6F070000 		.4byte	.LASF194
 1636 0bc0 09       		.byte	0x9
 1637 0bc1 BF01     		.2byte	0x1bf
 1638 0bc3 530A0000 		.4byte	0xa53
 1639 0bc7 05       		.uleb128 0x5
 1640 0bc8 4D080000 		.4byte	0x84d
 1641 0bcc 06       		.uleb128 0x6
 1642 0bcd DC0B0000 		.4byte	0xbdc
 1643 0bd1 DC0B0000 		.4byte	0xbdc
 1644 0bd5 07       		.uleb128 0x7
 1645 0bd6 C3000000 		.4byte	0xc3
 1646 0bda 02       		.byte	0x2
 1647 0bdb 00       		.byte	0
 1648 0bdc 09       		.uleb128 0x9
 1649 0bdd 04       		.byte	0x4
 1650 0bde BB0B0000 		.4byte	0xbbb
 1651 0be2 22       		.uleb128 0x22
 1652 0be3 F20B0000 		.4byte	0xbf2
 1653 0be7 20       		.uleb128 0x20
ARM GAS  /tmp/ccxyKTeE.s 			page 30


 1654 0be8 D40A0000 		.4byte	0xad4
 1655 0bec 20       		.uleb128 0x20
 1656 0bed 97000000 		.4byte	0x97
 1657 0bf1 00       		.byte	0
 1658 0bf2 09       		.uleb128 0x9
 1659 0bf3 04       		.byte	0x4
 1660 0bf4 E20B0000 		.4byte	0xbe2
 1661 0bf8 16       		.uleb128 0x16
 1662 0bf9 09030000 		.4byte	.LASF195
 1663 0bfd 09       		.byte	0x9
 1664 0bfe D701     		.2byte	0x1d7
 1665 0c00 DA0A0000 		.4byte	0xada
 1666 0c04 23       		.uleb128 0x23
 1667 0c05 590A0000 		.4byte	.LASF211
 1668 0c09 01       		.byte	0x1
 1669 0c0a AD       		.byte	0xad
 1670 0c0b A2000000 		.4byte	0xa2
 1671 0c0f 01       		.byte	0x1
 1672 0c10 2B0C0000 		.4byte	0xc2b
 1673 0c14 24       		.uleb128 0x24
 1674 0c15 8B070000 		.4byte	.LASF196
 1675 0c19 01       		.byte	0x1
 1676 0c1a AD       		.byte	0xad
 1677 0c1b 2B0C0000 		.4byte	0xc2b
 1678 0c1f 25       		.uleb128 0x25
 1679 0c20 69647800 		.ascii	"idx\000"
 1680 0c24 01       		.byte	0x1
 1681 0c25 AF       		.byte	0xaf
 1682 0c26 97000000 		.4byte	0x97
 1683 0c2a 00       		.byte	0
 1684 0c2b 09       		.uleb128 0x9
 1685 0c2c 04       		.byte	0x4
 1686 0c2d F80B0000 		.4byte	0xbf8
 1687 0c31 26       		.uleb128 0x26
 1688 0c32 65060000 		.4byte	.LASF201
 1689 0c36 01       		.byte	0x1
 1690 0c37 5D       		.byte	0x5d
 1691 0c38 E9070000 		.4byte	0x7e9
 1692 0c3c 00000000 		.4byte	.LFB133
 1693 0c40 20000000 		.4byte	.LFE133-.LFB133
 1694 0c44 01       		.uleb128 0x1
 1695 0c45 9C       		.byte	0x9c
 1696 0c46 D70C0000 		.4byte	0xcd7
 1697 0c4a 27       		.uleb128 0x27
 1698 0c4b 8B070000 		.4byte	.LASF196
 1699 0c4f 01       		.byte	0x1
 1700 0c50 5D       		.byte	0x5d
 1701 0c51 2B0C0000 		.4byte	0xc2b
 1702 0c55 00000000 		.4byte	.LLST0
 1703 0c59 27       		.uleb128 0x27
 1704 0c5a 1C0A0000 		.4byte	.LASF197
 1705 0c5e 01       		.byte	0x1
 1706 0c5f 5E       		.byte	0x5e
 1707 0c60 97000000 		.4byte	0x97
 1708 0c64 21000000 		.4byte	.LLST1
 1709 0c68 27       		.uleb128 0x27
 1710 0c69 6F030000 		.4byte	.LASF198
ARM GAS  /tmp/ccxyKTeE.s 			page 31


 1711 0c6d 01       		.byte	0x1
 1712 0c6e 5F       		.byte	0x5f
 1713 0c6f 97000000 		.4byte	0x97
 1714 0c73 42000000 		.4byte	.LLST2
 1715 0c77 27       		.uleb128 0x27
 1716 0c78 82030000 		.4byte	.LASF199
 1717 0c7c 01       		.byte	0x1
 1718 0c7d 60       		.byte	0x60
 1719 0c7e 97000000 		.4byte	0x97
 1720 0c82 63000000 		.4byte	.LLST3
 1721 0c86 28       		.uleb128 0x28
 1722 0c87 1F0B0000 		.4byte	.LASF166
 1723 0c8b 01       		.byte	0x1
 1724 0c8c 61       		.byte	0x61
 1725 0c8d 97000000 		.4byte	0x97
 1726 0c91 02       		.uleb128 0x2
 1727 0c92 91       		.byte	0x91
 1728 0c93 00       		.sleb128 0
 1729 0c94 28       		.uleb128 0x28
 1730 0c95 3E0A0000 		.4byte	.LASF200
 1731 0c99 01       		.byte	0x1
 1732 0c9a 62       		.byte	0x62
 1733 0c9b 97000000 		.4byte	0x97
 1734 0c9f 02       		.uleb128 0x2
 1735 0ca0 91       		.byte	0x91
 1736 0ca1 04       		.sleb128 4
 1737 0ca2 29       		.uleb128 0x29
 1738 0ca3 6D707300 		.ascii	"mps\000"
 1739 0ca7 01       		.byte	0x1
 1740 0ca8 63       		.byte	0x63
 1741 0ca9 A2000000 		.4byte	0xa2
 1742 0cad 02       		.uleb128 0x2
 1743 0cae 91       		.byte	0x91
 1744 0caf 08       		.sleb128 8
 1745 0cb0 2A       		.uleb128 0x2a
 1746 0cb1 1A000000 		.4byte	.LVL1
 1747 0cb5 D10D0000 		.4byte	0xdd1
 1748 0cb9 2B       		.uleb128 0x2b
 1749 0cba 01       		.uleb128 0x1
 1750 0cbb 50       		.byte	0x50
 1751 0cbc 03       		.uleb128 0x3
 1752 0cbd F3       		.byte	0xf3
 1753 0cbe 01       		.uleb128 0x1
 1754 0cbf 50       		.byte	0x50
 1755 0cc0 2B       		.uleb128 0x2b
 1756 0cc1 02       		.uleb128 0x2
 1757 0cc2 7D       		.byte	0x7d
 1758 0cc3 08       		.sleb128 8
 1759 0cc4 02       		.uleb128 0x2
 1760 0cc5 74       		.byte	0x74
 1761 0cc6 00       		.sleb128 0
 1762 0cc7 2B       		.uleb128 0x2b
 1763 0cc8 02       		.uleb128 0x2
 1764 0cc9 7D       		.byte	0x7d
 1765 0cca 04       		.sleb128 4
 1766 0ccb 02       		.uleb128 0x2
 1767 0ccc 75       		.byte	0x75
ARM GAS  /tmp/ccxyKTeE.s 			page 32


 1768 0ccd 00       		.sleb128 0
 1769 0cce 2B       		.uleb128 0x2b
 1770 0ccf 02       		.uleb128 0x2
 1771 0cd0 7D       		.byte	0x7d
 1772 0cd1 00       		.sleb128 0
 1773 0cd2 02       		.uleb128 0x2
 1774 0cd3 76       		.byte	0x76
 1775 0cd4 00       		.sleb128 0
 1776 0cd5 00       		.byte	0
 1777 0cd6 00       		.byte	0
 1778 0cd7 26       		.uleb128 0x26
 1779 0cd8 E6030000 		.4byte	.LASF202
 1780 0cdc 01       		.byte	0x1
 1781 0cdd 79       		.byte	0x79
 1782 0cde E9070000 		.4byte	0x7e9
 1783 0ce2 20000000 		.4byte	.LFB134
 1784 0ce6 0A000000 		.4byte	.LFE134-.LFB134
 1785 0cea 01       		.uleb128 0x1
 1786 0ceb 9C       		.byte	0x9c
 1787 0cec 200D0000 		.4byte	0xd20
 1788 0cf0 27       		.uleb128 0x27
 1789 0cf1 8B070000 		.4byte	.LASF196
 1790 0cf5 01       		.byte	0x1
 1791 0cf6 79       		.byte	0x79
 1792 0cf7 2B0C0000 		.4byte	0xc2b
 1793 0cfb 84000000 		.4byte	.LLST4
 1794 0cff 27       		.uleb128 0x27
 1795 0d00 1C0A0000 		.4byte	.LASF197
 1796 0d04 01       		.byte	0x1
 1797 0d05 7A       		.byte	0x7a
 1798 0d06 97000000 		.4byte	0x97
 1799 0d0a A5000000 		.4byte	.LLST5
 1800 0d0e 2A       		.uleb128 0x2a
 1801 0d0f 26000000 		.4byte	.LVL3
 1802 0d13 040E0000 		.4byte	0xe04
 1803 0d17 2B       		.uleb128 0x2b
 1804 0d18 01       		.uleb128 0x1
 1805 0d19 50       		.byte	0x50
 1806 0d1a 03       		.uleb128 0x3
 1807 0d1b F3       		.byte	0xf3
 1808 0d1c 01       		.uleb128 0x1
 1809 0d1d 50       		.byte	0x50
 1810 0d1e 00       		.byte	0
 1811 0d1f 00       		.byte	0
 1812 0d20 26       		.uleb128 0x26
 1813 0d21 16020000 		.4byte	.LASF203
 1814 0d25 01       		.byte	0x1
 1815 0d26 8A       		.byte	0x8a
 1816 0d27 97000000 		.4byte	0x97
 1817 0d2b 30000000 		.4byte	.LFB135
 1818 0d2f 30000000 		.4byte	.LFE135-.LFB135
 1819 0d33 01       		.uleb128 0x1
 1820 0d34 9C       		.byte	0x9c
 1821 0d35 8F0D0000 		.4byte	0xd8f
 1822 0d39 27       		.uleb128 0x27
 1823 0d3a 8B070000 		.4byte	.LASF196
 1824 0d3e 01       		.byte	0x1
ARM GAS  /tmp/ccxyKTeE.s 			page 33


 1825 0d3f 8A       		.byte	0x8a
 1826 0d40 2B0C0000 		.4byte	0xc2b
 1827 0d44 C6000000 		.4byte	.LLST6
 1828 0d48 27       		.uleb128 0x27
 1829 0d49 EF090000 		.4byte	.LASF204
 1830 0d4d 01       		.byte	0x1
 1831 0d4e 8A       		.byte	0x8a
 1832 0d4f 97000000 		.4byte	0x97
 1833 0d53 00010000 		.4byte	.LLST7
 1834 0d57 2C       		.uleb128 0x2c
 1835 0d58 A2090000 		.4byte	.LASF205
 1836 0d5c 01       		.byte	0x1
 1837 0d5d 8C       		.byte	0x8c
 1838 0d5e A2000000 		.4byte	0xa2
 1839 0d62 2D       		.uleb128 0x2d
 1840 0d63 040C0000 		.4byte	0xc04
 1841 0d67 38000000 		.4byte	.LBB4
 1842 0d6b 12000000 		.4byte	.LBE4-.LBB4
 1843 0d6f 01       		.byte	0x1
 1844 0d70 8E       		.byte	0x8e
 1845 0d71 2E       		.uleb128 0x2e
 1846 0d72 140C0000 		.4byte	0xc14
 1847 0d76 C6000000 		.4byte	.LLST6
 1848 0d7a 2F       		.uleb128 0x2f
 1849 0d7b 38000000 		.4byte	.LBB5
 1850 0d7f 12000000 		.4byte	.LBE5-.LBB5
 1851 0d83 30       		.uleb128 0x30
 1852 0d84 1F0C0000 		.4byte	0xc1f
 1853 0d88 21010000 		.4byte	.LLST9
 1854 0d8c 00       		.byte	0
 1855 0d8d 00       		.byte	0
 1856 0d8e 00       		.byte	0
 1857 0d8f 26       		.uleb128 0x26
 1858 0d90 FF030000 		.4byte	.LASF206
 1859 0d94 01       		.byte	0x1
 1860 0d95 9E       		.byte	0x9e
 1861 0d96 E9070000 		.4byte	0x7e9
 1862 0d9a 60000000 		.4byte	.LFB136
 1863 0d9e 18000000 		.4byte	.LFE136-.LFB136
 1864 0da2 01       		.uleb128 0x1
 1865 0da3 9C       		.byte	0x9c
 1866 0da4 C50D0000 		.4byte	0xdc5
 1867 0da8 27       		.uleb128 0x27
 1868 0da9 8B070000 		.4byte	.LASF196
 1869 0dad 01       		.byte	0x1
 1870 0dae 9E       		.byte	0x9e
 1871 0daf 2B0C0000 		.4byte	0xc2b
 1872 0db3 63010000 		.4byte	.LLST10
 1873 0db7 29       		.uleb128 0x29
 1874 0db8 69647800 		.ascii	"idx\000"
 1875 0dbc 01       		.byte	0x1
 1876 0dbd 9E       		.byte	0x9e
 1877 0dbe 97000000 		.4byte	0x97
 1878 0dc2 01       		.uleb128 0x1
 1879 0dc3 51       		.byte	0x51
 1880 0dc4 00       		.byte	0
 1881 0dc5 31       		.uleb128 0x31
ARM GAS  /tmp/ccxyKTeE.s 			page 34


 1882 0dc6 21010000 		.4byte	.LASF212
 1883 0dca 0A       		.byte	0xa
 1884 0dcb DF07     		.2byte	0x7df
 1885 0dcd F4000000 		.4byte	0xf4
 1886 0dd1 32       		.uleb128 0x32
 1887 0dd2 D5050000 		.4byte	.LASF213
 1888 0dd6 0B       		.byte	0xb
 1889 0dd7 83       		.byte	0x83
 1890 0dd8 E9070000 		.4byte	0x7e9
 1891 0ddc 040E0000 		.4byte	0xe04
 1892 0de0 20       		.uleb128 0x20
 1893 0de1 2B0C0000 		.4byte	0xc2b
 1894 0de5 20       		.uleb128 0x20
 1895 0de6 97000000 		.4byte	0x97
 1896 0dea 20       		.uleb128 0x20
 1897 0deb 97000000 		.4byte	0x97
 1898 0def 20       		.uleb128 0x20
 1899 0df0 97000000 		.4byte	0x97
 1900 0df4 20       		.uleb128 0x20
 1901 0df5 97000000 		.4byte	0x97
 1902 0df9 20       		.uleb128 0x20
 1903 0dfa 97000000 		.4byte	0x97
 1904 0dfe 20       		.uleb128 0x20
 1905 0dff A2000000 		.4byte	0xa2
 1906 0e03 00       		.byte	0
 1907 0e04 33       		.uleb128 0x33
 1908 0e05 A6020000 		.4byte	.LASF214
 1909 0e09 0B       		.byte	0xb
 1910 0e0a 84       		.byte	0x84
 1911 0e0b E9070000 		.4byte	0x7e9
 1912 0e0f 20       		.uleb128 0x20
 1913 0e10 2B0C0000 		.4byte	0xc2b
 1914 0e14 20       		.uleb128 0x20
 1915 0e15 97000000 		.4byte	0x97
 1916 0e19 00       		.byte	0
 1917 0e1a 00       		.byte	0
 1918              		.section	.debug_abbrev,"",%progbits
 1919              	.Ldebug_abbrev0:
 1920 0000 01       		.uleb128 0x1
 1921 0001 11       		.uleb128 0x11
 1922 0002 01       		.byte	0x1
 1923 0003 25       		.uleb128 0x25
 1924 0004 0E       		.uleb128 0xe
 1925 0005 13       		.uleb128 0x13
 1926 0006 0B       		.uleb128 0xb
 1927 0007 03       		.uleb128 0x3
 1928 0008 0E       		.uleb128 0xe
 1929 0009 1B       		.uleb128 0x1b
 1930 000a 0E       		.uleb128 0xe
 1931 000b 11       		.uleb128 0x11
 1932 000c 01       		.uleb128 0x1
 1933 000d 12       		.uleb128 0x12
 1934 000e 06       		.uleb128 0x6
 1935 000f 10       		.uleb128 0x10
 1936 0010 17       		.uleb128 0x17
 1937 0011 00       		.byte	0
 1938 0012 00       		.byte	0
ARM GAS  /tmp/ccxyKTeE.s 			page 35


 1939 0013 02       		.uleb128 0x2
 1940 0014 24       		.uleb128 0x24
 1941 0015 00       		.byte	0
 1942 0016 0B       		.uleb128 0xb
 1943 0017 0B       		.uleb128 0xb
 1944 0018 3E       		.uleb128 0x3e
 1945 0019 0B       		.uleb128 0xb
 1946 001a 03       		.uleb128 0x3
 1947 001b 0E       		.uleb128 0xe
 1948 001c 00       		.byte	0
 1949 001d 00       		.byte	0
 1950 001e 03       		.uleb128 0x3
 1951 001f 16       		.uleb128 0x16
 1952 0020 00       		.byte	0
 1953 0021 03       		.uleb128 0x3
 1954 0022 0E       		.uleb128 0xe
 1955 0023 3A       		.uleb128 0x3a
 1956 0024 0B       		.uleb128 0xb
 1957 0025 3B       		.uleb128 0x3b
 1958 0026 0B       		.uleb128 0xb
 1959 0027 49       		.uleb128 0x49
 1960 0028 13       		.uleb128 0x13
 1961 0029 00       		.byte	0
 1962 002a 00       		.byte	0
 1963 002b 04       		.uleb128 0x4
 1964 002c 24       		.uleb128 0x24
 1965 002d 00       		.byte	0
 1966 002e 0B       		.uleb128 0xb
 1967 002f 0B       		.uleb128 0xb
 1968 0030 3E       		.uleb128 0x3e
 1969 0031 0B       		.uleb128 0xb
 1970 0032 03       		.uleb128 0x3
 1971 0033 08       		.uleb128 0x8
 1972 0034 00       		.byte	0
 1973 0035 00       		.byte	0
 1974 0036 05       		.uleb128 0x5
 1975 0037 35       		.uleb128 0x35
 1976 0038 00       		.byte	0
 1977 0039 49       		.uleb128 0x49
 1978 003a 13       		.uleb128 0x13
 1979 003b 00       		.byte	0
 1980 003c 00       		.byte	0
 1981 003d 06       		.uleb128 0x6
 1982 003e 01       		.uleb128 0x1
 1983 003f 01       		.byte	0x1
 1984 0040 49       		.uleb128 0x49
 1985 0041 13       		.uleb128 0x13
 1986 0042 01       		.uleb128 0x1
 1987 0043 13       		.uleb128 0x13
 1988 0044 00       		.byte	0
 1989 0045 00       		.byte	0
 1990 0046 07       		.uleb128 0x7
 1991 0047 21       		.uleb128 0x21
 1992 0048 00       		.byte	0
 1993 0049 49       		.uleb128 0x49
 1994 004a 13       		.uleb128 0x13
 1995 004b 2F       		.uleb128 0x2f
ARM GAS  /tmp/ccxyKTeE.s 			page 36


 1996 004c 0B       		.uleb128 0xb
 1997 004d 00       		.byte	0
 1998 004e 00       		.byte	0
 1999 004f 08       		.uleb128 0x8
 2000 0050 0F       		.uleb128 0xf
 2001 0051 00       		.byte	0
 2002 0052 0B       		.uleb128 0xb
 2003 0053 0B       		.uleb128 0xb
 2004 0054 00       		.byte	0
 2005 0055 00       		.byte	0
 2006 0056 09       		.uleb128 0x9
 2007 0057 0F       		.uleb128 0xf
 2008 0058 00       		.byte	0
 2009 0059 0B       		.uleb128 0xb
 2010 005a 0B       		.uleb128 0xb
 2011 005b 49       		.uleb128 0x49
 2012 005c 13       		.uleb128 0x13
 2013 005d 00       		.byte	0
 2014 005e 00       		.byte	0
 2015 005f 0A       		.uleb128 0xa
 2016 0060 26       		.uleb128 0x26
 2017 0061 00       		.byte	0
 2018 0062 49       		.uleb128 0x49
 2019 0063 13       		.uleb128 0x13
 2020 0064 00       		.byte	0
 2021 0065 00       		.byte	0
 2022 0066 0B       		.uleb128 0xb
 2023 0067 13       		.uleb128 0x13
 2024 0068 01       		.byte	0x1
 2025 0069 03       		.uleb128 0x3
 2026 006a 0E       		.uleb128 0xe
 2027 006b 0B       		.uleb128 0xb
 2028 006c 0B       		.uleb128 0xb
 2029 006d 3A       		.uleb128 0x3a
 2030 006e 0B       		.uleb128 0xb
 2031 006f 3B       		.uleb128 0x3b
 2032 0070 0B       		.uleb128 0xb
 2033 0071 01       		.uleb128 0x1
 2034 0072 13       		.uleb128 0x13
 2035 0073 00       		.byte	0
 2036 0074 00       		.byte	0
 2037 0075 0C       		.uleb128 0xc
 2038 0076 0D       		.uleb128 0xd
 2039 0077 00       		.byte	0
 2040 0078 03       		.uleb128 0x3
 2041 0079 0E       		.uleb128 0xe
 2042 007a 3A       		.uleb128 0x3a
 2043 007b 0B       		.uleb128 0xb
 2044 007c 3B       		.uleb128 0x3b
 2045 007d 0B       		.uleb128 0xb
 2046 007e 49       		.uleb128 0x49
 2047 007f 13       		.uleb128 0x13
 2048 0080 38       		.uleb128 0x38
 2049 0081 0B       		.uleb128 0xb
 2050 0082 00       		.byte	0
 2051 0083 00       		.byte	0
 2052 0084 0D       		.uleb128 0xd
ARM GAS  /tmp/ccxyKTeE.s 			page 37


 2053 0085 0D       		.uleb128 0xd
 2054 0086 00       		.byte	0
 2055 0087 03       		.uleb128 0x3
 2056 0088 08       		.uleb128 0x8
 2057 0089 3A       		.uleb128 0x3a
 2058 008a 0B       		.uleb128 0xb
 2059 008b 3B       		.uleb128 0x3b
 2060 008c 0B       		.uleb128 0xb
 2061 008d 49       		.uleb128 0x49
 2062 008e 13       		.uleb128 0x13
 2063 008f 38       		.uleb128 0x38
 2064 0090 0B       		.uleb128 0xb
 2065 0091 00       		.byte	0
 2066 0092 00       		.byte	0
 2067 0093 0E       		.uleb128 0xe
 2068 0094 13       		.uleb128 0x13
 2069 0095 01       		.byte	0x1
 2070 0096 0B       		.uleb128 0xb
 2071 0097 0B       		.uleb128 0xb
 2072 0098 3A       		.uleb128 0x3a
 2073 0099 0B       		.uleb128 0xb
 2074 009a 3B       		.uleb128 0x3b
 2075 009b 0B       		.uleb128 0xb
 2076 009c 01       		.uleb128 0x1
 2077 009d 13       		.uleb128 0x13
 2078 009e 00       		.byte	0
 2079 009f 00       		.byte	0
 2080 00a0 0F       		.uleb128 0xf
 2081 00a1 13       		.uleb128 0x13
 2082 00a2 01       		.byte	0x1
 2083 00a3 03       		.uleb128 0x3
 2084 00a4 0E       		.uleb128 0xe
 2085 00a5 0B       		.uleb128 0xb
 2086 00a6 0B       		.uleb128 0xb
 2087 00a7 3A       		.uleb128 0x3a
 2088 00a8 0B       		.uleb128 0xb
 2089 00a9 3B       		.uleb128 0x3b
 2090 00aa 05       		.uleb128 0x5
 2091 00ab 01       		.uleb128 0x1
 2092 00ac 13       		.uleb128 0x13
 2093 00ad 00       		.byte	0
 2094 00ae 00       		.byte	0
 2095 00af 10       		.uleb128 0x10
 2096 00b0 0D       		.uleb128 0xd
 2097 00b1 00       		.byte	0
 2098 00b2 03       		.uleb128 0x3
 2099 00b3 08       		.uleb128 0x8
 2100 00b4 3A       		.uleb128 0x3a
 2101 00b5 0B       		.uleb128 0xb
 2102 00b6 3B       		.uleb128 0x3b
 2103 00b7 05       		.uleb128 0x5
 2104 00b8 49       		.uleb128 0x49
 2105 00b9 13       		.uleb128 0x13
 2106 00ba 38       		.uleb128 0x38
 2107 00bb 0B       		.uleb128 0xb
 2108 00bc 00       		.byte	0
 2109 00bd 00       		.byte	0
ARM GAS  /tmp/ccxyKTeE.s 			page 38


 2110 00be 11       		.uleb128 0x11
 2111 00bf 17       		.uleb128 0x17
 2112 00c0 01       		.byte	0x1
 2113 00c1 0B       		.uleb128 0xb
 2114 00c2 0B       		.uleb128 0xb
 2115 00c3 3A       		.uleb128 0x3a
 2116 00c4 0B       		.uleb128 0xb
 2117 00c5 3B       		.uleb128 0x3b
 2118 00c6 0B       		.uleb128 0xb
 2119 00c7 01       		.uleb128 0x1
 2120 00c8 13       		.uleb128 0x13
 2121 00c9 00       		.byte	0
 2122 00ca 00       		.byte	0
 2123 00cb 12       		.uleb128 0x12
 2124 00cc 0D       		.uleb128 0xd
 2125 00cd 00       		.byte	0
 2126 00ce 03       		.uleb128 0x3
 2127 00cf 0E       		.uleb128 0xe
 2128 00d0 3A       		.uleb128 0x3a
 2129 00d1 0B       		.uleb128 0xb
 2130 00d2 3B       		.uleb128 0x3b
 2131 00d3 0B       		.uleb128 0xb
 2132 00d4 49       		.uleb128 0x49
 2133 00d5 13       		.uleb128 0x13
 2134 00d6 00       		.byte	0
 2135 00d7 00       		.byte	0
 2136 00d8 13       		.uleb128 0x13
 2137 00d9 13       		.uleb128 0x13
 2138 00da 01       		.byte	0x1
 2139 00db 03       		.uleb128 0x3
 2140 00dc 08       		.uleb128 0x8
 2141 00dd 0B       		.uleb128 0xb
 2142 00de 0B       		.uleb128 0xb
 2143 00df 3A       		.uleb128 0x3a
 2144 00e0 0B       		.uleb128 0xb
 2145 00e1 3B       		.uleb128 0x3b
 2146 00e2 0B       		.uleb128 0xb
 2147 00e3 01       		.uleb128 0x1
 2148 00e4 13       		.uleb128 0x13
 2149 00e5 00       		.byte	0
 2150 00e6 00       		.byte	0
 2151 00e7 14       		.uleb128 0x14
 2152 00e8 0D       		.uleb128 0xd
 2153 00e9 00       		.byte	0
 2154 00ea 03       		.uleb128 0x3
 2155 00eb 08       		.uleb128 0x8
 2156 00ec 3A       		.uleb128 0x3a
 2157 00ed 0B       		.uleb128 0xb
 2158 00ee 3B       		.uleb128 0x3b
 2159 00ef 0B       		.uleb128 0xb
 2160 00f0 49       		.uleb128 0x49
 2161 00f1 13       		.uleb128 0x13
 2162 00f2 00       		.byte	0
 2163 00f3 00       		.byte	0
 2164 00f4 15       		.uleb128 0x15
 2165 00f5 17       		.uleb128 0x17
 2166 00f6 01       		.byte	0x1
ARM GAS  /tmp/ccxyKTeE.s 			page 39


 2167 00f7 03       		.uleb128 0x3
 2168 00f8 0E       		.uleb128 0xe
 2169 00f9 0B       		.uleb128 0xb
 2170 00fa 0B       		.uleb128 0xb
 2171 00fb 3A       		.uleb128 0x3a
 2172 00fc 0B       		.uleb128 0xb
 2173 00fd 3B       		.uleb128 0x3b
 2174 00fe 0B       		.uleb128 0xb
 2175 00ff 01       		.uleb128 0x1
 2176 0100 13       		.uleb128 0x13
 2177 0101 00       		.byte	0
 2178 0102 00       		.byte	0
 2179 0103 16       		.uleb128 0x16
 2180 0104 16       		.uleb128 0x16
 2181 0105 00       		.byte	0
 2182 0106 03       		.uleb128 0x3
 2183 0107 0E       		.uleb128 0xe
 2184 0108 3A       		.uleb128 0x3a
 2185 0109 0B       		.uleb128 0xb
 2186 010a 3B       		.uleb128 0x3b
 2187 010b 05       		.uleb128 0x5
 2188 010c 49       		.uleb128 0x49
 2189 010d 13       		.uleb128 0x13
 2190 010e 00       		.byte	0
 2191 010f 00       		.byte	0
 2192 0110 17       		.uleb128 0x17
 2193 0111 0D       		.uleb128 0xd
 2194 0112 00       		.byte	0
 2195 0113 03       		.uleb128 0x3
 2196 0114 0E       		.uleb128 0xe
 2197 0115 3A       		.uleb128 0x3a
 2198 0116 0B       		.uleb128 0xb
 2199 0117 3B       		.uleb128 0x3b
 2200 0118 05       		.uleb128 0x5
 2201 0119 49       		.uleb128 0x49
 2202 011a 13       		.uleb128 0x13
 2203 011b 38       		.uleb128 0x38
 2204 011c 0B       		.uleb128 0xb
 2205 011d 00       		.byte	0
 2206 011e 00       		.byte	0
 2207 011f 18       		.uleb128 0x18
 2208 0120 13       		.uleb128 0x13
 2209 0121 01       		.byte	0x1
 2210 0122 03       		.uleb128 0x3
 2211 0123 0E       		.uleb128 0xe
 2212 0124 0B       		.uleb128 0xb
 2213 0125 05       		.uleb128 0x5
 2214 0126 3A       		.uleb128 0x3a
 2215 0127 0B       		.uleb128 0xb
 2216 0128 3B       		.uleb128 0x3b
 2217 0129 05       		.uleb128 0x5
 2218 012a 01       		.uleb128 0x1
 2219 012b 13       		.uleb128 0x13
 2220 012c 00       		.byte	0
 2221 012d 00       		.byte	0
 2222 012e 19       		.uleb128 0x19
 2223 012f 04       		.uleb128 0x4
ARM GAS  /tmp/ccxyKTeE.s 			page 40


 2224 0130 01       		.byte	0x1
 2225 0131 0B       		.uleb128 0xb
 2226 0132 0B       		.uleb128 0xb
 2227 0133 3A       		.uleb128 0x3a
 2228 0134 0B       		.uleb128 0xb
 2229 0135 3B       		.uleb128 0x3b
 2230 0136 05       		.uleb128 0x5
 2231 0137 01       		.uleb128 0x1
 2232 0138 13       		.uleb128 0x13
 2233 0139 00       		.byte	0
 2234 013a 00       		.byte	0
 2235 013b 1A       		.uleb128 0x1a
 2236 013c 28       		.uleb128 0x28
 2237 013d 00       		.byte	0
 2238 013e 03       		.uleb128 0x3
 2239 013f 0E       		.uleb128 0xe
 2240 0140 1C       		.uleb128 0x1c
 2241 0141 0D       		.uleb128 0xd
 2242 0142 00       		.byte	0
 2243 0143 00       		.byte	0
 2244 0144 1B       		.uleb128 0x1b
 2245 0145 13       		.uleb128 0x13
 2246 0146 01       		.byte	0x1
 2247 0147 0B       		.uleb128 0xb
 2248 0148 0B       		.uleb128 0xb
 2249 0149 3A       		.uleb128 0x3a
 2250 014a 0B       		.uleb128 0xb
 2251 014b 3B       		.uleb128 0x3b
 2252 014c 05       		.uleb128 0x5
 2253 014d 01       		.uleb128 0x1
 2254 014e 13       		.uleb128 0x13
 2255 014f 00       		.byte	0
 2256 0150 00       		.byte	0
 2257 0151 1C       		.uleb128 0x1c
 2258 0152 13       		.uleb128 0x13
 2259 0153 01       		.byte	0x1
 2260 0154 0B       		.uleb128 0xb
 2261 0155 05       		.uleb128 0x5
 2262 0156 3A       		.uleb128 0x3a
 2263 0157 0B       		.uleb128 0xb
 2264 0158 3B       		.uleb128 0x3b
 2265 0159 05       		.uleb128 0x5
 2266 015a 01       		.uleb128 0x1
 2267 015b 13       		.uleb128 0x13
 2268 015c 00       		.byte	0
 2269 015d 00       		.byte	0
 2270 015e 1D       		.uleb128 0x1d
 2271 015f 0D       		.uleb128 0xd
 2272 0160 00       		.byte	0
 2273 0161 03       		.uleb128 0x3
 2274 0162 0E       		.uleb128 0xe
 2275 0163 3A       		.uleb128 0x3a
 2276 0164 0B       		.uleb128 0xb
 2277 0165 3B       		.uleb128 0x3b
 2278 0166 05       		.uleb128 0x5
 2279 0167 49       		.uleb128 0x49
 2280 0168 13       		.uleb128 0x13
ARM GAS  /tmp/ccxyKTeE.s 			page 41


 2281 0169 38       		.uleb128 0x38
 2282 016a 05       		.uleb128 0x5
 2283 016b 00       		.byte	0
 2284 016c 00       		.byte	0
 2285 016d 1E       		.uleb128 0x1e
 2286 016e 21       		.uleb128 0x21
 2287 016f 00       		.byte	0
 2288 0170 49       		.uleb128 0x49
 2289 0171 13       		.uleb128 0x13
 2290 0172 2F       		.uleb128 0x2f
 2291 0173 05       		.uleb128 0x5
 2292 0174 00       		.byte	0
 2293 0175 00       		.byte	0
 2294 0176 1F       		.uleb128 0x1f
 2295 0177 15       		.uleb128 0x15
 2296 0178 01       		.byte	0x1
 2297 0179 27       		.uleb128 0x27
 2298 017a 19       		.uleb128 0x19
 2299 017b 49       		.uleb128 0x49
 2300 017c 13       		.uleb128 0x13
 2301 017d 01       		.uleb128 0x1
 2302 017e 13       		.uleb128 0x13
 2303 017f 00       		.byte	0
 2304 0180 00       		.byte	0
 2305 0181 20       		.uleb128 0x20
 2306 0182 05       		.uleb128 0x5
 2307 0183 00       		.byte	0
 2308 0184 49       		.uleb128 0x49
 2309 0185 13       		.uleb128 0x13
 2310 0186 00       		.byte	0
 2311 0187 00       		.byte	0
 2312 0188 21       		.uleb128 0x21
 2313 0189 0D       		.uleb128 0xd
 2314 018a 00       		.byte	0
 2315 018b 03       		.uleb128 0x3
 2316 018c 08       		.uleb128 0x8
 2317 018d 3A       		.uleb128 0x3a
 2318 018e 0B       		.uleb128 0xb
 2319 018f 3B       		.uleb128 0x3b
 2320 0190 05       		.uleb128 0x5
 2321 0191 49       		.uleb128 0x49
 2322 0192 13       		.uleb128 0x13
 2323 0193 38       		.uleb128 0x38
 2324 0194 05       		.uleb128 0x5
 2325 0195 00       		.byte	0
 2326 0196 00       		.byte	0
 2327 0197 22       		.uleb128 0x22
 2328 0198 15       		.uleb128 0x15
 2329 0199 01       		.byte	0x1
 2330 019a 27       		.uleb128 0x27
 2331 019b 19       		.uleb128 0x19
 2332 019c 01       		.uleb128 0x1
 2333 019d 13       		.uleb128 0x13
 2334 019e 00       		.byte	0
 2335 019f 00       		.byte	0
 2336 01a0 23       		.uleb128 0x23
 2337 01a1 2E       		.uleb128 0x2e
ARM GAS  /tmp/ccxyKTeE.s 			page 42


 2338 01a2 01       		.byte	0x1
 2339 01a3 03       		.uleb128 0x3
 2340 01a4 0E       		.uleb128 0xe
 2341 01a5 3A       		.uleb128 0x3a
 2342 01a6 0B       		.uleb128 0xb
 2343 01a7 3B       		.uleb128 0x3b
 2344 01a8 0B       		.uleb128 0xb
 2345 01a9 27       		.uleb128 0x27
 2346 01aa 19       		.uleb128 0x19
 2347 01ab 49       		.uleb128 0x49
 2348 01ac 13       		.uleb128 0x13
 2349 01ad 20       		.uleb128 0x20
 2350 01ae 0B       		.uleb128 0xb
 2351 01af 01       		.uleb128 0x1
 2352 01b0 13       		.uleb128 0x13
 2353 01b1 00       		.byte	0
 2354 01b2 00       		.byte	0
 2355 01b3 24       		.uleb128 0x24
 2356 01b4 05       		.uleb128 0x5
 2357 01b5 00       		.byte	0
 2358 01b6 03       		.uleb128 0x3
 2359 01b7 0E       		.uleb128 0xe
 2360 01b8 3A       		.uleb128 0x3a
 2361 01b9 0B       		.uleb128 0xb
 2362 01ba 3B       		.uleb128 0x3b
 2363 01bb 0B       		.uleb128 0xb
 2364 01bc 49       		.uleb128 0x49
 2365 01bd 13       		.uleb128 0x13
 2366 01be 00       		.byte	0
 2367 01bf 00       		.byte	0
 2368 01c0 25       		.uleb128 0x25
 2369 01c1 34       		.uleb128 0x34
 2370 01c2 00       		.byte	0
 2371 01c3 03       		.uleb128 0x3
 2372 01c4 08       		.uleb128 0x8
 2373 01c5 3A       		.uleb128 0x3a
 2374 01c6 0B       		.uleb128 0xb
 2375 01c7 3B       		.uleb128 0x3b
 2376 01c8 0B       		.uleb128 0xb
 2377 01c9 49       		.uleb128 0x49
 2378 01ca 13       		.uleb128 0x13
 2379 01cb 00       		.byte	0
 2380 01cc 00       		.byte	0
 2381 01cd 26       		.uleb128 0x26
 2382 01ce 2E       		.uleb128 0x2e
 2383 01cf 01       		.byte	0x1
 2384 01d0 3F       		.uleb128 0x3f
 2385 01d1 19       		.uleb128 0x19
 2386 01d2 03       		.uleb128 0x3
 2387 01d3 0E       		.uleb128 0xe
 2388 01d4 3A       		.uleb128 0x3a
 2389 01d5 0B       		.uleb128 0xb
 2390 01d6 3B       		.uleb128 0x3b
 2391 01d7 0B       		.uleb128 0xb
 2392 01d8 27       		.uleb128 0x27
 2393 01d9 19       		.uleb128 0x19
 2394 01da 49       		.uleb128 0x49
ARM GAS  /tmp/ccxyKTeE.s 			page 43


 2395 01db 13       		.uleb128 0x13
 2396 01dc 11       		.uleb128 0x11
 2397 01dd 01       		.uleb128 0x1
 2398 01de 12       		.uleb128 0x12
 2399 01df 06       		.uleb128 0x6
 2400 01e0 40       		.uleb128 0x40
 2401 01e1 18       		.uleb128 0x18
 2402 01e2 9742     		.uleb128 0x2117
 2403 01e4 19       		.uleb128 0x19
 2404 01e5 01       		.uleb128 0x1
 2405 01e6 13       		.uleb128 0x13
 2406 01e7 00       		.byte	0
 2407 01e8 00       		.byte	0
 2408 01e9 27       		.uleb128 0x27
 2409 01ea 05       		.uleb128 0x5
 2410 01eb 00       		.byte	0
 2411 01ec 03       		.uleb128 0x3
 2412 01ed 0E       		.uleb128 0xe
 2413 01ee 3A       		.uleb128 0x3a
 2414 01ef 0B       		.uleb128 0xb
 2415 01f0 3B       		.uleb128 0x3b
 2416 01f1 0B       		.uleb128 0xb
 2417 01f2 49       		.uleb128 0x49
 2418 01f3 13       		.uleb128 0x13
 2419 01f4 02       		.uleb128 0x2
 2420 01f5 17       		.uleb128 0x17
 2421 01f6 00       		.byte	0
 2422 01f7 00       		.byte	0
 2423 01f8 28       		.uleb128 0x28
 2424 01f9 05       		.uleb128 0x5
 2425 01fa 00       		.byte	0
 2426 01fb 03       		.uleb128 0x3
 2427 01fc 0E       		.uleb128 0xe
 2428 01fd 3A       		.uleb128 0x3a
 2429 01fe 0B       		.uleb128 0xb
 2430 01ff 3B       		.uleb128 0x3b
 2431 0200 0B       		.uleb128 0xb
 2432 0201 49       		.uleb128 0x49
 2433 0202 13       		.uleb128 0x13
 2434 0203 02       		.uleb128 0x2
 2435 0204 18       		.uleb128 0x18
 2436 0205 00       		.byte	0
 2437 0206 00       		.byte	0
 2438 0207 29       		.uleb128 0x29
 2439 0208 05       		.uleb128 0x5
 2440 0209 00       		.byte	0
 2441 020a 03       		.uleb128 0x3
 2442 020b 08       		.uleb128 0x8
 2443 020c 3A       		.uleb128 0x3a
 2444 020d 0B       		.uleb128 0xb
 2445 020e 3B       		.uleb128 0x3b
 2446 020f 0B       		.uleb128 0xb
 2447 0210 49       		.uleb128 0x49
 2448 0211 13       		.uleb128 0x13
 2449 0212 02       		.uleb128 0x2
 2450 0213 18       		.uleb128 0x18
 2451 0214 00       		.byte	0
ARM GAS  /tmp/ccxyKTeE.s 			page 44


 2452 0215 00       		.byte	0
 2453 0216 2A       		.uleb128 0x2a
 2454 0217 898201   		.uleb128 0x4109
 2455 021a 01       		.byte	0x1
 2456 021b 11       		.uleb128 0x11
 2457 021c 01       		.uleb128 0x1
 2458 021d 31       		.uleb128 0x31
 2459 021e 13       		.uleb128 0x13
 2460 021f 00       		.byte	0
 2461 0220 00       		.byte	0
 2462 0221 2B       		.uleb128 0x2b
 2463 0222 8A8201   		.uleb128 0x410a
 2464 0225 00       		.byte	0
 2465 0226 02       		.uleb128 0x2
 2466 0227 18       		.uleb128 0x18
 2467 0228 9142     		.uleb128 0x2111
 2468 022a 18       		.uleb128 0x18
 2469 022b 00       		.byte	0
 2470 022c 00       		.byte	0
 2471 022d 2C       		.uleb128 0x2c
 2472 022e 34       		.uleb128 0x34
 2473 022f 00       		.byte	0
 2474 0230 03       		.uleb128 0x3
 2475 0231 0E       		.uleb128 0xe
 2476 0232 3A       		.uleb128 0x3a
 2477 0233 0B       		.uleb128 0xb
 2478 0234 3B       		.uleb128 0x3b
 2479 0235 0B       		.uleb128 0xb
 2480 0236 49       		.uleb128 0x49
 2481 0237 13       		.uleb128 0x13
 2482 0238 00       		.byte	0
 2483 0239 00       		.byte	0
 2484 023a 2D       		.uleb128 0x2d
 2485 023b 1D       		.uleb128 0x1d
 2486 023c 01       		.byte	0x1
 2487 023d 31       		.uleb128 0x31
 2488 023e 13       		.uleb128 0x13
 2489 023f 11       		.uleb128 0x11
 2490 0240 01       		.uleb128 0x1
 2491 0241 12       		.uleb128 0x12
 2492 0242 06       		.uleb128 0x6
 2493 0243 58       		.uleb128 0x58
 2494 0244 0B       		.uleb128 0xb
 2495 0245 59       		.uleb128 0x59
 2496 0246 0B       		.uleb128 0xb
 2497 0247 00       		.byte	0
 2498 0248 00       		.byte	0
 2499 0249 2E       		.uleb128 0x2e
 2500 024a 05       		.uleb128 0x5
 2501 024b 00       		.byte	0
 2502 024c 31       		.uleb128 0x31
 2503 024d 13       		.uleb128 0x13
 2504 024e 02       		.uleb128 0x2
 2505 024f 17       		.uleb128 0x17
 2506 0250 00       		.byte	0
 2507 0251 00       		.byte	0
 2508 0252 2F       		.uleb128 0x2f
ARM GAS  /tmp/ccxyKTeE.s 			page 45


 2509 0253 0B       		.uleb128 0xb
 2510 0254 01       		.byte	0x1
 2511 0255 11       		.uleb128 0x11
 2512 0256 01       		.uleb128 0x1
 2513 0257 12       		.uleb128 0x12
 2514 0258 06       		.uleb128 0x6
 2515 0259 00       		.byte	0
 2516 025a 00       		.byte	0
 2517 025b 30       		.uleb128 0x30
 2518 025c 34       		.uleb128 0x34
 2519 025d 00       		.byte	0
 2520 025e 31       		.uleb128 0x31
 2521 025f 13       		.uleb128 0x13
 2522 0260 02       		.uleb128 0x2
 2523 0261 17       		.uleb128 0x17
 2524 0262 00       		.byte	0
 2525 0263 00       		.byte	0
 2526 0264 31       		.uleb128 0x31
 2527 0265 34       		.uleb128 0x34
 2528 0266 00       		.byte	0
 2529 0267 03       		.uleb128 0x3
 2530 0268 0E       		.uleb128 0xe
 2531 0269 3A       		.uleb128 0x3a
 2532 026a 0B       		.uleb128 0xb
 2533 026b 3B       		.uleb128 0x3b
 2534 026c 05       		.uleb128 0x5
 2535 026d 49       		.uleb128 0x49
 2536 026e 13       		.uleb128 0x13
 2537 026f 3F       		.uleb128 0x3f
 2538 0270 19       		.uleb128 0x19
 2539 0271 3C       		.uleb128 0x3c
 2540 0272 19       		.uleb128 0x19
 2541 0273 00       		.byte	0
 2542 0274 00       		.byte	0
 2543 0275 32       		.uleb128 0x32
 2544 0276 2E       		.uleb128 0x2e
 2545 0277 01       		.byte	0x1
 2546 0278 3F       		.uleb128 0x3f
 2547 0279 19       		.uleb128 0x19
 2548 027a 03       		.uleb128 0x3
 2549 027b 0E       		.uleb128 0xe
 2550 027c 3A       		.uleb128 0x3a
 2551 027d 0B       		.uleb128 0xb
 2552 027e 3B       		.uleb128 0x3b
 2553 027f 0B       		.uleb128 0xb
 2554 0280 27       		.uleb128 0x27
 2555 0281 19       		.uleb128 0x19
 2556 0282 49       		.uleb128 0x49
 2557 0283 13       		.uleb128 0x13
 2558 0284 3C       		.uleb128 0x3c
 2559 0285 19       		.uleb128 0x19
 2560 0286 01       		.uleb128 0x1
 2561 0287 13       		.uleb128 0x13
 2562 0288 00       		.byte	0
 2563 0289 00       		.byte	0
 2564 028a 33       		.uleb128 0x33
 2565 028b 2E       		.uleb128 0x2e
ARM GAS  /tmp/ccxyKTeE.s 			page 46


 2566 028c 01       		.byte	0x1
 2567 028d 3F       		.uleb128 0x3f
 2568 028e 19       		.uleb128 0x19
 2569 028f 03       		.uleb128 0x3
 2570 0290 0E       		.uleb128 0xe
 2571 0291 3A       		.uleb128 0x3a
 2572 0292 0B       		.uleb128 0xb
 2573 0293 3B       		.uleb128 0x3b
 2574 0294 0B       		.uleb128 0xb
 2575 0295 27       		.uleb128 0x27
 2576 0296 19       		.uleb128 0x19
 2577 0297 49       		.uleb128 0x49
 2578 0298 13       		.uleb128 0x13
 2579 0299 3C       		.uleb128 0x3c
 2580 029a 19       		.uleb128 0x19
 2581 029b 00       		.byte	0
 2582 029c 00       		.byte	0
 2583 029d 00       		.byte	0
 2584              		.section	.debug_loc,"",%progbits
 2585              	.Ldebug_loc0:
 2586              	.LLST0:
 2587 0000 00000000 		.4byte	.LVL0-.Ltext0
 2588 0004 19000000 		.4byte	.LVL1-1-.Ltext0
 2589 0008 0100     		.2byte	0x1
 2590 000a 50       		.byte	0x50
 2591 000b 19000000 		.4byte	.LVL1-1-.Ltext0
 2592 000f 20000000 		.4byte	.LFE133-.Ltext0
 2593 0013 0400     		.2byte	0x4
 2594 0015 F3       		.byte	0xf3
 2595 0016 01       		.uleb128 0x1
 2596 0017 50       		.byte	0x50
 2597 0018 9F       		.byte	0x9f
 2598 0019 00000000 		.4byte	0
 2599 001d 00000000 		.4byte	0
 2600              	.LLST1:
 2601 0021 00000000 		.4byte	.LVL0-.Ltext0
 2602 0025 19000000 		.4byte	.LVL1-1-.Ltext0
 2603 0029 0100     		.2byte	0x1
 2604 002b 51       		.byte	0x51
 2605 002c 19000000 		.4byte	.LVL1-1-.Ltext0
 2606 0030 20000000 		.4byte	.LFE133-.Ltext0
 2607 0034 0400     		.2byte	0x4
 2608 0036 F3       		.byte	0xf3
 2609 0037 01       		.uleb128 0x1
 2610 0038 51       		.byte	0x51
 2611 0039 9F       		.byte	0x9f
 2612 003a 00000000 		.4byte	0
 2613 003e 00000000 		.4byte	0
 2614              	.LLST2:
 2615 0042 00000000 		.4byte	.LVL0-.Ltext0
 2616 0046 19000000 		.4byte	.LVL1-1-.Ltext0
 2617 004a 0100     		.2byte	0x1
 2618 004c 52       		.byte	0x52
 2619 004d 19000000 		.4byte	.LVL1-1-.Ltext0
 2620 0051 20000000 		.4byte	.LFE133-.Ltext0
 2621 0055 0400     		.2byte	0x4
 2622 0057 F3       		.byte	0xf3
ARM GAS  /tmp/ccxyKTeE.s 			page 47


 2623 0058 01       		.uleb128 0x1
 2624 0059 52       		.byte	0x52
 2625 005a 9F       		.byte	0x9f
 2626 005b 00000000 		.4byte	0
 2627 005f 00000000 		.4byte	0
 2628              	.LLST3:
 2629 0063 00000000 		.4byte	.LVL0-.Ltext0
 2630 0067 19000000 		.4byte	.LVL1-1-.Ltext0
 2631 006b 0100     		.2byte	0x1
 2632 006d 53       		.byte	0x53
 2633 006e 19000000 		.4byte	.LVL1-1-.Ltext0
 2634 0072 20000000 		.4byte	.LFE133-.Ltext0
 2635 0076 0400     		.2byte	0x4
 2636 0078 F3       		.byte	0xf3
 2637 0079 01       		.uleb128 0x1
 2638 007a 53       		.byte	0x53
 2639 007b 9F       		.byte	0x9f
 2640 007c 00000000 		.4byte	0
 2641 0080 00000000 		.4byte	0
 2642              	.LLST4:
 2643 0084 20000000 		.4byte	.LVL2-.Ltext0
 2644 0088 25000000 		.4byte	.LVL3-1-.Ltext0
 2645 008c 0100     		.2byte	0x1
 2646 008e 50       		.byte	0x50
 2647 008f 25000000 		.4byte	.LVL3-1-.Ltext0
 2648 0093 2A000000 		.4byte	.LFE134-.Ltext0
 2649 0097 0400     		.2byte	0x4
 2650 0099 F3       		.byte	0xf3
 2651 009a 01       		.uleb128 0x1
 2652 009b 50       		.byte	0x50
 2653 009c 9F       		.byte	0x9f
 2654 009d 00000000 		.4byte	0
 2655 00a1 00000000 		.4byte	0
 2656              	.LLST5:
 2657 00a5 20000000 		.4byte	.LVL2-.Ltext0
 2658 00a9 25000000 		.4byte	.LVL3-1-.Ltext0
 2659 00ad 0100     		.2byte	0x1
 2660 00af 51       		.byte	0x51
 2661 00b0 25000000 		.4byte	.LVL3-1-.Ltext0
 2662 00b4 2A000000 		.4byte	.LFE134-.Ltext0
 2663 00b8 0400     		.2byte	0x4
 2664 00ba F3       		.byte	0xf3
 2665 00bb 01       		.uleb128 0x1
 2666 00bc 51       		.byte	0x51
 2667 00bd 9F       		.byte	0x9f
 2668 00be 00000000 		.4byte	0
 2669 00c2 00000000 		.4byte	0
 2670              	.LLST6:
 2671 00c6 30000000 		.4byte	.LVL4-.Ltext0
 2672 00ca 4A000000 		.4byte	.LVL7-.Ltext0
 2673 00ce 0100     		.2byte	0x1
 2674 00d0 50       		.byte	0x50
 2675 00d1 4A000000 		.4byte	.LVL7-.Ltext0
 2676 00d5 4E000000 		.4byte	.LVL9-.Ltext0
 2677 00d9 0400     		.2byte	0x4
 2678 00db F3       		.byte	0xf3
 2679 00dc 01       		.uleb128 0x1
ARM GAS  /tmp/ccxyKTeE.s 			page 48


 2680 00dd 50       		.byte	0x50
 2681 00de 9F       		.byte	0x9f
 2682 00df 4E000000 		.4byte	.LVL9-.Ltext0
 2683 00e3 58000000 		.4byte	.LVL11-.Ltext0
 2684 00e7 0100     		.2byte	0x1
 2685 00e9 50       		.byte	0x50
 2686 00ea 58000000 		.4byte	.LVL11-.Ltext0
 2687 00ee 60000000 		.4byte	.LFE135-.Ltext0
 2688 00f2 0400     		.2byte	0x4
 2689 00f4 F3       		.byte	0xf3
 2690 00f5 01       		.uleb128 0x1
 2691 00f6 50       		.byte	0x50
 2692 00f7 9F       		.byte	0x9f
 2693 00f8 00000000 		.4byte	0
 2694 00fc 00000000 		.4byte	0
 2695              	.LLST7:
 2696 0100 30000000 		.4byte	.LVL4-.Ltext0
 2697 0104 56000000 		.4byte	.LVL10-.Ltext0
 2698 0108 0100     		.2byte	0x1
 2699 010a 51       		.byte	0x51
 2700 010b 56000000 		.4byte	.LVL10-.Ltext0
 2701 010f 60000000 		.4byte	.LFE135-.Ltext0
 2702 0113 0400     		.2byte	0x4
 2703 0115 F3       		.byte	0xf3
 2704 0116 01       		.uleb128 0x1
 2705 0117 51       		.byte	0x51
 2706 0118 9F       		.byte	0x9f
 2707 0119 00000000 		.4byte	0
 2708 011d 00000000 		.4byte	0
 2709              	.LLST9:
 2710 0121 30000000 		.4byte	.LVL4-.Ltext0
 2711 0125 38000000 		.4byte	.LVL5-.Ltext0
 2712 0129 0200     		.2byte	0x2
 2713 012b 30       		.byte	0x30
 2714 012c 9F       		.byte	0x9f
 2715 012d 38000000 		.4byte	.LVL5-.Ltext0
 2716 0131 40000000 		.4byte	.LVL6-.Ltext0
 2717 0135 0300     		.2byte	0x3
 2718 0137 73       		.byte	0x73
 2719 0138 01       		.sleb128 1
 2720 0139 9F       		.byte	0x9f
 2721 013a 40000000 		.4byte	.LVL6-.Ltext0
 2722 013e 4C000000 		.4byte	.LVL8-.Ltext0
 2723 0142 0100     		.2byte	0x1
 2724 0144 55       		.byte	0x55
 2725 0145 4E000000 		.4byte	.LVL9-.Ltext0
 2726 0149 5E000000 		.4byte	.LVL12-.Ltext0
 2727 014d 0100     		.2byte	0x1
 2728 014f 55       		.byte	0x55
 2729 0150 5E000000 		.4byte	.LVL12-.Ltext0
 2730 0154 60000000 		.4byte	.LFE135-.Ltext0
 2731 0158 0100     		.2byte	0x1
 2732 015a 50       		.byte	0x50
 2733 015b 00000000 		.4byte	0
 2734 015f 00000000 		.4byte	0
 2735              	.LLST10:
 2736 0163 60000000 		.4byte	.LVL13-.Ltext0
ARM GAS  /tmp/ccxyKTeE.s 			page 49


 2737 0167 68000000 		.4byte	.LVL14-.Ltext0
 2738 016b 0100     		.2byte	0x1
 2739 016d 50       		.byte	0x50
 2740 016e 68000000 		.4byte	.LVL14-.Ltext0
 2741 0172 78000000 		.4byte	.LFE136-.Ltext0
 2742 0176 0400     		.2byte	0x4
 2743 0178 F3       		.byte	0xf3
 2744 0179 01       		.uleb128 0x1
 2745 017a 50       		.byte	0x50
 2746 017b 9F       		.byte	0x9f
 2747 017c 00000000 		.4byte	0
 2748 0180 00000000 		.4byte	0
 2749              		.section	.debug_aranges,"",%progbits
 2750 0000 1C000000 		.4byte	0x1c
 2751 0004 0200     		.2byte	0x2
 2752 0006 00000000 		.4byte	.Ldebug_info0
 2753 000a 04       		.byte	0x4
 2754 000b 00       		.byte	0
 2755 000c 0000     		.2byte	0
 2756 000e 0000     		.2byte	0
 2757 0010 00000000 		.4byte	.Ltext0
 2758 0014 78000000 		.4byte	.Letext0-.Ltext0
 2759 0018 00000000 		.4byte	0
 2760 001c 00000000 		.4byte	0
 2761              		.section	.debug_line,"",%progbits
 2762              	.Ldebug_line0:
 2763 0000 31030000 		.section	.debug_str,"MS",%progbits,1
 2763      0200FE02 
 2763      00000201 
 2763      FB0E0D00 
 2763      01010101 
 2764              	.LASF61:
 2765 0000 77496E64 		.ascii	"wIndex\000"
 2765      657800
 2766              	.LASF129:
 2767 0007 454E554D 		.ascii	"ENUM_GET_FULL_CFG_DESC\000"
 2767      5F474554 
 2767      5F46554C 
 2767      4C5F4346 
 2767      475F4445 
 2768              	.LASF157:
 2769 001e 6C656E67 		.ascii	"length\000"
 2769      746800
 2770              	.LASF2:
 2771 0025 73686F72 		.ascii	"short int\000"
 2771      7420696E 
 2771      7400
 2772              	.LASF128:
 2773 002f 454E554D 		.ascii	"ENUM_GET_CFG_DESC\000"
 2773      5F474554 
 2773      5F434647 
 2773      5F444553 
 2773      4300
 2774              	.LASF52:
 2775 0041 7264796D 		.ascii	"rdymsg\000"
 2775      736700
 2776              	.LASF125:
ARM GAS  /tmp/ccxyKTeE.s 			page 50


 2777 0048 454E554D 		.ascii	"ENUM_IDLE\000"
 2777      5F49444C 
 2777      4500
 2778              	.LASF144:
 2779 0052 4354524C 		.ascii	"CTRL_STATUS_OUT_WAIT\000"
 2779      5F535441 
 2779      5455535F 
 2779      4F55545F 
 2779      57414954 
 2780              	.LASF145:
 2781 0067 4354524C 		.ascii	"CTRL_ERROR\000"
 2781      5F455252 
 2781      4F5200
 2782              	.LASF3:
 2783 0072 5F5F7569 		.ascii	"__uint8_t\000"
 2783      6E74385F 
 2783      7400
 2784              	.LASF188:
 2785 007c 436C6173 		.ascii	"ClassNumber\000"
 2785      734E756D 
 2785      62657200 
 2786              	.LASF94:
 2787 0088 45705F44 		.ascii	"Ep_Desc\000"
 2787      65736300 
 2788              	.LASF87:
 2789 0090 62496E74 		.ascii	"bInterfaceNumber\000"
 2789      65726661 
 2789      63654E75 
 2789      6D626572 
 2789      00
 2790              	.LASF90:
 2791 00a1 62496E74 		.ascii	"bInterfaceClass\000"
 2791      65726661 
 2791      6365436C 
 2791      61737300 
 2792              	.LASF110:
 2793 00b1 55534248 		.ascii	"USBH_StatusTypeDef\000"
 2793      5F537461 
 2793      74757354 
 2793      79706544 
 2793      656600
 2794              	.LASF154:
 2795 00c4 70697065 		.ascii	"pipe_out\000"
 2795      5F6F7574 
 2795      00
 2796              	.LASF123:
 2797 00cd 484F5354 		.ascii	"HOST_ABORT_STATE\000"
 2797      5F41424F 
 2797      52545F53 
 2797      54415445 
 2797      00
 2798              	.LASF113:
 2799 00de 484F5354 		.ascii	"HOST_DEV_ATTACHED\000"
 2799      5F444556 
 2799      5F415454 
 2799      41434845 
 2799      4400
ARM GAS  /tmp/ccxyKTeE.s 			page 51


 2800              	.LASF124:
 2801 00f0 484F5354 		.ascii	"HOST_StateTypeDef\000"
 2801      5F537461 
 2801      74655479 
 2801      70654465 
 2801      6600
 2802              	.LASF97:
 2803 0102 77546F74 		.ascii	"wTotalLength\000"
 2803      616C4C65 
 2803      6E677468 
 2803      00
 2804              	.LASF168:
 2805 010f 63757272 		.ascii	"current_interface\000"
 2805      656E745F 
 2805      696E7465 
 2805      72666163 
 2805      6500
 2806              	.LASF212:
 2807 0121 49544D5F 		.ascii	"ITM_RxBuffer\000"
 2807      52784275 
 2807      66666572 
 2807      00
 2808              	.LASF121:
 2809 012e 484F5354 		.ascii	"HOST_CLASS\000"
 2809      5F434C41 
 2809      535300
 2810              	.LASF209:
 2811 0139 2F686F6D 		.ascii	"/home/sbcu/Dropbox/pcb-layouts/axo-on-discovery-boa"
 2811      652F7362 
 2811      63752F44 
 2811      726F7062 
 2811      6F782F70 
 2812 016c 72642F61 		.ascii	"rd/axoloti/firmware\000"
 2812      786F6C6F 
 2812      74692F66 
 2812      69726D77 
 2812      61726500 
 2813              	.LASF29:
 2814 0180 705F7072 		.ascii	"p_prio\000"
 2814      696F00
 2815              	.LASF5:
 2816 0187 73686F72 		.ascii	"short unsigned int\000"
 2816      7420756E 
 2816      7369676E 
 2816      65642069 
 2816      6E7400
 2817              	.LASF175:
 2818 019a 4465496E 		.ascii	"DeInit\000"
 2818      697400
 2819              	.LASF10:
 2820 01a1 6C6F6E67 		.ascii	"long long int\000"
 2820      206C6F6E 
 2820      6720696E 
 2820      7400
 2821              	.LASF0:
 2822 01af 7369676E 		.ascii	"signed char\000"
 2822      65642063 
ARM GAS  /tmp/ccxyKTeE.s 			page 52


 2822      68617200 
 2823              	.LASF151:
 2824 01bb 434D445F 		.ascii	"CMD_WAIT\000"
 2824      57414954 
 2824      00
 2825              	.LASF181:
 2826 01c4 67537461 		.ascii	"gState\000"
 2826      746500
 2827              	.LASF156:
 2828 01cb 62756666 		.ascii	"buff\000"
 2828      00
 2829              	.LASF178:
 2830 01d0 534F4650 		.ascii	"SOFProcess\000"
 2830      726F6365 
 2830      737300
 2831              	.LASF34:
 2832 01db 705F7374 		.ascii	"p_state\000"
 2832      61746500 
 2833              	.LASF11:
 2834 01e3 6C6F6E67 		.ascii	"long long unsigned int\000"
 2834      206C6F6E 
 2834      6720756E 
 2834      7369676E 
 2834      65642069 
 2835              	.LASF74:
 2836 01fa 62636444 		.ascii	"bcdDevice\000"
 2836      65766963 
 2836      6500
 2837              	.LASF148:
 2838 0204 4354524C 		.ascii	"CTRL_StateTypeDef\000"
 2838      5F537461 
 2838      74655479 
 2838      70654465 
 2838      6600
 2839              	.LASF203:
 2840 0216 55534248 		.ascii	"USBH_AllocPipe\000"
 2840      5F416C6C 
 2840      6F635069 
 2840      706500
 2841              	.LASF22:
 2842 0225 74736C69 		.ascii	"tslices_t\000"
 2842      6365735F 
 2842      7400
 2843              	.LASF160:
 2844 022f 73746174 		.ascii	"state\000"
 2844      6500
 2845              	.LASF119:
 2846 0235 484F5354 		.ascii	"HOST_SET_CONFIGURATION\000"
 2846      5F534554 
 2846      5F434F4E 
 2846      46494755 
 2846      52415449 
 2847              	.LASF7:
 2848 024c 6C6F6E67 		.ascii	"long int\000"
 2848      20696E74 
 2848      00
 2849              	.LASF184:
ARM GAS  /tmp/ccxyKTeE.s 			page 53


 2850 0255 436F6E74 		.ascii	"Control\000"
 2850      726F6C00 
 2851              	.LASF164:
 2852 025d 44617461 		.ascii	"Data\000"
 2852      00
 2853              	.LASF21:
 2854 0262 74737461 		.ascii	"tstate_t\000"
 2854      74655F74 
 2854      00
 2855              	.LASF191:
 2856 026b 70557365 		.ascii	"pUser\000"
 2856      7200
 2857              	.LASF141:
 2858 0271 4354524C 		.ascii	"CTRL_STATUS_IN\000"
 2858      5F535441 
 2858      5455535F 
 2858      494E00
 2859              	.LASF60:
 2860 0280 7756616C 		.ascii	"wValue\000"
 2860      756500
 2861              	.LASF75:
 2862 0287 694D616E 		.ascii	"iManufacturer\000"
 2862      75666163 
 2862      74757265 
 2862      7200
 2863              	.LASF176:
 2864 0295 52657175 		.ascii	"Requests\000"
 2864      65737473 
 2864      00
 2865              	.LASF31:
 2866 029e 705F6E65 		.ascii	"p_newer\000"
 2866      77657200 
 2867              	.LASF214:
 2868 02a6 55534248 		.ascii	"USBH_LL_ClosePipe\000"
 2868      5F4C4C5F 
 2868      436C6F73 
 2868      65506970 
 2868      6500
 2869              	.LASF76:
 2870 02b8 6950726F 		.ascii	"iProduct\000"
 2870      64756374 
 2870      00
 2871              	.LASF150:
 2872 02c1 434D445F 		.ascii	"CMD_SEND\000"
 2872      53454E44 
 2872      00
 2873              	.LASF53:
 2874 02ca 65786974 		.ascii	"exitcode\000"
 2874      636F6465 
 2874      00
 2875              	.LASF177:
 2876 02d3 42676E64 		.ascii	"BgndProcess\000"
 2876      50726F63 
 2876      65737300 
 2877              	.LASF179:
 2878 02df 70446174 		.ascii	"pData\000"
 2878      6100
ARM GAS  /tmp/ccxyKTeE.s 			page 54


 2879              	.LASF73:
 2880 02e5 69645072 		.ascii	"idProduct\000"
 2880      6F647563 
 2880      7400
 2881              	.LASF8:
 2882 02ef 5F5F7569 		.ascii	"__uint32_t\000"
 2882      6E743332 
 2882      5F7400
 2883              	.LASF45:
 2884 02fa 72656761 		.ascii	"regarm_t\000"
 2884      726D5F74 
 2884      00
 2885              	.LASF190:
 2886 0303 54696D65 		.ascii	"Timer\000"
 2886      7200
 2887              	.LASF195:
 2888 0309 55534248 		.ascii	"USBH_HandleTypeDef\000"
 2888      5F48616E 
 2888      646C6554 
 2888      79706544 
 2888      656600
 2889              	.LASF58:
 2890 031c 626D5265 		.ascii	"bmRequestType\000"
 2890      71756573 
 2890      74547970 
 2890      6500
 2891              	.LASF173:
 2892 032a 436C6173 		.ascii	"ClassCode\000"
 2892      73436F64 
 2892      6500
 2893              	.LASF162:
 2894 0334 55534248 		.ascii	"USBH_CtrlTypeDef\000"
 2894      5F437472 
 2894      6C547970 
 2894      65446566 
 2894      00
 2895              	.LASF57:
 2896 0345 5F536574 		.ascii	"_SetupPkt_Struc\000"
 2896      7570506B 
 2896      745F5374 
 2896      72756300 
 2897              	.LASF67:
 2898 0355 62636455 		.ascii	"bcdUSB\000"
 2898      534200
 2899              	.LASF140:
 2900 035c 4354524C 		.ascii	"CTRL_DATA_OUT_WAIT\000"
 2900      5F444154 
 2900      415F4F55 
 2900      545F5741 
 2900      495400
 2901              	.LASF198:
 2902 036f 65706E75 		.ascii	"epnum\000"
 2902      6D00
 2903              	.LASF12:
 2904 0375 756E7369 		.ascii	"unsigned int\000"
 2904      676E6564 
 2904      20696E74 
ARM GAS  /tmp/ccxyKTeE.s 			page 55


 2904      00
 2905              	.LASF199:
 2906 0382 6465765F 		.ascii	"dev_address\000"
 2906      61646472 
 2906      65737300 
 2907              	.LASF14:
 2908 038e 75696E74 		.ascii	"uint16_t\000"
 2908      31365F74 
 2908      00
 2909              	.LASF69:
 2910 0397 62446576 		.ascii	"bDeviceSubClass\000"
 2910      69636553 
 2910      7562436C 
 2910      61737300 
 2911              	.LASF77:
 2912 03a7 69536572 		.ascii	"iSerialNumber\000"
 2912      69616C4E 
 2912      756D6265 
 2912      7200
 2913              	.LASF38:
 2914 03b5 705F6D73 		.ascii	"p_msgqueue\000"
 2914      67717565 
 2914      756500
 2915              	.LASF116:
 2916 03c0 484F5354 		.ascii	"HOST_ENUMERATION\000"
 2916      5F454E55 
 2916      4D455241 
 2916      54494F4E 
 2916      00
 2917              	.LASF186:
 2918 03d1 70436C61 		.ascii	"pClass\000"
 2918      737300
 2919              	.LASF139:
 2920 03d8 4354524C 		.ascii	"CTRL_DATA_OUT\000"
 2920      5F444154 
 2920      415F4F55 
 2920      5400
 2921              	.LASF202:
 2922 03e6 55534248 		.ascii	"USBH_ClosePipe\000"
 2922      5F436C6F 
 2922      73655069 
 2922      706500
 2923              	.LASF182:
 2924 03f5 456E756D 		.ascii	"EnumState\000"
 2924      53746174 
 2924      6500
 2925              	.LASF206:
 2926 03ff 55534248 		.ascii	"USBH_FreePipe\000"
 2926      5F467265 
 2926      65506970 
 2926      6500
 2927              	.LASF185:
 2928 040d 64657669 		.ascii	"device\000"
 2928      636500
 2929              	.LASF91:
 2930 0414 62496E74 		.ascii	"bInterfaceSubClass\000"
 2930      65726661 
ARM GAS  /tmp/ccxyKTeE.s 			page 56


 2930      63655375 
 2930      62436C61 
 2930      737300
 2931              	.LASF95:
 2932 0427 55534248 		.ascii	"USBH_InterfaceDescTypeDef\000"
 2932      5F496E74 
 2932      65726661 
 2932      63654465 
 2932      73635479 
 2933              	.LASF131:
 2934 0441 454E554D 		.ascii	"ENUM_GET_PRODUCT_STRING_DESC\000"
 2934      5F474554 
 2934      5F50524F 
 2934      44554354 
 2934      5F535452 
 2935              	.LASF72:
 2936 045e 69645665 		.ascii	"idVendor\000"
 2936      6E646F72 
 2936      00
 2937              	.LASF24:
 2938 0467 6D73675F 		.ascii	"msg_t\000"
 2938      7400
 2939              	.LASF82:
 2940 046d 626D4174 		.ascii	"bmAttributes\000"
 2940      74726962 
 2940      75746573 
 2940      00
 2941              	.LASF106:
 2942 047a 55534248 		.ascii	"USBH_FAIL\000"
 2942      5F464149 
 2942      4C00
 2943              	.LASF85:
 2944 0484 55534248 		.ascii	"USBH_EpDescTypeDef\000"
 2944      5F457044 
 2944      65736354 
 2944      79706544 
 2944      656600
 2945              	.LASF20:
 2946 0497 746D6F64 		.ascii	"tmode_t\000"
 2946      655F7400 
 2947              	.LASF189:
 2948 049f 50697065 		.ascii	"Pipes\000"
 2948      7300
 2949              	.LASF44:
 2950 04a5 54687265 		.ascii	"ThreadsList\000"
 2950      6164734C 
 2950      69737400 
 2951              	.LASF66:
 2952 04b1 62446573 		.ascii	"bDescriptorType\000"
 2952      63726970 
 2952      746F7254 
 2952      79706500 
 2953              	.LASF25:
 2954 04c1 6576656E 		.ascii	"eventmask_t\000"
 2954      746D6173 
 2954      6B5F7400 
 2955              	.LASF180:
ARM GAS  /tmp/ccxyKTeE.s 			page 57


 2956 04cd 5F555342 		.ascii	"_USBH_HandleTypeDef\000"
 2956      485F4861 
 2956      6E646C65 
 2956      54797065 
 2956      44656600 
 2957              	.LASF122:
 2958 04e1 484F5354 		.ascii	"HOST_SUSPENDED\000"
 2958      5F535553 
 2958      50454E44 
 2958      454400
 2959              	.LASF43:
 2960 04f0 54687265 		.ascii	"ThreadsQueue\000"
 2960      61647351 
 2960      75657565 
 2960      00
 2961              	.LASF142:
 2962 04fd 4354524C 		.ascii	"CTRL_STATUS_IN_WAIT\000"
 2962      5F535441 
 2962      5455535F 
 2962      494E5F57 
 2962      41495400 
 2963              	.LASF163:
 2964 0511 43666744 		.ascii	"CfgDesc_Raw\000"
 2964      6573635F 
 2964      52617700 
 2965              	.LASF93:
 2966 051d 69496E74 		.ascii	"iInterface\000"
 2966      65726661 
 2966      636500
 2967              	.LASF127:
 2968 0528 454E554D 		.ascii	"ENUM_SET_ADDR\000"
 2968      5F534554 
 2968      5F414444 
 2968      5200
 2969              	.LASF84:
 2970 0536 62496E74 		.ascii	"bInterval\000"
 2970      65727661 
 2970      6C00
 2971              	.LASF161:
 2972 0540 6572726F 		.ascii	"errorcount\000"
 2972      72636F75 
 2972      6E7400
 2973              	.LASF17:
 2974 054b 73697A65 		.ascii	"sizetype\000"
 2974      74797065 
 2974      00
 2975              	.LASF56:
 2976 0554 75696E74 		.ascii	"uint16_t_uint8_t\000"
 2976      31365F74 
 2976      5F75696E 
 2976      74385F74 
 2976      00
 2977              	.LASF149:
 2978 0565 434D445F 		.ascii	"CMD_IDLE\000"
 2978      49444C45 
 2978      00
 2979              	.LASF137:
ARM GAS  /tmp/ccxyKTeE.s 			page 58


 2980 056e 4354524C 		.ascii	"CTRL_DATA_IN\000"
 2980      5F444154 
 2980      415F494E 
 2980      00
 2981              	.LASF48:
 2982 057b 4D757465 		.ascii	"Mutex\000"
 2982      7800
 2983              	.LASF165:
 2984 0581 61646472 		.ascii	"address\000"
 2984      65737300 
 2985              	.LASF126:
 2986 0589 454E554D 		.ascii	"ENUM_GET_FULL_DEV_DESC\000"
 2986      5F474554 
 2986      5F46554C 
 2986      4C5F4445 
 2986      565F4445 
 2987              	.LASF117:
 2988 05a0 484F5354 		.ascii	"HOST_CLASS_REQUEST\000"
 2988      5F434C41 
 2988      53535F52 
 2988      45515545 
 2988      535400
 2989              	.LASF70:
 2990 05b3 62446576 		.ascii	"bDeviceProtocol\000"
 2990      69636550 
 2990      726F746F 
 2990      636F6C00 
 2991              	.LASF88:
 2992 05c3 62416C74 		.ascii	"bAlternateSetting\000"
 2992      65726E61 
 2992      74655365 
 2992      7474696E 
 2992      6700
 2993              	.LASF213:
 2994 05d5 55534248 		.ascii	"USBH_LL_OpenPipe\000"
 2994      5F4C4C5F 
 2994      4F70656E 
 2994      50697065 
 2994      00
 2995              	.LASF32:
 2996 05e6 705F6F6C 		.ascii	"p_older\000"
 2996      64657200 
 2997              	.LASF130:
 2998 05ee 454E554D 		.ascii	"ENUM_GET_MFC_STRING_DESC\000"
 2998      5F474554 
 2998      5F4D4643 
 2998      5F535452 
 2998      494E475F 
 2999              	.LASF112:
 3000 0607 484F5354 		.ascii	"HOST_DEV_WAIT_FOR_ATTACHMENT\000"
 3000      5F444556 
 3000      5F574149 
 3000      545F464F 
 3000      525F4154 
 3001              	.LASF210:
 3002 0624 5F555342 		.ascii	"_USB_Setup\000"
 3002      5F536574 
ARM GAS  /tmp/ccxyKTeE.s 			page 59


 3002      757000
 3003              	.LASF159:
 3004 062f 73657475 		.ascii	"setup\000"
 3004      7000
 3005              	.LASF80:
 3006 0635 5F456E64 		.ascii	"_EndpointDescriptor\000"
 3006      706F696E 
 3006      74446573 
 3006      63726970 
 3006      746F7200 
 3007              	.LASF105:
 3008 0649 55534248 		.ascii	"USBH_BUSY\000"
 3008      5F425553 
 3008      5900
 3009              	.LASF138:
 3010 0653 4354524C 		.ascii	"CTRL_DATA_IN_WAIT\000"
 3010      5F444154 
 3010      415F494E 
 3010      5F574149 
 3010      5400
 3011              	.LASF201:
 3012 0665 55534248 		.ascii	"USBH_OpenPipe\000"
 3012      5F4F7065 
 3012      6E506970 
 3012      6500
 3013              	.LASF174:
 3014 0673 496E6974 		.ascii	"Init\000"
 3014      00
 3015              	.LASF183:
 3016 0678 52657175 		.ascii	"RequestState\000"
 3016      65737453 
 3016      74617465 
 3016      00
 3017              	.LASF107:
 3018 0685 55534248 		.ascii	"USBH_NOT_SUPPORTED\000"
 3018      5F4E4F54 
 3018      5F535550 
 3018      504F5254 
 3018      454400
 3019              	.LASF111:
 3020 0698 484F5354 		.ascii	"HOST_IDLE\000"
 3020      5F49444C 
 3020      4500
 3021              	.LASF146:
 3022 06a2 4354524C 		.ascii	"CTRL_STALLED\000"
 3022      5F535441 
 3022      4C4C4544 
 3022      00
 3023              	.LASF28:
 3024 06af 705F7072 		.ascii	"p_prev\000"
 3024      657600
 3025              	.LASF81:
 3026 06b6 62456E64 		.ascii	"bEndpointAddress\000"
 3026      706F696E 
 3026      74416464 
 3026      72657373 
 3026      00
ARM GAS  /tmp/ccxyKTeE.s 			page 60


 3027              	.LASF102:
 3028 06c7 4974665F 		.ascii	"Itf_Desc\000"
 3028      44657363 
 3028      00
 3029              	.LASF23:
 3030 06d0 74707269 		.ascii	"tprio_t\000"
 3030      6F5F7400 
 3031              	.LASF71:
 3032 06d8 624D6178 		.ascii	"bMaxPacketSize\000"
 3032      5061636B 
 3032      65745369 
 3032      7A6500
 3033              	.LASF19:
 3034 06e7 5F426F6F 		.ascii	"_Bool\000"
 3034      6C00
 3035              	.LASF15:
 3036 06ed 696E7433 		.ascii	"int32_t\000"
 3036      325F7400 
 3037              	.LASF1:
 3038 06f5 756E7369 		.ascii	"unsigned char\000"
 3038      676E6564 
 3038      20636861 
 3038      7200
 3039              	.LASF49:
 3040 0703 6D5F7175 		.ascii	"m_queue\000"
 3040      65756500 
 3041              	.LASF108:
 3042 070b 55534248 		.ascii	"USBH_UNRECOVERED_ERROR\000"
 3042      5F554E52 
 3042      45434F56 
 3042      45524544 
 3042      5F455252 
 3043              	.LASF171:
 3044 0722 55534248 		.ascii	"USBH_DeviceTypeDef\000"
 3044      5F446576 
 3044      69636554 
 3044      79706544 
 3044      656600
 3045              	.LASF152:
 3046 0735 434D445F 		.ascii	"CMD_StateTypeDef\000"
 3046      53746174 
 3046      65547970 
 3046      65446566 
 3046      00
 3047              	.LASF118:
 3048 0746 484F5354 		.ascii	"HOST_INPUT\000"
 3048      5F494E50 
 3048      555400
 3049              	.LASF41:
 3050 0751 705F6D74 		.ascii	"p_mtxlist\000"
 3050      786C6973 
 3050      7400
 3051              	.LASF99:
 3052 075b 62436F6E 		.ascii	"bConfigurationValue\000"
 3052      66696775 
 3052      72617469 
 3052      6F6E5661 
ARM GAS  /tmp/ccxyKTeE.s 			page 61


 3052      6C756500 
 3053              	.LASF194:
 3054 076f 55534248 		.ascii	"USBH_ClassTypeDef\000"
 3054      5F436C61 
 3054      73735479 
 3054      70654465 
 3054      6600
 3055              	.LASF36:
 3056 0781 705F7072 		.ascii	"p_preempt\000"
 3056      65656D70 
 3056      7400
 3057              	.LASF196:
 3058 078b 70686F73 		.ascii	"phost\000"
 3058      7400
 3059              	.LASF96:
 3060 0791 5F436F6E 		.ascii	"_ConfigurationDescriptor\000"
 3060      66696775 
 3060      72617469 
 3060      6F6E4465 
 3060      73637269 
 3061              	.LASF100:
 3062 07aa 69436F6E 		.ascii	"iConfiguration\000"
 3062      66696775 
 3062      72617469 
 3062      6F6E00
 3063              	.LASF135:
 3064 07b9 4354524C 		.ascii	"CTRL_SETUP\000"
 3064      5F534554 
 3064      555000
 3065              	.LASF55:
 3066 07c4 65776D61 		.ascii	"ewmask\000"
 3066      736B00
 3067              	.LASF27:
 3068 07cb 705F6E65 		.ascii	"p_next\000"
 3068      787400
 3069              	.LASF143:
 3070 07d2 4354524C 		.ascii	"CTRL_STATUS_OUT\000"
 3070      5F535441 
 3070      5455535F 
 3070      4F555400 
 3071              	.LASF35:
 3072 07e2 705F666C 		.ascii	"p_flags\000"
 3072      61677300 
 3073              	.LASF133:
 3074 07ea 454E554D 		.ascii	"ENUM_StateTypeDef\000"
 3074      5F537461 
 3074      74655479 
 3074      70654465 
 3074      6600
 3075              	.LASF120:
 3076 07fc 484F5354 		.ascii	"HOST_CHECK_CLASS\000"
 3076      5F434845 
 3076      434B5F43 
 3076      4C415353 
 3076      00
 3077              	.LASF26:
 3078 080d 54687265 		.ascii	"Thread\000"
ARM GAS  /tmp/ccxyKTeE.s 			page 62


 3078      616400
 3079              	.LASF207:
 3080 0814 474E5520 		.ascii	"GNU C 4.9.3 20150529 (release) [ARM/embedded-4_9-br"
 3080      4320342E 
 3080      392E3320 
 3080      32303135 
 3080      30353239 
 3081 0847 616E6368 		.ascii	"anch revision 224288] -mcpu=cortex-m4 -mfloat-abi=h"
 3081      20726576 
 3081      6973696F 
 3081      6E203232 
 3081      34323838 
 3082 087a 61726420 		.ascii	"ard -mfpu=fpv4-sp-d16 -mno-thumb-interwork -mthumb "
 3082      2D6D6670 
 3082      753D6670 
 3082      76342D73 
 3082      702D6431 
 3083 08ad 2D676764 		.ascii	"-ggdb -O2 -fomit-frame-pointer -falign-functions=16"
 3083      62202D4F 
 3083      32202D66 
 3083      6F6D6974 
 3083      2D667261 
 3084 08e0 202D666E 		.ascii	" -fno-math-errno -fsingle-precision-constant\000"
 3084      6F2D6D61 
 3084      74682D65 
 3084      72726E6F 
 3084      202D6673 
 3085              	.LASF63:
 3086 090d 5553425F 		.ascii	"USB_Setup_TypeDef\000"
 3086      53657475 
 3086      705F5479 
 3086      70654465 
 3086      6600
 3087              	.LASF40:
 3088 091f 705F6570 		.ascii	"p_epending\000"
 3088      656E6469 
 3088      6E6700
 3089              	.LASF114:
 3090 092a 484F5354 		.ascii	"HOST_DEV_DISCONNECTED\000"
 3090      5F444556 
 3090      5F444953 
 3090      434F4E4E 
 3090      45435445 
 3091              	.LASF89:
 3092 0940 624E756D 		.ascii	"bNumEndpoints\000"
 3092      456E6470 
 3092      6F696E74 
 3092      7300
 3093              	.LASF92:
 3094 094e 62496E74 		.ascii	"bInterfaceProtocol\000"
 3094      65726661 
 3094      63655072 
 3094      6F746F63 
 3094      6F6C00
 3095              	.LASF9:
 3096 0961 6C6F6E67 		.ascii	"long unsigned int\000"
 3096      20756E73 
ARM GAS  /tmp/ccxyKTeE.s 			page 63


 3096      69676E65 
 3096      6420696E 
 3096      7400
 3097              	.LASF169:
 3098 0973 44657644 		.ascii	"DevDesc\000"
 3098      65736300 
 3099              	.LASF134:
 3100 097b 4354524C 		.ascii	"CTRL_IDLE\000"
 3100      5F49444C 
 3100      4500
 3101              	.LASF18:
 3102 0985 63686172 		.ascii	"char\000"
 3102      00
 3103              	.LASF68:
 3104 098a 62446576 		.ascii	"bDeviceClass\000"
 3104      69636543 
 3104      6C617373 
 3104      00
 3105              	.LASF4:
 3106 0997 5F5F7569 		.ascii	"__uint16_t\000"
 3106      6E743136 
 3106      5F7400
 3107              	.LASF205:
 3108 09a2 70697065 		.ascii	"pipe\000"
 3108      00
 3109              	.LASF83:
 3110 09a7 774D6178 		.ascii	"wMaxPacketSize\000"
 3110      5061636B 
 3110      65745369 
 3110      7A6500
 3111              	.LASF103:
 3112 09b6 55534248 		.ascii	"USBH_CfgDescTypeDef\000"
 3112      5F436667 
 3112      44657363 
 3112      54797065 
 3112      44656600 
 3113              	.LASF42:
 3114 09ca 705F7265 		.ascii	"p_realprio\000"
 3114      616C7072 
 3114      696F00
 3115              	.LASF6:
 3116 09d5 5F5F696E 		.ascii	"__int32_t\000"
 3116      7433325F 
 3116      7400
 3117              	.LASF192:
 3118 09df 6F735F65 		.ascii	"os_event\000"
 3118      76656E74 
 3118      00
 3119              	.LASF193:
 3120 09e8 74687265 		.ascii	"thread\000"
 3120      616400
 3121              	.LASF204:
 3122 09ef 65705F61 		.ascii	"ep_addr\000"
 3122      64647200 
 3123              	.LASF147:
 3124 09f7 4354524C 		.ascii	"CTRL_COMPLETE\000"
 3124      5F434F4D 
ARM GAS  /tmp/ccxyKTeE.s 			page 64


 3124      504C4554 
 3124      4500
 3125              	.LASF98:
 3126 0a05 624E756D 		.ascii	"bNumInterfaces\000"
 3126      496E7465 
 3126      72666163 
 3126      657300
 3127              	.LASF47:
 3128 0a14 636F6E74 		.ascii	"context\000"
 3128      65787400 
 3129              	.LASF197:
 3130 0a1c 70697065 		.ascii	"pipe_num\000"
 3130      5F6E756D 
 3130      00
 3131              	.LASF46:
 3132 0a25 696E7463 		.ascii	"intctx\000"
 3132      747800
 3133              	.LASF64:
 3134 0a2c 5F446576 		.ascii	"_DeviceDescriptor\000"
 3134      69636544 
 3134      65736372 
 3134      6970746F 
 3134      7200
 3135              	.LASF200:
 3136 0a3e 65705F74 		.ascii	"ep_type\000"
 3136      79706500 
 3137              	.LASF155:
 3138 0a46 70697065 		.ascii	"pipe_size\000"
 3138      5F73697A 
 3138      6500
 3139              	.LASF16:
 3140 0a50 75696E74 		.ascii	"uint32_t\000"
 3140      33325F74 
 3140      00
 3141              	.LASF211:
 3142 0a59 55534248 		.ascii	"USBH_GetFreePipe\000"
 3142      5F476574 
 3142      46726565 
 3142      50697065 
 3142      00
 3143              	.LASF65:
 3144 0a6a 624C656E 		.ascii	"bLength\000"
 3144      67746800 
 3145              	.LASF101:
 3146 0a72 624D6178 		.ascii	"bMaxPower\000"
 3146      506F7765 
 3146      7200
 3147              	.LASF33:
 3148 0a7c 705F6E61 		.ascii	"p_name\000"
 3148      6D6500
 3149              	.LASF51:
 3150 0a83 6D5F6E65 		.ascii	"m_next\000"
 3150      787400
 3151              	.LASF208:
 3152 0a8a 2E2F5354 		.ascii	"./STM32_USB_Host_Library/Core/Src/usbh_pipes.c\000"
 3152      4D33325F 
 3152      5553425F 
ARM GAS  /tmp/ccxyKTeE.s 			page 65


 3152      486F7374 
 3152      5F4C6962 
 3153              	.LASF172:
 3154 0ab9 4E616D65 		.ascii	"Name\000"
 3154      00
 3155              	.LASF13:
 3156 0abe 75696E74 		.ascii	"uint8_t\000"
 3156      385F7400 
 3157              	.LASF86:
 3158 0ac6 5F496E74 		.ascii	"_InterfaceDescriptor\000"
 3158      65726661 
 3158      63654465 
 3158      73637269 
 3158      70746F72 
 3159              	.LASF187:
 3160 0adb 70416374 		.ascii	"pActiveClass\000"
 3160      69766543 
 3160      6C617373 
 3160      00
 3161              	.LASF158:
 3162 0ae8 74696D65 		.ascii	"timer\000"
 3162      7200
 3163              	.LASF59:
 3164 0aee 62526571 		.ascii	"bRequest\000"
 3164      75657374 
 3164      00
 3165              	.LASF115:
 3166 0af7 484F5354 		.ascii	"HOST_DETECT_DEVICE_SPEED\000"
 3166      5F444554 
 3166      4543545F 
 3166      44455649 
 3166      43455F53 
 3167              	.LASF62:
 3168 0b10 774C656E 		.ascii	"wLength\000"
 3168      67746800 
 3169              	.LASF54:
 3170 0b18 77746F62 		.ascii	"wtobjp\000"
 3170      6A7000
 3171              	.LASF166:
 3172 0b1f 73706565 		.ascii	"speed\000"
 3172      6400
 3173              	.LASF170:
 3174 0b25 43666744 		.ascii	"CfgDesc\000"
 3174      65736300 
 3175              	.LASF109:
 3176 0b2d 55534248 		.ascii	"USBH_ERROR_SPEED_UNKNOWN\000"
 3176      5F455252 
 3176      4F525F53 
 3176      50454544 
 3176      5F554E4B 
 3177              	.LASF39:
 3178 0b46 705F6D73 		.ascii	"p_msg\000"
 3178      6700
 3179              	.LASF167:
 3180 0b4c 69735F63 		.ascii	"is_connected\000"
 3180      6F6E6E65 
 3180      63746564 
ARM GAS  /tmp/ccxyKTeE.s 			page 66


 3180      00
 3181              	.LASF79:
 3182 0b59 55534248 		.ascii	"USBH_DevDescTypeDef\000"
 3182      5F446576 
 3182      44657363 
 3182      54797065 
 3182      44656600 
 3183              	.LASF78:
 3184 0b6d 624E756D 		.ascii	"bNumConfigurations\000"
 3184      436F6E66 
 3184      69677572 
 3184      6174696F 
 3184      6E7300
 3185              	.LASF104:
 3186 0b80 55534248 		.ascii	"USBH_OK\000"
 3186      5F4F4B00 
 3187              	.LASF132:
 3188 0b88 454E554D 		.ascii	"ENUM_GET_SERIALNUM_STRING_DESC\000"
 3188      5F474554 
 3188      5F534552 
 3188      49414C4E 
 3188      554D5F53 
 3189              	.LASF50:
 3190 0ba7 6D5F6F77 		.ascii	"m_owner\000"
 3190      6E657200 
 3191              	.LASF136:
 3192 0baf 4354524C 		.ascii	"CTRL_SETUP_WAIT\000"
 3192      5F534554 
 3192      55505F57 
 3192      41495400 
 3193              	.LASF153:
 3194 0bbf 70697065 		.ascii	"pipe_in\000"
 3194      5F696E00 
 3195              	.LASF30:
 3196 0bc7 705F6374 		.ascii	"p_ctx\000"
 3196      7800
 3197              	.LASF37:
 3198 0bcd 705F7761 		.ascii	"p_waiting\000"
 3198      6974696E 
 3198      6700
 3199              		.ident	"GCC: (GNU Tools for ARM Embedded Processors) 4.9.3 20150529 (release) [ARM/embedded-4_9-br
ARM GAS  /tmp/ccxyKTeE.s 			page 67


DEFINED SYMBOLS
                            *ABS*:00000000 usbh_pipes.c
     /tmp/ccxyKTeE.s:20     .text:00000000 $t
     /tmp/ccxyKTeE.s:26     .text:00000000 USBH_OpenPipe
     /tmp/ccxyKTeE.s:67     .text:00000020 USBH_ClosePipe
     /tmp/ccxyKTeE.s:93     .text:00000030 USBH_AllocPipe
     /tmp/ccxyKTeE.s:160    .text:00000060 USBH_FreePipe
                     .debug_frame:00000010 $d

UNDEFINED SYMBOLS
USBH_LL_OpenPipe
USBH_LL_ClosePipe
