ARM GAS  /tmp/ccMjFzvY.s 			page 1


   1              		.syntax unified
   2              		.cpu cortex-m4
   3              		.eabi_attribute 27, 1
   4              		.eabi_attribute 28, 1
   5              		.fpu fpv4-sp-d16
   6              		.eabi_attribute 20, 1
   7              		.eabi_attribute 21, 1
   8              		.eabi_attribute 23, 3
   9              		.eabi_attribute 24, 1
  10              		.eabi_attribute 25, 1
  11              		.eabi_attribute 26, 1
  12              		.eabi_attribute 30, 2
  13              		.eabi_attribute 34, 1
  14              		.eabi_attribute 18, 4
  15              		.thumb
  16              		.file	"usbh_ioreq.c"
  17              		.text
  18              	.Ltext0:
  19              		.cfi_sections	.debug_frame
  20              		.align	2
  21              		.p2align 4,,15
  22              		.global	USBH_CtlSendSetup
  23              		.thumb
  24              		.thumb_func
  25              		.type	USBH_CtlSendSetup, %function
  26              	USBH_CtlSendSetup:
  27              	.LFB133:
  28              		.file 1 "./STM32_USB_Host_Library/Core/Src/usbh_ioreq.c"
  29              		.loc 1 103 0
  30              		.cfi_startproc
  31              		@ args = 0, pretend = 0, frame = 0
  32              		@ frame_needed = 0, uses_anonymous_args = 0
  33              	.LVL0:
  34 0000 30B5     		push	{r4, r5, lr}
  35              		.cfi_def_cfa_offset 12
  36              		.cfi_offset 4, -12
  37              		.cfi_offset 5, -8
  38              		.cfi_offset 14, -4
  39 0002 85B0     		sub	sp, sp, #20
  40              		.cfi_def_cfa_offset 32
  41              	.LBB20:
  42              	.LBB21:
  43              		.file 2 "./usbh_conf.h"
  44              		.loc 2 245 0
  45 0004 0024     		movs	r4, #0
  46 0006 0825     		movs	r5, #8
  47 0008 D0F8F005 		ldr	r0, [r0, #1520]
  48              	.LVL1:
  49 000c 0191     		str	r1, [sp, #4]
  50 000e 0094     		str	r4, [sp]
  51 0010 1146     		mov	r1, r2
  52              	.LVL2:
  53 0012 0394     		str	r4, [sp, #12]
  54 0014 2246     		mov	r2, r4
  55              	.LVL3:
  56 0016 2346     		mov	r3, r4
  57 0018 0295     		str	r5, [sp, #8]
ARM GAS  /tmp/ccMjFzvY.s 			page 2


  58 001a FFF7FEFF 		bl	HAL_HCD_HC_SubmitRequest
  59              	.LVL4:
  60              	.LBE21:
  61              	.LBE20:
  62              		.loc 1 114 0
  63 001e 2046     		mov	r0, r4
  64 0020 05B0     		add	sp, sp, #20
  65              		.cfi_def_cfa_offset 12
  66              		@ sp needed
  67 0022 30BD     		pop	{r4, r5, pc}
  68              		.cfi_endproc
  69              	.LFE133:
  70              		.size	USBH_CtlSendSetup, .-USBH_CtlSendSetup
  71              		.align	2
  72 0024 AFF30080 		.p2align 4,,15
  72      AFF30080 
  72      AFF30080 
  73              		.global	USBH_CtlSendData
  74              		.thumb
  75              		.thumb_func
  76              		.type	USBH_CtlSendData, %function
  77              	USBH_CtlSendData:
  78              	.LFB134:
  79              		.loc 1 131 0
  80              		.cfi_startproc
  81              		@ args = 4, pretend = 0, frame = 0
  82              		@ frame_needed = 0, uses_anonymous_args = 0
  83              	.LVL5:
  84 0030 30B5     		push	{r4, r5, lr}
  85              		.cfi_def_cfa_offset 12
  86              		.cfi_offset 4, -12
  87              		.cfi_offset 5, -8
  88              		.cfi_offset 14, -4
  89              		.loc 1 132 0
  90 0032 90F81D54 		ldrb	r5, [r0, #1053]	@ zero_extendqisi2
  91              	.LBB22:
  92              	.LBB23:
  93              		.loc 2 245 0
  94 0036 D0F8F005 		ldr	r0, [r0, #1520]
  95              	.LVL6:
  96              	.LBE23:
  97              	.LBE22:
  98              		.loc 1 131 0
  99 003a 85B0     		sub	sp, sp, #20
 100              		.cfi_def_cfa_offset 32
 101              		.loc 1 132 0
 102 003c 002D     		cmp	r5, #0
 103              		.loc 1 131 0
 104 003e 9DF82040 		ldrb	r4, [sp, #32]	@ zero_extendqisi2
 105              	.LBB25:
 106              	.LBB24:
 107              		.loc 2 245 0
 108 0042 0292     		str	r2, [sp, #8]
 109 0044 18BF     		it	ne
 110 0046 0024     		movne	r4, #0
 111              	.LVL7:
 112 0048 0022     		movs	r2, #0
ARM GAS  /tmp/ccMjFzvY.s 			page 3


 113              	.LVL8:
 114 004a 0125     		movs	r5, #1
 115 004c 0191     		str	r1, [sp, #4]
 116 004e 0394     		str	r4, [sp, #12]
 117 0050 1946     		mov	r1, r3
 118              	.LVL9:
 119 0052 0095     		str	r5, [sp]
 120 0054 1346     		mov	r3, r2
 121              	.LVL10:
 122 0056 FFF7FEFF 		bl	HAL_HCD_HC_SubmitRequest
 123              	.LVL11:
 124              	.LBE24:
 125              	.LBE25:
 126              		.loc 1 147 0
 127 005a 0020     		movs	r0, #0
 128 005c 05B0     		add	sp, sp, #20
 129              		.cfi_def_cfa_offset 12
 130              		@ sp needed
 131 005e 30BD     		pop	{r4, r5, pc}
 132              		.cfi_endproc
 133              	.LFE134:
 134              		.size	USBH_CtlSendData, .-USBH_CtlSendData
 135              		.align	2
 136              		.p2align 4,,15
 137              		.global	USBH_CtlReceiveData
 138              		.thumb
 139              		.thumb_func
 140              		.type	USBH_CtlReceiveData, %function
 141              	USBH_CtlReceiveData:
 142              	.LFB135:
 143              		.loc 1 163 0
 144              		.cfi_startproc
 145              		@ args = 0, pretend = 0, frame = 0
 146              		@ frame_needed = 0, uses_anonymous_args = 0
 147              	.LVL12:
 148 0060 30B5     		push	{r4, r5, lr}
 149              		.cfi_def_cfa_offset 12
 150              		.cfi_offset 4, -12
 151              		.cfi_offset 5, -8
 152              		.cfi_offset 14, -4
 153 0062 85B0     		sub	sp, sp, #20
 154              		.cfi_def_cfa_offset 32
 155              	.LBB26:
 156              	.LBB27:
 157              		.loc 2 245 0
 158 0064 0024     		movs	r4, #0
 159 0066 0125     		movs	r5, #1
 160 0068 D0F8F005 		ldr	r0, [r0, #1520]
 161              	.LVL13:
 162 006c 0191     		str	r1, [sp, #4]
 163 006e 0292     		str	r2, [sp, #8]
 164 0070 1946     		mov	r1, r3
 165              	.LVL14:
 166 0072 0095     		str	r5, [sp]
 167 0074 2A46     		mov	r2, r5
 168              	.LVL15:
 169 0076 0394     		str	r4, [sp, #12]
ARM GAS  /tmp/ccMjFzvY.s 			page 4


 170 0078 2346     		mov	r3, r4
 171              	.LVL16:
 172 007a FFF7FEFF 		bl	HAL_HCD_HC_SubmitRequest
 173              	.LVL17:
 174              	.LBE27:
 175              	.LBE26:
 176              		.loc 1 174 0
 177 007e 2046     		mov	r0, r4
 178 0080 05B0     		add	sp, sp, #20
 179              		.cfi_def_cfa_offset 12
 180              		@ sp needed
 181 0082 30BD     		pop	{r4, r5, pc}
 182              		.cfi_endproc
 183              	.LFE135:
 184              		.size	USBH_CtlReceiveData, .-USBH_CtlReceiveData
 185              		.align	2
 186 0084 AFF30080 		.p2align 4,,15
 186      AFF30080 
 186      AFF30080 
 187              		.global	USBH_BulkSendData
 188              		.thumb
 189              		.thumb_func
 190              		.type	USBH_BulkSendData, %function
 191              	USBH_BulkSendData:
 192              	.LFB136:
 193              		.loc 1 191 0
 194              		.cfi_startproc
 195              		@ args = 4, pretend = 0, frame = 0
 196              		@ frame_needed = 0, uses_anonymous_args = 0
 197              	.LVL18:
 198 0090 30B5     		push	{r4, r5, lr}
 199              		.cfi_def_cfa_offset 12
 200              		.cfi_offset 4, -12
 201              		.cfi_offset 5, -8
 202              		.cfi_offset 14, -4
 203              		.loc 1 192 0
 204 0092 90F81D54 		ldrb	r5, [r0, #1053]	@ zero_extendqisi2
 205              	.LBB28:
 206              	.LBB29:
 207              		.loc 2 245 0
 208 0096 D0F8F005 		ldr	r0, [r0, #1520]
 209              	.LVL19:
 210              	.LBE29:
 211              	.LBE28:
 212              		.loc 1 191 0
 213 009a 85B0     		sub	sp, sp, #20
 214              		.cfi_def_cfa_offset 32
 215              		.loc 1 192 0
 216 009c 002D     		cmp	r5, #0
 217              		.loc 1 191 0
 218 009e 9DF82040 		ldrb	r4, [sp, #32]	@ zero_extendqisi2
 219              	.LBB31:
 220              	.LBB30:
 221              		.loc 2 245 0
 222 00a2 0191     		str	r1, [sp, #4]
 223 00a4 18BF     		it	ne
 224 00a6 0024     		movne	r4, #0
ARM GAS  /tmp/ccMjFzvY.s 			page 5


 225              	.LVL20:
 226 00a8 0125     		movs	r5, #1
 227 00aa 0292     		str	r2, [sp, #8]
 228 00ac 1946     		mov	r1, r3
 229              	.LVL21:
 230 00ae 0394     		str	r4, [sp, #12]
 231 00b0 0095     		str	r5, [sp]
 232 00b2 0022     		movs	r2, #0
 233              	.LVL22:
 234 00b4 0223     		movs	r3, #2
 235              	.LVL23:
 236 00b6 FFF7FEFF 		bl	HAL_HCD_HC_SubmitRequest
 237              	.LVL24:
 238              	.LBE30:
 239              	.LBE31:
 240              		.loc 1 206 0
 241 00ba 0020     		movs	r0, #0
 242 00bc 05B0     		add	sp, sp, #20
 243              		.cfi_def_cfa_offset 12
 244              		@ sp needed
 245 00be 30BD     		pop	{r4, r5, pc}
 246              		.cfi_endproc
 247              	.LFE136:
 248              		.size	USBH_BulkSendData, .-USBH_BulkSendData
 249              		.align	2
 250              		.p2align 4,,15
 251              		.global	USBH_BulkReceiveData
 252              		.thumb
 253              		.thumb_func
 254              		.type	USBH_BulkReceiveData, %function
 255              	USBH_BulkReceiveData:
 256              	.LFB137:
 257              		.loc 1 222 0
 258              		.cfi_startproc
 259              		@ args = 0, pretend = 0, frame = 0
 260              		@ frame_needed = 0, uses_anonymous_args = 0
 261              	.LVL25:
 262 00c0 30B5     		push	{r4, r5, lr}
 263              		.cfi_def_cfa_offset 12
 264              		.cfi_offset 4, -12
 265              		.cfi_offset 5, -8
 266              		.cfi_offset 14, -4
 267 00c2 85B0     		sub	sp, sp, #20
 268              		.cfi_def_cfa_offset 32
 269              	.LBB32:
 270              	.LBB33:
 271              		.loc 2 245 0
 272 00c4 0125     		movs	r5, #1
 273 00c6 0024     		movs	r4, #0
 274 00c8 D0F8F005 		ldr	r0, [r0, #1520]
 275              	.LVL26:
 276 00cc 0191     		str	r1, [sp, #4]
 277 00ce 0292     		str	r2, [sp, #8]
 278 00d0 1946     		mov	r1, r3
 279              	.LVL27:
 280 00d2 0095     		str	r5, [sp]
 281 00d4 2A46     		mov	r2, r5
ARM GAS  /tmp/ccMjFzvY.s 			page 6


 282              	.LVL28:
 283 00d6 0394     		str	r4, [sp, #12]
 284 00d8 0223     		movs	r3, #2
 285              	.LVL29:
 286 00da FFF7FEFF 		bl	HAL_HCD_HC_SubmitRequest
 287              	.LVL30:
 288              	.LBE33:
 289              	.LBE32:
 290              		.loc 1 232 0
 291 00de 2046     		mov	r0, r4
 292 00e0 05B0     		add	sp, sp, #20
 293              		.cfi_def_cfa_offset 12
 294              		@ sp needed
 295 00e2 30BD     		pop	{r4, r5, pc}
 296              		.cfi_endproc
 297              	.LFE137:
 298              		.size	USBH_BulkReceiveData, .-USBH_BulkReceiveData
 299              		.align	2
 300 00e4 AFF30080 		.p2align 4,,15
 300      AFF30080 
 300      AFF30080 
 301              		.global	USBH_InterruptReceiveData
 302              		.thumb
 303              		.thumb_func
 304              		.type	USBH_InterruptReceiveData, %function
 305              	USBH_InterruptReceiveData:
 306              	.LFB138:
 307              		.loc 1 248 0
 308              		.cfi_startproc
 309              		@ args = 0, pretend = 0, frame = 0
 310              		@ frame_needed = 0, uses_anonymous_args = 0
 311              	.LVL31:
 312 00f0 30B5     		push	{r4, r5, lr}
 313              		.cfi_def_cfa_offset 12
 314              		.cfi_offset 4, -12
 315              		.cfi_offset 5, -8
 316              		.cfi_offset 14, -4
 317 00f2 85B0     		sub	sp, sp, #20
 318              		.cfi_def_cfa_offset 32
 319              	.LBB34:
 320              	.LBB35:
 321              		.loc 2 245 0
 322 00f4 0125     		movs	r5, #1
 323 00f6 0024     		movs	r4, #0
 324 00f8 D0F8F005 		ldr	r0, [r0, #1520]
 325              	.LVL32:
 326 00fc 0191     		str	r1, [sp, #4]
 327 00fe 0292     		str	r2, [sp, #8]
 328 0100 1946     		mov	r1, r3
 329              	.LVL33:
 330 0102 0095     		str	r5, [sp]
 331 0104 2A46     		mov	r2, r5
 332              	.LVL34:
 333 0106 0394     		str	r4, [sp, #12]
 334 0108 0323     		movs	r3, #3
 335              	.LVL35:
 336 010a FFF7FEFF 		bl	HAL_HCD_HC_SubmitRequest
ARM GAS  /tmp/ccMjFzvY.s 			page 7


 337              	.LVL36:
 338              	.LBE35:
 339              	.LBE34:
 340              		.loc 1 259 0
 341 010e 2046     		mov	r0, r4
 342 0110 05B0     		add	sp, sp, #20
 343              		.cfi_def_cfa_offset 12
 344              		@ sp needed
 345 0112 30BD     		pop	{r4, r5, pc}
 346              		.cfi_endproc
 347              	.LFE138:
 348              		.size	USBH_InterruptReceiveData, .-USBH_InterruptReceiveData
 349              		.align	2
 350 0114 AFF30080 		.p2align 4,,15
 350      AFF30080 
 350      AFF30080 
 351              		.global	USBH_InterruptSendData
 352              		.thumb
 353              		.thumb_func
 354              		.type	USBH_InterruptSendData, %function
 355              	USBH_InterruptSendData:
 356              	.LFB139:
 357              		.loc 1 274 0
 358              		.cfi_startproc
 359              		@ args = 0, pretend = 0, frame = 0
 360              		@ frame_needed = 0, uses_anonymous_args = 0
 361              	.LVL37:
 362 0120 30B5     		push	{r4, r5, lr}
 363              		.cfi_def_cfa_offset 12
 364              		.cfi_offset 4, -12
 365              		.cfi_offset 5, -8
 366              		.cfi_offset 14, -4
 367 0122 85B0     		sub	sp, sp, #20
 368              		.cfi_def_cfa_offset 32
 369              	.LBB36:
 370              	.LBB37:
 371              		.loc 2 245 0
 372 0124 0024     		movs	r4, #0
 373 0126 0125     		movs	r5, #1
 374 0128 D0F8F005 		ldr	r0, [r0, #1520]
 375              	.LVL38:
 376 012c 0191     		str	r1, [sp, #4]
 377 012e 0292     		str	r2, [sp, #8]
 378 0130 1946     		mov	r1, r3
 379              	.LVL39:
 380 0132 0095     		str	r5, [sp]
 381 0134 0394     		str	r4, [sp, #12]
 382 0136 2246     		mov	r2, r4
 383              	.LVL40:
 384 0138 0323     		movs	r3, #3
 385              	.LVL41:
 386 013a FFF7FEFF 		bl	HAL_HCD_HC_SubmitRequest
 387              	.LVL42:
 388              	.LBE37:
 389              	.LBE36:
 390              		.loc 1 285 0
 391 013e 2046     		mov	r0, r4
ARM GAS  /tmp/ccMjFzvY.s 			page 8


 392 0140 05B0     		add	sp, sp, #20
 393              		.cfi_def_cfa_offset 12
 394              		@ sp needed
 395 0142 30BD     		pop	{r4, r5, pc}
 396              		.cfi_endproc
 397              	.LFE139:
 398              		.size	USBH_InterruptSendData, .-USBH_InterruptSendData
 399              		.align	2
 400 0144 AFF30080 		.p2align 4,,15
 400      AFF30080 
 400      AFF30080 
 401              		.global	USBH_IsocReceiveData
 402              		.thumb
 403              		.thumb_func
 404              		.type	USBH_IsocReceiveData, %function
 405              	USBH_IsocReceiveData:
 406              	.LFB140:
 407              		.loc 1 300 0
 408              		.cfi_startproc
 409              		@ args = 0, pretend = 0, frame = 0
 410              		@ frame_needed = 0, uses_anonymous_args = 0
 411              	.LVL43:
 412 0150 10B5     		push	{r4, lr}
 413              		.cfi_def_cfa_offset 8
 414              		.cfi_offset 4, -8
 415              		.cfi_offset 14, -4
 416 0152 84B0     		sub	sp, sp, #16
 417              		.cfi_def_cfa_offset 24
 418              	.LBB38:
 419              	.LBB39:
 420              		.loc 2 245 0
 421 0154 D0F8F005 		ldr	r0, [r0, #1520]
 422              	.LVL44:
 423 0158 0191     		str	r1, [sp, #4]
 424 015a 0024     		movs	r4, #0
 425 015c 91B2     		uxth	r1, r2
 426              	.LVL45:
 427 015e 0122     		movs	r2, #1
 428              	.LVL46:
 429 0160 0291     		str	r1, [sp, #8]
 430 0162 0092     		str	r2, [sp]
 431 0164 1946     		mov	r1, r3
 432              	.LVL47:
 433 0166 0394     		str	r4, [sp, #12]
 434 0168 1346     		mov	r3, r2
 435              	.LVL48:
 436 016a FFF7FEFF 		bl	HAL_HCD_HC_SubmitRequest
 437              	.LVL49:
 438              	.LBE39:
 439              	.LBE38:
 440              		.loc 1 312 0
 441 016e 2046     		mov	r0, r4
 442 0170 04B0     		add	sp, sp, #16
 443              		.cfi_def_cfa_offset 8
 444              		@ sp needed
 445 0172 10BD     		pop	{r4, pc}
 446              		.cfi_endproc
ARM GAS  /tmp/ccMjFzvY.s 			page 9


 447              	.LFE140:
 448              		.size	USBH_IsocReceiveData, .-USBH_IsocReceiveData
 449              		.align	2
 450 0174 AFF30080 		.p2align 4,,15
 450      AFF30080 
 450      AFF30080 
 451              		.global	USBH_IsocSendData
 452              		.thumb
 453              		.thumb_func
 454              		.type	USBH_IsocSendData, %function
 455              	USBH_IsocSendData:
 456              	.LFB141:
 457              		.loc 1 327 0
 458              		.cfi_startproc
 459              		@ args = 0, pretend = 0, frame = 0
 460              		@ frame_needed = 0, uses_anonymous_args = 0
 461              	.LVL50:
 462 0180 30B5     		push	{r4, r5, lr}
 463              		.cfi_def_cfa_offset 12
 464              		.cfi_offset 4, -12
 465              		.cfi_offset 5, -8
 466              		.cfi_offset 14, -4
 467 0182 85B0     		sub	sp, sp, #20
 468              		.cfi_def_cfa_offset 32
 469              	.LBB40:
 470              	.LBB41:
 471              		.loc 2 245 0
 472 0184 0024     		movs	r4, #0
 473 0186 0125     		movs	r5, #1
 474 0188 92B2     		uxth	r2, r2
 475              	.LVL51:
 476 018a D0F8F005 		ldr	r0, [r0, #1520]
 477              	.LVL52:
 478 018e 0191     		str	r1, [sp, #4]
 479 0190 0292     		str	r2, [sp, #8]
 480 0192 1946     		mov	r1, r3
 481              	.LVL53:
 482 0194 0095     		str	r5, [sp]
 483 0196 2B46     		mov	r3, r5
 484              	.LVL54:
 485 0198 0394     		str	r4, [sp, #12]
 486 019a 2246     		mov	r2, r4
 487              	.LVL55:
 488 019c FFF7FEFF 		bl	HAL_HCD_HC_SubmitRequest
 489              	.LVL56:
 490              	.LBE41:
 491              	.LBE40:
 492              		.loc 1 338 0
 493 01a0 2046     		mov	r0, r4
 494 01a2 05B0     		add	sp, sp, #20
 495              		.cfi_def_cfa_offset 12
 496              		@ sp needed
 497 01a4 30BD     		pop	{r4, r5, pc}
 498              		.cfi_endproc
 499              	.LFE141:
 500              		.size	USBH_IsocSendData, .-USBH_IsocSendData
 501              	.Letext0:
ARM GAS  /tmp/ccMjFzvY.s 			page 10


 502              		.file 3 "/home/sbcu/Dropbox/pcb-layouts/axo-on-discovery-board/axoloti/platform_linux/arm-none-eab
 503              		.file 4 "/home/sbcu/Dropbox/pcb-layouts/axo-on-discovery-board/axoloti/platform_linux/arm-none-eab
 504              		.file 5 "/home/sbcu/Dropbox/pcb-layouts/axo-on-discovery-board/axoloti/platform_linux/../chibios/o
 505              		.file 6 "/home/sbcu/Dropbox/pcb-layouts/axo-on-discovery-board/axoloti/platform_linux/../chibios/o
 506              		.file 7 "/home/sbcu/Dropbox/pcb-layouts/axo-on-discovery-board/axoloti/platform_linux/../chibios/o
 507              		.file 8 "/home/sbcu/Dropbox/pcb-layouts/axo-on-discovery-board/axoloti/platform_linux/../chibios/o
 508              		.file 9 "/home/sbcu/Dropbox/pcb-layouts/axo-on-discovery-board/axoloti/platform_linux/../chibios/o
 509              		.file 10 "./STM32_USB_Host_Library/Core/Inc/usbh_def.h"
 510              		.file 11 "/home/sbcu/Dropbox/pcb-layouts/axo-on-discovery-board/axoloti/platform_linux/../CMSIS//I