ARM GAS  /tmp/ccAQrkyD.s 			page 1


   1              		.syntax unified
   2              		.cpu cortex-m4
   3              		.eabi_attribute 27, 1
   4              		.eabi_attribute 28, 1
   5              		.fpu fpv4-sp-d16
   6              		.eabi_attribute 20, 1
   7              		.eabi_attribute 21, 1
   8              		.eabi_attribute 23, 3
   9              		.eabi_attribute 24, 1
  10              		.eabi_attribute 25, 1
  11              		.eabi_attribute 26, 1
  12              		.eabi_attribute 30, 2
  13              		.eabi_attribute 34, 1
  14              		.eabi_attribute 18, 4
  15              		.thumb
  16              		.file	"usbh_hid_parser.c"
  17              		.text
  18              	.Ltext0:
  19              		.cfi_sections	.debug_frame
  20              		.align	2
  21              		.p2align 4,,15
  22              		.global	HID_ReadItem
  23              		.thumb
  24              		.thumb_func
  25              		.type	HID_ReadItem, %function
  26              	HID_ReadItem:
  27              	.LFB133:
  28              		.file 1 "./STM32_USB_Host_Library/Class/HID/Src/usbh_hid_parser.c"
  29              		.loc 1 101 0
  30              		.cfi_startproc
  31              		@ args = 0, pretend = 0, frame = 0
  32              		@ frame_needed = 0, uses_anonymous_args = 0
  33              	.LVL0:
  34 0000 F0B5     		push	{r4, r5, r6, r7, lr}
  35              		.cfi_def_cfa_offset 20
  36              		.cfi_offset 4, -20
  37              		.cfi_offset 5, -16
  38              		.cfi_offset 6, -12
  39              		.cfi_offset 7, -8
  40              		.cfi_offset 14, -4
  41              		.loc 1 111 0
  42 0002 437A     		ldrb	r3, [r0, #9]	@ zero_extendqisi2
  43              		.loc 1 105 0
  44 0004 0668     		ldr	r6, [r0]
  45              	.LVL1:
  46              		.loc 1 106 0
  47 0006 90F808E0 		ldrb	lr, [r0, #8]	@ zero_extendqisi2
  48              	.LVL2:
  49              		.loc 1 111 0
  50 000a 63BB     		cbnz	r3, .L2
  51 000c 4768     		ldr	r7, [r0, #4]
  52              	.LVL3:
  53              	.L3:
  54              		.loc 1 127 0
  55 000e FD08     		lsrs	r5, r7, #3
  56 0010 6A1C     		adds	r2, r5, #1
  57 0012 17F0070F 		tst	r7, #7
ARM GAS  /tmp/ccAQrkyD.s 			page 2


  58 0016 4FF00003 		mov	r3, #0
  59 001a 18BF     		it	ne
  60 001c 1546     		movne	r5, r2
  61              		.loc 1 102 0
  62 001e 1A46     		mov	r2, r3
  63              		.loc 1 127 0
  64 0020 03E0     		b	.L5
  65              	.LVL4:
  66              	.L6:
  67              		.loc 1 129 0 discriminator 7
  68 0022 3278     		ldrb	r2, [r6]	@ zero_extendqisi2
  69 0024 DC00     		lsls	r4, r3, #3
  70 0026 A240     		lsls	r2, r2, r4
  71              	.LVL5:
  72              		.loc 1 127 0 discriminator 7
  73 0028 0133     		adds	r3, r3, #1
  74              	.LVL6:
  75              	.L5:
  76              		.loc 1 127 0 is_stmt 0 discriminator 1
  77 002a AB42     		cmp	r3, r5
  78 002c F9D1     		bne	.L6
  79              		.loc 1 131 0 is_stmt 1
  80 002e 0121     		movs	r1, #1
  81 0030 01FA07F4 		lsl	r4, r1, r7
  82 0034 22FA0EF2 		lsr	r2, r2, lr
  83 0038 631E     		subs	r3, r4, #1
  84              	.LVL7:
  85              		.loc 1 133 0
  86 003a C568     		ldr	r5, [r0, #12]
  87              		.loc 1 131 0
  88 003c 1A40     		ands	r2, r2, r3
  89              	.LVL8:
  90              		.loc 1 133 0
  91 003e AA42     		cmp	r2, r5
  92 0040 13D3     		bcc	.L10
  93              		.loc 1 133 0 is_stmt 0 discriminator 1
  94 0042 0369     		ldr	r3, [r0, #16]
  95 0044 9A42     		cmp	r2, r3
  96 0046 10D8     		bhi	.L10
  97              		.loc 1 140 0 is_stmt 1
  98 0048 837A     		ldrb	r3, [r0, #10]	@ zero_extendqisi2
  99 004a C3B1     		cbz	r3, .L7
 100              		.loc 1 140 0 is_stmt 0 discriminator 1
 101 004c 013F     		subs	r7, r7, #1
 102 004e B940     		lsls	r1, r1, r7
 103 0050 0A42     		tst	r2, r1
 104 0052 14D0     		beq	.L7
 105              	.LBB2:
 106              		.loc 1 145 0 is_stmt 1
 107 0054 C369     		ldr	r3, [r0, #28]
 108              		.loc 1 143 0
 109 0056 6042     		negs	r0, r4
 110              	.LVL9:
 111              		.loc 1 145 0
 112 0058 012B     		cmp	r3, #1
 113              		.loc 1 143 0
 114 005a 40EA0200 		orr	r0, r0, r2
ARM GAS  /tmp/ccAQrkyD.s 			page 3


 115              	.LVL10:
 116              		.loc 1 145 0
 117 005e 15D0     		beq	.L4
 118              		.loc 1 149 0
 119 0060 03FB00F0 		mul	r0, r3, r0
 120              	.LVL11:
 121 0064 F0BD     		pop	{r4, r5, r6, r7, pc}
 122              	.LVL12:
 123              	.L2:
 124              	.LBE2:
 125              		.loc 1 114 0
 126 0066 8B42     		cmp	r3, r1
 127 0068 01D8     		bhi	.L23
 128              	.LVL13:
 129              	.L10:
 130              		.loc 1 116 0
 131 006a 0020     		movs	r0, #0
 132              	.LVL14:
 133 006c F0BD     		pop	{r4, r5, r6, r7, pc}
 134              	.LVL15:
 135              	.L23:
 136              		.loc 1 120 0
 137 006e 4768     		ldr	r7, [r0, #4]
 138              	.LVL16:
 139              		.loc 1 121 0
 140 0070 07FB01E1 		mla	r1, r7, r1, lr
 141              	.LVL17:
 142              		.loc 1 123 0
 143 0074 06EBD106 		add	r6, r6, r1, lsr #3
 144              	.LVL18:
 145              		.loc 1 124 0
 146 0078 01F0070E 		and	lr, r1, #7
 147              	.LVL19:
 148 007c C7E7     		b	.L3
 149              	.LVL20:
 150              	.L7:
 151              		.loc 1 153 0
 152 007e C069     		ldr	r0, [r0, #28]
 153              	.LVL21:
 154 0080 0128     		cmp	r0, #1
 155 0082 02D0     		beq	.L11
 156              		.loc 1 157 0
 157 0084 00FB02F0 		mul	r0, r0, r2
 158 0088 F0BD     		pop	{r4, r5, r6, r7, pc}
 159              	.LVL22:
 160              	.L11:
 161 008a 1046     		mov	r0, r2
 162              	.L4:
 163              		.loc 1 159 0
 164 008c F0BD     		pop	{r4, r5, r6, r7, pc}
 165              		.cfi_endproc
 166              	.LFE133:
 167              		.size	HID_ReadItem, .-HID_ReadItem
 168 008e 00BF     		.align	2
 169              		.p2align 4,,15
 170              		.global	HID_WriteItem
 171              		.thumb
ARM GAS  /tmp/ccAQrkyD.s 			page 4


 172              		.thumb_func
 173              		.type	HID_WriteItem, %function
 174              	HID_WriteItem:
 175              	.LFB134:
 176              		.loc 1 169 0
 177              		.cfi_startproc
 178              		@ args = 0, pretend = 0, frame = 0
 179              		@ frame_needed = 0, uses_anonymous_args = 0
 180              		@ link register save eliminated.
 181              	.LVL23:
 182 0090 F0B4     		push	{r4, r5, r6, r7}
 183              		.cfi_def_cfa_offset 16
 184              		.cfi_offset 4, -16
 185              		.cfi_offset 5, -12
 186              		.cfi_offset 6, -8
 187              		.cfi_offset 7, -4
 188              		.loc 1 176 0
 189 0092 4369     		ldr	r3, [r0, #20]
 190              		.loc 1 174 0
 191 0094 057A     		ldrb	r5, [r0, #8]	@ zero_extendqisi2
 192              	.LVL24:
 193              		.loc 1 176 0
 194 0096 8B42     		cmp	r3, r1
 195 0098 2FD8     		bhi	.L36
 196              		.loc 1 176 0 is_stmt 0 discriminator 1
 197 009a 8369     		ldr	r3, [r0, #24]
 198 009c 9942     		cmp	r1, r3
 199 009e 2CD8     		bhi	.L36
 200              		.loc 1 182 0 is_stmt 1
 201 00a0 437A     		ldrb	r3, [r0, #9]	@ zero_extendqisi2
 202 00a2 6BBB     		cbnz	r3, .L26
 203 00a4 4468     		ldr	r4, [r0, #4]
 204              	.LVL25:
 205              	.L27:
 206              		.loc 1 199 0
 207 00a6 C369     		ldr	r3, [r0, #28]
 208              		.loc 1 205 0
 209 00a8 0126     		movs	r6, #1
 210 00aa A640     		lsls	r6, r6, r4
 211 00ac 013E     		subs	r6, r6, #1
 212              		.loc 1 199 0
 213 00ae 012B     		cmp	r3, #1
 214              		.loc 1 201 0
 215 00b0 18BF     		it	ne
 216 00b2 B1FBF3F1 		udivne	r1, r1, r3
 217              	.LVL26:
 218              		.loc 1 206 0
 219 00b6 3140     		ands	r1, r1, r6
 220              	.LVL27:
 221 00b8 A940     		lsls	r1, r1, r5
 222              	.LVL28:
 223              		.loc 1 208 0
 224 00ba 0023     		movs	r3, #0
 225 00bc 07E0     		b	.L30
 226              	.LVL29:
 227              	.L33:
 228              		.loc 1 210 0 discriminator 7
ARM GAS  /tmp/ccAQrkyD.s 			page 5


 229 00be 0768     		ldr	r7, [r0]
 230 00c0 FC5C     		ldrb	r4, [r7, r3]	@ zero_extendqisi2
 231 00c2 24EA0505 		bic	r5, r4, r5
 232 00c6 2A43     		orrs	r2, r2, r5
 233 00c8 FA54     		strb	r2, [r7, r3]
 234 00ca 4468     		ldr	r4, [r0, #4]
 235              		.loc 1 208 0 discriminator 7
 236 00cc 0133     		adds	r3, r3, #1
 237              	.LVL30:
 238              	.L30:
 239              		.loc 1 208 0 is_stmt 0 discriminator 1
 240 00ce 14F0070F 		tst	r4, #7
 241 00d2 4FEAD402 		lsr	r2, r4, #3
 242 00d6 18BF     		it	ne
 243 00d8 541C     		addne	r4, r2, #1
 244 00da 4FEAC302 		lsl	r2, r3, #3
 245              		.loc 1 210 0 is_stmt 1 discriminator 1
 246 00de 26FA02F5 		lsr	r5, r6, r2
 247              		.loc 1 208 0 discriminator 1
 248 00e2 08BF     		it	eq
 249 00e4 E408     		lsreq	r4, r4, #3
 250              		.loc 1 210 0 discriminator 1
 251 00e6 EDB2     		uxtb	r5, r5
 252 00e8 21FA02F2 		lsr	r2, r1, r2
 253              		.loc 1 208 0 discriminator 1
 254 00ec A342     		cmp	r3, r4
 255              		.loc 1 210 0 discriminator 1
 256 00ee 02EA0502 		and	r2, r2, r5
 257              		.loc 1 208 0 discriminator 1
 258 00f2 E4D3     		bcc	.L33
 259              	.LVL31:
 260              	.L34:
 261              		.loc 1 187 0
 262 00f4 0020     		movs	r0, #0
 263              	.LVL32:
 264              		.loc 1 213 0
 265 00f6 F0BC     		pop	{r4, r5, r6, r7}
 266              		.cfi_remember_state
 267              		.cfi_restore 4
 268              		.cfi_restore 5
 269              		.cfi_restore 6
 270              		.cfi_restore 7
 271              		.cfi_def_cfa_offset 0
 272 00f8 7047     		bx	lr
 273              	.LVL33:
 274              	.L36:
 275              		.cfi_restore_state
 276              		.loc 1 178 0
 277 00fa 0120     		movs	r0, #1
 278              	.LVL34:
 279              		.loc 1 213 0
 280 00fc F0BC     		pop	{r4, r5, r6, r7}
 281              		.cfi_remember_state
 282              		.cfi_restore 7
 283              		.cfi_restore 6
 284              		.cfi_restore 5
 285              		.cfi_restore 4
ARM GAS  /tmp/ccAQrkyD.s 			page 6


 286              		.cfi_def_cfa_offset 0
 287              	.LVL35:
 288 00fe 7047     		bx	lr
 289              	.LVL36:
 290              	.L26:
 291              		.cfi_restore_state
 292              		.loc 1 185 0
 293 0100 9342     		cmp	r3, r2
 294 0102 F7D2     		bcs	.L34
 295              		.loc 1 190 0
 296 0104 4468     		ldr	r4, [r0, #4]
 297              	.LVL37:
 298              		.loc 1 191 0
 299 0106 04FB0255 		mla	r5, r4, r2, r5
 300              	.LVL38:
 301              		.loc 1 194 0
 302 010a 05F00705 		and	r5, r5, #7
 303              	.LVL39:
 304 010e CAE7     		b	.L27
 305              		.cfi_endproc
 306              	.LFE134:
 307              		.size	HID_WriteItem, .-HID_WriteItem
 308              	.Letext0:
 309              		.file 2 "/home/sbcu/Dropbox/pcb-layouts/axo-on-discovery-board/axoloti/platform_linux/arm-none-eab
 310              		.file 3 "/home/sbcu/Dropbox/pcb-layouts/axo-on-discovery-board/axoloti/platform_linux/arm-none-eab
 311              		.file 4 "./STM32_USB_Host_Library/Class/HID/Inc/usbh_hid_parser.h"
 312              		.file 5 "/home/sbcu/Dropbox/pcb-layouts/axo-on-discovery-board/axoloti/platform_linux/../CMSIS//In
 313              		.section	.debug_info,"",%progbits
 314              	.Ldebug_info0:
 315 0000 8B020000 		.4byte	0x28b
 316 0004 0400     		.2byte	0x4
 317 0006 00000000 		.4byte	.Ldebug_abbrev0
 318 000a 04       		.byte	0x4
 319 000b 01       		.uleb128 0x1
 320 000c 00000000 		.4byte	.LASF34
 321 0010 01       		.byte	0x1
 322 0011 EF010000 		.4byte	.LASF35
 323 0015 47010000 		.4byte	.LASF36
 324 0019 00000000 		.4byte	.Ltext0
 325 001d 10010000 		.4byte	.Letext0-.Ltext0
 326 0021 00000000 		.4byte	.Ldebug_line0
 327 0025 02       		.uleb128 0x2
 328 0026 01       		.byte	0x1
 329 0027 06       		.byte	0x6
 330 0028 B7020000 		.4byte	.LASF0
 331 002c 03       		.uleb128 0x3
 332 002d FF000000 		.4byte	.LASF4
 333 0031 02       		.byte	0x2
 334 0032 1D       		.byte	0x1d
 335 0033 37000000 		.4byte	0x37
 336 0037 02       		.uleb128 0x2
 337 0038 01       		.byte	0x1
 338 0039 08       		.byte	0x8
 339 003a 93010000 		.4byte	.LASF1
 340 003e 02       		.uleb128 0x2
 341 003f 02       		.byte	0x2
 342 0040 05       		.byte	0x5
ARM GAS  /tmp/ccAQrkyD.s 			page 7


 343 0041 9B020000 		.4byte	.LASF2
 344 0045 02       		.uleb128 0x2
 345 0046 02       		.byte	0x2
 346 0047 07       		.byte	0x7
 347 0048 A6010000 		.4byte	.LASF3
 348 004c 03       		.uleb128 0x3
 349 004d 23010000 		.4byte	.LASF5
 350 0051 02       		.byte	0x2
 351 0052 3F       		.byte	0x3f
 352 0053 57000000 		.4byte	0x57
 353 0057 02       		.uleb128 0x2
 354 0058 04       		.byte	0x4
 355 0059 05       		.byte	0x5
 356 005a AE020000 		.4byte	.LASF6
 357 005e 03       		.uleb128 0x3
 358 005f B9010000 		.4byte	.LASF7
 359 0063 02       		.byte	0x2
 360 0064 41       		.byte	0x41
 361 0065 69000000 		.4byte	0x69
 362 0069 02       		.uleb128 0x2
 363 006a 04       		.byte	0x4
 364 006b 07       		.byte	0x7
 365 006c 28020000 		.4byte	.LASF8
 366 0070 02       		.uleb128 0x2
 367 0071 08       		.byte	0x8
 368 0072 05       		.byte	0x5
 369 0073 88020000 		.4byte	.LASF9
 370 0077 02       		.uleb128 0x2
 371 0078 08       		.byte	0x8
 372 0079 07       		.byte	0x7
 373 007a D9020000 		.4byte	.LASF10
 374 007e 04       		.uleb128 0x4
 375 007f 04       		.byte	0x4
 376 0080 05       		.byte	0x5
 377 0081 696E7400 		.ascii	"int\000"
 378 0085 02       		.uleb128 0x2
 379 0086 04       		.byte	0x4
 380 0087 07       		.byte	0x7
 381 0088 2D010000 		.4byte	.LASF11
 382 008c 03       		.uleb128 0x3
 383 008d 56020000 		.4byte	.LASF12
 384 0091 03       		.byte	0x3
 385 0092 14       		.byte	0x14
 386 0093 2C000000 		.4byte	0x2c
 387 0097 03       		.uleb128 0x3
 388 0098 77020000 		.4byte	.LASF13
 389 009c 03       		.byte	0x3
 390 009d 1F       		.byte	0x1f
 391 009e 4C000000 		.4byte	0x4c
 392 00a2 03       		.uleb128 0x3
 393 00a3 A5020000 		.4byte	.LASF14
 394 00a7 03       		.byte	0x3
 395 00a8 20       		.byte	0x20
 396 00a9 5E000000 		.4byte	0x5e
 397 00ad 02       		.uleb128 0x2
 398 00ae 04       		.byte	0x4
 399 00af 07       		.byte	0x7
ARM GAS  /tmp/ccAQrkyD.s 			page 8


 400 00b0 7F020000 		.4byte	.LASF15
 401 00b4 05       		.uleb128 0x5
 402 00b5 97000000 		.4byte	0x97
 403 00b9 02       		.uleb128 0x2
 404 00ba 01       		.byte	0x1
 405 00bb 08       		.byte	0x8
 406 00bc 51020000 		.4byte	.LASF16
 407 00c0 02       		.uleb128 0x2
 408 00c1 01       		.byte	0x1
 409 00c2 02       		.byte	0x2
 410 00c3 D3020000 		.4byte	.LASF17
 411 00c7 06       		.uleb128 0x6
 412 00c8 04       		.byte	0x4
 413 00c9 8C000000 		.4byte	0x8c
 414 00cd 07       		.uleb128 0x7
 415 00ce 20       		.byte	0x20
 416 00cf 04       		.byte	0x4
 417 00d0 3D       		.byte	0x3d
 418 00d1 4E010000 		.4byte	0x14e
 419 00d5 08       		.uleb128 0x8
 420 00d6 8E010000 		.4byte	.LASF18
 421 00da 04       		.byte	0x4
 422 00db 3F       		.byte	0x3f
 423 00dc C7000000 		.4byte	0xc7
 424 00e0 00       		.byte	0
 425 00e1 08       		.uleb128 0x8
 426 00e2 CE020000 		.4byte	.LASF19
 427 00e6 04       		.byte	0x4
 428 00e7 40       		.byte	0x40
 429 00e8 A2000000 		.4byte	0xa2
 430 00ec 04       		.byte	0x4
 431 00ed 08       		.uleb128 0x8
 432 00ee F9000000 		.4byte	.LASF20
 433 00f2 04       		.byte	0x4
 434 00f3 41       		.byte	0x41
 435 00f4 8C000000 		.4byte	0x8c
 436 00f8 08       		.byte	0x8
 437 00f9 08       		.uleb128 0x8
 438 00fa 1D010000 		.4byte	.LASF21
 439 00fe 04       		.byte	0x4
 440 00ff 42       		.byte	0x42
 441 0100 8C000000 		.4byte	0x8c
 442 0104 09       		.byte	0x9
 443 0105 08       		.uleb128 0x8
 444 0106 A1010000 		.4byte	.LASF22
 445 010a 04       		.byte	0x4
 446 010b 43       		.byte	0x43
 447 010c 8C000000 		.4byte	0x8c
 448 0110 0A       		.byte	0xa
 449 0111 08       		.uleb128 0x8
 450 0112 5E020000 		.4byte	.LASF23
 451 0116 04       		.byte	0x4
 452 0117 44       		.byte	0x44
 453 0118 A2000000 		.4byte	0xa2
 454 011c 0C       		.byte	0xc
 455 011d 08       		.uleb128 0x8
 456 011e C9010000 		.4byte	.LASF24
ARM GAS  /tmp/ccAQrkyD.s 			page 9


 457 0122 04       		.byte	0x4
 458 0123 45       		.byte	0x45
 459 0124 A2000000 		.4byte	0xa2
 460 0128 10       		.byte	0x10
 461 0129 08       		.uleb128 0x8
 462 012a 6A020000 		.4byte	.LASF25
 463 012e 04       		.byte	0x4
 464 012f 46       		.byte	0x46
 465 0130 A2000000 		.4byte	0xa2
 466 0134 14       		.byte	0x14
 467 0135 08       		.uleb128 0x8
 468 0136 D5010000 		.4byte	.LASF26
 469 013a 04       		.byte	0x4
 470 013b 47       		.byte	0x47
 471 013c A2000000 		.4byte	0xa2
 472 0140 18       		.byte	0x18
 473 0141 08       		.uleb128 0x8
 474 0142 C3020000 		.4byte	.LASF27
 475 0146 04       		.byte	0x4
 476 0147 48       		.byte	0x48
 477 0148 A2000000 		.4byte	0xa2
 478 014c 1C       		.byte	0x1c
 479 014d 00       		.byte	0
 480 014e 03       		.uleb128 0x3
 481 014f 3A020000 		.4byte	.LASF28
 482 0153 04       		.byte	0x4
 483 0154 4A       		.byte	0x4a
 484 0155 CD000000 		.4byte	0xcd
 485 0159 09       		.uleb128 0x9
 486 015a 3A010000 		.4byte	.LASF30
 487 015e 01       		.byte	0x1
 488 015f 64       		.byte	0x64
 489 0160 A2000000 		.4byte	0xa2
 490 0164 00000000 		.4byte	.LFB133
 491 0168 8E000000 		.4byte	.LFE133-.LFB133
 492 016c 01       		.uleb128 0x1
 493 016d 9C       		.byte	0x9c
 494 016e ED010000 		.4byte	0x1ed
 495 0172 0A       		.uleb128 0xa
 496 0173 726900   		.ascii	"ri\000"
 497 0176 01       		.byte	0x1
 498 0177 64       		.byte	0x64
 499 0178 ED010000 		.4byte	0x1ed
 500 017c 00000000 		.4byte	.LLST0
 501 0180 0A       		.uleb128 0xa
 502 0181 6E647800 		.ascii	"ndx\000"
 503 0185 01       		.byte	0x1
 504 0186 64       		.byte	0x64
 505 0187 8C000000 		.4byte	0x8c
 506 018b 53000000 		.4byte	.LLST1
 507 018f 0B       		.uleb128 0xb
 508 0190 76616C00 		.ascii	"val\000"
 509 0194 01       		.byte	0x1
 510 0195 66       		.byte	0x66
 511 0196 A2000000 		.4byte	0xa2
 512 019a A6000000 		.4byte	.LLST2
 513 019e 0B       		.uleb128 0xb
ARM GAS  /tmp/ccAQrkyD.s 			page 10


 514 019f 7800     		.ascii	"x\000"
 515 01a1 01       		.byte	0x1
 516 01a2 67       		.byte	0x67
 517 01a3 A2000000 		.4byte	0xa2
 518 01a7 F3000000 		.4byte	.LLST3
 519 01ab 0C       		.uleb128 0xc
 520 01ac C4010000 		.4byte	.LASF29
 521 01b0 01       		.byte	0x1
 522 01b1 68       		.byte	0x68
 523 01b2 A2000000 		.4byte	0xa2
 524 01b6 2A010000 		.4byte	.LLST4
 525 01ba 0D       		.uleb128 0xd
 526 01bb 8E010000 		.4byte	.LASF18
 527 01bf 01       		.byte	0x1
 528 01c0 69       		.byte	0x69
 529 01c1 C7000000 		.4byte	0xc7
 530 01c5 01       		.uleb128 0x1
 531 01c6 56       		.byte	0x56
 532 01c7 0D       		.uleb128 0xd
 533 01c8 F9000000 		.4byte	.LASF20
 534 01cc 01       		.byte	0x1
 535 01cd 6A       		.byte	0x6a
 536 01ce 8C000000 		.4byte	0x8c
 537 01d2 01       		.uleb128 0x1
 538 01d3 5E       		.byte	0x5e
 539 01d4 0E       		.uleb128 0xe
 540 01d5 54000000 		.4byte	.LBB2
 541 01d9 12000000 		.4byte	.LBE2-.LBB2
 542 01dd 0B       		.uleb128 0xb
 543 01de 767300   		.ascii	"vs\000"
 544 01e1 01       		.byte	0x1
 545 01e2 8F       		.byte	0x8f
 546 01e3 7E000000 		.4byte	0x7e
 547 01e7 4D010000 		.4byte	.LLST5
 548 01eb 00       		.byte	0
 549 01ec 00       		.byte	0
 550 01ed 06       		.uleb128 0x6
 551 01ee 04       		.byte	0x4
 552 01ef 4E010000 		.4byte	0x14e
 553 01f3 09       		.uleb128 0x9
 554 01f4 09010000 		.4byte	.LASF31
 555 01f8 01       		.byte	0x1
 556 01f9 A8       		.byte	0xa8
 557 01fa A2000000 		.4byte	0xa2
 558 01fe 90000000 		.4byte	.LFB134
 559 0202 80000000 		.4byte	.LFE134-.LFB134
 560 0206 01       		.uleb128 0x1
 561 0207 9C       		.byte	0x9c
 562 0208 82020000 		.4byte	0x282
 563 020c 0A       		.uleb128 0xa
 564 020d 726900   		.ascii	"ri\000"
 565 0210 01       		.byte	0x1
 566 0211 A8       		.byte	0xa8
 567 0212 ED010000 		.4byte	0x1ed
 568 0216 71010000 		.4byte	.LLST6
 569 021a 0F       		.uleb128 0xf
 570 021b 17010000 		.4byte	.LASF32
ARM GAS  /tmp/ccAQrkyD.s 			page 11


 571 021f 01       		.byte	0x1
 572 0220 A8       		.byte	0xa8
 573 0221 A2000000 		.4byte	0xa2
 574 0225 B6010000 		.4byte	.LLST7
 575 0229 0A       		.uleb128 0xa
 576 022a 6E647800 		.ascii	"ndx\000"
 577 022e 01       		.byte	0x1
 578 022f A8       		.byte	0xa8
 579 0230 8C000000 		.4byte	0x8c
 580 0234 DF010000 		.4byte	.LLST8
 581 0238 0B       		.uleb128 0xb
 582 0239 7800     		.ascii	"x\000"
 583 023b 01       		.byte	0x1
 584 023c AA       		.byte	0xaa
 585 023d A2000000 		.4byte	0xa2
 586 0241 0B020000 		.4byte	.LLST9
 587 0245 0C       		.uleb128 0xc
 588 0246 96020000 		.4byte	.LASF33
 589 024a 01       		.byte	0x1
 590 024b AB       		.byte	0xab
 591 024c A2000000 		.4byte	0xa2
 592 0250 2A020000 		.4byte	.LLST10
 593 0254 0C       		.uleb128 0xc
 594 0255 C4010000 		.4byte	.LASF29
 595 0259 01       		.byte	0x1
 596 025a AC       		.byte	0xac
 597 025b A2000000 		.4byte	0xa2
 598 025f 3D020000 		.4byte	.LLST11
 599 0263 0C       		.uleb128 0xc
 600 0264 8E010000 		.4byte	.LASF18
 601 0268 01       		.byte	0x1
 602 0269 AD       		.byte	0xad
 603 026a C7000000 		.4byte	0xc7
 604 026e 73020000 		.4byte	.LLST12
 605 0272 0C       		.uleb128 0xc
 606 0273 F9000000 		.4byte	.LASF20
 607 0277 01       		.byte	0x1
 608 0278 AE       		.byte	0xae
 609 0279 8C000000 		.4byte	0x8c
 610 027d E6020000 		.4byte	.LLST13
 611 0281 00       		.byte	0
 612 0282 10       		.uleb128 0x10
 613 0283 E2010000 		.4byte	.LASF37
 614 0287 05       		.byte	0x5
 615 0288 DF07     		.2byte	0x7df
 616 028a B4000000 		.4byte	0xb4
 617 028e 00       		.byte	0
 618              		.section	.debug_abbrev,"",%progbits
 619              	.Ldebug_abbrev0:
 620 0000 01       		.uleb128 0x1
 621 0001 11       		.uleb128 0x11
 622 0002 01       		.byte	0x1
 623 0003 25       		.uleb128 0x25
 624 0004 0E       		.uleb128 0xe
 625 0005 13       		.uleb128 0x13
 626 0006 0B       		.uleb128 0xb
 627 0007 03       		.uleb128 0x3
ARM GAS  /tmp/ccAQrkyD.s 			page 12


 628 0008 0E       		.uleb128 0xe
 629 0009 1B       		.uleb128 0x1b
 630 000a 0E       		.uleb128 0xe
 631 000b 11       		.uleb128 0x11
 632 000c 01       		.uleb128 0x1
 633 000d 12       		.uleb128 0x12
 634 000e 06       		.uleb128 0x6
 635 000f 10       		.uleb128 0x10
 636 0010 17       		.uleb128 0x17
 637 0011 00       		.byte	0
 638 0012 00       		.byte	0
 639 0013 02       		.uleb128 0x2
 640 0014 24       		.uleb128 0x24
 641 0015 00       		.byte	0
 642 0016 0B       		.uleb128 0xb
 643 0017 0B       		.uleb128 0xb
 644 0018 3E       		.uleb128 0x3e
 645 0019 0B       		.uleb128 0xb
 646 001a 03       		.uleb128 0x3
 647 001b 0E       		.uleb128 0xe
 648 001c 00       		.byte	0
 649 001d 00       		.byte	0
 650 001e 03       		.uleb128 0x3
 651 001f 16       		.uleb128 0x16
 652 0020 00       		.byte	0
 653 0021 03       		.uleb128 0x3
 654 0022 0E       		.uleb128 0xe
 655 0023 3A       		.uleb128 0x3a
 656 0024 0B       		.uleb128 0xb
 657 0025 3B       		.uleb128 0x3b
 658 0026 0B       		.uleb128 0xb
 659 0027 49       		.uleb128 0x49
 660 0028 13       		.uleb128 0x13
 661 0029 00       		.byte	0
 662 002a 00       		.byte	0
 663 002b 04       		.uleb128 0x4
 664 002c 24       		.uleb128 0x24
 665 002d 00       		.byte	0
 666 002e 0B       		.uleb128 0xb
 667 002f 0B       		.uleb128 0xb
 668 0030 3E       		.uleb128 0x3e
 669 0031 0B       		.uleb128 0xb
 670 0032 03       		.uleb128 0x3
 671 0033 08       		.uleb128 0x8
 672 0034 00       		.byte	0
 673 0035 00       		.byte	0
 674 0036 05       		.uleb128 0x5
 675 0037 35       		.uleb128 0x35
 676 0038 00       		.byte	0
 677 0039 49       		.uleb128 0x49
 678 003a 13       		.uleb128 0x13
 679 003b 00       		.byte	0
 680 003c 00       		.byte	0
 681 003d 06       		.uleb128 0x6
 682 003e 0F       		.uleb128 0xf
 683 003f 00       		.byte	0
 684 0040 0B       		.uleb128 0xb
ARM GAS  /tmp/ccAQrkyD.s 			page 13


 685 0041 0B       		.uleb128 0xb
 686 0042 49       		.uleb128 0x49
 687 0043 13       		.uleb128 0x13
 688 0044 00       		.byte	0
 689 0045 00       		.byte	0
 690 0046 07       		.uleb128 0x7
 691 0047 13       		.uleb128 0x13
 692 0048 01       		.byte	0x1
 693 0049 0B       		.uleb128 0xb
 694 004a 0B       		.uleb128 0xb
 695 004b 3A       		.uleb128 0x3a
 696 004c 0B       		.uleb128 0xb
 697 004d 3B       		.uleb128 0x3b
 698 004e 0B       		.uleb128 0xb
 699 004f 01       		.uleb128 0x1
 700 0050 13       		.uleb128 0x13
 701 0051 00       		.byte	0
 702 0052 00       		.byte	0
 703 0053 08       		.uleb128 0x8
 704 0054 0D       		.uleb128 0xd
 705 0055 00       		.byte	0
 706 0056 03       		.uleb128 0x3
 707 0057 0E       		.uleb128 0xe
 708 0058 3A       		.uleb128 0x3a
 709 0059 0B       		.uleb128 0xb
 710 005a 3B       		.uleb128 0x3b
 711 005b 0B       		.uleb128 0xb
 712 005c 49       		.uleb128 0x49
 713 005d 13       		.uleb128 0x13
 714 005e 38       		.uleb128 0x38
 715 005f 0B       		.uleb128 0xb
 716 0060 00       		.byte	0
 717 0061 00       		.byte	0
 718 0062 09       		.uleb128 0x9
 719 0063 2E       		.uleb128 0x2e
 720 0064 01       		.byte	0x1
 721 0065 3F       		.uleb128 0x3f
 722 0066 19       		.uleb128 0x19
 723 0067 03       		.uleb128 0x3
 724 0068 0E       		.uleb128 0xe
 725 0069 3A       		.uleb128 0x3a
 726 006a 0B       		.uleb128 0xb
 727 006b 3B       		.uleb128 0x3b
 728 006c 0B       		.uleb128 0xb
 729 006d 27       		.uleb128 0x27
 730 006e 19       		.uleb128 0x19
 731 006f 49       		.uleb128 0x49
 732 0070 13       		.uleb128 0x13
 733 0071 11       		.uleb128 0x11
 734 0072 01       		.uleb128 0x1
 735 0073 12       		.uleb128 0x12
 736 0074 06       		.uleb128 0x6
 737 0075 40       		.uleb128 0x40
 738 0076 18       		.uleb128 0x18
 739 0077 9742     		.uleb128 0x2117
 740 0079 19       		.uleb128 0x19
 741 007a 01       		.uleb128 0x1
ARM GAS  /tmp/ccAQrkyD.s 			page 14


 742 007b 13       		.uleb128 0x13
 743 007c 00       		.byte	0
 744 007d 00       		.byte	0
 745 007e 0A       		.uleb128 0xa
 746 007f 05       		.uleb128 0x5
 747 0080 00       		.byte	0
 748 0081 03       		.uleb128 0x3
 749 0082 08       		.uleb128 0x8
 750 0083 3A       		.uleb128 0x3a
 751 0084 0B       		.uleb128 0xb
 752 0085 3B       		.uleb128 0x3b
 753 0086 0B       		.uleb128 0xb
 754 0087 49       		.uleb128 0x49
 755 0088 13       		.uleb128 0x13
 756 0089 02       		.uleb128 0x2
 757 008a 17       		.uleb128 0x17
 758 008b 00       		.byte	0
 759 008c 00       		.byte	0
 760 008d 0B       		.uleb128 0xb
 761 008e 34       		.uleb128 0x34
 762 008f 00       		.byte	0
 763 0090 03       		.uleb128 0x3
 764 0091 08       		.uleb128 0x8
 765 0092 3A       		.uleb128 0x3a
 766 0093 0B       		.uleb128 0xb
 767 0094 3B       		.uleb128 0x3b
 768 0095 0B       		.uleb128 0xb
 769 0096 49       		.uleb128 0x49
 770 0097 13       		.uleb128 0x13
 771 0098 02       		.uleb128 0x2
 772 0099 17       		.uleb128 0x17
 773 009a 00       		.byte	0
 774 009b 00       		.byte	0
 775 009c 0C       		.uleb128 0xc
 776 009d 34       		.uleb128 0x34
 777 009e 00       		.byte	0
 778 009f 03       		.uleb128 0x3
 779 00a0 0E       		.uleb128 0xe
 780 00a1 3A       		.uleb128 0x3a
 781 00a2 0B       		.uleb128 0xb
 782 00a3 3B       		.uleb128 0x3b
 783 00a4 0B       		.uleb128 0xb
 784 00a5 49       		.uleb128 0x49
 785 00a6 13       		.uleb128 0x13
 786 00a7 02       		.uleb128 0x2
 787 00a8 17       		.uleb128 0x17
 788 00a9 00       		.byte	0
 789 00aa 00       		.byte	0
 790 00ab 0D       		.uleb128 0xd
 791 00ac 34       		.uleb128 0x34
 792 00ad 00       		.byte	0
 793 00ae 03       		.uleb128 0x3
 794 00af 0E       		.uleb128 0xe
 795 00b0 3A       		.uleb128 0x3a
 796 00b1 0B       		.uleb128 0xb
 797 00b2 3B       		.uleb128 0x3b
 798 00b3 0B       		.uleb128 0xb
ARM GAS  /tmp/ccAQrkyD.s 			page 15


 799 00b4 49       		.uleb128 0x49
 800 00b5 13       		.uleb128 0x13
 801 00b6 02       		.uleb128 0x2
 802 00b7 18       		.uleb128 0x18
 803 00b8 00       		.byte	0
 804 00b9 00       		.byte	0
 805 00ba 0E       		.uleb128 0xe
 806 00bb 0B       		.uleb128 0xb
 807 00bc 01       		.byte	0x1
 808 00bd 11       		.uleb128 0x11
 809 00be 01       		.uleb128 0x1
 810 00bf 12       		.uleb128 0x12
 811 00c0 06       		.uleb128 0x6
 812 00c1 00       		.byte	0
 813 00c2 00       		.byte	0
 814 00c3 0F       		.uleb128 0xf
 815 00c4 05       		.uleb128 0x5
 816 00c5 00       		.byte	0
 817 00c6 03       		.uleb128 0x3
 818 00c7 0E       		.uleb128 0xe
 819 00c8 3A       		.uleb128 0x3a
 820 00c9 0B       		.uleb128 0xb
 821 00ca 3B       		.uleb128 0x3b
 822 00cb 0B       		.uleb128 0xb
 823 00cc 49       		.uleb128 0x49
 824 00cd 13       		.uleb128 0x13
 825 00ce 02       		.uleb128 0x2
 826 00cf 17       		.uleb128 0x17
 827 00d0 00       		.byte	0
 828 00d1 00       		.byte	0
 829 00d2 10       		.uleb128 0x10
 830 00d3 34       		.uleb128 0x34
 831 00d4 00       		.byte	0
 832 00d5 03       		.uleb128 0x3
 833 00d6 0E       		.uleb128 0xe
 834 00d7 3A       		.uleb128 0x3a
 835 00d8 0B       		.uleb128 0xb
 836 00d9 3B       		.uleb128 0x3b
 837 00da 05       		.uleb128 0x5
 838 00db 49       		.uleb128 0x49
 839 00dc 13       		.uleb128 0x13
 840 00dd 3F       		.uleb128 0x3f
 841 00de 19       		.uleb128 0x19
 842 00df 3C       		.uleb128 0x3c
 843 00e0 19       		.uleb128 0x19
 844 00e1 00       		.byte	0
 845 00e2 00       		.byte	0
 846 00e3 00       		.byte	0
 847              		.section	.debug_loc,"",%progbits
 848              	.Ldebug_loc0:
 849              	.LLST0:
 850 0000 00000000 		.4byte	.LVL0-.Ltext0
 851 0004 58000000 		.4byte	.LVL9-.Ltext0
 852 0008 0100     		.2byte	0x1
 853 000a 50       		.byte	0x50
 854 000b 58000000 		.4byte	.LVL9-.Ltext0
 855 000f 66000000 		.4byte	.LVL12-.Ltext0
ARM GAS  /tmp/ccAQrkyD.s 			page 16


 856 0013 0400     		.2byte	0x4
 857 0015 F3       		.byte	0xf3
 858 0016 01       		.uleb128 0x1
 859 0017 50       		.byte	0x50
 860 0018 9F       		.byte	0x9f
 861 0019 66000000 		.4byte	.LVL12-.Ltext0
 862 001d 6C000000 		.4byte	.LVL14-.Ltext0
 863 0021 0100     		.2byte	0x1
 864 0023 50       		.byte	0x50
 865 0024 6C000000 		.4byte	.LVL14-.Ltext0
 866 0028 6E000000 		.4byte	.LVL15-.Ltext0
 867 002c 0400     		.2byte	0x4
 868 002e F3       		.byte	0xf3
 869 002f 01       		.uleb128 0x1
 870 0030 50       		.byte	0x50
 871 0031 9F       		.byte	0x9f
 872 0032 6E000000 		.4byte	.LVL15-.Ltext0
 873 0036 80000000 		.4byte	.LVL21-.Ltext0
 874 003a 0100     		.2byte	0x1
 875 003c 50       		.byte	0x50
 876 003d 80000000 		.4byte	.LVL21-.Ltext0
 877 0041 8E000000 		.4byte	.LFE133-.Ltext0
 878 0045 0400     		.2byte	0x4
 879 0047 F3       		.byte	0xf3
 880 0048 01       		.uleb128 0x1
 881 0049 50       		.byte	0x50
 882 004a 9F       		.byte	0x9f
 883 004b 00000000 		.4byte	0
 884 004f 00000000 		.4byte	0
 885              	.LLST1:
 886 0053 00000000 		.4byte	.LVL0-.Ltext0
 887 0057 0E000000 		.4byte	.LVL3-.Ltext0
 888 005b 0100     		.2byte	0x1
 889 005d 51       		.byte	0x51
 890 005e 0E000000 		.4byte	.LVL3-.Ltext0
 891 0062 66000000 		.4byte	.LVL12-.Ltext0
 892 0066 0400     		.2byte	0x4
 893 0068 F3       		.byte	0xf3
 894 0069 01       		.uleb128 0x1
 895 006a 51       		.byte	0x51
 896 006b 9F       		.byte	0x9f
 897 006c 66000000 		.4byte	.LVL12-.Ltext0
 898 0070 6A000000 		.4byte	.LVL13-.Ltext0
 899 0074 0100     		.2byte	0x1
 900 0076 51       		.byte	0x51
 901 0077 6A000000 		.4byte	.LVL13-.Ltext0
 902 007b 6E000000 		.4byte	.LVL15-.Ltext0
 903 007f 0400     		.2byte	0x4
 904 0081 F3       		.byte	0xf3
 905 0082 01       		.uleb128 0x1
 906 0083 51       		.byte	0x51
 907 0084 9F       		.byte	0x9f
 908 0085 6E000000 		.4byte	.LVL15-.Ltext0
 909 0089 74000000 		.4byte	.LVL17-.Ltext0
 910 008d 0100     		.2byte	0x1
 911 008f 51       		.byte	0x51
 912 0090 74000000 		.4byte	.LVL17-.Ltext0
ARM GAS  /tmp/ccAQrkyD.s 			page 17


 913 0094 8E000000 		.4byte	.LFE133-.Ltext0
 914 0098 0400     		.2byte	0x4
 915 009a F3       		.byte	0xf3
 916 009b 01       		.uleb128 0x1
 917 009c 51       		.byte	0x51
 918 009d 9F       		.byte	0x9f
 919 009e 00000000 		.4byte	0
 920 00a2 00000000 		.4byte	0
 921              	.LLST2:
 922 00a6 00000000 		.4byte	.LVL0-.Ltext0
 923 00aa 22000000 		.4byte	.LVL4-.Ltext0
 924 00ae 0200     		.2byte	0x2
 925 00b0 30       		.byte	0x30
 926 00b1 9F       		.byte	0x9f
 927 00b2 28000000 		.4byte	.LVL5-.Ltext0
 928 00b6 2A000000 		.4byte	.LVL6-.Ltext0
 929 00ba 0100     		.2byte	0x1
 930 00bc 52       		.byte	0x52
 931 00bd 3E000000 		.4byte	.LVL8-.Ltext0
 932 00c1 66000000 		.4byte	.LVL12-.Ltext0
 933 00c5 0100     		.2byte	0x1
 934 00c7 52       		.byte	0x52
 935 00c8 66000000 		.4byte	.LVL12-.Ltext0
 936 00cc 6A000000 		.4byte	.LVL13-.Ltext0
 937 00d0 0200     		.2byte	0x2
 938 00d2 30       		.byte	0x30
 939 00d3 9F       		.byte	0x9f
 940 00d4 6E000000 		.4byte	.LVL15-.Ltext0
 941 00d8 7E000000 		.4byte	.LVL20-.Ltext0
 942 00dc 0200     		.2byte	0x2
 943 00de 30       		.byte	0x30
 944 00df 9F       		.byte	0x9f
 945 00e0 7E000000 		.4byte	.LVL20-.Ltext0
 946 00e4 8E000000 		.4byte	.LFE133-.Ltext0
 947 00e8 0100     		.2byte	0x1
 948 00ea 52       		.byte	0x52
 949 00eb 00000000 		.4byte	0
 950 00ef 00000000 		.4byte	0
 951              	.LLST3:
 952 00f3 00000000 		.4byte	.LVL0-.Ltext0
 953 00f7 22000000 		.4byte	.LVL4-.Ltext0
 954 00fb 0200     		.2byte	0x2
 955 00fd 30       		.byte	0x30
 956 00fe 9F       		.byte	0x9f
 957 00ff 22000000 		.4byte	.LVL4-.Ltext0
 958 0103 3A000000 		.4byte	.LVL7-.Ltext0
 959 0107 0100     		.2byte	0x1
 960 0109 53       		.byte	0x53
 961 010a 66000000 		.4byte	.LVL12-.Ltext0
 962 010e 6A000000 		.4byte	.LVL13-.Ltext0
 963 0112 0200     		.2byte	0x2
 964 0114 30       		.byte	0x30
 965 0115 9F       		.byte	0x9f
 966 0116 6E000000 		.4byte	.LVL15-.Ltext0
 967 011a 7E000000 		.4byte	.LVL20-.Ltext0
 968 011e 0200     		.2byte	0x2
 969 0120 30       		.byte	0x30
ARM GAS  /tmp/ccAQrkyD.s 			page 18


 970 0121 9F       		.byte	0x9f
 971 0122 00000000 		.4byte	0
 972 0126 00000000 		.4byte	0
 973              	.LLST4:
 974 012a 70000000 		.4byte	.LVL16-.Ltext0
 975 012e 74000000 		.4byte	.LVL17-.Ltext0
 976 0132 0600     		.2byte	0x6
 977 0134 77       		.byte	0x77
 978 0135 00       		.sleb128 0
 979 0136 71       		.byte	0x71
 980 0137 00       		.sleb128 0
 981 0138 1E       		.byte	0x1e
 982 0139 9F       		.byte	0x9f
 983 013a 74000000 		.4byte	.LVL17-.Ltext0
 984 013e 7E000000 		.4byte	.LVL20-.Ltext0
 985 0142 0100     		.2byte	0x1
 986 0144 51       		.byte	0x51
 987 0145 00000000 		.4byte	0
 988 0149 00000000 		.4byte	0
 989              	.LLST5:
 990 014d 5E000000 		.4byte	.LVL10-.Ltext0
 991 0151 64000000 		.4byte	.LVL11-.Ltext0
 992 0155 0100     		.2byte	0x1
 993 0157 50       		.byte	0x50
 994 0158 64000000 		.4byte	.LVL11-.Ltext0
 995 015c 66000000 		.4byte	.LVL12-.Ltext0
 996 0160 0700     		.2byte	0x7
 997 0162 74       		.byte	0x74
 998 0163 00       		.sleb128 0
 999 0164 1F       		.byte	0x1f
 1000 0165 72       		.byte	0x72
 1001 0166 00       		.sleb128 0
 1002 0167 21       		.byte	0x21
 1003 0168 9F       		.byte	0x9f
 1004 0169 00000000 		.4byte	0
 1005 016d 00000000 		.4byte	0
 1006              	.LLST6:
 1007 0171 90000000 		.4byte	.LVL23-.Ltext0
 1008 0175 F6000000 		.4byte	.LVL32-.Ltext0
 1009 0179 0100     		.2byte	0x1
 1010 017b 50       		.byte	0x50
 1011 017c F6000000 		.4byte	.LVL32-.Ltext0
 1012 0180 FA000000 		.4byte	.LVL33-.Ltext0
 1013 0184 0400     		.2byte	0x4
 1014 0186 F3       		.byte	0xf3
 1015 0187 01       		.uleb128 0x1
 1016 0188 50       		.byte	0x50
 1017 0189 9F       		.byte	0x9f
 1018 018a FA000000 		.4byte	.LVL33-.Ltext0
 1019 018e FC000000 		.4byte	.LVL34-.Ltext0
 1020 0192 0100     		.2byte	0x1
 1021 0194 50       		.byte	0x50
 1022 0195 FC000000 		.4byte	.LVL34-.Ltext0
 1023 0199 00010000 		.4byte	.LVL36-.Ltext0
 1024 019d 0400     		.2byte	0x4
 1025 019f F3       		.byte	0xf3
 1026 01a0 01       		.uleb128 0x1
ARM GAS  /tmp/ccAQrkyD.s 			page 19


 1027 01a1 50       		.byte	0x50
 1028 01a2 9F       		.byte	0x9f
 1029 01a3 00010000 		.4byte	.LVL36-.Ltext0
 1030 01a7 10010000 		.4byte	.LFE134-.Ltext0
 1031 01ab 0100     		.2byte	0x1
 1032 01ad 50       		.byte	0x50
 1033 01ae 00000000 		.4byte	0
 1034 01b2 00000000 		.4byte	0
 1035              	.LLST7:
 1036 01b6 90000000 		.4byte	.LVL23-.Ltext0
 1037 01ba B6000000 		.4byte	.LVL26-.Ltext0
 1038 01be 0100     		.2byte	0x1
 1039 01c0 51       		.byte	0x51
 1040 01c1 B6000000 		.4byte	.LVL26-.Ltext0
 1041 01c5 B8000000 		.4byte	.LVL27-.Ltext0
 1042 01c9 0100     		.2byte	0x1
 1043 01cb 51       		.byte	0x51
 1044 01cc BA000000 		.4byte	.LVL28-.Ltext0
 1045 01d0 10010000 		.4byte	.LFE134-.Ltext0
 1046 01d4 0100     		.2byte	0x1
 1047 01d6 51       		.byte	0x51
 1048 01d7 00000000 		.4byte	0
 1049 01db 00000000 		.4byte	0
 1050              	.LLST8:
 1051 01df 90000000 		.4byte	.LVL23-.Ltext0
 1052 01e3 BE000000 		.4byte	.LVL29-.Ltext0
 1053 01e7 0100     		.2byte	0x1
 1054 01e9 52       		.byte	0x52
 1055 01ea BE000000 		.4byte	.LVL29-.Ltext0
 1056 01ee FA000000 		.4byte	.LVL33-.Ltext0
 1057 01f2 0400     		.2byte	0x4
 1058 01f4 F3       		.byte	0xf3
 1059 01f5 01       		.uleb128 0x1
 1060 01f6 52       		.byte	0x52
 1061 01f7 9F       		.byte	0x9f
 1062 01f8 FA000000 		.4byte	.LVL33-.Ltext0
 1063 01fc 10010000 		.4byte	.LFE134-.Ltext0
 1064 0200 0100     		.2byte	0x1
 1065 0202 52       		.byte	0x52
 1066 0203 00000000 		.4byte	0
 1067 0207 00000000 		.4byte	0
 1068              	.LLST9:
 1069 020b BA000000 		.4byte	.LVL28-.Ltext0
 1070 020f BE000000 		.4byte	.LVL29-.Ltext0
 1071 0213 0200     		.2byte	0x2
 1072 0215 30       		.byte	0x30
 1073 0216 9F       		.byte	0x9f
 1074 0217 BE000000 		.4byte	.LVL29-.Ltext0
 1075 021b F4000000 		.4byte	.LVL31-.Ltext0
 1076 021f 0100     		.2byte	0x1
 1077 0221 53       		.byte	0x53
 1078 0222 00000000 		.4byte	0
 1079 0226 00000000 		.4byte	0
 1080              	.LLST10:
 1081 022a B6000000 		.4byte	.LVL26-.Ltext0
 1082 022e F4000000 		.4byte	.LVL31-.Ltext0
 1083 0232 0100     		.2byte	0x1
ARM GAS  /tmp/ccAQrkyD.s 			page 20


 1084 0234 56       		.byte	0x56
 1085 0235 00000000 		.4byte	0
 1086 0239 00000000 		.4byte	0
 1087              	.LLST11:
 1088 023d 06010000 		.4byte	.LVL37-.Ltext0
 1089 0241 0A010000 		.4byte	.LVL38-.Ltext0
 1090 0245 0C00     		.2byte	0xc
 1091 0247 74       		.byte	0x74
 1092 0248 00       		.sleb128 0
 1093 0249 72       		.byte	0x72
 1094 024a 00       		.sleb128 0
 1095 024b 1E       		.byte	0x1e
 1096 024c 75       		.byte	0x75
 1097 024d 00       		.sleb128 0
 1098 024e 08       		.byte	0x8
 1099 024f FF       		.byte	0xff
 1100 0250 1A       		.byte	0x1a
 1101 0251 22       		.byte	0x22
 1102 0252 9F       		.byte	0x9f
 1103 0253 0A010000 		.4byte	.LVL38-.Ltext0
 1104 0257 10010000 		.4byte	.LFE134-.Ltext0
 1105 025b 0E00     		.2byte	0xe
 1106 025d 74       		.byte	0x74
 1107 025e 00       		.sleb128 0
 1108 025f 72       		.byte	0x72
 1109 0260 00       		.sleb128 0
 1110 0261 1E       		.byte	0x1e
 1111 0262 70       		.byte	0x70
 1112 0263 08       		.sleb128 8
 1113 0264 94       		.byte	0x94
 1114 0265 01       		.byte	0x1
 1115 0266 08       		.byte	0x8
 1116 0267 FF       		.byte	0xff
 1117 0268 1A       		.byte	0x1a
 1118 0269 22       		.byte	0x22
 1119 026a 9F       		.byte	0x9f
 1120 026b 00000000 		.4byte	0
 1121 026f 00000000 		.4byte	0
 1122              	.LLST12:
 1123 0273 90000000 		.4byte	.LVL23-.Ltext0
 1124 0277 A6000000 		.4byte	.LVL25-.Ltext0
 1125 027b 0200     		.2byte	0x2
 1126 027d 70       		.byte	0x70
 1127 027e 00       		.sleb128 0
 1128 027f FA000000 		.4byte	.LVL33-.Ltext0
 1129 0283 FC000000 		.4byte	.LVL34-.Ltext0
 1130 0287 0200     		.2byte	0x2
 1131 0289 70       		.byte	0x70
 1132 028a 00       		.sleb128 0
 1133 028b FC000000 		.4byte	.LVL34-.Ltext0
 1134 028f 00010000 		.4byte	.LVL36-.Ltext0
 1135 0293 0300     		.2byte	0x3
 1136 0295 F3       		.byte	0xf3
 1137 0296 01       		.uleb128 0x1
 1138 0297 50       		.byte	0x50
 1139 0298 00010000 		.4byte	.LVL36-.Ltext0
 1140 029c 06010000 		.4byte	.LVL37-.Ltext0
ARM GAS  /tmp/ccAQrkyD.s 			page 21


 1141 02a0 0200     		.2byte	0x2
 1142 02a2 70       		.byte	0x70
 1143 02a3 00       		.sleb128 0
 1144 02a4 06010000 		.4byte	.LVL37-.Ltext0
 1145 02a8 0A010000 		.4byte	.LVL38-.Ltext0
 1146 02ac 1200     		.2byte	0x12
 1147 02ae 74       		.byte	0x74
 1148 02af 00       		.sleb128 0
 1149 02b0 72       		.byte	0x72
 1150 02b1 00       		.sleb128 0
 1151 02b2 1E       		.byte	0x1e
 1152 02b3 75       		.byte	0x75
 1153 02b4 00       		.sleb128 0
 1154 02b5 08       		.byte	0x8
 1155 02b6 FF       		.byte	0xff
 1156 02b7 1A       		.byte	0x1a
 1157 02b8 22       		.byte	0x22
 1158 02b9 33       		.byte	0x33
 1159 02ba 25       		.byte	0x25
 1160 02bb 70       		.byte	0x70
 1161 02bc 00       		.sleb128 0
 1162 02bd 06       		.byte	0x6
 1163 02be 22       		.byte	0x22
 1164 02bf 9F       		.byte	0x9f
 1165 02c0 0A010000 		.4byte	.LVL38-.Ltext0
 1166 02c4 10010000 		.4byte	.LFE134-.Ltext0
 1167 02c8 1400     		.2byte	0x14
 1168 02ca 74       		.byte	0x74
 1169 02cb 00       		.sleb128 0
 1170 02cc 72       		.byte	0x72
 1171 02cd 00       		.sleb128 0
 1172 02ce 1E       		.byte	0x1e
 1173 02cf 70       		.byte	0x70
 1174 02d0 08       		.sleb128 8
 1175 02d1 94       		.byte	0x94
 1176 02d2 01       		.byte	0x1
 1177 02d3 08       		.byte	0x8
 1178 02d4 FF       		.byte	0xff
 1179 02d5 1A       		.byte	0x1a
 1180 02d6 22       		.byte	0x22
 1181 02d7 33       		.byte	0x33
 1182 02d8 25       		.byte	0x25
 1183 02d9 70       		.byte	0x70
 1184 02da 00       		.sleb128 0
 1185 02db 06       		.byte	0x6
 1186 02dc 22       		.byte	0x22
 1187 02dd 9F       		.byte	0x9f
 1188 02de 00000000 		.4byte	0
 1189 02e2 00000000 		.4byte	0
 1190              	.LLST13:
 1191 02e6 96000000 		.4byte	.LVL24-.Ltext0
 1192 02ea BE000000 		.4byte	.LVL29-.Ltext0
 1193 02ee 0100     		.2byte	0x1
 1194 02f0 55       		.byte	0x55
 1195 02f1 FA000000 		.4byte	.LVL33-.Ltext0
 1196 02f5 FE000000 		.4byte	.LVL35-.Ltext0
 1197 02f9 0100     		.2byte	0x1
ARM GAS  /tmp/ccAQrkyD.s 			page 22


 1198 02fb 55       		.byte	0x55
 1199 02fc FE000000 		.4byte	.LVL35-.Ltext0
 1200 0300 00010000 		.4byte	.LVL36-.Ltext0
 1201 0304 0500     		.2byte	0x5
 1202 0306 F3       		.byte	0xf3
 1203 0307 01       		.uleb128 0x1
 1204 0308 50       		.byte	0x50
 1205 0309 23       		.byte	0x23
 1206 030a 08       		.uleb128 0x8
 1207 030b 00010000 		.4byte	.LVL36-.Ltext0
 1208 030f 0A010000 		.4byte	.LVL38-.Ltext0
 1209 0313 0100     		.2byte	0x1
 1210 0315 55       		.byte	0x55
 1211 0316 0A010000 		.4byte	.LVL38-.Ltext0
 1212 031a 0E010000 		.4byte	.LVL39-.Ltext0
 1213 031e 0200     		.2byte	0x2
 1214 0320 70       		.byte	0x70
 1215 0321 08       		.sleb128 8
 1216 0322 0E010000 		.4byte	.LVL39-.Ltext0
 1217 0326 10010000 		.4byte	.LFE134-.Ltext0
 1218 032a 0100     		.2byte	0x1
 1219 032c 55       		.byte	0x55
 1220 032d 00000000 		.4byte	0
 1221 0331 00000000 		.4byte	0
 1222              		.section	.debug_aranges,"",%progbits
 1223 0000 1C000000 		.4byte	0x1c
 1224 0004 0200     		.2byte	0x2
 1225 0006 00000000 		.4byte	.Ldebug_info0
 1226 000a 04       		.byte	0x4
 1227 000b 00       		.byte	0
 1228 000c 0000     		.2byte	0
 1229 000e 0000     		.2byte	0
 1230 0010 00000000 		.4byte	.Ltext0
 1231 0014 10010000 		.4byte	.Letext0-.Ltext0
 1232 0018 00000000 		.4byte	0
 1233 001c 00000000 		.4byte	0
 1234              		.section	.debug_line,"",%progbits
 1235              	.Ldebug_line0:
 1236 0000 A2020000 		.section	.debug_str,"MS",%progbits,1
 1236      0200EB01 
 1236      00000201 
 1236      FB0E0D00 
 1236      01010101 
 1237              	.LASF34:
 1238 0000 474E5520 		.ascii	"GNU C 4.9.3 20150529 (release) [ARM/embedded-4_9-br"
 1238      4320342E 
 1238      392E3320 
 1238      32303135 
 1238      30353239 
 1239 0033 616E6368 		.ascii	"anch revision 224288] -mcpu=cortex-m4 -mfloat-abi=h"
 1239      20726576 
 1239      6973696F 
 1239      6E203232 
 1239      34323838 
 1240 0066 61726420 		.ascii	"ard -mfpu=fpv4-sp-d16 -mno-thumb-interwork -mthumb "
 1240      2D6D6670 
 1240      753D6670 
ARM GAS  /tmp/ccAQrkyD.s 			page 23


 1240      76342D73 
 1240      702D6431 
 1241 0099 2D676764 		.ascii	"-ggdb -O2 -fomit-frame-pointer -falign-functions=16"
 1241      62202D4F 
 1241      32202D66 
 1241      6F6D6974 
 1241      2D667261 
 1242 00cc 202D666E 		.ascii	" -fno-math-errno -fsingle-precision-constant\000"
 1242      6F2D6D61 
 1242      74682D65 
 1242      72726E6F 
 1242      202D6673 
 1243              	.LASF20:
 1244 00f9 73686966 		.ascii	"shift\000"
 1244      7400
 1245              	.LASF4:
 1246 00ff 5F5F7569 		.ascii	"__uint8_t\000"
 1246      6E74385F 
 1246      7400
 1247              	.LASF31:
 1248 0109 4849445F 		.ascii	"HID_WriteItem\000"
 1248      57726974 
 1248      65497465 
 1248      6D00
 1249              	.LASF32:
 1250 0117 76616C75 		.ascii	"value\000"
 1250      6500
 1251              	.LASF21:
 1252 011d 636F756E 		.ascii	"count\000"
 1252      7400
 1253              	.LASF5:
 1254 0123 5F5F696E 		.ascii	"__int32_t\000"
 1254      7433325F 
 1254      7400
 1255              	.LASF11:
 1256 012d 756E7369 		.ascii	"unsigned int\000"
 1256      676E6564 
 1256      20696E74 
 1256      00
 1257              	.LASF30:
 1258 013a 4849445F 		.ascii	"HID_ReadItem\000"
 1258      52656164 
 1258      4974656D 
 1258      00
 1259              	.LASF36:
 1260 0147 2F686F6D 		.ascii	"/home/sbcu/Dropbox/pcb-layouts/axo-on-discovery-boa"
 1260      652F7362 
 1260      63752F44 
 1260      726F7062 
 1260      6F782F70 
 1261 017a 72642F61 		.ascii	"rd/axoloti/firmware\000"
 1261      786F6C6F 
 1261      74692F66 
 1261      69726D77 
 1261      61726500 
 1262              	.LASF18:
 1263 018e 64617461 		.ascii	"data\000"
ARM GAS  /tmp/ccAQrkyD.s 			page 24


 1263      00
 1264              	.LASF1:
 1265 0193 756E7369 		.ascii	"unsigned char\000"
 1265      676E6564 
 1265      20636861 
 1265      7200
 1266              	.LASF22:
 1267 01a1 7369676E 		.ascii	"sign\000"
 1267      00
 1268              	.LASF3:
 1269 01a6 73686F72 		.ascii	"short unsigned int\000"
 1269      7420756E 
 1269      7369676E 
 1269      65642069 
 1269      6E7400
 1270              	.LASF7:
 1271 01b9 5F5F7569 		.ascii	"__uint32_t\000"
 1271      6E743332 
 1271      5F7400
 1272              	.LASF29:
 1273 01c4 626F6673 		.ascii	"bofs\000"
 1273      00
 1274              	.LASF24:
 1275 01c9 6C6F6769 		.ascii	"logical_max\000"
 1275      63616C5F 
 1275      6D617800 
 1276              	.LASF26:
 1277 01d5 70687973 		.ascii	"physical_max\000"
 1277      6963616C 
 1277      5F6D6178 
 1277      00
 1278              	.LASF37:
 1279 01e2 49544D5F 		.ascii	"ITM_RxBuffer\000"
 1279      52784275 
 1279      66666572 
 1279      00
 1280              	.LASF35:
 1281 01ef 2E2F5354 		.ascii	"./STM32_USB_Host_Library/Class/HID/Src/usbh_hid_par"
 1281      4D33325F 
 1281      5553425F 
 1281      486F7374 
 1281      5F4C6962 
 1282 0222 7365722E 		.ascii	"ser.c\000"
 1282      6300
 1283              	.LASF8:
 1284 0228 6C6F6E67 		.ascii	"long unsigned int\000"
 1284      20756E73 
 1284      69676E65 
 1284      6420696E 
 1284      7400
 1285              	.LASF28:
 1286 023a 4849445F 		.ascii	"HID_Report_ItemTypedef\000"
 1286      5265706F 
 1286      72745F49 
 1286      74656D54 
 1286      79706564 
 1287              	.LASF16:
ARM GAS  /tmp/ccAQrkyD.s 			page 25


 1288 0251 63686172 		.ascii	"char\000"
 1288      00
 1289              	.LASF12:
 1290 0256 75696E74 		.ascii	"uint8_t\000"
 1290      385F7400 
 1291              	.LASF23:
 1292 025e 6C6F6769 		.ascii	"logical_min\000"
 1292      63616C5F 
 1292      6D696E00 
 1293              	.LASF25:
 1294 026a 70687973 		.ascii	"physical_min\000"
 1294      6963616C 
 1294      5F6D696E 
 1294      00
 1295              	.LASF13:
 1296 0277 696E7433 		.ascii	"int32_t\000"
 1296      325F7400 
 1297              	.LASF15:
 1298 027f 73697A65 		.ascii	"sizetype\000"
 1298      74797065 
 1298      00
 1299              	.LASF9:
 1300 0288 6C6F6E67 		.ascii	"long long int\000"
 1300      206C6F6E 
 1300      6720696E 
 1300      7400
 1301              	.LASF33:
 1302 0296 6D61736B 		.ascii	"mask\000"
 1302      00
 1303              	.LASF2:
 1304 029b 73686F72 		.ascii	"short int\000"
 1304      7420696E 
 1304      7400
 1305              	.LASF14:
 1306 02a5 75696E74 		.ascii	"uint32_t\000"
 1306      33325F74 
 1306      00
 1307              	.LASF6:
 1308 02ae 6C6F6E67 		.ascii	"long int\000"
 1308      20696E74 
 1308      00
 1309              	.LASF0:
 1310 02b7 7369676E 		.ascii	"signed char\000"
 1310      65642063 
 1310      68617200 
 1311              	.LASF27:
 1312 02c3 7265736F 		.ascii	"resolution\000"
 1312      6C757469 
 1312      6F6E00
 1313              	.LASF19:
 1314 02ce 73697A65 		.ascii	"size\000"
 1314      00
 1315              	.LASF17:
 1316 02d3 5F426F6F 		.ascii	"_Bool\000"
 1316      6C00
 1317              	.LASF10:
 1318 02d9 6C6F6E67 		.ascii	"long long unsigned int\000"
ARM GAS  /tmp/ccAQrkyD.s 			page 26


 1318      206C6F6E 
 1318      6720756E 
 1318      7369676E 
 1318      65642069 
 1319              		.ident	"GCC: (GNU Tools for ARM Embedded Processors) 4.9.3 20150529 (release) [ARM/embedded-4_9-br
ARM GAS  /tmp/ccAQrkyD.s 			page 27


DEFINED SYMBOLS
                            *ABS*:00000000 usbh_hid_parser.c
     /tmp/ccAQrkyD.s:20     .text:00000000 $t
     /tmp/ccAQrkyD.s:26     .text:00000000 HID_ReadItem
     /tmp/ccAQrkyD.s:174    .text:00000090 HID_WriteItem
                     .debug_frame:00000010 $d

NO UNDEFINED SYMBOLS
